ccopy_reg
_reconstructor
p0
(cnltk.tree
Tree
p1
c__builtin__
list
p2
(lp3
g0
(g1
g2
(lp4
g0
(g1
g2
(lp5
g0
(g1
g2
(lp6
(lp7
S'word: The, index: 1'
p8
aatp9
Rp10
(dp11
S'_label'
p12
Vnsubj
p13
sbag0
(g1
g2
(lp14
(lp15
S'word: was, index: 2'
p16
aatp17
Rp18
(dp19
g12
Vaux
p20
sbag0
(g1
g2
(lp21
(lp22
S'word: a, index: 3'
p23
aatp24
Rp25
(dp26
g12
Vdep
p27
sbag0
(g1
g2
(lp28
(lp29
S'word: is, index: 5'
p30
aatp31
Rp32
(dp33
g12
Vdep
p34
sbatp35
Rp36
(dp37
g12
S'word: forming, index: 4'
p38
sbatp39
Rp40
(dp41
g12
S'id: 0'
p42
sbag0
(g1
g2
(lp43
g0
(g1
g2
(lp44
g0
(g1
g2
(lp45
g0
(g1
g2
(lp46
g0
(g1
g2
(lp47
(lp48
S'word: the, index: 4'
p49
aatp50
Rp51
(dp52
g12
Vdet
p53
sbatp54
Rp55
(dp56
g12
S'word: actor, index: 5'
p57
sbatp58
Rp59
(dp60
g12
Vnsubj
p61
sbag0
(g1
g2
(lp62
g0
(g1
g2
(lp63
g0
(g1
g2
(lp64
g55
atp65
Rp66
(dp67
g12
Vconj
p68
sbag0
(g1
g2
(lp69
(lp70
S'word: the, index: 1'
p71
aatp72
Rp73
(dp74
g12
Vdet
p75
sbatp76
Rp77
(dp78
g12
S'word: horse, index: 2'
p79
sbatp80
Rp81
(dp82
g12
Vnsubj
p83
sbatp84
Rp85
(dp86
g12
S'word: was, index: 6'
p87
sbatp88
Rp89
(dp90
g12
S'id: 1'
p91
sbag0
(g1
g2
(lp92
g0
(g1
g2
(lp93
g0
(g1
g2
(lp94
(lp95
S'word: the, index: 1'
p96
aatp97
Rp98
(dp99
g12
Vdet
p100
sbatp101
Rp102
(dp103
g12
S'word: prowns, index: 2'
p104
sbatp105
Rp106
(dp107
g12
S'id: 2'
p108
sbag0
(g1
g2
(lp109
g0
(g1
g2
(lp110
g0
(g1
g2
(lp111
(lp112
S'word: the, index: 1'
p113
aatp114
Rp115
(dp116
g12
Vdet
p117
sbatp118
Rp119
(dp120
g12
S'word: seeve, index: 2'
p121
sbatp122
Rp123
(dp124
g12
S'id: 3'
p125
sbag0
(g1
g2
(lp126
g0
(g1
g2
(lp127
g0
(g1
g2
(lp128
(lp129
S'word: one, index: 2'
p130
aatp131
Rp132
(dp133
g12
Vpobj
p134
sbatp135
Rp136
(dp137
g12
S'word: next, index: 1'
p138
sbatp139
Rp140
(dp141
g12
S'id: 4'
p142
sbag0
(g1
g2
(lp143
g0
(g1
g2
(lp144
g0
(g1
g2
(lp145
(lp146
S'word: the, index: 1'
p147
aatp148
Rp149
(dp150
g12
Vdet
p151
sbatp152
Rp153
(dp154
g12
S'word: taber, index: 2'
p155
sbatp156
Rp157
(dp158
g12
S'id: 5'
p159
sbag0
(g1
g2
(lp160
g0
(g1
g2
(lp161
g0
(g1
g2
(lp162
g0
(g1
g2
(lp163
g0
(g1
g2
(lp164
(lp165
S'word: the, index: 1'
p166
aatp167
Rp168
(dp169
g12
Vdet
p170
sbatp171
Rp172
(dp173
g12
S'word: lion, index: 2'
p174
sbatp175
Rp176
(dp177
g12
Vnsubj
p178
sbag0
(g1
g2
(lp179
(lp180
S'word: down, index: 4'
p181
aatp182
Rp183
(dp184
g12
Vprt
p185
sbatp186
Rp187
(dp188
g12
S'word: sits, index: 3'
p189
sbatp190
Rp191
(dp192
g12
S'id: 6'
p193
sbag0
(g1
g2
(lp194
g0
(g1
g2
(lp195
g0
(g1
g2
(lp196
(lp197
S'word: the, index: 1'
p198
aatp199
Rp200
(dp201
g12
Vdet
p202
sbatp203
Rp204
(dp205
g12
S'word: powns, index: 2'
p206
sbatp207
Rp208
(dp209
g12
S'id: 7'
p210
sbatp211
Rp212
(dp213
g12
S'sentences'
p214
sb.