ccopy_reg
_reconstructor
p0
(cnltk.tree
Tree
p1
c__builtin__
list
p2
(lp3
g0
(g1
g2
(lp4
g0
(g1
g2
(lp5
g0
(g1
g2
(lp6
g0
(g1
g2
(lp7
g0
(g1
g2
(lp8
VWe
p9
atp10
Rp11
(dp12
S'_label'
p13
VPRP
p14
sbatp15
Rp16
(dp17
g13
VNP
p18
sbag0
(g1
g2
(lp19
g0
(g1
g2
(lp20
Vhave
p21
atp22
Rp23
(dp24
g13
VVBP
p25
sbag0
(g1
g2
(lp26
g0
(g1
g2
(lp27
Va
p28
atp29
Rp30
(dp31
g13
VDT
p32
sbatp33
Rp34
(dp35
g13
VNP
p36
sbatp37
Rp38
(dp39
g13
VVP
p40
sbatp41
Rp42
(dp43
g13
VS
p44
sbag0
(g1
g2
(lp45
g0
(g1
g2
(lp46
V,
p47
atp48
Rp49
(dp50
g13
V,
p51
sbag0
(g1
g2
(lp52
g0
(g1
g2
(lp53
g0
(g1
g2
(lp54
Vit
p55
atp56
Rp57
(dp58
g13
VPRP
p59
sbatp60
Rp61
(dp62
g13
VNP
p63
sbag0
(g1
g2
(lp64
g0
(g1
g2
(lp65
V's
p66
atp67
Rp68
(dp69
g13
VVBZ
p70
sbag0
(g1
g2
(lp71
Vnot
p72
atp73
Rp74
(dp75
g13
VRB
p76
sbag0
(g1
g2
(lp77
g0
(g1
g2
(lp78
Va
p79
atp80
Rp81
(dp82
g13
VDT
p83
sbag0
(g1
g2
(lp84
g0
(g1
g2
(lp85
Vdark
p86
atp87
Rp88
(dp89
g13
VJJ
p90
sbag0
(g1
g2
(lp91
Vthis
p92
atp93
Rp94
(dp95
g13
VDT
p96
sbatp97
Rp98
(dp99
g13
VADJP
p100
sbag0
(g1
g2
(lp101
Vtime
p102
atp103
Rp104
(dp105
g13
VNN
p106
sbatp107
Rp108
(dp109
g13
VNP
p110
sbatp111
Rp112
(dp113
g13
VVP
p114
sbatp115
Rp116
(dp117
g13
VS
p118
sbag0
(g1
g2
(lp119
V,
p120
atp121
Rp122
(dp123
g13
V,
p124
sbatp125
Rp126
(dp127
g13
VPRN
p128
sbag0
(g1
g2
(lp129
Vso
p130
atp131
Rp132
(dp133
g13
VIN
p134
sbag0
(g1
g2
(lp135
g0
(g1
g2
(lp136
g0
(g1
g2
(lp137
Vit
p138
atp139
Rp140
(dp141
g13
VPRP
p142
sbatp143
Rp144
(dp145
g13
VNP
p146
sbag0
(g1
g2
(lp147
g0
(g1
g2
(lp148
Vlooks
p149
atp150
Rp151
(dp152
g13
VVBZ
p153
sbag0
(g1
g2
(lp154
g0
(g1
g2
(lp155
Vlike
p156
atp157
Rp158
(dp159
g13
VIN
p160
sbag0
(g1
g2
(lp161
g0
(g1
g2
(lp162
g0
(g1
g2
(lp163
Vit
p164
atp165
Rp166
(dp167
g13
VPRP
p168
sbatp169
Rp170
(dp171
g13
VNP
p172
sbag0
(g1
g2
(lp173
g0
(g1
g2
(lp174
Vhas
p175
atp176
Rp177
(dp178
g13
VVBZ
p179
sbag0
(g1
g2
(lp180
g0
(g1
g2
(lp181
Vbeen
p182
atp183
Rp184
(dp185
g13
VVBN
p186
sbag0
(g1
g2
(lp187
g0
(g1
g2
(lp188
Vdone
p189
atp190
Rp191
(dp192
g13
VVBN
p193
sbag0
(g1
g2
(lp194
g0
(g1
g2
(lp195
Vby
p196
atp197
Rp198
(dp199
g13
VIN
p200
sbag0
(g1
g2
(lp201
g0
(g1
g2
(lp202
Va
p203
atp204
Rp205
(dp206
g13
VDT
p207
sbag0
(g1
g2
(lp208
Vdifferent
p209
atp210
Rp211
(dp212
g13
VJJ
p213
sbag0
(g1
g2
(lp214
Vartist
p215
atp216
Rp217
(dp218
g13
VNN
p219
sbatp220
Rp221
(dp222
g13
VNP
p223
sbatp224
Rp225
(dp226
g13
VPP
p227
sbatp228
Rp229
(dp230
g13
VVP
p231
sbatp232
Rp233
(dp234
g13
VVP
p235
sbatp236
Rp237
(dp238
g13
VVP
p239
sbatp240
Rp241
(dp242
g13
VS
p243
sbatp244
Rp245
(dp246
g13
VSBAR
p247
sbatp248
Rp249
(dp250
g13
VVP
p251
sbatp252
Rp253
(dp254
g13
VS
p255
sbag0
(g1
g2
(lp256
V.
p257
atp258
Rp259
(dp260
g13
V.
p261
sbatp262
Rp263
(dp264
g13
VS
p265
sbatp266
Rp267
(dp268
g13
S'id: 0'
p269
sbag0
(g1
g2
(lp270
g0
(g1
g2
(lp271
g0
(g1
g2
(lp272
g0
(g1
g2
(lp273
VA
p274
atp275
Rp276
(dp277
g13
VDT
p278
sbag0
(g1
g2
(lp279
Vyoung
p280
atp281
Rp282
(dp283
g13
VJJ
p284
sbag0
(g1
g2
(lp285
Vman
p286
atp287
Rp288
(dp289
g13
VNN
p290
sbatp291
Rp292
(dp293
g13
VNP
p294
sbag0
(g1
g2
(lp295
g0
(g1
g2
(lp296
Vis
p297
atp298
Rp299
(dp300
g13
VVBZ
p301
sbag0
(g1
g2
(lp302
g0
(g1
g2
(lp303
g0
(g1
g2
(lp304
Vkite
p305
atp306
Rp307
(dp308
g13
VNN
p309
sbatp310
Rp311
(dp312
g13
VNP
p313
sbag0
(g1
g2
(lp314
g0
(g1
g2
(lp315
Vflying
p316
atp317
Rp318
(dp319
g13
VVBG
p320
sbatp321
Rp322
(dp323
g13
VVP
p324
sbatp325
Rp326
(dp327
g13
VNP
p328
sbatp329
Rp330
(dp331
g13
VVP
p332
sbag0
(g1
g2
(lp333
V.
p334
atp335
Rp336
(dp337
g13
V.
p338
sbatp339
Rp340
(dp341
g13
VS
p342
sbatp343
Rp344
(dp345
g13
S'id: 1'
p346
sbag0
(g1
g2
(lp347
g0
(g1
g2
(lp348
g0
(g1
g2
(lp349
VAnd
p350
atp351
Rp352
(dp353
g13
VCC
p354
sbag0
(g1
g2
(lp355
g0
(g1
g2
(lp356
Vthere
p357
atp358
Rp359
(dp360
g13
VEX
p361
sbatp362
Rp363
(dp364
g13
VNP
p365
sbag0
(g1
g2
(lp366
g0
(g1
g2
(lp367
V's
p368
atp369
Rp370
(dp371
g13
VVBZ
p372
sbag0
(g1
g2
(lp373
g0
(g1
g2
(lp374
g0
(g1
g2
(lp375
Va
p376
atp377
Rp378
(dp379
g13
VDT
p380
sbag0
(g1
g2
(lp381
Vsail
p382
atp383
Rp384
(dp385
g13
VNN
p386
sbag0
(g1
g2
(lp387
Vboat
p388
atp389
Rp390
(dp391
g13
VNN
p392
sbatp393
Rp394
(dp395
g13
VNP
p396
sbag0
(g1
g2
(lp397
g0
(g1
g2
(lp398
Von
p399
atp400
Rp401
(dp402
g13
VIN
p403
sbag0
(g1
g2
(lp404
g0
(g1
g2
(lp405
Vthe
p406
atp407
Rp408
(dp409
g13
VDT
p410
sbag0
(g1
g2
(lp411
Vlake
p412
atp413
Rp414
(dp415
g13
VNN
p416
sbatp417
Rp418
(dp419
g13
VNP
p420
sbatp421
Rp422
(dp423
g13
VPP
p424
sbatp425
Rp426
(dp427
g13
VNP
p428
sbatp429
Rp430
(dp431
g13
VVP
p432
sbag0
(g1
g2
(lp433
V.
p434
atp435
Rp436
(dp437
g13
V.
p438
sbatp439
Rp440
(dp441
g13
VS
p442
sbatp443
Rp444
(dp445
g13
S'id: 2'
p446
sbag0
(g1
g2
(lp447
g0
(g1
g2
(lp448
g0
(g1
g2
(lp449
VAnd
p450
atp451
Rp452
(dp453
g13
VCC
p454
sbag0
(g1
g2
(lp455
g0
(g1
g2
(lp456
g0
(g1
g2
(lp457
Vsomebody
p458
atp459
Rp460
(dp461
g13
VNN
p462
sbag0
(g1
g2
(lp463
V's
p464
atp465
Rp466
(dp467
g13
VPOS
p468
sbatp469
Rp470
(dp471
g13
VNP
p472
sbag0
(g1
g2
(lp473
Vfishing
p474
atp475
Rp476
(dp477
g13
VNN
p478
sbatp479
Rp480
(dp481
g13
VNP
p482
sbag0
(g1
g2
(lp483
V,
p484
atp485
Rp486
(dp487
g13
V,
p488
sbag0
(g1
g2
(lp489
g0
(g1
g2
(lp490
Vcaught
p491
atp492
Rp493
(dp494
g13
VVBD
p495
sbag0
(g1
g2
(lp496
g0
(g1
g2
(lp497
Va
p498
atp499
Rp500
(dp501
g13
VDT
p502
sbag0
(g1
g2
(lp503
Vfish
p504
atp505
Rp506
(dp507
g13
VNN
p508
sbatp509
Rp510
(dp511
g13
VNP
p512
sbag0
(g1
g2
(lp513
g0
(g1
g2
(lp514
Vtoo
p515
atp516
Rp517
(dp518
g13
VRB
p519
sbatp520
Rp521
(dp522
g13
VADVP
p523
sbatp524
Rp525
(dp526
g13
VVP
p527
sbag0
(g1
g2
(lp528
V.
p529
atp530
Rp531
(dp532
g13
V.
p533
sbatp534
Rp535
(dp536
g13
VS
p537
sbatp538
Rp539
(dp540
g13
S'id: 3'
p541
sbag0
(g1
g2
(lp542
g0
(g1
g2
(lp543
g0
(g1
g2
(lp544
g0
(g1
g2
(lp545
Vhow
p546
atp547
Rp548
(dp549
g13
VWRB
p550
sbatp551
Rp552
(dp553
g13
VWHADVP
p554
sbag0
(g1
g2
(lp555
g0
(g1
g2
(lp556
Vabout
p557
atp558
Rp559
(dp560
g13
VIN
p561
sbag0
(g1
g2
(lp562
g0
(g1
g2
(lp563
Vthat
p564
atp565
Rp566
(dp567
g13
VDT
p568
sbatp569
Rp570
(dp571
g13
VNP
p572
sbatp573
Rp574
(dp575
g13
VPP
p576
sbatp577
Rp578
(dp579
g13
VFRAG
p580
sbatp581
Rp582
(dp583
g13
S'id: 4'
p584
sbatp585
Rp586
(dp587
g13
S'sentences'
p588
sb.