ccopy_reg
_reconstructor
p0
(cnltk.tree
Tree
p1
c__builtin__
list
p2
(lp3
g0
(g1
g2
(lp4
g0
(g1
g2
(lp5
g0
(g1
g2
(lp6
g0
(g1
g2
(lp7
VThis
p8
atp9
Rp10
(dp11
S'_label'
p12
VDT
p13
sbatp14
Rp15
(dp16
g12
VNP
p17
sbag0
(g1
g2
(lp18
g0
(g1
g2
(lp19
Vlooks
p20
atp21
Rp22
(dp23
g12
VVBZ
p24
sbag0
(g1
g2
(lp25
g0
(g1
g2
(lp26
Vlike
p27
atp28
Rp29
(dp30
g12
VIN
p31
sbag0
(g1
g2
(lp32
g0
(g1
g2
(lp33
g0
(g1
g2
(lp34
Va
p35
atp36
Rp37
(dp38
g12
VDT
p39
sbag0
(g1
g2
(lp40
Vvacation
p41
atp42
Rp43
(dp44
g12
VNN
p45
sbag0
(g1
g2
(lp46
Vtime
p47
atp48
Rp49
(dp50
g12
VNN
p51
sbatp52
Rp53
(dp54
g12
VNP
p55
sbag0
(g1
g2
(lp56
g0
(g1
g2
(lp57
Vfor
p58
atp59
Rp60
(dp61
g12
VIN
p62
sbag0
(g1
g2
(lp63
g0
(g1
g2
(lp64
Vthe
p65
atp66
Rp67
(dp68
g12
VDT
p69
sbag0
(g1
g2
(lp70
Vfamily
p71
atp72
Rp73
(dp74
g12
VNN
p75
sbatp76
Rp77
(dp78
g12
VNP
p79
sbatp80
Rp81
(dp82
g12
VPP
p83
sbatp84
Rp85
(dp86
g12
VNP
p87
sbatp88
Rp89
(dp90
g12
VPP
p91
sbag0
(g1
g2
(lp92
g0
(g1
g2
(lp93
Vby
p94
atp95
Rp96
(dp97
g12
VIN
p98
sbag0
(g1
g2
(lp99
g0
(g1
g2
(lp100
Vthe
p101
atp102
Rp103
(dp104
g12
VDT
p105
sbag0
(g1
g2
(lp106
Vlake
p107
atp108
Rp109
(dp110
g12
VNN
p111
sbatp112
Rp113
(dp114
g12
VNP
p115
sbatp116
Rp117
(dp118
g12
VPP
p119
sbatp120
Rp121
(dp122
g12
VVP
p123
sbag0
(g1
g2
(lp124
V.
p125
atp126
Rp127
(dp128
g12
V.
p129
sbatp130
Rp131
(dp132
g12
VS
p133
sbatp134
Rp135
(dp136
g12
S'id: 0'
p137
sbag0
(g1
g2
(lp138
g0
(g1
g2
(lp139
g0
(g1
g2
(lp140
VAnd
p141
atp142
Rp143
(dp144
g12
VCC
p145
sbag0
(g1
g2
(lp146
g0
(g1
g2
(lp147
g0
(g1
g2
(lp148
VI
p149
atp150
Rp151
(dp152
g12
VPRP
p153
sbatp154
Rp155
(dp156
g12
VNP
p157
sbag0
(g1
g2
(lp158
g0
(g1
g2
(lp159
V'm
p160
atp161
Rp162
(dp163
g12
VVBP
p164
sbag0
(g1
g2
(lp165
g0
(g1
g2
(lp166
Vassuming
p167
atp168
Rp169
(dp170
g12
VVBG
p171
sbag0
(g1
g2
(lp172
g0
(g1
g2
(lp173
Vthat
p174
atp175
Rp176
(dp177
g12
VIN
p178
sbag0
(g1
g2
(lp179
g0
(g1
g2
(lp180
g0
(g1
g2
(lp181
Vit
p182
atp183
Rp184
(dp185
g12
VPRP
p186
sbatp187
Rp188
(dp189
g12
VNP
p190
sbag0
(g1
g2
(lp191
g0
(g1
g2
(lp192
g0
(g1
g2
(lp193
Vnot
p194
atp195
Rp196
(dp197
g12
VRB
p198
sbag0
(g1
g2
(lp199
Vreally
p200
atp201
Rp202
(dp203
g12
VRB
p204
sbatp205
Rp206
(dp207
g12
VADJP
p208
sbag0
(g1
g2
(lp209
g0
(g1
g2
(lp210
Vin
p211
atp212
Rp213
(dp214
g12
VIN
p215
sbag0
(g1
g2
(lp216
g0
(g1
g2
(lp217
g0
(g1
g2
(lp218
Vthe
p219
atp220
Rp221
(dp222
g12
VDT
p223
sbag0
(g1
g2
(lp224
Vcountry
p225
atp226
Rp227
(dp228
g12
VNN
p229
sbatp230
Rp231
(dp232
g12
VNP
p233
sbag0
(g1
g2
(lp234
g0
(g1
g2
(lp235
Vas
p236
atp237
Rp238
(dp239
g12
VIN
p240
sbag0
(g1
g2
(lp241
g0
(g1
g2
(lp242
g0
(g1
g2
(lp243
Vsuch
p244
atp245
Rp246
(dp247
g12
VJJ
p248
sbatp249
Rp250
(dp251
g12
VNP
p252
sbag0
(g1
g2
(lp253
V,
p254
atp255
Rp256
(dp257
g12
V,
p258
sbag0
(g1
g2
(lp259
g0
(g1
g2
(lp260
Vbecause
p261
atp262
Rp263
(dp264
g12
VIN
p265
sbag0
(g1
g2
(lp266
g0
(g1
g2
(lp267
g0
(g1
g2
(lp268
Vit
p269
atp270
Rp271
(dp272
g12
VPRP
p273
sbatp274
Rp275
(dp276
g12
VNP
p277
sbag0
(g1
g2
(lp278
g0
(g1
g2
(lp279
V's
p280
atp281
Rp282
(dp283
g12
VVBZ
p284
sbag0
(g1
g2
(lp285
g0
(g1
g2
(lp286
Vsomewhat
p287
atp288
Rp289
(dp290
g12
VRB
p291
sbag0
(g1
g2
(lp292
Vmisleading
p293
atp294
Rp295
(dp296
g12
VJJ
p297
sbatp298
Rp299
(dp300
g12
VADJP
p301
sbag0
(g1
g2
(lp302
g0
(g1
g2
(lp303
Vthat
p304
atp305
Rp306
(dp307
g12
VIN
p308
sbag0
(g1
g2
(lp309
g0
(g1
g2
(lp310
g0
(g1
g2
(lp311
Vthere
p312
atp313
Rp314
(dp315
g12
VEX
p316
sbatp317
Rp318
(dp319
g12
VNP
p320
sbag0
(g1
g2
(lp321
g0
(g1
g2
(lp322
Vis
p323
atp324
Rp325
(dp326
g12
VVBZ
p327
sbag0
(g1
g2
(lp328
g0
(g1
g2
(lp329
g0
(g1
g2
(lp330
Va
p331
atp332
Rp333
(dp334
g12
VDT
p335
sbag0
(g1
g2
(lp336
Vsail
p337
atp338
Rp339
(dp340
g12
VNN
p341
sbag0
(g1
g2
(lp342
Vboat
p343
atp344
Rp345
(dp346
g12
VNN
p347
sbatp348
Rp349
(dp350
g12
VNP
p351
sbag0
(g1
g2
(lp352
g0
(g1
g2
(lp353
Von
p354
atp355
Rp356
(dp357
g12
VIN
p358
sbag0
(g1
g2
(lp359
g0
(g1
g2
(lp360
Vthe
p361
atp362
Rp363
(dp364
g12
VDT
p365
sbag0
(g1
g2
(lp366
Vwater
p367
atp368
Rp369
(dp370
g12
VNN
p371
sbatp372
Rp373
(dp374
g12
VNP
p375
sbatp376
Rp377
(dp378
g12
VPP
p379
sbatp380
Rp381
(dp382
g12
VNP
p383
sbatp384
Rp385
(dp386
g12
VVP
p387
sbatp388
Rp389
(dp390
g12
VS
p391
sbatp392
Rp393
(dp394
g12
VSBAR
p395
sbatp396
Rp397
(dp398
g12
VVP
p399
sbatp400
Rp401
(dp402
g12
VS
p403
sbatp404
Rp405
(dp406
g12
VSBAR
p407
sbatp408
Rp409
(dp410
g12
VNP
p411
sbatp412
Rp413
(dp414
g12
VPP
p415
sbatp416
Rp417
(dp418
g12
VNP
p419
sbatp420
Rp421
(dp422
g12
VPP
p423
sbatp424
Rp425
(dp426
g12
VADJP
p427
sbatp428
Rp429
(dp430
g12
VS
p431
sbatp432
Rp433
(dp434
g12
VSBAR
p435
sbatp436
Rp437
(dp438
g12
VVP
p439
sbatp440
Rp441
(dp442
g12
VVP
p443
sbatp444
Rp445
(dp446
g12
VS
p447
sbag0
(g1
g2
(lp448
V,
p449
atp450
Rp451
(dp452
g12
V,
p453
sbag0
(g1
g2
(lp454
Vbut
p455
atp456
Rp457
(dp458
g12
VCC
p459
sbag0
(g1
g2
(lp460
g0
(g1
g2
(lp461
g0
(g1
g2
(lp462
Vthe
p463
atp464
Rp465
(dp466
g12
VDT
p467
sbag0
(g1
g2
(lp468
Vhouse
p469
atp470
Rp471
(dp472
g12
VNN
p473
sbatp474
Rp475
(dp476
g12
VNP
p477
sbag0
(g1
g2
(lp478
g0
(g1
g2
(lp479
Vhas
p480
atp481
Rp482
(dp483
g12
VVBZ
p484
sbag0
(g1
g2
(lp485
g0
(g1
g2
(lp486
g0
(g1
g2
(lp487
g0
(g1
g2
(lp488
Va
p489
atp490
Rp491
(dp492
g12
VDT
p493
sbag0
(g1
g2
(lp494
Vroad
p495
atp496
Rp497
(dp498
g12
VNN
p499
sbatp500
Rp501
(dp502
g12
VNP
p503
sbag0
(g1
g2
(lp504
g0
(g1
g2
(lp505
Vleading
p506
atp507
Rp508
(dp509
g12
VVBG
p510
sbag0
(g1
g2
(lp511
g0
(g1
g2
(lp512
Vup
p513
atp514
Rp515
(dp516
g12
VRP
p517
sbatp518
Rp519
(dp520
g12
VPRT
p521
sbag0
(g1
g2
(lp522
g0
(g1
g2
(lp523
Vto
p524
atp525
Rp526
(dp527
g12
VTO
p528
sbag0
(g1
g2
(lp529
g0
(g1
g2
(lp530
Vit
p531
atp532
Rp533
(dp534
g12
VPRP
p535
sbatp536
Rp537
(dp538
g12
VNP
p539
sbatp540
Rp541
(dp542
g12
VPP
p543
sbag0
(g1
g2
(lp544
V,
p545
atp546
Rp547
(dp548
g12
V,
p549
sbag0
(g1
g2
(lp550
g0
(g1
g2
(lp551
Vthat
p552
atp553
Rp554
(dp555
g12
VIN
p556
sbag0
(g1
g2
(lp557
g0
(g1
g2
(lp558
g0
(g1
g2
(lp559
Vappears
p560
atp561
Rp562
(dp563
g12
VVBZ
p564
sbag0
(g1
g2
(lp565
g0
(g1
g2
(lp566
g0
(g1
g2
(lp567
Vto
p568
atp569
Rp570
(dp571
g12
VTO
p572
sbag0
(g1
g2
(lp573
g0
(g1
g2
(lp574
Vbe
p575
atp576
Rp577
(dp578
g12
VVB
p579
sbag0
(g1
g2
(lp580
g0
(g1
g2
(lp581
g0
(g1
g2
(lp582
Vfairly
p583
atp584
Rp585
(dp586
g12
VRB
p587
sbag0
(g1
g2
(lp588
Vprivate
p589
atp590
Rp591
(dp592
g12
VJJ
p593
sbatp594
Rp595
(dp596
g12
VADJP
p597
sbag0
(g1
g2
(lp598
V,
p599
atp600
Rp601
(dp602
g12
V,
p603
sbag0
(g1
g2
(lp604
Vbut
p605
atp606
Rp607
(dp608
g12
VCC
p609
sbag0
(g1
g2
(lp610
g0
(g1
g2
(lp611
Vmore
p612
atp613
Rp614
(dp615
g12
VRBR
p616
sbatp617
Rp618
(dp619
g12
VADJP
p620
sbatp621
Rp622
(dp623
g12
VADJP
p624
sbag0
(g1
g2
(lp625
g0
(g1
g2
(lp626
Vlike
p627
atp628
Rp629
(dp630
g12
VIN
p631
sbag0
(g1
g2
(lp632
g0
(g1
g2
(lp633
g0
(g1
g2
(lp634
Van
p635
atp636
Rp637
(dp638
g12
VDT
p639
sbag0
(g1
g2
(lp640
Vurban
p641
atp642
Rp643
(dp644
g12
VJJ
p645
sbag0
(g1
g2
(lp646
Vsetting
p647
atp648
Rp649
(dp650
g12
VNN
p651
sbatp652
Rp653
(dp654
g12
VNP
p655
sbag0
(g1
g2
(lp656
g0
(g1
g2
(lp657
Vrather
p658
atp659
Rp660
(dp661
g12
VRB
p662
sbag0
(g1
g2
(lp663
Vthan
p664
atp665
Rp666
(dp667
g12
VIN
p668
sbatp669
Rp670
(dp671
g12
VCONJP
p672
sbag0
(g1
g2
(lp673
g0
(g1
g2
(lp674
Va
p675
atp676
Rp677
(dp678
g12
VDT
p679
sbag0
(g1
g2
(lp680
Vreal
p681
atp682
Rp683
(dp684
g12
VJJ
p685
sbag0
(g1
g2
(lp686
Vcountry
p687
atp688
Rp689
(dp690
g12
VNN
p691
sbag0
(g1
g2
(lp692
Vsetting
p693
atp694
Rp695
(dp696
g12
VNN
p697
sbatp698
Rp699
(dp700
g12
VNP
p701
sbatp702
Rp703
(dp704
g12
VNP
p705
sbatp706
Rp707
(dp708
g12
VPP
p709
sbatp710
Rp711
(dp712
g12
VVP
p713
sbatp714
Rp715
(dp716
g12
VVP
p717
sbatp718
Rp719
(dp720
g12
VS
p721
sbatp722
Rp723
(dp724
g12
VVP
p725
sbatp726
Rp727
(dp728
g12
VS
p729
sbatp730
Rp731
(dp732
g12
VSBAR
p733
sbatp734
Rp735
(dp736
g12
VVP
p737
sbatp738
Rp739
(dp740
g12
VNP
p741
sbag0
(g1
g2
(lp742
V,
p743
atp744
Rp745
(dp746
g12
V,
p747
sbag0
(g1
g2
(lp748
Vor
p749
atp750
Rp751
(dp752
g12
VCC
p753
sbag0
(g1
g2
(lp754
g0
(g1
g2
(lp755
Vdistance
p756
atp757
Rp758
(dp759
g12
VNN
p760
sbag0
(g1
g2
(lp761
Vsetting
p762
atp763
Rp764
(dp765
g12
VNN
p766
sbatp767
Rp768
(dp769
g12
VNP
p770
sbatp771
Rp772
(dp773
g12
VNP
p774
sbatp775
Rp776
(dp777
g12
VVP
p778
sbatp779
Rp780
(dp781
g12
VS
p782
sbag0
(g1
g2
(lp783
V.
p784
atp785
Rp786
(dp787
g12
V.
p788
sbatp789
Rp790
(dp791
g12
VS
p792
sbatp793
Rp794
(dp795
g12
S'id: 1'
p796
sbag0
(g1
g2
(lp797
g0
(g1
g2
(lp798
g0
(g1
g2
(lp799
VAnd
p800
atp801
Rp802
(dp803
g12
VCC
p804
sbag0
(g1
g2
(lp805
g0
(g1
g2
(lp806
Vfor
p807
atp808
Rp809
(dp810
g12
VIN
p811
sbag0
(g1
g2
(lp812
g0
(g1
g2
(lp813
Vsome
p814
atp815
Rp816
(dp817
g12
VDT
p818
sbag0
(g1
g2
(lp819
Vreason
p820
atp821
Rp822
(dp823
g12
VNN
p824
sbatp825
Rp826
(dp827
g12
VNP
p828
sbatp829
Rp830
(dp831
g12
VPP
p832
sbag0
(g1
g2
(lp833
g0
(g1
g2
(lp834
Vthere
p835
atp836
Rp837
(dp838
g12
VEX
p839
sbatp840
Rp841
(dp842
g12
VNP
p843
sbag0
(g1
g2
(lp844
g0
(g1
g2
(lp845
V's
p846
atp847
Rp848
(dp849
g12
VVBZ
p850
sbag0
(g1
g2
(lp851
g0
(g1
g2
(lp852
g0
(g1
g2
(lp853
g0
(g1
g2
(lp854
Va
p855
atp856
Rp857
(dp858
g12
VDT
p859
sbag0
(g1
g2
(lp860
Vflag
p861
atp862
Rp863
(dp864
g12
VNN
p865
sbatp866
Rp867
(dp868
g12
VNP
p869
sbag0
(g1
g2
(lp870
Vout
p871
atp872
Rp873
(dp874
g12
VRP
p875
sbatp876
Rp877
(dp878
g12
VADVP
p879
sbag0
(g1
g2
(lp880
Vin
p881
atp882
Rp883
(dp884
g12
VIN
p885
sbag0
(g1
g2
(lp886
Vin
p887
atp888
Rp889
(dp890
g12
VIN
p891
sbag0
(g1
g2
(lp892
g0
(g1
g2
(lp893
g0
(g1
g2
(lp894
Vthe
p895
atp896
Rp897
(dp898
g12
VDT
p899
sbag0
(g1
g2
(lp900
Vyard
p901
atp902
Rp903
(dp904
g12
VNN
p905
sbatp906
Rp907
(dp908
g12
VNP
p909
sbag0
(g1
g2
(lp910
V,
p911
atp912
Rp913
(dp914
g12
V,
p915
sbag0
(g1
g2
(lp916
g0
(g1
g2
(lp917
g0
(g1
g2
(lp918
Vwhich
p919
atp920
Rp921
(dp922
g12
VWDT
p923
sbatp924
Rp925
(dp926
g12
VWHNP
p927
sbag0
(g1
g2
(lp928
g0
(g1
g2
(lp929
g0
(g1
g2
(lp930
g0
(g1
g2
(lp931
Vmeans
p932
atp933
Rp934
(dp935
g12
VVBZ
p936
sbag0
(g1
g2
(lp937
g0
(g1
g2
(lp938
g0
(g1
g2
(lp939
g0
(g1
g2
(lp940
Vit
p941
atp942
Rp943
(dp944
g12
VPRP
p945
sbatp946
Rp947
(dp948
g12
VNP
p949
sbag0
(g1
g2
(lp950
g0
(g1
g2
(lp951
Vcould
p952
atp953
Rp954
(dp955
g12
VMD
p956
sbag0
(g1
g2
(lp957
g0
(g1
g2
(lp958
Vbe
p959
atp960
Rp961
(dp962
g12
VVB
p963
sbag0
(g1
g2
(lp964
g0
(g1
g2
(lp965
Vpublic
p966
atp967
Rp968
(dp969
g12
VJJ
p970
sbag0
(g1
g2
(lp971
Vpark
p972
atp973
Rp974
(dp975
g12
VNN
p976
sbatp977
Rp978
(dp979
g12
VNP
p980
sbatp981
Rp982
(dp983
g12
VVP
p984
sbatp985
Rp986
(dp987
g12
VVP
p988
sbatp989
Rp990
(dp991
g12
VS
p992
sbatp993
Rp994
(dp995
g12
VSBAR
p996
sbatp997
Rp998
(dp999
g12
VVP
p1000
sbag0
(g1
g2
(lp1001
V,
p1002
atp1003
Rp1004
(dp1005
g12
V,
p1006
sbag0
(g1
g2
(lp1007
Vbut
p1008
atp1009
Rp1010
(dp1011
g12
VCC
p1012
sbag0
(g1
g2
(lp1013
g0
(g1
g2
(lp1014
Vmay
p1015
atp1016
Rp1017
(dp1018
g12
VMD
p1019
sbag0
(g1
g2
(lp1020
g0
(g1
g2
(lp1021
Vbe
p1022
atp1023
Rp1024
(dp1025
g12
VVB
p1026
sbag0
(g1
g2
(lp1027
g0
(g1
g2
(lp1028
Vnot
p1029
atp1030
Rp1031
(dp1032
g12
VRB
p1033
sbatp1034
Rp1035
(dp1036
g12
VADVP
p1037
sbatp1038
Rp1039
(dp1040
g12
VVP
p1041
sbatp1042
Rp1043
(dp1044
g12
VVP
p1045
sbatp1046
Rp1047
(dp1048
g12
VVP
p1049
sbatp1050
Rp1051
(dp1052
g12
VS
p1053
sbatp1054
Rp1055
(dp1056
g12
VSBAR
p1057
sbatp1058
Rp1059
(dp1060
g12
VNP
p1061
sbatp1062
Rp1063
(dp1064
g12
VPP
p1065
sbatp1066
Rp1067
(dp1068
g12
VVP
p1069
sbag0
(g1
g2
(lp1070
V.
p1071
atp1072
Rp1073
(dp1074
g12
V.
p1075
sbatp1076
Rp1077
(dp1078
g12
VS
p1079
sbatp1080
Rp1081
(dp1082
g12
S'id: 2'
p1083
sbag0
(g1
g2
(lp1084
g0
(g1
g2
(lp1085
g0
(g1
g2
(lp1086
VAnd
p1087
atp1088
Rp1089
(dp1090
g12
VCC
p1091
sbag0
(g1
g2
(lp1092
g0
(g1
g2
(lp1093
Vthat
p1094
atp1095
Rp1096
(dp1097
g12
VDT
p1098
sbag0
(g1
g2
(lp1099
Vfacility
p1100
atp1101
Rp1102
(dp1103
g12
VNN
p1104
sbatp1105
Rp1106
(dp1107
g12
VNP
p1108
sbag0
(g1
g2
(lp1109
g0
(g1
g2
(lp1110
Vcould
p1111
atp1112
Rp1113
(dp1114
g12
VMD
p1115
sbag0
(g1
g2
(lp1116
g0
(g1
g2
(lp1117
Vbelong
p1118
atp1119
Rp1120
(dp1121
g12
VVB
p1122
sbag0
(g1
g2
(lp1123
g0
(g1
g2
(lp1124
Vto
p1125
atp1126
Rp1127
(dp1128
g12
VTO
p1129
sbag0
(g1
g2
(lp1130
g0
(g1
g2
(lp1131
g0
(g1
g2
(lp1132
g0
(g1
g2
(lp1133
Vthe
p1134
atp1135
Rp1136
(dp1137
g12
VDT
p1138
sbag0
(g1
g2
(lp1139
Vperson
p1140
atp1141
Rp1142
(dp1143
g12
VNN
p1144
sbatp1145
Rp1146
(dp1147
g12
VNP
p1148
sbag0
(g1
g2
(lp1149
g0
(g1
g2
(lp1150
g0
(g1
g2
(lp1151
Vwho
p1152
atp1153
Rp1154
(dp1155
g12
VWP
p1156
sbatp1157
Rp1158
(dp1159
g12
VWHNP
p1160
sbag0
(g1
g2
(lp1161
g0
(g1
g2
(lp1162
g0
(g1
g2
(lp1163
Vmaintains
p1164
atp1165
Rp1166
(dp1167
g12
VVBZ
p1168
sbag0
(g1
g2
(lp1169
g0
(g1
g2
(lp1170
Vthe
p1171
atp1172
Rp1173
(dp1174
g12
VDT
p1175
sbag0
(g1
g2
(lp1176
Varea
p1177
atp1178
Rp1179
(dp1180
g12
VNN
p1181
sbatp1182
Rp1183
(dp1184
g12
VNP
p1185
sbatp1186
Rp1187
(dp1188
g12
VVP
p1189
sbatp1190
Rp1191
(dp1192
g12
VS
p1193
sbatp1194
Rp1195
(dp1196
g12
VSBAR
p1197
sbatp1198
Rp1199
(dp1200
g12
VNP
p1201
sbag0
(g1
g2
(lp1202
V,
p1203
atp1204
Rp1205
(dp1206
g12
V,
p1207
sbag0
(g1
g2
(lp1208
g0
(g1
g2
(lp1209
Vrather
p1210
atp1211
Rp1212
(dp1213
g12
VRB
p1214
sbag0
(g1
g2
(lp1215
Vthan
p1216
atp1217
Rp1218
(dp1219
g12
VIN
p1220
sbatp1221
Rp1222
(dp1223
g12
VCONJP
p1224
sbag0
(g1
g2
(lp1225
g0
(g1
g2
(lp1226
Vpeople
p1227
atp1228
Rp1229
(dp1230
g12
VNNS
p1231
sbag0
(g1
g2
(lp1232
Vvisiting
p1233
atp1234
Rp1235
(dp1236
g12
VVBG
p1237
sbatp1238
Rp1239
(dp1240
g12
VNP
p1241
sbatp1242
Rp1243
(dp1244
g12
VNP
p1245
sbatp1246
Rp1247
(dp1248
g12
VPP
p1249
sbatp1250
Rp1251
(dp1252
g12
VVP
p1253
sbatp1254
Rp1255
(dp1256
g12
VVP
p1257
sbag0
(g1
g2
(lp1258
V.
p1259
atp1260
Rp1261
(dp1262
g12
V.
p1263
sbatp1264
Rp1265
(dp1266
g12
VS
p1267
sbatp1268
Rp1269
(dp1270
g12
S'id: 3'
p1271
sbag0
(g1
g2
(lp1272
g0
(g1
g2
(lp1273
g0
(g1
g2
(lp1274
VAnd
p1275
atp1276
Rp1277
(dp1278
g12
VCC
p1279
sbag0
(g1
g2
(lp1280
g0
(g1
g2
(lp1281
g0
(g1
g2
(lp1282
Vthe
p1283
atp1284
Rp1285
(dp1286
g12
VDT
p1287
sbag0
(g1
g2
(lp1288
Vfamily
p1289
atp1290
Rp1291
(dp1292
g12
VNN
p1293
sbatp1294
Rp1295
(dp1296
g12
VNP
p1297
sbag0
(g1
g2
(lp1298
g0
(g1
g2
(lp1299
Vis
p1300
atp1301
Rp1302
(dp1303
g12
VVBZ
p1304
sbag0
(g1
g2
(lp1305
g0
(g1
g2
(lp1306
Venjoying
p1307
atp1308
Rp1309
(dp1310
g12
VVBG
p1311
sbag0
(g1
g2
(lp1312
g0
(g1
g2
(lp1313
Va
p1314
atp1315
Rp1316
(dp1317
g12
VDT
p1318
sbag0
(g1
g2
(lp1319
Vpicnic
p1320
atp1321
Rp1322
(dp1323
g12
VNN
p1324
sbatp1325
Rp1326
(dp1327
g12
VNP
p1328
sbatp1329
Rp1330
(dp1331
g12
VVP
p1332
sbatp1333
Rp1334
(dp1335
g12
VVP
p1336
sbatp1337
Rp1338
(dp1339
g12
VS
p1340
sbag0
(g1
g2
(lp1341
g0
(g1
g2
(lp1342
V,
p1343
atp1344
Rp1345
(dp1346
g12
V,
p1347
sbag0
(g1
g2
(lp1348
g0
(g1
g2
(lp1349
g0
(g1
g2
(lp1350
Vshe
p1351
atp1352
Rp1353
(dp1354
g12
VPRP
p1355
sbatp1356
Rp1357
(dp1358
g12
VNP
p1359
sbag0
(g1
g2
(lp1360
g0
(g1
g2
(lp1361
V's
p1362
atp1363
Rp1364
(dp1365
g12
VVBZ
p1366
sbag0
(g1
g2
(lp1367
g0
(g1
g2
(lp1368
Vpouring
p1369
atp1370
Rp1371
(dp1372
g12
VVBG
p1373
sbag0
(g1
g2
(lp1374
g0
(g1
g2
(lp1375
Va
p1376
atp1377
Rp1378
(dp1379
g12
VDT
p1380
sbag0
(g1
g2
(lp1381
Vdrink
p1382
atp1383
Rp1384
(dp1385
g12
VNN
p1386
sbatp1387
Rp1388
(dp1389
g12
VNP
p1390
sbatp1391
Rp1392
(dp1393
g12
VVP
p1394
sbatp1395
Rp1396
(dp1397
g12
VVP
p1398
sbatp1399
Rp1400
(dp1401
g12
VS
p1402
sbag0
(g1
g2
(lp1403
V,
p1404
atp1405
Rp1406
(dp1407
g12
V,
p1408
sbatp1409
Rp1410
(dp1411
g12
VPRN
p1412
sbag0
(g1
g2
(lp1413
Vand
p1414
atp1415
Rp1416
(dp1417
g12
VCC
p1418
sbag0
(g1
g2
(lp1419
g0
(g1
g2
(lp1420
Vhopefully
p1421
atp1422
Rp1423
(dp1424
g12
VRB
p1425
sbatp1426
Rp1427
(dp1428
g12
VADVP
p1429
sbag0
(g1
g2
(lp1430
g0
(g1
g2
(lp1431
g0
(g1
g2
(lp1432
Vthat
p1433
atp1434
Rp1435
(dp1436
g12
VDT
p1437
sbatp1438
Rp1439
(dp1440
g12
VNP
p1441
sbag0
(g1
g2
(lp1442
g0
(g1
g2
(lp1443
V's
p1444
atp1445
Rp1446
(dp1447
g12
VVBZ
p1448
sbag0
(g1
g2
(lp1449
g0
(g1
g2
(lp1450
g0
(g1
g2
(lp1451
Vevaon
p1452
atp1453
Rp1454
(dp1455
g12
VNN
p1456
sbag0
(g1
g2
(lp1457
Vwater
p1458
atp1459
Rp1460
(dp1461
g12
VNN
p1462
sbatp1463
Rp1464
(dp1465
g12
VNP
p1466
sbag0
(g1
g2
(lp1467
g0
(g1
g2
(lp1468
Vrather
p1469
atp1470
Rp1471
(dp1472
g12
VRB
p1473
sbag0
(g1
g2
(lp1474
Vthan
p1475
atp1476
Rp1477
(dp1478
g12
VIN
p1479
sbatp1480
Rp1481
(dp1482
g12
VCONJP
p1483
sbag0
(g1
g2
(lp1484
g0
(g1
g2
(lp1485
Vanything
p1486
atp1487
Rp1488
(dp1489
g12
VNN
p1490
sbag0
(g1
g2
(lp1491
Velse
p1492
atp1493
Rp1494
(dp1495
g12
VRB
p1496
sbatp1497
Rp1498
(dp1499
g12
VNP
p1500
sbatp1501
Rp1502
(dp1503
g12
VNP
p1504
sbatp1505
Rp1506
(dp1507
g12
VVP
p1508
sbatp1509
Rp1510
(dp1511
g12
VS
p1512
sbag0
(g1
g2
(lp1513
V.
p1514
atp1515
Rp1516
(dp1517
g12
V.
p1518
sbatp1519
Rp1520
(dp1521
g12
VS
p1522
sbatp1523
Rp1524
(dp1525
g12
S'id: 4'
p1526
sbag0
(g1
g2
(lp1527
g0
(g1
g2
(lp1528
g0
(g1
g2
(lp1529
g0
(g1
g2
(lp1530
g0
(g1
g2
(lp1531
VAnd
p1532
atp1533
Rp1534
(dp1535
g12
VCC
p1536
sbag0
(g1
g2
(lp1537
g0
(g1
g2
(lp1538
Vthey
p1539
atp1540
Rp1541
(dp1542
g12
VPRP
p1543
sbatp1544
Rp1545
(dp1546
g12
VNP
p1547
sbag0
(g1
g2
(lp1548
g0
(g1
g2
(lp1549
g0
(g1
g2
(lp1550
Vhave
p1551
atp1552
Rp1553
(dp1554
g12
VVBP
p1555
sbag0
(g1
g2
(lp1556
g0
(g1
g2
(lp1557
Vtheir
p1558
atp1559
Rp1560
(dp1561
g12
VPRP$
p1562
sbag0
(g1
g2
(lp1563
Vlittle
p1564
atp1565
Rp1566
(dp1567
g12
VJJ
p1568
sbag0
(g1
g2
(lp1569
Vportable
p1570
atp1571
Rp1572
(dp1573
g12
VJJ
p1574
sbag0
(g1
g2
(lp1575
Vradio
p1576
atp1577
Rp1578
(dp1579
g12
VNN
p1580
sbatp1581
Rp1582
(dp1583
g12
VNP
p1584
sbatp1585
Rp1586
(dp1587
g12
VVP
p1588
sbag0
(g1
g2
(lp1589
V,
p1590
atp1591
Rp1592
(dp1593
g12
V,
p1594
sbag0
(g1
g2
(lp1595
g0
(g1
g2
(lp1596
g0
(g1
g2
(lp1597
Vtheir
p1598
atp1599
Rp1600
(dp1601
g12
VPRP$
p1602
sbag0
(g1
g2
(lp1603
Vsandals
p1604
atp1605
Rp1606
(dp1607
g12
VNNS
p1608
sbatp1609
Rp1610
(dp1611
g12
VNP
p1612
sbag0
(g1
g2
(lp1613
g0
(g1
g2
(lp1614
Vout
p1615
atp1616
Rp1617
(dp1618
g12
VRP
p1619
sbatp1620
Rp1621
(dp1622
g12
VADVP
p1623
sbatp1624
Rp1625
(dp1626
g12
VVP
p1627
sbatp1628
Rp1629
(dp1630
g12
VVP
p1631
sbatp1632
Rp1633
(dp1634
g12
VS
p1635
sbag0
(g1
g2
(lp1636
V,
p1637
atp1638
Rp1639
(dp1640
g12
V,
p1641
sbag0
(g1
g2
(lp1642
Vand
p1643
atp1644
Rp1645
(dp1646
g12
VCC
p1647
sbag0
(g1
g2
(lp1648
g0
(g1
g2
(lp1649
g0
(g1
g2
(lp1650
Vdad
p1651
atp1652
Rp1653
(dp1654
g12
VNN
p1655
sbatp1656
Rp1657
(dp1658
g12
VNP
p1659
sbag0
(g1
g2
(lp1660
g0
(g1
g2
(lp1661
Vobviously
p1662
atp1663
Rp1664
(dp1665
g12
VRB
p1666
sbatp1667
Rp1668
(dp1669
g12
VADVP
p1670
sbag0
(g1
g2
(lp1671
g0
(g1
g2
(lp1672
Vhas
p1673
atp1674
Rp1675
(dp1676
g12
VVBZ
p1677
sbag0
(g1
g2
(lp1678
g0
(g1
g2
(lp1679
Vhis
p1680
atp1681
Rp1682
(dp1683
g12
VPRP$
p1684
sbag0
(g1
g2
(lp1685
Vsandals
p1686
atp1687
Rp1688
(dp1689
g12
VNNS
p1690
sbatp1691
Rp1692
(dp1693
g12
VNP
p1694
sbag0
(g1
g2
(lp1695
g0
(g1
g2
(lp1696
Voff
p1697
atp1698
Rp1699
(dp1700
g12
VRP
p1701
sbatp1702
Rp1703
(dp1704
g12
VPP
p1705
sbatp1706
Rp1707
(dp1708
g12
VVP
p1709
sbatp1710
Rp1711
(dp1712
g12
VS
p1713
sbatp1714
Rp1715
(dp1716
g12
VS
p1717
sbag0
(g1
g2
(lp1718
V,
p1719
atp1720
Rp1721
(dp1722
g12
V,
p1723
sbag0
(g1
g2
(lp1724
g0
(g1
g2
(lp1725
Vmother
p1726
atp1727
Rp1728
(dp1729
g12
VNN
p1730
sbatp1731
Rp1732
(dp1733
g12
VNP
p1734
sbag0
(g1
g2
(lp1735
g0
(g1
g2
(lp1736
Vhas
p1737
atp1738
Rp1739
(dp1740
g12
VVBZ
p1741
sbag0
(g1
g2
(lp1742
g0
(g1
g2
(lp1743
Von
p1744
atp1745
Rp1746
(dp1747
g12
VIN
p1748
sbag0
(g1
g2
(lp1749
g0
(g1
g2
(lp1750
g0
(g1
g2
(lp1751
Vflats
p1752
atp1753
Rp1754
(dp1755
g12
VNNS
p1756
sbatp1757
Rp1758
(dp1759
g12
VNP
p1760
sbag0
(g1
g2
(lp1761
V,
p1762
atp1763
Rp1764
(dp1765
g12
V,
p1766
sbag0
(g1
g2
(lp1767
Vor
p1768
atp1769
Rp1770
(dp1771
g12
VCC
p1772
sbag0
(g1
g2
(lp1773
g0
(g1
g2
(lp1774
Vtennis
p1775
atp1776
Rp1777
(dp1778
g12
VNN
p1779
sbag0
(g1
g2
(lp1780
Vshoes
p1781
atp1782
Rp1783
(dp1784
g12
VNNS
p1785
sbatp1786
Rp1787
(dp1788
g12
VNP
p1789
sbag0
(g1
g2
(lp1790
V,
p1791
atp1792
Rp1793
(dp1794
g12
V,
p1795
sbatp1796
Rp1797
(dp1798
g12
VNP
p1799
sbatp1800
Rp1801
(dp1802
g12
VPP
p1803
sbag0
(g1
g2
(lp1804
g0
(g1
g2
(lp1805
g0
(g1
g2
(lp1806
Vshorts
p1807
atp1808
Rp1809
(dp1810
g12
VNNS
p1811
sbatp1812
Rp1813
(dp1814
g12
VNP
p1815
sbag0
(g1
g2
(lp1816
g0
(g1
g2
(lp1817
Venjoying
p1818
atp1819
Rp1820
(dp1821
g12
VVBG
p1822
sbag0
(g1
g2
(lp1823
g0
(g1
g2
(lp1824
Vherself
p1825
atp1826
Rp1827
(dp1828
g12
VPRP
p1829
sbatp1830
Rp1831
(dp1832
g12
VNP
p1833
sbatp1834
Rp1835
(dp1836
g12
VVP
p1837
sbatp1838
Rp1839
(dp1840
g12
VNP
p1841
sbatp1842
Rp1843
(dp1844
g12
VVP
p1845
sbag0
(g1
g2
(lp1846
V.
p1847
atp1848
Rp1849
(dp1850
g12
V.
p1851
sbatp1852
Rp1853
(dp1854
g12
VS
p1855
sbatp1856
Rp1857
(dp1858
g12
S'id: 5'
p1859
sbag0
(g1
g2
(lp1860
g0
(g1
g2
(lp1861
g0
(g1
g2
(lp1862
VAnd
p1863
atp1864
Rp1865
(dp1866
g12
VCC
p1867
sbag0
(g1
g2
(lp1868
g0
(g1
g2
(lp1869
Vthe
p1870
atp1871
Rp1872
(dp1873
g12
VDT
p1874
sbag0
(g1
g2
(lp1875
Vson
p1876
atp1877
Rp1878
(dp1879
g12
VNN
p1880
sbatp1881
Rp1882
(dp1883
g12
VNP
p1884
sbag0
(g1
g2
(lp1885
g0
(g1
g2
(lp1886
Vis
p1887
atp1888
Rp1889
(dp1890
g12
VVBZ
p1891
sbag0
(g1
g2
(lp1892
g0
(g1
g2
(lp1893
Venjoying
p1894
atp1895
Rp1896
(dp1897
g12
VVBG
p1898
sbag0
(g1
g2
(lp1899
g0
(g1
g2
(lp1900
Vhis
p1901
atp1902
Rp1903
(dp1904
g12
VPRP$
p1905
sbag0
(g1
g2
(lp1906
Vkite
p1907
atp1908
Rp1909
(dp1910
g12
VNN
p1911
sbatp1912
Rp1913
(dp1914
g12
VNP
p1915
sbag0
(g1
g2
(lp1916
g0
(g1
g2
(lp1917
g0
(g1
g2
(lp1918
Vflying
p1919
atp1920
Rp1921
(dp1922
g12
VVBG
p1923
sbag0
(g1
g2
(lp1924
g0
(g1
g2
(lp1925
Vso
p1926
atp1927
Rp1928
(dp1929
g12
VIN
p1930
sbag0
(g1
g2
(lp1931
Vthat
p1932
atp1933
Rp1934
(dp1935
g12
VIN
p1936
sbag0
(g1
g2
(lp1937
g0
(g1
g2
(lp1938
g0
(g1
g2
(lp1939
Vmeans
p1940
atp1941
Rp1942
(dp1943
g12
VVBZ
p1944
sbag0
(g1
g2
(lp1945
g0
(g1
g2
(lp1946
Vthat
p1947
atp1948
Rp1949
(dp1950
g12
VIN
p1951
sbag0
(g1
g2
(lp1952
g0
(g1
g2
(lp1953
g0
(g1
g2
(lp1954
Vit
p1955
atp1956
Rp1957
(dp1958
g12
VPRP
p1959
sbatp1960
Rp1961
(dp1962
g12
VNP
p1963
sbag0
(g1
g2
(lp1964
g0
(g1
g2
(lp1965
Vis
p1966
atp1967
Rp1968
(dp1969
g12
VVBZ
p1970
sbag0
(g1
g2
(lp1971
g0
(g1
g2
(lp1972
Vobviously
p1973
atp1974
Rp1975
(dp1976
g12
VRB
p1977
sbatp1978
Rp1979
(dp1980
g12
VADVP
p1981
sbag0
(g1
g2
(lp1982
g0
(g1
g2
(lp1983
Va
p1984
atp1985
Rp1986
(dp1987
g12
VDT
p1988
sbag0
(g1
g2
(lp1989
Vgood
p1990
atp1991
Rp1992
(dp1993
g12
VJJ
p1994
sbag0
(g1
g2
(lp1995
Vday
p1996
atp1997
Rp1998
(dp1999
g12
VNN
p2000
sbatp2001
Rp2002
(dp2003
g12
VNP
p2004
sbag0
(g1
g2
(lp2005
g0
(g1
g2
(lp2006
Vbecause
p2007
atp2008
Rp2009
(dp2010
g12
VIN
p2011
sbag0
(g1
g2
(lp2012
g0
(g1
g2
(lp2013
g0
(g1
g2
(lp2014
g0
(g1
g2
(lp2015
Vthe
p2016
atp2017
Rp2018
(dp2019
g12
VDT
p2020
sbag0
(g1
g2
(lp2021
Vflag
p2022
atp2023
Rp2024
(dp2025
g12
VNN
p2026
sbatp2027
Rp2028
(dp2029
g12
VNP
p2030
sbag0
(g1
g2
(lp2031
V,
p2032
atp2033
Rp2034
(dp2035
g12
V,
p2036
sbag0
(g1
g2
(lp2037
Vand
p2038
atp2039
Rp2040
(dp2041
g12
VCC
p2042
sbag0
(g1
g2
(lp2043
g0
(g1
g2
(lp2044
Vthe
p2045
atp2046
Rp2047
(dp2048
g12
VDT
p2049
sbag0
(g1
g2
(lp2050
Vkite
p2051
atp2052
Rp2053
(dp2054
g12
VNN
p2055
sbatp2056
Rp2057
(dp2058
g12
VNP
p2059
sbag0
(g1
g2
(lp2060
V,
p2061
atp2062
Rp2063
(dp2064
g12
V,
p2065
sbatp2066
Rp2067
(dp2068
g12
VNP
p2069
sbag0
(g1
g2
(lp2070
g0
(g1
g2
(lp2071
Vseem
p2072
atp2073
Rp2074
(dp2075
g12
VVBP
p2076
sbag0
(g1
g2
(lp2077
g0
(g1
g2
(lp2078
g0
(g1
g2
(lp2079
Vto
p2080
atp2081
Rp2082
(dp2083
g12
VTO
p2084
sbag0
(g1
g2
(lp2085
g0
(g1
g2
(lp2086
Vbe
p2087
atp2088
Rp2089
(dp2090
g12
VVB
p2091
sbag0
(g1
g2
(lp2092
g0
(g1
g2
(lp2093
Vblowing
p2094
atp2095
Rp2096
(dp2097
g12
VVBG
p2098
sbag0
(g1
g2
(lp2099
g0
(g1
g2
(lp2100
Vin
p2101
atp2102
Rp2103
(dp2104
g12
VIN
p2105
sbag0
(g1
g2
(lp2106
g0
(g1
g2
(lp2107
Vthe
p2108
atp2109
Rp2110
(dp2111
g12
VDT
p2112
sbag0
(g1
g2
(lp2113
Vsame
p2114
atp2115
Rp2116
(dp2117
g12
VJJ
p2118
sbag0
(g1
g2
(lp2119
Vdirection
p2120
atp2121
Rp2122
(dp2123
g12
VNN
p2124
sbatp2125
Rp2126
(dp2127
g12
VNP
p2128
sbatp2129
Rp2130
(dp2131
g12
VPP
p2132
sbatp2133
Rp2134
(dp2135
g12
VVP
p2136
sbatp2137
Rp2138
(dp2139
g12
VVP
p2140
sbatp2141
Rp2142
(dp2143
g12
VVP
p2144
sbatp2145
Rp2146
(dp2147
g12
VS
p2148
sbatp2149
Rp2150
(dp2151
g12
VVP
p2152
sbatp2153
Rp2154
(dp2155
g12
VS
p2156
sbatp2157
Rp2158
(dp2159
g12
VSBAR
p2160
sbatp2161
Rp2162
(dp2163
g12
VVP
p2164
sbatp2165
Rp2166
(dp2167
g12
VS
p2168
sbatp2169
Rp2170
(dp2171
g12
VSBAR
p2172
sbatp2173
Rp2174
(dp2175
g12
VVP
p2176
sbatp2177
Rp2178
(dp2179
g12
VS
p2180
sbatp2181
Rp2182
(dp2183
g12
VSBAR
p2184
sbatp2185
Rp2186
(dp2187
g12
VVP
p2188
sbatp2189
Rp2190
(dp2191
g12
VS
p2192
sbatp2193
Rp2194
(dp2195
g12
VVP
p2196
sbatp2197
Rp2198
(dp2199
g12
VVP
p2200
sbag0
(g1
g2
(lp2201
V.
p2202
atp2203
Rp2204
(dp2205
g12
V.
p2206
sbatp2207
Rp2208
(dp2209
g12
VS
p2210
sbatp2211
Rp2212
(dp2213
g12
S'id: 6'
p2214
sbag0
(g1
g2
(lp2215
g0
(g1
g2
(lp2216
g0
(g1
g2
(lp2217
g0
(g1
g2
(lp2218
g0
(g1
g2
(lp2219
VAnd
p2220
atp2221
Rp2222
(dp2223
g12
VCC
p2224
sbag0
(g1
g2
(lp2225
g0
(g1
g2
(lp2226
g0
(g1
g2
(lp2227
Vanother
p2228
atp2229
Rp2230
(dp2231
g12
VDT
p2232
sbag0
(g1
g2
(lp2233
Vman
p2234
atp2235
Rp2236
(dp2237
g12
VNN
p2238
sbatp2239
Rp2240
(dp2241
g12
VNP
p2242
sbag0
(g1
g2
(lp2243
g0
(g1
g2
(lp2244
g0
(g1
g2
(lp2245
Vwho
p2246
atp2247
Rp2248
(dp2249
g12
VWP
p2250
sbatp2251
Rp2252
(dp2253
g12
VWHNP
p2254
sbag0
(g1
g2
(lp2255
g0
(g1
g2
(lp2256
g0
(g1
g2
(lp2257
Vlooks
p2258
atp2259
Rp2260
(dp2261
g12
VVBZ
p2262
sbag0
(g1
g2
(lp2263
g0
(g1
g2
(lp2264
g0
(g1
g2
(lp2265
Vto
p2266
atp2267
Rp2268
(dp2269
g12
VTO
p2270
sbag0
(g1
g2
(lp2271
g0
(g1
g2
(lp2272
Vbe
p2273
atp2274
Rp2275
(dp2276
g12
VVB
p2277
sbag0
(g1
g2
(lp2278
g0
(g1
g2
(lp2279
Vlike
p2280
atp2281
Rp2282
(dp2283
g12
VIN
p2284
sbag0
(g1
g2
(lp2285
g0
(g1
g2
(lp2286
Vhe
p2287
atp2288
Rp2289
(dp2290
g12
VPRP
p2291
sbatp2292
Rp2293
(dp2294
g12
VNP
p2295
sbatp2296
Rp2297
(dp2298
g12
VPP
p2299
sbatp2300
Rp2301
(dp2302
g12
VVP
p2303
sbatp2304
Rp2305
(dp2306
g12
VVP
p2307
sbatp2308
Rp2309
(dp2310
g12
VS
p2311
sbatp2312
Rp2313
(dp2314
g12
VVP
p2315
sbatp2316
Rp2317
(dp2318
g12
VS
p2319
sbatp2320
Rp2321
(dp2322
g12
VSBAR
p2323
sbatp2324
Rp2325
(dp2326
g12
VNP
p2327
sbag0
(g1
g2
(lp2328
g0
(g1
g2
(lp2329
Vcould
p2330
atp2331
Rp2332
(dp2333
g12
VMD
p2334
sbag0
(g1
g2
(lp2335
g0
(g1
g2
(lp2336
Vbe
p2337
atp2338
Rp2339
(dp2340
g12
VVB
p2341
sbag0
(g1
g2
(lp2342
g0
(g1
g2
(lp2343
Vthe
p2344
atp2345
Rp2346
(dp2347
g12
VDT
p2348
sbag0
(g1
g2
(lp2349
Vranger
p2350
atp2351
Rp2352
(dp2353
g12
VNN
p2354
sbatp2355
Rp2356
(dp2357
g12
VNP
p2358
sbag0
(g1
g2
(lp2359
g0
(g1
g2
(lp2360
Vout
p2361
atp2362
Rp2363
(dp2364
g12
VIN
p2365
sbag0
(g1
g2
(lp2366
g0
(g1
g2
(lp2367
Vthere
p2368
atp2369
Rp2370
(dp2371
g12
VRB
p2372
sbag0
(g1
g2
(lp2373
Vfishing
p2374
atp2375
Rp2376
(dp2377
g12
VNN
p2378
sbatp2379
Rp2380
(dp2381
g12
VNP
p2382
sbatp2383
Rp2384
(dp2385
g12
VPP
p2386
sbatp2387
Rp2388
(dp2389
g12
VVP
p2390
sbatp2391
Rp2392
(dp2393
g12
VVP
p2394
sbatp2395
Rp2396
(dp2397
g12
VS
p2398
sbag0
(g1
g2
(lp2399
V,
p2400
atp2401
Rp2402
(dp2403
g12
V,
p2404
sbag0
(g1
g2
(lp2405
Vbut
p2406
atp2407
Rp2408
(dp2409
g12
VCC
p2410
sbag0
(g1
g2
(lp2411
g0
(g1
g2
(lp2412
g0
(g1
g2
(lp2413
Vhopefully
p2414
atp2415
Rp2416
(dp2417
g12
VRB
p2418
sbatp2419
Rp2420
(dp2421
g12
VADVP
p2422
sbag0
(g1
g2
(lp2423
g0
(g1
g2
(lp2424
Vhe
p2425
atp2426
Rp2427
(dp2428
g12
VPRP
p2429
sbatp2430
Rp2431
(dp2432
g12
VNP
p2433
sbag0
(g1
g2
(lp2434
g0
(g1
g2
(lp2435
Vis
p2436
atp2437
Rp2438
(dp2439
g12
VVBZ
p2440
sbag0
(g1
g2
(lp2441
g0
(g1
g2
(lp2442
Vjust
p2443
atp2444
Rp2445
(dp2446
g12
VRB
p2447
sbatp2448
Rp2449
(dp2450
g12
VADVP
p2451
sbag0
(g1
g2
(lp2452
g0
(g1
g2
(lp2453
Va
p2454
atp2455
Rp2456
(dp2457
g12
VDT
p2458
sbag0
(g1
g2
(lp2459
Vfisherman
p2460
atp2461
Rp2462
(dp2463
g12
VNN
p2464
sbatp2465
Rp2466
(dp2467
g12
VNP
p2468
sbatp2469
Rp2470
(dp2471
g12
VVP
p2472
sbatp2473
Rp2474
(dp2475
g12
VS
p2476
sbatp2477
Rp2478
(dp2479
g12
VS
p2480
sbag0
(g1
g2
(lp2481
V,
p2482
atp2483
Rp2484
(dp2485
g12
V,
p2486
sbag0
(g1
g2
(lp2487
g0
(g1
g2
(lp2488
Vhe
p2489
atp2490
Rp2491
(dp2492
g12
VPRP
p2493
sbatp2494
Rp2495
(dp2496
g12
VNP
p2497
sbag0
(g1
g2
(lp2498
g0
(g1
g2
(lp2499
Vhas
p2500
atp2501
Rp2502
(dp2503
g12
VVBZ
p2504
sbag0
(g1
g2
(lp2505
g0
(g1
g2
(lp2506
Vcaught
p2507
atp2508
Rp2509
(dp2510
g12
VVBN
p2511
sbag0
(g1
g2
(lp2512
g0
(g1
g2
(lp2513
Va
p2514
atp2515
Rp2516
(dp2517
g12
VDT
p2518
sbag0
(g1
g2
(lp2519
Vfish
p2520
atp2521
Rp2522
(dp2523
g12
VNN
p2524
sbatp2525
Rp2526
(dp2527
g12
VNP
p2528
sbatp2529
Rp2530
(dp2531
g12
VVP
p2532
sbatp2533
Rp2534
(dp2535
g12
VVP
p2536
sbag0
(g1
g2
(lp2537
V.
p2538
atp2539
Rp2540
(dp2541
g12
V.
p2542
sbatp2543
Rp2544
(dp2545
g12
VS
p2546
sbatp2547
Rp2548
(dp2549
g12
S'id: 7'
p2550
sbag0
(g1
g2
(lp2551
g0
(g1
g2
(lp2552
g0
(g1
g2
(lp2553
VAnd
p2554
atp2555
Rp2556
(dp2557
g12
VCC
p2558
sbag0
(g1
g2
(lp2559
g0
(g1
g2
(lp2560
g0
(g1
g2
(lp2561
Vthe
p2562
atp2563
Rp2564
(dp2565
g12
VDT
p2566
sbag0
(g1
g2
(lp2567
Vlittle
p2568
atp2569
Rp2570
(dp2571
g12
VJJ
p2572
sbag0
(g1
g2
(lp2573
Vgirl
p2574
atp2575
Rp2576
(dp2577
g12
VNN
p2578
sbatp2579
Rp2580
(dp2581
g12
VNP
p2582
sbag0
(g1
g2
(lp2583
g0
(g1
g2
(lp2584
Vis
p2585
atp2586
Rp2587
(dp2588
g12
VVBZ
p2589
sbag0
(g1
g2
(lp2590
g0
(g1
g2
(lp2591
Vbuilding
p2592
atp2593
Rp2594
(dp2595
g12
VVBG
p2596
sbag0
(g1
g2
(lp2597
g0
(g1
g2
(lp2598
Va
p2599
atp2600
Rp2601
(dp2602
g12
VDT
p2603
sbag0
(g1
g2
(lp2604
Vsand
p2605
atp2606
Rp2607
(dp2608
g12
VNN
p2609
sbag0
(g1
g2
(lp2610
Vcastle
p2611
atp2612
Rp2613
(dp2614
g12
VNN
p2615
sbatp2616
Rp2617
(dp2618
g12
VNP
p2619
sbatp2620
Rp2621
(dp2622
g12
VVP
p2623
sbatp2624
Rp2625
(dp2626
g12
VVP
p2627
sbatp2628
Rp2629
(dp2630
g12
VS
p2631
sbag0
(g1
g2
(lp2632
V,
p2633
atp2634
Rp2635
(dp2636
g12
V,
p2637
sbag0
(g1
g2
(lp2638
Vand
p2639
atp2640
Rp2641
(dp2642
g12
VCC
p2643
sbag0
(g1
g2
(lp2644
g0
(g1
g2
(lp2645
g0
(g1
g2
(lp2646
Vshe
p2647
atp2648
Rp2649
(dp2650
g12
VPRP
p2651
sbatp2652
Rp2653
(dp2654
g12
VNP
p2655
sbag0
(g1
g2
(lp2656
g0
(g1
g2
(lp2657
Vis
p2658
atp2659
Rp2660
(dp2661
g12
VVBZ
p2662
sbag0
(g1
g2
(lp2663
g0
(g1
g2
(lp2664
Vhaving
p2665
atp2666
Rp2667
(dp2668
g12
VVBG
p2669
sbag0
(g1
g2
(lp2670
g0
(g1
g2
(lp2671
Va
p2672
atp2673
Rp2674
(dp2675
g12
VDT
p2676
sbag0
(g1
g2
(lp2677
Vgood
p2678
atp2679
Rp2680
(dp2681
g12
VJJ
p2682
sbag0
(g1
g2
(lp2683
Vtime
p2684
atp2685
Rp2686
(dp2687
g12
VNN
p2688
sbatp2689
Rp2690
(dp2691
g12
VNP
p2692
sbatp2693
Rp2694
(dp2695
g12
VVP
p2696
sbatp2697
Rp2698
(dp2699
g12
VVP
p2700
sbatp2701
Rp2702
(dp2703
g12
VS
p2704
sbag0
(g1
g2
(lp2705
V.
p2706
atp2707
Rp2708
(dp2709
g12
V.
p2710
sbatp2711
Rp2712
(dp2713
g12
VS
p2714
sbatp2715
Rp2716
(dp2717
g12
S'id: 8'
p2718
sbag0
(g1
g2
(lp2719
g0
(g1
g2
(lp2720
g0
(g1
g2
(lp2721
VAnd
p2722
atp2723
Rp2724
(dp2725
g12
VCC
p2726
sbag0
(g1
g2
(lp2727
g0
(g1
g2
(lp2728
g0
(g1
g2
(lp2729
Vthe
p2730
atp2731
Rp2732
(dp2733
g12
VDT
p2734
sbag0
(g1
g2
(lp2735
Vboaters
p2736
atp2737
Rp2738
(dp2739
g12
VNNS
p2740
sbatp2741
Rp2742
(dp2743
g12
VNP
p2744
sbag0
(g1
g2
(lp2745
g0
(g1
g2
(lp2746
Vare
p2747
atp2748
Rp2749
(dp2750
g12
VVBP
p2751
sbag0
(g1
g2
(lp2752
g0
(g1
g2
(lp2753
Vwaving
p2754
atp2755
Rp2756
(dp2757
g12
VVBG
p2758
sbatp2759
Rp2760
(dp2761
g12
VVP
p2762
sbatp2763
Rp2764
(dp2765
g12
VVP
p2766
sbatp2767
Rp2768
(dp2769
g12
VS
p2770
sbag0
(g1
g2
(lp2771
V,
p2772
atp2773
Rp2774
(dp2775
g12
V,
p2776
sbag0
(g1
g2
(lp2777
Vbut
p2778
atp2779
Rp2780
(dp2781
g12
VCC
p2782
sbag0
(g1
g2
(lp2783
g0
(g1
g2
(lp2784
g0
(g1
g2
(lp2785
Vno
p2786
atp2787
Rp2788
(dp2789
g12
VDT
p2790
sbag0
(g1
g2
(lp2791
Vone
p2792
atp2793
Rp2794
(dp2795
g12
VNN
p2796
sbatp2797
Rp2798
(dp2799
g12
VNP
p2800
sbag0
(g1
g2
(lp2801
g0
(g1
g2
(lp2802
Vseems
p2803
atp2804
Rp2805
(dp2806
g12
VVBZ
p2807
sbag0
(g1
g2
(lp2808
g0
(g1
g2
(lp2809
g0
(g1
g2
(lp2810
Vto
p2811
atp2812
Rp2813
(dp2814
g12
VTO
p2815
sbag0
(g1
g2
(lp2816
g0
(g1
g2
(lp2817
Vbe
p2818
atp2819
Rp2820
(dp2821
g12
VVB
p2822
sbag0
(g1
g2
(lp2823
g0
(g1
g2
(lp2824
Vwaving
p2825
atp2826
Rp2827
(dp2828
g12
VVBG
p2829
sbag0
(g1
g2
(lp2830
g0
(g1
g2
(lp2831
Vback
p2832
atp2833
Rp2834
(dp2835
g12
VRB
p2836
sbatp2837
Rp2838
(dp2839
g12
VADVP
p2840
sbag0
(g1
g2
(lp2841
g0
(g1
g2
(lp2842
Vat
p2843
atp2844
Rp2845
(dp2846
g12
VIN
p2847
sbag0
(g1
g2
(lp2848
g0
(g1
g2
(lp2849
Vthem
p2850
atp2851
Rp2852
(dp2853
g12
VPRP
p2854
sbatp2855
Rp2856
(dp2857
g12
VNP
p2858
sbatp2859
Rp2860
(dp2861
g12
VPP
p2862
sbatp2863
Rp2864
(dp2865
g12
VVP
p2866
sbatp2867
Rp2868
(dp2869
g12
VVP
p2870
sbatp2871
Rp2872
(dp2873
g12
VVP
p2874
sbatp2875
Rp2876
(dp2877
g12
VS
p2878
sbatp2879
Rp2880
(dp2881
g12
VVP
p2882
sbatp2883
Rp2884
(dp2885
g12
VS
p2886
sbag0
(g1
g2
(lp2887
V.
p2888
atp2889
Rp2890
(dp2891
g12
V.
p2892
sbatp2893
Rp2894
(dp2895
g12
VS
p2896
sbatp2897
Rp2898
(dp2899
g12
S'id: 9'
p2900
sbag0
(g1
g2
(lp2901
g0
(g1
g2
(lp2902
g0
(g1
g2
(lp2903
g0
(g1
g2
(lp2904
VOn
p2905
atp2906
Rp2907
(dp2908
g12
VIN
p2909
sbag0
(g1
g2
(lp2910
g0
(g1
g2
(lp2911
Vthe
p2912
atp2913
Rp2914
(dp2915
g12
VDT
p2916
sbag0
(g1
g2
(lp2917
Vthe
p2918
atp2919
Rp2920
(dp2921
g12
VDT
p2922
sbag0
(g1
g2
(lp2923
Vsail
p2924
atp2925
Rp2926
(dp2927
g12
VNN
p2928
sbatp2929
Rp2930
(dp2931
g12
VNP
p2932
sbatp2933
Rp2934
(dp2935
g12
VPP
p2936
sbag0
(g1
g2
(lp2937
g0
(g1
g2
(lp2938
Vsays
p2939
atp2940
Rp2941
(dp2942
g12
VVBZ
p2943
sbatp2944
Rp2945
(dp2946
g12
VVP
p2947
sbag0
(g1
g2
(lp2948
g0
(g1
g2
(lp2949
g0
(g1
g2
(lp2950
Vfour
p2951
atp2952
Rp2953
(dp2954
g12
VCD
p2955
sbag0
(g1
g2
(lp2956
Vseventy
p2957
atp2958
Rp2959
(dp2960
g12
VCD
p2961
sbatp2962
Rp2963
(dp2964
g12
VNP
p2965
sbag0
(g1
g2
(lp2966
V,
p2967
atp2968
Rp2969
(dp2970
g12
V,
p2971
sbag0
(g1
g2
(lp2972
g0
(g1
g2
(lp2973
Vso
p2974
atp2975
Rp2976
(dp2977
g12
VRB
p2978
sbag0
(g1
g2
(lp2979
g0
(g1
g2
(lp2980
Vthat
p2981
atp2982
Rp2983
(dp2984
g12
VIN
p2985
sbatp2986
Rp2987
(dp2988
g12
VWHNP
p2989
sbag0
(g1
g2
(lp2990
g0
(g1
g2
(lp2991
g0
(g1
g2
(lp2992
Vmight
p2993
atp2994
Rp2995
(dp2996
g12
VMD
p2997
sbag0
(g1
g2
(lp2998
g0
(g1
g2
(lp2999
Vbe
p3000
atp3001
Rp3002
(dp3003
g12
VVB
p3004
sbag0
(g1
g2
(lp3005
g0
(g1
g2
(lp3006
Va
p3007
atp3008
Rp3009
(dp3010
g12
VDT
p3011
sbag0
(g1
g2
(lp3012
Vgood
p3013
atp3014
Rp3015
(dp3016
g12
VJJ
p3017
sbatp3018
Rp3019
(dp3020
g12
VNP
p3021
sbatp3022
Rp3023
(dp3024
g12
VVP
p3025
sbatp3026
Rp3027
(dp3028
g12
VVP
p3029
sbatp3030
Rp3031
(dp3032
g12
VS
p3033
sbatp3034
Rp3035
(dp3036
g12
VSBAR
p3037
sbatp3038
Rp3039
(dp3040
g12
VNP
p3041
sbag0
(g1
g2
(lp3042
V.
p3043
atp3044
Rp3045
(dp3046
g12
V.
p3047
sbatp3048
Rp3049
(dp3050
g12
VSINV
p3051
sbatp3052
Rp3053
(dp3054
g12
S'id: 10'
p3055
sbatp3056
Rp3057
(dp3058
g12
S'sentences'
p3059
sb.