ccopy_reg
_reconstructor
p0
(cnltk.tree
Tree
p1
c__builtin__
list
p2
(lp3
g0
(g1
g2
(lp4
tp5
Rp6
(dp7
S'_label'
p8
S'id: 0'
p9
sbag0
(g1
g2
(lp10
g0
(g1
g2
(lp11
g0
(g1
g2
(lp12
g0
(g1
g2
(lp13
g0
(g1
g2
(lp14
g0
(g1
g2
(lp15
g0
(g1
g2
(lp16
(lp17
S'word: the, index: 6'
p18
aatp19
Rp20
(dp21
g8
Vdet
p22
sbag0
(g1
g2
(lp23
g0
(g1
g2
(lp24
g0
(g1
g2
(lp25
(lp26
S'word: the, index: 9'
p27
aatp28
Rp29
(dp30
g8
Vdet
p31
sbatp32
Rp33
(dp34
g8
S'word: bishes, index: 10'
p35
sbatp36
Rp37
(dp38
g8
Vappos
p39
sbatp40
Rp41
(dp42
g8
S'word: bish, index: 7'
p43
sbatp44
Rp45
(dp46
g8
Vdobj
p47
sbatp48
Rp49
(dp50
g8
S'word: wiping, index: 5'
p51
sbatp52
Rp53
(dp54
g8
Vvmod
p55
sbag0
(g1
g2
(lp56
(lp57
S'word: Mother, index: 1'
p58
aatp59
Rp60
(dp61
g8
Vnsubj
p62
sbag0
(g1
g2
(lp63
(lp64
S'word: is, index: 2'
p65
aatp66
Rp67
(dp68
g8
Vaux
p69
sbatp70
Rp71
(dp72
g8
S'word: washing, index: 3'
p73
sbatp74
Rp75
(dp76
g8
S'id: 1'
p77
sbag0
(g1
g2
(lp78
g0
(g1
g2
(lp79
g0
(g1
g2
(lp80
g0
(g1
g2
(lp81
g0
(g1
g2
(lp82
(lp83
S'word: kitchen, index: 8'
p84
aatp85
Rp86
(dp87
g8
Vappos
p88
sbag0
(g1
g2
(lp89
(lp90
S'word: the, index: 5'
p91
aatp92
Rp93
(dp94
g8
Vdet
p95
sbatp96
Rp97
(dp98
g8
S'word: bitchen, index: 6'
p99
sbatp100
Rp101
(dp102
g8
Vprep
p103
sbag0
(g1
g2
(lp104
g0
(g1
g2
(lp105
g0
(g1
g2
(lp106
(lp107
S'word: the, index: 11'
p108
aatp109
Rp110
(dp111
g8
Vdet
p112
sbatp113
Rp114
(dp115
g8
S'word: floor, index: 12'
p116
sbatp117
Rp118
(dp119
g8
Vprep
p120
sbag0
(g1
g2
(lp121
(lp122
S'word: Water, index: 1'
p123
aatp124
Rp125
(dp126
g8
Vnsubj
p127
sbag0
(g1
g2
(lp128
(lp129
S'word: is, index: 2'
p130
aatp131
Rp132
(dp133
g8
Vaux
p134
sbatp135
Rp136
(dp137
g8
S'word: flowing, index: 3'
p138
sbatp139
Rp140
(dp141
g8
S'id: 2'
p142
sbag0
(g1
g2
(lp143
g0
(g1
g2
(lp144
g0
(g1
g2
(lp145
(lp146
S'word: Water, index: 1'
p147
aatp148
Rp149
(dp150
g8
Vnsubj
p151
sbag0
(g1
g2
(lp152
(lp153
S'word: is, index: 2'
p154
aatp155
Rp156
(dp157
g8
Vaux
p158
sbag0
(g1
g2
(lp159
(lp160
S'word: everywhere, index: 4'
p161
aatp162
Rp163
(dp164
g8
Vadvmod
p165
sbatp166
Rp167
(dp168
g8
S'word: running, index: 3'
p169
sbatp170
Rp171
(dp172
g8
S'id: 3'
p173
sbag0
(g1
g2
(lp174
g0
(g1
g2
(lp175
g0
(g1
g2
(lp176
g0
(g1
g2
(lp177
g0
(g1
g2
(lp178
(lp179
S'word: some, index: 12'
p180
aatp181
Rp182
(dp183
g8
Vdet
p184
sbatp185
Rp186
(dp187
g8
S'word: cookies, index: 13'
p188
sbatp189
Rp190
(dp191
g8
Vdobj
p192
sbag0
(g1
g2
(lp193
g0
(g1
g2
(lp194
g0
(g1
g2
(lp195
(lp196
S'word: is, index: 28'
p197
aatp198
Rp199
(dp200
g8
Vaux
p201
sbag0
(g1
g2
(lp202
g0
(g1
g2
(lp203
g0
(g1
g2
(lp204
(lp205
S'word: the, index: 32'
p206
aatp207
Rp208
(dp209
g8
Vdet
p210
sbag0
(g1
g2
(lp211
g0
(g1
g2
(lp212
g0
(g1
g2
(lp213
(lp214
S'word: the, index: 35'
p215
aatp216
Rp217
(dp218
g8
Vdet
p219
sbatp220
Rp221
(dp222
g8
S'word: carl, index: 36'
p223
sbatp224
Rp225
(dp226
g8
Vappos
p227
sbag0
(g1
g2
(lp228
g0
(g1
g2
(lp229
g0
(g1
g2
(lp230
(lp231
S'word: the, index: 38'
p232
aatp233
Rp234
(dp235
g8
Vdet
p236
sbatp237
Rp238
(dp239
g8
S'word: char, index: 39'
p240
sbatp241
Rp242
(dp243
g8
Vappos
p244
sbag0
(g1
g2
(lp245
(lp246
S'word: chair, index: 41'
p247
aatp248
Rp249
(dp250
g8
Vappos
p251
sbag0
(g1
g2
(lp252
(lp253
S'word: chair, index: 43'
p254
aatp255
Rp256
(dp257
g8
Vappos
p258
sbatp259
Rp260
(dp261
g8
S'word: fid, index: 33'
p262
sbatp263
Rp264
(dp265
g8
Vprep
p266
sbag0
(g1
g2
(lp267
g0
(g1
g2
(lp268
g0
(g1
g2
(lp269
(lp270
S'word: little, index: 26'
p271
aatp272
Rp273
(dp274
g8
Vamod
p275
sbatp276
Rp277
(dp278
g8
S'word: boy, index: 27'
p279
sbatp280
Rp281
(dp282
g8
Vnsubj
p283
sbatp284
Rp285
(dp286
g8
S'word: falling, index: 29'
p287
sbatp288
Rp289
(dp290
g8
Vconj
p291
sbag0
(g1
g2
(lp292
(lp293
S'word: the, index: 15'
p294
aatp295
Rp296
(dp297
g8
Vprep
p298
sbag0
(g1
g2
(lp299
g0
(g1
g2
(lp300
g0
(g1
g2
(lp301
(lp302
S'word: the, index: 2'
p303
aatp304
Rp305
(dp306
g8
Vdet
p307
sbag0
(g1
g2
(lp308
(lp309
S'word: little, index: 3'
p310
aatp311
Rp312
(dp313
g8
Vamod
p314
sbag0
(g1
g2
(lp315
(lp316
S'word: boys, index: 6'
p317
aatp318
Rp319
(dp320
g8
Vconj
p321
sbag0
(g1
g2
(lp322
g0
(g1
g2
(lp323
g0
(g1
g2
(lp324
(lp325
S'word: the, index: 8'
p326
aatp327
Rp328
(dp329
g8
Vdet
p330
sbatp331
Rp332
(dp333
g8
S'word: boy, index: 9'
p334
sbatp335
Rp336
(dp337
g8
Vappos
p338
sbatp339
Rp340
(dp341
g8
S'word: girls, index: 4'
p342
sbatp343
Rp344
(dp345
g8
Vnsubj
p346
sbag0
(g1
g2
(lp347
g0
(g1
g2
(lp348
g0
(g1
g2
(lp349
g285
atp350
Rp351
(dp352
g8
Vconj
p353
sbag0
(g1
g2
(lp354
g0
(g1
g2
(lp355
g0
(g1
g2
(lp356
(lp357
S'word: the, index: 18'
p358
aatp359
Rp360
(dp361
g8
Vdet
p362
sbatp363
Rp364
(dp365
g8
S'word: mother, index: 19'
p366
sbatp367
Rp368
(dp369
g8
Vnsubj
p370
sbag0
(g1
g2
(lp371
g0
(g1
g2
(lp372
g0
(g1
g2
(lp373
(lp374
S'word: too, index: 23'
p375
aatp376
Rp377
(dp378
g8
Vadvmod
p379
sbatp380
Rp381
(dp382
g8
S'word: mother, index: 22'
p383
sbatp384
Rp385
(dp386
g8
Vconj
p387
sbatp388
Rp389
(dp390
g8
S'word: ate, index: 20'
p391
sbatp392
Rp393
(dp394
g8
Vconj
p395
sbag0
(g1
g2
(lp396
(lp397
S'word: boys, index: 6'
p398
aatp399
Rp400
(dp401
g8
Vnsubj
p402
sbag0
(g1
g2
(lp403
g381
atp404
Rp405
(dp406
g8
Vconj
p407
sbag0
(g1
g2
(lp408
(lp409
S'word: is, index: 10'
p410
aatp411
Rp412
(dp413
g8
Vaux
p414
sbatp415
Rp416
(dp417
g8
S'word: getting, index: 11'
p418
sbatp419
Rp420
(dp421
g8
S'id: 4'
p422
sbag0
(g1
g2
(lp423
g0
(g1
g2
(lp424
g0
(g1
g2
(lp425
(lp426
S'word: And, index: 1'
p427
aatp428
Rp429
(dp430
g8
Vcc
p431
sbag0
(g1
g2
(lp432
g0
(g1
g2
(lp433
g0
(g1
g2
(lp434
(lp435
S'word: the, index: 2'
p436
aatp437
Rp438
(dp439
g8
Vdet
p440
sbatp441
Rp442
(dp443
g8
S'word: grass, index: 3'
p444
sbatp445
Rp446
(dp447
g8
Vnsubj
p448
sbag0
(g1
g2
(lp449
(lp450
S'word: out, index: 5'
p451
aatp452
Rp453
(dp454
g8
Vadvmod
p455
sbag0
(g1
g2
(lp456
g0
(g1
g2
(lp457
g0
(g1
g2
(lp458
(lp459
S'word: the, index: 7'
p460
aatp461
Rp462
(dp463
g8
Vdet
p464
sbag0
(g1
g2
(lp465
g0
(g1
g2
(lp466
g0
(g1
g2
(lp467
g0
(g1
g2
(lp468
g0
(g1
g2
(lp469
g0
(g1
g2
(lp470
g0
(g1
g2
(lp471
g0
(g1
g2
(lp472
g0
(g1
g2
(lp473
(lp474
S'word: the, index: 13'
p475
aatp476
Rp477
(dp478
g8
Vdet
p479
sbatp480
Rp481
(dp482
g8
S'word: floor, index: 14'
p483
sbatp484
Rp485
(dp486
g8
Vpobj
p487
sbatp488
Rp489
(dp490
g8
S'word: on, index: 12'
p491
sbatp492
Rp493
(dp494
g8
Vpcomp
p495
sbatp496
Rp497
(dp498
g8
S'word: of, index: 11'
p499
sbatp500
Rp501
(dp502
g8
Vprep
p503
sbatp504
Rp505
(dp506
g8
S'word: kind, index: 10'
p507
sbatp508
Rp509
(dp510
g8
Vappos
p511
sbatp512
Rp513
(dp514
g8
S'word: picture, index: 8'
p515
sbatp516
Rp517
(dp518
g8
Vprep
p519
sbatp520
Rp521
(dp522
g8
S'word: is, index: 4'
p523
sbatp524
Rp525
(dp526
g8
S'id: 5'
p527
sbag0
(g1
g2
(lp528
g0
(g1
g2
(lp529
g0
(g1
g2
(lp530
(lp531
S'word: there, index: 2'
p532
aatp533
Rp534
(dp535
g8
Vexpl
p536
sbag0
(g1
g2
(lp537
g0
(g1
g2
(lp538
g0
(g1
g2
(lp539
(lp540
S'word: some, index: 4'
p541
aatp542
Rp543
(dp544
g8
Vdet
p545
sbag0
(g1
g2
(lp546
g0
(g1
g2
(lp547
g0
(g1
g2
(lp548
(lp549
S'word: the, index: 7'
p550
aatp551
Rp552
(dp553
g8
Vdet
p554
sbag0
(g1
g2
(lp555
g0
(g1
g2
(lp556
g0
(g1
g2
(lp557
g0
(g1
g2
(lp558
g0
(g1
g2
(lp559
(lp560
S'word: plate, index: 10'
p561
aatp562
Rp563
(dp564
g8
Vnn
p565
sbatp566
Rp567
(dp568
g8
S'word: floor, index: 11'
p569
sbatp570
Rp571
(dp572
g8
Vdep
p573
sbatp574
Rp575
(dp576
g8
S'word: up, index: 9'
p577
sbatp578
Rp579
(dp580
g8
Vprep
p581
sbatp582
Rp583
(dp584
g8
S'word: line, index: 8'
p585
sbatp586
Rp587
(dp588
g8
Vprep
p589
sbatp590
Rp591
(dp592
g8
S'word: dishes, index: 5'
p593
sbatp594
Rp595
(dp596
g8
Vnsubj
p597
sbag0
(g1
g2
(lp598
g0
(g1
g2
(lp599
g0
(g1
g2
(lp600
g0
(g1
g2
(lp601
g0
(g1
g2
(lp602
(lp603
S'word: mother, index: 18'
p604
aatp605
Rp606
(dp607
g8
Vnsubj
p608
sbag0
(g1
g2
(lp609
(lp610
S'word: has, index: 19'
p611
aatp612
Rp613
(dp614
g8
Vaux
p615
sbag0
(g1
g2
(lp616
(lp617
S'word: out, index: 21'
p618
aatp619
Rp620
(dp621
g8
Vprt
p622
sbag0
(g1
g2
(lp623
g0
(g1
g2
(lp624
g0
(g1
g2
(lp625
(lp626
S'word: mother, index: 18'
p627
aatp628
Rp629
(dp630
g8
Vnsubj
p631
sbatp632
Rp633
(dp634
g8
S'word: washed, index: 23'
p635
sbatp636
Rp637
(dp638
g8
Vconj
p639
sbag0
(g1
g2
(lp640
g0
(g1
g2
(lp641
g0
(g1
g2
(lp642
(lp643
S'word: mother, index: 18'
p644
aatp645
Rp646
(dp647
g8
Vnsubj
p648
sbatp649
Rp650
(dp651
g8
S'word: wiped, index: 25'
p652
sbatp653
Rp654
(dp655
g8
Vconj
p656
sbag0
(g1
g2
(lp657
(lp658
S'word: that, index: 17'
p659
aatp660
Rp661
(dp662
g8
Vmark
p663
sbatp664
Rp665
(dp666
g8
S'word: washed, index: 20'
p667
sbatp668
Rp669
(dp670
g8
Vccomp
p671
sbag0
(g1
g2
(lp672
g633
atp673
Rp674
(dp675
g8
Vccomp
p676
sbag0
(g1
g2
(lp677
g650
atp678
Rp679
(dp680
g8
Vccomp
p681
sbag0
(g1
g2
(lp682
(lp683
S'word: that, index: 13'
p684
aatp685
Rp686
(dp687
g8
Vmark
p688
sbag0
(g1
g2
(lp689
(lp690
S'word: you, index: 14'
p691
aatp692
Rp693
(dp694
g8
Vnsubj
p695
sbatp696
Rp697
(dp698
g8
S'word: cleaned, index: 15'
p699
sbatp700
Rp701
(dp702
g8
Vccomp
p703
sbag0
(g1
g2
(lp704
(lp705
S'word: And, index: 1'
p706
aatp707
Rp708
(dp709
g8
Vcc
p710
sbatp711
Rp712
(dp713
g8
S'word: is, index: 3'
p714
sbatp715
Rp716
(dp717
g8
S'id: 6'
p718
sbag0
(g1
g2
(lp719
g0
(g1
g2
(lp720
g0
(g1
g2
(lp721
g0
(g1
g2
(lp722
g0
(g1
g2
(lp723
(lp724
S'word: the, index: 7'
p725
aatp726
Rp727
(dp728
g8
Vdet
p729
sbatp730
Rp731
(dp732
g8
S'word: floor, index: 8'
p733
sbatp734
Rp735
(dp736
g8
Vprep
p737
sbag0
(g1
g2
(lp738
g0
(g1
g2
(lp739
g0
(g1
g2
(lp740
(lp741
S'word: they, index: 11'
p742
aatp743
Rp744
(dp745
g8
Vnsubj
p746
sbag0
(g1
g2
(lp747
(lp748
S'word: will, index: 12'
p749
aatp750
Rp751
(dp752
g8
Vaux
p753
sbag0
(g1
g2
(lp754
g0
(g1
g2
(lp755
g0
(g1
g2
(lp756
(lp757
S'word: to, index: 14'
p758
aatp759
Rp760
(dp761
g8
Vaux
p762
sbag0
(g1
g2
(lp763
(lp764
S'word: them, index: 16'
p765
aatp766
Rp767
(dp768
g8
Vdobj
p769
sbag0
(g1
g2
(lp770
(lp771
S'word: up, index: 17'
p772
aatp773
Rp774
(dp775
g8
Vprt
p776
sbatp777
Rp778
(dp779
g8
S'word: get, index: 15'
p780
sbatp781
Rp782
(dp783
g8
Vxcomp
p784
sbatp785
Rp786
(dp787
g8
S'word: have, index: 13'
p788
sbatp789
Rp790
(dp791
g8
Vconj
p792
sbag0
(g1
g2
(lp793
g0
(g1
g2
(lp794
g0
(g1
g2
(lp795
(lp796
S'word: the, index: 2'
p797
aatp798
Rp799
(dp800
g8
Vdet
p801
sbatp802
Rp803
(dp804
g8
S'word: water, index: 3'
p805
sbatp806
Rp807
(dp808
g8
Vnsubj
p809
sbag0
(g1
g2
(lp810
(lp811
S'word: is, index: 4'
p812
aatp813
Rp814
(dp815
g8
Vaux
p816
sbatp817
Rp818
(dp819
g8
S'word: running, index: 5'
p820
sbatp821
Rp822
(dp823
g8
S'id: 7'
p824
sbag0
(g1
g2
(lp825
g0
(g1
g2
(lp826
g0
(g1
g2
(lp827
g0
(g1
g2
(lp828
g0
(g1
g2
(lp829
(lp830
S'word: any, index: 7'
p831
aatp832
Rp833
(dp834
g8
Vdet
p835
sbatp836
Rp837
(dp838
g8
S'word: cookies, index: 8'
p839
sbatp840
Rp841
(dp842
g8
Vdobj
p843
sbag0
(g1
g2
(lp844
(lp845
S'word: yet, index: 9'
p846
aatp847
Rp848
(dp849
g8
Vadvmod
p850
sbag0
(g1
g2
(lp851
(lp852
S'word: of, index: 12'
p853
aatp854
Rp855
(dp856
g8
Vprepc
p857
sbag0
(g1
g2
(lp858
(lp859
S'word: of, index: 15'
p860
aatp861
Rp862
(dp863
g8
Vprepc
p864
sbag0
(g1
g2
(lp865
(lp866
S'word: Well, index: 1'
p867
aatp868
Rp869
(dp870
g8
Vadvmod
p871
sbag0
(g1
g2
(lp872
g0
(g1
g2
(lp873
g0
(g1
g2
(lp874
(lp875
S'word: the, index: 16'
p876
aatp877
Rp878
(dp879
g8
Vdet
p880
sbatp881
Rp882
(dp883
g8
S'word: jar, index: 17'
p884
sbatp885
Rp886
(dp887
g8
Vpobj
p888
sbag0
(g1
g2
(lp889
g0
(g1
g2
(lp890
g0
(g1
g2
(lp891
(lp892
S'word: the, index: 2'
p893
aatp894
Rp895
(dp896
g8
Vdet
p897
sbatp898
Rp899
(dp900
g8
S'word: girl, index: 3'
p901
sbatp902
Rp903
(dp904
g8
Vnsubj
p905
sbag0
(g1
g2
(lp906
(lp907
S'word: had, index: 4'
p908
aatp909
Rp910
(dp911
g8
Vaux
p912
sbag0
(g1
g2
(lp913
(lp914
S"word: n't, index: 5"
p915
aatp916
Rp917
(dp918
g8
Vneg
p919
sbatp920
Rp921
(dp922
g8
S'word: got, index: 6'
p923
sbatp924
Rp925
(dp926
g8
S'id: 8'
p927
sbag0
(g1
g2
(lp928
g0
(g1
g2
(lp929
g0
(g1
g2
(lp930
(lp931
S'word: Do, index: 1'
p932
aatp933
Rp934
(dp935
g8
Vaux
p936
sbag0
(g1
g2
(lp937
(lp938
S"word: n't, index: 2"
p939
aatp940
Rp941
(dp942
g8
Vneg
p943
sbag0
(g1
g2
(lp944
g0
(g1
g2
(lp945
g0
(g1
g2
(lp946
(lp947
S'word: what, index: 4'
p948
aatp949
Rp950
(dp951
g8
Vdobj
p952
sbag0
(g1
g2
(lp953
(lp954
S'word: this, index: 5'
p955
aatp956
Rp957
(dp958
g8
Vnsubj
p959
sbatp960
Rp961
(dp962
g8
S'word: is, index: 6'
p963
sbatp964
Rp965
(dp966
g8
Vccomp
p967
sbatp968
Rp969
(dp970
g8
S'word: know, index: 3'
p971
sbatp972
Rp973
(dp974
g8
S'id: 9'
p975
sbag0
(g1
g2
(lp976
g0
(g1
g2
(lp977
g0
(g1
g2
(lp978
g0
(g1
g2
(lp979
g0
(g1
g2
(lp980
(lp981
S'word: The, index: 1'
p982
aatp983
Rp984
(dp985
g8
Vdet
p986
sbatp987
Rp988
(dp989
g8
S'word: water, index: 2'
p990
sbatp991
Rp992
(dp993
g8
Vnsubj
p994
sbag0
(g1
g2
(lp995
(lp996
S'word: is, index: 3'
p997
aatp998
Rp999
(dp1000
g8
Vaux
p1001
sbag0
(g1
g2
(lp1002
g0
(g1
g2
(lp1003
g0
(g1
g2
(lp1004
g0
(g1
g2
(lp1005
g0
(g1
g2
(lp1006
(lp1007
S'word: the, index: 6'
p1008
aatp1009
Rp1010
(dp1011
g8
Vdet
p1012
sbatp1013
Rp1014
(dp1015
g8
S'word: water, index: 7'
p1016
sbatp1017
Rp1018
(dp1019
g8
Vnsubj
p1020
sbag0
(g1
g2
(lp1021
(lp1022
S'word: is, index: 8'
p1023
aatp1024
Rp1025
(dp1026
g8
Vaux
p1027
sbatp1028
Rp1029
(dp1030
g8
S'word: running, index: 9'
p1031
sbatp1032
Rp1033
(dp1034
g8
Vccomp
p1035
sbag0
(g1
g2
(lp1036
g0
(g1
g2
(lp1037
g0
(g1
g2
(lp1038
g0
(g1
g2
(lp1039
g0
(g1
g2
(lp1040
g0
(g1
g2
(lp1041
g0
(g1
g2
(lp1042
g0
(g1
g2
(lp1043
g0
(g1
g2
(lp1044
(lp1045
S'word: the, index: 16'
p1046
aatp1047
Rp1048
(dp1049
g8
Vdet
p1050
sbatp1051
Rp1052
(dp1053
g8
S'word: mother, index: 17'
p1054
sbatp1055
Rp1056
(dp1057
g8
Vappos
p1058
sbag0
(g1
g2
(lp1059
(lp1060
S'word: the, index: 13'
p1061
aatp1062
Rp1063
(dp1064
g8
Vdet
p1065
sbatp1066
Rp1067
(dp1068
g8
S'word: mama, index: 14'
p1069
sbatp1070
Rp1071
(dp1072
g8
Vnsubj
p1073
sbag0
(g1
g2
(lp1074
(lp1075
S'word: had, index: 19'
p1076
aatp1077
Rp1078
(dp1079
g8
Vaux
p1080
sbag0
(g1
g2
(lp1081
(lp1082
S"word: n't, index: 20"
p1083
aatp1084
Rp1085
(dp1086
g8
Vneg
p1087
sbag0
(g1
g2
(lp1088
g0
(g1
g2
(lp1089
g0
(g1
g2
(lp1090
(lp1091
S'word: the, index: 22'
p1092
aatp1093
Rp1094
(dp1095
g8
Vdet
p1096
sbatp1097
Rp1098
(dp1099
g8
S'word: water, index: 23'
p1100
sbatp1101
Rp1102
(dp1103
g8
Vdobj
p1104
sbag0
(g1
g2
(lp1105
(lp1106
S'word: off, index: 24'
p1107
aatp1108
Rp1109
(dp1110
g8
Vprt
p1111
sbatp1112
Rp1113
(dp1114
g8
S'word: cut, index: 21'
p1115
sbatp1116
Rp1117
(dp1118
g8
Vccomp
p1119
sbag0
(g1
g2
(lp1120
(lp1121
S'word: I, index: 11'
p1122
aatp1123
Rp1124
(dp1125
g8
Vnsubj
p1126
sbatp1127
Rp1128
(dp1129
g8
S'word: see, index: 12'
p1130
sbatp1131
Rp1132
(dp1133
g8
Vccomp
p1134
sbag0
(g1
g2
(lp1135
g0
(g1
g2
(lp1136
g0
(g1
g2
(lp1137
g0
(g1
g2
(lp1138
g0
(g1
g2
(lp1139
(lp1140
S'word: the, index: 31'
p1141
aatp1142
Rp1143
(dp1144
g8
Vdet
p1145
sbatp1146
Rp1147
(dp1148
g8
S'word: floor, index: 32'
p1149
sbatp1150
Rp1151
(dp1152
g8
Vprep
p1153
sbag0
(g1
g2
(lp1154
(lp1155
S'word: it, index: 27'
p1156
aatp1157
Rp1158
(dp1159
g8
Vnsubj
p1160
sbag0
(g1
g2
(lp1161
(lp1162
S'word: is, index: 28'
p1163
aatp1164
Rp1165
(dp1166
g8
Vaux
p1167
sbatp1168
Rp1169
(dp1170
g8
S'word: running, index: 29'
p1171
sbatp1172
Rp1173
(dp1174
g8
Vconj
p1175
sbatp1176
Rp1177
(dp1178
g8
S'word: running, index: 4'
p1179
sbatp1180
Rp1181
(dp1182
g8
S'id: 10'
p1183
sbatp1184
Rp1185
(dp1186
g8
S'sentences'
p1187
sb.