ccopy_reg
_reconstructor
p0
(cnltk.tree
Tree
p1
c__builtin__
list
p2
(lp3
g0
(g1
g2
(lp4
g0
(g1
g2
(lp5
g0
(g1
g2
(lp6
g0
(g1
g2
(lp7
g0
(g1
g2
(lp8
(lp9
S'word: a, index: 3'
p10
aatp11
Rp12
(dp13
S'_label'
p14
Vdet
p15
sbag0
(g1
g2
(lp16
(lp17
S'word: nice, index: 4'
p18
aatp19
Rp20
(dp21
g14
Vamod
p22
sbag0
(g1
g2
(lp23
(lp24
S'word: a, index: 5'
p25
aatp26
Rp27
(dp28
g14
Vdet
p29
sbag0
(g1
g2
(lp30
g0
(g1
g2
(lp31
g0
(g1
g2
(lp32
(lp33
S'word: the, index: 8'
p34
aatp35
Rp36
(dp37
g14
Vdet
p38
sbatp39
Rp40
(dp41
g14
S'word: lake, index: 9'
p42
sbatp43
Rp44
(dp45
g14
Vprep
p46
sbatp47
Rp48
(dp49
g14
S'word: house, index: 6'
p50
sbatp51
Rp52
(dp53
g14
Vprep
p54
sbatp55
Rp56
(dp57
g14
S'word: look, index: 1'
p58
sbatp59
Rp60
(dp61
g14
S'id: 0'
p62
sbag0
(g1
g2
(lp63
g0
(g1
g2
(lp64
g0
(g1
g2
(lp65
g0
(g1
g2
(lp66
g0
(g1
g2
(lp67
(lp68
S'word: fun, index: 4'
p69
aatp70
Rp71
(dp72
g14
Vdobj
p73
sbag0
(g1
g2
(lp74
g0
(g1
g2
(lp75
g0
(g1
g2
(lp76
(lp77
S'word: the, index: 6'
p78
aatp79
Rp80
(dp81
g14
Vdet
p82
sbatp83
Rp84
(dp85
g14
S'word: lake, index: 7'
p86
sbatp87
Rp88
(dp89
g14
Vprep
p90
sbag0
(g1
g2
(lp91
(lp92
S"word: 's, index: 2"
p93
aatp94
Rp95
(dp96
g14
Vnsubj
p97
sbatp98
Rp99
(dp100
g14
S'word: having, index: 3'
p101
sbatp102
Rp103
(dp104
g14
Vdep
p105
sbatp106
Rp107
(dp108
g14
S'word: Everybody, index: 1'
p109
sbatp110
Rp111
(dp112
g14
S'id: 1'
p113
sbag0
(g1
g2
(lp114
g0
(g1
g2
(lp115
g0
(g1
g2
(lp116
g0
(g1
g2
(lp117
g0
(g1
g2
(lp118
g0
(g1
g2
(lp119
g0
(g1
g2
(lp120
(lp121
S'word: while, index: 6'
p122
aatp123
Rp124
(dp125
g14
Vmark
p126
sbag0
(g1
g2
(lp127
g0
(g1
g2
(lp128
g0
(g1
g2
(lp129
(lp130
S'word: his, index: 7'
p131
aatp132
Rp133
(dp134
g14
Vposs
p135
sbatp136
Rp137
(dp138
g14
S'word: mother, index: 8'
p139
sbatp140
Rp141
(dp142
g14
Vnsubj
p143
sbag0
(g1
g2
(lp144
(lp145
S'word: is, index: 9'
p146
aatp147
Rp148
(dp149
g14
Vaux
p150
sbag0
(g1
g2
(lp151
g0
(g1
g2
(lp152
g0
(g1
g2
(lp153
(lp154
S'word: a, index: 11'
p155
aatp156
Rp157
(dp158
g14
Vdet
p159
sbatp160
Rp161
(dp162
g14
S'word: drink, index: 12'
p163
sbatp164
Rp165
(dp166
g14
Vdobj
p167
sbag0
(g1
g2
(lp168
g0
(g1
g2
(lp169
g0
(g1
g2
(lp170
(lp171
S'word: I, index: 14'
p172
aatp173
Rp174
(dp175
g14
Vnsubj
p176
sbatp177
Rp178
(dp179
g14
S'word: guess, index: 15'
p180
sbatp181
Rp182
(dp183
g14
Vparataxis
p184
sbag0
(g1
g2
(lp185
g0
(g1
g2
(lp186
g0
(g1
g2
(lp187
(lp188
S'word: the, index: 18'
p189
aatp190
Rp191
(dp192
g14
Vdet
p193
sbatp194
Rp195
(dp196
g14
S'word: father, index: 19'
p197
sbatp198
Rp199
(dp200
g14
Vprep
p201
sbatp202
Rp203
(dp204
g14
S'word: pouring, index: 10'
p205
sbatp206
Rp207
(dp208
g14
Vadvcl
p209
sbag0
(g1
g2
(lp210
g0
(g1
g2
(lp211
g0
(g1
g2
(lp212
(lp213
S'word: a, index: 3'
p214
aatp215
Rp216
(dp217
g14
Vdet
p218
sbatp219
Rp220
(dp221
g14
S'word: kite, index: 4'
p222
sbatp223
Rp224
(dp225
g14
Vdobj
p226
sbatp227
Rp228
(dp229
g14
S'word: flying, index: 2'
p230
sbatp231
Rp232
(dp233
g14
Vvmod
p234
sbatp235
Rp236
(dp237
g14
S'word: Boy, index: 1'
p238
sbatp239
Rp240
(dp241
g14
S'id: 2'
p242
sbag0
(g1
g2
(lp243
g0
(g1
g2
(lp244
g0
(g1
g2
(lp245
g0
(g1
g2
(lp246
g0
(g1
g2
(lp247
(lp248
S'word: while, index: 9'
p249
aatp250
Rp251
(dp252
g14
Vmark
p253
sbag0
(g1
g2
(lp254
(lp255
S'word: they, index: 10'
p256
aatp257
Rp258
(dp259
g14
Vnsubj
p260
sbag0
(g1
g2
(lp261
g0
(g1
g2
(lp262
g0
(g1
g2
(lp263
(lp264
S'word: the, index: 13'
p265
aatp266
Rp267
(dp268
g14
Vdet
p269
sbatp270
Rp271
(dp272
g14
S'word: radio, index: 14'
p273
sbatp274
Rp275
(dp276
g14
Vprep
p277
sbatp278
Rp279
(dp280
g14
S'word: listen, index: 11'
p281
sbatp282
Rp283
(dp284
g14
Vadvcl
p285
sbag0
(g1
g2
(lp286
(lp287
S'word: They, index: 1'
p288
aatp289
Rp290
(dp291
g14
Vnsubj
p292
sbag0
(g1
g2
(lp293
(lp294
S"word: 're, index: 2"
p295
aatp296
Rp297
(dp298
g14
Vaux
p299
sbag0
(g1
g2
(lp300
g0
(g1
g2
(lp301
g0
(g1
g2
(lp302
(lp303
S'word: the, index: 5'
p304
aatp305
Rp306
(dp307
g14
Vdet
p308
sbag0
(g1
g2
(lp309
(lp310
S'word: blanket, index: 6'
p311
aatp312
Rp313
(dp314
g14
Vnn
p315
sbatp316
Rp317
(dp318
g14
S'word: reading, index: 7'
p319
sbatp320
Rp321
(dp322
g14
Vprep
p323
sbatp324
Rp325
(dp326
g14
S'word: sitting, index: 3'
p327
sbatp328
Rp329
(dp330
g14
S'id: 3'
p331
sbag0
(g1
g2
(lp332
g0
(g1
g2
(lp333
g0
(g1
g2
(lp334
(lp335
S'word: I, index: 1'
p336
aatp337
Rp338
(dp339
g14
Vnsubj
p340
sbag0
(g1
g2
(lp341
g0
(g1
g2
(lp342
g0
(g1
g2
(lp343
(lp344
S'word: she, index: 3'
p345
aatp346
Rp347
(dp348
g14
Vnsubj
p349
sbag0
(g1
g2
(lp350
g0
(g1
g2
(lp351
g0
(g1
g2
(lp352
g0
(g1
g2
(lp353
g0
(g1
g2
(lp354
(lp355
S'word: the, index: 10'
p356
aatp357
Rp358
(dp359
g14
Vdet
p360
sbag0
(g1
g2
(lp361
(lp362
S'word: picnic, index: 11'
p363
aatp364
Rp365
(dp366
g14
Vnn
p367
sbatp368
Rp369
(dp370
g14
S'word: basket, index: 12'
p371
sbatp372
Rp373
(dp374
g14
Vdobj
p375
sbag0
(g1
g2
(lp376
(lp377
S'word: that, index: 5'
p378
aatp379
Rp380
(dp381
g14
Vmark
p382
sbag0
(g1
g2
(lp383
(lp384
S'word: before, index: 6'
p385
aatp386
Rp387
(dp388
g14
Vmark
p389
sbag0
(g1
g2
(lp390
(lp391
S'word: she, index: 7'
p392
aatp393
Rp394
(dp395
g14
Vnsubj
p396
sbag0
(g1
g2
(lp397
(lp398
S'word: up, index: 9'
p399
aatp400
Rp401
(dp402
g14
Vprt
p403
sbatp404
Rp405
(dp406
g14
S'word: open, index: 8'
p407
sbatp408
Rp409
(dp410
g14
Vadvcl
p411
sbatp412
Rp413
(dp414
g14
S'word: doing, index: 4'
p415
sbatp416
Rp417
(dp418
g14
Vdep
p419
sbatp420
Rp421
(dp422
g14
S'word: guess, index: 2'
p423
sbatp424
Rp425
(dp426
g14
S'id: 4'
p427
sbag0
(g1
g2
(lp428
g0
(g1
g2
(lp429
g0
(g1
g2
(lp430
g0
(g1
g2
(lp431
g0
(g1
g2
(lp432
g0
(g1
g2
(lp433
g0
(g1
g2
(lp434
(lp435
S'word: a, index: 2'
p436
aatp437
Rp438
(dp439
g14
Vdet
p440
sbatp441
Rp442
(dp443
g14
S'word: man, index: 3'
p444
sbatp445
Rp446
(dp447
g14
Vdep
p448
sbatp449
Rp450
(dp451
g14
S'word: There, index: 1'
p452
sbatp453
Rp454
(dp455
g14
Vtmod
p456
sbag0
(g1
g2
(lp457
g0
(g1
g2
(lp458
g0
(g1
g2
(lp459
(lp460
S'word: the, index: 5'
p461
aatp462
Rp463
(dp464
g14
Vdet
p465
sbag0
(g1
g2
(lp466
(lp467
S'word: dock, index: 6'
p468
aatp469
Rp470
(dp471
g14
Vnn
p472
sbatp473
Rp474
(dp475
g14
S'word: fishing, index: 7'
p476
sbatp477
Rp478
(dp479
g14
Vprep
p480
sbag0
(g1
g2
(lp481
(lp482
S'word: he, index: 9'
p483
aatp484
Rp485
(dp486
g14
Vnsubj
p487
sbag0
(g1
g2
(lp488
g0
(g1
g2
(lp489
g0
(g1
g2
(lp490
g0
(g1
g2
(lp491
g0
(g1
g2
(lp492
(lp493
S'word: a, index: 12'
p494
aatp495
Rp496
(dp497
g14
Vdet
p498
sbatp499
Rp500
(dp501
g14
S'word: fish, index: 13'
p502
sbatp503
Rp504
(dp505
g14
Vdobj
p506
sbatp507
Rp508
(dp509
g14
S'word: caught, index: 11'
p510
sbatp511
Rp512
(dp513
g14
Vdep
p514
sbatp515
Rp516
(dp517
g14
S'word: done, index: 10'
p518
sbatp519
Rp520
(dp521
g14
S'id: 5'
p522
sbag0
(g1
g2
(lp523
g0
(g1
g2
(lp524
g0
(g1
g2
(lp525
g0
(g1
g2
(lp526
g0
(g1
g2
(lp527
(lp528
S'word: the, index: 2'
p529
aatp530
Rp531
(dp532
g14
Vdet
p533
sbag0
(g1
g2
(lp534
g0
(g1
g2
(lp535
g0
(g1
g2
(lp536
(lp537
S'word: that, index: 4'
p538
aatp539
Rp540
(dp541
g14
Vnsubj
p542
sbag0
(g1
g2
(lp543
(lp544
S"word: 's, index: 5"
p545
aatp546
Rp547
(dp548
g14
Vaux
p549
sbag0
(g1
g2
(lp550
g0
(g1
g2
(lp551
g0
(g1
g2
(lp552
(lp553
S'word: a, index: 7'
p554
aatp555
Rp556
(dp557
g14
Vdet
p558
sbatp559
Rp560
(dp561
g14
S'word: kite, index: 8'
p562
sbatp563
Rp564
(dp565
g14
Vdobj
p566
sbatp567
Rp568
(dp569
g14
S'word: flying, index: 6'
p570
sbatp571
Rp572
(dp573
g14
Vrcmod
p574
sbatp575
Rp576
(dp577
g14
S'word: boy, index: 3'
p578
sbatp579
Rp580
(dp581
g14
Vnsubj
p582
sbag0
(g1
g2
(lp583
g0
(g1
g2
(lp584
g0
(g1
g2
(lp585
(lp586
S'word: a, index: 10'
p587
aatp588
Rp589
(dp590
g14
Vdet
p591
sbag0
(g1
g2
(lp592
g0
(g1
g2
(lp593
g0
(g1
g2
(lp594
(lp595
S'word: that, index: 12'
p596
aatp597
Rp598
(dp599
g14
Vnsubj
p600
sbag0
(g1
g2
(lp601
(lp602
S"word: 's, index: 13"
p603
aatp604
Rp605
(dp606
g14
Vaux
p607
sbag0
(g1
g2
(lp608
(lp609
S'word: him, index: 16'
p610
aatp611
Rp612
(dp613
g14
Vprep
p614
sbatp615
Rp616
(dp617
g14
S'word: running, index: 14'
p618
sbatp619
Rp620
(dp621
g14
Vrcmod
p622
sbatp623
Rp624
(dp625
g14
S'word: dog, index: 11'
p626
sbatp627
Rp628
(dp629
g14
Vdobj
p630
sbag0
(g1
g2
(lp631
(lp632
S'word: And, index: 1'
p633
aatp634
Rp635
(dp636
g14
Vcc
p637
sbatp638
Rp639
(dp640
g14
S'word: got, index: 9'
p641
sbatp642
Rp643
(dp644
g14
S'id: 6'
p645
sbag0
(g1
g2
(lp646
g0
(g1
g2
(lp647
g0
(g1
g2
(lp648
g0
(g1
g2
(lp649
g0
(g1
g2
(lp650
(lp651
S'word: is, index: 5'
p652
aatp653
Rp654
(dp655
g14
Vaux
p656
sbag0
(g1
g2
(lp657
g0
(g1
g2
(lp658
g0
(g1
g2
(lp659
(lp660
S'word: a, index: 7'
p661
aatp662
Rp663
(dp664
g14
Vdet
p665
sbatp666
Rp667
(dp668
g14
S'word: sandcastle, index: 8'
p669
sbatp670
Rp671
(dp672
g14
Vdobj
p673
sbag0
(g1
g2
(lp674
(lp675
S'word: Than, index: 1'
p676
aatp677
Rp678
(dp679
g14
Vmark
p680
sbag0
(g1
g2
(lp681
g0
(g1
g2
(lp682
g0
(g1
g2
(lp683
(lp684
S'word: the, index: 2'
p685
aatp686
Rp687
(dp688
g14
Vdet
p689
sbag0
(g1
g2
(lp690
(lp691
S'word: other, index: 3'
p692
aatp693
Rp694
(dp695
g14
Vamod
p696
sbatp697
Rp698
(dp699
g14
S'word: girl, index: 4'
p700
sbatp701
Rp702
(dp703
g14
Vnsubj
p704
sbatp705
Rp706
(dp707
g14
S'word: building, index: 6'
p708
sbatp709
Rp710
(dp711
g14
Vdep
p712
sbag0
(g1
g2
(lp713
(lp714
S'word: she, index: 10'
p715
aatp716
Rp717
(dp718
g14
Vnsubj
p719
sbag0
(g1
g2
(lp720
g0
(g1
g2
(lp721
g0
(g1
g2
(lp722
(lp723
S'word: a, index: 12'
p724
aatp725
Rp726
(dp727
g14
Vdet
p728
sbag0
(g1
g2
(lp729
g0
(g1
g2
(lp730
g0
(g1
g2
(lp731
(lp732
S'word: a, index: 15'
p733
aatp734
Rp735
(dp736
g14
Vdet
p737
sbatp738
Rp739
(dp740
g14
S'word: bucket, index: 16'
p741
sbatp742
Rp743
(dp744
g14
Vconj
p745
sbatp746
Rp747
(dp748
g14
S'word: shovel, index: 13'
p749
sbatp750
Rp751
(dp752
g14
Vdobj
p753
sbag0
(g1
g2
(lp754
g739
atp755
Rp756
(dp757
g14
Vdobj
p758
sbag0
(g1
g2
(lp759
g0
(g1
g2
(lp760
g0
(g1
g2
(lp761
(lp762
S'word: there, index: 18'
p763
aatp764
Rp765
(dp766
g14
Vpobj
p767
sbatp768
Rp769
(dp770
g14
S'word: out, index: 17'
p771
sbatp772
Rp773
(dp774
g14
Vprep
p775
sbatp776
Rp777
(dp778
g14
S'word: got, index: 11'
p779
sbatp780
Rp781
(dp782
g14
S'id: 7'
p783
sbag0
(g1
g2
(lp784
g0
(g1
g2
(lp785
g0
(g1
g2
(lp786
g0
(g1
g2
(lp787
g0
(g1
g2
(lp788
(lp789
S'word: the, index: 9'
p790
aatp791
Rp792
(dp793
g14
Vdet
p794
sbag0
(g1
g2
(lp795
g0
(g1
g2
(lp796
g0
(g1
g2
(lp797
(lp798
S'word: a, index: 12'
p799
aatp800
Rp801
(dp802
g14
Vdet
p803
sbag0
(g1
g2
(lp804
(lp805
S'word: flag, index: 13'
p806
aatp807
Rp808
(dp809
g14
Vnn
p810
sbatp811
Rp812
(dp813
g14
S'word: pole, index: 14'
p814
sbatp815
Rp816
(dp817
g14
Vprep
p818
sbatp819
Rp820
(dp821
g14
S'word: house, index: 10'
p822
sbatp823
Rp824
(dp825
g14
Vprep
p826
sbag0
(g1
g2
(lp827
(lp828
S'word: it, index: 16'
p829
aatp830
Rp831
(dp832
g14
Vprep
p833
sbag0
(g1
g2
(lp834
(lp835
S'word: And, index: 1'
p836
aatp837
Rp838
(dp839
g14
Vcc
p840
sbag0
(g1
g2
(lp841
g0
(g1
g2
(lp842
g0
(g1
g2
(lp843
(lp844
S'word: the, index: 2'
p845
aatp846
Rp847
(dp848
g14
Vdet
p849
sbag0
(g1
g2
(lp850
g0
(g1
g2
(lp851
g0
(g1
g2
(lp852
(lp853
S'word: the, index: 5'
p854
aatp855
Rp856
(dp857
g14
Vdet
p858
sbatp859
Rp860
(dp861
g14
S'word: cars, index: 6'
p862
sbatp863
Rp864
(dp865
g14
Vappos
p866
sbatp867
Rp868
(dp869
g14
S'word: house, index: 3'
p870
sbatp871
Rp872
(dp873
g14
Vnsubj
p874
sbag0
(g1
g2
(lp875
g0
(g1
g2
(lp876
g0
(g1
g2
(lp877
(lp878
S'word: a, index: 19'
p879
aatp880
Rp881
(dp882
g14
Vdet
p883
sbag0
(g1
g2
(lp884
(lp885
S'word: flying, index: 21'
p886
aatp887
Rp888
(dp889
g14
Vvmod
p890
sbag0
(g1
g2
(lp891
g0
(g1
g2
(lp892
g0
(g1
g2
(lp893
g0
(g1
g2
(lp894
g0
(g1
g2
(lp895
g0
(g1
g2
(lp896
g0
(g1
g2
(lp897
(lp898
S'word: like, index: 25'
p899
aatp900
Rp901
(dp902
g14
Vmark
p903
sbag0
(g1
g2
(lp904
(lp905
S'word: it, index: 26'
p906
aatp907
Rp908
(dp909
g14
Vnsubj
p910
sbag0
(g1
g2
(lp911
(lp912
S"word: 's, index: 27"
p913
aatp914
Rp915
(dp916
g14
Vcop
p917
sbag0
(g1
g2
(lp918
(lp919
S'word: a, index: 28'
p920
aatp921
Rp922
(dp923
g14
Vdet
p924
sbag0
(g1
g2
(lp925
(lp926
S'word: little, index: 29'
p927
aatp928
Rp929
(dp930
g14
Vamod
p931
sbag0
(g1
g2
(lp932
(lp933
S'word: windy, index: 30'
p934
aatp935
Rp936
(dp937
g14
Vamod
p938
sbatp939
Rp940
(dp941
g14
S'word: outside, index: 31'
p942
sbatp943
Rp944
(dp945
g14
Vadvcl
p946
sbatp947
Rp948
(dp949
g14
S'word: flying, index: 24'
p950
sbatp951
Rp952
(dp953
g14
Vvmod
p954
sbatp955
Rp956
(dp957
g14
S'word: flag, index: 23'
p958
sbatp959
Rp960
(dp961
g14
Vappos
p962
sbatp963
Rp964
(dp965
g14
S'word: flag, index: 20'
p966
sbatp967
Rp968
(dp969
g14
Vprep
p970
sbatp971
Rp972
(dp973
g14
S'word: parked, index: 7'
p974
sbatp975
Rp976
(dp977
g14
S'id: 8'
p978
sbag0
(g1
g2
(lp979
g0
(g1
g2
(lp980
g0
(g1
g2
(lp981
g0
(g1
g2
(lp982
g0
(g1
g2
(lp983
g0
(g1
g2
(lp984
g0
(g1
g2
(lp985
(lp986
S'word: two, index: 10'
p987
aatp988
Rp989
(dp990
g14
Vnum
p991
sbatp992
Rp993
(dp994
g14
S'word: people, index: 11'
p995
sbatp996
Rp997
(dp998
g14
Vnpadvmod
p999
sbatp1000
Rp1001
(dp1002
g14
S'word: out, index: 12'
p1003
sbatp1004
Rp1005
(dp1006
g14
Vadvmod
p1007
sbag0
(g1
g2
(lp1008
g0
(g1
g2
(lp1009
g0
(g1
g2
(lp1010
(lp1011
S'word: a, index: 14'
p1012
aatp1013
Rp1014
(dp1015
g14
Vdet
p1016
sbatp1017
Rp1018
(dp1019
g14
S'word: boat, index: 15'
p1020
sbatp1021
Rp1022
(dp1023
g14
Vprep
p1024
sbag0
(g1
g2
(lp1025
(lp1026
S'word: And, index: 1'
p1027
aatp1028
Rp1029
(dp1030
g14
Vcc
p1031
sbag0
(g1
g2
(lp1032
(lp1033
S'word: they, index: 2'
p1034
aatp1035
Rp1036
(dp1037
g14
Vnsubj
p1038
sbag0
(g1
g2
(lp1039
g0
(g1
g2
(lp1040
g0
(g1
g2
(lp1041
(lp1042
S'word: a, index: 4'
p1043
aatp1044
Rp1045
(dp1046
g14
Vdet
p1047
sbag0
(g1
g2
(lp1048
g0
(g1
g2
(lp1049
g0
(g1
g2
(lp1050
(lp1051
S'word: two, index: 7'
p1052
aatp1053
Rp1054
(dp1055
g14
Vnum
p1056
sbatp1057
Rp1058
(dp1059
g14
S'word: fellas, index: 8'
p1060
sbatp1061
Rp1062
(dp1063
g14
Vappos
p1064
sbatp1065
Rp1066
(dp1067
g14
S'word: fella, index: 5'
p1068
sbatp1069
Rp1070
(dp1071
g14
Vdobj
p1072
sbatp1073
Rp1074
(dp1075
g14
S'word: got, index: 3'
p1076
sbatp1077
Rp1078
(dp1079
g14
S'id: 9'
p1080
sbag0
(g1
g2
(lp1081
g0
(g1
g2
(lp1082
g0
(g1
g2
(lp1083
(lp1084
S'word: They, index: 1'
p1085
aatp1086
Rp1087
(dp1088
g14
Vnsubj
p1089
sbag0
(g1
g2
(lp1090
(lp1091
S"word: 're, index: 2"
p1092
aatp1093
Rp1094
(dp1095
g14
Vaux
p1096
sbag0
(g1
g2
(lp1097
g0
(g1
g2
(lp1098
g0
(g1
g2
(lp1099
(lp1100
S'word: and, index: 5'
p1101
aatp1102
Rp1103
(dp1104
g14
Vcc
p1105
sbag0
(g1
g2
(lp1106
(lp1107
S'word: down, index: 6'
p1108
aatp1109
Rp1110
(dp1111
g14
Vdep
p1112
sbatp1113
Rp1114
(dp1115
g14
S'word: up, index: 4'
p1116
sbatp1117
Rp1118
(dp1119
g14
Vprt
p1120
sbag0
(g1
g2
(lp1121
g0
(g1
g2
(lp1122
g0
(g1
g2
(lp1123
(lp1124
S'word: the, index: 7'
p1125
aatp1126
Rp1127
(dp1128
g14
Vdet
p1129
sbatp1130
Rp1131
(dp1132
g14
S'word: lake, index: 8'
p1133
sbatp1134
Rp1135
(dp1136
g14
Vdobj
p1137
sbatp1138
Rp1139
(dp1140
g14
S'word: sailing, index: 3'
p1141
sbatp1142
Rp1143
(dp1144
g14
S'id: 10'
p1145
sbag0
(g1
g2
(lp1146
g0
(g1
g2
(lp1147
g0
(g1
g2
(lp1148
g0
(g1
g2
(lp1149
g0
(g1
g2
(lp1150
(lp1151
S'word: the, index: 3'
p1152
aatp1153
Rp1154
(dp1155
g14
Vdet
p1156
sbatp1157
Rp1158
(dp1159
g14
S'word: water, index: 4'
p1160
sbatp1161
Rp1162
(dp1163
g14
Vprep
p1164
sbag0
(g1
g2
(lp1165
g0
(g1
g2
(lp1166
g0
(g1
g2
(lp1167
(lp1168
S'word: a, index: 6'
p1169
aatp1170
Rp1171
(dp1172
g14
Vquantmod
p1173
sbag0
(g1
g2
(lp1174
(lp1175
S'word: little, index: 7'
p1176
aatp1177
Rp1178
(dp1179
g14
Vquantmod
p1180
sbatp1181
Rp1182
(dp1183
g14
S'word: bit, index: 8'
p1184
sbatp1185
Rp1186
(dp1187
g14
Vprep
p1188
sbag0
(g1
g2
(lp1189
(lp1190
S'word: too, index: 9'
p1191
aatp1192
Rp1193
(dp1194
g14
Vadvmod
p1195
sbatp1196
Rp1197
(dp1198
g14
S'word: Look, index: 1'
p1199
sbatp1200
Rp1201
(dp1202
g14
S'id: 11'
p1203
sbag0
(g1
g2
(lp1204
g0
(g1
g2
(lp1205
g0
(g1
g2
(lp1206
g0
(g1
g2
(lp1207
g0
(g1
g2
(lp1208
g0
(g1
g2
(lp1209
g0
(g1
g2
(lp1210
(lp1211
S'word: as, index: 4'
p1212
aatp1213
Rp1214
(dp1215
g14
Vadvmod
p1216
sbatp1217
Rp1218
(dp1219
g14
S'word: high, index: 5'
p1220
sbatp1221
Rp1222
(dp1223
g14
Vadvmod
p1224
sbag0
(g1
g2
(lp1225
(lp1226
S'word: as, index: 6'
p1227
aatp1228
Rp1229
(dp1230
g14
Vmark
p1231
sbag0
(g1
g2
(lp1232
(lp1233
S'word: it, index: 7'
p1234
aatp1235
Rp1236
(dp1237
g14
Vnsubj
p1238
sbag0
(g1
g2
(lp1239
(lp1240
S'word: should, index: 8'
p1241
aatp1242
Rp1243
(dp1244
g14
Vaux
p1245
sbatp1246
Rp1247
(dp1248
g14
S'word: be, index: 9'
p1249
sbatp1250
Rp1251
(dp1252
g14
Vadvcl
p1253
sbag0
(g1
g2
(lp1254
(lp1255
S'word: Water, index: 1'
p1256
aatp1257
Rp1258
(dp1259
g14
Vnsubj
p1260
sbag0
(g1
g2
(lp1261
(lp1262
S'word: up, index: 3'
p1263
aatp1264
Rp1265
(dp1266
g14
Vprt
p1267
sbatp1268
Rp1269
(dp1270
g14
S'word: aint, index: 2'
p1271
sbatp1272
Rp1273
(dp1274
g14
S'id: 12'
p1275
sbag0
(g1
g2
(lp1276
g0
(g1
g2
(lp1277
g0
(g1
g2
(lp1278
(lp1279
S'word: And, index: 1'
p1280
aatp1281
Rp1282
(dp1283
g14
Vcc
p1284
sbag0
(g1
g2
(lp1285
g0
(g1
g2
(lp1286
g0
(g1
g2
(lp1287
(lp1288
S'word: good, index: 3'
p1289
aatp1290
Rp1291
(dp1292
g14
Vamod
p1293
sbatp1294
Rp1295
(dp1296
g14
S'word: day, index: 4'
p1297
sbatp1298
Rp1299
(dp1300
g14
Vpobj
p1301
sbatp1302
Rp1303
(dp1304
g14
S'word: pretty, index: 2'
p1305
sbatp1306
Rp1307
(dp1308
g14
S'id: 13'
p1309
sbag0
(g1
g2
(lp1310
g0
(g1
g2
(lp1311
g0
(g1
g2
(lp1312
g0
(g1
g2
(lp1313
g0
(g1
g2
(lp1314
(lp1315
S'word: fun, index: 3'
p1316
aatp1317
Rp1318
(dp1319
g14
Vdobj
p1320
sbatp1321
Rp1322
(dp1323
g14
S'word: having, index: 2'
p1324
sbatp1325
Rp1326
(dp1327
g14
Vvmod
p1328
sbatp1329
Rp1330
(dp1331
g14
S'word: Everybody, index: 1'
p1332
sbatp1333
Rp1334
(dp1335
g14
S'id: 14'
p1336
sbag0
(g1
g2
(lp1337
g0
(g1
g2
(lp1338
g0
(g1
g2
(lp1339
(lp1340
S'word: Man, index: 1'
p1341
aatp1342
Rp1343
(dp1344
g14
Vposs
p1345
sbag0
(g1
g2
(lp1346
(lp1347
S'word: wearing, index: 3'
p1348
aatp1349
Rp1350
(dp1351
g14
Vamod
p1352
sbag0
(g1
g2
(lp1353
(lp1354
S'word: he, index: 6'
p1355
aatp1356
Rp1357
(dp1358
g14
Vappos
p1359
sbag0
(g1
g2
(lp1360
g0
(g1
g2
(lp1361
g0
(g1
g2
(lp1362
(lp1363
S'word: the, index: 7'
p1364
aatp1365
Rp1366
(dp1367
g14
Vdet
p1368
sbag0
(g1
g2
(lp1369
(lp1370
S'word: only, index: 8'
p1371
aatp1372
Rp1373
(dp1374
g14
Vquantmod
p1375
sbag0
(g1
g2
(lp1376
g0
(g1
g2
(lp1377
g0
(g1
g2
(lp1378
(lp1379
S'word: glasses, index: 11'
p1380
aatp1381
Rp1382
(dp1383
g14
Vdobj
p1384
sbag0
(g1
g2
(lp1385
(lp1386
S'word: too, index: 12'
p1387
aatp1388
Rp1389
(dp1390
g14
Vadvmod
p1391
sbatp1392
Rp1393
(dp1394
g14
S'word: wearing, index: 10'
p1395
sbatp1396
Rp1397
(dp1398
g14
Vvmod
p1399
sbatp1400
Rp1401
(dp1402
g14
S'word: one, index: 9'
p1403
sbatp1404
Rp1405
(dp1406
g14
Vdep
p1407
sbatp1408
Rp1409
(dp1410
g14
S'word: glasses, index: 4'
p1411
sbatp1412
Rp1413
(dp1414
g14
S'id: 15'
p1415
sbag0
(g1
g2
(lp1416
g0
(g1
g2
(lp1417
g0
(g1
g2
(lp1418
(lp1419
S'word: else, index: 2'
p1420
aatp1421
Rp1422
(dp1423
g14
Vadvmod
p1424
sbag0
(g1
g2
(lp1425
(lp1426
S'word: is, index: 3'
p1427
aatp1428
Rp1429
(dp1430
g14
Vdep
p1431
sbatp1432
Rp1433
(dp1434
g14
S'word: Everybody, index: 1'
p1435
sbatp1436
Rp1437
(dp1438
g14
S'id: 16'
p1439
sbatp1440
Rp1441
(dp1442
g14
S'sentences'
p1443
sb.