ccopy_reg
_reconstructor
p0
(cnltk.tree
Tree
p1
c__builtin__
list
p2
(lp3
g0
(g1
g2
(lp4
tp5
Rp6
(dp7
S'_label'
p8
S'id: 0'
p9
sbag0
(g1
g2
(lp10
g0
(g1
g2
(lp11
g0
(g1
g2
(lp12
(lp13
S'word: dar, index: 2'
p14
aatp15
Rp16
(dp17
g8
Vdep
p18
sbatp19
Rp20
(dp21
g8
S'word: Cookie, index: 1'
p22
sbatp23
Rp24
(dp25
g8
S'id: 1'
p26
sbag0
(g1
g2
(lp27
g0
(g1
g2
(lp28
g0
(g1
g2
(lp29
(lp30
S'word: it, index: 3'
p31
aatp32
Rp33
(dp34
g8
Vprep
p35
sbatp36
Rp37
(dp38
g8
S'word: Cookie, index: 1'
p39
sbatp40
Rp41
(dp42
g8
S'id: 2'
p43
sbag0
(g1
g2
(lp44
g0
(g1
g2
(lp45
g0
(g1
g2
(lp46
(lp47
S'word: foil, index: 3'
p48
aatp49
Rp50
(dp51
g8
Vappos
p52
sbag0
(g1
g2
(lp53
(lp54
S'word: it, index: 5'
p55
aatp56
Rp57
(dp58
g8
Vappos
p59
sbag0
(g1
g2
(lp60
g0
(g1
g2
(lp61
g0
(g1
g2
(lp62
(lp63
S'word: down, index: 9'
p64
aatp65
Rp66
(dp67
g8
Vprt
p68
sbag0
(g1
g2
(lp69
(lp70
S'word: it, index: 7'
p71
aatp72
Rp73
(dp74
g8
Vnsubj
p75
sbatp76
Rp77
(dp78
g8
S'word: falling, index: 8'
p79
sbatp80
Rp81
(dp82
g8
Vdep
p83
sbatp84
Rp85
(dp86
g8
S'word: It, index: 1'
p87
sbatp88
Rp89
(dp90
g8
S'id: 3'
p91
sbag0
(g1
g2
(lp92
g0
(g1
g2
(lp93
g0
(g1
g2
(lp94
(lp95
S'word: Girl, index: 1'
p96
aatp97
Rp98
(dp99
g8
Vnsubj
p100
sbag0
(g1
g2
(lp101
(lp102
S'word: is, index: 2'
p103
aatp104
Rp105
(dp106
g8
Vcop
p107
sbag0
(g1
g2
(lp108
(lp109
S'word: him, index: 5'
p110
aatp111
Rp112
(dp113
g8
Vprep
p114
sbatp115
Rp116
(dp117
g8
S'word: cookie, index: 3'
p118
sbatp119
Rp120
(dp121
g8
S'id: 4'
p122
sbag0
(g1
g2
(lp123
g0
(g1
g2
(lp124
g0
(g1
g2
(lp125
(lp126
S'word: here, index: 2'
p127
aatp128
Rp129
(dp130
g8
Vadvmod
p131
sbag0
(g1
g2
(lp132
(lp133
S'word: washing, index: 3'
p134
aatp135
Rp136
(dp137
g8
Vdep
p138
sbatp139
Rp140
(dp141
g8
S'word: over, index: 1'
p142
sbatp143
Rp144
(dp145
g8
S'id: 5'
p146
sbag0
(g1
g2
(lp147
g0
(g1
g2
(lp148
g0
(g1
g2
(lp149
(lp150
S'word: fall, index: 3'
p151
aatp152
Rp153
(dp154
g8
Vappos
p155
sbag0
(g1
g2
(lp156
g0
(g1
g2
(lp157
g0
(g1
g2
(lp158
(lp159
S'word: out, index: 6'
p160
aatp161
Rp162
(dp163
g8
Vprt
p164
sbag0
(g1
g2
(lp165
(lp166
S'word: floor, index: 7'
p167
aatp168
Rp169
(dp170
g8
Vdobj
p171
sbatp172
Rp173
(dp174
g8
S'word: falling, index: 5'
p175
sbatp176
Rp177
(dp178
g8
Vvmod
p179
sbatp180
Rp181
(dp182
g8
S'word: Fall, index: 1'
p183
sbatp184
Rp185
(dp186
g8
S'id: 6'
p187
sbag0
(g1
g2
(lp188
g0
(g1
g2
(lp189
g0
(g1
g2
(lp190
(lp191
S'word: washing, index: 2'
p192
aatp193
Rp194
(dp195
g8
Vdep
p196
sbatp197
Rp198
(dp199
g8
S'word: right, index: 1'
p200
sbatp201
Rp202
(dp203
g8
S'id: 7'
p204
sbag0
(g1
g2
(lp205
g0
(g1
g2
(lp206
g0
(g1
g2
(lp207
(lp208
S'word: Is, index: 1'
p209
aatp210
Rp211
(dp212
g8
Vcop
p213
sbag0
(g1
g2
(lp214
g0
(g1
g2
(lp215
g0
(g1
g2
(lp216
(lp217
S'word: here, index: 4'
p218
aatp219
Rp220
(dp221
g8
Vpobj
p222
sbatp223
Rp224
(dp225
g8
S'word: over, index: 3'
p226
sbatp227
Rp228
(dp229
g8
Vprep
p230
sbatp231
Rp232
(dp233
g8
S'word: two, index: 2'
p234
sbatp235
Rp236
(dp237
g8
S'id: 8'
p238
sbag0
(g1
g2
(lp239
g0
(g1
g2
(lp240
g0
(g1
g2
(lp241
(lp242
S'word: It, index: 1'
p243
aatp244
Rp245
(dp246
g8
Vnsubj
p247
sbag0
(g1
g2
(lp248
g0
(g1
g2
(lp249
g0
(g1
g2
(lp250
(lp251
S'word: right, index: 3'
p252
aatp253
Rp254
(dp255
g8
Vadvmod
p256
sbatp257
Rp258
(dp259
g8
S'word: here, index: 4'
p260
sbatp261
Rp262
(dp263
g8
Vadvmod
p264
sbatp265
Rp266
(dp267
g8
S'word: is, index: 2'
p268
sbatp269
Rp270
(dp271
g8
S'id: 9'
p272
sbag0
(g1
g2
(lp273
tp274
Rp275
(dp276
g8
S'id: 10'
p277
sbatp278
Rp279
(dp280
g8
S'sentences'
p281
sb.