ccopy_reg
_reconstructor
p0
(cnltk.tree
Tree
p1
c__builtin__
list
p2
(lp3
g0
(g1
g2
(lp4
g0
(g1
g2
(lp5
g0
(g1
g2
(lp6
g0
(g1
g2
(lp7
Vwell
p8
atp9
Rp10
(dp11
S'_label'
p12
VRB
p13
sbatp14
Rp15
(dp16
g12
VADVP
p17
sbag0
(g1
g2
(lp18
V.
p19
atp20
Rp21
(dp22
g12
V.
p23
sbatp24
Rp25
(dp26
g12
VFRAG
p27
sbatp28
Rp29
(dp30
g12
S'id: 0'
p31
sbag0
(g1
g2
(lp32
g0
(g1
g2
(lp33
g0
(g1
g2
(lp34
g0
(g1
g2
(lp35
VThat
p36
atp37
Rp38
(dp39
g12
VDT
p40
sbatp41
Rp42
(dp43
g12
VNP
p44
sbag0
(g1
g2
(lp45
g0
(g1
g2
(lp46
V's
p47
atp48
Rp49
(dp50
g12
VVBZ
p51
sbag0
(g1
g2
(lp52
g0
(g1
g2
(lp53
g0
(g1
g2
(lp54
Vman
p55
atp56
Rp57
(dp58
g12
VNN
p59
sbatp60
Rp61
(dp62
g12
VNP
p63
sbag0
(g1
g2
(lp64
V,
p65
atp66
Rp67
(dp68
g12
V,
p69
sbag0
(g1
g2
(lp70
Vor
p71
atp72
Rp73
(dp74
g12
VCC
p75
sbag0
(g1
g2
(lp76
g0
(g1
g2
(lp77
Vway
p78
atp79
Rp80
(dp81
g12
VNN
p82
sbag0
(g1
g2
(lp83
Vbig
p84
atp85
Rp86
(dp87
g12
VJJ
p88
sbag0
(g1
g2
(lp89
Vwaiting
p90
atp91
Rp92
(dp93
g12
VNN
p94
sbatp95
Rp96
(dp97
g12
VNP
p98
sbatp99
Rp100
(dp101
g12
VNP
p102
sbatp103
Rp104
(dp105
g12
VVP
p106
sbag0
(g1
g2
(lp107
V.
p108
atp109
Rp110
(dp111
g12
V.
p112
sbatp113
Rp114
(dp115
g12
VS
p116
sbatp117
Rp118
(dp119
g12
S'id: 1'
p120
sbag0
(g1
g2
(lp121
g0
(g1
g2
(lp122
g0
(g1
g2
(lp123
VAnd
p124
atp125
Rp126
(dp127
g12
VCC
p128
sbag0
(g1
g2
(lp129
g0
(g1
g2
(lp130
g0
(g1
g2
(lp131
Vthe
p132
atp133
Rp134
(dp135
g12
VDT
p136
sbag0
(g1
g2
(lp137
Vcup
p138
atp139
Rp140
(dp141
g12
VNN
p142
sbatp143
Rp144
(dp145
g12
VNP
p146
sbag0
(g1
g2
(lp147
g0
(g1
g2
(lp148
Vof
p149
atp150
Rp151
(dp152
g12
VIN
p153
sbag0
(g1
g2
(lp154
g0
(g1
g2
(lp155
Vthe
p156
atp157
Rp158
(dp159
g12
VDT
p160
sbatp161
Rp162
(dp163
g12
VNP
p164
sbatp165
Rp166
(dp167
g12
VPP
p168
sbatp169
Rp170
(dp171
g12
VNP
p172
sbag0
(g1
g2
(lp173
V.
p174
atp175
Rp176
(dp177
g12
V.
p178
sbatp179
Rp180
(dp181
g12
VFRAG
p182
sbatp183
Rp184
(dp185
g12
S'id: 2'
p186
sbag0
(g1
g2
(lp187
g0
(g1
g2
(lp188
g0
(g1
g2
(lp189
g0
(g1
g2
(lp190
g0
(g1
g2
(lp191
Va
p192
atp193
Rp194
(dp195
g12
VDT
p196
sbag0
(g1
g2
(lp197
Vman
p198
atp199
Rp200
(dp201
g12
VNN
p202
sbatp203
Rp204
(dp205
g12
VNP
p206
sbag0
(g1
g2
(lp207
g0
(g1
g2
(lp208
Vis
p209
atp210
Rp211
(dp212
g12
VVBZ
p213
sbag0
(g1
g2
(lp214
g0
(g1
g2
(lp215
Vdrinking
p216
atp217
Rp218
(dp219
g12
VVBG
p220
sbatp221
Rp222
(dp223
g12
VVP
p224
sbatp225
Rp226
(dp227
g12
VVP
p228
sbatp229
Rp230
(dp231
g12
VS
p232
sbag0
(g1
g2
(lp233
V,
p234
atp235
Rp236
(dp237
g12
V,
p238
sbag0
(g1
g2
(lp239
g0
(g1
g2
(lp240
g0
(g1
g2
(lp241
Va
p242
atp243
Rp244
(dp245
g12
VDT
p246
sbag0
(g1
g2
(lp247
Vso
p248
atp249
Rp250
(dp251
g12
VRB
p252
sbag0
(g1
g2
(lp253
Vcup
p254
atp255
Rp256
(dp257
g12
VNN
p258
sbag0
(g1
g2
(lp259
V,
p260
atp261
Rp262
(dp263
g12
V,
p264
sbatp265
Rp266
(dp267
g12
VNP
p268
sbag0
(g1
g2
(lp269
g0
(g1
g2
(lp270
Vdrinking
p271
atp272
Rp273
(dp274
g12
VNN
p275
sbatp276
Rp277
(dp278
g12
VNP
p279
sbatp280
Rp281
(dp282
g12
VS
p283
sbag0
(g1
g2
(lp284
V.
p285
atp286
Rp287
(dp288
g12
V.
p289
sbatp290
Rp291
(dp292
g12
VS
p293
sbatp294
Rp295
(dp296
g12
S'id: 3'
p297
sbag0
(g1
g2
(lp298
g0
(g1
g2
(lp299
g0
(g1
g2
(lp300
VAnd
p301
atp302
Rp303
(dp304
g12
VCC
p305
sbag0
(g1
g2
(lp306
g0
(g1
g2
(lp307
Vthe
p308
atp309
Rp310
(dp311
g12
VDT
p312
sbag0
(g1
g2
(lp313
Vman
p314
atp315
Rp316
(dp317
g12
VNN
p318
sbatp319
Rp320
(dp321
g12
VNP
p322
sbag0
(g1
g2
(lp323
g0
(g1
g2
(lp324
Vis
p325
atp326
Rp327
(dp328
g12
VVBZ
p329
sbag0
(g1
g2
(lp330
g0
(g1
g2
(lp331
g0
(g1
g2
(lp332
Vthe
p333
atp334
Rp335
(dp336
g12
VDT
p337
sbag0
(g1
g2
(lp338
Varm
p339
atp340
Rp341
(dp342
g12
VNN
p343
sbag0
(g1
g2
(lp344
V's
p345
atp346
Rp347
(dp348
g12
VPOS
p349
sbatp350
Rp351
(dp352
g12
VNP
p353
sbag0
(g1
g2
(lp354
Vlouw
p355
atp356
Rp357
(dp358
g12
VNN
p359
sbatp360
Rp361
(dp362
g12
VNP
p363
sbatp364
Rp365
(dp366
g12
VVP
p367
sbag0
(g1
g2
(lp368
V.
p369
atp370
Rp371
(dp372
g12
V.
p373
sbatp374
Rp375
(dp376
g12
VS
p377
sbatp378
Rp379
(dp380
g12
S'id: 4'
p381
sbag0
(g1
g2
(lp382
g0
(g1
g2
(lp383
g0
(g1
g2
(lp384
g0
(g1
g2
(lp385
VThe
p386
atp387
Rp388
(dp389
g12
VDT
p390
sbag0
(g1
g2
(lp391
Vkite
p392
atp393
Rp394
(dp395
g12
VNN
p396
sbatp397
Rp398
(dp399
g12
VNP
p400
sbag0
(g1
g2
(lp401
g0
(g1
g2
(lp402
Vis
p403
atp404
Rp405
(dp406
g12
VVBZ
p407
sbag0
(g1
g2
(lp408
g0
(g1
g2
(lp409
Vto
p410
atp411
Rp412
(dp413
g12
VTO
p414
sbag0
(g1
g2
(lp415
g0
(g1
g2
(lp416
g0
(g1
g2
(lp417
Vgirl
p418
atp419
Rp420
(dp421
g12
VNN
p422
sbatp423
Rp424
(dp425
g12
VNP
p426
sbag0
(g1
g2
(lp427
V,
p428
atp429
Rp430
(dp431
g12
V,
p432
sbag0
(g1
g2
(lp433
Vand
p434
atp435
Rp436
(dp437
g12
VCC
p438
sbag0
(g1
g2
(lp439
g0
(g1
g2
(lp440
g0
(g1
g2
(lp441
Vgirl
p442
atp443
Rp444
(dp445
g12
VNN
p446
sbag0
(g1
g2
(lp447
Vans
p448
atp449
Rp450
(dp451
g12
VNNS
p452
sbatp453
Rp454
(dp455
g12
VNP
p456
sbag0
(g1
g2
(lp457
V,
p458
atp459
Rp460
(dp461
g12
V,
p462
sbag0
(g1
g2
(lp463
g0
(g1
g2
(lp464
g0
(g1
g2
(lp465
Vone
p466
atp467
Rp468
(dp469
g12
VCD
p470
sbatp471
Rp472
(dp473
g12
VNP
p474
sbag0
(g1
g2
(lp475
g0
(g1
g2
(lp476
Vthe
p477
atp478
Rp479
(dp480
g12
VDT
p481
sbag0
(g1
g2
(lp482
Vyard
p483
atp484
Rp485
(dp486
g12
VNN
p487
sbatp488
Rp489
(dp490
g12
VNP
p491
sbatp492
Rp493
(dp494
g12
VNP
p495
sbatp496
Rp497
(dp498
g12
VNP
p499
sbatp500
Rp501
(dp502
g12
VNP
p503
sbatp504
Rp505
(dp506
g12
VPP
p507
sbatp508
Rp509
(dp510
g12
VVP
p511
sbag0
(g1
g2
(lp512
V.
p513
atp514
Rp515
(dp516
g12
V.
p517
sbatp518
Rp519
(dp520
g12
VS
p521
sbatp522
Rp523
(dp524
g12
S'id: 5'
p525
sbag0
(g1
g2
(lp526
g0
(g1
g2
(lp527
g0
(g1
g2
(lp528
g0
(g1
g2
(lp529
VSomebody
p530
atp531
Rp532
(dp533
g12
VNN
p534
sbatp535
Rp536
(dp537
g12
VNP
p538
sbag0
(g1
g2
(lp539
g0
(g1
g2
(lp540
Vis
p541
atp542
Rp543
(dp544
g12
VVBZ
p545
sbag0
(g1
g2
(lp546
V,
p547
atp548
Rp549
(dp550
g12
V,
p551
sbag0
(g1
g2
(lp552
g0
(g1
g2
(lp553
g0
(g1
g2
(lp554
g0
(g1
g2
(lp555
Vgirl
p556
atp557
Rp558
(dp559
g12
VNN
p560
sbatp561
Rp562
(dp563
g12
VNP
p564
sbag0
(g1
g2
(lp565
g0
(g1
g2
(lp566
Vis
p567
atp568
Rp569
(dp570
g12
VVBZ
p571
sbag0
(g1
g2
(lp572
V,
p573
atp574
Rp575
(dp576
g12
V,
p577
sbag0
(g1
g2
(lp578
g0
(g1
g2
(lp579
Vok
p580
atp581
Rp582
(dp583
g12
VNN
p584
sbatp585
Rp586
(dp587
g12
VNP
p588
sbatp589
Rp590
(dp591
g12
VVP
p592
sbatp593
Rp594
(dp595
g12
VS
p596
sbatp597
Rp598
(dp599
g12
VSBAR
p600
sbatp601
Rp602
(dp603
g12
VVP
p604
sbag0
(g1
g2
(lp605
V.
p606
atp607
Rp608
(dp609
g12
V.
p610
sbatp611
Rp612
(dp613
g12
VS
p614
sbatp615
Rp616
(dp617
g12
S'id: 6'
p618
sbag0
(g1
g2
(lp619
g0
(g1
g2
(lp620
g0
(g1
g2
(lp621
g0
(g1
g2
(lp622
g0
(g1
g2
(lp623
VThe
p624
atp625
Rp626
(dp627
g12
VDT
p628
sbag0
(g1
g2
(lp629
Varm
p630
atp631
Rp632
(dp633
g12
VNN
p634
sbag0
(g1
g2
(lp635
V's
p636
atp637
Rp638
(dp639
g12
VPOS
p640
sbatp641
Rp642
(dp643
g12
VNP
p644
sbag0
(g1
g2
(lp645
Vshower
p646
atp647
Rp648
(dp649
g12
VNN
p650
sbatp651
Rp652
(dp653
g12
VNP
p654
sbag0
(g1
g2
(lp655
V.
p656
atp657
Rp658
(dp659
g12
V.
p660
sbatp661
Rp662
(dp663
g12
VFRAG
p664
sbatp665
Rp666
(dp667
g12
S'id: 7'
p668
sbag0
(g1
g2
(lp669
g0
(g1
g2
(lp670
g0
(g1
g2
(lp671
VAnd
p672
atp673
Rp674
(dp675
g12
VCC
p676
sbag0
(g1
g2
(lp677
g0
(g1
g2
(lp678
Vthey
p679
atp680
Rp681
(dp682
g12
VPRP
p683
sbatp684
Rp685
(dp686
g12
VNP
p687
sbag0
(g1
g2
(lp688
g0
(g1
g2
(lp689
V,
p690
atp691
Rp692
(dp693
g12
V,
p694
sbag0
(g1
g2
(lp695
g0
(g1
g2
(lp696
g0
(g1
g2
(lp697
Vthe
p698
atp699
Rp700
(dp701
g12
VDT
p702
sbatp703
Rp704
(dp705
g12
VNP
p706
sbag0
(g1
g2
(lp707
V,
p708
atp709
Rp710
(dp711
g12
V,
p712
sbag0
(g1
g2
(lp713
g0
(g1
g2
(lp714
Vthe
p715
atp716
Rp717
(dp718
g12
VDT
p719
sbag0
(g1
g2
(lp720
Vman
p721
atp722
Rp723
(dp724
g12
VNN
p725
sbatp726
Rp727
(dp728
g12
VNP
p729
sbag0
(g1
g2
(lp730
g0
(g1
g2
(lp731
Vis
p732
atp733
Rp734
(dp735
g12
VVBZ
p736
sbag0
(g1
g2
(lp737
g0
(g1
g2
(lp738
g0
(g1
g2
(lp739
Vhor
p740
atp741
Rp742
(dp743
g12
VNN
p744
sbatp745
Rp746
(dp747
g12
VNP
p748
sbag0
(g1
g2
(lp749
V,
p750
atp751
Rp752
(dp753
g12
V,
p754
sbag0
(g1
g2
(lp755
Vor
p756
atp757
Rp758
(dp759
g12
VCC
p760
sbag0
(g1
g2
(lp761
g0
(g1
g2
(lp762
Vthe
p763
atp764
Rp765
(dp766
g12
VDT
p767
sbatp768
Rp769
(dp770
g12
VNP
p771
sbatp772
Rp773
(dp774
g12
VNP
p775
sbatp776
Rp777
(dp778
g12
VVP
p779
sbatp780
Rp781
(dp782
g12
VS
p783
sbag0
(g1
g2
(lp784
V,
p785
atp786
Rp787
(dp788
g12
V,
p789
sbatp790
Rp791
(dp792
g12
VPRN
p793
sbag0
(g1
g2
(lp794
g0
(g1
g2
(lp795
Vdo
p796
atp797
Rp798
(dp799
g12
VVBP
p800
sbag0
(g1
g2
(lp801
Vn't
p802
atp803
Rp804
(dp805
g12
VRB
p806
sbag0
(g1
g2
(lp807
g0
(g1
g2
(lp808
Vknow
p809
atp810
Rp811
(dp812
g12
VVB
p813
sbag0
(g1
g2
(lp814
g0
(g1
g2
(lp815
V,
p816
atp817
Rp818
(dp819
g12
V,
p820
sbag0
(g1
g2
(lp821
g0
(g1
g2
(lp822
Vthe
p823
atp824
Rp825
(dp826
g12
VDT
p827
sbag0
(g1
g2
(lp828
Vyard
p829
atp830
Rp831
(dp832
g12
VNN
p833
sbatp834
Rp835
(dp836
g12
VNP
p837
sbatp838
Rp839
(dp840
g12
VFRAG
p841
sbatp842
Rp843
(dp844
g12
VVP
p845
sbatp846
Rp847
(dp848
g12
VVP
p849
sbag0
(g1
g2
(lp850
V.
p851
atp852
Rp853
(dp854
g12
V.
p855
sbatp856
Rp857
(dp858
g12
VS
p859
sbatp860
Rp861
(dp862
g12
S'id: 8'
p863
sbag0
(g1
g2
(lp864
g0
(g1
g2
(lp865
g0
(g1
g2
(lp866
g0
(g1
g2
(lp867
VIf
p868
atp869
Rp870
(dp871
g12
VIN
p872
sbag0
(g1
g2
(lp873
g0
(g1
g2
(lp874
g0
(g1
g2
(lp875
Va
p876
atp877
Rp878
(dp879
g12
VDT
p880
sbag0
(g1
g2
(lp881
Vman
p882
atp883
Rp884
(dp885
g12
VNN
p886
sbatp887
Rp888
(dp889
g12
VNP
p890
sbag0
(g1
g2
(lp891
g0
(g1
g2
(lp892
Vis
p893
atp894
Rp895
(dp896
g12
VVBZ
p897
sbag0
(g1
g2
(lp898
V,
p899
atp900
Rp901
(dp902
g12
V,
p903
sbag0
(g1
g2
(lp904
g0
(g1
g2
(lp905
g0
(g1
g2
(lp906
g0
(g1
g2
(lp907
Vman
p908
atp909
Rp910
(dp911
g12
VNN
p912
sbatp913
Rp914
(dp915
g12
VNP
p916
sbag0
(g1
g2
(lp917
g0
(g1
g2
(lp918
Vis
p919
atp920
Rp921
(dp922
g12
VVBZ
p923
sbatp924
Rp925
(dp926
g12
VVP
p927
sbatp928
Rp929
(dp930
g12
VS
p931
sbatp932
Rp933
(dp934
g12
VSBAR
p935
sbatp936
Rp937
(dp938
g12
VVP
p939
sbatp940
Rp941
(dp942
g12
VS
p943
sbatp944
Rp945
(dp946
g12
VSBAR
p947
sbag0
(g1
g2
(lp948
V,
p949
atp950
Rp951
(dp952
g12
V,
p953
sbag0
(g1
g2
(lp954
g0
(g1
g2
(lp955
g0
(g1
g2
(lp956
Vdrinking
p957
atp958
Rp959
(dp960
g12
VNN
p961
sbatp962
Rp963
(dp964
g12
VNP
p965
sbag0
(g1
g2
(lp966
Vand
p967
atp968
Rp969
(dp970
g12
VCC
p971
sbag0
(g1
g2
(lp972
g0
(g1
g2
(lp973
Vthe
p974
atp975
Rp976
(dp977
g12
VDT
p978
sbag0
(g1
g2
(lp979
Vyard
p980
atp981
Rp982
(dp983
g12
VNN
p984
sbatp985
Rp986
(dp987
g12
VNP
p988
sbatp989
Rp990
(dp991
g12
VNP
p992
sbag0
(g1
g2
(lp993
g0
(g1
g2
(lp994
Vis
p995
atp996
Rp997
(dp998
g12
VVBZ
p999
sbatp1000
Rp1001
(dp1002
g12
VVP
p1003
sbag0
(g1
g2
(lp1004
V.
p1005
atp1006
Rp1007
(dp1008
g12
V.
p1009
sbatp1010
Rp1011
(dp1012
g12
VS
p1013
sbatp1014
Rp1015
(dp1016
g12
S'id: 9'
p1017
sbatp1018
Rp1019
(dp1020
g12
S'sentences'
p1021
sb.