ccopy_reg
_reconstructor
p0
(cnltk.tree
Tree
p1
c__builtin__
list
p2
(lp3
g0
(g1
g2
(lp4
g0
(g1
g2
(lp5
g0
(g1
g2
(lp6
Va big one
p7
atp8
Rp9
(dp10
S'_label'
p11
S'start: 4'
p12
sbatp13
Rp14
(dp15
g11
S'sent: 1'
p16
sbag0
(g1
g2
(lp17
g0
(g1
g2
(lp18
Vthat one
p19
atp20
Rp21
(dp22
g11
S'start: 7'
p23
sbatp24
Rp25
(dp26
g11
S'sent: 15'
p27
sbatp28
Rp29
(dp30
g11
S'id: 2'
p31
sbag0
(g1
g2
(lp32
g0
(g1
g2
(lp33
g0
(g1
g2
(lp34
VThe man and a woman
p35
atp36
Rp37
(dp38
g11
S'start: 1'
p39
sbatp40
Rp41
(dp42
g11
S'sent: 3'
p43
sbag0
(g1
g2
(lp44
g0
(g1
g2
(lp45
Vthey
p46
atp47
Rp48
(dp49
g11
S'start: 13'
p50
sbatp51
Rp52
(dp53
g11
S'sent: 3'
p54
sbag0
(g1
g2
(lp55
g0
(g1
g2
(lp56
Vtheir
p57
atp58
Rp59
(dp60
g11
S'start: 6'
p61
sbatp62
Rp63
(dp64
g11
S'sent: 4'
p65
sbag0
(g1
g2
(lp66
g0
(g1
g2
(lp67
Vthey
p68
atp69
Rp70
(dp71
g11
S'start: 13'
p72
sbatp73
Rp74
(dp75
g11
S'sent: 4'
p76
sbag0
(g1
g2
(lp77
g0
(g1
g2
(lp78
Vthey
p79
atp80
Rp81
(dp82
g11
S'start: 21'
p83
sbatp84
Rp85
(dp86
g11
S'sent: 4'
p87
sbatp88
Rp89
(dp90
g11
S'id: 4'
p91
sbag0
(g1
g2
(lp92
g0
(g1
g2
(lp93
g0
(g1
g2
(lp94
VThe man
p95
atp96
Rp97
(dp98
g11
S'start: 1'
p99
sbatp100
Rp101
(dp102
g11
S'sent: 3'
p103
sbag0
(g1
g2
(lp104
g0
(g1
g2
(lp105
Vthe man
p106
atp107
Rp108
(dp109
g11
S'start: 12'
p110
sbatp111
Rp112
(dp113
g11
S'sent: 6'
p114
sbag0
(g1
g2
(lp115
g0
(g1
g2
(lp116
Vhe
p117
atp118
Rp119
(dp120
g11
S'start: 2'
p121
sbatp122
Rp123
(dp124
g11
S'sent: 7'
p125
sbag0
(g1
g2
(lp126
g0
(g1
g2
(lp127
VHe
p128
atp129
Rp130
(dp131
g11
S'start: 1'
p132
sbatp133
Rp134
(dp135
g11
S'sent: 8'
p136
sbatp137
Rp138
(dp139
g11
S'id: 5'
p140
sbag0
(g1
g2
(lp141
g0
(g1
g2
(lp142
g0
(g1
g2
(lp143
Vthe little
p144
atp145
Rp146
(dp147
g11
S'start: 15'
p148
sbatp149
Rp150
(dp151
g11
S'sent: 3'
p152
sbag0
(g1
g2
(lp153
g0
(g1
g2
(lp154
Vit in front of their house , i dont
p155
atp156
Rp157
(dp158
g11
S'start: 2'
p159
sbatp160
Rp161
(dp162
g11
S'sent: 4'
p163
sbag0
(g1
g2
(lp164
g0
(g1
g2
(lp165
Vit
p166
atp167
Rp168
(dp169
g11
S'start: 24'
p170
sbatp171
Rp172
(dp173
g11
S'sent: 4'
p174
sbatp175
Rp176
(dp177
g11
S'id: 8'
p178
sbag0
(g1
g2
(lp179
g0
(g1
g2
(lp180
g0
(g1
g2
(lp181
Vtheir house
p182
atp183
Rp184
(dp185
g11
S'start: 6'
p186
sbatp187
Rp188
(dp189
g11
S'sent: 4'
p190
sbag0
(g1
g2
(lp191
g0
(g1
g2
(lp192
Vi dont
p193
atp194
Rp195
(dp196
g11
S'start: 9'
p197
sbatp198
Rp199
(dp200
g11
S'sent: 4'
p201
sbag0
(g1
g2
(lp202
g0
(g1
g2
(lp203
Vthe house
p204
atp205
Rp206
(dp207
g11
S'start: 17'
p208
sbatp209
Rp210
(dp211
g11
S'sent: 4'
p212
sbatp213
Rp214
(dp215
g11
S'id: 12'
p216
sbag0
(g1
g2
(lp217
g0
(g1
g2
(lp218
g0
(g1
g2
(lp219
Vthe right
p220
atp221
Rp222
(dp223
g11
S'start: 9'
p224
sbatp225
Rp226
(dp227
g11
S'sent: 6'
p228
sbag0
(g1
g2
(lp229
g0
(g1
g2
(lp230
Vthe right
p231
atp232
Rp233
(dp234
g11
S'start: 3'
p235
sbatp236
Rp237
(dp238
g11
S'sent: 10'
p239
sbatp240
Rp241
(dp242
g11
S'id: 23'
p243
sbag0
(g1
g2
(lp244
g0
(g1
g2
(lp245
g0
(g1
g2
(lp246
Vthe water
p247
atp248
Rp249
(dp250
g11
S'start: 17'
p251
sbatp252
Rp253
(dp254
g11
S'sent: 6'
p255
sbag0
(g1
g2
(lp256
g0
(g1
g2
(lp257
Vthe water , little things coming up
p258
atp259
Rp260
(dp261
g11
S'start: 4'
p262
sbatp263
Rp264
(dp265
g11
S'sent: 8'
p266
sbag0
(g1
g2
(lp267
g0
(g1
g2
(lp268
Vthe water
p269
atp270
Rp271
(dp272
g11
S'start: 4'
p273
sbatp274
Rp275
(dp276
g11
S'sent: 8'
p277
sbag0
(g1
g2
(lp278
g0
(g1
g2
(lp279
Vthe water
p280
atp281
Rp282
(dp283
g11
S'start: 11'
p284
sbatp285
Rp286
(dp287
g11
S'sent: 10'
p288
sbag0
(g1
g2
(lp289
g0
(g1
g2
(lp290
Vthe water
p291
atp292
Rp293
(dp294
g11
S'start: 18'
p295
sbatp296
Rp297
(dp298
g11
S'sent: 10'
p299
sbag0
(g1
g2
(lp300
g0
(g1
g2
(lp301
Vthe water
p302
atp303
Rp304
(dp305
g11
S'start: 9'
p306
sbatp307
Rp308
(dp309
g11
S'sent: 11'
p310
sbag0
(g1
g2
(lp311
g0
(g1
g2
(lp312
Vthe water , where the sand is
p313
atp314
Rp315
(dp316
g11
S'start: 6'
p317
sbatp318
Rp319
(dp320
g11
S'sent: 12'
p321
sbag0
(g1
g2
(lp322
g0
(g1
g2
(lp323
Vthe water
p324
atp325
Rp326
(dp327
g11
S'start: 6'
p328
sbatp329
Rp330
(dp331
g11
S'sent: 12'
p332
sbag0
(g1
g2
(lp333
g0
(g1
g2
(lp334
Vthe water
p335
atp336
Rp337
(dp338
g11
S'start: 22'
p339
sbatp340
Rp341
(dp342
g11
S'sent: 13'
p343
sbatp344
Rp345
(dp346
g11
S'id: 25'
p347
sbag0
(g1
g2
(lp348
g0
(g1
g2
(lp349
g0
(g1
g2
(lp350
Vthe boy
p351
atp352
Rp353
(dp354
g11
S'start: 4'
p355
sbatp356
Rp357
(dp358
g11
S'sent: 9'
p359
sbag0
(g1
g2
(lp360
g0
(g1
g2
(lp361
Vhis
p362
atp363
Rp364
(dp365
g11
S'start: 10'
p366
sbatp367
Rp368
(dp369
g11
S'sent: 9'
p370
sbag0
(g1
g2
(lp371
g0
(g1
g2
(lp372
Vhim
p373
atp374
Rp375
(dp376
g11
S'start: 14'
p377
sbatp378
Rp379
(dp380
g11
S'sent: 9'
p381
sbag0
(g1
g2
(lp382
g0
(g1
g2
(lp383
Vhe
p384
atp385
Rp386
(dp387
g11
S'start: 17'
p388
sbatp389
Rp390
(dp391
g11
S'sent: 9'
p392
sbatp393
Rp394
(dp395
g11
S'id: 33'
p396
sbag0
(g1
g2
(lp397
g0
(g1
g2
(lp398
g0
(g1
g2
(lp399
Vthe guy 's out
p400
atp401
Rp402
(dp403
g11
S'start: 6'
p404
sbatp405
Rp406
(dp407
g11
S'sent: 10'
p408
sbag0
(g1
g2
(lp409
g0
(g1
g2
(lp410
Vhis
p411
atp412
Rp413
(dp414
g11
S'start: 16'
p415
sbatp416
Rp417
(dp418
g11
S'sent: 13'
p419
sbatp420
Rp421
(dp422
g11
S'id: 40'
p423
sbag0
(g1
g2
(lp424
g0
(g1
g2
(lp425
g0
(g1
g2
(lp426
VPeople out further away
p427
atp428
Rp429
(dp430
g11
S'start: 1'
p431
sbatp432
Rp433
(dp434
g11
S'sent: 11'
p435
sbag0
(g1
g2
(lp436
g0
(g1
g2
(lp437
Vtwo people in the water
p438
atp439
Rp440
(dp441
g11
S'start: 6'
p442
sbatp443
Rp444
(dp445
g11
S'sent: 11'
p446
sbatp447
Rp448
(dp449
g11
S'id: 46'
p450
sbag0
(g1
g2
(lp451
g0
(g1
g2
(lp452
g0
(g1
g2
(lp453
Vfront of the water , where the sand is
p454
atp455
Rp456
(dp457
g11
S'start: 4'
p458
sbatp459
Rp460
(dp461
g11
S'sent: 12'
p462
sbag0
(g1
g2
(lp463
g0
(g1
g2
(lp464
Vit
p465
atp466
Rp467
(dp468
g11
S'start: 2'
p469
sbatp470
Rp471
(dp472
g11
S'sent: 13'
p473
sbag0
(g1
g2
(lp474
g0
(g1
g2
(lp475
Va fancy house , living in a fancy house
p476
atp477
Rp478
(dp479
g11
S'start: 5'
p480
sbatp481
Rp482
(dp483
g11
S'sent: 13'
p484
sbag0
(g1
g2
(lp485
g0
(g1
g2
(lp486
Va fancy house
p487
atp488
Rp489
(dp490
g11
S'start: 5'
p491
sbatp492
Rp493
(dp494
g11
S'sent: 13'
p495
sbag0
(g1
g2
(lp496
g0
(g1
g2
(lp497
Va fancy house
p498
atp499
Rp500
(dp501
g11
S'start: 11'
p502
sbatp503
Rp504
(dp505
g11
S'sent: 13'
p506
sbag0
(g1
g2
(lp507
g0
(g1
g2
(lp508
Vhis house
p509
atp510
Rp511
(dp512
g11
S'start: 16'
p513
sbatp514
Rp515
(dp516
g11
S'sent: 13'
p517
sbag0
(g1
g2
(lp518
g0
(g1
g2
(lp519
VIt
p520
atp521
Rp522
(dp523
g11
S'start: 1'
p524
sbatp525
Rp526
(dp527
g11
S'sent: 14'
p528
sbatp529
Rp530
(dp531
g11
S'id: 49'
p532
sbag0
(g1
g2
(lp533
g0
(g1
g2
(lp534
g0
(g1
g2
(lp535
Vthe sand
p536
atp537
Rp538
(dp539
g11
S'start: 10'
p540
sbatp541
Rp542
(dp543
g11
S'sent: 12'
p544
sbag0
(g1
g2
(lp545
g0
(g1
g2
(lp546
Vthe sand
p547
atp548
Rp549
(dp550
g11
S'start: 19'
p551
sbatp552
Rp553
(dp554
g11
S'sent: 12'
p555
sbatp556
Rp557
(dp558
g11
S'id: 52'
p559
sbatp560
Rp561
(dp562
g11
S'coreferences'
p563
sb.