ccopy_reg
_reconstructor
p0
(cnltk.tree
Tree
p1
c__builtin__
list
p2
(lp3
g0
(g1
g2
(lp4
g0
(g1
g2
(lp5
g0
(g1
g2
(lp6
g0
(g1
g2
(lp7
g0
(g1
g2
(lp8
(lp9
S'word: this, index: 2'
p10
aatp11
Rp12
(dp13
S'_label'
p14
Vdep
p15
sbatp16
Rp17
(dp18
g14
S'word: ok, index: 1'
p19
sbatp20
Rp21
(dp22
g14
Vnsubj
p23
sbag0
(g1
g2
(lp24
(lp25
S'word: is, index: 3'
p26
aatp27
Rp28
(dp29
g14
Vcop
p30
sbag0
(g1
g2
(lp31
(lp32
S'word: a, index: 4'
p33
aatp34
Rp35
(dp36
g14
Vdet
p37
sbag0
(g1
g2
(lp38
(lp39
S'word: circus, index: 5'
p40
aatp41
Rp42
(dp43
g14
Vnn
p44
sbag0
(g1
g2
(lp45
g0
(g1
g2
(lp46
g0
(g1
g2
(lp47
(lp48
S'word: there, index: 9'
p49
aatp50
Rp51
(dp52
g14
Vexpl
p53
sbag0
(g1
g2
(lp54
g0
(g1
g2
(lp55
g0
(g1
g2
(lp56
(lp57
S'word: a, index: 11'
p58
aatp59
Rp60
(dp61
g14
Vdet
p62
sbag0
(g1
g2
(lp63
g0
(g1
g2
(lp64
g0
(g1
g2
(lp65
g0
(g1
g2
(lp66
g0
(g1
g2
(lp67
(lp68
S'word: the, index: 14'
p69
aatp70
Rp71
(dp72
g14
Vdet
p73
sbag0
(g1
g2
(lp74
(lp75
S'word: tight, index: 15'
p76
aatp77
Rp78
(dp79
g14
Vamod
p80
sbatp81
Rp82
(dp83
g14
S'word: rope, index: 16'
p84
sbatp85
Rp86
(dp87
g14
Vdobj
p88
sbatp89
Rp90
(dp91
g14
S'word: walking, index: 13'
p92
sbatp93
Rp94
(dp95
g14
Vvmod
p96
sbatp97
Rp98
(dp99
g14
S'word: guy, index: 12'
p100
sbatp101
Rp102
(dp103
g14
Vnsubj
p104
sbatp105
Rp106
(dp107
g14
S'word: is, index: 10'
p108
sbatp109
Rp110
(dp111
g14
Vconj
p112
sbatp113
Rp114
(dp115
g14
S'word: picture, index: 6'
p116
sbatp117
Rp118
(dp119
g14
S'id: 0'
p120
sbag0
(g1
g2
(lp121
g0
(g1
g2
(lp122
g0
(g1
g2
(lp123
g0
(g1
g2
(lp124
g0
(g1
g2
(lp125
(lp126
S'word: the, index: 3'
p127
aatp128
Rp129
(dp130
g14
Vdet
p131
sbag0
(g1
g2
(lp132
(lp133
S'word: balance, index: 4'
p134
aatp135
Rp136
(dp137
g14
Vnn
p138
sbag0
(g1
g2
(lp139
(lp140
S'word: him, index: 7'
p141
aatp142
Rp143
(dp144
g14
Vprep
p145
sbatp146
Rp147
(dp148
g14
S'word: bar, index: 5'
p149
sbatp150
Rp151
(dp152
g14
Vdobj
p153
sbag0
(g1
g2
(lp154
(lp155
S'word: He, index: 1'
p156
aatp157
Rp158
(dp159
g14
Vnsubj
p160
sbatp161
Rp162
(dp163
g14
S'word: has, index: 2'
p164
sbatp165
Rp166
(dp167
g14
S'id: 1'
p168
sbag0
(g1
g2
(lp169
g0
(g1
g2
(lp170
g0
(g1
g2
(lp171
g0
(g1
g2
(lp172
g0
(g1
g2
(lp173
(lp174
S'word: six, index: 15'
p175
aatp176
Rp177
(dp178
g14
Vnum
p179
sbatp180
Rp181
(dp182
g14
S'word: people, index: 16'
p183
sbatp184
Rp185
(dp186
g14
Vnsubj
p187
sbag0
(g1
g2
(lp188
g0
(g1
g2
(lp189
g0
(g1
g2
(lp190
(lp191
S'word: There, index: 1'
p192
aatp193
Rp194
(dp195
g14
Vexpl
p196
sbag0
(g1
g2
(lp197
g0
(g1
g2
(lp198
g0
(g1
g2
(lp199
(lp200
S'word: two, index: 7'
p201
aatp202
Rp203
(dp204
g14
Vamod
p205
sbag0
(g1
g2
(lp206
(lp207
S'word: three, index: 9'
p208
aatp209
Rp210
(dp211
g14
Vamod
p212
sbag0
(g1
g2
(lp213
(lp214
S'word: four, index: 11'
p215
aatp216
Rp217
(dp218
g14
Vamod
p219
sbag0
(g1
g2
(lp220
(lp221
S'word: five, index: 13'
p222
aatp223
Rp224
(dp225
g14
Vamod
p226
sbag0
(g1
g2
(lp227
(lp228
S'word: one, index: 5'
p229
aatp230
Rp231
(dp232
g14
Vamod
p233
sbatp234
Rp235
(dp236
g14
S'word: people, index: 3'
p237
sbatp238
Rp239
(dp240
g14
Vnsubj
p241
sbatp242
Rp243
(dp244
g14
S'word: are, index: 2'
p245
sbatp246
Rp247
(dp248
g14
Vccomp
p249
sbag0
(g1
g2
(lp250
g0
(g1
g2
(lp251
g0
(g1
g2
(lp252
g0
(g1
g2
(lp253
g0
(g1
g2
(lp254
g0
(g1
g2
(lp255
g0
(g1
g2
(lp256
(lp257
S'word: him, index: 24'
p258
aatp259
Rp260
(dp261
g14
Vdobj
p262
sbatp263
Rp264
(dp265
g14
S'word: watching, index: 23'
p266
sbatp267
Rp268
(dp269
g14
Vvmod
p270
sbag0
(g1
g2
(lp271
(lp272
S'word: a, index: 21'
p273
aatp274
Rp275
(dp276
g14
Vdet
p277
sbatp278
Rp279
(dp280
g14
S'word: bench, index: 22'
p281
sbatp282
Rp283
(dp284
g14
Vprep
p285
sbatp286
Rp287
(dp288
g14
S'word: sitting, index: 19'
p289
sbatp290
Rp291
(dp292
g14
Vprepc
p293
sbatp294
Rp295
(dp296
g14
S'word: look, index: 17'
p297
sbatp298
Rp299
(dp300
g14
S'id: 2'
p301
sbag0
(g1
g2
(lp302
g0
(g1
g2
(lp303
g0
(g1
g2
(lp304
g0
(g1
g2
(lp305
g0
(g1
g2
(lp306
g0
(g1
g2
(lp307
g0
(g1
g2
(lp308
(lp309
S'word: a, index: 10'
p310
aatp311
Rp312
(dp313
g14
Vdet
p314
sbatp315
Rp316
(dp317
g14
S'word: lady, index: 11'
p318
sbatp319
Rp320
(dp321
g14
Vnsubj
p322
sbag0
(g1
g2
(lp323
(lp324
S'word: is, index: 12'
p325
aatp326
Rp327
(dp328
g14
Vaux
p329
sbag0
(g1
g2
(lp330
(lp331
S'word: bareback, index: 14'
p332
aatp333
Rp334
(dp335
g14
Vdobj
p336
sbag0
(g1
g2
(lp337
g0
(g1
g2
(lp338
g0
(g1
g2
(lp339
(lp340
S'word: the, index: 16'
p341
aatp342
Rp343
(dp344
g14
Vdet
p345
sbatp346
Rp347
(dp348
g14
S'word: horse, index: 17'
p349
sbatp350
Rp351
(dp352
g14
Vprep
p353
sbag0
(g1
g2
(lp354
g0
(g1
g2
(lp355
g0
(g1
g2
(lp356
g0
(g1
g2
(lp357
g0
(g1
g2
(lp358
g0
(g1
g2
(lp359
g0
(g1
g2
(lp360
(lp361
S'word: the, index: 27'
p362
aatp363
Rp364
(dp365
g14
Vdet
p366
sbatp367
Rp368
(dp369
g14
S'word: ring, index: 28'
p370
sbatp371
Rp372
(dp373
g14
Vprep
p374
sbag0
(g1
g2
(lp375
(lp376
S'word: the, index: 24'
p377
aatp378
Rp379
(dp380
g14
Vdet
p381
sbatp382
Rp383
(dp384
g14
S'word: circle, index: 25'
p385
sbatp386
Rp387
(dp388
g14
Vprep
p389
sbag0
(g1
g2
(lp390
(lp391
S'word: he, index: 20'
p392
aatp393
Rp394
(dp395
g14
Vnsubj
p396
sbag0
(g1
g2
(lp397
(lp398
S"word: 's, index: 21"
p399
aatp400
Rp401
(dp402
g14
Vaux
p403
sbatp404
Rp405
(dp406
g14
S'word: going, index: 22'
p407
sbatp408
Rp409
(dp410
g14
Vconj
p411
sbatp412
Rp413
(dp414
g14
S'word: riding, index: 13'
p415
sbatp416
Rp417
(dp418
g14
Vconj
p419
sbag0
(g1
g2
(lp420
(lp421
S'word: There, index: 1'
p422
aatp423
Rp424
(dp425
g14
Vexpl
p426
sbag0
(g1
g2
(lp427
g0
(g1
g2
(lp428
g0
(g1
g2
(lp429
(lp430
S'word: a, index: 3'
p431
aatp432
Rp433
(dp434
g14
Vdet
p435
sbag0
(g1
g2
(lp436
g0
(g1
g2
(lp437
g0
(g1
g2
(lp438
(lp439
S'word: a, index: 6'
p440
aatp441
Rp442
(dp443
g14
Vdet
p444
sbatp445
Rp446
(dp447
g14
S'word: horse, index: 7'
p448
sbatp449
Rp450
(dp451
g14
Vprep
p452
sbatp453
Rp454
(dp455
g14
S'word: ring, index: 4'
p456
sbatp457
Rp458
(dp459
g14
Vnsubj
p460
sbag0
(g1
g2
(lp461
g405
atp462
Rp463
(dp464
g14
Vconj
p465
sbatp466
Rp467
(dp468
g14
S'word: is, index: 2'
p469
sbatp470
Rp471
(dp472
g14
S'id: 3'
p473
sbag0
(g1
g2
(lp474
g0
(g1
g2
(lp475
g0
(g1
g2
(lp476
g0
(g1
g2
(lp477
g0
(g1
g2
(lp478
g0
(g1
g2
(lp479
g0
(g1
g2
(lp480
(lp481
S'word: the, index: 11'
p482
aatp483
Rp484
(dp485
g14
Vdet
p486
sbatp487
Rp488
(dp489
g14
S'word: clown, index: 12'
p490
sbatp491
Rp492
(dp493
g14
Vnsubj
p494
sbag0
(g1
g2
(lp495
(lp496
S'word: is, index: 13'
p497
aatp498
Rp499
(dp500
g14
Vaux
p501
sbag0
(g1
g2
(lp502
g0
(g1
g2
(lp503
g0
(g1
g2
(lp504
(lp505
S'word: them, index: 17'
p506
aatp507
Rp508
(dp509
g14
Vprep
p510
sbag0
(g1
g2
(lp511
g0
(g1
g2
(lp512
g0
(g1
g2
(lp513
(lp514
S'word: that, index: 18'
p515
aatp516
Rp517
(dp518
g14
Vnsubj
p519
sbag0
(g1
g2
(lp520
g0
(g1
g2
(lp521
g0
(g1
g2
(lp522
(lp523
S'word: like, index: 20'
p524
aatp525
Rp526
(dp527
g14
Vmark
p528
sbag0
(g1
g2
(lp529
(lp530
S'word: it, index: 21'
p531
aatp532
Rp533
(dp534
g14
Vnsubj
p535
sbag0
(g1
g2
(lp536
(lp537
S'word: might, index: 22'
p538
aatp539
Rp540
(dp541
g14
Vaux
p542
sbag0
(g1
g2
(lp543
(lp544
S'word: be, index: 23'
p545
aatp546
Rp547
(dp548
g14
Vcop
p549
sbatp550
Rp551
(dp552
g14
S'word: paper, index: 24'
p553
sbatp554
Rp555
(dp556
g14
Vadvcl
p557
sbatp558
Rp559
(dp560
g14
S'word: looks, index: 19'
p561
sbatp562
Rp563
(dp564
g14
Vrcmod
p565
sbatp566
Rp567
(dp568
g14
S'word: something, index: 15'
p569
sbatp570
Rp571
(dp572
g14
Vdobj
p573
sbatp574
Rp575
(dp576
g14
S'word: throwing, index: 14'
p577
sbatp578
Rp579
(dp580
g14
Vconj
p581
sbag0
(g1
g2
(lp582
(lp583
S'word: there, index: 2'
p584
aatp585
Rp586
(dp587
g14
Vexpl
p588
sbag0
(g1
g2
(lp589
g0
(g1
g2
(lp590
g0
(g1
g2
(lp591
(lp592
S'word: some, index: 4'
p593
aatp594
Rp595
(dp596
g14
Vdet
p597
sbag0
(g1
g2
(lp598
g0
(g1
g2
(lp599
g0
(g1
g2
(lp600
g0
(g1
g2
(lp601
g0
(g1
g2
(lp602
(lp603
S'word: a, index: 7'
p604
aatp605
Rp606
(dp607
g14
Vdet
p608
sbatp609
Rp610
(dp611
g14
S'word: clown, index: 8'
p612
sbatp613
Rp614
(dp615
g14
Vdobj
p616
sbatp617
Rp618
(dp619
g14
S'word: watching, index: 6'
p620
sbatp621
Rp622
(dp623
g14
Vvmod
p624
sbatp625
Rp626
(dp627
g14
S'word: children, index: 5'
p628
sbatp629
Rp630
(dp631
g14
Vnsubj
p632
sbatp633
Rp634
(dp635
g14
S'word: are, index: 3'
p636
sbatp637
Rp638
(dp639
g14
S'id: 4'
p640
sbag0
(g1
g2
(lp641
g0
(g1
g2
(lp642
g0
(g1
g2
(lp643
g0
(g1
g2
(lp644
g0
(g1
g2
(lp645
(lp646
S'word: The, index: 1'
p647
aatp648
Rp649
(dp650
g14
Vdet
p651
sbag0
(g1
g2
(lp652
(lp653
S'word: little, index: 2'
p654
aatp655
Rp656
(dp657
g14
Vamod
p658
sbatp659
Rp660
(dp661
g14
S'word: girl, index: 3'
p662
sbatp663
Rp664
(dp665
g14
Vnsubj
p666
sbag0
(g1
g2
(lp667
(lp668
S'word: is, index: 4'
p669
aatp670
Rp671
(dp672
g14
Vaux
p673
sbag0
(g1
g2
(lp674
g0
(g1
g2
(lp675
g0
(g1
g2
(lp676
g0
(g1
g2
(lp677
g0
(g1
g2
(lp678
g0
(g1
g2
(lp679
g0
(g1
g2
(lp680
g0
(g1
g2
(lp681
g0
(g1
g2
(lp682
(lp683
S'word: it, index: 17'
p684
aatp685
Rp686
(dp687
g14
Vnsubj
p688
sbag0
(g1
g2
(lp689
(lp690
S"word: 's, index: 18"
p691
aatp692
Rp693
(dp694
g14
Vcop
p695
sbag0
(g1
g2
(lp696
(lp697
S'word: probably, index: 19'
p698
aatp699
Rp700
(dp701
g14
Vadvmod
p702
sbatp703
Rp704
(dp705
g14
S'word: water, index: 20'
p706
sbatp707
Rp708
(dp709
g14
Vccomp
p710
sbatp711
Rp712
(dp713
g14
S'word: thinking, index: 16'
p714
sbatp715
Rp716
(dp717
g14
Vdep
p718
sbatp719
Rp720
(dp721
g14
S'word: up, index: 15'
p722
sbatp723
Rp724
(dp725
g14
Vprep
p726
sbag0
(g1
g2
(lp727
g0
(g1
g2
(lp728
g0
(g1
g2
(lp729
(lp730
S'word: the, index: 8'
p731
aatp732
Rp733
(dp734
g14
Vdet
p735
sbag0
(g1
g2
(lp736
(lp737
S'word: little, index: 9'
p738
aatp739
Rp740
(dp741
g14
Vamod
p742
sbatp743
Rp744
(dp745
g14
S'word: boy, index: 10'
p746
sbatp747
Rp748
(dp749
g14
Vnsubj
p750
sbag0
(g1
g2
(lp751
(lp752
S'word: is, index: 11'
p753
aatp754
Rp755
(dp756
g14
Vaux
p757
sbag0
(g1
g2
(lp758
g0
(g1
g2
(lp759
g0
(g1
g2
(lp760
(lp761
S'word: his, index: 13'
p762
aatp763
Rp764
(dp765
g14
Vposs
p766
sbatp767
Rp768
(dp769
g14
S'word: hands, index: 14'
p770
sbatp771
Rp772
(dp773
g14
Vdobj
p774
sbatp775
Rp776
(dp777
g14
S'word: throwing, index: 12'
p778
sbatp779
Rp780
(dp781
g14
Vconj
p782
sbatp783
Rp784
(dp785
g14
S'word: smiling, index: 5'
p786
sbatp787
Rp788
(dp789
g14
S'id: 5'
p790
sbag0
(g1
g2
(lp791
g0
(g1
g2
(lp792
g0
(g1
g2
(lp793
g0
(g1
g2
(lp794
g0
(g1
g2
(lp795
g0
(g1
g2
(lp796
g0
(g1
g2
(lp797
(lp798
S'word: another, index: 5'
p799
aatp800
Rp801
(dp802
g14
Vdet
p803
sbatp804
Rp805
(dp806
g14
S'word: ring, index: 6'
p807
sbatp808
Rp809
(dp810
g14
Vappos
p811
sbatp812
Rp813
(dp814
g14
S'word: the, index: 3'
p815
sbatp816
Rp817
(dp818
g14
Vnsubj
p819
sbag0
(g1
g2
(lp820
(lp821
S'word: is, index: 7'
p822
aatp823
Rp824
(dp825
g14
Vcop
p826
sbag0
(g1
g2
(lp827
(lp828
S'word: the, index: 8'
p829
aatp830
Rp831
(dp832
g14
Vdet
p833
sbag0
(g1
g2
(lp834
g0
(g1
g2
(lp835
g0
(g1
g2
(lp836
g0
(g1
g2
(lp837
g0
(g1
g2
(lp838
(lp839
S'word: the, index: 11'
p840
aatp841
Rp842
(dp843
g14
Vdet
p844
sbag0
(g1
g2
(lp845
(lp846
S'word: taming, index: 13'
p847
aatp848
Rp849
(dp850
g14
Vvmod
p851
sbatp852
Rp853
(dp854
g14
S'word: lion, index: 12'
p855
sbatp856
Rp857
(dp858
g14
Vdobj
p859
sbatp860
Rp861
(dp862
g14
S'word: doing, index: 10'
p863
sbatp864
Rp865
(dp866
g14
Vvmod
p867
sbag0
(g1
g2
(lp868
(lp869
S'word: Inside, index: 1'
p870
aatp871
Rp872
(dp873
g14
Vprep
p874
sbag0
(g1
g2
(lp875
g0
(g1
g2
(lp876
g0
(g1
g2
(lp877
g0
(g1
g2
(lp878
g0
(g1
g2
(lp879
(lp880
S'word: the, index: 18'
p881
aatp882
Rp883
(dp884
g14
Vdet
p885
sbag0
(g1
g2
(lp886
g0
(g1
g2
(lp887
g0
(g1
g2
(lp888
(lp889
S'word: up, index: 21'
p890
aatp891
Rp892
(dp893
g14
Vprt
p894
sbag0
(g1
g2
(lp895
g0
(g1
g2
(lp896
g0
(g1
g2
(lp897
(lp898
S'word: possibly, index: 23'
p899
aatp900
Rp901
(dp902
g14
Vadvmod
p903
sbatp904
Rp905
(dp906
g14
S'word: waving, index: 24'
p907
sbatp908
Rp909
(dp910
g14
Vconj
p911
sbatp912
Rp913
(dp914
g14
S'word: sitting, index: 20'
p915
sbatp916
Rp917
(dp918
g14
Vdep
p919
sbag0
(g1
g2
(lp920
g905
atp921
Rp922
(dp923
g14
Vdep
p924
sbatp925
Rp926
(dp927
g14
S'word: lion, index: 19'
p928
sbatp929
Rp930
(dp931
g14
Vdobj
p932
sbag0
(g1
g2
(lp933
(lp934
S'word: he, index: 16'
p935
aatp936
Rp937
(dp938
g14
Vnsubj
p939
sbatp940
Rp941
(dp942
g14
S'word: has, index: 17'
p943
sbatp944
Rp945
(dp946
g14
Vconj
p947
sbatp948
Rp949
(dp950
g14
S'word: man, index: 9'
p951
sbatp952
Rp953
(dp954
g14
S'id: 6'
p955
sbag0
(g1
g2
(lp956
g0
(g1
g2
(lp957
g0
(g1
g2
(lp958
g0
(g1
g2
(lp959
g0
(g1
g2
(lp960
(lp961
S'word: little, index: 5'
p962
aatp963
Rp964
(dp965
g14
Vamod
p966
sbag0
(g1
g2
(lp967
g0
(g1
g2
(lp968
g0
(g1
g2
(lp969
(lp970
S'word: her, index: 8'
p971
aatp972
Rp973
(dp974
g14
Vposs
p975
sbag0
(g1
g2
(lp976
g0
(g1
g2
(lp977
g0
(g1
g2
(lp978
g0
(g1
g2
(lp979
g0
(g1
g2
(lp980
(lp981
S'word: at, index: 12'
p982
aatp983
Rp984
(dp985
g14
Vpcomp
p986
sbatp987
Rp988
(dp989
g14
S'word: on, index: 11'
p990
sbatp991
Rp992
(dp993
g14
Vprep
p994
sbatp995
Rp996
(dp997
g14
S'word: looking, index: 10'
p998
sbatp999
Rp1000
(dp1001
g14
Vvmod
p1002
sbatp1003
Rp1004
(dp1005
g14
S'word: dad, index: 9'
p1006
sbatp1007
Rp1008
(dp1009
g14
Vconj
p1010
sbag0
(g1
g2
(lp1011
g0
(g1
g2
(lp1012
g0
(g1
g2
(lp1013
(lp1014
S'word: everything, index: 16'
p1015
aatp1016
Rp1017
(dp1018
g14
Vprep
p1019
sbatp1020
Rp1021
(dp1022
g14
S'word: looks, index: 14'
p1023
sbatp1024
Rp1025
(dp1026
g14
Vconj
p1027
sbag0
(g1
g2
(lp1028
(lp1029
S'word: a, index: 4'
p1030
aatp1031
Rp1032
(dp1033
g14
Vdet
p1034
sbatp1035
Rp1036
(dp1037
g14
S'word: girl, index: 6'
p1038
sbatp1039
Rp1040
(dp1041
g14
Vnsubj
p1042
sbag0
(g1
g2
(lp1043
g1004
atp1044
Rp1045
(dp1046
g14
Vnsubj
p1047
sbag0
(g1
g2
(lp1048
g1021
atp1049
Rp1050
(dp1051
g14
Vnsubj
p1052
sbag0
(g1
g2
(lp1053
(lp1054
S'word: And, index: 1'
p1055
aatp1056
Rp1057
(dp1058
g14
Vcc
p1059
sbag0
(g1
g2
(lp1060
(lp1061
S'word: there, index: 2'
p1062
aatp1063
Rp1064
(dp1065
g14
Vexpl
p1066
sbatp1067
Rp1068
(dp1069
g14
S"word: 's, index: 3"
p1070
sbatp1071
Rp1072
(dp1073
g14
S'id: 7'
p1074
sbag0
(g1
g2
(lp1075
g0
(g1
g2
(lp1076
g0
(g1
g2
(lp1077
(lp1078
S'word: And, index: 1'
p1079
aatp1080
Rp1081
(dp1082
g14
Vcc
p1083
sbag0
(g1
g2
(lp1084
g0
(g1
g2
(lp1085
g0
(g1
g2
(lp1086
(lp1087
S'word: the, index: 2'
p1088
aatp1089
Rp1090
(dp1091
g14
Vdet
p1092
sbag0
(g1
g2
(lp1093
(lp1094
S'word: whole, index: 3'
p1095
aatp1096
Rp1097
(dp1098
g14
Vamod
p1099
sbatp1100
Rp1101
(dp1102
g14
S'word: circus, index: 4'
p1103
sbatp1104
Rp1105
(dp1106
g14
Vnsubj
p1107
sbag0
(g1
g2
(lp1108
g0
(g1
g2
(lp1109
g0
(g1
g2
(lp1110
(lp1111
S'word: outside, index: 8'
p1112
aatp1113
Rp1114
(dp1115
g14
Vadvmod
p1116
sbag0
(g1
g2
(lp1117
g0
(g1
g2
(lp1118
g0
(g1
g2
(lp1119
g0
(g1
g2
(lp1120
g0
(g1
g2
(lp1121
(lp1122
S'word: a, index: 12'
p1123
aatp1124
Rp1125
(dp1126
g14
Vdet
p1127
sbatp1128
Rp1129
(dp1130
g14
S'word: tent, index: 13'
p1131
sbatp1132
Rp1133
(dp1134
g14
Vprep
p1135
sbatp1136
Rp1137
(dp1138
g14
S'word: not, index: 10'
p1139
sbatp1140
Rp1141
(dp1142
g14
Vneg
p1143
sbag0
(g1
g2
(lp1144
(lp1145
S'word: to, index: 6'
p1146
aatp1147
Rp1148
(dp1149
g14
Vaux
p1150
sbatp1151
Rp1152
(dp1153
g14
S'word: be, index: 7'
p1154
sbatp1155
Rp1156
(dp1157
g14
Vxcomp
p1158
sbatp1159
Rp1160
(dp1161
g14
S'word: seems, index: 5'
p1162
sbatp1163
Rp1164
(dp1165
g14
S'id: 8'
p1166
sbatp1167
Rp1168
(dp1169
g14
S'sentences'
p1170
sb.