ccopy_reg
_reconstructor
p0
(cnltk.tree
Tree
p1
c__builtin__
list
p2
(lp3
g0
(g1
g2
(lp4
g0
(g1
g2
(lp5
g0
(g1
g2
(lp6
(lp7
S'word: we, index: 1'
p8
aatp9
Rp10
(dp11
S'_label'
p12
Vnsubj
p13
sbag0
(g1
g2
(lp14
g0
(g1
g2
(lp15
g0
(g1
g2
(lp16
(lp17
S'word: dad, index: 19'
p18
aatp19
Rp20
(dp21
g12
Vconj
p22
sbag0
(g1
g2
(lp23
g0
(g1
g2
(lp24
g0
(g1
g2
(lp25
(lp26
S'word: two, index: 22'
p27
aatp28
Rp29
(dp30
g12
Vnum
p31
sbatp32
Rp33
(dp34
g12
S'word: boy, index: 23'
p35
sbatp36
Rp37
(dp38
g12
Vconj
p39
sbag0
(g1
g2
(lp40
g0
(g1
g2
(lp41
g0
(g1
g2
(lp42
(lp43
S'word: their, index: 25'
p44
aatp45
Rp46
(dp47
g12
Vposs
p48
sbag0
(g1
g2
(lp49
(lp50
S'word: daughter, index: 28'
p51
aatp52
Rp53
(dp54
g12
Vconj
p55
sbatp56
Rp57
(dp58
g12
S'word: son, index: 26'
p59
sbatp60
Rp61
(dp62
g12
Vconj
p63
sbag0
(g1
g2
(lp64
(lp65
S'word: daughter, index: 28'
p66
aatp67
Rp68
(dp69
g12
Vconj
p70
sbag0
(g1
g2
(lp71
g0
(g1
g2
(lp72
g0
(g1
g2
(lp73
g0
(g1
g2
(lp74
g0
(g1
g2
(lp75
(lp76
S'word: a, index: 33'
p77
aatp78
Rp79
(dp80
g12
Vdet
p81
sbatp82
Rp83
(dp84
g12
S'word: picnic, index: 34'
p85
sbatp86
Rp87
(dp88
g12
Vprep
p89
sbatp90
Rp91
(dp92
g12
S'word: dog, index: 31'
p93
sbatp94
Rp95
(dp96
g12
Vconj
p97
sbatp98
Rp99
(dp100
g12
S'word: mom, index: 17'
p101
sbatp102
Rp103
(dp104
g12
Vprep
p105
sbag0
(g1
g2
(lp106
(lp107
S'word: back, index: 3'
p108
aatp109
Rp110
(dp111
g12
Vadvmod
p112
sbag0
(g1
g2
(lp113
(lp114
S'word: dad, index: 19'
p115
aatp116
Rp117
(dp118
g12
Vprep
p119
sbag0
(g1
g2
(lp120
g0
(g1
g2
(lp121
g0
(g1
g2
(lp122
(lp123
S'word: the, index: 5'
p124
aatp125
Rp126
(dp127
g12
Vdet
p128
sbag0
(g1
g2
(lp129
g0
(g1
g2
(lp130
g0
(g1
g2
(lp131
(lp132
S'word: the, index: 9'
p133
aatp134
Rp135
(dp136
g12
Vdet
p137
sbatp138
Rp139
(dp140
g12
S'word: lake, index: 10'
p141
sbatp142
Rp143
(dp144
g12
Vconj
p145
sbatp146
Rp147
(dp148
g12
S'word: beach, index: 6'
p149
sbatp150
Rp151
(dp152
g12
Vprep
p153
sbag0
(g1
g2
(lp154
g33
atp155
Rp156
(dp157
g12
Vprep
p158
sbag0
(g1
g2
(lp159
g139
atp160
Rp161
(dp162
g12
Vprep
p163
sbag0
(g1
g2
(lp164
g57
atp165
Rp166
(dp167
g12
Vprep
p168
sbag0
(g1
g2
(lp169
g0
(g1
g2
(lp170
g0
(g1
g2
(lp171
(lp172
S'word: where, index: 11'
p173
aatp174
Rp175
(dp176
g12
Vadvmod
p177
sbag0
(g1
g2
(lp178
(lp179
S'word: we, index: 12'
p180
aatp181
Rp182
(dp183
g12
Vnsubj
p184
sbag0
(g1
g2
(lp185
(lp186
S'word: yesterday, index: 14'
p187
aatp188
Rp189
(dp190
g12
Vtmod
p191
sbatp192
Rp193
(dp194
g12
S'word: were, index: 13'
p195
sbatp196
Rp197
(dp198
g12
Vadvcl
p199
sbag0
(g1
g2
(lp200
g91
atp201
Rp202
(dp203
g12
Vprep
p204
sbatp205
Rp206
(dp207
g12
S"word: 're, index: 2"
p208
sbatp209
Rp210
(dp211
g12
S'id: 0'
p212
sbag0
(g1
g2
(lp213
g0
(g1
g2
(lp214
g0
(g1
g2
(lp215
(lp216
S'word: dad, index: 3'
p217
aatp218
Rp219
(dp220
g12
Vnsubj
p221
sbag0
(g1
g2
(lp222
(lp223
S'word: are, index: 4'
p224
aatp225
Rp226
(dp227
g12
Vaux
p228
sbag0
(g1
g2
(lp229
g0
(g1
g2
(lp230
g0
(g1
g2
(lp231
(lp232
S'word: the, index: 7'
p233
aatp234
Rp235
(dp236
g12
Vdet
p237
sbag0
(g1
g2
(lp238
(lp239
S'word: beach, index: 8'
p240
aatp241
Rp242
(dp243
g12
Vnn
p244
sbatp245
Rp246
(dp247
g12
S'word: blanket, index: 9'
p248
sbatp249
Rp250
(dp251
g12
Vprep
p252
sbag0
(g1
g2
(lp253
g0
(g1
g2
(lp254
g0
(g1
g2
(lp255
g0
(g1
g2
(lp256
g0
(g1
g2
(lp257
(lp258
S'word: the, index: 13'
p259
aatp260
Rp261
(dp262
g12
Vdet
p263
sbatp264
Rp265
(dp266
g12
S'word: grass, index: 14'
p267
sbatp268
Rp269
(dp270
g12
Vprep
p271
sbatp272
Rp273
(dp274
g12
S'word: up, index: 11'
p275
sbatp276
Rp277
(dp278
g12
Vadvmod
p279
sbag0
(g1
g2
(lp280
g0
(g1
g2
(lp281
g0
(g1
g2
(lp282
(lp283
S'word: dad, index: 3'
p284
aatp285
Rp286
(dp287
g12
Vconj
p288
sbatp289
Rp290
(dp291
g12
S'word: Mom, index: 1'
p292
sbatp293
Rp294
(dp295
g12
Vnsubj
p296
sbatp297
Rp298
(dp299
g12
S'word: sitting, index: 5'
p300
sbatp301
Rp302
(dp303
g12
S'id: 1'
p304
sbag0
(g1
g2
(lp305
g0
(g1
g2
(lp306
g0
(g1
g2
(lp307
g0
(g1
g2
(lp308
g0
(g1
g2
(lp309
g0
(g1
g2
(lp310
g0
(g1
g2
(lp311
(lp312
S'word: he, index: 9'
p313
aatp314
Rp315
(dp316
g12
Vnsubj
p317
sbag0
(g1
g2
(lp318
(lp319
S"word: 's, index: 10"
p320
aatp321
Rp322
(dp323
g12
Vaux
p324
sbag0
(g1
g2
(lp325
g0
(g1
g2
(lp326
g0
(g1
g2
(lp327
(lp328
S'word: a, index: 12'
p329
aatp330
Rp331
(dp332
g12
Vdet
p333
sbatp334
Rp335
(dp336
g12
S'word: book, index: 13'
p337
sbatp338
Rp339
(dp340
g12
Vdobj
p341
sbag0
(g1
g2
(lp342
(lp343
S'word: it, index: 16'
p344
aatp345
Rp346
(dp347
g12
Vprep
p348
sbag0
(g1
g2
(lp349
g0
(g1
g2
(lp350
g0
(g1
g2
(lp351
g0
(g1
g2
(lp352
g0
(g1
g2
(lp353
(lp354
S'word: better, index: 22'
p355
aatp356
Rp357
(dp358
g12
Vamod
p359
sbatp360
Rp361
(dp362
g12
S'word: cause, index: 23'
p363
sbatp364
Rp365
(dp366
g12
Vdobj
p367
sbag0
(g1
g2
(lp368
(lp369
S'word: hopefully, index: 18'
p370
aatp371
Rp372
(dp373
g12
Vadvmod
p374
sbag0
(g1
g2
(lp375
(lp376
S'word: he, index: 19'
p377
aatp378
Rp379
(dp380
g12
Vnsubj
p381
sbag0
(g1
g2
(lp382
(lp383
S'word: can, index: 20'
p384
aatp385
Rp386
(dp387
g12
Vaux
p388
sbatp389
Rp390
(dp391
g12
S'word: see, index: 21'
p392
sbatp393
Rp394
(dp395
g12
Vparataxis
p396
sbatp397
Rp398
(dp399
g12
S'word: reading, index: 11'
p400
sbatp401
Rp402
(dp403
g12
Vconj
p404
sbag0
(g1
g2
(lp405
g0
(g1
g2
(lp406
g0
(g1
g2
(lp407
(lp408
S'word: his, index: 4'
p409
aatp410
Rp411
(dp412
g12
Vposs
p413
sbatp414
Rp415
(dp416
g12
S'word: legs, index: 5'
p417
sbatp418
Rp419
(dp420
g12
Vnsubj
p421
sbatp422
Rp423
(dp424
g12
S'word: crossed, index: 6'
p425
sbatp426
Rp427
(dp428
g12
Vparataxis
p429
sbag0
(g1
g2
(lp430
(lp431
S'word: he, index: 24'
p432
aatp433
Rp434
(dp435
g12
Vnsubjpass
p436
sbag0
(g1
g2
(lp437
(lp438
S"word: 's, index: 25"
p439
aatp440
Rp441
(dp442
g12
Vauxpass
p443
sbag0
(g1
g2
(lp444
g398
atp445
Rp446
(dp447
g12
Vparataxis
p448
sbag0
(g1
g2
(lp449
g0
(g1
g2
(lp450
g0
(g1
g2
(lp451
(lp452
S'word: his, index: 27'
p453
aatp454
Rp455
(dp456
g12
Vposs
p457
sbag0
(g1
g2
(lp458
(lp459
S'word: eye, index: 28'
p460
aatp461
Rp462
(dp463
g12
Vnn
p464
sbatp465
Rp466
(dp467
g12
S'word: glasses, index: 29'
p468
sbatp469
Rp470
(dp471
g12
Vdobj
p472
sbag0
(g1
g2
(lp473
(lp474
S'word: on, index: 30'
p475
aatp476
Rp477
(dp478
g12
Vprep
p479
sbag0
(g1
g2
(lp480
g0
(g1
g2
(lp481
g0
(g1
g2
(lp482
(lp483
S'word: Dad, index: 1'
p484
aatp485
Rp486
(dp487
g12
Vposs
p488
sbatp489
Rp490
(dp491
g12
S'word: cloght, index: 3'
p492
sbatp493
Rp494
(dp495
g12
Vnsubjpass
p496
sbatp497
Rp498
(dp499
g12
S'word: got, index: 26'
p500
sbatp501
Rp502
(dp503
g12
S'id: 2'
p504
sbag0
(g1
g2
(lp505
g0
(g1
g2
(lp506
g0
(g1
g2
(lp507
g0
(g1
g2
(lp508
g0
(g1
g2
(lp509
(lp510
S'word: the, index: 12'
p511
aatp512
Rp513
(dp514
g12
Vdet
p515
sbatp516
Rp517
(dp518
g12
S'word: blanket, index: 13'
p519
sbatp520
Rp521
(dp522
g12
Vprep
p523
sbag0
(g1
g2
(lp524
g0
(g1
g2
(lp525
g0
(g1
g2
(lp526
(lp527
S'word: His, index: 1'
p528
aatp529
Rp530
(dp531
g12
Vposs
p532
sbatp533
Rp534
(dp535
g12
S'word: sandals, index: 2'
p536
sbatp537
Rp538
(dp539
g12
Vnsubj
p540
sbag0
(g1
g2
(lp541
(lp542
S'word: are, index: 3'
p543
aatp544
Rp545
(dp546
g12
Vaux
p547
sbag0
(g1
g2
(lp548
g0
(g1
g2
(lp549
g0
(g1
g2
(lp550
g0
(g1
g2
(lp551
g0
(g1
g2
(lp552
g0
(g1
g2
(lp553
g0
(g1
g2
(lp554
(lp555
S'word: his, index: 7'
p556
aatp557
Rp558
(dp559
g12
Vposs
p560
sbag0
(g1
g2
(lp561
(lp562
S'word: right, index: 8'
p563
aatp564
Rp565
(dp566
g12
Vamod
p567
sbatp568
Rp569
(dp570
g12
S'word: side, index: 9'
p571
sbatp572
Rp573
(dp574
g12
Vpobj
p575
sbatp576
Rp577
(dp578
g12
S'word: to, index: 6'
p579
sbatp580
Rp581
(dp582
g12
Vpcomp
p583
sbatp584
Rp585
(dp586
g12
S'word: on, index: 5'
p587
sbatp588
Rp589
(dp590
g12
Vprep
p591
sbatp592
Rp593
(dp594
g12
S'word: laying, index: 4'
p595
sbatp596
Rp597
(dp598
g12
S'id: 3'
p599
sbag0
(g1
g2
(lp600
g0
(g1
g2
(lp601
g0
(g1
g2
(lp602
(lp603
S'word: is, index: 12'
p604
aatp605
Rp606
(dp607
g12
Vcop
p608
sbag0
(g1
g2
(lp609
(lp610
S'word: kneeling, index: 15'
p611
aatp612
Rp613
(dp614
g12
Vvmod
p615
sbag0
(g1
g2
(lp616
g0
(g1
g2
(lp617
g0
(g1
g2
(lp618
(lp619
S'word: that, index: 4'
p620
aatp621
Rp622
(dp623
g12
Vprep
p624
sbatp625
Rp626
(dp627
g12
S'word: front, index: 2'
p628
sbatp629
Rp630
(dp631
g12
Vprep
p632
sbag0
(g1
g2
(lp633
g0
(g1
g2
(lp634
g0
(g1
g2
(lp635
(lp636
S'word: she, index: 33'
p637
aatp638
Rp639
(dp640
g12
Vnsubj
p641
sbag0
(g1
g2
(lp642
(lp643
S"word: 's, index: 34"
p644
aatp645
Rp646
(dp647
g12
Vaux
p648
sbag0
(g1
g2
(lp649
g0
(g1
g2
(lp650
g0
(g1
g2
(lp651
(lp652
S'word: a, index: 37'
p653
aatp654
Rp655
(dp656
g12
Vdet
p657
sbatp658
Rp659
(dp660
g12
S'word: radio, index: 38'
p661
sbatp662
Rp663
(dp664
g12
Vprep
p665
sbatp666
Rp667
(dp668
g12
S'word: listening, index: 35'
p669
sbatp670
Rp671
(dp672
g12
Vconj
p673
sbag0
(g1
g2
(lp674
g0
(g1
g2
(lp675
g0
(g1
g2
(lp676
g0
(g1
g2
(lp677
g0
(g1
g2
(lp678
(lp679
S'word: them, index: 30'
p680
aatp681
Rp682
(dp683
g12
Vprep
p684
sbag0
(g1
g2
(lp685
(lp686
S'word: the, index: 26'
p687
aatp688
Rp689
(dp690
g12
Vdet
p691
sbag0
(g1
g2
(lp692
(lp693
S'word: picnic, index: 27'
p694
aatp695
Rp696
(dp697
g12
Vnn
p698
sbatp699
Rp700
(dp701
g12
S'word: basket, index: 28'
p702
sbatp703
Rp704
(dp705
g12
Vprep
p706
sbag0
(g1
g2
(lp707
(lp708
S'word: she, index: 18'
p709
aatp710
Rp711
(dp712
g12
Vnsubj
p713
sbag0
(g1
g2
(lp714
(lp715
S"word: 's, index: 19"
p716
aatp717
Rp718
(dp719
g12
Vaux
p720
sbag0
(g1
g2
(lp721
g667
atp722
Rp723
(dp724
g12
Vconj
p725
sbag0
(g1
g2
(lp726
g0
(g1
g2
(lp727
g0
(g1
g2
(lp728
(lp729
S'word: a, index: 21'
p730
aatp731
Rp732
(dp733
g12
Vdet
p734
sbag0
(g1
g2
(lp735
(lp736
S'word: soda, index: 24'
p737
aatp738
Rp739
(dp740
g12
Vprep
p741
sbatp742
Rp743
(dp744
g12
S'word: glass, index: 22'
p745
sbatp746
Rp747
(dp748
g12
Vdobj
p749
sbatp750
Rp751
(dp752
g12
S'word: pouring, index: 20'
p753
sbatp754
Rp755
(dp756
g12
Vconj
p757
sbag0
(g1
g2
(lp758
g0
(g1
g2
(lp759
g0
(g1
g2
(lp760
(lp761
S'word: him, index: 10'
p762
aatp763
Rp764
(dp765
g12
Vprep
p766
sbatp767
Rp768
(dp769
g12
S'word: is, index: 6'
p770
sbatp771
Rp772
(dp773
g12
Vccomp
p774
sbatp775
Rp776
(dp777
g12
S'word: mom, index: 13'
p778
sbatp779
Rp780
(dp781
g12
S'id: 4'
p782
sbag0
(g1
g2
(lp783
g0
(g1
g2
(lp784
g0
(g1
g2
(lp785
g0
(g1
g2
(lp786
g0
(g1
g2
(lp787
(lp788
S"word: 's, index: 2"
p789
aatp790
Rp791
(dp792
g12
Vnsubj
p793
sbatp794
Rp795
(dp796
g12
S'word: see, index: 3'
p797
sbatp798
Rp799
(dp800
g12
Vccomp
p801
sbatp802
Rp803
(dp804
g12
S'word: Let, index: 1'
p805
sbatp806
Rp807
(dp808
g12
S'id: 5'
p809
sbag0
(g1
g2
(lp810
g0
(g1
g2
(lp811
g0
(g1
g2
(lp812
(lp813
S'word: mom, index: 2'
p814
aatp815
Rp816
(dp817
g12
Vprep
p818
sbag0
(g1
g2
(lp819
g0
(g1
g2
(lp820
g0
(g1
g2
(lp821
(lp822
S"word: 's, index: 18"
p823
aatp824
Rp825
(dp826
g12
Vaux
p827
sbag0
(g1
g2
(lp828
(lp829
S'word: along, index: 20'
p830
aatp831
Rp832
(dp833
g12
Vadvmod
p834
sbag0
(g1
g2
(lp835
g0
(g1
g2
(lp836
g0
(g1
g2
(lp837
(lp838
S'word: the, index: 23'
p839
aatp840
Rp841
(dp842
g12
Vdet
p843
sbag0
(g1
g2
(lp844
g0
(g1
g2
(lp845
g0
(g1
g2
(lp846
(lp847
S'word: him, index: 26'
p848
aatp849
Rp850
(dp851
g12
Vdobj
p852
sbatp853
Rp854
(dp855
g12
S'word: chasing, index: 25'
p856
sbatp857
Rp858
(dp859
g12
Vvmod
p860
sbatp861
Rp862
(dp863
g12
S'word: dog, index: 24'
p864
sbatp865
Rp866
(dp867
g12
Vprep
p868
sbag0
(g1
g2
(lp869
(lp870
S'word: he, index: 17'
p871
aatp872
Rp873
(dp874
g12
Vnsubj
p875
sbatp876
Rp877
(dp878
g12
S'word: running, index: 19'
p879
sbatp880
Rp881
(dp882
g12
Vconj
p883
sbag0
(g1
g2
(lp884
(lp885
S'word: is, index: 4'
p886
aatp887
Rp888
(dp889
g12
Vcop
p890
sbag0
(g1
g2
(lp891
g0
(g1
g2
(lp892
g0
(g1
g2
(lp893
(lp894
S'word: their, index: 7'
p895
aatp896
Rp897
(dp898
g12
Vposs
p899
sbatp900
Rp901
(dp902
g12
S'word: son, index: 8'
p903
sbatp904
Rp905
(dp906
g12
Vappos
p907
sbag0
(g1
g2
(lp908
g0
(g1
g2
(lp909
g0
(g1
g2
(lp910
(lp911
S'word: who, index: 10'
p912
aatp913
Rp914
(dp915
g12
Vnsubj
p916
sbag0
(g1
g2
(lp917
(lp918
S"word: 's, index: 11"
p919
aatp920
Rp921
(dp922
g12
Vaux
p923
sbag0
(g1
g2
(lp924
g0
(g1
g2
(lp925
g0
(g1
g2
(lp926
(lp927
S'word: a, index: 13'
p928
aatp929
Rp930
(dp931
g12
Vdet
p932
sbatp933
Rp934
(dp935
g12
S'word: kite, index: 14'
p936
sbatp937
Rp938
(dp939
g12
Vdobj
p940
sbatp941
Rp942
(dp943
g12
S'word: flying, index: 12'
p944
sbatp945
Rp946
(dp947
g12
Vrcmod
p948
sbatp949
Rp950
(dp951
g12
S'word: the, index: 5'
p952
sbatp953
Rp954
(dp955
g12
S'id: 6'
p956
sbag0
(g1
g2
(lp957
g0
(g1
g2
(lp958
g0
(g1
g2
(lp959
g0
(g1
g2
(lp960
g0
(g1
g2
(lp961
(lp962
S'word: a, index: 3'
p963
aatp964
Rp965
(dp966
g12
Vdet
p967
sbag0
(g1
g2
(lp968
(lp969
S'word: little, index: 4'
p970
aatp971
Rp972
(dp973
g12
Vamod
p974
sbatp975
Rp976
(dp977
g12
S'word: bit, index: 5'
p978
sbatp979
Rp980
(dp981
g12
Vprep
p982
sbag0
(g1
g2
(lp983
g0
(g1
g2
(lp984
g0
(g1
g2
(lp985
(lp986
S'word: the, index: 21'
p987
aatp988
Rp989
(dp990
g12
Vdet
p991
sbatp992
Rp993
(dp994
g12
S'word: sand, index: 22'
p995
sbatp996
Rp997
(dp998
g12
Vprep
p999
sbag0
(g1
g2
(lp1000
g0
(g1
g2
(lp1001
g0
(g1
g2
(lp1002
(lp1003
S'word: further, index: 6'
p1004
aatp1005
Rp1006
(dp1007
g12
Vadvmod
p1008
sbatp1009
Rp1010
(dp1011
g12
S'word: down, index: 7'
p1012
sbatp1013
Rp1014
(dp1015
g12
Vadvmod
p1016
sbag0
(g1
g2
(lp1017
g0
(g1
g2
(lp1018
g0
(g1
g2
(lp1019
g0
(g1
g2
(lp1020
g0
(g1
g2
(lp1021
(lp1022
S'word: a, index: 25'
p1023
aatp1024
Rp1025
(dp1026
g12
Vdet
p1027
sbatp1028
Rp1029
(dp1030
g12
S'word: sandcastle, index: 26'
p1031
sbatp1032
Rp1033
(dp1034
g12
Vdobj
p1035
sbatp1036
Rp1037
(dp1038
g12
S'word: building, index: 24'
p1039
sbatp1040
Rp1041
(dp1042
g12
Vvmod
p1043
sbag0
(g1
g2
(lp1044
g0
(g1
g2
(lp1045
g0
(g1
g2
(lp1046
(lp1047
S'word: the, index: 9'
p1048
aatp1049
Rp1050
(dp1051
g12
Vdep
p1052
sbag0
(g1
g2
(lp1053
g0
(g1
g2
(lp1054
g0
(g1
g2
(lp1055
(lp1056
S'word: the, index: 13'
p1057
aatp1058
Rp1059
(dp1060
g12
Vdet
p1061
sbatp1062
Rp1063
(dp1064
g12
S'word: blanket, index: 14'
p1065
sbatp1066
Rp1067
(dp1068
g12
Vprep
p1069
sbatp1070
Rp1071
(dp1072
g12
S'word: a, index: 10'
p1073
sbatp1074
Rp1075
(dp1076
g12
Vnsubj
p1077
sbag0
(g1
g2
(lp1078
(lp1079
S'word: is, index: 16'
p1080
aatp1081
Rp1082
(dp1083
g12
Vcop
p1084
sbag0
(g1
g2
(lp1085
(lp1086
S'word: And, index: 1'
p1087
aatp1088
Rp1089
(dp1090
g12
Vcc
p1091
sbag0
(g1
g2
(lp1092
(lp1093
S'word: their, index: 17'
p1094
aatp1095
Rp1096
(dp1097
g12
Vposs
p1098
sbatp1099
Rp1100
(dp1101
g12
S'word: daughter, index: 18'
p1102
sbatp1103
Rp1104
(dp1105
g12
S'id: 7'
p1106
sbag0
(g1
g2
(lp1107
g0
(g1
g2
(lp1108
g0
(g1
g2
(lp1109
g0
(g1
g2
(lp1110
g0
(g1
g2
(lp1111
g0
(g1
g2
(lp1112
g0
(g1
g2
(lp1113
(lp1114
S'word: to, index: 9'
p1115
aatp1116
Rp1117
(dp1118
g12
Vaux
p1119
sbag0
(g1
g2
(lp1120
g0
(g1
g2
(lp1121
g0
(g1
g2
(lp1122
(lp1123
S'word: her, index: 11'
p1124
aatp1125
Rp1126
(dp1127
g12
Vnsubj
p1128
sbag0
(g1
g2
(lp1129
g0
(g1
g2
(lp1130
g0
(g1
g2
(lp1131
(lp1132
S'word: the, index: 13'
p1133
aatp1134
Rp1135
(dp1136
g12
Vdet
p1137
sbatp1138
Rp1139
(dp1140
g12
S'word: sandcastle, index: 14'
p1141
sbatp1142
Rp1143
(dp1144
g12
Vdobj
p1145
sbatp1146
Rp1147
(dp1148
g12
S'word: build, index: 12'
p1149
sbatp1150
Rp1151
(dp1152
g12
Vccomp
p1153
sbatp1154
Rp1155
(dp1156
g12
S'word: help, index: 10'
p1157
sbatp1158
Rp1159
(dp1160
g12
Vvmod
p1161
sbag0
(g1
g2
(lp1162
(lp1163
S'word: a, index: 7'
p1164
aatp1165
Rp1166
(dp1167
g12
Vdet
p1168
sbatp1169
Rp1170
(dp1171
g12
S'word: shovel, index: 8'
p1172
sbatp1173
Rp1174
(dp1175
g12
Vdobj
p1176
sbag0
(g1
g2
(lp1177
(lp1178
S'word: And, index: 1'
p1179
aatp1180
Rp1181
(dp1182
g12
Vcc
p1183
sbag0
(g1
g2
(lp1184
(lp1185
S'word: she, index: 2'
p1186
aatp1187
Rp1188
(dp1189
g12
Vnsubj
p1190
sbag0
(g1
g2
(lp1191
g0
(g1
g2
(lp1192
g0
(g1
g2
(lp1193
g1170
atp1194
Rp1195
(dp1196
g12
Vconj
p1197
sbag0
(g1
g2
(lp1198
(lp1199
S'word: a, index: 4'
p1200
aatp1201
Rp1202
(dp1203
g12
Vdet
p1204
sbatp1205
Rp1206
(dp1207
g12
S'word: bucket, index: 5'
p1208
sbatp1209
Rp1210
(dp1211
g12
Vdobj
p1212
sbatp1213
Rp1214
(dp1215
g12
S'word: has, index: 3'
p1216
sbatp1217
Rp1218
(dp1219
g12
S'id: 8'
p1220
sbag0
(g1
g2
(lp1221
g0
(g1
g2
(lp1222
g0
(g1
g2
(lp1223
g0
(g1
g2
(lp1224
g0
(g1
g2
(lp1225
(lp1226
S'word: the, index: 28'
p1227
aatp1228
Rp1229
(dp1230
g12
Vdet
p1231
sbag0
(g1
g2
(lp1232
(lp1233
S'word: other, index: 29'
p1234
aatp1235
Rp1236
(dp1237
g12
Vamod
p1238
sbag0
(g1
g2
(lp1239
g0
(g1
g2
(lp1240
g0
(g1
g2
(lp1241
g0
(g1
g2
(lp1242
g0
(g1
g2
(lp1243
(lp1244
S'word: the, index: 32'
p1245
aatp1246
Rp1247
(dp1248
g12
Vdet
p1249
sbatp1250
Rp1251
(dp1252
g12
S'word: rudder, index: 33'
p1253
sbatp1254
Rp1255
(dp1256
g12
Vdobj
p1257
sbatp1258
Rp1259
(dp1260
g12
S'word: steering, index: 31'
p1261
sbatp1262
Rp1263
(dp1264
g12
Vvmod
p1265
sbatp1266
Rp1267
(dp1268
g12
S'word: person, index: 30'
p1269
sbatp1270
Rp1271
(dp1272
g12
Vprep
p1273
sbag0
(g1
g2
(lp1274
(lp1275
S'word: is, index: 15'
p1276
aatp1277
Rp1278
(dp1279
g12
Vcop
p1280
sbag0
(g1
g2
(lp1281
(lp1282
S'word: a, index: 16'
p1283
aatp1284
Rp1285
(dp1286
g12
Vdet
p1287
sbag0
(g1
g2
(lp1288
(lp1289
S'word: And, index: 1'
p1290
aatp1291
Rp1292
(dp1293
g12
Vcc
p1294
sbag0
(g1
g2
(lp1295
g0
(g1
g2
(lp1296
g0
(g1
g2
(lp1297
(lp1298
S'word: ocean, index: 13'
p1299
aatp1300
Rp1301
(dp1302
g12
Vprep
p1303
sbag0
(g1
g2
(lp1304
g0
(g1
g2
(lp1305
g0
(g1
g2
(lp1306
g0
(g1
g2
(lp1307
g0
(g1
g2
(lp1308
g0
(g1
g2
(lp1309
g0
(g1
g2
(lp1310
(lp1311
S'word: the, index: 5'
p1312
aatp1313
Rp1314
(dp1315
g12
Vdet
p1316
sbatp1317
Rp1318
(dp1319
g12
S'word: girl, index: 6'
p1320
sbatp1321
Rp1322
(dp1323
g12
Vpobj
p1324
sbatp1325
Rp1326
(dp1327
g12
S'word: behind, index: 4'
p1328
sbatp1329
Rp1330
(dp1331
g12
Vpcomp
p1332
sbatp1333
Rp1334
(dp1335
g12
S'word: out, index: 3'
p1336
sbatp1337
Rp1338
(dp1339
g12
Vpcomp
p1340
sbag0
(g1
g2
(lp1341
g0
(g1
g2
(lp1342
g0
(g1
g2
(lp1343
(lp1344
S'word: ocean, index: 13'
p1345
aatp1346
Rp1347
(dp1348
g12
Vconj
p1349
sbag0
(g1
g2
(lp1350
(lp1351
S'word: the, index: 9'
p1352
aatp1353
Rp1354
(dp1355
g12
Vdet
p1356
sbatp1357
Rp1358
(dp1359
g12
S'word: bay, index: 10'
p1360
sbatp1361
Rp1362
(dp1363
g12
Vprep
p1364
sbatp1365
Rp1366
(dp1367
g12
S'word: than, index: 2'
p1368
sbatp1369
Rp1370
(dp1371
g12
Vprep
p1372
sbag0
(g1
g2
(lp1373
g0
(g1
g2
(lp1374
g0
(g1
g2
(lp1375
g0
(g1
g2
(lp1376
g0
(g1
g2
(lp1377
(lp1378
S'word: four, index: 20'
p1379
aatp1380
Rp1381
(dp1382
g12
Vnum
p1383
sbatp1384
Rp1385
(dp1386
g12
S'word: seventy, index: 21'
p1387
sbatp1388
Rp1389
(dp1390
g12
Vdep
p1391
sbatp1392
Rp1393
(dp1394
g12
S'word: number, index: 19'
p1395
sbatp1396
Rp1397
(dp1398
g12
Vappos
p1399
sbag0
(g1
g2
(lp1400
g0
(g1
g2
(lp1401
g0
(g1
g2
(lp1402
g1267
atp1403
Rp1404
(dp1405
g12
Vconj
p1406
sbag0
(g1
g2
(lp1407
(lp1408
S'word: one, index: 24'
p1409
aatp1410
Rp1411
(dp1412
g12
Vnum
p1413
sbag0
(g1
g2
(lp1414
(lp1415
S'word: waving, index: 26'
p1416
aatp1417
Rp1418
(dp1419
g12
Vvmod
p1420
sbatp1421
Rp1422
(dp1423
g12
S'word: person, index: 25'
p1424
sbatp1425
Rp1426
(dp1427
g12
Vprep
p1428
sbatp1429
Rp1430
(dp1431
g12
S'word: sailboat, index: 17'
p1432
sbatp1433
Rp1434
(dp1435
g12
S'id: 9'
p1436
sbag0
(g1
g2
(lp1437
g0
(g1
g2
(lp1438
g0
(g1
g2
(lp1439
g0
(g1
g2
(lp1440
g0
(g1
g2
(lp1441
(lp1442
S'word: further, index: 2'
p1443
aatp1444
Rp1445
(dp1446
g12
Vpcomp
p1447
sbatp1448
Rp1449
(dp1450
g12
S'word: Down, index: 1'
p1451
sbatp1452
Rp1453
(dp1454
g12
Vprep
p1455
sbag0
(g1
g2
(lp1456
g0
(g1
g2
(lp1457
g0
(g1
g2
(lp1458
(lp1459
S'word: the, index: 4'
p1460
aatp1461
Rp1462
(dp1463
g12
Vdet
p1464
sbatp1465
Rp1466
(dp1467
g12
S'word: girl, index: 5'
p1468
sbatp1469
Rp1470
(dp1471
g12
Vprep
p1472
sbag0
(g1
g2
(lp1473
(lp1474
S'word: is, index: 7'
p1475
aatp1476
Rp1477
(dp1478
g12
Vcop
p1479
sbag0
(g1
g2
(lp1480
(lp1481
S'word: a, index: 8'
p1482
aatp1483
Rp1484
(dp1485
g12
Vdet
p1486
sbatp1487
Rp1488
(dp1489
g12
S'word: dock, index: 9'
p1490
sbatp1491
Rp1492
(dp1493
g12
S'id: 10'
p1494
sbag0
(g1
g2
(lp1495
g0
(g1
g2
(lp1496
g0
(g1
g2
(lp1497
(lp1498
S'word: there, index: 2'
p1499
aatp1500
Rp1501
(dp1502
g12
Vexpl
p1503
sbag0
(g1
g2
(lp1504
g0
(g1
g2
(lp1505
g0
(g1
g2
(lp1506
(lp1507
S'word: a, index: 4'
p1508
aatp1509
Rp1510
(dp1511
g12
Vdet
p1512
sbag0
(g1
g2
(lp1513
g0
(g1
g2
(lp1514
g0
(g1
g2
(lp1515
(lp1516
S'word: that, index: 7'
p1517
aatp1518
Rp1519
(dp1520
g12
Vdet
p1521
sbatp1522
Rp1523
(dp1524
g12
S'word: dock, index: 8'
p1525
sbatp1526
Rp1527
(dp1528
g12
Vprep
p1529
sbatp1530
Rp1531
(dp1532
g12
S'word: man, index: 5'
p1533
sbatp1534
Rp1535
(dp1536
g12
Vnsubj
p1537
sbag0
(g1
g2
(lp1538
g0
(g1
g2
(lp1539
g0
(g1
g2
(lp1540
(lp1541
S'word: he, index: 22'
p1542
aatp1543
Rp1544
(dp1545
g12
Vnsubj
p1546
sbag0
(g1
g2
(lp1547
(lp1548
S'word: just, index: 23'
p1549
aatp1550
Rp1551
(dp1552
g12
Vadvmod
p1553
sbag0
(g1
g2
(lp1554
g0
(g1
g2
(lp1555
g0
(g1
g2
(lp1556
(lp1557
S'word: a, index: 25'
p1558
aatp1559
Rp1560
(dp1561
g12
Vdet
p1562
sbag0
(g1
g2
(lp1563
g0
(g1
g2
(lp1564
g0
(g1
g2
(lp1565
(lp1566
S'word: that, index: 27'
p1567
aatp1568
Rp1569
(dp1570
g12
Vnsubj
p1571
sbag0
(g1
g2
(lp1572
g0
(g1
g2
(lp1573
g0
(g1
g2
(lp1574
(lp1575
S'word: the, index: 31'
p1576
aatp1577
Rp1578
(dp1579
g12
Vdet
p1580
sbatp1581
Rp1582
(dp1583
g12
S'word: water, index: 32'
p1584
sbatp1585
Rp1586
(dp1587
g12
Vprep
p1588
sbatp1589
Rp1590
(dp1591
g12
S'word: jumped, index: 28'
p1592
sbatp1593
Rp1594
(dp1595
g12
Vrcmod
p1596
sbatp1597
Rp1598
(dp1599
g12
S'word: fish, index: 26'
p1600
sbatp1601
Rp1602
(dp1603
g12
Vdobj
p1604
sbatp1605
Rp1606
(dp1607
g12
S'word: caught, index: 24'
p1608
sbatp1609
Rp1610
(dp1611
g12
Vconj
p1612
sbag0
(g1
g2
(lp1613
g0
(g1
g2
(lp1614
g0
(g1
g2
(lp1615
g0
(g1
g2
(lp1616
g0
(g1
g2
(lp1617
(lp1618
S'word: not, index: 19'
p1619
aatp1620
Rp1621
(dp1622
g12
Vconj
p1623
sbag0
(g1
g2
(lp1624
(lp1625
S'word: whether, index: 14'
p1626
aatp1627
Rp1628
(dp1629
g12
Vmark
p1630
sbag0
(g1
g2
(lp1631
(lp1632
S'word: he, index: 15'
p1633
aatp1634
Rp1635
(dp1636
g12
Vnsubj
p1637
sbag0
(g1
g2
(lp1638
(lp1639
S"word: 's, index: 16"
p1640
aatp1641
Rp1642
(dp1643
g12
Vcop
p1644
sbatp1645
Rp1646
(dp1647
g12
S'word: related, index: 17'
p1648
sbatp1649
Rp1650
(dp1651
g12
Vccomp
p1652
sbag0
(g1
g2
(lp1653
(lp1654
S'word: not, index: 19'
p1655
aatp1656
Rp1657
(dp1658
g12
Vccomp
p1659
sbag0
(g1
g2
(lp1660
(lp1661
S'word: I, index: 10'
p1662
aatp1663
Rp1664
(dp1665
g12
Vnsubj
p1666
sbag0
(g1
g2
(lp1667
(lp1668
S'word: do, index: 11'
p1669
aatp1670
Rp1671
(dp1672
g12
Vaux
p1673
sbag0
(g1
g2
(lp1674
(lp1675
S"word: n't, index: 12"
p1676
aatp1677
Rp1678
(dp1679
g12
Vneg
p1680
sbatp1681
Rp1682
(dp1683
g12
S'word: know, index: 13'
p1684
sbatp1685
Rp1686
(dp1687
g12
Vdep
p1688
sbatp1689
Rp1690
(dp1691
g12
S"word: 's, index: 3"
p1692
sbatp1693
Rp1694
(dp1695
g12
S'id: 11'
p1696
sbag0
(g1
g2
(lp1697
g0
(g1
g2
(lp1698
g0
(g1
g2
(lp1699
(lp1700
S'word: a, index: 5'
p1701
aatp1702
Rp1703
(dp1704
g12
Vdobj
p1705
sbag0
(g1
g2
(lp1706
(lp1707
S'word: And, index: 1'
p1708
aatp1709
Rp1710
(dp1711
g12
Vcc
p1712
sbag0
(g1
g2
(lp1713
(lp1714
S'word: he, index: 2'
p1715
aatp1716
Rp1717
(dp1718
g12
Vnsubjpass
p1719
sbag0
(g1
g2
(lp1720
(lp1721
S"word: 's, index: 3"
p1722
aatp1723
Rp1724
(dp1725
g12
Vauxpass
p1726
sbatp1727
Rp1728
(dp1729
g12
S'word: got, index: 4'
p1730
sbatp1731
Rp1732
(dp1733
g12
S'id: 12'
p1734
sbatp1735
Rp1736
(dp1737
g12
S'sentences'
p1738
sb.