ccopy_reg
_reconstructor
p0
(cnltk.tree
Tree
p1
c__builtin__
list
p2
(lp3
g0
(g1
g2
(lp4
g0
(g1
g2
(lp5
g0
(g1
g2
(lp6
g0
(g1
g2
(lp7
VI
p8
atp9
Rp10
(dp11
S'_label'
p12
VPRP
p13
sbatp14
Rp15
(dp16
g12
VNP
p17
sbag0
(g1
g2
(lp18
g0
(g1
g2
(lp19
Vknow
p20
atp21
Rp22
(dp23
g12
VVBP
p24
sbag0
(g1
g2
(lp25
g0
(g1
g2
(lp26
Vthat
p27
atp28
Rp29
(dp30
g12
VIN
p31
sbatp32
Rp33
(dp34
g12
VADVP
p35
sbatp36
Rp37
(dp38
g12
VVP
p39
sbag0
(g1
g2
(lp40
V.
p41
atp42
Rp43
(dp44
g12
V.
p45
sbatp46
Rp47
(dp48
g12
VS
p49
sbatp50
Rp51
(dp52
g12
S'id: 0'
p53
sbag0
(g1
g2
(lp54
g0
(g1
g2
(lp55
g0
(g1
g2
(lp56
g0
(g1
g2
(lp57
VOut
p58
atp59
Rp60
(dp61
g12
VIN
p62
sbatp63
Rp64
(dp65
g12
VPP
p66
sbag0
(g1
g2
(lp67
V,
p68
atp69
Rp70
(dp71
g12
V,
p72
sbag0
(g1
g2
(lp73
g0
(g1
g2
(lp74
Vleg
p75
atp76
Rp77
(dp78
g12
VNN
p79
sbatp80
Rp81
(dp82
g12
VNP
p83
sbag0
(g1
g2
(lp84
V.
p85
atp86
Rp87
(dp88
g12
V.
p89
sbatp90
Rp91
(dp92
g12
VFRAG
p93
sbatp94
Rp95
(dp96
g12
S'id: 1'
p97
sbag0
(g1
g2
(lp98
g0
(g1
g2
(lp99
g0
(g1
g2
(lp100
VWater
p101
atp102
Rp103
(dp104
g12
VNN
p105
sbag0
(g1
g2
(lp106
V.
p107
atp108
Rp109
(dp110
g12
V.
p111
sbatp112
Rp113
(dp114
g12
VNP
p115
sbatp116
Rp117
(dp118
g12
S'id: 2'
p119
sbag0
(g1
g2
(lp120
g0
(g1
g2
(lp121
g0
(g1
g2
(lp122
VRope
p123
atp124
Rp125
(dp126
g12
VNN
p127
sbag0
(g1
g2
(lp128
V.
p129
atp130
Rp131
(dp132
g12
V.
p133
sbatp134
Rp135
(dp136
g12
VNP
p137
sbatp138
Rp139
(dp140
g12
S'id: 3'
p141
sbag0
(g1
g2
(lp142
g0
(g1
g2
(lp143
g0
(g1
g2
(lp144
VWater
p145
atp146
Rp147
(dp148
g12
VNN
p149
sbag0
(g1
g2
(lp150
V.
p151
atp152
Rp153
(dp154
g12
V.
p155
sbatp156
Rp157
(dp158
g12
VNP
p159
sbatp160
Rp161
(dp162
g12
S'id: 4'
p163
sbag0
(g1
g2
(lp164
g0
(g1
g2
(lp165
g0
(g1
g2
(lp166
VWell
p167
atp168
Rp169
(dp170
g12
VUH
p171
sbag0
(g1
g2
(lp172
V.
p173
atp174
Rp175
(dp176
g12
V.
p177
sbatp178
Rp179
(dp180
g12
VINTJ
p181
sbatp182
Rp183
(dp184
g12
S'id: 5'
p185
sbag0
(g1
g2
(lp186
g0
(g1
g2
(lp187
g0
(g1
g2
(lp188
VHey
p189
atp190
Rp191
(dp192
g12
VUH
p193
sbag0
(g1
g2
(lp194
V.
p195
atp196
Rp197
(dp198
g12
V.
p199
sbatp200
Rp201
(dp202
g12
VINTJ
p203
sbatp204
Rp205
(dp206
g12
S'id: 6'
p207
sbag0
(g1
g2
(lp208
g0
(g1
g2
(lp209
g0
(g1
g2
(lp210
g0
(g1
g2
(lp211
Vand
p212
atp213
Rp214
(dp215
g12
VCC
p216
sbag0
(g1
g2
(lp217
g0
(g1
g2
(lp218
Vwater
p219
atp220
Rp221
(dp222
g12
VNN
p223
sbatp224
Rp225
(dp226
g12
VNP
p227
sbatp228
Rp229
(dp230
g12
VPP
p231
sbag0
(g1
g2
(lp232
V.
p233
atp234
Rp235
(dp236
g12
V.
p237
sbatp238
Rp239
(dp240
g12
VFRAG
p241
sbatp242
Rp243
(dp244
g12
S'id: 7'
p245
sbag0
(g1
g2
(lp246
g0
(g1
g2
(lp247
g0
(g1
g2
(lp248
g0
(g1
g2
(lp249
VWith
p250
atp251
Rp252
(dp253
g12
VIN
p254
sbag0
(g1
g2
(lp255
g0
(g1
g2
(lp256
Vthe
p257
atp258
Rp259
(dp260
g12
VDT
p261
sbag0
(g1
g2
(lp262
Vdog
p263
atp264
Rp265
(dp266
g12
VNN
p267
sbatp268
Rp269
(dp270
g12
VNP
p271
sbatp272
Rp273
(dp274
g12
VPP
p275
sbag0
(g1
g2
(lp276
V.
p277
atp278
Rp279
(dp280
g12
V.
p281
sbatp282
Rp283
(dp284
g12
VFRAG
p285
sbatp286
Rp287
(dp288
g12
S'id: 8'
p289
sbag0
(g1
g2
(lp290
g0
(g1
g2
(lp291
g0
(g1
g2
(lp292
VWine
p293
atp294
Rp295
(dp296
g12
VNN
p297
sbag0
(g1
g2
(lp298
V.
p299
atp300
Rp301
(dp302
g12
V.
p303
sbatp304
Rp305
(dp306
g12
VINTJ
p307
sbatp308
Rp309
(dp310
g12
S'id: 9'
p311
sbag0
(g1
g2
(lp312
g0
(g1
g2
(lp313
g0
(g1
g2
(lp314
g0
(g1
g2
(lp315
VRead
p316
atp317
Rp318
(dp319
g12
VNNP
p320
sbatp321
Rp322
(dp323
g12
VNP
p324
sbag0
(g1
g2
(lp325
V.
p326
atp327
Rp328
(dp329
g12
V.
p330
sbatp331
Rp332
(dp333
g12
VFRAG
p334
sbatp335
Rp336
(dp337
g12
S'id: 10'
p338
sbatp339
Rp340
(dp341
g12
S'sentences'
p342
sb.