ccopy_reg
_reconstructor
p0
(cnltk.tree
Tree
p1
c__builtin__
list
p2
(lp3
g0
(g1
g2
(lp4
tp5
Rp6
(dp7
S'_label'
p8
S'id: 0'
p9
sbag0
(g1
g2
(lp10
g0
(g1
g2
(lp11
g0
(g1
g2
(lp12
(lp13
S'word: here, index: 5'
p14
aatp15
Rp16
(dp17
g8
Vconj
p18
sbag0
(g1
g2
(lp19
(lp20
S'word: here, index: 8'
p21
aatp22
Rp23
(dp24
g8
Vconj
p25
sbag0
(g1
g2
(lp26
(lp27
S'word: here, index: 1'
p28
aatp29
Rp30
(dp31
g8
Vdep
p32
sbatp33
Rp34
(dp35
g8
S'word: here, index: 3'
p36
sbatp37
Rp38
(dp39
g8
S'id: 1'
p40
sbag0
(g1
g2
(lp41
g0
(g1
g2
(lp42
g0
(g1
g2
(lp43
(lp44
S'word: and, index: 1'
p45
aatp46
Rp47
(dp48
g8
Vcc
p49
sbatp50
Rp51
(dp52
g8
S'word: there, index: 2'
p53
sbatp54
Rp55
(dp56
g8
S'id: 2'
p57
sbatp58
Rp59
(dp60
g8
S'sentences'
p61
sb.