ccopy_reg
_reconstructor
p0
(cnltk.tree
Tree
p1
c__builtin__
list
p2
(lp3
g0
(g1
g2
(lp4
g0
(g1
g2
(lp5
g0
(g1
g2
(lp6
g0
(g1
g2
(lp7
g0
(g1
g2
(lp8
g0
(g1
g2
(lp9
g0
(g1
g2
(lp10
g0
(g1
g2
(lp11
g0
(g1
g2
(lp12
(lp13
S'word: a, index: 18'
p14
aatp15
Rp16
(dp17
S'_label'
p18
Vdet
p19
sbatp20
Rp21
(dp22
g18
S'word: stool, index: 19'
p23
sbatp24
Rp25
(dp26
g18
Vprep
p27
sbag0
(g1
g2
(lp28
(lp29
S'word: that, index: 13'
p30
aatp31
Rp32
(dp33
g18
Vmark
p34
sbag0
(g1
g2
(lp35
g0
(g1
g2
(lp36
g0
(g1
g2
(lp37
(lp38
S'word: her, index: 14'
p39
aatp40
Rp41
(dp42
g18
Vposs
p43
sbatp44
Rp45
(dp46
g18
S'word: brothers, index: 15'
p47
sbatp48
Rp49
(dp50
g18
Vnsubj
p51
sbatp52
Rp53
(dp54
g18
S'word: got, index: 16'
p55
sbatp56
Rp57
(dp58
g18
Vccomp
p59
sbag0
(g1
g2
(lp60
(lp61
S'word: alright, index: 1'
p62
aatp63
Rp64
(dp65
g18
Vmark
p66
sbag0
(g1
g2
(lp67
(lp68
S'word: we, index: 2'
p69
aatp70
Rp71
(dp72
g18
Vnsubj
p73
sbag0
(g1
g2
(lp74
g0
(g1
g2
(lp75
g0
(g1
g2
(lp76
(lp77
S'word: a, index: 4'
p78
aatp79
Rp80
(dp81
g18
Vdet
p82
sbag0
(g1
g2
(lp83
(lp84
S'word: little, index: 5'
p85
aatp86
Rp87
(dp88
g18
Vamod
p89
sbag0
(g1
g2
(lp90
(lp91
S'word: girl, index: 6'
p92
aatp93
Rp94
(dp95
g18
Vnn
p96
sbatp97
Rp98
(dp99
g18
S'word: eating, index: 7'
p100
sbatp101
Rp102
(dp103
g18
Vdobj
p104
sbag0
(g1
g2
(lp105
g0
(g1
g2
(lp106
g0
(g1
g2
(lp107
g0
(g1
g2
(lp108
g0
(g1
g2
(lp109
(lp110
S'word: a, index: 10'
p111
aatp112
Rp113
(dp114
g18
Vdet
p115
sbatp116
Rp117
(dp118
g18
S'word: cookie, index: 11'
p119
sbatp120
Rp121
(dp122
g18
Vdobj
p123
sbatp124
Rp125
(dp126
g18
S'word: wanting, index: 9'
p127
sbatp128
Rp129
(dp130
g18
Vvmod
p131
sbatp132
Rp133
(dp134
g18
S'word: got, index: 3'
p135
sbatp136
Rp137
(dp138
g18
Vadvcl
p139
sbag0
(g1
g2
(lp140
(lp141
S'word: he, index: 21'
p142
aatp143
Rp144
(dp145
g18
Vnsubj
p146
sbag0
(g1
g2
(lp147
(lp148
S"word: 's, index: 22"
p149
aatp150
Rp151
(dp152
g18
Vaux
p153
sbatp154
Rp155
(dp156
g18
S'word: falling, index: 23'
p157
sbatp158
Rp159
(dp160
g18
S'id: 0'
p161
sbag0
(g1
g2
(lp162
g0
(g1
g2
(lp163
g0
(g1
g2
(lp164
g0
(g1
g2
(lp165
g0
(g1
g2
(lp166
(lp167
S'word: three, index: 4'
p168
aatp169
Rp170
(dp171
g18
Vnum
p172
sbag0
(g1
g2
(lp173
g0
(g1
g2
(lp174
g0
(g1
g2
(lp175
(lp176
S'word: the, index: 7'
p177
aatp178
Rp179
(dp180
g18
Vdet
p181
sbag0
(g1
g2
(lp182
(lp183
S"word: 's, index: 9"
p184
aatp185
Rp186
(dp187
g18
Vpossessive
p188
sbag0
(g1
g2
(lp189
(lp190
S'word: running, index: 10'
p191
aatp192
Rp193
(dp194
g18
Vamod
p195
sbag0
(g1
g2
(lp196
(lp197
S'word: over, index: 11'
p198
aatp199
Rp200
(dp201
g18
Vadvmod
p202
sbatp203
Rp204
(dp205
g18
S'word: sink, index: 8'
p206
sbatp207
Rp208
(dp209
g18
Vappos
p210
sbag0
(g1
g2
(lp211
g0
(g1
g2
(lp212
g0
(g1
g2
(lp213
g0
(g1
g2
(lp214
g0
(g1
g2
(lp215
(lp216
S'word: the, index: 15'
p217
aatp218
Rp219
(dp220
g18
Vdet
p221
sbag0
(g1
g2
(lp222
g0
(g1
g2
(lp223
g0
(g1
g2
(lp224
g0
(g1
g2
(lp225
g0
(g1
g2
(lp226
(lp227
S'word: drying, index: 21'
p228
aatp229
Rp230
(dp231
g18
Vconj
p232
sbag0
(g1
g2
(lp233
g0
(g1
g2
(lp234
g0
(g1
g2
(lp235
(lp236
S'word: the, index: 22'
p237
aatp238
Rp239
(dp240
g18
Vdet
p241
sbatp242
Rp243
(dp244
g18
S'word: dishes, index: 23'
p245
sbatp246
Rp247
(dp248
g18
Vdobj
p249
sbatp250
Rp251
(dp252
g18
S'word: wiping, index: 19'
p253
sbatp254
Rp255
(dp256
g18
Vvmod
p257
sbag0
(g1
g2
(lp258
(lp259
S'word: drying, index: 21'
p260
aatp261
Rp262
(dp263
g18
Vvmod
p264
sbatp265
Rp266
(dp267
g18
S'word: her, index: 18'
p268
sbatp269
Rp270
(dp271
g18
Vappos
p272
sbatp273
Rp274
(dp275
g18
S'word: floor, index: 16'
p276
sbatp277
Rp278
(dp279
g18
Vprep
p280
sbatp281
Rp282
(dp283
g18
S'word: water, index: 13'
p284
sbatp285
Rp286
(dp287
g18
Vappos
p288
sbatp289
Rp290
(dp291
g18
S'word: legs, index: 5'
p292
sbatp293
Rp294
(dp295
g18
Vdobj
p296
sbag0
(g1
g2
(lp297
(lp298
S'word: it, index: 1'
p299
aatp300
Rp301
(dp302
g18
Vnsubjpass
p303
sbag0
(g1
g2
(lp304
(lp305
S"word: 's, index: 2"
p306
aatp307
Rp308
(dp309
g18
Vauxpass
p310
sbatp311
Rp312
(dp313
g18
S'word: got, index: 3'
p314
sbatp315
Rp316
(dp317
g18
S'id: 1'
p318
sbag0
(g1
g2
(lp319
g0
(g1
g2
(lp320
g0
(g1
g2
(lp321
(lp322
S'word: apparently, index: 6'
p323
aatp324
Rp325
(dp326
g18
Vadvmod
p327
sbag0
(g1
g2
(lp328
g0
(g1
g2
(lp329
g0
(g1
g2
(lp330
(lp331
S'word: the, index: 8'
p332
aatp333
Rp334
(dp335
g18
Vdet
p336
sbatp337
Rp338
(dp339
g18
S'word: bottom, index: 9'
p340
sbatp341
Rp342
(dp343
g18
Vprep
p344
sbag0
(g1
g2
(lp345
g0
(g1
g2
(lp346
g0
(g1
g2
(lp347
g0
(g1
g2
(lp348
g0
(g1
g2
(lp349
(lp350
S'word: the, index: 22'
p351
aatp352
Rp353
(dp354
g18
Vdet
p355
sbag0
(g1
g2
(lp356
(lp357
S'word: front, index: 23'
p358
aatp359
Rp360
(dp361
g18
Vamod
p362
sbag0
(g1
g2
(lp363
g0
(g1
g2
(lp364
g0
(g1
g2
(lp365
(lp366
S'word: the, index: 26'
p367
aatp368
Rp369
(dp370
g18
Vdet
p371
sbatp372
Rp373
(dp374
g18
S'word: house, index: 27'
p375
sbatp376
Rp377
(dp378
g18
Vprep
p379
sbatp380
Rp381
(dp382
g18
S'word: side, index: 24'
p383
sbatp384
Rp385
(dp386
g18
Vprep
p387
sbag0
(g1
g2
(lp388
(lp389
S'word: she, index: 12'
p390
aatp391
Rp392
(dp393
g18
Vnsubj
p394
sbag0
(g1
g2
(lp395
(lp396
S'word: is, index: 13'
p397
aatp398
Rp399
(dp400
g18
Vaux
p401
sbag0
(g1
g2
(lp402
(lp403
S'word: out, index: 15'
p404
aatp405
Rp406
(dp407
g18
Vprt
p408
sbag0
(g1
g2
(lp409
g0
(g1
g2
(lp410
g0
(g1
g2
(lp411
g381
atp412
Rp413
(dp414
g18
Vconj
p415
sbag0
(g1
g2
(lp416
(lp417
S'word: the, index: 17'
p418
aatp419
Rp420
(dp421
g18
Vdet
p422
sbag0
(g1
g2
(lp423
(lp424
S'word: back, index: 18'
p425
aatp426
Rp427
(dp428
g18
Vamod
p429
sbatp430
Rp431
(dp432
g18
S'word: yard, index: 19'
p433
sbatp434
Rp435
(dp436
g18
Vprep
p437
sbatp438
Rp439
(dp440
g18
S'word: looking, index: 14'
p441
sbatp442
Rp443
(dp444
g18
Vconj
p445
sbag0
(g1
g2
(lp446
g0
(g1
g2
(lp447
g0
(g1
g2
(lp448
(lp449
S'word: The, index: 1'
p450
aatp451
Rp452
(dp453
g18
Vdet
p454
sbatp455
Rp456
(dp457
g18
S'word: window, index: 2'
p458
sbatp459
Rp460
(dp461
g18
Vnsubj
p462
sbag0
(g1
g2
(lp463
(lp464
S'word: is, index: 3'
p465
aatp466
Rp467
(dp468
g18
Vcop
p469
sbatp470
Rp471
(dp472
g18
S'word: open, index: 4'
p473
sbatp474
Rp475
(dp476
g18
S'id: 2'
p477
sbag0
(g1
g2
(lp478
g0
(g1
g2
(lp479
g0
(g1
g2
(lp480
g0
(g1
g2
(lp481
g0
(g1
g2
(lp482
(lp483
S'word: a, index: 26'
p484
aatp485
Rp486
(dp487
g18
Vdet
p488
sbag0
(g1
g2
(lp489
g0
(g1
g2
(lp490
g0
(g1
g2
(lp491
(lp492
S'word: that, index: 28'
p493
aatp494
Rp495
(dp496
g18
Vnsubj
p497
sbag0
(g1
g2
(lp498
(lp499
S"word: 's, index: 29"
p500
aatp501
Rp502
(dp503
g18
Vaux
p504
sbag0
(g1
g2
(lp505
(lp506
S'word: it, index: 32'
p507
aatp508
Rp509
(dp510
g18
Vprep
p511
sbatp512
Rp513
(dp514
g18
S'word: leaning, index: 30'
p515
sbatp516
Rp517
(dp518
g18
Vrcmod
p519
sbatp520
Rp521
(dp522
g18
S'word: lid, index: 27'
p523
sbatp524
Rp525
(dp526
g18
Vprep
p527
sbag0
(g1
g2
(lp528
g0
(g1
g2
(lp529
g0
(g1
g2
(lp530
(lp531
S'word: you, index: 1'
p532
aatp533
Rp534
(dp535
g18
Vnsubj
p536
sbag0
(g1
g2
(lp537
(lp538
S"word: 've, index: 2"
p539
aatp540
Rp541
(dp542
g18
Vaux
p543
sbag0
(g1
g2
(lp544
g0
(g1
g2
(lp545
g0
(g1
g2
(lp546
g0
(g1
g2
(lp547
g0
(g1
g2
(lp548
(lp549
S'word: a, index: 12'
p550
aatp551
Rp552
(dp553
g18
Vdet
p554
sbag0
(g1
g2
(lp555
(lp556
S'word: two, index: 13'
p557
aatp558
Rp559
(dp560
g18
Vnum
p561
sbag0
(g1
g2
(lp562
g0
(g1
g2
(lp563
g0
(g1
g2
(lp564
(lp565
S'word: the, index: 16'
p566
aatp567
Rp568
(dp569
g18
Vdet
p570
sbatp571
Rp572
(dp573
g18
S'word: picture, index: 17'
p574
sbatp575
Rp576
(dp577
g18
Vprep
p578
sbatp579
Rp580
(dp581
g18
S'word: plates, index: 14'
p582
sbatp583
Rp584
(dp585
g18
Vconj
p586
sbag0
(g1
g2
(lp587
(lp588
S'word: bowls, index: 5'
p589
aatp590
Rp591
(dp592
g18
Vdep
p593
sbag0
(g1
g2
(lp594
g0
(g1
g2
(lp595
g0
(g1
g2
(lp596
(lp597
S'word: bowls, index: 9'
p598
aatp599
Rp600
(dp601
g18
Vdep
p602
sbag0
(g1
g2
(lp603
g580
atp604
Rp605
(dp606
g18
Vconj
p607
sbatp608
Rp609
(dp610
g18
S'word: two, index: 8'
p611
sbatp612
Rp613
(dp614
g18
Vconj
p615
sbatp616
Rp617
(dp618
g18
S'word: three, index: 4'
p619
sbatp620
Rp621
(dp622
g18
Vdobj
p623
sbag0
(g1
g2
(lp624
g609
atp625
Rp626
(dp627
g18
Vdobj
p628
sbatp629
Rp630
(dp631
g18
S'word: got, index: 3'
p632
sbatp633
Rp634
(dp635
g18
Vccomp
p636
sbag0
(g1
g2
(lp637
(lp638
S'word: you, index: 19'
p639
aatp640
Rp641
(dp642
g18
Vnsubj
p643
sbag0
(g1
g2
(lp644
(lp645
S"word: 've, index: 20"
p646
aatp647
Rp648
(dp649
g18
Vaux
p650
sbag0
(g1
g2
(lp651
g0
(g1
g2
(lp652
g0
(g1
g2
(lp653
(lp654
S'word: a, index: 22'
p655
aatp656
Rp657
(dp658
g18
Vdet
p659
sbag0
(g1
g2
(lp660
(lp661
S'word: cookie, index: 23'
p662
aatp663
Rp664
(dp665
g18
Vnn
p666
sbatp667
Rp668
(dp669
g18
S'word: jar, index: 24'
p670
sbatp671
Rp672
(dp673
g18
Vdobj
p674
sbatp675
Rp676
(dp677
g18
S'word: got, index: 21'
p678
sbatp679
Rp680
(dp681
g18
S'id: 3'
p682
sbag0
(g1
g2
(lp683
g0
(g1
g2
(lp684
g0
(g1
g2
(lp685
g0
(g1
g2
(lp686
g0
(g1
g2
(lp687
(lp688
S'word: the, index: 12'
p689
aatp690
Rp691
(dp692
g18
Vdet
p693
sbatp694
Rp695
(dp696
g18
S'word: doors, index: 13'
p697
sbatp698
Rp699
(dp700
g18
Vprep
p701
sbag0
(g1
g2
(lp702
g0
(g1
g2
(lp703
g0
(g1
g2
(lp704
(lp705
S'word: There, index: 1'
p706
aatp707
Rp708
(dp709
g18
Vexpl
p710
sbag0
(g1
g2
(lp711
(lp712
S'word: are, index: 2'
p713
aatp714
Rp715
(dp716
g18
Vcop
p717
sbag0
(g1
g2
(lp718
(lp719
S'word: no, index: 3'
p720
aatp721
Rp722
(dp723
g18
Vneg
p724
sbag0
(g1
g2
(lp725
(lp726
S'word: handles, index: 6'
p727
aatp728
Rp729
(dp730
g18
Vconj
p731
sbatp732
Rp733
(dp734
g18
S'word: shelves, index: 4'
p735
sbatp736
Rp737
(dp738
g18
Vccomp
p739
sbag0
(g1
g2
(lp740
(lp741
S'word: handles, index: 6'
p742
aatp743
Rp744
(dp745
g18
Vccomp
p746
sbag0
(g1
g2
(lp747
(lp748
S'word: that, index: 8'
p749
aatp750
Rp751
(dp752
g18
Vnsubjpass
p753
sbag0
(g1
g2
(lp754
(lp755
S'word: are, index: 9'
p756
aatp757
Rp758
(dp759
g18
Vauxpass
p760
sbatp761
Rp762
(dp763
g18
S'word: seen, index: 10'
p764
sbatp765
Rp766
(dp767
g18
S'id: 4'
p768
sbag0
(g1
g2
(lp769
g0
(g1
g2
(lp770
g0
(g1
g2
(lp771
(lp772
S'word: You, index: 1'
p773
aatp774
Rp775
(dp776
g18
Vnsubj
p777
sbag0
(g1
g2
(lp778
(lp779
S"word: 've, index: 2"
p780
aatp781
Rp782
(dp783
g18
Vaux
p784
sbag0
(g1
g2
(lp785
g0
(g1
g2
(lp786
g0
(g1
g2
(lp787
(lp788
S'word: the, index: 4'
p789
aatp790
Rp791
(dp792
g18
Vnsubj
p793
sbag0
(g1
g2
(lp794
(lp795
S'word: down, index: 6'
p796
aatp797
Rp798
(dp799
g18
Vprt
p800
sbag0
(g1
g2
(lp801
(lp802
S'word: here, index: 7'
p803
aatp804
Rp805
(dp806
g18
Vadvmod
p807
sbag0
(g1
g2
(lp808
g0
(g1
g2
(lp809
g0
(g1
g2
(lp810
(lp811
S'word: the, index: 9'
p812
aatp813
Rp814
(dp815
g18
Vdet
p816
sbag0
(g1
g2
(lp817
g0
(g1
g2
(lp818
g0
(g1
g2
(lp819
g0
(g1
g2
(lp820
g0
(g1
g2
(lp821
g0
(g1
g2
(lp822
g0
(g1
g2
(lp823
g0
(g1
g2
(lp824
g0
(g1
g2
(lp825
(lp826
S'word: not, index: 18'
p827
aatp828
Rp829
(dp830
g18
Vneg
p831
sbag0
(g1
g2
(lp832
(lp833
S'word: a, index: 19'
p834
aatp835
Rp836
(dp837
g18
Vdet
p838
sbag0
(g1
g2
(lp839
(lp840
S'word: little, index: 20'
p841
aatp842
Rp843
(dp844
g18
Vamod
p845
sbatp846
Rp847
(dp848
g18
S'word: knob, index: 21'
p849
sbatp850
Rp851
(dp852
g18
Vconj
p853
sbatp854
Rp855
(dp856
g18
S'word: locks, index: 16'
p857
sbatp858
Rp859
(dp860
g18
Vdobj
p861
sbag0
(g1
g2
(lp862
g847
atp863
Rp864
(dp865
g18
Vdobj
p866
sbatp867
Rp868
(dp869
g18
S'word: pull, index: 15'
p870
sbatp871
Rp872
(dp873
g18
Vccomp
p874
sbag0
(g1
g2
(lp875
(lp876
S'word: that, index: 12'
p877
aatp878
Rp879
(dp880
g18
Vnsubj
p881
sbag0
(g1
g2
(lp882
(lp883
S'word: just, index: 14'
p884
aatp885
Rp886
(dp887
g18
Vadvmod
p888
sbatp889
Rp890
(dp891
g18
S'word: are, index: 13'
p892
sbatp893
Rp894
(dp895
g18
Vrcmod
p896
sbatp897
Rp898
(dp899
g18
S'word: bottom, index: 10'
p900
sbatp901
Rp902
(dp903
g18
Vprep
p904
sbatp905
Rp906
(dp907
g18
S'word: handles, index: 5'
p908
sbatp909
Rp910
(dp911
g18
Vccomp
p912
sbatp913
Rp914
(dp915
g18
S'word: got, index: 3'
p916
sbatp917
Rp918
(dp919
g18
S'id: 5'
p920
sbag0
(g1
g2
(lp921
g0
(g1
g2
(lp922
g0
(g1
g2
(lp923
(lp924
S"word: 've, index: 2"
p925
aatp926
Rp927
(dp928
g18
Vaux
p929
sbag0
(g1
g2
(lp930
g0
(g1
g2
(lp931
g0
(g1
g2
(lp932
g0
(g1
g2
(lp933
g0
(g1
g2
(lp934
(lp935
S'word: two, index: 4'
p936
aatp937
Rp938
(dp939
g18
Vnum
p940
sbag0
(g1
g2
(lp941
g0
(g1
g2
(lp942
g0
(g1
g2
(lp943
(lp944
S'word: here, index: 7'
p945
aatp946
Rp947
(dp948
g18
Vpobj
p949
sbatp950
Rp951
(dp952
g18
S'word: over, index: 6'
p953
sbatp954
Rp955
(dp956
g18
Vprep
p957
sbag0
(g1
g2
(lp958
g0
(g1
g2
(lp959
g0
(g1
g2
(lp960
(lp961
S'word: one, index: 10'
p962
aatp963
Rp964
(dp965
g18
Vnum
p966
sbag0
(g1
g2
(lp967
(lp968
S'word: large, index: 11'
p969
aatp970
Rp971
(dp972
g18
Vamod
p973
sbatp974
Rp975
(dp976
g18
S'word: sink, index: 12'
p977
sbatp978
Rp979
(dp980
g18
Vconj
p981
sbag0
(g1
g2
(lp982
g0
(g1
g2
(lp983
g0
(g1
g2
(lp984
(lp985
S'word: not, index: 15'
p986
aatp987
Rp988
(dp989
g18
Vneg
p990
sbatp991
Rp992
(dp993
g18
S'word: a, index: 16'
p994
sbatp995
Rp996
(dp997
g18
Vconj
p998
sbatp999
Rp1000
(dp1001
g18
S'word: faucets, index: 5'
p1002
sbatp1003
Rp1004
(dp1005
g18
Vnsubj
p1006
sbatp1007
Rp1008
(dp1009
g18
S'word: rinsing, index: 19'
p1010
sbatp1011
Rp1012
(dp1013
g18
Vdep
p1014
sbag0
(g1
g2
(lp1015
(lp1016
S'word: You, index: 1'
p1017
aatp1018
Rp1019
(dp1020
g18
Vnsubj
p1021
sbag0
(g1
g2
(lp1022
g0
(g1
g2
(lp1023
g0
(g1
g2
(lp1024
g1008
atp1025
Rp1026
(dp1027
g18
Vconj
p1028
sbag0
(g1
g2
(lp1029
(lp1030
S'word: side, index: 20'
p1031
aatp1032
Rp1033
(dp1034
g18
Vdobj
p1035
sbag0
(g1
g2
(lp1036
g1000
atp1037
Rp1038
(dp1039
g18
Vnsubj
p1040
sbag0
(g1
g2
(lp1041
g975
atp1042
Rp1043
(dp1044
g18
Vnsubj
p1045
sbag0
(g1
g2
(lp1046
g992
atp1047
Rp1048
(dp1049
g18
Vnsubj
p1050
sbatp1051
Rp1052
(dp1053
g18
S'word: drying, index: 17'
p1054
sbatp1055
Rp1056
(dp1057
g18
Vdep
p1058
sbatp1059
Rp1060
(dp1061
g18
S'word: got, index: 3'
p1062
sbatp1063
Rp1064
(dp1065
g18
S'id: 6'
p1066
sbag0
(g1
g2
(lp1067
g0
(g1
g2
(lp1068
g0
(g1
g2
(lp1069
(lp1070
S'word: look, index: 21'
p1071
aatp1072
Rp1073
(dp1074
g18
Vprep
p1075
sbag0
(g1
g2
(lp1076
g0
(g1
g2
(lp1077
g0
(g1
g2
(lp1078
g0
(g1
g2
(lp1079
g0
(g1
g2
(lp1080
(lp1081
S'word: the, index: 5'
p1082
aatp1083
Rp1084
(dp1085
g18
Vdet
p1086
sbatp1087
Rp1088
(dp1089
g18
S'word: picture, index: 6'
p1090
sbatp1091
Rp1092
(dp1093
g18
Vnsubjpass
p1094
sbag0
(g1
g2
(lp1095
(lp1096
S'word: was, index: 7'
p1097
aatp1098
Rp1099
(dp1100
g18
Vauxpass
p1101
sbag0
(g1
g2
(lp1102
(lp1103
S'word: probably, index: 8'
p1104
aatp1105
Rp1106
(dp1107
g18
Vadvmod
p1108
sbag0
(g1
g2
(lp1109
(lp1110
S'word: back, index: 10'
p1111
aatp1112
Rp1113
(dp1114
g18
Vadvmod
p1115
sbag0
(g1
g2
(lp1116
g0
(g1
g2
(lp1117
g0
(g1
g2
(lp1118
(lp1119
S'word: the, index: 12'
p1120
aatp1121
Rp1122
(dp1123
g18
Vdet
p1124
sbag0
(g1
g2
(lp1125
(lp1126
S'word: late, index: 13'
p1127
aatp1128
Rp1129
(dp1130
g18
Vamod
p1131
sbatp1132
Rp1133
(dp1134
g18
S'word: fifties, index: 14'
p1135
sbatp1136
Rp1137
(dp1138
g18
Vprep
p1139
sbatp1140
Rp1141
(dp1142
g18
S'word: done, index: 9'
p1143
sbatp1144
Rp1145
(dp1146
g18
Vparataxis
p1147
sbag0
(g1
g2
(lp1148
g0
(g1
g2
(lp1149
g0
(g1
g2
(lp1150
(lp1151
S'word: the, index: 23'
p1152
aatp1153
Rp1154
(dp1155
g18
Vdet
p1156
sbag0
(g1
g2
(lp1157
(lp1158
S'word: little, index: 24'
p1159
aatp1160
Rp1161
(dp1162
g18
Vamod
p1163
sbag0
(g1
g2
(lp1164
(lp1165
S'word: mini, index: 25'
p1166
aatp1167
Rp1168
(dp1169
g18
Vamod
p1170
sbatp1171
Rp1172
(dp1173
g18
S'word: skirt, index: 26'
p1174
sbatp1175
Rp1176
(dp1177
g18
Vprep
p1178
sbag0
(g1
g2
(lp1179
g0
(g1
g2
(lp1180
g0
(g1
g2
(lp1181
g0
(g1
g2
(lp1182
g0
(g1
g2
(lp1183
(lp1184
S'word: the, index: 40'
p1185
aatp1186
Rp1187
(dp1188
g18
Vdet
p1189
sbatp1190
Rp1191
(dp1192
g18
S'word: pants, index: 41'
p1193
sbatp1194
Rp1195
(dp1196
g18
Vnsubj
p1197
sbag0
(g1
g2
(lp1198
(lp1199
S'word: up, index: 43'
p1200
aatp1201
Rp1202
(dp1203
g18
Vprt
p1204
sbag0
(g1
g2
(lp1205
g0
(g1
g2
(lp1206
g0
(g1
g2
(lp1207
(lp1208
S'word: the, index: 45'
p1209
aatp1210
Rp1211
(dp1212
g18
Vdet
p1213
sbatp1214
Rp1215
(dp1216
g18
S'word: ankles, index: 46'
p1217
sbatp1218
Rp1219
(dp1220
g18
Vprep
p1221
sbag0
(g1
g2
(lp1222
(lp1223
S'word: on, index: 49'
p1224
aatp1225
Rp1226
(dp1227
g18
Vprepc
p1228
sbag0
(g1
g2
(lp1229
g0
(g1
g2
(lp1230
g0
(g1
g2
(lp1231
g0
(g1
g2
(lp1232
g0
(g1
g2
(lp1233
(lp1234
S'word: since, index: 53'
p1235
aatp1236
Rp1237
(dp1238
g18
Vmark
p1239
sbag0
(g1
g2
(lp1240
(lp1241
S'word: I, index: 54'
p1242
aatp1243
Rp1244
(dp1245
g18
Vnsubj
p1246
sbag0
(g1
g2
(lp1247
(lp1248
S'word: ca, index: 55'
p1249
aatp1250
Rp1251
(dp1252
g18
Vaux
p1253
sbag0
(g1
g2
(lp1254
(lp1255
S"word: n't, index: 56"
p1256
aatp1257
Rp1258
(dp1259
g18
Vneg
p1260
sbag0
(g1
g2
(lp1261
g0
(g1
g2
(lp1262
g0
(g1
g2
(lp1263
(lp1264
S'word: the, index: 58'
p1265
aatp1266
Rp1267
(dp1268
g18
Vdet
p1269
sbag0
(g1
g2
(lp1270
(lp1271
S'word: muscle, index: 59'
p1272
aatp1273
Rp1274
(dp1275
g18
Vnn
p1276
sbatp1277
Rp1278
(dp1279
g18
S'word: description, index: 60'
p1280
sbatp1281
Rp1282
(dp1283
g18
Vdobj
p1284
sbatp1285
Rp1286
(dp1287
g18
S'word: tell, index: 57'
p1288
sbatp1289
Rp1290
(dp1291
g18
Vadvcl
p1292
sbag0
(g1
g2
(lp1293
(lp1294
S'word: how, index: 50'
p1295
aatp1296
Rp1297
(dp1298
g18
Vadvmod
p1299
sbag0
(g1
g2
(lp1300
(lp1301
S'word: that, index: 51'
p1302
aatp1303
Rp1304
(dp1305
g18
Vnsubj
p1306
sbatp1307
Rp1308
(dp1309
g18
S'word: is, index: 52'
p1310
sbatp1311
Rp1312
(dp1313
g18
Vpcomp
p1314
sbatp1315
Rp1316
(dp1317
g18
S'word: come, index: 42'
p1318
sbatp1319
Rp1320
(dp1321
g18
Vconj
p1322
sbag0
(g1
g2
(lp1323
g0
(g1
g2
(lp1324
g0
(g1
g2
(lp1325
(lp1326
S'word: that, index: 28'
p1327
aatp1328
Rp1329
(dp1330
g18
Vmark
p1331
sbag0
(g1
g2
(lp1332
g0
(g1
g2
(lp1333
g0
(g1
g2
(lp1334
(lp1335
S'word: the, index: 29'
p1336
aatp1337
Rp1338
(dp1339
g18
Vdet
p1340
sbatp1341
Rp1342
(dp1343
g18
S'word: girls, index: 30'
p1344
sbatp1345
Rp1346
(dp1347
g18
Vnsubj
p1348
sbag0
(g1
g2
(lp1349
g0
(g1
g2
(lp1350
g0
(g1
g2
(lp1351
(lp1352
S'word: down, index: 37'
p1353
aatp1354
Rp1355
(dp1356
g18
Vadvmod
p1357
sbag0
(g1
g2
(lp1358
g0
(g1
g2
(lp1359
g0
(g1
g2
(lp1360
(lp1361
S'word: the, index: 34'
p1362
aatp1363
Rp1364
(dp1365
g18
Vdet
p1366
sbag0
(g1
g2
(lp1367
(lp1368
S'word: little, index: 35'
p1369
aatp1370
Rp1371
(dp1372
g18
Vamod
p1373
sbatp1374
Rp1375
(dp1376
g18
S'word: thing, index: 36'
p1377
sbatp1378
Rp1379
(dp1380
g18
Vpobj
p1381
sbatp1382
Rp1383
(dp1384
g18
S'word: either, index: 33'
p1385
sbatp1386
Rp1387
(dp1388
g18
Vconj
p1389
sbatp1390
Rp1391
(dp1392
g18
S'word: got, index: 31'
p1393
sbatp1394
Rp1395
(dp1396
g18
Vccomp
p1397
sbag0
(g1
g2
(lp1398
g0
(g1
g2
(lp1399
g0
(g1
g2
(lp1400
(lp1401
S'word: sort, index: 17'
p1402
aatp1403
Rp1404
(dp1405
g18
Vdep
p1406
sbag0
(g1
g2
(lp1407
(lp1408
S'word: era, index: 19'
p1409
aatp1410
Rp1411
(dp1412
g18
Vprep
p1413
sbatp1414
Rp1415
(dp1416
g18
S'word: that, index: 16'
p1417
sbatp1418
Rp1419
(dp1420
g18
Vadvmod
p1421
sbag0
(g1
g2
(lp1422
(lp1423
S'word: you, index: 1'
p1424
aatp1425
Rp1426
(dp1427
g18
Vnsubj
p1428
sbag0
(g1
g2
(lp1429
g1383
atp1430
Rp1431
(dp1432
g18
Vccomp
p1433
sbag0
(g1
g2
(lp1434
(lp1435
S"word: 've, index: 2"
p1436
aatp1437
Rp1438
(dp1439
g18
Vaux
p1440
sbatp1441
Rp1442
(dp1443
g18
S'word: got, index: 3'
p1444
sbatp1445
Rp1446
(dp1447
g18
S'id: 7'
p1448
sbag0
(g1
g2
(lp1449
g0
(g1
g2
(lp1450
g0
(g1
g2
(lp1451
(lp1452
S'word: he, index: 18'
p1453
aatp1454
Rp1455
(dp1456
g18
Vnsubj
p1457
sbag0
(g1
g2
(lp1458
(lp1459
S"word: 's, index: 19"
p1460
aatp1461
Rp1462
(dp1463
g18
Vaux
p1464
sbag0
(g1
g2
(lp1465
(lp1466
S'word: not, index: 20'
p1467
aatp1468
Rp1469
(dp1470
g18
Vneg
p1471
sbag0
(g1
g2
(lp1472
g0
(g1
g2
(lp1473
g0
(g1
g2
(lp1474
g0
(g1
g2
(lp1475
g0
(g1
g2
(lp1476
(lp1477
S'word: That, index: 1'
p1478
aatp1479
Rp1480
(dp1481
g18
Vdet
p1482
sbatp1483
Rp1484
(dp1485
g18
S'word: kid, index: 2'
p1486
sbatp1487
Rp1488
(dp1489
g18
Vnsubj
p1490
sbag0
(g1
g2
(lp1491
(lp1492
S'word: apparently, index: 3'
p1493
aatp1494
Rp1495
(dp1496
g18
Vadvmod
p1497
sbag0
(g1
g2
(lp1498
(lp1499
S'word: is, index: 4'
p1500
aatp1501
Rp1502
(dp1503
g18
Vaux
p1504
sbag0
(g1
g2
(lp1505
g0
(g1
g2
(lp1506
g0
(g1
g2
(lp1507
g0
(g1
g2
(lp1508
g0
(g1
g2
(lp1509
(lp1510
S'word: the, index: 8'
p1511
aatp1512
Rp1513
(dp1514
g18
Vdet
p1515
sbag0
(g1
g2
(lp1516
g0
(g1
g2
(lp1517
g0
(g1
g2
(lp1518
(lp1519
S'word: his, index: 11'
p1520
aatp1521
Rp1522
(dp1523
g18
Vposs
p1524
sbag0
(g1
g2
(lp1525
g0
(g1
g2
(lp1526
g0
(g1
g2
(lp1527
(lp1528
S'word: the, index: 13'
p1529
aatp1530
Rp1531
(dp1532
g18
Vdet
p1533
sbatp1534
Rp1535
(dp1536
g18
S'word: way, index: 14'
p1537
sbatp1538
Rp1539
(dp1540
g18
Vdep
p1541
sbatp1542
Rp1543
(dp1544
g18
S'word: head, index: 12'
p1545
sbatp1546
Rp1547
(dp1548
g18
Vprep
p1549
sbag0
(g1
g2
(lp1550
g0
(g1
g2
(lp1551
g0
(g1
g2
(lp1552
(lp1553
S'word: he, index: 15'
p1554
aatp1555
Rp1556
(dp1557
g18
Vnsubj
p1558
sbatp1559
Rp1560
(dp1561
g18
S'word: falls, index: 16'
p1562
sbatp1563
Rp1564
(dp1565
g18
Vrcmod
p1566
sbatp1567
Rp1568
(dp1569
g18
S'word: back, index: 9'
p1570
sbatp1571
Rp1572
(dp1573
g18
Vdobj
p1574
sbag0
(g1
g2
(lp1575
(lp1576
S'word: to, index: 6'
p1577
aatp1578
Rp1579
(dp1580
g18
Vaux
p1581
sbatp1582
Rp1583
(dp1584
g18
S'word: hit, index: 7'
p1585
sbatp1586
Rp1587
(dp1588
g18
Vxcomp
p1589
sbatp1590
Rp1591
(dp1592
g18
S'word: going, index: 5'
p1593
sbatp1594
Rp1595
(dp1596
g18
Vccomp
p1597
sbag0
(g1
g2
(lp1598
g0
(g1
g2
(lp1599
g0
(g1
g2
(lp1600
(lp1601
S'word: down, index: 24'
p1602
aatp1603
Rp1604
(dp1605
g18
Vprt
p1606
sbag0
(g1
g2
(lp1607
g0
(g1
g2
(lp1608
g0
(g1
g2
(lp1609
(lp1610
S'word: his, index: 26'
p1611
aatp1612
Rp1613
(dp1614
g18
Vposs
p1615
sbatp1616
Rp1617
(dp1618
g18
S'word: feet, index: 27'
p1619
sbatp1620
Rp1621
(dp1622
g18
Vprep
p1623
sbag0
(g1
g2
(lp1624
(lp1625
S'word: to, index: 22'
p1626
aatp1627
Rp1628
(dp1629
g18
Vaux
p1630
sbatp1631
Rp1632
(dp1633
g18
S'word: come, index: 23'
p1634
sbatp1635
Rp1636
(dp1637
g18
Vxcomp
p1638
sbatp1639
Rp1640
(dp1641
g18
S'word: going, index: 21'
p1642
sbatp1643
Rp1644
(dp1645
g18
S'id: 8'
p1646
sbag0
(g1
g2
(lp1647
g0
(g1
g2
(lp1648
g0
(g1
g2
(lp1649
(lp1650
S'word: And, index: 1'
p1651
aatp1652
Rp1653
(dp1654
g18
Vcc
p1655
sbag0
(g1
g2
(lp1656
g0
(g1
g2
(lp1657
g0
(g1
g2
(lp1658
(lp1659
S'word: the, index: 15'
p1660
aatp1661
Rp1662
(dp1663
g18
Vdet
p1664
sbag0
(g1
g2
(lp1665
(lp1666
S'word: tie, index: 16'
p1667
aatp1668
Rp1669
(dp1670
g18
Vamod
p1671
sbag0
(g1
g2
(lp1672
(lp1673
S'word: there, index: 18'
p1674
aatp1675
Rp1676
(dp1677
g18
Vadvmod
p1678
sbatp1679
Rp1680
(dp1681
g18
S'word: backs, index: 17'
p1682
sbatp1683
Rp1684
(dp1685
g18
Vdobj
p1686
sbag0
(g1
g2
(lp1687
(lp1688
S'word: what, index: 2'
p1689
aatp1690
Rp1691
(dp1692
g18
Vnsubj
p1693
sbag0
(g1
g2
(lp1694
(lp1695
S'word: sorta, index: 3'
p1696
aatp1697
Rp1698
(dp1699
g18
Vnn
p1700
sbag0
(g1
g2
(lp1701
g0
(g1
g2
(lp1702
g0
(g1
g2
(lp1703
(lp1704
S'word: the, index: 6'
p1705
aatp1706
Rp1707
(dp1708
g18
Vdet
p1709
sbag0
(g1
g2
(lp1710
g0
(g1
g2
(lp1711
g0
(g1
g2
(lp1712
g0
(g1
g2
(lp1713
g0
(g1
g2
(lp1714
(lp1715
S'word: being, index: 11'
p1716
aatp1717
Rp1718
(dp1719
g18
Vauxpass
p1720
sbag0
(g1
g2
(lp1721
(lp1722
S'word: back, index: 13'
p1723
aatp1724
Rp1725
(dp1726
g18
Vadvmod
p1727
sbatp1728
Rp1729
(dp1730
g18
S'word: drawn, index: 12'
p1731
sbatp1732
Rp1733
(dp1734
g18
Vvmod
p1735
sbag0
(g1
g2
(lp1736
(lp1737
S'word: the, index: 9'
p1738
aatp1739
Rp1740
(dp1741
g18
Vdet
p1742
sbatp1743
Rp1744
(dp1745
g18
S'word: curtains, index: 10'
p1746
sbatp1747
Rp1748
(dp1749
g18
Vconj
p1750
sbatp1751
Rp1752
(dp1753
g18
S'word: window, index: 7'
p1754
sbatp1755
Rp1756
(dp1757
g18
Vprep
p1758
sbag0
(g1
g2
(lp1759
g1744
atp1760
Rp1761
(dp1762
g18
Vprep
p1763
sbatp1764
Rp1765
(dp1766
g18
S'word: thing, index: 4'
p1767
sbatp1768
Rp1769
(dp1770
g18
S'id: 9'
p1771
sbag0
(g1
g2
(lp1772
g0
(g1
g2
(lp1773
g0
(g1
g2
(lp1774
(lp1775
S'word: Youve, index: 1'
p1776
aatp1777
Rp1778
(dp1779
g18
Vnsubj
p1780
sbag0
(g1
g2
(lp1781
g0
(g1
g2
(lp1782
g0
(g1
g2
(lp1783
(lp1784
S'word: the, index: 16'
p1785
aatp1786
Rp1787
(dp1788
g18
Vdet
p1789
sbag0
(g1
g2
(lp1790
g0
(g1
g2
(lp1791
g0
(g1
g2
(lp1792
(lp1793
S'word: that, index: 18'
p1794
aatp1795
Rp1796
(dp1797
g18
Vnsubj
p1798
sbag0
(g1
g2
(lp1799
(lp1800
S'word: might, index: 19'
p1801
aatp1802
Rp1803
(dp1804
g18
Vaux
p1805
sbag0
(g1
g2
(lp1806
(lp1807
S'word: there, index: 21'
p1808
aatp1809
Rp1810
(dp1811
g18
Vadvmod
p1812
sbatp1813
Rp1814
(dp1815
g18
S'word: be, index: 20'
p1816
sbatp1817
Rp1818
(dp1819
g18
Vrcmod
p1820
sbatp1821
Rp1822
(dp1823
g18
S'word: sidewalk, index: 17'
p1824
sbatp1825
Rp1826
(dp1827
g18
Vdobj
p1828
sbag0
(g1
g2
(lp1829
(lp1830
S'word: apparently, index: 3'
p1831
aatp1832
Rp1833
(dp1834
g18
Vadvmod
p1835
sbag0
(g1
g2
(lp1836
g0
(g1
g2
(lp1837
g0
(g1
g2
(lp1838
g1822
atp1839
Rp1840
(dp1841
g18
Vconj
p1842
sbag0
(g1
g2
(lp1843
g0
(g1
g2
(lp1844
g0
(g1
g2
(lp1845
(lp1846
S'word: the, index: 6'
p1847
aatp1848
Rp1849
(dp1850
g18
Vdet
p1851
sbag0
(g1
g2
(lp1852
g0
(g1
g2
(lp1853
g0
(g1
g2
(lp1854
(lp1855
S'word: the, index: 9'
p1856
aatp1857
Rp1858
(dp1859
g18
Vdet
p1860
sbatp1861
Rp1862
(dp1863
g18
S'word: house, index: 10'
p1864
sbatp1865
Rp1866
(dp1867
g18
Vprep
p1868
sbatp1869
Rp1870
(dp1871
g18
S'word: walk, index: 7'
p1872
sbatp1873
Rp1874
(dp1875
g18
Vconj
p1876
sbag0
(g1
g2
(lp1877
g0
(g1
g2
(lp1878
g0
(g1
g2
(lp1879
(lp1880
S'word: the, index: 12'
p1881
aatp1882
Rp1883
(dp1884
g18
Vdet
p1885
sbatp1886
Rp1887
(dp1888
g18
S'word: path, index: 13'
p1889
sbatp1890
Rp1891
(dp1892
g18
Vconj
p1893
sbatp1894
Rp1895
(dp1896
g18
S'word: the, index: 4'
p1897
sbatp1898
Rp1899
(dp1900
g18
Vdobj
p1901
sbag0
(g1
g2
(lp1902
g1870
atp1903
Rp1904
(dp1905
g18
Vdobj
p1906
sbag0
(g1
g2
(lp1907
g1887
atp1908
Rp1909
(dp1910
g18
Vdobj
p1911
sbatp1912
Rp1913
(dp1914
g18
S'word: got, index: 2'
p1915
sbatp1916
Rp1917
(dp1918
g18
S'id: 10'
p1919
sbag0
(g1
g2
(lp1920
g0
(g1
g2
(lp1921
g0
(g1
g2
(lp1922
g0
(g1
g2
(lp1923
g0
(g1
g2
(lp1924
(lp1925
S'word: a, index: 2'
p1926
aatp1927
Rp1928
(dp1929
g18
Vdet
p1930
sbag0
(g1
g2
(lp1931
(lp1932
S'word: bushes, index: 5'
p1933
aatp1934
Rp1935
(dp1936
g18
Vprep
p1937
sbatp1938
Rp1939
(dp1940
g18
S'word: couple, index: 3'
p1941
sbatp1942
Rp1943
(dp1944
g18
Vdobj
p1945
sbag0
(g1
g2
(lp1946
g0
(g1
g2
(lp1947
g0
(g1
g2
(lp1948
(lp1949
S'word: the, index: 7'
p1950
aatp1951
Rp1952
(dp1953
g18
Vdet
p1954
sbatp1955
Rp1956
(dp1957
g18
S'word: yard, index: 8'
p1958
sbatp1959
Rp1960
(dp1961
g18
Vprep
p1962
sbatp1963
Rp1964
(dp1965
g18
S'word: Got, index: 1'
p1966
sbatp1967
Rp1968
(dp1969
g18
S'id: 11'
p1970
sbag0
(g1
g2
(lp1971
g0
(g1
g2
(lp1972
g0
(g1
g2
(lp1973
g0
(g1
g2
(lp1974
g0
(g1
g2
(lp1975
(lp1976
S'word: high, index: 5'
p1977
aatp1978
Rp1979
(dp1980
g18
Vamod
p1981
sbatp1982
Rp1983
(dp1984
g18
S'word: heels, index: 6'
p1985
sbatp1986
Rp1987
(dp1988
g18
Vdobj
p1989
sbag0
(g1
g2
(lp1990
g0
(g1
g2
(lp1991
g0
(g1
g2
(lp1992
(lp1993
S'word: the, index: 8'
p1994
aatp1995
Rp1996
(dp1997
g18
Vdet
p1998
sbag0
(g1
g2
(lp1999
g0
(g1
g2
(lp2000
g0
(g1
g2
(lp2001
g0
(g1
g2
(lp2002
g0
(g1
g2
(lp2003
g0
(g1
g2
(lp2004
g0
(g1
g2
(lp2005
(lp2006
S'word: whatever, index: 22'
p2007
aatp2008
Rp2009
(dp2010
g18
Vdobj
p2011
sbag0
(g1
g2
(lp2012
(lp2013
S'word: that, index: 23'
p2014
aatp2015
Rp2016
(dp2017
g18
Vnsubj
p2018
sbag0
(g1
g2
(lp2019
g0
(g1
g2
(lp2020
g0
(g1
g2
(lp2021
(lp2022
S'word: shes, index: 26'
p2023
aatp2024
Rp2025
(dp2026
g18
Vnsubj
p2027
sbag0
(g1
g2
(lp2028
g0
(g1
g2
(lp2029
g0
(g1
g2
(lp2030
(lp2031
S'word: an, index: 28'
p2032
aatp2033
Rp2034
(dp2035
g18
Vdet
p2036
sbatp2037
Rp2038
(dp2039
g18
S'word: apron, index: 29'
p2040
sbatp2041
Rp2042
(dp2043
g18
Vdobj
p2044
sbatp2045
Rp2046
(dp2047
g18
S'word: wearing, index: 27'
p2048
sbatp2049
Rp2050
(dp2051
g18
Vdep
p2052
sbatp2053
Rp2054
(dp2055
g18
S'word: is, index: 24'
p2056
sbatp2057
Rp2058
(dp2059
g18
Vrcmod
p2060
sbag0
(g1
g2
(lp2061
(lp2062
S'word: a, index: 18'
p2063
aatp2064
Rp2065
(dp2066
g18
Vdet
p2067
sbag0
(g1
g2
(lp2068
(lp2069
S'word: blouse, index: 19'
p2070
aatp2071
Rp2072
(dp2073
g18
Vnn
p2074
sbatp2075
Rp2076
(dp2077
g18
S'word: dress, index: 20'
p2078
sbatp2079
Rp2080
(dp2081
g18
Vdobj
p2082
sbag0
(g1
g2
(lp2083
g0
(g1
g2
(lp2084
g0
(g1
g2
(lp2085
g2076
atp2086
Rp2087
(dp2088
g18
Vconj
p2089
sbag0
(g1
g2
(lp2090
g0
(g1
g2
(lp2091
g0
(g1
g2
(lp2092
(lp2093
S'word: a, index: 13'
p2094
aatp2095
Rp2096
(dp2097
g18
Vdet
p2098
sbag0
(g1
g2
(lp2099
(lp2100
S'word: sleeveless, index: 14'
p2101
aatp2102
Rp2103
(dp2104
g18
Vamod
p2105
sbatp2106
Rp2107
(dp2108
g18
S'word: shirt, index: 15'
p2109
sbatp2110
Rp2111
(dp2112
g18
Vconj
p2113
sbatp2114
Rp2115
(dp2116
g18
S'word: dishes, index: 11'
p2117
sbatp2118
Rp2119
(dp2120
g18
Vdobj
p2121
sbag0
(g1
g2
(lp2122
g2107
atp2123
Rp2124
(dp2125
g18
Vdobj
p2126
sbatp2127
Rp2128
(dp2129
g18
S'word: doing, index: 10'
p2130
sbatp2131
Rp2132
(dp2133
g18
Vvmod
p2134
sbatp2135
Rp2136
(dp2137
g18
S'word: sink, index: 9'
p2138
sbatp2139
Rp2140
(dp2141
g18
Vprep
p2142
sbag0
(g1
g2
(lp2143
(lp2144
S'word: And, index: 1'
p2145
aatp2146
Rp2147
(dp2148
g18
Vcc
p2149
sbag0
(g1
g2
(lp2150
(lp2151
S'word: she, index: 2'
p2152
aatp2153
Rp2154
(dp2155
g18
Vnsubj
p2156
sbag0
(g1
g2
(lp2157
(lp2158
S"word: 's, index: 3"
p2159
aatp2160
Rp2161
(dp2162
g18
Vaux
p2163
sbatp2164
Rp2165
(dp2166
g18
S'word: wearing, index: 4'
p2167
sbatp2168
Rp2169
(dp2170
g18
S'id: 12'
p2171
sbatp2172
Rp2173
(dp2174
g18
S'sentences'
p2175
sb.