ccopy_reg
_reconstructor
p0
(cnltk.tree
Tree
p1
c__builtin__
list
p2
(lp3
g0
(g1
g2
(lp4
g0
(g1
g2
(lp5
g0
(g1
g2
(lp6
g0
(g1
g2
(lp7
Vo
p8
atp9
Rp10
(dp11
S'_label'
p12
VNN
p13
sbag0
(g1
g2
(lp14
Vlook
p15
atp16
Rp17
(dp18
g12
VNN
p19
sbatp20
Rp21
(dp22
g12
VNP
p23
sbag0
(g1
g2
(lp24
g0
(g1
g2
(lp25
Vat
p26
atp27
Rp28
(dp29
g12
VIN
p30
sbag0
(g1
g2
(lp31
g0
(g1
g2
(lp32
Vthat
p33
atp34
Rp35
(dp36
g12
VDT
p37
sbatp38
Rp39
(dp40
g12
VNP
p41
sbatp42
Rp43
(dp44
g12
VPP
p45
sbag0
(g1
g2
(lp46
g0
(g1
g2
(lp47
Vagain
p48
atp49
Rp50
(dp51
g12
VRB
p52
sbatp53
Rp54
(dp55
g12
VADVP
p56
sbag0
(g1
g2
(lp57
V.
p58
atp59
Rp60
(dp61
g12
V.
p62
sbatp63
Rp64
(dp65
g12
VNP
p66
sbatp67
Rp68
(dp69
g12
S'id: 0'
p70
sbag0
(g1
g2
(lp71
g0
(g1
g2
(lp72
g0
(g1
g2
(lp73
VOk
p74
atp75
Rp76
(dp77
g12
VNN
p78
sbag0
(g1
g2
(lp79
V.
p80
atp81
Rp82
(dp83
g12
V.
p84
sbatp85
Rp86
(dp87
g12
VNP
p88
sbatp89
Rp90
(dp91
g12
S'id: 1'
p92
sbag0
(g1
g2
(lp93
g0
(g1
g2
(lp94
g0
(g1
g2
(lp95
g0
(g1
g2
(lp96
Vlet
p97
atp98
Rp99
(dp100
g12
VVB
p101
sbag0
(g1
g2
(lp102
g0
(g1
g2
(lp103
g0
(g1
g2
(lp104
V's
p105
atp106
Rp107
(dp108
g12
VPOS
p109
sbatp110
Rp111
(dp112
g12
VNP
p113
sbag0
(g1
g2
(lp114
g0
(g1
g2
(lp115
Vsee
p116
atp117
Rp118
(dp119
g12
VVB
p120
sbag0
(g1
g2
(lp121
g0
(g1
g2
(lp122
Vhere
p123
atp124
Rp125
(dp126
g12
VRB
p127
sbatp128
Rp129
(dp130
g12
VADVP
p131
sbatp132
Rp133
(dp134
g12
VVP
p135
sbatp136
Rp137
(dp138
g12
VS
p139
sbatp140
Rp141
(dp142
g12
VVP
p143
sbag0
(g1
g2
(lp144
V.
p145
atp146
Rp147
(dp148
g12
V.
p149
sbatp150
Rp151
(dp152
g12
VS
p153
sbatp154
Rp155
(dp156
g12
S'id: 2'
p157
sbag0
(g1
g2
(lp158
g0
(g1
g2
(lp159
g0
(g1
g2
(lp160
g0
(g1
g2
(lp161
g0
(g1
g2
(lp162
VOk
p163
atp164
Rp165
(dp166
g12
VNNP
p167
sbatp168
Rp169
(dp170
g12
VNP
p171
sbag0
(g1
g2
(lp172
g0
(g1
g2
(lp173
V,
p174
atp175
Rp176
(dp177
g12
V,
p178
sbag0
(g1
g2
(lp179
g0
(g1
g2
(lp180
g0
(g1
g2
(lp181
Vi
p182
atp183
Rp184
(dp185
g12
VFW
p186
sbatp187
Rp188
(dp189
g12
VNP
p190
sbag0
(g1
g2
(lp191
g0
(g1
g2
(lp192
Vcan
p193
atp194
Rp195
(dp196
g12
VMD
p197
sbag0
(g1
g2
(lp198
g0
(g1
g2
(lp199
g0
(g1
g2
(lp200
Vgo
p201
atp202
Rp203
(dp204
g12
VVB
p205
sbag0
(g1
g2
(lp206
g0
(g1
g2
(lp207
Vback
p208
atp209
Rp210
(dp211
g12
VRB
p212
sbatp213
Rp214
(dp215
g12
VADVP
p216
sbatp217
Rp218
(dp219
g12
VVP
p220
sbag0
(g1
g2
(lp221
Vand
p222
atp223
Rp224
(dp225
g12
VCC
p226
sbag0
(g1
g2
(lp227
g0
(g1
g2
(lp228
Vmake
p229
atp230
Rp231
(dp232
g12
VVB
p233
sbag0
(g1
g2
(lp234
g0
(g1
g2
(lp235
Vthat
p236
atp237
Rp238
(dp239
g12
VDT
p240
sbag0
(g1
g2
(lp241
Vboy
p242
atp243
Rp244
(dp245
g12
VNN
p246
sbatp247
Rp248
(dp249
g12
VNP
p250
sbatp251
Rp252
(dp253
g12
VVP
p254
sbatp255
Rp256
(dp257
g12
VVP
p258
sbatp259
Rp260
(dp261
g12
VVP
p262
sbatp263
Rp264
(dp265
g12
VS
p266
sbatp267
Rp268
(dp269
g12
VPRN
p270
sbag0
(g1
g2
(lp271
g0
(g1
g2
(lp272
Vis
p273
atp274
Rp275
(dp276
g12
VVBZ
p277
sbag0
(g1
g2
(lp278
g0
(g1
g2
(lp279
Vreading
p280
atp281
Rp282
(dp283
g12
VVBG
p284
sbag0
(g1
g2
(lp285
g0
(g1
g2
(lp286
Va
p287
atp288
Rp289
(dp290
g12
VDT
p291
sbag0
(g1
g2
(lp292
Vbook
p293
atp294
Rp295
(dp296
g12
VNN
p297
sbatp298
Rp299
(dp300
g12
VNP
p301
sbatp302
Rp303
(dp304
g12
VVP
p305
sbatp306
Rp307
(dp308
g12
VVP
p309
sbatp310
Rp311
(dp312
g12
VS
p313
sbag0
(g1
g2
(lp314
V,
p315
atp316
Rp317
(dp318
g12
V,
p319
sbag0
(g1
g2
(lp320
Vand
p321
atp322
Rp323
(dp324
g12
VCC
p325
sbag0
(g1
g2
(lp326
g0
(g1
g2
(lp327
g0
(g1
g2
(lp328
Vthe
p329
atp330
Rp331
(dp332
g12
VDT
p333
sbag0
(g1
g2
(lp334
Vgirl
p335
atp336
Rp337
(dp338
g12
VNN
p339
sbatp340
Rp341
(dp342
g12
VNP
p343
sbag0
(g1
g2
(lp344
g0
(g1
g2
(lp345
Vis
p346
atp347
Rp348
(dp349
g12
VVBZ
p350
sbag0
(g1
g2
(lp351
g0
(g1
g2
(lp352
Vpouring
p353
atp354
Rp355
(dp356
g12
VVBG
p357
sbag0
(g1
g2
(lp358
g0
(g1
g2
(lp359
Vwine
p360
atp361
Rp362
(dp363
g12
VNN
p364
sbatp365
Rp366
(dp367
g12
VNP
p368
sbatp369
Rp370
(dp371
g12
VVP
p372
sbatp373
Rp374
(dp375
g12
VVP
p376
sbatp377
Rp378
(dp379
g12
VS
p380
sbag0
(g1
g2
(lp381
V.
p382
atp383
Rp384
(dp385
g12
V.
p386
sbatp387
Rp388
(dp389
g12
VS
p390
sbatp391
Rp392
(dp393
g12
S'id: 3'
p394
sbag0
(g1
g2
(lp395
g0
(g1
g2
(lp396
g0
(g1
g2
(lp397
VAnd
p398
atp399
Rp400
(dp401
g12
VCC
p402
sbag0
(g1
g2
(lp403
g0
(g1
g2
(lp404
g0
(g1
g2
(lp405
Vthey
p406
atp407
Rp408
(dp409
g12
VPRP
p410
sbatp411
Rp412
(dp413
g12
VNP
p414
sbag0
(g1
g2
(lp415
g0
(g1
g2
(lp416
Vhave
p417
atp418
Rp419
(dp420
g12
VVBP
p421
sbatp422
Rp423
(dp424
g12
VVP
p425
sbatp426
Rp427
(dp428
g12
VS
p429
sbag0
(g1
g2
(lp430
g0
(g1
g2
(lp431
V,
p432
atp433
Rp434
(dp435
g12
V,
p436
sbag0
(g1
g2
(lp437
g0
(g1
g2
(lp438
g0
(g1
g2
(lp439
Vhe
p440
atp441
Rp442
(dp443
g12
VPRP
p444
sbatp445
Rp446
(dp447
g12
VNP
p448
sbag0
(g1
g2
(lp449
g0
(g1
g2
(lp450
Vhas
p451
atp452
Rp453
(dp454
g12
VVBZ
p455
sbag0
(g1
g2
(lp456
g0
(g1
g2
(lp457
Vhis
p458
atp459
Rp460
(dp461
g12
VPRP$
p462
sbag0
(g1
g2
(lp463
Vshoes
p464
atp465
Rp466
(dp467
g12
VNNS
p468
sbatp469
Rp470
(dp471
g12
VNP
p472
sbag0
(g1
g2
(lp473
g0
(g1
g2
(lp474
Voff
p475
atp476
Rp477
(dp478
g12
VRP
p479
sbatp480
Rp481
(dp482
g12
VPP
p483
sbatp484
Rp485
(dp486
g12
VVP
p487
sbatp488
Rp489
(dp490
g12
VS
p491
sbag0
(g1
g2
(lp492
V,
p493
atp494
Rp495
(dp496
g12
V,
p497
sbatp498
Rp499
(dp500
g12
VPRN
p501
sbag0
(g1
g2
(lp502
Vand
p503
atp504
Rp505
(dp506
g12
VCC
p507
sbag0
(g1
g2
(lp508
g0
(g1
g2
(lp509
g0
(g1
g2
(lp510
g0
(g1
g2
(lp511
Vhe
p512
atp513
Rp514
(dp515
g12
VPRP
p516
sbatp517
Rp518
(dp519
g12
VNP
p520
sbag0
(g1
g2
(lp521
g0
(g1
g2
(lp522
Vhas
p523
atp524
Rp525
(dp526
g12
VVBZ
p527
sbag0
(g1
g2
(lp528
g0
(g1
g2
(lp529
g0
(g1
g2
(lp530
g0
(g1
g2
(lp531
Va
p532
atp533
Rp534
(dp535
g12
VDT
p536
sbag0
(g1
g2
(lp537
Vwire
p538
atp539
Rp540
(dp541
g12
VNN
p542
sbatp543
Rp544
(dp545
g12
VNP
p546
sbag0
(g1
g2
(lp547
V,
p548
atp549
Rp550
(dp551
g12
V,
p552
sbag0
(g1
g2
(lp553
g0
(g1
g2
(lp554
g0
(g1
g2
(lp555
Va
p556
atp557
Rp558
(dp559
g12
VDT
p560
sbag0
(g1
g2
(lp561
Vphone
p562
atp563
Rp564
(dp565
g12
VNN
p566
sbatp567
Rp568
(dp569
g12
VNP
p570
sbag0
(g1
g2
(lp571
Vthere
p572
atp573
Rp574
(dp575
g12
VRB
p576
sbatp577
Rp578
(dp579
g12
VADVP
p580
sbatp581
Rp582
(dp583
g12
VNP
p584
sbag0
(g1
g2
(lp585
V,
p586
atp587
Rp588
(dp589
g12
V,
p590
sbag0
(g1
g2
(lp591
g0
(g1
g2
(lp592
Va
p593
atp594
Rp595
(dp596
g12
VDT
p597
sbag0
(g1
g2
(lp598
Vtelephone
p599
atp600
Rp601
(dp602
g12
VNN
p603
sbatp604
Rp605
(dp606
g12
VNP
p607
sbag0
(g1
g2
(lp608
V,
p609
atp610
Rp611
(dp612
g12
V,
p613
sbag0
(g1
g2
(lp614
g0
(g1
g2
(lp615
Vnot
p616
atp617
Rp618
(dp619
g12
VRB
p620
sbag0
(g1
g2
(lp621
g0
(g1
g2
(lp622
Va
p623
atp624
Rp625
(dp626
g12
VDT
p627
sbag0
(g1
g2
(lp628
Vtelephone
p629
atp630
Rp631
(dp632
g12
VNN
p633
sbatp634
Rp635
(dp636
g12
VNP
p637
sbatp638
Rp639
(dp640
g12
VADVP
p641
sbatp642
Rp643
(dp644
g12
VNP
p645
sbatp646
Rp647
(dp648
g12
VVP
p649
sbatp650
Rp651
(dp652
g12
VS
p653
sbag0
(g1
g2
(lp654
V,
p655
atp656
Rp657
(dp658
g12
V,
p659
sbag0
(g1
g2
(lp660
Vbut
p661
atp662
Rp663
(dp664
g12
VCC
p665
sbag0
(g1
g2
(lp666
g0
(g1
g2
(lp667
g0
(g1
g2
(lp668
VI
p669
atp670
Rp671
(dp672
g12
VPRP
p673
sbatp674
Rp675
(dp676
g12
VNP
p677
sbag0
(g1
g2
(lp678
g0
(g1
g2
(lp679
Vca
p680
atp681
Rp682
(dp683
g12
VMD
p684
sbag0
(g1
g2
(lp685
Vn't
p686
atp687
Rp688
(dp689
g12
VRB
p690
sbag0
(g1
g2
(lp691
g0
(g1
g2
(lp692
Vthink
p693
atp694
Rp695
(dp696
g12
VVB
p697
sbag0
(g1
g2
(lp698
g0
(g1
g2
(lp699
Vof
p700
atp701
Rp702
(dp703
g12
VIN
p704
sbag0
(g1
g2
(lp705
g0
(g1
g2
(lp706
Vit
p707
atp708
Rp709
(dp710
g12
VPRP
p711
sbatp712
Rp713
(dp714
g12
VNP
p715
sbatp716
Rp717
(dp718
g12
VPP
p719
sbatp720
Rp721
(dp722
g12
VVP
p723
sbatp724
Rp725
(dp726
g12
VVP
p727
sbatp728
Rp729
(dp730
g12
VS
p731
sbatp732
Rp733
(dp734
g12
VS
p735
sbag0
(g1
g2
(lp736
V.
p737
atp738
Rp739
(dp740
g12
V.
p741
sbatp742
Rp743
(dp744
g12
VS
p745
sbatp746
Rp747
(dp748
g12
S'id: 4'
p749
sbag0
(g1
g2
(lp750
g0
(g1
g2
(lp751
g0
(g1
g2
(lp752
g0
(g1
g2
(lp753
g0
(g1
g2
(lp754
VIt
p755
atp756
Rp757
(dp758
g12
VPRP
p759
sbatp760
Rp761
(dp762
g12
VNP
p763
sbag0
(g1
g2
(lp764
g0
(g1
g2
(lp765
V's
p766
atp767
Rp768
(dp769
g12
VVBZ
p770
sbag0
(g1
g2
(lp771
g0
(g1
g2
(lp772
Va
p773
atp774
Rp775
(dp776
g12
VDT
p777
sbatp778
Rp779
(dp780
g12
VNP
p781
sbatp782
Rp783
(dp784
g12
VVP
p785
sbatp786
Rp787
(dp788
g12
VS
p789
sbag0
(g1
g2
(lp790
V,
p791
atp792
Rp793
(dp794
g12
V,
p795
sbag0
(g1
g2
(lp796
g0
(g1
g2
(lp797
g0
(g1
g2
(lp798
Vit
p799
atp800
Rp801
(dp802
g12
VPRP
p803
sbatp804
Rp805
(dp806
g12
VNP
p807
sbag0
(g1
g2
(lp808
g0
(g1
g2
(lp809
V's
p810
atp811
Rp812
(dp813
g12
VVBZ
p814
sbag0
(g1
g2
(lp815
g0
(g1
g2
(lp816
Va
p817
atp818
Rp819
(dp820
g12
VDT
p821
sbatp822
Rp823
(dp824
g12
VNP
p825
sbatp826
Rp827
(dp828
g12
VVP
p829
sbatp830
Rp831
(dp832
g12
VS
p833
sbag0
(g1
g2
(lp834
V,
p835
atp836
Rp837
(dp838
g12
V,
p839
sbag0
(g1
g2
(lp840
g0
(g1
g2
(lp841
g0
(g1
g2
(lp842
Vit
p843
atp844
Rp845
(dp846
g12
VPRP
p847
sbatp848
Rp849
(dp850
g12
VNP
p851
sbag0
(g1
g2
(lp852
g0
(g1
g2
(lp853
Vmakes
p854
atp855
Rp856
(dp857
g12
VVBZ
p858
sbag0
(g1
g2
(lp859
g0
(g1
g2
(lp860
g0
(g1
g2
(lp861
Vmusic
p862
atp863
Rp864
(dp865
g12
VNN
p866
sbatp867
Rp868
(dp869
g12
VNP
p870
sbag0
(g1
g2
(lp871
V,
p872
atp873
Rp874
(dp875
g12
V,
p876
sbag0
(g1
g2
(lp877
g0
(g1
g2
(lp878
Vok
p879
atp880
Rp881
(dp882
g12
VNN
p883
sbatp884
Rp885
(dp886
g12
VNP
p887
sbatp888
Rp889
(dp890
g12
VNP
p891
sbatp892
Rp893
(dp894
g12
VVP
p895
sbatp896
Rp897
(dp898
g12
VS
p899
sbag0
(g1
g2
(lp900
V.
p901
atp902
Rp903
(dp904
g12
V.
p905
sbatp906
Rp907
(dp908
g12
VS
p909
sbatp910
Rp911
(dp912
g12
S'id: 5'
p913
sbag0
(g1
g2
(lp914
g0
(g1
g2
(lp915
g0
(g1
g2
(lp916
VAnd
p917
atp918
Rp919
(dp920
g12
VCC
p921
sbag0
(g1
g2
(lp922
g0
(g1
g2
(lp923
g0
(g1
g2
(lp924
Va
p925
atp926
Rp927
(dp928
g12
VDT
p929
sbag0
(g1
g2
(lp930
Vlittle
p931
atp932
Rp933
(dp934
g12
VJJ
p935
sbag0
(g1
g2
(lp936
V,
p937
atp938
Rp939
(dp940
g12
V,
p941
sbag0
(g1
g2
(lp942
Vlittle
p943
atp944
Rp945
(dp946
g12
VJJ
p947
sbag0
(g1
g2
(lp948
V,
p949
atp950
Rp951
(dp952
g12
V,
p953
sbag0
(g1
g2
(lp954
Vlitte
p955
atp956
Rp957
(dp958
g12
VJJ
p959
sbag0
(g1
g2
(lp960
Vguy
p961
atp962
Rp963
(dp964
g12
VNN
p965
sbatp966
Rp967
(dp968
g12
VNP
p969
sbag0
(g1
g2
(lp970
V,
p971
atp972
Rp973
(dp974
g12
V,
p975
sbag0
(g1
g2
(lp976
g0
(g1
g2
(lp977
Vthe
p978
atp979
Rp980
(dp981
g12
VDT
p982
sbag0
(g1
g2
(lp983
Vlittle
p984
atp985
Rp986
(dp987
g12
VJJ
p988
sbag0
(g1
g2
(lp989
Vfellow
p990
atp991
Rp992
(dp993
g12
VNN
p994
sbatp995
Rp996
(dp997
g12
VNP
p998
sbag0
(g1
g2
(lp999
V,
p1000
atp1001
Rp1002
(dp1003
g12
V,
p1004
sbatp1005
Rp1006
(dp1007
g12
VNP
p1008
sbag0
(g1
g2
(lp1009
g0
(g1
g2
(lp1010
Vis
p1011
atp1012
Rp1013
(dp1014
g12
VVBZ
p1015
sbag0
(g1
g2
(lp1016
g0
(g1
g2
(lp1017
g0
(g1
g2
(lp1018
Vthe
p1019
atp1020
Rp1021
(dp1022
g12
VDT
p1023
sbatp1024
Rp1025
(dp1026
g12
VNP
p1027
sbag0
(g1
g2
(lp1028
g0
(g1
g2
(lp1029
g0
(g1
g2
(lp1030
g0
(g1
g2
(lp1031
Vis
p1032
atp1033
Rp1034
(dp1035
g12
VVBZ
p1036
sbag0
(g1
g2
(lp1037
g0
(g1
g2
(lp1038
g0
(g1
g2
(lp1039
Vthe
p1040
atp1041
Rp1042
(dp1043
g12
VDT
p1044
sbag0
(g1
g2
(lp1045
Vlittle
p1046
atp1047
Rp1048
(dp1049
g12
VJJ
p1050
sbag0
(g1
g2
(lp1051
V,
p1052
atp1053
Rp1054
(dp1055
g12
V,
p1056
sbag0
(g1
g2
(lp1057
Vlittle
p1058
atp1059
Rp1060
(dp1061
g12
VJJ
p1062
sbag0
(g1
g2
(lp1063
Vdog
p1064
atp1065
Rp1066
(dp1067
g12
VNN
p1068
sbatp1069
Rp1070
(dp1071
g12
VNP
p1072
sbag0
(g1
g2
(lp1073
V,
p1074
atp1075
Rp1076
(dp1077
g12
V,
p1078
sbag0
(g1
g2
(lp1079
g0
(g1
g2
(lp1080
Vfollowing
p1081
atp1082
Rp1083
(dp1084
g12
VVBG
p1085
sbag0
(g1
g2
(lp1086
g0
(g1
g2
(lp1087
g0
(g1
g2
(lp1088
Vthe
p1089
atp1090
Rp1091
(dp1092
g12
VDT
p1093
sbag0
(g1
g2
(lp1094
Vfellow
p1095
atp1096
Rp1097
(dp1098
g12
VNN
p1099
sbatp1100
Rp1101
(dp1102
g12
VNP
p1103
sbag0
(g1
g2
(lp1104
g0
(g1
g2
(lp1105
g0
(g1
g2
(lp1106
Vthat
p1107
atp1108
Rp1109
(dp1110
g12
VWDT
p1111
sbatp1112
Rp1113
(dp1114
g12
VWHNP
p1115
sbag0
(g1
g2
(lp1116
g0
(g1
g2
(lp1117
g0
(g1
g2
(lp1118
V's
p1119
atp1120
Rp1121
(dp1122
g12
VVBZ
p1123
sbag0
(g1
g2
(lp1124
g0
(g1
g2
(lp1125
Vpulling
p1126
atp1127
Rp1128
(dp1129
g12
VVBG
p1130
sbag0
(g1
g2
(lp1131
g0
(g1
g2
(lp1132
Vthe
p1133
atp1134
Rp1135
(dp1136
g12
VDT
p1137
sbag0
(g1
g2
(lp1138
Vflag
p1139
atp1140
Rp1141
(dp1142
g12
VNN
p1143
sbatp1144
Rp1145
(dp1146
g12
VNP
p1147
sbatp1148
Rp1149
(dp1150
g12
VVP
p1151
sbatp1152
Rp1153
(dp1154
g12
VVP
p1155
sbatp1156
Rp1157
(dp1158
g12
VS
p1159
sbatp1160
Rp1161
(dp1162
g12
VSBAR
p1163
sbatp1164
Rp1165
(dp1166
g12
VNP
p1167
sbatp1168
Rp1169
(dp1170
g12
VPP
p1171
sbatp1172
Rp1173
(dp1174
g12
VNP
p1175
sbatp1176
Rp1177
(dp1178
g12
VVP
p1179
sbatp1180
Rp1181
(dp1182
g12
VS
p1183
sbatp1184
Rp1185
(dp1186
g12
VSBAR
p1187
sbatp1188
Rp1189
(dp1190
g12
VNP
p1191
sbatp1192
Rp1193
(dp1194
g12
VVP
p1195
sbag0
(g1
g2
(lp1196
V.
p1197
atp1198
Rp1199
(dp1200
g12
V.
p1201
sbatp1202
Rp1203
(dp1204
g12
VS
p1205
sbatp1206
Rp1207
(dp1208
g12
S'id: 6'
p1209
sbag0
(g1
g2
(lp1210
g0
(g1
g2
(lp1211
g0
(g1
g2
(lp1212
g0
(g1
g2
(lp1213
VHe
p1214
atp1215
Rp1216
(dp1217
g12
VPRP
p1218
sbatp1219
Rp1220
(dp1221
g12
VNP
p1222
sbag0
(g1
g2
(lp1223
g0
(g1
g2
(lp1224
Vis
p1225
atp1226
Rp1227
(dp1228
g12
VVBZ
p1229
sbag0
(g1
g2
(lp1230
g0
(g1
g2
(lp1231
Vhappy
p1232
atp1233
Rp1234
(dp1235
g12
VJJ
p1236
sbatp1237
Rp1238
(dp1239
g12
VADJP
p1240
sbag0
(g1
g2
(lp1241
g0
(g1
g2
(lp1242
Vas
p1243
atp1244
Rp1245
(dp1246
g12
VIN
p1247
sbag0
(g1
g2
(lp1248
g0
(g1
g2
(lp1249
g0
(g1
g2
(lp1250
Vhe
p1251
atp1252
Rp1253
(dp1254
g12
VPRP
p1255
sbatp1256
Rp1257
(dp1258
g12
VNP
p1259
sbag0
(g1
g2
(lp1260
g0
(g1
g2
(lp1261
Vcan
p1262
atp1263
Rp1264
(dp1265
g12
VMD
p1266
sbag0
(g1
g2
(lp1267
g0
(g1
g2
(lp1268
Vbe
p1269
atp1270
Rp1271
(dp1272
g12
VVB
p1273
sbag0
(g1
g2
(lp1274
g0
(g1
g2
(lp1275
g0
(g1
g2
(lp1276
Vtoo
p1277
atp1278
Rp1279
(dp1280
g12
VRB
p1281
sbatp1282
Rp1283
(dp1284
g12
VADVP
p1285
sbag0
(g1
g2
(lp1286
Vgetting
p1287
atp1288
Rp1289
(dp1290
g12
VVBG
p1291
sbag0
(g1
g2
(lp1292
g0
(g1
g2
(lp1293
g0
(g1
g2
(lp1294
Vit
p1295
atp1296
Rp1297
(dp1298
g12
VPRP
p1299
sbatp1300
Rp1301
(dp1302
g12
VNP
p1303
sbag0
(g1
g2
(lp1304
g0
(g1
g2
(lp1305
Vdone
p1306
atp1307
Rp1308
(dp1309
g12
VVBN
p1310
sbatp1311
Rp1312
(dp1313
g12
VVP
p1314
sbatp1315
Rp1316
(dp1317
g12
VS
p1318
sbatp1319
Rp1320
(dp1321
g12
VVP
p1322
sbatp1323
Rp1324
(dp1325
g12
VVP
p1326
sbatp1327
Rp1328
(dp1329
g12
VVP
p1330
sbatp1331
Rp1332
(dp1333
g12
VS
p1334
sbatp1335
Rp1336
(dp1337
g12
VSBAR
p1338
sbatp1339
Rp1340
(dp1341
g12
VVP
p1342
sbag0
(g1
g2
(lp1343
V.
p1344
atp1345
Rp1346
(dp1347
g12
V.
p1348
sbatp1349
Rp1350
(dp1351
g12
VS
p1352
sbatp1353
Rp1354
(dp1355
g12
S'id: 7'
p1356
sbag0
(g1
g2
(lp1357
g0
(g1
g2
(lp1358
g0
(g1
g2
(lp1359
g0
(g1
g2
(lp1360
g0
(g1
g2
(lp1361
VThere
p1362
atp1363
Rp1364
(dp1365
g12
VEX
p1366
sbatp1367
Rp1368
(dp1369
g12
VNP
p1370
sbag0
(g1
g2
(lp1371
g0
(g1
g2
(lp1372
V's
p1373
atp1374
Rp1375
(dp1376
g12
VVBZ
p1377
sbag0
(g1
g2
(lp1378
g0
(g1
g2
(lp1379
g0
(g1
g2
(lp1380
Va
p1381
atp1382
Rp1383
(dp1384
g12
VDT
p1385
sbag0
(g1
g2
(lp1386
Vfellow
p1387
atp1388
Rp1389
(dp1390
g12
VNN
p1391
sbatp1392
Rp1393
(dp1394
g12
VNP
p1395
sbag0
(g1
g2
(lp1396
g0
(g1
g2
(lp1397
Vout
p1398
atp1399
Rp1400
(dp1401
g12
VIN
p1402
sbag0
(g1
g2
(lp1403
g0
(g1
g2
(lp1404
g0
(g1
g2
(lp1405
Vthere
p1406
atp1407
Rp1408
(dp1409
g12
VRB
p1410
sbatp1411
Rp1412
(dp1413
g12
VNP
p1414
sbag0
(g1
g2
(lp1415
V,
p1416
atp1417
Rp1418
(dp1419
g12
V,
p1420
sbag0
(g1
g2
(lp1421
g0
(g1
g2
(lp1422
g0
(g1
g2
(lp1423
Vo
p1424
atp1425
Rp1426
(dp1427
g12
VNN
p1428
sbatp1429
Rp1430
(dp1431
g12
VNP
p1432
sbag0
(g1
g2
(lp1433
g0
(g1
g2
(lp1434
g0
(g1
g2
(lp1435
g0
(g1
g2
(lp1436
Vhe
p1437
atp1438
Rp1439
(dp1440
g12
VPRP
p1441
sbatp1442
Rp1443
(dp1444
g12
VNP
p1445
sbag0
(g1
g2
(lp1446
g0
(g1
g2
(lp1447
V's
p1448
atp1449
Rp1450
(dp1451
g12
VVBZ
p1452
sbag0
(g1
g2
(lp1453
V,
p1454
atp1455
Rp1456
(dp1457
g12
V,
p1458
sbag0
(g1
g2
(lp1459
g0
(g1
g2
(lp1460
g0
(g1
g2
(lp1461
g0
(g1
g2
(lp1462
Vo
p1463
atp1464
Rp1465
(dp1466
g12
VNN
p1467
sbatp1468
Rp1469
(dp1470
g12
VNP
p1471
sbag0
(g1
g2
(lp1472
g0
(g1
g2
(lp1473
Vi
p1474
atp1475
Rp1476
(dp1477
g12
VFW
p1478
sbatp1479
Rp1480
(dp1481
g12
VNP
p1482
sbatp1483
Rp1484
(dp1485
g12
VNP
p1486
sbag0
(g1
g2
(lp1487
g0
(g1
g2
(lp1488
Vguess
p1489
atp1490
Rp1491
(dp1492
g12
VNN
p1493
sbag0
(g1
g2
(lp1494
g0
(g1
g2
(lp1495
g0
(g1
g2
(lp1496
g0
(g1
g2
(lp1497
Vhe
p1498
atp1499
Rp1500
(dp1501
g12
VPRP
p1502
sbatp1503
Rp1504
(dp1505
g12
VNP
p1506
sbag0
(g1
g2
(lp1507
g0
(g1
g2
(lp1508
V's
p1509
atp1510
Rp1511
(dp1512
g12
VVBZ
p1513
sbag0
(g1
g2
(lp1514
g0
(g1
g2
(lp1515
Vseen
p1516
atp1517
Rp1518
(dp1519
g12
VVBN
p1520
sbatp1521
Rp1522
(dp1523
g12
VVP
p1524
sbatp1525
Rp1526
(dp1527
g12
VVP
p1528
sbatp1529
Rp1530
(dp1531
g12
VS
p1532
sbatp1533
Rp1534
(dp1535
g12
VSBAR
p1536
sbatp1537
Rp1538
(dp1539
g12
VVP
p1540
sbatp1541
Rp1542
(dp1543
g12
VS
p1544
sbatp1545
Rp1546
(dp1547
g12
VVP
p1548
sbatp1549
Rp1550
(dp1551
g12
VS
p1552
sbatp1553
Rp1554
(dp1555
g12
VSBAR
p1556
sbatp1557
Rp1558
(dp1559
g12
VNP
p1560
sbatp1561
Rp1562
(dp1563
g12
VNP
p1564
sbatp1565
Rp1566
(dp1567
g12
VPP
p1568
sbatp1569
Rp1570
(dp1571
g12
VNP
p1572
sbatp1573
Rp1574
(dp1575
g12
VVP
p1576
sbatp1577
Rp1578
(dp1579
g12
VS
p1580
sbag0
(g1
g2
(lp1581
V,
p1582
atp1583
Rp1584
(dp1585
g12
V,
p1586
sbag0
(g1
g2
(lp1587
g0
(g1
g2
(lp1588
g0
(g1
g2
(lp1589
Vhe
p1590
atp1591
Rp1592
(dp1593
g12
VPRP
p1594
sbatp1595
Rp1596
(dp1597
g12
VNP
p1598
sbag0
(g1
g2
(lp1599
g0
(g1
g2
(lp1600
V's
p1601
atp1602
Rp1603
(dp1604
g12
VVBZ
p1605
sbag0
(g1
g2
(lp1606
g0
(g1
g2
(lp1607
Vgot
p1608
atp1609
Rp1610
(dp1611
g12
VVBD
p1612
sbag0
(g1
g2
(lp1613
g0
(g1
g2
(lp1614
Va
p1615
atp1616
Rp1617
(dp1618
g12
VDT
p1619
sbag0
(g1
g2
(lp1620
Vfish
p1621
atp1622
Rp1623
(dp1624
g12
VNN
p1625
sbatp1626
Rp1627
(dp1628
g12
VNP
p1629
sbatp1630
Rp1631
(dp1632
g12
VVP
p1633
sbatp1634
Rp1635
(dp1636
g12
VVP
p1637
sbatp1638
Rp1639
(dp1640
g12
VS
p1641
sbag0
(g1
g2
(lp1642
V,
p1643
atp1644
Rp1645
(dp1646
g12
V,
p1647
sbag0
(g1
g2
(lp1648
g0
(g1
g2
(lp1649
g0
(g1
g2
(lp1650
Vhe
p1651
atp1652
Rp1653
(dp1654
g12
VPRP
p1655
sbatp1656
Rp1657
(dp1658
g12
VNP
p1659
sbag0
(g1
g2
(lp1660
g0
(g1
g2
(lp1661
V's
p1662
atp1663
Rp1664
(dp1665
g12
VVBZ
p1666
sbag0
(g1
g2
(lp1667
g0
(g1
g2
(lp1668
Vpulled
p1669
atp1670
Rp1671
(dp1672
g12
VVBN
p1673
sbag0
(g1
g2
(lp1674
g0
(g1
g2
(lp1675
Vup
p1676
atp1677
Rp1678
(dp1679
g12
VRP
p1680
sbatp1681
Rp1682
(dp1683
g12
VPRT
p1684
sbag0
(g1
g2
(lp1685
g0
(g1
g2
(lp1686
Va
p1687
atp1688
Rp1689
(dp1690
g12
VDT
p1691
sbag0
(g1
g2
(lp1692
Vfish
p1693
atp1694
Rp1695
(dp1696
g12
VNN
p1697
sbatp1698
Rp1699
(dp1700
g12
VNP
p1701
sbatp1702
Rp1703
(dp1704
g12
VVP
p1705
sbatp1706
Rp1707
(dp1708
g12
VVP
p1709
sbatp1710
Rp1711
(dp1712
g12
VS
p1713
sbag0
(g1
g2
(lp1714
V.
p1715
atp1716
Rp1717
(dp1718
g12
V.
p1719
sbatp1720
Rp1721
(dp1722
g12
VS
p1723
sbatp1724
Rp1725
(dp1726
g12
S'id: 8'
p1727
sbag0
(g1
g2
(lp1728
g0
(g1
g2
(lp1729
g0
(g1
g2
(lp1730
VAnd
p1731
atp1732
Rp1733
(dp1734
g12
VCC
p1735
sbag0
(g1
g2
(lp1736
g0
(g1
g2
(lp1737
Vthen
p1738
atp1739
Rp1740
(dp1741
g12
VRB
p1742
sbatp1743
Rp1744
(dp1745
g12
VADVP
p1746
sbag0
(g1
g2
(lp1747
g0
(g1
g2
(lp1748
Vthere
p1749
atp1750
Rp1751
(dp1752
g12
VEX
p1753
sbatp1754
Rp1755
(dp1756
g12
VNP
p1757
sbag0
(g1
g2
(lp1758
g0
(g1
g2
(lp1759
V's
p1760
atp1761
Rp1762
(dp1763
g12
VVBZ
p1764
sbag0
(g1
g2
(lp1765
g0
(g1
g2
(lp1766
Vthe
p1767
atp1768
Rp1769
(dp1770
g12
VDT
p1771
sbag0
(g1
g2
(lp1772
Vflag
p1773
atp1774
Rp1775
(dp1776
g12
VNN
p1777
sbatp1778
Rp1779
(dp1780
g12
VNP
p1781
sbatp1782
Rp1783
(dp1784
g12
VVP
p1785
sbag0
(g1
g2
(lp1786
V.
p1787
atp1788
Rp1789
(dp1790
g12
V.
p1791
sbatp1792
Rp1793
(dp1794
g12
VS
p1795
sbatp1796
Rp1797
(dp1798
g12
S'id: 9'
p1799
sbag0
(g1
g2
(lp1800
g0
(g1
g2
(lp1801
g0
(g1
g2
(lp1802
g0
(g1
g2
(lp1803
g0
(g1
g2
(lp1804
VI
p1805
atp1806
Rp1807
(dp1808
g12
VPRP
p1809
sbatp1810
Rp1811
(dp1812
g12
VNP
p1813
sbag0
(g1
g2
(lp1814
g0
(g1
g2
(lp1815
Vdo
p1816
atp1817
Rp1818
(dp1819
g12
VVBP
p1820
sbag0
(g1
g2
(lp1821
Vn't
p1822
atp1823
Rp1824
(dp1825
g12
VRB
p1826
sbag0
(g1
g2
(lp1827
g0
(g1
g2
(lp1828
Vremember
p1829
atp1830
Rp1831
(dp1832
g12
VVB
p1833
sbag0
(g1
g2
(lp1834
g0
(g1
g2
(lp1835
Vthe
p1836
atp1837
Rp1838
(dp1839
g12
VDT
p1840
sbag0
(g1
g2
(lp1841
Vflag
p1842
atp1843
Rp1844
(dp1845
g12
VNN
p1846
sbatp1847
Rp1848
(dp1849
g12
VNP
p1850
sbag0
(g1
g2
(lp1851
g0
(g1
g2
(lp1852
Vbefore
p1853
atp1854
Rp1855
(dp1856
g12
VRB
p1857
sbatp1858
Rp1859
(dp1860
g12
VADVP
p1861
sbatp1862
Rp1863
(dp1864
g12
VVP
p1865
sbatp1866
Rp1867
(dp1868
g12
VVP
p1869
sbatp1870
Rp1871
(dp1872
g12
VS
p1873
sbag0
(g1
g2
(lp1874
V,
p1875
atp1876
Rp1877
(dp1878
g12
V,
p1879
sbag0
(g1
g2
(lp1880
g0
(g1
g2
(lp1881
Vmaybe
p1882
atp1883
Rp1884
(dp1885
g12
VRB
p1886
sbatp1887
Rp1888
(dp1889
g12
VADVP
p1890
sbag0
(g1
g2
(lp1891
g0
(g1
g2
(lp1892
g0
(g1
g2
(lp1893
VI
p1894
atp1895
Rp1896
(dp1897
g12
VPRP
p1898
sbatp1899
Rp1900
(dp1901
g12
VNP
p1902
sbag0
(g1
g2
(lp1903
g0
(g1
g2
(lp1904
Vdid
p1905
atp1906
Rp1907
(dp1908
g12
VVBD
p1909
sbatp1910
Rp1911
(dp1912
g12
VVP
p1913
sbatp1914
Rp1915
(dp1916
g12
VS
p1917
sbag0
(g1
g2
(lp1918
V.
p1919
atp1920
Rp1921
(dp1922
g12
V.
p1923
sbatp1924
Rp1925
(dp1926
g12
VS
p1927
sbatp1928
Rp1929
(dp1930
g12
S'id: 10'
p1931
sbag0
(g1
g2
(lp1932
g0
(g1
g2
(lp1933
g0
(g1
g2
(lp1934
g0
(g1
g2
(lp1935
VThe
p1936
atp1937
Rp1938
(dp1939
g12
VDT
p1940
sbag0
(g1
g2
(lp1941
Vflag
p1942
atp1943
Rp1944
(dp1945
g12
VNN
p1946
sbatp1947
Rp1948
(dp1949
g12
VNP
p1950
sbag0
(g1
g2
(lp1951
g0
(g1
g2
(lp1952
Vis
p1953
atp1954
Rp1955
(dp1956
g12
VVBZ
p1957
sbag0
(g1
g2
(lp1958
g0
(g1
g2
(lp1959
Vthere
p1960
atp1961
Rp1962
(dp1963
g12
VRB
p1964
sbatp1965
Rp1966
(dp1967
g12
VADVP
p1968
sbatp1969
Rp1970
(dp1971
g12
VVP
p1972
sbag0
(g1
g2
(lp1973
V.
p1974
atp1975
Rp1976
(dp1977
g12
V.
p1978
sbatp1979
Rp1980
(dp1981
g12
VS
p1982
sbatp1983
Rp1984
(dp1985
g12
S'id: 11'
p1986
sbag0
(g1
g2
(lp1987
g0
(g1
g2
(lp1988
g0
(g1
g2
(lp1989
g0
(g1
g2
(lp1990
VThere
p1991
atp1992
Rp1993
(dp1994
g12
VEX
p1995
sbatp1996
Rp1997
(dp1998
g12
VNP
p1999
sbag0
(g1
g2
(lp2000
g0
(g1
g2
(lp2001
V's
p2002
atp2003
Rp2004
(dp2005
g12
VVBZ
p2006
sbag0
(g1
g2
(lp2007
g0
(g1
g2
(lp2008
g0
(g1
g2
(lp2009
Va
p2010
atp2011
Rp2012
(dp2013
g12
VDT
p2014
sbag0
(g1
g2
(lp2015
Vcar
p2016
atp2017
Rp2018
(dp2019
g12
VNN
p2020
sbatp2021
Rp2022
(dp2023
g12
VNP
p2024
sbag0
(g1
g2
(lp2025
g0
(g1
g2
(lp2026
Vin
p2027
atp2028
Rp2029
(dp2030
g12
VIN
p2031
sbag0
(g1
g2
(lp2032
g0
(g1
g2
(lp2033
Vthe
p2034
atp2035
Rp2036
(dp2037
g12
VDT
p2038
sbag0
(g1
g2
(lp2039
Vgarage
p2040
atp2041
Rp2042
(dp2043
g12
VNN
p2044
sbatp2045
Rp2046
(dp2047
g12
VNP
p2048
sbatp2049
Rp2050
(dp2051
g12
VPP
p2052
sbatp2053
Rp2054
(dp2055
g12
VNP
p2056
sbatp2057
Rp2058
(dp2059
g12
VVP
p2060
sbag0
(g1
g2
(lp2061
V.
p2062
atp2063
Rp2064
(dp2065
g12
V.
p2066
sbatp2067
Rp2068
(dp2069
g12
VS
p2070
sbatp2071
Rp2072
(dp2073
g12
S'id: 12'
p2074
sbag0
(g1
g2
(lp2075
g0
(g1
g2
(lp2076
g0
(g1
g2
(lp2077
VAnd
p2078
atp2079
Rp2080
(dp2081
g12
VCC
p2082
sbag0
(g1
g2
(lp2083
g0
(g1
g2
(lp2084
Vthe
p2085
atp2086
Rp2087
(dp2088
g12
VDT
p2089
sbatp2090
Rp2091
(dp2092
g12
VNP-TMP
p2093
sbag0
(g1
g2
(lp2094
V,
p2095
atp2096
Rp2097
(dp2098
g12
V,
p2099
sbag0
(g1
g2
(lp2100
g0
(g1
g2
(lp2101
Vthere
p2102
atp2103
Rp2104
(dp2105
g12
VEX
p2106
sbatp2107
Rp2108
(dp2109
g12
VNP
p2110
sbag0
(g1
g2
(lp2111
g0
(g1
g2
(lp2112
V's
p2113
atp2114
Rp2115
(dp2116
g12
VVBZ
p2117
sbag0
(g1
g2
(lp2118
g0
(g1
g2
(lp2119
g0
(g1
g2
(lp2120
Va
p2121
atp2122
Rp2123
(dp2124
g12
VDT
p2125
sbag0
(g1
g2
(lp2126
Vcedar
p2127
atp2128
Rp2129
(dp2130
g12
VNN
p2131
sbag0
(g1
g2
(lp2132
Vtree
p2133
atp2134
Rp2135
(dp2136
g12
VNN
p2137
sbatp2138
Rp2139
(dp2140
g12
VNP
p2141
sbag0
(g1
g2
(lp2142
V,
p2143
atp2144
Rp2145
(dp2146
g12
V,
p2147
sbag0
(g1
g2
(lp2148
Vor
p2149
atp2150
Rp2151
(dp2152
g12
VCC
p2153
sbag0
(g1
g2
(lp2154
g0
(g1
g2
(lp2155
g0
(g1
g2
(lp2156
Vsome
p2157
atp2158
Rp2159
(dp2160
g12
VDT
p2161
sbag0
(g1
g2
(lp2162
Vkind
p2163
atp2164
Rp2165
(dp2166
g12
VNN
p2167
sbatp2168
Rp2169
(dp2170
g12
VNP
p2171
sbag0
(g1
g2
(lp2172
g0
(g1
g2
(lp2173
Vof
p2174
atp2175
Rp2176
(dp2177
g12
VIN
p2178
sbag0
(g1
g2
(lp2179
g0
(g1
g2
(lp2180
Vtree
p2181
atp2182
Rp2183
(dp2184
g12
VNN
p2185
sbatp2186
Rp2187
(dp2188
g12
VNP
p2189
sbatp2190
Rp2191
(dp2192
g12
VPP
p2193
sbatp2194
Rp2195
(dp2196
g12
VNP
p2197
sbatp2198
Rp2199
(dp2200
g12
VNP
p2201
sbatp2202
Rp2203
(dp2204
g12
VVP
p2205
sbag0
(g1
g2
(lp2206
V.
p2207
atp2208
Rp2209
(dp2210
g12
V.
p2211
sbatp2212
Rp2213
(dp2214
g12
VS
p2215
sbatp2216
Rp2217
(dp2218
g12
S'id: 13'
p2219
sbag0
(g1
g2
(lp2220
g0
(g1
g2
(lp2221
g0
(g1
g2
(lp2222
g0
(g1
g2
(lp2223
g0
(g1
g2
(lp2224
VI
p2225
atp2226
Rp2227
(dp2228
g12
VPRP
p2229
sbatp2230
Rp2231
(dp2232
g12
VNP
p2233
sbag0
(g1
g2
(lp2234
g0
(g1
g2
(lp2235
Vthink
p2236
atp2237
Rp2238
(dp2239
g12
VVBP
p2240
sbag0
(g1
g2
(lp2241
g0
(g1
g2
(lp2242
g0
(g1
g2
(lp2243
g0
(g1
g2
(lp2244
Vit
p2245
atp2246
Rp2247
(dp2248
g12
VPRP
p2249
sbatp2250
Rp2251
(dp2252
g12
VNP
p2253
sbag0
(g1
g2
(lp2254
g0
(g1
g2
(lp2255
Vis
p2256
atp2257
Rp2258
(dp2259
g12
VVBZ
p2260
sbag0
(g1
g2
(lp2261
g0
(g1
g2
(lp2262
Va
p2263
atp2264
Rp2265
(dp2266
g12
VDT
p2267
sbag0
(g1
g2
(lp2268
Vcedar
p2269
atp2270
Rp2271
(dp2272
g12
VNN
p2273
sbag0
(g1
g2
(lp2274
Vtree
p2275
atp2276
Rp2277
(dp2278
g12
VNN
p2279
sbatp2280
Rp2281
(dp2282
g12
VNP
p2283
sbatp2284
Rp2285
(dp2286
g12
VVP
p2287
sbatp2288
Rp2289
(dp2290
g12
VS
p2291
sbatp2292
Rp2293
(dp2294
g12
VSBAR
p2295
sbatp2296
Rp2297
(dp2298
g12
VVP
p2299
sbatp2300
Rp2301
(dp2302
g12
VS
p2303
sbag0
(g1
g2
(lp2304
V,
p2305
atp2306
Rp2307
(dp2308
g12
V,
p2309
sbag0
(g1
g2
(lp2310
g0
(g1
g2
(lp2311
VI
p2312
atp2313
Rp2314
(dp2315
g12
VPRP
p2316
sbatp2317
Rp2318
(dp2319
g12
VNP
p2320
sbag0
(g1
g2
(lp2321
g0
(g1
g2
(lp2322
Vdo
p2323
atp2324
Rp2325
(dp2326
g12
VVBP
p2327
sbag0
(g1
g2
(lp2328
Vn't
p2329
atp2330
Rp2331
(dp2332
g12
VRB
p2333
sbag0
(g1
g2
(lp2334
g0
(g1
g2
(lp2335
Vknow
p2336
atp2337
Rp2338
(dp2339
g12
VVB
p2340
sbatp2341
Rp2342
(dp2343
g12
VVP
p2344
sbatp2345
Rp2346
(dp2347
g12
VVP
p2348
sbag0
(g1
g2
(lp2349
V.
p2350
atp2351
Rp2352
(dp2353
g12
V.
p2354
sbatp2355
Rp2356
(dp2357
g12
VS
p2358
sbatp2359
Rp2360
(dp2361
g12
S'id: 14'
p2362
sbag0
(g1
g2
(lp2363
g0
(g1
g2
(lp2364
g0
(g1
g2
(lp2365
VAnd
p2366
atp2367
Rp2368
(dp2369
g12
VCC
p2370
sbag0
(g1
g2
(lp2371
g0
(g1
g2
(lp2372
Vthen
p2373
atp2374
Rp2375
(dp2376
g12
VRB
p2377
sbatp2378
Rp2379
(dp2380
g12
VADVP
p2381
sbag0
(g1
g2
(lp2382
g0
(g1
g2
(lp2383
Vit
p2384
atp2385
Rp2386
(dp2387
g12
VPRP
p2388
sbatp2389
Rp2390
(dp2391
g12
VNP
p2392
sbag0
(g1
g2
(lp2393
g0
(g1
g2
(lp2394
Vhas
p2395
atp2396
Rp2397
(dp2398
g12
VVBZ
p2399
sbag0
(g1
g2
(lp2400
g0
(g1
g2
(lp2401
g0
(g1
g2
(lp2402
Vfoliage
p2403
atp2404
Rp2405
(dp2406
g12
VNN
p2407
sbatp2408
Rp2409
(dp2410
g12
VNP
p2411
sbag0
(g1
g2
(lp2412
g0
(g1
g2
(lp2413
Varound
p2414
atp2415
Rp2416
(dp2417
g12
VIN
p2418
sbag0
(g1
g2
(lp2419
g0
(g1
g2
(lp2420
Vthe
p2421
atp2422
Rp2423
(dp2424
g12
VDT
p2425
sbag0
(g1
g2
(lp2426
Vhouse
p2427
atp2428
Rp2429
(dp2430
g12
VNN
p2431
sbatp2432
Rp2433
(dp2434
g12
VNP
p2435
sbatp2436
Rp2437
(dp2438
g12
VPP
p2439
sbatp2440
Rp2441
(dp2442
g12
VNP
p2443
sbatp2444
Rp2445
(dp2446
g12
VVP
p2447
sbag0
(g1
g2
(lp2448
V.
p2449
atp2450
Rp2451
(dp2452
g12
V.
p2453
sbatp2454
Rp2455
(dp2456
g12
VS
p2457
sbatp2458
Rp2459
(dp2460
g12
S'id: 15'
p2461
sbag0
(g1
g2
(lp2462
g0
(g1
g2
(lp2463
g0
(g1
g2
(lp2464
VAnd
p2465
atp2466
Rp2467
(dp2468
g12
VCC
p2469
sbag0
(g1
g2
(lp2470
g0
(g1
g2
(lp2471
Vit
p2472
atp2473
Rp2474
(dp2475
g12
VPRP
p2476
sbatp2477
Rp2478
(dp2479
g12
VNP
p2480
sbag0
(g1
g2
(lp2481
g0
(g1
g2
(lp2482
Vhas
p2483
atp2484
Rp2485
(dp2486
g12
VVBZ
p2487
sbag0
(g1
g2
(lp2488
g0
(g1
g2
(lp2489
g0
(g1
g2
(lp2490
Vthe
p2491
atp2492
Rp2493
(dp2494
g12
VDT
p2495
sbag0
(g1
g2
(lp2496
Vgirl
p2497
atp2498
Rp2499
(dp2500
g12
VNN
p2501
sbatp2502
Rp2503
(dp2504
g12
VNP
p2505
sbag0
(g1
g2
(lp2506
g0
(g1
g2
(lp2507
Vin
p2508
atp2509
Rp2510
(dp2511
g12
VIN
p2512
sbag0
(g1
g2
(lp2513
g0
(g1
g2
(lp2514
g0
(g1
g2
(lp2515
Vthe
p2516
atp2517
Rp2518
(dp2519
g12
VDT
p2520
sbatp2521
Rp2522
(dp2523
g12
VNP
p2524
sbag0
(g1
g2
(lp2525
g0
(g1
g2
(lp2526
Vin
p2527
atp2528
Rp2529
(dp2530
g12
VIN
p2531
sbag0
(g1
g2
(lp2532
g0
(g1
g2
(lp2533
Vthe
p2534
atp2535
Rp2536
(dp2537
g12
VDT
p2538
sbag0
(g1
g2
(lp2539
Vsand
p2540
atp2541
Rp2542
(dp2543
g12
VNN
p2544
sbag0
(g1
g2
(lp2545
Vbed
p2546
atp2547
Rp2548
(dp2549
g12
VNN
p2550
sbatp2551
Rp2552
(dp2553
g12
VNP
p2554
sbatp2555
Rp2556
(dp2557
g12
VPP
p2558
sbatp2559
Rp2560
(dp2561
g12
VNP
p2562
sbatp2563
Rp2564
(dp2565
g12
VPP
p2566
sbag0
(g1
g2
(lp2567
V,
p2568
atp2569
Rp2570
(dp2571
g12
V,
p2572
sbag0
(g1
g2
(lp2573
g0
(g1
g2
(lp2574
Vmaking
p2575
atp2576
Rp2577
(dp2578
g12
VVBG
p2579
sbag0
(g1
g2
(lp2580
g0
(g1
g2
(lp2581
Vthe
p2582
atp2583
Rp2584
(dp2585
g12
VDT
p2586
sbag0
(g1
g2
(lp2587
Vsand
p2588
atp2589
Rp2590
(dp2591
g12
VNN
p2592
sbatp2593
Rp2594
(dp2595
g12
VNP
p2596
sbag0
(g1
g2
(lp2597
V,
p2598
atp2599
Rp2600
(dp2601
g12
V,
p2602
sbag0
(g1
g2
(lp2603
g0
(g1
g2
(lp2604
g0
(g1
g2
(lp2605
Vmaking
p2606
atp2607
Rp2608
(dp2609
g12
VVBG
p2610
sbag0
(g1
g2
(lp2611
g0
(g1
g2
(lp2612
Vsand
p2613
atp2614
Rp2615
(dp2616
g12
VNN
p2617
sbag0
(g1
g2
(lp2618
Vcastle
p2619
atp2620
Rp2621
(dp2622
g12
VNN
p2623
sbatp2624
Rp2625
(dp2626
g12
VNP
p2627
sbatp2628
Rp2629
(dp2630
g12
VVP
p2631
sbatp2632
Rp2633
(dp2634
g12
VS
p2635
sbatp2636
Rp2637
(dp2638
g12
VVP
p2639
sbatp2640
Rp2641
(dp2642
g12
VNP
p2643
sbatp2644
Rp2645
(dp2646
g12
VVP
p2647
sbag0
(g1
g2
(lp2648
V.
p2649
atp2650
Rp2651
(dp2652
g12
V.
p2653
sbatp2654
Rp2655
(dp2656
g12
VS
p2657
sbatp2658
Rp2659
(dp2660
g12
S'id: 16'
p2661
sbag0
(g1
g2
(lp2662
g0
(g1
g2
(lp2663
g0
(g1
g2
(lp2664
g0
(g1
g2
(lp2665
Vthat
p2666
atp2667
Rp2668
(dp2669
g12
VIN
p2670
sbag0
(g1
g2
(lp2671
g0
(g1
g2
(lp2672
Va
p2673
atp2674
Rp2675
(dp2676
g12
VDT
p2677
sbag0
(g1
g2
(lp2678
Vcastle
p2679
atp2680
Rp2681
(dp2682
g12
VNN
p2683
sbatp2684
Rp2685
(dp2686
g12
VNP
p2687
sbatp2688
Rp2689
(dp2690
g12
VPP
p2691
sbag0
(g1
g2
(lp2692
g0
(g1
g2
(lp2693
Vshe
p2694
atp2695
Rp2696
(dp2697
g12
VPRP
p2698
sbatp2699
Rp2700
(dp2701
g12
VNP
p2702
sbag0
(g1
g2
(lp2703
g0
(g1
g2
(lp2704
V's
p2705
atp2706
Rp2707
(dp2708
g12
VVBZ
p2709
sbag0
(g1
g2
(lp2710
g0
(g1
g2
(lp2711
Vgot
p2712
atp2713
Rp2714
(dp2715
g12
VVBN
p2716
sbag0
(g1
g2
(lp2717
g0
(g1
g2
(lp2718
Vthere
p2719
atp2720
Rp2721
(dp2722
g12
VRB
p2723
sbatp2724
Rp2725
(dp2726
g12
VADVP
p2727
sbatp2728
Rp2729
(dp2730
g12
VVP
p2731
sbatp2732
Rp2733
(dp2734
g12
VVP
p2735
sbag0
(g1
g2
(lp2736
V.
p2737
atp2738
Rp2739
(dp2740
g12
V.
p2741
sbatp2742
Rp2743
(dp2744
g12
VS
p2745
sbatp2746
Rp2747
(dp2748
g12
S'id: 17'
p2749
sbag0
(g1
g2
(lp2750
g0
(g1
g2
(lp2751
g0
(g1
g2
(lp2752
VAnd
p2753
atp2754
Rp2755
(dp2756
g12
VCC
p2757
sbag0
(g1
g2
(lp2758
g0
(g1
g2
(lp2759
Vthen
p2760
atp2761
Rp2762
(dp2763
g12
VRB
p2764
sbatp2765
Rp2766
(dp2767
g12
VADVP
p2768
sbag0
(g1
g2
(lp2769
g0
(g1
g2
(lp2770
Vthere
p2771
atp2772
Rp2773
(dp2774
g12
VEX
p2775
sbatp2776
Rp2777
(dp2778
g12
VNP
p2779
sbag0
(g1
g2
(lp2780
g0
(g1
g2
(lp2781
V's
p2782
atp2783
Rp2784
(dp2785
g12
VVBZ
p2786
sbag0
(g1
g2
(lp2787
g0
(g1
g2
(lp2788
g0
(g1
g2
(lp2789
Va
p2790
atp2791
Rp2792
(dp2793
g12
VDT
p2794
sbag0
(g1
g2
(lp2795
Vstick
p2796
atp2797
Rp2798
(dp2799
g12
VNN
p2800
sbatp2801
Rp2802
(dp2803
g12
VNP
p2804
sbag0
(g1
g2
(lp2805
g0
(g1
g2
(lp2806
Vin
p2807
atp2808
Rp2809
(dp2810
g12
VIN
p2811
sbag0
(g1
g2
(lp2812
g0
(g1
g2
(lp2813
Va
p2814
atp2815
Rp2816
(dp2817
g12
VDT
p2818
sbag0
(g1
g2
(lp2819
Vbowl
p2820
atp2821
Rp2822
(dp2823
g12
VNN
p2824
sbatp2825
Rp2826
(dp2827
g12
VNP
p2828
sbatp2829
Rp2830
(dp2831
g12
VPP
p2832
sbatp2833
Rp2834
(dp2835
g12
VNP
p2836
sbag0
(g1
g2
(lp2837
g0
(g1
g2
(lp2838
Vthere
p2839
atp2840
Rp2841
(dp2842
g12
VRB
p2843
sbatp2844
Rp2845
(dp2846
g12
VADVP
p2847
sbatp2848
Rp2849
(dp2850
g12
VVP
p2851
sbag0
(g1
g2
(lp2852
V.
p2853
atp2854
Rp2855
(dp2856
g12
V.
p2857
sbatp2858
Rp2859
(dp2860
g12
VS
p2861
sbatp2862
Rp2863
(dp2864
g12
S'id: 18'
p2865
sbag0
(g1
g2
(lp2866
g0
(g1
g2
(lp2867
g0
(g1
g2
(lp2868
VAnd
p2869
atp2870
Rp2871
(dp2872
g12
VCC
p2873
sbag0
(g1
g2
(lp2874
g0
(g1
g2
(lp2875
Vin
p2876
atp2877
Rp2878
(dp2879
g12
VIN
p2880
sbag0
(g1
g2
(lp2881
g0
(g1
g2
(lp2882
Vthis
p2883
atp2884
Rp2885
(dp2886
g12
VDT
p2887
sbag0
(g1
g2
(lp2888
Vone
p2889
atp2890
Rp2891
(dp2892
g12
VCD
p2893
sbatp2894
Rp2895
(dp2896
g12
VNP
p2897
sbatp2898
Rp2899
(dp2900
g12
VPP
p2901
sbag0
(g1
g2
(lp2902
V,
p2903
atp2904
Rp2905
(dp2906
g12
V,
p2907
sbag0
(g1
g2
(lp2908
g0
(g1
g2
(lp2909
Vis
p2910
atp2911
Rp2912
(dp2913
g12
VVBZ
p2914
sbag0
(g1
g2
(lp2915
g0
(g1
g2
(lp2916
g0
(g1
g2
(lp2917
Vtwo
p2918
atp2919
Rp2920
(dp2921
g12
VCD
p2922
sbatp2923
Rp2924
(dp2925
g12
VNP
p2926
sbag0
(g1
g2
(lp2927
V,
p2928
atp2929
Rp2930
(dp2931
g12
V,
p2932
sbag0
(g1
g2
(lp2933
g0
(g1
g2
(lp2934
Vtwo
p2935
atp2936
Rp2937
(dp2938
g12
VCD
p2939
sbag0
(g1
g2
(lp2940
Vpeople
p2941
atp2942
Rp2943
(dp2944
g12
VNNS
p2945
sbatp2946
Rp2947
(dp2948
g12
VNP
p2949
sbatp2950
Rp2951
(dp2952
g12
VNP
p2953
sbatp2954
Rp2955
(dp2956
g12
VVP
p2957
sbag0
(g1
g2
(lp2958
V.
p2959
atp2960
Rp2961
(dp2962
g12
V.
p2963
sbatp2964
Rp2965
(dp2966
g12
VS
p2967
sbatp2968
Rp2969
(dp2970
g12
S'id: 19'
p2971
sbatp2972
Rp2973
(dp2974
g12
S'sentences'
p2975
sb.