ccopy_reg
_reconstructor
p0
(cnltk.tree
Tree
p1
c__builtin__
list
p2
(lp3
g0
(g1
g2
(lp4
g0
(g1
g2
(lp5
g0
(g1
g2
(lp6
(lp7
S'word: this, index: 1'
p8
aatp9
Rp10
(dp11
S'_label'
p12
Vnsubj
p13
sbag0
(g1
g2
(lp14
g0
(g1
g2
(lp15
g0
(g1
g2
(lp16
(lp17
S'word: a, index: 4'
p18
aatp19
Rp20
(dp21
g12
Vdet
p22
sbatp23
Rp24
(dp25
g12
S'word: circus, index: 5'
p26
sbatp27
Rp28
(dp29
g12
Vprep
p30
sbatp31
Rp32
(dp33
g12
S'word: looks, index: 2'
p34
sbatp35
Rp36
(dp37
g12
S'id: 0'
p38
sbag0
(g1
g2
(lp39
g0
(g1
g2
(lp40
g0
(g1
g2
(lp41
g0
(g1
g2
(lp42
g0
(g1
g2
(lp43
g0
(g1
g2
(lp44
g0
(g1
g2
(lp45
(lp46
S'word: a, index: 5'
p47
aatp48
Rp49
(dp50
g12
Vdet
p51
sbag0
(g1
g2
(lp52
(lp53
S'word: high, index: 6'
p54
aatp55
Rp56
(dp57
g12
Vamod
p58
sbag0
(g1
g2
(lp59
(lp60
S'word: wire, index: 7'
p61
aatp62
Rp63
(dp64
g12
Vnn
p65
sbatp66
Rp67
(dp68
g12
S'word: act, index: 8'
p69
sbatp70
Rp71
(dp72
g12
Vappos
p73
sbag0
(g1
g2
(lp74
g0
(g1
g2
(lp75
g0
(g1
g2
(lp76
(lp77
S'word: a, index: 10'
p78
aatp79
Rp80
(dp81
g12
Vdet
p82
sbatp83
Rp84
(dp85
g12
S'word: clown, index: 11'
p86
sbatp87
Rp88
(dp89
g12
Vappos
p90
sbag0
(g1
g2
(lp91
g0
(g1
g2
(lp92
g0
(g1
g2
(lp93
(lp94
S'word: a, index: 13'
p95
aatp96
Rp97
(dp98
g12
Vdet
p99
sbag0
(g1
g2
(lp100
g0
(g1
g2
(lp101
g0
(g1
g2
(lp102
(lp103
S'word: a, index: 16'
p104
aatp105
Rp106
(dp107
g12
Vdet
p108
sbatp109
Rp110
(dp111
g12
S'word: cage, index: 17'
p112
sbatp113
Rp114
(dp115
g12
Vprep
p116
sbatp117
Rp118
(dp119
g12
S'word: guy, index: 14'
p120
sbatp121
Rp122
(dp123
g12
Vappos
p124
sbag0
(g1
g2
(lp125
(lp126
S'word: a, index: 2'
p127
aatp128
Rp129
(dp130
g12
Vdet
p131
sbatp132
Rp133
(dp134
g12
S'word: lion, index: 3'
p135
sbatp136
Rp137
(dp138
g12
Vdobj
p139
sbag0
(g1
g2
(lp140
g0
(g1
g2
(lp141
g0
(g1
g2
(lp142
g0
(g1
g2
(lp143
g0
(g1
g2
(lp144
g0
(g1
g2
(lp145
g0
(g1
g2
(lp146
(lp147
S'word: the, index: 21'
p148
aatp149
Rp150
(dp151
g12
Vdet
p152
sbatp153
Rp154
(dp155
g12
S'word: lion, index: 22'
p156
sbatp157
Rp158
(dp159
g12
Vpobj
p160
sbatp161
Rp162
(dp163
g12
S'word: with, index: 20'
p164
sbatp165
Rp166
(dp167
g12
Vpcomp
p168
sbatp169
Rp170
(dp171
g12
S'word: in, index: 19'
p172
sbatp173
Rp174
(dp175
g12
Vprep
p176
sbag0
(g1
g2
(lp177
g0
(g1
g2
(lp178
g0
(g1
g2
(lp179
g0
(g1
g2
(lp180
g0
(g1
g2
(lp181
g0
(g1
g2
(lp182
g0
(g1
g2
(lp183
(lp184
S'word: whatever, index: 37'
p185
aatp186
Rp187
(dp188
g12
Vdobj
p189
sbag0
(g1
g2
(lp190
g0
(g1
g2
(lp191
g0
(g1
g2
(lp192
(lp193
S'word: the, index: 38'
p194
aatp195
Rp196
(dp197
g12
Vdet
p198
sbatp199
Rp200
(dp201
g12
S'word: clown, index: 39'
p202
sbatp203
Rp204
(dp205
g12
Vnsubj
p206
sbatp207
Rp208
(dp209
g12
S'word: has, index: 40'
p210
sbatp211
Rp212
(dp213
g12
Vprepc
p214
sbag0
(g1
g2
(lp215
(lp216
S'word: there, index: 34'
p217
aatp218
Rp219
(dp220
g12
Vexpl
p221
sbatp222
Rp223
(dp224
g12
S'word: reaching, index: 35'
p225
sbatp226
Rp227
(dp228
g12
Vprepc
p229
sbag0
(g1
g2
(lp230
g0
(g1
g2
(lp231
g0
(g1
g2
(lp232
(lp233
S'word: some, index: 27'
p234
aatp235
Rp236
(dp237
g12
Vdet
p238
sbag0
(g1
g2
(lp239
(lp240
S'word: two, index: 28'
p241
aatp242
Rp243
(dp244
g12
Vnum
p245
sbag0
(g1
g2
(lp246
g0
(g1
g2
(lp247
g0
(g1
g2
(lp248
(lp249
S'word: a, index: 31'
p250
aatp251
Rp252
(dp253
g12
Vdet
p254
sbatp255
Rp256
(dp257
g12
S'word: boy, index: 32'
p258
sbatp259
Rp260
(dp261
g12
Vconj
p262
sbatp263
Rp264
(dp265
g12
S'word: girls, index: 29'
p266
sbatp267
Rp268
(dp269
g12
Vprep
p270
sbag0
(g1
g2
(lp271
g256
atp272
Rp273
(dp274
g12
Vprep
p275
sbatp276
Rp277
(dp278
g12
S'word: look, index: 25'
p279
sbatp280
Rp281
(dp282
g12
Vconj
p283
sbatp284
Rp285
(dp286
g12
S'word: See, index: 1'
p287
sbatp288
Rp289
(dp290
g12
S'id: 1'
p291
sbag0
(g1
g2
(lp292
g0
(g1
g2
(lp293
g0
(g1
g2
(lp294
(lp295
S'word: And, index: 1'
p296
aatp297
Rp298
(dp299
g12
Vcc
p300
sbag0
(g1
g2
(lp301
(lp302
S'word: then, index: 2'
p303
aatp304
Rp305
(dp306
g12
Vadvmod
p307
sbag0
(g1
g2
(lp308
(lp309
S'word: you, index: 3'
p310
aatp311
Rp312
(dp313
g12
Vnsubj
p314
sbag0
(g1
g2
(lp315
g0
(g1
g2
(lp316
g0
(g1
g2
(lp317
g0
(g1
g2
(lp318
g0
(g1
g2
(lp319
g0
(g1
g2
(lp320
g0
(g1
g2
(lp321
(lp322
S'word: a, index: 7'
p323
aatp324
Rp325
(dp326
g12
Vdet
p327
sbatp328
Rp329
(dp330
g12
S'word: horse, index: 8'
p331
sbatp332
Rp333
(dp334
g12
Vdobj
p335
sbag0
(g1
g2
(lp336
g0
(g1
g2
(lp337
g0
(g1
g2
(lp338
(lp339
S'word: here, index: 10'
p340
aatp341
Rp342
(dp343
g12
Vpobj
p344
sbatp345
Rp346
(dp347
g12
S'word: over, index: 9'
p348
sbatp349
Rp350
(dp351
g12
Vprep
p352
sbag0
(g1
g2
(lp353
g0
(g1
g2
(lp354
g0
(g1
g2
(lp355
g0
(g1
g2
(lp356
g0
(g1
g2
(lp357
(lp358
S'word: some, index: 13'
p359
aatp360
Rp361
(dp362
g12
Vdet
p363
sbag0
(g1
g2
(lp364
g0
(g1
g2
(lp365
g0
(g1
g2
(lp366
(lp367
S'word: a, index: 16'
p368
aatp369
Rp370
(dp371
g12
Vdet
p372
sbatp373
Rp374
(dp375
g12
S'word: trick, index: 17'
p376
sbatp377
Rp378
(dp379
g12
Vprep
p380
sbatp381
Rp382
(dp383
g12
S'word: kind, index: 14'
p384
sbatp385
Rp386
(dp387
g12
Vdobj
p388
sbatp389
Rp390
(dp391
g12
S'word: doing, index: 12'
p392
sbatp393
Rp394
(dp395
g12
Vvmod
p396
sbatp397
Rp398
(dp399
g12
S'word: riding, index: 6'
p400
sbatp401
Rp402
(dp403
g12
Vvmod
p404
sbatp405
Rp406
(dp407
g12
S'word: someone, index: 5'
p408
sbatp409
Rp410
(dp411
g12
Vdobj
p412
sbatp413
Rp414
(dp415
g12
S'word: have, index: 4'
p416
sbatp417
Rp418
(dp419
g12
S'id: 2'
p420
sbag0
(g1
g2
(lp421
g0
(g1
g2
(lp422
g0
(g1
g2
(lp423
(lp424
S'word: cant, index: 10'
p425
aatp426
Rp427
(dp428
g12
Vnsubj
p429
sbag0
(g1
g2
(lp430
(lp431
S'word: really, index: 11'
p432
aatp433
Rp434
(dp435
g12
Vadvmod
p436
sbag0
(g1
g2
(lp437
(lp438
S'word: them, index: 13'
p439
aatp440
Rp441
(dp442
g12
Vdobj
p443
sbag0
(g1
g2
(lp444
(lp445
S'word: And, index: 1'
p446
aatp447
Rp448
(dp449
g12
Vcc
p450
sbag0
(g1
g2
(lp451
g0
(g1
g2
(lp452
g0
(g1
g2
(lp453
(lp454
S'word: than, index: 2'
p455
aatp456
Rp457
(dp458
g12
Vmark
p459
sbag0
(g1
g2
(lp460
(lp461
S'word: I, index: 3'
p462
aatp463
Rp464
(dp465
g12
Vnsubj
p466
sbag0
(g1
g2
(lp467
g0
(g1
g2
(lp468
g0
(g1
g2
(lp469
(lp470
S'word: other, index: 5'
p471
aatp472
Rp473
(dp474
g12
Vamod
p475
sbag0
(g1
g2
(lp476
(lp477
S'word: silhouette, index: 8'
p478
aatp479
Rp480
(dp481
g12
Vprep
p482
sbatp483
Rp484
(dp485
g12
S'word: people, index: 6'
p486
sbatp487
Rp488
(dp489
g12
Vdobj
p490
sbatp491
Rp492
(dp493
g12
S'word: see, index: 4'
p494
sbatp495
Rp496
(dp497
g12
Vadvcl
p498
sbatp499
Rp500
(dp501
g12
S'word: see, index: 12'
p502
sbatp503
Rp504
(dp505
g12
S'id: 3'
p506
sbag0
(g1
g2
(lp507
g0
(g1
g2
(lp508
g0
(g1
g2
(lp509
(lp510
S'word: And, index: 1'
p511
aatp512
Rp513
(dp514
g12
Vcc
p515
sbag0
(g1
g2
(lp516
(lp517
S'word: that, index: 2'
p518
aatp519
Rp520
(dp521
g12
Vnsubj
p522
sbag0
(g1
g2
(lp523
g0
(g1
g2
(lp524
g0
(g1
g2
(lp525
(lp526
S'word: like, index: 4'
p527
aatp528
Rp529
(dp530
g12
Vmark
p531
sbag0
(g1
g2
(lp532
(lp533
S'word: I, index: 5'
p534
aatp535
Rp536
(dp537
g12
Vnsubj
p538
sbag0
(g1
g2
(lp539
g0
(g1
g2
(lp540
g0
(g1
g2
(lp541
(lp542
S'word: a, index: 7'
p543
aatp544
Rp545
(dp546
g12
Vdet
p547
sbatp548
Rp549
(dp550
g12
S'word: pool, index: 8'
p551
sbatp552
Rp553
(dp554
g12
Vdobj
p555
sbag0
(g1
g2
(lp556
g0
(g1
g2
(lp557
g0
(g1
g2
(lp558
g0
(g1
g2
(lp559
g0
(g1
g2
(lp560
(lp561
S'word: the, index: 13'
p562
aatp563
Rp564
(dp565
g12
Vdet
p566
sbag0
(g1
g2
(lp567
g0
(g1
g2
(lp568
g0
(g1
g2
(lp569
(lp570
S'word: the, index: 16'
p571
aatp572
Rp573
(dp574
g12
Vdet
p575
sbatp576
Rp577
(dp578
g12
S'word: pool, index: 17'
p579
sbatp580
Rp581
(dp582
g12
Vprep
p583
sbatp584
Rp585
(dp586
g12
S'word: side, index: 14'
p587
sbatp588
Rp589
(dp590
g12
Vprep
p591
sbatp592
Rp593
(dp594
g12
S'word: stars, index: 11'
p595
sbatp596
Rp597
(dp598
g12
Vprep
p599
sbatp600
Rp601
(dp602
g12
S'word: guess, index: 6'
p603
sbatp604
Rp605
(dp606
g12
Vadvcl
p607
sbatp608
Rp609
(dp610
g12
S'word: looks, index: 3'
p611
sbatp612
Rp613
(dp614
g12
S'id: 4'
p615
sbag0
(g1
g2
(lp616
g0
(g1
g2
(lp617
g0
(g1
g2
(lp618
(lp619
S'word: I, index: 1'
p620
aatp621
Rp622
(dp623
g12
Vnsubj
p624
sbag0
(g1
g2
(lp625
g0
(g1
g2
(lp626
g0
(g1
g2
(lp627
(lp628
S'word: the, index: 3'
p629
aatp630
Rp631
(dp632
g12
Vdet
p633
sbag0
(g1
g2
(lp634
(lp635
S'word: high, index: 4'
p636
aatp637
Rp638
(dp639
g12
Vamod
p640
sbag0
(g1
g2
(lp641
(lp642
S'word: wire, index: 5'
p643
aatp644
Rp645
(dp646
g12
Vnn
p647
sbag0
(g1
g2
(lp648
(lp649
S'word: right, index: 8'
p650
aatp651
Rp652
(dp653
g12
Vappos
p654
sbatp655
Rp656
(dp657
g12
S'word: act, index: 6'
p658
sbatp659
Rp660
(dp661
g12
Vdobj
p662
sbatp663
Rp664
(dp665
g12
S'word: said, index: 2'
p666
sbatp667
Rp668
(dp669
g12
S'id: 5'
p670
sbatp671
Rp672
(dp673
g12
S'sentences'
p674
sb.