ccopy_reg
_reconstructor
p0
(cnltk.tree
Tree
p1
c__builtin__
list
p2
(lp3
g0
(g1
g2
(lp4
tp5
Rp6
(dp7
S'_label'
p8
S'id: 0'
p9
sbag0
(g1
g2
(lp10
g0
(g1
g2
(lp11
g0
(g1
g2
(lp12
(lp13
S'word: woops, index: 6'
p14
aatp15
Rp16
(dp17
g8
Vconj
p18
sbag0
(g1
g2
(lp19
(lp20
S'word: the, index: 8'
p21
aatp22
Rp23
(dp24
g8
Vconj
p25
sbag0
(g1
g2
(lp26
g0
(g1
g2
(lp27
g0
(g1
g2
(lp28
g0
(g1
g2
(lp29
g0
(g1
g2
(lp30
(lp31
S'word: the, index: 10'
p32
aatp33
Rp34
(dp35
g8
Vdet
p36
sbatp37
Rp38
(dp39
g8
S'word: jar, index: 11'
p40
sbatp41
Rp42
(dp43
g8
Vnsubj
p44
sbag0
(g1
g2
(lp45
g0
(g1
g2
(lp46
g0
(g1
g2
(lp47
(lp48
S'word: no, index: 13'
p49
aatp50
Rp51
(dp52
g8
Vnsubj
p53
sbag0
(g1
g2
(lp54
(lp55
S'word: off, index: 15'
p56
aatp57
Rp58
(dp59
g8
Vprt
p60
sbatp61
Rp62
(dp63
g8
S'word: go, index: 14'
p64
sbatp65
Rp66
(dp67
g8
Vccomp
p68
sbatp69
Rp70
(dp71
g8
S'word: is, index: 12'
p72
sbatp73
Rp74
(dp75
g8
Vconj
p76
sbag0
(g1
g2
(lp77
(lp78
S'word: A, index: 1'
p79
aatp80
Rp81
(dp82
g8
Vdet
p83
sbag0
(g1
g2
(lp84
(lp85
S'word: cookie, index: 2'
p86
aatp87
Rp88
(dp89
g8
Vnn
p90
sbatp91
Rp92
(dp93
g8
S'word: jar, index: 3'
p94
sbatp95
Rp96
(dp97
g8
S'id: 1'
p98
sbag0
(g1
g2
(lp99
g0
(g1
g2
(lp100
g0
(g1
g2
(lp101
g0
(g1
g2
(lp102
g0
(g1
g2
(lp103
(lp104
S'word: off, index: 7'
p105
aatp106
Rp107
(dp108
g8
Vprt
p109
sbag0
(g1
g2
(lp110
g0
(g1
g2
(lp111
g0
(g1
g2
(lp112
(lp113
S'word: no, index: 10'
p114
aatp115
Rp116
(dp117
g8
Vneg
p118
sbatp119
Rp120
(dp121
g8
S'word: good, index: 11'
p122
sbatp123
Rp124
(dp125
g8
Vconj
p126
sbag0
(g1
g2
(lp127
(lp128
S'word: to, index: 5'
p129
aatp130
Rp131
(dp132
g8
Vaux
p133
sbatp134
Rp135
(dp136
g8
S'word: hit, index: 6'
p137
sbatp138
Rp139
(dp140
g8
Vxcomp
p141
sbag0
(g1
g2
(lp142
g120
atp143
Rp144
(dp145
g8
Vxcomp
p146
sbag0
(g1
g2
(lp147
g0
(g1
g2
(lp148
g0
(g1
g2
(lp149
(lp150
S'word: The, index: 1'
p151
aatp152
Rp153
(dp154
g8
Vdet
p155
sbatp156
Rp157
(dp158
g8
S'word: man, index: 2'
p159
sbatp160
Rp161
(dp162
g8
Vnsubj
p163
sbag0
(g1
g2
(lp164
(lp165
S'word: is, index: 3'
p166
aatp167
Rp168
(dp169
g8
Vaux
p170
sbatp171
Rp172
(dp173
g8
S'word: try, index: 4'
p174
sbatp175
Rp176
(dp177
g8
S'id: 2'
p178
sbag0
(g1
g2
(lp179
g0
(g1
g2
(lp180
g0
(g1
g2
(lp181
(lp182
S'word: we, index: 10'
p183
aatp184
Rp185
(dp186
g8
Vnsubj
p187
sbag0
(g1
g2
(lp188
g0
(g1
g2
(lp189
g0
(g1
g2
(lp190
(lp191
S'word: the, index: 13'
p192
aatp193
Rp194
(dp195
g8
Vdet
p196
sbatp197
Rp198
(dp199
g8
S'word: glass, index: 14'
p200
sbatp201
Rp202
(dp203
g8
Vdobj
p204
sbag0
(g1
g2
(lp205
(lp206
S'word: on, index: 15'
p207
aatp208
Rp209
(dp210
g8
Vprep
p211
sbag0
(g1
g2
(lp212
g0
(g1
g2
(lp213
g0
(g1
g2
(lp214
g0
(g1
g2
(lp215
g0
(g1
g2
(lp216
(lp217
S'word: The, index: 1'
p218
aatp219
Rp220
(dp221
g8
Vdet
p222
sbatp223
Rp224
(dp225
g8
S'word: lady, index: 2'
p226
sbatp227
Rp228
(dp229
g8
Vnsubj
p230
sbag0
(g1
g2
(lp231
g0
(g1
g2
(lp232
g0
(g1
g2
(lp233
(lp234
S'word: I, index: 5'
p235
aatp236
Rp237
(dp238
g8
Vnsubj
p239
sbatp240
Rp241
(dp242
g8
S'word: think, index: 6'
p243
sbatp244
Rp245
(dp246
g8
Vccomp
p247
sbatp248
Rp249
(dp250
g8
S'word: is, index: 3'
p251
sbatp252
Rp253
(dp254
g8
Vccomp
p255
sbag0
(g1
g2
(lp256
g0
(g1
g2
(lp257
g0
(g1
g2
(lp258
(lp259
S'word: we, index: 10'
p260
aatp261
Rp262
(dp263
g8
Vconj
p264
sbatp265
Rp266
(dp267
g8
S'word: backwards, index: 8'
p268
sbatp269
Rp270
(dp271
g8
Vnsubj
p272
sbatp273
Rp274
(dp275
g8
S'word: wipe, index: 12'
p276
sbatp277
Rp278
(dp279
g8
S'id: 3'
p280
sbag0
(g1
g2
(lp281
g0
(g1
g2
(lp282
g0
(g1
g2
(lp283
(lp284
S'word: I, index: 1'
p285
aatp286
Rp287
(dp288
g8
Vnsubj
p289
sbag0
(g1
g2
(lp290
(lp291
S'word: do, index: 2'
p292
aatp293
Rp294
(dp295
g8
Vaux
p296
sbag0
(g1
g2
(lp297
(lp298
S"word: n't, index: 3"
p299
aatp300
Rp301
(dp302
g8
Vneg
p303
sbag0
(g1
g2
(lp304
g0
(g1
g2
(lp305
g0
(g1
g2
(lp306
(lp307
S'word: I, index: 1'
p308
aatp309
Rp310
(dp311
g8
Vnsubj
p312
sbatp313
Rp314
(dp315
g8
S'word: leaking, index: 7'
p316
sbatp317
Rp318
(dp319
g8
Vconj
p320
sbatp321
Rp322
(dp323
g8
S'word: know, index: 4'
p324
sbatp325
Rp326
(dp327
g8
S'id: 4'
p328
sbag0
(g1
g2
(lp329
g0
(g1
g2
(lp330
g0
(g1
g2
(lp331
(lp332
S'word: And, index: 1'
p333
aatp334
Rp335
(dp336
g8
Vnsubj
p337
sbatp338
Rp339
(dp340
g8
S'word: I, index: 2'
p341
sbatp342
Rp343
(dp344
g8
S'id: 5'
p345
sbag0
(g1
g2
(lp346
g0
(g1
g2
(lp347
g0
(g1
g2
(lp348
g0
(g1
g2
(lp349
g0
(g1
g2
(lp350
g0
(g1
g2
(lp351
g0
(g1
g2
(lp352
g0
(g1
g2
(lp353
g0
(g1
g2
(lp354
(lp355
S'word: the, index: 5'
p356
aatp357
Rp358
(dp359
g8
Vdet
p360
sbag0
(g1
g2
(lp361
g0
(g1
g2
(lp362
g0
(g1
g2
(lp363
(lp364
S'word: the, index: 8'
p365
aatp366
Rp367
(dp368
g8
Vdet
p369
sbatp370
Rp371
(dp372
g8
S'word: dog, index: 9'
p373
sbatp374
Rp375
(dp376
g8
Vappos
p377
sbatp378
Rp379
(dp380
g8
S'word: dog, index: 6'
p381
sbatp382
Rp383
(dp384
g8
Vdep
p385
sbatp386
Rp387
(dp388
g8
S'word: it, index: 4'
p389
sbatp390
Rp391
(dp392
g8
Vappos
p393
sbag0
(g1
g2
(lp394
(lp395
S'word: The, index: 1'
p396
aatp397
Rp398
(dp399
g8
Vdet
p400
sbatp401
Rp402
(dp403
g8
S'word: dog, index: 2'
p404
sbatp405
Rp406
(dp407
g8
Vnsubj
p408
sbatp409
Rp410
(dp411
g8
S'word: is, index: 10'
p412
sbatp413
Rp414
(dp415
g8
S'id: 6'
p416
sbag0
(g1
g2
(lp417
tp418
Rp419
(dp420
g8
S'id: 7'
p421
sbag0
(g1
g2
(lp422
g0
(g1
g2
(lp423
g0
(g1
g2
(lp424
(lp425
S'word: when, index: 8'
p426
aatp427
Rp428
(dp429
g8
Vdobj
p430
sbag0
(g1
g2
(lp431
g0
(g1
g2
(lp432
g0
(g1
g2
(lp433
g0
(g1
g2
(lp434
g0
(g1
g2
(lp435
(lp436
S'word: the, index: 24'
p437
aatp438
Rp439
(dp440
g8
Vdet
p441
sbatp442
Rp443
(dp444
g8
S'word: man, index: 25'
p445
sbatp446
Rp447
(dp448
g8
Vconj
p449
sbag0
(g1
g2
(lp450
g0
(g1
g2
(lp451
g0
(g1
g2
(lp452
(lp453
S'word: the, index: 12'
p454
aatp455
Rp456
(dp457
g8
Vdet
p458
sbag0
(g1
g2
(lp459
(lp460
S'word: boy, index: 15'
p461
aatp462
Rp463
(dp464
g8
Vappos
p465
sbatp466
Rp467
(dp468
g8
S'word: girl, index: 13'
p469
sbatp470
Rp471
(dp472
g8
Vdep
p473
sbag0
(g1
g2
(lp474
g0
(g1
g2
(lp475
g0
(g1
g2
(lp476
g443
atp477
Rp478
(dp479
g8
Vconj
p480
sbag0
(g1
g2
(lp481
(lp482
S'word: the, index: 18'
p483
aatp484
Rp485
(dp486
g8
Vdet
p487
sbag0
(g1
g2
(lp488
(lp489
S'word: boy, index: 21'
p490
aatp491
Rp492
(dp493
g8
Vconj
p494
sbatp495
Rp496
(dp497
g8
S'word: girl, index: 19'
p498
sbatp499
Rp500
(dp501
g8
Vconj
p502
sbag0
(g1
g2
(lp503
(lp504
S'word: boy, index: 21'
p505
aatp506
Rp507
(dp508
g8
Vconj
p509
sbatp510
Rp511
(dp512
g8
S'word: one, index: 11'
p513
sbatp514
Rp515
(dp516
g8
Vconj
p517
sbag0
(g1
g2
(lp518
g0
(g1
g2
(lp519
g0
(g1
g2
(lp520
(lp521
S'word: twinking, index: 2'
p522
aatp523
Rp524
(dp525
g8
Vamod
p526
sbatp527
Rp528
(dp529
g8
S'word: The, index: 1'
p530
sbatp531
Rp532
(dp533
g8
Vdep
p534
sbag0
(g1
g2
(lp535
g496
atp536
Rp537
(dp538
g8
Vconj
p539
sbag0
(g1
g2
(lp540
g0
(g1
g2
(lp541
g0
(g1
g2
(lp542
(lp543
S'word: the, index: 3'
p544
aatp545
Rp546
(dp547
g8
Vdet
p548
sbag0
(g1
g2
(lp549
(lp550
S'word: class, index: 4'
p551
aatp552
Rp553
(dp554
g8
Vnn
p555
sbag0
(g1
g2
(lp556
(lp557
S'word: I, index: 5'
p558
aatp559
Rp560
(dp561
g8
Vnum
p562
sbatp563
Rp564
(dp565
g8
S'word: dont, index: 6'
p566
sbatp567
Rp568
(dp569
g8
Vnsubj
p570
sbatp571
Rp572
(dp573
g8
S'word: know, index: 7'
p574
sbatp575
Rp576
(dp577
g8
S'id: 8'
p578
sbag0
(g1
g2
(lp579
g0
(g1
g2
(lp580
g0
(g1
g2
(lp581
g0
(g1
g2
(lp582
g0
(g1
g2
(lp583
(lp584
S'word: The, index: 1'
p585
aatp586
Rp587
(dp588
g8
Vdet
p589
sbatp590
Rp591
(dp592
g8
S'word: girls, index: 2'
p593
sbatp594
Rp595
(dp596
g8
Vnsubj
p597
sbag0
(g1
g2
(lp598
(lp599
S'word: are, index: 3'
p600
aatp601
Rp602
(dp603
g8
Vaux
p604
sbag0
(g1
g2
(lp605
g0
(g1
g2
(lp606
g0
(g1
g2
(lp607
(lp608
S'word: their, index: 5'
p609
aatp610
Rp611
(dp612
g8
Vposs
p613
sbatp614
Rp615
(dp616
g8
S'word: X., index: 6'
p617
sbatp618
Rp619
(dp620
g8
Vdobj
p621
sbatp622
Rp623
(dp624
g8
S'word: X, index: 4'
p625
sbatp626
Rp627
(dp628
g8
S'id: 9'
p629
sbatp630
Rp631
(dp632
g8
S'sentences'
p633
sb.