ccopy_reg
_reconstructor
p0
(cnltk.tree
Tree
p1
c__builtin__
list
p2
(lp3
g0
(g1
g2
(lp4
g0
(g1
g2
(lp5
g0
(g1
g2
(lp6
(lp7
S'word: The, index: 1'
p8
aatp9
Rp10
(dp11
S'_label'
p12
Vnsubj
p13
sbag0
(g1
g2
(lp14
(lp15
S'word: there, index: 3'
p16
aatp17
Rp18
(dp19
g12
Vexpl
p20
sbag0
(g1
g2
(lp21
g0
(g1
g2
(lp22
g0
(g1
g2
(lp23
(lp24
S'word: a, index: 5'
p25
aatp26
Rp27
(dp28
g12
Vdet
p29
sbag0
(g1
g2
(lp30
g0
(g1
g2
(lp31
g0
(g1
g2
(lp32
(lp33
S'word: the, index: 8'
p34
aatp35
Rp36
(dp37
g12
Vdet
p38
sbag0
(g1
g2
(lp39
g0
(g1
g2
(lp40
g0
(g1
g2
(lp41
(lp42
S'word: on, index: 11'
p43
aatp44
Rp45
(dp46
g12
Vprep
p47
sbatp48
Rp49
(dp50
g12
S'word: going, index: 10'
p51
sbatp52
Rp53
(dp54
g12
Vvmod
p55
sbatp56
Rp57
(dp58
g12
S'word: lake, index: 9'
p59
sbatp60
Rp61
(dp62
g12
Vprep
p63
sbatp64
Rp65
(dp66
g12
S'word: picnic, index: 6'
p67
sbatp68
Rp69
(dp70
g12
Vnsubj
p71
sbatp72
Rp73
(dp74
g12
S'word: is, index: 4'
p75
sbatp76
Rp77
(dp78
g12
S'id: 0'
p79
sbag0
(g1
g2
(lp80
g0
(g1
g2
(lp81
g0
(g1
g2
(lp82
(lp83
S'word: Beautiful, index: 1'
p84
aatp85
Rp86
(dp87
g12
Vamod
p88
sbatp89
Rp90
(dp91
g12
S'word: day, index: 2'
p92
sbatp93
Rp94
(dp95
g12
S'id: 1'
p96
sbag0
(g1
g2
(lp97
g0
(g1
g2
(lp98
g0
(g1
g2
(lp99
(lp100
S'word: There, index: 1'
p101
aatp102
Rp103
(dp104
g12
Vexpl
p105
sbag0
(g1
g2
(lp106
g0
(g1
g2
(lp107
g0
(g1
g2
(lp108
g0
(g1
g2
(lp109
g0
(g1
g2
(lp110
(lp111
S'word: a, index: 6'
p112
aatp113
Rp114
(dp115
g12
Vdet
p116
sbag0
(g1
g2
(lp117
(lp118
S'word: big, index: 7'
p119
aatp120
Rp121
(dp122
g12
Vamod
p123
sbag0
(g1
g2
(lp124
g0
(g1
g2
(lp125
g0
(g1
g2
(lp126
(lp127
S'word: the, index: 10'
p128
aatp129
Rp130
(dp131
g12
Vdet
p132
sbag0
(g1
g2
(lp133
g0
(g1
g2
(lp134
g0
(g1
g2
(lp135
(lp136
S'word: a, index: 13'
p137
aatp138
Rp139
(dp140
g12
Vdet
p141
sbag0
(g1
g2
(lp142
g0
(g1
g2
(lp143
g0
(g1
g2
(lp144
g0
(g1
g2
(lp145
g0
(g1
g2
(lp146
g0
(g1
g2
(lp147
g0
(g1
g2
(lp148
(lp149
S'word: the, index: 20'
p150
aatp151
Rp152
(dp153
g12
Vdet
p154
sbatp155
Rp156
(dp157
g12
S'word: house, index: 21'
p158
sbatp159
Rp160
(dp161
g12
Vappos
p162
sbatp163
Rp164
(dp165
g12
S'word: it, index: 18'
p166
sbatp167
Rp168
(dp169
g12
Vprep
p170
sbatp171
Rp172
(dp173
g12
S'word: parked, index: 15'
p174
sbatp175
Rp176
(dp177
g12
Vvmod
p178
sbatp179
Rp180
(dp181
g12
S'word: car, index: 14'
p182
sbatp183
Rp184
(dp185
g12
Vprep
p186
sbatp187
Rp188
(dp189
g12
S'word: house, index: 11'
p190
sbatp191
Rp192
(dp193
g12
Vprep
p194
sbatp195
Rp196
(dp197
g12
S'word: tree, index: 8'
p198
sbatp199
Rp200
(dp201
g12
Vappos
p202
sbag0
(g1
g2
(lp203
(lp204
S'word: a, index: 3'
p205
aatp206
Rp207
(dp208
g12
Vdet
p209
sbatp210
Rp211
(dp212
g12
S'word: tree, index: 4'
p213
sbatp214
Rp215
(dp216
g12
Vnsubj
p217
sbatp218
Rp219
(dp220
g12
S"word: 's, index: 2"
p221
sbatp222
Rp223
(dp224
g12
S'id: 2'
p225
sbag0
(g1
g2
(lp226
g0
(g1
g2
(lp227
g0
(g1
g2
(lp228
(lp229
S'word: There, index: 1'
p230
aatp231
Rp232
(dp233
g12
Vexpl
p234
sbag0
(g1
g2
(lp235
g0
(g1
g2
(lp236
g0
(g1
g2
(lp237
(lp238
S'word: a, index: 3'
p239
aatp240
Rp241
(dp242
g12
Vdet
p243
sbag0
(g1
g2
(lp244
(lp245
S'word: American, index: 4'
p246
aatp247
Rp248
(dp249
g12
Vamod
p250
sbatp251
Rp252
(dp253
g12
S'word: flag, index: 5'
p254
sbatp255
Rp256
(dp257
g12
Vnsubj
p258
sbatp259
Rp260
(dp261
g12
S"word: 's, index: 2"
p262
sbatp263
Rp264
(dp265
g12
S'id: 3'
p266
sbag0
(g1
g2
(lp267
g0
(g1
g2
(lp268
g0
(g1
g2
(lp269
(lp270
S'word: There, index: 1'
p271
aatp272
Rp273
(dp274
g12
Vexpl
p275
sbag0
(g1
g2
(lp276
g0
(g1
g2
(lp277
g0
(g1
g2
(lp278
(lp279
S'word: a, index: 3'
p280
aatp281
Rp282
(dp283
g12
Vdet
p284
sbag0
(g1
g2
(lp285
g0
(g1
g2
(lp286
g0
(g1
g2
(lp287
g0
(g1
g2
(lp288
g0
(g1
g2
(lp289
(lp290
S'word: the, index: 11'
p291
aatp292
Rp293
(dp294
g12
Vdet
p295
sbatp296
Rp297
(dp298
g12
S'word: boy, index: 12'
p299
sbatp300
Rp301
(dp302
g12
Vagent
p303
sbag0
(g1
g2
(lp304
(lp305
S'word: being, index: 5'
p306
aatp307
Rp308
(dp309
g12
Vauxpass
p310
sbag0
(g1
g2
(lp311
g0
(g1
g2
(lp312
g0
(g1
g2
(lp313
(lp314
S'word: the, index: 7'
p315
aatp316
Rp317
(dp318
g12
Vdet
p319
sbatp320
Rp321
(dp322
g12
S'word: bo, index: 8'
p323
sbatp324
Rp325
(dp326
g12
Vdobj
p327
sbatp328
Rp329
(dp330
g12
S'word: flown, index: 6'
p331
sbatp332
Rp333
(dp334
g12
Vvmod
p335
sbatp336
Rp337
(dp338
g12
S'word: kite, index: 4'
p339
sbatp340
Rp341
(dp342
g12
Vnsubj
p343
sbatp344
Rp345
(dp346
g12
S"word: 's, index: 2"
p347
sbatp348
Rp349
(dp350
g12
S'id: 4'
p351
sbag0
(g1
g2
(lp352
g0
(g1
g2
(lp353
g0
(g1
g2
(lp354
(lp355
S'word: A, index: 1'
p356
aatp357
Rp358
(dp359
g12
Vdet
p360
sbag0
(g1
g2
(lp361
g0
(g1
g2
(lp362
g0
(g1
g2
(lp363
(lp364
S'word: being, index: 3'
p365
aatp366
Rp367
(dp368
g12
Vauxpass
p369
sbag0
(g1
g2
(lp370
g0
(g1
g2
(lp371
g0
(g1
g2
(lp372
(lp373
S'word: the, index: 6'
p374
aatp375
Rp376
(dp377
g12
Vdet
p378
sbatp379
Rp380
(dp381
g12
S'word: sister, index: 7'
p382
sbatp383
Rp384
(dp385
g12
Vagent
p386
sbatp387
Rp388
(dp389
g12
S'word: built, index: 4'
p390
sbatp391
Rp392
(dp393
g12
Vvmod
p394
sbatp395
Rp396
(dp397
g12
S'word: sandcastle, index: 2'
p398
sbatp399
Rp400
(dp401
g12
S'id: 5'
p402
sbag0
(g1
g2
(lp403
g0
(g1
g2
(lp404
g0
(g1
g2
(lp405
(lp406
S'word: also, index: 3'
p407
aatp408
Rp409
(dp410
g12
Vadvmod
p411
sbag0
(g1
g2
(lp412
g0
(g1
g2
(lp413
g0
(g1
g2
(lp414
(lp415
S'word: a, index: 4'
p416
aatp417
Rp418
(dp419
g12
Vdet
p420
sbag0
(g1
g2
(lp421
g0
(g1
g2
(lp422
g0
(g1
g2
(lp423
g0
(g1
g2
(lp424
g0
(g1
g2
(lp425
(lp426
S'word: the, index: 8'
p427
aatp428
Rp429
(dp430
g12
Vdet
p431
sbatp432
Rp433
(dp434
g12
S'word: boy, index: 9'
p435
sbatp436
Rp437
(dp438
g12
Vprep
p439
sbatp440
Rp441
(dp442
g12
S'word: running, index: 6'
p443
sbatp444
Rp445
(dp446
g12
Vvmod
p447
sbatp448
Rp449
(dp450
g12
S'word: dog, index: 5'
p451
sbatp452
Rp453
(dp454
g12
Vnsubj
p455
sbag0
(g1
g2
(lp456
(lp457
S'word: There, index: 1'
p458
aatp459
Rp460
(dp461
g12
Vexpl
p462
sbatp463
Rp464
(dp465
g12
S"word: 's, index: 2"
p466
sbatp467
Rp468
(dp469
g12
S'id: 6'
p470
sbag0
(g1
g2
(lp471
g0
(g1
g2
(lp472
g0
(g1
g2
(lp473
(lp474
S'word: guess, index: 6'
p475
aatp476
Rp477
(dp478
g12
Vprep
p479
sbag0
(g1
g2
(lp480
g0
(g1
g2
(lp481
g0
(g1
g2
(lp482
(lp483
S'word: a, index: 7'
p484
aatp485
Rp486
(dp487
g12
Vdet
p488
sbag0
(g1
g2
(lp489
g0
(g1
g2
(lp490
g0
(g1
g2
(lp491
g0
(g1
g2
(lp492
g0
(g1
g2
(lp493
(lp494
S'word: a, index: 10'
p495
aatp496
Rp497
(dp498
g12
Vdet
p499
sbag0
(g1
g2
(lp500
g0
(g1
g2
(lp501
g0
(g1
g2
(lp502
(lp503
S'word: the, index: 13'
p504
aatp505
Rp506
(dp507
g12
Vdet
p508
sbatp509
Rp510
(dp511
g12
S'word: dock, index: 14'
p512
sbatp513
Rp514
(dp515
g12
Vprep
p516
sbatp517
Rp518
(dp519
g12
S'word: fish, index: 11'
p520
sbatp521
Rp522
(dp523
g12
Vdobj
p524
sbatp525
Rp526
(dp527
g12
S'word: catching, index: 9'
p528
sbatp529
Rp530
(dp531
g12
Vvmod
p532
sbatp533
Rp534
(dp535
g12
S'word: granddad, index: 8'
p536
sbatp537
Rp538
(dp539
g12
Vdobj
p540
sbag0
(g1
g2
(lp541
(lp542
S'word: And, index: 1'
p543
aatp544
Rp545
(dp546
g12
Vcc
p547
sbag0
(g1
g2
(lp548
(lp549
S'word: it, index: 2'
p550
aatp551
Rp552
(dp553
g12
Vnsubj
p554
sbag0
(g1
g2
(lp555
(lp556
S'word: lo, index: 3'
p557
aatp558
Rp559
(dp560
g12
Vnsubj
p561
sbatp562
Rp563
(dp564
g12
S'word: looks, index: 4'
p565
sbatp566
Rp567
(dp568
g12
S'id: 7'
p569
sbag0
(g1
g2
(lp570
g0
(g1
g2
(lp571
g0
(g1
g2
(lp572
(lp573
S'word: There, index: 1'
p574
aatp575
Rp576
(dp577
g12
Vexpl
p578
sbag0
(g1
g2
(lp579
g0
(g1
g2
(lp580
g0
(g1
g2
(lp581
(lp582
S'word: a, index: 3'
p583
aatp584
Rp585
(dp586
g12
Vdet
p587
sbag0
(g1
g2
(lp588
g0
(g1
g2
(lp589
g0
(g1
g2
(lp590
g0
(g1
g2
(lp591
g0
(g1
g2
(lp592
(lp593
S'word: to, index: 8'
p594
aatp595
Rp596
(dp597
g12
Vaux
p598
sbag0
(g1
g2
(lp599
g0
(g1
g2
(lp600
g0
(g1
g2
(lp601
g0
(g1
g2
(lp602
g0
(g1
g2
(lp603
(lp604
S'word: the, index: 14'
p605
aatp606
Rp607
(dp608
g12
Vdet
p609
sbag0
(g1
g2
(lp610
(lp611
S'word: her, index: 17'
p612
aatp613
Rp614
(dp615
g12
Vprep
p616
sbatp617
Rp618
(dp619
g12
S'word: radio, index: 15'
p620
sbatp621
Rp622
(dp623
g12
Vprep
p624
sbag0
(g1
g2
(lp625
(lp626
S'word: quietely, index: 18'
p627
aatp628
Rp629
(dp630
g12
Vadvmod
p631
sbag0
(g1
g2
(lp632
g0
(g1
g2
(lp633
g0
(g1
g2
(lp634
g0
(g1
g2
(lp635
g0
(g1
g2
(lp636
(lp637
S'word: a, index: 24'
p638
aatp639
Rp640
(dp641
g12
Vdet
p642
sbag0
(g1
g2
(lp643
g0
(g1
g2
(lp644
g0
(g1
g2
(lp645
(lp646
S'word: the, index: 27'
p647
aatp648
Rp649
(dp650
g12
Vdet
p651
sbag0
(g1
g2
(lp652
g0
(g1
g2
(lp653
g0
(g1
g2
(lp654
(lp655
S'word: his, index: 30'
p656
aatp657
Rp658
(dp659
g12
Vposs
p660
sbatp661
Rp662
(dp663
g12
S'word: shoes, index: 31'
p664
sbatp665
Rp666
(dp667
g12
Vprep
p668
sbatp669
Rp670
(dp671
g12
S'word: quilt, index: 28'
p672
sbatp673
Rp674
(dp675
g12
Vprep
p676
sbatp677
Rp678
(dp679
g12
S'word: book, index: 25'
p680
sbatp681
Rp682
(dp683
g12
Vdobj
p684
sbag0
(g1
g2
(lp685
(lp686
S'word: off, index: 32'
p687
aatp688
Rp689
(dp690
g12
Vprep
p691
sbag0
(g1
g2
(lp692
(lp693
S'word: while, index: 20'
p694
aatp695
Rp696
(dp697
g12
Vmark
p698
sbag0
(g1
g2
(lp699
g0
(g1
g2
(lp700
g0
(g1
g2
(lp701
(lp702
S'word: the, index: 21'
p703
aatp704
Rp705
(dp706
g12
Vdet
p707
sbatp708
Rp709
(dp710
g12
S'word: daddy, index: 22'
p711
sbatp712
Rp713
(dp714
g12
Vnsubj
p715
sbatp716
Rp717
(dp718
g12
S'word: reads, index: 23'
p719
sbatp720
Rp721
(dp722
g12
Vadvcl
p723
sbatp724
Rp725
(dp726
g12
S'word: listen, index: 12'
p727
sbatp728
Rp729
(dp730
g12
Vconj
p731
sbatp732
Rp733
(dp734
g12
S'word: drink, index: 9'
p735
sbatp736
Rp737
(dp738
g12
Vvmod
p739
sbag0
(g1
g2
(lp740
g725
atp741
Rp742
(dp743
g12
Vvmod
p744
sbag0
(g1
g2
(lp745
g0
(g1
g2
(lp746
g0
(g1
g2
(lp747
(lp748
S'word: herself, index: 6'
p749
aatp750
Rp751
(dp752
g12
Vdep
p753
sbatp754
Rp755
(dp756
g12
S'word: something, index: 7'
p757
sbatp758
Rp759
(dp760
g12
Vdobj
p761
sbatp762
Rp763
(dp764
g12
S'word: pouring, index: 5'
p765
sbatp766
Rp767
(dp768
g12
Vvmod
p769
sbatp770
Rp771
(dp772
g12
S'word: mom, index: 4'
p773
sbatp774
Rp775
(dp776
g12
Vnsubj
p777
sbatp778
Rp779
(dp780
g12
S"word: 's, index: 2"
p781
sbatp782
Rp783
(dp784
g12
S'id: 8'
p785
sbag0
(g1
g2
(lp786
g0
(g1
g2
(lp787
g0
(g1
g2
(lp788
(lp789
S'word: They, index: 1'
p790
aatp791
Rp792
(dp793
g12
Vnsubj
p794
sbag0
(g1
g2
(lp795
g0
(g1
g2
(lp796
g0
(g1
g2
(lp797
(lp798
S'word: to, index: 3'
p799
aatp800
Rp801
(dp802
g12
Vaux
p803
sbag0
(g1
g2
(lp804
(lp805
S'word: be, index: 4'
p806
aatp807
Rp808
(dp809
g12
Vcop
p810
sbag0
(g1
g2
(lp811
(lp812
S'word: all, index: 5'
p813
aatp814
Rp815
(dp816
g12
Vdet
p817
sbag0
(g1
g2
(lp818
g0
(g1
g2
(lp819
g0
(g1
g2
(lp820
g0
(g1
g2
(lp821
g0
(g1
g2
(lp822
(lp823
S'word: good, index: 11'
p824
aatp825
Rp826
(dp827
g12
Vamod
p828
sbag0
(g1
g2
(lp829
g0
(g1
g2
(lp830
g0
(g1
g2
(lp831
(lp832
S'word: the, index: 14'
p833
aatp834
Rp835
(dp836
g12
Vdet
p837
sbatp838
Rp839
(dp840
g12
S'word: lake, index: 15'
p841
sbatp842
Rp843
(dp844
g12
Vprep
p845
sbag0
(g1
g2
(lp846
(lp847
S'word: a, index: 10'
p848
aatp849
Rp850
(dp851
g12
Vdet
p852
sbatp853
Rp854
(dp855
g12
S'word: time, index: 12'
p856
sbatp857
Rp858
(dp859
g12
Vdobj
p860
sbatp861
Rp862
(dp863
g12
S'word: having, index: 9'
p864
sbatp865
Rp866
(dp867
g12
Vconj
p868
sbatp869
Rp870
(dp871
g12
S'word: relaxing, index: 6'
p872
sbatp873
Rp874
(dp875
g12
Vxcomp
p876
sbag0
(g1
g2
(lp877
g862
atp878
Rp879
(dp880
g12
Vxcomp
p881
sbatp882
Rp883
(dp884
g12
S'word: seem, index: 2'
p885
sbatp886
Rp887
(dp888
g12
S'id: 9'
p889
sbag0
(g1
g2
(lp890
g0
(g1
g2
(lp891
g0
(g1
g2
(lp892
(lp893
S'word: There, index: 1'
p894
aatp895
Rp896
(dp897
g12
Vexpl
p898
sbag0
(g1
g2
(lp899
(lp900
S'word: also, index: 3'
p901
aatp902
Rp903
(dp904
g12
Vadvmod
p905
sbag0
(g1
g2
(lp906
g0
(g1
g2
(lp907
g0
(g1
g2
(lp908
(lp909
S'word: some, index: 4'
p910
aatp911
Rp912
(dp913
g12
Vdet
p914
sbatp915
Rp916
(dp917
g12
S'word: people, index: 5'
p918
sbatp919
Rp920
(dp921
g12
Vnsubj
p922
sbag0
(g1
g2
(lp923
g0
(g1
g2
(lp924
g0
(g1
g2
(lp925
g0
(g1
g2
(lp926
g0
(g1
g2
(lp927
(lp928
S'word: sailboats, index: 8'
p929
aatp930
Rp931
(dp932
g12
Vpobj
p933
sbatp934
Rp935
(dp936
g12
S'word: in, index: 7'
p937
sbatp938
Rp939
(dp940
g12
Vpcomp
p941
sbatp942
Rp943
(dp944
g12
S'word: out, index: 6'
p945
sbatp946
Rp947
(dp948
g12
Vprep
p949
sbatp950
Rp951
(dp952
g12
S'word: is, index: 2'
p953
sbatp954
Rp955
(dp956
g12
S'id: 10'
p957
sbag0
(g1
g2
(lp958
g0
(g1
g2
(lp959
g0
(g1
g2
(lp960
(lp961
S'word: I, index: 1'
p962
aatp963
Rp964
(dp965
g12
Vnsubj
p966
sbag0
(g1
g2
(lp967
g0
(g1
g2
(lp968
g0
(g1
g2
(lp969
g0
(g1
g2
(lp970
g0
(g1
g2
(lp971
g0
(g1
g2
(lp972
g0
(g1
g2
(lp973
g0
(g1
g2
(lp974
g0
(g1
g2
(lp975
g0
(g1
g2
(lp976
g0
(g1
g2
(lp977
(lp978
S'word: that, index: 21'
p979
aatp980
Rp981
(dp982
g12
Vmark
p983
sbag0
(g1
g2
(lp984
(lp985
S'word: they, index: 22'
p986
aatp987
Rp988
(dp989
g12
Vnsubj
p990
sbag0
(g1
g2
(lp991
(lp992
S'word: are, index: 23'
p993
aatp994
Rp995
(dp996
g12
Vaux
p997
sbag0
(g1
g2
(lp998
(lp999
S'word: just, index: 24'
p1000
aatp1001
Rp1002
(dp1003
g12
Vadvmod
p1004
sbatp1005
Rp1006
(dp1007
g12
S'word: visiting, index: 25'
p1008
sbatp1009
Rp1010
(dp1011
g12
Vdep
p1012
sbatp1013
Rp1014
(dp1015
g12
S'word: place, index: 20'
p1016
sbatp1017
Rp1018
(dp1019
g12
Vconj
p1020
sbag0
(g1
g2
(lp1021
(lp1022
S'word: if, index: 12'
p1023
aatp1024
Rp1025
(dp1026
g12
Vmark
p1027
sbag0
(g1
g2
(lp1028
(lp1029
S'word: it, index: 13'
p1030
aatp1031
Rp1032
(dp1033
g12
Vnsubj
p1034
sbag0
(g1
g2
(lp1035
(lp1036
S"word: 's, index: 14"
p1037
aatp1038
Rp1039
(dp1040
g12
Vcop
p1041
sbag0
(g1
g2
(lp1042
(lp1043
S'word: a, index: 15'
p1044
aatp1045
Rp1046
(dp1047
g12
Vdet
p1048
sbag0
(g1
g2
(lp1049
(lp1050
S'word: vacation, index: 16'
p1051
aatp1052
Rp1053
(dp1054
g12
Vnn
p1055
sbatp1056
Rp1057
(dp1058
g12
S'word: home, index: 17'
p1059
sbatp1060
Rp1061
(dp1062
g12
Vadvcl
p1063
sbag0
(g1
g2
(lp1064
(lp1065
S'word: whether, index: 4'
p1066
aatp1067
Rp1068
(dp1069
g12
Vmark
p1070
sbag0
(g1
g2
(lp1071
(lp1072
S'word: it, index: 5'
p1073
aatp1074
Rp1075
(dp1076
g12
Vnsubj
p1077
sbag0
(g1
g2
(lp1078
g0
(g1
g2
(lp1079
g0
(g1
g2
(lp1080
g1057
atp1081
Rp1082
(dp1083
g12
Vconj
p1084
sbag0
(g1
g2
(lp1085
g1014
atp1086
Rp1087
(dp1088
g12
Vconj
p1089
sbag0
(g1
g2
(lp1090
(lp1091
S'word: they, index: 7'
p1092
aatp1093
Rp1094
(dp1095
g12
Vnsubj
p1096
sbag0
(g1
g2
(lp1097
(lp1098
S'word: here, index: 9'
p1099
aatp1100
Rp1101
(dp1102
g12
Vadvmod
p1103
sbatp1104
Rp1105
(dp1106
g12
S'word: lived, index: 8'
p1107
sbatp1108
Rp1109
(dp1110
g12
Vadvcl
p1111
sbatp1112
Rp1113
(dp1114
g12
S"word: 's, index: 6"
p1115
sbatp1116
Rp1117
(dp1118
g12
Vccomp
p1119
sbatp1120
Rp1121
(dp1122
g12
S'word: know, index: 3'
p1123
sbatp1124
Rp1125
(dp1126
g12
Vxcomp
p1127
sbatp1128
Rp1129
(dp1130
g12
S'word: dont, index: 2'
p1131
sbatp1132
Rp1133
(dp1134
g12
S'id: 11'
p1135
sbag0
(g1
g2
(lp1136
g0
(g1
g2
(lp1137
g0
(g1
g2
(lp1138
g0
(g1
g2
(lp1139
g0
(g1
g2
(lp1140
(lp1141
S'word: a, index: 5'
p1142
aatp1143
Rp1144
(dp1145
g12
Vdet
p1146
sbatp1147
Rp1148
(dp1149
g12
S'word: shovel, index: 6'
p1150
sbatp1151
Rp1152
(dp1153
g12
Vnsubj
p1154
sbag0
(g1
g2
(lp1155
g0
(g1
g2
(lp1156
g0
(g1
g2
(lp1157
(lp1158
S'word: that, index: 7'
p1159
aatp1160
Rp1161
(dp1162
g12
Vmark
p1163
sbag0
(g1
g2
(lp1164
g0
(g1
g2
(lp1165
g0
(g1
g2
(lp1166
(lp1167
S'word: the, index: 8'
p1168
aatp1169
Rp1170
(dp1171
g12
Vdet
p1172
sbatp1173
Rp1174
(dp1175
g12
S'word: siser, index: 9'
p1176
sbatp1177
Rp1178
(dp1179
g12
Vnsubj
p1180
sbag0
(g1
g2
(lp1181
(lp1182
S'word: is, index: 10'
p1183
aatp1184
Rp1185
(dp1186
g12
Vaux
p1187
sbag0
(g1
g2
(lp1188
g0
(g1
g2
(lp1189
g0
(g1
g2
(lp1190
(lp1191
S'word: to, index: 12'
p1192
aatp1193
Rp1194
(dp1195
g12
Vaux
p1196
sbag0
(g1
g2
(lp1197
g0
(g1
g2
(lp1198
g0
(g1
g2
(lp1199
(lp1200
S'word: the, index: 14'
p1201
aatp1202
Rp1203
(dp1204
g12
Vdet
p1205
sbatp1206
Rp1207
(dp1208
g12
S'word: sandcastle, index: 15'
p1209
sbatp1210
Rp1211
(dp1212
g12
Vdobj
p1213
sbatp1214
Rp1215
(dp1216
g12
S'word: build, index: 13'
p1217
sbatp1218
Rp1219
(dp1220
g12
Vxcomp
p1221
sbatp1222
Rp1223
(dp1224
g12
S'word: using, index: 11'
p1225
sbatp1226
Rp1227
(dp1228
g12
Vccomp
p1229
sbag0
(g1
g2
(lp1230
(lp1231
S'word: There, index: 1'
p1232
aatp1233
Rp1234
(dp1235
g12
Vexpl
p1236
sbag0
(g1
g2
(lp1237
g0
(g1
g2
(lp1238
g0
(g1
g2
(lp1239
g1148
atp1240
Rp1241
(dp1242
g12
Vconj
p1243
sbatp1244
Rp1245
(dp1246
g12
S'word: bucket, index: 3'
p1247
sbatp1248
Rp1249
(dp1250
g12
Vnsubj
p1251
sbatp1252
Rp1253
(dp1254
g12
S"word: 's, index: 2"
p1255
sbatp1256
Rp1257
(dp1258
g12
S'id: 12'
p1259
sbatp1260
Rp1261
(dp1262
g12
S'sentences'
p1263
sb.