ccopy_reg
_reconstructor
p0
(cnltk.tree
Tree
p1
c__builtin__
list
p2
(lp3
g0
(g1
g2
(lp4
g0
(g1
g2
(lp5
g0
(g1
g2
(lp6
Vok
p7
atp8
Rp9
(dp10
S'_label'
p11
VNN
p12
sbag0
(g1
g2
(lp13
V.
p14
atp15
Rp16
(dp17
g11
V.
p18
sbatp19
Rp20
(dp21
g11
VNP
p22
sbatp23
Rp24
(dp25
g11
S'id: 0'
p26
sbag0
(g1
g2
(lp27
g0
(g1
g2
(lp28
g0
(g1
g2
(lp29
g0
(g1
g2
(lp30
VThis
p31
atp32
Rp33
(dp34
g11
VDT
p35
sbatp36
Rp37
(dp38
g11
VNP
p39
sbag0
(g1
g2
(lp40
g0
(g1
g2
(lp41
Vis
p42
atp43
Rp44
(dp45
g11
VVBZ
p46
sbag0
(g1
g2
(lp47
g0
(g1
g2
(lp48
g0
(g1
g2
(lp49
Va
p50
atp51
Rp52
(dp53
g11
VDT
p54
sbag0
(g1
g2
(lp55
Vs-u-r
p56
atp57
Rp58
(dp59
g11
VJJ
p60
sbag0
(g1
g2
(lp61
Vcircus
p62
atp63
Rp64
(dp65
g11
VNN
p66
sbatp67
Rp68
(dp69
g11
VNP
p70
sbag0
(g1
g2
(lp71
V,
p72
atp73
Rp74
(dp75
g11
V,
p76
sbag0
(g1
g2
(lp77
g0
(g1
g2
(lp78
Vcircus
p79
atp80
Rp81
(dp82
g11
VNN
p83
sbatp84
Rp85
(dp86
g11
VNP
p87
sbatp88
Rp89
(dp90
g11
VNP
p91
sbatp92
Rp93
(dp94
g11
VVP
p95
sbag0
(g1
g2
(lp96
V.
p97
atp98
Rp99
(dp100
g11
V.
p101
sbatp102
Rp103
(dp104
g11
VS
p105
sbatp106
Rp107
(dp108
g11
S'id: 1'
p109
sbag0
(g1
g2
(lp110
g0
(g1
g2
(lp111
g0
(g1
g2
(lp112
g0
(g1
g2
(lp113
VThere
p114
atp115
Rp116
(dp117
g11
VEX
p118
sbatp119
Rp120
(dp121
g11
VNP
p122
sbag0
(g1
g2
(lp123
g0
(g1
g2
(lp124
Vis
p125
atp126
Rp127
(dp128
g11
VVBZ
p129
sbag0
(g1
g2
(lp130
V,
p131
atp132
Rp133
(dp134
g11
V,
p135
sbag0
(g1
g2
(lp136
g0
(g1
g2
(lp137
Vthat
p138
atp139
Rp140
(dp141
g11
VIN
p142
sbag0
(g1
g2
(lp143
g0
(g1
g2
(lp144
g0
(g1
g2
(lp145
Vthere
p146
atp147
Rp148
(dp149
g11
VEX
p150
sbatp151
Rp152
(dp153
g11
VNP
p154
sbag0
(g1
g2
(lp155
g0
(g1
g2
(lp156
Vis
p157
atp158
Rp159
(dp160
g11
VVBZ
p161
sbag0
(g1
g2
(lp162
g0
(g1
g2
(lp163
g0
(g1
g2
(lp164
Vclown
p165
atp166
Rp167
(dp168
g11
VNN
p169
sbatp170
Rp171
(dp172
g11
VNP
p173
sbag0
(g1
g2
(lp174
V,
p175
atp176
Rp177
(dp178
g11
V,
p179
sbag0
(g1
g2
(lp180
g0
(g1
g2
(lp181
g0
(g1
g2
(lp182
Vclown
p183
atp184
Rp185
(dp186
g11
VNN
p187
sbatp188
Rp189
(dp190
g11
VNP
p191
sbag0
(g1
g2
(lp192
V,
p193
atp194
Rp195
(dp196
g11
V,
p197
sbag0
(g1
g2
(lp198
g0
(g1
g2
(lp199
Vclown
p200
atp201
Rp202
(dp203
g11
VNN
p204
sbatp205
Rp206
(dp207
g11
VNP
p208
sbatp209
Rp210
(dp211
g11
VNP
p212
sbatp213
Rp214
(dp215
g11
VNP
p216
sbatp217
Rp218
(dp219
g11
VVP
p220
sbatp221
Rp222
(dp223
g11
VS
p224
sbatp225
Rp226
(dp227
g11
VSBAR
p228
sbatp229
Rp230
(dp231
g11
VVP
p232
sbag0
(g1
g2
(lp233
V.
p234
atp235
Rp236
(dp237
g11
V.
p238
sbatp239
Rp240
(dp241
g11
VS
p242
sbatp243
Rp244
(dp245
g11
S'id: 2'
p246
sbag0
(g1
g2
(lp247
g0
(g1
g2
(lp248
g0
(g1
g2
(lp249
g0
(g1
g2
(lp250
g0
(g1
g2
(lp251
g0
(g1
g2
(lp252
VThere
p253
atp254
Rp255
(dp256
g11
VEX
p257
sbatp258
Rp259
(dp260
g11
VNP
p261
sbag0
(g1
g2
(lp262
g0
(g1
g2
(lp263
V's
p264
atp265
Rp266
(dp267
g11
VVBZ
p268
sbag0
(g1
g2
(lp269
g0
(g1
g2
(lp270
Va
p271
atp272
Rp273
(dp274
g11
VDT
p275
sbag0
(g1
g2
(lp276
Vlittle
p277
atp278
Rp279
(dp280
g11
VJJ
p281
sbag0
(g1
g2
(lp282
Vgirl
p283
atp284
Rp285
(dp286
g11
VNN
p287
sbatp288
Rp289
(dp290
g11
VNP
p291
sbatp292
Rp293
(dp294
g11
VVP
p295
sbatp296
Rp297
(dp298
g11
VS
p299
sbag0
(g1
g2
(lp300
V,
p301
atp302
Rp303
(dp304
g11
V,
p305
sbag0
(g1
g2
(lp306
g0
(g1
g2
(lp307
Vthere
p308
atp309
Rp310
(dp311
g11
VEX
p312
sbatp313
Rp314
(dp315
g11
VNP
p316
sbag0
(g1
g2
(lp317
g0
(g1
g2
(lp318
V's
p319
atp320
Rp321
(dp322
g11
VVBZ
p323
sbag0
(g1
g2
(lp324
g0
(g1
g2
(lp325
Va
p326
atp327
Rp328
(dp329
g11
VDT
p330
sbag0
(g1
g2
(lp331
Vdad
p332
atp333
Rp334
(dp335
g11
VNN
p336
sbatp337
Rp338
(dp339
g11
VNP
p340
sbatp341
Rp342
(dp343
g11
VVP
p344
sbatp345
Rp346
(dp347
g11
VS
p348
sbag0
(g1
g2
(lp349
V,
p350
atp351
Rp352
(dp353
g11
V,
p354
sbag0
(g1
g2
(lp355
g0
(g1
g2
(lp356
g0
(g1
g2
(lp357
Vthere
p358
atp359
Rp360
(dp361
g11
VEX
p362
sbatp363
Rp364
(dp365
g11
VNP
p366
sbag0
(g1
g2
(lp367
g0
(g1
g2
(lp368
Va
p369
atp370
Rp371
(dp372
g11
VDT
p373
sbag0
(g1
g2
(lp374
Vboy
p375
atp376
Rp377
(dp378
g11
VNN
p379
sbatp380
Rp381
(dp382
g11
VNP
p383
sbatp384
Rp385
(dp386
g11
VS
p387
sbag0
(g1
g2
(lp388
V,
p389
atp390
Rp391
(dp392
g11
V,
p393
sbag0
(g1
g2
(lp394
g0
(g1
g2
(lp395
g0
(g1
g2
(lp396
Vthere
p397
atp398
Rp399
(dp400
g11
VEX
p401
sbatp402
Rp403
(dp404
g11
VNP
p405
sbag0
(g1
g2
(lp406
g0
(g1
g2
(lp407
V's
p408
atp409
Rp410
(dp411
g11
VVBZ
p412
sbag0
(g1
g2
(lp413
g0
(g1
g2
(lp414
Vanother
p415
atp416
Rp417
(dp418
g11
VDT
p419
sbag0
(g1
g2
(lp420
Vlittle
p421
atp422
Rp423
(dp424
g11
VJJ
p425
sbag0
(g1
g2
(lp426
Vgirl
p427
atp428
Rp429
(dp430
g11
VNN
p431
sbatp432
Rp433
(dp434
g11
VNP
p435
sbatp436
Rp437
(dp438
g11
VVP
p439
sbatp440
Rp441
(dp442
g11
VS
p443
sbag0
(g1
g2
(lp444
V,
p445
atp446
Rp447
(dp448
g11
V,
p449
sbag0
(g1
g2
(lp450
Vand
p451
atp452
Rp453
(dp454
g11
VCC
p455
sbag0
(g1
g2
(lp456
g0
(g1
g2
(lp457
g0
(g1
g2
(lp458
Vthere
p459
atp460
Rp461
(dp462
g11
VEX
p463
sbatp464
Rp465
(dp466
g11
VNP
p467
sbag0
(g1
g2
(lp468
g0
(g1
g2
(lp469
V's
p470
atp471
Rp472
(dp473
g11
VVBZ
p474
sbag0
(g1
g2
(lp475
g0
(g1
g2
(lp476
g0
(g1
g2
(lp477
Va
p478
atp479
Rp480
(dp481
g11
VDT
p482
sbag0
(g1
g2
(lp483
Vmom
p484
atp485
Rp486
(dp487
g11
VNN
p488
sbatp489
Rp490
(dp491
g11
VNP
p492
sbag0
(g1
g2
(lp493
Vup
p494
atp495
Rp496
(dp497
g11
VIN
p498
sbatp499
Rp500
(dp501
g11
VADVP
p502
sbag0
(g1
g2
(lp503
g0
(g1
g2
(lp504
Vthere
p505
atp506
Rp507
(dp508
g11
VRB
p509
sbatp510
Rp511
(dp512
g11
VADVP
p513
sbag0
(g1
g2
(lp514
V,
p515
atp516
Rp517
(dp518
g11
V,
p519
sbag0
(g1
g2
(lp520
g0
(g1
g2
(lp521
g0
(g1
g2
(lp522
Vthat
p523
atp524
Rp525
(dp526
g11
VDT
p527
sbatp528
Rp529
(dp530
g11
VWHNP
p531
sbag0
(g1
g2
(lp532
g0
(g1
g2
(lp533
g0
(g1
g2
(lp534
V's
p535
atp536
Rp537
(dp538
g11
VVBZ
p539
sbag0
(g1
g2
(lp540
g0
(g1
g2
(lp541
Va
p542
atp543
Rp544
(dp545
g11
VDT
p546
sbag0
(g1
g2
(lp547
Vmom
p548
atp549
Rp550
(dp551
g11
VNN
p552
sbatp553
Rp554
(dp555
g11
VNP
p556
sbatp557
Rp558
(dp559
g11
VVP
p560
sbatp561
Rp562
(dp563
g11
VS
p564
sbatp565
Rp566
(dp567
g11
VSBAR
p568
sbatp569
Rp570
(dp571
g11
VVP
p572
sbatp573
Rp574
(dp575
g11
VS
p576
sbag0
(g1
g2
(lp577
V.
p578
atp579
Rp580
(dp581
g11
V.
p582
sbatp583
Rp584
(dp585
g11
VS
p586
sbatp587
Rp588
(dp589
g11
S'id: 3'
p590
sbag0
(g1
g2
(lp591
g0
(g1
g2
(lp592
g0
(g1
g2
(lp593
g0
(g1
g2
(lp594
VAnd
p595
atp596
Rp597
(dp598
g11
VCC
p599
sbag0
(g1
g2
(lp600
g0
(g1
g2
(lp601
Vnow
p602
atp603
Rp604
(dp605
g11
VRB
p606
sbatp607
Rp608
(dp609
g11
VADVP
p610
sbag0
(g1
g2
(lp611
g0
(g1
g2
(lp612
Vthere
p613
atp614
Rp615
(dp616
g11
VEX
p617
sbatp618
Rp619
(dp620
g11
VNP
p621
sbag0
(g1
g2
(lp622
g0
(g1
g2
(lp623
V's
p624
atp625
Rp626
(dp627
g11
VVBZ
p628
sbag0
(g1
g2
(lp629
g0
(g1
g2
(lp630
Va
p631
atp632
Rp633
(dp634
g11
VDT
p635
sbag0
(g1
g2
(lp636
Vhorse
p637
atp638
Rp639
(dp640
g11
VNN
p641
sbatp642
Rp643
(dp644
g11
VNP
p645
sbatp646
Rp647
(dp648
g11
VVP
p649
sbatp650
Rp651
(dp652
g11
VS
p653
sbag0
(g1
g2
(lp654
V,
p655
atp656
Rp657
(dp658
g11
V,
p659
sbag0
(g1
g2
(lp660
Vand
p661
atp662
Rp663
(dp664
g11
VCC
p665
sbag0
(g1
g2
(lp666
g0
(g1
g2
(lp667
g0
(g1
g2
(lp668
Vthat
p669
atp670
Rp671
(dp672
g11
VDT
p673
sbatp674
Rp675
(dp676
g11
VNP
p677
sbag0
(g1
g2
(lp678
g0
(g1
g2
(lp679
V's
p680
atp681
Rp682
(dp683
g11
VVBZ
p684
sbag0
(g1
g2
(lp685
g0
(g1
g2
(lp686
g0
(g1
g2
(lp687
Va
p688
atp689
Rp690
(dp691
g11
VDT
p692
sbag0
(g1
g2
(lp693
Vwoman
p694
atp695
Rp696
(dp697
g11
VNN
p698
sbatp699
Rp700
(dp701
g11
VNP
p702
sbag0
(g1
g2
(lp703
g0
(g1
g2
(lp704
Vup
p705
atp706
Rp707
(dp708
g11
VIN
p709
sbag0
(g1
g2
(lp710
g0
(g1
g2
(lp711
g0
(g1
g2
(lp712
Vthere
p713
atp714
Rp715
(dp716
g11
VEX
p717
sbatp718
Rp719
(dp720
g11
VNP
p721
sbag0
(g1
g2
(lp722
g0
(g1
g2
(lp723
Vrunning
p724
atp725
Rp726
(dp727
g11
VVBG
p728
sbag0
(g1
g2
(lp729
g0
(g1
g2
(lp730
Vin
p731
atp732
Rp733
(dp734
g11
VIN
p735
sbag0
(g1
g2
(lp736
g0
(g1
g2
(lp737
g0
(g1
g2
(lp738
Vthe
p739
atp740
Rp741
(dp742
g11
VDT
p743
sbag0
(g1
g2
(lp744
Vhouse
p745
atp746
Rp747
(dp748
g11
VNN
p749
sbatp750
Rp751
(dp752
g11
VNP
p753
sbag0
(g1
g2
(lp754
V,
p755
atp756
Rp757
(dp758
g11
V,
p759
sbag0
(g1
g2
(lp760
g0
(g1
g2
(lp761
Vhorse
p762
atp763
Rp764
(dp765
g11
VNN
p766
sbatp767
Rp768
(dp769
g11
VNP
p770
sbatp771
Rp772
(dp773
g11
VNP
p774
sbatp775
Rp776
(dp777
g11
VPP
p778
sbatp779
Rp780
(dp781
g11
VVP
p782
sbatp783
Rp784
(dp785
g11
VS
p786
sbatp787
Rp788
(dp789
g11
VPP
p790
sbatp791
Rp792
(dp793
g11
VNP
p794
sbatp795
Rp796
(dp797
g11
VVP
p798
sbatp799
Rp800
(dp801
g11
VS
p802
sbag0
(g1
g2
(lp803
V.
p804
atp805
Rp806
(dp807
g11
V.
p808
sbatp809
Rp810
(dp811
g11
VS
p812
sbatp813
Rp814
(dp815
g11
S'id: 4'
p816
sbag0
(g1
g2
(lp817
g0
(g1
g2
(lp818
g0
(g1
g2
(lp819
VAnd
p820
atp821
Rp822
(dp823
g11
VCC
p824
sbag0
(g1
g2
(lp825
g0
(g1
g2
(lp826
Vthere
p827
atp828
Rp829
(dp830
g11
VEX
p831
sbatp832
Rp833
(dp834
g11
VNP
p835
sbag0
(g1
g2
(lp836
g0
(g1
g2
(lp837
Vthey
p838
atp839
Rp840
(dp841
g11
VPRP
p842
sbatp843
Rp844
(dp845
g11
VNP
p846
sbag0
(g1
g2
(lp847
g0
(g1
g2
(lp848
Vgo
p849
atp850
Rp851
(dp852
g11
VVBP
p853
sbag0
(g1
g2
(lp854
g0
(g1
g2
(lp855
Vinto
p856
atp857
Rp858
(dp859
g11
VIN
p860
sbag0
(g1
g2
(lp861
g0
(g1
g2
(lp862
Vthe
p863
atp864
Rp865
(dp866
g11
VDT
p867
sbag0
(g1
g2
(lp868
Vabute
p869
atp870
Rp871
(dp872
g11
VNN
p873
sbatp874
Rp875
(dp876
g11
VNP
p877
sbatp878
Rp879
(dp880
g11
VPP
p881
sbatp882
Rp883
(dp884
g11
VVP
p885
sbag0
(g1
g2
(lp886
V.
p887
atp888
Rp889
(dp890
g11
V.
p891
sbatp892
Rp893
(dp894
g11
VS
p895
sbatp896
Rp897
(dp898
g11
S'id: 5'
p899
sbag0
(g1
g2
(lp900
g0
(g1
g2
(lp901
g0
(g1
g2
(lp902
VAnd
p903
atp904
Rp905
(dp906
g11
VCC
p907
sbag0
(g1
g2
(lp908
g0
(g1
g2
(lp909
Vthis
p910
atp911
Rp912
(dp913
g11
VDT
p914
sbag0
(g1
g2
(lp915
Vguy
p916
atp917
Rp918
(dp919
g11
VNN
p920
sbag0
(g1
g2
(lp921
g0
(g1
g2
(lp922
g0
(g1
g2
(lp923
g0
(g1
g2
(lp924
Vhe
p925
atp926
Rp927
(dp928
g11
VPRP
p929
sbatp930
Rp931
(dp932
g11
VNP
p933
sbag0
(g1
g2
(lp934
g0
(g1
g2
(lp935
Vjust
p936
atp937
Rp938
(dp939
g11
VRB
p940
sbatp941
Rp942
(dp943
g11
VADVP
p944
sbag0
(g1
g2
(lp945
V,
p946
atp947
Rp948
(dp949
g11
V,
p950
sbag0
(g1
g2
(lp951
g0
(g1
g2
(lp952
Vthat
p953
atp954
Rp955
(dp956
g11
VDT
p957
sbatp958
Rp959
(dp960
g11
VNP
p961
sbag0
(g1
g2
(lp962
g0
(g1
g2
(lp963
V's
p964
atp965
Rp966
(dp967
g11
VVBZ
p968
sbag0
(g1
g2
(lp969
g0
(g1
g2
(lp970
g0
(g1
g2
(lp971
Va
p972
atp973
Rp974
(dp975
g11
VDT
p976
sbatp977
Rp978
(dp979
g11
VNP
p980
sbag0
(g1
g2
(lp981
V,
p982
atp983
Rp984
(dp985
g11
V,
p986
sbag0
(g1
g2
(lp987
g0
(g1
g2
(lp988
Vclown
p989
atp990
Rp991
(dp992
g11
VNN
p993
sbatp994
Rp995
(dp996
g11
VNP
p997
sbatp998
Rp999
(dp1000
g11
VNP
p1001
sbatp1002
Rp1003
(dp1004
g11
VVP
p1005
sbatp1006
Rp1007
(dp1008
g11
VS
p1009
sbatp1010
Rp1011
(dp1012
g11
VSBAR
p1013
sbatp1014
Rp1015
(dp1016
g11
VNP
p1017
sbag0
(g1
g2
(lp1018
V.
p1019
atp1020
Rp1021
(dp1022
g11
V.
p1023
sbatp1024
Rp1025
(dp1026
g11
VFRAG
p1027
sbatp1028
Rp1029
(dp1030
g11
S'id: 6'
p1031
sbag0
(g1
g2
(lp1032
g0
(g1
g2
(lp1033
g0
(g1
g2
(lp1034
g0
(g1
g2
(lp1035
VHe
p1036
atp1037
Rp1038
(dp1039
g11
VPRP
p1040
sbatp1041
Rp1042
(dp1043
g11
VNP
p1044
sbag0
(g1
g2
(lp1045
g0
(g1
g2
(lp1046
V's
p1047
atp1048
Rp1049
(dp1050
g11
VVBZ
p1051
sbag0
(g1
g2
(lp1052
g0
(g1
g2
(lp1053
Vthrowing
p1054
atp1055
Rp1056
(dp1057
g11
VVBG
p1058
sbag0
(g1
g2
(lp1059
g0
(g1
g2
(lp1060
Vthe
p1061
atp1062
Rp1063
(dp1064
g11
VDT
p1065
sbag0
(g1
g2
(lp1066
Vstuff
p1067
atp1068
Rp1069
(dp1070
g11
VNN
p1071
sbatp1072
Rp1073
(dp1074
g11
VNP
p1075
sbag0
(g1
g2
(lp1076
g0
(g1
g2
(lp1077
Vinto
p1078
atp1079
Rp1080
(dp1081
g11
VIN
p1082
sbag0
(g1
g2
(lp1083
g0
(g1
g2
(lp1084
Vthe
p1085
atp1086
Rp1087
(dp1088
g11
VDT
p1089
sbag0
(g1
g2
(lp1090
Vboy
p1091
atp1092
Rp1093
(dp1094
g11
VNN
p1095
sbag0
(g1
g2
(lp1096
V's
p1097
atp1098
Rp1099
(dp1100
g11
VPOS
p1101
sbatp1102
Rp1103
(dp1104
g11
VNP
p1105
sbatp1106
Rp1107
(dp1108
g11
VPP
p1109
sbatp1110
Rp1111
(dp1112
g11
VVP
p1113
sbatp1114
Rp1115
(dp1116
g11
VVP
p1117
sbag0
(g1
g2
(lp1118
V.
p1119
atp1120
Rp1121
(dp1122
g11
V.
p1123
sbatp1124
Rp1125
(dp1126
g11
VS
p1127
sbatp1128
Rp1129
(dp1130
g11
S'id: 7'
p1131
sbag0
(g1
g2
(lp1132
g0
(g1
g2
(lp1133
g0
(g1
g2
(lp1134
g0
(g1
g2
(lp1135
VAnd
p1136
atp1137
Rp1138
(dp1139
g11
VCC
p1140
sbag0
(g1
g2
(lp1141
g0
(g1
g2
(lp1142
Vnow
p1143
atp1144
Rp1145
(dp1146
g11
VRB
p1147
sbatp1148
Rp1149
(dp1150
g11
VADVP
p1151
sbag0
(g1
g2
(lp1152
g0
(g1
g2
(lp1153
Vthere
p1154
atp1155
Rp1156
(dp1157
g11
VEX
p1158
sbatp1159
Rp1160
(dp1161
g11
VNP
p1162
sbag0
(g1
g2
(lp1163
g0
(g1
g2
(lp1164
V's
p1165
atp1166
Rp1167
(dp1168
g11
VVBZ
p1169
sbag0
(g1
g2
(lp1170
g0
(g1
g2
(lp1171
g0
(g1
g2
(lp1172
Va
p1173
atp1174
Rp1175
(dp1176
g11
VDT
p1177
sbag0
(g1
g2
(lp1178
Vlin
p1179
atp1180
Rp1181
(dp1182
g11
VNN
p1183
sbatp1184
Rp1185
(dp1186
g11
VNP
p1187
sbag0
(g1
g2
(lp1188
V,
p1189
atp1190
Rp1191
(dp1192
g11
V,
p1193
sbag0
(g1
g2
(lp1194
g0
(g1
g2
(lp1195
Vlion
p1196
atp1197
Rp1198
(dp1199
g11
VNN
p1200
sbatp1201
Rp1202
(dp1203
g11
VNP
p1204
sbatp1205
Rp1206
(dp1207
g11
VNP
p1208
sbatp1209
Rp1210
(dp1211
g11
VVP
p1212
sbatp1213
Rp1214
(dp1215
g11
VS
p1216
sbag0
(g1
g2
(lp1217
V,
p1218
atp1219
Rp1220
(dp1221
g11
V,
p1222
sbag0
(g1
g2
(lp1223
g0
(g1
g2
(lp1224
Vit
p1225
atp1226
Rp1227
(dp1228
g11
VPRP
p1229
sbatp1230
Rp1231
(dp1232
g11
VNP
p1233
sbag0
(g1
g2
(lp1234
g0
(g1
g2
(lp1235
V's
p1236
atp1237
Rp1238
(dp1239
g11
VVBZ
p1240
sbag0
(g1
g2
(lp1241
g0
(g1
g2
(lp1242
Vlion
p1243
atp1244
Rp1245
(dp1246
g11
VNN
p1247
sbatp1248
Rp1249
(dp1250
g11
VNP
p1251
sbatp1252
Rp1253
(dp1254
g11
VVP
p1255
sbag0
(g1
g2
(lp1256
V.
p1257
atp1258
Rp1259
(dp1260
g11
V.
p1261
sbatp1262
Rp1263
(dp1264
g11
VS
p1265
sbatp1266
Rp1267
(dp1268
g11
S'id: 8'
p1269
sbag0
(g1
g2
(lp1270
g0
(g1
g2
(lp1271
g0
(g1
g2
(lp1272
VAnd
p1273
atp1274
Rp1275
(dp1276
g11
VCC
p1277
sbag0
(g1
g2
(lp1278
g0
(g1
g2
(lp1279
Vthat
p1280
atp1281
Rp1282
(dp1283
g11
VDT
p1284
sbatp1285
Rp1286
(dp1287
g11
VNP
p1288
sbag0
(g1
g2
(lp1289
g0
(g1
g2
(lp1290
V's
p1291
atp1292
Rp1293
(dp1294
g11
VVBZ
p1295
sbag0
(g1
g2
(lp1296
g0
(g1
g2
(lp1297
g0
(g1
g2
(lp1298
Va
p1299
atp1300
Rp1301
(dp1302
g11
VDT
p1303
sbag0
(g1
g2
(lp1304
Vman
p1305
atp1306
Rp1307
(dp1308
g11
VNN
p1309
sbatp1310
Rp1311
(dp1312
g11
VNP
p1313
sbag0
(g1
g2
(lp1314
Vand
p1315
atp1316
Rp1317
(dp1318
g11
VCC
p1319
sbag0
(g1
g2
(lp1320
V,
p1321
atp1322
Rp1323
(dp1324
g11
V,
p1325
sbag0
(g1
g2
(lp1326
Vand
p1327
atp1328
Rp1329
(dp1330
g11
VCC
p1331
sbag0
(g1
g2
(lp1332
g0
(g1
g2
(lp1333
g0
(g1
g2
(lp1334
Vthat
p1335
atp1336
Rp1337
(dp1338
g11
VDT
p1339
sbatp1340
Rp1341
(dp1342
g11
VWHNP
p1343
sbag0
(g1
g2
(lp1344
g0
(g1
g2
(lp1345
g0
(g1
g2
(lp1346
V's
p1347
atp1348
Rp1349
(dp1350
g11
VVBZ
p1351
sbag0
(g1
g2
(lp1352
g0
(g1
g2
(lp1353
Vin
p1354
atp1355
Rp1356
(dp1357
g11
VIN
p1358
sbag0
(g1
g2
(lp1359
g0
(g1
g2
(lp1360
Vhis
p1361
atp1362
Rp1363
(dp1364
g11
VPRP$
p1365
sbag0
(g1
g2
(lp1366
Vhouse
p1367
atp1368
Rp1369
(dp1370
g11
VNN
p1371
sbatp1372
Rp1373
(dp1374
g11
VNP
p1375
sbatp1376
Rp1377
(dp1378
g11
VPP
p1379
sbatp1380
Rp1381
(dp1382
g11
VVP
p1383
sbatp1384
Rp1385
(dp1386
g11
VS
p1387
sbatp1388
Rp1389
(dp1390
g11
VSBAR
p1391
sbatp1392
Rp1393
(dp1394
g11
VNP
p1395
sbatp1396
Rp1397
(dp1398
g11
VVP
p1399
sbag0
(g1
g2
(lp1400
V.
p1401
atp1402
Rp1403
(dp1404
g11
V.
p1405
sbatp1406
Rp1407
(dp1408
g11
VS
p1409
sbatp1410
Rp1411
(dp1412
g11
S'id: 9'
p1413
sbag0
(g1
g2
(lp1414
g0
(g1
g2
(lp1415
g0
(g1
g2
(lp1416
VAnd
p1417
atp1418
Rp1419
(dp1420
g11
VCC
p1421
sbag0
(g1
g2
(lp1422
g0
(g1
g2
(lp1423
g0
(g1
g2
(lp1424
Vhe
p1425
atp1426
Rp1427
(dp1428
g11
VPRP
p1429
sbatp1430
Rp1431
(dp1432
g11
VNP
p1433
sbag0
(g1
g2
(lp1434
g0
(g1
g2
(lp1435
V's
p1436
atp1437
Rp1438
(dp1439
g11
VVBZ
p1440
sbag0
(g1
g2
(lp1441
g0
(g1
g2
(lp1442
Vin
p1443
atp1444
Rp1445
(dp1446
g11
VIN
p1447
sbag0
(g1
g2
(lp1448
g0
(g1
g2
(lp1449
Vthe
p1450
atp1451
Rp1452
(dp1453
g11
VDT
p1454
sbag0
(g1
g2
(lp1455
Vlion
p1456
atp1457
Rp1458
(dp1459
g11
VNN
p1460
sbatp1461
Rp1462
(dp1463
g11
VNP
p1464
sbatp1465
Rp1466
(dp1467
g11
VPP
p1468
sbatp1469
Rp1470
(dp1471
g11
VVP
p1472
sbatp1473
Rp1474
(dp1475
g11
VS
p1476
sbag0
(g1
g2
(lp1477
V,
p1478
atp1479
Rp1480
(dp1481
g11
V,
p1482
sbag0
(g1
g2
(lp1483
Vand
p1484
atp1485
Rp1486
(dp1487
g11
VCC
p1488
sbag0
(g1
g2
(lp1489
g0
(g1
g2
(lp1490
g0
(g1
g2
(lp1491
Vthat
p1492
atp1493
Rp1494
(dp1495
g11
VDT
p1496
sbatp1497
Rp1498
(dp1499
g11
VNP
p1500
sbag0
(g1
g2
(lp1501
g0
(g1
g2
(lp1502
V's
p1503
atp1504
Rp1505
(dp1506
g11
VVBZ
p1507
sbag0
(g1
g2
(lp1508
g0
(g1
g2
(lp1509
Va
p1510
atp1511
Rp1512
(dp1513
g11
VDT
p1514
sbag0
(g1
g2
(lp1515
Vbig
p1516
atp1517
Rp1518
(dp1519
g11
VJJ
p1520
sbag0
(g1
g2
(lp1521
Vlion
p1522
atp1523
Rp1524
(dp1525
g11
VNN
p1526
sbatp1527
Rp1528
(dp1529
g11
VNP
p1530
sbatp1531
Rp1532
(dp1533
g11
VVP
p1534
sbatp1535
Rp1536
(dp1537
g11
VS
p1538
sbag0
(g1
g2
(lp1539
V.
p1540
atp1541
Rp1542
(dp1543
g11
V.
p1544
sbatp1545
Rp1546
(dp1547
g11
VS
p1548
sbatp1549
Rp1550
(dp1551
g11
S'id: 10'
p1552
sbag0
(g1
g2
(lp1553
g0
(g1
g2
(lp1554
g0
(g1
g2
(lp1555
g0
(g1
g2
(lp1556
VHe
p1557
atp1558
Rp1559
(dp1560
g11
VPRP
p1561
sbatp1562
Rp1563
(dp1564
g11
VNP
p1565
sbag0
(g1
g2
(lp1566
g0
(g1
g2
(lp1567
V's
p1568
atp1569
Rp1570
(dp1571
g11
VVBZ
p1572
sbag0
(g1
g2
(lp1573
g0
(g1
g2
(lp1574
Vgot
p1575
atp1576
Rp1577
(dp1578
g11
VVBD
p1579
sbag0
(g1
g2
(lp1580
g0
(g1
g2
(lp1581
g0
(g1
g2
(lp1582
Vthe
p1583
atp1584
Rp1585
(dp1586
g11
VDT
p1587
sbag0
(g1
g2
(lp1588
Vlon
p1589
atp1590
Rp1591
(dp1592
g11
VNN
p1593
sbatp1594
Rp1595
(dp1596
g11
VNP
p1597
sbag0
(g1
g2
(lp1598
V,
p1599
atp1600
Rp1601
(dp1602
g11
V,
p1603
sbag0
(g1
g2
(lp1604
g0
(g1
g2
(lp1605
Vlion
p1606
atp1607
Rp1608
(dp1609
g11
VNN
p1610
sbatp1611
Rp1612
(dp1613
g11
VNP
p1614
sbag0
(g1
g2
(lp1615
Vand
p1616
atp1617
Rp1618
(dp1619
g11
VCC
p1620
sbag0
(g1
g2
(lp1621
g0
(g1
g2
(lp1622
Vthe
p1623
atp1624
Rp1625
(dp1626
g11
VDT
p1627
sbag0
(g1
g2
(lp1628
Vpair
p1629
atp1630
Rp1631
(dp1632
g11
VNN
p1633
sbag0
(g1
g2
(lp1634
V,
p1635
atp1636
Rp1637
(dp1638
g11
V,
p1639
sbag0
(g1
g2
(lp1640
Vp-a-i
p1641
atp1642
Rp1643
(dp1644
g11
VNN
p1645
sbag0
(g1
g2
(lp1646
V,
p1647
atp1648
Rp1649
(dp1650
g11
V,
p1651
sbag0
(g1
g2
(lp1652
Vpair
p1653
atp1654
Rp1655
(dp1656
g11
VNN
p1657
sbatp1658
Rp1659
(dp1660
g11
VNP
p1661
sbatp1662
Rp1663
(dp1664
g11
VNP
p1665
sbatp1666
Rp1667
(dp1668
g11
VVP
p1669
sbatp1670
Rp1671
(dp1672
g11
VVP
p1673
sbag0
(g1
g2
(lp1674
V.
p1675
atp1676
Rp1677
(dp1678
g11
V.
p1679
sbatp1680
Rp1681
(dp1682
g11
VS
p1683
sbatp1684
Rp1685
(dp1686
g11
S'id: 11'
p1687
sbag0
(g1
g2
(lp1688
g0
(g1
g2
(lp1689
g0
(g1
g2
(lp1690
g0
(g1
g2
(lp1691
g0
(g1
g2
(lp1692
VThat
p1693
atp1694
Rp1695
(dp1696
g11
VDT
p1697
sbatp1698
Rp1699
(dp1700
g11
VNP
p1701
sbag0
(g1
g2
(lp1702
g0
(g1
g2
(lp1703
V's
p1704
atp1705
Rp1706
(dp1707
g11
VVBZ
p1708
sbag0
(g1
g2
(lp1709
g0
(g1
g2
(lp1710
Va
p1711
atp1712
Rp1713
(dp1714
g11
VDT
p1715
sbag0
(g1
g2
(lp1716
Vman
p1717
atp1718
Rp1719
(dp1720
g11
VNN
p1721
sbatp1722
Rp1723
(dp1724
g11
VNP
p1725
sbatp1726
Rp1727
(dp1728
g11
VVP
p1729
sbatp1730
Rp1731
(dp1732
g11
VS
p1733
sbag0
(g1
g2
(lp1734
V,
p1735
atp1736
Rp1737
(dp1738
g11
V,
p1739
sbag0
(g1
g2
(lp1740
Vand
p1741
atp1742
Rp1743
(dp1744
g11
VCC
p1745
sbag0
(g1
g2
(lp1746
g0
(g1
g2
(lp1747
g0
(g1
g2
(lp1748
Vthese
p1749
atp1750
Rp1751
(dp1752
g11
VDT
p1753
sbatp1754
Rp1755
(dp1756
g11
VNP
p1757
sbag0
(g1
g2
(lp1758
g0
(g1
g2
(lp1759
Vare
p1760
atp1761
Rp1762
(dp1763
g11
VVBP
p1764
sbag0
(g1
g2
(lp1765
g0
(g1
g2
(lp1766
Vthe
p1767
atp1768
Rp1769
(dp1770
g11
VDT
p1771
sbag0
(g1
g2
(lp1772
Vbars
p1773
atp1774
Rp1775
(dp1776
g11
VNNS
p1777
sbatp1778
Rp1779
(dp1780
g11
VNP
p1781
sbatp1782
Rp1783
(dp1784
g11
VVP
p1785
sbatp1786
Rp1787
(dp1788
g11
VS
p1789
sbag0
(g1
g2
(lp1790
V.
p1791
atp1792
Rp1793
(dp1794
g11
V.
p1795
sbatp1796
Rp1797
(dp1798
g11
VS
p1799
sbatp1800
Rp1801
(dp1802
g11
S'id: 12'
p1803
sbag0
(g1
g2
(lp1804
g0
(g1
g2
(lp1805
g0
(g1
g2
(lp1806
VAnd
p1807
atp1808
Rp1809
(dp1810
g11
VCC
p1811
sbag0
(g1
g2
(lp1812
V,
p1813
atp1814
Rp1815
(dp1816
g11
V,
p1817
sbag0
(g1
g2
(lp1818
g0
(g1
g2
(lp1819
g0
(g1
g2
(lp1820
Vand
p1821
atp1822
Rp1823
(dp1824
g11
VCC
p1825
sbag0
(g1
g2
(lp1826
g0
(g1
g2
(lp1827
g0
(g1
g2
(lp1828
g0
(g1
g2
(lp1829
g0
(g1
g2
(lp1830
Vhere
p1831
atp1832
Rp1833
(dp1834
g11
VRB
p1835
sbatp1836
Rp1837
(dp1838
g11
VNP
p1839
sbag0
(g1
g2
(lp1840
V's
p1841
atp1842
Rp1843
(dp1844
g11
VPOS
p1845
sbatp1846
Rp1847
(dp1848
g11
VNP
p1849
sbag0
(g1
g2
(lp1850
Vman
p1851
atp1852
Rp1853
(dp1854
g11
VNN
p1855
sbatp1856
Rp1857
(dp1858
g11
VNP
p1859
sbag0
(g1
g2
(lp1860
V,
p1861
atp1862
Rp1863
(dp1864
g11
V,
p1865
sbag0
(g1
g2
(lp1866
g0
(g1
g2
(lp1867
Vwoman
p1868
atp1869
Rp1870
(dp1871
g11
VNN
p1872
sbatp1873
Rp1874
(dp1875
g11
VNP
p1876
sbatp1877
Rp1878
(dp1879
g11
VNP
p1880
sbatp1881
Rp1882
(dp1883
g11
VNP
p1884
sbag0
(g1
g2
(lp1885
g0
(g1
g2
(lp1886
Vwatching
p1887
atp1888
Rp1889
(dp1890
g11
VVBG
p1891
sbag0
(g1
g2
(lp1892
g0
(g1
g2
(lp1893
Vthe
p1894
atp1895
Rp1896
(dp1897
g11
VDT
p1898
sbag0
(g1
g2
(lp1899
g0
(g1
g2
(lp1900
V,
p1901
atp1902
Rp1903
(dp1904
g11
V,
p1905
sbag0
(g1
g2
(lp1906
g0
(g1
g2
(lp1907
Vup
p1908
atp1909
Rp1910
(dp1911
g11
VRB
p1912
sbatp1913
Rp1914
(dp1915
g11
VADVP
p1916
sbag0
(g1
g2
(lp1917
g0
(g1
g2
(lp1918
Vin
p1919
atp1920
Rp1921
(dp1922
g11
VIN
p1923
sbag0
(g1
g2
(lp1924
g0
(g1
g2
(lp1925
Vthe
p1926
atp1927
Rp1928
(dp1929
g11
VDT
p1930
sbag0
(g1
g2
(lp1931
Vwater
p1932
atp1933
Rp1934
(dp1935
g11
VNN
p1936
sbatp1937
Rp1938
(dp1939
g11
VNP
p1940
sbatp1941
Rp1942
(dp1943
g11
VPP
p1944
sbatp1945
Rp1946
(dp1947
g11
VPRN
p1948
sbatp1949
Rp1950
(dp1951
g11
VNP
p1952
sbatp1953
Rp1954
(dp1955
g11
VVP
p1956
sbatp1957
Rp1958
(dp1959
g11
VS
p1960
sbag0
(g1
g2
(lp1961
V.
p1962
atp1963
Rp1964
(dp1965
g11
V.
p1966
sbatp1967
Rp1968
(dp1969
g11
VS
p1970
sbatp1971
Rp1972
(dp1973
g11
S'id: 13'
p1974
sbag0
(g1
g2
(lp1975
g0
(g1
g2
(lp1976
g0
(g1
g2
(lp1977
VAnd
p1978
atp1979
Rp1980
(dp1981
g11
VCC
p1982
sbag0
(g1
g2
(lp1983
g0
(g1
g2
(lp1984
Vthat
p1985
atp1986
Rp1987
(dp1988
g11
VDT
p1989
sbatp1990
Rp1991
(dp1992
g11
VNP
p1993
sbag0
(g1
g2
(lp1994
g0
(g1
g2
(lp1995
V's
p1996
atp1997
Rp1998
(dp1999
g11
VVBZ
p2000
sbag0
(g1
g2
(lp2001
g0
(g1
g2
(lp2002
Va
p2003
atp2004
Rp2005
(dp2006
g11
VDT
p2007
sbag0
(g1
g2
(lp2008
Vman
p2009
atp2010
Rp2011
(dp2012
g11
VNN
p2013
sbatp2014
Rp2015
(dp2016
g11
VNP
p2017
sbatp2018
Rp2019
(dp2020
g11
VVP
p2021
sbag0
(g1
g2
(lp2022
V.
p2023
atp2024
Rp2025
(dp2026
g11
V.
p2027
sbatp2028
Rp2029
(dp2030
g11
VS
p2031
sbatp2032
Rp2033
(dp2034
g11
S'id: 14'
p2035
sbag0
(g1
g2
(lp2036
g0
(g1
g2
(lp2037
g0
(g1
g2
(lp2038
VAnd
p2039
atp2040
Rp2041
(dp2042
g11
VCC
p2043
sbag0
(g1
g2
(lp2044
g0
(g1
g2
(lp2045
Vthat
p2046
atp2047
Rp2048
(dp2049
g11
VDT
p2050
sbatp2051
Rp2052
(dp2053
g11
VNP
p2054
sbag0
(g1
g2
(lp2055
g0
(g1
g2
(lp2056
V's
p2057
atp2058
Rp2059
(dp2060
g11
VVBZ
p2061
sbag0
(g1
g2
(lp2062
g0
(g1
g2
(lp2063
Vthe
p2064
atp2065
Rp2066
(dp2067
g11
VDT
p2068
sbag0
(g1
g2
(lp2069
Vsmall
p2070
atp2071
Rp2072
(dp2073
g11
VJJ
p2074
sbatp2075
Rp2076
(dp2077
g11
VNP
p2078
sbag0
(g1
g2
(lp2079
V,
p2080
atp2081
Rp2082
(dp2083
g11
V,
p2084
sbag0
(g1
g2
(lp2085
g0
(g1
g2
(lp2086
Vthat
p2087
atp2088
Rp2089
(dp2090
g11
VIN
p2091
sbatp2092
Rp2093
(dp2094
g11
VADVP
p2095
sbatp2096
Rp2097
(dp2098
g11
VVP
p2099
sbag0
(g1
g2
(lp2100
V.
p2101
atp2102
Rp2103
(dp2104
g11
V.
p2105
sbatp2106
Rp2107
(dp2108
g11
VS
p2109
sbatp2110
Rp2111
(dp2112
g11
S'id: 15'
p2113
sbag0
(g1
g2
(lp2114
g0
(g1
g2
(lp2115
g0
(g1
g2
(lp2116
VAnd
p2117
atp2118
Rp2119
(dp2120
g11
VCC
p2121
sbag0
(g1
g2
(lp2122
g0
(g1
g2
(lp2123
g0
(g1
g2
(lp2124
VI
p2125
atp2126
Rp2127
(dp2128
g11
VPRP
p2129
sbatp2130
Rp2131
(dp2132
g11
VNP
p2133
sbag0
(g1
g2
(lp2134
V,
p2135
atp2136
Rp2137
(dp2138
g11
V,
p2139
sbag0
(g1
g2
(lp2140
Vand
p2141
atp2142
Rp2143
(dp2144
g11
VCC
p2145
sbag0
(g1
g2
(lp2146
g0
(g1
g2
(lp2147
Vthat
p2148
atp2149
Rp2150
(dp2151
g11
VDT
p2152
sbatp2153
Rp2154
(dp2155
g11
VNP
p2156
sbatp2157
Rp2158
(dp2159
g11
VNP
p2160
sbag0
(g1
g2
(lp2161
g0
(g1
g2
(lp2162
V's
p2163
atp2164
Rp2165
(dp2166
g11
VVBZ
p2167
sbag0
(g1
g2
(lp2168
g0
(g1
g2
(lp2169
Va
p2170
atp2171
Rp2172
(dp2173
g11
VDT
p2174
sbag0
(g1
g2
(lp2175
Vman
p2176
atp2177
Rp2178
(dp2179
g11
VNN
p2180
sbatp2181
Rp2182
(dp2183
g11
VNP
p2184
sbatp2185
Rp2186
(dp2187
g11
VVP
p2188
sbag0
(g1
g2
(lp2189
V.
p2190
atp2191
Rp2192
(dp2193
g11
V.
p2194
sbatp2195
Rp2196
(dp2197
g11
VS
p2198
sbatp2199
Rp2200
(dp2201
g11
S'id: 16'
p2202
sbag0
(g1
g2
(lp2203
g0
(g1
g2
(lp2204
g0
(g1
g2
(lp2205
VAnd
p2206
atp2207
Rp2208
(dp2209
g11
VCC
p2210
sbag0
(g1
g2
(lp2211
g0
(g1
g2
(lp2212
Vthat
p2213
atp2214
Rp2215
(dp2216
g11
VDT
p2217
sbatp2218
Rp2219
(dp2220
g11
VNP
p2221
sbag0
(g1
g2
(lp2222
g0
(g1
g2
(lp2223
V's
p2224
atp2225
Rp2226
(dp2227
g11
VVBZ
p2228
sbag0
(g1
g2
(lp2229
V,
p2230
atp2231
Rp2232
(dp2233
g11
V,
p2234
sbag0
(g1
g2
(lp2235
g0
(g1
g2
(lp2236
g0
(g1
g2
(lp2237
g0
(g1
g2
(lp2238
VI
p2239
atp2240
Rp2241
(dp2242
g11
VPRP
p2243
sbatp2244
Rp2245
(dp2246
g11
VNP
p2247
sbag0
(g1
g2
(lp2248
g0
(g1
g2
(lp2249
g0
(g1
g2
(lp2250
Vcant
p2251
atp2252
Rp2253
(dp2254
g11
VVBP
p2255
sbag0
(g1
g2
(lp2256
g0
(g1
g2
(lp2257
Vgive
p2258
atp2259
Rp2260
(dp2261
g11
VVB
p2262
sbag0
(g1
g2
(lp2263
g0
(g1
g2
(lp2264
Vhim
p2265
atp2266
Rp2267
(dp2268
g11
VPRP
p2269
sbatp2270
Rp2271
(dp2272
g11
VNP
p2273
sbag0
(g1
g2
(lp2274
g0
(g1
g2
(lp2275
g0
(g1
g2
(lp2276
Vwhat
p2277
atp2278
Rp2279
(dp2280
g11
VWP
p2281
sbag0
(g1
g2
(lp2282
Vthe
p2283
atp2284
Rp2285
(dp2286
g11
VDT
p2287
sbag0
(g1
g2
(lp2288
Vname
p2289
atp2290
Rp2291
(dp2292
g11
VNN
p2293
sbatp2294
Rp2295
(dp2296
g11
VWHNP
p2297
sbag0
(g1
g2
(lp2298
V,
p2299
atp2300
Rp2301
(dp2302
g11
V,
p2303
sbag0
(g1
g2
(lp2304
g0
(g1
g2
(lp2305
g0
(g1
g2
(lp2306
Vhe
p2307
atp2308
Rp2309
(dp2310
g11
VPRP
p2311
sbatp2312
Rp2313
(dp2314
g11
VNP
p2315
sbag0
(g1
g2
(lp2316
g0
(g1
g2
(lp2317
V's
p2318
atp2319
Rp2320
(dp2321
g11
VVBZ
p2322
sbag0
(g1
g2
(lp2323
g0
(g1
g2
(lp2324
Vsupposed
p2325
atp2326
Rp2327
(dp2328
g11
VVBN
p2329
sbag0
(g1
g2
(lp2330
V,
p2331
atp2332
Rp2333
(dp2334
g11
V,
p2335
sbag0
(g1
g2
(lp2336
g0
(g1
g2
(lp2337
g0
(g1
g2
(lp2338
Vi
p2339
atp2340
Rp2341
(dp2342
g11
VFW
p2343
sbag0
(g1
g2
(lp2344
Vcant
p2345
atp2346
Rp2347
(dp2348
g11
VFW
p2349
sbatp2350
Rp2351
(dp2352
g11
VNP
p2353
sbag0
(g1
g2
(lp2354
g0
(g1
g2
(lp2355
g0
(g1
g2
(lp2356
g0
(g1
g2
(lp2357
Vremember
p2358
atp2359
Rp2360
(dp2361
g11
VVBP
p2362
sbatp2363
Rp2364
(dp2365
g11
VVP
p2366
sbatp2367
Rp2368
(dp2369
g11
VS
p2370
sbatp2371
Rp2372
(dp2373
g11
VSBAR
p2374
sbatp2375
Rp2376
(dp2377
g11
VNP
p2378
sbatp2379
Rp2380
(dp2381
g11
VVP
p2382
sbatp2383
Rp2384
(dp2385
g11
VVP
p2386
sbatp2387
Rp2388
(dp2389
g11
VS
p2390
sbatp2391
Rp2392
(dp2393
g11
VSBAR
p2394
sbatp2395
Rp2396
(dp2397
g11
VVP
p2398
sbatp2399
Rp2400
(dp2401
g11
VVP
p2402
sbag0
(g1
g2
(lp2403
V,
p2404
atp2405
Rp2406
(dp2407
g11
V,
p2408
sbag0
(g1
g2
(lp2409
Vbut
p2410
atp2411
Rp2412
(dp2413
g11
VCC
p2414
sbag0
(g1
g2
(lp2415
g0
(g1
g2
(lp2416
Vyeah
p2417
atp2418
Rp2419
(dp2420
g11
VVBP
p2421
sbag0
(g1
g2
(lp2422
g0
(g1
g2
(lp2423
g0
(g1
g2
(lp2424
g0
(g1
g2
(lp2425
Vthat
p2426
atp2427
Rp2428
(dp2429
g11
VDT
p2430
sbatp2431
Rp2432
(dp2433
g11
VNP
p2434
sbag0
(g1
g2
(lp2435
g0
(g1
g2
(lp2436
V's
p2437
atp2438
Rp2439
(dp2440
g11
VVBZ
p2441
sbag0
(g1
g2
(lp2442
g0
(g1
g2
(lp2443
Vpretty
p2444
atp2445
Rp2446
(dp2447
g11
VRB
p2448
sbag0
(g1
g2
(lp2449
Vnice
p2450
atp2451
Rp2452
(dp2453
g11
VJJ
p2454
sbatp2455
Rp2456
(dp2457
g11
VADJP
p2458
sbatp2459
Rp2460
(dp2461
g11
VVP
p2462
sbatp2463
Rp2464
(dp2465
g11
VS
p2466
sbatp2467
Rp2468
(dp2469
g11
VSBAR
p2470
sbatp2471
Rp2472
(dp2473
g11
VVP
p2474
sbatp2475
Rp2476
(dp2477
g11
VVP
p2478
sbatp2479
Rp2480
(dp2481
g11
VS
p2482
sbatp2483
Rp2484
(dp2485
g11
VSBAR
p2486
sbatp2487
Rp2488
(dp2489
g11
VVP
p2490
sbag0
(g1
g2
(lp2491
V.
p2492
atp2493
Rp2494
(dp2495
g11
V.
p2496
sbatp2497
Rp2498
(dp2499
g11
VS
p2500
sbatp2501
Rp2502
(dp2503
g11
S'id: 17'
p2504
sbag0
(g1
g2
(lp2505
g0
(g1
g2
(lp2506
g0
(g1
g2
(lp2507
g0
(g1
g2
(lp2508
VAnd
p2509
atp2510
Rp2511
(dp2512
g11
VCC
p2513
sbag0
(g1
g2
(lp2514
g0
(g1
g2
(lp2515
Vbut
p2516
atp2517
Rp2518
(dp2519
g11
VCC
p2520
sbatp2521
Rp2522
(dp2523
g11
VADVP
p2524
sbag0
(g1
g2
(lp2525
g0
(g1
g2
(lp2526
Vhe
p2527
atp2528
Rp2529
(dp2530
g11
VPRP
p2531
sbatp2532
Rp2533
(dp2534
g11
VNP
p2535
sbag0
(g1
g2
(lp2536
g0
(g1
g2
(lp2537
V's
p2538
atp2539
Rp2540
(dp2541
g11
VVBZ
p2542
sbag0
(g1
g2
(lp2543
g0
(g1
g2
(lp2544
g0
(g1
g2
(lp2545
V,
p2546
atp2547
Rp2548
(dp2549
g11
V,
p2550
sbag0
(g1
g2
(lp2551
g0
(g1
g2
(lp2552
Vthats
p2553
atp2554
Rp2555
(dp2556
g11
VNNS
p2557
sbatp2558
Rp2559
(dp2560
g11
VNP
p2561
sbag0
(g1
g2
(lp2562
V,
p2563
atp2564
Rp2565
(dp2566
g11
V,
p2567
sbag0
(g1
g2
(lp2568
Vthats
p2569
atp2570
Rp2571
(dp2572
g11
VNNS
p2573
sbatp2574
Rp2575
(dp2576
g11
VNP
p2577
sbag0
(g1
g2
(lp2578
g0
(g1
g2
(lp2579
Vin
p2580
atp2581
Rp2582
(dp2583
g11
VIN
p2584
sbatp2585
Rp2586
(dp2587
g11
VPP
p2588
sbatp2589
Rp2590
(dp2591
g11
VNP
p2592
sbatp2593
Rp2594
(dp2595
g11
VVP
p2596
sbatp2597
Rp2598
(dp2599
g11
VS
p2600
sbatp2601
Rp2602
(dp2603
g11
VFRAG
p2604
sbatp2605
Rp2606
(dp2607
g11
S'id: 18'
p2608
sbatp2609
Rp2610
(dp2611
g11
S'sentences'
p2612
sb.