ccopy_reg
_reconstructor
p0
(cnltk.tree
Tree
p1
c__builtin__
list
p2
(lp3
g0
(g1
g2
(lp4
g0
(g1
g2
(lp5
g0
(g1
g2
(lp6
(lp7
S'word: I, index: 1'
p8
aatp9
Rp10
(dp11
S'_label'
p12
Vnsubj
p13
sbag0
(g1
g2
(lp14
g0
(g1
g2
(lp15
g0
(g1
g2
(lp16
(lp17
S'word: a, index: 3'
p18
aatp19
Rp20
(dp21
g12
Vdet
p22
sbatp23
Rp24
(dp25
g12
S'word: circus, index: 4'
p26
sbatp27
Rp28
(dp29
g12
Vdobj
p30
sbatp31
Rp32
(dp33
g12
S'word: think, index: 2'
p34
sbatp35
Rp36
(dp37
g12
S'id: 0'
p38
sbag0
(g1
g2
(lp39
g0
(g1
g2
(lp40
g0
(g1
g2
(lp41
g0
(g1
g2
(lp42
g0
(g1
g2
(lp43
(lp44
S'word: nice, index: 3'
p45
aatp46
Rp47
(dp48
g12
Vamod
p49
sbag0
(g1
g2
(lp50
(lp51
S'word: lions, index: 6'
p52
aatp53
Rp54
(dp55
g12
Vappos
p56
sbatp57
Rp58
(dp59
g12
S'word: tables, index: 4'
p60
sbatp61
Rp62
(dp63
g12
Vappos
p64
sbatp65
Rp66
(dp67
g12
S'word: Clowns, index: 1'
p68
sbatp69
Rp70
(dp71
g12
S'id: 1'
p72
sbag0
(g1
g2
(lp73
g0
(g1
g2
(lp74
g0
(g1
g2
(lp75
g0
(g1
g2
(lp76
g0
(g1
g2
(lp77
(lp78
S'word: it, index: 7'
p79
aatp80
Rp81
(dp82
g12
Vdobj
p83
sbag0
(g1
g2
(lp84
(lp85
S'word: what, index: 4'
p86
aatp87
Rp88
(dp89
g12
Vdobj
p90
sbag0
(g1
g2
(lp91
(lp92
S'word: you, index: 5'
p93
aatp94
Rp95
(dp96
g12
Vnsubj
p97
sbatp98
Rp99
(dp100
g12
S'word: call, index: 6'
p101
sbatp102
Rp103
(dp104
g12
Vrcmod
p105
sbag0
(g1
g2
(lp106
g0
(g1
g2
(lp107
g0
(g1
g2
(lp108
(lp109
S'word: walking, index: 10'
p110
aatp111
Rp112
(dp113
g12
Vamod
p114
sbag0
(g1
g2
(lp115
g0
(g1
g2
(lp116
g0
(g1
g2
(lp117
(lp118
S'word: the, index: 12'
p119
aatp120
Rp121
(dp122
g12
Vdet
p123
sbag0
(g1
g2
(lp124
(lp125
S'word: tight, index: 13'
p126
aatp127
Rp128
(dp129
g12
Vamod
p130
sbatp131
Rp132
(dp133
g12
S'word: rope, index: 14'
p134
sbatp135
Rp136
(dp137
g12
Vprep
p138
sbatp139
Rp140
(dp141
g12
S'word: acrobatic, index: 9'
p142
sbatp143
Rp144
(dp145
g12
Vdep
p146
sbag0
(g1
g2
(lp147
(lp148
S'word: a, index: 2'
p149
aatp150
Rp151
(dp152
g12
Vdep
p153
sbatp154
Rp155
(dp156
g12
S'word: What, index: 1'
p157
sbatp158
Rp159
(dp160
g12
S'id: 2'
p161
sbag0
(g1
g2
(lp162
g0
(g1
g2
(lp163
g0
(g1
g2
(lp164
g0
(g1
g2
(lp165
g0
(g1
g2
(lp166
g0
(g1
g2
(lp167
g0
(g1
g2
(lp168
g0
(g1
g2
(lp169
g0
(g1
g2
(lp170
g0
(g1
g2
(lp171
g0
(g1
g2
(lp172
(lp173
S'word: a, index: 5'
p174
aatp175
Rp176
(dp177
g12
Vdet
p178
sbatp179
Rp180
(dp181
g12
S'word: horse, index: 6'
p182
sbatp183
Rp184
(dp185
g12
Vpobj
p186
sbatp187
Rp188
(dp189
g12
S'word: on, index: 4'
p190
sbatp191
Rp192
(dp193
g12
Vpcomp
p194
sbatp195
Rp196
(dp197
g12
S'word: on, index: 3'
p198
sbatp199
Rp200
(dp201
g12
Vprep
p202
sbatp203
Rp204
(dp205
g12
S'word: riding, index: 2'
p206
sbatp207
Rp208
(dp209
g12
Vvmod
p210
sbatp211
Rp212
(dp213
g12
S'word: Girl, index: 1'
p214
sbatp215
Rp216
(dp217
g12
S'id: 3'
p218
sbag0
(g1
g2
(lp219
g0
(g1
g2
(lp220
g0
(g1
g2
(lp221
(lp222
S'word: Black, index: 1'
p223
aatp224
Rp225
(dp226
g12
Vamod
p227
sbag0
(g1
g2
(lp228
g0
(g1
g2
(lp229
g0
(g1
g2
(lp230
(lp231
S'word: black, index: 4'
p232
aatp233
Rp234
(dp235
g12
Vamod
p236
sbatp237
Rp238
(dp239
g12
S'word: girl, index: 5'
p240
sbatp241
Rp242
(dp243
g12
Vappos
p244
sbatp245
Rp246
(dp247
g12
S'word: man, index: 2'
p248
sbatp249
Rp250
(dp251
g12
S'id: 4'
p252
sbag0
(g1
g2
(lp253
g0
(g1
g2
(lp254
g0
(g1
g2
(lp255
g0
(g1
g2
(lp256
g0
(g1
g2
(lp257
g0
(g1
g2
(lp258
g0
(g1
g2
(lp259
(lp260
S'word: white, index: 4'
p261
aatp262
Rp263
(dp264
g12
Vamod
p265
sbatp266
Rp267
(dp268
g12
S'word: boy, index: 5'
p269
sbatp270
Rp271
(dp272
g12
Vconj
p273
sbag0
(g1
g2
(lp274
(lp275
S'word: mama, index: 8'
p276
aatp277
Rp278
(dp279
g12
Vconj
p280
sbatp281
Rp282
(dp283
g12
S'word: girl, index: 2'
p284
sbatp285
Rp286
(dp287
g12
Vdep
p288
sbag0
(g1
g2
(lp289
g267
atp290
Rp291
(dp292
g12
Vdep
p293
sbag0
(g1
g2
(lp294
(lp295
S'word: mama, index: 8'
p296
aatp297
Rp298
(dp299
g12
Vdep
p300
sbatp301
Rp302
(dp303
g12
S'word: White, index: 1'
p304
sbatp305
Rp306
(dp307
g12
S'id: 5'
p308
sbag0
(g1
g2
(lp309
g0
(g1
g2
(lp310
g0
(g1
g2
(lp311
g0
(g1
g2
(lp312
g0
(g1
g2
(lp313
(lp314
S'word: a, index: 4'
p315
aatp316
Rp317
(dp318
g12
Vdet
p319
sbag0
(g1
g2
(lp320
g0
(g1
g2
(lp321
g0
(g1
g2
(lp322
(lp323
S'word: the, index: 7'
p324
aatp325
Rp326
(dp327
g12
Vdet
p328
sbatp329
Rp330
(dp331
g12
S'word: hand, index: 8'
p332
sbatp333
Rp334
(dp335
g12
Vprep
p336
sbag0
(g1
g2
(lp337
g0
(g1
g2
(lp338
g0
(g1
g2
(lp339
(lp340
S'word: it, index: 12'
p341
aatp342
Rp343
(dp344
g12
Vdep
p345
sbatp346
Rp347
(dp348
g12
S'word: patin, index: 11'
p349
sbatp350
Rp351
(dp352
g12
Vconj
p353
sbatp354
Rp355
(dp356
g12
S'word: compettie, index: 5'
p357
sbatp358
Rp359
(dp360
g12
Vprep
p361
sbag0
(g1
g2
(lp362
g347
atp363
Rp364
(dp365
g12
Vprep
p366
sbag0
(g1
g2
(lp367
(lp368
S'word: out, index: 13'
p369
aatp370
Rp371
(dp372
g12
Vadvmod
p373
sbag0
(g1
g2
(lp374
(lp375
S'word: And, index: 1'
p376
aatp377
Rp378
(dp379
g12
Vcc
p380
sbatp381
Rp382
(dp383
g12
S'word: look, index: 2'
p384
sbatp385
Rp386
(dp387
g12
S'id: 6'
p388
sbag0
(g1
g2
(lp389
tp390
Rp391
(dp392
g12
S'id: 7'
p393
sbag0
(g1
g2
(lp394
tp395
Rp396
(dp397
g12
S'id: 8'
p398
sbag0
(g1
g2
(lp399
g0
(g1
g2
(lp400
g0
(g1
g2
(lp401
(lp402
S'word: There, index: 1'
p403
aatp404
Rp405
(dp406
g12
Vdep
p407
sbag0
(g1
g2
(lp408
g0
(g1
g2
(lp409
g0
(g1
g2
(lp410
(lp411
S'word: nine, index: 4'
p412
aatp413
Rp414
(dp415
g12
Vnum
p416
sbag0
(g1
g2
(lp417
(lp418
S'word: people, index: 5'
p419
aatp420
Rp421
(dp422
g12
Vnn
p423
sbatp424
Rp425
(dp426
g12
S'word: kids, index: 6'
p427
sbatp428
Rp429
(dp430
g12
Vdep
p431
sbatp432
Rp433
(dp434
g12
S'word: there, index: 3'
p435
sbatp436
Rp437
(dp438
g12
S'id: 9'
p439
sbag0
(g1
g2
(lp440
g0
(g1
g2
(lp441
g0
(g1
g2
(lp442
(lp443
S'word: Nine, index: 1'
p444
aatp445
Rp446
(dp447
g12
Vnsubj
p448
sbag0
(g1
g2
(lp449
(lp450
S'word: is, index: 2'
p451
aatp452
Rp453
(dp454
g12
Vcop
p455
sbatp456
Rp457
(dp458
g12
S'word: cause, index: 3'
p459
sbatp460
Rp461
(dp462
g12
S'id: 10'
p463
sbag0
(g1
g2
(lp464
g0
(g1
g2
(lp465
g0
(g1
g2
(lp466
g0
(g1
g2
(lp467
g0
(g1
g2
(lp468
(lp469
S'word: The, index: 1'
p470
aatp471
Rp472
(dp473
g12
Vdet
p474
sbatp475
Rp476
(dp477
g12
S'word: clown, index: 2'
p478
sbatp479
Rp480
(dp481
g12
Vnsubj
p482
sbag0
(g1
g2
(lp483
g0
(g1
g2
(lp484
g0
(g1
g2
(lp485
g476
atp486
Rp487
(dp488
g12
Vnsubj
p489
sbag0
(g1
g2
(lp490
g0
(g1
g2
(lp491
g0
(g1
g2
(lp492
(lp493
S'word: a, index: 19'
p494
aatp495
Rp496
(dp497
g12
Vdet
p498
sbag0
(g1
g2
(lp499
(lp500
S'word: dot, index: 20'
p501
aatp502
Rp503
(dp504
g12
Vnn
p505
sbatp506
Rp507
(dp508
g12
S'word: tie, index: 21'
p509
sbatp510
Rp511
(dp512
g12
Vdobj
p513
sbatp514
Rp515
(dp516
g12
S'word: poke, index: 18'
p517
sbatp518
Rp519
(dp520
g12
Vconj
p521
sbag0
(g1
g2
(lp522
g0
(g1
g2
(lp523
g0
(g1
g2
(lp524
(lp525
S'word: a, index: 4'
p526
aatp527
Rp528
(dp529
g12
Vdet
p530
sbag0
(g1
g2
(lp531
(lp532
S'word: pointed, index: 5'
p533
aatp534
Rp535
(dp536
g12
Vamod
p537
sbag0
(g1
g2
(lp538
g0
(g1
g2
(lp539
g0
(g1
g2
(lp540
(lp541
S'word: a, index: 9'
p542
aatp543
Rp544
(dp545
g12
Vdet
p546
sbag0
(g1
g2
(lp547
g0
(g1
g2
(lp548
g0
(g1
g2
(lp549
(lp550
S'word: the, index: 14'
p551
aatp552
Rp553
(dp554
g12
Vdet
p555
sbatp556
Rp557
(dp558
g12
S'word: hat, index: 15'
p559
sbatp560
Rp561
(dp562
g12
Vprep
p563
sbatp564
Rp565
(dp566
g12
S'word: flower, index: 10'
p567
sbatp568
Rp569
(dp570
g12
Vconj
p571
sbatp572
Rp573
(dp574
g12
S'word: hat, index: 6'
p575
sbatp576
Rp577
(dp578
g12
Vdobj
p579
sbag0
(g1
g2
(lp580
g565
atp581
Rp582
(dp583
g12
Vdobj
p584
sbatp585
Rp586
(dp587
g12
S'word: got, index: 3'
p588
sbatp589
Rp590
(dp591
g12
S'id: 11'
p592
sbatp593
Rp594
(dp595
g12
S'sentences'
p596
sb.