ccopy_reg
_reconstructor
p0
(cnltk.tree
Tree
p1
c__builtin__
list
p2
(lp3
g0
(g1
g2
(lp4
tp5
Rp6
(dp7
S'_label'
p8
S'id: 0'
p9
sbag0
(g1
g2
(lp10
g0
(g1
g2
(lp11
g0
(g1
g2
(lp12
g0
(g1
g2
(lp13
g0
(g1
g2
(lp14
(lp15
S'word: no, index: 3'
p16
aatp17
Rp18
(dp19
g8
Vneg
p20
sbag0
(g1
g2
(lp21
(lp22
S'word: no, index: 4'
p23
aatp24
Rp25
(dp26
g8
Vneg
p27
sbatp28
Rp29
(dp30
g8
S'word: water, index: 5'
p31
sbatp32
Rp33
(dp34
g8
Vappos
p35
sbatp36
Rp37
(dp38
g8
S'word: Water, index: 1'
p39
sbatp40
Rp41
(dp42
g8
S'id: 1'
p43
sbag0
(g1
g2
(lp44
g0
(g1
g2
(lp45
g0
(g1
g2
(lp46
g0
(g1
g2
(lp47
g0
(g1
g2
(lp48
g0
(g1
g2
(lp49
g0
(g1
g2
(lp50
(lp51
S'word: no, index: 8'
p52
aatp53
Rp54
(dp55
g8
Vadvmod
p56
sbatp57
Rp58
(dp59
g8
S'word: o, index: 7'
p60
sbatp61
Rp62
(dp63
g8
Vdep
p64
sbatp65
Rp66
(dp67
g8
S'word: water, index: 6'
p68
sbatp69
Rp70
(dp71
g8
Vtmod
p72
sbag0
(g1
g2
(lp73
(lp74
S'word: water, index: 10'
p75
aatp76
Rp77
(dp78
g8
Vdobj
p79
sbag0
(g1
g2
(lp80
(lp81
S'word: I, index: 1'
p82
aatp83
Rp84
(dp85
g8
Vnsubj
p86
sbag0
(g1
g2
(lp87
(lp88
S'word: do, index: 2'
p89
aatp90
Rp91
(dp92
g8
Vaux
p93
sbag0
(g1
g2
(lp94
(lp95
S"word: n't, index: 3"
p96
aatp97
Rp98
(dp99
g8
Vneg
p100
sbatp101
Rp102
(dp103
g8
S'word: know, index: 4'
p104
sbatp105
Rp106
(dp107
g8
S'id: 2'
p108
sbag0
(g1
g2
(lp109
g0
(g1
g2
(lp110
g0
(g1
g2
(lp111
(lp112
S'word: I, index: 1'
p113
aatp114
Rp115
(dp116
g8
Vnsubj
p117
sbag0
(g1
g2
(lp118
(lp119
S'word: do, index: 2'
p120
aatp121
Rp122
(dp123
g8
Vaux
p124
sbag0
(g1
g2
(lp125
(lp126
S"word: n't, index: 3"
p127
aatp128
Rp129
(dp130
g8
Vneg
p131
sbatp132
Rp133
(dp134
g8
S'word: know, index: 4'
p135
sbatp136
Rp137
(dp138
g8
S'id: 3'
p139
sbag0
(g1
g2
(lp140
tp141
Rp142
(dp143
g8
S'id: 4'
p144
sbag0
(g1
g2
(lp145
g0
(g1
g2
(lp146
g0
(g1
g2
(lp147
g0
(g1
g2
(lp148
g0
(g1
g2
(lp149
(lp150
S'word: them, index: 5'
p151
aatp152
Rp153
(dp154
g8
Vprep
p155
sbatp156
Rp157
(dp158
g8
S'word: two, index: 3'
p159
sbatp160
Rp161
(dp162
g8
Vdobj
p163
sbatp164
Rp165
(dp166
g8
S'word: Leaves, index: 1'
p167
sbatp168
Rp169
(dp170
g8
S'id: 5'
p171
sbag0
(g1
g2
(lp172
tp173
Rp174
(dp175
g8
S'id: 6'
p176
sbag0
(g1
g2
(lp177
tp178
Rp179
(dp180
g8
S'id: 7'
p181
sbatp182
Rp183
(dp184
g8
S'sentences'
p185
sb.