ccopy_reg
_reconstructor
p0
(cnltk.tree
Tree
p1
c__builtin__
list
p2
(lp3
g0
(g1
g2
(lp4
g0
(g1
g2
(lp5
g0
(g1
g2
(lp6
Vthat
p7
atp8
Rp9
(dp10
S'_label'
p11
S'start: 1'
p12
sbatp13
Rp14
(dp15
g11
S'sent: 1'
p16
sbag0
(g1
g2
(lp17
g0
(g1
g2
(lp18
Vthe mom , the , the son , and the , the girl
p19
atp20
Rp21
(dp22
g11
S'start: 3'
p23
sbatp24
Rp25
(dp26
g11
S'sent: 1'
p27
sbag0
(g1
g2
(lp28
g0
(g1
g2
(lp29
Vthey
p30
atp31
Rp32
(dp33
g11
S'start: 9'
p34
sbatp35
Rp36
(dp37
g11
S'sent: 2'
p38
sbatp39
Rp40
(dp41
g11
S'id: 1'
p42
sbag0
(g1
g2
(lp43
g0
(g1
g2
(lp44
g0
(g1
g2
(lp45
Vthe mom
p46
atp47
Rp48
(dp49
g11
S'start: 3'
p50
sbatp51
Rp52
(dp53
g11
S'sent: 1'
p54
sbag0
(g1
g2
(lp55
g0
(g1
g2
(lp56
VShe
p57
atp58
Rp59
(dp60
g11
S'start: 1'
p61
sbatp62
Rp63
(dp64
g11
S'sent: 3'
p65
sbag0
(g1
g2
(lp66
g0
(g1
g2
(lp67
Vhis mom
p68
atp69
Rp70
(dp71
g11
S'start: 8'
p72
sbatp73
Rp74
(dp75
g11
S'sent: 11'
p76
sbatp77
Rp78
(dp79
g11
S'id: 3'
p80
sbag0
(g1
g2
(lp81
g0
(g1
g2
(lp82
g0
(g1
g2
(lp83
Vthe
p84
atp85
Rp86
(dp87
g11
S'start: 6'
p88
sbatp89
Rp90
(dp91
g11
S'sent: 1'
p92
sbag0
(g1
g2
(lp93
g0
(g1
g2
(lp94
Vthe , the girl
p95
atp96
Rp97
(dp98
g11
S'start: 12'
p99
sbatp100
Rp101
(dp102
g11
S'sent: 1'
p103
sbag0
(g1
g2
(lp104
g0
(g1
g2
(lp105
Vthe
p106
atp107
Rp108
(dp109
g11
S'start: 12'
p110
sbatp111
Rp112
(dp113
g11
S'sent: 1'
p114
sbatp115
Rp116
(dp117
g11
S'id: 4'
p118
sbag0
(g1
g2
(lp119
g0
(g1
g2
(lp120
g0
(g1
g2
(lp121
Vthe son
p122
atp123
Rp124
(dp125
g11
S'start: 8'
p126
sbatp127
Rp128
(dp129
g11
S'sent: 1'
p130
sbag0
(g1
g2
(lp131
g0
(g1
g2
(lp132
Vthe son
p133
atp134
Rp135
(dp136
g11
S'start: 6'
p137
sbatp138
Rp139
(dp140
g11
S'sent: 6'
p141
sbatp142
Rp143
(dp144
g11
S'id: 5'
p145
sbag0
(g1
g2
(lp146
g0
(g1
g2
(lp147
g0
(g1
g2
(lp148
Vthe cookie
p149
atp150
Rp151
(dp152
g11
S'start: 2'
p153
sbatp154
Rp155
(dp156
g11
S'sent: 2'
p157
sbag0
(g1
g2
(lp158
g0
(g1
g2
(lp159
Vthere the water
p160
atp161
Rp162
(dp163
g11
S'start: 5'
p164
sbatp165
Rp166
(dp167
g11
S'sent: 2'
p168
sbag0
(g1
g2
(lp169
g0
(g1
g2
(lp170
Vit
p171
atp172
Rp173
(dp174
g11
S'start: 12'
p175
sbatp176
Rp177
(dp178
g11
S'sent: 2'
p179
sbatp180
Rp181
(dp182
g11
S'id: 10'
p183
sbag0
(g1
g2
(lp184
g0
(g1
g2
(lp185
g0
(g1
g2
(lp186
Vthe water
p187
atp188
Rp189
(dp190
g11
S'start: 6'
p191
sbatp192
Rp193
(dp194
g11
S'sent: 2'
p195
sbag0
(g1
g2
(lp196
g0
(g1
g2
(lp197
Vthe water
p198
atp199
Rp200
(dp201
g11
S'start: 3'
p202
sbatp203
Rp204
(dp205
g11
S'sent: 5'
p206
sbag0
(g1
g2
(lp207
g0
(g1
g2
(lp208
Vthe water , outside
p209
atp210
Rp211
(dp212
g11
S'start: 6'
p213
sbatp214
Rp215
(dp216
g11
S'sent: 13'
p217
sbag0
(g1
g2
(lp218
g0
(g1
g2
(lp219
Vthe water
p220
atp221
Rp222
(dp223
g11
S'start: 6'
p224
sbatp225
Rp226
(dp227
g11
S'sent: 13'
p228
sbatp229
Rp230
(dp231
g11
S'id: 12'
p232
sbag0
(g1
g2
(lp233
g0
(g1
g2
(lp234
g0
(g1
g2
(lp235
Vhere
p236
atp237
Rp238
(dp239
g11
S'start: 2'
p240
sbatp241
Rp242
(dp243
g11
S'sent: 6'
p244
sbag0
(g1
g2
(lp245
g0
(g1
g2
(lp246
VHe
p247
atp248
Rp249
(dp250
g11
S'start: 1'
p251
sbatp252
Rp253
(dp254
g11
S'sent: 7'
p255
sbag0
(g1
g2
(lp256
g0
(g1
g2
(lp257
Vhe
p258
atp259
Rp260
(dp261
g11
S'start: 3'
p262
sbatp263
Rp264
(dp265
g11
S'sent: 7'
p266
sbag0
(g1
g2
(lp267
g0
(g1
g2
(lp268
Vhe
p269
atp270
Rp271
(dp272
g11
S'start: 11'
p273
sbatp274
Rp275
(dp276
g11
S'sent: 10'
p277
sbag0
(g1
g2
(lp278
g0
(g1
g2
(lp279
Vhis
p280
atp281
Rp282
(dp283
g11
S'start: 8'
p284
sbatp285
Rp286
(dp287
g11
S'sent: 11'
p288
sbag0
(g1
g2
(lp289
g0
(g1
g2
(lp290
Vhis
p291
atp292
Rp293
(dp294
g11
S'start: 10'
p295
sbatp296
Rp297
(dp298
g11
S'sent: 12'
p299
sbag0
(g1
g2
(lp300
g0
(g1
g2
(lp301
Vhis
p302
atp303
Rp304
(dp305
g11
S'start: 12'
p306
sbatp307
Rp308
(dp309
g11
S'sent: 12'
p310
sbatp311
Rp312
(dp313
g11
S'id: 22'
p314
sbag0
(g1
g2
(lp315
g0
(g1
g2
(lp316
g0
(g1
g2
(lp317
Vchurch , not a church
p318
atp319
Rp320
(dp321
g11
S'start: 10'
p322
sbatp323
Rp324
(dp325
g11
S'sent: 7'
p326
sbag0
(g1
g2
(lp327
g0
(g1
g2
(lp328
Vit
p329
atp330
Rp331
(dp332
g11
S'start: 16'
p333
sbatp334
Rp335
(dp336
g11
S'sent: 7'
p337
sbag0
(g1
g2
(lp338
g0
(g1
g2
(lp339
Va s t o o stool
p340
atp341
Rp342
(dp343
g11
S'start: 18'
p344
sbatp345
Rp346
(dp347
g11
S'sent: 7'
p348
sbatp349
Rp350
(dp351
g11
S'id: 26'
p352
sbag0
(g1
g2
(lp353
g0
(g1
g2
(lp354
g0
(g1
g2
(lp355
Vshe
p356
atp357
Rp358
(dp359
g11
S'start: 26'
p360
sbatp361
Rp362
(dp363
g11
S'sent: 7'
p364
sbag0
(g1
g2
(lp365
g0
(g1
g2
(lp366
Vshe
p367
atp368
Rp369
(dp370
g11
S'start: 31'
p371
sbatp372
Rp373
(dp374
g11
S'sent: 7'
p375
sbag0
(g1
g2
(lp376
g0
(g1
g2
(lp377
Vher
p378
atp379
Rp380
(dp381
g11
S'start: 35'
p382
sbatp383
Rp384
(dp385
g11
S'sent: 7'
p386
sbag0
(g1
g2
(lp387
g0
(g1
g2
(lp388
Vshe
p389
atp390
Rp391
(dp392
g11
S'start: 6'
p393
sbatp394
Rp395
(dp396
g11
S'sent: 8'
p397
sbag0
(g1
g2
(lp398
g0
(g1
g2
(lp399
Vshe
p400
atp401
Rp402
(dp403
g11
S'start: 5'
p404
sbatp405
Rp406
(dp407
g11
S'sent: 10'
p408
sbag0
(g1
g2
(lp409
g0
(g1
g2
(lp410
Vher
p411
atp412
Rp413
(dp414
g11
S'start: 8'
p415
sbatp416
Rp417
(dp418
g11
S'sent: 10'
p419
sbatp420
Rp421
(dp422
g11
S'id: 31'
p423
sbag0
(g1
g2
(lp424
g0
(g1
g2
(lp425
g0
(g1
g2
(lp426
Vthey
p427
atp428
Rp429
(dp430
g11
S'start: 2'
p431
sbatp432
Rp433
(dp434
g11
S'sent: 8'
p435
sbag0
(g1
g2
(lp436
g0
(g1
g2
(lp437
Vthey
p438
atp439
Rp440
(dp441
g11
S'start: 7'
p442
sbatp443
Rp444
(dp445
g11
S'sent: 9'
p446
sbag0
(g1
g2
(lp447
g0
(g1
g2
(lp448
Vtheir
p449
atp450
Rp451
(dp452
g11
S'start: 10'
p453
sbatp454
Rp455
(dp456
g11
S'sent: 9'
p457
sbag0
(g1
g2
(lp458
g0
(g1
g2
(lp459
Vthey
p460
atp461
Rp462
(dp463
g11
S'start: 14'
p464
sbatp465
Rp466
(dp467
g11
S'sent: 9'
p468
sbag0
(g1
g2
(lp469
g0
(g1
g2
(lp470
VThey
p471
atp472
Rp473
(dp474
g11
S'start: 1'
p475
sbatp476
Rp477
(dp478
g11
S'sent: 11'
p479
sbag0
(g1
g2
(lp480
g0
(g1
g2
(lp481
Vthat
p482
atp483
Rp484
(dp485
g11
S'start: 6'
p486
sbatp487
Rp488
(dp489
g11
S'sent: 11'
p490
sbag0
(g1
g2
(lp491
g0
(g1
g2
(lp492
Vthat
p493
atp494
Rp495
(dp496
g11
S'start: 3'
p497
sbatp498
Rp499
(dp500
g11
S'sent: 12'
p501
sbag0
(g1
g2
(lp502
g0
(g1
g2
(lp503
Vthat
p504
atp505
Rp506
(dp507
g11
S'start: 7'
p508
sbatp509
Rp510
(dp511
g11
S'sent: 12'
p512
sbag0
(g1
g2
(lp513
g0
(g1
g2
(lp514
Vthat
p515
atp516
Rp517
(dp518
g11
S'start: 16'
p519
sbatp520
Rp521
(dp522
g11
S'sent: 12'
p523
sbatp524
Rp525
(dp526
g11
S'id: 36'
p527
sbag0
(g1
g2
(lp528
g0
(g1
g2
(lp529
g0
(g1
g2
(lp530
Vwhatever
p531
atp532
Rp533
(dp534
g11
S'start: 5'
p535
sbatp536
Rp537
(dp538
g11
S'sent: 8'
p539
sbag0
(g1
g2
(lp540
g0
(g1
g2
(lp541
Vit
p542
atp543
Rp544
(dp545
g11
S'start: 16'
p546
sbatp547
Rp548
(dp549
g11
S'sent: 10'
p550
sbatp551
Rp552
(dp553
g11
S'id: 37'
p554
sbag0
(g1
g2
(lp555
g0
(g1
g2
(lp556
g0
(g1
g2
(lp557
Va tree
p558
atp559
Rp560
(dp561
g11
S'start: 3'
p562
sbatp563
Rp564
(dp565
g11
S'sent: 14'
p566
sbag0
(g1
g2
(lp567
g0
(g1
g2
(lp568
VThat
p569
atp570
Rp571
(dp572
g11
S'start: 1'
p573
sbatp574
Rp575
(dp576
g11
S'sent: 15'
p577
sbag0
(g1
g2
(lp578
g0
(g1
g2
(lp579
Vthe grass
p580
atp581
Rp582
(dp583
g11
S'start: 3'
p584
sbatp585
Rp586
(dp587
g11
S'sent: 15'
p588
sbag0
(g1
g2
(lp589
g0
(g1
g2
(lp590
VThat
p591
atp592
Rp593
(dp594
g11
S'start: 1'
p595
sbatp596
Rp597
(dp598
g11
S'sent: 16'
p599
sbag0
(g1
g2
(lp600
g0
(g1
g2
(lp601
Vpretty much everything
p602
atp603
Rp604
(dp605
g11
S'start: 3'
p606
sbatp607
Rp608
(dp609
g11
S'sent: 16'
p610
sbatp611
Rp612
(dp613
g11
S'id: 60'
p614
sbatp615
Rp616
(dp617
g11
S'coreferences'
p618
sb.