ccopy_reg
_reconstructor
p0
(cnltk.tree
Tree
p1
c__builtin__
list
p2
(lp3
g0
(g1
g2
(lp4
g0
(g1
g2
(lp5
g0
(g1
g2
(lp6
g0
(g1
g2
(lp7
g0
(g1
g2
(lp8
(lp9
S'word: another, index: 2'
p10
aatp11
Rp12
(dp13
S'_label'
p14
Vdet
p15
sbag0
(g1
g2
(lp16
(lp17
S'word: pencil, index: 3'
p18
aatp19
Rp20
(dp21
g14
Vnn
p22
sbag0
(g1
g2
(lp23
(lp24
S'word: ok, index: 6'
p25
aatp26
Rp27
(dp28
g14
Vappos
p29
sbatp30
Rp31
(dp32
g14
S'word: job, index: 4'
p33
sbatp34
Rp35
(dp36
g14
Vdep
p37
sbatp38
Rp39
(dp40
g14
S'word: ooo, index: 1'
p41
sbatp42
Rp43
(dp44
g14
S'id: 0'
p45
sbag0
(g1
g2
(lp46
g0
(g1
g2
(lp47
g0
(g1
g2
(lp48
g0
(g1
g2
(lp49
g0
(g1
g2
(lp50
(lp51
S'word: a, index: 5'
p52
aatp53
Rp54
(dp55
g14
Vdet
p56
sbatp57
Rp58
(dp59
g14
S'word: merry, index: 6'
p60
sbatp61
Rp62
(dp63
g14
Vprep
p64
sbag0
(g1
g2
(lp65
g0
(g1
g2
(lp66
g0
(g1
g2
(lp67
g0
(g1
g2
(lp68
g0
(g1
g2
(lp69
(lp70
S'word: a, index: 16'
p71
aatp72
Rp73
(dp74
g14
Vdet
p75
sbag0
(g1
g2
(lp76
(lp77
S'word: bare, index: 17'
p78
aatp79
Rp80
(dp81
g14
Vamod
p82
sbag0
(g1
g2
(lp83
(lp84
S'word: back, index: 18'
p85
aatp86
Rp87
(dp88
g14
Vnn
p89
sbatp90
Rp91
(dp92
g14
S'word: rider, index: 19'
p93
sbatp94
Rp95
(dp96
g14
Vprep
p97
sbag0
(g1
g2
(lp98
(lp99
S'word: a, index: 9'
p100
aatp101
Rp102
(dp103
g14
Vdet
p104
sbag0
(g1
g2
(lp105
g0
(g1
g2
(lp106
g0
(g1
g2
(lp107
(lp108
S'word: a, index: 22'
p109
aatp110
Rp111
(dp112
g14
Vdet
p113
sbag0
(g1
g2
(lp114
(lp115
S'word: tight, index: 23'
p116
aatp117
Rp118
(dp119
g14
Vamod
p120
sbag0
(g1
g2
(lp121
(lp122
S'word: rope, index: 24'
p123
aatp124
Rp125
(dp126
g14
Vnn
p127
sbatp128
Rp129
(dp130
g14
S'word: walker, index: 25'
p131
sbatp132
Rp133
(dp134
g14
Vprep
p135
sbag0
(g1
g2
(lp136
g0
(g1
g2
(lp137
g0
(g1
g2
(lp138
g91
atp139
Rp140
(dp141
g14
Vconj
p142
sbag0
(g1
g2
(lp143
g129
atp144
Rp145
(dp146
g14
Vconj
p147
sbag0
(g1
g2
(lp148
(lp149
S'word: the, index: 12'
p150
aatp151
Rp152
(dp153
g14
Vdet
p154
sbatp155
Rp156
(dp157
g14
S'word: cage, index: 13'
p158
sbatp159
Rp160
(dp161
g14
Vprep
p162
sbatp163
Rp164
(dp165
g14
S'word: tiger, index: 10'
p166
sbatp167
Rp168
(dp169
g14
Vprep
p170
sbag0
(g1
g2
(lp171
(lp172
S'word: We, index: 1'
p173
aatp174
Rp175
(dp176
g14
Vnsubj
p177
sbag0
(g1
g2
(lp178
(lp179
S'word: are, index: 2'
p180
aatp181
Rp182
(dp183
g14
Vaux
p184
sbatp185
Rp186
(dp187
g14
S'word: looking, index: 3'
p188
sbatp189
Rp190
(dp191
g14
S'id: 1'
p192
sbag0
(g1
g2
(lp193
g0
(g1
g2
(lp194
g0
(g1
g2
(lp195
(lp196
S'word: must, index: 6'
p197
aatp198
Rp199
(dp200
g14
Vaux
p201
sbag0
(g1
g2
(lp202
(lp203
S'word: be, index: 7'
p204
aatp205
Rp206
(dp207
g14
Vcop
p208
sbag0
(g1
g2
(lp209
(lp210
S'word: a, index: 8'
p211
aatp212
Rp213
(dp214
g14
Vdet
p215
sbag0
(g1
g2
(lp216
(lp217
S'word: town, index: 11'
p218
aatp219
Rp220
(dp221
g14
Vprep
p222
sbag0
(g1
g2
(lp223
(lp224
S'word: boy, index: 1'
p225
aatp226
Rp227
(dp228
g14
Vnsubj
p229
sbag0
(g1
g2
(lp230
g0
(g1
g2
(lp231
g0
(g1
g2
(lp232
(lp233
S'word: those, index: 2'
p234
aatp235
Rp236
(dp237
g14
Vnsubj
p238
sbag0
(g1
g2
(lp239
(lp240
S'word: are, index: 3'
p241
aatp242
Rp243
(dp244
g14
Vcop
p245
sbatp246
Rp247
(dp248
g14
S'word: all, index: 4'
p249
sbatp250
Rp251
(dp252
g14
Vparataxis
p253
sbatp254
Rp255
(dp256
g14
S'word: circus, index: 9'
p257
sbatp258
Rp259
(dp260
g14
S'id: 2'
p261
sbag0
(g1
g2
(lp262
g0
(g1
g2
(lp263
g0
(g1
g2
(lp264
(lp265
S'word: Well, index: 1'
p266
aatp267
Rp268
(dp269
g14
Vadvmod
p270
sbag0
(g1
g2
(lp271
(lp272
S'word: there, index: 2'
p273
aatp274
Rp275
(dp276
g14
Vexpl
p277
sbag0
(g1
g2
(lp278
g0
(g1
g2
(lp279
g0
(g1
g2
(lp280
(lp281
S'word: a, index: 4'
p282
aatp283
Rp284
(dp285
g14
Vdet
p286
sbag0
(g1
g2
(lp287
g0
(g1
g2
(lp288
g0
(g1
g2
(lp289
(lp290
S'word: all, index: 9'
p291
aatp292
Rp293
(dp294
g14
Vdep
p295
sbag0
(g1
g2
(lp296
g0
(g1
g2
(lp297
g0
(g1
g2
(lp298
(lp299
S'word: the, index: 11'
p300
aatp301
Rp302
(dp303
g14
Vdet
p304
sbatp305
Rp306
(dp307
g14
S'word: place, index: 12'
p308
sbatp309
Rp310
(dp311
g14
Vprep
p312
sbag0
(g1
g2
(lp313
(lp314
S'word: out, index: 7'
p315
aatp316
Rp317
(dp318
g14
Vprt
p319
sbag0
(g1
g2
(lp320
(lp321
S'word: popcorn, index: 8'
p322
aatp323
Rp324
(dp325
g14
Vdobj
p326
sbatp327
Rp328
(dp329
g14
S'word: flipping, index: 6'
p330
sbatp331
Rp332
(dp333
g14
Vdep
p334
sbatp335
Rp336
(dp337
g14
S'word: clown, index: 5'
p338
sbatp339
Rp340
(dp341
g14
Vnsubj
p342
sbatp343
Rp344
(dp345
g14
S"word: 's, index: 3"
p346
sbatp347
Rp348
(dp349
g14
S'id: 3'
p350
sbag0
(g1
g2
(lp351
g0
(g1
g2
(lp352
g0
(g1
g2
(lp353
g0
(g1
g2
(lp354
g0
(g1
g2
(lp355
(lp356
S'word: is, index: 12'
p357
aatp358
Rp359
(dp360
g14
Vaux
p361
sbag0
(g1
g2
(lp362
g0
(g1
g2
(lp363
g0
(g1
g2
(lp364
(lp365
S'word: a, index: 14'
p366
aatp367
Rp368
(dp369
g14
Vdet
p370
sbag0
(g1
g2
(lp371
(lp372
S'word: younger, index: 15'
p373
aatp374
Rp375
(dp376
g14
Vamod
p377
sbatp378
Rp379
(dp380
g14
S'word: lady, index: 16'
p381
sbatp382
Rp383
(dp384
g14
Vdobj
p385
sbag0
(g1
g2
(lp386
(lp387
S'word: she, index: 11'
p388
aatp389
Rp390
(dp391
g14
Vnsubj
p392
sbatp393
Rp394
(dp395
g14
S'word: carrying, index: 13'
p396
sbatp397
Rp398
(dp399
g14
Vconj
p400
sbag0
(g1
g2
(lp401
(lp402
S'word: a, index: 2'
p403
aatp404
Rp405
(dp406
g14
Vdet
p407
sbag0
(g1
g2
(lp408
(lp409
S'word: young, index: 3'
p410
aatp411
Rp412
(dp413
g14
Vamod
p414
sbag0
(g1
g2
(lp415
g0
(g1
g2
(lp416
g0
(g1
g2
(lp417
g0
(g1
g2
(lp418
g0
(g1
g2
(lp419
(lp420
S'word: her, index: 19'
p421
aatp422
Rp423
(dp424
g14
Vposs
p425
sbatp426
Rp427
(dp428
g14
S'word: son, index: 20'
p429
sbatp430
Rp431
(dp432
g14
Vnsubj
p433
sbag0
(g1
g2
(lp434
g0
(g1
g2
(lp435
g0
(g1
g2
(lp436
(lp437
S'word: her, index: 25'
p438
aatp439
Rp440
(dp441
g14
Vprep
p442
sbatp443
Rp444
(dp445
g14
S'word: side, index: 23'
p446
sbatp447
Rp448
(dp449
g14
Vprep
p450
sbatp451
Rp452
(dp453
g14
S'word: is, index: 21'
p454
sbatp455
Rp456
(dp457
g14
Vconj
p458
sbag0
(g1
g2
(lp459
g0
(g1
g2
(lp460
g0
(g1
g2
(lp461
(lp462
S'word: a, index: 6'
p463
aatp464
Rp465
(dp466
g14
Vdet
p467
sbag0
(g1
g2
(lp468
(lp469
S'word: printed, index: 7'
p470
aatp471
Rp472
(dp473
g14
Vamod
p474
sbag0
(g1
g2
(lp475
(lp476
S'word: on, index: 9'
p477
aatp478
Rp479
(dp480
g14
Vprep
p481
sbatp482
Rp483
(dp484
g14
S'word: blouse, index: 8'
p485
sbatp486
Rp487
(dp488
g14
Vprep
p489
sbatp490
Rp491
(dp492
g14
S'word: lady, index: 4'
p493
sbatp494
Rp495
(dp496
g14
S'id: 4'
p497
sbag0
(g1
g2
(lp498
g0
(g1
g2
(lp499
g0
(g1
g2
(lp500
(lp501
S'word: he, index: 19'
p502
aatp503
Rp504
(dp505
g14
Vnsubj
p506
sbag0
(g1
g2
(lp507
(lp508
S"word: 's, index: 20"
p509
aatp510
Rp511
(dp512
g14
Vcop
p513
sbag0
(g1
g2
(lp514
(lp515
S'word: really, index: 21'
p516
aatp517
Rp518
(dp519
g14
Vadvmod
p520
sbag0
(g1
g2
(lp521
g0
(g1
g2
(lp522
g0
(g1
g2
(lp523
(lp524
S'word: And, index: 1'
p525
aatp526
Rp527
(dp528
g14
Vcc
p529
sbag0
(g1
g2
(lp530
(lp531
S'word: tails, index: 17'
p532
aatp533
Rp534
(dp535
g14
Vdobj
p536
sbag0
(g1
g2
(lp537
g0
(g1
g2
(lp538
g0
(g1
g2
(lp539
(lp540
S'word: the, index: 2'
p541
aatp542
Rp543
(dp544
g14
Vdet
p545
sbag0
(g1
g2
(lp546
g0
(g1
g2
(lp547
g0
(g1
g2
(lp548
(lp549
S'word: the, index: 5'
p550
aatp551
Rp552
(dp553
g14
Vdet
p554
sbatp555
Rp556
(dp557
g14
S'word: cage, index: 6'
p558
sbatp559
Rp560
(dp561
g14
Vprep
p562
sbatp563
Rp564
(dp565
g14
S'word: man, index: 3'
p566
sbatp567
Rp568
(dp569
g14
Vnsubj
p570
sbag0
(g1
g2
(lp571
(lp572
S'word: is, index: 7'
p573
aatp574
Rp575
(dp576
g14
Vaux
p577
sbag0
(g1
g2
(lp578
g0
(g1
g2
(lp579
g0
(g1
g2
(lp580
(lp581
S'word: tails, index: 17'
p582
aatp583
Rp584
(dp585
g14
Vconj
p586
sbag0
(g1
g2
(lp587
(lp588
S'word: a, index: 9'
p589
aatp590
Rp591
(dp592
g14
Vdet
p593
sbag0
(g1
g2
(lp594
(lp595
S'word: top, index: 10'
p596
aatp597
Rp598
(dp599
g14
Vamod
p600
sbag0
(g1
g2
(lp601
(lp602
S'word: coat, index: 14'
p603
aatp604
Rp605
(dp606
g14
Vconj
p607
sbatp608
Rp609
(dp610
g14
S'word: hat, index: 11'
p611
sbatp612
Rp613
(dp614
g14
Vdobj
p615
sbag0
(g1
g2
(lp616
(lp617
S'word: coat, index: 14'
p618
aatp619
Rp620
(dp621
g14
Vdobj
p622
sbatp623
Rp624
(dp625
g14
S'word: wearing, index: 8'
p626
sbatp627
Rp628
(dp629
g14
Vccomp
p630
sbatp631
Rp632
(dp633
g14
S'word: formal, index: 22'
p634
sbatp635
Rp636
(dp637
g14
S'id: 5'
p638
sbag0
(g1
g2
(lp639
g0
(g1
g2
(lp640
g0
(g1
g2
(lp641
(lp642
S'word: the, index: 2'
p643
aatp644
Rp645
(dp646
g14
Vdep
p647
sbag0
(g1
g2
(lp648
g0
(g1
g2
(lp649
g0
(g1
g2
(lp650
(lp651
S'word: the, index: 4'
p652
aatp653
Rp654
(dp655
g14
Vdep
p656
sbag0
(g1
g2
(lp657
g0
(g1
g2
(lp658
g0
(g1
g2
(lp659
g0
(g1
g2
(lp660
g0
(g1
g2
(lp661
g0
(g1
g2
(lp662
g0
(g1
g2
(lp663
(lp664
S'word: a, index: 10'
p665
aatp666
Rp667
(dp668
g14
Vdep
p669
sbatp670
Rp671
(dp672
g14
S'word: in, index: 9'
p673
sbatp674
Rp675
(dp676
g14
Vadvmod
p677
sbatp678
Rp679
(dp680
g14
S'word: is, index: 8'
p681
sbatp682
Rp683
(dp684
g14
Vrcmod
p685
sbatp686
Rp687
(dp688
g14
S'word: horse, index: 7'
p689
sbatp690
Rp691
(dp692
g14
Vappos
p693
sbatp694
Rp695
(dp696
g14
S'word: the, index: 5'
p697
sbatp698
Rp699
(dp700
g14
Vnsubj
p701
sbag0
(g1
g2
(lp702
g0
(g1
g2
(lp703
g0
(g1
g2
(lp704
g0
(g1
g2
(lp705
g0
(g1
g2
(lp706
(lp707
S'word: it, index: 36'
p708
aatp709
Rp710
(dp711
g14
Vprep
p712
sbag0
(g1
g2
(lp713
(lp714
S'word: that, index: 31'
p715
aatp716
Rp717
(dp718
g14
Vnsubj
p719
sbag0
(g1
g2
(lp720
(lp721
S'word: is, index: 32'
p722
aatp723
Rp724
(dp725
g14
Vcop
p726
sbag0
(g1
g2
(lp727
(lp728
S'word: a, index: 33'
p729
aatp730
Rp731
(dp732
g14
Vdet
p733
sbatp734
Rp735
(dp736
g14
S'word: harness, index: 34'
p737
sbatp738
Rp739
(dp740
g14
Vccomp
p741
sbag0
(g1
g2
(lp742
g0
(g1
g2
(lp743
g0
(g1
g2
(lp744
(lp745
S'word: it, index: 23'
p746
aatp747
Rp748
(dp749
g14
Vnsubjpass
p750
sbag0
(g1
g2
(lp751
(lp752
S"word: 's, index: 24"
p753
aatp754
Rp755
(dp756
g14
Vauxpass
p757
sbag0
(g1
g2
(lp758
g0
(g1
g2
(lp759
g0
(g1
g2
(lp760
(lp761
S'word: a, index: 26'
p762
aatp763
Rp764
(dp765
g14
Vdet
p766
sbatp767
Rp768
(dp769
g14
S'word: fancy, index: 27'
p770
sbatp771
Rp772
(dp773
g14
Vdobj
p774
sbatp775
Rp776
(dp777
g14
S'word: got, index: 25'
p778
sbatp779
Rp780
(dp781
g14
Vccomp
p782
sbag0
(g1
g2
(lp783
(lp784
S'word: I, index: 29'
p785
aatp786
Rp787
(dp788
g14
Vnsubj
p789
sbatp790
Rp791
(dp792
g14
S'word: guess, index: 30'
p793
sbatp794
Rp795
(dp796
g14
Vconj
p797
sbag0
(g1
g2
(lp798
g0
(g1
g2
(lp799
g0
(g1
g2
(lp800
g0
(g1
g2
(lp801
g0
(g1
g2
(lp802
(lp803
S'word: be, index: 18'
p804
aatp805
Rp806
(dp807
g14
Vcop
p808
sbag0
(g1
g2
(lp809
(lp810
S'word: coated, index: 20'
p811
aatp812
Rp813
(dp814
g14
Vamod
p815
sbag0
(g1
g2
(lp816
(lp817
S'word: that, index: 16'
p818
aatp819
Rp820
(dp821
g14
Vnsubj
p822
sbag0
(g1
g2
(lp823
(lp824
S'word: may, index: 17'
p825
aatp826
Rp827
(dp828
g14
Vaux
p829
sbatp830
Rp831
(dp832
g14
S'word: sand, index: 19'
p833
sbatp834
Rp835
(dp836
g14
Vrcmod
p837
sbag0
(g1
g2
(lp838
(lp839
S'word: a, index: 14'
p840
aatp841
Rp842
(dp843
g14
Vdet
p844
sbatp845
Rp846
(dp847
g14
S'word: ring, index: 15'
p848
sbatp849
Rp850
(dp851
g14
Vprep
p852
sbatp853
Rp854
(dp855
g14
S'word: looks, index: 12'
p856
sbatp857
Rp858
(dp859
g14
S'id: 6'
p860
sbag0
(g1
g2
(lp861
g0
(g1
g2
(lp862
g0
(g1
g2
(lp863
g0
(g1
g2
(lp864
g0
(g1
g2
(lp865
g0
(g1
g2
(lp866
g0
(g1
g2
(lp867
(lp868
S'word: the, index: 2'
p869
aatp870
Rp871
(dp872
g14
Vdet
p873
sbatp874
Rp875
(dp876
g14
S'word: horse, index: 3'
p877
sbatp878
Rp879
(dp880
g14
Vposs
p881
sbatp882
Rp883
(dp884
g14
S'word: mane, index: 5'
p885
sbatp886
Rp887
(dp888
g14
Vnsubj
p889
sbag0
(g1
g2
(lp890
(lp891
S'word: is, index: 6'
p892
aatp893
Rp894
(dp895
g14
Vcop
p896
sbag0
(g1
g2
(lp897
g0
(g1
g2
(lp898
g0
(g1
g2
(lp899
(lp900
S'word: up, index: 9'
p901
aatp902
Rp903
(dp904
g14
Vprt
p905
sbag0
(g1
g2
(lp906
g0
(g1
g2
(lp907
g0
(g1
g2
(lp908
g0
(g1
g2
(lp909
g0
(g1
g2
(lp910
g0
(g1
g2
(lp911
g0
(g1
g2
(lp912
g0
(g1
g2
(lp913
g0
(g1
g2
(lp914
(lp915
S'word: some, index: 15'
p916
aatp917
Rp918
(dp919
g14
Vdet
p920
sbatp921
Rp922
(dp923
g14
S'word: tossles, index: 16'
p924
sbatp925
Rp926
(dp927
g14
Vpobj
p928
sbatp929
Rp930
(dp931
g14
S'word: with, index: 14'
p932
sbatp933
Rp934
(dp935
g14
Vdep
p936
sbatp937
Rp938
(dp939
g14
S'word: a, index: 12'
p940
sbatp941
Rp942
(dp943
g14
Vamod
p944
sbatp945
Rp946
(dp947
g14
S'word: tassels, index: 18'
p948
sbatp949
Rp950
(dp951
g14
Vprep
p952
sbatp953
Rp954
(dp955
g14
S'word: dolled, index: 8'
p956
sbatp957
Rp958
(dp959
g14
Vrcmod
p960
sbag0
(g1
g2
(lp961
(lp962
S'word: And, index: 1'
p963
aatp964
Rp965
(dp966
g14
Vcc
p967
sbatp968
Rp969
(dp970
g14
S'word: all, index: 7'
p971
sbatp972
Rp973
(dp974
g14
S'id: 7'
p975
sbag0
(g1
g2
(lp976
g0
(g1
g2
(lp977
g0
(g1
g2
(lp978
(lp979
S'word: And, index: 1'
p980
aatp981
Rp982
(dp983
g14
Vcc
p984
sbag0
(g1
g2
(lp985
(lp986
S'word: it, index: 2'
p987
aatp988
Rp989
(dp990
g14
Vnsubjpass
p991
sbag0
(g1
g2
(lp992
(lp993
S"word: 's, index: 3"
p994
aatp995
Rp996
(dp997
g14
Vauxpass
p998
sbag0
(g1
g2
(lp999
g0
(g1
g2
(lp1000
g0
(g1
g2
(lp1001
g0
(g1
g2
(lp1002
g0
(g1
g2
(lp1003
(lp1004
S'word: what, index: 9'
p1005
aatp1006
Rp1007
(dp1008
g14
Vnsubj
p1009
sbag0
(g1
g2
(lp1010
g0
(g1
g2
(lp1011
g0
(g1
g2
(lp1012
(lp1013
S'word: you, index: 11'
p1014
aatp1015
Rp1016
(dp1017
g14
Vnsubj
p1018
sbag0
(g1
g2
(lp1019
g0
(g1
g2
(lp1020
g0
(g1
g2
(lp1021
g0
(g1
g2
(lp1022
g0
(g1
g2
(lp1023
(lp1024
S'word: that, index: 13'
p1025
aatp1026
Rp1027
(dp1028
g14
Vdet
p1029
sbag0
(g1
g2
(lp1030
(lp1031
S'word: it, index: 16'
p1032
aatp1033
Rp1034
(dp1035
g14
Vprep
p1036
sbatp1037
Rp1038
(dp1039
g14
S'word: thing, index: 14'
p1040
sbatp1041
Rp1042
(dp1043
g14
Vnsubj
p1044
sbag0
(g1
g2
(lp1045
(lp1046
S"word: 's, index: 17"
p1047
aatp1048
Rp1049
(dp1050
g14
Vcop
p1051
sbatp1052
Rp1053
(dp1054
g14
S'word: head, index: 18'
p1055
sbatp1056
Rp1057
(dp1058
g14
Vccomp
p1059
sbatp1060
Rp1061
(dp1062
g14
S'word: call, index: 12'
p1063
sbatp1064
Rp1065
(dp1066
g14
Vccomp
p1067
sbatp1068
Rp1069
(dp1070
g14
S'word: do, index: 10'
p1071
sbatp1072
Rp1073
(dp1074
g14
Vrcmod
p1075
sbag0
(g1
g2
(lp1076
(lp1077
S'word: a, index: 7'
p1078
aatp1079
Rp1080
(dp1081
g14
Vappos
p1082
sbatp1083
Rp1084
(dp1085
g14
S'word: a, index: 5'
p1086
sbatp1087
Rp1088
(dp1089
g14
Vdobj
p1090
sbatp1091
Rp1092
(dp1093
g14
S'word: got, index: 4'
p1094
sbatp1095
Rp1096
(dp1097
g14
S'id: 8'
p1098
sbatp1099
Rp1100
(dp1101
g14
S'sentences'
p1102
sb.