ccopy_reg
_reconstructor
p0
(cnltk.tree
Tree
p1
c__builtin__
list
p2
(lp3
g0
(g1
g2
(lp4
g0
(g1
g2
(lp5
g0
(g1
g2
(lp6
Vwow
p7
atp8
Rp9
(dp10
S'_label'
p11
VNN
p12
sbag0
(g1
g2
(lp13
V.
p14
atp15
Rp16
(dp17
g11
V.
p18
sbatp19
Rp20
(dp21
g11
VNP
p22
sbatp23
Rp24
(dp25
g11
S'id: 0'
p26
sbag0
(g1
g2
(lp27
g0
(g1
g2
(lp28
g0
(g1
g2
(lp29
g0
(g1
g2
(lp30
VThis
p31
atp32
Rp33
(dp34
g11
VDT
p35
sbatp36
Rp37
(dp38
g11
VNP
p39
sbag0
(g1
g2
(lp40
g0
(g1
g2
(lp41
Vis
p42
atp43
Rp44
(dp45
g11
VVBZ
p46
sbag0
(g1
g2
(lp47
g0
(g1
g2
(lp48
Va
p49
atp50
Rp51
(dp52
g11
VDT
p53
sbag0
(g1
g2
(lp54
Vcircus
p55
atp56
Rp57
(dp58
g11
VNN
p59
sbatp60
Rp61
(dp62
g11
VNP
p63
sbatp64
Rp65
(dp66
g11
VVP
p67
sbag0
(g1
g2
(lp68
V.
p69
atp70
Rp71
(dp72
g11
V.
p73
sbatp74
Rp75
(dp76
g11
VS
p77
sbatp78
Rp79
(dp80
g11
S'id: 1'
p81
sbag0
(g1
g2
(lp82
g0
(g1
g2
(lp83
g0
(g1
g2
(lp84
g0
(g1
g2
(lp85
VLet
p86
atp87
Rp88
(dp89
g11
VVB
p90
sbag0
(g1
g2
(lp91
g0
(g1
g2
(lp92
g0
(g1
g2
(lp93
V's
p94
atp95
Rp96
(dp97
g11
VPRP
p98
sbatp99
Rp100
(dp101
g11
VNP
p102
sbag0
(g1
g2
(lp103
g0
(g1
g2
(lp104
Vstart
p105
atp106
Rp107
(dp108
g11
VVB
p109
sbag0
(g1
g2
(lp110
g0
(g1
g2
(lp111
Vat
p112
atp113
Rp114
(dp115
g11
VIN
p116
sbag0
(g1
g2
(lp117
g0
(g1
g2
(lp118
Vthe
p119
atp120
Rp121
(dp122
g11
VDT
p123
sbag0
(g1
g2
(lp124
Vtop
p125
atp126
Rp127
(dp128
g11
VNN
p129
sbatp130
Rp131
(dp132
g11
VNP
p133
sbatp134
Rp135
(dp136
g11
VPP
p137
sbatp138
Rp139
(dp140
g11
VVP
p141
sbatp142
Rp143
(dp144
g11
VS
p145
sbatp146
Rp147
(dp148
g11
VVP
p149
sbag0
(g1
g2
(lp150
V.
p151
atp152
Rp153
(dp154
g11
V.
p155
sbatp156
Rp157
(dp158
g11
VS
p159
sbatp160
Rp161
(dp162
g11
S'id: 2'
p163
sbag0
(g1
g2
(lp164
g0
(g1
g2
(lp165
g0
(g1
g2
(lp166
g0
(g1
g2
(lp167
g0
(g1
g2
(lp168
VWe
p169
atp170
Rp171
(dp172
g11
VPRP
p173
sbatp174
Rp175
(dp176
g11
VNP
p177
sbag0
(g1
g2
(lp178
g0
(g1
g2
(lp179
V've
p180
atp181
Rp182
(dp183
g11
VVBP
p184
sbag0
(g1
g2
(lp185
g0
(g1
g2
(lp186
Vgot
p187
atp188
Rp189
(dp190
g11
VVBD
p191
sbag0
(g1
g2
(lp192
g0
(g1
g2
(lp193
Va
p194
atp195
Rp196
(dp197
g11
VDT
p198
sbag0
(g1
g2
(lp199
Vtight
p200
atp201
Rp202
(dp203
g11
VJJ
p204
sbag0
(g1
g2
(lp205
Vropewalker
p206
atp207
Rp208
(dp209
g11
VNN
p210
sbatp211
Rp212
(dp213
g11
VNP
p214
sbag0
(g1
g2
(lp215
V,
p216
atp217
Rp218
(dp219
g11
V,
p220
sbag0
(g1
g2
(lp221
g0
(g1
g2
(lp222
g0
(g1
g2
(lp223
g0
(g1
g2
(lp224
Vbalancing
p225
atp226
Rp227
(dp228
g11
VVBG
p229
sbag0
(g1
g2
(lp230
g0
(g1
g2
(lp231
Vwith
p232
atp233
Rp234
(dp235
g11
VIN
p236
sbag0
(g1
g2
(lp237
g0
(g1
g2
(lp238
Vhis
p239
atp240
Rp241
(dp242
g11
VPRP$
p243
sbag0
(g1
g2
(lp244
Vbeam
p245
atp246
Rp247
(dp248
g11
VNN
p249
sbatp250
Rp251
(dp252
g11
VNP
p253
sbatp254
Rp255
(dp256
g11
VPP
p257
sbatp258
Rp259
(dp260
g11
VVP
p261
sbag0
(g1
g2
(lp262
V,
p263
atp264
Rp265
(dp266
g11
V,
p267
sbag0
(g1
g2
(lp268
g0
(g1
g2
(lp269
Vstarting
p270
atp271
Rp272
(dp273
g11
VVBG
p274
sbag0
(g1
g2
(lp275
g0
(g1
g2
(lp276
g0
(g1
g2
(lp277
Vto
p278
atp279
Rp280
(dp281
g11
VTO
p282
sbag0
(g1
g2
(lp283
g0
(g1
g2
(lp284
Vput
p285
atp286
Rp287
(dp288
g11
VVB
p289
sbag0
(g1
g2
(lp290
g0
(g1
g2
(lp291
Vhis
p292
atp293
Rp294
(dp295
g11
VPRP$
p296
sbag0
(g1
g2
(lp297
Vleft
p298
atp299
Rp300
(dp301
g11
VJJ
p302
sbag0
(g1
g2
(lp303
Vfoot
p304
atp305
Rp306
(dp307
g11
VNN
p308
sbatp309
Rp310
(dp311
g11
VNP
p312
sbag0
(g1
g2
(lp313
g0
(g1
g2
(lp314
Vdown
p315
atp316
Rp317
(dp318
g11
VRB
p319
sbatp320
Rp321
(dp322
g11
VADVP
p323
sbatp324
Rp325
(dp326
g11
VVP
p327
sbatp328
Rp329
(dp330
g11
VVP
p331
sbatp332
Rp333
(dp334
g11
VS
p335
sbatp336
Rp337
(dp338
g11
VVP
p339
sbatp340
Rp341
(dp342
g11
VVP
p343
sbatp344
Rp345
(dp346
g11
VS
p347
sbatp348
Rp349
(dp350
g11
VVP
p351
sbatp352
Rp353
(dp354
g11
VVP
p355
sbatp356
Rp357
(dp358
g11
VS
p359
sbag0
(g1
g2
(lp360
V,
p361
atp362
Rp363
(dp364
g11
V,
p365
sbag0
(g1
g2
(lp366
g0
(g1
g2
(lp367
Vhe
p368
atp369
Rp370
(dp371
g11
VPRP
p372
sbatp373
Rp374
(dp375
g11
VNP
p376
sbag0
(g1
g2
(lp377
g0
(g1
g2
(lp378
Vlooks
p379
atp380
Rp381
(dp382
g11
VVBZ
p383
sbag0
(g1
g2
(lp384
g0
(g1
g2
(lp385
Vlike
p386
atp387
Rp388
(dp389
g11
VIN
p390
sbag0
(g1
g2
(lp391
g0
(g1
g2
(lp392
g0
(g1
g2
(lp393
Vhe
p394
atp395
Rp396
(dp397
g11
VPRP
p398
sbatp399
Rp400
(dp401
g11
VNP
p402
sbag0
(g1
g2
(lp403
g0
(g1
g2
(lp404
V's
p405
atp406
Rp407
(dp408
g11
VVBZ
p409
sbag0
(g1
g2
(lp410
g0
(g1
g2
(lp411
Vin
p412
atp413
Rp414
(dp415
g11
VIN
p416
sbag0
(g1
g2
(lp417
g0
(g1
g2
(lp418
Vcontrol
p419
atp420
Rp421
(dp422
g11
VNN
p423
sbatp424
Rp425
(dp426
g11
VNP
p427
sbatp428
Rp429
(dp430
g11
VPP
p431
sbatp432
Rp433
(dp434
g11
VVP
p435
sbatp436
Rp437
(dp438
g11
VS
p439
sbatp440
Rp441
(dp442
g11
VSBAR
p443
sbatp444
Rp445
(dp446
g11
VVP
p447
sbag0
(g1
g2
(lp448
V.
p449
atp450
Rp451
(dp452
g11
V.
p453
sbatp454
Rp455
(dp456
g11
VS
p457
sbatp458
Rp459
(dp460
g11
S'id: 3'
p461
sbag0
(g1
g2
(lp462
g0
(g1
g2
(lp463
g0
(g1
g2
(lp464
g0
(g1
g2
(lp465
g0
(g1
g2
(lp466
g0
(g1
g2
(lp467
VMoving
p468
atp469
Rp470
(dp471
g11
VVBG
p472
sbag0
(g1
g2
(lp473
g0
(g1
g2
(lp474
Vdown
p475
atp476
Rp477
(dp478
g11
VRP
p479
sbatp480
Rp481
(dp482
g11
VPRT
p483
sbag0
(g1
g2
(lp484
g0
(g1
g2
(lp485
Va
p486
atp487
Rp488
(dp489
g11
VDT
p490
sbag0
(g1
g2
(lp491
Vlittle
p492
atp493
Rp494
(dp495
g11
VJJ
p496
sbag0
(g1
g2
(lp497
Vbit
p498
atp499
Rp500
(dp501
g11
VNN
p502
sbatp503
Rp504
(dp505
g11
VNP
p506
sbatp507
Rp508
(dp509
g11
VVP
p510
sbatp511
Rp512
(dp513
g11
VS
p514
sbag0
(g1
g2
(lp515
V,
p516
atp517
Rp518
(dp519
g11
V,
p520
sbag0
(g1
g2
(lp521
g0
(g1
g2
(lp522
Vwe
p523
atp524
Rp525
(dp526
g11
VPRP
p527
sbatp528
Rp529
(dp530
g11
VNP
p531
sbag0
(g1
g2
(lp532
g0
(g1
g2
(lp533
V've
p534
atp535
Rp536
(dp537
g11
VVBP
p538
sbag0
(g1
g2
(lp539
g0
(g1
g2
(lp540
Vgot
p541
atp542
Rp543
(dp544
g11
VVBD
p545
sbag0
(g1
g2
(lp546
g0
(g1
g2
(lp547
Vthe
p548
atp549
Rp550
(dp551
g11
VDT
p552
sbag0
(g1
g2
(lp553
Vlion
p554
atp555
Rp556
(dp557
g11
VNN
p558
sbatp559
Rp560
(dp561
g11
VNP
p562
sbag0
(g1
g2
(lp563
g0
(g1
g2
(lp564
Vin
p565
atp566
Rp567
(dp568
g11
VIN
p569
sbag0
(g1
g2
(lp570
Va
p571
atp572
Rp573
(dp574
g11
VDT
p575
sbatp576
Rp577
(dp578
g11
VADVP
p579
sbatp580
Rp581
(dp582
g11
VVP
p583
sbatp584
Rp585
(dp586
g11
VVP
p587
sbatp588
Rp589
(dp590
g11
VS
p591
sbag0
(g1
g2
(lp592
V,
p593
atp594
Rp595
(dp596
g11
V,
p597
sbag0
(g1
g2
(lp598
g0
(g1
g2
(lp599
Vit
p600
atp601
Rp602
(dp603
g11
VPRP
p604
sbatp605
Rp606
(dp607
g11
VNP
p608
sbag0
(g1
g2
(lp609
g0
(g1
g2
(lp610
V's
p611
atp612
Rp613
(dp614
g11
VVBZ
p615
sbag0
(g1
g2
(lp616
g0
(g1
g2
(lp617
g0
(g1
g2
(lp618
Va
p619
atp620
Rp621
(dp622
g11
VDT
p623
sbag0
(g1
g2
(lp624
Vround
p625
atp626
Rp627
(dp628
g11
VJJ
p629
sbag0
(g1
g2
(lp630
Vcage
p631
atp632
Rp633
(dp634
g11
VNN
p635
sbatp636
Rp637
(dp638
g11
VNP
p639
sbag0
(g1
g2
(lp640
V,
p641
atp642
Rp643
(dp644
g11
V,
p645
sbag0
(g1
g2
(lp646
g0
(g1
g2
(lp647
Von
p648
atp649
Rp650
(dp651
g11
VIN
p652
sbag0
(g1
g2
(lp653
g0
(g1
g2
(lp654
g0
(g1
g2
(lp655
Va
p656
atp657
Rp658
(dp659
g11
VDT
p660
sbag0
(g1
g2
(lp661
Vlion
p662
atp663
Rp664
(dp665
g11
VNN
p666
sbag0
(g1
g2
(lp667
V's
p668
atp669
Rp670
(dp671
g11
VPOS
p672
sbatp673
Rp674
(dp675
g11
VNP
p676
sbag0
(g1
g2
(lp677
g0
(g1
g2
(lp678
Vsitting
p679
atp680
Rp681
(dp682
g11
VVBG
p683
sbag0
(g1
g2
(lp684
g0
(g1
g2
(lp685
Vup
p686
atp687
Rp688
(dp689
g11
VRP
p690
sbatp691
Rp692
(dp693
g11
VPRT
p694
sbag0
(g1
g2
(lp695
g0
(g1
g2
(lp696
Von
p697
atp698
Rp699
(dp700
g11
VIN
p701
sbag0
(g1
g2
(lp702
g0
(g1
g2
(lp703
Vhis
p704
atp705
Rp706
(dp707
g11
VPRP$
p708
sbag0
(g1
g2
(lp709
Vhind
p710
atp711
Rp712
(dp713
g11
VJJ
p714
sbag0
(g1
g2
(lp715
Vquarters
p716
atp717
Rp718
(dp719
g11
VNNS
p720
sbatp721
Rp722
(dp723
g11
VNP
p724
sbatp725
Rp726
(dp727
g11
VPP
p728
sbag0
(g1
g2
(lp729
V,
p730
atp731
Rp732
(dp733
g11
V,
p734
sbag0
(g1
g2
(lp735
g0
(g1
g2
(lp736
g0
(g1
g2
(lp737
Vraising
p738
atp739
Rp740
(dp741
g11
VVBG
p742
sbag0
(g1
g2
(lp743
g0
(g1
g2
(lp744
Vhis
p745
atp746
Rp747
(dp748
g11
VPRP$
p749
sbag0
(g1
g2
(lp750
Vleft
p751
atp752
Rp753
(dp754
g11
VJJ
p755
sbag0
(g1
g2
(lp756
Vpaw
p757
atp758
Rp759
(dp760
g11
VNN
p761
sbatp762
Rp763
(dp764
g11
VNP
p765
sbatp766
Rp767
(dp768
g11
VVP
p769
sbatp770
Rp771
(dp772
g11
VS
p773
sbatp774
Rp775
(dp776
g11
VVP
p777
sbatp778
Rp779
(dp780
g11
VNP
p781
sbatp782
Rp783
(dp784
g11
VPP
p785
sbatp786
Rp787
(dp788
g11
VNP
p789
sbatp790
Rp791
(dp792
g11
VVP
p793
sbag0
(g1
g2
(lp794
V.
p795
atp796
Rp797
(dp798
g11
V.
p799
sbatp800
Rp801
(dp802
g11
VS
p803
sbatp804
Rp805
(dp806
g11
S'id: 4'
p807
sbag0
(g1
g2
(lp808
g0
(g1
g2
(lp809
g0
(g1
g2
(lp810
g0
(g1
g2
(lp811
VIn
p812
atp813
Rp814
(dp815
g11
VIN
p816
sbag0
(g1
g2
(lp817
g0
(g1
g2
(lp818
g0
(g1
g2
(lp819
Vresponse
p820
atp821
Rp822
(dp823
g11
VNN
p824
sbatp825
Rp826
(dp827
g11
VNP
p828
sbag0
(g1
g2
(lp829
g0
(g1
g2
(lp830
Vto
p831
atp832
Rp833
(dp834
g11
VTO
p835
sbag0
(g1
g2
(lp836
g0
(g1
g2
(lp837
Vhis
p838
atp839
Rp840
(dp841
g11
VPRP$
p842
sbag0
(g1
g2
(lp843
Vlion
p844
atp845
Rp846
(dp847
g11
VNN
p848
sbag0
(g1
g2
(lp849
Vtrainer
p850
atp851
Rp852
(dp853
g11
VNN
p854
sbatp855
Rp856
(dp857
g11
VNP
p858
sbatp859
Rp860
(dp861
g11
VPP
p862
sbag0
(g1
g2
(lp863
V,
p864
atp865
Rp866
(dp867
g11
V,
p868
sbag0
(g1
g2
(lp869
g0
(g1
g2
(lp870
g0
(g1
g2
(lp871
Vwho
p872
atp873
Rp874
(dp875
g11
VWP
p876
sbatp877
Rp878
(dp879
g11
VWHNP
p880
sbag0
(g1
g2
(lp881
g0
(g1
g2
(lp882
g0
(g1
g2
(lp883
V's
p884
atp885
Rp886
(dp887
g11
VVBZ
p888
sbag0
(g1
g2
(lp889
g0
(g1
g2
(lp890
Vraising
p891
atp892
Rp893
(dp894
g11
VVBG
p895
sbag0
(g1
g2
(lp896
g0
(g1
g2
(lp897
g0
(g1
g2
(lp898
g0
(g1
g2
(lp899
Vhis
p900
atp901
Rp902
(dp903
g11
VPRP$
p904
sbag0
(g1
g2
(lp905
Vhand
p906
atp907
Rp908
(dp909
g11
VNN
p910
sbatp911
Rp912
(dp913
g11
VNP
p914
sbag0
(g1
g2
(lp915
V,
p916
atp917
Rp918
(dp919
g11
V,
p920
sbag0
(g1
g2
(lp921
g0
(g1
g2
(lp922
Vhis
p923
atp924
Rp925
(dp926
g11
VPRP$
p927
sbag0
(g1
g2
(lp928
Vright
p929
atp930
Rp931
(dp932
g11
VJJ
p933
sbag0
(g1
g2
(lp934
Vhand
p935
atp936
Rp937
(dp938
g11
VNN
p939
sbatp940
Rp941
(dp942
g11
VNP
p943
sbag0
(g1
g2
(lp944
V,
p945
atp946
Rp947
(dp948
g11
V,
p949
sbatp950
Rp951
(dp952
g11
VNP
p953
sbag0
(g1
g2
(lp954
g0
(g1
g2
(lp955
Vfor
p956
atp957
Rp958
(dp959
g11
VIN
p960
sbag0
(g1
g2
(lp961
g0
(g1
g2
(lp962
Vthe
p963
atp964
Rp965
(dp966
g11
VDT
p967
sbag0
(g1
g2
(lp968
Vlion
p969
atp970
Rp971
(dp972
g11
VNN
p973
sbatp974
Rp975
(dp976
g11
VNP
p977
sbatp978
Rp979
(dp980
g11
VPP
p981
sbatp982
Rp983
(dp984
g11
VNP
p985
sbag0
(g1
g2
(lp986
g0
(g1
g2
(lp987
g0
(g1
g2
(lp988
Vto
p989
atp990
Rp991
(dp992
g11
VTO
p993
sbag0
(g1
g2
(lp994
g0
(g1
g2
(lp995
Vraise
p996
atp997
Rp998
(dp999
g11
VVB
p1000
sbag0
(g1
g2
(lp1001
g0
(g1
g2
(lp1002
Vhis
p1003
atp1004
Rp1005
(dp1006
g11
VPRP$
p1007
sbag0
(g1
g2
(lp1008
Vleft
p1009
atp1010
Rp1011
(dp1012
g11
VJJ
p1013
sbag0
(g1
g2
(lp1014
Vpaw
p1015
atp1016
Rp1017
(dp1018
g11
VNN
p1019
sbatp1020
Rp1021
(dp1022
g11
VNP
p1023
sbatp1024
Rp1025
(dp1026
g11
VVP
p1027
sbatp1028
Rp1029
(dp1030
g11
VVP
p1031
sbatp1032
Rp1033
(dp1034
g11
VS
p1035
sbatp1036
Rp1037
(dp1038
g11
VVP
p1039
sbatp1040
Rp1041
(dp1042
g11
VVP
p1043
sbatp1044
Rp1045
(dp1046
g11
VS
p1047
sbatp1048
Rp1049
(dp1050
g11
VSBAR
p1051
sbatp1052
Rp1053
(dp1054
g11
VNP
p1055
sbatp1056
Rp1057
(dp1058
g11
VPP
p1059
sbag0
(g1
g2
(lp1060
V.
p1061
atp1062
Rp1063
(dp1064
g11
V.
p1065
sbatp1066
Rp1067
(dp1068
g11
VFRAG
p1069
sbatp1070
Rp1071
(dp1072
g11
S'id: 5'
p1073
sbag0
(g1
g2
(lp1074
g0
(g1
g2
(lp1075
g0
(g1
g2
(lp1076
VAnd
p1077
atp1078
Rp1079
(dp1080
g11
VCC
p1081
sbag0
(g1
g2
(lp1082
g0
(g1
g2
(lp1083
Vthe
p1084
atp1085
Rp1086
(dp1087
g11
VDT
p1088
sbag0
(g1
g2
(lp1089
Vlion
p1090
atp1091
Rp1092
(dp1093
g11
VNN
p1094
sbag0
(g1
g2
(lp1095
Vtrainer
p1096
atp1097
Rp1098
(dp1099
g11
VNN
p1100
sbatp1101
Rp1102
(dp1103
g11
VNP
p1104
sbag0
(g1
g2
(lp1105
g0
(g1
g2
(lp1106
Vhas
p1107
atp1108
Rp1109
(dp1110
g11
VVBZ
p1111
sbag0
(g1
g2
(lp1112
g0
(g1
g2
(lp1113
g0
(g1
g2
(lp1114
Va
p1115
atp1116
Rp1117
(dp1118
g11
VDT
p1119
sbag0
(g1
g2
(lp1120
Vnice
p1121
atp1122
Rp1123
(dp1124
g11
VJJ
p1125
sbag0
(g1
g2
(lp1126
Vlittle
p1127
atp1128
Rp1129
(dp1130
g11
VJJ
p1131
sbag0
(g1
g2
(lp1132
Vtop
p1133
atp1134
Rp1135
(dp1136
g11
VJJ
p1137
sbag0
(g1
g2
(lp1138
Vhat
p1139
atp1140
Rp1141
(dp1142
g11
VNN
p1143
sbatp1144
Rp1145
(dp1146
g11
VNP
p1147
sbag0
(g1
g2
(lp1148
g0
(g1
g2
(lp1149
Von
p1150
atp1151
Rp1152
(dp1153
g11
VIN
p1154
sbag0
(g1
g2
(lp1155
g0
(g1
g2
(lp1156
V,
p1157
atp1158
Rp1159
(dp1160
g11
V,
p1161
sbag0
(g1
g2
(lp1162
g0
(g1
g2
(lp1163
g0
(g1
g2
(lp1164
Vhe
p1165
atp1166
Rp1167
(dp1168
g11
VPRP
p1169
sbatp1170
Rp1171
(dp1172
g11
VNP
p1173
sbag0
(g1
g2
(lp1174
g0
(g1
g2
(lp1175
Vhas
p1176
atp1177
Rp1178
(dp1179
g11
VVBZ
p1180
sbag0
(g1
g2
(lp1181
g0
(g1
g2
(lp1182
g0
(g1
g2
(lp1183
Va
p1184
atp1185
Rp1186
(dp1187
g11
VDT
p1188
sbatp1189
Rp1190
(dp1191
g11
VNP
p1192
sbag0
(g1
g2
(lp1193
V,
p1194
atp1195
Rp1196
(dp1197
g11
V,
p1198
sbag0
(g1
g2
(lp1199
g0
(g1
g2
(lp1200
g0
(g1
g2
(lp1201
g0
(g1
g2
(lp1202
Vlooks
p1203
atp1204
Rp1205
(dp1206
g11
VVBZ
p1207
sbag0
(g1
g2
(lp1208
g0
(g1
g2
(lp1209
Vlike
p1210
atp1211
Rp1212
(dp1213
g11
VIN
p1214
sbag0
(g1
g2
(lp1215
g0
(g1
g2
(lp1216
Va
p1217
atp1218
Rp1219
(dp1220
g11
VDT
p1221
sbag0
(g1
g2
(lp1222
Vtweed
p1223
atp1224
Rp1225
(dp1226
g11
VNN
p1227
sbag0
(g1
g2
(lp1228
Vtux
p1229
atp1230
Rp1231
(dp1232
g11
VNN
p1233
sbatp1234
Rp1235
(dp1236
g11
VNP
p1237
sbatp1238
Rp1239
(dp1240
g11
VPP
p1241
sbatp1242
Rp1243
(dp1244
g11
VVP
p1245
sbatp1246
Rp1247
(dp1248
g11
VS
p1249
sbatp1250
Rp1251
(dp1252
g11
VSBAR
p1253
sbatp1254
Rp1255
(dp1256
g11
VNP
p1257
sbatp1258
Rp1259
(dp1260
g11
VVP
p1261
sbatp1262
Rp1263
(dp1264
g11
VS
p1265
sbag0
(g1
g2
(lp1266
V,
p1267
atp1268
Rp1269
(dp1270
g11
V,
p1271
sbatp1272
Rp1273
(dp1274
g11
VPRN
p1275
sbag0
(g1
g2
(lp1276
g0
(g1
g2
(lp1277
g0
(g1
g2
(lp1278
Vkind
p1279
atp1280
Rp1281
(dp1282
g11
VNN
p1283
sbatp1284
Rp1285
(dp1286
g11
VNP
p1287
sbag0
(g1
g2
(lp1288
g0
(g1
g2
(lp1289
Vof
p1290
atp1291
Rp1292
(dp1293
g11
VIN
p1294
sbag0
(g1
g2
(lp1295
g0
(g1
g2
(lp1296
Vweird
p1297
atp1298
Rp1299
(dp1300
g11
VJJ
p1301
sbag0
(g1
g2
(lp1302
V,
p1303
atp1304
Rp1305
(dp1306
g11
V,
p1307
sbag0
(g1
g2
(lp1308
Vcom
p1309
atp1310
Rp1311
(dp1312
g11
VNN
p1313
sbag0
(g1
g2
(lp1314
Vcomber
p1315
atp1316
Rp1317
(dp1318
g11
VNN
p1319
sbag0
(g1
g2
(lp1320
Vbun
p1321
atp1322
Rp1323
(dp1324
g11
VNN
p1325
sbag0
(g1
g2
(lp1326
V,
p1327
atp1328
Rp1329
(dp1330
g11
V,
p1331
sbag0
(g1
g2
(lp1332
Vdark
p1333
atp1334
Rp1335
(dp1336
g11
VJJ
p1337
sbag0
(g1
g2
(lp1338
Vpants
p1339
atp1340
Rp1341
(dp1342
g11
VNNS
p1343
sbatp1344
Rp1345
(dp1346
g11
VNP
p1347
sbatp1348
Rp1349
(dp1350
g11
VPP
p1351
sbatp1352
Rp1353
(dp1354
g11
VNP
p1355
sbatp1356
Rp1357
(dp1358
g11
VPP
p1359
sbatp1360
Rp1361
(dp1362
g11
VNP
p1363
sbatp1364
Rp1365
(dp1366
g11
VVP
p1367
sbag0
(g1
g2
(lp1368
V.
p1369
atp1370
Rp1371
(dp1372
g11
V.
p1373
sbatp1374
Rp1375
(dp1376
g11
VS
p1377
sbatp1378
Rp1379
(dp1380
g11
S'id: 6'
p1381
sbag0
(g1
g2
(lp1382
g0
(g1
g2
(lp1383
g0
(g1
g2
(lp1384
VAnd
p1385
atp1386
Rp1387
(dp1388
g11
VCC
p1389
sbag0
(g1
g2
(lp1390
g0
(g1
g2
(lp1391
g0
(g1
g2
(lp1392
Vthe
p1393
atp1394
Rp1395
(dp1396
g11
VDT
p1397
sbag0
(g1
g2
(lp1398
g0
(g1
g2
(lp1399
Vlion
p1400
atp1401
Rp1402
(dp1403
g11
VNN
p1404
sbag0
(g1
g2
(lp1405
V's
p1406
atp1407
Rp1408
(dp1409
g11
VPOS
p1410
sbatp1411
Rp1412
(dp1413
g11
VNP
p1414
sbatp1415
Rp1416
(dp1417
g11
VNP
p1418
sbag0
(g1
g2
(lp1419
g0
(g1
g2
(lp1420
Vupon
p1421
atp1422
Rp1423
(dp1424
g11
VIN
p1425
sbag0
(g1
g2
(lp1426
g0
(g1
g2
(lp1427
Va
p1428
atp1429
Rp1430
(dp1431
g11
VDT
p1432
sbag0
(g1
g2
(lp1433
g0
(g1
g2
(lp1434
V,
p1435
atp1436
Rp1437
(dp1438
g11
V,
p1439
sbag0
(g1
g2
(lp1440
g0
(g1
g2
(lp1441
Vupside
p1442
atp1443
Rp1444
(dp1445
g11
VRB
p1446
sbag0
(g1
g2
(lp1447
Vdown
p1448
atp1449
Rp1450
(dp1451
g11
VIN
p1452
sbatp1453
Rp1454
(dp1455
g11
VADVP
p1456
sbag0
(g1
g2
(lp1457
g0
(g1
g2
(lp1458
g0
(g1
g2
(lp1459
Vtable
p1460
atp1461
Rp1462
(dp1463
g11
VNN
p1464
sbatp1465
Rp1466
(dp1467
g11
VNP
p1468
sbag0
(g1
g2
(lp1469
V,
p1470
atp1471
Rp1472
(dp1473
g11
V,
p1474
sbag0
(g1
g2
(lp1475
g0
(g1
g2
(lp1476
Vtub
p1477
atp1478
Rp1479
(dp1480
g11
VNN
p1481
sbatp1482
Rp1483
(dp1484
g11
VNP
p1485
sbatp1486
Rp1487
(dp1488
g11
VNP
p1489
sbatp1490
Rp1491
(dp1492
g11
VPRN
p1493
sbatp1494
Rp1495
(dp1496
g11
VNP
p1497
sbatp1498
Rp1499
(dp1500
g11
VPP
p1501
sbatp1502
Rp1503
(dp1504
g11
VNP
p1505
sbag0
(g1
g2
(lp1506
V.
p1507
atp1508
Rp1509
(dp1510
g11
V.
p1511
sbatp1512
Rp1513
(dp1514
g11
VFRAG
p1515
sbatp1516
Rp1517
(dp1518
g11
S'id: 7'
p1519
sbag0
(g1
g2
(lp1520
g0
(g1
g2
(lp1521
g0
(g1
g2
(lp1522
g0
(g1
g2
(lp1523
VBlack
p1524
atp1525
Rp1526
(dp1527
g11
VJJ
p1528
sbatp1529
Rp1530
(dp1531
g11
VNP
p1532
sbag0
(g1
g2
(lp1533
Vand
p1534
atp1535
Rp1536
(dp1537
g11
VCC
p1538
sbag0
(g1
g2
(lp1539
g0
(g1
g2
(lp1540
Vwith
p1541
atp1542
Rp1543
(dp1544
g11
VIN
p1545
sbag0
(g1
g2
(lp1546
g0
(g1
g2
(lp1547
g0
(g1
g2
(lp1548
Vstripes
p1549
atp1550
Rp1551
(dp1552
g11
VNNS
p1553
sbatp1554
Rp1555
(dp1556
g11
VNP
p1557
sbag0
(g1
g2
(lp1558
V,
p1559
atp1560
Rp1561
(dp1562
g11
V,
p1563
sbag0
(g1
g2
(lp1564
g0
(g1
g2
(lp1565
g0
(g1
g2
(lp1566
Vvery
p1567
atp1568
Rp1569
(dp1570
g11
VRB
p1571
sbag0
(g1
g2
(lp1572
Vwide
p1573
atp1574
Rp1575
(dp1576
g11
VJJ
p1577
sbatp1578
Rp1579
(dp1580
g11
VADJP
p1581
sbag0
(g1
g2
(lp1582
Vstripes
p1583
atp1584
Rp1585
(dp1586
g11
VNNS
p1587
sbatp1588
Rp1589
(dp1590
g11
VNP
p1591
sbatp1592
Rp1593
(dp1594
g11
VNP
p1595
sbag0
(g1
g2
(lp1596
V.
p1597
atp1598
Rp1599
(dp1600
g11
V.
p1601
sbatp1602
Rp1603
(dp1604
g11
VPP
p1605
sbatp1606
Rp1607
(dp1608
g11
VUCP
p1609
sbatp1610
Rp1611
(dp1612
g11
S'id: 8'
p1613
sbag0
(g1
g2
(lp1614
g0
(g1
g2
(lp1615
g0
(g1
g2
(lp1616
VAnd
p1617
atp1618
Rp1619
(dp1620
g11
VCC
p1621
sbag0
(g1
g2
(lp1622
g0
(g1
g2
(lp1623
g0
(g1
g2
(lp1624
Vwatching
p1625
atp1626
Rp1627
(dp1628
g11
VVBG
p1629
sbag0
(g1
g2
(lp1630
g0
(g1
g2
(lp1631
Vthe
p1632
atp1633
Rp1634
(dp1635
g11
VDT
p1636
sbag0
(g1
g2
(lp1637
Vlion
p1638
atp1639
Rp1640
(dp1641
g11
VNN
p1642
sbatp1643
Rp1644
(dp1645
g11
VNP
p1646
sbatp1647
Rp1648
(dp1649
g11
VVP
p1650
sbatp1651
Rp1652
(dp1653
g11
VS
p1654
sbag0
(g1
g2
(lp1655
V,
p1656
atp1657
Rp1658
(dp1659
g11
V,
p1660
sbag0
(g1
g2
(lp1661
g0
(g1
g2
(lp1662
VI
p1663
atp1664
Rp1665
(dp1666
g11
VPRP
p1667
sbatp1668
Rp1669
(dp1670
g11
VNP
p1671
sbag0
(g1
g2
(lp1672
g0
(g1
g2
(lp1673
Vthink
p1674
atp1675
Rp1676
(dp1677
g11
VVBP
p1678
sbag0
(g1
g2
(lp1679
g0
(g1
g2
(lp1680
g0
(g1
g2
(lp1681
g0
(g1
g2
(lp1682
Vis
p1683
atp1684
Rp1685
(dp1686
g11
VVBZ
p1687
sbag0
(g1
g2
(lp1688
g0
(g1
g2
(lp1689
Va
p1690
atp1691
Rp1692
(dp1693
g11
VDT
p1694
sbag0
(g1
g2
(lp1695
Vlittle
p1696
atp1697
Rp1698
(dp1699
g11
VJJ
p1700
sbag0
(g1
g2
(lp1701
Vgirl
p1702
atp1703
Rp1704
(dp1705
g11
VNN
p1706
sbatp1707
Rp1708
(dp1709
g11
VNP
p1710
sbag0
(g1
g2
(lp1711
V,
p1712
atp1713
Rp1714
(dp1715
g11
V,
p1716
sbag0
(g1
g2
(lp1717
g0
(g1
g2
(lp1718
Vunless
p1719
atp1720
Rp1721
(dp1722
g11
VIN
p1723
sbag0
(g1
g2
(lp1724
g0
(g1
g2
(lp1725
g0
(g1
g2
(lp1726
Vshe
p1727
atp1728
Rp1729
(dp1730
g11
VPRP
p1731
sbatp1732
Rp1733
(dp1734
g11
VNP
p1735
sbag0
(g1
g2
(lp1736
g0
(g1
g2
(lp1737
V's
p1738
atp1739
Rp1740
(dp1741
g11
VVBZ
p1742
sbag0
(g1
g2
(lp1743
g0
(g1
g2
(lp1744
Vlooking
p1745
atp1746
Rp1747
(dp1748
g11
VVBG
p1749
sbag0
(g1
g2
(lp1750
g0
(g1
g2
(lp1751
Vat
p1752
atp1753
Rp1754
(dp1755
g11
VIN
p1756
sbag0
(g1
g2
(lp1757
g0
(g1
g2
(lp1758
Vthe
p1759
atp1760
Rp1761
(dp1762
g11
VDT
p1763
sbag0
(g1
g2
(lp1764
Vclown
p1765
atp1766
Rp1767
(dp1768
g11
VNN
p1769
sbatp1770
Rp1771
(dp1772
g11
VNP
p1773
sbatp1774
Rp1775
(dp1776
g11
VPP
p1777
sbatp1778
Rp1779
(dp1780
g11
VVP
p1781
sbatp1782
Rp1783
(dp1784
g11
VVP
p1785
sbatp1786
Rp1787
(dp1788
g11
VS
p1789
sbatp1790
Rp1791
(dp1792
g11
VSBAR
p1793
sbatp1794
Rp1795
(dp1796
g11
VVP
p1797
sbatp1798
Rp1799
(dp1800
g11
VS
p1801
sbatp1802
Rp1803
(dp1804
g11
VSBAR
p1805
sbatp1806
Rp1807
(dp1808
g11
VVP
p1809
sbag0
(g1
g2
(lp1810
V.
p1811
atp1812
Rp1813
(dp1814
g11
V.
p1815
sbatp1816
Rp1817
(dp1818
g11
VS
p1819
sbatp1820
Rp1821
(dp1822
g11
S'id: 9'
p1823
sbag0
(g1
g2
(lp1824
g0
(g1
g2
(lp1825
g0
(g1
g2
(lp1826
g0
(g1
g2
(lp1827
VThere
p1828
atp1829
Rp1830
(dp1831
g11
VEX
p1832
sbatp1833
Rp1834
(dp1835
g11
VNP
p1836
sbag0
(g1
g2
(lp1837
g0
(g1
g2
(lp1838
V's
p1839
atp1840
Rp1841
(dp1842
g11
VVBZ
p1843
sbag0
(g1
g2
(lp1844
g0
(g1
g2
(lp1845
g0
(g1
g2
(lp1846
Va
p1847
atp1848
Rp1849
(dp1850
g11
VDT
p1851
sbag0
(g1
g2
(lp1852
Vman
p1853
atp1854
Rp1855
(dp1856
g11
VNN
p1857
sbatp1858
Rp1859
(dp1860
g11
VNP
p1861
sbag0
(g1
g2
(lp1862
g0
(g1
g2
(lp1863
Vin
p1864
atp1865
Rp1866
(dp1867
g11
VIN
p1868
sbag0
(g1
g2
(lp1869
g0
(g1
g2
(lp1870
g0
(g1
g2
(lp1871
Vthe
p1872
atp1873
Rp1874
(dp1875
g11
VDT
p1876
sbag0
(g1
g2
(lp1877
Vbottom
p1878
atp1879
Rp1880
(dp1881
g11
VJJ
p1882
sbag0
(g1
g2
(lp1883
Vright
p1884
atp1885
Rp1886
(dp1887
g11
VJJ
p1888
sbag0
(g1
g2
(lp1889
Vhand
p1890
atp1891
Rp1892
(dp1893
g11
VNN
p1894
sbatp1895
Rp1896
(dp1897
g11
VNP
p1898
sbag0
(g1
g2
(lp1899
V,
p1900
atp1901
Rp1902
(dp1903
g11
V,
p1904
sbag0
(g1
g2
(lp1905
g0
(g1
g2
(lp1906
Vbottom
p1907
atp1908
Rp1909
(dp1910
g11
VJJ
p1911
sbag0
(g1
g2
(lp1912
Vleft
p1913
atp1914
Rp1915
(dp1916
g11
VJJ
p1917
sbag0
(g1
g2
(lp1918
Vhand
p1919
atp1920
Rp1921
(dp1922
g11
VNN
p1923
sbag0
(g1
g2
(lp1924
Vcorner
p1925
atp1926
Rp1927
(dp1928
g11
VNN
p1929
sbatp1930
Rp1931
(dp1932
g11
VNP
p1933
sbag0
(g1
g2
(lp1934
V,
p1935
atp1936
Rp1937
(dp1938
g11
V,
p1939
sbag0
(g1
g2
(lp1940
g0
(g1
g2
(lp1941
g0
(g1
g2
(lp1942
Vwho
p1943
atp1944
Rp1945
(dp1946
g11
VWP
p1947
sbatp1948
Rp1949
(dp1950
g11
VWHNP
p1951
sbag0
(g1
g2
(lp1952
g0
(g1
g2
(lp1953
g0
(g1
g2
(lp1954
V's
p1955
atp1956
Rp1957
(dp1958
g11
VVBZ
p1959
sbag0
(g1
g2
(lp1960
g0
(g1
g2
(lp1961
Vlooking
p1962
atp1963
Rp1964
(dp1965
g11
VVBG
p1966
sbag0
(g1
g2
(lp1967
g0
(g1
g2
(lp1968
Vat
p1969
atp1970
Rp1971
(dp1972
g11
VIN
p1973
sbag0
(g1
g2
(lp1974
g0
(g1
g2
(lp1975
g0
(g1
g2
(lp1976
Vthe
p1977
atp1978
Rp1979
(dp1980
g11
VDT
p1981
sbag0
(g1
g2
(lp1982
Vclown
p1983
atp1984
Rp1985
(dp1986
g11
VNN
p1987
sbatp1988
Rp1989
(dp1990
g11
VNP
p1991
sbag0
(g1
g2
(lp1992
V,
p1993
atp1994
Rp1995
(dp1996
g11
V,
p1997
sbag0
(g1
g2
(lp1998
g0
(g1
g2
(lp1999
g0
(g1
g2
(lp2000
Vwho
p2001
atp2002
Rp2003
(dp2004
g11
VWP
p2005
sbatp2006
Rp2007
(dp2008
g11
VWHNP
p2009
sbag0
(g1
g2
(lp2010
g0
(g1
g2
(lp2011
g0
(g1
g2
(lp2012
V's
p2013
atp2014
Rp2015
(dp2016
g11
VVBZ
p2017
sbag0
(g1
g2
(lp2018
g0
(g1
g2
(lp2019
Vin
p2020
atp2021
Rp2022
(dp2023
g11
VIN
p2024
sbag0
(g1
g2
(lp2025
g0
(g1
g2
(lp2026
g0
(g1
g2
(lp2027
Vthe
p2028
atp2029
Rp2030
(dp2031
g11
VDT
p2032
sbag0
(g1
g2
(lp2033
Vmiddle
p2034
atp2035
Rp2036
(dp2037
g11
VNN
p2038
sbatp2039
Rp2040
(dp2041
g11
VNP
p2042
sbag0
(g1
g2
(lp2043
g0
(g1
g2
(lp2044
Vof
p2045
atp2046
Rp2047
(dp2048
g11
VIN
p2049
sbag0
(g1
g2
(lp2050
g0
(g1
g2
(lp2051
Vthe
p2052
atp2053
Rp2054
(dp2055
g11
VDT
p2056
sbag0
(g1
g2
(lp2057
Vpicture
p2058
atp2059
Rp2060
(dp2061
g11
VNN
p2062
sbatp2063
Rp2064
(dp2065
g11
VNP
p2066
sbatp2067
Rp2068
(dp2069
g11
VPP
p2070
sbatp2071
Rp2072
(dp2073
g11
VNP
p2074
sbatp2075
Rp2076
(dp2077
g11
VPP
p2078
sbatp2079
Rp2080
(dp2081
g11
VVP
p2082
sbatp2083
Rp2084
(dp2085
g11
VS
p2086
sbatp2087
Rp2088
(dp2089
g11
VSBAR
p2090
sbatp2091
Rp2092
(dp2093
g11
VNP
p2094
sbatp2095
Rp2096
(dp2097
g11
VPP
p2098
sbatp2099
Rp2100
(dp2101
g11
VVP
p2102
sbatp2103
Rp2104
(dp2105
g11
VVP
p2106
sbatp2107
Rp2108
(dp2109
g11
VS
p2110
sbatp2111
Rp2112
(dp2113
g11
VSBAR
p2114
sbatp2115
Rp2116
(dp2117
g11
VNP
p2118
sbatp2119
Rp2120
(dp2121
g11
VPP
p2122
sbatp2123
Rp2124
(dp2125
g11
VNP
p2126
sbatp2127
Rp2128
(dp2129
g11
VVP
p2130
sbag0
(g1
g2
(lp2131
V.
p2132
atp2133
Rp2134
(dp2135
g11
V.
p2136
sbatp2137
Rp2138
(dp2139
g11
VS
p2140
sbatp2141
Rp2142
(dp2143
g11
S'id: 10'
p2144
sbag0
(g1
g2
(lp2145
g0
(g1
g2
(lp2146
g0
(g1
g2
(lp2147
g0
(g1
g2
(lp2148
VAnd
p2149
atp2150
Rp2151
(dp2152
g11
VCC
p2153
sbag0
(g1
g2
(lp2154
g0
(g1
g2
(lp2155
Vthen
p2156
atp2157
Rp2158
(dp2159
g11
VRB
p2160
sbatp2161
Rp2162
(dp2163
g11
VADVP
p2164
sbag0
(g1
g2
(lp2165
g0
(g1
g2
(lp2166
Vthe
p2167
atp2168
Rp2169
(dp2170
g11
VDT
p2171
sbag0
(g1
g2
(lp2172
Vman
p2173
atp2174
Rp2175
(dp2176
g11
VNN
p2177
sbatp2178
Rp2179
(dp2180
g11
VNP
p2181
sbag0
(g1
g2
(lp2182
g0
(g1
g2
(lp2183
Vhas
p2184
atp2185
Rp2186
(dp2187
g11
VVBZ
p2188
sbag0
(g1
g2
(lp2189
g0
(g1
g2
(lp2190
g0
(g1
g2
(lp2191
Va
p2192
atp2193
Rp2194
(dp2195
g11
VDT
p2196
sbag0
(g1
g2
(lp2197
Vlittle
p2198
atp2199
Rp2200
(dp2201
g11
VJJ
p2202
sbag0
(g1
g2
(lp2203
Vgirl
p2204
atp2205
Rp2206
(dp2207
g11
VNN
p2208
sbatp2209
Rp2210
(dp2211
g11
VNP
p2212
sbag0
(g1
g2
(lp2213
g0
(g1
g2
(lp2214
Vwith
p2215
atp2216
Rp2217
(dp2218
g11
VIN
p2219
sbag0
(g1
g2
(lp2220
g0
(g1
g2
(lp2221
Vhim
p2222
atp2223
Rp2224
(dp2225
g11
VPRP
p2226
sbatp2227
Rp2228
(dp2229
g11
VNP
p2230
sbatp2231
Rp2232
(dp2233
g11
VPP
p2234
sbag0
(g1
g2
(lp2235
V,
p2236
atp2237
Rp2238
(dp2239
g11
V,
p2240
sbag0
(g1
g2
(lp2241
g0
(g1
g2
(lp2242
g0
(g1
g2
(lp2243
Vwho
p2244
atp2245
Rp2246
(dp2247
g11
VWP
p2248
sbatp2249
Rp2250
(dp2251
g11
VWHNP
p2252
sbag0
(g1
g2
(lp2253
g0
(g1
g2
(lp2254
g0
(g1
g2
(lp2255
g0
(g1
g2
(lp2256
Vhas
p2257
atp2258
Rp2259
(dp2260
g11
VVBZ
p2261
sbag0
(g1
g2
(lp2262
g0
(g1
g2
(lp2263
Vbraided
p2264
atp2265
Rp2266
(dp2267
g11
VVBN
p2268
sbag0
(g1
g2
(lp2269
g0
(g1
g2
(lp2270
Vpigtails
p2271
atp2272
Rp2273
(dp2274
g11
VNNS
p2275
sbatp2276
Rp2277
(dp2278
g11
VNP
p2279
sbag0
(g1
g2
(lp2280
V,
p2281
atp2282
Rp2283
(dp2284
g11
V,
p2285
sbag0
(g1
g2
(lp2286
g0
(g1
g2
(lp2287
Vwith
p2288
atp2289
Rp2290
(dp2291
g11
VIN
p2292
sbag0
(g1
g2
(lp2293
g0
(g1
g2
(lp2294
g0
(g1
g2
(lp2295
Vbows
p2296
atp2297
Rp2298
(dp2299
g11
VNNS
p2300
sbatp2301
Rp2302
(dp2303
g11
VNP
p2304
sbag0
(g1
g2
(lp2305
g0
(g1
g2
(lp2306
Vat
p2307
atp2308
Rp2309
(dp2310
g11
VIN
p2311
sbag0
(g1
g2
(lp2312
g0
(g1
g2
(lp2313
Vthe
p2314
atp2315
Rp2316
(dp2317
g11
VDT
p2318
sbag0
(g1
g2
(lp2319
Vtop
p2320
atp2321
Rp2322
(dp2323
g11
VNN
p2324
sbatp2325
Rp2326
(dp2327
g11
VNP
p2328
sbatp2329
Rp2330
(dp2331
g11
VPP
p2332
sbatp2333
Rp2334
(dp2335
g11
VNP
p2336
sbatp2337
Rp2338
(dp2339
g11
VPP
p2340
sbatp2341
Rp2342
(dp2343
g11
VVP
p2344
sbatp2345
Rp2346
(dp2347
g11
VVP
p2348
sbag0
(g1
g2
(lp2349
V,
p2350
atp2351
Rp2352
(dp2353
g11
V,
p2354
sbag0
(g1
g2
(lp2355
Vand
p2356
atp2357
Rp2358
(dp2359
g11
VCC
p2360
sbag0
(g1
g2
(lp2361
g0
(g1
g2
(lp2362
Vbows
p2363
atp2364
Rp2365
(dp2366
g11
VVBZ
p2367
sbag0
(g1
g2
(lp2368
g0
(g1
g2
(lp2369
Vat
p2370
atp2371
Rp2372
(dp2373
g11
VIN
p2374
sbag0
(g1
g2
(lp2375
g0
(g1
g2
(lp2376
Vthe
p2377
atp2378
Rp2379
(dp2380
g11
VDT
p2381
sbag0
(g1
g2
(lp2382
Vbottom
p2383
atp2384
Rp2385
(dp2386
g11
VNN
p2387
sbatp2388
Rp2389
(dp2390
g11
VNP
p2391
sbatp2392
Rp2393
(dp2394
g11
VPP
p2395
sbatp2396
Rp2397
(dp2398
g11
VVP
p2399
sbatp2400
Rp2401
(dp2402
g11
VVP
p2403
sbatp2404
Rp2405
(dp2406
g11
VS
p2407
sbatp2408
Rp2409
(dp2410
g11
VSBAR
p2411
sbag0
(g1
g2
(lp2412
V,
p2413
atp2414
Rp2415
(dp2416
g11
V,
p2417
sbag0
(g1
g2
(lp2418
Vand
p2419
atp2420
Rp2421
(dp2422
g11
VCC
p2423
sbag0
(g1
g2
(lp2424
g0
(g1
g2
(lp2425
Vprobably
p2426
atp2427
Rp2428
(dp2429
g11
VRB
p2430
sbatp2431
Rp2432
(dp2433
g11
VADVP
p2434
sbag0
(g1
g2
(lp2435
g0
(g1
g2
(lp2436
g0
(g1
g2
(lp2437
Va
p2438
atp2439
Rp2440
(dp2441
g11
VDT
p2442
sbag0
(g1
g2
(lp2443
Vlittle
p2444
atp2445
Rp2446
(dp2447
g11
VJJ
p2448
sbag0
(g1
g2
(lp2449
Vpinafore
p2450
atp2451
Rp2452
(dp2453
g11
VNN
p2454
sbag0
(g1
g2
(lp2455
Vcause
p2456
atp2457
Rp2458
(dp2459
g11
VNN
p2460
sbatp2461
Rp2462
(dp2463
g11
VNP
p2464
sbag0
(g1
g2
(lp2465
g0
(g1
g2
(lp2466
g0
(g1
g2
(lp2467
g0
(g1
g2
(lp2468
Vshe
p2469
atp2470
Rp2471
(dp2472
g11
VPRP
p2473
sbatp2474
Rp2475
(dp2476
g11
VNP
p2477
sbag0
(g1
g2
(lp2478
g0
(g1
g2
(lp2479
V's
p2480
atp2481
Rp2482
(dp2483
g11
VVBZ
p2484
sbag0
(g1
g2
(lp2485
g0
(g1
g2
(lp2486
Vgot
p2487
atp2488
Rp2489
(dp2490
g11
VVBD
p2491
sbag0
(g1
g2
(lp2492
g0
(g1
g2
(lp2493
Va
p2494
atp2495
Rp2496
(dp2497
g11
VDT
p2498
sbag0
(g1
g2
(lp2499
Vt-shirt
p2500
atp2501
Rp2502
(dp2503
g11
VNN
p2504
sbatp2505
Rp2506
(dp2507
g11
VNP
p2508
sbag0
(g1
g2
(lp2509
g0
(g1
g2
(lp2510
Von
p2511
atp2512
Rp2513
(dp2514
g11
VIN
p2515
sbag0
(g1
g2
(lp2516
g0
(g1
g2
(lp2517
Vwith
p2518
atp2519
Rp2520
(dp2521
g11
VIN
p2522
sbag0
(g1
g2
(lp2523
g0
(g1
g2
(lp2524
Va
p2525
atp2526
Rp2527
(dp2528
g11
VDT
p2529
sbag0
(g1
g2
(lp2530
Vcollar
p2531
atp2532
Rp2533
(dp2534
g11
VNN
p2535
sbatp2536
Rp2537
(dp2538
g11
VNP
p2539
sbatp2540
Rp2541
(dp2542
g11
VPP
p2543
sbatp2544
Rp2545
(dp2546
g11
VPP
p2547
sbatp2548
Rp2549
(dp2550
g11
VVP
p2551
sbatp2552
Rp2553
(dp2554
g11
VVP
p2555
sbatp2556
Rp2557
(dp2558
g11
VS
p2559
sbatp2560
Rp2561
(dp2562
g11
VSBAR
p2563
sbatp2564
Rp2565
(dp2566
g11
VNP
p2567
sbatp2568
Rp2569
(dp2570
g11
VNP
p2571
sbatp2572
Rp2573
(dp2574
g11
VVP
p2575
sbatp2576
Rp2577
(dp2578
g11
VS
p2579
sbag0
(g1
g2
(lp2580
V,
p2581
atp2582
Rp2583
(dp2584
g11
V,
p2585
sbag0
(g1
g2
(lp2586
Vand
p2587
atp2588
Rp2589
(dp2590
g11
VCC
p2591
sbag0
(g1
g2
(lp2592
g0
(g1
g2
(lp2593
g0
(g1
g2
(lp2594
Vshe
p2595
atp2596
Rp2597
(dp2598
g11
VPRP
p2599
sbatp2600
Rp2601
(dp2602
g11
VNP
p2603
sbag0
(g1
g2
(lp2604
g0
(g1
g2
(lp2605
V's
p2606
atp2607
Rp2608
(dp2609
g11
VVBZ
p2610
sbag0
(g1
g2
(lp2611
g0
(g1
g2
(lp2612
Vgot
p2613
atp2614
Rp2615
(dp2616
g11
VVBN
p2617
sbag0
(g1
g2
(lp2618
g0
(g1
g2
(lp2619
Vstripes
p2620
atp2621
Rp2622
(dp2623
g11
VNNS
p2624
sbatp2625
Rp2626
(dp2627
g11
VNP
p2628
sbag0
(g1
g2
(lp2629
g0
(g1
g2
(lp2630
Vacross
p2631
atp2632
Rp2633
(dp2634
g11
VIN
p2635
sbag0
(g1
g2
(lp2636
g0
(g1
g2
(lp2637
Vthe
p2638
atp2639
Rp2640
(dp2641
g11
VDT
p2642
sbag0
(g1
g2
(lp2643
Vback
p2644
atp2645
Rp2646
(dp2647
g11
VNN
p2648
sbatp2649
Rp2650
(dp2651
g11
VNP
p2652
sbatp2653
Rp2654
(dp2655
g11
VPP
p2656
sbatp2657
Rp2658
(dp2659
g11
VVP
p2660
sbatp2661
Rp2662
(dp2663
g11
VVP
p2664
sbatp2665
Rp2666
(dp2667
g11
VS
p2668
sbag0
(g1
g2
(lp2669
V.
p2670
atp2671
Rp2672
(dp2673
g11
V.
p2674
sbatp2675
Rp2676
(dp2677
g11
VS
p2678
sbatp2679
Rp2680
(dp2681
g11
S'id: 11'
p2682
sbag0
(g1
g2
(lp2683
g0
(g1
g2
(lp2684
g0
(g1
g2
(lp2685
VAnd
p2686
atp2687
Rp2688
(dp2689
g11
VCC
p2690
sbag0
(g1
g2
(lp2691
g0
(g1
g2
(lp2692
Vshe
p2693
atp2694
Rp2695
(dp2696
g11
VPRP
p2697
sbatp2698
Rp2699
(dp2700
g11
VNP
p2701
sbag0
(g1
g2
(lp2702
g0
(g1
g2
(lp2703
V's
p2704
atp2705
Rp2706
(dp2707
g11
VVBZ
p2708
sbag0
(g1
g2
(lp2709
g0
(g1
g2
(lp2710
Vpointing
p2711
atp2712
Rp2713
(dp2714
g11
VVBG
p2715
sbag0
(g1
g2
(lp2716
g0
(g1
g2
(lp2717
Vat
p2718
atp2719
Rp2720
(dp2721
g11
VIN
p2722
sbag0
(g1
g2
(lp2723
g0
(g1
g2
(lp2724
Veither
p2725
atp2726
Rp2727
(dp2728
g11
VCC
p2729
sbag0
(g1
g2
(lp2730
g0
(g1
g2
(lp2731
Vthe
p2732
atp2733
Rp2734
(dp2735
g11
VDT
p2736
sbag0
(g1
g2
(lp2737
Vlion
p2738
atp2739
Rp2740
(dp2741
g11
VNN
p2742
sbatp2743
Rp2744
(dp2745
g11
VNP
p2746
sbag0
(g1
g2
(lp2747
Vor
p2748
atp2749
Rp2750
(dp2751
g11
VCC
p2752
sbag0
(g1
g2
(lp2753
g0
(g1
g2
(lp2754
Vthe
p2755
atp2756
Rp2757
(dp2758
g11
VDT
p2759
sbag0
(g1
g2
(lp2760
Vclown
p2761
atp2762
Rp2763
(dp2764
g11
VNN
p2765
sbatp2766
Rp2767
(dp2768
g11
VNP
p2769
sbatp2770
Rp2771
(dp2772
g11
VNP
p2773
sbatp2774
Rp2775
(dp2776
g11
VPP
p2777
sbatp2778
Rp2779
(dp2780
g11
VVP
p2781
sbatp2782
Rp2783
(dp2784
g11
VVP
p2785
sbag0
(g1
g2
(lp2786
V.
p2787
atp2788
Rp2789
(dp2790
g11
V.
p2791
sbatp2792
Rp2793
(dp2794
g11
VS
p2795
sbatp2796
Rp2797
(dp2798
g11
S'id: 12'
p2799
sbag0
(g1
g2
(lp2800
g0
(g1
g2
(lp2801
g0
(g1
g2
(lp2802
VAnd
p2803
atp2804
Rp2805
(dp2806
g11
VCC
p2807
sbag0
(g1
g2
(lp2808
g0
(g1
g2
(lp2809
g0
(g1
g2
(lp2810
Vthe
p2811
atp2812
Rp2813
(dp2814
g11
VDT
p2815
sbag0
(g1
g2
(lp2816
Vclown
p2817
atp2818
Rp2819
(dp2820
g11
VNN
p2821
sbatp2822
Rp2823
(dp2824
g11
VNP
p2825
sbag0
(g1
g2
(lp2826
V,
p2827
atp2828
Rp2829
(dp2830
g11
V,
p2831
sbag0
(g1
g2
(lp2832
g0
(g1
g2
(lp2833
g0
(g1
g2
(lp2834
Vthe
p2835
atp2836
Rp2837
(dp2838
g11
VDT
p2839
sbag0
(g1
g2
(lp2840
Vlion
p2841
atp2842
Rp2843
(dp2844
g11
VNN
p2845
sbag0
(g1
g2
(lp2846
V's
p2847
atp2848
Rp2849
(dp2850
g11
VPOS
p2851
sbatp2852
Rp2853
(dp2854
g11
VNP
p2855
sbag0
(g1
g2
(lp2856
g0
(g1
g2
(lp2857
Vin
p2858
atp2859
Rp2860
(dp2861
g11
VIN
p2862
sbag0
(g1
g2
(lp2863
g0
(g1
g2
(lp2864
g0
(g1
g2
(lp2865
Vfront
p2866
atp2867
Rp2868
(dp2869
g11
VNN
p2870
sbatp2871
Rp2872
(dp2873
g11
VNP
p2874
sbag0
(g1
g2
(lp2875
g0
(g1
g2
(lp2876
Vof
p2877
atp2878
Rp2879
(dp2880
g11
VIN
p2881
sbag0
(g1
g2
(lp2882
g0
(g1
g2
(lp2883
g0
(g1
g2
(lp2884
Vher
p2885
atp2886
Rp2887
(dp2888
g11
VPRP
p2889
sbatp2890
Rp2891
(dp2892
g11
VNP
p2893
sbag0
(g1
g2
(lp2894
V,
p2895
atp2896
Rp2897
(dp2898
g11
V,
p2899
sbag0
(g1
g2
(lp2900
g0
(g1
g2
(lp2901
Vthe
p2902
atp2903
Rp2904
(dp2905
g11
VDT
p2906
sbag0
(g1
g2
(lp2907
Vclown
p2908
atp2909
Rp2910
(dp2911
g11
VNN
p2912
sbatp2913
Rp2914
(dp2915
g11
VNP
p2916
sbatp2917
Rp2918
(dp2919
g11
VNP
p2920
sbatp2921
Rp2922
(dp2923
g11
VPP
p2924
sbatp2925
Rp2926
(dp2927
g11
VNP
p2928
sbatp2929
Rp2930
(dp2931
g11
VPP
p2932
sbatp2933
Rp2934
(dp2935
g11
VNP
p2936
sbatp2937
Rp2938
(dp2939
g11
VNP
p2940
sbag0
(g1
g2
(lp2941
g0
(g1
g2
(lp2942
Vis
p2943
atp2944
Rp2945
(dp2946
g11
VVBZ
p2947
sbag0
(g1
g2
(lp2948
g0
(g1
g2
(lp2949
Vto
p2950
atp2951
Rp2952
(dp2953
g11
VTO
p2954
sbag0
(g1
g2
(lp2955
g0
(g1
g2
(lp2956
g0
(g1
g2
(lp2957
Vher
p2958
atp2959
Rp2960
(dp2961
g11
VPRP$
p2962
sbag0
(g1
g2
(lp2963
Vright
p2964
atp2965
Rp2966
(dp2967
g11
VNN
p2968
sbatp2969
Rp2970
(dp2971
g11
VNP
p2972
sbag0
(g1
g2
(lp2973
g0
(g1
g2
(lp2974
Va
p2975
atp2976
Rp2977
(dp2978
g11
VDT
p2979
sbag0
(g1
g2
(lp2980
Vlittle
p2981
atp2982
Rp2983
(dp2984
g11
VJJ
p2985
sbag0
(g1
g2
(lp2986
Vbit
p2987
atp2988
Rp2989
(dp2990
g11
VNN
p2991
sbatp2992
Rp2993
(dp2994
g11
VNP
p2995
sbatp2996
Rp2997
(dp2998
g11
VNP
p2999
sbatp3000
Rp3001
(dp3002
g11
VPP
p3003
sbatp3004
Rp3005
(dp3006
g11
VVP
p3007
sbag0
(g1
g2
(lp3008
V.
p3009
atp3010
Rp3011
(dp3012
g11
V.
p3013
sbatp3014
Rp3015
(dp3016
g11
VS
p3017
sbatp3018
Rp3019
(dp3020
g11
S'id: 13'
p3021
sbag0
(g1
g2
(lp3022
g0
(g1
g2
(lp3023
g0
(g1
g2
(lp3024
g0
(g1
g2
(lp3025
VThe
p3026
atp3027
Rp3028
(dp3029
g11
VDT
p3030
sbag0
(g1
g2
(lp3031
Vclown
p3032
atp3033
Rp3034
(dp3035
g11
VNN
p3036
sbatp3037
Rp3038
(dp3039
g11
VNP
p3040
sbag0
(g1
g2
(lp3041
g0
(g1
g2
(lp3042
Vhas
p3043
atp3044
Rp3045
(dp3046
g11
VVBZ
p3047
sbag0
(g1
g2
(lp3048
g0
(g1
g2
(lp3049
Von
p3050
atp3051
Rp3052
(dp3053
g11
VIN
p3054
sbag0
(g1
g2
(lp3055
g0
(g1
g2
(lp3056
g0
(g1
g2
(lp3057
Vstriped
p3058
atp3059
Rp3060
(dp3061
g11
VJJ
p3062
sbag0
(g1
g2
(lp3063
Vpants
p3064
atp3065
Rp3066
(dp3067
g11
VNNS
p3068
sbatp3069
Rp3070
(dp3071
g11
VNP
p3072
sbag0
(g1
g2
(lp3073
V,
p3074
atp3075
Rp3076
(dp3077
g11
V,
p3078
sbag0
(g1
g2
(lp3079
g0
(g1
g2
(lp3080
Vsuspender
p3081
atp3082
Rp3083
(dp3084
g11
VJJ
p3085
sbag0
(g1
g2
(lp3086
Vpants
p3087
atp3088
Rp3089
(dp3090
g11
VNNS
p3091
sbatp3092
Rp3093
(dp3094
g11
VNP
p3095
sbag0
(g1
g2
(lp3096
V,
p3097
atp3098
Rp3099
(dp3100
g11
V,
p3101
sbag0
(g1
g2
(lp3102
g0
(g1
g2
(lp3103
Vblack
p3104
atp3105
Rp3106
(dp3107
g11
VJJ
p3108
sbag0
(g1
g2
(lp3109
Vand
p3110
atp3111
Rp3112
(dp3113
g11
VCC
p3114
sbag0
(g1
g2
(lp3115
Vwhite
p3116
atp3117
Rp3118
(dp3119
g11
VJJ
p3120
sbatp3121
Rp3122
(dp3123
g11
VADJP
p3124
sbag0
(g1
g2
(lp3125
V,
p3126
atp3127
Rp3128
(dp3129
g11
V,
p3130
sbatp3131
Rp3132
(dp3133
g11
VNP
p3134
sbatp3135
Rp3136
(dp3137
g11
VPP
p3138
sbag0
(g1
g2
(lp3139
g0
(g1
g2
(lp3140
g0
(g1
g2
(lp3141
Vwide
p3142
atp3143
Rp3144
(dp3145
g11
VJJ
p3146
sbag0
(g1
g2
(lp3147
Vwhite
p3148
atp3149
Rp3150
(dp3151
g11
VJJ
p3152
sbag0
(g1
g2
(lp3153
Vstripes
p3154
atp3155
Rp3156
(dp3157
g11
VNNS
p3158
sbatp3159
Rp3160
(dp3161
g11
VNP
p3162
sbag0
(g1
g2
(lp3163
g0
(g1
g2
(lp3164
Vthen
p3165
atp3166
Rp3167
(dp3168
g11
VRB
p3169
sbag0
(g1
g2
(lp3170
Vblack
p3171
atp3172
Rp3173
(dp3174
g11
VJJ
p3175
sbatp3176
Rp3177
(dp3178
g11
VADJP
p3179
sbag0
(g1
g2
(lp3180
V,
p3181
atp3182
Rp3183
(dp3184
g11
V,
p3185
sbag0
(g1
g2
(lp3186
Vand
p3187
atp3188
Rp3189
(dp3190
g11
VCC
p3191
sbag0
(g1
g2
(lp3192
g0
(g1
g2
(lp3193
Va
p3194
atp3195
Rp3196
(dp3197
g11
VDT
p3198
sbag0
(g1
g2
(lp3199
Vflowered
p3200
atp3201
Rp3202
(dp3203
g11
VJJ
p3204
sbag0
(g1
g2
(lp3205
Vtie
p3206
atp3207
Rp3208
(dp3209
g11
VNN
p3210
sbatp3211
Rp3212
(dp3213
g11
VNP
p3214
sbatp3215
Rp3216
(dp3217
g11
VNP
p3218
sbatp3219
Rp3220
(dp3221
g11
VVP
p3222
sbag0
(g1
g2
(lp3223
V.
p3224
atp3225
Rp3226
(dp3227
g11
V.
p3228
sbatp3229
Rp3230
(dp3231
g11
VS
p3232
sbatp3233
Rp3234
(dp3235
g11
S'id: 14'
p3236
sbatp3237
Rp3238
(dp3239
g11
S'sentences'
p3240
sb.