ccopy_reg
_reconstructor
p0
(cnltk.tree
Tree
p1
c__builtin__
list
p2
(lp3
g0
(g1
g2
(lp4
g0
(g1
g2
(lp5
g0
(g1
g2
(lp6
(lp7
S'word: I, index: 1'
p8
aatp9
Rp10
(dp11
S'_label'
p12
Vnsubj
p13
sbag0
(g1
g2
(lp14
(lp15
S'word: that, index: 3'
p16
aatp17
Rp18
(dp19
g12
Vadvmod
p20
sbatp21
Rp22
(dp23
g12
S'word: know, index: 2'
p24
sbatp25
Rp26
(dp27
g12
S'id: 0'
p28
sbag0
(g1
g2
(lp29
g0
(g1
g2
(lp30
g0
(g1
g2
(lp31
(lp32
S'word: Out, index: 1'
p33
aatp34
Rp35
(dp36
g12
Vprep
p37
sbatp38
Rp39
(dp40
g12
S'word: leg, index: 3'
p41
sbatp42
Rp43
(dp44
g12
S'id: 1'
p45
sbag0
(g1
g2
(lp46
tp47
Rp48
(dp49
g12
S'id: 2'
p50
sbag0
(g1
g2
(lp51
tp52
Rp53
(dp54
g12
S'id: 3'
p55
sbag0
(g1
g2
(lp56
tp57
Rp58
(dp59
g12
S'id: 4'
p60
sbag0
(g1
g2
(lp61
tp62
Rp63
(dp64
g12
S'id: 5'
p65
sbag0
(g1
g2
(lp66
tp67
Rp68
(dp69
g12
S'id: 6'
p70
sbag0
(g1
g2
(lp71
g0
(g1
g2
(lp72
g0
(g1
g2
(lp73
(lp74
S'word: water, index: 2'
p75
aatp76
Rp77
(dp78
g12
Vpobj
p79
sbatp80
Rp81
(dp82
g12
S'word: and, index: 1'
p83
sbatp84
Rp85
(dp86
g12
S'id: 7'
p87
sbag0
(g1
g2
(lp88
g0
(g1
g2
(lp89
g0
(g1
g2
(lp90
g0
(g1
g2
(lp91
g0
(g1
g2
(lp92
(lp93
S'word: the, index: 2'
p94
aatp95
Rp96
(dp97
g12
Vdet
p98
sbatp99
Rp100
(dp101
g12
S'word: dog, index: 3'
p102
sbatp103
Rp104
(dp105
g12
Vpobj
p106
sbatp107
Rp108
(dp109
g12
S'word: With, index: 1'
p110
sbatp111
Rp112
(dp113
g12
S'id: 8'
p114
sbag0
(g1
g2
(lp115
tp116
Rp117
(dp118
g12
S'id: 9'
p119
sbag0
(g1
g2
(lp120
tp121
Rp122
(dp123
g12
S'id: 10'
p124
sbatp125
Rp126
(dp127
g12
S'sentences'
p128
sb.