ccopy_reg
_reconstructor
p0
(cnltk.tree
Tree
p1
c__builtin__
list
p2
(lp3
g0
(g1
g2
(lp4
g0
(g1
g2
(lp5
g0
(g1
g2
(lp6
g0
(g1
g2
(lp7
Vthat
p8
atp9
Rp10
(dp11
S'_label'
p12
VDT
p13
sbatp14
Rp15
(dp16
g12
VNP
p17
sbag0
(g1
g2
(lp18
g0
(g1
g2
(lp19
V's
p20
atp21
Rp22
(dp23
g12
VVBZ
p24
sbag0
(g1
g2
(lp25
g0
(g1
g2
(lp26
g0
(g1
g2
(lp27
Vthe
p28
atp29
Rp30
(dp31
g12
VDT
p32
sbag0
(g1
g2
(lp33
Vmom
p34
atp35
Rp36
(dp37
g12
VNN
p38
sbatp39
Rp40
(dp41
g12
VNP
p42
sbag0
(g1
g2
(lp43
V,
p44
atp45
Rp46
(dp47
g12
V,
p48
sbag0
(g1
g2
(lp49
g0
(g1
g2
(lp50
Vthe
p51
atp52
Rp53
(dp54
g12
VDT
p55
sbatp56
Rp57
(dp58
g12
VNP
p59
sbag0
(g1
g2
(lp60
V,
p61
atp62
Rp63
(dp64
g12
V,
p65
sbag0
(g1
g2
(lp66
g0
(g1
g2
(lp67
Vthe
p68
atp69
Rp70
(dp71
g12
VDT
p72
sbag0
(g1
g2
(lp73
Vson
p74
atp75
Rp76
(dp77
g12
VNN
p78
sbatp79
Rp80
(dp81
g12
VNP
p82
sbag0
(g1
g2
(lp83
V,
p84
atp85
Rp86
(dp87
g12
V,
p88
sbag0
(g1
g2
(lp89
Vand
p90
atp91
Rp92
(dp93
g12
VCC
p94
sbag0
(g1
g2
(lp95
g0
(g1
g2
(lp96
g0
(g1
g2
(lp97
Vthe
p98
atp99
Rp100
(dp101
g12
VDT
p102
sbatp103
Rp104
(dp105
g12
VNP
p106
sbag0
(g1
g2
(lp107
V,
p108
atp109
Rp110
(dp111
g12
V,
p112
sbag0
(g1
g2
(lp113
g0
(g1
g2
(lp114
Vthe
p115
atp116
Rp117
(dp118
g12
VDT
p119
sbag0
(g1
g2
(lp120
Vgirl
p121
atp122
Rp123
(dp124
g12
VNN
p125
sbatp126
Rp127
(dp128
g12
VNP
p129
sbatp130
Rp131
(dp132
g12
VNP
p133
sbatp134
Rp135
(dp136
g12
VNP
p137
sbatp138
Rp139
(dp140
g12
VVP
p141
sbag0
(g1
g2
(lp142
V.
p143
atp144
Rp145
(dp146
g12
V.
p147
sbatp148
Rp149
(dp150
g12
VS
p151
sbatp152
Rp153
(dp154
g12
S'id: 0'
p155
sbag0
(g1
g2
(lp156
g0
(g1
g2
(lp157
g0
(g1
g2
(lp158
g0
(g1
g2
(lp159
VThere
p160
atp161
Rp162
(dp163
g12
VEX
p164
sbatp165
Rp166
(dp167
g12
VNP
p168
sbag0
(g1
g2
(lp169
g0
(g1
g2
(lp170
g0
(g1
g2
(lp171
g0
(g1
g2
(lp172
Vthe
p173
atp174
Rp175
(dp176
g12
VDT
p177
sbag0
(g1
g2
(lp178
Vcookie
p179
atp180
Rp181
(dp182
g12
VNN
p183
sbatp184
Rp185
(dp186
g12
VNP
p187
sbag0
(g1
g2
(lp188
V,
p189
atp190
Rp191
(dp192
g12
V,
p193
sbag0
(g1
g2
(lp194
g0
(g1
g2
(lp195
g0
(g1
g2
(lp196
Vthere
p197
atp198
Rp199
(dp200
g12
VEX
p201
sbatp202
Rp203
(dp204
g12
VNP
p205
sbag0
(g1
g2
(lp206
g0
(g1
g2
(lp207
Vthe
p208
atp209
Rp210
(dp211
g12
VDT
p212
sbag0
(g1
g2
(lp213
Vwater
p214
atp215
Rp216
(dp217
g12
VNN
p218
sbatp219
Rp220
(dp221
g12
VNP
p222
sbatp223
Rp224
(dp225
g12
VNP
p226
sbag0
(g1
g2
(lp227
V,
p228
atp229
Rp230
(dp231
g12
V,
p232
sbag0
(g1
g2
(lp233
g0
(g1
g2
(lp234
g0
(g1
g2
(lp235
g0
(g1
g2
(lp236
Vthey
p237
atp238
Rp239
(dp240
g12
VPRP
p241
sbatp242
Rp243
(dp244
g12
VNP
p245
sbag0
(g1
g2
(lp246
g0
(g1
g2
(lp247
V're
p248
atp249
Rp250
(dp251
g12
VVBP
p252
sbag0
(g1
g2
(lp253
g0
(g1
g2
(lp254
Vthrowing
p255
atp256
Rp257
(dp258
g12
VVBG
p259
sbag0
(g1
g2
(lp260
g0
(g1
g2
(lp261
Vit
p262
atp263
Rp264
(dp265
g12
VPRP
p266
sbatp267
Rp268
(dp269
g12
VNP
p270
sbatp271
Rp272
(dp273
g12
VVP
p274
sbatp275
Rp276
(dp277
g12
VVP
p278
sbatp279
Rp280
(dp281
g12
VS
p282
sbatp283
Rp284
(dp285
g12
VSBAR
p286
sbatp287
Rp288
(dp289
g12
VNP
p290
sbag0
(g1
g2
(lp291
g0
(g1
g2
(lp292
g0
(g1
g2
(lp293
Vout
p294
atp295
Rp296
(dp297
g12
VRP
p298
sbatp299
Rp300
(dp301
g12
VADVP
p302
sbag0
(g1
g2
(lp303
g0
(g1
g2
(lp304
Vnow
p305
atp306
Rp307
(dp308
g12
VRB
p309
sbatp310
Rp311
(dp312
g12
VADVP
p313
sbatp314
Rp315
(dp316
g12
VPRN
p317
sbatp318
Rp319
(dp320
g12
VVP
p321
sbag0
(g1
g2
(lp322
V.
p323
atp324
Rp325
(dp326
g12
V.
p327
sbatp328
Rp329
(dp330
g12
VS
p331
sbatp332
Rp333
(dp334
g12
S'id: 1'
p335
sbag0
(g1
g2
(lp336
g0
(g1
g2
(lp337
g0
(g1
g2
(lp338
g0
(g1
g2
(lp339
VShe
p340
atp341
Rp342
(dp343
g12
VPRP
p344
sbatp345
Rp346
(dp347
g12
VNP
p348
sbag0
(g1
g2
(lp349
g0
(g1
g2
(lp350
g0
(g1
g2
(lp351
Vin
p352
atp353
Rp354
(dp355
g12
VIN
p356
sbag0
(g1
g2
(lp357
g0
(g1
g2
(lp358
Vthere
p359
atp360
Rp361
(dp362
g12
VEX
p363
sbatp364
Rp365
(dp366
g12
VNP
p367
sbag0
(g1
g2
(lp368
g0
(g1
g2
(lp369
g0
(g1
g2
(lp370
Vwasher
p371
atp372
Rp373
(dp374
g12
VNN
p375
sbag0
(g1
g2
(lp376
V's
p377
atp378
Rp379
(dp380
g12
VPOS
p381
sbatp382
Rp383
(dp384
g12
VNP
p385
sbag0
(g1
g2
(lp386
Vwaste
p387
atp388
Rp389
(dp390
g12
VNN
p391
sbag0
(g1
g2
(lp392
Vp-a-p-e
p393
atp394
Rp395
(dp396
g12
VNN
p397
sbag0
(g1
g2
(lp398
Vpaple
p399
atp400
Rp401
(dp402
g12
VNN
p403
sbatp404
Rp405
(dp406
g12
VNP
p407
sbatp408
Rp409
(dp410
g12
VPP
p411
sbatp412
Rp413
(dp414
g12
VVP
p415
sbag0
(g1
g2
(lp416
V.
p417
atp418
Rp419
(dp420
g12
V.
p421
sbatp422
Rp423
(dp424
g12
VS
p425
sbatp426
Rp427
(dp428
g12
S'id: 2'
p429
sbag0
(g1
g2
(lp430
g0
(g1
g2
(lp431
g0
(g1
g2
(lp432
g0
(g1
g2
(lp433
VThere
p434
atp435
Rp436
(dp437
g12
VEX
p438
sbatp439
Rp440
(dp441
g12
VNP
p442
sbag0
(g1
g2
(lp443
g0
(g1
g2
(lp444
g0
(g1
g2
(lp445
Vout
p446
atp447
Rp448
(dp449
g12
VRP
p450
sbag0
(g1
g2
(lp451
g0
(g1
g2
(lp452
Vin
p453
atp454
Rp455
(dp456
g12
VIN
p457
sbag0
(g1
g2
(lp458
g0
(g1
g2
(lp459
Vthe
p460
atp461
Rp462
(dp463
g12
VDT
p464
sbag0
(g1
g2
(lp465
Vhouse
p466
atp467
Rp468
(dp469
g12
VNN
p470
sbatp471
Rp472
(dp473
g12
VNP
p474
sbatp475
Rp476
(dp477
g12
VPP
p478
sbatp479
Rp480
(dp481
g12
VADVP
p482
sbatp483
Rp484
(dp485
g12
VVP
p486
sbag0
(g1
g2
(lp487
V.
p488
atp489
Rp490
(dp491
g12
V.
p492
sbatp493
Rp494
(dp495
g12
VS
p496
sbatp497
Rp498
(dp499
g12
S'id: 3'
p500
sbag0
(g1
g2
(lp501
g0
(g1
g2
(lp502
g0
(g1
g2
(lp503
VAnd
p504
atp505
Rp506
(dp507
g12
VCC
p508
sbag0
(g1
g2
(lp509
g0
(g1
g2
(lp510
g0
(g1
g2
(lp511
Vnow
p512
atp513
Rp514
(dp515
g12
VRB
p516
sbatp517
Rp518
(dp519
g12
VNP
p520
sbag0
(g1
g2
(lp521
g0
(g1
g2
(lp522
g0
(g1
g2
(lp523
Vthe
p524
atp525
Rp526
(dp527
g12
VDT
p528
sbag0
(g1
g2
(lp529
Vwater
p530
atp531
Rp532
(dp533
g12
VNN
p534
sbatp535
Rp536
(dp537
g12
VNP
p538
sbag0
(g1
g2
(lp539
Vdownstairs
p540
atp541
Rp542
(dp543
g12
VNNS
p544
sbatp545
Rp546
(dp547
g12
VNP
p548
sbatp549
Rp550
(dp551
g12
VNP
p552
sbag0
(g1
g2
(lp553
V.
p554
atp555
Rp556
(dp557
g12
V.
p558
sbatp559
Rp560
(dp561
g12
VFRAG
p562
sbatp563
Rp564
(dp565
g12
S'id: 4'
p566
sbag0
(g1
g2
(lp567
g0
(g1
g2
(lp568
g0
(g1
g2
(lp569
g0
(g1
g2
(lp570
VUp
p571
atp572
Rp573
(dp574
g12
VIN
p575
sbag0
(g1
g2
(lp576
g0
(g1
g2
(lp577
Vhere
p578
atp579
Rp580
(dp581
g12
VRB
p582
sbatp583
Rp584
(dp585
g12
VNP
p586
sbatp587
Rp588
(dp589
g12
VPP
p590
sbag0
(g1
g2
(lp591
V,
p592
atp593
Rp594
(dp595
g12
V,
p596
sbag0
(g1
g2
(lp597
g0
(g1
g2
(lp598
Vthere
p599
atp600
Rp601
(dp602
g12
VEX
p603
sbatp604
Rp605
(dp606
g12
VNP
p607
sbag0
(g1
g2
(lp608
g0
(g1
g2
(lp609
V's
p610
atp611
Rp612
(dp613
g12
VVBZ
p614
sbag0
(g1
g2
(lp615
g0
(g1
g2
(lp616
Vthe
p617
atp618
Rp619
(dp620
g12
VDT
p621
sbag0
(g1
g2
(lp622
Vson
p623
atp624
Rp625
(dp626
g12
VNN
p627
sbatp628
Rp629
(dp630
g12
VNP
p631
sbatp632
Rp633
(dp634
g12
VVP
p635
sbag0
(g1
g2
(lp636
V.
p637
atp638
Rp639
(dp640
g12
V.
p641
sbatp642
Rp643
(dp644
g12
VS
p645
sbatp646
Rp647
(dp648
g12
S'id: 5'
p649
sbag0
(g1
g2
(lp650
g0
(g1
g2
(lp651
g0
(g1
g2
(lp652
g0
(g1
g2
(lp653
VHe
p654
atp655
Rp656
(dp657
g12
VPRP
p658
sbatp659
Rp660
(dp661
g12
VNP
p662
sbag0
(g1
g2
(lp663
g0
(g1
g2
(lp664
Vnow
p665
atp666
Rp667
(dp668
g12
VRB
p669
sbag0
(g1
g2
(lp670
g0
(g1
g2
(lp671
g0
(g1
g2
(lp672
Vhe
p673
atp674
Rp675
(dp676
g12
VPRP
p677
sbatp678
Rp679
(dp680
g12
VNP
p681
sbag0
(g1
g2
(lp682
g0
(g1
g2
(lp683
V's
p684
atp685
Rp686
(dp687
g12
VVBZ
p688
sbag0
(g1
g2
(lp689
g0
(g1
g2
(lp690
Vpushing
p691
atp692
Rp693
(dp694
g12
VVBG
p695
sbag0
(g1
g2
(lp696
g0
(g1
g2
(lp697
Vdown
p698
atp699
Rp700
(dp701
g12
VRP
p702
sbatp703
Rp704
(dp705
g12
VPRT
p706
sbatp707
Rp708
(dp709
g12
VVP
p710
sbatp711
Rp712
(dp713
g12
VVP
p714
sbatp715
Rp716
(dp717
g12
VS
p718
sbatp719
Rp720
(dp721
g12
VSBAR
p722
sbag0
(g1
g2
(lp723
g0
(g1
g2
(lp724
Vis
p725
atp726
Rp727
(dp728
g12
VVBZ
p729
sbag0
(g1
g2
(lp730
g0
(g1
g2
(lp731
Vright
p732
atp733
Rp734
(dp735
g12
VRB
p736
sbag0
(g1
g2
(lp737
Vthere
p738
atp739
Rp740
(dp741
g12
VRB
p742
sbatp743
Rp744
(dp745
g12
VADVP
p746
sbag0
(g1
g2
(lp747
g0
(g1
g2
(lp748
g0
(g1
g2
(lp749
Vchurch
p750
atp751
Rp752
(dp753
g12
VNN
p754
sbatp755
Rp756
(dp757
g12
VNP
p758
sbag0
(g1
g2
(lp759
V,
p760
atp761
Rp762
(dp763
g12
V,
p764
sbag0
(g1
g2
(lp765
Vnot
p766
atp767
Rp768
(dp769
g12
VRB
p770
sbag0
(g1
g2
(lp771
g0
(g1
g2
(lp772
Va
p773
atp774
Rp775
(dp776
g12
VDT
p777
sbag0
(g1
g2
(lp778
Vchurch
p779
atp780
Rp781
(dp782
g12
VNN
p783
sbatp784
Rp785
(dp786
g12
VNP
p787
sbatp788
Rp789
(dp790
g12
VNP
p791
sbag0
(g1
g2
(lp792
V,
p793
atp794
Rp795
(dp796
g12
V,
p797
sbag0
(g1
g2
(lp798
g0
(g1
g2
(lp799
g0
(g1
g2
(lp800
g0
(g1
g2
(lp801
g0
(g1
g2
(lp802
g0
(g1
g2
(lp803
Vit
p804
atp805
Rp806
(dp807
g12
VPRP
p808
sbatp809
Rp810
(dp811
g12
VNP
p812
sbag0
(g1
g2
(lp813
g0
(g1
g2
(lp814
V's
p815
atp816
Rp817
(dp818
g12
VVBZ
p819
sbag0
(g1
g2
(lp820
g0
(g1
g2
(lp821
g0
(g1
g2
(lp822
Va
p823
atp824
Rp825
(dp826
g12
VDT
p827
sbag0
(g1
g2
(lp828
Vs
p829
atp830
Rp831
(dp832
g12
VNNS
p833
sbag0
(g1
g2
(lp834
Vt
p835
atp836
Rp837
(dp838
g12
VNN
p839
sbatp840
Rp841
(dp842
g12
VNP
p843
sbag0
(g1
g2
(lp844
g0
(g1
g2
(lp845
Vo
p846
atp847
Rp848
(dp849
g12
VNN
p850
sbag0
(g1
g2
(lp851
Vo
p852
atp853
Rp854
(dp855
g12
VNN
p856
sbag0
(g1
g2
(lp857
Vstool
p858
atp859
Rp860
(dp861
g12
VNN
p862
sbatp863
Rp864
(dp865
g12
VNP
p866
sbatp867
Rp868
(dp869
g12
VNP
p870
sbatp871
Rp872
(dp873
g12
VVP
p874
sbatp875
Rp876
(dp877
g12
VS
p878
sbag0
(g1
g2
(lp879
V,
p880
atp881
Rp882
(dp883
g12
V,
p884
sbag0
(g1
g2
(lp885
Vand
p886
atp887
Rp888
(dp889
g12
VCC
p890
sbag0
(g1
g2
(lp891
g0
(g1
g2
(lp892
g0
(g1
g2
(lp893
Vshe
p894
atp895
Rp896
(dp897
g12
VPRP
p898
sbatp899
Rp900
(dp901
g12
VNP
p902
sbag0
(g1
g2
(lp903
g0
(g1
g2
(lp904
Vsay
p905
atp906
Rp907
(dp908
g12
VVBP
p909
sbag0
(g1
g2
(lp910
g0
(g1
g2
(lp911
Vha
p912
atp913
Rp914
(dp915
g12
VNN
p916
sbag0
(g1
g2
(lp917
Vha
p918
atp919
Rp920
(dp921
g12
VNN
p922
sbatp923
Rp924
(dp925
g12
VNP
p926
sbatp927
Rp928
(dp929
g12
VVP
p930
sbatp931
Rp932
(dp933
g12
VS
p934
sbatp935
Rp936
(dp937
g12
VS
p938
sbag0
(g1
g2
(lp939
Vand
p940
atp941
Rp942
(dp943
g12
VCC
p944
sbag0
(g1
g2
(lp945
g0
(g1
g2
(lp946
g0
(g1
g2
(lp947
Vshe
p948
atp949
Rp950
(dp951
g12
VPRP
p952
sbatp953
Rp954
(dp955
g12
VNP
p956
sbag0
(g1
g2
(lp957
g0
(g1
g2
(lp958
g0
(g1
g2
(lp959
Vup
p960
atp961
Rp962
(dp963
g12
VRB
p964
sbag0
(g1
g2
(lp965
Vthere
p966
atp967
Rp968
(dp969
g12
VRB
p970
sbatp971
Rp972
(dp973
g12
VADVP
p974
sbag0
(g1
g2
(lp975
g0
(g1
g2
(lp976
Vwith
p977
atp978
Rp979
(dp980
g12
VIN
p981
sbag0
(g1
g2
(lp982
g0
(g1
g2
(lp983
Vher
p984
atp985
Rp986
(dp987
g12
VPRP$
p988
sbag0
(g1
g2
(lp989
Vhand
p990
atp991
Rp992
(dp993
g12
VNN
p994
sbatp995
Rp996
(dp997
g12
VNP
p998
sbatp999
Rp1000
(dp1001
g12
VPP
p1002
sbatp1003
Rp1004
(dp1005
g12
VADJP
p1006
sbatp1007
Rp1008
(dp1009
g12
VS
p1010
sbatp1011
Rp1012
(dp1013
g12
VS
p1014
sbatp1015
Rp1016
(dp1017
g12
VSBAR
p1018
sbatp1019
Rp1020
(dp1021
g12
VVP
p1022
sbag0
(g1
g2
(lp1023
V.
p1024
atp1025
Rp1026
(dp1027
g12
V.
p1028
sbatp1029
Rp1030
(dp1031
g12
VS
p1032
sbatp1033
Rp1034
(dp1035
g12
S'id: 6'
p1036
sbag0
(g1
g2
(lp1037
g0
(g1
g2
(lp1038
g0
(g1
g2
(lp1039
VAnd
p1040
atp1041
Rp1042
(dp1043
g12
VCC
p1044
sbag0
(g1
g2
(lp1045
g0
(g1
g2
(lp1046
Vthey
p1047
atp1048
Rp1049
(dp1050
g12
VPRP
p1051
sbatp1052
Rp1053
(dp1054
g12
VNP
p1055
sbag0
(g1
g2
(lp1056
g0
(g1
g2
(lp1057
Vcant
p1058
atp1059
Rp1060
(dp1061
g12
VVBP
p1062
sbag0
(g1
g2
(lp1063
g0
(g1
g2
(lp1064
g0
(g1
g2
(lp1065
Vsee
p1066
atp1067
Rp1068
(dp1069
g12
VVB
p1070
sbag0
(g1
g2
(lp1071
g0
(g1
g2
(lp1072
g0
(g1
g2
(lp1073
Vwhatever
p1074
atp1075
Rp1076
(dp1077
g12
VWDT
p1078
sbatp1079
Rp1080
(dp1081
g12
VNP
p1082
sbag0
(g1
g2
(lp1083
g0
(g1
g2
(lp1084
Vshe
p1085
atp1086
Rp1087
(dp1088
g12
VPRP
p1089
sbatp1090
Rp1091
(dp1092
g12
VNP
p1093
sbatp1094
Rp1095
(dp1096
g12
VS
p1097
sbatp1098
Rp1099
(dp1100
g12
VVP
p1101
sbatp1102
Rp1103
(dp1104
g12
VS
p1105
sbatp1106
Rp1107
(dp1108
g12
VVP
p1109
sbag0
(g1
g2
(lp1110
V.
p1111
atp1112
Rp1113
(dp1114
g12
V.
p1115
sbatp1116
Rp1117
(dp1118
g12
VS
p1119
sbatp1120
Rp1121
(dp1122
g12
S'id: 7'
p1123
sbag0
(g1
g2
(lp1124
g0
(g1
g2
(lp1125
g0
(g1
g2
(lp1126
g0
(g1
g2
(lp1127
VSo
p1128
atp1129
Rp1130
(dp1131
g12
VRB
p1132
sbatp1133
Rp1134
(dp1135
g12
VADVP
p1136
sbag0
(g1
g2
(lp1137
V,
p1138
atp1139
Rp1140
(dp1141
g12
V,
p1142
sbag0
(g1
g2
(lp1143
Vand
p1144
atp1145
Rp1146
(dp1147
g12
VCC
p1148
sbag0
(g1
g2
(lp1149
g0
(g1
g2
(lp1150
Vso
p1151
atp1152
Rp1153
(dp1154
g12
VRB
p1155
sbatp1156
Rp1157
(dp1158
g12
VADVP
p1159
sbag0
(g1
g2
(lp1160
V,
p1161
atp1162
Rp1163
(dp1164
g12
V,
p1165
sbag0
(g1
g2
(lp1166
g0
(g1
g2
(lp1167
Vnow
p1168
atp1169
Rp1170
(dp1171
g12
VRB
p1172
sbatp1173
Rp1174
(dp1175
g12
VADVP
p1176
sbag0
(g1
g2
(lp1177
g0
(g1
g2
(lp1178
Vthey
p1179
atp1180
Rp1181
(dp1182
g12
VPRP
p1183
sbatp1184
Rp1185
(dp1186
g12
VNP
p1187
sbag0
(g1
g2
(lp1188
g0
(g1
g2
(lp1189
V're
p1190
atp1191
Rp1192
(dp1193
g12
VVBP
p1194
sbag0
(g1
g2
(lp1195
g0
(g1
g2
(lp1196
g0
(g1
g2
(lp1197
Vtaking
p1198
atp1199
Rp1200
(dp1201
g12
VVBG
p1202
sbag0
(g1
g2
(lp1203
g0
(g1
g2
(lp1204
Vtheir
p1205
atp1206
Rp1207
(dp1208
g12
VPRP$
p1209
sbag0
(g1
g2
(lp1210
Vcookies
p1211
atp1212
Rp1213
(dp1214
g12
VNNS
p1215
sbatp1216
Rp1217
(dp1218
g12
VNP
p1219
sbatp1220
Rp1221
(dp1222
g12
VVP
p1223
sbag0
(g1
g2
(lp1224
Vand
p1225
atp1226
Rp1227
(dp1228
g12
VCC
p1229
sbag0
(g1
g2
(lp1230
g0
(g1
g2
(lp1231
Vthinking
p1232
atp1233
Rp1234
(dp1235
g12
VVBG
p1236
sbag0
(g1
g2
(lp1237
g0
(g1
g2
(lp1238
g0
(g1
g2
(lp1239
g0
(g1
g2
(lp1240
Vthey
p1241
atp1242
Rp1243
(dp1244
g12
VPRP
p1245
sbatp1246
Rp1247
(dp1248
g12
VNP
p1249
sbag0
(g1
g2
(lp1250
g0
(g1
g2
(lp1251
Vcan
p1252
atp1253
Rp1254
(dp1255
g12
VMD
p1256
sbag0
(g1
g2
(lp1257
g0
(g1
g2
(lp1258
Veat
p1259
atp1260
Rp1261
(dp1262
g12
VVB
p1263
sbag0
(g1
g2
(lp1264
g0
(g1
g2
(lp1265
Veverything
p1266
atp1267
Rp1268
(dp1269
g12
VNN
p1270
sbatp1271
Rp1272
(dp1273
g12
VNP
p1274
sbatp1275
Rp1276
(dp1277
g12
VVP
p1278
sbatp1279
Rp1280
(dp1281
g12
VVP
p1282
sbatp1283
Rp1284
(dp1285
g12
VS
p1286
sbatp1287
Rp1288
(dp1289
g12
VSBAR
p1290
sbatp1291
Rp1292
(dp1293
g12
VVP
p1294
sbatp1295
Rp1296
(dp1297
g12
VVP
p1298
sbatp1299
Rp1300
(dp1301
g12
VVP
p1302
sbag0
(g1
g2
(lp1303
V.
p1304
atp1305
Rp1306
(dp1307
g12
V.
p1308
sbatp1309
Rp1310
(dp1311
g12
VS
p1312
sbatp1313
Rp1314
(dp1315
g12
S'id: 8'
p1316
sbag0
(g1
g2
(lp1317
g0
(g1
g2
(lp1318
g0
(g1
g2
(lp1319
g0
(g1
g2
(lp1320
VAnd
p1321
atp1322
Rp1323
(dp1324
g12
VCC
p1325
sbag0
(g1
g2
(lp1326
V,
p1327
atp1328
Rp1329
(dp1330
g12
V,
p1331
sbag0
(g1
g2
(lp1332
g0
(g1
g2
(lp1333
g0
(g1
g2
(lp1334
Vso
p1335
atp1336
Rp1337
(dp1338
g12
VRB
p1339
sbag0
(g1
g2
(lp1340
Vwell
p1341
atp1342
Rp1343
(dp1344
g12
VRB
p1345
sbatp1346
Rp1347
(dp1348
g12
VADVP
p1349
sbag0
(g1
g2
(lp1350
g0
(g1
g2
(lp1351
g0
(g1
g2
(lp1352
Vshe
p1353
atp1354
Rp1355
(dp1356
g12
VPRP
p1357
sbatp1358
Rp1359
(dp1360
g12
VNP
p1361
sbag0
(g1
g2
(lp1362
g0
(g1
g2
(lp1363
V's
p1364
atp1365
Rp1366
(dp1367
g12
VVBZ
p1368
sbag0
(g1
g2
(lp1369
g0
(g1
g2
(lp1370
Vgot
p1371
atp1372
Rp1373
(dp1374
g12
VVBD
p1375
sbag0
(g1
g2
(lp1376
g0
(g1
g2
(lp1377
Vher
p1378
atp1379
Rp1380
(dp1381
g12
VPRP$
p1382
sbag0
(g1
g2
(lp1383
Vshoes
p1384
atp1385
Rp1386
(dp1387
g12
VNNS
p1388
sbatp1389
Rp1390
(dp1391
g12
VNP
p1392
sbatp1393
Rp1394
(dp1395
g12
VVP
p1396
sbatp1397
Rp1398
(dp1399
g12
VVP
p1400
sbatp1401
Rp1402
(dp1403
g12
VS
p1404
sbatp1405
Rp1406
(dp1407
g12
VSBAR
p1408
sbag0
(g1
g2
(lp1409
V,
p1410
atp1411
Rp1412
(dp1413
g12
V,
p1414
sbag0
(g1
g2
(lp1415
g0
(g1
g2
(lp1416
Vhe
p1417
atp1418
Rp1419
(dp1420
g12
VPRP
p1421
sbatp1422
Rp1423
(dp1424
g12
VNP
p1425
sbag0
(g1
g2
(lp1426
g0
(g1
g2
(lp1427
Vgot
p1428
atp1429
Rp1430
(dp1431
g12
VVBD
p1432
sbag0
(g1
g2
(lp1433
g0
(g1
g2
(lp1434
Vthat
p1435
atp1436
Rp1437
(dp1438
g12
VIN
p1439
sbatp1440
Rp1441
(dp1442
g12
VADVP
p1443
sbatp1444
Rp1445
(dp1446
g12
VVP
p1447
sbatp1448
Rp1449
(dp1450
g12
VS
p1451
sbag0
(g1
g2
(lp1452
V,
p1453
atp1454
Rp1455
(dp1456
g12
V,
p1457
sbag0
(g1
g2
(lp1458
Vand
p1459
atp1460
Rp1461
(dp1462
g12
VCC
p1463
sbag0
(g1
g2
(lp1464
g0
(g1
g2
(lp1465
g0
(g1
g2
(lp1466
Vit
p1467
atp1468
Rp1469
(dp1470
g12
VPRP
p1471
sbatp1472
Rp1473
(dp1474
g12
VNP
p1475
sbag0
(g1
g2
(lp1476
g0
(g1
g2
(lp1477
Vpretty
p1478
atp1479
Rp1480
(dp1481
g12
VRB
p1482
sbag0
(g1
g2
(lp1483
Vbad
p1484
atp1485
Rp1486
(dp1487
g12
VJJ
p1488
sbatp1489
Rp1490
(dp1491
g12
VADJP
p1492
sbatp1493
Rp1494
(dp1495
g12
VS
p1496
sbag0
(g1
g2
(lp1497
V.
p1498
atp1499
Rp1500
(dp1501
g12
V.
p1502
sbatp1503
Rp1504
(dp1505
g12
VS
p1506
sbatp1507
Rp1508
(dp1509
g12
S'id: 9'
p1510
sbag0
(g1
g2
(lp1511
g0
(g1
g2
(lp1512
g0
(g1
g2
(lp1513
g0
(g1
g2
(lp1514
g0
(g1
g2
(lp1515
VThey
p1516
atp1517
Rp1518
(dp1519
g12
VPRP
p1520
sbatp1521
Rp1522
(dp1523
g12
VNP
p1524
sbag0
(g1
g2
(lp1525
g0
(g1
g2
(lp1526
V're
p1527
atp1528
Rp1529
(dp1530
g12
VVBP
p1531
sbag0
(g1
g2
(lp1532
g0
(g1
g2
(lp1533
Vnice
p1534
atp1535
Rp1536
(dp1537
g12
VJJ
p1538
sbatp1539
Rp1540
(dp1541
g12
VADJP
p1542
sbatp1543
Rp1544
(dp1545
g12
VVP
p1546
sbatp1547
Rp1548
(dp1549
g12
VS
p1550
sbag0
(g1
g2
(lp1551
V,
p1552
atp1553
Rp1554
(dp1555
g12
V,
p1556
sbag0
(g1
g2
(lp1557
Vand
p1558
atp1559
Rp1560
(dp1561
g12
VCC
p1562
sbag0
(g1
g2
(lp1563
g0
(g1
g2
(lp1564
g0
(g1
g2
(lp1565
Vthat
p1566
atp1567
Rp1568
(dp1569
g12
VDT
p1570
sbatp1571
Rp1572
(dp1573
g12
VNP
p1574
sbag0
(g1
g2
(lp1575
g0
(g1
g2
(lp1576
V's
p1577
atp1578
Rp1579
(dp1580
g12
VVBZ
p1581
sbag0
(g1
g2
(lp1582
g0
(g1
g2
(lp1583
Vhis
p1584
atp1585
Rp1586
(dp1587
g12
VPRP$
p1588
sbag0
(g1
g2
(lp1589
Vmom
p1590
atp1591
Rp1592
(dp1593
g12
VNN
p1594
sbatp1595
Rp1596
(dp1597
g12
VNP
p1598
sbatp1599
Rp1600
(dp1601
g12
VVP
p1602
sbatp1603
Rp1604
(dp1605
g12
VS
p1606
sbag0
(g1
g2
(lp1607
V.
p1608
atp1609
Rp1610
(dp1611
g12
V.
p1612
sbatp1613
Rp1614
(dp1615
g12
VS
p1616
sbatp1617
Rp1618
(dp1619
g12
S'id: 10'
p1620
sbag0
(g1
g2
(lp1621
g0
(g1
g2
(lp1622
g0
(g1
g2
(lp1623
g0
(g1
g2
(lp1624
g0
(g1
g2
(lp1625
VSo
p1626
atp1627
Rp1628
(dp1629
g12
VRB
p1630
sbatp1631
Rp1632
(dp1633
g12
VADVP
p1634
sbag0
(g1
g2
(lp1635
g0
(g1
g2
(lp1636
Vand
p1637
atp1638
Rp1639
(dp1640
g12
VCC
p1641
sbag0
(g1
g2
(lp1642
g0
(g1
g2
(lp1643
Vthat
p1644
atp1645
Rp1646
(dp1647
g12
VDT
p1648
sbatp1649
Rp1650
(dp1651
g12
VNP
p1652
sbag0
(g1
g2
(lp1653
g0
(g1
g2
(lp1654
V's
p1655
atp1656
Rp1657
(dp1658
g12
VVBZ
p1659
sbatp1660
Rp1661
(dp1662
g12
VVP
p1663
sbatp1664
Rp1665
(dp1666
g12
VS
p1667
sbag0
(g1
g2
(lp1668
V,
p1669
atp1670
Rp1671
(dp1672
g12
V,
p1673
sbag0
(g1
g2
(lp1674
Vand
p1675
atp1676
Rp1677
(dp1678
g12
VCC
p1679
sbag0
(g1
g2
(lp1680
g0
(g1
g2
(lp1681
g0
(g1
g2
(lp1682
Vthat
p1683
atp1684
Rp1685
(dp1686
g12
VDT
p1687
sbatp1688
Rp1689
(dp1690
g12
VNP
p1691
sbag0
(g1
g2
(lp1692
g0
(g1
g2
(lp1693
V's
p1694
atp1695
Rp1696
(dp1697
g12
VVBZ
p1698
sbag0
(g1
g2
(lp1699
g0
(g1
g2
(lp1700
Vin
p1701
atp1702
Rp1703
(dp1704
g12
VIN
p1705
sbag0
(g1
g2
(lp1706
g0
(g1
g2
(lp1707
Vhis
p1708
atp1709
Rp1710
(dp1711
g12
VPRP$
p1712
sbatp1713
Rp1714
(dp1715
g12
VNP
p1716
sbatp1717
Rp1718
(dp1719
g12
VPP
p1720
sbatp1721
Rp1722
(dp1723
g12
VVP
p1724
sbatp1725
Rp1726
(dp1727
g12
VS
p1728
sbatp1729
Rp1730
(dp1731
g12
VS
p1732
sbag0
(g1
g2
(lp1733
V,
p1734
atp1735
Rp1736
(dp1737
g12
V,
p1738
sbag0
(g1
g2
(lp1739
g0
(g1
g2
(lp1740
Vhis
p1741
atp1742
Rp1743
(dp1744
g12
VPRP$
p1745
sbatp1746
Rp1747
(dp1748
g12
VNP
p1749
sbag0
(g1
g2
(lp1750
V,
p1751
atp1752
Rp1753
(dp1754
g12
V,
p1755
sbag0
(g1
g2
(lp1756
g0
(g1
g2
(lp1757
Vyeah
p1758
atp1759
Rp1760
(dp1761
g12
VRB
p1762
sbatp1763
Rp1764
(dp1765
g12
VADVP
p1766
sbag0
(g1
g2
(lp1767
V,
p1768
atp1769
Rp1770
(dp1771
g12
V,
p1772
sbag0
(g1
g2
(lp1773
g0
(g1
g2
(lp1774
Vthat
p1775
atp1776
Rp1777
(dp1778
g12
VDT
p1779
sbatp1780
Rp1781
(dp1782
g12
VNP
p1783
sbag0
(g1
g2
(lp1784
g0
(g1
g2
(lp1785
V's
p1786
atp1787
Rp1788
(dp1789
g12
VVBZ
p1790
sbag0
(g1
g2
(lp1791
g0
(g1
g2
(lp1792
Vdown
p1793
atp1794
Rp1795
(dp1796
g12
VRB
p1797
sbatp1798
Rp1799
(dp1800
g12
VADVP
p1801
sbag0
(g1
g2
(lp1802
V,
p1803
atp1804
Rp1805
(dp1806
g12
V,
p1807
sbag0
(g1
g2
(lp1808
g0
(g1
g2
(lp1809
g0
(g1
g2
(lp1810
g0
(g1
g2
(lp1811
Vup
p1812
atp1813
Rp1814
(dp1815
g12
VRB
p1816
sbag0
(g1
g2
(lp1817
Vhere
p1818
atp1819
Rp1820
(dp1821
g12
VRB
p1822
sbatp1823
Rp1824
(dp1825
g12
VADVP
p1826
sbag0
(g1
g2
(lp1827
V,
p1828
atp1829
Rp1830
(dp1831
g12
V,
p1832
sbag0
(g1
g2
(lp1833
Vand
p1834
atp1835
Rp1836
(dp1837
g12
VCC
p1838
sbag0
(g1
g2
(lp1839
Vup
p1840
atp1841
Rp1842
(dp1843
g12
VRB
p1844
sbag0
(g1
g2
(lp1845
g0
(g1
g2
(lp1846
Vhere
p1847
atp1848
Rp1849
(dp1850
g12
VRB
p1851
sbatp1852
Rp1853
(dp1854
g12
VADVP
p1855
sbatp1856
Rp1857
(dp1858
g12
VADVP
p1859
sbag0
(g1
g2
(lp1860
V,
p1861
atp1862
Rp1863
(dp1864
g12
V,
p1865
sbag0
(g1
g2
(lp1866
g0
(g1
g2
(lp1867
Vthat
p1868
atp1869
Rp1870
(dp1871
g12
VIN
p1872
sbag0
(g1
g2
(lp1873
g0
(g1
g2
(lp1874
Vchi
p1875
atp1876
Rp1877
(dp1878
g12
VNN
p1879
sbatp1880
Rp1881
(dp1882
g12
VNP
p1883
sbatp1884
Rp1885
(dp1886
g12
VPP
p1887
sbag0
(g1
g2
(lp1888
V-
p1889
atp1890
Rp1891
(dp1892
g12
V:
p1893
sbag0
(g1
g2
(lp1894
Vnot
p1895
atp1896
Rp1897
(dp1898
g12
VRB
p1899
sbag0
(g1
g2
(lp1900
g0
(g1
g2
(lp1901
g0
(g1
g2
(lp1902
Vchicken
p1903
atp1904
Rp1905
(dp1906
g12
VNN
p1907
sbatp1908
Rp1909
(dp1910
g12
VNP
p1911
sbag0
(g1
g2
(lp1912
V,
p1913
atp1914
Rp1915
(dp1916
g12
V,
p1917
sbag0
(g1
g2
(lp1918
g0
(g1
g2
(lp1919
Vc-a-b-i
p1920
atp1921
Rp1922
(dp1923
g12
VNN
p1924
sbatp1925
Rp1926
(dp1927
g12
VNP
p1928
sbag0
(g1
g2
(lp1929
V,
p1930
atp1931
Rp1932
(dp1933
g12
V,
p1934
sbag0
(g1
g2
(lp1935
g0
(g1
g2
(lp1936
Vcabi
p1937
atp1938
Rp1939
(dp1940
g12
VNN
p1941
sbatp1942
Rp1943
(dp1944
g12
VNP
p1945
sbag0
(g1
g2
(lp1946
V,
p1947
atp1948
Rp1949
(dp1950
g12
V,
p1951
sbag0
(g1
g2
(lp1952
g0
(g1
g2
(lp1953
Vcable
p1954
atp1955
Rp1956
(dp1957
g12
VNN
p1958
sbatp1959
Rp1960
(dp1961
g12
VNP
p1962
sbag0
(g1
g2
(lp1963
V,
p1964
atp1965
Rp1966
(dp1967
g12
V,
p1968
sbag0
(g1
g2
(lp1969
g0
(g1
g2
(lp1970
Vtable
p1971
atp1972
Rp1973
(dp1974
g12
VNN
p1975
sbatp1976
Rp1977
(dp1978
g12
VNP
p1979
sbatp1980
Rp1981
(dp1982
g12
VNP
p1983
sbag0
(g1
g2
(lp1984
V.
p1985
atp1986
Rp1987
(dp1988
g12
V.
p1989
sbatp1990
Rp1991
(dp1992
g12
VFRAG
p1993
sbatp1994
Rp1995
(dp1996
g12
VVP
p1997
sbatp1998
Rp1999
(dp2000
g12
VS
p2001
sbatp2002
Rp2003
(dp2004
g12
S'id: 11'
p2005
sbag0
(g1
g2
(lp2006
g0
(g1
g2
(lp2007
g0
(g1
g2
(lp2008
VAnd
p2009
atp2010
Rp2011
(dp2012
g12
VCC
p2013
sbag0
(g1
g2
(lp2014
g0
(g1
g2
(lp2015
Vthere
p2016
atp2017
Rp2018
(dp2019
g12
VEX
p2020
sbatp2021
Rp2022
(dp2023
g12
VNP
p2024
sbag0
(g1
g2
(lp2025
g0
(g1
g2
(lp2026
V's
p2027
atp2028
Rp2029
(dp2030
g12
VVBZ
p2031
sbag0
(g1
g2
(lp2032
g0
(g1
g2
(lp2033
Vout
p2034
atp2035
Rp2036
(dp2037
g12
VRP
p2038
sbatp2039
Rp2040
(dp2041
g12
VADVP
p2042
sbag0
(g1
g2
(lp2043
g0
(g1
g2
(lp2044
Vin
p2045
atp2046
Rp2047
(dp2048
g12
VIN
p2049
sbag0
(g1
g2
(lp2050
g0
(g1
g2
(lp2051
g0
(g1
g2
(lp2052
Vthe
p2053
atp2054
Rp2055
(dp2056
g12
VDT
p2057
sbag0
(g1
g2
(lp2058
Vwater
p2059
atp2060
Rp2061
(dp2062
g12
VNN
p2063
sbatp2064
Rp2065
(dp2066
g12
VNP
p2067
sbag0
(g1
g2
(lp2068
V,
p2069
atp2070
Rp2071
(dp2072
g12
V,
p2073
sbag0
(g1
g2
(lp2074
g0
(g1
g2
(lp2075
Voutside
p2076
atp2077
Rp2078
(dp2079
g12
VNN
p2080
sbatp2081
Rp2082
(dp2083
g12
VNP
p2084
sbatp2085
Rp2086
(dp2087
g12
VNP
p2088
sbatp2089
Rp2090
(dp2091
g12
VPP
p2092
sbatp2093
Rp2094
(dp2095
g12
VVP
p2096
sbag0
(g1
g2
(lp2097
V.
p2098
atp2099
Rp2100
(dp2101
g12
V.
p2102
sbatp2103
Rp2104
(dp2105
g12
VS
p2106
sbatp2107
Rp2108
(dp2109
g12
S'id: 12'
p2110
sbag0
(g1
g2
(lp2111
g0
(g1
g2
(lp2112
g0
(g1
g2
(lp2113
g0
(g1
g2
(lp2114
VThere
p2115
atp2116
Rp2117
(dp2118
g12
VEX
p2119
sbatp2120
Rp2121
(dp2122
g12
VNP
p2123
sbag0
(g1
g2
(lp2124
g0
(g1
g2
(lp2125
V's
p2126
atp2127
Rp2128
(dp2129
g12
VVBZ
p2130
sbag0
(g1
g2
(lp2131
g0
(g1
g2
(lp2132
Va
p2133
atp2134
Rp2135
(dp2136
g12
VDT
p2137
sbag0
(g1
g2
(lp2138
Vtree
p2139
atp2140
Rp2141
(dp2142
g12
VNN
p2143
sbatp2144
Rp2145
(dp2146
g12
VNP
p2147
sbatp2148
Rp2149
(dp2150
g12
VVP
p2151
sbag0
(g1
g2
(lp2152
V.
p2153
atp2154
Rp2155
(dp2156
g12
V.
p2157
sbatp2158
Rp2159
(dp2160
g12
VS
p2161
sbatp2162
Rp2163
(dp2164
g12
S'id: 13'
p2165
sbag0
(g1
g2
(lp2166
g0
(g1
g2
(lp2167
g0
(g1
g2
(lp2168
g0
(g1
g2
(lp2169
VThat
p2170
atp2171
Rp2172
(dp2173
g12
VDT
p2174
sbatp2175
Rp2176
(dp2177
g12
VNP
p2178
sbag0
(g1
g2
(lp2179
g0
(g1
g2
(lp2180
V's
p2181
atp2182
Rp2183
(dp2184
g12
VVBZ
p2185
sbag0
(g1
g2
(lp2186
g0
(g1
g2
(lp2187
Vthe
p2188
atp2189
Rp2190
(dp2191
g12
VDT
p2192
sbag0
(g1
g2
(lp2193
Vgrass
p2194
atp2195
Rp2196
(dp2197
g12
VNN
p2198
sbatp2199
Rp2200
(dp2201
g12
VNP
p2202
sbatp2203
Rp2204
(dp2205
g12
VVP
p2206
sbag0
(g1
g2
(lp2207
V.
p2208
atp2209
Rp2210
(dp2211
g12
V.
p2212
sbatp2213
Rp2214
(dp2215
g12
VS
p2216
sbatp2217
Rp2218
(dp2219
g12
S'id: 14'
p2220
sbag0
(g1
g2
(lp2221
g0
(g1
g2
(lp2222
g0
(g1
g2
(lp2223
g0
(g1
g2
(lp2224
VThat
p2225
atp2226
Rp2227
(dp2228
g12
VDT
p2229
sbatp2230
Rp2231
(dp2232
g12
VNP
p2233
sbag0
(g1
g2
(lp2234
g0
(g1
g2
(lp2235
V's
p2236
atp2237
Rp2238
(dp2239
g12
VVBZ
p2240
sbag0
(g1
g2
(lp2241
g0
(g1
g2
(lp2242
g0
(g1
g2
(lp2243
Vpretty
p2244
atp2245
Rp2246
(dp2247
g12
VRB
p2248
sbag0
(g1
g2
(lp2249
Vmuch
p2250
atp2251
Rp2252
(dp2253
g12
VJJ
p2254
sbatp2255
Rp2256
(dp2257
g12
VADJP
p2258
sbag0
(g1
g2
(lp2259
Veverything
p2260
atp2261
Rp2262
(dp2263
g12
VNN
p2264
sbatp2265
Rp2266
(dp2267
g12
VNP
p2268
sbatp2269
Rp2270
(dp2271
g12
VVP
p2272
sbag0
(g1
g2
(lp2273
V.
p2274
atp2275
Rp2276
(dp2277
g12
V.
p2278
sbatp2279
Rp2280
(dp2281
g12
VS
p2282
sbatp2283
Rp2284
(dp2285
g12
S'id: 15'
p2286
sbag0
(g1
g2
(lp2287
g0
(g1
g2
(lp2288
g0
(g1
g2
(lp2289
g0
(g1
g2
(lp2290
VShe
p2291
atp2292
Rp2293
(dp2294
g12
VPRP
p2295
sbatp2296
Rp2297
(dp2298
g12
VNP
p2299
sbag0
(g1
g2
(lp2300
g0
(g1
g2
(lp2301
V's
p2302
atp2303
Rp2304
(dp2305
g12
VVBZ
p2306
sbatp2307
Rp2308
(dp2309
g12
VVP
p2310
sbatp2311
Rp2312
(dp2313
g12
VS
p2314
sbatp2315
Rp2316
(dp2317
g12
S'id: 16'
p2318
sbatp2319
Rp2320
(dp2321
g12
S'sentences'
p2322
sb.