ccopy_reg
_reconstructor
p0
(cnltk.tree
Tree
p1
c__builtin__
list
p2
(lp3
g0
(g1
g2
(lp4
g0
(g1
g2
(lp5
g0
(g1
g2
(lp6
Vso
p7
atp8
Rp9
(dp10
S'_label'
p11
VIN
p12
sbag0
(g1
g2
(lp13
g0
(g1
g2
(lp14
g0
(g1
g2
(lp15
Vthe
p16
atp17
Rp18
(dp19
g11
VDT
p20
sbag0
(g1
g2
(lp21
Vgirl
p22
atp23
Rp24
(dp25
g11
VNN
p26
sbatp27
Rp28
(dp29
g11
VNP
p30
sbag0
(g1
g2
(lp31
Vand
p32
atp33
Rp34
(dp35
g11
VCC
p36
sbag0
(g1
g2
(lp37
g0
(g1
g2
(lp38
Vthe
p39
atp40
Rp41
(dp42
g11
VDT
p43
sbag0
(g1
g2
(lp44
Vboy
p45
atp46
Rp47
(dp48
g11
VNN
p49
sbatp50
Rp51
(dp52
g11
VNP
p53
sbatp54
Rp55
(dp56
g11
VNP
p57
sbag0
(g1
g2
(lp58
g0
(g1
g2
(lp59
Vare
p60
atp61
Rp62
(dp63
g11
VVBP
p64
sbag0
(g1
g2
(lp65
g0
(g1
g2
(lp66
Vpicking
p67
atp68
Rp69
(dp70
g11
VVBG
p71
sbag0
(g1
g2
(lp72
g0
(g1
g2
(lp73
Vup
p74
atp75
Rp76
(dp77
g11
VRP
p78
sbatp79
Rp80
(dp81
g11
VPRT
p82
sbag0
(g1
g2
(lp83
g0
(g1
g2
(lp84
Vfood
p85
atp86
Rp87
(dp88
g11
VNN
p89
sbatp90
Rp91
(dp92
g11
VNP
p93
sbag0
(g1
g2
(lp94
V,
p95
atp96
Rp97
(dp98
g11
V,
p99
sbag0
(g1
g2
(lp100
g0
(g1
g2
(lp101
Vup
p102
atp103
Rp104
(dp105
g11
VRB
p106
sbag0
(g1
g2
(lp107
Vhigh
p108
atp109
Rp110
(dp111
g11
VJJ
p112
sbatp113
Rp114
(dp115
g11
VADVP
p116
sbatp117
Rp118
(dp119
g11
VVP
p120
sbatp121
Rp122
(dp123
g11
VVP
p124
sbag0
(g1
g2
(lp125
V.
p126
atp127
Rp128
(dp129
g11
V.
p130
sbatp131
Rp132
(dp133
g11
VS
p134
sbatp135
Rp136
(dp137
g11
S'id: 0'
p138
sbag0
(g1
g2
(lp139
g0
(g1
g2
(lp140
g0
(g1
g2
(lp141
g0
(g1
g2
(lp142
g0
(g1
g2
(lp143
VThe
p144
atp145
Rp146
(dp147
g11
VDT
p148
sbag0
(g1
g2
(lp149
Vlady
p150
atp151
Rp152
(dp153
g11
VNN
p154
sbatp155
Rp156
(dp157
g11
VNP
p158
sbag0
(g1
g2
(lp159
g0
(g1
g2
(lp160
Vis
p161
atp162
Rp163
(dp164
g11
VVBZ
p165
sbag0
(g1
g2
(lp166
V,
p167
atp168
Rp169
(dp170
g11
V,
p171
sbag0
(g1
g2
(lp172
g0
(g1
g2
(lp173
g0
(g1
g2
(lp174
g0
(g1
g2
(lp175
Vthe
p176
atp177
Rp178
(dp179
g11
VDT
p180
sbag0
(g1
g2
(lp181
Vlady
p182
atp183
Rp184
(dp185
g11
VNN
p186
sbatp187
Rp188
(dp189
g11
VNP
p190
sbag0
(g1
g2
(lp191
g0
(g1
g2
(lp192
Vis
p193
atp194
Rp195
(dp196
g11
VVBZ
p197
sbag0
(g1
g2
(lp198
g0
(g1
g2
(lp199
Vwashing
p200
atp201
Rp202
(dp203
g11
VVBG
p204
sbag0
(g1
g2
(lp205
g0
(g1
g2
(lp206
Vher
p207
atp208
Rp209
(dp210
g11
VPRP$
p211
sbag0
(g1
g2
(lp212
Vfood
p213
atp214
Rp215
(dp216
g11
VNN
p217
sbatp218
Rp219
(dp220
g11
VNP
p221
sbatp222
Rp223
(dp224
g11
VVP
p225
sbatp226
Rp227
(dp228
g11
VVP
p229
sbatp230
Rp231
(dp232
g11
VS
p233
sbatp234
Rp235
(dp236
g11
VSBAR
p237
sbatp238
Rp239
(dp240
g11
VVP
p241
sbatp242
Rp243
(dp244
g11
VS
p245
sbag0
(g1
g2
(lp246
V,
p247
atp248
Rp249
(dp250
g11
V,
p251
sbag0
(g1
g2
(lp252
Vand
p253
atp254
Rp255
(dp256
g11
VCC
p257
sbag0
(g1
g2
(lp258
Vnot
p259
atp260
Rp261
(dp262
g11
VRB
p263
sbag0
(g1
g2
(lp264
g0
(g1
g2
(lp265
g0
(g1
g2
(lp266
Vpaying
p267
atp268
Rp269
(dp270
g11
VVBG
p271
sbag0
(g1
g2
(lp272
g0
(g1
g2
(lp273
g0
(g1
g2
(lp274
Vattention
p275
atp276
Rp277
(dp278
g11
VNN
p279
sbatp280
Rp281
(dp282
g11
VNP
p283
sbag0
(g1
g2
(lp284
g0
(g1
g2
(lp285
g0
(g1
g2
(lp286
g0
(g1
g2
(lp287
Vthe
p288
atp289
Rp290
(dp291
g11
VDT
p292
sbag0
(g1
g2
(lp293
Vwater
p294
atp295
Rp296
(dp297
g11
VNN
p298
sbatp299
Rp300
(dp301
g11
VNP
p302
sbag0
(g1
g2
(lp303
g0
(g1
g2
(lp304
Vis
p305
atp306
Rp307
(dp308
g11
VVBZ
p309
sbag0
(g1
g2
(lp310
g0
(g1
g2
(lp311
Vcoming
p312
atp313
Rp314
(dp315
g11
VVBG
p316
sbag0
(g1
g2
(lp317
g0
(g1
g2
(lp318
Vdown
p319
atp320
Rp321
(dp322
g11
VRP
p323
sbatp324
Rp325
(dp326
g11
VPRT
p327
sbag0
(g1
g2
(lp328
g0
(g1
g2
(lp329
Von
p330
atp331
Rp332
(dp333
g11
VIN
p334
sbag0
(g1
g2
(lp335
g0
(g1
g2
(lp336
Vthe
p337
atp338
Rp339
(dp340
g11
VDT
p341
sbag0
(g1
g2
(lp342
Vfloor
p343
atp344
Rp345
(dp346
g11
VNN
p347
sbatp348
Rp349
(dp350
g11
VNP
p351
sbatp352
Rp353
(dp354
g11
VPP
p355
sbatp356
Rp357
(dp358
g11
VVP
p359
sbatp360
Rp361
(dp362
g11
VVP
p363
sbatp364
Rp365
(dp366
g11
VS
p367
sbatp368
Rp369
(dp370
g11
VSBAR
p371
sbatp372
Rp373
(dp374
g11
VNP
p375
sbatp376
Rp377
(dp378
g11
VVP
p379
sbatp380
Rp381
(dp382
g11
VS
p383
sbag0
(g1
g2
(lp384
V.
p385
atp386
Rp387
(dp388
g11
V.
p389
sbatp390
Rp391
(dp392
g11
VS
p393
sbatp394
Rp395
(dp396
g11
S'id: 1'
p397
sbag0
(g1
g2
(lp398
g0
(g1
g2
(lp399
g0
(g1
g2
(lp400
g0
(g1
g2
(lp401
g0
(g1
g2
(lp402
VShe
p403
atp404
Rp405
(dp406
g11
VPRP
p407
sbatp408
Rp409
(dp410
g11
VNP
p411
sbag0
(g1
g2
(lp412
g0
(g1
g2
(lp413
V's
p414
atp415
Rp416
(dp417
g11
VVBZ
p418
sbag0
(g1
g2
(lp419
g0
(g1
g2
(lp420
Vlooking
p421
atp422
Rp423
(dp424
g11
VVBG
p425
sbag0
(g1
g2
(lp426
g0
(g1
g2
(lp427
Vat
p428
atp429
Rp430
(dp431
g11
VIN
p432
sbag0
(g1
g2
(lp433
g0
(g1
g2
(lp434
g0
(g1
g2
(lp435
Vthe
p436
atp437
Rp438
(dp439
g11
VDT
p440
sbag0
(g1
g2
(lp441
Vman
p442
atp443
Rp444
(dp445
g11
VNN
p446
sbatp447
Rp448
(dp449
g11
VNP
p450
sbag0
(g1
g2
(lp451
g0
(g1
g2
(lp452
Vin
p453
atp454
Rp455
(dp456
g11
VIN
p457
sbag0
(g1
g2
(lp458
g0
(g1
g2
(lp459
Vthe
p460
atp461
Rp462
(dp463
g11
VDT
p464
sbag0
(g1
g2
(lp465
Vother
p466
atp467
Rp468
(dp469
g11
VJJ
p470
sbag0
(g1
g2
(lp471
Vroom
p472
atp473
Rp474
(dp475
g11
VNN
p476
sbatp477
Rp478
(dp479
g11
VNP
p480
sbatp481
Rp482
(dp483
g11
VPP
p484
sbatp485
Rp486
(dp487
g11
VNP
p488
sbatp489
Rp490
(dp491
g11
VPP
p492
sbatp493
Rp494
(dp495
g11
VVP
p496
sbatp497
Rp498
(dp499
g11
VVP
p500
sbatp501
Rp502
(dp503
g11
VS
p504
sbag0
(g1
g2
(lp505
V,
p506
atp507
Rp508
(dp509
g11
V,
p510
sbag0
(g1
g2
(lp511
g0
(g1
g2
(lp512
VI
p513
atp514
Rp515
(dp516
g11
VPRP
p517
sbatp518
Rp519
(dp520
g11
VNP
p521
sbag0
(g1
g2
(lp522
g0
(g1
g2
(lp523
Vguess
p524
atp525
Rp526
(dp527
g11
VVBP
p528
sbatp529
Rp530
(dp531
g11
VVP
p532
sbag0
(g1
g2
(lp533
V.
p534
atp535
Rp536
(dp537
g11
V.
p538
sbatp539
Rp540
(dp541
g11
VS
p542
sbatp543
Rp544
(dp545
g11
S'id: 2'
p546
sbag0
(g1
g2
(lp547
g0
(g1
g2
(lp548
g0
(g1
g2
(lp549
VAnd
p550
atp551
Rp552
(dp553
g11
VCC
p554
sbag0
(g1
g2
(lp555
g0
(g1
g2
(lp556
g0
(g1
g2
(lp557
Vthe
p558
atp559
Rp560
(dp561
g11
VDT
p562
sbag0
(g1
g2
(lp563
Vboy
p564
atp565
Rp566
(dp567
g11
VNN
p568
sbatp569
Rp570
(dp571
g11
VNP
p572
sbag0
(g1
g2
(lp573
g0
(g1
g2
(lp574
g0
(g1
g2
(lp575
Vwho
p576
atp577
Rp578
(dp579
g11
VWP
p580
sbatp581
Rp582
(dp583
g11
VWHNP
p584
sbag0
(g1
g2
(lp585
g0
(g1
g2
(lp586
g0
(g1
g2
(lp587
V's
p588
atp589
Rp590
(dp591
g11
VVBZ
p592
sbag0
(g1
g2
(lp593
g0
(g1
g2
(lp594
g0
(g1
g2
(lp595
Vpicking
p596
atp597
Rp598
(dp599
g11
VVBG
p600
sbag0
(g1
g2
(lp601
g0
(g1
g2
(lp602
Vup
p603
atp604
Rp605
(dp606
g11
VRP
p607
sbatp608
Rp609
(dp610
g11
VPRT
p611
sbag0
(g1
g2
(lp612
g0
(g1
g2
(lp613
Vthe
p614
atp615
Rp616
(dp617
g11
VDT
p618
sbag0
(g1
g2
(lp619
Vfood
p620
atp621
Rp622
(dp623
g11
VNN
p624
sbatp625
Rp626
(dp627
g11
VNP
p628
sbag0
(g1
g2
(lp629
g0
(g1
g2
(lp630
Vup
p631
atp632
Rp633
(dp634
g11
VRB
p635
sbag0
(g1
g2
(lp636
Vabove
p637
atp638
Rp639
(dp640
g11
VRB
p641
sbatp642
Rp643
(dp644
g11
VADVP
p645
sbatp646
Rp647
(dp648
g11
VVP
p649
sbatp650
Rp651
(dp652
g11
VS
p653
sbatp654
Rp655
(dp656
g11
VVP
p657
sbatp658
Rp659
(dp660
g11
VS
p661
sbatp662
Rp663
(dp664
g11
VSBAR
p665
sbatp666
Rp667
(dp668
g11
VNP
p669
sbag0
(g1
g2
(lp670
V,
p671
atp672
Rp673
(dp674
g11
V,
p675
sbag0
(g1
g2
(lp676
g0
(g1
g2
(lp677
Vis
p678
atp679
Rp680
(dp681
g11
VVBZ
p682
sbag0
(g1
g2
(lp683
g0
(g1
g2
(lp684
Vgetting
p685
atp686
Rp687
(dp688
g11
VVBG
p689
sbag0
(g1
g2
(lp690
g0
(g1
g2
(lp691
Vready
p692
atp693
Rp694
(dp695
g11
VJJ
p696
sbag0
(g1
g2
(lp697
g0
(g1
g2
(lp698
g0
(g1
g2
(lp699
Vto
p700
atp701
Rp702
(dp703
g11
VTO
p704
sbag0
(g1
g2
(lp705
g0
(g1
g2
(lp706
Vfall
p707
atp708
Rp709
(dp710
g11
VVB
p711
sbag0
(g1
g2
(lp712
g0
(g1
g2
(lp713
Voff
p714
atp715
Rp716
(dp717
g11
VRP
p718
sbatp719
Rp720
(dp721
g11
VPRT
p722
sbatp723
Rp724
(dp725
g11
VVP
p726
sbatp727
Rp728
(dp729
g11
VVP
p730
sbatp731
Rp732
(dp733
g11
VS
p734
sbatp735
Rp736
(dp737
g11
VADJP
p738
sbatp739
Rp740
(dp741
g11
VVP
p742
sbatp743
Rp744
(dp745
g11
VVP
p746
sbag0
(g1
g2
(lp747
V.
p748
atp749
Rp750
(dp751
g11
V.
p752
sbatp753
Rp754
(dp755
g11
VS
p756
sbatp757
Rp758
(dp759
g11
S'id: 3'
p760
sbag0
(g1
g2
(lp761
g0
(g1
g2
(lp762
g0
(g1
g2
(lp763
g0
(g1
g2
(lp764
VI
p765
atp766
Rp767
(dp768
g11
VPRP
p769
sbatp770
Rp771
(dp772
g11
VNP
p773
sbag0
(g1
g2
(lp774
g0
(g1
g2
(lp775
Vcant
p776
atp777
Rp778
(dp779
g11
VVBP
p780
sbag0
(g1
g2
(lp781
g0
(g1
g2
(lp782
g0
(g1
g2
(lp783
Vthink
p784
atp785
Rp786
(dp787
g11
VNN
p788
sbatp789
Rp790
(dp791
g11
VNP
p792
sbag0
(g1
g2
(lp793
g0
(g1
g2
(lp794
Vof
p795
atp796
Rp797
(dp798
g11
VIN
p799
sbag0
(g1
g2
(lp800
g0
(g1
g2
(lp801
Vanything
p802
atp803
Rp804
(dp805
g11
VNN
p806
sbag0
(g1
g2
(lp807
Velse
p808
atp809
Rp810
(dp811
g11
VRB
p812
sbatp813
Rp814
(dp815
g11
VNP
p816
sbatp817
Rp818
(dp819
g11
VPP
p820
sbatp821
Rp822
(dp823
g11
VNP
p824
sbatp825
Rp826
(dp827
g11
VVP
p828
sbag0
(g1
g2
(lp829
V.
p830
atp831
Rp832
(dp833
g11
V.
p834
sbatp835
Rp836
(dp837
g11
VS
p838
sbatp839
Rp840
(dp841
g11
S'id: 4'
p842
sbag0
(g1
g2
(lp843
g0
(g1
g2
(lp844
g0
(g1
g2
(lp845
g0
(g1
g2
(lp846
g0
(g1
g2
(lp847
VShe
p848
atp849
Rp850
(dp851
g11
VPRP
p852
sbatp853
Rp854
(dp855
g11
VNP
p856
sbag0
(g1
g2
(lp857
g0
(g1
g2
(lp858
V's
p859
atp860
Rp861
(dp862
g11
VVBZ
p863
sbag0
(g1
g2
(lp864
g0
(g1
g2
(lp865
Vlooking
p866
atp867
Rp868
(dp869
g11
VVBG
p870
sbag0
(g1
g2
(lp871
g0
(g1
g2
(lp872
Voutside
p873
atp874
Rp875
(dp876
g11
VRB
p877
sbatp878
Rp879
(dp880
g11
VADVP
p881
sbatp882
Rp883
(dp884
g11
VVP
p885
sbatp886
Rp887
(dp888
g11
VVP
p889
sbatp890
Rp891
(dp892
g11
VS
p893
sbag0
(g1
g2
(lp894
V,
p895
atp896
Rp897
(dp898
g11
V,
p899
sbag0
(g1
g2
(lp900
Vbut
p901
atp902
Rp903
(dp904
g11
VCC
p905
sbag0
(g1
g2
(lp906
g0
(g1
g2
(lp907
g0
(g1
g2
(lp908
VI
p909
atp910
Rp911
(dp912
g11
VPRP
p913
sbatp914
Rp915
(dp916
g11
VNP
p917
sbag0
(g1
g2
(lp918
g0
(g1
g2
(lp919
Vca
p920
atp921
Rp922
(dp923
g11
VMD
p924
sbag0
(g1
g2
(lp925
Vn't
p926
atp927
Rp928
(dp929
g11
VRB
p930
sbag0
(g1
g2
(lp931
g0
(g1
g2
(lp932
Vreally
p933
atp934
Rp935
(dp936
g11
VRB
p937
sbatp938
Rp939
(dp940
g11
VADVP
p941
sbag0
(g1
g2
(lp942
g0
(g1
g2
(lp943
Vunderstand
p944
atp945
Rp946
(dp947
g11
VVB
p948
sbag0
(g1
g2
(lp949
g0
(g1
g2
(lp950
Vwhat
p951
atp952
Rp953
(dp954
g11
VWP
p955
sbatp956
Rp957
(dp958
g11
VNP
p959
sbatp960
Rp961
(dp962
g11
VVP
p963
sbatp964
Rp965
(dp966
g11
VVP
p967
sbatp968
Rp969
(dp970
g11
VS
p971
sbag0
(g1
g2
(lp972
V.
p973
atp974
Rp975
(dp976
g11
V.
p977
sbatp978
Rp979
(dp980
g11
VS
p981
sbatp982
Rp983
(dp984
g11
S'id: 5'
p985
sbag0
(g1
g2
(lp986
g0
(g1
g2
(lp987
g0
(g1
g2
(lp988
g0
(g1
g2
(lp989
g0
(g1
g2
(lp990
VI
p991
atp992
Rp993
(dp994
g11
VPRP
p995
sbatp996
Rp997
(dp998
g11
VNP
p999
sbag0
(g1
g2
(lp1000
g0
(g1
g2
(lp1001
Vthought
p1002
atp1003
Rp1004
(dp1005
g11
VVBD
p1006
sbag0
(g1
g2
(lp1007
g0
(g1
g2
(lp1008
g0
(g1
g2
(lp1009
g0
(g1
g2
(lp1010
Vshe
p1011
atp1012
Rp1013
(dp1014
g11
VPRP
p1015
sbatp1016
Rp1017
(dp1018
g11
VNP
p1019
sbag0
(g1
g2
(lp1020
g0
(g1
g2
(lp1021
Vwas
p1022
atp1023
Rp1024
(dp1025
g11
VVBD
p1026
sbag0
(g1
g2
(lp1027
g0
(g1
g2
(lp1028
Vlooking
p1029
atp1030
Rp1031
(dp1032
g11
VVBG
p1033
sbag0
(g1
g2
(lp1034
g0
(g1
g2
(lp1035
Voutside
p1036
atp1037
Rp1038
(dp1039
g11
VJJ
p1040
sbatp1041
Rp1042
(dp1043
g11
VADVP
p1044
sbatp1045
Rp1046
(dp1047
g11
VVP
p1048
sbatp1049
Rp1050
(dp1051
g11
VVP
p1052
sbatp1053
Rp1054
(dp1055
g11
VS
p1056
sbatp1057
Rp1058
(dp1059
g11
VSBAR
p1060
sbatp1061
Rp1062
(dp1063
g11
VVP
p1064
sbatp1065
Rp1066
(dp1067
g11
VS
p1068
sbag0
(g1
g2
(lp1069
g0
(g1
g2
(lp1070
V,
p1071
atp1072
Rp1073
(dp1074
g11
V,
p1075
sbag0
(g1
g2
(lp1076
g0
(g1
g2
(lp1077
g0
(g1
g2
(lp1078
VI
p1079
atp1080
Rp1081
(dp1082
g11
VPRP
p1083
sbatp1084
Rp1085
(dp1086
g11
VNP
p1087
sbag0
(g1
g2
(lp1088
g0
(g1
g2
(lp1089
Vthought
p1090
atp1091
Rp1092
(dp1093
g11
VVBD
p1094
sbag0
(g1
g2
(lp1095
g0
(g1
g2
(lp1096
g0
(g1
g2
(lp1097
g0
(g1
g2
(lp1098
Vmaybe
p1099
atp1100
Rp1101
(dp1102
g11
VRB
p1103
sbag0
(g1
g2
(lp1104
Vsomebody
p1105
atp1106
Rp1107
(dp1108
g11
VNN
p1109
sbatp1110
Rp1111
(dp1112
g11
VNP
p1113
sbag0
(g1
g2
(lp1114
g0
(g1
g2
(lp1115
Vwas
p1116
atp1117
Rp1118
(dp1119
g11
VVBD
p1120
sbag0
(g1
g2
(lp1121
g0
(g1
g2
(lp1122
Vcutting
p1123
atp1124
Rp1125
(dp1126
g11
VVBG
p1127
sbag0
(g1
g2
(lp1128
g0
(g1
g2
(lp1129
Vthe
p1130
atp1131
Rp1132
(dp1133
g11
VDT
p1134
sbag0
(g1
g2
(lp1135
Vgrass
p1136
atp1137
Rp1138
(dp1139
g11
VNN
p1140
sbag0
(g1
g2
(lp1141
Vor
p1142
atp1143
Rp1144
(dp1145
g11
VCC
p1146
sbag0
(g1
g2
(lp1147
Vsomething
p1148
atp1149
Rp1150
(dp1151
g11
VNN
p1152
sbatp1153
Rp1154
(dp1155
g11
VNP
p1156
sbatp1157
Rp1158
(dp1159
g11
VVP
p1160
sbatp1161
Rp1162
(dp1163
g11
VVP
p1164
sbatp1165
Rp1166
(dp1167
g11
VS
p1168
sbatp1169
Rp1170
(dp1171
g11
VSBAR
p1172
sbatp1173
Rp1174
(dp1175
g11
VVP
p1176
sbatp1177
Rp1178
(dp1179
g11
VS
p1180
sbag0
(g1
g2
(lp1181
V,
p1182
atp1183
Rp1184
(dp1185
g11
V,
p1186
sbatp1187
Rp1188
(dp1189
g11
VPRN
p1190
sbag0
(g1
g2
(lp1191
Vbut
p1192
atp1193
Rp1194
(dp1195
g11
VCC
p1196
sbag0
(g1
g2
(lp1197
g0
(g1
g2
(lp1198
g0
(g1
g2
(lp1199
g0
(g1
g2
(lp1200
VI
p1201
atp1202
Rp1203
(dp1204
g11
VPRP
p1205
sbatp1206
Rp1207
(dp1208
g11
VNP
p1209
sbag0
(g1
g2
(lp1210
g0
(g1
g2
(lp1211
Vdont
p1212
atp1213
Rp1214
(dp1215
g11
VVBP
p1216
sbag0
(g1
g2
(lp1217
g0
(g1
g2
(lp1218
Vsee
p1219
atp1220
Rp1221
(dp1222
g11
VVB
p1223
sbag0
(g1
g2
(lp1224
g0
(g1
g2
(lp1225
g0
(g1
g2
(lp1226
Vno
p1227
atp1228
Rp1229
(dp1230
g11
VDT
p1231
sbag0
(g1
g2
(lp1232
Vperson
p1233
atp1234
Rp1235
(dp1236
g11
VNN
p1237
sbatp1238
Rp1239
(dp1240
g11
VNP
p1241
sbag0
(g1
g2
(lp1242
g0
(g1
g2
(lp1243
Vcutting
p1244
atp1245
Rp1246
(dp1247
g11
VVBG
p1248
sbag0
(g1
g2
(lp1249
g0
(g1
g2
(lp1250
Vthe
p1251
atp1252
Rp1253
(dp1254
g11
VDT
p1255
sbag0
(g1
g2
(lp1256
Vgrass
p1257
atp1258
Rp1259
(dp1260
g11
VNN
p1261
sbatp1262
Rp1263
(dp1264
g11
VNP
p1265
sbatp1266
Rp1267
(dp1268
g11
VVP
p1269
sbatp1270
Rp1271
(dp1272
g11
VNP
p1273
sbatp1274
Rp1275
(dp1276
g11
VVP
p1277
sbatp1278
Rp1279
(dp1280
g11
VVP
p1281
sbatp1282
Rp1283
(dp1284
g11
VS
p1285
sbag0
(g1
g2
(lp1286
V,
p1287
atp1288
Rp1289
(dp1290
g11
V,
p1291
sbag0
(g1
g2
(lp1292
Vbut
p1293
atp1294
Rp1295
(dp1296
g11
VCC
p1297
sbag0
(g1
g2
(lp1298
g0
(g1
g2
(lp1299
g0
(g1
g2
(lp1300
Vshe
p1301
atp1302
Rp1303
(dp1304
g11
VPRP
p1305
sbatp1306
Rp1307
(dp1308
g11
VNP
p1309
sbag0
(g1
g2
(lp1310
g0
(g1
g2
(lp1311
V's
p1312
atp1313
Rp1314
(dp1315
g11
VVBZ
p1316
sbag0
(g1
g2
(lp1317
g0
(g1
g2
(lp1318
Vlooking
p1319
atp1320
Rp1321
(dp1322
g11
VVBG
p1323
sbatp1324
Rp1325
(dp1326
g11
VVP
p1327
sbatp1328
Rp1329
(dp1330
g11
VVP
p1331
sbatp1332
Rp1333
(dp1334
g11
VS
p1335
sbatp1336
Rp1337
(dp1338
g11
VS
p1339
sbag0
(g1
g2
(lp1340
V.
p1341
atp1342
Rp1343
(dp1344
g11
V.
p1345
sbatp1346
Rp1347
(dp1348
g11
VS
p1349
sbatp1350
Rp1351
(dp1352
g11
S'id: 6'
p1353
sbag0
(g1
g2
(lp1354
g0
(g1
g2
(lp1355
g0
(g1
g2
(lp1356
g0
(g1
g2
(lp1357
VDid
p1358
atp1359
Rp1360
(dp1361
g11
VVBD
p1362
sbatp1363
Rp1364
(dp1365
g11
VVP
p1366
sbag0
(g1
g2
(lp1367
g0
(g1
g2
(lp1368
g0
(g1
g2
(lp1369
g0
(g1
g2
(lp1370
Vthe
p1371
atp1372
Rp1373
(dp1374
g11
VDT
p1375
sbag0
(g1
g2
(lp1376
Vhouse
p1377
atp1378
Rp1379
(dp1380
g11
VNN
p1381
sbatp1382
Rp1383
(dp1384
g11
VNP
p1385
sbag0
(g1
g2
(lp1386
g0
(g1
g2
(lp1387
g0
(g1
g2
(lp1388
g0
(g1
g2
(lp1389
Vburn
p1390
atp1391
Rp1392
(dp1393
g11
VVBP
p1394
sbatp1395
Rp1396
(dp1397
g11
VVP
p1398
sbatp1399
Rp1400
(dp1401
g11
VS
p1402
sbatp1403
Rp1404
(dp1405
g11
VSBAR
p1406
sbatp1407
Rp1408
(dp1409
g11
VNP
p1410
sbag0
(g1
g2
(lp1411
Vor
p1412
atp1413
Rp1414
(dp1415
g11
VCC
p1416
sbag0
(g1
g2
(lp1417
g0
(g1
g2
(lp1418
Vsomething
p1419
atp1420
Rp1421
(dp1422
g11
VNN
p1423
sbatp1424
Rp1425
(dp1426
g11
VNP
p1427
sbatp1428
Rp1429
(dp1430
g11
VNP
p1431
sbatp1432
Rp1433
(dp1434
g11
VSINV
p1435
sbatp1436
Rp1437
(dp1438
g11
S'id: 7'
p1439
sbatp1440
Rp1441
(dp1442
g11
S'sentences'
p1443
sb.