ccopy_reg
_reconstructor
p0
(cnltk.tree
Tree
p1
c__builtin__
list
p2
(lp3
g0
(g1
g2
(lp4
g0
(g1
g2
(lp5
g0
(g1
g2
(lp6
g0
(g1
g2
(lp7
Vok
p8
atp9
Rp10
(dp11
S'_label'
p12
VJJ
p13
sbag0
(g1
g2
(lp14
Vsame
p15
atp16
Rp17
(dp18
g12
VJJ
p19
sbag0
(g1
g2
(lp20
Vthing
p21
atp22
Rp23
(dp24
g12
VNN
p25
sbatp26
Rp27
(dp28
g12
VNP
p29
sbag0
(g1
g2
(lp30
V.
p31
atp32
Rp33
(dp34
g12
V.
p35
sbatp36
Rp37
(dp38
g12
VFRAG
p39
sbatp40
Rp41
(dp42
g12
S'id: 0'
p43
sbag0
(g1
g2
(lp44
g0
(g1
g2
(lp45
g0
(g1
g2
(lp46
g0
(g1
g2
(lp47
VAlright
p48
atp49
Rp50
(dp51
g12
VNNP
p52
sbatp53
Rp54
(dp55
g12
VNP
p56
sbag0
(g1
g2
(lp57
V,
p58
atp59
Rp60
(dp61
g12
V,
p62
sbag0
(g1
g2
(lp63
g0
(g1
g2
(lp64
Vthere
p65
atp66
Rp67
(dp68
g12
VEX
p69
sbatp70
Rp71
(dp72
g12
VNP
p73
sbag0
(g1
g2
(lp74
g0
(g1
g2
(lp75
V's
p76
atp77
Rp78
(dp79
g12
VVBZ
p80
sbag0
(g1
g2
(lp81
g0
(g1
g2
(lp82
g0
(g1
g2
(lp83
g0
(g1
g2
(lp84
Va
p85
atp86
Rp87
(dp88
g12
VDT
p89
sbag0
(g1
g2
(lp90
Vclown
p91
atp92
Rp93
(dp94
g12
VNN
p95
sbatp96
Rp97
(dp98
g12
VNP
p99
sbag0
(g1
g2
(lp100
Vthere
p101
atp102
Rp103
(dp104
g12
VRB
p105
sbatp106
Rp107
(dp108
g12
VADVP
p109
sbag0
(g1
g2
(lp110
Vthrowing
p111
atp112
Rp113
(dp114
g12
VVBG
p115
sbag0
(g1
g2
(lp116
g0
(g1
g2
(lp117
Vpopcorn
p118
atp119
Rp120
(dp121
g12
VNN
p122
sbatp123
Rp124
(dp125
g12
VNP
p126
sbag0
(g1
g2
(lp127
g0
(g1
g2
(lp128
Vout
p129
atp130
Rp131
(dp132
g12
VRP
p133
sbatp134
Rp135
(dp136
g12
VPRT
p137
sbag0
(g1
g2
(lp138
g0
(g1
g2
(lp139
Vat
p140
atp141
Rp142
(dp143
g12
VIN
p144
sbag0
(g1
g2
(lp145
g0
(g1
g2
(lp146
Vthe
p147
atp148
Rp149
(dp150
g12
VDT
p151
sbag0
(g1
g2
(lp152
Vkids
p153
atp154
Rp155
(dp156
g12
VNNS
p157
sbatp158
Rp159
(dp160
g12
VNP
p161
sbatp162
Rp163
(dp164
g12
VPP
p165
sbatp166
Rp167
(dp168
g12
VVP
p169
sbatp170
Rp171
(dp172
g12
VVP
p173
sbag0
(g1
g2
(lp174
V.
p175
atp176
Rp177
(dp178
g12
V.
p179
sbatp180
Rp181
(dp182
g12
VS
p183
sbatp184
Rp185
(dp186
g12
S'id: 1'
p187
sbag0
(g1
g2
(lp188
g0
(g1
g2
(lp189
g0
(g1
g2
(lp190
g0
(g1
g2
(lp191
VThere
p192
atp193
Rp194
(dp195
g12
VEX
p196
sbatp197
Rp198
(dp199
g12
VNP
p200
sbag0
(g1
g2
(lp201
g0
(g1
g2
(lp202
V's
p203
atp204
Rp205
(dp206
g12
VVBZ
p207
sbag0
(g1
g2
(lp208
g0
(g1
g2
(lp209
g0
(g1
g2
(lp210
Va
p211
atp212
Rp213
(dp214
g12
VDT
p215
sbag0
(g1
g2
(lp216
Vgentleman
p217
atp218
Rp219
(dp220
g12
VNN
p221
sbatp222
Rp223
(dp224
g12
VNP
p225
sbag0
(g1
g2
(lp226
Vthere
p227
atp228
Rp229
(dp230
g12
VRB
p231
sbatp232
Rp233
(dp234
g12
VADVP
p235
sbag0
(g1
g2
(lp236
g0
(g1
g2
(lp237
Vwith
p238
atp239
Rp240
(dp241
g12
VIN
p242
sbag0
(g1
g2
(lp243
g0
(g1
g2
(lp244
Vhis
p245
atp246
Rp247
(dp248
g12
VPRP$
p249
sbag0
(g1
g2
(lp250
Vdaughter
p251
atp252
Rp253
(dp254
g12
VNN
p255
sbatp256
Rp257
(dp258
g12
VNP
p259
sbatp260
Rp261
(dp262
g12
VPP
p263
sbatp264
Rp265
(dp266
g12
VVP
p267
sbag0
(g1
g2
(lp268
V.
p269
atp270
Rp271
(dp272
g12
V.
p273
sbatp274
Rp275
(dp276
g12
VS
p277
sbatp278
Rp279
(dp280
g12
S'id: 2'
p281
sbag0
(g1
g2
(lp282
g0
(g1
g2
(lp283
g0
(g1
g2
(lp284
g0
(g1
g2
(lp285
VAnd
p286
atp287
Rp288
(dp289
g12
VCC
p290
sbag0
(g1
g2
(lp291
g0
(g1
g2
(lp292
Vthere
p293
atp294
Rp295
(dp296
g12
VEX
p297
sbatp298
Rp299
(dp300
g12
VNP
p301
sbag0
(g1
g2
(lp302
g0
(g1
g2
(lp303
V's
p304
atp305
Rp306
(dp307
g12
VVBZ
p308
sbag0
(g1
g2
(lp309
g0
(g1
g2
(lp310
Vthe
p311
atp312
Rp313
(dp314
g12
VDT
p315
sbag0
(g1
g2
(lp316
Vman
p317
atp318
Rp319
(dp320
g12
VNN
p321
sbatp322
Rp323
(dp324
g12
VNP
p325
sbag0
(g1
g2
(lp326
V,
p327
atp328
Rp329
(dp330
g12
V,
p331
sbag0
(g1
g2
(lp332
g0
(g1
g2
(lp333
g0
(g1
g2
(lp334
Vdoing
p335
atp336
Rp337
(dp338
g12
VVBG
p339
sbag0
(g1
g2
(lp340
g0
(g1
g2
(lp341
Vsomething
p342
atp343
Rp344
(dp345
g12
VNN
p346
sbatp347
Rp348
(dp349
g12
VNP
p350
sbag0
(g1
g2
(lp351
g0
(g1
g2
(lp352
Vwith
p353
atp354
Rp355
(dp356
g12
VIN
p357
sbag0
(g1
g2
(lp358
g0
(g1
g2
(lp359
Vthe
p360
atp361
Rp362
(dp363
g12
VDT
p364
sbag0
(g1
g2
(lp365
Vlion
p366
atp367
Rp368
(dp369
g12
VNN
p370
sbatp371
Rp372
(dp373
g12
VNP
p374
sbatp375
Rp376
(dp377
g12
VPP
p378
sbatp379
Rp380
(dp381
g12
VVP
p382
sbatp383
Rp384
(dp385
g12
VS
p386
sbatp387
Rp388
(dp389
g12
VVP
p390
sbatp391
Rp392
(dp393
g12
VS
p394
sbag0
(g1
g2
(lp395
V,
p396
atp397
Rp398
(dp399
g12
V,
p400
sbag0
(g1
g2
(lp401
g0
(g1
g2
(lp402
Vit
p403
atp404
Rp405
(dp406
g12
VPRP
p407
sbatp408
Rp409
(dp410
g12
VNP
p411
sbag0
(g1
g2
(lp412
g0
(g1
g2
(lp413
Vis
p414
atp415
Rp416
(dp417
g12
VVBZ
p418
sbag0
(g1
g2
(lp419
g0
(g1
g2
(lp420
Va
p421
atp422
Rp423
(dp424
g12
VDT
p425
sbag0
(g1
g2
(lp426
Vloin
p427
atp428
Rp429
(dp430
g12
VNN
p431
sbatp432
Rp433
(dp434
g12
VNP
p435
sbatp436
Rp437
(dp438
g12
VVP
p439
sbag0
(g1
g2
(lp440
V.
p441
atp442
Rp443
(dp444
g12
V.
p445
sbatp446
Rp447
(dp448
g12
VS
p449
sbatp450
Rp451
(dp452
g12
S'id: 3'
p453
sbag0
(g1
g2
(lp454
g0
(g1
g2
(lp455
g0
(g1
g2
(lp456
VAnd
p457
atp458
Rp459
(dp460
g12
VCC
p461
sbag0
(g1
g2
(lp462
g0
(g1
g2
(lp463
g0
(g1
g2
(lp464
Vthe
p465
atp466
Rp467
(dp468
g12
VDT
p469
sbag0
(g1
g2
(lp470
Vchildren
p471
atp472
Rp473
(dp474
g12
VNNS
p475
sbatp476
Rp477
(dp478
g12
VNP
p479
sbag0
(g1
g2
(lp480
g0
(g1
g2
(lp481
Vare
p482
atp483
Rp484
(dp485
g12
VVBP
p486
sbag0
(g1
g2
(lp487
g0
(g1
g2
(lp488
Vhappy
p489
atp490
Rp491
(dp492
g12
VJJ
p493
sbag0
(g1
g2
(lp494
g0
(g1
g2
(lp495
g0
(g1
g2
(lp496
Vto
p497
atp498
Rp499
(dp500
g12
VTO
p501
sbag0
(g1
g2
(lp502
g0
(g1
g2
(lp503
Vgo
p504
atp505
Rp506
(dp507
g12
VVB
p508
sbag0
(g1
g2
(lp509
g0
(g1
g2
(lp510
Vto
p511
atp512
Rp513
(dp514
g12
VTO
p515
sbag0
(g1
g2
(lp516
g0
(g1
g2
(lp517
Vthat
p518
atp519
Rp520
(dp521
g12
VDT
p522
sbatp523
Rp524
(dp525
g12
VNP
p526
sbatp527
Rp528
(dp529
g12
VPP
p530
sbatp531
Rp532
(dp533
g12
VVP
p534
sbatp535
Rp536
(dp537
g12
VVP
p538
sbatp539
Rp540
(dp541
g12
VS
p542
sbatp543
Rp544
(dp545
g12
VADJP
p546
sbatp547
Rp548
(dp549
g12
VVP
p550
sbatp551
Rp552
(dp553
g12
VS
p554
sbag0
(g1
g2
(lp555
V,
p556
atp557
Rp558
(dp559
g12
V,
p560
sbag0
(g1
g2
(lp561
Vand
p562
atp563
Rp564
(dp565
g12
VCC
p566
sbag0
(g1
g2
(lp567
g0
(g1
g2
(lp568
g0
(g1
g2
(lp569
Vthey
p570
atp571
Rp572
(dp573
g12
VPRP
p574
sbatp575
Rp576
(dp577
g12
VNP
p578
sbag0
(g1
g2
(lp579
g0
(g1
g2
(lp580
Vare
p581
atp582
Rp583
(dp584
g12
VVBP
p585
sbag0
(g1
g2
(lp586
g0
(g1
g2
(lp587
Vwatching
p588
atp589
Rp590
(dp591
g12
VVBG
p592
sbag0
(g1
g2
(lp593
g0
(g1
g2
(lp594
g0
(g1
g2
(lp595
Vthe
p596
atp597
Rp598
(dp599
g12
VDT
p600
sbag0
(g1
g2
(lp601
Vlady
p602
atp603
Rp604
(dp605
g12
VNN
p606
sbatp607
Rp608
(dp609
g12
VNP
p610
sbag0
(g1
g2
(lp611
g0
(g1
g2
(lp612
Vtraipsing
p613
atp614
Rp615
(dp616
g12
VVBG
p617
sbag0
(g1
g2
(lp618
g0
(g1
g2
(lp619
Varound
p620
atp621
Rp622
(dp623
g12
VIN
p624
sbag0
(g1
g2
(lp625
g0
(g1
g2
(lp626
g0
(g1
g2
(lp627
Vthe
p628
atp629
Rp630
(dp631
g12
VDT
p632
sbag0
(g1
g2
(lp633
Vscreen
p634
atp635
Rp636
(dp637
g12
VNN
p638
sbatp639
Rp640
(dp641
g12
VNP
p642
sbag0
(g1
g2
(lp643
g0
(g1
g2
(lp644
Von
p645
atp646
Rp647
(dp648
g12
VIN
p649
sbag0
(g1
g2
(lp650
g0
(g1
g2
(lp651
g0
(g1
g2
(lp652
Vthe
p653
atp654
Rp655
(dp656
g12
VDT
p657
sbag0
(g1
g2
(lp658
Vlittle
p659
atp660
Rp661
(dp662
g12
VJJ
p663
sbag0
(g1
g2
(lp664
Voutdoor
p665
atp666
Rp667
(dp668
g12
VJJ
p669
sbag0
(g1
g2
(lp670
Vthing
p671
atp672
Rp673
(dp674
g12
VNN
p675
sbatp676
Rp677
(dp678
g12
VNP
p679
sbag0
(g1
g2
(lp680
V,
p681
atp682
Rp683
(dp684
g12
V,
p685
sbag0
(g1
g2
(lp686
g0
(g1
g2
(lp687
Vlittle
p688
atp689
Rp690
(dp691
g12
VJJ
p692
sbag0
(g1
g2
(lp693
Voutdoor
p694
atp695
Rp696
(dp697
g12
VJJ
p698
sbag0
(g1
g2
(lp699
Vwheel
p700
atp701
Rp702
(dp703
g12
VNN
p704
sbatp705
Rp706
(dp707
g12
VNP
p708
sbatp709
Rp710
(dp711
g12
VNP
p712
sbatp713
Rp714
(dp715
g12
VPP
p716
sbatp717
Rp718
(dp719
g12
VNP
p720
sbatp721
Rp722
(dp723
g12
VPP
p724
sbatp725
Rp726
(dp727
g12
VVP
p728
sbatp729
Rp730
(dp731
g12
VNP
p732
sbatp733
Rp734
(dp735
g12
VVP
p736
sbatp737
Rp738
(dp739
g12
VVP
p740
sbatp741
Rp742
(dp743
g12
VS
p744
sbag0
(g1
g2
(lp745
V.
p746
atp747
Rp748
(dp749
g12
V.
p750
sbatp751
Rp752
(dp753
g12
VS
p754
sbatp755
Rp756
(dp757
g12
S'id: 4'
p758
sbag0
(g1
g2
(lp759
g0
(g1
g2
(lp760
g0
(g1
g2
(lp761
VAnd
p762
atp763
Rp764
(dp765
g12
VCC
p766
sbag0
(g1
g2
(lp767
g0
(g1
g2
(lp768
Vthen
p769
atp770
Rp771
(dp772
g12
VRB
p773
sbatp774
Rp775
(dp776
g12
VADVP
p777
sbag0
(g1
g2
(lp778
g0
(g1
g2
(lp779
Vthere
p780
atp781
Rp782
(dp783
g12
VEX
p784
sbatp785
Rp786
(dp787
g12
VNP
p788
sbag0
(g1
g2
(lp789
g0
(g1
g2
(lp790
V's
p791
atp792
Rp793
(dp794
g12
VVBZ
p795
sbag0
(g1
g2
(lp796
g0
(g1
g2
(lp797
g0
(g1
g2
(lp798
Vsome
p799
atp800
Rp801
(dp802
g12
VDT
p803
sbag0
(g1
g2
(lp804
Vpeople
p805
atp806
Rp807
(dp808
g12
VNNS
p809
sbatp810
Rp811
(dp812
g12
VNP
p813
sbag0
(g1
g2
(lp814
g0
(g1
g2
(lp815
Vin
p816
atp817
Rp818
(dp819
g12
VIN
p820
sbag0
(g1
g2
(lp821
g0
(g1
g2
(lp822
g0
(g1
g2
(lp823
Vthe
p824
atp825
Rp826
(dp827
g12
VDT
p828
sbag0
(g1
g2
(lp829
Vbackgoround
p830
atp831
Rp832
(dp833
g12
VJJ
p834
sbatp835
Rp836
(dp837
g12
VNP
p838
sbag0
(g1
g2
(lp839
g0
(g1
g2
(lp840
Vlooking
p841
atp842
Rp843
(dp844
g12
VVBG
p845
sbag0
(g1
g2
(lp846
g0
(g1
g2
(lp847
Vat
p848
atp849
Rp850
(dp851
g12
VIN
p852
sbag0
(g1
g2
(lp853
g0
(g1
g2
(lp854
Vthe
p855
atp856
Rp857
(dp858
g12
VDT
p859
sbag0
(g1
g2
(lp860
Vshow
p861
atp862
Rp863
(dp864
g12
VNN
p865
sbatp866
Rp867
(dp868
g12
VNP
p869
sbatp870
Rp871
(dp872
g12
VPP
p873
sbatp874
Rp875
(dp876
g12
VVP
p877
sbatp878
Rp879
(dp880
g12
VNP
p881
sbatp882
Rp883
(dp884
g12
VPP
p885
sbatp886
Rp887
(dp888
g12
VNP
p889
sbatp890
Rp891
(dp892
g12
VVP
p893
sbag0
(g1
g2
(lp894
V.
p895
atp896
Rp897
(dp898
g12
V.
p899
sbatp900
Rp901
(dp902
g12
VS
p903
sbatp904
Rp905
(dp906
g12
S'id: 5'
p907
sbag0
(g1
g2
(lp908
g0
(g1
g2
(lp909
g0
(g1
g2
(lp910
VAnd
p911
atp912
Rp913
(dp914
g12
VCC
p915
sbag0
(g1
g2
(lp916
g0
(g1
g2
(lp917
Vthere
p918
atp919
Rp920
(dp921
g12
VEX
p922
sbatp923
Rp924
(dp925
g12
VNP
p926
sbag0
(g1
g2
(lp927
g0
(g1
g2
(lp928
V's
p929
atp930
Rp931
(dp932
g12
VVBZ
p933
sbag0
(g1
g2
(lp934
g0
(g1
g2
(lp935
g0
(g1
g2
(lp936
Va
p937
atp938
Rp939
(dp940
g12
VDT
p941
sbag0
(g1
g2
(lp942
Vman
p943
atp944
Rp945
(dp946
g12
VNN
p947
sbag0
(g1
g2
(lp948
g0
(g1
g2
(lp949
Vup
p950
atp951
Rp952
(dp953
g12
VRP
p954
sbatp955
Rp956
(dp957
g12
VPRT
p958
sbatp959
Rp960
(dp961
g12
VNP
p962
sbag0
(g1
g2
(lp963
g0
(g1
g2
(lp964
Von
p965
atp966
Rp967
(dp968
g12
VIN
p969
sbag0
(g1
g2
(lp970
g0
(g1
g2
(lp971
Vthe
p972
atp973
Rp974
(dp975
g12
VDT
p976
sbag0
(g1
g2
(lp977
Vtop
p978
atp979
Rp980
(dp981
g12
VNN
p982
sbatp983
Rp984
(dp985
g12
VNP
p986
sbatp987
Rp988
(dp989
g12
VPP
p990
sbatp991
Rp992
(dp993
g12
VNP
p994
sbatp995
Rp996
(dp997
g12
VVP
p998
sbag0
(g1
g2
(lp999
V.
p1000
atp1001
Rp1002
(dp1003
g12
V.
p1004
sbatp1005
Rp1006
(dp1007
g12
VS
p1008
sbatp1009
Rp1010
(dp1011
g12
S'id: 6'
p1012
sbag0
(g1
g2
(lp1013
g0
(g1
g2
(lp1014
g0
(g1
g2
(lp1015
g0
(g1
g2
(lp1016
Vhe
p1017
atp1018
Rp1019
(dp1020
g12
VPRP
p1021
sbatp1022
Rp1023
(dp1024
g12
VNP
p1025
sbag0
(g1
g2
(lp1026
g0
(g1
g2
(lp1027
V's
p1028
atp1029
Rp1030
(dp1031
g12
VVBZ
p1032
sbag0
(g1
g2
(lp1033
V,
p1034
atp1035
Rp1036
(dp1037
g12
V,
p1038
sbag0
(g1
g2
(lp1039
g0
(g1
g2
(lp1040
g0
(g1
g2
(lp1041
Vwhat
p1042
atp1043
Rp1044
(dp1045
g12
VWP
p1046
sbatp1047
Rp1048
(dp1049
g12
VWHNP
p1050
sbag0
(g1
g2
(lp1051
g0
(g1
g2
(lp1052
Vdo
p1053
atp1054
Rp1055
(dp1056
g12
VVBP
p1057
sbag0
(g1
g2
(lp1058
g0
(g1
g2
(lp1059
Vthey
p1060
atp1061
Rp1062
(dp1063
g12
VPRP
p1064
sbatp1065
Rp1066
(dp1067
g12
VNP
p1068
sbag0
(g1
g2
(lp1069
g0
(g1
g2
(lp1070
Vcall
p1071
atp1072
Rp1073
(dp1074
g12
VVB
p1075
sbag0
(g1
g2
(lp1076
g0
(g1
g2
(lp1077
Vthem
p1078
atp1079
Rp1080
(dp1081
g12
VPRP
p1082
sbatp1083
Rp1084
(dp1085
g12
VNP
p1086
sbatp1087
Rp1088
(dp1089
g12
VVP
p1090
sbatp1091
Rp1092
(dp1093
g12
VSQ
p1094
sbatp1095
Rp1096
(dp1097
g12
VSBARQ
p1098
sbatp1099
Rp1100
(dp1101
g12
VVP
p1102
sbatp1103
Rp1104
(dp1105
g12
VS
p1106
sbatp1107
Rp1108
(dp1109
g12
S'id: 7'
p1110
sbatp1111
Rp1112
(dp1113
g12
S'sentences'
p1114
sb.