ccopy_reg
_reconstructor
p0
(cnltk.tree
Tree
p1
c__builtin__
list
p2
(lp3
g0
(g1
g2
(lp4
g0
(g1
g2
(lp5
g0
(g1
g2
(lp6
(lp7
S'word: It, index: 1'
p8
aatp9
Rp10
(dp11
S'_label'
p12
Vnsubj
p13
sbag0
(g1
g2
(lp14
(lp15
S"word: 's, index: 2"
p16
aatp17
Rp18
(dp19
g12
Vcop
p20
sbag0
(g1
g2
(lp21
(lp22
S'word: a, index: 3'
p23
aatp24
Rp25
(dp26
g12
Vdet
p27
sbag0
(g1
g2
(lp28
(lp29
S'word: puna, index: 4'
p30
aatp31
Rp32
(dp33
g12
Vnn
p34
sbag0
(g1
g2
(lp35
g0
(g1
g2
(lp36
g0
(g1
g2
(lp37
(lp38
S'word: the, index: 7'
p39
aatp40
Rp41
(dp42
g12
Vdet
p43
sbatp44
Rp45
(dp46
g12
S'word: circus, index: 8'
p47
sbatp48
Rp49
(dp50
g12
Vprep
p51
sbatp52
Rp53
(dp54
g12
S'word: day, index: 5'
p55
sbatp56
Rp57
(dp58
g12
S'id: 0'
p59
sbag0
(g1
g2
(lp60
g0
(g1
g2
(lp61
g0
(g1
g2
(lp62
(lp63
S'word: has, index: 3'
p64
aatp65
Rp66
(dp67
g12
Vaux
p68
sbag0
(g1
g2
(lp69
g0
(g1
g2
(lp70
g0
(g1
g2
(lp71
g0
(g1
g2
(lp72
g0
(g1
g2
(lp73
(lp74
S'word: na, index: 52'
p75
aatp76
Rp77
(dp78
g12
Vaux
p79
sbag0
(g1
g2
(lp80
(lp81
S'word: his, index: 54'
p82
aatp83
Rp84
(dp85
g12
Vdobj
p86
sbag0
(g1
g2
(lp87
g0
(g1
g2
(lp88
g0
(g1
g2
(lp89
(lp90
S'word: his, index: 56'
p91
aatp92
Rp93
(dp94
g12
Vposs
p95
sbag0
(g1
g2
(lp96
g0
(g1
g2
(lp97
g0
(g1
g2
(lp98
(lp99
S'word: some, index: 58'
p100
aatp101
Rp102
(dp103
g12
Vdet
p104
sbatp105
Rp106
(dp107
g12
S'word: candy, index: 59'
p108
sbatp109
Rp110
(dp111
g12
Vdep
p112
sbatp113
Rp114
(dp115
g12
S'word: sister, index: 57'
p116
sbatp117
Rp118
(dp119
g12
Vdobj
p120
sbatp121
Rp122
(dp123
g12
S'word: give, index: 53'
p124
sbatp125
Rp126
(dp127
g12
Vxcomp
p128
sbag0
(g1
g2
(lp129
g0
(g1
g2
(lp130
g0
(g1
g2
(lp131
(lp132
S'word: the, index: 47'
p133
aatp134
Rp135
(dp136
g12
Vdet
p137
sbag0
(g1
g2
(lp138
(lp139
S'word: little, index: 48'
p140
aatp141
Rp142
(dp143
g12
Vamod
p144
sbatp145
Rp146
(dp147
g12
S'word: squirt, index: 49'
p148
sbatp149
Rp150
(dp151
g12
Vnsubj
p152
sbag0
(g1
g2
(lp153
(lp154
S'word: is, index: 50'
p155
aatp156
Rp157
(dp158
g12
Vaux
p159
sbatp160
Rp161
(dp162
g12
S'word: gon, index: 51'
p163
sbatp164
Rp165
(dp166
g12
Vparataxis
p167
sbag0
(g1
g2
(lp168
g0
(g1
g2
(lp169
g0
(g1
g2
(lp170
(lp171
S'word: the, index: 5'
p172
aatp173
Rp174
(dp175
g12
Vdet
p176
sbag0
(g1
g2
(lp177
(lp178
S'word: little, index: 6'
p179
aatp180
Rp181
(dp182
g12
Vamod
p183
sbag0
(g1
g2
(lp184
g0
(g1
g2
(lp185
g0
(g1
g2
(lp186
(lp187
S'word: a, index: 9'
p188
aatp189
Rp190
(dp191
g12
Vdet
p192
sbatp193
Rp194
(dp195
g12
S'word: ride, index: 10'
p196
sbatp197
Rp198
(dp199
g12
Vprep
p200
sbatp201
Rp202
(dp203
g12
S'word: sister, index: 7'
p204
sbatp205
Rp206
(dp207
g12
Vdobj
p208
sbag0
(g1
g2
(lp209
g0
(g1
g2
(lp210
g0
(g1
g2
(lp211
(lp212
S'word: he, index: 25'
p213
aatp214
Rp215
(dp216
g12
Vnsubj
p217
sbag0
(g1
g2
(lp218
(lp219
S"word: 's, index: 26"
p220
aatp221
Rp222
(dp223
g12
Vaux
p224
sbatp225
Rp226
(dp227
g12
S'word: catching, index: 27'
p228
sbatp229
Rp230
(dp231
g12
Vconj
p232
sbag0
(g1
g2
(lp233
(lp234
S'word: so, index: 46'
p235
aatp236
Rp237
(dp238
g12
Vdep
p239
sbag0
(g1
g2
(lp240
g0
(g1
g2
(lp241
g0
(g1
g2
(lp242
g0
(g1
g2
(lp243
g0
(g1
g2
(lp244
(lp245
S'word: the, index: 20'
p246
aatp247
Rp248
(dp249
g12
Vdet
p250
sbag0
(g1
g2
(lp251
(lp252
S'word: little, index: 21'
p253
aatp254
Rp255
(dp256
g12
Vamod
p257
sbatp258
Rp259
(dp260
g12
S'word: boy, index: 22'
p261
sbatp262
Rp263
(dp264
g12
Vprep
p265
sbag0
(g1
g2
(lp266
g0
(g1
g2
(lp267
g0
(g1
g2
(lp268
(lp269
S'word: she, index: 40'
p270
aatp271
Rp272
(dp273
g12
Vnsubj
p274
sbag0
(g1
g2
(lp275
g0
(g1
g2
(lp276
g0
(g1
g2
(lp277
g0
(g1
g2
(lp278
g0
(g1
g2
(lp279
(lp280
S'word: any, index: 43'
p281
aatp282
Rp283
(dp284
g12
Vdet
p285
sbatp286
Rp287
(dp288
g12
S'word: candy, index: 44'
p289
sbatp290
Rp291
(dp292
g12
Vdobj
p293
sbatp294
Rp295
(dp296
g12
S'word: catch, index: 42'
p297
sbatp298
Rp299
(dp300
g12
Vxcomp
p301
sbatp302
Rp303
(dp304
g12
S'word: cant, index: 41'
p305
sbatp306
Rp307
(dp308
g12
Vconj
p309
sbag0
(g1
g2
(lp310
g226
atp311
Rp312
(dp313
g12
Vconj
p314
sbag0
(g1
g2
(lp315
g0
(g1
g2
(lp316
g0
(g1
g2
(lp317
(lp318
S'word: the, index: 13'
p319
aatp320
Rp321
(dp322
g12
Vdet
p323
sbatp324
Rp325
(dp326
g12
S'word: clown, index: 14'
p327
sbatp328
Rp329
(dp330
g12
Vnsubj
p331
sbag0
(g1
g2
(lp332
(lp333
S'word: is, index: 15'
p334
aatp335
Rp336
(dp337
g12
Vaux
p338
sbag0
(g1
g2
(lp339
g0
(g1
g2
(lp340
g0
(g1
g2
(lp341
g0
(g1
g2
(lp342
g0
(g1
g2
(lp343
g0
(g1
g2
(lp344
g0
(g1
g2
(lp345
(lp346
S'word: the, index: 34'
p347
aatp348
Rp349
(dp350
g12
Vdet
p351
sbatp352
Rp353
(dp354
g12
S'word: mama, index: 35'
p355
sbatp356
Rp357
(dp358
g12
Vposs
p359
sbatp360
Rp361
(dp362
g12
S'word: hand, index: 37'
p363
sbatp364
Rp365
(dp366
g12
Vprep
p367
sbag0
(g1
g2
(lp368
g303
atp369
Rp370
(dp371
g12
Vconj
p372
sbag0
(g1
g2
(lp373
g0
(g1
g2
(lp374
g0
(g1
g2
(lp375
(lp376
S'word: the, index: 29'
p377
aatp378
Rp379
(dp380
g12
Vdet
p381
sbag0
(g1
g2
(lp382
(lp383
S'word: little, index: 30'
p384
aatp385
Rp386
(dp387
g12
Vamod
p388
sbatp389
Rp390
(dp391
g12
S'word: sister, index: 31'
p392
sbatp393
Rp394
(dp395
g12
Vnsubj
p396
sbatp397
Rp398
(dp399
g12
S'word: is, index: 32'
p400
sbatp401
Rp402
(dp403
g12
Vconj
p404
sbag0
(g1
g2
(lp405
(lp406
S'word: out, index: 17'
p407
aatp408
Rp409
(dp410
g12
Vprt
p411
sbag0
(g1
g2
(lp412
(lp413
S'word: candy, index: 18'
p414
aatp415
Rp416
(dp417
g12
Vdobj
p418
sbatp419
Rp420
(dp421
g12
S'word: giving, index: 16'
p422
sbatp423
Rp424
(dp425
g12
Vconj
p426
sbag0
(g1
g2
(lp427
g398
atp428
Rp429
(dp430
g12
Vconj
p431
sbag0
(g1
g2
(lp432
g0
(g1
g2
(lp433
g0
(g1
g2
(lp434
(lp435
S'word: The, index: 1'
p436
aatp437
Rp438
(dp439
g12
Vdet
p440
sbatp441
Rp442
(dp443
g12
S'word: brother, index: 2'
p444
sbatp445
Rp446
(dp447
g12
Vnsubj
p448
sbatp449
Rp450
(dp451
g12
S'word: taken, index: 4'
p452
sbatp453
Rp454
(dp455
g12
S'id: 1'
p456
sbag0
(g1
g2
(lp457
g0
(g1
g2
(lp458
g0
(g1
g2
(lp459
g0
(g1
g2
(lp460
g0
(g1
g2
(lp461
g0
(g1
g2
(lp462
g0
(g1
g2
(lp463
(lp464
S'word: the, index: 12'
p465
aatp466
Rp467
(dp468
g12
Vdet
p469
sbatp470
Rp471
(dp472
g12
S'word: brother, index: 13'
p473
sbatp474
Rp475
(dp476
g12
Vpobj
p477
sbatp478
Rp479
(dp480
g12
S'word: with, index: 11'
p481
sbatp482
Rp483
(dp484
g12
Vdep
p485
sbag0
(g1
g2
(lp486
(lp487
S'word: she, index: 15'
p488
aatp489
Rp490
(dp491
g12
Vnsubj
p492
sbag0
(g1
g2
(lp493
(lp494
S'word: And, index: 1'
p495
aatp496
Rp497
(dp498
g12
Vcc
p499
sbag0
(g1
g2
(lp500
g0
(g1
g2
(lp501
g0
(g1
g2
(lp502
(lp503
S'word: some, index: 17'
p504
aatp505
Rp506
(dp507
g12
Vdet
p508
sbatp509
Rp510
(dp511
g12
S'word: candy, index: 18'
p512
sbatp513
Rp514
(dp515
g12
Vdobj
p516
sbag0
(g1
g2
(lp517
g0
(g1
g2
(lp518
g0
(g1
g2
(lp519
(lp520
S'word: the, index: 2'
p521
aatp522
Rp523
(dp524
g12
Vdet
p525
sbag0
(g1
g2
(lp526
g0
(g1
g2
(lp527
g0
(g1
g2
(lp528
g0
(g1
g2
(lp529
g0
(g1
g2
(lp530
g0
(g1
g2
(lp531
g0
(g1
g2
(lp532
(lp533
S'word: the, index: 7'
p534
aatp535
Rp536
(dp537
g12
Vdet
p538
sbag0
(g1
g2
(lp539
(lp540
S'word: little, index: 8'
p541
aatp542
Rp543
(dp544
g12
Vamod
p545
sbatp546
Rp547
(dp548
g12
S'word: boy, index: 9'
p549
sbatp550
Rp551
(dp552
g12
Vprep
p553
sbatp554
Rp555
(dp556
g12
S'word: here, index: 5'
p557
sbatp558
Rp559
(dp560
g12
Vpobj
p561
sbatp562
Rp563
(dp564
g12
S'word: over, index: 4'
p565
sbatp566
Rp567
(dp568
g12
Vprep
p569
sbatp570
Rp571
(dp572
g12
S'word: one, index: 3'
p573
sbatp574
Rp575
(dp576
g12
Vnsubj
p577
sbag0
(g1
g2
(lp578
(lp579
S'word: too, index: 19'
p580
aatp581
Rp582
(dp583
g12
Vadvmod
p584
sbatp585
Rp586
(dp587
g12
S'word: wants, index: 16'
p588
sbatp589
Rp590
(dp591
g12
S'id: 2'
p592
sbag0
(g1
g2
(lp593
g0
(g1
g2
(lp594
g0
(g1
g2
(lp595
g0
(g1
g2
(lp596
g0
(g1
g2
(lp597
(lp598
S'word: I, index: 9'
p599
aatp600
Rp601
(dp602
g12
Vnsubj
p603
sbag0
(g1
g2
(lp604
g0
(g1
g2
(lp605
g0
(g1
g2
(lp606
g0
(g1
g2
(lp607
g0
(g1
g2
(lp608
(lp609
S'word: what, index: 12'
p610
aatp611
Rp612
(dp613
g12
Vdobj
p614
sbag0
(g1
g2
(lp615
(lp616
S'word: he, index: 13'
p617
aatp618
Rp619
(dp620
g12
Vnsubj
p621
sbag0
(g1
g2
(lp622
(lp623
S'word: is, index: 14'
p624
aatp625
Rp626
(dp627
g12
Vcop
p628
sbag0
(g1
g2
(lp629
(lp630
S'word: something, index: 18'
p631
aatp632
Rp633
(dp634
g12
Vconj
p635
sbatp636
Rp637
(dp638
g12
S'word: magician, index: 16'
p639
sbatp640
Rp641
(dp642
g12
Vccomp
p643
sbag0
(g1
g2
(lp644
(lp645
S'word: something, index: 18'
p646
aatp647
Rp648
(dp649
g12
Vccomp
p650
sbatp651
Rp652
(dp653
g12
S'word: know, index: 11'
p654
sbatp655
Rp656
(dp657
g12
Vxcomp
p658
sbatp659
Rp660
(dp661
g12
S'word: dont, index: 10'
p662
sbatp663
Rp664
(dp665
g12
Vparataxis
p666
sbag0
(g1
g2
(lp667
(lp668
S'word: And, index: 1'
p669
aatp670
Rp671
(dp672
g12
Vcc
p673
sbag0
(g1
g2
(lp674
g0
(g1
g2
(lp675
g0
(g1
g2
(lp676
(lp677
S'word: the, index: 2'
p678
aatp679
Rp680
(dp681
g12
Vdet
p682
sbag0
(g1
g2
(lp683
(lp684
S'word: circus, index: 3'
p685
aatp686
Rp687
(dp688
g12
Vnn
p689
sbag0
(g1
g2
(lp690
(lp691
S'word: something, index: 7'
p692
aatp693
Rp694
(dp695
g12
Vconj
p696
sbatp697
Rp698
(dp699
g12
S'word: clown, index: 4'
p700
sbatp701
Rp702
(dp703
g12
Vnsubj
p704
sbag0
(g1
g2
(lp705
(lp706
S'word: he, index: 20'
p707
aatp708
Rp709
(dp710
g12
Vnsubj
p711
sbag0
(g1
g2
(lp712
(lp713
S'word: something, index: 7'
p714
aatp715
Rp716
(dp717
g12
Vnsubj
p718
sbag0
(g1
g2
(lp719
g0
(g1
g2
(lp720
g0
(g1
g2
(lp721
g0
(g1
g2
(lp722
g0
(g1
g2
(lp723
(lp724
S'word: that, index: 25'
p725
aatp726
Rp727
(dp728
g12
Vdet
p729
sbatp730
Rp731
(dp732
g12
S'word: lion, index: 26'
p733
sbatp734
Rp735
(dp736
g12
Vprep
p737
sbatp738
Rp739
(dp740
g12
S'word: talking, index: 23'
p741
sbatp742
Rp743
(dp744
g12
Vprepc
p745
sbatp746
Rp747
(dp748
g12
S"word: 's, index: 21"
p749
sbatp750
Rp751
(dp752
g12
S'id: 3'
p753
sbag0
(g1
g2
(lp754
g0
(g1
g2
(lp755
g0
(g1
g2
(lp756
g0
(g1
g2
(lp757
g0
(g1
g2
(lp758
(lp759
S'word: If, index: 1'
p760
aatp761
Rp762
(dp763
g12
Vmark
p764
sbag0
(g1
g2
(lp765
(lp766
S'word: you, index: 2'
p767
aatp768
Rp769
(dp770
g12
Vnsubj
p771
sbatp772
Rp773
(dp774
g12
S'word: dont, index: 3'
p775
sbatp776
Rp777
(dp778
g12
Vcsubj
p779
sbag0
(g1
g2
(lp780
g0
(g1
g2
(lp781
g0
(g1
g2
(lp782
(lp783
S'word: his, index: 5'
p784
aatp785
Rp786
(dp787
g12
Vposs
p788
sbatp789
Rp790
(dp791
g12
S'word: hand, index: 6'
p792
sbatp793
Rp794
(dp795
g12
Vdobj
p796
sbag0
(g1
g2
(lp797
g0
(g1
g2
(lp798
g0
(g1
g2
(lp799
g0
(g1
g2
(lp800
g0
(g1
g2
(lp801
(lp802
S'word: that, index: 13'
p803
aatp804
Rp805
(dp806
g12
Vmark
p807
sbag0
(g1
g2
(lp808
(lp809
S'word: lion, index: 14'
p810
aatp811
Rp812
(dp813
g12
Vnsubj
p814
sbatp815
Rp816
(dp817
g12
S'word: go, index: 15'
p818
sbatp819
Rp820
(dp821
g12
Vdep
p822
sbag0
(g1
g2
(lp823
g0
(g1
g2
(lp824
g0
(g1
g2
(lp825
g0
(g1
g2
(lp826
g0
(g1
g2
(lp827
(lp828
S'word: na, index: 18'
p829
aatp830
Rp831
(dp832
g12
Vaux
p833
sbag0
(g1
g2
(lp834
(lp835
S'word: him, index: 20'
p836
aatp837
Rp838
(dp839
g12
Vdobj
p840
sbatp841
Rp842
(dp843
g12
S'word: attack, index: 19'
p844
sbatp845
Rp846
(dp847
g12
Vxcomp
p848
sbatp849
Rp850
(dp851
g12
S'word: gon, index: 17'
p852
sbatp853
Rp854
(dp855
g12
Vvmod
p856
sbag0
(g1
g2
(lp857
(lp858
S'word: that, index: 9'
p859
aatp860
Rp861
(dp862
g12
Vdet
p863
sbag0
(g1
g2
(lp864
(lp865
S'word: lion, index: 10'
p866
aatp867
Rp868
(dp869
g12
Vnn
p870
sbatp871
Rp872
(dp873
g12
S'word: face, index: 11'
p874
sbatp875
Rp876
(dp877
g12
Vprep
p878
sbatp879
Rp880
(dp881
g12
S'word: get, index: 4'
p882
sbatp883
Rp884
(dp885
g12
S'id: 4'
p886
sbag0
(g1
g2
(lp887
g0
(g1
g2
(lp888
g0
(g1
g2
(lp889
g0
(g1
g2
(lp890
g0
(g1
g2
(lp891
(lp892
S'word: a, index: 13'
p893
aatp894
Rp895
(dp896
g12
Vdet
p897
sbag0
(g1
g2
(lp898
(lp899
S'word: good, index: 14'
p900
aatp901
Rp902
(dp903
g12
Vamod
p904
sbatp905
Rp906
(dp907
g12
S'word: job, index: 15'
p908
sbatp909
Rp910
(dp911
g12
Vdep
p912
sbag0
(g1
g2
(lp913
g0
(g1
g2
(lp914
g0
(g1
g2
(lp915
(lp916
S'word: And, index: 1'
p917
aatp918
Rp919
(dp920
g12
Vcc
p921
sbag0
(g1
g2
(lp922
g0
(g1
g2
(lp923
g0
(g1
g2
(lp924
g0
(g1
g2
(lp925
g0
(g1
g2
(lp926
(lp927
S'word: just, index: 2'
p928
aatp929
Rp930
(dp931
g12
Vadvmod
p932
sbag0
(g1
g2
(lp933
(lp934
S'word: a, index: 3'
p935
aatp936
Rp937
(dp938
g12
Vdet
p939
sbatp940
Rp941
(dp942
g12
S'word: joker, index: 4'
p943
sbatp944
Rp945
(dp946
g12
Vnpadvmod
p947
sbag0
(g1
g2
(lp948
(lp949
S'word: there, index: 6'
p950
aatp951
Rp952
(dp953
g12
Vadvmod
p954
sbatp955
Rp956
(dp957
g12
S'word: up, index: 5'
p958
sbatp959
Rp960
(dp961
g12
Vdep
p962
sbag0
(g1
g2
(lp963
(lp964
S'word: tight, index: 7'
p965
aatp966
Rp967
(dp968
g12
Vamod
p969
sbatp970
Rp971
(dp972
g12
S'word: rope, index: 8'
p973
sbatp974
Rp975
(dp976
g12
Vdep
p977
sbag0
(g1
g2
(lp978
(lp979
S'word: he, index: 10'
p980
aatp981
Rp982
(dp983
g12
Vnsubj
p984
sbag0
(g1
g2
(lp985
(lp986
S"word: 's, index: 11"
p987
aatp988
Rp989
(dp990
g12
Vcop
p991
sbatp992
Rp993
(dp994
g12
S'word: doin, index: 12'
p995
sbatp996
Rp997
(dp998
g12
S'id: 5'
p999
sbag0
(g1
g2
(lp1000
g0
(g1
g2
(lp1001
g0
(g1
g2
(lp1002
(lp1003
S'word: are, index: 18'
p1004
aatp1005
Rp1006
(dp1007
g12
Vaux
p1008
sbag0
(g1
g2
(lp1009
g0
(g1
g2
(lp1010
g0
(g1
g2
(lp1011
(lp1012
S'word: the, index: 21'
p1013
aatp1014
Rp1015
(dp1016
g12
Vdet
p1017
sbatp1018
Rp1019
(dp1020
g12
S'word: bench, index: 22'
p1021
sbatp1022
Rp1023
(dp1024
g12
Vprep
p1025
sbag0
(g1
g2
(lp1026
(lp1027
S'word: him, index: 24'
p1028
aatp1029
Rp1030
(dp1031
g12
Vprep
p1032
sbag0
(g1
g2
(lp1033
g0
(g1
g2
(lp1034
g0
(g1
g2
(lp1035
(lp1036
S'word: him, index: 27'
p1037
aatp1038
Rp1039
(dp1040
g12
Vdobj
p1041
sbatp1042
Rp1043
(dp1044
g12
S'word: watching, index: 26'
p1045
sbatp1046
Rp1047
(dp1048
g12
Vvmod
p1049
sbag0
(g1
g2
(lp1050
g0
(g1
g2
(lp1051
g0
(g1
g2
(lp1052
(lp1053
S"word: 's, index: 2"
p1054
aatp1055
Rp1056
(dp1057
g12
Vpossessive
p1058
sbag0
(g1
g2
(lp1059
(lp1060
S'word: sitting, index: 3'
p1061
aatp1062
Rp1063
(dp1064
g12
Vamod
p1065
sbag0
(g1
g2
(lp1066
(lp1067
S'word: there, index: 4'
p1068
aatp1069
Rp1070
(dp1071
g12
Vadvmod
p1072
sbag0
(g1
g2
(lp1073
(lp1074
S'word: one, index: 6'
p1075
aatp1076
Rp1077
(dp1078
g12
Vamod
p1079
sbag0
(g1
g2
(lp1080
g0
(g1
g2
(lp1081
g0
(g1
g2
(lp1082
(lp1083
S'word: there, index: 10'
p1084
aatp1085
Rp1086
(dp1087
g12
Vconj
p1088
sbag0
(g1
g2
(lp1089
(lp1090
S'word: four, index: 12'
p1091
aatp1092
Rp1093
(dp1094
g12
Vconj
p1095
sbag0
(g1
g2
(lp1096
(lp1097
S'word: four, index: 14'
p1098
aatp1099
Rp1100
(dp1101
g12
Vconj
p1102
sbag0
(g1
g2
(lp1103
g0
(g1
g2
(lp1104
g0
(g1
g2
(lp1105
(lp1106
S'word: two, index: 16'
p1107
aatp1108
Rp1109
(dp1110
g12
Vnum
p1111
sbatp1112
Rp1113
(dp1114
g12
S'word: peoples, index: 17'
p1115
sbatp1116
Rp1117
(dp1118
g12
Vconj
p1119
sbatp1120
Rp1121
(dp1122
g12
S'word: two, index: 8'
p1123
sbatp1124
Rp1125
(dp1126
g12
Vappos
p1127
sbag0
(g1
g2
(lp1128
(lp1129
S'word: there, index: 10'
p1130
aatp1131
Rp1132
(dp1133
g12
Vappos
p1134
sbag0
(g1
g2
(lp1135
(lp1136
S'word: four, index: 12'
p1137
aatp1138
Rp1139
(dp1140
g12
Vappos
p1141
sbag0
(g1
g2
(lp1142
(lp1143
S'word: four, index: 14'
p1144
aatp1145
Rp1146
(dp1147
g12
Vappos
p1148
sbag0
(g1
g2
(lp1149
g1113
atp1150
Rp1151
(dp1152
g12
Vappos
p1153
sbatp1154
Rp1155
(dp1156
g12
S'word: Everybody, index: 1'
p1157
sbatp1158
Rp1159
(dp1160
g12
Vnsubj
p1161
sbatp1162
Rp1163
(dp1164
g12
S'word: sitting, index: 19'
p1165
sbatp1166
Rp1167
(dp1168
g12
S'id: 6'
p1169
sbag0
(g1
g2
(lp1170
g0
(g1
g2
(lp1171
g0
(g1
g2
(lp1172
g0
(g1
g2
(lp1173
g0
(g1
g2
(lp1174
(lp1175
S'word: the, index: 5'
p1176
aatp1177
Rp1178
(dp1179
g12
Vdet
p1180
sbag0
(g1
g2
(lp1181
(lp1182
S'word: something, index: 9'
p1183
aatp1184
Rp1185
(dp1186
g12
Vconj
p1187
sbag0
(g1
g2
(lp1188
g0
(g1
g2
(lp1189
g0
(g1
g2
(lp1190
(lp1191
S'word: is, index: 10'
p1192
aatp1193
Rp1194
(dp1195
g12
Vaux
p1196
sbag0
(g1
g2
(lp1197
g0
(g1
g2
(lp1198
g0
(g1
g2
(lp1199
(lp1200
S'word: the, index: 12'
p1201
aatp1202
Rp1203
(dp1204
g12
Vdet
p1205
sbatp1206
Rp1207
(dp1208
g12
S'word: pony, index: 13'
p1209
sbatp1210
Rp1211
(dp1212
g12
Vdobj
p1213
sbag0
(g1
g2
(lp1214
(lp1215
S'word: there, index: 16'
p1216
aatp1217
Rp1218
(dp1219
g12
Vprep
p1220
sbatp1221
Rp1222
(dp1223
g12
S'word: riding, index: 11'
p1224
sbatp1225
Rp1226
(dp1227
g12
Vrcmod
p1228
sbatp1229
Rp1230
(dp1231
g12
S'word: mermaid, index: 6'
p1232
sbatp1233
Rp1234
(dp1235
g12
Vdobj
p1236
sbag0
(g1
g2
(lp1237
(lp1238
S'word: something, index: 9'
p1239
aatp1240
Rp1241
(dp1242
g12
Vdobj
p1243
sbag0
(g1
g2
(lp1244
(lp1245
S'word: And, index: 1'
p1246
aatp1247
Rp1248
(dp1249
g12
Vcc
p1250
sbag0
(g1
g2
(lp1251
(lp1252
S'word: what, index: 3'
p1253
aatp1254
Rp1255
(dp1256
g12
Vnsubj
p1257
sbatp1258
Rp1259
(dp1260
g12
S'word: said, index: 4'
p1261
sbatp1262
Rp1263
(dp1264
g12
S'id: 7'
p1265
sbag0
(g1
g2
(lp1266
g0
(g1
g2
(lp1267
g0
(g1
g2
(lp1268
(lp1269
S'word: should, index: 8'
p1270
aatp1271
Rp1272
(dp1273
g12
Vaux
p1274
sbag0
(g1
g2
(lp1275
(lp1276
S'word: be, index: 9'
p1277
aatp1278
Rp1279
(dp1280
g12
Vcop
p1281
sbag0
(g1
g2
(lp1282
(lp1283
S'word: two, index: 10'
p1284
aatp1285
Rp1286
(dp1287
g12
Vnum
p1288
sbag0
(g1
g2
(lp1289
g0
(g1
g2
(lp1290
g0
(g1
g2
(lp1291
(lp1292
S'word: this, index: 13'
p1293
aatp1294
Rp1295
(dp1296
g12
Vnsubj
p1297
sbag0
(g1
g2
(lp1298
g0
(g1
g2
(lp1299
g0
(g1
g2
(lp1300
(lp1301
S'word: to, index: 15'
p1302
aatp1303
Rp1304
(dp1305
g12
Vaux
p1306
sbag0
(g1
g2
(lp1307
(lp1308
S'word: be, index: 16'
p1309
aatp1310
Rp1311
(dp1312
g12
Vcop
p1313
sbag0
(g1
g2
(lp1314
(lp1315
S'word: a, index: 17'
p1316
aatp1317
Rp1318
(dp1319
g12
Vdet
p1320
sbag0
(g1
g2
(lp1321
(lp1322
S'word: warm, index: 18'
p1323
aatp1324
Rp1325
(dp1326
g12
Vamod
p1327
sbag0
(g1
g2
(lp1328
g0
(g1
g2
(lp1329
g0
(g1
g2
(lp1330
g0
(g1
g2
(lp1331
g0
(g1
g2
(lp1332
(lp1333
S'word: short, index: 24'
p1334
aatp1335
Rp1336
(dp1337
g12
Vamod
p1338
sbatp1339
Rp1340
(dp1341
g12
S'word: sleeves, index: 25'
p1342
sbatp1343
Rp1344
(dp1345
g12
Vpobj
p1346
sbag0
(g1
g2
(lp1347
(lp1348
S'word: because, index: 20'
p1349
aatp1350
Rp1351
(dp1352
g12
Vmark
p1353
sbag0
(g1
g2
(lp1354
(lp1355
S'word: everyone, index: 21'
p1356
aatp1357
Rp1358
(dp1359
g12
Vnsubj
p1360
sbag0
(g1
g2
(lp1361
(lp1362
S'word: has, index: 22'
p1363
aatp1364
Rp1365
(dp1366
g12
Vaux
p1367
sbatp1368
Rp1369
(dp1370
g12
S'word: on, index: 23'
p1371
sbatp1372
Rp1373
(dp1374
g12
Vadvcl
p1375
sbatp1376
Rp1377
(dp1378
g12
S'word: day, index: 19'
p1379
sbatp1380
Rp1381
(dp1382
g12
Vxcomp
p1383
sbatp1384
Rp1385
(dp1386
g12
S'word: seems, index: 14'
p1387
sbatp1388
Rp1389
(dp1390
g12
Vconj
p1391
sbag0
(g1
g2
(lp1392
g0
(g1
g2
(lp1393
g0
(g1
g2
(lp1394
(lp1395
S'word: his, index: 3'
p1396
aatp1397
Rp1398
(dp1399
g12
Vposs
p1400
sbatp1401
Rp1402
(dp1403
g12
S'word: area, index: 4'
p1404
sbatp1405
Rp1406
(dp1407
g12
Vprep
p1408
sbag0
(g1
g2
(lp1409
(lp1410
S'word: there, index: 7'
p1411
aatp1412
Rp1413
(dp1414
g12
Vexpl
p1415
sbatp1416
Rp1417
(dp1418
g12
S'word: X., index: 11'
p1419
sbatp1420
Rp1421
(dp1422
g12
S'id: 8'
p1423
sbag0
(g1
g2
(lp1424
g0
(g1
g2
(lp1425
g0
(g1
g2
(lp1426
(lp1427
S"word: 's, index: 11"
p1428
aatp1429
Rp1430
(dp1431
g12
Vaux
p1432
sbag0
(g1
g2
(lp1433
g0
(g1
g2
(lp1434
g0
(g1
g2
(lp1435
(lp1436
S'word: a, index: 13'
p1437
aatp1438
Rp1439
(dp1440
g12
Vdet
p1441
sbag0
(g1
g2
(lp1442
(lp1443
S'word: good, index: 14'
p1444
aatp1445
Rp1446
(dp1447
g12
Vamod
p1448
sbag0
(g1
g2
(lp1449
g0
(g1
g2
(lp1450
g0
(g1
g2
(lp1451
(lp1452
S'word: the, index: 17'
p1453
aatp1454
Rp1455
(dp1456
g12
Vdet
p1457
sbatp1458
Rp1459
(dp1460
g12
S'word: circus, index: 18'
p1461
sbatp1462
Rp1463
(dp1464
g12
Vprep
p1465
sbatp1466
Rp1467
(dp1468
g12
S'word: time, index: 15'
p1469
sbatp1470
Rp1471
(dp1472
g12
Vdobj
p1473
sbag0
(g1
g2
(lp1474
(lp1475
S'word: And, index: 1'
p1476
aatp1477
Rp1478
(dp1479
g12
Vcc
p1480
sbag0
(g1
g2
(lp1481
g0
(g1
g2
(lp1482
g0
(g1
g2
(lp1483
(lp1484
S'word: little, index: 2'
p1485
aatp1486
Rp1487
(dp1488
g12
Vamod
p1489
sbag0
(g1
g2
(lp1490
g0
(g1
g2
(lp1491
g0
(g1
g2
(lp1492
g0
(g1
g2
(lp1493
g0
(g1
g2
(lp1494
(lp1495
S'word: the, index: 5'
p1496
aatp1497
Rp1498
(dp1499
g12
Vdet
p1500
sbatp1501
Rp1502
(dp1503
g12
S'word: mother, index: 6'
p1504
sbatp1505
Rp1506
(dp1507
g12
Vposs
p1508
sbag0
(g1
g2
(lp1509
(lp1510
S'word: she, index: 10'
p1511
aatp1512
Rp1513
(dp1514
g12
Vappos
p1515
sbatp1516
Rp1517
(dp1518
g12
S'word: holding, index: 8'
p1519
sbatp1520
Rp1521
(dp1522
g12
Vappos
p1523
sbatp1524
Rp1525
(dp1526
g12
S'word: girl, index: 3'
p1527
sbatp1528
Rp1529
(dp1530
g12
Vnsubj
p1531
sbatp1532
Rp1533
(dp1534
g12
S'word: having, index: 12'
p1535
sbatp1536
Rp1537
(dp1538
g12
S'id: 9'
p1539
sbag0
(g1
g2
(lp1540
g0
(g1
g2
(lp1541
g0
(g1
g2
(lp1542
g0
(g1
g2
(lp1543
g0
(g1
g2
(lp1544
(lp1545
S'word: the, index: 2'
p1546
aatp1547
Rp1548
(dp1549
g12
Vdet
p1550
sbatp1551
Rp1552
(dp1553
g12
S'word: mama, index: 3'
p1554
sbatp1555
Rp1556
(dp1557
g12
Vnsubj
p1558
sbag0
(g1
g2
(lp1559
g0
(g1
g2
(lp1560
g0
(g1
g2
(lp1561
(lp1562
S'word: na, index: 5'
p1563
aatp1564
Rp1565
(dp1566
g12
Vaux
p1567
sbag0
(g1
g2
(lp1568
g0
(g1
g2
(lp1569
g0
(g1
g2
(lp1570
g0
(g1
g2
(lp1571
g0
(g1
g2
(lp1572
(lp1573
S'word: soon, index: 15'
p1574
aatp1575
Rp1576
(dp1577
g12
Vadvmod
p1578
sbag0
(g1
g2
(lp1579
(lp1580
S'word: as, index: 16'
p1581
aatp1582
Rp1583
(dp1584
g12
Vmark
p1585
sbag0
(g1
g2
(lp1586
(lp1587
S'word: she, index: 17'
p1588
aatp1589
Rp1590
(dp1591
g12
Vnsubj
p1592
sbag0
(g1
g2
(lp1593
(lp1594
S'word: home, index: 19'
p1595
aatp1596
Rp1597
(dp1598
g12
Vdobj
p1599
sbatp1600
Rp1601
(dp1602
g12
S'word: get, index: 18'
p1603
sbatp1604
Rp1605
(dp1606
g12
Vadvcl
p1607
sbag0
(g1
g2
(lp1608
(lp1609
S'word: to, index: 7'
p1610
aatp1611
Rp1612
(dp1613
g12
Vaux
p1614
sbag0
(g1
g2
(lp1615
(lp1616
S'word: her, index: 9'
p1617
aatp1618
Rp1619
(dp1620
g12
Vdobj
p1621
sbag0
(g1
g2
(lp1622
(lp1623
S'word: bed, index: 11'
p1624
aatp1625
Rp1626
(dp1627
g12
Vprep
p1628
sbag0
(g1
g2
(lp1629
(lp1630
S'word: soon, index: 13'
p1631
aatp1632
Rp1633
(dp1634
g12
Vadvmod
p1635
sbatp1636
Rp1637
(dp1638
g12
S'word: put, index: 8'
p1639
sbatp1640
Rp1641
(dp1642
g12
Vxcomp
p1643
sbatp1644
Rp1645
(dp1646
g12
S'word: have, index: 6'
p1647
sbatp1648
Rp1649
(dp1650
g12
Vxcomp
p1651
sbag0
(g1
g2
(lp1652
g0
(g1
g2
(lp1653
g0
(g1
g2
(lp1654
(lp1655
S'word: she, index: 22'
p1656
aatp1657
Rp1658
(dp1659
g12
Vnsubj
p1660
sbag0
(g1
g2
(lp1661
g0
(g1
g2
(lp1662
g0
(g1
g2
(lp1663
(lp1664
S'word: like, index: 24'
p1665
aatp1666
Rp1667
(dp1668
g12
Vmark
p1669
sbag0
(g1
g2
(lp1670
(lp1671
S'word: she, index: 25'
p1672
aatp1673
Rp1674
(dp1675
g12
Vnsubj
p1676
sbatp1677
Rp1678
(dp1679
g12
S'word: tired, index: 26'
p1680
sbatp1681
Rp1682
(dp1683
g12
Vadvcl
p1684
sbatp1685
Rp1686
(dp1687
g12
S'word: look, index: 23'
p1688
sbatp1689
Rp1690
(dp1691
g12
Vconj
p1692
sbatp1693
Rp1694
(dp1695
g12
S'word: gon, index: 4'
p1696
sbatp1697
Rp1698
(dp1699
g12
S'id: 10'
p1700
sbag0
(g1
g2
(lp1701
g0
(g1
g2
(lp1702
g0
(g1
g2
(lp1703
(lp1704
S'word: And, index: 1'
p1705
aatp1706
Rp1707
(dp1708
g12
Vcc
p1709
sbag0
(g1
g2
(lp1710
g0
(g1
g2
(lp1711
g0
(g1
g2
(lp1712
(lp1713
S'word: up, index: 18'
p1714
aatp1715
Rp1716
(dp1717
g12
Vprt
p1718
sbag0
(g1
g2
(lp1719
g0
(g1
g2
(lp1720
g0
(g1
g2
(lp1721
(lp1722
S'word: her, index: 20'
p1723
aatp1724
Rp1725
(dp1726
g12
Vposs
p1727
sbag0
(g1
g2
(lp1728
(lp1729
S'word: two, index: 21'
p1730
aatp1731
Rp1732
(dp1733
g12
Vnum
p1734
sbatp1735
Rp1736
(dp1737
g12
S'word: feet, index: 22'
p1738
sbatp1739
Rp1740
(dp1741
g12
Vprep
p1742
sbag0
(g1
g2
(lp1743
(lp1744
S'word: she, index: 15'
p1745
aatp1746
Rp1747
(dp1748
g12
Vnsubj
p1749
sbag0
(g1
g2
(lp1750
(lp1751
S'word: can, index: 16'
p1752
aatp1753
Rp1754
(dp1755
g12
Vaux
p1756
sbatp1757
Rp1758
(dp1759
g12
S'word: stand, index: 17'
p1760
sbatp1761
Rp1762
(dp1763
g12
Vdep
p1764
sbag0
(g1
g2
(lp1765
(lp1766
S'word: that, index: 2'
p1767
aatp1768
Rp1769
(dp1770
g12
Vdet
p1771
sbag0
(g1
g2
(lp1772
(lp1773
S'word: oldest, index: 3'
p1774
aatp1775
Rp1776
(dp1777
g12
Vamod
p1778
sbag0
(g1
g2
(lp1779
(lp1780
S'word: little, index: 4'
p1781
aatp1782
Rp1783
(dp1784
g12
Vamod
p1785
sbag0
(g1
g2
(lp1786
g0
(g1
g2
(lp1787
g0
(g1
g2
(lp1788
(lp1789
S'word: she, index: 6'
p1790
aatp1791
Rp1792
(dp1793
g12
Vnsubj
p1794
sbag0
(g1
g2
(lp1795
g0
(g1
g2
(lp1796
g0
(g1
g2
(lp1797
(lp1798
S'word: she, index: 9'
p1799
aatp1800
Rp1801
(dp1802
g12
Vnsubj
p1803
sbag0
(g1
g2
(lp1804
(lp1805
S"word: 's, index: 10"
p1806
aatp1807
Rp1808
(dp1809
g12
Vcop
p1810
sbag0
(g1
g2
(lp1811
(lp1812
S'word: not, index: 11'
p1813
aatp1814
Rp1815
(dp1816
g12
Vneg
p1817
sbag0
(g1
g2
(lp1818
g0
(g1
g2
(lp1819
g0
(g1
g2
(lp1820
(lp1821
S'word: too, index: 12'
p1822
aatp1823
Rp1824
(dp1825
g12
Vadvmod
p1826
sbatp1827
Rp1828
(dp1829
g12
S'word: tired, index: 13'
p1830
sbatp1831
Rp1832
(dp1833
g12
Vamod
p1834
sbatp1835
Rp1836
(dp1837
g12
S'word: cause, index: 14'
p1838
sbatp1839
Rp1840
(dp1841
g12
Vccomp
p1842
sbatp1843
Rp1844
(dp1845
g12
S'word: is, index: 7'
p1846
sbatp1847
Rp1848
(dp1849
g12
Vrcmod
p1850
sbatp1851
Rp1852
(dp1853
g12
S'word: girl, index: 5'
p1854
sbatp1855
Rp1856
(dp1857
g12
S'id: 11'
p1858
sbag0
(g1
g2
(lp1859
g0
(g1
g2
(lp1860
g0
(g1
g2
(lp1861
g0
(g1
g2
(lp1862
g0
(g1
g2
(lp1863
g0
(g1
g2
(lp1864
g0
(g1
g2
(lp1865
g0
(g1
g2
(lp1866
g0
(g1
g2
(lp1867
(lp1868
S'word: those, index: 7'
p1869
aatp1870
Rp1871
(dp1872
g12
Vdet
p1873
sbag0
(g1
g2
(lp1874
g0
(g1
g2
(lp1875
g0
(g1
g2
(lp1876
(lp1877
S'word: four, index: 10'
p1878
aatp1879
Rp1880
(dp1881
g12
Vnum
p1882
sbag0
(g1
g2
(lp1883
(lp1884
S'word: little, index: 11'
p1885
aatp1886
Rp1887
(dp1888
g12
Vamod
p1889
sbatp1890
Rp1891
(dp1892
g12
S'word: bo, index: 12'
p1893
sbatp1894
Rp1895
(dp1896
g12
Vappos
p1897
sbatp1898
Rp1899
(dp1900
g12
S'word: fo, index: 8'
p1901
sbatp1902
Rp1903
(dp1904
g12
Vpobj
p1905
sbatp1906
Rp1907
(dp1908
g12
S'word: with, index: 6'
p1909
sbatp1910
Rp1911
(dp1912
g12
Vdep
p1913
sbag0
(g1
g2
(lp1914
g0
(g1
g2
(lp1915
g0
(g1
g2
(lp1916
g0
(g1
g2
(lp1917
g0
(g1
g2
(lp1918
(lp1919
S'word: there, index: 16'
p1920
aatp1921
Rp1922
(dp1923
g12
Vpobj
p1924
sbatp1925
Rp1926
(dp1927
g12
S'word: in, index: 15'
p1928
sbatp1929
Rp1930
(dp1931
g12
Vprep
p1932
sbatp1933
Rp1934
(dp1935
g12
S'word: bows, index: 14'
p1936
sbatp1937
Rp1938
(dp1939
g12
Vdep
p1940
sbatp1941
Rp1942
(dp1943
g12
S'word: pretty, index: 4'
p1944
sbatp1945
Rp1946
(dp1947
g12
Vadvmod
p1948
sbag0
(g1
g2
(lp1949
g0
(g1
g2
(lp1950
g0
(g1
g2
(lp1951
(lp1952
S'word: Her, index: 1'
p1953
aatp1954
Rp1955
(dp1956
g12
Vposs
p1957
sbatp1958
Rp1959
(dp1960
g12
S'word: hair, index: 2'
p1961
sbatp1962
Rp1963
(dp1964
g12
Vnsubj
p1965
sbatp1966
Rp1967
(dp1968
g12
S'word: is, index: 3'
p1969
sbatp1970
Rp1971
(dp1972
g12
S'id: 12'
p1973
sbag0
(g1
g2
(lp1974
g0
(g1
g2
(lp1975
g0
(g1
g2
(lp1976
(lp1977
S'word: And, index: 1'
p1978
aatp1979
Rp1980
(dp1981
g12
Vcc
p1982
sbag0
(g1
g2
(lp1983
(lp1984
S'word: I, index: 2'
p1985
aatp1986
Rp1987
(dp1988
g12
Vnsubj
p1989
sbag0
(g1
g2
(lp1990
g0
(g1
g2
(lp1991
g0
(g1
g2
(lp1992
g0
(g1
g2
(lp1993
g0
(g1
g2
(lp1994
(lp1995
S'word: one, index: 7'
p1996
aatp1997
Rp1998
(dp1999
g12
Vnum
p2000
sbag0
(g1
g2
(lp2001
g0
(g1
g2
(lp2002
g0
(g1
g2
(lp2003
(lp2004
S'word: her, index: 10'
p2005
aatp2006
Rp2007
(dp2008
g12
Vposs
p2009
sbatp2010
Rp2011
(dp2012
g12
S'word: hair, index: 11'
p2013
sbatp2014
Rp2015
(dp2016
g12
Vprep
p2017
sbatp2018
Rp2019
(dp2020
g12
S'word: bow, index: 8'
p2021
sbatp2022
Rp2023
(dp2024
g12
Vdobj
p2025
sbag0
(g1
g2
(lp2026
g0
(g1
g2
(lp2027
g0
(g1
g2
(lp2028
(lp2029
S'word: the, index: 4'
p2030
aatp2031
Rp2032
(dp2033
g12
Vdet
p2034
sbatp2035
Rp2036
(dp2037
g12
S'word: baby, index: 5'
p2038
sbatp2039
Rp2040
(dp2041
g12
Vnsubj
p2042
sbatp2043
Rp2044
(dp2045
g12
S'word: has, index: 6'
p2046
sbatp2047
Rp2048
(dp2049
g12
Vccomp
p2050
sbatp2051
Rp2052
(dp2053
g12
S'word: think, index: 3'
p2054
sbatp2055
Rp2056
(dp2057
g12
S'id: 13'
p2058
sbag0
(g1
g2
(lp2059
g0
(g1
g2
(lp2060
g0
(g1
g2
(lp2061
(lp2062
S'word: And, index: 1'
p2063
aatp2064
Rp2065
(dp2066
g12
Vcc
p2067
sbag0
(g1
g2
(lp2068
g0
(g1
g2
(lp2069
g0
(g1
g2
(lp2070
(lp2071
S'word: the, index: 2'
p2072
aatp2073
Rp2074
(dp2075
g12
Vdet
p2076
sbag0
(g1
g2
(lp2077
(lp2078
S'word: brother, index: 3'
p2079
aatp2080
Rp2081
(dp2082
g12
Vnn
p2083
sbag0
(g1
g2
(lp2084
(lp2085
S'word: little, index: 4'
p2086
aatp2087
Rp2088
(dp2089
g12
Vamod
p2090
sbatp2091
Rp2092
(dp2093
g12
S'word: brother, index: 5'
p2094
sbatp2095
Rp2096
(dp2097
g12
Vnsubj
p2098
sbag0
(g1
g2
(lp2099
(lp2100
S'word: still, index: 7'
p2101
aatp2102
Rp2103
(dp2104
g12
Vadvmod
p2105
sbatp2106
Rp2107
(dp2108
g12
S'word: is, index: 6'
p2109
sbatp2110
Rp2111
(dp2112
g12
S'id: 14'
p2113
sbatp2114
Rp2115
(dp2116
g12
S'sentences'
p2117
sb.