ccopy_reg
_reconstructor
p0
(cnltk.tree
Tree
p1
c__builtin__
list
p2
(lp3
g0
(g1
g2
(lp4
g0
(g1
g2
(lp5
g0
(g1
g2
(lp6
VThis
p7
atp8
Rp9
(dp10
S'_label'
p11
S'start: 1'
p12
sbatp13
Rp14
(dp15
g11
S'sent: 2'
p16
sbag0
(g1
g2
(lp17
g0
(g1
g2
(lp18
Va s-u-r circus , circus
p19
atp20
Rp21
(dp22
g11
S'start: 3'
p23
sbatp24
Rp25
(dp26
g11
S'sent: 2'
p27
sbag0
(g1
g2
(lp28
g0
(g1
g2
(lp29
Va s-u-r circus
p30
atp31
Rp32
(dp33
g11
S'start: 3'
p34
sbatp35
Rp36
(dp37
g11
S'sent: 2'
p38
sbag0
(g1
g2
(lp39
g0
(g1
g2
(lp40
Vthat
p41
atp42
Rp43
(dp44
g11
S'start: 9'
p45
sbatp46
Rp47
(dp48
g11
S'sent: 5'
p49
sbatp50
Rp51
(dp52
g11
S'id: 2'
p53
sbag0
(g1
g2
(lp54
g0
(g1
g2
(lp55
g0
(g1
g2
(lp56
Va boy
p57
atp58
Rp59
(dp60
g11
S'start: 13'
p61
sbatp62
Rp63
(dp64
g11
S'sent: 4'
p65
sbag0
(g1
g2
(lp66
g0
(g1
g2
(lp67
Vthe boy 's
p68
atp69
Rp70
(dp71
g11
S'start: 7'
p72
sbatp73
Rp74
(dp75
g11
S'sent: 8'
p76
sbatp77
Rp78
(dp79
g11
S'id: 9'
p80
sbag0
(g1
g2
(lp81
g0
(g1
g2
(lp82
g0
(g1
g2
(lp83
Va mom
p84
atp85
Rp86
(dp87
g11
S'start: 25'
p88
sbatp89
Rp90
(dp91
g11
S'sent: 4'
p92
sbag0
(g1
g2
(lp93
g0
(g1
g2
(lp94
Va mom
p95
atp96
Rp97
(dp98
g11
S'start: 32'
p99
sbatp100
Rp101
(dp102
g11
S'sent: 4'
p103
sbatp104
Rp105
(dp106
g11
S'id: 11'
p107
sbag0
(g1
g2
(lp108
g0
(g1
g2
(lp109
g0
(g1
g2
(lp110
Vthe house
p111
atp112
Rp113
(dp114
g11
S'start: 17'
p115
sbatp116
Rp117
(dp118
g11
S'sent: 5'
p119
sbag0
(g1
g2
(lp120
g0
(g1
g2
(lp121
Vhis house
p122
atp123
Rp124
(dp125
g11
S'start: 12'
p126
sbatp127
Rp128
(dp129
g11
S'sent: 10'
p130
sbatp131
Rp132
(dp133
g11
S'id: 17'
p134
sbag0
(g1
g2
(lp135
g0
(g1
g2
(lp136
g0
(g1
g2
(lp137
Vthey
p138
atp139
Rp140
(dp141
g11
S'start: 3'
p142
sbatp143
Rp144
(dp145
g11
S'sent: 6'
p146
sbag0
(g1
g2
(lp147
g0
(g1
g2
(lp148
Vthat
p149
atp150
Rp151
(dp152
g11
S'start: 7'
p153
sbatp154
Rp155
(dp156
g11
S'sent: 7'
p157
sbag0
(g1
g2
(lp158
g0
(g1
g2
(lp159
Vthat
p160
atp161
Rp162
(dp163
g11
S'start: 2'
p164
sbatp165
Rp166
(dp167
g11
S'sent: 10'
p168
sbag0
(g1
g2
(lp169
g0
(g1
g2
(lp170
Va man and , and that 's in his house
p171
atp172
Rp173
(dp174
g11
S'start: 4'
p175
sbatp176
Rp177
(dp178
g11
S'sent: 10'
p179
sbatp180
Rp181
(dp182
g11
S'id: 18'
p183
sbag0
(g1
g2
(lp184
g0
(g1
g2
(lp185
g0
(g1
g2
(lp186
Vthe abute
p187
atp188
Rp189
(dp190
g11
S'start: 6'
p191
sbatp192
Rp193
(dp194
g11
S'sent: 6'
p195
sbag0
(g1
g2
(lp196
g0
(g1
g2
(lp197
Vhe
p198
atp199
Rp200
(dp201
g11
S'start: 4'
p202
sbatp203
Rp204
(dp205
g11
S'sent: 7'
p206
sbag0
(g1
g2
(lp207
g0
(g1
g2
(lp208
Va , clown
p209
atp210
Rp211
(dp212
g11
S'start: 9'
p213
sbatp214
Rp215
(dp216
g11
S'sent: 7'
p217
sbag0
(g1
g2
(lp218
g0
(g1
g2
(lp219
Va
p220
atp221
Rp222
(dp223
g11
S'start: 9'
p224
sbatp225
Rp226
(dp227
g11
S'sent: 7'
p228
sbatp229
Rp230
(dp231
g11
S'id: 19'
p232
sbag0
(g1
g2
(lp233
g0
(g1
g2
(lp234
g0
(g1
g2
(lp235
Vthis guy he just , that 's a , clown
p236
atp237
Rp238
(dp239
g11
S'start: 2'
p240
sbatp241
Rp242
(dp243
g11
S'sent: 7'
p244
sbag0
(g1
g2
(lp245
g0
(g1
g2
(lp246
VHe
p247
atp248
Rp249
(dp250
g11
S'start: 1'
p251
sbatp252
Rp253
(dp254
g11
S'sent: 8'
p255
sbag0
(g1
g2
(lp256
g0
(g1
g2
(lp257
Vhis
p258
atp259
Rp260
(dp261
g11
S'start: 12'
p262
sbatp263
Rp264
(dp265
g11
S'sent: 10'
p266
sbag0
(g1
g2
(lp267
g0
(g1
g2
(lp268
Vhe
p269
atp270
Rp271
(dp272
g11
S'start: 2'
p273
sbatp274
Rp275
(dp276
g11
S'sent: 11'
p277
sbag0
(g1
g2
(lp278
g0
(g1
g2
(lp279
VHe
p280
atp281
Rp282
(dp283
g11
S'start: 1'
p284
sbatp285
Rp286
(dp287
g11
S'sent: 12'
p288
sbatp289
Rp290
(dp291
g11
S'id: 20'
p292
sbag0
(g1
g2
(lp293
g0
(g1
g2
(lp294
g0
(g1
g2
(lp295
Vthe stuff
p296
atp297
Rp298
(dp299
g11
S'start: 4'
p300
sbatp301
Rp302
(dp303
g11
S'sent: 8'
p304
sbag0
(g1
g2
(lp305
g0
(g1
g2
(lp306
Vit
p307
atp308
Rp309
(dp310
g11
S'start: 10'
p311
sbatp312
Rp313
(dp314
g11
S'sent: 9'
p315
sbatp316
Rp317
(dp318
g11
S'id: 26'
p319
sbag0
(g1
g2
(lp320
g0
(g1
g2
(lp321
g0
(g1
g2
(lp322
Va man
p323
atp324
Rp325
(dp326
g11
S'start: 4'
p327
sbatp328
Rp329
(dp330
g11
S'sent: 10'
p331
sbag0
(g1
g2
(lp332
g0
(g1
g2
(lp333
Va man
p334
atp335
Rp336
(dp337
g11
S'start: 3'
p338
sbatp339
Rp340
(dp341
g11
S'sent: 13'
p342
sbag0
(g1
g2
(lp343
g0
(g1
g2
(lp344
Vhere 's man
p345
atp346
Rp347
(dp348
g11
S'start: 4'
p349
sbatp350
Rp351
(dp352
g11
S'sent: 14'
p353
sbag0
(g1
g2
(lp354
g0
(g1
g2
(lp355
Va man
p356
atp357
Rp358
(dp359
g11
S'start: 4'
p360
sbatp361
Rp362
(dp363
g11
S'sent: 15'
p364
sbag0
(g1
g2
(lp365
g0
(g1
g2
(lp366
VI , and that
p367
atp368
Rp369
(dp370
g11
S'start: 2'
p371
sbatp372
Rp373
(dp374
g11
S'sent: 17'
p375
sbag0
(g1
g2
(lp376
g0
(g1
g2
(lp377
VI
p378
atp379
Rp380
(dp381
g11
S'start: 2'
p382
sbatp383
Rp384
(dp385
g11
S'sent: 17'
p386
sbag0
(g1
g2
(lp387
g0
(g1
g2
(lp388
Va man
p389
atp390
Rp391
(dp392
g11
S'start: 7'
p393
sbatp394
Rp395
(dp396
g11
S'sent: 17'
p397
sbag0
(g1
g2
(lp398
g0
(g1
g2
(lp399
VI
p400
atp401
Rp402
(dp403
g11
S'start: 5'
p404
sbatp405
Rp406
(dp407
g11
S'sent: 18'
p408
sbatp409
Rp410
(dp411
g11
S'id: 33'
p412
sbag0
(g1
g2
(lp413
g0
(g1
g2
(lp414
g0
(g1
g2
(lp415
Vthe lion
p416
atp417
Rp418
(dp419
g11
S'start: 5'
p420
sbatp421
Rp422
(dp423
g11
S'sent: 11'
p424
sbag0
(g1
g2
(lp425
g0
(g1
g2
(lp426
Vthat
p427
atp428
Rp429
(dp430
g11
S'start: 9'
p431
sbatp432
Rp433
(dp434
g11
S'sent: 11'
p435
sbag0
(g1
g2
(lp436
g0
(g1
g2
(lp437
Va big lion
p438
atp439
Rp440
(dp441
g11
S'start: 11'
p442
sbatp443
Rp444
(dp445
g11
S'sent: 11'
p446
sbatp447
Rp448
(dp449
g11
S'id: 37'
p450
sbag0
(g1
g2
(lp451
g0
(g1
g2
(lp452
g0
(g1
g2
(lp453
Vthe lon , lion and the pair , p-a-i , pair
p454
atp455
Rp456
(dp457
g11
S'start: 4'
p458
sbatp459
Rp460
(dp461
g11
S'sent: 12'
p462
sbag0
(g1
g2
(lp463
g0
(g1
g2
(lp464
VThat
p465
atp466
Rp467
(dp468
g11
S'start: 1'
p469
sbatp470
Rp471
(dp472
g11
S'sent: 13'
p473
sbatp474
Rp475
(dp476
g11
S'id: 41'
p477
sbag0
(g1
g2
(lp478
g0
(g1
g2
(lp479
g0
(g1
g2
(lp480
Vthese
p481
atp482
Rp483
(dp484
g11
S'start: 7'
p485
sbatp486
Rp487
(dp488
g11
S'sent: 13'
p489
sbag0
(g1
g2
(lp490
g0
(g1
g2
(lp491
Vthe bars
p492
atp493
Rp494
(dp495
g11
S'start: 9'
p496
sbatp497
Rp498
(dp499
g11
S'sent: 13'
p500
sbatp501
Rp502
(dp503
g11
S'id: 46'
p504
sbag0
(g1
g2
(lp505
g0
(g1
g2
(lp506
g0
(g1
g2
(lp507
Vand here 's man , woman
p508
atp509
Rp510
(dp511
g11
S'start: 3'
p512
sbatp513
Rp514
(dp515
g11
S'sent: 14'
p516
sbag0
(g1
g2
(lp517
g0
(g1
g2
(lp518
Vthat
p519
atp520
Rp521
(dp522
g11
S'start: 2'
p523
sbatp524
Rp525
(dp526
g11
S'sent: 15'
p527
sbatp528
Rp529
(dp530
g11
S'id: 48'
p531
sbag0
(g1
g2
(lp532
g0
(g1
g2
(lp533
g0
(g1
g2
(lp534
Vhere 's
p535
atp536
Rp537
(dp538
g11
S'start: 4'
p539
sbatp540
Rp541
(dp542
g11
S'sent: 14'
p543
sbag0
(g1
g2
(lp544
g0
(g1
g2
(lp545
Vthat
p546
atp547
Rp548
(dp549
g11
S'start: 2'
p550
sbatp551
Rp552
(dp553
g11
S'sent: 16'
p554
sbag0
(g1
g2
(lp555
g0
(g1
g2
(lp556
Vthe small
p557
atp558
Rp559
(dp560
g11
S'start: 4'
p561
sbatp562
Rp563
(dp564
g11
S'sent: 16'
p565
sbag0
(g1
g2
(lp566
g0
(g1
g2
(lp567
Vthat
p568
atp569
Rp570
(dp571
g11
S'start: 5'
p572
sbatp573
Rp574
(dp575
g11
S'sent: 17'
p576
sbag0
(g1
g2
(lp577
g0
(g1
g2
(lp578
Vthat
p579
atp580
Rp581
(dp582
g11
S'start: 2'
p583
sbatp584
Rp585
(dp586
g11
S'sent: 18'
p587
sbag0
(g1
g2
(lp588
g0
(g1
g2
(lp589
Vthat
p590
atp591
Rp592
(dp593
g11
S'start: 23'
p594
sbatp595
Rp596
(dp597
g11
S'sent: 18'
p598
sbatp599
Rp600
(dp601
g11
S'id: 50'
p602
sbag0
(g1
g2
(lp603
g0
(g1
g2
(lp604
g0
(g1
g2
(lp605
Vhim
p606
atp607
Rp608
(dp609
g11
S'start: 8'
p610
sbatp611
Rp612
(dp613
g11
S'sent: 18'
p614
sbag0
(g1
g2
(lp615
g0
(g1
g2
(lp616
Vhe
p617
atp618
Rp619
(dp620
g11
S'start: 13'
p621
sbatp622
Rp623
(dp624
g11
S'sent: 18'
p625
sbag0
(g1
g2
(lp626
g0
(g1
g2
(lp627
Vhe
p628
atp629
Rp630
(dp631
g11
S'start: 3'
p632
sbatp633
Rp634
(dp635
g11
S'sent: 19'
p636
sbatp637
Rp638
(dp639
g11
S'id: 63'
p640
sbatp641
Rp642
(dp643
g11
S'coreferences'
p644
sb.