ccopy_reg
_reconstructor
p0
(cnltk.tree
Tree
p1
c__builtin__
list
p2
(lp3
g0
(g1
g2
(lp4
g0
(g1
g2
(lp5
g0
(g1
g2
(lp6
g0
(g1
g2
(lp7
Vfirst
p8
atp9
Rp10
(dp11
S'_label'
p12
VRB
p13
sbatp14
Rp15
(dp16
g12
VADVP
p17
sbag0
(g1
g2
(lp18
V.
p19
atp20
Rp21
(dp22
g12
V.
p23
sbatp24
Rp25
(dp26
g12
VFRAG
p27
sbatp28
Rp29
(dp30
g12
S'id: 0'
p31
sbag0
(g1
g2
(lp32
g0
(g1
g2
(lp33
g0
(g1
g2
(lp34
g0
(g1
g2
(lp35
VBoy
p36
atp37
Rp38
(dp39
g12
VNN
p40
sbatp41
Rp42
(dp43
g12
VNP
p44
sbag0
(g1
g2
(lp45
g0
(g1
g2
(lp46
Vfalling
p47
atp48
Rp49
(dp50
g12
VVBG
p51
sbag0
(g1
g2
(lp52
g0
(g1
g2
(lp53
Vdown
p54
atp55
Rp56
(dp57
g12
VRP
p58
sbatp59
Rp60
(dp61
g12
VPRT
p62
sbag0
(g1
g2
(lp63
g0
(g1
g2
(lp64
Vwith
p65
atp66
Rp67
(dp68
g12
VIN
p69
sbag0
(g1
g2
(lp70
g0
(g1
g2
(lp71
Va
p72
atp73
Rp74
(dp75
g12
VDT
p76
sbag0
(g1
g2
(lp77
Vcookie
p78
atp79
Rp80
(dp81
g12
VNN
p82
sbatp83
Rp84
(dp85
g12
VNP
p86
sbatp87
Rp88
(dp89
g12
VPP
p90
sbatp91
Rp92
(dp93
g12
VVP
p94
sbag0
(g1
g2
(lp95
V.
p96
atp97
Rp98
(dp99
g12
V.
p100
sbatp101
Rp102
(dp103
g12
VNP
p104
sbatp105
Rp106
(dp107
g12
S'id: 1'
p108
sbag0
(g1
g2
(lp109
g0
(g1
g2
(lp110
g0
(g1
g2
(lp111
g0
(g1
g2
(lp112
g0
(g1
g2
(lp113
VLaugh
p114
atp115
Rp116
(dp117
g12
VNNP
p118
sbatp119
Rp120
(dp121
g12
VNP
p122
sbag0
(g1
g2
(lp123
V,
p124
atp125
Rp126
(dp127
g12
V,
p128
sbag0
(g1
g2
(lp129
g0
(g1
g2
(lp130
Vthe
p131
atp132
Rp133
(dp134
g12
VDT
p135
sbag0
(g1
g2
(lp136
Vlaugh
p137
atp138
Rp139
(dp140
g12
VNN
p141
sbatp142
Rp143
(dp144
g12
VNP
p145
sbag0
(g1
g2
(lp146
V,
p147
atp148
Rp149
(dp150
g12
V,
p151
sbatp152
Rp153
(dp154
g12
VNP
p155
sbag0
(g1
g2
(lp156
g0
(g1
g2
(lp157
Vfell
p158
atp159
Rp160
(dp161
g12
VVBD
p162
sbag0
(g1
g2
(lp163
g0
(g1
g2
(lp164
Vdown
p165
atp166
Rp167
(dp168
g12
VRB
p169
sbatp170
Rp171
(dp172
g12
VADVP
p173
sbatp174
Rp175
(dp176
g12
VVP
p177
sbag0
(g1
g2
(lp178
V.
p179
atp180
Rp181
(dp182
g12
V.
p183
sbatp184
Rp185
(dp186
g12
VS
p187
sbatp188
Rp189
(dp190
g12
S'id: 2'
p191
sbag0
(g1
g2
(lp192
g0
(g1
g2
(lp193
g0
(g1
g2
(lp194
VThe
p195
atp196
Rp197
(dp198
g12
VDT
p199
sbag0
(g1
g2
(lp200
Vwoman
p201
atp202
Rp203
(dp204
g12
VNN
p205
sbag0
(g1
g2
(lp206
V.
p207
atp208
Rp209
(dp210
g12
V.
p211
sbatp212
Rp213
(dp214
g12
VNP
p215
sbatp216
Rp217
(dp218
g12
S'id: 3'
p219
sbag0
(g1
g2
(lp220
g0
(g1
g2
(lp221
g0
(g1
g2
(lp222
g0
(g1
g2
(lp223
VSinks
p224
atp225
Rp226
(dp227
g12
VNNP
p228
sbatp229
Rp230
(dp231
g12
VNP
p232
sbag0
(g1
g2
(lp233
V,
p234
atp235
Rp236
(dp237
g12
V,
p238
sbag0
(g1
g2
(lp239
g0
(g1
g2
(lp240
g0
(g1
g2
(lp241
Vbowl
p242
atp243
Rp244
(dp245
g12
VNN
p246
sbatp247
Rp248
(dp249
g12
VNP
p250
sbag0
(g1
g2
(lp251
V,
p252
atp253
Rp254
(dp255
g12
V,
p256
sbag0
(g1
g2
(lp257
g0
(g1
g2
(lp258
Vdown
p259
atp260
Rp261
(dp262
g12
VRB
p263
sbatp264
Rp265
(dp266
g12
VADVP
p267
sbatp268
Rp269
(dp270
g12
VNP
p271
sbag0
(g1
g2
(lp272
V.
p273
atp274
Rp275
(dp276
g12
V.
p277
sbatp278
Rp279
(dp280
g12
VNP
p281
sbatp282
Rp283
(dp284
g12
S'id: 4'
p285
sbag0
(g1
g2
(lp286
g0
(g1
g2
(lp287
g0
(g1
g2
(lp288
g0
(g1
g2
(lp289
VWell
p290
atp291
Rp292
(dp293
g12
VRB
p294
sbatp295
Rp296
(dp297
g12
VINTJ
p298
sbag0
(g1
g2
(lp299
V,
p300
atp301
Rp302
(dp303
g12
V,
p304
sbag0
(g1
g2
(lp305
g0
(g1
g2
(lp306
Vlet
p307
atp308
Rp309
(dp310
g12
VVB
p311
sbag0
(g1
g2
(lp312
g0
(g1
g2
(lp313
g0
(g1
g2
(lp314
Vme
p315
atp316
Rp317
(dp318
g12
VPRP
p319
sbatp320
Rp321
(dp322
g12
VNP
p323
sbag0
(g1
g2
(lp324
g0
(g1
g2
(lp325
Vsee
p326
atp327
Rp328
(dp329
g12
VVB
p330
sbatp331
Rp332
(dp333
g12
VVP
p334
sbatp335
Rp336
(dp337
g12
VS
p338
sbatp339
Rp340
(dp341
g12
VVP
p342
sbag0
(g1
g2
(lp343
V.
p344
atp345
Rp346
(dp347
g12
V.
p348
sbatp349
Rp350
(dp351
g12
VS
p352
sbatp353
Rp354
(dp355
g12
S'id: 5'
p356
sbag0
(g1
g2
(lp357
g0
(g1
g2
(lp358
g0
(g1
g2
(lp359
g0
(g1
g2
(lp360
VNothing
p361
atp362
Rp363
(dp364
g12
VNN
p365
sbatp366
Rp367
(dp368
g12
VNP
p369
sbag0
(g1
g2
(lp370
g0
(g1
g2
(lp371
Vat
p372
atp373
Rp374
(dp375
g12
VIN
p376
sbag0
(g1
g2
(lp377
Vall
p378
atp379
Rp380
(dp381
g12
VDT
p382
sbatp383
Rp384
(dp385
g12
VADVP
p386
sbag0
(g1
g2
(lp387
V.
p388
atp389
Rp390
(dp391
g12
V.
p392
sbatp393
Rp394
(dp395
g12
VFRAG
p396
sbatp397
Rp398
(dp399
g12
S'id: 6'
p400
sbag0
(g1
g2
(lp401
g0
(g1
g2
(lp402
g0
(g1
g2
(lp403
g0
(g1
g2
(lp404
VHi
p405
atp406
Rp407
(dp408
g12
VNN
p409
sbatp410
Rp411
(dp412
g12
VNP
p413
sbag0
(g1
g2
(lp414
g0
(g1
g2
(lp415
Vthere
p416
atp417
Rp418
(dp419
g12
VRB
p420
sbatp421
Rp422
(dp423
g12
VADVP
p424
sbag0
(g1
g2
(lp425
V.
p426
atp427
Rp428
(dp429
g12
V.
p430
sbatp431
Rp432
(dp433
g12
VFRAG
p434
sbatp435
Rp436
(dp437
g12
S'id: 7'
p438
sbatp439
Rp440
(dp441
g12
S'sentences'
p442
sb.