ccopy_reg
_reconstructor
p0
(cnltk.tree
Tree
p1
c__builtin__
list
p2
(lp3
g0
(g1
g2
(lp4
g0
(g1
g2
(lp5
g0
(g1
g2
(lp6
Va nice little nineteen fifties house wife doing dishes in the sink
p7
atp8
Rp9
(dp10
S'_label'
p11
S'start: 3'
p12
sbatp13
Rp14
(dp15
g11
S'sent: 2'
p16
sbag0
(g1
g2
(lp17
g0
(g1
g2
(lp18
Vshe
p19
atp20
Rp21
(dp22
g11
S'start: 17'
p23
sbatp24
Rp25
(dp26
g11
S'sent: 2'
p27
sbag0
(g1
g2
(lp28
g0
(g1
g2
(lp29
Vher
p30
atp31
Rp32
(dp33
g11
S'start: 29'
p34
sbatp35
Rp36
(dp37
g11
S'sent: 2'
p38
sbag0
(g1
g2
(lp39
g0
(g1
g2
(lp40
Vshe
p41
atp42
Rp43
(dp44
g11
S'start: 36'
p45
sbatp46
Rp47
(dp48
g11
S'sent: 2'
p49
sbag0
(g1
g2
(lp50
g0
(g1
g2
(lp51
Vher
p52
atp53
Rp54
(dp55
g11
S'start: 2'
p56
sbatp57
Rp58
(dp59
g11
S'sent: 3'
p60
sbatp61
Rp62
(dp63
g11
S'id: 2'
p64
sbag0
(g1
g2
(lp65
g0
(g1
g2
(lp66
g0
(g1
g2
(lp67
Vthe sink over flow
p68
atp69
Rp70
(dp71
g11
S'start: 20'
p72
sbatp73
Rp74
(dp75
g11
S'sent: 2'
p76
sbag0
(g1
g2
(lp77
g0
(g1
g2
(lp78
Vit
p79
atp80
Rp81
(dp82
g11
S'start: 26'
p83
sbatp84
Rp85
(dp86
g11
S'sent: 2'
p87
sbatp88
Rp89
(dp90
g11
S'id: 7'
p91
sbag0
(g1
g2
(lp92
g0
(g1
g2
(lp93
g0
(g1
g2
(lp94
Vher son and daughter
p95
atp96
Rp97
(dp98
g11
S'start: 2'
p99
sbatp100
Rp101
(dp102
g11
S'sent: 3'
p103
sbag0
(g1
g2
(lp104
g0
(g1
g2
(lp105
Vthe son
p106
atp107
Rp108
(dp109
g11
S'start: 16'
p110
sbatp111
Rp112
(dp113
g11
S'sent: 3'
p114
sbatp115
Rp116
(dp117
g11
S'id: 12'
p118
sbag0
(g1
g2
(lp119
g0
(g1
g2
(lp120
g0
(g1
g2
(lp121
Vthe window
p122
atp123
Rp124
(dp125
g11
S'start: 2'
p126
sbatp127
Rp128
(dp129
g11
S'sent: 4'
p130
sbag0
(g1
g2
(lp131
g0
(g1
g2
(lp132
Vit
p133
atp134
Rp135
(dp136
g11
S'start: 10'
p137
sbatp138
Rp139
(dp140
g11
S'sent: 4'
p141
sbag0
(g1
g2
(lp142
g0
(g1
g2
(lp143
Vit
p144
atp145
Rp146
(dp147
g11
S'start: 13'
p148
sbatp149
Rp150
(dp151
g11
S'sent: 4'
p152
sbag0
(g1
g2
(lp153
g0
(g1
g2
(lp154
Va nice day outside
p155
atp156
Rp157
(dp158
g11
S'start: 15'
p159
sbatp160
Rp161
(dp162
g11
S'sent: 4'
p163
sbatp164
Rp165
(dp166
g11
S'id: 18'
p167
sbag0
(g1
g2
(lp168
g0
(g1
g2
(lp169
g0
(g1
g2
(lp170
VThe girl
p171
atp172
Rp173
(dp174
g11
S'start: 1'
p175
sbatp176
Rp177
(dp178
g11
S'sent: 5'
p179
sbag0
(g1
g2
(lp180
g0
(g1
g2
(lp181
Vher
p182
atp183
Rp184
(dp185
g11
S'start: 10'
p186
sbatp187
Rp188
(dp189
g11
S'sent: 5'
p190
sbatp191
Rp192
(dp193
g11
S'id: 22'
p194
sbag0
(g1
g2
(lp195
g0
(g1
g2
(lp196
g0
(g1
g2
(lp197
Va dress
p198
atp199
Rp200
(dp201
g11
S'start: 5'
p202
sbatp203
Rp204
(dp205
g11
S'sent: 5'
p206
sbag0
(g1
g2
(lp207
g0
(g1
g2
(lp208
Vit to beaver
p209
atp210
Rp211
(dp212
g11
S'start: 16'
p213
sbatp214
Rp215
(dp216
g11
S'sent: 6'
p217
sbatp218
Rp219
(dp220
g11
S'id: 24'
p221
sbag0
(g1
g2
(lp222
g0
(g1
g2
(lp223
g0
(g1
g2
(lp224
VThe boy
p225
atp226
Rp227
(dp228
g11
S'start: 1'
p229
sbatp230
Rp231
(dp232
g11
S'sent: 6'
p233
sbag0
(g1
g2
(lp234
g0
(g1
g2
(lp235
Vme of stuff
p236
atp237
Rp238
(dp239
g11
S'start: 11'
p240
sbatp241
Rp242
(dp243
g11
S'sent: 6'
p244
sbatp245
Rp246
(dp247
g11
S'id: 27'
p248
sbag0
(g1
g2
(lp249
g0
(g1
g2
(lp250
g0
(g1
g2
(lp251
VThey
p252
atp253
Rp254
(dp255
g11
S'start: 1'
p256
sbatp257
Rp258
(dp259
g11
S'sent: 7'
p260
sbag0
(g1
g2
(lp261
g0
(g1
g2
(lp262
VThey
p263
atp264
Rp265
(dp266
g11
S'start: 1'
p267
sbatp268
Rp269
(dp270
g11
S'sent: 9'
p271
sbatp272
Rp273
(dp274
g11
S'id: 31'
p275
sbag0
(g1
g2
(lp276
g0
(g1
g2
(lp277
g0
(g1
g2
(lp278
Vnor
p279
atp280
Rp281
(dp282
g11
S'start: 14'
p283
sbatp284
Rp285
(dp286
g11
S'sent: 9'
p287
sbag0
(g1
g2
(lp288
g0
(g1
g2
(lp289
Vthey
p290
atp291
Rp292
(dp293
g11
S'start: 16'
p294
sbatp295
Rp296
(dp297
g11
S'sent: 9'
p298
sbatp299
Rp300
(dp301
g11
S'id: 40'
p302
sbatp303
Rp304
(dp305
g11
S'coreferences'
p306
sb.