ccopy_reg
_reconstructor
p0
(cnltk.tree
Tree
p1
c__builtin__
list
p2
(lp3
g0
(g1
g2
(lp4
g0
(g1
g2
(lp5
g0
(g1
g2
(lp6
g0
(g1
g2
(lp7
g0
(g1
g2
(lp8
(lp9
S'word: a, index: 15'
p10
aatp11
Rp12
(dp13
S'_label'
p14
Vdet
p15
sbatp16
Rp17
(dp18
g14
S'word: blanket, index: 16'
p19
sbatp20
Rp21
(dp22
g14
Vprep
p23
sbag0
(g1
g2
(lp24
(lp25
S'word: i, index: 1'
p26
aatp27
Rp28
(dp29
g14
Vdep
p30
sbag0
(g1
g2
(lp31
g0
(g1
g2
(lp32
g0
(g1
g2
(lp33
(lp34
S'word: a, index: 3'
p35
aatp36
Rp37
(dp38
g14
Vdet
p39
sbag0
(g1
g2
(lp40
g0
(g1
g2
(lp41
g0
(g1
g2
(lp42
(lp43
S'word: a, index: 6'
p44
aatp45
Rp46
(dp47
g14
Vdet
p48
sbag0
(g1
g2
(lp49
g0
(g1
g2
(lp50
g0
(g1
g2
(lp51
g0
(g1
g2
(lp52
g0
(g1
g2
(lp53
(lp54
S'word: a, index: 9'
p55
aatp56
Rp57
(dp58
g14
Vdet
p59
sbag0
(g1
g2
(lp60
(lp61
S'word: a, index: 12'
p62
aatp63
Rp64
(dp65
g14
Vdep
p66
sbatp67
Rp68
(dp69
g14
S'word: on, index: 11'
p70
sbatp71
Rp72
(dp73
g14
Vpobj
p74
sbatp75
Rp76
(dp77
g14
S'word: on, index: 8'
p78
sbatp79
Rp80
(dp81
g14
Vprep
p82
sbatp83
Rp84
(dp85
g14
S'word: girl, index: 7'
p86
sbatp87
Rp88
(dp89
g14
Vconj
p90
sbatp91
Rp92
(dp93
g14
S'word: boy, index: 4'
p94
sbatp95
Rp96
(dp97
g14
Vdobj
p98
sbag0
(g1
g2
(lp99
g84
atp100
Rp101
(dp102
g14
Vdobj
p103
sbatp104
Rp105
(dp106
g14
S'word: see, index: 2'
p107
sbatp108
Rp109
(dp110
g14
S'id: 0'
p111
sbag0
(g1
g2
(lp112
g0
(g1
g2
(lp113
g0
(g1
g2
(lp114
g0
(g1
g2
(lp115
g0
(g1
g2
(lp116
g0
(g1
g2
(lp117
g0
(g1
g2
(lp118
(lp119
S'word: a, index: 4'
p120
aatp121
Rp122
(dp123
g14
Vdet
p124
sbatp125
Rp126
(dp127
g14
S'word: book, index: 5'
p128
sbatp129
Rp130
(dp131
g14
Vdobj
p132
sbag0
(g1
g2
(lp133
g0
(g1
g2
(lp134
g0
(g1
g2
(lp135
(lp136
S'word: The, index: 1'
p137
aatp138
Rp139
(dp140
g14
Vdet
p141
sbatp142
Rp143
(dp144
g14
S'word: boy, index: 2'
p145
sbatp146
Rp147
(dp148
g14
Vnsubj
p149
sbatp150
Rp151
(dp152
g14
S'word: reading, index: 3'
p153
sbatp154
Rp155
(dp156
g14
Vvmod
p157
sbag0
(g1
g2
(lp158
g0
(g1
g2
(lp159
g0
(g1
g2
(lp160
(lp161
S'word: the, index: 7'
p162
aatp163
Rp164
(dp165
g14
Vdet
p166
sbatp167
Rp168
(dp169
g14
S'word: girl, index: 8'
p170
sbatp171
Rp172
(dp173
g14
Vnsubj
p174
sbag0
(g1
g2
(lp175
(lp176
S'word: is, index: 9'
p177
aatp178
Rp179
(dp180
g14
Vaux
p181
sbag0
(g1
g2
(lp182
g0
(g1
g2
(lp183
g0
(g1
g2
(lp184
(lp185
S'word: something, index: 13'
p186
aatp187
Rp188
(dp189
g14
Vconj
p190
sbatp191
Rp192
(dp193
g14
S'word: soda, index: 11'
p194
sbatp195
Rp196
(dp197
g14
Vdobj
p198
sbag0
(g1
g2
(lp199
(lp200
S'word: something, index: 13'
p201
aatp202
Rp203
(dp204
g14
Vdobj
p205
sbatp206
Rp207
(dp208
g14
S'word: pouring, index: 10'
p209
sbatp210
Rp211
(dp212
g14
S'id: 1'
p213
sbag0
(g1
g2
(lp214
g0
(g1
g2
(lp215
g0
(g1
g2
(lp216
g0
(g1
g2
(lp217
g0
(g1
g2
(lp218
(lp219
S'word: it, index: 7'
p220
aatp221
Rp222
(dp223
g14
Vdobj
p224
sbatp225
Rp226
(dp227
g14
S'word: having, index: 6'
p228
sbatp229
Rp230
(dp231
g14
Vdep
p232
sbag0
(g1
g2
(lp233
(lp234
S'word: yard, index: 8'
p235
aatp236
Rp237
(dp238
g14
Vprep
p239
sbag0
(g1
g2
(lp240
g0
(g1
g2
(lp241
g0
(g1
g2
(lp242
(lp243
S'word: a, index: 2'
p244
aatp245
Rp246
(dp247
g14
Vdet
p248
sbatp249
Rp250
(dp251
g14
S'word: picnic, index: 3'
p252
sbatp253
Rp254
(dp255
g14
Vdobj
p256
sbatp257
Rp258
(dp259
g14
S'word: Having, index: 1'
p260
sbatp261
Rp262
(dp263
g14
S'id: 2'
p264
sbag0
(g1
g2
(lp265
g0
(g1
g2
(lp266
g0
(g1
g2
(lp267
(lp268
S'word: blanket, index: 2'
p269
aatp270
Rp271
(dp272
g14
Vprep
p273
sbatp274
Rp275
(dp276
g14
S'word: radio, index: 4'
p277
sbatp278
Rp279
(dp280
g14
S'id: 3'
p281
sbag0
(g1
g2
(lp282
g0
(g1
g2
(lp283
g0
(g1
g2
(lp284
(lp285
S'word: A, index: 1'
p286
aatp287
Rp288
(dp289
g14
Vdet
p290
sbag0
(g1
g2
(lp291
g0
(g1
g2
(lp292
g0
(g1
g2
(lp293
(lp294
S'word: the, index: 4'
p295
aatp296
Rp297
(dp298
g14
Vdet
p299
sbag0
(g1
g2
(lp300
(lp301
S'word: back, index: 5'
p302
aatp303
Rp304
(dp305
g14
Vamod
p306
sbatp307
Rp308
(dp309
g14
S'word: yard, index: 6'
p310
sbatp311
Rp312
(dp313
g14
Vprep
p314
sbatp315
Rp316
(dp317
g14
S'word: house, index: 2'
p318
sbatp319
Rp320
(dp321
g14
S'id: 4'
p322
sbag0
(g1
g2
(lp323
g0
(g1
g2
(lp324
g0
(g1
g2
(lp325
g0
(g1
g2
(lp326
g0
(g1
g2
(lp327
(lp328
S'word: the, index: 3'
p329
aatp330
Rp331
(dp332
g14
Vdet
p333
sbatp334
Rp335
(dp336
g14
S'word: front, index: 4'
p337
sbatp338
Rp339
(dp340
g14
Vprep
p341
sbag0
(g1
g2
(lp342
g0
(g1
g2
(lp343
g0
(g1
g2
(lp344
(lp345
S'word: the, index: 6'
p346
aatp347
Rp348
(dp349
g14
Vdet
p350
sbatp351
Rp352
(dp353
g14
S'word: yard, index: 7'
p354
sbatp355
Rp356
(dp357
g14
Vprep
p358
sbatp359
Rp360
(dp361
g14
S'word: Park, index: 1'
p362
sbatp363
Rp364
(dp365
g14
S'id: 5'
p366
sbag0
(g1
g2
(lp367
tp368
Rp369
(dp370
g14
S'id: 6'
p371
sbag0
(g1
g2
(lp372
g0
(g1
g2
(lp373
g0
(g1
g2
(lp374
(lp375
S'word: a, index: 6'
p376
aatp377
Rp378
(dp379
g14
Vdobj
p380
sbag0
(g1
g2
(lp381
g0
(g1
g2
(lp382
g0
(g1
g2
(lp383
(lp384
S'word: a, index: 9'
p385
aatp386
Rp387
(dp388
g14
Vdet
p389
sbatp390
Rp391
(dp392
g14
S'word: dog, index: 10'
p393
sbatp394
Rp395
(dp396
g14
Vdobj
p397
sbag0
(g1
g2
(lp398
g0
(g1
g2
(lp399
g0
(g1
g2
(lp400
g0
(g1
g2
(lp401
g0
(g1
g2
(lp402
(lp403
S'word: a, index: 13'
p404
aatp405
Rp406
(dp407
g14
Vdet
p408
sbatp409
Rp410
(dp411
g14
S'word: kite, index: 14'
p412
sbatp413
Rp414
(dp415
g14
Vdobj
p416
sbatp417
Rp418
(dp419
g14
S'word: flying, index: 12'
p420
sbatp421
Rp422
(dp423
g14
Vvmod
p424
sbag0
(g1
g2
(lp425
(lp426
S'word: I, index: 1'
p427
aatp428
Rp429
(dp430
g14
Vnsubj
p431
sbag0
(g1
g2
(lp432
g0
(g1
g2
(lp433
g0
(g1
g2
(lp434
(lp435
S'word: a, index: 6'
p436
aatp437
Rp438
(dp439
g14
Vconj
p440
sbag0
(g1
g2
(lp441
g391
atp442
Rp443
(dp444
g14
Vconj
p445
sbag0
(g1
g2
(lp446
(lp447
S'word: a, index: 3'
p448
aatp449
Rp450
(dp451
g14
Vdep
p452
sbatp453
Rp454
(dp455
g14
S'word: boy, index: 4'
p456
sbatp457
Rp458
(dp459
g14
Vdobj
p460
sbatp461
Rp462
(dp463
g14
S'word: see, index: 2'
p464
sbatp465
Rp466
(dp467
g14
S'id: 7'
p468
sbag0
(g1
g2
(lp469
g0
(g1
g2
(lp470
g0
(g1
g2
(lp471
g0
(g1
g2
(lp472
g0
(g1
g2
(lp473
g0
(g1
g2
(lp474
g0
(g1
g2
(lp475
(lp476
S'word: the, index: 11'
p477
aatp478
Rp479
(dp480
g14
Vdet
p481
sbag0
(g1
g2
(lp482
g0
(g1
g2
(lp483
g0
(g1
g2
(lp484
(lp485
S'word: the, index: 14'
p486
aatp487
Rp488
(dp489
g14
Vdet
p490
sbatp491
Rp492
(dp493
g14
S'word: beach, index: 15'
p494
sbatp495
Rp496
(dp497
g14
Vprep
p498
sbatp499
Rp500
(dp501
g14
S'word: sand, index: 12'
p502
sbatp503
Rp504
(dp505
g14
Vprep
p506
sbag0
(g1
g2
(lp507
g0
(g1
g2
(lp508
g0
(g1
g2
(lp509
(lp510
S'word: a, index: 3'
p511
aatp512
Rp513
(dp514
g14
Vdet
p515
sbag0
(g1
g2
(lp516
g0
(g1
g2
(lp517
g0
(g1
g2
(lp518
(lp519
S'word: little, index: 6'
p520
aatp521
Rp522
(dp523
g14
Vamod
p524
sbatp525
Rp526
(dp527
g14
S'word: girl, index: 7'
p528
sbatp529
Rp530
(dp531
g14
Vappos
p532
sbatp533
Rp534
(dp535
g14
S'word: girl, index: 4'
p536
sbatp537
Rp538
(dp539
g14
Vnsubj
p540
sbatp541
Rp542
(dp543
g14
S'word: playing, index: 9'
p544
sbatp545
Rp546
(dp547
g14
Vdep
p548
sbag0
(g1
g2
(lp549
(lp550
S'word: I, index: 1'
p551
aatp552
Rp553
(dp554
g14
Vnsubj
p555
sbatp556
Rp557
(dp558
g14
S'word: see, index: 2'
p559
sbatp560
Rp561
(dp562
g14
S'id: 8'
p563
sbag0
(g1
g2
(lp564
g0
(g1
g2
(lp565
g0
(g1
g2
(lp566
(lp567
S'word: I, index: 1'
p568
aatp569
Rp570
(dp571
g14
Vnsubj
p572
sbag0
(g1
g2
(lp573
g0
(g1
g2
(lp574
g0
(g1
g2
(lp575
g0
(g1
g2
(lp576
g0
(g1
g2
(lp577
(lp578
S'word: a, index: 3'
p579
aatp580
Rp581
(dp582
g14
Vdet
p583
sbatp584
Rp585
(dp586
g14
S'word: man, index: 4'
p587
sbatp588
Rp589
(dp590
g14
Vnsubj
p591
sbag0
(g1
g2
(lp592
g0
(g1
g2
(lp593
g0
(g1
g2
(lp594
(lp595
S'word: a, index: 6'
p596
aatp597
Rp598
(dp599
g14
Vdet
p600
sbatp601
Rp602
(dp603
g14
S'word: fish, index: 7'
p604
sbatp605
Rp606
(dp607
g14
Vdobj
p608
sbag0
(g1
g2
(lp609
g0
(g1
g2
(lp610
g0
(g1
g2
(lp611
(lp612
S'word: a, index: 9'
p613
aatp614
Rp615
(dp616
g14
Vdet
p617
sbatp618
Rp619
(dp620
g14
S'word: dock, index: 10'
p621
sbatp622
Rp623
(dp624
g14
Vprep
p625
sbatp626
Rp627
(dp628
g14
S'word: caught, index: 5'
p629
sbatp630
Rp631
(dp632
g14
Vccomp
p633
sbatp634
Rp635
(dp636
g14
S'word: see, index: 2'
p637
sbatp638
Rp639
(dp640
g14
S'id: 9'
p641
sbag0
(g1
g2
(lp642
g0
(g1
g2
(lp643
g0
(g1
g2
(lp644
g0
(g1
g2
(lp645
g0
(g1
g2
(lp646
g0
(g1
g2
(lp647
g0
(g1
g2
(lp648
(lp649
S'word: why, index: 30'
p650
aatp651
Rp652
(dp653
g14
Vadvmod
p654
sbatp655
Rp656
(dp657
g14
S'word: that, index: 31'
p658
sbatp659
Rp660
(dp661
g14
Vadvcl
p662
sbag0
(g1
g2
(lp663
g0
(g1
g2
(lp664
g0
(g1
g2
(lp665
(lp666
S'word: what, index: 15'
p667
aatp668
Rp669
(dp670
g14
Vnsubj
p671
sbag0
(g1
g2
(lp672
g0
(g1
g2
(lp673
g0
(g1
g2
(lp674
(lp675
S'word: they, index: 17'
p676
aatp677
Rp678
(dp679
g14
Vnsubj
p680
sbag0
(g1
g2
(lp681
(lp682
S'word: it, index: 19'
p683
aatp684
Rp685
(dp686
g14
Vdobj
p687
sbag0
(g1
g2
(lp688
g0
(g1
g2
(lp689
g0
(g1
g2
(lp690
(lp691
S'word: grass, index: 21'
p692
aatp693
Rp694
(dp695
g14
Vnn
p696
sbag0
(g1
g2
(lp697
(lp698
S'word: sand, index: 25'
p699
aatp700
Rp701
(dp702
g14
Vconj
p703
sbatp704
Rp705
(dp706
g14
S'word: yard, index: 22'
p707
sbatp708
Rp709
(dp710
g14
Vdobj
p711
sbag0
(g1
g2
(lp712
(lp713
S'word: sand, index: 25'
p714
aatp715
Rp716
(dp717
g14
Vdobj
p718
sbatp719
Rp720
(dp721
g14
S'word: call, index: 18'
p722
sbatp723
Rp724
(dp725
g14
Vccomp
p726
sbatp727
Rp728
(dp729
g14
S'word: do, index: 16'
p730
sbatp731
Rp732
(dp733
g14
Vccomp
p734
sbag0
(g1
g2
(lp735
(lp736
S'word: I, index: 1'
p737
aatp738
Rp739
(dp740
g14
Vnsubj
p741
sbag0
(g1
g2
(lp742
g0
(g1
g2
(lp743
g0
(g1
g2
(lp744
(lp745
S'word: the, index: 27'
p746
aatp747
Rp748
(dp749
g14
Vdet
p750
sbatp751
Rp752
(dp753
g14
S'word: beach, index: 28'
p754
sbatp755
Rp756
(dp757
g14
Vprep
p758
sbatp759
Rp760
(dp761
g14
S'word: a., index: 14'
p762
sbatp763
Rp764
(dp765
g14
Vconj
p766
sbag0
(g1
g2
(lp767
(lp768
S'word: I, index: 1'
p769
aatp770
Rp771
(dp772
g14
Vnsubj
p773
sbag0
(g1
g2
(lp774
g0
(g1
g2
(lp775
g0
(g1
g2
(lp776
(lp777
S'word: a, index: 3'
p778
aatp779
Rp780
(dp781
g14
Vdet
p782
sbag0
(g1
g2
(lp783
g0
(g1
g2
(lp784
g0
(g1
g2
(lp785
(lp786
S'word: a, index: 7'
p787
aatp788
Rp789
(dp790
g14
Vdet
p791
sbag0
(g1
g2
(lp792
g0
(g1
g2
(lp793
g0
(g1
g2
(lp794
(lp795
S'word: a, index: 10'
p796
aatp797
Rp798
(dp799
g14
Vdet
p800
sbatp801
Rp802
(dp803
g14
S'word: boat, index: 11'
p804
sbatp805
Rp806
(dp807
g14
Vprep
p808
sbatp809
Rp810
(dp811
g14
S'word: girl, index: 8'
p812
sbatp813
Rp814
(dp815
g14
Vconj
p816
sbatp817
Rp818
(dp819
g14
S'word: guy, index: 4'
p820
sbatp821
Rp822
(dp823
g14
Vdobj
p824
sbag0
(g1
g2
(lp825
g810
atp826
Rp827
(dp828
g14
Vdobj
p829
sbatp830
Rp831
(dp832
g14
S'word: see, index: 2'
p833
sbatp834
Rp835
(dp836
g14
S'id: 10'
p837
sbatp838
Rp839
(dp840
g14
S'sentences'
p841
sb.