ccopy_reg
_reconstructor
p0
(cnltk.tree
Tree
p1
c__builtin__
list
p2
(lp3
g0
(g1
g2
(lp4
g0
(g1
g2
(lp5
g0
(g1
g2
(lp6
g0
(g1
g2
(lp7
Valright
p8
atp9
Rp10
(dp11
S'_label'
p12
VIN
p13
sbag0
(g1
g2
(lp14
g0
(g1
g2
(lp15
g0
(g1
g2
(lp16
Vwe
p17
atp18
Rp19
(dp20
g12
VPRP
p21
sbatp22
Rp23
(dp24
g12
VNP
p25
sbag0
(g1
g2
(lp26
g0
(g1
g2
(lp27
Vgot
p28
atp29
Rp30
(dp31
g12
VVBD
p32
sbag0
(g1
g2
(lp33
g0
(g1
g2
(lp34
Va
p35
atp36
Rp37
(dp38
g12
VDT
p39
sbag0
(g1
g2
(lp40
Vlittle
p41
atp42
Rp43
(dp44
g12
VJJ
p45
sbag0
(g1
g2
(lp46
Vgirl
p47
atp48
Rp49
(dp50
g12
VNN
p51
sbag0
(g1
g2
(lp52
Veating
p53
atp54
Rp55
(dp56
g12
VNN
p57
sbatp58
Rp59
(dp60
g12
VNP
p61
sbag0
(g1
g2
(lp62
V,
p63
atp64
Rp65
(dp66
g12
V,
p67
sbag0
(g1
g2
(lp68
g0
(g1
g2
(lp69
g0
(g1
g2
(lp70
Vwanting
p71
atp72
Rp73
(dp74
g12
VVBG
p75
sbag0
(g1
g2
(lp76
g0
(g1
g2
(lp77
Va
p78
atp79
Rp80
(dp81
g12
VDT
p82
sbag0
(g1
g2
(lp83
Vcookie
p84
atp85
Rp86
(dp87
g12
VNN
p88
sbatp89
Rp90
(dp91
g12
VNP
p92
sbatp93
Rp94
(dp95
g12
VVP
p96
sbatp97
Rp98
(dp99
g12
VS
p100
sbag0
(g1
g2
(lp101
V,
p102
atp103
Rp104
(dp105
g12
V,
p106
sbag0
(g1
g2
(lp107
g0
(g1
g2
(lp108
Vthat
p109
atp110
Rp111
(dp112
g12
VIN
p113
sbag0
(g1
g2
(lp114
g0
(g1
g2
(lp115
g0
(g1
g2
(lp116
Vher
p117
atp118
Rp119
(dp120
g12
VPRP$
p121
sbag0
(g1
g2
(lp122
Vbrothers
p123
atp124
Rp125
(dp126
g12
VNNS
p127
sbatp128
Rp129
(dp130
g12
VNP
p131
sbag0
(g1
g2
(lp132
g0
(g1
g2
(lp133
Vgot
p134
atp135
Rp136
(dp137
g12
VVBD
p138
sbag0
(g1
g2
(lp139
g0
(g1
g2
(lp140
Von
p141
atp142
Rp143
(dp144
g12
VIN
p145
sbag0
(g1
g2
(lp146
g0
(g1
g2
(lp147
Va
p148
atp149
Rp150
(dp151
g12
VDT
p152
sbag0
(g1
g2
(lp153
Vstool
p154
atp155
Rp156
(dp157
g12
VNN
p158
sbatp159
Rp160
(dp161
g12
VNP
p162
sbatp163
Rp164
(dp165
g12
VPP
p166
sbatp167
Rp168
(dp169
g12
VVP
p170
sbatp171
Rp172
(dp173
g12
VS
p174
sbatp175
Rp176
(dp177
g12
VSBAR
p178
sbatp179
Rp180
(dp181
g12
VVP
p182
sbatp183
Rp184
(dp185
g12
VS
p186
sbatp187
Rp188
(dp189
g12
VSBAR
p190
sbag0
(g1
g2
(lp191
V,
p192
atp193
Rp194
(dp195
g12
V,
p196
sbag0
(g1
g2
(lp197
g0
(g1
g2
(lp198
Vhe
p199
atp200
Rp201
(dp202
g12
VPRP
p203
sbatp204
Rp205
(dp206
g12
VNP
p207
sbag0
(g1
g2
(lp208
g0
(g1
g2
(lp209
V's
p210
atp211
Rp212
(dp213
g12
VVBZ
p214
sbag0
(g1
g2
(lp215
g0
(g1
g2
(lp216
Vfalling
p217
atp218
Rp219
(dp220
g12
VVBG
p221
sbatp222
Rp223
(dp224
g12
VVP
p225
sbatp226
Rp227
(dp228
g12
VVP
p229
sbag0
(g1
g2
(lp230
V.
p231
atp232
Rp233
(dp234
g12
V.
p235
sbatp236
Rp237
(dp238
g12
VS
p239
sbatp240
Rp241
(dp242
g12
S'id: 0'
p243
sbag0
(g1
g2
(lp244
g0
(g1
g2
(lp245
g0
(g1
g2
(lp246
g0
(g1
g2
(lp247
Vit
p248
atp249
Rp250
(dp251
g12
VPRP
p252
sbatp253
Rp254
(dp255
g12
VNP
p256
sbag0
(g1
g2
(lp257
g0
(g1
g2
(lp258
V's
p259
atp260
Rp261
(dp262
g12
VVBZ
p263
sbag0
(g1
g2
(lp264
g0
(g1
g2
(lp265
Vgot
p266
atp267
Rp268
(dp269
g12
VVBD
p270
sbag0
(g1
g2
(lp271
g0
(g1
g2
(lp272
g0
(g1
g2
(lp273
g0
(g1
g2
(lp274
Vthree
p275
atp276
Rp277
(dp278
g12
VCD
p279
sbag0
(g1
g2
(lp280
Vlegs
p281
atp282
Rp283
(dp284
g12
VNNS
p285
sbatp286
Rp287
(dp288
g12
VNP
p289
sbag0
(g1
g2
(lp290
V,
p291
atp292
Rp293
(dp294
g12
V,
p295
sbag0
(g1
g2
(lp296
g0
(g1
g2
(lp297
g0
(g1
g2
(lp298
Vthe
p299
atp300
Rp301
(dp302
g12
VDT
p303
sbag0
(g1
g2
(lp304
Vsink
p305
atp306
Rp307
(dp308
g12
VNN
p309
sbag0
(g1
g2
(lp310
V's
p311
atp312
Rp313
(dp314
g12
VPOS
p315
sbatp316
Rp317
(dp318
g12
VNP
p319
sbag0
(g1
g2
(lp320
g0
(g1
g2
(lp321
Vrunning
p322
atp323
Rp324
(dp325
g12
VVBG
p326
sbatp327
Rp328
(dp329
g12
VADJP
p330
sbag0
(g1
g2
(lp331
Vover
p332
atp333
Rp334
(dp335
g12
VRB
p336
sbatp337
Rp338
(dp339
g12
VNP
p340
sbatp341
Rp342
(dp343
g12
VNP
p344
sbag0
(g1
g2
(lp345
V,
p346
atp347
Rp348
(dp349
g12
V,
p350
sbag0
(g1
g2
(lp351
g0
(g1
g2
(lp352
g0
(g1
g2
(lp353
Vwater
p354
atp355
Rp356
(dp357
g12
VNN
p358
sbatp359
Rp360
(dp361
g12
VNP
p362
sbag0
(g1
g2
(lp363
g0
(g1
g2
(lp364
Von
p365
atp366
Rp367
(dp368
g12
VIN
p369
sbag0
(g1
g2
(lp370
g0
(g1
g2
(lp371
g0
(g1
g2
(lp372
Vthe
p373
atp374
Rp375
(dp376
g12
VDT
p377
sbag0
(g1
g2
(lp378
Vfloor
p379
atp380
Rp381
(dp382
g12
VNN
p383
sbatp384
Rp385
(dp386
g12
VNP
p387
sbag0
(g1
g2
(lp388
V,
p389
atp390
Rp391
(dp392
g12
V,
p393
sbag0
(g1
g2
(lp394
g0
(g1
g2
(lp395
g0
(g1
g2
(lp396
Vher
p397
atp398
Rp399
(dp400
g12
VPRP$
p401
sbatp402
Rp403
(dp404
g12
VNP
p405
sbag0
(g1
g2
(lp406
g0
(g1
g2
(lp407
Vwiping
p408
atp409
Rp410
(dp411
g12
VVBG
p412
sbag0
(g1
g2
(lp413
Vor
p414
atp415
Rp416
(dp417
g12
VCC
p418
sbag0
(g1
g2
(lp419
Vdrying
p420
atp421
Rp422
(dp423
g12
VVBG
p424
sbag0
(g1
g2
(lp425
g0
(g1
g2
(lp426
Vthe
p427
atp428
Rp429
(dp430
g12
VDT
p431
sbag0
(g1
g2
(lp432
Vdishes
p433
atp434
Rp435
(dp436
g12
VNNS
p437
sbatp438
Rp439
(dp440
g12
VNP
p441
sbatp442
Rp443
(dp444
g12
VVP
p445
sbatp446
Rp447
(dp448
g12
VNP
p449
sbatp450
Rp451
(dp452
g12
VNP
p453
sbatp454
Rp455
(dp456
g12
VPP
p457
sbatp458
Rp459
(dp460
g12
VNP
p461
sbatp462
Rp463
(dp464
g12
VNP
p465
sbatp466
Rp467
(dp468
g12
VVP
p469
sbatp470
Rp471
(dp472
g12
VVP
p473
sbag0
(g1
g2
(lp474
V.
p475
atp476
Rp477
(dp478
g12
V.
p479
sbatp480
Rp481
(dp482
g12
VS
p483
sbatp484
Rp485
(dp486
g12
S'id: 1'
p487
sbag0
(g1
g2
(lp488
g0
(g1
g2
(lp489
g0
(g1
g2
(lp490
g0
(g1
g2
(lp491
g0
(g1
g2
(lp492
VThe
p493
atp494
Rp495
(dp496
g12
VDT
p497
sbag0
(g1
g2
(lp498
Vwindow
p499
atp500
Rp501
(dp502
g12
VNN
p503
sbatp504
Rp505
(dp506
g12
VNP
p507
sbag0
(g1
g2
(lp508
g0
(g1
g2
(lp509
Vis
p510
atp511
Rp512
(dp513
g12
VVBZ
p514
sbag0
(g1
g2
(lp515
g0
(g1
g2
(lp516
Vopen
p517
atp518
Rp519
(dp520
g12
VJJ
p521
sbatp522
Rp523
(dp524
g12
VADJP
p525
sbag0
(g1
g2
(lp526
V,
p527
atp528
Rp529
(dp530
g12
V,
p531
sbag0
(g1
g2
(lp532
g0
(g1
g2
(lp533
Vapparently
p534
atp535
Rp536
(dp537
g12
VRB
p538
sbatp539
Rp540
(dp541
g12
VADVP
p542
sbag0
(g1
g2
(lp543
g0
(g1
g2
(lp544
Von
p545
atp546
Rp547
(dp548
g12
VIN
p549
sbag0
(g1
g2
(lp550
g0
(g1
g2
(lp551
Vthe
p552
atp553
Rp554
(dp555
g12
VDT
p556
sbag0
(g1
g2
(lp557
Vbottom
p558
atp559
Rp560
(dp561
g12
VNN
p562
sbatp563
Rp564
(dp565
g12
VNP
p566
sbatp567
Rp568
(dp569
g12
VPP
p570
sbatp571
Rp572
(dp573
g12
VVP
p574
sbatp575
Rp576
(dp577
g12
VS
p578
sbag0
(g1
g2
(lp579
V,
p580
atp581
Rp582
(dp583
g12
V,
p584
sbag0
(g1
g2
(lp585
Vand
p586
atp587
Rp588
(dp589
g12
VCC
p590
sbag0
(g1
g2
(lp591
g0
(g1
g2
(lp592
g0
(g1
g2
(lp593
Vshe
p594
atp595
Rp596
(dp597
g12
VPRP
p598
sbatp599
Rp600
(dp601
g12
VNP
p602
sbag0
(g1
g2
(lp603
g0
(g1
g2
(lp604
Vis
p605
atp606
Rp607
(dp608
g12
VVBZ
p609
sbag0
(g1
g2
(lp610
g0
(g1
g2
(lp611
Vlooking
p612
atp613
Rp614
(dp615
g12
VVBG
p616
sbag0
(g1
g2
(lp617
g0
(g1
g2
(lp618
Vout
p619
atp620
Rp621
(dp622
g12
VRP
p623
sbatp624
Rp625
(dp626
g12
VPRT
p627
sbag0
(g1
g2
(lp628
g0
(g1
g2
(lp629
Vinto
p630
atp631
Rp632
(dp633
g12
VIN
p634
sbag0
(g1
g2
(lp635
g0
(g1
g2
(lp636
g0
(g1
g2
(lp637
Vthe
p638
atp639
Rp640
(dp641
g12
VDT
p642
sbag0
(g1
g2
(lp643
Vback
p644
atp645
Rp646
(dp647
g12
VJJ
p648
sbag0
(g1
g2
(lp649
Vyard
p650
atp651
Rp652
(dp653
g12
VNN
p654
sbatp655
Rp656
(dp657
g12
VNP
p658
sbag0
(g1
g2
(lp659
V,
p660
atp661
Rp662
(dp663
g12
V,
p664
sbag0
(g1
g2
(lp665
Vor
p666
atp667
Rp668
(dp669
g12
VCC
p670
sbag0
(g1
g2
(lp671
g0
(g1
g2
(lp672
g0
(g1
g2
(lp673
Vthe
p674
atp675
Rp676
(dp677
g12
VDT
p678
sbag0
(g1
g2
(lp679
Vfront
p680
atp681
Rp682
(dp683
g12
VJJ
p684
sbag0
(g1
g2
(lp685
Vside
p686
atp687
Rp688
(dp689
g12
VNN
p690
sbatp691
Rp692
(dp693
g12
VNP
p694
sbag0
(g1
g2
(lp695
g0
(g1
g2
(lp696
Vof
p697
atp698
Rp699
(dp700
g12
VIN
p701
sbag0
(g1
g2
(lp702
g0
(g1
g2
(lp703
Vthe
p704
atp705
Rp706
(dp707
g12
VDT
p708
sbag0
(g1
g2
(lp709
Vhouse
p710
atp711
Rp712
(dp713
g12
VNN
p714
sbatp715
Rp716
(dp717
g12
VNP
p718
sbatp719
Rp720
(dp721
g12
VPP
p722
sbatp723
Rp724
(dp725
g12
VNP
p726
sbatp727
Rp728
(dp729
g12
VNP
p730
sbatp731
Rp732
(dp733
g12
VPP
p734
sbatp735
Rp736
(dp737
g12
VVP
p738
sbatp739
Rp740
(dp741
g12
VVP
p742
sbatp743
Rp744
(dp745
g12
VS
p746
sbag0
(g1
g2
(lp747
V.
p748
atp749
Rp750
(dp751
g12
V.
p752
sbatp753
Rp754
(dp755
g12
VS
p756
sbatp757
Rp758
(dp759
g12
S'id: 2'
p760
sbag0
(g1
g2
(lp761
g0
(g1
g2
(lp762
g0
(g1
g2
(lp763
g0
(g1
g2
(lp764
g0
(g1
g2
(lp765
Vyou
p766
atp767
Rp768
(dp769
g12
VPRP
p770
sbatp771
Rp772
(dp773
g12
VNP
p774
sbag0
(g1
g2
(lp775
g0
(g1
g2
(lp776
V've
p777
atp778
Rp779
(dp780
g12
VVBP
p781
sbag0
(g1
g2
(lp782
g0
(g1
g2
(lp783
Vgot
p784
atp785
Rp786
(dp787
g12
VVBD
p788
sbag0
(g1
g2
(lp789
g0
(g1
g2
(lp790
g0
(g1
g2
(lp791
g0
(g1
g2
(lp792
Vthree
p793
atp794
Rp795
(dp796
g12
VCD
p797
sbatp798
Rp799
(dp800
g12
VNP
p801
sbag0
(g1
g2
(lp802
g0
(g1
g2
(lp803
Vbowls
p804
atp805
Rp806
(dp807
g12
VVBZ
p808
sbatp809
Rp810
(dp811
g12
VVP
p812
sbatp813
Rp814
(dp815
g12
VNP
p816
sbag0
(g1
g2
(lp817
V,
p818
atp819
Rp820
(dp821
g12
V,
p822
sbag0
(g1
g2
(lp823
Vor
p824
atp825
Rp826
(dp827
g12
VCC
p828
sbag0
(g1
g2
(lp829
g0
(g1
g2
(lp830
g0
(g1
g2
(lp831
g0
(g1
g2
(lp832
Vtwo
p833
atp834
Rp835
(dp836
g12
VCD
p837
sbatp838
Rp839
(dp840
g12
VNP
p841
sbag0
(g1
g2
(lp842
g0
(g1
g2
(lp843
Vbowls
p844
atp845
Rp846
(dp847
g12
VVBZ
p848
sbatp849
Rp850
(dp851
g12
VVP
p852
sbatp853
Rp854
(dp855
g12
VNP
p856
sbag0
(g1
g2
(lp857
V,
p858
atp859
Rp860
(dp861
g12
V,
p862
sbag0
(g1
g2
(lp863
Vand
p864
atp865
Rp866
(dp867
g12
VCC
p868
sbag0
(g1
g2
(lp869
g0
(g1
g2
(lp870
g0
(g1
g2
(lp871
Va
p872
atp873
Rp874
(dp875
g12
VDT
p876
sbag0
(g1
g2
(lp877
Vtwo
p878
atp879
Rp880
(dp881
g12
VCD
p882
sbag0
(g1
g2
(lp883
Vplates
p884
atp885
Rp886
(dp887
g12
VNNS
p888
sbatp889
Rp890
(dp891
g12
VNP
p892
sbag0
(g1
g2
(lp893
g0
(g1
g2
(lp894
Vin
p895
atp896
Rp897
(dp898
g12
VIN
p899
sbag0
(g1
g2
(lp900
g0
(g1
g2
(lp901
Vthe
p902
atp903
Rp904
(dp905
g12
VDT
p906
sbag0
(g1
g2
(lp907
Vpicture
p908
atp909
Rp910
(dp911
g12
VNN
p912
sbatp913
Rp914
(dp915
g12
VNP
p916
sbatp917
Rp918
(dp919
g12
VPP
p920
sbatp921
Rp922
(dp923
g12
VNP
p924
sbatp925
Rp926
(dp927
g12
VNP
p928
sbatp929
Rp930
(dp931
g12
VNP
p932
sbatp933
Rp934
(dp935
g12
VVP
p936
sbatp937
Rp938
(dp939
g12
VVP
p940
sbatp941
Rp942
(dp943
g12
VS
p944
sbag0
(g1
g2
(lp945
V,
p946
atp947
Rp948
(dp949
g12
V,
p950
sbag0
(g1
g2
(lp951
g0
(g1
g2
(lp952
Vyou
p953
atp954
Rp955
(dp956
g12
VPRP
p957
sbatp958
Rp959
(dp960
g12
VNP
p961
sbag0
(g1
g2
(lp962
g0
(g1
g2
(lp963
V've
p964
atp965
Rp966
(dp967
g12
VVBP
p968
sbag0
(g1
g2
(lp969
g0
(g1
g2
(lp970
Vgot
p971
atp972
Rp973
(dp974
g12
VVBD
p975
sbag0
(g1
g2
(lp976
g0
(g1
g2
(lp977
Va
p978
atp979
Rp980
(dp981
g12
VDT
p982
sbag0
(g1
g2
(lp983
Vcookie
p984
atp985
Rp986
(dp987
g12
VNN
p988
sbag0
(g1
g2
(lp989
Vjar
p990
atp991
Rp992
(dp993
g12
VNN
p994
sbatp995
Rp996
(dp997
g12
VNP
p998
sbag0
(g1
g2
(lp999
g0
(g1
g2
(lp1000
Vwith
p1001
atp1002
Rp1003
(dp1004
g12
VIN
p1005
sbag0
(g1
g2
(lp1006
g0
(g1
g2
(lp1007
g0
(g1
g2
(lp1008
Va
p1009
atp1010
Rp1011
(dp1012
g12
VDT
p1013
sbag0
(g1
g2
(lp1014
Vlid
p1015
atp1016
Rp1017
(dp1018
g12
VNN
p1019
sbatp1020
Rp1021
(dp1022
g12
VNP
p1023
sbag0
(g1
g2
(lp1024
g0
(g1
g2
(lp1025
g0
(g1
g2
(lp1026
Vthat
p1027
atp1028
Rp1029
(dp1030
g12
VWDT
p1031
sbatp1032
Rp1033
(dp1034
g12
VWHNP
p1035
sbag0
(g1
g2
(lp1036
g0
(g1
g2
(lp1037
g0
(g1
g2
(lp1038
V's
p1039
atp1040
Rp1041
(dp1042
g12
VVBZ
p1043
sbag0
(g1
g2
(lp1044
g0
(g1
g2
(lp1045
Vleaning
p1046
atp1047
Rp1048
(dp1049
g12
VVBG
p1050
sbag0
(g1
g2
(lp1051
g0
(g1
g2
(lp1052
Vagainst
p1053
atp1054
Rp1055
(dp1056
g12
VIN
p1057
sbag0
(g1
g2
(lp1058
g0
(g1
g2
(lp1059
Vit
p1060
atp1061
Rp1062
(dp1063
g12
VPRP
p1064
sbatp1065
Rp1066
(dp1067
g12
VNP
p1068
sbatp1069
Rp1070
(dp1071
g12
VPP
p1072
sbatp1073
Rp1074
(dp1075
g12
VVP
p1076
sbatp1077
Rp1078
(dp1079
g12
VVP
p1080
sbatp1081
Rp1082
(dp1083
g12
VS
p1084
sbatp1085
Rp1086
(dp1087
g12
VSBAR
p1088
sbatp1089
Rp1090
(dp1091
g12
VNP
p1092
sbatp1093
Rp1094
(dp1095
g12
VPP
p1096
sbatp1097
Rp1098
(dp1099
g12
VVP
p1100
sbatp1101
Rp1102
(dp1103
g12
VVP
p1104
sbag0
(g1
g2
(lp1105
V.
p1106
atp1107
Rp1108
(dp1109
g12
V.
p1110
sbatp1111
Rp1112
(dp1113
g12
VS
p1114
sbatp1115
Rp1116
(dp1117
g12
S'id: 3'
p1118
sbag0
(g1
g2
(lp1119
g0
(g1
g2
(lp1120
g0
(g1
g2
(lp1121
g0
(g1
g2
(lp1122
g0
(g1
g2
(lp1123
VThere
p1124
atp1125
Rp1126
(dp1127
g12
VEX
p1128
sbatp1129
Rp1130
(dp1131
g12
VNP
p1132
sbag0
(g1
g2
(lp1133
g0
(g1
g2
(lp1134
g0
(g1
g2
(lp1135
Vare
p1136
atp1137
Rp1138
(dp1139
g12
VVBP
p1140
sbag0
(g1
g2
(lp1141
g0
(g1
g2
(lp1142
Vno
p1143
atp1144
Rp1145
(dp1146
g12
VDT
p1147
sbag0
(g1
g2
(lp1148
Vshelves
p1149
atp1150
Rp1151
(dp1152
g12
VNNS
p1153
sbatp1154
Rp1155
(dp1156
g12
VNP
p1157
sbatp1158
Rp1159
(dp1160
g12
VVP
p1161
sbag0
(g1
g2
(lp1162
Vor
p1163
atp1164
Rp1165
(dp1166
g12
VCC
p1167
sbag0
(g1
g2
(lp1168
g0
(g1
g2
(lp1169
Vhandles
p1170
atp1171
Rp1172
(dp1173
g12
VVBZ
p1174
sbatp1175
Rp1176
(dp1177
g12
VVP
p1178
sbatp1179
Rp1180
(dp1181
g12
VVP
p1182
sbatp1183
Rp1184
(dp1185
g12
VS
p1186
sbag0
(g1
g2
(lp1187
V,
p1188
atp1189
Rp1190
(dp1191
g12
V,
p1192
sbag0
(g1
g2
(lp1193
g0
(g1
g2
(lp1194
Vthat
p1195
atp1196
Rp1197
(dp1198
g12
VWDT
p1199
sbatp1200
Rp1201
(dp1202
g12
VNP
p1203
sbag0
(g1
g2
(lp1204
g0
(g1
g2
(lp1205
Vare
p1206
atp1207
Rp1208
(dp1209
g12
VVBP
p1210
sbag0
(g1
g2
(lp1211
g0
(g1
g2
(lp1212
Vseen
p1213
atp1214
Rp1215
(dp1216
g12
VVBN
p1217
sbag0
(g1
g2
(lp1218
g0
(g1
g2
(lp1219
Von
p1220
atp1221
Rp1222
(dp1223
g12
VIN
p1224
sbag0
(g1
g2
(lp1225
g0
(g1
g2
(lp1226
Vthe
p1227
atp1228
Rp1229
(dp1230
g12
VDT
p1231
sbag0
(g1
g2
(lp1232
Vdoors
p1233
atp1234
Rp1235
(dp1236
g12
VNNS
p1237
sbatp1238
Rp1239
(dp1240
g12
VNP
p1241
sbatp1242
Rp1243
(dp1244
g12
VPP
p1245
sbatp1246
Rp1247
(dp1248
g12
VVP
p1249
sbatp1250
Rp1251
(dp1252
g12
VVP
p1253
sbag0
(g1
g2
(lp1254
V.
p1255
atp1256
Rp1257
(dp1258
g12
V.
p1259
sbatp1260
Rp1261
(dp1262
g12
VS
p1263
sbatp1264
Rp1265
(dp1266
g12
S'id: 4'
p1267
sbag0
(g1
g2
(lp1268
g0
(g1
g2
(lp1269
g0
(g1
g2
(lp1270
g0
(g1
g2
(lp1271
VYou
p1272
atp1273
Rp1274
(dp1275
g12
VPRP
p1276
sbatp1277
Rp1278
(dp1279
g12
VNP
p1280
sbag0
(g1
g2
(lp1281
g0
(g1
g2
(lp1282
V've
p1283
atp1284
Rp1285
(dp1286
g12
VVBP
p1287
sbag0
(g1
g2
(lp1288
g0
(g1
g2
(lp1289
Vgot
p1290
atp1291
Rp1292
(dp1293
g12
VVBD
p1294
sbag0
(g1
g2
(lp1295
g0
(g1
g2
(lp1296
g0
(g1
g2
(lp1297
g0
(g1
g2
(lp1298
Vthe
p1299
atp1300
Rp1301
(dp1302
g12
VDT
p1303
sbatp1304
Rp1305
(dp1306
g12
VNP
p1307
sbag0
(g1
g2
(lp1308
g0
(g1
g2
(lp1309
Vhandles
p1310
atp1311
Rp1312
(dp1313
g12
VVBZ
p1314
sbag0
(g1
g2
(lp1315
g0
(g1
g2
(lp1316
Vdown
p1317
atp1318
Rp1319
(dp1320
g12
VRP
p1321
sbatp1322
Rp1323
(dp1324
g12
VPRT
p1325
sbag0
(g1
g2
(lp1326
g0
(g1
g2
(lp1327
Vhere
p1328
atp1329
Rp1330
(dp1331
g12
VRB
p1332
sbatp1333
Rp1334
(dp1335
g12
VADVP
p1336
sbag0
(g1
g2
(lp1337
g0
(g1
g2
(lp1338
Von
p1339
atp1340
Rp1341
(dp1342
g12
VIN
p1343
sbag0
(g1
g2
(lp1344
g0
(g1
g2
(lp1345
g0
(g1
g2
(lp1346
Vthe
p1347
atp1348
Rp1349
(dp1350
g12
VDT
p1351
sbag0
(g1
g2
(lp1352
Vbottom
p1353
atp1354
Rp1355
(dp1356
g12
VNN
p1357
sbatp1358
Rp1359
(dp1360
g12
VNP
p1361
sbag0
(g1
g2
(lp1362
V,
p1363
atp1364
Rp1365
(dp1366
g12
V,
p1367
sbag0
(g1
g2
(lp1368
g0
(g1
g2
(lp1369
g0
(g1
g2
(lp1370
Vthat
p1371
atp1372
Rp1373
(dp1374
g12
VWDT
p1375
sbatp1376
Rp1377
(dp1378
g12
VWHNP
p1379
sbag0
(g1
g2
(lp1380
g0
(g1
g2
(lp1381
g0
(g1
g2
(lp1382
Vare
p1383
atp1384
Rp1385
(dp1386
g12
VVBP
p1387
sbag0
(g1
g2
(lp1388
g0
(g1
g2
(lp1389
Vjust
p1390
atp1391
Rp1392
(dp1393
g12
VRB
p1394
sbatp1395
Rp1396
(dp1397
g12
VADVP
p1398
sbag0
(g1
g2
(lp1399
g0
(g1
g2
(lp1400
g0
(g1
g2
(lp1401
Vpull
p1402
atp1403
Rp1404
(dp1405
g12
VVB
p1406
sbag0
(g1
g2
(lp1407
g0
(g1
g2
(lp1408
g0
(g1
g2
(lp1409
Vlocks
p1410
atp1411
Rp1412
(dp1413
g12
VNNS
p1414
sbatp1415
Rp1416
(dp1417
g12
VNP
p1418
sbag0
(g1
g2
(lp1419
Vand
p1420
atp1421
Rp1422
(dp1423
g12
VCC
p1424
sbag0
(g1
g2
(lp1425
Vnot
p1426
atp1427
Rp1428
(dp1429
g12
VRB
p1430
sbag0
(g1
g2
(lp1431
g0
(g1
g2
(lp1432
Va
p1433
atp1434
Rp1435
(dp1436
g12
VDT
p1437
sbag0
(g1
g2
(lp1438
Vlittle
p1439
atp1440
Rp1441
(dp1442
g12
VJJ
p1443
sbag0
(g1
g2
(lp1444
Vknob
p1445
atp1446
Rp1447
(dp1448
g12
VNN
p1449
sbatp1450
Rp1451
(dp1452
g12
VNP
p1453
sbatp1454
Rp1455
(dp1456
g12
VNP
p1457
sbatp1458
Rp1459
(dp1460
g12
VVP
p1461
sbatp1462
Rp1463
(dp1464
g12
VS
p1465
sbatp1466
Rp1467
(dp1468
g12
VVP
p1469
sbatp1470
Rp1471
(dp1472
g12
VS
p1473
sbatp1474
Rp1475
(dp1476
g12
VSBAR
p1477
sbatp1478
Rp1479
(dp1480
g12
VNP
p1481
sbatp1482
Rp1483
(dp1484
g12
VPP
p1485
sbatp1486
Rp1487
(dp1488
g12
VVP
p1489
sbatp1490
Rp1491
(dp1492
g12
VS
p1493
sbatp1494
Rp1495
(dp1496
g12
VSBAR
p1497
sbatp1498
Rp1499
(dp1500
g12
VVP
p1501
sbatp1502
Rp1503
(dp1504
g12
VVP
p1505
sbag0
(g1
g2
(lp1506
V.
p1507
atp1508
Rp1509
(dp1510
g12
V.
p1511
sbatp1512
Rp1513
(dp1514
g12
VS
p1515
sbatp1516
Rp1517
(dp1518
g12
S'id: 5'
p1519
sbag0
(g1
g2
(lp1520
g0
(g1
g2
(lp1521
g0
(g1
g2
(lp1522
g0
(g1
g2
(lp1523
VYou
p1524
atp1525
Rp1526
(dp1527
g12
VPRP
p1528
sbatp1529
Rp1530
(dp1531
g12
VNP
p1532
sbag0
(g1
g2
(lp1533
g0
(g1
g2
(lp1534
V've
p1535
atp1536
Rp1537
(dp1538
g12
VVBP
p1539
sbag0
(g1
g2
(lp1540
g0
(g1
g2
(lp1541
Vgot
p1542
atp1543
Rp1544
(dp1545
g12
VVBD
p1546
sbag0
(g1
g2
(lp1547
g0
(g1
g2
(lp1548
g0
(g1
g2
(lp1549
g0
(g1
g2
(lp1550
g0
(g1
g2
(lp1551
Vtwo
p1552
atp1553
Rp1554
(dp1555
g12
VCD
p1556
sbag0
(g1
g2
(lp1557
Vfaucets
p1558
atp1559
Rp1560
(dp1561
g12
VNNS
p1562
sbatp1563
Rp1564
(dp1565
g12
VNP
p1566
sbag0
(g1
g2
(lp1567
g0
(g1
g2
(lp1568
Vover
p1569
atp1570
Rp1571
(dp1572
g12
VIN
p1573
sbag0
(g1
g2
(lp1574
g0
(g1
g2
(lp1575
Vhere
p1576
atp1577
Rp1578
(dp1579
g12
VRB
p1580
sbatp1581
Rp1582
(dp1583
g12
VNP
p1584
sbatp1585
Rp1586
(dp1587
g12
VPP
p1588
sbatp1589
Rp1590
(dp1591
g12
VNP
p1592
sbag0
(g1
g2
(lp1593
V,
p1594
atp1595
Rp1596
(dp1597
g12
V,
p1598
sbag0
(g1
g2
(lp1599
Vand
p1600
atp1601
Rp1602
(dp1603
g12
VCC
p1604
sbag0
(g1
g2
(lp1605
g0
(g1
g2
(lp1606
Vone
p1607
atp1608
Rp1609
(dp1610
g12
VCD
p1611
sbag0
(g1
g2
(lp1612
Vlarge
p1613
atp1614
Rp1615
(dp1616
g12
VJJ
p1617
sbag0
(g1
g2
(lp1618
Vsink
p1619
atp1620
Rp1621
(dp1622
g12
VNN
p1623
sbatp1624
Rp1625
(dp1626
g12
VNP
p1627
sbag0
(g1
g2
(lp1628
V,
p1629
atp1630
Rp1631
(dp1632
g12
V,
p1633
sbag0
(g1
g2
(lp1634
Vand
p1635
atp1636
Rp1637
(dp1638
g12
VCC
p1639
sbag0
(g1
g2
(lp1640
g0
(g1
g2
(lp1641
Vnot
p1642
atp1643
Rp1644
(dp1645
g12
VRB
p1646
sbag0
(g1
g2
(lp1647
Va
p1648
atp1649
Rp1650
(dp1651
g12
VDT
p1652
sbatp1653
Rp1654
(dp1655
g12
VNP
p1656
sbatp1657
Rp1658
(dp1659
g12
VNP
p1660
sbag0
(g1
g2
(lp1661
g0
(g1
g2
(lp1662
Vdrying
p1663
atp1664
Rp1665
(dp1666
g12
VVBG
p1667
sbag0
(g1
g2
(lp1668
Vor
p1669
atp1670
Rp1671
(dp1672
g12
VCC
p1673
sbag0
(g1
g2
(lp1674
Vrinsing
p1675
atp1676
Rp1677
(dp1678
g12
VVBG
p1679
sbag0
(g1
g2
(lp1680
g0
(g1
g2
(lp1681
Vside
p1682
atp1683
Rp1684
(dp1685
g12
VNN
p1686
sbatp1687
Rp1688
(dp1689
g12
VNP
p1690
sbatp1691
Rp1692
(dp1693
g12
VVP
p1694
sbatp1695
Rp1696
(dp1697
g12
VS
p1698
sbatp1699
Rp1700
(dp1701
g12
VVP
p1702
sbatp1703
Rp1704
(dp1705
g12
VVP
p1706
sbag0
(g1
g2
(lp1707
V.
p1708
atp1709
Rp1710
(dp1711
g12
V.
p1712
sbatp1713
Rp1714
(dp1715
g12
VS
p1716
sbatp1717
Rp1718
(dp1719
g12
S'id: 6'
p1720
sbag0
(g1
g2
(lp1721
g0
(g1
g2
(lp1722
g0
(g1
g2
(lp1723
g0
(g1
g2
(lp1724
g0
(g1
g2
(lp1725
Vyou
p1726
atp1727
Rp1728
(dp1729
g12
VPRP
p1730
sbatp1731
Rp1732
(dp1733
g12
VNP
p1734
sbag0
(g1
g2
(lp1735
g0
(g1
g2
(lp1736
V've
p1737
atp1738
Rp1739
(dp1740
g12
VVBP
p1741
sbag0
(g1
g2
(lp1742
g0
(g1
g2
(lp1743
Vgot
p1744
atp1745
Rp1746
(dp1747
g12
VVBN
p1748
sbag0
(g1
g2
(lp1749
g0
(g1
g2
(lp1750
V,
p1751
atp1752
Rp1753
(dp1754
g12
V,
p1755
sbag0
(g1
g2
(lp1756
g0
(g1
g2
(lp1757
g0
(g1
g2
(lp1758
Vthe
p1759
atp1760
Rp1761
(dp1762
g12
VDT
p1763
sbag0
(g1
g2
(lp1764
Vpicture
p1765
atp1766
Rp1767
(dp1768
g12
VNN
p1769
sbatp1770
Rp1771
(dp1772
g12
VNP
p1773
sbag0
(g1
g2
(lp1774
g0
(g1
g2
(lp1775
Vwas
p1776
atp1777
Rp1778
(dp1779
g12
VVBD
p1780
sbag0
(g1
g2
(lp1781
g0
(g1
g2
(lp1782
Vprobably
p1783
atp1784
Rp1785
(dp1786
g12
VRB
p1787
sbatp1788
Rp1789
(dp1790
g12
VADVP
p1791
sbag0
(g1
g2
(lp1792
g0
(g1
g2
(lp1793
Vdone
p1794
atp1795
Rp1796
(dp1797
g12
VVBN
p1798
sbag0
(g1
g2
(lp1799
g0
(g1
g2
(lp1800
Vback
p1801
atp1802
Rp1803
(dp1804
g12
VRB
p1805
sbatp1806
Rp1807
(dp1808
g12
VADVP
p1809
sbag0
(g1
g2
(lp1810
g0
(g1
g2
(lp1811
Vin
p1812
atp1813
Rp1814
(dp1815
g12
VIN
p1816
sbag0
(g1
g2
(lp1817
g0
(g1
g2
(lp1818
Vthe
p1819
atp1820
Rp1821
(dp1822
g12
VDT
p1823
sbag0
(g1
g2
(lp1824
Vlate
p1825
atp1826
Rp1827
(dp1828
g12
VJJ
p1829
sbag0
(g1
g2
(lp1830
Vfifties
p1831
atp1832
Rp1833
(dp1834
g12
VNNS
p1835
sbatp1836
Rp1837
(dp1838
g12
VNP
p1839
sbatp1840
Rp1841
(dp1842
g12
VPP
p1843
sbatp1844
Rp1845
(dp1846
g12
VVP
p1847
sbatp1848
Rp1849
(dp1850
g12
VVP
p1851
sbatp1852
Rp1853
(dp1854
g12
VS
p1855
sbag0
(g1
g2
(lp1856
V,
p1857
atp1858
Rp1859
(dp1860
g12
V,
p1861
sbatp1862
Rp1863
(dp1864
g12
VPRN
p1865
sbag0
(g1
g2
(lp1866
g0
(g1
g2
(lp1867
Vthat
p1868
atp1869
Rp1870
(dp1871
g12
VIN
p1872
sbag0
(g1
g2
(lp1873
Vsort
p1874
atp1875
Rp1876
(dp1877
g12
VNN
p1878
sbag0
(g1
g2
(lp1879
g0
(g1
g2
(lp1880
Vof
p1881
atp1882
Rp1883
(dp1884
g12
VIN
p1885
sbag0
(g1
g2
(lp1886
g0
(g1
g2
(lp1887
Vera
p1888
atp1889
Rp1890
(dp1891
g12
VNN
p1892
sbatp1893
Rp1894
(dp1895
g12
VNP
p1896
sbatp1897
Rp1898
(dp1899
g12
VPP
p1900
sbatp1901
Rp1902
(dp1903
g12
VADVP
p1904
sbag0
(g1
g2
(lp1905
g0
(g1
g2
(lp1906
Vbecause
p1907
atp1908
Rp1909
(dp1910
g12
VIN
p1911
sbag0
(g1
g2
(lp1912
g0
(g1
g2
(lp1913
Vlook
p1914
atp1915
Rp1916
(dp1917
g12
VNN
p1918
sbatp1919
Rp1920
(dp1921
g12
VNP
p1922
sbatp1923
Rp1924
(dp1925
g12
VPP
p1926
sbag0
(g1
g2
(lp1927
g0
(g1
g2
(lp1928
Vat
p1929
atp1930
Rp1931
(dp1932
g12
VIN
p1933
sbag0
(g1
g2
(lp1934
g0
(g1
g2
(lp1935
Vthe
p1936
atp1937
Rp1938
(dp1939
g12
VDT
p1940
sbag0
(g1
g2
(lp1941
Vlittle
p1942
atp1943
Rp1944
(dp1945
g12
VJJ
p1946
sbag0
(g1
g2
(lp1947
Vmini
p1948
atp1949
Rp1950
(dp1951
g12
VJJ
p1952
sbag0
(g1
g2
(lp1953
Vskirt
p1954
atp1955
Rp1956
(dp1957
g12
VNN
p1958
sbatp1959
Rp1960
(dp1961
g12
VNP
p1962
sbatp1963
Rp1964
(dp1965
g12
VPP
p1966
sbag0
(g1
g2
(lp1967
V,
p1968
atp1969
Rp1970
(dp1971
g12
V,
p1972
sbag0
(g1
g2
(lp1973
g0
(g1
g2
(lp1974
Vthat
p1975
atp1976
Rp1977
(dp1978
g12
VIN
p1979
sbag0
(g1
g2
(lp1980
g0
(g1
g2
(lp1981
g0
(g1
g2
(lp1982
Vthe
p1983
atp1984
Rp1985
(dp1986
g12
VDT
p1987
sbag0
(g1
g2
(lp1988
Vgirls
p1989
atp1990
Rp1991
(dp1992
g12
VNNS
p1993
sbatp1994
Rp1995
(dp1996
g12
VNP
p1997
sbag0
(g1
g2
(lp1998
g0
(g1
g2
(lp1999
g0
(g1
g2
(lp2000
Vgot
p2001
atp2002
Rp2003
(dp2004
g12
VVBD
p2005
sbatp2006
Rp2007
(dp2008
g12
VVP
p2009
sbag0
(g1
g2
(lp2010
Vor
p2011
atp2012
Rp2013
(dp2014
g12
VCC
p2015
sbag0
(g1
g2
(lp2016
g0
(g1
g2
(lp2017
g0
(g1
g2
(lp2018
Veither
p2019
atp2020
Rp2021
(dp2022
g12
VCC
p2023
sbag0
(g1
g2
(lp2024
g0
(g1
g2
(lp2025
Vthe
p2026
atp2027
Rp2028
(dp2029
g12
VDT
p2030
sbag0
(g1
g2
(lp2031
Vlittle
p2032
atp2033
Rp2034
(dp2035
g12
VJJ
p2036
sbag0
(g1
g2
(lp2037
Vthing
p2038
atp2039
Rp2040
(dp2041
g12
VNN
p2042
sbatp2043
Rp2044
(dp2045
g12
VNP
p2046
sbatp2047
Rp2048
(dp2049
g12
VPP
p2050
sbag0
(g1
g2
(lp2051
g0
(g1
g2
(lp2052
Vdown
p2053
atp2054
Rp2055
(dp2056
g12
VRB
p2057
sbatp2058
Rp2059
(dp2060
g12
VADVP
p2061
sbatp2062
Rp2063
(dp2064
g12
VVP
p2065
sbatp2066
Rp2067
(dp2068
g12
VVP
p2069
sbatp2070
Rp2071
(dp2072
g12
VS
p2073
sbatp2074
Rp2075
(dp2076
g12
VSBAR
p2077
sbatp2078
Rp2079
(dp2080
g12
VVP
p2081
sbatp2082
Rp2083
(dp2084
g12
VVP
p2085
sbatp2086
Rp2087
(dp2088
g12
VS
p2089
sbag0
(g1
g2
(lp2090
V,
p2091
atp2092
Rp2093
(dp2094
g12
V,
p2095
sbag0
(g1
g2
(lp2096
Vand
p2097
atp2098
Rp2099
(dp2100
g12
VCC
p2101
sbag0
(g1
g2
(lp2102
g0
(g1
g2
(lp2103
g0
(g1
g2
(lp2104
Vthe
p2105
atp2106
Rp2107
(dp2108
g12
VDT
p2109
sbag0
(g1
g2
(lp2110
Vpants
p2111
atp2112
Rp2113
(dp2114
g12
VNNS
p2115
sbatp2116
Rp2117
(dp2118
g12
VNP
p2119
sbag0
(g1
g2
(lp2120
g0
(g1
g2
(lp2121
Vcome
p2122
atp2123
Rp2124
(dp2125
g12
VVBP
p2126
sbag0
(g1
g2
(lp2127
g0
(g1
g2
(lp2128
Vup
p2129
atp2130
Rp2131
(dp2132
g12
VRP
p2133
sbatp2134
Rp2135
(dp2136
g12
VPRT
p2137
sbag0
(g1
g2
(lp2138
g0
(g1
g2
(lp2139
Varound
p2140
atp2141
Rp2142
(dp2143
g12
VIN
p2144
sbag0
(g1
g2
(lp2145
g0
(g1
g2
(lp2146
Vthe
p2147
atp2148
Rp2149
(dp2150
g12
VDT
p2151
sbag0
(g1
g2
(lp2152
Vankles
p2153
atp2154
Rp2155
(dp2156
g12
VNNS
p2157
sbatp2158
Rp2159
(dp2160
g12
VNP
p2161
sbatp2162
Rp2163
(dp2164
g12
VPP
p2165
sbag0
(g1
g2
(lp2166
V,
p2167
atp2168
Rp2169
(dp2170
g12
V,
p2171
sbag0
(g1
g2
(lp2172
g0
(g1
g2
(lp2173
Vdepending
p2174
atp2175
Rp2176
(dp2177
g12
VVBG
p2178
sbag0
(g1
g2
(lp2179
g0
(g1
g2
(lp2180
Von
p2181
atp2182
Rp2183
(dp2184
g12
VIN
p2185
sbag0
(g1
g2
(lp2186
g0
(g1
g2
(lp2187
g0
(g1
g2
(lp2188
Vhow
p2189
atp2190
Rp2191
(dp2192
g12
VWRB
p2193
sbatp2194
Rp2195
(dp2196
g12
VWHADVP
p2197
sbag0
(g1
g2
(lp2198
g0
(g1
g2
(lp2199
g0
(g1
g2
(lp2200
Vthat
p2201
atp2202
Rp2203
(dp2204
g12
VDT
p2205
sbatp2206
Rp2207
(dp2208
g12
VNP
p2209
sbag0
(g1
g2
(lp2210
g0
(g1
g2
(lp2211
Vis
p2212
atp2213
Rp2214
(dp2215
g12
VVBZ
p2216
sbag0
(g1
g2
(lp2217
g0
(g1
g2
(lp2218
Vsince
p2219
atp2220
Rp2221
(dp2222
g12
VIN
p2223
sbag0
(g1
g2
(lp2224
g0
(g1
g2
(lp2225
g0
(g1
g2
(lp2226
VI
p2227
atp2228
Rp2229
(dp2230
g12
VPRP
p2231
sbatp2232
Rp2233
(dp2234
g12
VNP
p2235
sbag0
(g1
g2
(lp2236
g0
(g1
g2
(lp2237
Vca
p2238
atp2239
Rp2240
(dp2241
g12
VMD
p2242
sbag0
(g1
g2
(lp2243
Vn't
p2244
atp2245
Rp2246
(dp2247
g12
VRB
p2248
sbag0
(g1
g2
(lp2249
g0
(g1
g2
(lp2250
Vtell
p2251
atp2252
Rp2253
(dp2254
g12
VVB
p2255
sbag0
(g1
g2
(lp2256
g0
(g1
g2
(lp2257
Vthe
p2258
atp2259
Rp2260
(dp2261
g12
VDT
p2262
sbag0
(g1
g2
(lp2263
Vmuscle
p2264
atp2265
Rp2266
(dp2267
g12
VNN
p2268
sbag0
(g1
g2
(lp2269
Vdescription
p2270
atp2271
Rp2272
(dp2273
g12
VNN
p2274
sbatp2275
Rp2276
(dp2277
g12
VNP
p2278
sbatp2279
Rp2280
(dp2281
g12
VVP
p2282
sbatp2283
Rp2284
(dp2285
g12
VVP
p2286
sbatp2287
Rp2288
(dp2289
g12
VS
p2290
sbatp2291
Rp2292
(dp2293
g12
VSBAR
p2294
sbatp2295
Rp2296
(dp2297
g12
VVP
p2298
sbatp2299
Rp2300
(dp2301
g12
VS
p2302
sbatp2303
Rp2304
(dp2305
g12
VSBAR
p2306
sbatp2307
Rp2308
(dp2309
g12
VPP
p2310
sbatp2311
Rp2312
(dp2313
g12
VPP
p2314
sbatp2315
Rp2316
(dp2317
g12
VVP
p2318
sbatp2319
Rp2320
(dp2321
g12
VS
p2322
sbag0
(g1
g2
(lp2323
V.
p2324
atp2325
Rp2326
(dp2327
g12
V.
p2328
sbatp2329
Rp2330
(dp2331
g12
VS
p2332
sbatp2333
Rp2334
(dp2335
g12
S'id: 7'
p2336
sbag0
(g1
g2
(lp2337
g0
(g1
g2
(lp2338
g0
(g1
g2
(lp2339
g0
(g1
g2
(lp2340
g0
(g1
g2
(lp2341
VThat
p2342
atp2343
Rp2344
(dp2345
g12
VDT
p2346
sbag0
(g1
g2
(lp2347
Vkid
p2348
atp2349
Rp2350
(dp2351
g12
VNN
p2352
sbatp2353
Rp2354
(dp2355
g12
VNP
p2356
sbag0
(g1
g2
(lp2357
g0
(g1
g2
(lp2358
Vapparently
p2359
atp2360
Rp2361
(dp2362
g12
VRB
p2363
sbatp2364
Rp2365
(dp2366
g12
VADVP
p2367
sbag0
(g1
g2
(lp2368
g0
(g1
g2
(lp2369
Vis
p2370
atp2371
Rp2372
(dp2373
g12
VVBZ
p2374
sbag0
(g1
g2
(lp2375
g0
(g1
g2
(lp2376
Vgoing
p2377
atp2378
Rp2379
(dp2380
g12
VVBG
p2381
sbag0
(g1
g2
(lp2382
g0
(g1
g2
(lp2383
g0
(g1
g2
(lp2384
Vto
p2385
atp2386
Rp2387
(dp2388
g12
VTO
p2389
sbag0
(g1
g2
(lp2390
g0
(g1
g2
(lp2391
Vhit
p2392
atp2393
Rp2394
(dp2395
g12
VVB
p2396
sbag0
(g1
g2
(lp2397
g0
(g1
g2
(lp2398
g0
(g1
g2
(lp2399
Vthe
p2400
atp2401
Rp2402
(dp2403
g12
VDT
p2404
sbag0
(g1
g2
(lp2405
Vback
p2406
atp2407
Rp2408
(dp2409
g12
VNN
p2410
sbatp2411
Rp2412
(dp2413
g12
VNP
p2414
sbag0
(g1
g2
(lp2415
g0
(g1
g2
(lp2416
Vof
p2417
atp2418
Rp2419
(dp2420
g12
VIN
p2421
sbag0
(g1
g2
(lp2422
g0
(g1
g2
(lp2423
g0
(g1
g2
(lp2424
Vhis
p2425
atp2426
Rp2427
(dp2428
g12
VPRP$
p2429
sbag0
(g1
g2
(lp2430
Vhead
p2431
atp2432
Rp2433
(dp2434
g12
VNN
p2435
sbatp2436
Rp2437
(dp2438
g12
VNP
p2439
sbag0
(g1
g2
(lp2440
g0
(g1
g2
(lp2441
Vthe
p2442
atp2443
Rp2444
(dp2445
g12
VDT
p2446
sbag0
(g1
g2
(lp2447
Vway
p2448
atp2449
Rp2450
(dp2451
g12
VNN
p2452
sbatp2453
Rp2454
(dp2455
g12
VNP
p2456
sbatp2457
Rp2458
(dp2459
g12
VNP
p2460
sbatp2461
Rp2462
(dp2463
g12
VPP
p2464
sbag0
(g1
g2
(lp2465
g0
(g1
g2
(lp2466
g0
(g1
g2
(lp2467
g0
(g1
g2
(lp2468
Vhe
p2469
atp2470
Rp2471
(dp2472
g12
VPRP
p2473
sbatp2474
Rp2475
(dp2476
g12
VNP
p2477
sbag0
(g1
g2
(lp2478
g0
(g1
g2
(lp2479
Vfalls
p2480
atp2481
Rp2482
(dp2483
g12
VVBZ
p2484
sbatp2485
Rp2486
(dp2487
g12
VVP
p2488
sbatp2489
Rp2490
(dp2491
g12
VS
p2492
sbatp2493
Rp2494
(dp2495
g12
VSBAR
p2496
sbatp2497
Rp2498
(dp2499
g12
VNP
p2500
sbatp2501
Rp2502
(dp2503
g12
VVP
p2504
sbatp2505
Rp2506
(dp2507
g12
VVP
p2508
sbatp2509
Rp2510
(dp2511
g12
VS
p2512
sbatp2513
Rp2514
(dp2515
g12
VVP
p2516
sbatp2517
Rp2518
(dp2519
g12
VVP
p2520
sbatp2521
Rp2522
(dp2523
g12
VS
p2524
sbag0
(g1
g2
(lp2525
V,
p2526
atp2527
Rp2528
(dp2529
g12
V,
p2530
sbag0
(g1
g2
(lp2531
g0
(g1
g2
(lp2532
Vhe
p2533
atp2534
Rp2535
(dp2536
g12
VPRP
p2537
sbatp2538
Rp2539
(dp2540
g12
VNP
p2541
sbag0
(g1
g2
(lp2542
g0
(g1
g2
(lp2543
V's
p2544
atp2545
Rp2546
(dp2547
g12
VVBZ
p2548
sbag0
(g1
g2
(lp2549
Vnot
p2550
atp2551
Rp2552
(dp2553
g12
VRB
p2554
sbag0
(g1
g2
(lp2555
g0
(g1
g2
(lp2556
Vgoing
p2557
atp2558
Rp2559
(dp2560
g12
VVBG
p2561
sbag0
(g1
g2
(lp2562
g0
(g1
g2
(lp2563
g0
(g1
g2
(lp2564
Vto
p2565
atp2566
Rp2567
(dp2568
g12
VTO
p2569
sbag0
(g1
g2
(lp2570
g0
(g1
g2
(lp2571
Vcome
p2572
atp2573
Rp2574
(dp2575
g12
VVB
p2576
sbag0
(g1
g2
(lp2577
g0
(g1
g2
(lp2578
Vdown
p2579
atp2580
Rp2581
(dp2582
g12
VRP
p2583
sbatp2584
Rp2585
(dp2586
g12
VPRT
p2587
sbag0
(g1
g2
(lp2588
g0
(g1
g2
(lp2589
Von
p2590
atp2591
Rp2592
(dp2593
g12
VIN
p2594
sbag0
(g1
g2
(lp2595
g0
(g1
g2
(lp2596
Vhis
p2597
atp2598
Rp2599
(dp2600
g12
VPRP$
p2601
sbag0
(g1
g2
(lp2602
Vfeet
p2603
atp2604
Rp2605
(dp2606
g12
VNNS
p2607
sbatp2608
Rp2609
(dp2610
g12
VNP
p2611
sbatp2612
Rp2613
(dp2614
g12
VPP
p2615
sbatp2616
Rp2617
(dp2618
g12
VVP
p2619
sbatp2620
Rp2621
(dp2622
g12
VVP
p2623
sbatp2624
Rp2625
(dp2626
g12
VS
p2627
sbatp2628
Rp2629
(dp2630
g12
VVP
p2631
sbatp2632
Rp2633
(dp2634
g12
VVP
p2635
sbag0
(g1
g2
(lp2636
V.
p2637
atp2638
Rp2639
(dp2640
g12
V.
p2641
sbatp2642
Rp2643
(dp2644
g12
VS
p2645
sbatp2646
Rp2647
(dp2648
g12
S'id: 8'
p2649
sbag0
(g1
g2
(lp2650
g0
(g1
g2
(lp2651
g0
(g1
g2
(lp2652
VAnd
p2653
atp2654
Rp2655
(dp2656
g12
VCC
p2657
sbag0
(g1
g2
(lp2658
g0
(g1
g2
(lp2659
Vwhat
p2660
atp2661
Rp2662
(dp2663
g12
VWP
p2664
sbatp2665
Rp2666
(dp2667
g12
VNP
p2668
sbag0
(g1
g2
(lp2669
g0
(g1
g2
(lp2670
g0
(g1
g2
(lp2671
g0
(g1
g2
(lp2672
Vsorta
p2673
atp2674
Rp2675
(dp2676
g12
VNN
p2677
sbag0
(g1
g2
(lp2678
Vthing
p2679
atp2680
Rp2681
(dp2682
g12
VNN
p2683
sbatp2684
Rp2685
(dp2686
g12
VNP
p2687
sbag0
(g1
g2
(lp2688
g0
(g1
g2
(lp2689
Vabout
p2690
atp2691
Rp2692
(dp2693
g12
VIN
p2694
sbag0
(g1
g2
(lp2695
g0
(g1
g2
(lp2696
g0
(g1
g2
(lp2697
Vthe
p2698
atp2699
Rp2700
(dp2701
g12
VDT
p2702
sbag0
(g1
g2
(lp2703
Vwindow
p2704
atp2705
Rp2706
(dp2707
g12
VNN
p2708
sbatp2709
Rp2710
(dp2711
g12
VNP
p2712
sbag0
(g1
g2
(lp2713
Vand
p2714
atp2715
Rp2716
(dp2717
g12
VCC
p2718
sbag0
(g1
g2
(lp2719
g0
(g1
g2
(lp2720
g0
(g1
g2
(lp2721
Vthe
p2722
atp2723
Rp2724
(dp2725
g12
VDT
p2726
sbag0
(g1
g2
(lp2727
Vcurtains
p2728
atp2729
Rp2730
(dp2731
g12
VNNS
p2732
sbatp2733
Rp2734
(dp2735
g12
VNP
p2736
sbag0
(g1
g2
(lp2737
g0
(g1
g2
(lp2738
Vbeing
p2739
atp2740
Rp2741
(dp2742
g12
VVBG
p2743
sbag0
(g1
g2
(lp2744
g0
(g1
g2
(lp2745
Vdrawn
p2746
atp2747
Rp2748
(dp2749
g12
VVBN
p2750
sbag0
(g1
g2
(lp2751
g0
(g1
g2
(lp2752
Vback
p2753
atp2754
Rp2755
(dp2756
g12
VRB
p2757
sbatp2758
Rp2759
(dp2760
g12
VADVP
p2761
sbatp2762
Rp2763
(dp2764
g12
VVP
p2765
sbatp2766
Rp2767
(dp2768
g12
VVP
p2769
sbatp2770
Rp2771
(dp2772
g12
VNP
p2773
sbatp2774
Rp2775
(dp2776
g12
VNP
p2777
sbatp2778
Rp2779
(dp2780
g12
VPP
p2781
sbatp2782
Rp2783
(dp2784
g12
VNP
p2785
sbag0
(g1
g2
(lp2786
V,
p2787
atp2788
Rp2789
(dp2790
g12
V,
p2791
sbag0
(g1
g2
(lp2792
g0
(g1
g2
(lp2793
g0
(g1
g2
(lp2794
Vthe
p2795
atp2796
Rp2797
(dp2798
g12
VDT
p2799
sbag0
(g1
g2
(lp2800
Vtie
p2801
atp2802
Rp2803
(dp2804
g12
VJJ
p2805
sbag0
(g1
g2
(lp2806
Vbacks
p2807
atp2808
Rp2809
(dp2810
g12
VNNS
p2811
sbatp2812
Rp2813
(dp2814
g12
VNP
p2815
sbag0
(g1
g2
(lp2816
g0
(g1
g2
(lp2817
Vthere
p2818
atp2819
Rp2820
(dp2821
g12
VRB
p2822
sbatp2823
Rp2824
(dp2825
g12
VADVP
p2826
sbatp2827
Rp2828
(dp2829
g12
VNP
p2830
sbatp2831
Rp2832
(dp2833
g12
VVP
p2834
sbag0
(g1
g2
(lp2835
V.
p2836
atp2837
Rp2838
(dp2839
g12
V.
p2840
sbatp2841
Rp2842
(dp2843
g12
VS
p2844
sbatp2845
Rp2846
(dp2847
g12
S'id: 9'
p2848
sbag0
(g1
g2
(lp2849
g0
(g1
g2
(lp2850
g0
(g1
g2
(lp2851
g0
(g1
g2
(lp2852
VYouve
p2853
atp2854
Rp2855
(dp2856
g12
VNNP
p2857
sbatp2858
Rp2859
(dp2860
g12
VNP
p2861
sbag0
(g1
g2
(lp2862
g0
(g1
g2
(lp2863
Vgot
p2864
atp2865
Rp2866
(dp2867
g12
VVBD
p2868
sbag0
(g1
g2
(lp2869
g0
(g1
g2
(lp2870
Vapparently
p2871
atp2872
Rp2873
(dp2874
g12
VRB
p2875
sbatp2876
Rp2877
(dp2878
g12
VADVP
p2879
sbag0
(g1
g2
(lp2880
g0
(g1
g2
(lp2881
g0
(g1
g2
(lp2882
Vthe
p2883
atp2884
Rp2885
(dp2886
g12
VDT
p2887
sbatp2888
Rp2889
(dp2890
g12
VNP
p2891
sbag0
(g1
g2
(lp2892
V,
p2893
atp2894
Rp2895
(dp2896
g12
V,
p2897
sbag0
(g1
g2
(lp2898
g0
(g1
g2
(lp2899
g0
(g1
g2
(lp2900
Vthe
p2901
atp2902
Rp2903
(dp2904
g12
VDT
p2905
sbag0
(g1
g2
(lp2906
Vwalk
p2907
atp2908
Rp2909
(dp2910
g12
VNN
p2911
sbatp2912
Rp2913
(dp2914
g12
VNP
p2915
sbag0
(g1
g2
(lp2916
g0
(g1
g2
(lp2917
Varound
p2918
atp2919
Rp2920
(dp2921
g12
VIN
p2922
sbag0
(g1
g2
(lp2923
g0
(g1
g2
(lp2924
Vthe
p2925
atp2926
Rp2927
(dp2928
g12
VDT
p2929
sbag0
(g1
g2
(lp2930
Vhouse
p2931
atp2932
Rp2933
(dp2934
g12
VNN
p2935
sbatp2936
Rp2937
(dp2938
g12
VNP
p2939
sbatp2940
Rp2941
(dp2942
g12
VPP
p2943
sbatp2944
Rp2945
(dp2946
g12
VNP
p2947
sbag0
(g1
g2
(lp2948
V,
p2949
atp2950
Rp2951
(dp2952
g12
V,
p2953
sbag0
(g1
g2
(lp2954
g0
(g1
g2
(lp2955
Vthe
p2956
atp2957
Rp2958
(dp2959
g12
VDT
p2960
sbag0
(g1
g2
(lp2961
Vpath
p2962
atp2963
Rp2964
(dp2965
g12
VNN
p2966
sbatp2967
Rp2968
(dp2969
g12
VNP
p2970
sbag0
(g1
g2
(lp2971
V,
p2972
atp2973
Rp2974
(dp2975
g12
V,
p2976
sbag0
(g1
g2
(lp2977
Vor
p2978
atp2979
Rp2980
(dp2981
g12
VCC
p2982
sbag0
(g1
g2
(lp2983
g0
(g1
g2
(lp2984
g0
(g1
g2
(lp2985
Vthe
p2986
atp2987
Rp2988
(dp2989
g12
VDT
p2990
sbag0
(g1
g2
(lp2991
Vsidewalk
p2992
atp2993
Rp2994
(dp2995
g12
VNN
p2996
sbatp2997
Rp2998
(dp2999
g12
VNP
p3000
sbag0
(g1
g2
(lp3001
g0
(g1
g2
(lp3002
g0
(g1
g2
(lp3003
Vthat
p3004
atp3005
Rp3006
(dp3007
g12
VWDT
p3008
sbatp3009
Rp3010
(dp3011
g12
VWHNP
p3012
sbag0
(g1
g2
(lp3013
g0
(g1
g2
(lp3014
g0
(g1
g2
(lp3015
Vmight
p3016
atp3017
Rp3018
(dp3019
g12
VMD
p3020
sbag0
(g1
g2
(lp3021
g0
(g1
g2
(lp3022
Vbe
p3023
atp3024
Rp3025
(dp3026
g12
VVB
p3027
sbag0
(g1
g2
(lp3028
g0
(g1
g2
(lp3029
Vthere
p3030
atp3031
Rp3032
(dp3033
g12
VRB
p3034
sbatp3035
Rp3036
(dp3037
g12
VADVP
p3038
sbatp3039
Rp3040
(dp3041
g12
VVP
p3042
sbatp3043
Rp3044
(dp3045
g12
VVP
p3046
sbatp3047
Rp3048
(dp3049
g12
VS
p3050
sbatp3051
Rp3052
(dp3053
g12
VSBAR
p3054
sbatp3055
Rp3056
(dp3057
g12
VNP
p3058
sbatp3059
Rp3060
(dp3061
g12
VNP
p3062
sbatp3063
Rp3064
(dp3065
g12
VVP
p3066
sbag0
(g1
g2
(lp3067
V.
p3068
atp3069
Rp3070
(dp3071
g12
V.
p3072
sbatp3073
Rp3074
(dp3075
g12
VS
p3076
sbatp3077
Rp3078
(dp3079
g12
S'id: 10'
p3080
sbag0
(g1
g2
(lp3081
g0
(g1
g2
(lp3082
g0
(g1
g2
(lp3083
g0
(g1
g2
(lp3084
VGot
p3085
atp3086
Rp3087
(dp3088
g12
VVBD
p3089
sbag0
(g1
g2
(lp3090
g0
(g1
g2
(lp3091
g0
(g1
g2
(lp3092
Va
p3093
atp3094
Rp3095
(dp3096
g12
VDT
p3097
sbag0
(g1
g2
(lp3098
Vcouple
p3099
atp3100
Rp3101
(dp3102
g12
VNN
p3103
sbatp3104
Rp3105
(dp3106
g12
VNP
p3107
sbag0
(g1
g2
(lp3108
g0
(g1
g2
(lp3109
Vof
p3110
atp3111
Rp3112
(dp3113
g12
VIN
p3114
sbag0
(g1
g2
(lp3115
g0
(g1
g2
(lp3116
Vbushes
p3117
atp3118
Rp3119
(dp3120
g12
VNNS
p3121
sbatp3122
Rp3123
(dp3124
g12
VNP
p3125
sbatp3126
Rp3127
(dp3128
g12
VPP
p3129
sbatp3130
Rp3131
(dp3132
g12
VNP
p3133
sbag0
(g1
g2
(lp3134
g0
(g1
g2
(lp3135
Vin
p3136
atp3137
Rp3138
(dp3139
g12
VIN
p3140
sbag0
(g1
g2
(lp3141
g0
(g1
g2
(lp3142
Vthe
p3143
atp3144
Rp3145
(dp3146
g12
VDT
p3147
sbag0
(g1
g2
(lp3148
Vyard
p3149
atp3150
Rp3151
(dp3152
g12
VNN
p3153
sbatp3154
Rp3155
(dp3156
g12
VNP
p3157
sbatp3158
Rp3159
(dp3160
g12
VPP
p3161
sbatp3162
Rp3163
(dp3164
g12
VVP
p3165
sbag0
(g1
g2
(lp3166
V.
p3167
atp3168
Rp3169
(dp3170
g12
V.
p3171
sbatp3172
Rp3173
(dp3174
g12
VS
p3175
sbatp3176
Rp3177
(dp3178
g12
S'id: 11'
p3179
sbag0
(g1
g2
(lp3180
g0
(g1
g2
(lp3181
g0
(g1
g2
(lp3182
VAnd
p3183
atp3184
Rp3185
(dp3186
g12
VCC
p3187
sbag0
(g1
g2
(lp3188
g0
(g1
g2
(lp3189
Vshe
p3190
atp3191
Rp3192
(dp3193
g12
VPRP
p3194
sbatp3195
Rp3196
(dp3197
g12
VNP
p3198
sbag0
(g1
g2
(lp3199
g0
(g1
g2
(lp3200
V's
p3201
atp3202
Rp3203
(dp3204
g12
VVBZ
p3205
sbag0
(g1
g2
(lp3206
g0
(g1
g2
(lp3207
Vwearing
p3208
atp3209
Rp3210
(dp3211
g12
VVBG
p3212
sbag0
(g1
g2
(lp3213
g0
(g1
g2
(lp3214
Vhigh
p3215
atp3216
Rp3217
(dp3218
g12
VJJ
p3219
sbag0
(g1
g2
(lp3220
Vheels
p3221
atp3222
Rp3223
(dp3224
g12
VNNS
p3225
sbatp3226
Rp3227
(dp3228
g12
VNP
p3229
sbag0
(g1
g2
(lp3230
g0
(g1
g2
(lp3231
Vat
p3232
atp3233
Rp3234
(dp3235
g12
VIN
p3236
sbag0
(g1
g2
(lp3237
g0
(g1
g2
(lp3238
g0
(g1
g2
(lp3239
Vthe
p3240
atp3241
Rp3242
(dp3243
g12
VDT
p3244
sbag0
(g1
g2
(lp3245
Vsink
p3246
atp3247
Rp3248
(dp3249
g12
VNN
p3250
sbatp3251
Rp3252
(dp3253
g12
VNP
p3254
sbag0
(g1
g2
(lp3255
g0
(g1
g2
(lp3256
Vdoing
p3257
atp3258
Rp3259
(dp3260
g12
VVBG
p3261
sbag0
(g1
g2
(lp3262
g0
(g1
g2
(lp3263
g0
(g1
g2
(lp3264
Vdishes
p3265
atp3266
Rp3267
(dp3268
g12
VNNS
p3269
sbatp3270
Rp3271
(dp3272
g12
VNP
p3273
sbag0
(g1
g2
(lp3274
V,
p3275
atp3276
Rp3277
(dp3278
g12
V,
p3279
sbag0
(g1
g2
(lp3280
g0
(g1
g2
(lp3281
Va
p3282
atp3283
Rp3284
(dp3285
g12
VDT
p3286
sbag0
(g1
g2
(lp3287
Vsleeveless
p3288
atp3289
Rp3290
(dp3291
g12
VJJ
p3292
sbag0
(g1
g2
(lp3293
Vshirt
p3294
atp3295
Rp3296
(dp3297
g12
VNN
p3298
sbatp3299
Rp3300
(dp3301
g12
VNP
p3302
sbag0
(g1
g2
(lp3303
V,
p3304
atp3305
Rp3306
(dp3307
g12
V,
p3308
sbag0
(g1
g2
(lp3309
Vor
p3310
atp3311
Rp3312
(dp3313
g12
VCC
p3314
sbag0
(g1
g2
(lp3315
g0
(g1
g2
(lp3316
g0
(g1
g2
(lp3317
Va
p3318
atp3319
Rp3320
(dp3321
g12
VDT
p3322
sbag0
(g1
g2
(lp3323
Vblouse
p3324
atp3325
Rp3326
(dp3327
g12
VNN
p3328
sbag0
(g1
g2
(lp3329
Vdress
p3330
atp3331
Rp3332
(dp3333
g12
VNN
p3334
sbatp3335
Rp3336
(dp3337
g12
VNP
p3338
sbag0
(g1
g2
(lp3339
V,
p3340
atp3341
Rp3342
(dp3343
g12
V,
p3344
sbag0
(g1
g2
(lp3345
g0
(g1
g2
(lp3346
g0
(g1
g2
(lp3347
Vwhatever
p3348
atp3349
Rp3350
(dp3351
g12
VWDT
p3352
sbatp3353
Rp3354
(dp3355
g12
VWHNP
p3356
sbag0
(g1
g2
(lp3357
g0
(g1
g2
(lp3358
g0
(g1
g2
(lp3359
Vthat
p3360
atp3361
Rp3362
(dp3363
g12
VWDT
p3364
sbatp3365
Rp3366
(dp3367
g12
VNP
p3368
sbag0
(g1
g2
(lp3369
g0
(g1
g2
(lp3370
Vis
p3371
atp3372
Rp3373
(dp3374
g12
VVBZ
p3375
sbag0
(g1
g2
(lp3376
V,
p3377
atp3378
Rp3379
(dp3380
g12
V,
p3381
sbag0
(g1
g2
(lp3382
g0
(g1
g2
(lp3383
g0
(g1
g2
(lp3384
Vshes
p3385
atp3386
Rp3387
(dp3388
g12
VNNS
p3389
sbatp3390
Rp3391
(dp3392
g12
VNP
p3393
sbag0
(g1
g2
(lp3394
g0
(g1
g2
(lp3395
Vwearing
p3396
atp3397
Rp3398
(dp3399
g12
VVBG
p3400
sbag0
(g1
g2
(lp3401
g0
(g1
g2
(lp3402
Van
p3403
atp3404
Rp3405
(dp3406
g12
VDT
p3407
sbag0
(g1
g2
(lp3408
Vapron
p3409
atp3410
Rp3411
(dp3412
g12
VNN
p3413
sbatp3414
Rp3415
(dp3416
g12
VNP
p3417
sbatp3418
Rp3419
(dp3420
g12
VVP
p3421
sbatp3422
Rp3423
(dp3424
g12
VS
p3425
sbatp3426
Rp3427
(dp3428
g12
VVP
p3429
sbatp3430
Rp3431
(dp3432
g12
VS
p3433
sbatp3434
Rp3435
(dp3436
g12
VSBAR
p3437
sbatp3438
Rp3439
(dp3440
g12
VNP
p3441
sbatp3442
Rp3443
(dp3444
g12
VNP
p3445
sbatp3446
Rp3447
(dp3448
g12
VVP
p3449
sbatp3450
Rp3451
(dp3452
g12
VNP
p3453
sbatp3454
Rp3455
(dp3456
g12
VPP
p3457
sbatp3458
Rp3459
(dp3460
g12
VVP
p3461
sbatp3462
Rp3463
(dp3464
g12
VVP
p3465
sbatp3466
Rp3467
(dp3468
g12
VS
p3469
sbatp3470
Rp3471
(dp3472
g12
S'id: 12'
p3473
sbatp3474
Rp3475
(dp3476
g12
S'sentences'
p3477
sb.