ccopy_reg
_reconstructor
p0
(cnltk.tree
Tree
p1
c__builtin__
list
p2
(lp3
g0
(g1
g2
(lp4
tp5
Rp6
(dp7
S'_label'
p8
S'id: 0'
p9
sbag0
(g1
g2
(lp10
g0
(g1
g2
(lp11
g0
(g1
g2
(lp12
(lp13
S'word: are, index: 3'
p14
aatp15
Rp16
(dp17
g8
Vaux
p18
sbag0
(g1
g2
(lp19
g0
(g1
g2
(lp20
g0
(g1
g2
(lp21
(lp22
S'word: a, index: 5'
p23
aatp24
Rp25
(dp26
g8
Vdet
p27
sbatp28
Rp29
(dp30
g8
S'word: picnic, index: 6'
p31
sbatp32
Rp33
(dp34
g8
Vdobj
p35
sbag0
(g1
g2
(lp36
g0
(g1
g2
(lp37
g0
(g1
g2
(lp38
(lp39
S'word: Two, index: 1'
p40
aatp41
Rp42
(dp43
g8
Vnum
p44
sbatp45
Rp46
(dp47
g8
S'word: people, index: 2'
p48
sbatp49
Rp50
(dp51
g8
Vnsubj
p52
sbatp53
Rp54
(dp55
g8
S'word: having, index: 4'
p56
sbatp57
Rp58
(dp59
g8
S'id: 1'
p60
sbag0
(g1
g2
(lp61
g0
(g1
g2
(lp62
g0
(g1
g2
(lp63
(lp64
S"word: 's, index: 6"
p65
aatp66
Rp67
(dp68
g8
Vaux
p69
sbag0
(g1
g2
(lp70
(lp71
S'word: something, index: 8'
p72
aatp73
Rp74
(dp75
g8
Vdobj
p76
sbag0
(g1
g2
(lp77
g0
(g1
g2
(lp78
g0
(g1
g2
(lp79
(lp80
S'word: sandwiches, index: 12'
p81
aatp82
Rp83
(dp84
g8
Vprep
p85
sbag0
(g1
g2
(lp86
(lp87
S'word: there, index: 13'
p88
aatp89
Rp90
(dp91
g8
Vadvmod
p92
sbatp93
Rp94
(dp95
g8
S'word: look, index: 10'
p96
sbatp97
Rp98
(dp99
g8
Vdep
p100
sbag0
(g1
g2
(lp101
g0
(g1
g2
(lp102
g0
(g1
g2
(lp103
(lp104
S'word: he, index: 1'
p105
aatp106
Rp107
(dp108
g8
Vnsubj
p109
sbag0
(g1
g2
(lp110
(lp111
S"word: 's, index: 2"
p112
aatp113
Rp114
(dp115
g8
Vcop
p116
sbatp117
Rp118
(dp119
g8
S'word: reading, index: 3'
p120
sbatp121
Rp122
(dp123
g8
Vccomp
p124
sbag0
(g1
g2
(lp125
(lp126
S'word: she, index: 5'
p127
aatp128
Rp129
(dp130
g8
Vnsubj
p131
sbatp132
Rp133
(dp134
g8
S'word: pouring, index: 7'
p135
sbatp136
Rp137
(dp138
g8
S'id: 2'
p139
sbag0
(g1
g2
(lp140
g0
(g1
g2
(lp141
g0
(g1
g2
(lp142
(lp143
S'word: And, index: 1'
p144
aatp145
Rp146
(dp147
g8
Vcc
p148
sbag0
(g1
g2
(lp149
(lp150
S'word: another, index: 2'
p151
aatp152
Rp153
(dp154
g8
Vdet
p155
sbag0
(g1
g2
(lp156
g0
(g1
g2
(lp157
g0
(g1
g2
(lp158
g0
(g1
g2
(lp159
g0
(g1
g2
(lp160
(lp161
S'word: a, index: 5'
p162
aatp163
Rp164
(dp165
g8
Vdet
p166
sbatp167
Rp168
(dp169
g8
S'word: kite, index: 6'
p170
sbatp171
Rp172
(dp173
g8
Vdobj
p174
sbatp175
Rp176
(dp177
g8
S'word: flying, index: 4'
p178
sbatp179
Rp180
(dp181
g8
Vccomp
p182
sbatp183
Rp184
(dp185
g8
S'word: kid, index: 3'
p186
sbatp187
Rp188
(dp189
g8
S'id: 3'
p190
sbag0
(g1
g2
(lp191
g0
(g1
g2
(lp192
g0
(g1
g2
(lp193
(lp194
S'word: else, index: 2'
p195
aatp196
Rp197
(dp198
g8
Vadvmod
p199
sbag0
(g1
g2
(lp200
g0
(g1
g2
(lp201
g0
(g1
g2
(lp202
(lp203
S'word: here, index: 4'
p204
aatp205
Rp206
(dp207
g8
Vadvmod
p208
sbag0
(g1
g2
(lp209
g0
(g1
g2
(lp210
g0
(g1
g2
(lp211
(lp212
S'word: a, index: 6'
p213
aatp214
Rp215
(dp216
g8
Vdet
p217
sbag0
(g1
g2
(lp218
g0
(g1
g2
(lp219
g0
(g1
g2
(lp220
g0
(g1
g2
(lp221
g0
(g1
g2
(lp222
g0
(g1
g2
(lp223
g0
(g1
g2
(lp224
g0
(g1
g2
(lp225
g0
(g1
g2
(lp226
(lp227
S'word: the, index: 13'
p228
aatp229
Rp230
(dp231
g8
Vdet
p232
sbatp233
Rp234
(dp235
g8
S'word: kite, index: 14'
p236
sbatp237
Rp238
(dp239
g8
Vdobj
p240
sbatp241
Rp242
(dp243
g8
S'word: flying, index: 12'
p244
sbatp245
Rp246
(dp247
g8
Vvmod
p248
sbag0
(g1
g2
(lp249
(lp250
S'word: the, index: 10'
p251
aatp252
Rp253
(dp254
g8
Vdet
p255
sbatp256
Rp257
(dp258
g8
S'word: guy, index: 11'
p259
sbatp260
Rp261
(dp262
g8
Vprep
p263
sbatp264
Rp265
(dp266
g8
S'word: running, index: 8'
p267
sbatp268
Rp269
(dp270
g8
Vvmod
p271
sbatp272
Rp273
(dp274
g8
S'word: dog, index: 7'
p275
sbatp276
Rp277
(dp278
g8
Vdobj
p279
sbatp280
Rp281
(dp282
g8
S'word: making, index: 5'
p283
sbatp284
Rp285
(dp286
g8
Vprepc
p287
sbatp288
Rp289
(dp290
g8
S'word: Someone, index: 1'
p291
sbatp292
Rp293
(dp294
g8
S'id: 4'
p295
sbag0
(g1
g2
(lp296
g0
(g1
g2
(lp297
g0
(g1
g2
(lp298
(lp299
S'word: I, index: 1'
p300
aatp301
Rp302
(dp303
g8
Vnsubj
p304
sbag0
(g1
g2
(lp305
(lp306
S'word: do, index: 2'
p307
aatp308
Rp309
(dp310
g8
Vaux
p311
sbag0
(g1
g2
(lp312
(lp313
S"word: n't, index: 3"
p314
aatp315
Rp316
(dp317
g8
Vneg
p318
sbag0
(g1
g2
(lp319
g0
(g1
g2
(lp320
g0
(g1
g2
(lp321
(lp322
S'word: what, index: 5'
p323
aatp324
Rp325
(dp326
g8
Vdobj
p327
sbag0
(g1
g2
(lp328
(lp329
S'word: she, index: 6'
p330
aatp331
Rp332
(dp333
g8
Vnsubj
p334
sbag0
(g1
g2
(lp335
(lp336
S"word: 's, index: 7"
p337
aatp338
Rp339
(dp340
g8
Vaux
p341
sbag0
(g1
g2
(lp342
g0
(g1
g2
(lp343
g0
(g1
g2
(lp344
(lp345
S'word: there, index: 10'
p346
aatp347
Rp348
(dp349
g8
Vpobj
p350
sbatp351
Rp352
(dp353
g8
S'word: over, index: 9'
p354
sbatp355
Rp356
(dp357
g8
Vprep
p358
sbatp359
Rp360
(dp361
g8
S'word: making, index: 8'
p362
sbatp363
Rp364
(dp365
g8
Vccomp
p366
sbatp367
Rp368
(dp369
g8
S'word: know, index: 4'
p370
sbatp371
Rp372
(dp373
g8
S'id: 5'
p374
sbag0
(g1
g2
(lp375
tp376
Rp377
(dp378
g8
S'id: 6'
p379
sbag0
(g1
g2
(lp380
g0
(g1
g2
(lp381
g0
(g1
g2
(lp382
g0
(g1
g2
(lp383
g0
(g1
g2
(lp384
(lp385
S'word: a, index: 9'
p386
aatp387
Rp388
(dp389
g8
Vdet
p390
sbag0
(g1
g2
(lp391
(lp392
S'word: sail, index: 10'
p393
aatp394
Rp395
(dp396
g8
Vnn
p397
sbag0
(g1
g2
(lp398
g0
(g1
g2
(lp399
g0
(g1
g2
(lp400
(lp401
S'word: this, index: 13'
p402
aatp403
Rp404
(dp405
g8
Vdet
p406
sbatp407
Rp408
(dp409
g8
S'word: picture, index: 14'
p410
sbatp411
Rp412
(dp413
g8
Vprep
p414
sbatp415
Rp416
(dp417
g8
S'word: boat, index: 11'
p418
sbatp419
Rp420
(dp421
g8
Vprep
p422
sbag0
(g1
g2
(lp423
g0
(g1
g2
(lp424
g0
(g1
g2
(lp425
g0
(g1
g2
(lp426
g0
(g1
g2
(lp427
(lp428
S'word: a, index: 4'
p429
aatp430
Rp431
(dp432
g8
Vdet
p433
sbatp434
Rp435
(dp436
g8
S'word: sailboat, index: 5'
p437
sbatp438
Rp439
(dp440
g8
Vappos
p441
sbag0
(g1
g2
(lp442
(lp443
S'word: can, index: 2'
p444
aatp445
Rp446
(dp447
g8
Vrcmod
p448
sbatp449
Rp450
(dp451
g8
S'word: I, index: 1'
p452
sbatp453
Rp454
(dp455
g8
Vnsubj
p456
sbatp457
Rp458
(dp459
g8
S'word: looks, index: 7'
p460
sbatp461
Rp462
(dp463
g8
S'id: 7'
p464
sbag0
(g1
g2
(lp465
g0
(g1
g2
(lp466
g0
(g1
g2
(lp467
(lp468
S'word: Guy, index: 1'
p469
aatp470
Rp471
(dp472
g8
Vnsubj
p473
sbag0
(g1
g2
(lp474
(lp475
S'word: here, index: 3'
p476
aatp477
Rp478
(dp479
g8
Vdep
p480
sbag0
(g1
g2
(lp481
(lp482
S'word: fishing, index: 4'
p483
aatp484
Rp485
(dp486
g8
Vprep
p487
sbatp488
Rp489
(dp490
g8
S'word: back, index: 2'
p491
sbatp492
Rp493
(dp494
g8
S'id: 8'
p495
sbag0
(g1
g2
(lp496
g0
(g1
g2
(lp497
g0
(g1
g2
(lp498
(lp499
S'word: They, index: 1'
p500
aatp501
Rp502
(dp503
g8
Vnsubj
p504
sbag0
(g1
g2
(lp505
g0
(g1
g2
(lp506
g0
(g1
g2
(lp507
(lp508
S'word: all, index: 3'
p509
aatp510
Rp511
(dp512
g8
Vpredet
p513
sbatp514
Rp515
(dp516
g8
S'word: this, index: 4'
p517
sbatp518
Rp519
(dp520
g8
Vdobj
p521
sbag0
(g1
g2
(lp522
g0
(g1
g2
(lp523
g0
(g1
g2
(lp524
(lp525
S'word: their, index: 6'
p526
aatp527
Rp528
(dp529
g8
Vposs
p530
sbatp531
Rp532
(dp533
g8
S'word: house, index: 7'
p534
sbatp535
Rp536
(dp537
g8
Vprep
p538
sbatp539
Rp540
(dp541
g8
S'word: got, index: 2'
p542
sbatp543
Rp544
(dp545
g8
S'id: 9'
p546
sbag0
(g1
g2
(lp547
g0
(g1
g2
(lp548
g0
(g1
g2
(lp549
(lp550
S'word: A, index: 1'
p551
aatp552
Rp553
(dp554
g8
Vdet
p555
sbag0
(g1
g2
(lp556
g0
(g1
g2
(lp557
g0
(g1
g2
(lp558
(lp559
S'word: the, index: 4'
p560
aatp561
Rp562
(dp563
g8
Vdet
p564
sbatp565
Rp566
(dp567
g8
S'word: driveway, index: 5'
p568
sbatp569
Rp570
(dp571
g8
Vprep
p572
sbatp573
Rp574
(dp575
g8
S'word: car, index: 2'
p576
sbatp577
Rp578
(dp579
g8
S'id: 10'
p580
sbag0
(g1
g2
(lp581
g0
(g1
g2
(lp582
g0
(g1
g2
(lp583
(lp584
S'word: Ok, index: 1'
p585
aatp586
Rp587
(dp588
g8
Vamod
p589
sbag0
(g1
g2
(lp590
g0
(g1
g2
(lp591
g0
(g1
g2
(lp592
g0
(g1
g2
(lp593
g0
(g1
g2
(lp594
(lp595
S'word: the, index: 7'
p596
aatp597
Rp598
(dp599
g8
Vdet
p600
sbag0
(g1
g2
(lp601
(lp602
S'word: there, index: 9'
p603
aatp604
Rp605
(dp606
g8
Vadvmod
p607
sbatp608
Rp609
(dp610
g8
S'word: towel, index: 8'
p611
sbatp612
Rp613
(dp614
g8
Vprep
p615
sbag0
(g1
g2
(lp616
g0
(g1
g2
(lp617
g0
(g1
g2
(lp618
(lp619
S'word: a, index: 14'
p620
aatp621
Rp622
(dp623
g8
Vdet
p624
sbatp625
Rp626
(dp627
g8
S'word: radio, index: 15'
p628
sbatp629
Rp630
(dp631
g8
Vconj
p632
sbatp633
Rp634
(dp635
g8
S'word: the, index: 4'
p636
sbatp637
Rp638
(dp639
g8
Vprep
p640
sbag0
(g1
g2
(lp641
g626
atp642
Rp643
(dp644
g8
Vprep
p645
sbatp646
Rp647
(dp648
g8
S'word: sandals, index: 2'
p649
sbatp650
Rp651
(dp652
g8
S'id: 11'
p653
sbag0
(g1
g2
(lp654
g0
(g1
g2
(lp655
g0
(g1
g2
(lp656
(lp657
S'word: her, index: 4'
p658
aatp659
Rp660
(dp661
g8
Vdobj
p662
sbag0
(g1
g2
(lp663
g0
(g1
g2
(lp664
g0
(g1
g2
(lp665
g0
(g1
g2
(lp666
g0
(g1
g2
(lp667
g0
(g1
g2
(lp668
g0
(g1
g2
(lp669
(lp670
S'word: he, index: 10'
p671
aatp672
Rp673
(dp674
g8
Vnsubj
p675
sbag0
(g1
g2
(lp676
(lp677
S"word: 's, index: 11"
p678
aatp679
Rp680
(dp681
g8
Vaux
p682
sbag0
(g1
g2
(lp683
g0
(g1
g2
(lp684
g0
(g1
g2
(lp685
(lp686
S'word: to, index: 13'
p687
aatp688
Rp689
(dp690
g8
Vaux
p691
sbag0
(g1
g2
(lp692
(lp693
S'word: be, index: 14'
p694
aatp695
Rp696
(dp697
g8
Vaux
p698
sbatp699
Rp700
(dp701
g8
S'word: reading, index: 15'
p702
sbatp703
Rp704
(dp705
g8
Vxcomp
p706
sbatp707
Rp708
(dp709
g8
S'word: pretending, index: 12'
p710
sbatp711
Rp712
(dp713
g8
Vrcmod
p714
sbatp715
Rp716
(dp717
g8
S'word: cause, index: 9'
p718
sbatp719
Rp720
(dp721
g8
Vappos
p722
sbatp723
Rp724
(dp725
g8
S'word: course, index: 7'
p726
sbatp727
Rp728
(dp729
g8
Vprep
p730
sbag0
(g1
g2
(lp731
(lp732
S'word: He, index: 1'
p733
aatp734
Rp735
(dp736
g8
Vnsubj
p737
sbag0
(g1
g2
(lp738
(lp739
S"word: 's, index: 2"
p740
aatp741
Rp742
(dp743
g8
Vaux
p744
sbatp745
Rp746
(dp747
g8
S'word: ignoring, index: 3'
p748
sbatp749
Rp750
(dp751
g8
S'id: 12'
p752
sbag0
(g1
g2
(lp753
g0
(g1
g2
(lp754
g0
(g1
g2
(lp755
(lp756
S'word: A, index: 1'
p757
aatp758
Rp759
(dp760
g8
Vdet
p761
sbag0
(g1
g2
(lp762
(lp763
S'word: flying, index: 3'
p764
aatp765
Rp766
(dp767
g8
Vvmod
p768
sbatp769
Rp770
(dp771
g8
S'word: flag, index: 2'
p772
sbatp773
Rp774
(dp775
g8
S'id: 13'
p776
sbag0
(g1
g2
(lp777
g0
(g1
g2
(lp778
g0
(g1
g2
(lp779
(lp780
S'word: I, index: 1'
p781
aatp782
Rp783
(dp784
g8
Vnsubj
p785
sbag0
(g1
g2
(lp786
(lp787
S'word: did, index: 2'
p788
aatp789
Rp790
(dp791
g8
Vaux
p792
sbag0
(g1
g2
(lp793
g0
(g1
g2
(lp794
g0
(g1
g2
(lp795
(lp796
S'word: old, index: 4'
p797
aatp798
Rp799
(dp800
g8
Vamod
p801
sbag0
(g1
g2
(lp802
(lp803
S'word: dude, index: 5'
p804
aatp805
Rp806
(dp807
g8
Vnn
p808
sbag0
(g1
g2
(lp809
(lp810
S'word: right, index: 8'
p811
aatp812
Rp813
(dp814
g8
Vappos
p815
sbatp816
Rp817
(dp818
g8
S'word: fishing, index: 6'
p819
sbatp820
Rp821
(dp822
g8
Vdobj
p823
sbatp824
Rp825
(dp826
g8
S'word: say, index: 3'
p827
sbatp828
Rp829
(dp830
g8
S'id: 14'
p831
sbatp832
Rp833
(dp834
g8
S'sentences'
p835
sb.