ccopy_reg
_reconstructor
p0
(cnltk.tree
Tree
p1
c__builtin__
list
p2
(lp3
g0
(g1
g2
(lp4
g0
(g1
g2
(lp5
g0
(g1
g2
(lp6
(lp7
S'word: she, index: 1'
p8
aatp9
Rp10
(dp11
S'_label'
p12
Vnsubj
p13
sbag0
(g1
g2
(lp14
g0
(g1
g2
(lp15
g0
(g1
g2
(lp16
(lp17
S'word: the, index: 3'
p18
aatp19
Rp20
(dp21
g12
Vdet
p22
sbag0
(g1
g2
(lp23
(lp24
S'word: dish, index: 4'
p25
aatp26
Rp27
(dp28
g12
Vnn
p29
sbag0
(g1
g2
(lp30
g0
(g1
g2
(lp31
g0
(g1
g2
(lp32
(lp33
S'word: over, index: 7'
p34
aatp35
Rp36
(dp37
g12
Vprt
p38
sbatp39
Rp40
(dp41
g12
S'word: running, index: 6'
p42
sbatp43
Rp44
(dp45
g12
Vvmod
p46
sbatp47
Rp48
(dp49
g12
S'word: water, index: 5'
p50
sbatp51
Rp52
(dp53
g12
Vdobj
p54
sbatp55
Rp56
(dp57
g12
S'word: got, index: 2'
p58
sbatp59
Rp60
(dp61
g12
S'id: 0'
p62
sbag0
(g1
g2
(lp63
g0
(g1
g2
(lp64
g0
(g1
g2
(lp65
g0
(g1
g2
(lp66
g0
(g1
g2
(lp67
(lp68
S'word: the, index: 4'
p69
aatp70
Rp71
(dp72
g12
Vdet
p73
sbag0
(g1
g2
(lp74
(lp75
S'word: dish, index: 5'
p76
aatp77
Rp78
(dp79
g12
Vnn
p80
sbag0
(g1
g2
(lp81
g0
(g1
g2
(lp82
g0
(g1
g2
(lp83
(lp84
S'word: over, index: 8'
p85
aatp86
Rp87
(dp88
g12
Vadvmod
p89
sbatp90
Rp91
(dp92
g12
S'word: running, index: 7'
p93
sbatp94
Rp95
(dp96
g12
Vvmod
p97
sbatp98
Rp99
(dp100
g12
S'word: water, index: 6'
p101
sbatp102
Rp103
(dp104
g12
Vdobj
p105
sbag0
(g1
g2
(lp106
g0
(g1
g2
(lp107
g0
(g1
g2
(lp108
(lp109
S'word: he, index: 11'
p110
aatp111
Rp112
(dp113
g12
Vnsubj
p114
sbag0
(g1
g2
(lp115
(lp116
S'word: should, index: 12'
p117
aatp118
Rp119
(dp120
g12
Vaux
p121
sbag0
(g1
g2
(lp122
(lp123
S"word: n't, index: 13"
p124
aatp125
Rp126
(dp127
g12
Vneg
p128
sbag0
(g1
g2
(lp129
(lp130
S'word: be, index: 14'
p131
aatp132
Rp133
(dp134
g12
Vaux
p135
sbag0
(g1
g2
(lp136
g0
(g1
g2
(lp137
g0
(g1
g2
(lp138
(lp139
S'word: that, index: 20'
p140
aatp141
Rp142
(dp143
g12
Vprep
p144
sbag0
(g1
g2
(lp145
(lp146
S'word: that, index: 17'
p147
aatp148
Rp149
(dp150
g12
Vdet
p151
sbatp152
Rp153
(dp154
g12
S'word: ladder, index: 18'
p155
sbatp156
Rp157
(dp158
g12
Vprep
p159
sbatp160
Rp161
(dp162
g12
S'word: climbing, index: 15'
p163
sbatp164
Rp165
(dp166
g12
Vconj
p167
sbag0
(g1
g2
(lp168
g0
(g1
g2
(lp169
g0
(g1
g2
(lp170
(lp171
S'word: The, index: 1'
p172
aatp173
Rp174
(dp175
g12
Vdet
p176
sbatp177
Rp178
(dp179
g12
S'word: mother, index: 2'
p180
sbatp181
Rp182
(dp183
g12
Vnsubj
p184
sbatp185
Rp186
(dp187
g12
S'word: got, index: 3'
p188
sbatp189
Rp190
(dp191
g12
S'id: 1'
p192
sbag0
(g1
g2
(lp193
g0
(g1
g2
(lp194
g0
(g1
g2
(lp195
g0
(g1
g2
(lp196
g0
(g1
g2
(lp197
(lp198
S'word: he, index: 6'
p199
aatp200
Rp201
(dp202
g12
Vnsubj
p203
sbag0
(g1
g2
(lp204
(lp205
S"word: 's, index: 7"
p206
aatp207
Rp208
(dp209
g12
Vaux
p210
sbag0
(g1
g2
(lp211
g0
(g1
g2
(lp212
g0
(g1
g2
(lp213
(lp214
S'word: na, index: 9'
p215
aatp216
Rp217
(dp218
g12
Vaux
p219
sbatp220
Rp221
(dp222
g12
S'word: fall, index: 10'
p223
sbatp224
Rp225
(dp226
g12
Vxcomp
p227
sbatp228
Rp229
(dp230
g12
S'word: gon, index: 8'
p231
sbatp232
Rp233
(dp234
g12
Vccomp
p235
sbag0
(g1
g2
(lp236
g0
(g1
g2
(lp237
g0
(g1
g2
(lp238
(lp239
S'word: no, index: 2'
p240
aatp241
Rp242
(dp243
g12
Vneg
p244
sbatp245
Rp246
(dp247
g12
S'word: cookies, index: 3'
p248
sbatp249
Rp250
(dp251
g12
Vprep
p252
sbatp253
Rp254
(dp255
g12
S'word: cause, index: 5'
p256
sbatp257
Rp258
(dp259
g12
S'id: 2'
p260
sbag0
(g1
g2
(lp261
g0
(g1
g2
(lp262
g0
(g1
g2
(lp263
g0
(g1
g2
(lp264
g0
(g1
g2
(lp265
(lp266
S"word: 's, index: 2"
p267
aatp268
Rp269
(dp270
g12
Vnsubj
p271
sbag0
(g1
g2
(lp272
(lp273
S'word: is, index: 3'
p274
aatp275
Rp276
(dp277
g12
Vcop
p278
sbatp279
Rp280
(dp281
g12
S'word: mad, index: 4'
p282
sbatp283
Rp284
(dp285
g12
Vrcmod
p286
sbatp287
Rp288
(dp289
g12
S'word: Mom, index: 1'
p290
sbatp291
Rp292
(dp293
g12
S'id: 3'
p294
sbag0
(g1
g2
(lp295
g0
(g1
g2
(lp296
g0
(g1
g2
(lp297
g0
(g1
g2
(lp298
g0
(g1
g2
(lp299
(lp300
S'word: like, index: 2'
p301
aatp302
Rp303
(dp304
g12
Vmark
p305
sbag0
(g1
g2
(lp306
g0
(g1
g2
(lp307
g0
(g1
g2
(lp308
(lp309
S'word: the, index: 3'
p310
aatp311
Rp312
(dp313
g12
Vdet
p314
sbatp315
Rp316
(dp317
g12
S'word: sister, index: 4'
p318
sbatp319
Rp320
(dp321
g12
Vnsubj
p322
sbag0
(g1
g2
(lp323
(lp324
S'word: is, index: 5'
p325
aatp326
Rp327
(dp328
g12
Vaux
p329
sbag0
(g1
g2
(lp330
g0
(g1
g2
(lp331
g0
(g1
g2
(lp332
(lp333
S'word: the, index: 8'
p334
aatp335
Rp336
(dp337
g12
Vdet
p338
sbatp339
Rp340
(dp341
g12
S'word: brother, index: 9'
p342
sbatp343
Rp344
(dp345
g12
Vprep
p346
sbatp347
Rp348
(dp349
g12
S'word: laughing, index: 6'
p350
sbatp351
Rp352
(dp353
g12
Vadvcl
p354
sbatp355
Rp356
(dp357
g12
S'word: Look, index: 1'
p358
sbatp359
Rp360
(dp361
g12
S'id: 4'
p362
sbag0
(g1
g2
(lp363
g0
(g1
g2
(lp364
g0
(g1
g2
(lp365
(lp366
S'word: That, index: 1'
p367
aatp368
Rp369
(dp370
g12
Vnsubj
p371
sbag0
(g1
g2
(lp372
(lp373
S"word: 's, index: 2"
p374
aatp375
Rp376
(dp377
g12
Vcop
p378
sbag0
(g1
g2
(lp379
g0
(g1
g2
(lp380
g0
(g1
g2
(lp381
(lp382
S'word: I, index: 4'
p383
aatp384
Rp385
(dp386
g12
Vnsubj
p387
sbag0
(g1
g2
(lp388
g0
(g1
g2
(lp389
g0
(g1
g2
(lp390
(lp391
S'word: to, index: 6'
p392
aatp393
Rp394
(dp395
g12
Vaux
p396
sbatp397
Rp398
(dp399
g12
S'word: say, index: 7'
p400
sbatp401
Rp402
(dp403
g12
Vxcomp
p404
sbatp405
Rp406
(dp407
g12
S'word: got, index: 5'
p408
sbatp409
Rp410
(dp411
g12
Vrcmod
p412
sbatp413
Rp414
(dp415
g12
S'word: all, index: 3'
p416
sbatp417
Rp418
(dp419
g12
S'id: 5'
p420
sbag0
(g1
g2
(lp421
g0
(g1
g2
(lp422
g0
(g1
g2
(lp423
g0
(g1
g2
(lp424
g0
(g1
g2
(lp425
(lp426
S'word: what, index: 3'
p427
aatp428
Rp429
(dp430
g12
Vdobj
p431
sbag0
(g1
g2
(lp432
g0
(g1
g2
(lp433
g0
(g1
g2
(lp434
g0
(g1
g2
(lp435
g0
(g1
g2
(lp436
g0
(g1
g2
(lp437
g0
(g1
g2
(lp438
(lp439
S'word: there, index: 6'
p440
aatp441
Rp442
(dp443
g12
Vdep
p444
sbatp445
Rp446
(dp447
g12
S'word: to, index: 7'
p448
sbatp449
Rp450
(dp451
g12
Vprep
p452
sbatp453
Rp454
(dp455
g12
S"word: 's, index: 5"
p456
sbatp457
Rp458
(dp459
g12
Vdep
p460
sbatp461
Rp462
(dp463
g12
S'word: else, index: 4'
p464
sbatp465
Rp466
(dp467
g12
Vnsubj
p468
sbatp469
Rp470
(dp471
g12
S'word: say, index: 8'
p472
sbatp473
Rp474
(dp475
g12
Vccomp
p476
sbag0
(g1
g2
(lp477
(lp478
S'word: I, index: 1'
p479
aatp480
Rp481
(dp482
g12
Vnsubj
p483
sbatp484
Rp485
(dp486
g12
S'word: mean, index: 2'
p487
sbatp488
Rp489
(dp490
g12
S'id: 6'
p491
sbatp492
Rp493
(dp494
g12
S'sentences'
p495
sb.