ccopy_reg
_reconstructor
p0
(cnltk.tree
Tree
p1
c__builtin__
list
p2
(lp3
g0
(g1
g2
(lp4
g0
(g1
g2
(lp5
g0
(g1
g2
(lp6
VOk
p7
atp8
Rp9
(dp10
S'_label'
p11
VNN
p12
sbag0
(g1
g2
(lp13
V.
p14
atp15
Rp16
(dp17
g11
V.
p18
sbatp19
Rp20
(dp21
g11
VNP
p22
sbatp23
Rp24
(dp25
g11
S'id: 0'
p26
sbag0
(g1
g2
(lp27
g0
(g1
g2
(lp28
g0
(g1
g2
(lp29
g0
(g1
g2
(lp30
VCookie
p31
atp32
Rp33
(dp34
g11
VNN
p35
sbatp36
Rp37
(dp38
g11
VNP
p39
sbag0
(g1
g2
(lp40
g0
(g1
g2
(lp41
Vdar
p42
atp43
Rp44
(dp45
g11
VNN
p46
sbatp47
Rp48
(dp49
g11
VNP
p50
sbag0
(g1
g2
(lp51
V.
p52
atp53
Rp54
(dp55
g11
V.
p56
sbatp57
Rp58
(dp59
g11
VNP
p60
sbatp61
Rp62
(dp63
g11
S'id: 1'
p64
sbag0
(g1
g2
(lp65
g0
(g1
g2
(lp66
g0
(g1
g2
(lp67
g0
(g1
g2
(lp68
VCookie
p69
atp70
Rp71
(dp72
g11
VNN
p73
sbatp74
Rp75
(dp76
g11
VNP
p77
sbag0
(g1
g2
(lp78
g0
(g1
g2
(lp79
Vin
p80
atp81
Rp82
(dp83
g11
VIN
p84
sbag0
(g1
g2
(lp85
g0
(g1
g2
(lp86
Vit
p87
atp88
Rp89
(dp90
g11
VPRP
p91
sbatp92
Rp93
(dp94
g11
VNP
p95
sbatp96
Rp97
(dp98
g11
VPP
p99
sbag0
(g1
g2
(lp100
V.
p101
atp102
Rp103
(dp104
g11
V.
p105
sbatp106
Rp107
(dp108
g11
VNP
p109
sbatp110
Rp111
(dp112
g11
S'id: 2'
p113
sbag0
(g1
g2
(lp114
g0
(g1
g2
(lp115
g0
(g1
g2
(lp116
g0
(g1
g2
(lp117
VIt
p118
atp119
Rp120
(dp121
g11
VPRP
p122
sbatp123
Rp124
(dp125
g11
VNP
p126
sbag0
(g1
g2
(lp127
V,
p128
atp129
Rp130
(dp131
g11
V,
p132
sbag0
(g1
g2
(lp133
g0
(g1
g2
(lp134
Vfoil
p135
atp136
Rp137
(dp138
g11
VNN
p139
sbatp140
Rp141
(dp142
g11
VNP
p143
sbag0
(g1
g2
(lp144
V,
p145
atp146
Rp147
(dp148
g11
V,
p149
sbag0
(g1
g2
(lp150
g0
(g1
g2
(lp151
Vit
p152
atp153
Rp154
(dp155
g11
VPRP
p156
sbatp157
Rp158
(dp159
g11
VNP
p160
sbag0
(g1
g2
(lp161
V,
p162
atp163
Rp164
(dp165
g11
V,
p166
sbag0
(g1
g2
(lp167
g0
(g1
g2
(lp168
g0
(g1
g2
(lp169
Vit
p170
atp171
Rp172
(dp173
g11
VPRP
p174
sbatp175
Rp176
(dp177
g11
VNP
p178
sbag0
(g1
g2
(lp179
g0
(g1
g2
(lp180
Vfalling
p181
atp182
Rp183
(dp184
g11
VVBG
p185
sbag0
(g1
g2
(lp186
g0
(g1
g2
(lp187
Vdown
p188
atp189
Rp190
(dp191
g11
VRP
p192
sbatp193
Rp194
(dp195
g11
VPRT
p196
sbatp197
Rp198
(dp199
g11
VVP
p200
sbatp201
Rp202
(dp203
g11
VS
p204
sbag0
(g1
g2
(lp205
V.
p206
atp207
Rp208
(dp209
g11
V.
p210
sbatp211
Rp212
(dp213
g11
VNP
p214
sbatp215
Rp216
(dp217
g11
S'id: 3'
p218
sbag0
(g1
g2
(lp219
g0
(g1
g2
(lp220
g0
(g1
g2
(lp221
g0
(g1
g2
(lp222
VGirl
p223
atp224
Rp225
(dp226
g11
VNNP
p227
sbatp228
Rp229
(dp230
g11
VNP
p231
sbag0
(g1
g2
(lp232
g0
(g1
g2
(lp233
Vis
p234
atp235
Rp236
(dp237
g11
VVBZ
p238
sbag0
(g1
g2
(lp239
g0
(g1
g2
(lp240
g0
(g1
g2
(lp241
Vcookie
p242
atp243
Rp244
(dp245
g11
VNN
p246
sbatp247
Rp248
(dp249
g11
VNP
p250
sbag0
(g1
g2
(lp251
g0
(g1
g2
(lp252
Vfrom
p253
atp254
Rp255
(dp256
g11
VIN
p257
sbag0
(g1
g2
(lp258
g0
(g1
g2
(lp259
Vhim
p260
atp261
Rp262
(dp263
g11
VPRP
p264
sbatp265
Rp266
(dp267
g11
VNP
p268
sbatp269
Rp270
(dp271
g11
VPP
p272
sbatp273
Rp274
(dp275
g11
VNP
p276
sbatp277
Rp278
(dp279
g11
VVP
p280
sbag0
(g1
g2
(lp281
V.
p282
atp283
Rp284
(dp285
g11
V.
p286
sbatp287
Rp288
(dp289
g11
VS
p290
sbatp291
Rp292
(dp293
g11
S'id: 4'
p294
sbag0
(g1
g2
(lp295
g0
(g1
g2
(lp296
g0
(g1
g2
(lp297
g0
(g1
g2
(lp298
Vover
p299
atp300
Rp301
(dp302
g11
VIN
p303
sbag0
(g1
g2
(lp304
g0
(g1
g2
(lp305
Vhere
p306
atp307
Rp308
(dp309
g11
VRB
p310
sbatp311
Rp312
(dp313
g11
VADVP
p314
sbatp315
Rp316
(dp317
g11
VADJP
p318
sbag0
(g1
g2
(lp319
g0
(g1
g2
(lp320
g0
(g1
g2
(lp321
Vwashing
p322
atp323
Rp324
(dp325
g11
VVBG
p326
sbatp327
Rp328
(dp329
g11
VVP
p330
sbatp331
Rp332
(dp333
g11
VS
p334
sbag0
(g1
g2
(lp335
V.
p336
atp337
Rp338
(dp339
g11
V.
p340
sbatp341
Rp342
(dp343
g11
VFRAG
p344
sbatp345
Rp346
(dp347
g11
S'id: 5'
p348
sbag0
(g1
g2
(lp349
g0
(g1
g2
(lp350
g0
(g1
g2
(lp351
g0
(g1
g2
(lp352
VFall
p353
atp354
Rp355
(dp356
g11
VNN
p357
sbatp358
Rp359
(dp360
g11
VNP
p361
sbag0
(g1
g2
(lp362
V,
p363
atp364
Rp365
(dp366
g11
V,
p367
sbag0
(g1
g2
(lp368
g0
(g1
g2
(lp369
Vfall
p370
atp371
Rp372
(dp373
g11
VNN
p374
sbatp375
Rp376
(dp377
g11
VNP
p378
sbag0
(g1
g2
(lp379
V,
p380
atp381
Rp382
(dp383
g11
V,
p384
sbag0
(g1
g2
(lp385
g0
(g1
g2
(lp386
Vfalling
p387
atp388
Rp389
(dp390
g11
VVBG
p391
sbag0
(g1
g2
(lp392
g0
(g1
g2
(lp393
Vout
p394
atp395
Rp396
(dp397
g11
VRP
p398
sbatp399
Rp400
(dp401
g11
VPRT
p402
sbag0
(g1
g2
(lp403
g0
(g1
g2
(lp404
Vfloor
p405
atp406
Rp407
(dp408
g11
VNN
p409
sbatp410
Rp411
(dp412
g11
VNP
p413
sbatp414
Rp415
(dp416
g11
VVP
p417
sbag0
(g1
g2
(lp418
V.
p419
atp420
Rp421
(dp422
g11
V.
p423
sbatp424
Rp425
(dp426
g11
VNP
p427
sbatp428
Rp429
(dp430
g11
S'id: 6'
p431
sbag0
(g1
g2
(lp432
g0
(g1
g2
(lp433
g0
(g1
g2
(lp434
g0
(g1
g2
(lp435
Vright
p436
atp437
Rp438
(dp439
g11
VRB
p440
sbatp441
Rp442
(dp443
g11
VADJP
p444
sbag0
(g1
g2
(lp445
g0
(g1
g2
(lp446
g0
(g1
g2
(lp447
Vwashing
p448
atp449
Rp450
(dp451
g11
VVBG
p452
sbatp453
Rp454
(dp455
g11
VVP
p456
sbatp457
Rp458
(dp459
g11
VS
p460
sbag0
(g1
g2
(lp461
V.
p462
atp463
Rp464
(dp465
g11
V.
p466
sbatp467
Rp468
(dp469
g11
VFRAG
p470
sbatp471
Rp472
(dp473
g11
S'id: 7'
p474
sbag0
(g1
g2
(lp475
g0
(g1
g2
(lp476
g0
(g1
g2
(lp477
g0
(g1
g2
(lp478
VIs
p479
atp480
Rp481
(dp482
g11
VVBZ
p483
sbag0
(g1
g2
(lp484
g0
(g1
g2
(lp485
g0
(g1
g2
(lp486
Vtwo
p487
atp488
Rp489
(dp490
g11
VCD
p491
sbatp492
Rp493
(dp494
g11
VNP
p495
sbag0
(g1
g2
(lp496
g0
(g1
g2
(lp497
Vover
p498
atp499
Rp500
(dp501
g11
VIN
p502
sbag0
(g1
g2
(lp503
g0
(g1
g2
(lp504
Vhere
p505
atp506
Rp507
(dp508
g11
VRB
p509
sbatp510
Rp511
(dp512
g11
VNP
p513
sbatp514
Rp515
(dp516
g11
VPP
p517
sbatp518
Rp519
(dp520
g11
VNP
p521
sbatp522
Rp523
(dp524
g11
VVP
p525
sbag0
(g1
g2
(lp526
V.
p527
atp528
Rp529
(dp530
g11
V.
p531
sbatp532
Rp533
(dp534
g11
VS
p535
sbatp536
Rp537
(dp538
g11
S'id: 8'
p539
sbag0
(g1
g2
(lp540
g0
(g1
g2
(lp541
g0
(g1
g2
(lp542
g0
(g1
g2
(lp543
VIt
p544
atp545
Rp546
(dp547
g11
VPRP
p548
sbatp549
Rp550
(dp551
g11
VNP
p552
sbag0
(g1
g2
(lp553
g0
(g1
g2
(lp554
Vis
p555
atp556
Rp557
(dp558
g11
VVBZ
p559
sbag0
(g1
g2
(lp560
g0
(g1
g2
(lp561
Vright
p562
atp563
Rp564
(dp565
g11
VRB
p566
sbag0
(g1
g2
(lp567
Vhere
p568
atp569
Rp570
(dp571
g11
VRB
p572
sbatp573
Rp574
(dp575
g11
VADVP
p576
sbatp577
Rp578
(dp579
g11
VVP
p580
sbag0
(g1
g2
(lp581
V.
p582
atp583
Rp584
(dp585
g11
V.
p586
sbatp587
Rp588
(dp589
g11
VS
p590
sbatp591
Rp592
(dp593
g11
S'id: 9'
p594
sbag0
(g1
g2
(lp595
g0
(g1
g2
(lp596
g0
(g1
g2
(lp597
VWindow
p598
atp599
Rp600
(dp601
g11
VNN
p602
sbag0
(g1
g2
(lp603
V.
p604
atp605
Rp606
(dp607
g11
V.
p608
sbatp609
Rp610
(dp611
g11
VNP
p612
sbatp613
Rp614
(dp615
g11
S'id: 10'
p616
sbatp617
Rp618
(dp619
g11
S'sentences'
p620
sb.