ccopy_reg
_reconstructor
p0
(cnltk.tree
Tree
p1
c__builtin__
list
p2
(lp3
g0
(g1
g2
(lp4
g0
(g1
g2
(lp5
g0
(g1
g2
(lp6
(lp7
S'word: we, index: 1'
p8
aatp9
Rp10
(dp11
S'_label'
p12
Vnsubj
p13
sbag0
(g1
g2
(lp14
(lp15
S'word: one, index: 4'
p16
aatp17
Rp18
(dp19
g12
Vprep
p20
sbag0
(g1
g2
(lp21
g0
(g1
g2
(lp22
g0
(g1
g2
(lp23
g0
(g1
g2
(lp24
g0
(g1
g2
(lp25
(lp26
S'word: a, index: 5'
p27
aatp28
Rp29
(dp30
g12
Vdet
p31
sbatp32
Rp33
(dp34
g12
S'word: while, index: 6'
p35
sbatp36
Rp37
(dp38
g12
Vnpadvmod
p39
sbatp40
Rp41
(dp42
g12
S'word: ago, index: 7'
p43
sbatp44
Rp45
(dp46
g12
Vadvmod
p47
sbatp48
Rp49
(dp50
g12
S'word: had, index: 2'
p51
sbatp52
Rp53
(dp54
g12
S'id: 0'
p55
sbag0
(g1
g2
(lp56
g0
(g1
g2
(lp57
g0
(g1
g2
(lp58
(lp59
S'word: were, index: 4'
p60
aatp61
Rp62
(dp63
g12
Vaux
p64
sbag0
(g1
g2
(lp65
(lp66
S'word: back, index: 6'
p67
aatp68
Rp69
(dp70
g12
Vadvmod
p71
sbag0
(g1
g2
(lp72
g0
(g1
g2
(lp73
g0
(g1
g2
(lp74
(lp75
S'word: the, index: 8'
p76
aatp77
Rp78
(dp79
g12
Vdet
p80
sbatp81
Rp82
(dp83
g12
S'word: picnic, index: 9'
p84
sbatp85
Rp86
(dp87
g12
Vprep
p88
sbag0
(g1
g2
(lp89
(lp90
S'word: again, index: 10'
p91
aatp92
Rp93
(dp94
g12
Vadvmod
p95
sbag0
(g1
g2
(lp96
g0
(g1
g2
(lp97
g0
(g1
g2
(lp98
g0
(g1
g2
(lp99
g0
(g1
g2
(lp100
(lp101
S"word: 's, index: 2"
p102
aatp103
Rp104
(dp105
g12
Vnsubj
p106
sbatp107
Rp108
(dp109
g12
S'word: see, index: 3'
p110
sbatp111
Rp112
(dp113
g12
Vccomp
p114
sbatp115
Rp116
(dp117
g12
S'word: Let, index: 1'
p118
sbatp119
Rp120
(dp121
g12
Vcsubj
p122
sbatp123
Rp124
(dp125
g12
S'word: going, index: 5'
p126
sbatp127
Rp128
(dp129
g12
S'id: 1'
p130
sbag0
(g1
g2
(lp131
g0
(g1
g2
(lp132
g0
(g1
g2
(lp133
g0
(g1
g2
(lp134
g0
(g1
g2
(lp135
(lp136
S'word: me, index: 16'
p137
aatp138
Rp139
(dp140
g12
Vprep
p141
sbatp142
Rp143
(dp144
g12
S'word: good, index: 14'
p145
sbatp146
Rp147
(dp148
g12
Vnsubj
p149
sbag0
(g1
g2
(lp150
g0
(g1
g2
(lp151
g0
(g1
g2
(lp152
g0
(g1
g2
(lp153
g0
(g1
g2
(lp154
g0
(g1
g2
(lp155
g0
(g1
g2
(lp156
(lp157
S'word: some, index: 10'
p158
aatp159
Rp160
(dp161
g12
Vdet
p162
sbatp163
Rp164
(dp165
g12
S'word: wine, index: 11'
p166
sbatp167
Rp168
(dp169
g12
Vdobj
p170
sbag0
(g1
g2
(lp171
g0
(g1
g2
(lp172
g0
(g1
g2
(lp173
g0
(g1
g2
(lp174
g0
(g1
g2
(lp175
(lp176
S"word: 's, index: 8"
p177
aatp178
Rp179
(dp180
g12
Vpossessive
p181
sbatp182
Rp183
(dp184
g12
S'word: mom, index: 7'
p185
sbatp186
Rp187
(dp188
g12
Vappos
p189
sbag0
(g1
g2
(lp190
(lp191
S'word: his, index: 4'
p192
aatp193
Rp194
(dp195
g12
Vposs
p196
sbatp197
Rp198
(dp199
g12
S'word: book, index: 5'
p200
sbatp201
Rp202
(dp203
g12
Vnsubj
p204
sbatp205
Rp206
(dp207
g12
S'word: drinking, index: 9'
p208
sbatp209
Rp210
(dp211
g12
Vvmod
p212
sbag0
(g1
g2
(lp213
g0
(g1
g2
(lp214
g0
(g1
g2
(lp215
(lp216
S"word: 's, index: 2"
p217
aatp218
Rp219
(dp220
g12
Vpossessive
p221
sbatp222
Rp223
(dp224
g12
S'word: Dad, index: 1'
p225
sbatp226
Rp227
(dp228
g12
Vnsubj
p229
sbatp230
Rp231
(dp232
g12
S'word: reading, index: 3'
p233
sbatp234
Rp235
(dp236
g12
Vdep
p237
sbatp238
Rp239
(dp240
g12
S'word: sounds, index: 13'
p241
sbatp242
Rp243
(dp244
g12
S'id: 2'
p245
sbag0
(g1
g2
(lp246
g0
(g1
g2
(lp247
g0
(g1
g2
(lp248
g0
(g1
g2
(lp249
g0
(g1
g2
(lp250
(lp251
S'word: the, index: 3'
p252
aatp253
Rp254
(dp255
g12
Vdet
p256
sbatp257
Rp258
(dp259
g12
S'word: radio, index: 4'
p260
sbatp261
Rp262
(dp263
g12
Vprep
p264
sbatp265
Rp266
(dp267
g12
S'word: Listen, index: 1'
p268
sbatp269
Rp270
(dp271
g12
S'id: 3'
p272
sbag0
(g1
g2
(lp273
g0
(g1
g2
(lp274
g0
(g1
g2
(lp275
(lp276
S'word: A, index: 1'
p277
aatp278
Rp279
(dp280
g12
Vdet
p281
sbag0
(g1
g2
(lp282
(lp283
S'word: pretty, index: 2'
p284
aatp285
Rp286
(dp287
g12
Vamod
p288
sbatp289
Rp290
(dp291
g12
S'word: day, index: 3'
p292
sbatp293
Rp294
(dp295
g12
S'id: 4'
p296
sbag0
(g1
g2
(lp297
g0
(g1
g2
(lp298
g0
(g1
g2
(lp299
g0
(g1
g2
(lp300
g0
(g1
g2
(lp301
(lp302
S'word: like, index: 2'
p303
aatp304
Rp305
(dp306
g12
Vmark
p307
sbag0
(g1
g2
(lp308
(lp309
S'word: they, index: 3'
p310
aatp311
Rp312
(dp313
g12
Vnsubj
p314
sbatp315
Rp316
(dp317
g12
S"word: 're, index: 4"
p318
sbatp319
Rp320
(dp321
g12
Vadvcl
p322
sbatp323
Rp324
(dp325
g12
S'word: Looks, index: 1'
p326
sbatp327
Rp328
(dp329
g12
S'id: 5'
p330
sbag0
(g1
g2
(lp331
g0
(g1
g2
(lp332
g0
(g1
g2
(lp333
g0
(g1
g2
(lp334
g0
(g1
g2
(lp335
g0
(g1
g2
(lp336
g0
(g1
g2
(lp337
(lp338
S'word: if, index: 3'
p339
aatp340
Rp341
(dp342
g12
Vmark
p343
sbag0
(g1
g2
(lp344
(lp345
S'word: that, index: 4'
p346
aatp347
Rp348
(dp349
g12
Vnsubj
p350
sbag0
(g1
g2
(lp351
(lp352
S"word: 's, index: 5"
p353
aatp354
Rp355
(dp356
g12
Vcop
p357
sbag0
(g1
g2
(lp358
(lp359
S'word: a, index: 6'
p360
aatp361
Rp362
(dp363
g12
Vdet
p364
sbag0
(g1
g2
(lp365
g0
(g1
g2
(lp366
g0
(g1
g2
(lp367
(lp368
S'word: their, index: 9'
p369
aatp370
Rp371
(dp372
g12
Vposs
p373
sbatp374
Rp375
(dp376
g12
S'word: house, index: 10'
p377
sbatp378
Rp379
(dp380
g12
Vconj
p381
sbatp382
Rp383
(dp384
g12
S'word: cabin, index: 7'
p385
sbatp386
Rp387
(dp388
g12
Vadvcl
p389
sbag0
(g1
g2
(lp390
g375
atp391
Rp392
(dp393
g12
Vadvcl
p394
sbag0
(g1
g2
(lp395
(lp396
S'word: must, index: 12'
p397
aatp398
Rp399
(dp400
g12
Vaux
p401
sbag0
(g1
g2
(lp402
(lp403
S'word: be, index: 13'
p404
aatp405
Rp406
(dp407
g12
Vcop
p408
sbatp409
Rp410
(dp411
g12
S'word: that, index: 14'
p412
sbatp413
Rp414
(dp415
g12
Vccomp
p416
sbag0
(g1
g2
(lp417
(lp418
S'word: Dont, index: 1'
p419
aatp420
Rp421
(dp422
g12
Vnsubj
p423
sbatp424
Rp425
(dp426
g12
S'word: know, index: 2'
p427
sbatp428
Rp429
(dp430
g12
S'id: 6'
p431
sbag0
(g1
g2
(lp432
g0
(g1
g2
(lp433
g0
(g1
g2
(lp434
g0
(g1
g2
(lp435
g0
(g1
g2
(lp436
(lp437
S'word: a, index: 2'
p438
aatp439
Rp440
(dp441
g12
Vdet
p442
sbatp443
Rp444
(dp445
g12
S'word: flag, index: 3'
p446
sbatp447
Rp448
(dp449
g12
Vdobj
p450
sbatp451
Rp452
(dp453
g12
S'word: Got, index: 1'
p454
sbatp455
Rp456
(dp457
g12
S'id: 7'
p458
sbag0
(g1
g2
(lp459
g0
(g1
g2
(lp460
g0
(g1
g2
(lp461
g0
(g1
g2
(lp462
g0
(g1
g2
(lp463
(lp464
S"word: 's, index: 2"
p465
aatp466
Rp467
(dp468
g12
Vnsubj
p469
sbag0
(g1
g2
(lp470
g0
(g1
g2
(lp471
g0
(g1
g2
(lp472
(lp473
S'word: a, index: 4'
p474
aatp475
Rp476
(dp477
g12
Vdet
p478
sbatp479
Rp480
(dp481
g12
S'word: kite, index: 5'
p482
sbatp483
Rp484
(dp485
g12
Vdobj
p486
sbatp487
Rp488
(dp489
g12
S'word: flying, index: 3'
p490
sbatp491
Rp492
(dp493
g12
Vdep
p494
sbatp495
Rp496
(dp497
g12
S'word: Boy, index: 1'
p498
sbatp499
Rp500
(dp501
g12
S'id: 8'
p502
sbag0
(g1
g2
(lp503
g0
(g1
g2
(lp504
g0
(g1
g2
(lp505
g0
(g1
g2
(lp506
g0
(g1
g2
(lp507
(lp508
S'word: the, index: 12'
p509
aatp510
Rp511
(dp512
g12
Vdet
p513
sbatp514
Rp515
(dp516
g12
S'word: boy, index: 13'
p517
sbatp518
Rp519
(dp520
g12
Vdobj
p521
sbag0
(g1
g2
(lp522
g0
(g1
g2
(lp523
g0
(g1
g2
(lp524
g0
(g1
g2
(lp525
g0
(g1
g2
(lp526
(lp527
S'word: The, index: 1'
p528
aatp529
Rp530
(dp531
g12
Vdet
p532
sbag0
(g1
g2
(lp533
(lp534
S"word: 's, index: 3"
p535
aatp536
Rp537
(dp538
g12
Vpossessive
p539
sbatp540
Rp541
(dp542
g12
S'word: dog, index: 2'
p543
sbatp544
Rp545
(dp546
g12
Vnsubj
p547
sbag0
(g1
g2
(lp548
g0
(g1
g2
(lp549
g0
(g1
g2
(lp550
(lp551
S'word: the, index: 5'
p552
aatp553
Rp554
(dp555
g12
Vdet
p556
sbatp557
Rp558
(dp559
g12
S'word: boy, index: 6'
p560
sbatp561
Rp562
(dp563
g12
Vdobj
p564
sbatp565
Rp566
(dp567
g12
S'word: changing, index: 4'
p568
sbatp569
Rp570
(dp571
g12
Vvmod
p572
sbag0
(g1
g2
(lp573
g0
(g1
g2
(lp574
g0
(g1
g2
(lp575
(lp576
S'word: the, index: 8'
p577
aatp578
Rp579
(dp580
g12
Vdet
p581
sbatp582
Rp583
(dp584
g12
S'word: dog, index: 9'
p585
sbatp586
Rp587
(dp588
g12
Vnsubj
p589
sbag0
(g1
g2
(lp590
(lp591
S'word: is, index: 10'
p592
aatp593
Rp594
(dp595
g12
Vaux
p596
sbatp597
Rp598
(dp599
g12
S'word: changing, index: 11'
p600
sbatp601
Rp602
(dp603
g12
S'id: 9'
p604
sbag0
(g1
g2
(lp605
g0
(g1
g2
(lp606
g0
(g1
g2
(lp607
g0
(g1
g2
(lp608
g0
(g1
g2
(lp609
g0
(g1
g2
(lp610
g0
(g1
g2
(lp611
(lp612
S"word: 's, index: 4"
p613
aatp614
Rp615
(dp616
g12
Vpossessive
p617
sbatp618
Rp619
(dp620
g12
S'word: grandpa, index: 3'
p621
sbatp622
Rp623
(dp624
g12
Vprep
p625
sbag0
(g1
g2
(lp626
(lp627
S'word: fishing, index: 6'
p628
aatp629
Rp630
(dp631
g12
Vprep
p632
sbatp633
Rp634
(dp635
g12
S'word: Looks, index: 1'
p636
sbatp637
Rp638
(dp639
g12
Vccomp
p640
sbag0
(g1
g2
(lp641
(lp642
S'word: him, index: 9'
p643
aatp644
Rp645
(dp646
g12
Vdobj
p647
sbag0
(g1
g2
(lp648
g0
(g1
g2
(lp649
g0
(g1
g2
(lp650
(lp651
S'word: a, index: 10'
p652
aatp653
Rp654
(dp655
g12
Vdet
p656
sbag0
(g1
g2
(lp657
(lp658
S'word: big, index: 11'
p659
aatp660
Rp661
(dp662
g12
Vamod
p663
sbatp664
Rp665
(dp666
g12
S'word: one, index: 12'
p667
sbatp668
Rp669
(dp670
g12
Vnsubj
p671
sbatp672
Rp673
(dp674
g12
S'word: got, index: 8'
p675
sbatp676
Rp677
(dp678
g12
S'id: 10'
p679
sbag0
(g1
g2
(lp680
g0
(g1
g2
(lp681
g0
(g1
g2
(lp682
g0
(g1
g2
(lp683
g0
(g1
g2
(lp684
(lp685
S'word: I, index: 1'
p686
aatp687
Rp688
(dp689
g12
Vnsubj
p690
sbag0
(g1
g2
(lp691
g0
(g1
g2
(lp692
g0
(g1
g2
(lp693
(lp694
S'word: some, index: 3'
p695
aatp696
Rp697
(dp698
g12
Vnsubj
p699
sbag0
(g1
g2
(lp700
(lp701
S'word: over, index: 5'
p702
aatp703
Rp704
(dp705
g12
Vadvmod
p706
sbag0
(g1
g2
(lp707
g0
(g1
g2
(lp708
g0
(g1
g2
(lp709
(lp710
S'word: the, index: 7'
p711
aatp712
Rp713
(dp714
g12
Vdep
p715
sbatp716
Rp717
(dp718
g12
S'word: in, index: 6'
p719
sbatp720
Rp721
(dp722
g12
Vadvmod
p723
sbag0
(g1
g2
(lp724
g0
(g1
g2
(lp725
g0
(g1
g2
(lp726
(lp727
S'word: no, index: 9'
p728
aatp729
Rp730
(dp731
g12
Vdobj
p732
sbag0
(g1
g2
(lp733
(lp734
S'word: that, index: 10'
p735
aatp736
Rp737
(dp738
g12
Vnsubj
p739
sbag0
(g1
g2
(lp740
(lp741
S'word: not, index: 12'
p742
aatp743
Rp744
(dp745
g12
Vneg
p746
sbatp747
Rp748
(dp749
g12
S"word: 's, index: 11"
p750
sbatp751
Rp752
(dp753
g12
Vccomp
p754
sbatp755
Rp756
(dp757
g12
S'word: could, index: 4'
p758
sbatp759
Rp760
(dp761
g12
Vccomp
p762
sbatp763
Rp764
(dp765
g12
S'word: see, index: 2'
p766
sbatp767
Rp768
(dp769
g12
Vccomp
p770
sbag0
(g1
g2
(lp771
g0
(g1
g2
(lp772
g0
(g1
g2
(lp773
(lp774
S'word: that, index: 19'
p775
aatp776
Rp777
(dp778
g12
Vnsubj
p779
sbag0
(g1
g2
(lp780
(lp781
S"word: 's, index: 20"
p782
aatp783
Rp784
(dp785
g12
Vcop
p786
sbatp787
Rp788
(dp789
g12
S'word: tree, index: 21'
p790
sbatp791
Rp792
(dp793
g12
Vrcmod
p794
sbag0
(g1
g2
(lp795
g0
(g1
g2
(lp796
g0
(g1
g2
(lp797
(lp798
S'word: trees, index: 26'
p799
aatp800
Rp801
(dp802
g12
Vappos
p803
sbatp804
Rp805
(dp806
g12
S'word: woods, index: 24'
p807
sbatp808
Rp809
(dp810
g12
Vconj
p811
sbag0
(g1
g2
(lp812
(lp813
S'word: that, index: 14'
p814
aatp815
Rp816
(dp817
g12
Vnsubj
p818
sbag0
(g1
g2
(lp819
(lp820
S"word: 's, index: 15"
p821
aatp822
Rp823
(dp824
g12
Vcop
p825
sbag0
(g1
g2
(lp826
(lp827
S'word: not, index: 16'
p828
aatp829
Rp830
(dp831
g12
Vneg
p832
sbatp833
Rp834
(dp835
g12
S'word: clouds, index: 17'
p836
sbatp837
Rp838
(dp839
g12
S'id: 11'
p840
sbag0
(g1
g2
(lp841
g0
(g1
g2
(lp842
g0
(g1
g2
(lp843
(lp844
S'word: I, index: 1'
p845
aatp846
Rp847
(dp848
g12
Vnsubj
p849
sbag0
(g1
g2
(lp850
g0
(g1
g2
(lp851
g0
(g1
g2
(lp852
g0
(g1
g2
(lp853
g0
(g1
g2
(lp854
g0
(g1
g2
(lp855
g0
(g1
g2
(lp856
(lp857
S'word: four, index: 6'
p858
aatp859
Rp860
(dp861
g12
Vnum
p862
sbatp863
Rp864
(dp865
g12
S'word: seventy, index: 7'
p866
sbatp867
Rp868
(dp869
g12
Vdep
p870
sbatp871
Rp872
(dp873
g12
S'word: number, index: 5'
p874
sbatp875
Rp876
(dp877
g12
Vappos
p878
sbatp879
Rp880
(dp881
g12
S'word: sailboat, index: 3'
p882
sbatp883
Rp884
(dp885
g12
Vdobj
p886
sbatp887
Rp888
(dp889
g12
S'word: see, index: 2'
p890
sbatp891
Rp892
(dp893
g12
S'id: 12'
p894
sbag0
(g1
g2
(lp895
g0
(g1
g2
(lp896
g0
(g1
g2
(lp897
g0
(g1
g2
(lp898
g0
(g1
g2
(lp899
(lp900
S'word: Two, index: 1'
p901
aatp902
Rp903
(dp904
g12
Vnum
p905
sbag0
(g1
g2
(lp906
(lp907
S'word: they, index: 4'
p908
aatp909
Rp910
(dp911
g12
Vconj
p912
sbatp913
Rp914
(dp915
g12
S'word: guys, index: 2'
p916
sbatp917
Rp918
(dp919
g12
Vnsubj
p920
sbag0
(g1
g2
(lp921
(lp922
S'word: they, index: 4'
p923
aatp924
Rp925
(dp926
g12
Vnsubj
p927
sbag0
(g1
g2
(lp928
(lp929
S"word: 're, index: 5"
p930
aatp931
Rp932
(dp933
g12
Vaux
p934
sbatp935
Rp936
(dp937
g12
S'word: waving, index: 6'
p938
sbatp939
Rp940
(dp941
g12
S'id: 13'
p942
sbag0
(g1
g2
(lp943
g0
(g1
g2
(lp944
g0
(g1
g2
(lp945
g0
(g1
g2
(lp946
g0
(g1
g2
(lp947
g0
(g1
g2
(lp948
g0
(g1
g2
(lp949
(lp950
S'word: she, index: 13'
p951
aatp952
Rp953
(dp954
g12
Vprep
p955
sbag0
(g1
g2
(lp956
g0
(g1
g2
(lp957
g0
(g1
g2
(lp958
(lp959
S'word: Little, index: 1'
p960
aatp961
Rp962
(dp963
g12
Vamod
p964
sbatp965
Rp966
(dp967
g12
S'word: girl, index: 2'
p968
sbatp969
Rp970
(dp971
g12
Vposs
p972
sbag0
(g1
g2
(lp973
g0
(g1
g2
(lp974
g0
(g1
g2
(lp975
g0
(g1
g2
(lp976
g0
(g1
g2
(lp977
(lp978
S'word: the, index: 9'
p979
aatp980
Rp981
(dp982
g12
Vdet
p983
sbatp984
Rp985
(dp986
g12
S'word: sand, index: 10'
p987
sbatp988
Rp989
(dp990
g12
Vprep
p991
sbag0
(g1
g2
(lp992
(lp993
S'word: she, index: 13'
p994
aatp995
Rp996
(dp997
g12
Vconj
p998
sbag0
(g1
g2
(lp999
(lp1000
S'word: the, index: 6'
p1001
aatp1002
Rp1003
(dp1004
g12
Vdet
p1005
sbatp1006
Rp1007
(dp1008
g12
S'word: beach, index: 7'
p1009
sbatp1010
Rp1011
(dp1012
g12
Vprep
p1013
sbatp1014
Rp1015
(dp1016
g12
S'word: playing, index: 4'
p1017
sbatp1018
Rp1019
(dp1020
g12
Vnsubj
p1021
sbatp1022
Rp1023
(dp1024
g12
S"word: 's, index: 14"
p1025
sbatp1026
Rp1027
(dp1028
g12
Vdep
p1029
sbag0
(g1
g2
(lp1030
g0
(g1
g2
(lp1031
g0
(g1
g2
(lp1032
(lp1033
S'word: a, index: 16'
p1034
aatp1035
Rp1036
(dp1037
g12
Vdet
p1038
sbag0
(g1
g2
(lp1039
g0
(g1
g2
(lp1040
g0
(g1
g2
(lp1041
(lp1042
S'word: a, index: 20'
p1043
aatp1044
Rp1045
(dp1046
g12
Vdet
p1047
sbatp1048
Rp1049
(dp1050
g12
S'word: bucket, index: 21'
p1051
sbatp1052
Rp1053
(dp1054
g12
Vconj
p1055
sbatp1056
Rp1057
(dp1058
g12
S'word: shovel, index: 17'
p1059
sbatp1060
Rp1061
(dp1062
g12
Vdobj
p1063
sbag0
(g1
g2
(lp1064
g1049
atp1065
Rp1066
(dp1067
g12
Vdobj
p1068
sbag0
(g1
g2
(lp1069
g0
(g1
g2
(lp1070
g0
(g1
g2
(lp1071
(lp1072
S'word: yeah, index: 25'
p1073
aatp1074
Rp1075
(dp1076
g12
Vappos
p1077
sbatp1078
Rp1079
(dp1080
g12
S'word: bucket, index: 23'
p1081
sbatp1082
Rp1083
(dp1084
g12
Vnsubj
p1085
sbatp1086
Rp1087
(dp1088
g12
S'word: got, index: 15'
p1089
sbatp1090
Rp1091
(dp1092
g12
S'id: 14'
p1093
sbag0
(g1
g2
(lp1094
g0
(g1
g2
(lp1095
g0
(g1
g2
(lp1096
(lp1097
S'word: The, index: 1'
p1098
aatp1099
Rp1100
(dp1101
g12
Vdet
p1102
sbag0
(g1
g2
(lp1103
(lp1104
S"word: 's, index: 3"
p1105
aatp1106
Rp1107
(dp1108
g12
Vpossessive
p1109
sbag0
(g1
g2
(lp1110
g0
(g1
g2
(lp1111
g0
(g1
g2
(lp1112
g0
(g1
g2
(lp1113
g0
(g1
g2
(lp1114
(lp1115
S'word: tennis, index: 5'
p1116
aatp1117
Rp1118
(dp1119
g12
Vnn
p1120
sbatp1121
Rp1122
(dp1123
g12
S'word: shoes, index: 6'
p1124
sbatp1125
Rp1126
(dp1127
g12
Vdobj
p1128
sbatp1129
Rp1130
(dp1131
g12
S'word: wearing, index: 4'
p1132
sbatp1133
Rp1134
(dp1135
g12
Vvmod
p1136
sbatp1137
Rp1138
(dp1139
g12
S'word: boy, index: 2'
p1140
sbatp1141
Rp1142
(dp1143
g12
S'id: 15'
p1144
sbag0
(g1
g2
(lp1145
g0
(g1
g2
(lp1146
g0
(g1
g2
(lp1147
(lp1148
S'word: House, index: 1'
p1149
aatp1150
Rp1151
(dp1152
g12
Vnsubj
p1153
sbag0
(g1
g2
(lp1154
(lp1155
S'word: is, index: 2'
p1156
aatp1157
Rp1158
(dp1159
g12
Vcop
p1160
sbatp1161
Rp1162
(dp1163
g12
S'word: white, index: 3'
p1164
sbatp1165
Rp1166
(dp1167
g12
S'id: 16'
p1168
sbag0
(g1
g2
(lp1169
g0
(g1
g2
(lp1170
g0
(g1
g2
(lp1171
g0
(g1
g2
(lp1172
g0
(g1
g2
(lp1173
(lp1174
S'word: getting, index: 3'
p1175
aatp1176
Rp1177
(dp1178
g12
Vdep
p1179
sbag0
(g1
g2
(lp1180
g0
(g1
g2
(lp1181
g0
(g1
g2
(lp1182
(lp1183
S"word: 's, index: 2"
p1184
aatp1185
Rp1186
(dp1187
g12
Vpossessive
p1188
sbatp1189
Rp1190
(dp1191
g12
S'word: Dad, index: 1'
p1192
sbatp1193
Rp1194
(dp1195
g12
Vnsubj
p1196
sbatp1197
Rp1198
(dp1199
g12
S'word: old, index: 4'
p1200
sbatp1201
Rp1202
(dp1203
g12
Vvmod
p1204
sbag0
(g1
g2
(lp1205
(lp1206
S'word: he, index: 6'
p1207
aatp1208
Rp1209
(dp1210
g12
Vnsubjpass
p1211
sbag0
(g1
g2
(lp1212
(lp1213
S"word: 's, index: 7"
p1214
aatp1215
Rp1216
(dp1217
g12
Vauxpass
p1218
sbag0
(g1
g2
(lp1219
g0
(g1
g2
(lp1220
g0
(g1
g2
(lp1221
(lp1222
S'word: white, index: 9'
p1223
aatp1224
Rp1225
(dp1226
g12
Vamod
p1227
sbatp1228
Rp1229
(dp1230
g12
S'word: hair, index: 10'
p1231
sbatp1232
Rp1233
(dp1234
g12
Vdobj
p1235
sbag0
(g1
g2
(lp1236
(lp1237
S'word: too, index: 11'
p1238
aatp1239
Rp1240
(dp1241
g12
Vadvmod
p1242
sbatp1243
Rp1244
(dp1245
g12
S'word: got, index: 8'
p1246
sbatp1247
Rp1248
(dp1249
g12
S'id: 17'
p1250
sbag0
(g1
g2
(lp1251
g0
(g1
g2
(lp1252
g0
(g1
g2
(lp1253
(lp1254
S'word: I, index: 1'
p1255
aatp1256
Rp1257
(dp1258
g12
Vnsubj
p1259
sbag0
(g1
g2
(lp1260
(lp1261
S"word: 'm, index: 2"
p1262
aatp1263
Rp1264
(dp1265
g12
Vaux
p1266
sbag0
(g1
g2
(lp1267
(lp1268
S'word: fun, index: 4'
p1269
aatp1270
Rp1271
(dp1272
g12
Vdobj
p1273
sbatp1274
Rp1275
(dp1276
g12
S'word: having, index: 3'
p1277
sbatp1278
Rp1279
(dp1280
g12
S'id: 18'
p1281
sbag0
(g1
g2
(lp1282
g0
(g1
g2
(lp1283
g0
(g1
g2
(lp1284
g0
(g1
g2
(lp1285
g0
(g1
g2
(lp1286
(lp1287
S'word: his, index: 2'
p1288
aatp1289
Rp1290
(dp1291
g12
Vposs
p1292
sbatp1293
Rp1294
(dp1295
g12
S'word: sandals, index: 3'
p1296
sbatp1297
Rp1298
(dp1299
g12
Vdobj
p1300
sbag0
(g1
g2
(lp1301
g0
(g1
g2
(lp1302
g0
(g1
g2
(lp1303
(lp1304
S'word: his, index: 5'
p1305
aatp1306
Rp1307
(dp1308
g12
Vposs
p1309
sbatp1310
Rp1311
(dp1312
g12
S'word: hands, index: 6'
p1313
sbatp1314
Rp1315
(dp1316
g12
Vprep
p1317
sbatp1318
Rp1319
(dp1320
g12
S'word: Took, index: 1'
p1321
sbatp1322
Rp1323
(dp1324
g12
S'id: 19'
p1325
sbag0
(g1
g2
(lp1326
g0
(g1
g2
(lp1327
g0
(g1
g2
(lp1328
g0
(g1
g2
(lp1329
g0
(g1
g2
(lp1330
(lp1331
S'word: a, index: 3'
p1332
aatp1333
Rp1334
(dp1335
g12
Vdet
p1336
sbatp1337
Rp1338
(dp1339
g12
S'word: blanket, index: 4'
p1340
sbatp1341
Rp1342
(dp1343
g12
Vprep
p1344
sbatp1345
Rp1346
(dp1347
g12
S'word: Sitting, index: 1'
p1348
sbatp1349
Rp1350
(dp1351
g12
S'id: 20'
p1352
sbag0
(g1
g2
(lp1353
g0
(g1
g2
(lp1354
g0
(g1
g2
(lp1355
(lp1356
S'word: basket, index: 2'
p1357
aatp1358
Rp1359
(dp1360
g12
Vdep
p1361
sbatp1362
Rp1363
(dp1364
g12
S'word: Picnic, index: 1'
p1365
sbatp1366
Rp1367
(dp1368
g12
S'id: 21'
p1369
sbag0
(g1
g2
(lp1370
g0
(g1
g2
(lp1371
g0
(g1
g2
(lp1372
g0
(g1
g2
(lp1373
g0
(g1
g2
(lp1374
(lp1375
S'word: just, index: 3'
p1376
aatp1377
Rp1378
(dp1379
g12
Vadvmod
p1380
sbatp1381
Rp1382
(dp1383
g12
S'word: wine, index: 4'
p1384
sbatp1385
Rp1386
(dp1387
g12
Vdep
p1388
sbag0
(g1
g2
(lp1389
(lp1390
S'word: No, index: 1'
p1391
aatp1392
Rp1393
(dp1394
g12
Vneg
p1395
sbatp1396
Rp1397
(dp1398
g12
S'word: food, index: 2'
p1399
sbatp1400
Rp1401
(dp1402
g12
S'id: 22'
p1403
sbatp1404
Rp1405
(dp1406
g12
S'sentences'
p1407
sb.