ccopy_reg
_reconstructor
p0
(cnltk.tree
Tree
p1
c__builtin__
list
p2
(lp3
g0
(g1
g2
(lp4
g0
(g1
g2
(lp5
g0
(g1
g2
(lp6
VWater .
p7
atp8
Rp9
(dp10
S'_label'
p11
S'start: 1'
p12
sbatp13
Rp14
(dp15
g11
S'sent: 1'
p16
sbag0
(g1
g2
(lp17
g0
(g1
g2
(lp18
VWater , no no water .
p19
atp20
Rp21
(dp22
g11
S'start: 1'
p23
sbatp24
Rp25
(dp26
g11
S'sent: 2'
p27
sbag0
(g1
g2
(lp28
g0
(g1
g2
(lp29
Vno no water
p30
atp31
Rp32
(dp33
g11
S'start: 3'
p34
sbatp35
Rp36
(dp37
g11
S'sent: 2'
p38
sbag0
(g1
g2
(lp39
g0
(g1
g2
(lp40
VWater .
p41
atp42
Rp43
(dp44
g11
S'start: 1'
p45
sbatp46
Rp47
(dp48
g11
S'sent: 7'
p49
sbatp50
Rp51
(dp52
g11
S'id: 1'
p53
sbag0
(g1
g2
(lp54
g0
(g1
g2
(lp55
g0
(g1
g2
(lp56
VI
p57
atp58
Rp59
(dp60
g11
S'start: 1'
p61
sbatp62
Rp63
(dp64
g11
S'sent: 3'
p65
sbag0
(g1
g2
(lp66
g0
(g1
g2
(lp67
VI
p68
atp69
Rp70
(dp71
g11
S'start: 1'
p72
sbatp73
Rp74
(dp75
g11
S'sent: 4'
p76
sbatp77
Rp78
(dp79
g11
S'id: 4'
p80
sbatp81
Rp82
(dp83
g11
S'coreferences'
p84
sb.