ccopy_reg
_reconstructor
p0
(cnltk.tree
Tree
p1
c__builtin__
list
p2
(lp3
g0
(g1
g2
(lp4
g0
(g1
g2
(lp5
g0
(g1
g2
(lp6
g0
(g1
g2
(lp7
VI
p8
atp9
Rp10
(dp11
S'_label'
p12
VPRP
p13
sbatp14
Rp15
(dp16
g12
VNP
p17
sbag0
(g1
g2
(lp18
g0
(g1
g2
(lp19
Vthink
p20
atp21
Rp22
(dp23
g12
VVBP
p24
sbag0
(g1
g2
(lp25
g0
(g1
g2
(lp26
Va
p27
atp28
Rp29
(dp30
g12
VDT
p31
sbag0
(g1
g2
(lp32
Vcircus
p33
atp34
Rp35
(dp36
g12
VNN
p37
sbatp38
Rp39
(dp40
g12
VNP
p41
sbatp42
Rp43
(dp44
g12
VVP
p45
sbag0
(g1
g2
(lp46
V.
p47
atp48
Rp49
(dp50
g12
V.
p51
sbatp52
Rp53
(dp54
g12
VS
p55
sbatp56
Rp57
(dp58
g12
S'id: 0'
p59
sbag0
(g1
g2
(lp60
g0
(g1
g2
(lp61
g0
(g1
g2
(lp62
g0
(g1
g2
(lp63
VClowns
p64
atp65
Rp66
(dp67
g12
VNNS
p68
sbatp69
Rp70
(dp71
g12
VNP
p72
sbag0
(g1
g2
(lp73
V,
p74
atp75
Rp76
(dp77
g12
V,
p78
sbag0
(g1
g2
(lp79
g0
(g1
g2
(lp80
g0
(g1
g2
(lp81
Vnice
p82
atp83
Rp84
(dp85
g12
VJJ
p86
sbag0
(g1
g2
(lp87
Vtables
p88
atp89
Rp90
(dp91
g12
VNNS
p92
sbatp93
Rp94
(dp95
g12
VNP
p96
sbag0
(g1
g2
(lp97
V,
p98
atp99
Rp100
(dp101
g12
V,
p102
sbag0
(g1
g2
(lp103
g0
(g1
g2
(lp104
Vlions
p105
atp106
Rp107
(dp108
g12
VNNS
p109
sbatp110
Rp111
(dp112
g12
VNP
p113
sbatp114
Rp115
(dp116
g12
VNP
p117
sbag0
(g1
g2
(lp118
V.
p119
atp120
Rp121
(dp122
g12
V.
p123
sbatp124
Rp125
(dp126
g12
VNP
p127
sbatp128
Rp129
(dp130
g12
S'id: 1'
p131
sbag0
(g1
g2
(lp132
g0
(g1
g2
(lp133
g0
(g1
g2
(lp134
g0
(g1
g2
(lp135
g0
(g1
g2
(lp136
VWhat
p137
atp138
Rp139
(dp140
g12
VWP
p141
sbatp142
Rp143
(dp144
g12
VNP
p145
sbag0
(g1
g2
(lp146
g0
(g1
g2
(lp147
Va
p148
atp149
Rp150
(dp151
g12
VDT
p152
sbatp153
Rp154
(dp155
g12
VNP
p156
sbag0
(g1
g2
(lp157
V,
p158
atp159
Rp160
(dp161
g12
V,
p162
sbag0
(g1
g2
(lp163
g0
(g1
g2
(lp164
g0
(g1
g2
(lp165
Vwhat
p166
atp167
Rp168
(dp169
g12
VWP
p170
sbatp171
Rp172
(dp173
g12
VWHNP
p174
sbag0
(g1
g2
(lp175
g0
(g1
g2
(lp176
g0
(g1
g2
(lp177
Vyou
p178
atp179
Rp180
(dp181
g12
VPRP
p182
sbatp183
Rp184
(dp185
g12
VNP
p186
sbag0
(g1
g2
(lp187
g0
(g1
g2
(lp188
Vcall
p189
atp190
Rp191
(dp192
g12
VVBP
p193
sbag0
(g1
g2
(lp194
g0
(g1
g2
(lp195
Vit
p196
atp197
Rp198
(dp199
g12
VPRP
p200
sbatp201
Rp202
(dp203
g12
VNP
p204
sbatp205
Rp206
(dp207
g12
VVP
p208
sbatp209
Rp210
(dp211
g12
VS
p212
sbatp213
Rp214
(dp215
g12
VSBAR
p216
sbag0
(g1
g2
(lp217
V,
p218
atp219
Rp220
(dp221
g12
V,
p222
sbatp223
Rp224
(dp225
g12
VNP
p226
sbag0
(g1
g2
(lp227
g0
(g1
g2
(lp228
g0
(g1
g2
(lp229
Vacrobatic
p230
atp231
Rp232
(dp233
g12
VJJ
p234
sbag0
(g1
g2
(lp235
Vwalking
p236
atp237
Rp238
(dp239
g12
VVBG
p240
sbatp241
Rp242
(dp243
g12
VNP
p244
sbag0
(g1
g2
(lp245
g0
(g1
g2
(lp246
Von
p247
atp248
Rp249
(dp250
g12
VIN
p251
sbag0
(g1
g2
(lp252
g0
(g1
g2
(lp253
Vthe
p254
atp255
Rp256
(dp257
g12
VDT
p258
sbag0
(g1
g2
(lp259
Vtight
p260
atp261
Rp262
(dp263
g12
VJJ
p264
sbag0
(g1
g2
(lp265
Vrope
p266
atp267
Rp268
(dp269
g12
VNN
p270
sbatp271
Rp272
(dp273
g12
VNP
p274
sbatp275
Rp276
(dp277
g12
VPP
p278
sbatp279
Rp280
(dp281
g12
VNP
p282
sbag0
(g1
g2
(lp283
V.
p284
atp285
Rp286
(dp287
g12
V.
p288
sbatp289
Rp290
(dp291
g12
VNP
p292
sbatp293
Rp294
(dp295
g12
S'id: 2'
p296
sbag0
(g1
g2
(lp297
g0
(g1
g2
(lp298
g0
(g1
g2
(lp299
g0
(g1
g2
(lp300
VGirl
p301
atp302
Rp303
(dp304
g12
VNNP
p305
sbatp306
Rp307
(dp308
g12
VNP
p309
sbag0
(g1
g2
(lp310
g0
(g1
g2
(lp311
Vriding
p312
atp313
Rp314
(dp315
g12
VVBG
p316
sbag0
(g1
g2
(lp317
g0
(g1
g2
(lp318
Von
p319
atp320
Rp321
(dp322
g12
VIN
p323
sbag0
(g1
g2
(lp324
g0
(g1
g2
(lp325
Von
p326
atp327
Rp328
(dp329
g12
VIN
p330
sbag0
(g1
g2
(lp331
g0
(g1
g2
(lp332
Va
p333
atp334
Rp335
(dp336
g12
VDT
p337
sbag0
(g1
g2
(lp338
Vhorse
p339
atp340
Rp341
(dp342
g12
VNN
p343
sbatp344
Rp345
(dp346
g12
VNP
p347
sbatp348
Rp349
(dp350
g12
VPP
p351
sbatp352
Rp353
(dp354
g12
VPP
p355
sbatp356
Rp357
(dp358
g12
VVP
p359
sbag0
(g1
g2
(lp360
V.
p361
atp362
Rp363
(dp364
g12
V.
p365
sbatp366
Rp367
(dp368
g12
VNP
p369
sbatp370
Rp371
(dp372
g12
S'id: 3'
p373
sbag0
(g1
g2
(lp374
g0
(g1
g2
(lp375
g0
(g1
g2
(lp376
g0
(g1
g2
(lp377
VBlack
p378
atp379
Rp380
(dp381
g12
VJJ
p382
sbag0
(g1
g2
(lp383
Vman
p384
atp385
Rp386
(dp387
g12
VNN
p388
sbatp389
Rp390
(dp391
g12
VNP
p392
sbag0
(g1
g2
(lp393
V,
p394
atp395
Rp396
(dp397
g12
V,
p398
sbag0
(g1
g2
(lp399
g0
(g1
g2
(lp400
Vblack
p401
atp402
Rp403
(dp404
g12
VJJ
p405
sbag0
(g1
g2
(lp406
Vgirl
p407
atp408
Rp409
(dp410
g12
VNN
p411
sbatp412
Rp413
(dp414
g12
VNP
p415
sbag0
(g1
g2
(lp416
V.
p417
atp418
Rp419
(dp420
g12
V.
p421
sbatp422
Rp423
(dp424
g12
VNP
p425
sbatp426
Rp427
(dp428
g12
S'id: 4'
p429
sbag0
(g1
g2
(lp430
g0
(g1
g2
(lp431
g0
(g1
g2
(lp432
g0
(g1
g2
(lp433
VWhite
p434
atp435
Rp436
(dp437
g12
VNNP
p438
sbatp439
Rp440
(dp441
g12
VNP
p442
sbag0
(g1
g2
(lp443
g0
(g1
g2
(lp444
g0
(g1
g2
(lp445
Vgirl
p446
atp447
Rp448
(dp449
g12
VNN
p450
sbatp451
Rp452
(dp453
g12
VNP
p454
sbag0
(g1
g2
(lp455
V,
p456
atp457
Rp458
(dp459
g12
V,
p460
sbag0
(g1
g2
(lp461
g0
(g1
g2
(lp462
Vwhite
p463
atp464
Rp465
(dp466
g12
VJJ
p467
sbag0
(g1
g2
(lp468
Vboy
p469
atp470
Rp471
(dp472
g12
VNN
p473
sbatp474
Rp475
(dp476
g12
VNP
p477
sbag0
(g1
g2
(lp478
V,
p479
atp480
Rp481
(dp482
g12
V,
p483
sbag0
(g1
g2
(lp484
Vand
p485
atp486
Rp487
(dp488
g12
VCC
p489
sbag0
(g1
g2
(lp490
g0
(g1
g2
(lp491
Vmama
p492
atp493
Rp494
(dp495
g12
VNN
p496
sbatp497
Rp498
(dp499
g12
VNP
p500
sbatp501
Rp502
(dp503
g12
VNP
p504
sbag0
(g1
g2
(lp505
V.
p506
atp507
Rp508
(dp509
g12
V.
p510
sbatp511
Rp512
(dp513
g12
VNP
p514
sbatp515
Rp516
(dp517
g12
S'id: 5'
p518
sbag0
(g1
g2
(lp519
g0
(g1
g2
(lp520
g0
(g1
g2
(lp521
VAnd
p522
atp523
Rp524
(dp525
g12
VCC
p526
sbag0
(g1
g2
(lp527
g0
(g1
g2
(lp528
Vlook
p529
atp530
Rp531
(dp532
g12
VVB
p533
sbag0
(g1
g2
(lp534
g0
(g1
g2
(lp535
Vlike
p536
atp537
Rp538
(dp539
g12
VIN
p540
sbag0
(g1
g2
(lp541
g0
(g1
g2
(lp542
g0
(g1
g2
(lp543
g0
(g1
g2
(lp544
Va
p545
atp546
Rp547
(dp548
g12
VDT
p549
sbag0
(g1
g2
(lp550
Vcompettie
p551
atp552
Rp553
(dp554
g12
VNN
p555
sbatp556
Rp557
(dp558
g12
VNP
p559
sbag0
(g1
g2
(lp560
g0
(g1
g2
(lp561
Vin
p562
atp563
Rp564
(dp565
g12
VIN
p566
sbag0
(g1
g2
(lp567
g0
(g1
g2
(lp568
Vthe
p569
atp570
Rp571
(dp572
g12
VDT
p573
sbag0
(g1
g2
(lp574
Vhand
p575
atp576
Rp577
(dp578
g12
VNN
p579
sbatp580
Rp581
(dp582
g12
VNP
p583
sbatp584
Rp585
(dp586
g12
VPP
p587
sbatp588
Rp589
(dp590
g12
VNP
p591
sbag0
(g1
g2
(lp592
V,
p593
atp594
Rp595
(dp596
g12
V,
p597
sbag0
(g1
g2
(lp598
Vand
p599
atp600
Rp601
(dp602
g12
VCC
p603
sbag0
(g1
g2
(lp604
g0
(g1
g2
(lp605
g0
(g1
g2
(lp606
Vpatin
p607
atp608
Rp609
(dp610
g12
VNN
p611
sbatp612
Rp613
(dp614
g12
VNP
p615
sbag0
(g1
g2
(lp616
g0
(g1
g2
(lp617
Vit
p618
atp619
Rp620
(dp621
g12
VPRP
p622
sbatp623
Rp624
(dp625
g12
VNP
p626
sbatp627
Rp628
(dp629
g12
VNP
p630
sbatp631
Rp632
(dp633
g12
VNP
p634
sbatp635
Rp636
(dp637
g12
VPP
p638
sbag0
(g1
g2
(lp639
g0
(g1
g2
(lp640
Vout
p641
atp642
Rp643
(dp644
g12
VRP
p645
sbatp646
Rp647
(dp648
g12
VADVP
p649
sbatp650
Rp651
(dp652
g12
VVP
p653
sbag0
(g1
g2
(lp654
V.
p655
atp656
Rp657
(dp658
g12
V.
p659
sbatp660
Rp661
(dp662
g12
VS
p663
sbatp664
Rp665
(dp666
g12
S'id: 6'
p667
sbag0
(g1
g2
(lp668
g0
(g1
g2
(lp669
g0
(g1
g2
(lp670
g0
(g1
g2
(lp671
g0
(g1
g2
(lp672
VBut
p673
atp674
Rp675
(dp676
g12
VCC
p677
sbatp678
Rp679
(dp680
g12
VADVP
p681
sbatp682
Rp683
(dp684
g12
VVP
p685
sbag0
(g1
g2
(lp686
V.
p687
atp688
Rp689
(dp690
g12
V.
p691
sbatp692
Rp693
(dp694
g12
VS
p695
sbatp696
Rp697
(dp698
g12
S'id: 7'
p699
sbag0
(g1
g2
(lp700
g0
(g1
g2
(lp701
g0
(g1
g2
(lp702
VOk
p703
atp704
Rp705
(dp706
g12
VNN
p707
sbag0
(g1
g2
(lp708
V.
p709
atp710
Rp711
(dp712
g12
V.
p713
sbatp714
Rp715
(dp716
g12
VNP
p717
sbatp718
Rp719
(dp720
g12
S'id: 8'
p721
sbag0
(g1
g2
(lp722
g0
(g1
g2
(lp723
g0
(g1
g2
(lp724
g0
(g1
g2
(lp725
VThere
p726
atp727
Rp728
(dp729
g12
VRB
p730
sbatp731
Rp732
(dp733
g12
VADVP
p734
sbag0
(g1
g2
(lp735
V,
p736
atp737
Rp738
(dp739
g12
V,
p740
sbag0
(g1
g2
(lp741
g0
(g1
g2
(lp742
g0
(g1
g2
(lp743
Vthere
p744
atp745
Rp746
(dp747
g12
VEX
p748
sbatp749
Rp750
(dp751
g12
VNP
p752
sbag0
(g1
g2
(lp753
g0
(g1
g2
(lp754
Vnine
p755
atp756
Rp757
(dp758
g12
VCD
p759
sbag0
(g1
g2
(lp760
Vpeople
p761
atp762
Rp763
(dp764
g12
VNNS
p765
sbag0
(g1
g2
(lp766
Vkids
p767
atp768
Rp769
(dp770
g12
VNNS
p771
sbatp772
Rp773
(dp774
g12
VNP
p775
sbatp776
Rp777
(dp778
g12
VNP
p779
sbag0
(g1
g2
(lp780
V.
p781
atp782
Rp783
(dp784
g12
V.
p785
sbatp786
Rp787
(dp788
g12
VX
p789
sbatp790
Rp791
(dp792
g12
S'id: 9'
p793
sbag0
(g1
g2
(lp794
g0
(g1
g2
(lp795
g0
(g1
g2
(lp796
g0
(g1
g2
(lp797
VNine
p798
atp799
Rp800
(dp801
g12
VCD
p802
sbatp803
Rp804
(dp805
g12
VNP
p806
sbag0
(g1
g2
(lp807
g0
(g1
g2
(lp808
Vis
p809
atp810
Rp811
(dp812
g12
VVBZ
p813
sbag0
(g1
g2
(lp814
g0
(g1
g2
(lp815
Vcause
p816
atp817
Rp818
(dp819
g12
VNN
p820
sbatp821
Rp822
(dp823
g12
VNP
p824
sbatp825
Rp826
(dp827
g12
VVP
p828
sbag0
(g1
g2
(lp829
V.
p830
atp831
Rp832
(dp833
g12
V.
p834
sbatp835
Rp836
(dp837
g12
VS
p838
sbatp839
Rp840
(dp841
g12
S'id: 10'
p842
sbag0
(g1
g2
(lp843
g0
(g1
g2
(lp844
g0
(g1
g2
(lp845
g0
(g1
g2
(lp846
VThe
p847
atp848
Rp849
(dp850
g12
VDT
p851
sbag0
(g1
g2
(lp852
Vclown
p853
atp854
Rp855
(dp856
g12
VNN
p857
sbatp858
Rp859
(dp860
g12
VNP
p861
sbag0
(g1
g2
(lp862
g0
(g1
g2
(lp863
g0
(g1
g2
(lp864
Vgot
p865
atp866
Rp867
(dp868
g12
VVBD
p869
sbag0
(g1
g2
(lp870
g0
(g1
g2
(lp871
g0
(g1
g2
(lp872
Va
p873
atp874
Rp875
(dp876
g12
VDT
p877
sbag0
(g1
g2
(lp878
Vpointed
p879
atp880
Rp881
(dp882
g12
VJJ
p883
sbag0
(g1
g2
(lp884
Vhat
p885
atp886
Rp887
(dp888
g12
VNN
p889
sbatp890
Rp891
(dp892
g12
VNP
p893
sbag0
(g1
g2
(lp894
V,
p895
atp896
Rp897
(dp898
g12
V,
p899
sbag0
(g1
g2
(lp900
Vand
p901
atp902
Rp903
(dp904
g12
VCC
p905
sbag0
(g1
g2
(lp906
g0
(g1
g2
(lp907
g0
(g1
g2
(lp908
Va
p909
atp910
Rp911
(dp912
g12
VDT
p913
sbag0
(g1
g2
(lp914
Vflower
p915
atp916
Rp917
(dp918
g12
VNN
p919
sbatp920
Rp921
(dp922
g12
VNP
p923
sbag0
(g1
g2
(lp924
g0
(g1
g2
(lp925
Von
p926
atp927
Rp928
(dp929
g12
VIN
p930
sbag0
(g1
g2
(lp931
g0
(g1
g2
(lp932
g0
(g1
g2
(lp933
Vtop
p934
atp935
Rp936
(dp937
g12
VNN
p938
sbatp939
Rp940
(dp941
g12
VNP
p942
sbag0
(g1
g2
(lp943
g0
(g1
g2
(lp944
Vof
p945
atp946
Rp947
(dp948
g12
VIN
p949
sbag0
(g1
g2
(lp950
g0
(g1
g2
(lp951
Vthe
p952
atp953
Rp954
(dp955
g12
VDT
p956
sbag0
(g1
g2
(lp957
Vhat
p958
atp959
Rp960
(dp961
g12
VNN
p962
sbatp963
Rp964
(dp965
g12
VNP
p966
sbatp967
Rp968
(dp969
g12
VPP
p970
sbatp971
Rp972
(dp973
g12
VNP
p974
sbatp975
Rp976
(dp977
g12
VPP
p978
sbatp979
Rp980
(dp981
g12
VNP
p982
sbag0
(g1
g2
(lp983
V,
p984
atp985
Rp986
(dp987
g12
V,
p988
sbatp989
Rp990
(dp991
g12
VNP
p992
sbatp993
Rp994
(dp995
g12
VVP
p996
sbag0
(g1
g2
(lp997
Vand
p998
atp999
Rp1000
(dp1001
g12
VCC
p1002
sbag0
(g1
g2
(lp1003
g0
(g1
g2
(lp1004
Vpoke
p1005
atp1006
Rp1007
(dp1008
g12
VVB
p1009
sbag0
(g1
g2
(lp1010
g0
(g1
g2
(lp1011
Va
p1012
atp1013
Rp1014
(dp1015
g12
VDT
p1016
sbag0
(g1
g2
(lp1017
Vdot
p1018
atp1019
Rp1020
(dp1021
g12
VNN
p1022
sbag0
(g1
g2
(lp1023
Vtie
p1024
atp1025
Rp1026
(dp1027
g12
VNN
p1028
sbatp1029
Rp1030
(dp1031
g12
VNP
p1032
sbatp1033
Rp1034
(dp1035
g12
VVP
p1036
sbatp1037
Rp1038
(dp1039
g12
VVP
p1040
sbag0
(g1
g2
(lp1041
V.
p1042
atp1043
Rp1044
(dp1045
g12
V.
p1046
sbatp1047
Rp1048
(dp1049
g12
VS
p1050
sbatp1051
Rp1052
(dp1053
g12
S'id: 11'
p1054
sbatp1055
Rp1056
(dp1057
g12
S'sentences'
p1058
sb.