ccopy_reg
_reconstructor
p0
(cnltk.tree
Tree
p1
c__builtin__
list
p2
(lp3
g0
(g1
g2
(lp4
g0
(g1
g2
(lp5
g0
(g1
g2
(lp6
g0
(g1
g2
(lp7
VOutside
p8
atp9
Rp10
(dp11
S'_label'
p12
VJJ
p13
sbatp14
Rp15
(dp16
g12
VADVP
p17
sbag0
(g1
g2
(lp18
V.
p19
atp20
Rp21
(dp22
g12
V.
p23
sbatp24
Rp25
(dp26
g12
VFRAG
p27
sbatp28
Rp29
(dp30
g12
S'id: 0'
p31
sbag0
(g1
g2
(lp32
g0
(g1
g2
(lp33
g0
(g1
g2
(lp34
g0
(g1
g2
(lp35
VThis
p36
atp37
Rp38
(dp39
g12
VDT
p40
sbatp41
Rp42
(dp43
g12
VNP
p44
sbag0
(g1
g2
(lp45
g0
(g1
g2
(lp46
Vhere
p47
atp48
Rp49
(dp50
g12
VRB
p51
sbatp52
Rp53
(dp54
g12
VADVP
p55
sbag0
(g1
g2
(lp56
V.
p57
atp58
Rp59
(dp60
g12
V.
p61
sbatp62
Rp63
(dp64
g12
VFRAG
p65
sbatp66
Rp67
(dp68
g12
S'id: 1'
p69
sbag0
(g1
g2
(lp70
g0
(g1
g2
(lp71
g0
(g1
g2
(lp72
g0
(g1
g2
(lp73
g0
(g1
g2
(lp74
VGirl
p75
atp76
Rp77
(dp78
g12
VNNP
p79
sbatp80
Rp81
(dp82
g12
VNP
p83
sbag0
(g1
g2
(lp84
Vand
p85
atp86
Rp87
(dp88
g12
VCC
p89
sbag0
(g1
g2
(lp90
g0
(g1
g2
(lp91
Va
p92
atp93
Rp94
(dp95
g12
VDT
p96
sbag0
(g1
g2
(lp97
Vboy
p98
atp99
Rp100
(dp101
g12
VNN
p102
sbatp103
Rp104
(dp105
g12
VNP
p106
sbatp107
Rp108
(dp109
g12
VNP
p110
sbag0
(g1
g2
(lp111
V.
p112
atp113
Rp114
(dp115
g12
V.
p116
sbatp117
Rp118
(dp119
g12
VNP
p120
sbatp121
Rp122
(dp123
g12
S'id: 2'
p124
sbag0
(g1
g2
(lp125
g0
(g1
g2
(lp126
g0
(g1
g2
(lp127
g0
(g1
g2
(lp128
VSee
p129
atp130
Rp131
(dp132
g12
VVB
p133
sbag0
(g1
g2
(lp134
g0
(g1
g2
(lp135
Vradio
p136
atp137
Rp138
(dp139
g12
VNN
p140
sbatp141
Rp142
(dp143
g12
VNP
p144
sbatp145
Rp146
(dp147
g12
VVP
p148
sbag0
(g1
g2
(lp149
V.
p150
atp151
Rp152
(dp153
g12
V.
p154
sbatp155
Rp156
(dp157
g12
VS
p158
sbatp159
Rp160
(dp161
g12
S'id: 3'
p162
sbag0
(g1
g2
(lp163
g0
(g1
g2
(lp164
g0
(g1
g2
(lp165
g0
(g1
g2
(lp166
VBall
p167
atp168
Rp169
(dp170
g12
VNNP
p171
sbatp172
Rp173
(dp174
g12
VNP
p175
sbag0
(g1
g2
(lp176
V.
p177
atp178
Rp179
(dp180
g12
V.
p181
sbatp182
Rp183
(dp184
g12
VFRAG
p185
sbatp186
Rp187
(dp188
g12
S'id: 4'
p189
sbag0
(g1
g2
(lp190
g0
(g1
g2
(lp191
g0
(g1
g2
(lp192
g0
(g1
g2
(lp193
VHere
p194
atp195
Rp196
(dp197
g12
VRB
p198
sbatp199
Rp200
(dp201
g12
VADVP
p202
sbag0
(g1
g2
(lp203
g0
(g1
g2
(lp204
Vgot
p205
atp206
Rp207
(dp208
g12
VVBD
p209
sbatp210
Rp211
(dp212
g12
VVP
p213
sbag0
(g1
g2
(lp214
g0
(g1
g2
(lp215
Va
p216
atp217
Rp218
(dp219
g12
VDT
p220
sbag0
(g1
g2
(lp221
Vboy
p222
atp223
Rp224
(dp225
g12
VNN
p226
sbag0
(g1
g2
(lp227
g0
(g1
g2
(lp228
g0
(g1
g2
(lp229
Vthat
p230
atp231
Rp232
(dp233
g12
VWDT
p234
sbatp235
Rp236
(dp237
g12
VWHNP
p238
sbag0
(g1
g2
(lp239
g0
(g1
g2
(lp240
g0
(g1
g2
(lp241
Vflying
p242
atp243
Rp244
(dp245
g12
VVBG
p246
sbag0
(g1
g2
(lp247
g0
(g1
g2
(lp248
Va
p249
atp250
Rp251
(dp252
g12
VDT
p253
sbag0
(g1
g2
(lp254
Vgiant
p255
atp256
Rp257
(dp258
g12
VJJ
p259
sbag0
(g1
g2
(lp260
Vkite
p261
atp262
Rp263
(dp264
g12
VNN
p265
sbatp266
Rp267
(dp268
g12
VNP
p269
sbatp270
Rp271
(dp272
g12
VVP
p273
sbatp274
Rp275
(dp276
g12
VS
p277
sbatp278
Rp279
(dp280
g12
VSBAR
p281
sbatp282
Rp283
(dp284
g12
VNP
p285
sbag0
(g1
g2
(lp286
V.
p287
atp288
Rp289
(dp290
g12
V.
p291
sbatp292
Rp293
(dp294
g12
VSINV
p295
sbatp296
Rp297
(dp298
g12
S'id: 5'
p299
sbag0
(g1
g2
(lp300
g0
(g1
g2
(lp301
g0
(g1
g2
(lp302
g0
(g1
g2
(lp303
g0
(g1
g2
(lp304
g0
(g1
g2
(lp305
VRunning
p306
atp307
Rp308
(dp309
g12
VVBG
p310
sbag0
(g1
g2
(lp311
g0
(g1
g2
(lp312
Vall
p313
atp314
Rp315
(dp316
g12
VDT
p317
sbag0
(g1
g2
(lp318
Vday
p319
atp320
Rp321
(dp322
g12
VNN
p323
sbag0
(g1
g2
(lp324
Vdog
p325
atp326
Rp327
(dp328
g12
VNN
p329
sbatp330
Rp331
(dp332
g12
VNP
p333
sbatp334
Rp335
(dp336
g12
VVP
p337
sbatp338
Rp339
(dp340
g12
VS
p341
sbag0
(g1
g2
(lp342
V,
p343
atp344
Rp345
(dp346
g12
V,
p347
sbag0
(g1
g2
(lp348
g0
(g1
g2
(lp349
Vdog
p350
atp351
Rp352
(dp353
g12
VNN
p354
sbatp355
Rp356
(dp357
g12
VNP
p358
sbag0
(g1
g2
(lp359
g0
(g1
g2
(lp360
Vtry
p361
atp362
Rp363
(dp364
g12
VVBP
p365
sbag0
(g1
g2
(lp366
g0
(g1
g2
(lp367
Vto
p368
atp369
Rp370
(dp371
g12
VTO
p372
sbatp373
Rp374
(dp375
g12
VPP
p376
sbatp377
Rp378
(dp379
g12
VVP
p380
sbatp381
Rp382
(dp383
g12
VS
p384
sbag0
(g1
g2
(lp385
V,
p386
atp387
Rp388
(dp389
g12
V,
p390
sbag0
(g1
g2
(lp391
g0
(g1
g2
(lp392
Vdog
p393
atp394
Rp395
(dp396
g12
VNN
p397
sbatp398
Rp399
(dp400
g12
VNP
p401
sbag0
(g1
g2
(lp402
g0
(g1
g2
(lp403
Vdo
p404
atp405
Rp406
(dp407
g12
VVBP
p408
sbatp409
Rp410
(dp411
g12
VVP
p412
sbag0
(g1
g2
(lp413
V.
p414
atp415
Rp416
(dp417
g12
V.
p418
sbatp419
Rp420
(dp421
g12
VS
p422
sbatp423
Rp424
(dp425
g12
S'id: 6'
p426
sbag0
(g1
g2
(lp427
g0
(g1
g2
(lp428
g0
(g1
g2
(lp429
VHere
p430
atp431
Rp432
(dp433
g12
VRB
p434
sbag0
(g1
g2
(lp435
g0
(g1
g2
(lp436
Vboy
p437
atp438
Rp439
(dp440
g12
VNN
p441
sbatp442
Rp443
(dp444
g12
VNP
p445
sbag0
(g1
g2
(lp446
V,
p447
atp448
Rp449
(dp450
g12
V,
p451
sbag0
(g1
g2
(lp452
g0
(g1
g2
(lp453
Vsandcastle
p454
atp455
Rp456
(dp457
g12
VNN
p458
sbatp459
Rp460
(dp461
g12
VNP
p462
sbag0
(g1
g2
(lp463
V.
p464
atp465
Rp466
(dp467
g12
V.
p468
sbatp469
Rp470
(dp471
g12
VFRAG
p472
sbatp473
Rp474
(dp475
g12
S'id: 7'
p476
sbag0
(g1
g2
(lp477
g0
(g1
g2
(lp478
g0
(g1
g2
(lp479
g0
(g1
g2
(lp480
g0
(g1
g2
(lp481
VHere
p482
atp483
Rp484
(dp485
g12
VRB
p486
sbatp487
Rp488
(dp489
g12
VADVP
p490
sbag0
(g1
g2
(lp491
g0
(g1
g2
(lp492
Vfishing
p493
atp494
Rp495
(dp496
g12
VNN
p497
sbatp498
Rp499
(dp500
g12
VNP
p501
sbatp502
Rp503
(dp504
g12
VS
p505
sbag0
(g1
g2
(lp506
V,
p507
atp508
Rp509
(dp510
g12
V,
p511
sbag0
(g1
g2
(lp512
g0
(g1
g2
(lp513
Vhe
p514
atp515
Rp516
(dp517
g12
VPRP
p518
sbatp519
Rp520
(dp521
g12
VNP
p522
sbag0
(g1
g2
(lp523
g0
(g1
g2
(lp524
Vcaught
p525
atp526
Rp527
(dp528
g12
VVBD
p529
sbag0
(g1
g2
(lp530
g0
(g1
g2
(lp531
Vone
p532
atp533
Rp534
(dp535
g12
VCD
p536
sbatp537
Rp538
(dp539
g12
VNP
p540
sbatp541
Rp542
(dp543
g12
VVP
p544
sbag0
(g1
g2
(lp545
V.
p546
atp547
Rp548
(dp549
g12
V.
p550
sbatp551
Rp552
(dp553
g12
VS
p554
sbatp555
Rp556
(dp557
g12
S'id: 8'
p558
sbag0
(g1
g2
(lp559
g0
(g1
g2
(lp560
g0
(g1
g2
(lp561
g0
(g1
g2
(lp562
g0
(g1
g2
(lp563
VSailboat
p564
atp565
Rp566
(dp567
g12
VNNP
p568
sbatp569
Rp570
(dp571
g12
VNP
p572
sbag0
(g1
g2
(lp573
V,
p574
atp575
Rp576
(dp577
g12
V,
p578
sbag0
(g1
g2
(lp579
Vand
p580
atp581
Rp582
(dp583
g12
VCC
p584
sbag0
(g1
g2
(lp585
g0
(g1
g2
(lp586
Vtwo
p587
atp588
Rp589
(dp590
g12
VCD
p591
sbag0
(g1
g2
(lp592
Vpeople
p593
atp594
Rp595
(dp596
g12
VNNS
p597
sbatp598
Rp599
(dp600
g12
VNP
p601
sbatp602
Rp603
(dp604
g12
VNP
p605
sbag0
(g1
g2
(lp606
g0
(g1
g2
(lp607
Vrabing
p608
atp609
Rp610
(dp611
g12
VVBG
p612
sbatp613
Rp614
(dp615
g12
VVP
p616
sbag0
(g1
g2
(lp617
V.
p618
atp619
Rp620
(dp621
g12
V.
p622
sbatp623
Rp624
(dp625
g12
VNP
p626
sbatp627
Rp628
(dp629
g12
S'id: 9'
p630
sbag0
(g1
g2
(lp631
g0
(g1
g2
(lp632
g0
(g1
g2
(lp633
g0
(g1
g2
(lp634
VHouse
p635
atp636
Rp637
(dp638
g12
VNNP
p639
sbatp640
Rp641
(dp642
g12
VNP
p643
sbag0
(g1
g2
(lp644
V.
p645
atp646
Rp647
(dp648
g12
V.
p649
sbatp650
Rp651
(dp652
g12
VFRAG
p653
sbatp654
Rp655
(dp656
g12
S'id: 10'
p657
sbag0
(g1
g2
(lp658
g0
(g1
g2
(lp659
g0
(g1
g2
(lp660
g0
(g1
g2
(lp661
VBank
p662
atp663
Rp664
(dp665
g12
VNNP
p666
sbatp667
Rp668
(dp669
g12
VNP
p670
sbag0
(g1
g2
(lp671
V.
p672
atp673
Rp674
(dp675
g12
V.
p676
sbatp677
Rp678
(dp679
g12
VFRAG
p680
sbatp681
Rp682
(dp683
g12
S'id: 11'
p684
sbag0
(g1
g2
(lp685
g0
(g1
g2
(lp686
g0
(g1
g2
(lp687
g0
(g1
g2
(lp688
VIs
p689
atp690
Rp691
(dp692
g12
VVBZ
p693
sbag0
(g1
g2
(lp694
g0
(g1
g2
(lp695
Vone
p696
atp697
Rp698
(dp699
g12
VCD
p700
sbag0
(g1
g2
(lp701
Vhouse
p702
atp703
Rp704
(dp705
g12
VNN
p706
sbatp707
Rp708
(dp709
g12
VNP
p710
sbatp711
Rp712
(dp713
g12
VVP
p714
sbag0
(g1
g2
(lp715
V.
p716
atp717
Rp718
(dp719
g12
V.
p720
sbatp721
Rp722
(dp723
g12
VS
p724
sbatp725
Rp726
(dp727
g12
S'id: 12'
p728
sbatp729
Rp730
(dp731
g12
S'sentences'
p732
sb.