ccopy_reg
_reconstructor
p0
(cnltk.tree
Tree
p1
c__builtin__
list
p2
(lp3
g0
(g1
g2
(lp4
g0
(g1
g2
(lp5
g0
(g1
g2
(lp6
(lp7
S'word: this, index: 1'
p8
aatp9
Rp10
(dp11
S'_label'
p12
Vnsubj
p13
sbag0
(g1
g2
(lp14
g0
(g1
g2
(lp15
g0
(g1
g2
(lp16
(lp17
S'word: an, index: 4'
p18
aatp19
Rp20
(dp21
g12
Vdet
p22
sbag0
(g1
g2
(lp23
(lp24
S'word: old, index: 5'
p25
aatp26
Rp27
(dp28
g12
Vamod
p29
sbag0
(g1
g2
(lp30
(lp31
S'word: fashion, index: 6'
p32
aatp33
Rp34
(dp35
g12
Vnn
p36
sbatp37
Rp38
(dp39
g12
S'word: kitchen, index: 7'
p40
sbatp41
Rp42
(dp43
g12
Vprep
p44
sbatp45
Rp46
(dp47
g12
S'word: looks, index: 2'
p48
sbatp49
Rp50
(dp51
g12
S'id: 0'
p52
sbag0
(g1
g2
(lp53
g0
(g1
g2
(lp54
g0
(g1
g2
(lp55
(lp56
S'word: there, index: 3'
p57
aatp58
Rp59
(dp60
g12
Vdep
p61
sbag0
(g1
g2
(lp62
g0
(g1
g2
(lp63
g0
(g1
g2
(lp64
g0
(g1
g2
(lp65
g0
(g1
g2
(lp66
(lp67
S'word: the, index: 5'
p68
aatp69
Rp70
(dp71
g12
Vdet
p72
sbatp73
Rp74
(dp75
g12
S'word: dishes, index: 6'
p76
sbatp77
Rp78
(dp79
g12
Vdobj
p80
sbatp81
Rp82
(dp83
g12
S'word: drying, index: 4'
p84
sbatp85
Rp86
(dp87
g12
Vvmod
p88
sbag0
(g1
g2
(lp89
(lp90
S"word: 's, index: 2"
p91
aatp92
Rp93
(dp94
g12
Vpossessive
p95
sbatp96
Rp97
(dp98
g12
S'word: Mom, index: 1'
p99
sbatp100
Rp101
(dp102
g12
S'id: 1'
p103
sbag0
(g1
g2
(lp104
g0
(g1
g2
(lp105
g0
(g1
g2
(lp106
g0
(g1
g2
(lp107
g0
(g1
g2
(lp108
(lp109
S'word: course, index: 9'
p110
aatp111
Rp112
(dp113
g12
Vprep
p114
sbag0
(g1
g2
(lp115
g0
(g1
g2
(lp116
g0
(g1
g2
(lp117
(lp118
S'word: the, index: 11'
p119
aatp120
Rp121
(dp122
g12
Vdet
p123
sbatp124
Rp125
(dp126
g12
S'word: kids, index: 12'
p127
sbatp128
Rp129
(dp130
g12
Vnsubj
p131
sbag0
(g1
g2
(lp132
g0
(g1
g2
(lp133
g0
(g1
g2
(lp134
(lp135
S'word: to, index: 14'
p136
aatp137
Rp138
(dp139
g12
Vaux
p140
sbag0
(g1
g2
(lp141
g0
(g1
g2
(lp142
g0
(g1
g2
(lp143
(lp144
S'word: the, index: 17'
p145
aatp146
Rp147
(dp148
g12
Vdet
p149
sbag0
(g1
g2
(lp150
(lp151
S'word: cookie, index: 18'
p152
aatp153
Rp154
(dp155
g12
Vnn
p156
sbatp157
Rp158
(dp159
g12
S'word: jar, index: 19'
p160
sbatp161
Rp162
(dp163
g12
Vprep
p164
sbatp165
Rp166
(dp167
g12
S'word: get, index: 15'
p168
sbatp169
Rp170
(dp171
g12
Vxcomp
p172
sbatp173
Rp174
(dp175
g12
S'word: wanted, index: 13'
p176
sbatp177
Rp178
(dp179
g12
Vconj
p180
sbag0
(g1
g2
(lp181
g0
(g1
g2
(lp182
g0
(g1
g2
(lp183
(lp184
S'word: The, index: 1'
p185
aatp186
Rp187
(dp188
g12
Vdet
p189
sbatp190
Rp191
(dp192
g12
S'word: sink, index: 2'
p193
sbatp194
Rp195
(dp196
g12
Vnsubj
p197
sbag0
(g1
g2
(lp198
(lp199
S'word: flowing, index: 5'
p200
aatp201
Rp202
(dp203
g12
Vprep
p204
sbatp205
Rp206
(dp207
g12
S'word: is, index: 3'
p208
sbatp209
Rp210
(dp211
g12
S'id: 2'
p212
sbag0
(g1
g2
(lp213
g0
(g1
g2
(lp214
g0
(g1
g2
(lp215
g0
(g1
g2
(lp216
g0
(g1
g2
(lp217
(lp218
S'word: The, index: 1'
p219
aatp220
Rp221
(dp222
g12
Vdet
p223
sbatp224
Rp225
(dp226
g12
S'word: cabinet, index: 2'
p227
sbatp228
Rp229
(dp230
g12
Vnsubj
p231
sbag0
(g1
g2
(lp232
(lp233
S'word: is, index: 3'
p234
aatp235
Rp236
(dp237
g12
Vcop
p238
sbatp239
Rp240
(dp241
g12
S'word: open, index: 4'
p242
sbatp243
Rp244
(dp245
g12
S'id: 3'
p246
sbag0
(g1
g2
(lp247
g0
(g1
g2
(lp248
g0
(g1
g2
(lp249
g0
(g1
g2
(lp250
g0
(g1
g2
(lp251
(lp252
S'word: as, index: 13'
p253
aatp254
Rp255
(dp256
g12
Vmark
p257
sbag0
(g1
g2
(lp258
(lp259
S'word: he, index: 14'
p260
aatp261
Rp262
(dp263
g12
Vnsubj
p264
sbag0
(g1
g2
(lp265
g0
(g1
g2
(lp266
g0
(g1
g2
(lp267
(lp268
S'word: a, index: 16'
p269
aatp270
Rp271
(dp272
g12
Vdet
p273
sbag0
(g1
g2
(lp274
g0
(g1
g2
(lp275
g0
(g1
g2
(lp276
(lp277
S'word: his, index: 19'
p278
aatp279
Rp280
(dp281
g12
Vposs
p282
sbag0
(g1
g2
(lp283
(lp284
S'word: little, index: 20'
p285
aatp286
Rp287
(dp288
g12
Vamod
p289
sbatp290
Rp291
(dp292
g12
S'word: sister, index: 21'
p293
sbatp294
Rp295
(dp296
g12
Vprep
p297
sbatp298
Rp299
(dp300
g12
S'word: cookie, index: 17'
p301
sbatp302
Rp303
(dp304
g12
Vdobj
p305
sbatp306
Rp307
(dp308
g12
S'word: grabs, index: 15'
p309
sbatp310
Rp311
(dp312
g12
Vadvcl
p313
sbag0
(g1
g2
(lp314
g0
(g1
g2
(lp315
g0
(g1
g2
(lp316
(lp317
S'word: The, index: 1'
p318
aatp319
Rp320
(dp321
g12
Vdet
p322
sbag0
(g1
g2
(lp323
(lp324
S"word: 's, index: 3"
p325
aatp326
Rp327
(dp328
g12
Vpossessive
p329
sbatp330
Rp331
(dp332
g12
S'word: boy, index: 2'
p333
sbatp334
Rp335
(dp336
g12
Vnsubj
p337
sbag0
(g1
g2
(lp338
g0
(g1
g2
(lp339
g0
(g1
g2
(lp340
g0
(g1
g2
(lp341
g0
(g1
g2
(lp342
(lp343
S'word: the, index: 6'
p344
aatp345
Rp346
(dp347
g12
Vdet
p348
sbag0
(g1
g2
(lp349
g0
(g1
g2
(lp350
g0
(g1
g2
(lp351
(lp352
S'word: the, index: 9'
p353
aatp354
Rp355
(dp356
g12
Vdet
p357
sbatp358
Rp359
(dp360
g12
S'word: stool, index: 10'
p361
sbatp362
Rp363
(dp364
g12
Vappos
p365
sbatp366
Rp367
(dp368
g12
S'word: stool, index: 7'
p369
sbatp370
Rp371
(dp372
g12
Vprep
p373
sbatp374
Rp375
(dp376
g12
S'word: up, index: 4'
p377
sbatp378
Rp379
(dp380
g12
Vadvmod
p381
sbag0
(g1
g2
(lp382
g0
(g1
g2
(lp383
g0
(g1
g2
(lp384
(lp385
S'word: who, index: 23'
p386
aatp387
Rp388
(dp389
g12
Vnsubj
p390
sbag0
(g1
g2
(lp391
(lp392
S'word: is, index: 24'
p393
aatp394
Rp395
(dp396
g12
Vcop
p397
sbag0
(g1
g2
(lp398
g0
(g1
g2
(lp399
g0
(g1
g2
(lp400
g0
(g1
g2
(lp401
g0
(g1
g2
(lp402
(lp403
S'word: the, index: 28'
p404
aatp405
Rp406
(dp407
g12
Vdet
p408
sbag0
(g1
g2
(lp409
g0
(g1
g2
(lp410
g0
(g1
g2
(lp411
(lp412
S'word: her, index: 31'
p413
aatp414
Rp415
(dp416
g12
Vposs
p417
sbag0
(g1
g2
(lp418
(lp419
S'word: outstretched, index: 32'
p420
aatp421
Rp422
(dp423
g12
Vamod
p424
sbatp425
Rp426
(dp427
g12
S'word: hand, index: 33'
p428
sbatp429
Rp430
(dp431
g12
Vprep
p432
sbatp433
Rp434
(dp435
g12
S'word: cookie, index: 29'
p436
sbatp437
Rp438
(dp439
g12
Vprep
p440
sbatp441
Rp442
(dp443
g12
S'word: reaching, index: 26'
p444
sbatp445
Rp446
(dp447
g12
Vxcomp
p448
sbatp449
Rp450
(dp451
g12
S'word: re, index: 25'
p452
sbatp453
Rp454
(dp455
g12
Vccomp
p456
sbag0
(g1
g2
(lp457
(lp458
S'word: is, index: 11'
p459
aatp460
Rp461
(dp462
g12
Vaux
p463
sbatp464
Rp465
(dp466
g12
S'word: falling, index: 12'
p467
sbatp468
Rp469
(dp470
g12
S'id: 4'
p471
sbag0
(g1
g2
(lp472
g0
(g1
g2
(lp473
g0
(g1
g2
(lp474
g0
(g1
g2
(lp475
g0
(g1
g2
(lp476
(lp477
S'word: Mom, index: 1'
p478
aatp479
Rp480
(dp481
g12
Vposs
p482
sbatp483
Rp484
(dp485
g12
S'word: feet, index: 3'
p486
sbatp487
Rp488
(dp489
g12
Vnsubj
p490
sbag0
(g1
g2
(lp491
(lp492
S'word: are, index: 4'
p493
aatp494
Rp495
(dp496
g12
Vaux
p497
sbag0
(g1
g2
(lp498
(lp499
S'word: getting, index: 5'
p500
aatp501
Rp502
(dp503
g12
Vdep
p504
sbatp505
Rp506
(dp507
g12
S'word: wet, index: 6'
p508
sbatp509
Rp510
(dp511
g12
S'id: 5'
p512
sbag0
(g1
g2
(lp513
g0
(g1
g2
(lp514
g0
(g1
g2
(lp515
g0
(g1
g2
(lp516
g0
(g1
g2
(lp517
g0
(g1
g2
(lp518
g0
(g1
g2
(lp519
(lp520
S'word: pull, index: 5'
p521
aatp522
Rp523
(dp524
g12
Vprep
p525
sbatp526
Rp527
(dp528
g12
S'word: kind, index: 3'
p529
sbatp530
Rp531
(dp532
g12
Vdobj
p533
sbatp534
Rp535
(dp536
g12
S'word: fashioned, index: 2'
p537
sbatp538
Rp539
(dp540
g12
Vvmod
p541
sbag0
(g1
g2
(lp542
g0
(g1
g2
(lp543
g0
(g1
g2
(lp544
(lp545
S'word: back, index: 6'
p546
aatp547
Rp548
(dp549
g12
Vdep
p550
sbatp551
Rp552
(dp553
g12
S'word: curtains, index: 7'
p554
sbatp555
Rp556
(dp557
g12
Vdep
p558
sbatp559
Rp560
(dp561
g12
S'word: Old, index: 1'
p562
sbatp563
Rp564
(dp565
g12
S'id: 6'
p566
sbag0
(g1
g2
(lp567
g0
(g1
g2
(lp568
g0
(g1
g2
(lp569
(lp570
S'word: it, index: 6'
p571
aatp572
Rp573
(dp574
g12
Vnsubj
p575
sbag0
(g1
g2
(lp576
(lp577
S'word: must, index: 7'
p578
aatp579
Rp580
(dp581
g12
Vaux
p582
sbag0
(g1
g2
(lp583
(lp584
S'word: be, index: 8'
p585
aatp586
Rp587
(dp588
g12
Vcop
p589
sbag0
(g1
g2
(lp590
(lp591
S'word: a, index: 9'
p592
aatp593
Rp594
(dp595
g12
Vdet
p596
sbag0
(g1
g2
(lp597
(lp598
S'word: nice, index: 10'
p599
aatp600
Rp601
(dp602
g12
Vamod
p603
sbag0
(g1
g2
(lp604
(lp605
S'word: spring, index: 11'
p606
aatp607
Rp608
(dp609
g12
Vnn
p610
sbag0
(g1
g2
(lp611
g0
(g1
g2
(lp612
g0
(g1
g2
(lp613
(lp614
S'word: there, index: 14'
p615
aatp616
Rp617
(dp618
g12
Vpobj
p619
sbatp620
Rp621
(dp622
g12
S'word: out, index: 13'
p623
sbatp624
Rp625
(dp626
g12
Vprep
p627
sbag0
(g1
g2
(lp628
g0
(g1
g2
(lp629
g0
(g1
g2
(lp630
(lp631
S'word: The, index: 1'
p632
aatp633
Rp634
(dp635
g12
Vdet
p636
sbag0
(g1
g2
(lp637
(lp638
S"word: 's, index: 3"
p639
aatp640
Rp641
(dp642
g12
Vpossessive
p643
sbag0
(g1
g2
(lp644
(lp645
S'word: open, index: 4'
p646
aatp647
Rp648
(dp649
g12
Vamod
p650
sbatp651
Rp652
(dp653
g12
S'word: window, index: 2'
p654
sbatp655
Rp656
(dp657
g12
Vccomp
p658
sbatp659
Rp660
(dp661
g12
S'word: day, index: 12'
p662
sbatp663
Rp664
(dp665
g12
S'id: 7'
p666
sbag0
(g1
g2
(lp667
g0
(g1
g2
(lp668
g0
(g1
g2
(lp669
g0
(g1
g2
(lp670
g0
(g1
g2
(lp671
(lp672
S'word: the, index: 9'
p673
aatp674
Rp675
(dp676
g12
Vdet
p677
sbag0
(g1
g2
(lp678
(lp679
S'word: dirty, index: 10'
p680
aatp681
Rp682
(dp683
g12
Vamod
p684
sbag0
(g1
g2
(lp685
g0
(g1
g2
(lp686
g0
(g1
g2
(lp687
(lp688
S'word: the, index: 14'
p689
aatp690
Rp691
(dp692
g12
Vdet
p693
sbag0
(g1
g2
(lp694
g0
(g1
g2
(lp695
g0
(g1
g2
(lp696
(lp697
S'word: that, index: 16'
p698
aatp699
Rp700
(dp701
g12
Vnsubj
p702
sbag0
(g1
g2
(lp703
(lp704
S"word: 's, index: 17"
p705
aatp706
Rp707
(dp708
g12
Vaux
p709
sbag0
(g1
g2
(lp710
g0
(g1
g2
(lp711
g0
(g1
g2
(lp712
(lp713
S'word: the, index: 20'
p714
aatp715
Rp716
(dp717
g12
Vdet
p718
sbatp719
Rp720
(dp721
g12
S'word: floor, index: 21'
p722
sbatp723
Rp724
(dp725
g12
Vprep
p726
sbatp727
Rp728
(dp729
g12
S'word: happening, index: 18'
p730
sbatp731
Rp732
(dp733
g12
Vrcmod
p734
sbatp735
Rp736
(dp737
g12
S'word: flood, index: 15'
p738
sbatp739
Rp740
(dp741
g12
Vconj
p742
sbatp743
Rp744
(dp745
g12
S'word: dishes, index: 11'
p746
sbatp747
Rp748
(dp749
g12
Vprep
p750
sbag0
(g1
g2
(lp751
g736
atp752
Rp753
(dp754
g12
Vprep
p755
sbag0
(g1
g2
(lp756
g0
(g1
g2
(lp757
g0
(g1
g2
(lp758
(lp759
S'word: The, index: 1'
p760
aatp761
Rp762
(dp763
g12
Vdet
p764
sbatp765
Rp766
(dp767
g12
S'word: kitchen, index: 2'
p768
sbatp769
Rp770
(dp771
g12
Vnsubj
p772
sbag0
(g1
g2
(lp773
g0
(g1
g2
(lp774
g0
(g1
g2
(lp775
(lp776
S'word: pretty, index: 4'
p777
aatp778
Rp779
(dp780
g12
Vadvmod
p781
sbatp782
Rp783
(dp784
g12
S'word: clean, index: 5'
p785
sbatp786
Rp787
(dp788
g12
Vacomp
p789
sbatp790
Rp791
(dp792
g12
S'word: looks, index: 3'
p793
sbatp794
Rp795
(dp796
g12
S'id: 8'
p797
sbag0
(g1
g2
(lp798
g0
(g1
g2
(lp799
g0
(g1
g2
(lp800
g0
(g1
g2
(lp801
g0
(g1
g2
(lp802
(lp803
S"word: 's, index: 2"
p804
aatp805
Rp806
(dp807
g12
Vnsubj
p808
sbag0
(g1
g2
(lp809
g0
(g1
g2
(lp810
g0
(g1
g2
(lp811
(lp812
S'word: that, index: 4'
p813
aatp814
Rp815
(dp816
g12
Vmark
p817
sbag0
(g1
g2
(lp818
(lp819
S'word: mom, index: 5'
p820
aatp821
Rp822
(dp823
g12
Vnsubj
p824
sbag0
(g1
g2
(lp825
(lp826
S'word: does, index: 6'
p827
aatp828
Rp829
(dp830
g12
Vaux
p831
sbag0
(g1
g2
(lp832
(lp833
S"word: n't, index: 7"
p834
aatp835
Rp836
(dp837
g12
Vneg
p838
sbag0
(g1
g2
(lp839
g0
(g1
g2
(lp840
g0
(g1
g2
(lp841
(lp842
S'word: her, index: 9'
p843
aatp844
Rp845
(dp846
g12
Vposs
p847
sbatp848
Rp849
(dp850
g12
S'word: shoes, index: 10'
p851
sbatp852
Rp853
(dp854
g12
Vdobj
p855
sbatp856
Rp857
(dp858
g12
S'word: ruin, index: 8'
p859
sbatp860
Rp861
(dp862
g12
Vccomp
p863
sbatp864
Rp865
(dp866
g12
S'word: hope, index: 3'
p867
sbatp868
Rp869
(dp870
g12
Vccomp
p871
sbatp872
Rp873
(dp874
g12
S'word: Let, index: 1'
p875
sbatp876
Rp877
(dp878
g12
S'id: 9'
p879
sbag0
(g1
g2
(lp880
g0
(g1
g2
(lp881
g0
(g1
g2
(lp882
g0
(g1
g2
(lp883
g0
(g1
g2
(lp884
(lp885
S'word: mom, index: 3'
p886
aatp887
Rp888
(dp889
g12
Vprep
p890
sbatp891
Rp892
(dp893
g12
S'word: Looks, index: 1'
p894
sbatp895
Rp896
(dp897
g12
Vcsubj
p898
sbag0
(g1
g2
(lp899
(lp900
S'word: might, index: 4'
p901
aatp902
Rp903
(dp904
g12
Vaux
p905
sbag0
(g1
g2
(lp906
(lp907
S'word: be, index: 5'
p908
aatp909
Rp910
(dp911
g12
Vaux
p912
sbag0
(g1
g2
(lp913
g0
(g1
g2
(lp914
g0
(g1
g2
(lp915
(lp916
S'word: an, index: 7'
p917
aatp918
Rp919
(dp920
g12
Vdet
p921
sbatp922
Rp923
(dp924
g12
S'word: apron, index: 8'
p925
sbatp926
Rp927
(dp928
g12
Vdobj
p929
sbag0
(g1
g2
(lp930
(lp931
S'word: too, index: 9'
p932
aatp933
Rp934
(dp935
g12
Vadvmod
p936
sbatp937
Rp938
(dp939
g12
S'word: wearing, index: 6'
p940
sbatp941
Rp942
(dp943
g12
S'id: 10'
p944
sbag0
(g1
g2
(lp945
g0
(g1
g2
(lp946
g0
(g1
g2
(lp947
g0
(g1
g2
(lp948
g0
(g1
g2
(lp949
(lp950
S'word: Could, index: 1'
p951
aatp952
Rp953
(dp954
g12
Vaux
p955
sbag0
(g1
g2
(lp956
(lp957
S'word: be, index: 2'
p958
aatp959
Rp960
(dp961
g12
Vcop
p962
sbatp963
Rp964
(dp965
g12
S'word: summer, index: 3'
p966
sbatp967
Rp968
(dp969
g12
Vccomp
p970
sbag0
(g1
g2
(lp971
g0
(g1
g2
(lp972
g0
(g1
g2
(lp973
(lp974
S'word: fall, index: 7'
p975
aatp976
Rp977
(dp978
g12
Vappos
p979
sbatp980
Rp981
(dp982
g12
S'word: spring, index: 5'
p983
sbatp984
Rp985
(dp986
g12
Vnsubj
p987
sbag0
(g1
g2
(lp988
g0
(g1
g2
(lp989
g0
(g1
g2
(lp990
(lp991
S'word: the, index: 11'
p992
aatp993
Rp994
(dp995
g12
Vdet
p996
sbatp997
Rp998
(dp999
g12
S'word: trees, index: 12'
p1000
sbatp1001
Rp1002
(dp1003
g12
Vprep
p1004
sbatp1005
Rp1006
(dp1007
g12
S'word: leaves, index: 9'
p1008
sbatp1009
Rp1010
(dp1011
g12
S'id: 11'
p1012
sbag0
(g1
g2
(lp1013
g0
(g1
g2
(lp1014
g0
(g1
g2
(lp1015
g0
(g1
g2
(lp1016
g0
(g1
g2
(lp1017
(lp1018
S'word: bowls, index: 5'
p1019
aatp1020
Rp1021
(dp1022
g12
Vdep
p1023
sbatp1024
Rp1025
(dp1026
g12
S'word: dirty, index: 4'
p1027
sbatp1028
Rp1029
(dp1030
g12
Vappos
p1031
sbag0
(g1
g2
(lp1032
g0
(g1
g2
(lp1033
g0
(g1
g2
(lp1034
(lp1035
S'word: the, index: 8'
p1036
aatp1037
Rp1038
(dp1039
g12
Vdet
p1040
sbatp1041
Rp1042
(dp1043
g12
S'word: counter, index: 9'
p1044
sbatp1045
Rp1046
(dp1047
g12
Vprep
p1048
sbag0
(g1
g2
(lp1049
g0
(g1
g2
(lp1050
g0
(g1
g2
(lp1051
(lp1052
S'word: one, index: 11'
p1053
aatp1054
Rp1055
(dp1056
g12
Vnum
p1057
sbag0
(g1
g2
(lp1058
(lp1059
S'word: dirty, index: 12'
p1060
aatp1061
Rp1062
(dp1063
g12
Vamod
p1064
sbag0
(g1
g2
(lp1065
g0
(g1
g2
(lp1066
g0
(g1
g2
(lp1067
(lp1068
S'word: the, index: 15'
p1069
aatp1070
Rp1071
(dp1072
g12
Vdet
p1073
sbatp1074
Rp1075
(dp1076
g12
S'word: counter, index: 16'
p1077
sbatp1078
Rp1079
(dp1080
g12
Vprep
p1081
sbatp1082
Rp1083
(dp1084
g12
S'word: plate, index: 13'
p1085
sbatp1086
Rp1087
(dp1088
g12
Vappos
p1089
sbag0
(g1
g2
(lp1090
(lp1091
S'word: Two, index: 1'
p1092
aatp1093
Rp1094
(dp1095
g12
Vnum
p1096
sbatp1097
Rp1098
(dp1099
g12
S'word: bowl, index: 2'
p1100
sbatp1101
Rp1102
(dp1103
g12
S'id: 12'
p1104
sbag0
(g1
g2
(lp1105
g0
(g1
g2
(lp1106
g0
(g1
g2
(lp1107
(lp1108
S'word: Not, index: 1'
p1109
aatp1110
Rp1111
(dp1112
g12
Vneg
p1113
sbag0
(g1
g2
(lp1114
(lp1115
S'word: much, index: 2'
p1116
aatp1117
Rp1118
(dp1119
g12
Vadvmod
p1120
sbag0
(g1
g2
(lp1121
(lp1122
S'word: to, index: 3'
p1123
aatp1124
Rp1125
(dp1126
g12
Vaux
p1127
sbag0
(g1
g2
(lp1128
(lp1129
S'word: this, index: 6'
p1130
aatp1131
Rp1132
(dp1133
g12
Vprep
p1134
sbatp1135
Rp1136
(dp1137
g12
S'word: say, index: 4'
p1138
sbatp1139
Rp1140
(dp1141
g12
S'id: 13'
p1142
sbag0
(g1
g2
(lp1143
g0
(g1
g2
(lp1144
g0
(g1
g2
(lp1145
g0
(g1
g2
(lp1146
g0
(g1
g2
(lp1147
(lp1148
S'word: Little, index: 1'
p1149
aatp1150
Rp1151
(dp1152
g12
Vamod
p1153
sbatp1154
Rp1155
(dp1156
g12
S'word: girl, index: 2'
p1157
sbatp1158
Rp1159
(dp1160
g12
Vnsubj
p1161
sbag0
(g1
g2
(lp1162
g0
(g1
g2
(lp1163
g0
(g1
g2
(lp1164
g0
(g1
g2
(lp1165
g0
(g1
g2
(lp1166
(lp1167
S'word: Jane, index: 10'
p1168
aatp1169
Rp1170
(dp1171
g12
Vnn
p1172
sbag0
(g1
g2
(lp1173
g0
(g1
g2
(lp1174
g0
(g1
g2
(lp1175
(lp1176
S'word: and, index: 7'
p1177
aatp1178
Rp1179
(dp1180
g12
Vcc
p1181
sbag0
(g1
g2
(lp1182
(lp1183
S'word: little, index: 8'
p1184
aatp1185
Rp1186
(dp1187
g12
Vdep
p1188
sbatp1189
Rp1190
(dp1191
g12
S'word: Mary, index: 9'
p1192
sbatp1193
Rp1194
(dp1195
g12
Vdep
p1196
sbatp1197
Rp1198
(dp1199
g12
S'word: sandals, index: 11'
p1200
sbatp1201
Rp1202
(dp1203
g12
Vprep
p1204
sbatp1205
Rp1206
(dp1207
g12
S'word: shorts, index: 4'
p1208
sbatp1209
Rp1210
(dp1211
g12
Vdobj
p1212
sbatp1213
Rp1214
(dp1215
g12
S'word: has, index: 3'
p1216
sbatp1217
Rp1218
(dp1219
g12
S'id: 14'
p1220
sbag0
(g1
g2
(lp1221
g0
(g1
g2
(lp1222
g0
(g1
g2
(lp1223
g0
(g1
g2
(lp1224
g0
(g1
g2
(lp1225
g0
(g1
g2
(lp1226
g0
(g1
g2
(lp1227
(lp1228
S'word: The, index: 1'
p1229
aatp1230
Rp1231
(dp1232
g12
Vdet
p1233
sbatp1234
Rp1235
(dp1236
g12
S'word: boy, index: 2'
p1237
sbatp1238
Rp1239
(dp1240
g12
Vnsubj
p1241
sbatp1242
Rp1243
(dp1244
g12
S'word: has, index: 3'
p1245
sbatp1246
Rp1247
(dp1248
g12
Vccomp
p1249
sbag0
(g1
g2
(lp1250
(lp1251
S'word: I, index: 5'
p1252
aatp1253
Rp1254
(dp1255
g12
Vnsubj
p1256
sbag0
(g1
g2
(lp1257
g0
(g1
g2
(lp1258
g0
(g1
g2
(lp1259
(lp1260
S'word: shorts, index: 9'
p1261
aatp1262
Rp1263
(dp1264
g12
Vdobj
p1265
sbag0
(g1
g2
(lp1266
(lp1267
S'word: on, index: 10'
p1268
aatp1269
Rp1270
(dp1271
g12
Vprep
p1272
sbatp1273
Rp1274
(dp1275
g12
S'word: know, index: 7'
p1276
sbatp1277
Rp1278
(dp1279
g12
Vxcomp
p1280
sbatp1281
Rp1282
(dp1283
g12
S'word: dont, index: 6'
p1284
sbatp1285
Rp1286
(dp1287
g12
S'id: 15'
p1288
sbag0
(g1
g2
(lp1289
g0
(g1
g2
(lp1290
g0
(g1
g2
(lp1291
(lp1292
S'word: Little, index: 1'
p1293
aatp1294
Rp1295
(dp1296
g12
Vamod
p1297
sbag0
(g1
g2
(lp1298
g0
(g1
g2
(lp1299
g0
(g1
g2
(lp1300
(lp1301
S'word: a, index: 4'
p1302
aatp1303
Rp1304
(dp1305
g12
Vdet
p1306
sbag0
(g1
g2
(lp1307
g0
(g1
g2
(lp1308
g0
(g1
g2
(lp1309
(lp1310
S'word: bare, index: 7'
p1311
aatp1312
Rp1313
(dp1314
g12
Vamod
p1315
sbag0
(g1
g2
(lp1316
(lp1317
S'word: leg, index: 8'
p1318
aatp1319
Rp1320
(dp1321
g12
Vnn
p1322
sbatp1323
Rp1324
(dp1325
g12
S'word: socks, index: 9'
p1326
sbatp1327
Rp1328
(dp1329
g12
Vappos
p1330
sbatp1331
Rp1332
(dp1333
g12
S'word: collar, index: 5'
p1334
sbatp1335
Rp1336
(dp1337
g12
Vprep
p1338
sbatp1339
Rp1340
(dp1341
g12
S'word: t-shirt, index: 2'
p1342
sbatp1343
Rp1344
(dp1345
g12
S'id: 16'
p1346
sbag0
(g1
g2
(lp1347
g0
(g1
g2
(lp1348
g0
(g1
g2
(lp1349
g0
(g1
g2
(lp1350
g0
(g1
g2
(lp1351
g0
(g1
g2
(lp1352
g0
(g1
g2
(lp1353
(lp1354
S'word: medium, index: 5'
p1355
aatp1356
Rp1357
(dp1358
g12
Vnn
p1359
sbag0
(g1
g2
(lp1360
g0
(g1
g2
(lp1361
g0
(g1
g2
(lp1362
g0
(g1
g2
(lp1363
g0
(g1
g2
(lp1364
(lp1365
S"word: 's, index: 9"
p1366
aatp1367
Rp1368
(dp1369
g12
Vnsubj
p1370
sbag0
(g1
g2
(lp1371
g0
(g1
g2
(lp1372
g0
(g1
g2
(lp1373
(lp1374
S'word: short, index: 11'
p1375
aatp1376
Rp1377
(dp1378
g12
Vamod
p1379
sbatp1380
Rp1381
(dp1382
g12
S'word: hair, index: 12'
p1383
sbatp1384
Rp1385
(dp1386
g12
Vdobj
p1387
sbatp1388
Rp1389
(dp1390
g12
S'word: got, index: 10'
p1391
sbatp1392
Rp1393
(dp1394
g12
Vrcmod
p1395
sbatp1396
Rp1397
(dp1398
g12
S'word: mom, index: 8'
p1399
sbatp1400
Rp1401
(dp1402
g12
Vappos
p1403
sbatp1404
Rp1405
(dp1406
g12
S'word: hair, index: 6'
p1407
sbatp1408
Rp1409
(dp1410
g12
Vprep
p1411
sbatp1412
Rp1413
(dp1414
g12
S'word: kind, index: 3'
p1415
sbatp1416
Rp1417
(dp1418
g12
Vdobj
p1419
sbag0
(g1
g2
(lp1420
(lp1421
S'word: Girl, index: 1'
p1422
aatp1423
Rp1424
(dp1425
g12
Vnsubj
p1426
sbatp1427
Rp1428
(dp1429
g12
S'word: has, index: 2'
p1430
sbatp1431
Rp1432
(dp1433
g12
S'id: 17'
p1434
sbag0
(g1
g2
(lp1435
g0
(g1
g2
(lp1436
g0
(g1
g2
(lp1437
g0
(g1
g2
(lp1438
g0
(g1
g2
(lp1439
(lp1440
S'word: two, index: 4'
p1441
aatp1442
Rp1443
(dp1444
g12
Vnum
p1445
sbag0
(g1
g2
(lp1446
(lp1447
S'word: kitchen, index: 5'
p1448
aatp1449
Rp1450
(dp1451
g12
Vnn
p1452
sbatp1453
Rp1454
(dp1455
g12
S'word: cabinets, index: 6'
p1456
sbatp1457
Rp1458
(dp1459
g12
Vdobj
p1460
sbag0
(g1
g2
(lp1461
g0
(g1
g2
(lp1462
g0
(g1
g2
(lp1463
(lp1464
S'word: the, index: 8'
p1465
aatp1466
Rp1467
(dp1468
g12
Vdet
p1469
sbag0
(g1
g2
(lp1470
(lp1471
S'word: left, index: 9'
p1472
aatp1473
Rp1474
(dp1475
g12
Vamod
p1476
sbatp1477
Rp1478
(dp1479
g12
S'word: side, index: 10'
p1480
sbatp1481
Rp1482
(dp1483
g12
Vprep
p1484
sbag0
(g1
g2
(lp1485
(lp1486
S'word: We, index: 1'
p1487
aatp1488
Rp1489
(dp1490
g12
Vnsubj
p1491
sbag0
(g1
g2
(lp1492
(lp1493
S"word: 've, index: 2"
p1494
aatp1495
Rp1496
(dp1497
g12
Vaux
p1498
sbatp1499
Rp1500
(dp1501
g12
S'word: got, index: 3'
p1502
sbatp1503
Rp1504
(dp1505
g12
S'id: 18'
p1506
sbag0
(g1
g2
(lp1507
g0
(g1
g2
(lp1508
g0
(g1
g2
(lp1509
g0
(g1
g2
(lp1510
g0
(g1
g2
(lp1511
(lp1512
S'word: the, index: 10'
p1513
aatp1514
Rp1515
(dp1516
g12
Vdet
p1517
sbag0
(g1
g2
(lp1518
(lp1519
S'word: left, index: 11'
p1520
aatp1521
Rp1522
(dp1523
g12
Vamod
p1524
sbag0
(g1
g2
(lp1525
g0
(g1
g2
(lp1526
g0
(g1
g2
(lp1527
(lp1528
S'word: the, index: 14'
p1529
aatp1530
Rp1531
(dp1532
g12
Vdet
p1533
sbatp1534
Rp1535
(dp1536
g12
S'word: sink, index: 15'
p1537
sbatp1538
Rp1539
(dp1540
g12
Vprep
p1541
sbag0
(g1
g2
(lp1542
g0
(g1
g2
(lp1543
g0
(g1
g2
(lp1544
(lp1545
S'word: no, index: 32'
p1546
aatp1547
Rp1548
(dp1549
g12
Vneg
p1550
sbag0
(g1
g2
(lp1551
g0
(g1
g2
(lp1552
g0
(g1
g2
(lp1553
(lp1554
S'word: the, index: 35'
p1555
aatp1556
Rp1557
(dp1558
g12
Vdet
p1559
sbatp1560
Rp1561
(dp1562
g12
S'word: window, index: 36'
p1563
sbatp1564
Rp1565
(dp1566
g12
Vprep
p1567
sbatp1568
Rp1569
(dp1570
g12
S'word: cabinets, index: 33'
p1571
sbatp1572
Rp1573
(dp1574
g12
Vappos
p1575
sbag0
(g1
g2
(lp1576
g0
(g1
g2
(lp1577
g0
(g1
g2
(lp1578
(lp1579
S'word: two, index: 17'
p1580
aatp1581
Rp1582
(dp1583
g12
Vnum
p1584
sbag0
(g1
g2
(lp1585
g0
(g1
g2
(lp1586
g0
(g1
g2
(lp1587
(lp1588
S'word: the, index: 20'
p1589
aatp1590
Rp1591
(dp1592
g12
Vdet
p1593
sbatp1594
Rp1595
(dp1596
g12
S'word: sink, index: 21'
p1597
sbatp1598
Rp1599
(dp1600
g12
Vprep
p1601
sbatp1602
Rp1603
(dp1604
g12
S'word: doors, index: 18'
p1605
sbatp1606
Rp1607
(dp1608
g12
Vappos
p1609
sbag0
(g1
g2
(lp1610
g0
(g1
g2
(lp1611
g0
(g1
g2
(lp1612
g0
(g1
g2
(lp1613
g0
(g1
g2
(lp1614
(lp1615
S'word: the, index: 26'
p1616
aatp1617
Rp1618
(dp1619
g12
Vdet
p1620
sbag0
(g1
g2
(lp1621
g0
(g1
g2
(lp1622
g0
(g1
g2
(lp1623
(lp1624
S'word: the, index: 29'
p1625
aatp1626
Rp1627
(dp1628
g12
Vdet
p1629
sbatp1630
Rp1631
(dp1632
g12
S'word: sink, index: 30'
p1633
sbatp1634
Rp1635
(dp1636
g12
Vprep
p1637
sbatp1638
Rp1639
(dp1640
g12
S'word: right, index: 27'
p1641
sbatp1642
Rp1643
(dp1644
g12
Vprep
p1645
sbag0
(g1
g2
(lp1646
(lp1647
S'word: two, index: 23'
p1648
aatp1649
Rp1650
(dp1651
g12
Vnum
p1652
sbatp1653
Rp1654
(dp1655
g12
S'word: doors, index: 24'
p1656
sbatp1657
Rp1658
(dp1659
g12
Vappos
p1660
sbatp1661
Rp1662
(dp1663
g12
S'word: side, index: 12'
p1664
sbatp1665
Rp1666
(dp1667
g12
Vprep
p1668
sbag0
(g1
g2
(lp1669
(lp1670
S'word: Than, index: 1'
p1671
aatp1672
Rp1673
(dp1674
g12
Vmark
p1675
sbag0
(g1
g2
(lp1676
(lp1677
S'word: we, index: 2'
p1678
aatp1679
Rp1680
(dp1681
g12
Vnsubj
p1682
sbag0
(g1
g2
(lp1683
(lp1684
S"word: 've, index: 3"
p1685
aatp1686
Rp1687
(dp1688
g12
Vaux
p1689
sbag0
(g1
g2
(lp1690
g0
(g1
g2
(lp1691
g0
(g1
g2
(lp1692
g0
(g1
g2
(lp1693
g0
(g1
g2
(lp1694
(lp1695
S'word: two, index: 7'
p1696
aatp1697
Rp1698
(dp1699
g12
Vnum
p1700
sbatp1701
Rp1702
(dp1703
g12
S'word: cabinets, index: 8'
p1704
sbatp1705
Rp1706
(dp1707
g12
Vprep
p1708
sbatp1709
Rp1710
(dp1711
g12
S'word: looks, index: 5'
p1712
sbatp1713
Rp1714
(dp1715
g12
Vdobj
p1716
sbatp1717
Rp1718
(dp1719
g12
S'word: got, index: 4'
p1720
sbatp1721
Rp1722
(dp1723
g12
S'id: 19'
p1724
sbag0
(g1
g2
(lp1725
g0
(g1
g2
(lp1726
g0
(g1
g2
(lp1727
g0
(g1
g2
(lp1728
g0
(g1
g2
(lp1729
(lp1730
S"word: 've, index: 12"
p1731
aatp1732
Rp1733
(dp1734
g12
Vaux
p1735
sbag0
(g1
g2
(lp1736
g0
(g1
g2
(lp1737
g0
(g1
g2
(lp1738
(lp1739
S'word: three, index: 14'
p1740
aatp1741
Rp1742
(dp1743
g12
Vnum
p1744
sbag0
(g1
g2
(lp1745
g0
(g1
g2
(lp1746
g0
(g1
g2
(lp1747
(lp1748
S'word: the, index: 17'
p1749
aatp1750
Rp1751
(dp1752
g12
Vdet
p1753
sbatp1754
Rp1755
(dp1756
g12
S'word: counter, index: 18'
p1757
sbatp1758
Rp1759
(dp1760
g12
Vprep
p1761
sbatp1762
Rp1763
(dp1764
g12
S'word: cabinets, index: 15'
p1765
sbatp1766
Rp1767
(dp1768
g12
Vdobj
p1769
sbag0
(g1
g2
(lp1770
g0
(g1
g2
(lp1771
g0
(g1
g2
(lp1772
g0
(g1
g2
(lp1773
g0
(g1
g2
(lp1774
(lp1775
S'word: where, index: 22'
p1776
aatp1777
Rp1778
(dp1779
g12
Vdep
p1780
sbatp1781
Rp1782
(dp1783
g12
S'word: left, index: 21'
p1784
sbatp1785
Rp1786
(dp1787
g12
Vvmod
p1788
sbatp1789
Rp1790
(dp1791
g12
S'word: the, index: 20'
p1792
sbatp1793
Rp1794
(dp1795
g12
Vprep
p1796
sbag0
(g1
g2
(lp1797
(lp1798
S'word: I, index: 11'
p1799
aatp1800
Rp1801
(dp1802
g12
Vnsubj
p1803
sbatp1804
Rp1805
(dp1806
g12
S'word: got, index: 13'
p1807
sbatp1808
Rp1809
(dp1810
g12
Vconj
p1811
sbag0
(g1
g2
(lp1812
(lp1813
S'word: I, index: 1'
p1814
aatp1815
Rp1816
(dp1817
g12
Vnsubj
p1818
sbag0
(g1
g2
(lp1819
(lp1820
S'word: do, index: 2'
p1821
aatp1822
Rp1823
(dp1824
g12
Vaux
p1825
sbag0
(g1
g2
(lp1826
(lp1827
S"word: n't, index: 3"
p1828
aatp1829
Rp1830
(dp1831
g12
Vneg
p1832
sbag0
(g1
g2
(lp1833
g0
(g1
g2
(lp1834
g0
(g1
g2
(lp1835
(lp1836
S'word: if, index: 5'
p1837
aatp1838
Rp1839
(dp1840
g12
Vmark
p1841
sbag0
(g1
g2
(lp1842
(lp1843
S'word: I, index: 6'
p1844
aatp1845
Rp1846
(dp1847
g12
Vnsubj
p1848
sbag0
(g1
g2
(lp1849
(lp1850
S'word: that, index: 8'
p1851
aatp1852
Rp1853
(dp1854
g12
Vadvmod
p1855
sbatp1856
Rp1857
(dp1858
g12
S'word: said, index: 7'
p1859
sbatp1860
Rp1861
(dp1862
g12
Vadvcl
p1863
sbag0
(g1
g2
(lp1864
g0
(g1
g2
(lp1865
g0
(g1
g2
(lp1866
g0
(g1
g2
(lp1867
g0
(g1
g2
(lp1868
(lp1869
S'word: the, index: 27'
p1870
aatp1871
Rp1872
(dp1873
g12
Vdet
p1874
sbatp1875
Rp1876
(dp1877
g12
S'word: cookies, index: 28'
p1878
sbatp1879
Rp1880
(dp1881
g12
Vdobj
p1882
sbag0
(g1
g2
(lp1883
g0
(g1
g2
(lp1884
g0
(g1
g2
(lp1885
(lp1886
S'word: the, index: 23'
p1887
aatp1888
Rp1889
(dp1890
g12
Vdet
p1891
sbag0
(g1
g2
(lp1892
(lp1893
S"word: 's, index: 25"
p1894
aatp1895
Rp1896
(dp1897
g12
Vpossessive
p1898
sbatp1899
Rp1900
(dp1901
g12
S'word: boy, index: 24'
p1902
sbatp1903
Rp1904
(dp1905
g12
Vnsubj
p1906
sbatp1907
Rp1908
(dp1909
g12
S'word: stealing, index: 26'
p1910
sbatp1911
Rp1912
(dp1913
g12
Vparataxis
p1914
sbatp1915
Rp1916
(dp1917
g12
S'word: know, index: 4'
p1918
sbatp1919
Rp1920
(dp1921
g12
S'id: 20'
p1922
sbatp1923
Rp1924
(dp1925
g12
S'sentences'
p1926
sb.