ccopy_reg
_reconstructor
p0
(cnltk.tree
Tree
p1
c__builtin__
list
p2
(lp3
g0
(g1
g2
(lp4
g0
(g1
g2
(lp5
g0
(g1
g2
(lp6
VAll
p7
atp8
Rp9
(dp10
S'_label'
p11
VDT
p12
sbag0
(g1
g2
(lp13
Vright
p14
atp15
Rp16
(dp17
g11
VNN
p18
sbag0
(g1
g2
(lp19
V.
p20
atp21
Rp22
(dp23
g11
V.
p24
sbatp25
Rp26
(dp27
g11
VNP
p28
sbatp29
Rp30
(dp31
g11
S'id: 0'
p32
sbag0
(g1
g2
(lp33
g0
(g1
g2
(lp34
g0
(g1
g2
(lp35
g0
(g1
g2
(lp36
g0
(g1
g2
(lp37
VWe
p38
atp39
Rp40
(dp41
g11
VPRP
p42
sbatp43
Rp44
(dp45
g11
VNP
p46
sbag0
(g1
g2
(lp47
g0
(g1
g2
(lp48
Vare
p49
atp50
Rp51
(dp52
g11
VVBP
p53
sbag0
(g1
g2
(lp54
g0
(g1
g2
(lp55
Vat
p56
atp57
Rp58
(dp59
g11
VIN
p60
sbag0
(g1
g2
(lp61
g0
(g1
g2
(lp62
Vthe
p63
atp64
Rp65
(dp66
g11
VDT
p67
sbag0
(g1
g2
(lp68
Vcircus
p69
atp70
Rp71
(dp72
g11
VNN
p73
sbatp74
Rp75
(dp76
g11
VNP
p77
sbatp78
Rp79
(dp80
g11
VPP
p81
sbatp82
Rp83
(dp84
g11
VVP
p85
sbatp86
Rp87
(dp88
g11
VS
p89
sbag0
(g1
g2
(lp90
V,
p91
atp92
Rp93
(dp94
g11
V,
p95
sbag0
(g1
g2
(lp96
Vand
p97
atp98
Rp99
(dp100
g11
VCC
p101
sbag0
(g1
g2
(lp102
g0
(g1
g2
(lp103
g0
(g1
g2
(lp104
Vthere
p105
atp106
Rp107
(dp108
g11
VEX
p109
sbatp110
Rp111
(dp112
g11
VNP
p113
sbag0
(g1
g2
(lp114
g0
(g1
g2
(lp115
Vis
p116
atp117
Rp118
(dp119
g11
VVBZ
p120
sbag0
(g1
g2
(lp121
g0
(g1
g2
(lp122
g0
(g1
g2
(lp123
Va
p124
atp125
Rp126
(dp127
g11
VDT
p128
sbag0
(g1
g2
(lp129
Vlot
p130
atp131
Rp132
(dp133
g11
VNN
p134
sbatp135
Rp136
(dp137
g11
VNP
p138
sbag0
(g1
g2
(lp139
g0
(g1
g2
(lp140
Vgoing
p141
atp142
Rp143
(dp144
g11
VVBG
p145
sbag0
(g1
g2
(lp146
g0
(g1
g2
(lp147
Von
p148
atp149
Rp150
(dp151
g11
VIN
p152
sbatp153
Rp154
(dp155
g11
VPP
p156
sbatp157
Rp158
(dp159
g11
VVP
p160
sbatp161
Rp162
(dp163
g11
VNP
p164
sbatp165
Rp166
(dp167
g11
VVP
p168
sbatp169
Rp170
(dp171
g11
VS
p172
sbag0
(g1
g2
(lp173
V.
p174
atp175
Rp176
(dp177
g11
V.
p178
sbatp179
Rp180
(dp181
g11
VS
p182
sbatp183
Rp184
(dp185
g11
S'id: 1'
p186
sbag0
(g1
g2
(lp187
g0
(g1
g2
(lp188
g0
(g1
g2
(lp189
g0
(g1
g2
(lp190
VThere
p191
atp192
Rp193
(dp194
g11
VEX
p195
sbatp196
Rp197
(dp198
g11
VNP
p199
sbag0
(g1
g2
(lp200
g0
(g1
g2
(lp201
Vis
p202
atp203
Rp204
(dp205
g11
VVBZ
p206
sbag0
(g1
g2
(lp207
g0
(g1
g2
(lp208
g0
(g1
g2
(lp209
g0
(g1
g2
(lp210
Va
p211
atp212
Rp213
(dp214
g11
VDT
p215
sbag0
(g1
g2
(lp216
Vman
p217
atp218
Rp219
(dp220
g11
VNN
p221
sbatp222
Rp223
(dp224
g11
VNP
p225
sbag0
(g1
g2
(lp226
g0
(g1
g2
(lp227
Vin
p228
atp229
Rp230
(dp231
g11
VIN
p232
sbag0
(g1
g2
(lp233
g0
(g1
g2
(lp234
Va
p235
atp236
Rp237
(dp238
g11
VDT
p239
sbag0
(g1
g2
(lp240
Vtop
p241
atp242
Rp243
(dp244
g11
VJJ
p245
sbag0
(g1
g2
(lp246
Vhat
p247
atp248
Rp249
(dp250
g11
VNN
p251
sbatp252
Rp253
(dp254
g11
VNP
p255
sbatp256
Rp257
(dp258
g11
VPP
p259
sbatp260
Rp261
(dp262
g11
VNP
p263
sbag0
(g1
g2
(lp264
Vand
p265
atp266
Rp267
(dp268
g11
VCC
p269
sbag0
(g1
g2
(lp270
g0
(g1
g2
(lp271
g0
(g1
g2
(lp272
Vtails
p273
atp274
Rp275
(dp276
g11
VNNS
p277
sbatp278
Rp279
(dp280
g11
VNP
p281
sbag0
(g1
g2
(lp282
g0
(g1
g2
(lp283
Vin
p284
atp285
Rp286
(dp287
g11
VIN
p288
sbag0
(g1
g2
(lp289
g0
(g1
g2
(lp290
Vwith
p291
atp292
Rp293
(dp294
g11
VIN
p295
sbag0
(g1
g2
(lp296
g0
(g1
g2
(lp297
Vthe
p298
atp299
Rp300
(dp301
g11
VDT
p302
sbag0
(g1
g2
(lp303
Vlion
p304
atp305
Rp306
(dp307
g11
VNN
p308
sbatp309
Rp310
(dp311
g11
VNP
p312
sbatp313
Rp314
(dp315
g11
VPP
p316
sbatp317
Rp318
(dp319
g11
VPP
p320
sbatp321
Rp322
(dp323
g11
VNP
p324
sbatp325
Rp326
(dp327
g11
VNP
p328
sbatp329
Rp330
(dp331
g11
VVP
p332
sbag0
(g1
g2
(lp333
V.
p334
atp335
Rp336
(dp337
g11
V.
p338
sbatp339
Rp340
(dp341
g11
VS
p342
sbatp343
Rp344
(dp345
g11
S'id: 2'
p346
sbag0
(g1
g2
(lp347
g0
(g1
g2
(lp348
g0
(g1
g2
(lp349
g0
(g1
g2
(lp350
VTrying
p351
atp352
Rp353
(dp354
g11
VVBG
p355
sbag0
(g1
g2
(lp356
g0
(g1
g2
(lp357
g0
(g1
g2
(lp358
Vto
p359
atp360
Rp361
(dp362
g11
VTO
p363
sbag0
(g1
g2
(lp364
g0
(g1
g2
(lp365
Vget
p366
atp367
Rp368
(dp369
g11
VVB
p370
sbag0
(g1
g2
(lp371
g0
(g1
g2
(lp372
g0
(g1
g2
(lp373
Vhim
p374
atp375
Rp376
(dp377
g11
VPRP
p378
sbatp379
Rp380
(dp381
g11
VNP
p382
sbag0
(g1
g2
(lp383
g0
(g1
g2
(lp384
Vto
p385
atp386
Rp387
(dp388
g11
VTO
p389
sbag0
(g1
g2
(lp390
g0
(g1
g2
(lp391
Vdo
p392
atp393
Rp394
(dp395
g11
VVB
p396
sbag0
(g1
g2
(lp397
g0
(g1
g2
(lp398
Vtricks
p399
atp400
Rp401
(dp402
g11
VNNS
p403
sbatp404
Rp405
(dp406
g11
VNP
p407
sbatp408
Rp409
(dp410
g11
VVP
p411
sbatp412
Rp413
(dp414
g11
VVP
p415
sbatp416
Rp417
(dp418
g11
VS
p419
sbatp420
Rp421
(dp422
g11
VVP
p423
sbatp424
Rp425
(dp426
g11
VVP
p427
sbatp428
Rp429
(dp430
g11
VS
p431
sbatp432
Rp433
(dp434
g11
VVP
p435
sbag0
(g1
g2
(lp436
V.
p437
atp438
Rp439
(dp440
g11
V.
p441
sbatp442
Rp443
(dp444
g11
VS
p445
sbatp446
Rp447
(dp448
g11
S'id: 3'
p449
sbag0
(g1
g2
(lp450
g0
(g1
g2
(lp451
g0
(g1
g2
(lp452
g0
(g1
g2
(lp453
VWhile
p454
atp455
Rp456
(dp457
g11
VIN
p458
sbag0
(g1
g2
(lp459
g0
(g1
g2
(lp460
g0
(g1
g2
(lp461
g0
(g1
g2
(lp462
Vthe
p463
atp464
Rp465
(dp466
g11
VDT
p467
sbag0
(g1
g2
(lp468
Vtrapeze
p469
atp470
Rp471
(dp472
g11
VNN
p473
sbag0
(g1
g2
(lp474
Vartist
p475
atp476
Rp477
(dp478
g11
VNN
p479
sbatp480
Rp481
(dp482
g11
VNP
p483
sbag0
(g1
g2
(lp484
V,
p485
atp486
Rp487
(dp488
g11
V,
p489
sbag0
(g1
g2
(lp490
Vor
p491
atp492
Rp493
(dp494
g11
VCC
p495
sbag0
(g1
g2
(lp496
g0
(g1
g2
(lp497
Vhigh
p498
atp499
Rp500
(dp501
g11
VJJ
p502
sbag0
(g1
g2
(lp503
Vwire
p504
atp505
Rp506
(dp507
g11
VNN
p508
sbag0
(g1
g2
(lp509
Vdude
p510
atp511
Rp512
(dp513
g11
VNN
p514
sbatp515
Rp516
(dp517
g11
VNP
p518
sbag0
(g1
g2
(lp519
V,
p520
atp521
Rp522
(dp523
g11
V,
p524
sbatp525
Rp526
(dp527
g11
VNP
p528
sbag0
(g1
g2
(lp529
g0
(g1
g2
(lp530
Vis
p531
atp532
Rp533
(dp534
g11
VVBZ
p535
sbag0
(g1
g2
(lp536
g0
(g1
g2
(lp537
Vwalking
p538
atp539
Rp540
(dp541
g11
VVBG
p542
sbag0
(g1
g2
(lp543
g0
(g1
g2
(lp544
Vacross
p545
atp546
Rp547
(dp548
g11
VIN
p549
sbag0
(g1
g2
(lp550
g0
(g1
g2
(lp551
Vthe
p552
atp553
Rp554
(dp555
g11
VDT
p556
sbag0
(g1
g2
(lp557
Vhigh
p558
atp559
Rp560
(dp561
g11
VJJ
p562
sbag0
(g1
g2
(lp563
Vwire
p564
atp565
Rp566
(dp567
g11
VNN
p568
sbatp569
Rp570
(dp571
g11
VNP
p572
sbatp573
Rp574
(dp575
g11
VPP
p576
sbag0
(g1
g2
(lp577
g0
(g1
g2
(lp578
Vwithout
p579
atp580
Rp581
(dp582
g11
VIN
p583
sbag0
(g1
g2
(lp584
g0
(g1
g2
(lp585
Va
p586
atp587
Rp588
(dp589
g11
VDT
p590
sbag0
(g1
g2
(lp591
Vnet
p592
atp593
Rp594
(dp595
g11
VJJ
p596
sbatp597
Rp598
(dp599
g11
VNP
p600
sbatp601
Rp602
(dp603
g11
VPP
p604
sbatp605
Rp606
(dp607
g11
VVP
p608
sbatp609
Rp610
(dp611
g11
VVP
p612
sbatp613
Rp614
(dp615
g11
VS
p616
sbatp617
Rp618
(dp619
g11
VSBAR
p620
sbag0
(g1
g2
(lp621
g0
(g1
g2
(lp622
Vit
p623
atp624
Rp625
(dp626
g11
VPRP
p627
sbatp628
Rp629
(dp630
g11
VNP
p631
sbag0
(g1
g2
(lp632
g0
(g1
g2
(lp633
Vappears
p634
atp635
Rp636
(dp637
g11
VVBZ
p638
sbatp639
Rp640
(dp641
g11
VVP
p642
sbag0
(g1
g2
(lp643
V.
p644
atp645
Rp646
(dp647
g11
V.
p648
sbatp649
Rp650
(dp651
g11
VS
p652
sbatp653
Rp654
(dp655
g11
S'id: 4'
p656
sbag0
(g1
g2
(lp657
g0
(g1
g2
(lp658
g0
(g1
g2
(lp659
g0
(g1
g2
(lp660
VThere
p661
atp662
Rp663
(dp664
g11
VEX
p665
sbatp666
Rp667
(dp668
g11
VNP
p669
sbag0
(g1
g2
(lp670
g0
(g1
g2
(lp671
Vis
p672
atp673
Rp674
(dp675
g11
VVBZ
p676
sbag0
(g1
g2
(lp677
g0
(g1
g2
(lp678
g0
(g1
g2
(lp679
Va
p680
atp681
Rp682
(dp683
g11
VDT
p684
sbag0
(g1
g2
(lp685
Vlady
p686
atp687
Rp688
(dp689
g11
VNN
p690
sbatp691
Rp692
(dp693
g11
VNP
p694
sbag0
(g1
g2
(lp695
g0
(g1
g2
(lp696
Vin
p697
atp698
Rp699
(dp700
g11
VIN
p701
sbag0
(g1
g2
(lp702
g0
(g1
g2
(lp703
g0
(g1
g2
(lp704
Va
p705
atp706
Rp707
(dp708
g11
VDT
p709
sbag0
(g1
g2
(lp710
Vtutu
p711
atp712
Rp713
(dp714
g11
VNN
p715
sbatp716
Rp717
(dp718
g11
VNP
p719
sbag0
(g1
g2
(lp720
g0
(g1
g2
(lp721
Vdoing
p722
atp723
Rp724
(dp725
g11
VVBG
p726
sbag0
(g1
g2
(lp727
g0
(g1
g2
(lp728
g0
(g1
g2
(lp729
Vtricks
p730
atp731
Rp732
(dp733
g11
VNNS
p734
sbatp735
Rp736
(dp737
g11
VNP
p738
sbag0
(g1
g2
(lp739
g0
(g1
g2
(lp740
Von
p741
atp742
Rp743
(dp744
g11
VIN
p745
sbag0
(g1
g2
(lp746
g0
(g1
g2
(lp747
g0
(g1
g2
(lp748
Va
p749
atp750
Rp751
(dp752
g11
VDT
p753
sbag0
(g1
g2
(lp754
Vhorse
p755
atp756
Rp757
(dp758
g11
VNN
p759
sbatp760
Rp761
(dp762
g11
VNP
p763
sbag0
(g1
g2
(lp764
g0
(g1
g2
(lp765
Vin
p766
atp767
Rp768
(dp769
g11
VIN
p770
sbag0
(g1
g2
(lp771
g0
(g1
g2
(lp772
Vthe
p773
atp774
Rp775
(dp776
g11
VDT
p777
sbatp778
Rp779
(dp780
g11
VNP
p781
sbatp782
Rp783
(dp784
g11
VPP
p785
sbatp786
Rp787
(dp788
g11
VNP
p789
sbatp790
Rp791
(dp792
g11
VPP
p793
sbatp794
Rp795
(dp796
g11
VNP
p797
sbag0
(g1
g2
(lp798
V,
p799
atp800
Rp801
(dp802
g11
V,
p803
sbag0
(g1
g2
(lp804
g0
(g1
g2
(lp805
Vin
p806
atp807
Rp808
(dp809
g11
VIN
p810
sbag0
(g1
g2
(lp811
g0
(g1
g2
(lp812
g0
(g1
g2
(lp813
Vthe
p814
atp815
Rp816
(dp817
g11
VDT
p818
sbag0
(g1
g2
(lp819
Vlittle
p820
atp821
Rp822
(dp823
g11
VJJ
p824
sbag0
(g1
g2
(lp825
Vcircular
p826
atp827
Rp828
(dp829
g11
VJJ
p830
sbag0
(g1
g2
(lp831
Varena
p832
atp833
Rp834
(dp835
g11
VNN
p836
sbatp837
Rp838
(dp839
g11
VNP
p840
sbag0
(g1
g2
(lp841
V,
p842
atp843
Rp844
(dp845
g11
V,
p846
sbag0
(g1
g2
(lp847
g0
(g1
g2
(lp848
Vtype
p849
atp850
Rp851
(dp852
g11
VNN
p853
sbag0
(g1
g2
(lp854
Vplay
p855
atp856
Rp857
(dp858
g11
VNN
p859
sbag0
(g1
g2
(lp860
Vthing
p861
atp862
Rp863
(dp864
g11
VNN
p865
sbatp866
Rp867
(dp868
g11
VNP
p869
sbatp870
Rp871
(dp872
g11
VNP
p873
sbatp874
Rp875
(dp876
g11
VPP
p877
sbatp878
Rp879
(dp880
g11
VVP
p881
sbatp882
Rp883
(dp884
g11
VNP
p885
sbatp886
Rp887
(dp888
g11
VPP
p889
sbatp890
Rp891
(dp892
g11
VNP
p893
sbatp894
Rp895
(dp896
g11
VVP
p897
sbag0
(g1
g2
(lp898
V.
p899
atp900
Rp901
(dp902
g11
V.
p903
sbatp904
Rp905
(dp906
g11
VS
p907
sbatp908
Rp909
(dp910
g11
S'id: 5'
p911
sbag0
(g1
g2
(lp912
g0
(g1
g2
(lp913
g0
(g1
g2
(lp914
g0
(g1
g2
(lp915
VIn
p916
atp917
Rp918
(dp919
g11
VIN
p920
sbag0
(g1
g2
(lp921
g0
(g1
g2
(lp922
g0
(g1
g2
(lp923
Vfront
p924
atp925
Rp926
(dp927
g11
VNN
p928
sbatp929
Rp930
(dp931
g11
VNP
p932
sbag0
(g1
g2
(lp933
g0
(g1
g2
(lp934
Vof
p935
atp936
Rp937
(dp938
g11
VIN
p939
sbag0
(g1
g2
(lp940
g0
(g1
g2
(lp941
Vall
p942
atp943
Rp944
(dp945
g11
VPDT
p946
sbag0
(g1
g2
(lp947
Vthis
p948
atp949
Rp950
(dp951
g11
VDT
p952
sbatp953
Rp954
(dp955
g11
VNP
p956
sbatp957
Rp958
(dp959
g11
VPP
p960
sbatp961
Rp962
(dp963
g11
VNP
p964
sbatp965
Rp966
(dp967
g11
VPP
p968
sbag0
(g1
g2
(lp969
g0
(g1
g2
(lp970
Vis
p971
atp972
Rp973
(dp974
g11
VVBZ
p975
sbatp976
Rp977
(dp978
g11
VVP
p979
sbag0
(g1
g2
(lp980
g0
(g1
g2
(lp981
Va
p982
atp983
Rp984
(dp985
g11
VDT
p986
sbag0
(g1
g2
(lp987
Vclown
p988
atp989
Rp990
(dp991
g11
VNN
p992
sbag0
(g1
g2
(lp993
g0
(g1
g2
(lp994
g0
(g1
g2
(lp995
Vwho
p996
atp997
Rp998
(dp999
g11
VWP
p1000
sbatp1001
Rp1002
(dp1003
g11
VWHNP
p1004
sbag0
(g1
g2
(lp1005
g0
(g1
g2
(lp1006
g0
(g1
g2
(lp1007
g0
(g1
g2
(lp1008
Vhas
p1009
atp1010
Rp1011
(dp1012
g11
VVBZ
p1013
sbag0
(g1
g2
(lp1014
g0
(g1
g2
(lp1015
g0
(g1
g2
(lp1016
Va
p1017
atp1018
Rp1019
(dp1020
g11
VDT
p1021
sbag0
(g1
g2
(lp1022
Vflower
p1023
atp1024
Rp1025
(dp1026
g11
VNN
p1027
sbatp1028
Rp1029
(dp1030
g11
VNP
p1031
sbag0
(g1
g2
(lp1032
g0
(g1
g2
(lp1033
Vin
p1034
atp1035
Rp1036
(dp1037
g11
VIN
p1038
sbag0
(g1
g2
(lp1039
g0
(g1
g2
(lp1040
Vhis
p1041
atp1042
Rp1043
(dp1044
g11
VPRP$
p1045
sbag0
(g1
g2
(lp1046
Vhair
p1047
atp1048
Rp1049
(dp1050
g11
VNN
p1051
sbatp1052
Rp1053
(dp1054
g11
VNP
p1055
sbatp1056
Rp1057
(dp1058
g11
VPP
p1059
sbatp1060
Rp1061
(dp1062
g11
VNP
p1063
sbatp1064
Rp1065
(dp1066
g11
VVP
p1067
sbag0
(g1
g2
(lp1068
V,
p1069
atp1070
Rp1071
(dp1072
g11
V,
p1073
sbag0
(g1
g2
(lp1074
Vand
p1075
atp1076
Rp1077
(dp1078
g11
VCC
p1079
sbag0
(g1
g2
(lp1080
g0
(g1
g2
(lp1081
Vhas
p1082
atp1083
Rp1084
(dp1085
g11
VVBZ
p1086
sbag0
(g1
g2
(lp1087
g0
(g1
g2
(lp1088
Va
p1089
atp1090
Rp1091
(dp1092
g11
VDT
p1093
sbag0
(g1
g2
(lp1094
Vnose
p1095
atp1096
Rp1097
(dp1098
g11
VNN
p1099
sbatp1100
Rp1101
(dp1102
g11
VNP
p1103
sbatp1104
Rp1105
(dp1106
g11
VVP
p1107
sbatp1108
Rp1109
(dp1110
g11
VVP
p1111
sbatp1112
Rp1113
(dp1114
g11
VS
p1115
sbatp1116
Rp1117
(dp1118
g11
VSBAR
p1119
sbatp1120
Rp1121
(dp1122
g11
VNP
p1123
sbag0
(g1
g2
(lp1124
V.
p1125
atp1126
Rp1127
(dp1128
g11
V.
p1129
sbatp1130
Rp1131
(dp1132
g11
VSINV
p1133
sbatp1134
Rp1135
(dp1136
g11
S'id: 6'
p1137
sbag0
(g1
g2
(lp1138
g0
(g1
g2
(lp1139
g0
(g1
g2
(lp1140
g0
(g1
g2
(lp1141
VI
p1142
atp1143
Rp1144
(dp1145
g11
VPRP
p1146
sbatp1147
Rp1148
(dp1149
g11
VNP
p1150
sbag0
(g1
g2
(lp1151
g0
(g1
g2
(lp1152
V'd
p1153
atp1154
Rp1155
(dp1156
g11
VMD
p1157
sbag0
(g1
g2
(lp1158
g0
(g1
g2
(lp1159
Vsay
p1160
atp1161
Rp1162
(dp1163
g11
VVB
p1164
sbag0
(g1
g2
(lp1165
g0
(g1
g2
(lp1166
g0
(g1
g2
(lp1167
g0
(g1
g2
(lp1168
Vit
p1169
atp1170
Rp1171
(dp1172
g11
VPRP
p1173
sbatp1174
Rp1175
(dp1176
g11
VNP
p1177
sbag0
(g1
g2
(lp1178
g0
(g1
g2
(lp1179
V's
p1180
atp1181
Rp1182
(dp1183
g11
VVBZ
p1184
sbag0
(g1
g2
(lp1185
g0
(g1
g2
(lp1186
Va
p1187
atp1188
Rp1189
(dp1190
g11
VDT
p1191
sbag0
(g1
g2
(lp1192
Vred
p1193
atp1194
Rp1195
(dp1196
g11
VJJ
p1197
sbag0
(g1
g2
(lp1198
Vnose
p1199
atp1200
Rp1201
(dp1202
g11
VNN
p1203
sbatp1204
Rp1205
(dp1206
g11
VNP
p1207
sbatp1208
Rp1209
(dp1210
g11
VVP
p1211
sbatp1212
Rp1213
(dp1214
g11
VS
p1215
sbatp1216
Rp1217
(dp1218
g11
VSBAR
p1219
sbatp1220
Rp1221
(dp1222
g11
VVP
p1223
sbatp1224
Rp1225
(dp1226
g11
VVP
p1227
sbag0
(g1
g2
(lp1228
V.
p1229
atp1230
Rp1231
(dp1232
g11
V.
p1233
sbatp1234
Rp1235
(dp1236
g11
VS
p1237
sbatp1238
Rp1239
(dp1240
g11
S'id: 7'
p1241
sbag0
(g1
g2
(lp1242
g0
(g1
g2
(lp1243
g0
(g1
g2
(lp1244
VAnd
p1245
atp1246
Rp1247
(dp1248
g11
VCC
p1249
sbag0
(g1
g2
(lp1250
g0
(g1
g2
(lp1251
Vhe
p1252
atp1253
Rp1254
(dp1255
g11
VPRP
p1256
sbatp1257
Rp1258
(dp1259
g11
VNP
p1260
sbag0
(g1
g2
(lp1261
g0
(g1
g2
(lp1262
V's
p1263
atp1264
Rp1265
(dp1266
g11
VVBZ
p1267
sbag0
(g1
g2
(lp1268
g0
(g1
g2
(lp1269
Vin
p1270
atp1271
Rp1272
(dp1273
g11
VIN
p1274
sbag0
(g1
g2
(lp1275
g0
(g1
g2
(lp1276
Vhis
p1277
atp1278
Rp1279
(dp1280
g11
VPRP$
p1281
sbag0
(g1
g2
(lp1282
Vfull
p1283
atp1284
Rp1285
(dp1286
g11
VJJ
p1287
sbatp1288
Rp1289
(dp1290
g11
VNP
p1291
sbatp1292
Rp1293
(dp1294
g11
VPP
p1295
sbag0
(g1
g2
(lp1296
g0
(g1
g2
(lp1297
g0
(g1
g2
(lp1298
Vmake
p1299
atp1300
Rp1301
(dp1302
g11
VVB
p1303
sbag0
(g1
g2
(lp1304
g0
(g1
g2
(lp1305
Vup
p1306
atp1307
Rp1308
(dp1309
g11
VRP
p1310
sbatp1311
Rp1312
(dp1313
g11
VPRT
p1314
sbatp1315
Rp1316
(dp1317
g11
VVP
p1318
sbatp1319
Rp1320
(dp1321
g11
VS
p1322
sbatp1323
Rp1324
(dp1325
g11
VVP
p1326
sbag0
(g1
g2
(lp1327
V.
p1328
atp1329
Rp1330
(dp1331
g11
V.
p1332
sbatp1333
Rp1334
(dp1335
g11
VS
p1336
sbatp1337
Rp1338
(dp1339
g11
S'id: 8'
p1340
sbag0
(g1
g2
(lp1341
g0
(g1
g2
(lp1342
g0
(g1
g2
(lp1343
g0
(g1
g2
(lp1344
VThrowing
p1345
atp1346
Rp1347
(dp1348
g11
VVBG
p1349
sbag0
(g1
g2
(lp1350
g0
(g1
g2
(lp1351
g0
(g1
g2
(lp1352
g0
(g1
g2
(lp1353
Vwater
p1354
atp1355
Rp1356
(dp1357
g11
VNN
p1358
sbatp1359
Rp1360
(dp1361
g11
VNP
p1362
sbag0
(g1
g2
(lp1363
g0
(g1
g2
(lp1364
Von
p1365
atp1366
Rp1367
(dp1368
g11
VIN
p1369
sbag0
(g1
g2
(lp1370
g0
(g1
g2
(lp1371
Vthe
p1372
atp1373
Rp1374
(dp1375
g11
VDT
p1376
sbag0
(g1
g2
(lp1377
Vkids
p1378
atp1379
Rp1380
(dp1381
g11
VNNS
p1382
sbatp1383
Rp1384
(dp1385
g11
VNP
p1386
sbatp1387
Rp1388
(dp1389
g11
VPP
p1390
sbatp1391
Rp1392
(dp1393
g11
VNP
p1394
sbag0
(g1
g2
(lp1395
V,
p1396
atp1397
Rp1398
(dp1399
g11
V,
p1400
sbag0
(g1
g2
(lp1401
Vor
p1402
atp1403
Rp1404
(dp1405
g11
VCC
p1406
sbag0
(g1
g2
(lp1407
g0
(g1
g2
(lp1408
g0
(g1
g2
(lp1409
Vpieces
p1410
atp1411
Rp1412
(dp1413
g11
VNNS
p1414
sbatp1415
Rp1416
(dp1417
g11
VNP
p1418
sbag0
(g1
g2
(lp1419
g0
(g1
g2
(lp1420
Vof
p1421
atp1422
Rp1423
(dp1424
g11
VIN
p1425
sbag0
(g1
g2
(lp1426
g0
(g1
g2
(lp1427
Vpaper
p1428
atp1429
Rp1430
(dp1431
g11
VNN
p1432
sbatp1433
Rp1434
(dp1435
g11
VNP
p1436
sbatp1437
Rp1438
(dp1439
g11
VPP
p1440
sbatp1441
Rp1442
(dp1443
g11
VNP
p1444
sbatp1445
Rp1446
(dp1447
g11
VNP
p1448
sbag0
(g1
g2
(lp1449
g0
(g1
g2
(lp1450
g0
(g1
g2
(lp1451
Vto
p1452
atp1453
Rp1454
(dp1455
g11
VTO
p1456
sbag0
(g1
g2
(lp1457
g0
(g1
g2
(lp1458
Vmake
p1459
atp1460
Rp1461
(dp1462
g11
VVB
p1463
sbag0
(g1
g2
(lp1464
g0
(g1
g2
(lp1465
g0
(g1
g2
(lp1466
Vit
p1467
atp1468
Rp1469
(dp1470
g11
VPRP
p1471
sbatp1472
Rp1473
(dp1474
g11
VNP
p1475
sbag0
(g1
g2
(lp1476
g0
(g1
g2
(lp1477
Vlook
p1478
atp1479
Rp1480
(dp1481
g11
VVB
p1482
sbag0
(g1
g2
(lp1483
g0
(g1
g2
(lp1484
g0
(g1
g2
(lp1485
Vthem
p1486
atp1487
Rp1488
(dp1489
g11
VPRP
p1490
sbatp1491
Rp1492
(dp1493
g11
VNP
p1494
sbag0
(g1
g2
(lp1495
g0
(g1
g2
(lp1496
Vthink
p1497
atp1498
Rp1499
(dp1500
g11
VVB
p1501
sbag0
(g1
g2
(lp1502
g0
(g1
g2
(lp1503
Vthat
p1504
atp1505
Rp1506
(dp1507
g11
VIN
p1508
sbag0
(g1
g2
(lp1509
g0
(g1
g2
(lp1510
g0
(g1
g2
(lp1511
Vit
p1512
atp1513
Rp1514
(dp1515
g11
VPRP
p1516
sbatp1517
Rp1518
(dp1519
g11
VNP
p1520
sbag0
(g1
g2
(lp1521
g0
(g1
g2
(lp1522
V's
p1523
atp1524
Rp1525
(dp1526
g11
VVBZ
p1527
sbag0
(g1
g2
(lp1528
g0
(g1
g2
(lp1529
Vwater
p1530
atp1531
Rp1532
(dp1533
g11
VNN
p1534
sbatp1535
Rp1536
(dp1537
g11
VNP
p1538
sbatp1539
Rp1540
(dp1541
g11
VVP
p1542
sbatp1543
Rp1544
(dp1545
g11
VS
p1546
sbatp1547
Rp1548
(dp1549
g11
VSBAR
p1550
sbatp1551
Rp1552
(dp1553
g11
VVP
p1554
sbatp1555
Rp1556
(dp1557
g11
VS
p1558
sbatp1559
Rp1560
(dp1561
g11
VVP
p1562
sbatp1563
Rp1564
(dp1565
g11
VS
p1566
sbatp1567
Rp1568
(dp1569
g11
VVP
p1570
sbatp1571
Rp1572
(dp1573
g11
VVP
p1574
sbatp1575
Rp1576
(dp1577
g11
VS
p1578
sbatp1579
Rp1580
(dp1581
g11
VVP
p1582
sbag0
(g1
g2
(lp1583
V.
p1584
atp1585
Rp1586
(dp1587
g11
V.
p1588
sbatp1589
Rp1590
(dp1591
g11
VS
p1592
sbatp1593
Rp1594
(dp1595
g11
S'id: 9'
p1596
sbag0
(g1
g2
(lp1597
g0
(g1
g2
(lp1598
g0
(g1
g2
(lp1599
g0
(g1
g2
(lp1600
VThere
p1601
atp1602
Rp1603
(dp1604
g11
VEX
p1605
sbatp1606
Rp1607
(dp1608
g11
VNP
p1609
sbag0
(g1
g2
(lp1610
g0
(g1
g2
(lp1611
V's
p1612
atp1613
Rp1614
(dp1615
g11
VVBZ
p1616
sbag0
(g1
g2
(lp1617
g0
(g1
g2
(lp1618
g0
(g1
g2
(lp1619
g0
(g1
g2
(lp1620
Vone
p1621
atp1622
Rp1623
(dp1624
g11
VCD
p1625
sbatp1626
Rp1627
(dp1628
g11
VNP
p1629
sbag0
(g1
g2
(lp1630
V,
p1631
atp1632
Rp1633
(dp1634
g11
V,
p1635
sbag0
(g1
g2
(lp1636
g0
(g1
g2
(lp1637
Vtwo
p1638
atp1639
Rp1640
(dp1641
g11
VCD
p1642
sbag0
(g1
g2
(lp1643
Vthree
p1644
atp1645
Rp1646
(dp1647
g11
VCD
p1648
sbatp1649
Rp1650
(dp1651
g11
VNP
p1652
sbatp1653
Rp1654
(dp1655
g11
VNP
p1656
sbag0
(g1
g2
(lp1657
V,
p1658
atp1659
Rp1660
(dp1661
g11
V,
p1662
sbag0
(g1
g2
(lp1663
g0
(g1
g2
(lp1664
g0
(g1
g2
(lp1665
Vthree
p1666
atp1667
Rp1668
(dp1669
g11
VCD
p1670
sbag0
(g1
g2
(lp1671
Vkids
p1672
atp1673
Rp1674
(dp1675
g11
VNNS
p1676
sbatp1677
Rp1678
(dp1679
g11
VNP
p1680
sbag0
(g1
g2
(lp1681
g0
(g1
g2
(lp1682
Vin
p1683
atp1684
Rp1685
(dp1686
g11
VIN
p1687
sbag0
(g1
g2
(lp1688
g0
(g1
g2
(lp1689
Vthe
p1690
atp1691
Rp1692
(dp1693
g11
VDT
p1694
sbag0
(g1
g2
(lp1695
Vforefront
p1696
atp1697
Rp1698
(dp1699
g11
VNN
p1700
sbatp1701
Rp1702
(dp1703
g11
VNP
p1704
sbatp1705
Rp1706
(dp1707
g11
VPP
p1708
sbatp1709
Rp1710
(dp1711
g11
VNP
p1712
sbag0
(g1
g2
(lp1713
V,
p1714
atp1715
Rp1716
(dp1717
g11
V,
p1718
sbag0
(g1
g2
(lp1719
Vand
p1720
atp1721
Rp1722
(dp1723
g11
VCC
p1724
sbag0
(g1
g2
(lp1725
g0
(g1
g2
(lp1726
Vtwo
p1727
atp1728
Rp1729
(dp1730
g11
VCD
p1731
sbag0
(g1
g2
(lp1732
Vparents
p1733
atp1734
Rp1735
(dp1736
g11
VNNS
p1737
sbatp1738
Rp1739
(dp1740
g11
VNP
p1741
sbatp1742
Rp1743
(dp1744
g11
VNP
p1745
sbatp1746
Rp1747
(dp1748
g11
VVP
p1749
sbag0
(g1
g2
(lp1750
V.
p1751
atp1752
Rp1753
(dp1754
g11
V.
p1755
sbatp1756
Rp1757
(dp1758
g11
VS
p1759
sbatp1760
Rp1761
(dp1762
g11
S'id: 10'
p1763
sbag0
(g1
g2
(lp1764
g0
(g1
g2
(lp1765
g0
(g1
g2
(lp1766
g0
(g1
g2
(lp1767
g0
(g1
g2
(lp1768
VThan
p1769
atp1770
Rp1771
(dp1772
g11
VIN
p1773
sbag0
(g1
g2
(lp1774
g0
(g1
g2
(lp1775
g0
(g1
g2
(lp1776
Vthere
p1777
atp1778
Rp1779
(dp1780
g11
VEX
p1781
sbatp1782
Rp1783
(dp1784
g11
VNP
p1785
sbag0
(g1
g2
(lp1786
g0
(g1
g2
(lp1787
V's
p1788
atp1789
Rp1790
(dp1791
g11
VVBZ
p1792
sbag0
(g1
g2
(lp1793
g0
(g1
g2
(lp1794
Valso
p1795
atp1796
Rp1797
(dp1798
g11
VRB
p1799
sbatp1800
Rp1801
(dp1802
g11
VADVP
p1803
sbag0
(g1
g2
(lp1804
g0
(g1
g2
(lp1805
g0
(g1
g2
(lp1806
Vseveral
p1807
atp1808
Rp1809
(dp1810
g11
VJJ
p1811
sbag0
(g1
g2
(lp1812
Vpeople
p1813
atp1814
Rp1815
(dp1816
g11
VNNS
p1817
sbatp1818
Rp1819
(dp1820
g11
VNP
p1821
sbag0
(g1
g2
(lp1822
g0
(g1
g2
(lp1823
Vin
p1824
atp1825
Rp1826
(dp1827
g11
VIN
p1828
sbag0
(g1
g2
(lp1829
g0
(g1
g2
(lp1830
g0
(g1
g2
(lp1831
Vthe
p1832
atp1833
Rp1834
(dp1835
g11
VDT
p1836
sbag0
(g1
g2
(lp1837
Vback
p1838
atp1839
Rp1840
(dp1841
g11
VJJ
p1842
sbag0
(g1
g2
(lp1843
Vground
p1844
atp1845
Rp1846
(dp1847
g11
VNN
p1848
sbatp1849
Rp1850
(dp1851
g11
VNP
p1852
sbag0
(g1
g2
(lp1853
g0
(g1
g2
(lp1854
Vwatching
p1855
atp1856
Rp1857
(dp1858
g11
VVBG
p1859
sbag0
(g1
g2
(lp1860
g0
(g1
g2
(lp1861
Vthe
p1862
atp1863
Rp1864
(dp1865
g11
VDT
p1866
sbag0
(g1
g2
(lp1867
Vhigh
p1868
atp1869
Rp1870
(dp1871
g11
VJJ
p1872
sbag0
(g1
g2
(lp1873
Vwire
p1874
atp1875
Rp1876
(dp1877
g11
VNN
p1878
sbag0
(g1
g2
(lp1879
Vguy
p1880
atp1881
Rp1882
(dp1883
g11
VNN
p1884
sbatp1885
Rp1886
(dp1887
g11
VNP
p1888
sbatp1889
Rp1890
(dp1891
g11
VVP
p1892
sbatp1893
Rp1894
(dp1895
g11
VNP
p1896
sbatp1897
Rp1898
(dp1899
g11
VPP
p1900
sbatp1901
Rp1902
(dp1903
g11
VNP
p1904
sbatp1905
Rp1906
(dp1907
g11
VVP
p1908
sbatp1909
Rp1910
(dp1911
g11
VS
p1912
sbatp1913
Rp1914
(dp1915
g11
VSBAR
p1916
sbatp1917
Rp1918
(dp1919
g11
VNP
p1920
sbag0
(g1
g2
(lp1921
g0
(g1
g2
(lp1922
Vdo
p1923
atp1924
Rp1925
(dp1926
g11
VVBP
p1927
sbag0
(g1
g2
(lp1928
g0
(g1
g2
(lp1929
Vhis
p1930
atp1931
Rp1932
(dp1933
g11
VPRP$
p1934
sbag0
(g1
g2
(lp1935
Vthing
p1936
atp1937
Rp1938
(dp1939
g11
VNN
p1940
sbatp1941
Rp1942
(dp1943
g11
VNP
p1944
sbatp1945
Rp1946
(dp1947
g11
VVP
p1948
sbag0
(g1
g2
(lp1949
V.
p1950
atp1951
Rp1952
(dp1953
g11
V.
p1954
sbatp1955
Rp1956
(dp1957
g11
VS
p1958
sbatp1959
Rp1960
(dp1961
g11
S'id: 11'
p1962
sbag0
(g1
g2
(lp1963
g0
(g1
g2
(lp1964
g0
(g1
g2
(lp1965
g0
(g1
g2
(lp1966
VThe
p1967
atp1968
Rp1969
(dp1970
g11
VDT
p1971
sbag0
(g1
g2
(lp1972
Vclown
p1973
atp1974
Rp1975
(dp1976
g11
VNN
p1977
sbatp1978
Rp1979
(dp1980
g11
VNP
p1981
sbag0
(g1
g2
(lp1982
g0
(g1
g2
(lp1983
Vin
p1984
atp1985
Rp1986
(dp1987
g11
VIN
p1988
sbag0
(g1
g2
(lp1989
g0
(g1
g2
(lp1990
Vthe
p1991
atp1992
Rp1993
(dp1994
g11
VDT
p1995
sbag0
(g1
g2
(lp1996
Vfront
p1997
atp1998
Rp1999
(dp2000
g11
VNN
p2001
sbatp2002
Rp2003
(dp2004
g11
VNP
p2005
sbatp2006
Rp2007
(dp2008
g11
VPP
p2009
sbatp2010
Rp2011
(dp2012
g11
VNP
p2013
sbatp2014
Rp2015
(dp2016
g11
S'id: 12'
p2017
sbatp2018
Rp2019
(dp2020
g11
S'sentences'
p2021
sb.