ccopy_reg
_reconstructor
p0
(cnltk.tree
Tree
p1
c__builtin__
list
p2
(lp3
g0
(g1
g2
(lp4
g0
(g1
g2
(lp5
g0
(g1
g2
(lp6
(lp7
S'word: The, index: 1'
p8
aatp9
Rp10
(dp11
S'_label'
p12
Vdet
p13
sbag0
(g1
g2
(lp14
(lp15
S'word: he, index: 17'
p16
aatp17
Rp18
(dp19
g12
Vconj
p20
sbag0
(g1
g2
(lp21
g0
(g1
g2
(lp22
g0
(g1
g2
(lp23
(lp24
S'word: he, index: 31'
p25
aatp26
Rp27
(dp28
g12
Vdep
p29
sbatp30
Rp31
(dp32
g12
S'word: it, index: 33'
p33
sbatp34
Rp35
(dp36
g12
Vconj
p37
sbag0
(g1
g2
(lp38
g0
(g1
g2
(lp39
g0
(g1
g2
(lp40
(lp41
S'word: he, index: 19'
p42
aatp43
Rp44
(dp45
g12
Vnsubj
p46
sbag0
(g1
g2
(lp47
(lp48
S"word: 's, index: 20"
p49
aatp50
Rp51
(dp52
g12
Vaux
p53
sbag0
(g1
g2
(lp54
g0
(g1
g2
(lp55
g0
(g1
g2
(lp56
(lp57
S'word: a, index: 23'
p58
aatp59
Rp60
(dp61
g12
Vdet
p62
sbatp63
Rp64
(dp65
g12
S'word: stool, index: 24'
p66
sbatp67
Rp68
(dp69
g12
Vprep
p70
sbatp71
Rp72
(dp73
g12
S'word: standing, index: 21'
p74
sbatp75
Rp76
(dp77
g12
Vdep
p78
sbag0
(g1
g2
(lp79
g0
(g1
g2
(lp80
g0
(g1
g2
(lp81
(lp82
S'word: it, index: 35'
p83
aatp84
Rp85
(dp86
g12
Vnsubj
p87
sbag0
(g1
g2
(lp88
(lp89
S"word: 's, index: 36"
p90
aatp91
Rp92
(dp93
g12
Vaux
p94
sbatp95
Rp96
(dp97
g12
S'word: falling, index: 37'
p98
sbatp99
Rp100
(dp101
g12
Vconj
p102
sbag0
(g1
g2
(lp103
g0
(g1
g2
(lp104
g0
(g1
g2
(lp105
g0
(g1
g2
(lp106
g0
(g1
g2
(lp107
(lp108
S'word: the, index: 4'
p109
aatp110
Rp111
(dp112
g12
Vdet
p113
sbatp114
Rp115
(dp116
g12
S'word: boy, index: 5'
p117
sbatp118
Rp119
(dp120
g12
Vposs
p121
sbag0
(g1
g2
(lp122
g0
(g1
g2
(lp123
g0
(g1
g2
(lp124
(lp125
S'word: the, index: 8'
p126
aatp127
Rp128
(dp129
g12
Vdet
p130
sbag0
(g1
g2
(lp131
(lp132
S'word: cooking, index: 9'
p133
aatp134
Rp135
(dp136
g12
Vnn
p137
sbatp138
Rp139
(dp140
g12
S'word: jar, index: 10'
p141
sbatp142
Rp143
(dp144
g12
Vdep
p145
sbatp146
Rp147
(dp148
g12
S'word: raiding, index: 7'
p149
sbatp150
Rp151
(dp152
g12
Vappos
p153
sbag0
(g1
g2
(lp154
g0
(g1
g2
(lp155
g0
(g1
g2
(lp156
g0
(g1
g2
(lp157
g0
(g1
g2
(lp158
(lp159
S'word: a, index: 27'
p160
aatp161
Rp162
(dp163
g12
Vdet
p164
sbatp165
Rp166
(dp167
g12
S'word: stool, index: 28'
p168
sbatp169
Rp170
(dp171
g12
Vpobj
p172
sbatp173
Rp174
(dp175
g12
S'word: on, index: 26'
p176
sbatp177
Rp178
(dp179
g12
Vdep
p180
sbag0
(g1
g2
(lp181
g0
(g1
g2
(lp182
g0
(g1
g2
(lp183
(lp184
S'word: and, index: 14'
p185
aatp186
Rp187
(dp188
g12
Vcc
p189
sbatp190
Rp191
(dp192
g12
S'word: he, index: 15'
p193
sbatp194
Rp195
(dp196
g12
Vdep
p197
sbatp198
Rp199
(dp200
g12
S'word: boy, index: 2'
p201
sbatp202
Rp203
(dp204
g12
S'id: 0'
p205
sbag0
(g1
g2
(lp206
g0
(g1
g2
(lp207
g0
(g1
g2
(lp208
g0
(g1
g2
(lp209
g0
(g1
g2
(lp210
(lp211
S'word: the, index: 2'
p212
aatp213
Rp214
(dp215
g12
Vdet
p216
sbatp217
Rp218
(dp219
g12
S'word: girl, index: 3'
p220
sbatp221
Rp222
(dp223
g12
Vnsubj
p224
sbag0
(g1
g2
(lp225
(lp226
S'word: is, index: 4'
p227
aatp228
Rp229
(dp230
g12
Vaux
p231
sbag0
(g1
g2
(lp232
g0
(g1
g2
(lp233
g0
(g1
g2
(lp234
(lp235
S'word: him, index: 8'
p236
aatp237
Rp238
(dp239
g12
Vappos
p240
sbatp241
Rp242
(dp243
g12
S'word: him, index: 6'
p244
sbatp245
Rp246
(dp247
g12
Vdobj
p248
sbag0
(g1
g2
(lp249
g0
(g1
g2
(lp250
g0
(g1
g2
(lp251
(lp252
S'word: to, index: 10'
p253
aatp254
Rp255
(dp256
g12
Vaux
p257
sbag0
(g1
g2
(lp258
(lp259
S'word: be, index: 11'
p260
aatp261
Rp262
(dp263
g12
Vcop
p264
sbatp265
Rp266
(dp267
g12
S'word: quiet, index: 12'
p268
sbatp269
Rp270
(dp271
g12
Vxcomp
p272
sbag0
(g1
g2
(lp273
g0
(g1
g2
(lp274
g0
(g1
g2
(lp275
g0
(g1
g2
(lp276
g0
(g1
g2
(lp277
(lp278
S'word: a, index: 18'
p279
aatp280
Rp281
(dp282
g12
Vdet
p283
sbatp284
Rp285
(dp286
g12
S'word: cookie, index: 19'
p287
sbatp288
Rp289
(dp290
g12
Vdobj
p291
sbag0
(g1
g2
(lp292
(lp293
S'word: she, index: 15'
p294
aatp295
Rp296
(dp297
g12
Vnsubj
p298
sbag0
(g1
g2
(lp299
(lp300
S'word: also, index: 16'
p301
aatp302
Rp303
(dp304
g12
Vadvmod
p305
sbatp306
Rp307
(dp308
g12
S'word: got, index: 17'
p309
sbatp310
Rp311
(dp312
g12
Vconj
p313
sbatp314
Rp315
(dp316
g12
S'word: telling, index: 5'
p317
sbatp318
Rp319
(dp320
g12
S'id: 1'
p321
sbag0
(g1
g2
(lp322
g0
(g1
g2
(lp323
g0
(g1
g2
(lp324
g0
(g1
g2
(lp325
g0
(g1
g2
(lp326
(lp327
S'word: the, index: 9'
p328
aatp329
Rp330
(dp331
g12
Vdet
p332
sbag0
(g1
g2
(lp333
(lp334
S'word: overflowing, index: 12'
p335
aatp336
Rp337
(dp338
g12
Vamod
p339
sbatp340
Rp341
(dp342
g12
S'word: sink, index: 10'
p343
sbatp344
Rp345
(dp346
g12
Vappos
p347
sbag0
(g1
g2
(lp348
g0
(g1
g2
(lp349
g0
(g1
g2
(lp350
(lp351
S'word: the, index: 14'
p352
aatp353
Rp354
(dp355
g12
Vdet
p356
sbag0
(g1
g2
(lp357
(lp358
S"word: 's, index: 16"
p359
aatp360
Rp361
(dp362
g12
Vpossessive
p363
sbag0
(g1
g2
(lp364
(lp365
S'word: overflowing, index: 17'
p366
aatp367
Rp368
(dp369
g12
Vamod
p370
sbatp371
Rp372
(dp373
g12
S'word: sink, index: 15'
p374
sbatp375
Rp376
(dp377
g12
Vappos
p378
sbag0
(g1
g2
(lp379
g0
(g1
g2
(lp380
g0
(g1
g2
(lp381
g341
atp382
Rp383
(dp384
g12
Vconj
p385
sbag0
(g1
g2
(lp386
(lp387
S'word: the, index: 3'
p388
aatp389
Rp390
(dp391
g12
Vdet
p392
sbag0
(g1
g2
(lp393
g0
(g1
g2
(lp394
g0
(g1
g2
(lp395
(lp396
S'word: dishes, index: 6'
p397
aatp398
Rp399
(dp400
g12
Vdobj
p401
sbatp402
Rp403
(dp404
g12
S'word: washing, index: 5'
p405
sbatp406
Rp407
(dp408
g12
Vvmod
p409
sbatp410
Rp411
(dp412
g12
S'word: mom, index: 4'
p413
sbatp414
Rp415
(dp416
g12
Vappos
p417
sbatp418
Rp419
(dp420
g12
S'word: Ok, index: 1'
p421
sbatp422
Rp423
(dp424
g12
S'id: 2'
p425
sbag0
(g1
g2
(lp426
g0
(g1
g2
(lp427
g0
(g1
g2
(lp428
g0
(g1
g2
(lp429
g0
(g1
g2
(lp430
g0
(g1
g2
(lp431
g0
(g1
g2
(lp432
(lp433
S'word: whatever, index: 8'
p434
aatp435
Rp436
(dp437
g12
Vdet
p438
sbatp439
Rp440
(dp441
g12
S'word: color, index: 9'
p442
sbatp443
Rp444
(dp445
g12
Vdobj
p446
sbag0
(g1
g2
(lp447
(lp448
S'word: they, index: 10'
p449
aatp450
Rp451
(dp452
g12
Vnsubj
p453
sbatp454
Rp455
(dp456
g12
S'word: are, index: 11'
p457
sbatp458
Rp459
(dp460
g12
Vccomp
p461
sbag0
(g1
g2
(lp462
g0
(g1
g2
(lp463
g0
(g1
g2
(lp464
g0
(g1
g2
(lp465
g0
(g1
g2
(lp466
(lp467
S'word: the, index: 4'
p468
aatp469
Rp470
(dp471
g12
Vdet
p472
sbatp473
Rp474
(dp475
g12
S'word: curtians, index: 5'
p476
sbatp477
Rp478
(dp479
g12
Vconj
p480
sbatp481
Rp482
(dp483
g12
S'word: Ok, index: 1'
p484
sbatp485
Rp486
(dp487
g12
Vnsubj
p488
sbag0
(g1
g2
(lp489
g474
atp490
Rp491
(dp492
g12
Vnsubj
p493
sbatp494
Rp495
(dp496
g12
S'word: are, index: 6'
p497
sbatp498
Rp499
(dp500
g12
S'id: 3'
p501
sbag0
(g1
g2
(lp502
g0
(g1
g2
(lp503
g0
(g1
g2
(lp504
(lp505
S'word: And, index: 1'
p506
aatp507
Rp508
(dp509
g12
Vcc
p510
sbag0
(g1
g2
(lp511
(lp512
S'word: there, index: 2'
p513
aatp514
Rp515
(dp516
g12
Vexpl
p517
sbag0
(g1
g2
(lp518
(lp519
S'word: out, index: 4'
p520
aatp521
Rp522
(dp523
g12
Vprt
p524
sbag0
(g1
g2
(lp525
(lp526
S'word: outside, index: 6'
p527
aatp528
Rp529
(dp530
g12
Vadvmod
p531
sbatp532
Rp533
(dp534
g12
S'word: shrubery, index: 3'
p535
sbatp536
Rp537
(dp538
g12
S'id: 4'
p539
sbag0
(g1
g2
(lp540
g0
(g1
g2
(lp541
g0
(g1
g2
(lp542
(lp543
S'word: And, index: 1'
p544
aatp545
Rp546
(dp547
g12
Vcc
p548
sbag0
(g1
g2
(lp549
(lp550
S'word: and, index: 3'
p551
aatp552
Rp553
(dp554
g12
Vcc
p555
sbag0
(g1
g2
(lp556
(lp557
S'word: trees, index: 4'
p558
aatp559
Rp560
(dp561
g12
Vnsubj
p562
sbag0
(g1
g2
(lp563
(lp564
S'word: outside, index: 6'
p565
aatp566
Rp567
(dp568
g12
Vadvmod
p569
sbatp570
Rp571
(dp572
g12
S'word: are, index: 5'
p573
sbatp574
Rp575
(dp576
g12
S'id: 5'
p577
sbag0
(g1
g2
(lp578
tp579
Rp580
(dp581
g12
S'id: 6'
p582
sbag0
(g1
g2
(lp583
tp584
Rp585
(dp586
g12
S'id: 7'
p587
sbag0
(g1
g2
(lp588
g0
(g1
g2
(lp589
g0
(g1
g2
(lp590
(lp591
S'word: The, index: 1'
p592
aatp593
Rp594
(dp595
g12
Vdet
p596
sbag0
(g1
g2
(lp597
(lp598
S'word: cookie, index: 2'
p599
aatp600
Rp601
(dp602
g12
Vnn
p603
sbag0
(g1
g2
(lp604
(lp605
S'word: no, index: 5'
p606
aatp607
Rp608
(dp609
g12
Vappos
p610
sbatp611
Rp612
(dp613
g12
S'word: jar, index: 3'
p614
sbatp615
Rp616
(dp617
g12
S'id: 8'
p618
sbag0
(g1
g2
(lp619
g0
(g1
g2
(lp620
g0
(g1
g2
(lp621
g0
(g1
g2
(lp622
g0
(g1
g2
(lp623
(lp624
S"word: 's, index: 11"
p625
aatp626
Rp627
(dp628
g12
Vauxpass
p629
sbag0
(g1
g2
(lp630
g0
(g1
g2
(lp631
g0
(g1
g2
(lp632
(lp633
S'word: the, index: 13'
p634
aatp635
Rp636
(dp637
g12
Vdet
p638
sbag0
(g1
g2
(lp639
(lp640
S'word: cookie, index: 14'
p641
aatp642
Rp643
(dp644
g12
Vnn
p645
sbatp646
Rp647
(dp648
g12
S'word: jar, index: 15'
p649
sbatp650
Rp651
(dp652
g12
Vdobj
p653
sbag0
(g1
g2
(lp654
(lp655
S'word: it, index: 17'
p656
aatp657
Rp658
(dp659
g12
Vprep
p660
sbag0
(g1
g2
(lp661
(lp662
S'word: it, index: 10'
p663
aatp664
Rp665
(dp666
g12
Vnsubjpass
p667
sbatp668
Rp669
(dp670
g12
S'word: broke, index: 12'
p671
sbatp672
Rp673
(dp674
g12
Vconj
p675
sbag0
(g1
g2
(lp676
g0
(g1
g2
(lp677
g0
(g1
g2
(lp678
(lp679
S'word: The, index: 1'
p680
aatp681
Rp682
(dp683
g12
Vdet
p684
sbag0
(g1
g2
(lp685
(lp686
S'word: cookie, index: 2'
p687
aatp688
Rp689
(dp690
g12
Vnn
p691
sbatp692
Rp693
(dp694
g12
S'word: jar, index: 3'
p695
sbatp696
Rp697
(dp698
g12
Vnsubj
p699
sbag0
(g1
g2
(lp700
g0
(g1
g2
(lp701
g0
(g1
g2
(lp702
(lp703
S'word: the, index: 6'
p704
aatp705
Rp706
(dp707
g12
Vdet
p708
sbatp709
Rp710
(dp711
g12
S'word: inside, index: 7'
p712
sbatp713
Rp714
(dp715
g12
Vprep
p716
sbatp717
Rp718
(dp719
g12
S'word: is, index: 4'
p720
sbatp721
Rp722
(dp723
g12
S'id: 9'
p724
sbag0
(g1
g2
(lp725
g0
(g1
g2
(lp726
g0
(g1
g2
(lp727
g0
(g1
g2
(lp728
g0
(g1
g2
(lp729
(lp730
S'word: a, index: 13'
p731
aatp732
Rp733
(dp734
g12
Vdet
p735
sbatp736
Rp737
(dp738
g12
S'word: while, index: 14'
p739
sbatp740
Rp741
(dp742
g12
Vprep
p743
sbag0
(g1
g2
(lp744
(lp745
S'word: And, index: 1'
p746
aatp747
Rp748
(dp749
g12
Vcc
p750
sbag0
(g1
g2
(lp751
g0
(g1
g2
(lp752
g0
(g1
g2
(lp753
g0
(g1
g2
(lp754
g0
(g1
g2
(lp755
(lp756
S'word: both, index: 5'
p757
aatp758
Rp759
(dp760
g12
Vdep
p761
sbatp762
Rp763
(dp764
g12
S'word: their, index: 4'
p765
sbatp766
Rp767
(dp768
g12
Vappos
p769
sbatp770
Rp771
(dp772
g12
S'word: he, index: 2'
p773
sbatp774
Rp775
(dp776
g12
Vnsubj
p777
sbag0
(g1
g2
(lp778
g0
(g1
g2
(lp779
g0
(g1
g2
(lp780
g0
(g1
g2
(lp781
g0
(g1
g2
(lp782
(lp783
S'word: outside, index: 10'
p784
aatp785
Rp786
(dp787
g12
Vpobj
p788
sbatp789
Rp790
(dp791
g12
S'word: for, index: 9'
p792
sbatp793
Rp794
(dp795
g12
Vdep
p796
sbatp797
Rp798
(dp799
g12
S'word: in, index: 7'
p800
sbatp801
Rp802
(dp803
g12
Vprep
p804
sbatp805
Rp806
(dp807
g12
S'word: dressed, index: 6'
p808
sbatp809
Rp810
(dp811
g12
S'id: 10'
p812
sbag0
(g1
g2
(lp813
g0
(g1
g2
(lp814
g0
(g1
g2
(lp815
(lp816
S'word: blouse, index: 17'
p817
aatp818
Rp819
(dp820
g12
Vpobj
p821
sbag0
(g1
g2
(lp822
g0
(g1
g2
(lp823
g0
(g1
g2
(lp824
(lp825
S'word: the, index: 2'
p826
aatp827
Rp828
(dp829
g12
Vdep
p830
sbag0
(g1
g2
(lp831
g0
(g1
g2
(lp832
g0
(g1
g2
(lp833
(lp834
S'word: the, index: 3'
p835
aatp836
Rp837
(dp838
g12
Vdet
p839
sbatp840
Rp841
(dp842
g12
S'word: girl, index: 4'
p843
sbatp844
Rp845
(dp846
g12
Vnsubj
p847
sbag0
(g1
g2
(lp848
(lp849
S'word: has, index: 5'
p850
aatp851
Rp852
(dp853
g12
Vaux
p854
sbag0
(g1
g2
(lp855
g0
(g1
g2
(lp856
g0
(g1
g2
(lp857
(lp858
S'word: a, index: 7'
p859
aatp860
Rp861
(dp862
g12
Vdet
p863
sbatp864
Rp865
(dp866
g12
S'word: skirt, index: 8'
p867
sbatp868
Rp869
(dp870
g12
Vpobj
p871
sbatp872
Rp873
(dp874
g12
S'word: on, index: 6'
p875
sbatp876
Rp877
(dp878
g12
Vadvcl
p879
sbag0
(g1
g2
(lp880
g0
(g1
g2
(lp881
g0
(g1
g2
(lp882
g0
(g1
g2
(lp883
g0
(g1
g2
(lp884
(lp885
S'word: the, index: 20'
p886
aatp887
Rp888
(dp889
g12
Vdet
p890
sbatp891
Rp892
(dp893
g12
S'word: boy, index: 21'
p894
sbatp895
Rp896
(dp897
g12
Vnsubj
p898
sbag0
(g1
g2
(lp899
(lp900
S'word: has, index: 22'
p901
aatp902
Rp903
(dp904
g12
Vaux
p905
sbag0
(g1
g2
(lp906
g0
(g1
g2
(lp907
g0
(g1
g2
(lp908
g0
(g1
g2
(lp909
g0
(g1
g2
(lp910
g0
(g1
g2
(lp911
g0
(g1
g2
(lp912
(lp913
S'word: and, index: 34'
p914
aatp915
Rp916
(dp917
g12
Vcc
p918
sbag0
(g1
g2
(lp919
(lp920
S'word: two, index: 37'
p921
aatp922
Rp923
(dp924
g12
Vamod
p925
sbatp926
Rp927
(dp928
g12
S'word: a, index: 35'
p929
sbatp930
Rp931
(dp932
g12
Vdep
p933
sbatp934
Rp935
(dp936
g12
S'word: a, index: 32'
p937
sbatp938
Rp939
(dp940
g12
Vamod
p941
sbatp942
Rp943
(dp944
g12
S'word: shoes, index: 38'
p945
sbatp946
Rp947
(dp948
g12
Vpobj
p949
sbag0
(g1
g2
(lp950
g0
(g1
g2
(lp951
g0
(g1
g2
(lp952
g943
atp953
Rp954
(dp955
g12
Vconj
p956
sbag0
(g1
g2
(lp957
g0
(g1
g2
(lp958
g0
(g1
g2
(lp959
(lp960
S'word: a, index: 26'
p961
aatp962
Rp963
(dp964
g12
Vdet
p965
sbatp966
Rp967
(dp968
g12
S'word: shirt, index: 27'
p969
sbatp970
Rp971
(dp972
g12
Vconj
p973
sbag0
(g1
g2
(lp974
(lp975
S'word: a, index: 29'
p976
aatp977
Rp978
(dp979
g12
Vconj
p980
sbatp981
Rp982
(dp983
g12
S'word: a, index: 24'
p984
sbatp985
Rp986
(dp987
g12
Vpobj
p988
sbag0
(g1
g2
(lp989
g967
atp990
Rp991
(dp992
g12
Vpobj
p993
sbag0
(g1
g2
(lp994
(lp995
S'word: a, index: 29'
p996
aatp997
Rp998
(dp999
g12
Vpobj
p1000
sbatp1001
Rp1002
(dp1003
g12
S'word: on, index: 23'
p1004
sbatp1005
Rp1006
(dp1007
g12
Vconj
p1008
sbag0
(g1
g2
(lp1009
g0
(g1
g2
(lp1010
g0
(g1
g2
(lp1011
(lp1012
S'word: the, index: 10'
p1013
aatp1014
Rp1015
(dp1016
g12
Vdet
p1017
sbatp1018
Rp1019
(dp1020
g12
S'word: girl, index: 11'
p1021
sbatp1022
Rp1023
(dp1024
g12
Vnsubj
p1025
sbag0
(g1
g2
(lp1026
(lp1027
S'word: has, index: 12'
p1028
aatp1029
Rp1030
(dp1031
g12
Vaux
p1032
sbag0
(g1
g2
(lp1033
g0
(g1
g2
(lp1034
g0
(g1
g2
(lp1035
(lp1036
S'word: blouse, index: 17'
p1037
aatp1038
Rp1039
(dp1040
g12
Vconj
p1041
sbag0
(g1
g2
(lp1042
(lp1043
S'word: a, index: 14'
p1044
aatp1045
Rp1046
(dp1047
g12
Vdet
p1048
sbatp1049
Rp1050
(dp1051
g12
S'word: skirt, index: 15'
p1052
sbatp1053
Rp1054
(dp1055
g12
Vpobj
p1056
sbatp1057
Rp1058
(dp1059
g12
S'word: on, index: 13'
p1060
sbatp1061
Rp1062
(dp1063
g12
S'id: 11'
p1064
sbag0
(g1
g2
(lp1065
g0
(g1
g2
(lp1066
g0
(g1
g2
(lp1067
g0
(g1
g2
(lp1068
g0
(g1
g2
(lp1069
g0
(g1
g2
(lp1070
g0
(g1
g2
(lp1071
g0
(g1
g2
(lp1072
g0
(g1
g2
(lp1073
(lp1074
S'word: the, index: 3'
p1075
aatp1076
Rp1077
(dp1078
g12
Vdet
p1079
sbatp1080
Rp1081
(dp1082
g12
S'word: girl, index: 4'
p1083
sbatp1084
Rp1085
(dp1086
g12
Vnsubj
p1087
sbag0
(g1
g2
(lp1088
(lp1089
S'word: has, index: 5'
p1090
aatp1091
Rp1092
(dp1093
g12
Vaux
p1094
sbag0
(g1
g2
(lp1095
(lp1096
S'word: ballet, index: 7'
p1097
aatp1098
Rp1099
(dp1100
g12
Vpobj
p1101
sbatp1102
Rp1103
(dp1104
g12
S'word: on, index: 6'
p1105
sbatp1106
Rp1107
(dp1108
g12
Vparataxis
p1109
sbag0
(g1
g2
(lp1110
g0
(g1
g2
(lp1111
g0
(g1
g2
(lp1112
(lp1113
S'word: no, index: 9'
p1114
aatp1115
Rp1116
(dp1117
g12
Vneg
p1118
sbatp1119
Rp1120
(dp1121
g12
S'word: I, index: 10'
p1122
sbatp1123
Rp1124
(dp1125
g12
Vnsubj
p1126
sbag0
(g1
g2
(lp1127
(lp1128
S'word: do, index: 11'
p1129
aatp1130
Rp1131
(dp1132
g12
Vaux
p1133
sbag0
(g1
g2
(lp1134
(lp1135
S"word: n't, index: 12"
p1136
aatp1137
Rp1138
(dp1139
g12
Vneg
p1140
sbag0
(g1
g2
(lp1141
(lp1142
S'word: Ok, index: 1'
p1143
aatp1144
Rp1145
(dp1146
g12
Vnsubj
p1147
sbatp1148
Rp1149
(dp1150
g12
S'word: know, index: 13'
p1151
sbatp1152
Rp1153
(dp1154
g12
Vccomp
p1155
sbag0
(g1
g2
(lp1156
(lp1157
S'word: it, index: 15'
p1158
aatp1159
Rp1160
(dp1161
g12
Vnsubj
p1162
sbag0
(g1
g2
(lp1163
g0
(g1
g2
(lp1164
g0
(g1
g2
(lp1165
(lp1166
S'word: ballet, index: 18'
p1167
aatp1168
Rp1169
(dp1170
g12
Vamod
p1171
sbatp1172
Rp1173
(dp1174
g12
S'word: shoes, index: 19'
p1175
sbatp1176
Rp1177
(dp1178
g12
Vprep
p1179
sbatp1180
Rp1181
(dp1182
g12
S'word: looks, index: 16'
p1183
sbatp1184
Rp1185
(dp1186
g12
S'id: 12'
p1187
sbatp1188
Rp1189
(dp1190
g12
S'sentences'
p1191
sb.