ccopy_reg
_reconstructor
p0
(cnltk.tree
Tree
p1
c__builtin__
list
p2
(lp3
g0
(g1
g2
(lp4
g0
(g1
g2
(lp5
g0
(g1
g2
(lp6
Vok
p7
atp8
Rp9
(dp10
S'_label'
p11
VNN
p12
sbag0
(g1
g2
(lp13
V.
p14
atp15
Rp16
(dp17
g11
V.
p18
sbatp19
Rp20
(dp21
g11
VNP
p22
sbatp23
Rp24
(dp25
g11
S'id: 0'
p26
sbag0
(g1
g2
(lp27
g0
(g1
g2
(lp28
g0
(g1
g2
(lp29
g0
(g1
g2
(lp30
VTwo
p31
atp32
Rp33
(dp34
g11
VCD
p35
sbag0
(g1
g2
(lp36
Vpeople
p37
atp38
Rp39
(dp40
g11
VNNS
p41
sbatp42
Rp43
(dp44
g11
VNP
p45
sbag0
(g1
g2
(lp46
g0
(g1
g2
(lp47
Vare
p48
atp49
Rp50
(dp51
g11
VVBP
p52
sbag0
(g1
g2
(lp53
g0
(g1
g2
(lp54
Vhaving
p55
atp56
Rp57
(dp58
g11
VVBG
p59
sbag0
(g1
g2
(lp60
g0
(g1
g2
(lp61
Va
p62
atp63
Rp64
(dp65
g11
VDT
p66
sbag0
(g1
g2
(lp67
Vpicnic
p68
atp69
Rp70
(dp71
g11
VNN
p72
sbatp73
Rp74
(dp75
g11
VNP
p76
sbatp77
Rp78
(dp79
g11
VVP
p80
sbatp81
Rp82
(dp83
g11
VVP
p84
sbag0
(g1
g2
(lp85
V.
p86
atp87
Rp88
(dp89
g11
V.
p90
sbatp91
Rp92
(dp93
g11
VS
p94
sbatp95
Rp96
(dp97
g11
S'id: 1'
p98
sbag0
(g1
g2
(lp99
g0
(g1
g2
(lp100
g0
(g1
g2
(lp101
g0
(g1
g2
(lp102
g0
(g1
g2
(lp103
Vhe
p104
atp105
Rp106
(dp107
g11
VPRP
p108
sbatp109
Rp110
(dp111
g11
VNP
p112
sbag0
(g1
g2
(lp113
g0
(g1
g2
(lp114
V's
p115
atp116
Rp117
(dp118
g11
VVBZ
p119
sbag0
(g1
g2
(lp120
g0
(g1
g2
(lp121
Vreading
p122
atp123
Rp124
(dp125
g11
VNN
p126
sbatp127
Rp128
(dp129
g11
VNP
p130
sbatp131
Rp132
(dp133
g11
VVP
p134
sbatp135
Rp136
(dp137
g11
VS
p138
sbag0
(g1
g2
(lp139
V,
p140
atp141
Rp142
(dp143
g11
V,
p144
sbag0
(g1
g2
(lp145
g0
(g1
g2
(lp146
Vshe
p147
atp148
Rp149
(dp150
g11
VPRP
p151
sbatp152
Rp153
(dp154
g11
VNP
p155
sbag0
(g1
g2
(lp156
g0
(g1
g2
(lp157
V's
p158
atp159
Rp160
(dp161
g11
VVBZ
p162
sbag0
(g1
g2
(lp163
g0
(g1
g2
(lp164
Vpouring
p165
atp166
Rp167
(dp168
g11
VVBG
p169
sbag0
(g1
g2
(lp170
g0
(g1
g2
(lp171
Vsomething
p172
atp173
Rp174
(dp175
g11
VNN
p176
sbatp177
Rp178
(dp179
g11
VNP
p180
sbag0
(g1
g2
(lp181
V,
p182
atp183
Rp184
(dp185
g11
V,
p186
sbag0
(g1
g2
(lp187
g0
(g1
g2
(lp188
g0
(g1
g2
(lp189
Vlook
p190
atp191
Rp192
(dp193
g11
VVB
p194
sbag0
(g1
g2
(lp195
g0
(g1
g2
(lp196
Vlike
p197
atp198
Rp199
(dp200
g11
VIN
p201
sbag0
(g1
g2
(lp202
g0
(g1
g2
(lp203
Vsandwiches
p204
atp205
Rp206
(dp207
g11
VNNS
p208
sbatp209
Rp210
(dp211
g11
VNP
p212
sbatp213
Rp214
(dp215
g11
VPP
p216
sbag0
(g1
g2
(lp217
g0
(g1
g2
(lp218
Vthere
p219
atp220
Rp221
(dp222
g11
VRB
p223
sbatp224
Rp225
(dp226
g11
VADVP
p227
sbatp228
Rp229
(dp230
g11
VVP
p231
sbatp232
Rp233
(dp234
g11
VS
p235
sbatp236
Rp237
(dp238
g11
VVP
p239
sbatp240
Rp241
(dp242
g11
VVP
p243
sbag0
(g1
g2
(lp244
V.
p245
atp246
Rp247
(dp248
g11
V.
p249
sbatp250
Rp251
(dp252
g11
VS
p253
sbatp254
Rp255
(dp256
g11
S'id: 2'
p257
sbag0
(g1
g2
(lp258
g0
(g1
g2
(lp259
g0
(g1
g2
(lp260
VAnd
p261
atp262
Rp263
(dp264
g11
VCC
p265
sbag0
(g1
g2
(lp266
g0
(g1
g2
(lp267
Vanother
p268
atp269
Rp270
(dp271
g11
VDT
p272
sbag0
(g1
g2
(lp273
Vkid
p274
atp275
Rp276
(dp277
g11
VNN
p278
sbag0
(g1
g2
(lp279
g0
(g1
g2
(lp280
g0
(g1
g2
(lp281
g0
(g1
g2
(lp282
Vflying
p283
atp284
Rp285
(dp286
g11
VVBG
p287
sbag0
(g1
g2
(lp288
g0
(g1
g2
(lp289
Va
p290
atp291
Rp292
(dp293
g11
VDT
p294
sbag0
(g1
g2
(lp295
Vkite
p296
atp297
Rp298
(dp299
g11
VNN
p300
sbatp301
Rp302
(dp303
g11
VNP
p304
sbatp305
Rp306
(dp307
g11
VVP
p308
sbatp309
Rp310
(dp311
g11
VS
p312
sbatp313
Rp314
(dp315
g11
VSBAR
p316
sbatp317
Rp318
(dp319
g11
VNP
p320
sbag0
(g1
g2
(lp321
V.
p322
atp323
Rp324
(dp325
g11
V.
p326
sbatp327
Rp328
(dp329
g11
VFRAG
p330
sbatp331
Rp332
(dp333
g11
S'id: 3'
p334
sbag0
(g1
g2
(lp335
g0
(g1
g2
(lp336
g0
(g1
g2
(lp337
g0
(g1
g2
(lp338
VSomeone
p339
atp340
Rp341
(dp342
g11
VNN
p343
sbag0
(g1
g2
(lp344
Velse
p345
atp346
Rp347
(dp348
g11
VRB
p349
sbatp350
Rp351
(dp352
g11
VNP
p353
sbag0
(g1
g2
(lp354
g0
(g1
g2
(lp355
Vover
p356
atp357
Rp358
(dp359
g11
VIN
p360
sbag0
(g1
g2
(lp361
g0
(g1
g2
(lp362
g0
(g1
g2
(lp363
Vhere
p364
atp365
Rp366
(dp367
g11
VRB
p368
sbatp369
Rp370
(dp371
g11
VADVP
p372
sbag0
(g1
g2
(lp373
g0
(g1
g2
(lp374
Vmaking
p375
atp376
Rp377
(dp378
g11
VVBG
p379
sbag0
(g1
g2
(lp380
g0
(g1
g2
(lp381
g0
(g1
g2
(lp382
Va
p383
atp384
Rp385
(dp386
g11
VDT
p387
sbag0
(g1
g2
(lp388
Vdog
p389
atp390
Rp391
(dp392
g11
VNN
p393
sbatp394
Rp395
(dp396
g11
VNP
p397
sbag0
(g1
g2
(lp398
g0
(g1
g2
(lp399
Vrunning
p400
atp401
Rp402
(dp403
g11
VVBG
p404
sbag0
(g1
g2
(lp405
g0
(g1
g2
(lp406
Vwith
p407
atp408
Rp409
(dp410
g11
VIN
p411
sbag0
(g1
g2
(lp412
g0
(g1
g2
(lp413
g0
(g1
g2
(lp414
Vthe
p415
atp416
Rp417
(dp418
g11
VDT
p419
sbag0
(g1
g2
(lp420
Vguy
p421
atp422
Rp423
(dp424
g11
VNN
p425
sbatp426
Rp427
(dp428
g11
VNP
p429
sbag0
(g1
g2
(lp430
g0
(g1
g2
(lp431
Vflying
p432
atp433
Rp434
(dp435
g11
VVBG
p436
sbag0
(g1
g2
(lp437
g0
(g1
g2
(lp438
Vthe
p439
atp440
Rp441
(dp442
g11
VDT
p443
sbag0
(g1
g2
(lp444
Vkite
p445
atp446
Rp447
(dp448
g11
VNN
p449
sbatp450
Rp451
(dp452
g11
VNP
p453
sbatp454
Rp455
(dp456
g11
VVP
p457
sbatp458
Rp459
(dp460
g11
VNP
p461
sbatp462
Rp463
(dp464
g11
VPP
p465
sbatp466
Rp467
(dp468
g11
VVP
p469
sbatp470
Rp471
(dp472
g11
VNP
p473
sbatp474
Rp475
(dp476
g11
VVP
p477
sbatp478
Rp479
(dp480
g11
VS
p481
sbatp482
Rp483
(dp484
g11
VPP
p485
sbag0
(g1
g2
(lp486
V.
p487
atp488
Rp489
(dp490
g11
V.
p491
sbatp492
Rp493
(dp494
g11
VNP
p495
sbatp496
Rp497
(dp498
g11
S'id: 4'
p499
sbag0
(g1
g2
(lp500
g0
(g1
g2
(lp501
g0
(g1
g2
(lp502
g0
(g1
g2
(lp503
VI
p504
atp505
Rp506
(dp507
g11
VPRP
p508
sbatp509
Rp510
(dp511
g11
VNP
p512
sbag0
(g1
g2
(lp513
g0
(g1
g2
(lp514
Vdo
p515
atp516
Rp517
(dp518
g11
VVBP
p519
sbag0
(g1
g2
(lp520
Vn't
p521
atp522
Rp523
(dp524
g11
VRB
p525
sbag0
(g1
g2
(lp526
g0
(g1
g2
(lp527
Vknow
p528
atp529
Rp530
(dp531
g11
VVB
p532
sbag0
(g1
g2
(lp533
g0
(g1
g2
(lp534
g0
(g1
g2
(lp535
Vwhat
p536
atp537
Rp538
(dp539
g11
VWP
p540
sbatp541
Rp542
(dp543
g11
VWHNP
p544
sbag0
(g1
g2
(lp545
g0
(g1
g2
(lp546
g0
(g1
g2
(lp547
Vshe
p548
atp549
Rp550
(dp551
g11
VPRP
p552
sbatp553
Rp554
(dp555
g11
VNP
p556
sbag0
(g1
g2
(lp557
g0
(g1
g2
(lp558
V's
p559
atp560
Rp561
(dp562
g11
VVBZ
p563
sbag0
(g1
g2
(lp564
g0
(g1
g2
(lp565
Vmaking
p566
atp567
Rp568
(dp569
g11
VVBG
p570
sbag0
(g1
g2
(lp571
g0
(g1
g2
(lp572
Vover
p573
atp574
Rp575
(dp576
g11
VIN
p577
sbag0
(g1
g2
(lp578
g0
(g1
g2
(lp579
Vthere
p580
atp581
Rp582
(dp583
g11
VRB
p584
sbatp585
Rp586
(dp587
g11
VNP
p588
sbatp589
Rp590
(dp591
g11
VPP
p592
sbatp593
Rp594
(dp595
g11
VVP
p596
sbatp597
Rp598
(dp599
g11
VVP
p600
sbatp601
Rp602
(dp603
g11
VS
p604
sbatp605
Rp606
(dp607
g11
VSBAR
p608
sbatp609
Rp610
(dp611
g11
VVP
p612
sbatp613
Rp614
(dp615
g11
VVP
p616
sbag0
(g1
g2
(lp617
V.
p618
atp619
Rp620
(dp621
g11
V.
p622
sbatp623
Rp624
(dp625
g11
VS
p626
sbatp627
Rp628
(dp629
g11
S'id: 5'
p630
sbag0
(g1
g2
(lp631
g0
(g1
g2
(lp632
g0
(g1
g2
(lp633
VOk
p634
atp635
Rp636
(dp637
g11
VNN
p638
sbag0
(g1
g2
(lp639
V.
p640
atp641
Rp642
(dp643
g11
V.
p644
sbatp645
Rp646
(dp647
g11
VNP
p648
sbatp649
Rp650
(dp651
g11
S'id: 6'
p652
sbag0
(g1
g2
(lp653
g0
(g1
g2
(lp654
g0
(g1
g2
(lp655
g0
(g1
g2
(lp656
g0
(g1
g2
(lp657
g0
(g1
g2
(lp658
VI
p659
atp660
Rp661
(dp662
g11
VPRP
p663
sbatp664
Rp665
(dp666
g11
VNP
p667
sbag0
(g1
g2
(lp668
g0
(g1
g2
(lp669
g0
(g1
g2
(lp670
g0
(g1
g2
(lp671
Vcan
p672
atp673
Rp674
(dp675
g11
VMD
p676
sbatp677
Rp678
(dp679
g11
VVP
p680
sbatp681
Rp682
(dp683
g11
VS
p684
sbatp685
Rp686
(dp687
g11
VSBAR
p688
sbatp689
Rp690
(dp691
g11
VNP
p692
sbag0
(g1
g2
(lp693
V,
p694
atp695
Rp696
(dp697
g11
V,
p698
sbag0
(g1
g2
(lp699
g0
(g1
g2
(lp700
Va
p701
atp702
Rp703
(dp704
g11
VDT
p705
sbag0
(g1
g2
(lp706
Vsailboat
p707
atp708
Rp709
(dp710
g11
VNN
p711
sbatp712
Rp713
(dp714
g11
VNP
p715
sbag0
(g1
g2
(lp716
V,
p717
atp718
Rp719
(dp720
g11
V,
p721
sbatp722
Rp723
(dp724
g11
VNP
p725
sbag0
(g1
g2
(lp726
g0
(g1
g2
(lp727
Vlooks
p728
atp729
Rp730
(dp731
g11
VVBZ
p732
sbag0
(g1
g2
(lp733
g0
(g1
g2
(lp734
Vlike
p735
atp736
Rp737
(dp738
g11
VIN
p739
sbag0
(g1
g2
(lp740
g0
(g1
g2
(lp741
g0
(g1
g2
(lp742
Va
p743
atp744
Rp745
(dp746
g11
VDT
p747
sbag0
(g1
g2
(lp748
Vsail
p749
atp750
Rp751
(dp752
g11
VNN
p753
sbag0
(g1
g2
(lp754
Vboat
p755
atp756
Rp757
(dp758
g11
VNN
p759
sbatp760
Rp761
(dp762
g11
VNP
p763
sbag0
(g1
g2
(lp764
g0
(g1
g2
(lp765
Vin
p766
atp767
Rp768
(dp769
g11
VIN
p770
sbag0
(g1
g2
(lp771
g0
(g1
g2
(lp772
Vthis
p773
atp774
Rp775
(dp776
g11
VDT
p777
sbag0
(g1
g2
(lp778
Vpicture
p779
atp780
Rp781
(dp782
g11
VNN
p783
sbatp784
Rp785
(dp786
g11
VNP
p787
sbatp788
Rp789
(dp790
g11
VPP
p791
sbatp792
Rp793
(dp794
g11
VNP
p795
sbatp796
Rp797
(dp798
g11
VPP
p799
sbatp800
Rp801
(dp802
g11
VVP
p803
sbag0
(g1
g2
(lp804
V.
p805
atp806
Rp807
(dp808
g11
V.
p809
sbatp810
Rp811
(dp812
g11
VS
p813
sbatp814
Rp815
(dp816
g11
S'id: 7'
p817
sbag0
(g1
g2
(lp818
g0
(g1
g2
(lp819
g0
(g1
g2
(lp820
g0
(g1
g2
(lp821
VGuy
p822
atp823
Rp824
(dp825
g11
VNNP
p826
sbatp827
Rp828
(dp829
g11
VNP
p830
sbag0
(g1
g2
(lp831
g0
(g1
g2
(lp832
g0
(g1
g2
(lp833
g0
(g1
g2
(lp834
Vback
p835
atp836
Rp837
(dp838
g11
VRB
p839
sbatp840
Rp841
(dp842
g11
VADVP
p843
sbag0
(g1
g2
(lp844
g0
(g1
g2
(lp845
Vhere
p846
atp847
Rp848
(dp849
g11
VRB
p850
sbatp851
Rp852
(dp853
g11
VADVP
p854
sbatp855
Rp856
(dp857
g11
VPRN
p858
sbag0
(g1
g2
(lp859
g0
(g1
g2
(lp860
Vfishing
p861
atp862
Rp863
(dp864
g11
VNN
p865
sbatp866
Rp867
(dp868
g11
VPP
p869
sbatp870
Rp871
(dp872
g11
VVP
p873
sbag0
(g1
g2
(lp874
V.
p875
atp876
Rp877
(dp878
g11
V.
p879
sbatp880
Rp881
(dp882
g11
VS
p883
sbatp884
Rp885
(dp886
g11
S'id: 8'
p887
sbag0
(g1
g2
(lp888
g0
(g1
g2
(lp889
g0
(g1
g2
(lp890
g0
(g1
g2
(lp891
VThey
p892
atp893
Rp894
(dp895
g11
VPRP
p896
sbatp897
Rp898
(dp899
g11
VNP
p900
sbag0
(g1
g2
(lp901
g0
(g1
g2
(lp902
Vgot
p903
atp904
Rp905
(dp906
g11
VVBD
p907
sbag0
(g1
g2
(lp908
g0
(g1
g2
(lp909
Vall
p910
atp911
Rp912
(dp913
g11
VPDT
p914
sbag0
(g1
g2
(lp915
Vthis
p916
atp917
Rp918
(dp919
g11
VDT
p920
sbatp921
Rp922
(dp923
g11
VNP
p924
sbag0
(g1
g2
(lp925
g0
(g1
g2
(lp926
Vby
p927
atp928
Rp929
(dp930
g11
VIN
p931
sbag0
(g1
g2
(lp932
g0
(g1
g2
(lp933
Vtheir
p934
atp935
Rp936
(dp937
g11
VPRP$
p938
sbag0
(g1
g2
(lp939
Vhouse
p940
atp941
Rp942
(dp943
g11
VNN
p944
sbatp945
Rp946
(dp947
g11
VNP
p948
sbatp949
Rp950
(dp951
g11
VPP
p952
sbatp953
Rp954
(dp955
g11
VVP
p956
sbag0
(g1
g2
(lp957
V.
p958
atp959
Rp960
(dp961
g11
V.
p962
sbatp963
Rp964
(dp965
g11
VS
p966
sbatp967
Rp968
(dp969
g11
S'id: 9'
p970
sbag0
(g1
g2
(lp971
g0
(g1
g2
(lp972
g0
(g1
g2
(lp973
g0
(g1
g2
(lp974
VA
p975
atp976
Rp977
(dp978
g11
VDT
p979
sbag0
(g1
g2
(lp980
Vcar
p981
atp982
Rp983
(dp984
g11
VNN
p985
sbatp986
Rp987
(dp988
g11
VNP
p989
sbag0
(g1
g2
(lp990
g0
(g1
g2
(lp991
Vin
p992
atp993
Rp994
(dp995
g11
VIN
p996
sbag0
(g1
g2
(lp997
g0
(g1
g2
(lp998
Vthe
p999
atp1000
Rp1001
(dp1002
g11
VDT
p1003
sbag0
(g1
g2
(lp1004
Vdriveway
p1005
atp1006
Rp1007
(dp1008
g11
VNN
p1009
sbatp1010
Rp1011
(dp1012
g11
VNP
p1013
sbatp1014
Rp1015
(dp1016
g11
VPP
p1017
sbag0
(g1
g2
(lp1018
V.
p1019
atp1020
Rp1021
(dp1022
g11
V.
p1023
sbatp1024
Rp1025
(dp1026
g11
VNP
p1027
sbatp1028
Rp1029
(dp1030
g11
S'id: 10'
p1031
sbag0
(g1
g2
(lp1032
g0
(g1
g2
(lp1033
g0
(g1
g2
(lp1034
g0
(g1
g2
(lp1035
VOk
p1036
atp1037
Rp1038
(dp1039
g11
VJJ
p1040
sbag0
(g1
g2
(lp1041
Vsandals
p1042
atp1043
Rp1044
(dp1045
g11
VNNS
p1046
sbatp1047
Rp1048
(dp1049
g11
VNP
p1050
sbag0
(g1
g2
(lp1051
g0
(g1
g2
(lp1052
Von
p1053
atp1054
Rp1055
(dp1056
g11
VIN
p1057
sbag0
(g1
g2
(lp1058
g0
(g1
g2
(lp1059
g0
(g1
g2
(lp1060
g0
(g1
g2
(lp1061
Vthe
p1062
atp1063
Rp1064
(dp1065
g11
VDT
p1066
sbatp1067
Rp1068
(dp1069
g11
VNP
p1070
sbag0
(g1
g2
(lp1071
V,
p1072
atp1073
Rp1074
(dp1075
g11
V,
p1076
sbag0
(g1
g2
(lp1077
g0
(g1
g2
(lp1078
Von
p1079
atp1080
Rp1081
(dp1082
g11
VIN
p1083
sbag0
(g1
g2
(lp1084
g0
(g1
g2
(lp1085
g0
(g1
g2
(lp1086
Vthe
p1087
atp1088
Rp1089
(dp1090
g11
VDT
p1091
sbag0
(g1
g2
(lp1092
Vtowel
p1093
atp1094
Rp1095
(dp1096
g11
VNN
p1097
sbatp1098
Rp1099
(dp1100
g11
VNP
p1101
sbag0
(g1
g2
(lp1102
g0
(g1
g2
(lp1103
Vthere
p1104
atp1105
Rp1106
(dp1107
g11
VRB
p1108
sbatp1109
Rp1110
(dp1111
g11
VADVP
p1112
sbatp1113
Rp1114
(dp1115
g11
VNP
p1116
sbatp1117
Rp1118
(dp1119
g11
VPP
p1120
sbatp1121
Rp1122
(dp1123
g11
VNP
p1124
sbag0
(g1
g2
(lp1125
V,
p1126
atp1127
Rp1128
(dp1129
g11
V,
p1130
sbag0
(g1
g2
(lp1131
g0
(g1
g2
(lp1132
Vas
p1133
atp1134
Rp1135
(dp1136
g11
VRB
p1137
sbag0
(g1
g2
(lp1138
Vwell
p1139
atp1140
Rp1141
(dp1142
g11
VRB
p1143
sbag0
(g1
g2
(lp1144
Vas
p1145
atp1146
Rp1147
(dp1148
g11
VIN
p1149
sbatp1150
Rp1151
(dp1152
g11
VCONJP
p1153
sbag0
(g1
g2
(lp1154
g0
(g1
g2
(lp1155
Va
p1156
atp1157
Rp1158
(dp1159
g11
VDT
p1160
sbag0
(g1
g2
(lp1161
Vradio
p1162
atp1163
Rp1164
(dp1165
g11
VNN
p1166
sbatp1167
Rp1168
(dp1169
g11
VNP
p1170
sbatp1171
Rp1172
(dp1173
g11
VNP
p1174
sbatp1175
Rp1176
(dp1177
g11
VPP
p1178
sbag0
(g1
g2
(lp1179
V.
p1180
atp1181
Rp1182
(dp1183
g11
V.
p1184
sbatp1185
Rp1186
(dp1187
g11
VNP
p1188
sbatp1189
Rp1190
(dp1191
g11
S'id: 11'
p1192
sbag0
(g1
g2
(lp1193
g0
(g1
g2
(lp1194
g0
(g1
g2
(lp1195
g0
(g1
g2
(lp1196
VHe
p1197
atp1198
Rp1199
(dp1200
g11
VPRP
p1201
sbatp1202
Rp1203
(dp1204
g11
VNP
p1205
sbag0
(g1
g2
(lp1206
g0
(g1
g2
(lp1207
V's
p1208
atp1209
Rp1210
(dp1211
g11
VVBZ
p1212
sbag0
(g1
g2
(lp1213
g0
(g1
g2
(lp1214
Vignoring
p1215
atp1216
Rp1217
(dp1218
g11
VVBG
p1219
sbag0
(g1
g2
(lp1220
g0
(g1
g2
(lp1221
Vher
p1222
atp1223
Rp1224
(dp1225
g11
VPRP
p1226
sbatp1227
Rp1228
(dp1229
g11
VNP
p1230
sbag0
(g1
g2
(lp1231
V,
p1232
atp1233
Rp1234
(dp1235
g11
V,
p1236
sbag0
(g1
g2
(lp1237
g0
(g1
g2
(lp1238
Vof
p1239
atp1240
Rp1241
(dp1242
g11
VIN
p1243
sbag0
(g1
g2
(lp1244
g0
(g1
g2
(lp1245
g0
(g1
g2
(lp1246
Vcourse
p1247
atp1248
Rp1249
(dp1250
g11
VNN
p1251
sbatp1252
Rp1253
(dp1254
g11
VNP
p1255
sbag0
(g1
g2
(lp1256
V,
p1257
atp1258
Rp1259
(dp1260
g11
V,
p1261
sbag0
(g1
g2
(lp1262
g0
(g1
g2
(lp1263
g0
(g1
g2
(lp1264
Vcause
p1265
atp1266
Rp1267
(dp1268
g11
VNN
p1269
sbatp1270
Rp1271
(dp1272
g11
VNP
p1273
sbag0
(g1
g2
(lp1274
g0
(g1
g2
(lp1275
g0
(g1
g2
(lp1276
g0
(g1
g2
(lp1277
Vhe
p1278
atp1279
Rp1280
(dp1281
g11
VPRP
p1282
sbatp1283
Rp1284
(dp1285
g11
VNP
p1286
sbag0
(g1
g2
(lp1287
g0
(g1
g2
(lp1288
V's
p1289
atp1290
Rp1291
(dp1292
g11
VVBZ
p1293
sbag0
(g1
g2
(lp1294
g0
(g1
g2
(lp1295
Vpretending
p1296
atp1297
Rp1298
(dp1299
g11
VVBG
p1300
sbag0
(g1
g2
(lp1301
g0
(g1
g2
(lp1302
g0
(g1
g2
(lp1303
Vto
p1304
atp1305
Rp1306
(dp1307
g11
VTO
p1308
sbag0
(g1
g2
(lp1309
g0
(g1
g2
(lp1310
Vbe
p1311
atp1312
Rp1313
(dp1314
g11
VVB
p1315
sbag0
(g1
g2
(lp1316
g0
(g1
g2
(lp1317
Vreading
p1318
atp1319
Rp1320
(dp1321
g11
VVBG
p1322
sbatp1323
Rp1324
(dp1325
g11
VVP
p1326
sbatp1327
Rp1328
(dp1329
g11
VVP
p1330
sbatp1331
Rp1332
(dp1333
g11
VVP
p1334
sbatp1335
Rp1336
(dp1337
g11
VS
p1338
sbatp1339
Rp1340
(dp1341
g11
VVP
p1342
sbatp1343
Rp1344
(dp1345
g11
VVP
p1346
sbatp1347
Rp1348
(dp1349
g11
VS
p1350
sbatp1351
Rp1352
(dp1353
g11
VSBAR
p1354
sbatp1355
Rp1356
(dp1357
g11
VNP
p1358
sbatp1359
Rp1360
(dp1361
g11
VNP
p1362
sbatp1363
Rp1364
(dp1365
g11
VPP
p1366
sbatp1367
Rp1368
(dp1369
g11
VVP
p1370
sbatp1371
Rp1372
(dp1373
g11
VVP
p1374
sbag0
(g1
g2
(lp1375
V.
p1376
atp1377
Rp1378
(dp1379
g11
V.
p1380
sbatp1381
Rp1382
(dp1383
g11
VS
p1384
sbatp1385
Rp1386
(dp1387
g11
S'id: 12'
p1388
sbag0
(g1
g2
(lp1389
g0
(g1
g2
(lp1390
g0
(g1
g2
(lp1391
g0
(g1
g2
(lp1392
VA
p1393
atp1394
Rp1395
(dp1396
g11
VDT
p1397
sbag0
(g1
g2
(lp1398
Vflag
p1399
atp1400
Rp1401
(dp1402
g11
VNN
p1403
sbatp1404
Rp1405
(dp1406
g11
VNP
p1407
sbag0
(g1
g2
(lp1408
g0
(g1
g2
(lp1409
Vflying
p1410
atp1411
Rp1412
(dp1413
g11
VVBG
p1414
sbatp1415
Rp1416
(dp1417
g11
VVP
p1418
sbag0
(g1
g2
(lp1419
V.
p1420
atp1421
Rp1422
(dp1423
g11
V.
p1424
sbatp1425
Rp1426
(dp1427
g11
VNP
p1428
sbatp1429
Rp1430
(dp1431
g11
S'id: 13'
p1432
sbag0
(g1
g2
(lp1433
g0
(g1
g2
(lp1434
g0
(g1
g2
(lp1435
g0
(g1
g2
(lp1436
VI
p1437
atp1438
Rp1439
(dp1440
g11
VPRP
p1441
sbatp1442
Rp1443
(dp1444
g11
VNP
p1445
sbag0
(g1
g2
(lp1446
g0
(g1
g2
(lp1447
Vdid
p1448
atp1449
Rp1450
(dp1451
g11
VVBD
p1452
sbag0
(g1
g2
(lp1453
g0
(g1
g2
(lp1454
Vsay
p1455
atp1456
Rp1457
(dp1458
g11
VVB
p1459
sbag0
(g1
g2
(lp1460
g0
(g1
g2
(lp1461
g0
(g1
g2
(lp1462
Vold
p1463
atp1464
Rp1465
(dp1466
g11
VJJ
p1467
sbag0
(g1
g2
(lp1468
Vdude
p1469
atp1470
Rp1471
(dp1472
g11
VNN
p1473
sbag0
(g1
g2
(lp1474
Vfishing
p1475
atp1476
Rp1477
(dp1478
g11
VNN
p1479
sbatp1480
Rp1481
(dp1482
g11
VNP
p1483
sbag0
(g1
g2
(lp1484
V,
p1485
atp1486
Rp1487
(dp1488
g11
V,
p1489
sbag0
(g1
g2
(lp1490
g0
(g1
g2
(lp1491
Vright
p1492
atp1493
Rp1494
(dp1495
g11
VNN
p1496
sbatp1497
Rp1498
(dp1499
g11
VNP
p1500
sbatp1501
Rp1502
(dp1503
g11
VNP
p1504
sbatp1505
Rp1506
(dp1507
g11
VVP
p1508
sbatp1509
Rp1510
(dp1511
g11
VVP
p1512
sbatp1513
Rp1514
(dp1515
g11
VS
p1516
sbatp1517
Rp1518
(dp1519
g11
S'id: 14'
p1520
sbatp1521
Rp1522
(dp1523
g11
S'sentences'
p1524
sb.