ccopy_reg
_reconstructor
p0
(cnltk.tree
Tree
p1
c__builtin__
list
p2
(lp3
g0
(g1
g2
(lp4
g0
(g1
g2
(lp5
g0
(g1
g2
(lp6
(lp7
S'word: ok, index: 1'
p8
aatp9
Rp10
(dp11
S'_label'
p12
Vnsubj
p13
sbag0
(g1
g2
(lp14
g0
(g1
g2
(lp15
g0
(g1
g2
(lp16
(lp17
S"word: 's, index: 3"
p18
aatp19
Rp20
(dp21
g12
Vnsubj
p22
sbatp23
Rp24
(dp25
g12
S'word: see, index: 4'
p26
sbatp27
Rp28
(dp29
g12
Vccomp
p30
sbatp31
Rp32
(dp33
g12
S'word: let, index: 2'
p34
sbatp35
Rp36
(dp37
g12
S'id: 0'
p38
sbag0
(g1
g2
(lp39
g0
(g1
g2
(lp40
g0
(g1
g2
(lp41
g0
(g1
g2
(lp42
g0
(g1
g2
(lp43
(lp44
S'word: what, index: 3'
p45
aatp46
Rp47
(dp48
g12
Vdobj
p49
sbag0
(g1
g2
(lp50
(lp51
S'word: it, index: 4'
p52
aatp53
Rp54
(dp55
g12
Vnsubj
p56
sbag0
(g1
g2
(lp57
g0
(g1
g2
(lp58
g0
(g1
g2
(lp59
(lp60
S'word: but, index: 6'
p61
aatp62
Rp63
(dp64
g12
Vcc
p65
sbag0
(g1
g2
(lp66
(lp67
S'word: I, index: 7'
p68
aatp69
Rp70
(dp71
g12
Vnsubj
p72
sbag0
(g1
g2
(lp73
(lp74
S'word: ca, index: 8'
p75
aatp76
Rp77
(dp78
g12
Vaux
p79
sbag0
(g1
g2
(lp80
(lp81
S"word: n't, index: 9"
p82
aatp83
Rp84
(dp85
g12
Vneg
p86
sbatp87
Rp88
(dp89
g12
S'word: say, index: 10'
p90
sbatp91
Rp92
(dp93
g12
Vccomp
p94
sbatp95
Rp96
(dp97
g12
S'word: is, index: 5'
p98
sbatp99
Rp100
(dp101
g12
Vccomp
p102
sbag0
(g1
g2
(lp103
(lp104
S'word: I, index: 1'
p105
aatp106
Rp107
(dp108
g12
Vnsubj
p109
sbatp110
Rp111
(dp112
g12
S'word: know, index: 2'
p113
sbatp114
Rp115
(dp116
g12
S'id: 1'
p117
sbag0
(g1
g2
(lp118
g0
(g1
g2
(lp119
g0
(g1
g2
(lp120
g0
(g1
g2
(lp121
g0
(g1
g2
(lp122
g0
(g1
g2
(lp123
g0
(g1
g2
(lp124
(lp125
S'word: not, index: 8'
p126
aatp127
Rp128
(dp129
g12
Vneg
p130
sbag0
(g1
g2
(lp131
(lp132
S'word: a, index: 9'
p133
aatp134
Rp135
(dp136
g12
Vdet
p137
sbatp138
Rp139
(dp140
g12
S'word: horse, index: 10'
p141
sbatp142
Rp143
(dp144
g12
Vappos
p145
sbatp146
Rp147
(dp148
g12
S'word: horse, index: 6'
p149
sbatp150
Rp151
(dp152
g12
Vdobj
p153
sbag0
(g1
g2
(lp154
(lp155
S'word: Horse, index: 1'
p156
aatp157
Rp158
(dp159
g12
Vnsubj
p160
sbag0
(g1
g2
(lp161
(lp162
S'word: I, index: 3'
p163
aatp164
Rp165
(dp166
g12
Vnsubj
p167
sbag0
(g1
g2
(lp168
(lp169
S"word: 'm, index: 4"
p170
aatp171
Rp172
(dp173
g12
Vaux
p174
sbatp175
Rp176
(dp177
g12
S'word: saying, index: 5'
p178
sbatp179
Rp180
(dp181
g12
S'id: 2'
p182
sbag0
(g1
g2
(lp183
g0
(g1
g2
(lp184
g0
(g1
g2
(lp185
g0
(g1
g2
(lp186
g0
(g1
g2
(lp187
g0
(g1
g2
(lp188
g0
(g1
g2
(lp189
(lp190
S'word: it, index: 27'
p191
aatp192
Rp193
(dp194
g12
Vdobj
p195
sbatp196
Rp197
(dp198
g12
S'word: say, index: 26'
p199
sbatp200
Rp201
(dp202
g12
Vxcomp
p203
sbag0
(g1
g2
(lp204
(lp205
S'word: I, index: 24'
p206
aatp207
Rp208
(dp209
g12
Vnsubj
p210
sbatp211
Rp212
(dp213
g12
S'word: cant, index: 25'
p214
sbatp215
Rp216
(dp217
g12
Vconj
p218
sbag0
(g1
g2
(lp219
g0
(g1
g2
(lp220
g0
(g1
g2
(lp221
(lp222
S'word: the, index: 9'
p223
aatp224
Rp225
(dp226
g12
Vdet
p227
sbag0
(g1
g2
(lp228
g0
(g1
g2
(lp229
g0
(g1
g2
(lp230
(lp231
S'word: who, index: 11'
p232
aatp233
Rp234
(dp235
g12
Vnsubj
p236
sbag0
(g1
g2
(lp237
(lp238
S'word: is, index: 12'
p239
aatp240
Rp241
(dp242
g12
Vaux
p243
sbag0
(g1
g2
(lp244
(lp245
S'word: scratch, index: 15'
p246
aatp247
Rp248
(dp249
g12
Vprep
p250
sbatp251
Rp252
(dp253
g12
S'word: trying, index: 13'
p254
sbatp255
Rp256
(dp257
g12
Vrcmod
p258
sbatp259
Rp260
(dp261
g12
S'word: man, index: 10'
p262
sbatp263
Rp264
(dp265
g12
Vdobj
p266
sbag0
(g1
g2
(lp267
g0
(g1
g2
(lp268
g0
(g1
g2
(lp269
(lp270
S'word: Well, index: 1'
p271
aatp272
Rp273
(dp274
g12
Vadvmod
p275
sbag0
(g1
g2
(lp276
g0
(g1
g2
(lp277
g0
(g1
g2
(lp278
(lp279
S"word: 's, index: 3"
p280
aatp281
Rp282
(dp283
g12
Vnsubj
p284
sbatp285
Rp286
(dp287
g12
S'word: see, index: 4'
p288
sbatp289
Rp290
(dp291
g12
Vccomp
p292
sbatp293
Rp294
(dp295
g12
S'word: let, index: 2'
p296
sbatp297
Rp298
(dp299
g12
Vccomp
p300
sbag0
(g1
g2
(lp301
g0
(g1
g2
(lp302
g0
(g1
g2
(lp303
(lp304
S'word: i, index: 17'
p305
aatp306
Rp307
(dp308
g12
Vnsubj
p309
sbag0
(g1
g2
(lp310
g0
(g1
g2
(lp311
g0
(g1
g2
(lp312
(lp313
S'word: what, index: 19'
p314
aatp315
Rp316
(dp317
g12
Vdobj
p318
sbag0
(g1
g2
(lp319
(lp320
S'word: it, index: 20'
p321
aatp322
Rp323
(dp324
g12
Vnsubj
p325
sbatp326
Rp327
(dp328
g12
S'word: is, index: 21'
p329
sbatp330
Rp331
(dp332
g12
Vccomp
p333
sbatp334
Rp335
(dp336
g12
S'word: know, index: 18'
p337
sbatp338
Rp339
(dp340
g12
Vdep
p341
sbag0
(g1
g2
(lp342
g0
(g1
g2
(lp343
g0
(g1
g2
(lp344
(lp345
S'word: the, index: 6'
p346
aatp347
Rp348
(dp349
g12
Vdet
p350
sbatp351
Rp352
(dp353
g12
S'word: man, index: 7'
p354
sbatp355
Rp356
(dp357
g12
Vnsubj
p358
sbatp359
Rp360
(dp361
g12
S'word: has, index: 8'
p362
sbatp363
Rp364
(dp365
g12
S'id: 3'
p366
sbag0
(g1
g2
(lp367
g0
(g1
g2
(lp368
g0
(g1
g2
(lp369
(lp370
S'word: Other, index: 1'
p371
aatp372
Rp373
(dp374
g12
Vdep
p375
sbag0
(g1
g2
(lp376
(lp377
S'word: guy, index: 2'
p378
aatp379
Rp380
(dp381
g12
Vdep
p382
sbag0
(g1
g2
(lp383
(lp384
S'word: who, index: 3'
p385
aatp386
Rp387
(dp388
g12
Vdep
p389
sbag0
(g1
g2
(lp390
(lp391
S"word: 's, index: 4"
p392
aatp393
Rp394
(dp395
g12
Vdep
p396
sbag0
(g1
g2
(lp397
(lp398
S'word: wearing, index: 5'
p399
aatp400
Rp401
(dp402
g12
Vdep
p403
sbag0
(g1
g2
(lp404
(lp405
S'word: all, index: 6'
p406
aatp407
Rp408
(dp409
g12
Vdep
p410
sbag0
(g1
g2
(lp411
(lp412
S'word: the, index: 7'
p413
aatp414
Rp415
(dp416
g12
Vdep
p417
sbag0
(g1
g2
(lp418
(lp419
S'word: paint, index: 8'
p420
aatp421
Rp422
(dp423
g12
Vdep
p424
sbag0
(g1
g2
(lp425
(lp426
S'word: on, index: 9'
p427
aatp428
Rp429
(dp430
g12
Vdep
p431
sbag0
(g1
g2
(lp432
(lp433
S'word: his, index: 10'
p434
aatp435
Rp436
(dp437
g12
Vdep
p438
sbag0
(g1
g2
(lp439
(lp440
S'word: face, index: 11'
p441
aatp442
Rp443
(dp444
g12
Vdep
p445
sbag0
(g1
g2
(lp446
(lp447
S'word: and, index: 13'
p448
aatp449
Rp450
(dp451
g12
Vcc
p452
sbag0
(g1
g2
(lp453
(lp454
S'word: the, index: 14'
p455
aatp456
Rp457
(dp458
g12
Vdep
p459
sbag0
(g1
g2
(lp460
(lp461
S'word: big, index: 15'
p462
aatp463
Rp464
(dp465
g12
Vdep
p466
sbag0
(g1
g2
(lp467
(lp468
S'word: fancy, index: 16'
p469
aatp470
Rp471
(dp472
g12
Vdep
p473
sbag0
(g1
g2
(lp474
(lp475
S'word: hair, index: 17'
p476
aatp477
Rp478
(dp479
g12
Vdep
p480
sbag0
(g1
g2
(lp481
(lp482
S'word: and, index: 19'
p483
aatp484
Rp485
(dp486
g12
Vcc
p487
sbag0
(g1
g2
(lp488
(lp489
S'word: he, index: 20'
p490
aatp491
Rp492
(dp493
g12
Vdep
p494
sbag0
(g1
g2
(lp495
(lp496
S"word: 's, index: 21"
p497
aatp498
Rp499
(dp500
g12
Vdep
p501
sbag0
(g1
g2
(lp502
(lp503
S'word: got, index: 22'
p504
aatp505
Rp506
(dp507
g12
Vdep
p508
sbag0
(g1
g2
(lp509
(lp510
S'word: water, index: 23'
p511
aatp512
Rp513
(dp514
g12
Vdep
p515
sbag0
(g1
g2
(lp516
(lp517
S'word: and, index: 25'
p518
aatp519
Rp520
(dp521
g12
Vcc
p522
sbag0
(g1
g2
(lp523
(lp524
S'word: he, index: 26'
p525
aatp526
Rp527
(dp528
g12
Vdep
p529
sbag0
(g1
g2
(lp530
(lp531
S"word: 's, index: 27"
p532
aatp533
Rp534
(dp535
g12
Vdep
p536
sbag0
(g1
g2
(lp537
(lp538
S'word: trying, index: 28'
p539
aatp540
Rp541
(dp542
g12
Vdep
p543
sbag0
(g1
g2
(lp544
(lp545
S'word: to, index: 29'
p546
aatp547
Rp548
(dp549
g12
Vdep
p550
sbag0
(g1
g2
(lp551
(lp552
S'word: put, index: 30'
p553
aatp554
Rp555
(dp556
g12
Vdep
p557
sbag0
(g1
g2
(lp558
(lp559
S'word: the, index: 31'
p560
aatp561
Rp562
(dp563
g12
Vdep
p564
sbag0
(g1
g2
(lp565
(lp566
S'word: water, index: 32'
p567
aatp568
Rp569
(dp570
g12
Vdep
p571
sbag0
(g1
g2
(lp572
(lp573
S'word: on, index: 33'
p574
aatp575
Rp576
(dp577
g12
Vdep
p578
sbag0
(g1
g2
(lp579
(lp580
S'word: to, index: 34'
p581
aatp582
Rp583
(dp584
g12
Vdep
p585
sbag0
(g1
g2
(lp586
(lp587
S'word: it, index: 36'
p588
aatp589
Rp590
(dp591
g12
Vdep
p592
sbag0
(g1
g2
(lp593
(lp594
S'word: looks, index: 37'
p595
aatp596
Rp597
(dp598
g12
Vdep
p599
sbag0
(g1
g2
(lp600
(lp601
S'word: like, index: 38'
p602
aatp603
Rp604
(dp605
g12
Vdep
p606
sbag0
(g1
g2
(lp607
(lp608
S'word: water, index: 39'
p609
aatp610
Rp611
(dp612
g12
Vdep
p613
sbag0
(g1
g2
(lp614
(lp615
S'word: but, index: 40'
p616
aatp617
Rp618
(dp619
g12
Vcc
p620
sbag0
(g1
g2
(lp621
(lp622
S'word: it, index: 41'
p623
aatp624
Rp625
(dp626
g12
Vdep
p627
sbag0
(g1
g2
(lp628
(lp629
S"word: 's, index: 42"
p630
aatp631
Rp632
(dp633
g12
Vdep
p634
sbag0
(g1
g2
(lp635
(lp636
S'word: not, index: 43'
p637
aatp638
Rp639
(dp640
g12
Vdep
p641
sbag0
(g1
g2
(lp642
(lp643
S'word: it, index: 45'
p644
aatp645
Rp646
(dp647
g12
Vdep
p648
sbag0
(g1
g2
(lp649
(lp650
S"word: 's, index: 46"
p651
aatp652
Rp653
(dp654
g12
Vdep
p655
sbag0
(g1
g2
(lp656
(lp657
S'word: something, index: 47'
p658
aatp659
Rp660
(dp661
g12
Vdep
p662
sbag0
(g1
g2
(lp663
(lp664
S'word: else, index: 48'
p665
aatp666
Rp667
(dp668
g12
Vdep
p669
sbag0
(g1
g2
(lp670
(lp671
S'word: on, index: 50'
p672
aatp673
Rp674
(dp675
g12
Vdep
p676
sbag0
(g1
g2
(lp677
(lp678
S'word: to, index: 51'
p679
aatp680
Rp681
(dp682
g12
Vdep
p683
sbag0
(g1
g2
(lp684
(lp685
S'word: the, index: 52'
p686
aatp687
Rp688
(dp689
g12
Vdep
p690
sbag0
(g1
g2
(lp691
(lp692
S'word: boy, index: 53'
p693
aatp694
Rp695
(dp696
g12
Vdep
p697
sbag0
(g1
g2
(lp698
(lp699
S'word: and, index: 54'
p700
aatp701
Rp702
(dp703
g12
Vcc
p704
sbag0
(g1
g2
(lp705
(lp706
S'word: girl, index: 55'
p707
aatp708
Rp709
(dp710
g12
Vdep
p711
sbag0
(g1
g2
(lp712
(lp713
S'word: and, index: 57'
p714
aatp715
Rp716
(dp717
g12
Vcc
p718
sbag0
(g1
g2
(lp719
(lp720
S'word: the, index: 58'
p721
aatp722
Rp723
(dp724
g12
Vdep
p725
sbag0
(g1
g2
(lp726
(lp727
S'word: mother, index: 59'
p728
aatp729
Rp730
(dp731
g12
Vdep
p732
sbag0
(g1
g2
(lp733
(lp734
S'word: and, index: 61'
p735
aatp736
Rp737
(dp738
g12
Vcc
p739
sbag0
(g1
g2
(lp740
(lp741
S'word: the, index: 62'
p742
aatp743
Rp744
(dp745
g12
Vdep
p746
sbag0
(g1
g2
(lp747
(lp748
S'word: girl, index: 63'
p749
aatp750
Rp751
(dp752
g12
Vdep
p753
sbag0
(g1
g2
(lp754
(lp755
S'word: is, index: 64'
p756
aatp757
Rp758
(dp759
g12
Vdep
p760
sbag0
(g1
g2
(lp761
(lp762
S'word: turned, index: 65'
p763
aatp764
Rp765
(dp766
g12
Vdep
p767
sbag0
(g1
g2
(lp768
(lp769
S'word: around, index: 66'
p770
aatp771
Rp772
(dp773
g12
Vdep
p774
sbag0
(g1
g2
(lp775
(lp776
S'word: and, index: 68'
p777
aatp778
Rp779
(dp780
g12
Vcc
p781
sbag0
(g1
g2
(lp782
(lp783
S'word: twirling, index: 69'
p784
aatp785
Rp786
(dp787
g12
Vdep
p788
sbatp789
Rp790
(dp791
g12
S'word: around, index: 70'
p792
sbatp793
Rp794
(dp795
g12
S'id: 4'
p796
sbag0
(g1
g2
(lp797
g0
(g1
g2
(lp798
g0
(g1
g2
(lp799
(lp800
S'word: he, index: 18'
p801
aatp802
Rp803
(dp804
g12
Vnsubj
p805
sbag0
(g1
g2
(lp806
(lp807
S"word: 's, index: 19"
p808
aatp809
Rp810
(dp811
g12
Vaux
p812
sbag0
(g1
g2
(lp813
g0
(g1
g2
(lp814
g0
(g1
g2
(lp815
g0
(g1
g2
(lp816
g0
(g1
g2
(lp817
(lp818
S'word: it, index: 16'
p819
aatp820
Rp821
(dp822
g12
Vdobj
p823
sbag0
(g1
g2
(lp824
(lp825
S'word: well, index: 11'
p826
aatp827
Rp828
(dp829
g12
Vadvmod
p830
sbag0
(g1
g2
(lp831
(lp832
S'word: I, index: 12'
p833
aatp834
Rp835
(dp836
g12
Vnsubj
p837
sbag0
(g1
g2
(lp838
(lp839
S'word: ca, index: 13'
p840
aatp841
Rp842
(dp843
g12
Vaux
p844
sbag0
(g1
g2
(lp845
(lp846
S"word: n't, index: 14"
p847
aatp848
Rp849
(dp850
g12
Vneg
p851
sbatp852
Rp853
(dp854
g12
S'word: say, index: 15'
p855
sbatp856
Rp857
(dp858
g12
Vparataxis
p859
sbag0
(g1
g2
(lp860
g0
(g1
g2
(lp861
g0
(g1
g2
(lp862
(lp863
S'word: A, index: 1'
p864
aatp865
Rp866
(dp867
g12
Vdet
p868
sbatp869
Rp870
(dp871
g12
S'word: man, index: 2'
p872
sbatp873
Rp874
(dp875
g12
Vnsubj
p876
sbag0
(g1
g2
(lp877
g0
(g1
g2
(lp878
g0
(g1
g2
(lp879
(lp880
S'word: up, index: 3'
p881
aatp882
Rp883
(dp884
g12
Vadvmod
p885
sbatp886
Rp887
(dp888
g12
S'word: above, index: 4'
p889
sbatp890
Rp891
(dp892
g12
Vadvmod
p893
sbag0
(g1
g2
(lp894
(lp895
S'word: is, index: 5'
p896
aatp897
Rp898
(dp899
g12
Vaux
p900
sbag0
(g1
g2
(lp901
(lp902
S'word: up, index: 7'
p903
aatp904
Rp905
(dp906
g12
Vprt
p907
sbag0
(g1
g2
(lp908
g0
(g1
g2
(lp909
g0
(g1
g2
(lp910
(lp911
S'word: high, index: 8'
p912
aatp913
Rp914
(dp915
g12
Vadvmod
p916
sbatp917
Rp918
(dp919
g12
S'word: up, index: 9'
p920
sbatp921
Rp922
(dp923
g12
Vadvmod
p924
sbatp925
Rp926
(dp927
g12
S'word: climbing, index: 6'
p928
sbatp929
Rp930
(dp931
g12
Vccomp
p932
sbag0
(g1
g2
(lp933
g0
(g1
g2
(lp934
g0
(g1
g2
(lp935
(lp936
S'word: the, index: 22'
p937
aatp938
Rp939
(dp940
g12
Vdet
p941
sbatp942
Rp943
(dp944
g12
S'word: top, index: 23'
p945
sbatp946
Rp947
(dp948
g12
Vprep
p949
sbatp950
Rp951
(dp952
g12
S'word: walking, index: 20'
p953
sbatp954
Rp955
(dp956
g12
S'id: 5'
p957
sbag0
(g1
g2
(lp958
g0
(g1
g2
(lp959
g0
(g1
g2
(lp960
g0
(g1
g2
(lp961
g0
(g1
g2
(lp962
g0
(g1
g2
(lp963
g0
(g1
g2
(lp964
(lp965
S'word: the, index: 17'
p966
aatp967
Rp968
(dp969
g12
Vdet
p970
sbatp971
Rp972
(dp973
g12
S'word: horse, index: 18'
p974
sbatp975
Rp976
(dp977
g12
Vnsubj
p978
sbag0
(g1
g2
(lp979
(lp980
S'word: is, index: 19'
p981
aatp982
Rp983
(dp984
g12
Vaux
p985
sbag0
(g1
g2
(lp986
(lp987
S'word: just, index: 20'
p988
aatp989
Rp990
(dp991
g12
Vadvmod
p992
sbag0
(g1
g2
(lp993
(lp994
S'word: around, index: 22'
p995
aatp996
Rp997
(dp998
g12
Vadvmod
p999
sbatp1000
Rp1001
(dp1002
g12
S'word: walking, index: 21'
p1003
sbatp1004
Rp1005
(dp1006
g12
Vconj
p1007
sbag0
(g1
g2
(lp1008
g0
(g1
g2
(lp1009
g0
(g1
g2
(lp1010
(lp1011
S'word: the, index: 3'
p1012
aatp1013
Rp1014
(dp1015
g12
Vdet
p1016
sbag0
(g1
g2
(lp1017
(lp1018
S'word: very, index: 4'
p1019
aatp1020
Rp1021
(dp1022
g12
Vadvmod
p1023
sbag0
(g1
g2
(lp1024
(lp1025
S'word: far, index: 5'
p1026
aatp1027
Rp1028
(dp1029
g12
Vadvmod
p1030
sbatp1031
Rp1032
(dp1033
g12
S'word: right, index: 6'
p1034
sbatp1035
Rp1036
(dp1037
g12
Vprep
p1038
sbag0
(g1
g2
(lp1039
(lp1040
S'word: i, index: 7'
p1041
aatp1042
Rp1043
(dp1044
g12
Vnsubj
p1045
sbag0
(g1
g2
(lp1046
g0
(g1
g2
(lp1047
g0
(g1
g2
(lp1048
g0
(g1
g2
(lp1049
g0
(g1
g2
(lp1050
(lp1051
S'word: the, index: 9'
p1052
aatp1053
Rp1054
(dp1055
g12
Vdet
p1056
sbag0
(g1
g2
(lp1057
(lp1058
S"word: 's, index: 11"
p1059
aatp1060
Rp1061
(dp1062
g12
Vpossessive
p1063
sbatp1064
Rp1065
(dp1066
g12
S'word: lady, index: 10'
p1067
sbatp1068
Rp1069
(dp1070
g12
Vnsubj
p1071
sbag0
(g1
g2
(lp1072
g0
(g1
g2
(lp1073
g0
(g1
g2
(lp1074
(lp1075
S'word: the, index: 13'
p1076
aatp1077
Rp1078
(dp1079
g12
Vdet
p1080
sbatp1081
Rp1082
(dp1083
g12
S'word: horse, index: 14'
p1084
sbatp1085
Rp1086
(dp1087
g12
Vdobj
p1088
sbatp1089
Rp1090
(dp1091
g12
S'word: riding, index: 12'
p1092
sbatp1093
Rp1094
(dp1095
g12
Vdep
p1096
sbatp1097
Rp1098
(dp1099
g12
S'word: see, index: 8'
p1100
sbatp1101
Rp1102
(dp1103
g12
S'id: 6'
p1104
sbag0
(g1
g2
(lp1105
g0
(g1
g2
(lp1106
g0
(g1
g2
(lp1107
g0
(g1
g2
(lp1108
g0
(g1
g2
(lp1109
(lp1110
S'word: to, index: 6'
p1111
aatp1112
Rp1113
(dp1114
g12
Vaux
p1115
sbag0
(g1
g2
(lp1116
g0
(g1
g2
(lp1117
g0
(g1
g2
(lp1118
(lp1119
S'word: her, index: 9'
p1120
aatp1121
Rp1122
(dp1123
g12
Vposs
p1124
sbatp1125
Rp1126
(dp1127
g12
S'word: toes, index: 10'
p1128
sbatp1129
Rp1130
(dp1131
g12
Vprep
p1132
sbag0
(g1
g2
(lp1133
g0
(g1
g2
(lp1134
g0
(g1
g2
(lp1135
(lp1136
S'word: just, index: 14'
p1137
aatp1138
Rp1139
(dp1140
g12
Vadvmod
p1141
sbatp1142
Rp1143
(dp1144
g12
S'word: she, index: 13'
p1145
sbatp1146
Rp1147
(dp1148
g12
Vconj
p1149
sbatp1150
Rp1151
(dp1152
g12
S'word: go, index: 7'
p1153
sbatp1154
Rp1155
(dp1156
g12
Vxcomp
p1157
sbag0
(g1
g2
(lp1158
g1143
atp1159
Rp1160
(dp1161
g12
Vxcomp
p1162
sbag0
(g1
g2
(lp1163
(lp1164
S'word: she, index: 2'
p1165
aatp1166
Rp1167
(dp1168
g12
Vnsubj
p1169
sbag0
(g1
g2
(lp1170
(lp1171
S"word: 's, index: 3"
p1172
aatp1173
Rp1174
(dp1175
g12
Vaux
p1176
sbag0
(g1
g2
(lp1177
(lp1178
S'word: getting, index: 4'
p1179
aatp1180
Rp1181
(dp1182
g12
Vdep
p1183
sbag0
(g1
g2
(lp1184
g0
(g1
g2
(lp1185
g0
(g1
g2
(lp1186
(lp1187
S'word: there, index: 21'
p1188
aatp1189
Rp1190
(dp1191
g12
Vadvmod
p1192
sbag0
(g1
g2
(lp1193
(lp1194
S'word: she, index: 17'
p1195
aatp1196
Rp1197
(dp1198
g12
Vnsubj
p1199
sbag0
(g1
g2
(lp1200
(lp1201
S"word: 's, index: 18"
p1202
aatp1203
Rp1204
(dp1205
g12
Vaux
p1206
sbag0
(g1
g2
(lp1207
(lp1208
S'word: just, index: 19'
p1209
aatp1210
Rp1211
(dp1212
g12
Vadvmod
p1213
sbatp1214
Rp1215
(dp1216
g12
S'word: sitting, index: 20'
p1217
sbatp1218
Rp1219
(dp1220
g12
Vconj
p1221
sbatp1222
Rp1223
(dp1224
g12
S'word: ready, index: 5'
p1225
sbatp1226
Rp1227
(dp1228
g12
S'id: 7'
p1229
sbag0
(g1
g2
(lp1230
g0
(g1
g2
(lp1231
g0
(g1
g2
(lp1232
g0
(g1
g2
(lp1233
g0
(g1
g2
(lp1234
(lp1235
S"word: 's, index: 2"
p1236
aatp1237
Rp1238
(dp1239
g12
Vnsubj
p1240
sbatp1241
Rp1242
(dp1243
g12
S'word: see, index: 3'
p1244
sbatp1245
Rp1246
(dp1247
g12
Vccomp
p1248
sbatp1249
Rp1250
(dp1251
g12
S'word: Let, index: 1'
p1252
sbatp1253
Rp1254
(dp1255
g12
S'id: 8'
p1256
sbag0
(g1
g2
(lp1257
g0
(g1
g2
(lp1258
g0
(g1
g2
(lp1259
g0
(g1
g2
(lp1260
g0
(g1
g2
(lp1261
(lp1262
S'word: I, index: 11'
p1263
aatp1264
Rp1265
(dp1266
g12
Vnsubj
p1267
sbag0
(g1
g2
(lp1268
g0
(g1
g2
(lp1269
g0
(g1
g2
(lp1270
g0
(g1
g2
(lp1271
g0
(g1
g2
(lp1272
(lp1273
S'word: their, index: 14'
p1274
aatp1275
Rp1276
(dp1277
g12
Vposs
p1278
sbatp1279
Rp1280
(dp1281
g12
S'word: names, index: 15'
p1282
sbatp1283
Rp1284
(dp1285
g12
Vdobj
p1286
sbatp1287
Rp1288
(dp1289
g12
S'word: say, index: 13'
p1290
sbatp1291
Rp1292
(dp1293
g12
Vxcomp
p1294
sbatp1295
Rp1296
(dp1297
g12
S'word: cant, index: 12'
p1298
sbatp1299
Rp1300
(dp1301
g12
Vconj
p1302
sbag0
(g1
g2
(lp1303
g0
(g1
g2
(lp1304
g0
(g1
g2
(lp1305
(lp1306
S'word: me, index: 2'
p1307
aatp1308
Rp1309
(dp1310
g12
Vdobj
p1311
sbatp1312
Rp1313
(dp1314
g12
S'word: Pardon, index: 1'
p1315
sbatp1316
Rp1317
(dp1318
g12
Vccomp
p1319
sbag0
(g1
g2
(lp1320
(lp1321
S'word: I, index: 4'
p1322
aatp1323
Rp1324
(dp1325
g12
Vnsubj
p1326
sbag0
(g1
g2
(lp1327
g0
(g1
g2
(lp1328
g0
(g1
g2
(lp1329
(lp1330
S'word: what, index: 6'
p1331
aatp1332
Rp1333
(dp1334
g12
Vdobj
p1335
sbag0
(g1
g2
(lp1336
(lp1337
S'word: it, index: 7'
p1338
aatp1339
Rp1340
(dp1341
g12
Vnsubj
p1342
sbatp1343
Rp1344
(dp1345
g12
S'word: is, index: 8'
p1346
sbatp1347
Rp1348
(dp1349
g12
Vccomp
p1350
sbatp1351
Rp1352
(dp1353
g12
S'word: know, index: 5'
p1354
sbatp1355
Rp1356
(dp1357
g12
S'id: 9'
p1358
sbag0
(g1
g2
(lp1359
g0
(g1
g2
(lp1360
g0
(g1
g2
(lp1361
g0
(g1
g2
(lp1362
g0
(g1
g2
(lp1363
g0
(g1
g2
(lp1364
g0
(g1
g2
(lp1365
(lp1366
S'word: Only, index: 1'
p1367
aatp1368
Rp1369
(dp1370
g12
Vadvmod
p1371
sbag0
(g1
g2
(lp1372
g0
(g1
g2
(lp1373
g0
(g1
g2
(lp1374
(lp1375
S'word: i, index: 3'
p1376
aatp1377
Rp1378
(dp1379
g12
Vnsubj
p1380
sbag0
(g1
g2
(lp1381
(lp1382
S'word: really, index: 4'
p1383
aatp1384
Rp1385
(dp1386
g12
Vadvmod
p1387
sbatp1388
Rp1389
(dp1390
g12
S'word: say, index: 5'
p1391
sbatp1392
Rp1393
(dp1394
g12
Vrcmod
p1395
sbatp1396
Rp1397
(dp1398
g12
S'word: thing, index: 2'
p1399
sbatp1400
Rp1401
(dp1402
g12
Vnsubj
p1403
sbag0
(g1
g2
(lp1404
(lp1405
S'word: is, index: 6'
p1406
aatp1407
Rp1408
(dp1409
g12
Vcop
p1410
sbag0
(g1
g2
(lp1411
(lp1412
S'word: the, index: 7'
p1413
aatp1414
Rp1415
(dp1416
g12
Vdet
p1417
sbatp1418
Rp1419
(dp1420
g12
S'word: horse, index: 8'
p1421
sbatp1422
Rp1423
(dp1424
g12
Vccomp
p1425
sbag0
(g1
g2
(lp1426
(lp1427
S'word: I, index: 10'
p1428
aatp1429
Rp1430
(dp1431
g12
Vnsubj
p1432
sbag0
(g1
g2
(lp1433
g0
(g1
g2
(lp1434
g0
(g1
g2
(lp1435
(lp1436
S'word: horse, index: 13'
p1437
aatp1438
Rp1439
(dp1440
g12
Vdobj
p1441
sbatp1442
Rp1443
(dp1444
g12
S'word: say, index: 12'
p1445
sbatp1446
Rp1447
(dp1448
g12
Vxcomp
p1449
sbatp1450
Rp1451
(dp1452
g12
S'word: cant, index: 11'
p1453
sbatp1454
Rp1455
(dp1456
g12
S'id: 10'
p1457
sbatp1458
Rp1459
(dp1460
g12
S'sentences'
p1461
sb.