ccopy_reg
_reconstructor
p0
(cnltk.tree
Tree
p1
c__builtin__
list
p2
(lp3
g0
(g1
g2
(lp4
g0
(g1
g2
(lp5
g0
(g1
g2
(lp6
g0
(g1
g2
(lp7
Vlook
p8
atp9
Rp10
(dp11
S'_label'
p12
VVB
p13
sbag0
(g1
g2
(lp14
g0
(g1
g2
(lp15
Vlike
p16
atp17
Rp18
(dp19
g12
VIN
p20
sbag0
(g1
g2
(lp21
g0
(g1
g2
(lp22
Va
p23
atp24
Rp25
(dp26
g12
VDT
p27
sbag0
(g1
g2
(lp28
Vnice
p29
atp30
Rp31
(dp32
g12
VJJ
p33
sbag0
(g1
g2
(lp34
g0
(g1
g2
(lp35
g0
(g1
g2
(lp36
Va
p37
atp38
Rp39
(dp40
g12
VDT
p41
sbag0
(g1
g2
(lp42
Vhouse
p43
atp44
Rp45
(dp46
g12
VNN
p47
sbatp48
Rp49
(dp50
g12
VNP
p51
sbag0
(g1
g2
(lp52
g0
(g1
g2
(lp53
Von
p54
atp55
Rp56
(dp57
g12
VIN
p58
sbag0
(g1
g2
(lp59
g0
(g1
g2
(lp60
Vthe
p61
atp62
Rp63
(dp64
g12
VDT
p65
sbag0
(g1
g2
(lp66
Vlake
p67
atp68
Rp69
(dp70
g12
VNN
p71
sbatp72
Rp73
(dp74
g12
VNP
p75
sbatp76
Rp77
(dp78
g12
VPP
p79
sbatp80
Rp81
(dp82
g12
VNP
p83
sbatp84
Rp85
(dp86
g12
VNP
p87
sbatp88
Rp89
(dp90
g12
VPP
p91
sbatp92
Rp93
(dp94
g12
VVP
p95
sbag0
(g1
g2
(lp96
V.
p97
atp98
Rp99
(dp100
g12
V.
p101
sbatp102
Rp103
(dp104
g12
VS
p105
sbatp106
Rp107
(dp108
g12
S'id: 0'
p109
sbag0
(g1
g2
(lp110
g0
(g1
g2
(lp111
g0
(g1
g2
(lp112
g0
(g1
g2
(lp113
VEverybody
p114
atp115
Rp116
(dp117
g12
VNN
p118
sbag0
(g1
g2
(lp119
g0
(g1
g2
(lp120
g0
(g1
g2
(lp121
V's
p122
atp123
Rp124
(dp125
g12
VPOS
p126
sbatp127
Rp128
(dp129
g12
VNP
p130
sbag0
(g1
g2
(lp131
g0
(g1
g2
(lp132
Vhaving
p133
atp134
Rp135
(dp136
g12
VVBG
p137
sbag0
(g1
g2
(lp138
g0
(g1
g2
(lp139
Vfun
p140
atp141
Rp142
(dp143
g12
VNN
p144
sbatp145
Rp146
(dp147
g12
VNP
p148
sbag0
(g1
g2
(lp149
g0
(g1
g2
(lp150
Vat
p151
atp152
Rp153
(dp154
g12
VIN
p155
sbag0
(g1
g2
(lp156
g0
(g1
g2
(lp157
Vthe
p158
atp159
Rp160
(dp161
g12
VDT
p162
sbag0
(g1
g2
(lp163
Vlake
p164
atp165
Rp166
(dp167
g12
VNN
p168
sbatp169
Rp170
(dp171
g12
VNP
p172
sbatp173
Rp174
(dp175
g12
VPP
p176
sbatp177
Rp178
(dp179
g12
VVP
p180
sbatp181
Rp182
(dp183
g12
VS
p184
sbatp185
Rp186
(dp187
g12
VVP
p188
sbag0
(g1
g2
(lp189
V.
p190
atp191
Rp192
(dp193
g12
V.
p194
sbatp195
Rp196
(dp197
g12
VS
p198
sbatp199
Rp200
(dp201
g12
S'id: 1'
p202
sbag0
(g1
g2
(lp203
g0
(g1
g2
(lp204
g0
(g1
g2
(lp205
g0
(g1
g2
(lp206
VBoy
p207
atp208
Rp209
(dp210
g12
VNN
p211
sbatp212
Rp213
(dp214
g12
VNP
p215
sbag0
(g1
g2
(lp216
g0
(g1
g2
(lp217
Vflying
p218
atp219
Rp220
(dp221
g12
VVBG
p222
sbag0
(g1
g2
(lp223
g0
(g1
g2
(lp224
Va
p225
atp226
Rp227
(dp228
g12
VDT
p229
sbag0
(g1
g2
(lp230
Vkite
p231
atp232
Rp233
(dp234
g12
VNN
p235
sbatp236
Rp237
(dp238
g12
VNP
p239
sbag0
(g1
g2
(lp240
V,
p241
atp242
Rp243
(dp244
g12
V,
p245
sbag0
(g1
g2
(lp246
g0
(g1
g2
(lp247
Vwhile
p248
atp249
Rp250
(dp251
g12
VIN
p252
sbag0
(g1
g2
(lp253
g0
(g1
g2
(lp254
g0
(g1
g2
(lp255
Vhis
p256
atp257
Rp258
(dp259
g12
VPRP$
p260
sbag0
(g1
g2
(lp261
Vmother
p262
atp263
Rp264
(dp265
g12
VNN
p266
sbatp267
Rp268
(dp269
g12
VNP
p270
sbag0
(g1
g2
(lp271
g0
(g1
g2
(lp272
Vis
p273
atp274
Rp275
(dp276
g12
VVBZ
p277
sbag0
(g1
g2
(lp278
g0
(g1
g2
(lp279
Vpouring
p280
atp281
Rp282
(dp283
g12
VVBG
p284
sbag0
(g1
g2
(lp285
g0
(g1
g2
(lp286
Va
p287
atp288
Rp289
(dp290
g12
VDT
p291
sbag0
(g1
g2
(lp292
Vdrink
p293
atp294
Rp295
(dp296
g12
VNN
p297
sbatp298
Rp299
(dp300
g12
VNP
p301
sbag0
(g1
g2
(lp302
g0
(g1
g2
(lp303
V,
p304
atp305
Rp306
(dp307
g12
V,
p308
sbag0
(g1
g2
(lp309
g0
(g1
g2
(lp310
g0
(g1
g2
(lp311
VI
p312
atp313
Rp314
(dp315
g12
VPRP
p316
sbatp317
Rp318
(dp319
g12
VNP
p320
sbag0
(g1
g2
(lp321
g0
(g1
g2
(lp322
Vguess
p323
atp324
Rp325
(dp326
g12
VVBP
p327
sbatp328
Rp329
(dp330
g12
VVP
p331
sbatp332
Rp333
(dp334
g12
VS
p335
sbag0
(g1
g2
(lp336
V,
p337
atp338
Rp339
(dp340
g12
V,
p341
sbatp342
Rp343
(dp344
g12
VPRN
p345
sbag0
(g1
g2
(lp346
g0
(g1
g2
(lp347
Vfor
p348
atp349
Rp350
(dp351
g12
VIN
p352
sbag0
(g1
g2
(lp353
g0
(g1
g2
(lp354
Vthe
p355
atp356
Rp357
(dp358
g12
VDT
p359
sbag0
(g1
g2
(lp360
Vfather
p361
atp362
Rp363
(dp364
g12
VNN
p365
sbatp366
Rp367
(dp368
g12
VNP
p369
sbatp370
Rp371
(dp372
g12
VPP
p373
sbatp374
Rp375
(dp376
g12
VVP
p377
sbatp378
Rp379
(dp380
g12
VVP
p381
sbatp382
Rp383
(dp384
g12
VS
p385
sbatp386
Rp387
(dp388
g12
VSBAR
p389
sbatp390
Rp391
(dp392
g12
VVP
p393
sbag0
(g1
g2
(lp394
V.
p395
atp396
Rp397
(dp398
g12
V.
p399
sbatp400
Rp401
(dp402
g12
VNP
p403
sbatp404
Rp405
(dp406
g12
S'id: 2'
p407
sbag0
(g1
g2
(lp408
g0
(g1
g2
(lp409
g0
(g1
g2
(lp410
g0
(g1
g2
(lp411
VThey
p412
atp413
Rp414
(dp415
g12
VPRP
p416
sbatp417
Rp418
(dp419
g12
VNP
p420
sbag0
(g1
g2
(lp421
g0
(g1
g2
(lp422
V're
p423
atp424
Rp425
(dp426
g12
VVBP
p427
sbag0
(g1
g2
(lp428
g0
(g1
g2
(lp429
Vsitting
p430
atp431
Rp432
(dp433
g12
VVBG
p434
sbag0
(g1
g2
(lp435
g0
(g1
g2
(lp436
Von
p437
atp438
Rp439
(dp440
g12
VIN
p441
sbag0
(g1
g2
(lp442
g0
(g1
g2
(lp443
Vthe
p444
atp445
Rp446
(dp447
g12
VDT
p448
sbag0
(g1
g2
(lp449
Vblanket
p450
atp451
Rp452
(dp453
g12
VNN
p454
sbag0
(g1
g2
(lp455
Vreading
p456
atp457
Rp458
(dp459
g12
VNN
p460
sbatp461
Rp462
(dp463
g12
VNP
p464
sbatp465
Rp466
(dp467
g12
VPP
p468
sbag0
(g1
g2
(lp469
V,
p470
atp471
Rp472
(dp473
g12
V,
p474
sbag0
(g1
g2
(lp475
g0
(g1
g2
(lp476
Vwhile
p477
atp478
Rp479
(dp480
g12
VIN
p481
sbag0
(g1
g2
(lp482
g0
(g1
g2
(lp483
g0
(g1
g2
(lp484
Vthey
p485
atp486
Rp487
(dp488
g12
VPRP
p489
sbatp490
Rp491
(dp492
g12
VNP
p493
sbag0
(g1
g2
(lp494
g0
(g1
g2
(lp495
Vlisten
p496
atp497
Rp498
(dp499
g12
VVBP
p500
sbag0
(g1
g2
(lp501
g0
(g1
g2
(lp502
Vto
p503
atp504
Rp505
(dp506
g12
VTO
p507
sbag0
(g1
g2
(lp508
g0
(g1
g2
(lp509
Vthe
p510
atp511
Rp512
(dp513
g12
VDT
p514
sbag0
(g1
g2
(lp515
Vradio
p516
atp517
Rp518
(dp519
g12
VNN
p520
sbatp521
Rp522
(dp523
g12
VNP
p524
sbatp525
Rp526
(dp527
g12
VPP
p528
sbatp529
Rp530
(dp531
g12
VVP
p532
sbatp533
Rp534
(dp535
g12
VS
p536
sbatp537
Rp538
(dp539
g12
VSBAR
p540
sbatp541
Rp542
(dp543
g12
VVP
p544
sbatp545
Rp546
(dp547
g12
VVP
p548
sbag0
(g1
g2
(lp549
V.
p550
atp551
Rp552
(dp553
g12
V.
p554
sbatp555
Rp556
(dp557
g12
VS
p558
sbatp559
Rp560
(dp561
g12
S'id: 3'
p562
sbag0
(g1
g2
(lp563
g0
(g1
g2
(lp564
g0
(g1
g2
(lp565
g0
(g1
g2
(lp566
VI
p567
atp568
Rp569
(dp570
g12
VPRP
p571
sbatp572
Rp573
(dp574
g12
VNP
p575
sbag0
(g1
g2
(lp576
g0
(g1
g2
(lp577
Vguess
p578
atp579
Rp580
(dp581
g12
VVBP
p582
sbag0
(g1
g2
(lp583
g0
(g1
g2
(lp584
g0
(g1
g2
(lp585
Vshe
p586
atp587
Rp588
(dp589
g12
VPRP
p590
sbatp591
Rp592
(dp593
g12
VNP
p594
sbag0
(g1
g2
(lp595
g0
(g1
g2
(lp596
Vdoing
p597
atp598
Rp599
(dp600
g12
VVBG
p601
sbag0
(g1
g2
(lp602
g0
(g1
g2
(lp603
Vthat
p604
atp605
Rp606
(dp607
g12
VIN
p608
sbag0
(g1
g2
(lp609
Vbefore
p610
atp611
Rp612
(dp613
g12
VIN
p614
sbag0
(g1
g2
(lp615
g0
(g1
g2
(lp616
g0
(g1
g2
(lp617
Vshe
p618
atp619
Rp620
(dp621
g12
VPRP
p622
sbatp623
Rp624
(dp625
g12
VNP
p626
sbag0
(g1
g2
(lp627
g0
(g1
g2
(lp628
Vopen
p629
atp630
Rp631
(dp632
g12
VVB
p633
sbag0
(g1
g2
(lp634
g0
(g1
g2
(lp635
Vup
p636
atp637
Rp638
(dp639
g12
VRP
p640
sbatp641
Rp642
(dp643
g12
VPRT
p644
sbag0
(g1
g2
(lp645
g0
(g1
g2
(lp646
Vthe
p647
atp648
Rp649
(dp650
g12
VDT
p651
sbag0
(g1
g2
(lp652
Vpicnic
p653
atp654
Rp655
(dp656
g12
VNN
p657
sbag0
(g1
g2
(lp658
Vbasket
p659
atp660
Rp661
(dp662
g12
VNN
p663
sbatp664
Rp665
(dp666
g12
VNP
p667
sbatp668
Rp669
(dp670
g12
VVP
p671
sbatp672
Rp673
(dp674
g12
VS
p675
sbatp676
Rp677
(dp678
g12
VSBAR
p679
sbatp680
Rp681
(dp682
g12
VVP
p683
sbatp684
Rp685
(dp686
g12
VS
p687
sbatp688
Rp689
(dp690
g12
VVP
p691
sbag0
(g1
g2
(lp692
V.
p693
atp694
Rp695
(dp696
g12
V.
p697
sbatp698
Rp699
(dp700
g12
VS
p701
sbatp702
Rp703
(dp704
g12
S'id: 4'
p705
sbag0
(g1
g2
(lp706
g0
(g1
g2
(lp707
g0
(g1
g2
(lp708
g0
(g1
g2
(lp709
g0
(g1
g2
(lp710
VThere
p711
atp712
Rp713
(dp714
g12
VEX
p715
sbatp716
Rp717
(dp718
g12
VNP
p719
sbag0
(g1
g2
(lp720
g0
(g1
g2
(lp721
Va
p722
atp723
Rp724
(dp725
g12
VDT
p726
sbag0
(g1
g2
(lp727
Vman
p728
atp729
Rp730
(dp731
g12
VNN
p732
sbatp733
Rp734
(dp735
g12
VNP
p736
sbatp737
Rp738
(dp739
g12
VNP-TMP
p740
sbag0
(g1
g2
(lp741
g0
(g1
g2
(lp742
Von
p743
atp744
Rp745
(dp746
g12
VIN
p747
sbag0
(g1
g2
(lp748
g0
(g1
g2
(lp749
Vthe
p750
atp751
Rp752
(dp753
g12
VDT
p754
sbag0
(g1
g2
(lp755
Vdock
p756
atp757
Rp758
(dp759
g12
VNN
p760
sbag0
(g1
g2
(lp761
Vfishing
p762
atp763
Rp764
(dp765
g12
VNN
p766
sbatp767
Rp768
(dp769
g12
VNP
p770
sbatp771
Rp772
(dp773
g12
VPP
p774
sbag0
(g1
g2
(lp775
V,
p776
atp777
Rp778
(dp779
g12
V,
p780
sbag0
(g1
g2
(lp781
g0
(g1
g2
(lp782
Vhe
p783
atp784
Rp785
(dp786
g12
VPRP
p787
sbatp788
Rp789
(dp790
g12
VNP
p791
sbag0
(g1
g2
(lp792
g0
(g1
g2
(lp793
Vdone
p794
atp795
Rp796
(dp797
g12
VVBD
p798
sbag0
(g1
g2
(lp799
g0
(g1
g2
(lp800
Vcaught
p801
atp802
Rp803
(dp804
g12
VVBN
p805
sbag0
(g1
g2
(lp806
g0
(g1
g2
(lp807
Va
p808
atp809
Rp810
(dp811
g12
VDT
p812
sbag0
(g1
g2
(lp813
Vfish
p814
atp815
Rp816
(dp817
g12
VNN
p818
sbatp819
Rp820
(dp821
g12
VNP
p822
sbatp823
Rp824
(dp825
g12
VVP
p826
sbatp827
Rp828
(dp829
g12
VVP
p830
sbag0
(g1
g2
(lp831
V.
p832
atp833
Rp834
(dp835
g12
V.
p836
sbatp837
Rp838
(dp839
g12
VS
p840
sbatp841
Rp842
(dp843
g12
S'id: 5'
p844
sbag0
(g1
g2
(lp845
g0
(g1
g2
(lp846
g0
(g1
g2
(lp847
VAnd
p848
atp849
Rp850
(dp851
g12
VCC
p852
sbag0
(g1
g2
(lp853
g0
(g1
g2
(lp854
g0
(g1
g2
(lp855
Vthe
p856
atp857
Rp858
(dp859
g12
VDT
p860
sbag0
(g1
g2
(lp861
Vboy
p862
atp863
Rp864
(dp865
g12
VNN
p866
sbatp867
Rp868
(dp869
g12
VNP
p870
sbag0
(g1
g2
(lp871
g0
(g1
g2
(lp872
g0
(g1
g2
(lp873
Vthat
p874
atp875
Rp876
(dp877
g12
VWDT
p878
sbatp879
Rp880
(dp881
g12
VWHNP
p882
sbag0
(g1
g2
(lp883
g0
(g1
g2
(lp884
g0
(g1
g2
(lp885
V's
p886
atp887
Rp888
(dp889
g12
VVBZ
p890
sbag0
(g1
g2
(lp891
g0
(g1
g2
(lp892
Vflying
p893
atp894
Rp895
(dp896
g12
VVBG
p897
sbag0
(g1
g2
(lp898
g0
(g1
g2
(lp899
Va
p900
atp901
Rp902
(dp903
g12
VDT
p904
sbag0
(g1
g2
(lp905
Vkite
p906
atp907
Rp908
(dp909
g12
VNN
p910
sbatp911
Rp912
(dp913
g12
VNP
p914
sbatp915
Rp916
(dp917
g12
VVP
p918
sbatp919
Rp920
(dp921
g12
VVP
p922
sbatp923
Rp924
(dp925
g12
VS
p926
sbatp927
Rp928
(dp929
g12
VSBAR
p930
sbatp931
Rp932
(dp933
g12
VNP
p934
sbag0
(g1
g2
(lp935
g0
(g1
g2
(lp936
Vgot
p937
atp938
Rp939
(dp940
g12
VVBD
p941
sbag0
(g1
g2
(lp942
g0
(g1
g2
(lp943
g0
(g1
g2
(lp944
Va
p945
atp946
Rp947
(dp948
g12
VDT
p949
sbag0
(g1
g2
(lp950
Vdog
p951
atp952
Rp953
(dp954
g12
VNN
p955
sbatp956
Rp957
(dp958
g12
VNP
p959
sbag0
(g1
g2
(lp960
g0
(g1
g2
(lp961
g0
(g1
g2
(lp962
Vthat
p963
atp964
Rp965
(dp966
g12
VWDT
p967
sbatp968
Rp969
(dp970
g12
VWHNP
p971
sbag0
(g1
g2
(lp972
g0
(g1
g2
(lp973
g0
(g1
g2
(lp974
V's
p975
atp976
Rp977
(dp978
g12
VVBZ
p979
sbag0
(g1
g2
(lp980
g0
(g1
g2
(lp981
Vrunning
p982
atp983
Rp984
(dp985
g12
VVBG
p986
sbag0
(g1
g2
(lp987
g0
(g1
g2
(lp988
Vafter
p989
atp990
Rp991
(dp992
g12
VIN
p993
sbag0
(g1
g2
(lp994
g0
(g1
g2
(lp995
Vhim
p996
atp997
Rp998
(dp999
g12
VPRP
p1000
sbatp1001
Rp1002
(dp1003
g12
VNP
p1004
sbatp1005
Rp1006
(dp1007
g12
VPP
p1008
sbatp1009
Rp1010
(dp1011
g12
VVP
p1012
sbatp1013
Rp1014
(dp1015
g12
VVP
p1016
sbatp1017
Rp1018
(dp1019
g12
VS
p1020
sbatp1021
Rp1022
(dp1023
g12
VSBAR
p1024
sbatp1025
Rp1026
(dp1027
g12
VNP
p1028
sbatp1029
Rp1030
(dp1031
g12
VVP
p1032
sbag0
(g1
g2
(lp1033
V.
p1034
atp1035
Rp1036
(dp1037
g12
V.
p1038
sbatp1039
Rp1040
(dp1041
g12
VS
p1042
sbatp1043
Rp1044
(dp1045
g12
S'id: 6'
p1046
sbag0
(g1
g2
(lp1047
g0
(g1
g2
(lp1048
g0
(g1
g2
(lp1049
g0
(g1
g2
(lp1050
g0
(g1
g2
(lp1051
VThan
p1052
atp1053
Rp1054
(dp1055
g12
VIN
p1056
sbag0
(g1
g2
(lp1057
g0
(g1
g2
(lp1058
g0
(g1
g2
(lp1059
Vthe
p1060
atp1061
Rp1062
(dp1063
g12
VDT
p1064
sbag0
(g1
g2
(lp1065
Vother
p1066
atp1067
Rp1068
(dp1069
g12
VJJ
p1070
sbag0
(g1
g2
(lp1071
Vgirl
p1072
atp1073
Rp1074
(dp1075
g12
VNN
p1076
sbatp1077
Rp1078
(dp1079
g12
VNP
p1080
sbag0
(g1
g2
(lp1081
g0
(g1
g2
(lp1082
Vis
p1083
atp1084
Rp1085
(dp1086
g12
VVBZ
p1087
sbag0
(g1
g2
(lp1088
g0
(g1
g2
(lp1089
Vbuilding
p1090
atp1091
Rp1092
(dp1093
g12
VVBG
p1094
sbag0
(g1
g2
(lp1095
g0
(g1
g2
(lp1096
Va
p1097
atp1098
Rp1099
(dp1100
g12
VDT
p1101
sbag0
(g1
g2
(lp1102
Vsandcastle
p1103
atp1104
Rp1105
(dp1106
g12
VNN
p1107
sbatp1108
Rp1109
(dp1110
g12
VNP
p1111
sbatp1112
Rp1113
(dp1114
g12
VVP
p1115
sbatp1116
Rp1117
(dp1118
g12
VVP
p1119
sbatp1120
Rp1121
(dp1122
g12
VS
p1123
sbatp1124
Rp1125
(dp1126
g12
VSBAR
p1127
sbatp1128
Rp1129
(dp1130
g12
VFRAG
p1131
sbag0
(g1
g2
(lp1132
V,
p1133
atp1134
Rp1135
(dp1136
g12
V,
p1137
sbag0
(g1
g2
(lp1138
g0
(g1
g2
(lp1139
Vshe
p1140
atp1141
Rp1142
(dp1143
g12
VPRP
p1144
sbatp1145
Rp1146
(dp1147
g12
VNP
p1148
sbag0
(g1
g2
(lp1149
g0
(g1
g2
(lp1150
Vgot
p1151
atp1152
Rp1153
(dp1154
g12
VVBD
p1155
sbag0
(g1
g2
(lp1156
g0
(g1
g2
(lp1157
g0
(g1
g2
(lp1158
Va
p1159
atp1160
Rp1161
(dp1162
g12
VDT
p1163
sbag0
(g1
g2
(lp1164
Vshovel
p1165
atp1166
Rp1167
(dp1168
g12
VNN
p1169
sbatp1170
Rp1171
(dp1172
g12
VNP
p1173
sbag0
(g1
g2
(lp1174
Vand
p1175
atp1176
Rp1177
(dp1178
g12
VCC
p1179
sbag0
(g1
g2
(lp1180
g0
(g1
g2
(lp1181
Va
p1182
atp1183
Rp1184
(dp1185
g12
VDT
p1186
sbag0
(g1
g2
(lp1187
Vbucket
p1188
atp1189
Rp1190
(dp1191
g12
VNN
p1192
sbatp1193
Rp1194
(dp1195
g12
VNP
p1196
sbatp1197
Rp1198
(dp1199
g12
VNP
p1200
sbag0
(g1
g2
(lp1201
g0
(g1
g2
(lp1202
Vout
p1203
atp1204
Rp1205
(dp1206
g12
VIN
p1207
sbag0
(g1
g2
(lp1208
g0
(g1
g2
(lp1209
Vthere
p1210
atp1211
Rp1212
(dp1213
g12
VRB
p1214
sbatp1215
Rp1216
(dp1217
g12
VNP
p1218
sbatp1219
Rp1220
(dp1221
g12
VPP
p1222
sbatp1223
Rp1224
(dp1225
g12
VVP
p1226
sbag0
(g1
g2
(lp1227
V.
p1228
atp1229
Rp1230
(dp1231
g12
V.
p1232
sbatp1233
Rp1234
(dp1235
g12
VS
p1236
sbatp1237
Rp1238
(dp1239
g12
S'id: 7'
p1240
sbag0
(g1
g2
(lp1241
g0
(g1
g2
(lp1242
g0
(g1
g2
(lp1243
VAnd
p1244
atp1245
Rp1246
(dp1247
g12
VCC
p1248
sbag0
(g1
g2
(lp1249
g0
(g1
g2
(lp1250
g0
(g1
g2
(lp1251
Vthe
p1252
atp1253
Rp1254
(dp1255
g12
VDT
p1256
sbag0
(g1
g2
(lp1257
Vhouse
p1258
atp1259
Rp1260
(dp1261
g12
VNN
p1262
sbatp1263
Rp1264
(dp1265
g12
VNP
p1266
sbag0
(g1
g2
(lp1267
V,
p1268
atp1269
Rp1270
(dp1271
g12
V,
p1272
sbag0
(g1
g2
(lp1273
g0
(g1
g2
(lp1274
Vthe
p1275
atp1276
Rp1277
(dp1278
g12
VDT
p1279
sbag0
(g1
g2
(lp1280
Vcars
p1281
atp1282
Rp1283
(dp1284
g12
VNNS
p1285
sbatp1286
Rp1287
(dp1288
g12
VNP
p1289
sbatp1290
Rp1291
(dp1292
g12
VNP
p1293
sbag0
(g1
g2
(lp1294
g0
(g1
g2
(lp1295
Vparked
p1296
atp1297
Rp1298
(dp1299
g12
VVBD
p1300
sbag0
(g1
g2
(lp1301
g0
(g1
g2
(lp1302
Vat
p1303
atp1304
Rp1305
(dp1306
g12
VIN
p1307
sbag0
(g1
g2
(lp1308
g0
(g1
g2
(lp1309
g0
(g1
g2
(lp1310
Vthe
p1311
atp1312
Rp1313
(dp1314
g12
VDT
p1315
sbag0
(g1
g2
(lp1316
Vhouse
p1317
atp1318
Rp1319
(dp1320
g12
VNN
p1321
sbatp1322
Rp1323
(dp1324
g12
VNP
p1325
sbag0
(g1
g2
(lp1326
g0
(g1
g2
(lp1327
Vwith
p1328
atp1329
Rp1330
(dp1331
g12
VIN
p1332
sbag0
(g1
g2
(lp1333
g0
(g1
g2
(lp1334
Va
p1335
atp1336
Rp1337
(dp1338
g12
VDT
p1339
sbag0
(g1
g2
(lp1340
Vflag
p1341
atp1342
Rp1343
(dp1344
g12
VNN
p1345
sbag0
(g1
g2
(lp1346
Vpole
p1347
atp1348
Rp1349
(dp1350
g12
VNN
p1351
sbatp1352
Rp1353
(dp1354
g12
VNP
p1355
sbatp1356
Rp1357
(dp1358
g12
VPP
p1359
sbatp1360
Rp1361
(dp1362
g12
VNP
p1363
sbatp1364
Rp1365
(dp1366
g12
VPP
p1367
sbag0
(g1
g2
(lp1368
g0
(g1
g2
(lp1369
Von
p1370
atp1371
Rp1372
(dp1373
g12
VIN
p1374
sbag0
(g1
g2
(lp1375
g0
(g1
g2
(lp1376
Vit
p1377
atp1378
Rp1379
(dp1380
g12
VPRP
p1381
sbatp1382
Rp1383
(dp1384
g12
VNP
p1385
sbatp1386
Rp1387
(dp1388
g12
VPP
p1389
sbag0
(g1
g2
(lp1390
V,
p1391
atp1392
Rp1393
(dp1394
g12
V,
p1395
sbag0
(g1
g2
(lp1396
g0
(g1
g2
(lp1397
Vwith
p1398
atp1399
Rp1400
(dp1401
g12
VIN
p1402
sbag0
(g1
g2
(lp1403
g0
(g1
g2
(lp1404
g0
(g1
g2
(lp1405
g0
(g1
g2
(lp1406
Va
p1407
atp1408
Rp1409
(dp1410
g12
VDT
p1411
sbag0
(g1
g2
(lp1412
Vflag
p1413
atp1414
Rp1415
(dp1416
g12
VNN
p1417
sbatp1418
Rp1419
(dp1420
g12
VNP
p1421
sbag0
(g1
g2
(lp1422
g0
(g1
g2
(lp1423
Vflying
p1424
atp1425
Rp1426
(dp1427
g12
VVBG
p1428
sbatp1429
Rp1430
(dp1431
g12
VVP
p1432
sbatp1433
Rp1434
(dp1435
g12
VNP
p1436
sbag0
(g1
g2
(lp1437
V,
p1438
atp1439
Rp1440
(dp1441
g12
V,
p1442
sbag0
(g1
g2
(lp1443
g0
(g1
g2
(lp1444
g0
(g1
g2
(lp1445
Vflag
p1446
atp1447
Rp1448
(dp1449
g12
VNN
p1450
sbatp1451
Rp1452
(dp1453
g12
VNP
p1454
sbag0
(g1
g2
(lp1455
g0
(g1
g2
(lp1456
Vflying
p1457
atp1458
Rp1459
(dp1460
g12
VVBG
p1461
sbag0
(g1
g2
(lp1462
g0
(g1
g2
(lp1463
Vlike
p1464
atp1465
Rp1466
(dp1467
g12
VIN
p1468
sbag0
(g1
g2
(lp1469
g0
(g1
g2
(lp1470
g0
(g1
g2
(lp1471
Vit
p1472
atp1473
Rp1474
(dp1475
g12
VPRP
p1476
sbatp1477
Rp1478
(dp1479
g12
VNP
p1480
sbag0
(g1
g2
(lp1481
g0
(g1
g2
(lp1482
V's
p1483
atp1484
Rp1485
(dp1486
g12
VVBZ
p1487
sbag0
(g1
g2
(lp1488
g0
(g1
g2
(lp1489
Va
p1490
atp1491
Rp1492
(dp1493
g12
VDT
p1494
sbag0
(g1
g2
(lp1495
Vlittle
p1496
atp1497
Rp1498
(dp1499
g12
VJJ
p1500
sbag0
(g1
g2
(lp1501
Vwindy
p1502
atp1503
Rp1504
(dp1505
g12
VJJ
p1506
sbag0
(g1
g2
(lp1507
Voutside
p1508
atp1509
Rp1510
(dp1511
g12
VNN
p1512
sbatp1513
Rp1514
(dp1515
g12
VNP
p1516
sbatp1517
Rp1518
(dp1519
g12
VVP
p1520
sbatp1521
Rp1522
(dp1523
g12
VS
p1524
sbatp1525
Rp1526
(dp1527
g12
VSBAR
p1528
sbatp1529
Rp1530
(dp1531
g12
VVP
p1532
sbatp1533
Rp1534
(dp1535
g12
VNP
p1536
sbatp1537
Rp1538
(dp1539
g12
VNP
p1540
sbatp1541
Rp1542
(dp1543
g12
VPP
p1544
sbatp1545
Rp1546
(dp1547
g12
VVP
p1548
sbag0
(g1
g2
(lp1549
V.
p1550
atp1551
Rp1552
(dp1553
g12
V.
p1554
sbatp1555
Rp1556
(dp1557
g12
VS
p1558
sbatp1559
Rp1560
(dp1561
g12
S'id: 8'
p1562
sbag0
(g1
g2
(lp1563
g0
(g1
g2
(lp1564
g0
(g1
g2
(lp1565
VAnd
p1566
atp1567
Rp1568
(dp1569
g12
VCC
p1570
sbag0
(g1
g2
(lp1571
g0
(g1
g2
(lp1572
Vthey
p1573
atp1574
Rp1575
(dp1576
g12
VPRP
p1577
sbatp1578
Rp1579
(dp1580
g12
VNP
p1581
sbag0
(g1
g2
(lp1582
g0
(g1
g2
(lp1583
Vgot
p1584
atp1585
Rp1586
(dp1587
g12
VVBD
p1588
sbag0
(g1
g2
(lp1589
g0
(g1
g2
(lp1590
g0
(g1
g2
(lp1591
Va
p1592
atp1593
Rp1594
(dp1595
g12
VDT
p1596
sbag0
(g1
g2
(lp1597
Vfella
p1598
atp1599
Rp1600
(dp1601
g12
VNN
p1602
sbatp1603
Rp1604
(dp1605
g12
VNP
p1606
sbag0
(g1
g2
(lp1607
V,
p1608
atp1609
Rp1610
(dp1611
g12
V,
p1612
sbag0
(g1
g2
(lp1613
g0
(g1
g2
(lp1614
Vtwo
p1615
atp1616
Rp1617
(dp1618
g12
VCD
p1619
sbag0
(g1
g2
(lp1620
Vfellas
p1621
atp1622
Rp1623
(dp1624
g12
VNNS
p1625
sbatp1626
Rp1627
(dp1628
g12
VNP
p1629
sbag0
(g1
g2
(lp1630
V,
p1631
atp1632
Rp1633
(dp1634
g12
V,
p1635
sbatp1636
Rp1637
(dp1638
g12
VNP
p1639
sbag0
(g1
g2
(lp1640
g0
(g1
g2
(lp1641
g0
(g1
g2
(lp1642
g0
(g1
g2
(lp1643
Vtwo
p1644
atp1645
Rp1646
(dp1647
g12
VCD
p1648
sbag0
(g1
g2
(lp1649
Vpeople
p1650
atp1651
Rp1652
(dp1653
g12
VNNS
p1654
sbatp1655
Rp1656
(dp1657
g12
VNP
p1658
sbag0
(g1
g2
(lp1659
Vout
p1660
atp1661
Rp1662
(dp1663
g12
VIN
p1664
sbatp1665
Rp1666
(dp1667
g12
VADVP
p1668
sbag0
(g1
g2
(lp1669
Vin
p1670
atp1671
Rp1672
(dp1673
g12
VIN
p1674
sbag0
(g1
g2
(lp1675
g0
(g1
g2
(lp1676
Va
p1677
atp1678
Rp1679
(dp1680
g12
VDT
p1681
sbag0
(g1
g2
(lp1682
Vboat
p1683
atp1684
Rp1685
(dp1686
g12
VNN
p1687
sbatp1688
Rp1689
(dp1690
g12
VNP
p1691
sbatp1692
Rp1693
(dp1694
g12
VPP
p1695
sbatp1696
Rp1697
(dp1698
g12
VVP
p1699
sbag0
(g1
g2
(lp1700
V.
p1701
atp1702
Rp1703
(dp1704
g12
V.
p1705
sbatp1706
Rp1707
(dp1708
g12
VS
p1709
sbatp1710
Rp1711
(dp1712
g12
S'id: 9'
p1713
sbag0
(g1
g2
(lp1714
g0
(g1
g2
(lp1715
g0
(g1
g2
(lp1716
g0
(g1
g2
(lp1717
VThey
p1718
atp1719
Rp1720
(dp1721
g12
VPRP
p1722
sbatp1723
Rp1724
(dp1725
g12
VNP
p1726
sbag0
(g1
g2
(lp1727
g0
(g1
g2
(lp1728
V're
p1729
atp1730
Rp1731
(dp1732
g12
VVBP
p1733
sbag0
(g1
g2
(lp1734
g0
(g1
g2
(lp1735
Vsailing
p1736
atp1737
Rp1738
(dp1739
g12
VVBG
p1740
sbag0
(g1
g2
(lp1741
g0
(g1
g2
(lp1742
Vup
p1743
atp1744
Rp1745
(dp1746
g12
VRP
p1747
sbag0
(g1
g2
(lp1748
Vand
p1749
atp1750
Rp1751
(dp1752
g12
VCC
p1753
sbag0
(g1
g2
(lp1754
Vdown
p1755
atp1756
Rp1757
(dp1758
g12
VRP
p1759
sbatp1760
Rp1761
(dp1762
g12
VPRT
p1763
sbag0
(g1
g2
(lp1764
g0
(g1
g2
(lp1765
Vthe
p1766
atp1767
Rp1768
(dp1769
g12
VDT
p1770
sbag0
(g1
g2
(lp1771
Vlake
p1772
atp1773
Rp1774
(dp1775
g12
VNN
p1776
sbatp1777
Rp1778
(dp1779
g12
VNP
p1780
sbatp1781
Rp1782
(dp1783
g12
VVP
p1784
sbatp1785
Rp1786
(dp1787
g12
VVP
p1788
sbag0
(g1
g2
(lp1789
V.
p1790
atp1791
Rp1792
(dp1793
g12
V.
p1794
sbatp1795
Rp1796
(dp1797
g12
VS
p1798
sbatp1799
Rp1800
(dp1801
g12
S'id: 10'
p1802
sbag0
(g1
g2
(lp1803
g0
(g1
g2
(lp1804
g0
(g1
g2
(lp1805
g0
(g1
g2
(lp1806
VLook
p1807
atp1808
Rp1809
(dp1810
g12
VVB
p1811
sbag0
(g1
g2
(lp1812
g0
(g1
g2
(lp1813
Vlike
p1814
atp1815
Rp1816
(dp1817
g12
VIN
p1818
sbag0
(g1
g2
(lp1819
g0
(g1
g2
(lp1820
Vthe
p1821
atp1822
Rp1823
(dp1824
g12
VDT
p1825
sbag0
(g1
g2
(lp1826
Vwater
p1827
atp1828
Rp1829
(dp1830
g12
VNN
p1831
sbatp1832
Rp1833
(dp1834
g12
VNP
p1835
sbatp1836
Rp1837
(dp1838
g12
VPP
p1839
sbag0
(g1
g2
(lp1840
g0
(g1
g2
(lp1841
Vdown
p1842
atp1843
Rp1844
(dp1845
g12
VIN
p1846
sbag0
(g1
g2
(lp1847
g0
(g1
g2
(lp1848
g0
(g1
g2
(lp1849
Va
p1850
atp1851
Rp1852
(dp1853
g12
VDT
p1854
sbag0
(g1
g2
(lp1855
Vlittle
p1856
atp1857
Rp1858
(dp1859
g12
VJJ
p1860
sbag0
(g1
g2
(lp1861
Vbit
p1862
atp1863
Rp1864
(dp1865
g12
VNN
p1866
sbatp1867
Rp1868
(dp1869
g12
VQP
p1870
sbatp1871
Rp1872
(dp1873
g12
VNP
p1874
sbag0
(g1
g2
(lp1875
g0
(g1
g2
(lp1876
Vtoo
p1877
atp1878
Rp1879
(dp1880
g12
VRB
p1881
sbatp1882
Rp1883
(dp1884
g12
VADVP
p1885
sbatp1886
Rp1887
(dp1888
g12
VPP
p1889
sbatp1890
Rp1891
(dp1892
g12
VVP
p1893
sbag0
(g1
g2
(lp1894
V.
p1895
atp1896
Rp1897
(dp1898
g12
V.
p1899
sbatp1900
Rp1901
(dp1902
g12
VS
p1903
sbatp1904
Rp1905
(dp1906
g12
S'id: 11'
p1907
sbag0
(g1
g2
(lp1908
g0
(g1
g2
(lp1909
g0
(g1
g2
(lp1910
g0
(g1
g2
(lp1911
VWater
p1912
atp1913
Rp1914
(dp1915
g12
VNNP
p1916
sbatp1917
Rp1918
(dp1919
g12
VNP
p1920
sbag0
(g1
g2
(lp1921
g0
(g1
g2
(lp1922
Vaint
p1923
atp1924
Rp1925
(dp1926
g12
VVB
p1927
sbag0
(g1
g2
(lp1928
g0
(g1
g2
(lp1929
Vup
p1930
atp1931
Rp1932
(dp1933
g12
VRP
p1934
sbatp1935
Rp1936
(dp1937
g12
VPRT
p1938
sbag0
(g1
g2
(lp1939
g0
(g1
g2
(lp1940
g0
(g1
g2
(lp1941
Vas
p1942
atp1943
Rp1944
(dp1945
g12
VRB
p1946
sbag0
(g1
g2
(lp1947
Vhigh
p1948
atp1949
Rp1950
(dp1951
g12
VJJ
p1952
sbatp1953
Rp1954
(dp1955
g12
VADVP
p1956
sbag0
(g1
g2
(lp1957
Vas
p1958
atp1959
Rp1960
(dp1961
g12
VIN
p1962
sbag0
(g1
g2
(lp1963
g0
(g1
g2
(lp1964
g0
(g1
g2
(lp1965
Vit
p1966
atp1967
Rp1968
(dp1969
g12
VPRP
p1970
sbatp1971
Rp1972
(dp1973
g12
VNP
p1974
sbag0
(g1
g2
(lp1975
g0
(g1
g2
(lp1976
Vshould
p1977
atp1978
Rp1979
(dp1980
g12
VMD
p1981
sbag0
(g1
g2
(lp1982
g0
(g1
g2
(lp1983
Vbe
p1984
atp1985
Rp1986
(dp1987
g12
VVB
p1988
sbatp1989
Rp1990
(dp1991
g12
VVP
p1992
sbatp1993
Rp1994
(dp1995
g12
VVP
p1996
sbatp1997
Rp1998
(dp1999
g12
VS
p2000
sbatp2001
Rp2002
(dp2003
g12
VSBAR
p2004
sbatp2005
Rp2006
(dp2007
g12
VVP
p2008
sbag0
(g1
g2
(lp2009
V.
p2010
atp2011
Rp2012
(dp2013
g12
V.
p2014
sbatp2015
Rp2016
(dp2017
g12
VS
p2018
sbatp2019
Rp2020
(dp2021
g12
S'id: 12'
p2022
sbag0
(g1
g2
(lp2023
g0
(g1
g2
(lp2024
g0
(g1
g2
(lp2025
VAnd
p2026
atp2027
Rp2028
(dp2029
g12
VCC
p2030
sbag0
(g1
g2
(lp2031
g0
(g1
g2
(lp2032
Vpretty
p2033
atp2034
Rp2035
(dp2036
g12
VRB
p2037
sbag0
(g1
g2
(lp2038
g0
(g1
g2
(lp2039
Vgood
p2040
atp2041
Rp2042
(dp2043
g12
VJJ
p2044
sbag0
(g1
g2
(lp2045
Vday
p2046
atp2047
Rp2048
(dp2049
g12
VNN
p2050
sbatp2051
Rp2052
(dp2053
g12
VNP
p2054
sbatp2055
Rp2056
(dp2057
g12
VADVP
p2058
sbag0
(g1
g2
(lp2059
V.
p2060
atp2061
Rp2062
(dp2063
g12
V.
p2064
sbatp2065
Rp2066
(dp2067
g12
VFRAG
p2068
sbatp2069
Rp2070
(dp2071
g12
S'id: 13'
p2072
sbag0
(g1
g2
(lp2073
g0
(g1
g2
(lp2074
g0
(g1
g2
(lp2075
g0
(g1
g2
(lp2076
VEverybody
p2077
atp2078
Rp2079
(dp2080
g12
VNN
p2081
sbatp2082
Rp2083
(dp2084
g12
VNP
p2085
sbag0
(g1
g2
(lp2086
g0
(g1
g2
(lp2087
Vhaving
p2088
atp2089
Rp2090
(dp2091
g12
VVBG
p2092
sbag0
(g1
g2
(lp2093
g0
(g1
g2
(lp2094
Vfun
p2095
atp2096
Rp2097
(dp2098
g12
VNN
p2099
sbatp2100
Rp2101
(dp2102
g12
VNP
p2103
sbatp2104
Rp2105
(dp2106
g12
VVP
p2107
sbag0
(g1
g2
(lp2108
V.
p2109
atp2110
Rp2111
(dp2112
g12
V.
p2113
sbatp2114
Rp2115
(dp2116
g12
VNP
p2117
sbatp2118
Rp2119
(dp2120
g12
S'id: 14'
p2121
sbag0
(g1
g2
(lp2122
g0
(g1
g2
(lp2123
g0
(g1
g2
(lp2124
g0
(g1
g2
(lp2125
g0
(g1
g2
(lp2126
g0
(g1
g2
(lp2127
VMan
p2128
atp2129
Rp2130
(dp2131
g12
VNN
p2132
sbag0
(g1
g2
(lp2133
V's
p2134
atp2135
Rp2136
(dp2137
g12
VPOS
p2138
sbatp2139
Rp2140
(dp2141
g12
VNP
p2142
sbag0
(g1
g2
(lp2143
Vwearing
p2144
atp2145
Rp2146
(dp2147
g12
VVBG
p2148
sbag0
(g1
g2
(lp2149
Vglasses
p2150
atp2151
Rp2152
(dp2153
g12
VNNS
p2154
sbatp2155
Rp2156
(dp2157
g12
VNP
p2158
sbag0
(g1
g2
(lp2159
V,
p2160
atp2161
Rp2162
(dp2163
g12
V,
p2164
sbag0
(g1
g2
(lp2165
g0
(g1
g2
(lp2166
Vhe
p2167
atp2168
Rp2169
(dp2170
g12
VPRP
p2171
sbatp2172
Rp2173
(dp2174
g12
VNP
p2175
sbatp2176
Rp2177
(dp2178
g12
VNP
p2179
sbag0
(g1
g2
(lp2180
g0
(g1
g2
(lp2181
g0
(g1
g2
(lp2182
Vthe
p2183
atp2184
Rp2185
(dp2186
g12
VDT
p2187
sbag0
(g1
g2
(lp2188
g0
(g1
g2
(lp2189
Vonly
p2190
atp2191
Rp2192
(dp2193
g12
VRB
p2194
sbag0
(g1
g2
(lp2195
Vone
p2196
atp2197
Rp2198
(dp2199
g12
VCD
p2200
sbatp2201
Rp2202
(dp2203
g12
VQP
p2204
sbatp2205
Rp2206
(dp2207
g12
VNP
p2208
sbag0
(g1
g2
(lp2209
g0
(g1
g2
(lp2210
Vwearing
p2211
atp2212
Rp2213
(dp2214
g12
VVBG
p2215
sbag0
(g1
g2
(lp2216
g0
(g1
g2
(lp2217
Vglasses
p2218
atp2219
Rp2220
(dp2221
g12
VNNS
p2222
sbatp2223
Rp2224
(dp2225
g12
VNP
p2226
sbag0
(g1
g2
(lp2227
g0
(g1
g2
(lp2228
Vtoo
p2229
atp2230
Rp2231
(dp2232
g12
VRB
p2233
sbatp2234
Rp2235
(dp2236
g12
VADVP
p2237
sbatp2238
Rp2239
(dp2240
g12
VVP
p2241
sbatp2242
Rp2243
(dp2244
g12
VNP
p2245
sbag0
(g1
g2
(lp2246
V.
p2247
atp2248
Rp2249
(dp2250
g12
V.
p2251
sbatp2252
Rp2253
(dp2254
g12
VNP
p2255
sbatp2256
Rp2257
(dp2258
g12
S'id: 15'
p2259
sbag0
(g1
g2
(lp2260
g0
(g1
g2
(lp2261
g0
(g1
g2
(lp2262
g0
(g1
g2
(lp2263
VEverybody
p2264
atp2265
Rp2266
(dp2267
g12
VNN
p2268
sbag0
(g1
g2
(lp2269
Velse
p2270
atp2271
Rp2272
(dp2273
g12
VRB
p2274
sbatp2275
Rp2276
(dp2277
g12
VNP
p2278
sbag0
(g1
g2
(lp2279
g0
(g1
g2
(lp2280
Vis
p2281
atp2282
Rp2283
(dp2284
g12
VVBZ
p2285
sbatp2286
Rp2287
(dp2288
g12
VVP
p2289
sbatp2290
Rp2291
(dp2292
g12
VFRAG
p2293
sbatp2294
Rp2295
(dp2296
g12
S'id: 16'
p2297
sbatp2298
Rp2299
(dp2300
g12
S'sentences'
p2301
sb.