ccopy_reg
_reconstructor
p0
(cnltk.tree
Tree
p1
c__builtin__
list
p2
(lp3
g0
(g1
g2
(lp4
g0
(g1
g2
(lp5
g0
(g1
g2
(lp6
g0
(g1
g2
(lp7
g0
(g1
g2
(lp8
(lp9
S'word: dishes, index: 3'
p10
aatp11
Rp12
(dp13
S'_label'
p14
Vdobj
p15
sbatp16
Rp17
(dp18
g14
S'word: wishing, index: 2'
p19
sbatp20
Rp21
(dp22
g14
Vvmod
p23
sbatp24
Rp25
(dp26
g14
S'word: Mama, index: 1'
p27
sbatp28
Rp29
(dp30
g14
S'id: 0'
p31
sbag0
(g1
g2
(lp32
g0
(g1
g2
(lp33
g0
(g1
g2
(lp34
g0
(g1
g2
(lp35
g0
(g1
g2
(lp36
g0
(g1
g2
(lp37
g0
(g1
g2
(lp38
(lp39
S'word: there, index: 5'
p40
aatp41
Rp42
(dp43
g14
Vexpl
p44
sbag0
(g1
g2
(lp45
g0
(g1
g2
(lp46
g0
(g1
g2
(lp47
(lp48
S'word: a, index: 7'
p49
aatp50
Rp51
(dp52
g14
Vdet
p53
sbag0
(g1
g2
(lp54
g0
(g1
g2
(lp55
g0
(g1
g2
(lp56
(lp57
S'word: a, index: 10'
p58
aatp59
Rp60
(dp61
g14
Vdet
p62
sbatp63
Rp64
(dp65
g14
S'word: bar, index: 11'
p66
sbatp67
Rp68
(dp69
g14
Vconj
p70
sbatp71
Rp72
(dp73
g14
S'word: kids, index: 8'
p74
sbatp75
Rp76
(dp77
g14
Vnsubj
p78
sbag0
(g1
g2
(lp79
g64
atp80
Rp81
(dp82
g14
Vnsubj
p83
sbatp84
Rp85
(dp86
g14
S"word: 's, index: 6"
p87
sbatp88
Rp89
(dp90
g14
Vdep
p91
sbag0
(g1
g2
(lp92
g0
(g1
g2
(lp93
g0
(g1
g2
(lp94
(lp95
S'word: a, index: 14'
p96
aatp97
Rp98
(dp99
g14
Vdet
p100
sbatp101
Rp102
(dp103
g14
S'word: girl, index: 15'
p104
sbatp105
Rp106
(dp107
g14
Vconj
p108
sbatp109
Rp110
(dp111
g14
S'word: a, index: 3'
p112
sbatp113
Rp114
(dp115
g14
Vnsubj
p116
sbag0
(g1
g2
(lp117
g102
atp118
Rp119
(dp120
g14
Vnsubj
p121
sbag0
(g1
g2
(lp122
(lp123
S'word: There, index: 1'
p124
aatp125
Rp126
(dp127
g14
Vexpl
p128
sbag0
(g1
g2
(lp129
g0
(g1
g2
(lp130
g0
(g1
g2
(lp131
g110
atp132
Rp133
(dp134
g14
Vnsubj
p135
sbag0
(g1
g2
(lp136
g0
(g1
g2
(lp137
g0
(g1
g2
(lp138
(lp139
S'word: to, index: 19'
p140
aatp141
Rp142
(dp143
g14
Vaux
p144
sbag0
(g1
g2
(lp145
g0
(g1
g2
(lp146
g0
(g1
g2
(lp147
(lp148
S'word: the, index: 21'
p149
aatp150
Rp151
(dp152
g14
Vdet
p153
sbatp154
Rp155
(dp156
g14
S'word: cookies, index: 22'
p157
sbatp158
Rp159
(dp160
g14
Vdobj
p161
sbatp162
Rp163
(dp164
g14
S'word: see, index: 20'
p165
sbatp166
Rp167
(dp168
g14
Vxcomp
p169
sbatp170
Rp171
(dp172
g14
S'word: trying, index: 18'
p173
sbatp174
Rp175
(dp176
g14
Vconj
p177
sbatp178
Rp179
(dp180
g14
S"word: 's, index: 2"
p181
sbatp182
Rp183
(dp184
g14
S'id: 1'
p185
sbag0
(g1
g2
(lp186
g0
(g1
g2
(lp187
g0
(g1
g2
(lp188
g0
(g1
g2
(lp189
g0
(g1
g2
(lp190
g0
(g1
g2
(lp191
g0
(g1
g2
(lp192
g0
(g1
g2
(lp193
g0
(g1
g2
(lp194
(lp195
S'word: the, index: 8'
p196
aatp197
Rp198
(dp199
g14
Vdet
p200
sbag0
(g1
g2
(lp201
(lp202
S'word: kitchen, index: 9'
p203
aatp204
Rp205
(dp206
g14
Vnn
p207
sbag0
(g1
g2
(lp208
(lp209
S'word: water, index: 10'
p210
aatp211
Rp212
(dp213
g14
Vnn
p214
sbag0
(g1
g2
(lp215
(lp216
S'word: flowing, index: 11'
p217
aatp218
Rp219
(dp220
g14
Vamod
p221
sbatp222
Rp223
(dp224
g14
S'word: water, index: 12'
p225
sbatp226
Rp227
(dp228
g14
Vprep
p229
sbag0
(g1
g2
(lp230
(lp231
S'word: the, index: 5'
p232
aatp233
Rp234
(dp235
g14
Vdet
p236
sbatp237
Rp238
(dp239
g14
S'word: take, index: 6'
p240
sbatp241
Rp242
(dp243
g14
Vnsubj
p244
sbag0
(g1
g2
(lp245
g0
(g1
g2
(lp246
g0
(g1
g2
(lp247
(lp248
S'word: the, index: 15'
p249
aatp250
Rp251
(dp252
g14
Vdet
p253
sbatp254
Rp255
(dp256
g14
S'word: floor, index: 16'
p257
sbatp258
Rp259
(dp260
g14
Vprep
p261
sbatp262
Rp263
(dp264
g14
S'word: flowing, index: 13'
p265
sbatp266
Rp267
(dp268
g14
Vrcmod
p269
sbag0
(g1
g2
(lp270
(lp271
S'word: And, index: 1'
p272
aatp273
Rp274
(dp275
g14
Vcc
p276
sbag0
(g1
g2
(lp277
(lp278
S'word: the, index: 2'
p279
aatp280
Rp281
(dp282
g14
Vdet
p283
sbag0
(g1
g2
(lp284
(lp285
S'word: little, index: 3'
p286
aatp287
Rp288
(dp289
g14
Vamod
p290
sbatp291
Rp292
(dp293
g14
S'word: girl, index: 4'
p294
sbatp295
Rp296
(dp297
g14
S'id: 2'
p298
sbag0
(g1
g2
(lp299
g0
(g1
g2
(lp300
g0
(g1
g2
(lp301
(lp302
S'word: you, index: 1'
p303
aatp304
Rp305
(dp306
g14
Vnsubj
p307
sbag0
(g1
g2
(lp308
g0
(g1
g2
(lp309
g0
(g1
g2
(lp310
(lp311
S'word: a, index: 3'
p312
aatp313
Rp314
(dp315
g14
Vdet
p316
sbag0
(g1
g2
(lp317
(lp318
S'word: nice, index: 4'
p319
aatp320
Rp321
(dp322
g14
Vamod
p323
sbatp324
Rp325
(dp326
g14
S'word: kitchen, index: 5'
p327
sbatp328
Rp329
(dp330
g14
Vdobj
p331
sbatp332
Rp333
(dp334
g14
S'word: got, index: 2'
p335
sbatp336
Rp337
(dp338
g14
S'id: 3'
p339
sbag0
(g1
g2
(lp340
g0
(g1
g2
(lp341
g0
(g1
g2
(lp342
g0
(g1
g2
(lp343
g0
(g1
g2
(lp344
g0
(g1
g2
(lp345
g0
(g1
g2
(lp346
(lp347
S'word: that, index: 16'
p348
aatp349
Rp350
(dp351
g14
Vnsubj
p352
sbag0
(g1
g2
(lp353
(lp354
S"word: 's, index: 17"
p355
aatp356
Rp357
(dp358
g14
Vcop
p359
sbag0
(g1
g2
(lp360
(lp361
S'word: a, index: 18'
p362
aatp363
Rp364
(dp365
g14
Vdet
p366
sbatp367
Rp368
(dp369
g14
S'word: cup, index: 19'
p370
sbatp371
Rp372
(dp373
g14
Vccomp
p374
sbag0
(g1
g2
(lp375
g0
(g1
g2
(lp376
g0
(g1
g2
(lp377
g0
(g1
g2
(lp378
g0
(g1
g2
(lp379
g0
(g1
g2
(lp380
g0
(g1
g2
(lp381
(lp382
S'word: what, index: 12'
p383
aatp384
Rp385
(dp386
g14
Vnsubj
p387
sbatp388
Rp389
(dp390
g14
S'word: is, index: 13'
p391
sbatp392
Rp393
(dp394
g14
Vrcmod
p395
sbatp396
Rp397
(dp398
g14
S'word: no, index: 11'
p399
sbatp400
Rp401
(dp402
g14
Vappos
p403
sbatp404
Rp405
(dp406
g14
S'word: cups, index: 9'
p407
sbatp408
Rp409
(dp410
g14
Vnsubj
p411
sbatp412
Rp413
(dp414
g14
S'word: yeah, index: 15'
p415
sbatp416
Rp417
(dp418
g14
Vccomp
p419
sbag0
(g1
g2
(lp420
g0
(g1
g2
(lp421
g0
(g1
g2
(lp422
g413
atp423
Rp424
(dp425
g14
Vconj
p426
sbag0
(g1
g2
(lp427
(lp428
S'word: You, index: 1'
p429
aatp430
Rp431
(dp432
g14
Vnsubj
p433
sbag0
(g1
g2
(lp434
g0
(g1
g2
(lp435
g0
(g1
g2
(lp436
(lp437
S'word: some, index: 3'
p438
aatp439
Rp440
(dp441
g14
Vdet
p442
sbag0
(g1
g2
(lp443
(lp444
S'word: plates, index: 6'
p445
aatp446
Rp447
(dp448
g14
Vappos
p449
sbatp450
Rp451
(dp452
g14
S'word: plates, index: 4'
p453
sbatp454
Rp455
(dp456
g14
Vdobj
p457
sbatp458
Rp459
(dp460
g14
S'word: have, index: 2'
p461
sbatp462
Rp463
(dp464
g14
Vccomp
p465
sbag0
(g1
g2
(lp466
(lp467
S'word: I, index: 21'
p468
aatp469
Rp470
(dp471
g14
Vnsubj
p472
sbag0
(g1
g2
(lp473
(lp474
S'word: so, index: 23'
p475
aatp476
Rp477
(dp478
g14
Vadvmod
p479
sbatp480
Rp481
(dp482
g14
S'word: think, index: 22'
p483
sbatp484
Rp485
(dp486
g14
S'id: 4'
p487
sbag0
(g1
g2
(lp488
g0
(g1
g2
(lp489
g0
(g1
g2
(lp490
(lp491
S'word: I, index: 1'
p492
aatp493
Rp494
(dp495
g14
Vnsubj
p496
sbag0
(g1
g2
(lp497
g0
(g1
g2
(lp498
g0
(g1
g2
(lp499
g0
(g1
g2
(lp500
g0
(g1
g2
(lp501
(lp502
S'word: its, index: 6'
p503
aatp504
Rp505
(dp506
g14
Vpobj
p507
sbatp508
Rp509
(dp510
g14
S'word: but, index: 5'
p511
sbatp512
Rp513
(dp514
g14
Vprep
p515
sbag0
(g1
g2
(lp516
g0
(g1
g2
(lp517
g0
(g1
g2
(lp518
g0
(g1
g2
(lp519
g0
(g1
g2
(lp520
(lp521
S'word: a, index: 10'
p522
aatp523
Rp524
(dp525
g14
Vdet
p526
sbag0
(g1
g2
(lp527
(lp528
S'word: good, index: 11'
p529
aatp530
Rp531
(dp532
g14
Vamod
p533
sbag0
(g1
g2
(lp534
(lp535
S'word: outside, index: 13'
p536
aatp537
Rp538
(dp539
g14
Vamod
p540
sbatp541
Rp542
(dp543
g14
S'word: day, index: 12'
p544
sbatp545
Rp546
(dp547
g14
Vprep
p548
sbatp549
Rp550
(dp551
g14
S'word: look, index: 8'
p552
sbatp553
Rp554
(dp555
g14
Vccomp
p556
sbatp557
Rp558
(dp559
g14
S'word: know, index: 3'
p560
sbatp561
Rp562
(dp563
g14
Vccomp
p564
sbatp565
Rp566
(dp567
g14
S'word: dont, index: 2'
p568
sbatp569
Rp570
(dp571
g14
S'id: 5'
p572
sbag0
(g1
g2
(lp573
g0
(g1
g2
(lp574
g0
(g1
g2
(lp575
g0
(g1
g2
(lp576
g0
(g1
g2
(lp577
g0
(g1
g2
(lp578
g0
(g1
g2
(lp579
(lp580
S'word: a, index: 3'
p581
aatp582
Rp583
(dp584
g14
Vdet
p585
sbatp586
Rp587
(dp588
g14
S'word: window, index: 4'
p589
sbatp590
Rp591
(dp592
g14
Vdobj
p593
sbag0
(g1
g2
(lp594
(lp595
S'word: You, index: 1'
p596
aatp597
Rp598
(dp599
g14
Vnsubj
p600
sbatp601
Rp602
(dp603
g14
S'word: got, index: 2'
p604
sbatp605
Rp606
(dp607
g14
Vccomp
p608
sbag0
(g1
g2
(lp609
g0
(g1
g2
(lp610
g0
(g1
g2
(lp611
(lp612
S'word: your, index: 6'
p613
aatp614
Rp615
(dp616
g14
Vposs
p617
sbatp618
Rp619
(dp620
g14
S'word: mama, index: 7'
p621
sbatp622
Rp623
(dp624
g14
Vnsubj
p625
sbag0
(g1
g2
(lp626
(lp627
S'word: can, index: 8'
p628
aatp629
Rp630
(dp631
g14
Vaux
p632
sbag0
(g1
g2
(lp633
(lp634
S'word: out, index: 10'
p635
aatp636
Rp637
(dp638
g14
Vprt
p639
sbag0
(g1
g2
(lp640
g0
(g1
g2
(lp641
g0
(g1
g2
(lp642
(lp643
S'word: the, index: 11'
p644
aatp645
Rp646
(dp647
g14
Vdet
p648
sbatp649
Rp650
(dp651
g14
S'word: window, index: 12'
p652
sbatp653
Rp654
(dp655
g14
Vdobj
p656
sbatp657
Rp658
(dp659
g14
S'word: see, index: 9'
p660
sbatp661
Rp662
(dp663
g14
S'id: 6'
p664
sbag0
(g1
g2
(lp665
g0
(g1
g2
(lp666
g0
(g1
g2
(lp667
g0
(g1
g2
(lp668
g0
(g1
g2
(lp669
(lp670
S'word: a, index: 6'
p671
aatp672
Rp673
(dp674
g14
Vdet
p675
sbatp676
Rp677
(dp678
g14
S'word: walkway, index: 7'
p679
sbatp680
Rp681
(dp682
g14
Vdobj
p683
sbag0
(g1
g2
(lp684
(lp685
S'word: curtains, index: 10'
p686
aatp687
Rp688
(dp689
g14
Vdobj
p690
sbag0
(g1
g2
(lp691
(lp692
S'word: up, index: 11'
p693
aatp694
Rp695
(dp696
g14
Vadvmod
p697
sbag0
(g1
g2
(lp698
(lp699
S'word: You, index: 1'
p700
aatp701
Rp702
(dp703
g14
Vnsubj
p704
sbag0
(g1
g2
(lp705
g0
(g1
g2
(lp706
g0
(g1
g2
(lp707
g677
atp708
Rp709
(dp710
g14
Vconj
p711
sbag0
(g1
g2
(lp712
(lp713
S'word: curtains, index: 10'
p714
aatp715
Rp716
(dp717
g14
Vconj
p718
sbag0
(g1
g2
(lp719
(lp720
S'word: a, index: 3'
p721
aatp722
Rp723
(dp724
g14
Vdet
p725
sbatp726
Rp727
(dp728
g14
S'word: sidewalk, index: 4'
p729
sbatp730
Rp731
(dp732
g14
Vdobj
p733
sbatp734
Rp735
(dp736
g14
S'word: got, index: 2'
p737
sbatp738
Rp739
(dp740
g14
S'id: 7'
p741
sbag0
(g1
g2
(lp742
g0
(g1
g2
(lp743
g0
(g1
g2
(lp744
(lp745
S'word: Nice, index: 1'
p746
aatp747
Rp748
(dp749
g14
Vamod
p750
sbatp751
Rp752
(dp753
g14
S'word: kitchen, index: 2'
p754
sbatp755
Rp756
(dp757
g14
S'id: 8'
p758
sbag0
(g1
g2
(lp759
g0
(g1
g2
(lp760
g0
(g1
g2
(lp761
(lp762
S'word: eating, index: 2'
p763
aatp764
Rp765
(dp766
g14
Vdep
p767
sbatp768
Rp769
(dp770
g14
S'word: Mama, index: 1'
p771
sbatp772
Rp773
(dp774
g14
S'id: 9'
p775
sbag0
(g1
g2
(lp776
g0
(g1
g2
(lp777
g0
(g1
g2
(lp778
(lp779
S'word: She, index: 1'
p780
aatp781
Rp782
(dp783
g14
Vnsubj
p784
sbag0
(g1
g2
(lp785
(lp786
S'word: not, index: 2'
p787
aatp788
Rp789
(dp790
g14
Vneg
p791
sbag0
(g1
g2
(lp792
(lp793
S'word: shoes, index: 4'
p794
aatp795
Rp796
(dp797
g14
Vdobj
p798
sbag0
(g1
g2
(lp799
g0
(g1
g2
(lp800
g0
(g1
g2
(lp801
(lp802
S'word: the, index: 6'
p803
aatp804
Rp805
(dp806
g14
Vdet
p807
sbatp808
Rp809
(dp810
g14
S'word: feet, index: 7'
p811
sbatp812
Rp813
(dp814
g14
Vprep
p815
sbatp816
Rp817
(dp818
g14
S'word: got, index: 3'
p819
sbatp820
Rp821
(dp822
g14
S'id: 10'
p823
sbag0
(g1
g2
(lp824
g0
(g1
g2
(lp825
g0
(g1
g2
(lp826
(lp827
S'word: shirt, index: 3'
p828
aatp829
Rp830
(dp831
g14
Vappos
p832
sbatp833
Rp834
(dp835
g14
S'word: Water, index: 1'
p836
sbatp837
Rp838
(dp839
g14
S'id: 11'
p840
sbatp841
Rp842
(dp843
g14
S'sentences'
p844
sb.