ccopy_reg
_reconstructor
p0
(cnltk.tree
Tree
p1
c__builtin__
list
p2
(lp3
g0
(g1
g2
(lp4
g0
(g1
g2
(lp5
g0
(g1
g2
(lp6
g0
(g1
g2
(lp7
g0
(g1
g2
(lp8
(lp9
S'word: the, index: 1'
p10
aatp11
Rp12
(dp13
S'_label'
p14
Vdet
p15
sbatp16
Rp17
(dp18
g14
S'word: boil, index: 2'
p19
sbatp20
Rp21
(dp22
g14
Vnsubj
p23
sbag0
(g1
g2
(lp24
(lp25
S'word: was, index: 3'
p26
aatp27
Rp28
(dp29
g14
Vaux
p30
sbag0
(g1
g2
(lp31
g0
(g1
g2
(lp32
g0
(g1
g2
(lp33
(lp34
S'word: a, index: 5'
p35
aatp36
Rp37
(dp38
g14
Vdet
p39
sbatp40
Rp41
(dp42
g14
S'word: kite, index: 6'
p43
sbatp44
Rp45
(dp46
g14
Vdobj
p47
sbatp48
Rp49
(dp50
g14
S'word: following, index: 4'
p51
sbatp52
Rp53
(dp54
g14
S'id: 0'
p55
sbag0
(g1
g2
(lp56
g0
(g1
g2
(lp57
g0
(g1
g2
(lp58
(lp59
S'word: was, index: 3'
p60
aatp61
Rp62
(dp63
g14
Vaux
p64
sbag0
(g1
g2
(lp65
(lp66
S'word: around, index: 5'
p67
aatp68
Rp69
(dp70
g14
Vadvmod
p71
sbag0
(g1
g2
(lp72
g0
(g1
g2
(lp73
g0
(g1
g2
(lp74
(lp75
S'word: the, index: 1'
p76
aatp77
Rp78
(dp79
g14
Vdet
p80
sbatp81
Rp82
(dp83
g14
S'word: dog, index: 2'
p84
sbatp85
Rp86
(dp87
g14
Vnsubj
p88
sbatp89
Rp90
(dp91
g14
S'word: running, index: 4'
p92
sbatp93
Rp94
(dp95
g14
S'id: 1'
p96
sbag0
(g1
g2
(lp97
g0
(g1
g2
(lp98
g0
(g1
g2
(lp99
g0
(g1
g2
(lp100
g0
(g1
g2
(lp101
(lp102
S'word: a, index: 5'
p103
aatp104
Rp105
(dp106
g14
Vdet
p107
sbatp108
Rp109
(dp110
g14
S'word: castle, index: 6'
p111
sbatp112
Rp113
(dp114
g14
Vdobj
p115
sbag0
(g1
g2
(lp116
g0
(g1
g2
(lp117
g0
(g1
g2
(lp118
(lp119
S'word: the, index: 1'
p120
aatp121
Rp122
(dp123
g14
Vdet
p124
sbatp125
Rp126
(dp127
g14
S'word: girl, index: 2'
p128
sbatp129
Rp130
(dp131
g14
Vnsubj
p132
sbag0
(g1
g2
(lp133
(lp134
S'word: was, index: 3'
p135
aatp136
Rp137
(dp138
g14
Vaux
p139
sbatp140
Rp141
(dp142
g14
S'word: planning, index: 4'
p143
sbatp144
Rp145
(dp146
g14
S'id: 2'
p147
sbag0
(g1
g2
(lp148
g0
(g1
g2
(lp149
g0
(g1
g2
(lp150
(lp151
S'word: wine, index: 10'
p152
aatp153
Rp154
(dp155
g14
Vdobj
p156
sbag0
(g1
g2
(lp157
g0
(g1
g2
(lp158
g0
(g1
g2
(lp159
g0
(g1
g2
(lp160
g0
(g1
g2
(lp161
(lp162
S'word: the, index: 1'
p163
aatp164
Rp165
(dp166
g14
Vdet
p167
sbatp168
Rp169
(dp170
g14
S'word: woman, index: 2'
p171
sbatp172
Rp173
(dp174
g14
Vnsubj
p175
sbag0
(g1
g2
(lp176
(lp177
S'word: was, index: 3'
p178
aatp179
Rp180
(dp181
g14
Vaux
p182
sbag0
(g1
g2
(lp183
g0
(g1
g2
(lp184
g0
(g1
g2
(lp185
(lp186
S'word: a, index: 5'
p187
aatp188
Rp189
(dp190
g14
Vdet
p191
sbatp192
Rp193
(dp194
g14
S'word: glass, index: 6'
p195
sbatp196
Rp197
(dp198
g14
Vdobj
p199
sbatp200
Rp201
(dp202
g14
S'word: pouring, index: 4'
p203
sbatp204
Rp205
(dp206
g14
Vccomp
p207
sbag0
(g1
g2
(lp208
(lp209
S'word: I, index: 8'
p210
aatp211
Rp212
(dp213
g14
Vnsubj
p214
sbatp215
Rp216
(dp217
g14
S'word: think, index: 9'
p218
sbatp219
Rp220
(dp221
g14
S'id: 3'
p222
sbag0
(g1
g2
(lp223
g0
(g1
g2
(lp224
g0
(g1
g2
(lp225
(lp226
S'word: off, index: 12'
p227
aatp228
Rp229
(dp230
g14
Vprep
p231
sbag0
(g1
g2
(lp232
g0
(g1
g2
(lp233
g0
(g1
g2
(lp234
(lp235
S'word: the, index: 1'
p236
aatp237
Rp238
(dp239
g14
Vdet
p240
sbatp241
Rp242
(dp243
g14
S'word: man, index: 2'
p244
sbatp245
Rp246
(dp247
g14
Vnsubj
p248
sbag0
(g1
g2
(lp249
(lp250
S'word: was, index: 3'
p251
aatp252
Rp253
(dp254
g14
Vaux
p255
sbag0
(g1
g2
(lp256
g0
(g1
g2
(lp257
g0
(g1
g2
(lp258
g0
(g1
g2
(lp259
g0
(g1
g2
(lp260
g0
(g1
g2
(lp261
g0
(g1
g2
(lp262
(lp263
S'word: silently, index: 8'
p264
aatp265
Rp266
(dp267
g14
Vadvmod
p268
sbag0
(g1
g2
(lp269
g0
(g1
g2
(lp270
g0
(g1
g2
(lp271
(lp272
S'word: his, index: 10'
p273
aatp274
Rp275
(dp276
g14
Vposs
p277
sbatp278
Rp279
(dp280
g14
S'word: shoes, index: 11'
p281
sbatp282
Rp283
(dp284
g14
Vpobj
p285
sbatp286
Rp287
(dp288
g14
S'word: with, index: 9'
p289
sbatp290
Rp291
(dp292
g14
Vrcmod
p293
sbatp294
Rp295
(dp296
g14
S'word: no, index: 7'
p297
sbatp298
Rp299
(dp300
g14
Vappos
p301
sbatp302
Rp303
(dp304
g14
S'word: X, index: 5'
p305
sbatp306
Rp307
(dp308
g14
Vdobj
p309
sbatp310
Rp311
(dp312
g14
S'word: winning, index: 4'
p313
sbatp314
Rp315
(dp316
g14
S'id: 4'
p317
sbag0
(g1
g2
(lp318
g0
(g1
g2
(lp319
g0
(g1
g2
(lp320
g0
(g1
g2
(lp321
g0
(g1
g2
(lp322
(lp323
S'word: the, index: 1'
p324
aatp325
Rp326
(dp327
g14
Vdet
p328
sbatp329
Rp330
(dp331
g14
S'word: X, index: 2'
p332
sbatp333
Rp334
(dp335
g14
Vnsubj
p336
sbag0
(g1
g2
(lp337
g0
(g1
g2
(lp338
g0
(g1
g2
(lp339
(lp340
S'word: a, index: 4'
p341
aatp342
Rp343
(dp344
g14
Vnsubj
p345
sbatp346
Rp347
(dp348
g14
S'word: flounder, index: 5'
p349
sbatp350
Rp351
(dp352
g14
Vccomp
p353
sbatp354
Rp355
(dp356
g14
S'word: caught, index: 3'
p357
sbatp358
Rp359
(dp360
g14
S'id: 5'
p361
sbatp362
Rp363
(dp364
g14
S'sentences'
p365
sb.