ccopy_reg
_reconstructor
p0
(cnltk.tree
Tree
p1
c__builtin__
list
p2
(lp3
g0
(g1
g2
(lp4
g0
(g1
g2
(lp5
g0
(g1
g2
(lp6
g0
(g1
g2
(lp7
VI
p8
atp9
Rp10
(dp11
S'_label'
p12
VPRP
p13
sbatp14
Rp15
(dp16
g12
VNP
p17
sbag0
(g1
g2
(lp18
g0
(g1
g2
(lp19
g0
(g1
g2
(lp20
Vhave
p21
atp22
Rp23
(dp24
g12
VVBP
p25
sbag0
(g1
g2
(lp26
g0
(g1
g2
(lp27
Vseen
p28
atp29
Rp30
(dp31
g12
VVBN
p32
sbag0
(g1
g2
(lp33
g0
(g1
g2
(lp34
Vthis
p35
atp36
Rp37
(dp38
g12
VDT
p39
sbag0
(g1
g2
(lp40
Vone
p41
atp42
Rp43
(dp44
g12
VCD
p45
sbatp46
Rp47
(dp48
g12
VNP
p49
sbatp50
Rp51
(dp52
g12
VVP
p53
sbatp54
Rp55
(dp56
g12
VVP
p57
sbag0
(g1
g2
(lp58
V,
p59
atp60
Rp61
(dp62
g12
V,
p63
sbag0
(g1
g2
(lp64
Vand
p65
atp66
Rp67
(dp68
g12
VCC
p69
sbag0
(g1
g2
(lp70
g0
(g1
g2
(lp71
Vmade
p72
atp73
Rp74
(dp75
g12
VVBD
p76
sbag0
(g1
g2
(lp77
g0
(g1
g2
(lp78
Vup
p79
atp80
Rp81
(dp82
g12
VRP
p83
sbatp84
Rp85
(dp86
g12
VPRT
p87
sbag0
(g1
g2
(lp88
g0
(g1
g2
(lp89
g0
(g1
g2
(lp90
Vmany
p91
atp92
Rp93
(dp94
g12
VJJ
p95
sbag0
(g1
g2
(lp96
Vstories
p97
atp98
Rp99
(dp100
g12
VNNS
p101
sbatp102
Rp103
(dp104
g12
VNP
p105
sbag0
(g1
g2
(lp106
g0
(g1
g2
(lp107
Vabout
p108
atp109
Rp110
(dp111
g12
VIN
p112
sbag0
(g1
g2
(lp113
g0
(g1
g2
(lp114
Vit
p115
atp116
Rp117
(dp118
g12
VPRP
p119
sbatp120
Rp121
(dp122
g12
VNP
p123
sbatp124
Rp125
(dp126
g12
VPP
p127
sbatp128
Rp129
(dp130
g12
VNP
p131
sbatp132
Rp133
(dp134
g12
VVP
p135
sbatp136
Rp137
(dp138
g12
VVP
p139
sbag0
(g1
g2
(lp140
V.
p141
atp142
Rp143
(dp144
g12
V.
p145
sbatp146
Rp147
(dp148
g12
VS
p149
sbatp150
Rp151
(dp152
g12
S'id: 0'
p153
sbag0
(g1
g2
(lp154
g0
(g1
g2
(lp155
g0
(g1
g2
(lp156
g0
(g1
g2
(lp157
g0
(g1
g2
(lp158
VHere
p159
atp160
Rp161
(dp162
g12
VRB
p163
sbatp164
Rp165
(dp166
g12
VADVP
p167
sbag0
(g1
g2
(lp168
g0
(g1
g2
(lp169
Vwe
p170
atp171
Rp172
(dp173
g12
VPRP
p174
sbatp175
Rp176
(dp177
g12
VNP
p178
sbag0
(g1
g2
(lp179
g0
(g1
g2
(lp180
Vhave
p181
atp182
Rp183
(dp184
g12
VVBP
p185
sbag0
(g1
g2
(lp186
g0
(g1
g2
(lp187
Vlet
p188
atp189
Rp190
(dp191
g12
VVBN
p192
sbag0
(g1
g2
(lp193
g0
(g1
g2
(lp194
g0
(g1
g2
(lp195
g0
(g1
g2
(lp196
V's
p197
atp198
Rp199
(dp200
g12
VPOS
p201
sbatp202
Rp203
(dp204
g12
VNP
p205
sbag0
(g1
g2
(lp206
g0
(g1
g2
(lp207
Vsay
p208
atp209
Rp210
(dp211
g12
VVBP
p212
sbag0
(g1
g2
(lp213
g0
(g1
g2
(lp214
g0
(g1
g2
(lp215
Va
p216
atp217
Rp218
(dp219
g12
VDT
p220
sbag0
(g1
g2
(lp221
Vfamily
p222
atp223
Rp224
(dp225
g12
VNN
p226
sbatp227
Rp228
(dp229
g12
VNP
p230
sbag0
(g1
g2
(lp231
g0
(g1
g2
(lp232
Vat
p233
atp234
Rp235
(dp236
g12
VIN
p237
sbag0
(g1
g2
(lp238
g0
(g1
g2
(lp239
Vthe
p240
atp241
Rp242
(dp243
g12
VDT
p244
sbag0
(g1
g2
(lp245
Vlake
p246
atp247
Rp248
(dp249
g12
VNN
p250
sbag0
(g1
g2
(lp251
Vpicnicking
p252
atp253
Rp254
(dp255
g12
VNN
p256
sbatp257
Rp258
(dp259
g12
VNP
p260
sbatp261
Rp262
(dp263
g12
VPP
p264
sbatp265
Rp266
(dp267
g12
VNP
p268
sbatp269
Rp270
(dp271
g12
VVP
p272
sbatp273
Rp274
(dp275
g12
VS
p276
sbatp277
Rp278
(dp279
g12
VSBAR
p280
sbatp281
Rp282
(dp283
g12
VVP
p284
sbatp285
Rp286
(dp287
g12
VVP
p288
sbatp289
Rp290
(dp291
g12
VS
p292
sbag0
(g1
g2
(lp293
V,
p294
atp295
Rp296
(dp297
g12
V,
p298
sbag0
(g1
g2
(lp299
Vand
p300
atp301
Rp302
(dp303
g12
VCC
p304
sbag0
(g1
g2
(lp305
g0
(g1
g2
(lp306
g0
(g1
g2
(lp307
Vdoing
p308
atp309
Rp310
(dp311
g12
VVBG
p312
sbag0
(g1
g2
(lp313
g0
(g1
g2
(lp314
g0
(g1
g2
(lp315
Va
p316
atp317
Rp318
(dp319
g12
VDT
p320
sbag0
(g1
g2
(lp321
Vbunch
p322
atp323
Rp324
(dp325
g12
VNN
p326
sbatp327
Rp328
(dp329
g12
VNP
p330
sbag0
(g1
g2
(lp331
g0
(g1
g2
(lp332
Vof
p333
atp334
Rp335
(dp336
g12
VIN
p337
sbag0
(g1
g2
(lp338
g0
(g1
g2
(lp339
Vother
p340
atp341
Rp342
(dp343
g12
VJJ
p344
sbag0
(g1
g2
(lp345
Vstuff
p346
atp347
Rp348
(dp349
g12
VNN
p350
sbatp351
Rp352
(dp353
g12
VNP
p354
sbatp355
Rp356
(dp357
g12
VPP
p358
sbatp359
Rp360
(dp361
g12
VNP
p362
sbatp363
Rp364
(dp365
g12
VVP
p366
sbatp367
Rp368
(dp369
g12
VS
p370
sbag0
(g1
g2
(lp371
V.
p372
atp373
Rp374
(dp375
g12
V.
p376
sbatp377
Rp378
(dp379
g12
VS
p380
sbatp381
Rp382
(dp383
g12
S'id: 1'
p384
sbag0
(g1
g2
(lp385
g0
(g1
g2
(lp386
g0
(g1
g2
(lp387
g0
(g1
g2
(lp388
g0
(g1
g2
(lp389
VThe
p390
atp391
Rp392
(dp393
g12
VDT
p394
sbag0
(g1
g2
(lp395
Vdaughter
p396
atp397
Rp398
(dp399
g12
VNN
p400
sbatp401
Rp402
(dp403
g12
VNP
p404
sbag0
(g1
g2
(lp405
g0
(g1
g2
(lp406
Vis
p407
atp408
Rp409
(dp410
g12
VVBZ
p411
sbag0
(g1
g2
(lp412
g0
(g1
g2
(lp413
Vbuilding
p414
atp415
Rp416
(dp417
g12
VVBG
p418
sbag0
(g1
g2
(lp419
g0
(g1
g2
(lp420
Va
p421
atp422
Rp423
(dp424
g12
VDT
p425
sbag0
(g1
g2
(lp426
Vsand
p427
atp428
Rp429
(dp430
g12
VNN
p431
sbag0
(g1
g2
(lp432
Vcastle
p433
atp434
Rp435
(dp436
g12
VNN
p437
sbatp438
Rp439
(dp440
g12
VNP
p441
sbatp442
Rp443
(dp444
g12
VVP
p445
sbatp446
Rp447
(dp448
g12
VVP
p449
sbatp450
Rp451
(dp452
g12
VS
p453
sbag0
(g1
g2
(lp454
V,
p455
atp456
Rp457
(dp458
g12
V,
p459
sbag0
(g1
g2
(lp460
g0
(g1
g2
(lp461
Vwhile
p462
atp463
Rp464
(dp465
g12
VIN
p466
sbatp467
Rp468
(dp469
g12
VADVP
p470
sbag0
(g1
g2
(lp471
V,
p472
atp473
Rp474
(dp475
g12
V,
p476
sbag0
(g1
g2
(lp477
g0
(g1
g2
(lp478
Vwhile
p479
atp480
Rp481
(dp482
g12
VIN
p483
sbag0
(g1
g2
(lp484
g0
(g1
g2
(lp485
g0
(g1
g2
(lp486
Vher
p487
atp488
Rp489
(dp490
g12
VPRP$
p491
sbag0
(g1
g2
(lp492
Vbrother
p493
atp494
Rp495
(dp496
g12
VNN
p497
sbatp498
Rp499
(dp500
g12
VNP
p501
sbag0
(g1
g2
(lp502
g0
(g1
g2
(lp503
g0
(g1
g2
(lp504
Vflies
p505
atp506
Rp507
(dp508
g12
VVBZ
p509
sbag0
(g1
g2
(lp510
g0
(g1
g2
(lp511
Va
p512
atp513
Rp514
(dp515
g12
VDT
p516
sbag0
(g1
g2
(lp517
Vkite
p518
atp519
Rp520
(dp521
g12
VNN
p522
sbatp523
Rp524
(dp525
g12
VNP
p526
sbatp527
Rp528
(dp529
g12
VVP
p530
sbag0
(g1
g2
(lp531
V,
p532
atp533
Rp534
(dp535
g12
V,
p536
sbag0
(g1
g2
(lp537
Vand
p538
atp539
Rp540
(dp541
g12
VCC
p542
sbag0
(g1
g2
(lp543
g0
(g1
g2
(lp544
Vruns
p545
atp546
Rp547
(dp548
g12
VVBZ
p549
sbag0
(g1
g2
(lp550
g0
(g1
g2
(lp551
Vwith
p552
atp553
Rp554
(dp555
g12
VIN
p556
sbag0
(g1
g2
(lp557
g0
(g1
g2
(lp558
Vthe
p559
atp560
Rp561
(dp562
g12
VDT
p563
sbag0
(g1
g2
(lp564
Vdog
p565
atp566
Rp567
(dp568
g12
VNN
p569
sbatp570
Rp571
(dp572
g12
VNP
p573
sbatp574
Rp575
(dp576
g12
VPP
p577
sbatp578
Rp579
(dp580
g12
VVP
p581
sbatp582
Rp583
(dp584
g12
VVP
p585
sbatp586
Rp587
(dp588
g12
VS
p589
sbatp590
Rp591
(dp592
g12
VSBAR
p593
sbag0
(g1
g2
(lp594
V.
p595
atp596
Rp597
(dp598
g12
V.
p599
sbatp600
Rp601
(dp602
g12
VS
p603
sbatp604
Rp605
(dp606
g12
S'id: 2'
p607
sbag0
(g1
g2
(lp608
g0
(g1
g2
(lp609
g0
(g1
g2
(lp610
g0
(g1
g2
(lp611
VThe
p612
atp613
Rp614
(dp615
g12
VDT
p616
sbag0
(g1
g2
(lp617
Vdad
p618
atp619
Rp620
(dp621
g12
VNN
p622
sbatp623
Rp624
(dp625
g12
VNP
p626
sbag0
(g1
g2
(lp627
g0
(g1
g2
(lp628
Vis
p629
atp630
Rp631
(dp632
g12
VVBZ
p633
sbag0
(g1
g2
(lp634
g0
(g1
g2
(lp635
Vreading
p636
atp637
Rp638
(dp639
g12
VVBG
p640
sbag0
(g1
g2
(lp641
g0
(g1
g2
(lp642
Va
p643
atp644
Rp645
(dp646
g12
VDT
p647
sbag0
(g1
g2
(lp648
Vbook
p649
atp650
Rp651
(dp652
g12
VNN
p653
sbatp654
Rp655
(dp656
g12
VNP
p657
sbag0
(g1
g2
(lp658
g0
(g1
g2
(lp659
Vwith
p660
atp661
Rp662
(dp663
g12
VIN
p664
sbag0
(g1
g2
(lp665
g0
(g1
g2
(lp666
Vhis
p667
atp668
Rp669
(dp670
g12
VPRP$
p671
sbag0
(g1
g2
(lp672
Vsandals
p673
atp674
Rp675
(dp676
g12
VNNS
p677
sbatp678
Rp679
(dp680
g12
VNP
p681
sbatp682
Rp683
(dp684
g12
VPP
p685
sbag0
(g1
g2
(lp686
g0
(g1
g2
(lp687
Voff
p688
atp689
Rp690
(dp691
g12
VRP
p692
sbatp693
Rp694
(dp695
g12
VPP
p696
sbag0
(g1
g2
(lp697
V,
p698
atp699
Rp700
(dp701
g12
V,
p702
sbag0
(g1
g2
(lp703
g0
(g1
g2
(lp704
Vwhile
p705
atp706
Rp707
(dp708
g12
VIN
p709
sbag0
(g1
g2
(lp710
g0
(g1
g2
(lp711
g0
(g1
g2
(lp712
Vthe
p713
atp714
Rp715
(dp716
g12
VDT
p717
sbag0
(g1
g2
(lp718
Vmom
p719
atp720
Rp721
(dp722
g12
VNN
p723
sbatp724
Rp725
(dp726
g12
VNP
p727
sbag0
(g1
g2
(lp728
g0
(g1
g2
(lp729
Vis
p730
atp731
Rp732
(dp733
g12
VVBZ
p734
sbag0
(g1
g2
(lp735
g0
(g1
g2
(lp736
g0
(g1
g2
(lp737
Vlistening
p738
atp739
Rp740
(dp741
g12
VVBG
p742
sbag0
(g1
g2
(lp743
g0
(g1
g2
(lp744
Vto
p745
atp746
Rp747
(dp748
g12
VTO
p749
sbag0
(g1
g2
(lp750
g0
(g1
g2
(lp751
Vmusic
p752
atp753
Rp754
(dp755
g12
VNN
p756
sbatp757
Rp758
(dp759
g12
VNP
p760
sbatp761
Rp762
(dp763
g12
VPP
p764
sbag0
(g1
g2
(lp765
g0
(g1
g2
(lp766
Vand
p767
atp768
Rp769
(dp770
g12
VCC
p771
sbatp772
Rp773
(dp774
g12
VADVP
p775
sbatp776
Rp777
(dp778
g12
VVP
p779
sbag0
(g1
g2
(lp780
V,
p781
atp782
Rp783
(dp784
g12
V,
p785
sbag0
(g1
g2
(lp786
Vand
p787
atp788
Rp789
(dp790
g12
VCC
p791
sbag0
(g1
g2
(lp792
g0
(g1
g2
(lp793
g0
(g1
g2
(lp794
Vmaybe
p795
atp796
Rp797
(dp798
g12
VRB
p799
sbatp800
Rp801
(dp802
g12
VADVP
p803
sbag0
(g1
g2
(lp804
Vhaving
p805
atp806
Rp807
(dp808
g12
VVBG
p809
sbag0
(g1
g2
(lp810
g0
(g1
g2
(lp811
Vwine
p812
atp813
Rp814
(dp815
g12
VNN
p816
sbag0
(g1
g2
(lp817
Vtherapy
p818
atp819
Rp820
(dp821
g12
VNN
p822
sbatp823
Rp824
(dp825
g12
VNP
p826
sbatp827
Rp828
(dp829
g12
VVP
p830
sbatp831
Rp832
(dp833
g12
VVP
p834
sbatp835
Rp836
(dp837
g12
VVP
p838
sbatp839
Rp840
(dp841
g12
VS
p842
sbatp843
Rp844
(dp845
g12
VSBAR
p846
sbatp847
Rp848
(dp849
g12
VVP
p850
sbatp851
Rp852
(dp853
g12
VVP
p854
sbag0
(g1
g2
(lp855
V.
p856
atp857
Rp858
(dp859
g12
V.
p860
sbatp861
Rp862
(dp863
g12
VS
p864
sbatp865
Rp866
(dp867
g12
S'id: 3'
p868
sbag0
(g1
g2
(lp869
g0
(g1
g2
(lp870
g0
(g1
g2
(lp871
g0
(g1
g2
(lp872
VThe
p873
atp874
Rp875
(dp876
g12
VDT
p877
sbatp878
Rp879
(dp880
g12
VNP
p881
sbag0
(g1
g2
(lp882
V,
p883
atp884
Rp885
(dp886
g12
V,
p887
sbag0
(g1
g2
(lp888
g0
(g1
g2
(lp889
Vthere
p890
atp891
Rp892
(dp893
g12
VEX
p894
sbatp895
Rp896
(dp897
g12
VNP
p898
sbag0
(g1
g2
(lp899
g0
(g1
g2
(lp900
Vis
p901
atp902
Rp903
(dp904
g12
VVBZ
p905
sbag0
(g1
g2
(lp906
g0
(g1
g2
(lp907
Vlike
p908
atp909
Rp910
(dp911
g12
VIN
p912
sbag0
(g1
g2
(lp913
g0
(g1
g2
(lp914
g0
(g1
g2
(lp915
g0
(g1
g2
(lp916
Vmaybe
p917
atp918
Rp919
(dp920
g12
VRB
p921
sbatp922
Rp923
(dp924
g12
VADVP
p925
sbag0
(g1
g2
(lp926
V,
p927
atp928
Rp929
(dp930
g12
V,
p931
sbag0
(g1
g2
(lp932
g0
(g1
g2
(lp933
Vit
p934
atp935
Rp936
(dp937
g12
VPRP
p938
sbatp939
Rp940
(dp941
g12
VNP
p942
sbag0
(g1
g2
(lp943
g0
(g1
g2
(lp944
Valmost
p945
atp946
Rp947
(dp948
g12
VRB
p949
sbatp950
Rp951
(dp952
g12
VADVP
p953
sbag0
(g1
g2
(lp954
g0
(g1
g2
(lp955
Vlooks
p956
atp957
Rp958
(dp959
g12
VVBZ
p960
sbag0
(g1
g2
(lp961
g0
(g1
g2
(lp962
Vlike
p963
atp964
Rp965
(dp966
g12
VIN
p967
sbag0
(g1
g2
(lp968
g0
(g1
g2
(lp969
Va
p970
atp971
Rp972
(dp973
g12
VDT
p974
sbag0
(g1
g2
(lp975
Vpark
p976
atp977
Rp978
(dp979
g12
VNN
p980
sbag0
(g1
g2
(lp981
Vranger
p982
atp983
Rp984
(dp985
g12
VNN
p986
sbatp987
Rp988
(dp989
g12
VNP
p990
sbatp991
Rp992
(dp993
g12
VPP
p994
sbag0
(g1
g2
(lp995
V,
p996
atp997
Rp998
(dp999
g12
V,
p1000
sbag0
(g1
g2
(lp1001
g0
(g1
g2
(lp1002
g0
(g1
g2
(lp1003
Vcatching
p1004
atp1005
Rp1006
(dp1007
g12
VVBG
p1008
sbag0
(g1
g2
(lp1009
g0
(g1
g2
(lp1010
g0
(g1
g2
(lp1011
Va
p1012
atp1013
Rp1014
(dp1015
g12
VDT
p1016
sbag0
(g1
g2
(lp1017
Vfish
p1018
atp1019
Rp1020
(dp1021
g12
VNN
p1022
sbatp1023
Rp1024
(dp1025
g12
VNP
p1026
sbag0
(g1
g2
(lp1027
V,
p1028
atp1029
Rp1030
(dp1031
g12
V,
p1032
sbag0
(g1
g2
(lp1033
Vor
p1034
atp1035
Rp1036
(dp1037
g12
VCC
p1038
sbag0
(g1
g2
(lp1039
g0
(g1
g2
(lp1040
Va
p1041
atp1042
Rp1043
(dp1044
g12
VDT
p1045
sbag0
(g1
g2
(lp1046
Vguy
p1047
atp1048
Rp1049
(dp1050
g12
VNN
p1051
sbatp1052
Rp1053
(dp1054
g12
VNP
p1055
sbatp1056
Rp1057
(dp1058
g12
VNP
p1059
sbag0
(g1
g2
(lp1060
g0
(g1
g2
(lp1061
Vwith
p1062
atp1063
Rp1064
(dp1065
g12
VIN
p1066
sbag0
(g1
g2
(lp1067
Vlike
p1068
atp1069
Rp1070
(dp1071
g12
VIN
p1072
sbag0
(g1
g2
(lp1073
g0
(g1
g2
(lp1074
g0
(g1
g2
(lp1075
Va
p1076
atp1077
Rp1078
(dp1079
g12
VDT
p1080
sbag0
(g1
g2
(lp1081
Vwide
p1082
atp1083
Rp1084
(dp1085
g12
VJJ
p1086
sbag0
(g1
g2
(lp1087
Vbrimmed
p1088
atp1089
Rp1090
(dp1091
g12
VVBN
p1092
sbag0
(g1
g2
(lp1093
Vcap
p1094
atp1095
Rp1096
(dp1097
g12
VNN
p1098
sbatp1099
Rp1100
(dp1101
g12
VNP
p1102
sbag0
(g1
g2
(lp1103
V,
p1104
atp1105
Rp1106
(dp1107
g12
V,
p1108
sbag0
(g1
g2
(lp1109
g0
(g1
g2
(lp1110
Vlike
p1111
atp1112
Rp1113
(dp1114
g12
VIN
p1115
sbag0
(g1
g2
(lp1116
g0
(g1
g2
(lp1117
Va
p1118
atp1119
Rp1120
(dp1121
g12
VDT
p1122
sbag0
(g1
g2
(lp1123
Vpark
p1124
atp1125
Rp1126
(dp1127
g12
VNN
p1128
sbag0
(g1
g2
(lp1129
Vranger
p1130
atp1131
Rp1132
(dp1133
g12
VNN
p1134
sbatp1135
Rp1136
(dp1137
g12
VNP
p1138
sbatp1139
Rp1140
(dp1141
g12
VPP
p1142
sbatp1143
Rp1144
(dp1145
g12
VNP
p1146
sbatp1147
Rp1148
(dp1149
g12
VPP
p1150
sbatp1151
Rp1152
(dp1153
g12
VVP
p1154
sbatp1155
Rp1156
(dp1157
g12
VS
p1158
sbatp1159
Rp1160
(dp1161
g12
VVP
p1162
sbatp1163
Rp1164
(dp1165
g12
VS
p1166
sbag0
(g1
g2
(lp1167
V,
p1168
atp1169
Rp1170
(dp1171
g12
V,
p1172
sbag0
(g1
g2
(lp1173
Vand
p1174
atp1175
Rp1176
(dp1177
g12
VCC
p1178
sbag0
(g1
g2
(lp1179
g0
(g1
g2
(lp1180
g0
(g1
g2
(lp1181
Vthe
p1182
atp1183
Rp1184
(dp1185
g12
VDT
p1186
sbag0
(g1
g2
(lp1187
Vfish
p1188
atp1189
Rp1190
(dp1191
g12
VNN
p1192
sbatp1193
Rp1194
(dp1195
g12
VNP
p1196
sbag0
(g1
g2
(lp1197
g0
(g1
g2
(lp1198
Vis
p1199
atp1200
Rp1201
(dp1202
g12
VVBZ
p1203
sbag0
(g1
g2
(lp1204
g0
(g1
g2
(lp1205
g0
(g1
g2
(lp1206
Va
p1207
atp1208
Rp1209
(dp1210
g12
VDT
p1211
sbag0
(g1
g2
(lp1212
Vjumping
p1213
atp1214
Rp1215
(dp1216
g12
VVBG
p1217
sbag0
(g1
g2
(lp1218
Varound
p1219
atp1220
Rp1221
(dp1222
g12
VRP
p1223
sbatp1224
Rp1225
(dp1226
g12
VNP
p1227
sbag0
(g1
g2
(lp1228
g0
(g1
g2
(lp1229
Von
p1230
atp1231
Rp1232
(dp1233
g12
VIN
p1234
sbag0
(g1
g2
(lp1235
g0
(g1
g2
(lp1236
Vthe
p1237
atp1238
Rp1239
(dp1240
g12
VDT
p1241
sbag0
(g1
g2
(lp1242
Vline
p1243
atp1244
Rp1245
(dp1246
g12
VNN
p1247
sbatp1248
Rp1249
(dp1250
g12
VNP
p1251
sbatp1252
Rp1253
(dp1254
g12
VPP
p1255
sbatp1256
Rp1257
(dp1258
g12
VNP
p1259
sbatp1260
Rp1261
(dp1262
g12
VVP
p1263
sbatp1264
Rp1265
(dp1266
g12
VS
p1267
sbatp1268
Rp1269
(dp1270
g12
VS
p1271
sbatp1272
Rp1273
(dp1274
g12
VSBAR
p1275
sbatp1276
Rp1277
(dp1278
g12
VVP
p1279
sbag0
(g1
g2
(lp1280
V.
p1281
atp1282
Rp1283
(dp1284
g12
V.
p1285
sbatp1286
Rp1287
(dp1288
g12
VS
p1289
sbatp1290
Rp1291
(dp1292
g12
S'id: 4'
p1293
sbag0
(g1
g2
(lp1294
g0
(g1
g2
(lp1295
g0
(g1
g2
(lp1296
VSo
p1297
atp1298
Rp1299
(dp1300
g12
VIN
p1301
sbag0
(g1
g2
(lp1302
g0
(g1
g2
(lp1303
Vit
p1304
atp1305
Rp1306
(dp1307
g12
VPRP
p1308
sbatp1309
Rp1310
(dp1311
g12
VNP
p1312
sbag0
(g1
g2
(lp1313
g0
(g1
g2
(lp1314
V's
p1315
atp1316
Rp1317
(dp1318
g12
VVBZ
p1319
sbag0
(g1
g2
(lp1320
g0
(g1
g2
(lp1321
Vlike
p1322
atp1323
Rp1324
(dp1325
g12
VIN
p1326
sbag0
(g1
g2
(lp1327
g0
(g1
g2
(lp1328
g0
(g1
g2
(lp1329
Vhe
p1330
atp1331
Rp1332
(dp1333
g12
VPRP
p1334
sbatp1335
Rp1336
(dp1337
g12
VNP
p1338
sbag0
(g1
g2
(lp1339
g0
(g1
g2
(lp1340
V's
p1341
atp1342
Rp1343
(dp1344
g12
VVBZ
p1345
sbag0
(g1
g2
(lp1346
g0
(g1
g2
(lp1347
Vabout
p1348
atp1349
Rp1350
(dp1351
g12
VIN
p1352
sbag0
(g1
g2
(lp1353
Vready
p1354
atp1355
Rp1356
(dp1357
g12
VJJ
p1358
sbatp1359
Rp1360
(dp1361
g12
VADJP
p1362
sbag0
(g1
g2
(lp1363
g0
(g1
g2
(lp1364
g0
(g1
g2
(lp1365
Vto
p1366
atp1367
Rp1368
(dp1369
g12
VTO
p1370
sbag0
(g1
g2
(lp1371
g0
(g1
g2
(lp1372
Vland
p1373
atp1374
Rp1375
(dp1376
g12
VVB
p1377
sbag0
(g1
g2
(lp1378
g0
(g1
g2
(lp1379
Vit
p1380
atp1381
Rp1382
(dp1383
g12
VPRP
p1384
sbatp1385
Rp1386
(dp1387
g12
VNP
p1388
sbatp1389
Rp1390
(dp1391
g12
VVP
p1392
sbatp1393
Rp1394
(dp1395
g12
VVP
p1396
sbatp1397
Rp1398
(dp1399
g12
VS
p1400
sbatp1401
Rp1402
(dp1403
g12
VVP
p1404
sbatp1405
Rp1406
(dp1407
g12
VS
p1408
sbatp1409
Rp1410
(dp1411
g12
VSBAR
p1412
sbatp1413
Rp1414
(dp1415
g12
VVP
p1416
sbag0
(g1
g2
(lp1417
V.
p1418
atp1419
Rp1420
(dp1421
g12
V.
p1422
sbatp1423
Rp1424
(dp1425
g12
VS
p1426
sbatp1427
Rp1428
(dp1429
g12
S'id: 5'
p1430
sbag0
(g1
g2
(lp1431
g0
(g1
g2
(lp1432
g0
(g1
g2
(lp1433
g0
(g1
g2
(lp1434
g0
(g1
g2
(lp1435
VLooks
p1436
atp1437
Rp1438
(dp1439
g12
VVBZ
p1440
sbag0
(g1
g2
(lp1441
g0
(g1
g2
(lp1442
g0
(g1
g2
(lp1443
Vto
p1444
atp1445
Rp1446
(dp1447
g12
VTO
p1448
sbag0
(g1
g2
(lp1449
g0
(g1
g2
(lp1450
Vbe
p1451
atp1452
Rp1453
(dp1454
g12
VVB
p1455
sbag0
(g1
g2
(lp1456
g0
(g1
g2
(lp1457
g0
(g1
g2
(lp1458
Vpretty
p1459
atp1460
Rp1461
(dp1462
g12
VRB
p1463
sbag0
(g1
g2
(lp1464
Vwindy
p1465
atp1466
Rp1467
(dp1468
g12
VJJ
p1469
sbatp1470
Rp1471
(dp1472
g12
VADJP
p1473
sbag0
(g1
g2
(lp1474
Vday
p1475
atp1476
Rp1477
(dp1478
g12
VNN
p1479
sbatp1480
Rp1481
(dp1482
g12
VNP
p1483
sbag0
(g1
g2
(lp1484
g0
(g1
g2
(lp1485
Vbecause
p1486
atp1487
Rp1488
(dp1489
g12
VIN
p1490
sbag0
(g1
g2
(lp1491
g0
(g1
g2
(lp1492
g0
(g1
g2
(lp1493
Vthe
p1494
atp1495
Rp1496
(dp1497
g12
VDT
p1498
sbag0
(g1
g2
(lp1499
Vflag
p1500
atp1501
Rp1502
(dp1503
g12
VNN
p1504
sbatp1505
Rp1506
(dp1507
g12
VNP
p1508
sbag0
(g1
g2
(lp1509
g0
(g1
g2
(lp1510
Vis
p1511
atp1512
Rp1513
(dp1514
g12
VVBZ
p1515
sbag0
(g1
g2
(lp1516
g0
(g1
g2
(lp1517
Vflying
p1518
atp1519
Rp1520
(dp1521
g12
VVBG
p1522
sbag0
(g1
g2
(lp1523
g0
(g1
g2
(lp1524
Vin
p1525
atp1526
Rp1527
(dp1528
g12
VIN
p1529
sbag0
(g1
g2
(lp1530
g0
(g1
g2
(lp1531
Vthe
p1532
atp1533
Rp1534
(dp1535
g12
VDT
p1536
sbag0
(g1
g2
(lp1537
Vbackground
p1538
atp1539
Rp1540
(dp1541
g12
VNN
p1542
sbatp1543
Rp1544
(dp1545
g12
VNP
p1546
sbatp1547
Rp1548
(dp1549
g12
VPP
p1550
sbatp1551
Rp1552
(dp1553
g12
VVP
p1554
sbatp1555
Rp1556
(dp1557
g12
VVP
p1558
sbatp1559
Rp1560
(dp1561
g12
VS
p1562
sbatp1563
Rp1564
(dp1565
g12
VSBAR
p1566
sbatp1567
Rp1568
(dp1569
g12
VVP
p1570
sbatp1571
Rp1572
(dp1573
g12
VVP
p1574
sbatp1575
Rp1576
(dp1577
g12
VS
p1578
sbatp1579
Rp1580
(dp1581
g12
VVP
p1582
sbatp1583
Rp1584
(dp1585
g12
VS
p1586
sbag0
(g1
g2
(lp1587
V,
p1588
atp1589
Rp1590
(dp1591
g12
V,
p1592
sbag0
(g1
g2
(lp1593
Vand
p1594
atp1595
Rp1596
(dp1597
g12
VCC
p1598
sbag0
(g1
g2
(lp1599
g0
(g1
g2
(lp1600
g0
(g1
g2
(lp1601
Vthere
p1602
atp1603
Rp1604
(dp1605
g12
VEX
p1606
sbatp1607
Rp1608
(dp1609
g12
VNP
p1610
sbag0
(g1
g2
(lp1611
g0
(g1
g2
(lp1612
V's
p1613
atp1614
Rp1615
(dp1616
g12
VVBZ
p1617
sbag0
(g1
g2
(lp1618
g0
(g1
g2
(lp1619
Venough
p1620
atp1621
Rp1622
(dp1623
g12
VJJ
p1624
sbag0
(g1
g2
(lp1625
Vwind
p1626
atp1627
Rp1628
(dp1629
g12
VNN
p1630
sbag0
(g1
g2
(lp1631
g0
(g1
g2
(lp1632
g0
(g1
g2
(lp1633
Vto
p1634
atp1635
Rp1636
(dp1637
g12
VTO
p1638
sbag0
(g1
g2
(lp1639
g0
(g1
g2
(lp1640
g0
(g1
g2
(lp1641
Vpick
p1642
atp1643
Rp1644
(dp1645
g12
VVB
p1646
sbag0
(g1
g2
(lp1647
g0
(g1
g2
(lp1648
Vup
p1649
atp1650
Rp1651
(dp1652
g12
VRP
p1653
sbatp1654
Rp1655
(dp1656
g12
VPRT
p1657
sbag0
(g1
g2
(lp1658
g0
(g1
g2
(lp1659
Vthe
p1660
atp1661
Rp1662
(dp1663
g12
VDT
p1664
sbag0
(g1
g2
(lp1665
Vkite
p1666
atp1667
Rp1668
(dp1669
g12
VNN
p1670
sbatp1671
Rp1672
(dp1673
g12
VNP
p1674
sbatp1675
Rp1676
(dp1677
g12
VVP
p1678
sbag0
(g1
g2
(lp1679
V,
p1680
atp1681
Rp1682
(dp1683
g12
V,
p1684
sbag0
(g1
g2
(lp1685
Vand
p1686
atp1687
Rp1688
(dp1689
g12
VCC
p1690
sbag0
(g1
g2
(lp1691
g0
(g1
g2
(lp1692
Vlet
p1693
atp1694
Rp1695
(dp1696
g12
VVB
p1697
sbag0
(g1
g2
(lp1698
g0
(g1
g2
(lp1699
g0
(g1
g2
(lp1700
Vit
p1701
atp1702
Rp1703
(dp1704
g12
VPRP
p1705
sbatp1706
Rp1707
(dp1708
g12
VNP
p1709
sbag0
(g1
g2
(lp1710
g0
(g1
g2
(lp1711
Vgo
p1712
atp1713
Rp1714
(dp1715
g12
VVB
p1716
sbatp1717
Rp1718
(dp1719
g12
VVP
p1720
sbatp1721
Rp1722
(dp1723
g12
VS
p1724
sbatp1725
Rp1726
(dp1727
g12
VVP
p1728
sbatp1729
Rp1730
(dp1731
g12
VVP
p1732
sbatp1733
Rp1734
(dp1735
g12
VVP
p1736
sbatp1737
Rp1738
(dp1739
g12
VS
p1740
sbatp1741
Rp1742
(dp1743
g12
VNP
p1744
sbatp1745
Rp1746
(dp1747
g12
VVP
p1748
sbatp1749
Rp1750
(dp1751
g12
VS
p1752
sbag0
(g1
g2
(lp1753
V.
p1754
atp1755
Rp1756
(dp1757
g12
V.
p1758
sbatp1759
Rp1760
(dp1761
g12
VS
p1762
sbatp1763
Rp1764
(dp1765
g12
S'id: 6'
p1766
sbag0
(g1
g2
(lp1767
g0
(g1
g2
(lp1768
g0
(g1
g2
(lp1769
g0
(g1
g2
(lp1770
g0
(g1
g2
(lp1771
VThe
p1772
atp1773
Rp1774
(dp1775
g12
VDT
p1776
sbag0
(g1
g2
(lp1777
Va
p1778
atp1779
Rp1780
(dp1781
g12
VDT
p1782
sbatp1783
Rp1784
(dp1785
g12
VNP
p1786
sbag0
(g1
g2
(lp1787
V,
p1788
atp1789
Rp1790
(dp1791
g12
V,
p1792
sbag0
(g1
g2
(lp1793
g0
(g1
g2
(lp1794
Vthere
p1795
atp1796
Rp1797
(dp1798
g12
VEX
p1799
sbatp1800
Rp1801
(dp1802
g12
VNP
p1803
sbag0
(g1
g2
(lp1804
g0
(g1
g2
(lp1805
V's
p1806
atp1807
Rp1808
(dp1809
g12
VVBZ
p1810
sbag0
(g1
g2
(lp1811
g0
(g1
g2
(lp1812
g0
(g1
g2
(lp1813
Vsome
p1814
atp1815
Rp1816
(dp1817
g12
VDT
p1818
sbag0
(g1
g2
(lp1819
Vboaters
p1820
atp1821
Rp1822
(dp1823
g12
VNNS
p1824
sbatp1825
Rp1826
(dp1827
g12
VNP
p1828
sbag0
(g1
g2
(lp1829
g0
(g1
g2
(lp1830
Vin
p1831
atp1832
Rp1833
(dp1834
g12
VIN
p1835
sbag0
(g1
g2
(lp1836
g0
(g1
g2
(lp1837
g0
(g1
g2
(lp1838
Vthe
p1839
atp1840
Rp1841
(dp1842
g12
VDT
p1843
sbag0
(g1
g2
(lp1844
Vbackground
p1845
atp1846
Rp1847
(dp1848
g12
VNN
p1849
sbatp1850
Rp1851
(dp1852
g12
VNP
p1853
sbag0
(g1
g2
(lp1854
g0
(g1
g2
(lp1855
Vwith
p1856
atp1857
Rp1858
(dp1859
g12
VIN
p1860
sbag0
(g1
g2
(lp1861
g0
(g1
g2
(lp1862
g0
(g1
g2
(lp1863
Vthe
p1864
atp1865
Rp1866
(dp1867
g12
VDT
p1868
sbag0
(g1
g2
(lp1869
Vboat
p1870
atp1871
Rp1872
(dp1873
g12
VNN
p1874
sbag0
(g1
g2
(lp1875
Vnumber
p1876
atp1877
Rp1878
(dp1879
g12
VNN
p1880
sbatp1881
Rp1882
(dp1883
g12
VNP
p1884
sbag0
(g1
g2
(lp1885
g0
(g1
g2
(lp1886
Vfour
p1887
atp1888
Rp1889
(dp1890
g12
VCD
p1891
sbag0
(g1
g2
(lp1892
Vseventy
p1893
atp1894
Rp1895
(dp1896
g12
VCD
p1897
sbatp1898
Rp1899
(dp1900
g12
VNP
p1901
sbatp1902
Rp1903
(dp1904
g12
VNP
p1905
sbatp1906
Rp1907
(dp1908
g12
VPP
p1909
sbatp1910
Rp1911
(dp1912
g12
VNP
p1913
sbatp1914
Rp1915
(dp1916
g12
VPP
p1917
sbatp1918
Rp1919
(dp1920
g12
VNP
p1921
sbatp1922
Rp1923
(dp1924
g12
VVP
p1925
sbatp1926
Rp1927
(dp1928
g12
VS
p1929
sbag0
(g1
g2
(lp1930
V,
p1931
atp1932
Rp1933
(dp1934
g12
V,
p1935
sbag0
(g1
g2
(lp1936
Vand
p1937
atp1938
Rp1939
(dp1940
g12
VCC
p1941
sbag0
(g1
g2
(lp1942
g0
(g1
g2
(lp1943
g0
(g1
g2
(lp1944
Vit
p1945
atp1946
Rp1947
(dp1948
g12
VPRP
p1949
sbatp1950
Rp1951
(dp1952
g12
VNP
p1953
sbag0
(g1
g2
(lp1954
g0
(g1
g2
(lp1955
Vappears
p1956
atp1957
Rp1958
(dp1959
g12
VVBZ
p1960
sbag0
(g1
g2
(lp1961
g0
(g1
g2
(lp1962
Vthat
p1963
atp1964
Rp1965
(dp1966
g12
VIN
p1967
sbag0
(g1
g2
(lp1968
g0
(g1
g2
(lp1969
g0
(g1
g2
(lp1970
Vthere
p1971
atp1972
Rp1973
(dp1974
g12
VEX
p1975
sbatp1976
Rp1977
(dp1978
g12
VNP
p1979
sbag0
(g1
g2
(lp1980
g0
(g1
g2
(lp1981
Vare
p1982
atp1983
Rp1984
(dp1985
g12
VVBP
p1986
sbag0
(g1
g2
(lp1987
g0
(g1
g2
(lp1988
g0
(g1
g2
(lp1989
Vtwo
p1990
atp1991
Rp1992
(dp1993
g12
VCD
p1994
sbag0
(g1
g2
(lp1995
Vpeople
p1996
atp1997
Rp1998
(dp1999
g12
VNNS
p2000
sbatp2001
Rp2002
(dp2003
g12
VNP
p2004
sbag0
(g1
g2
(lp2005
g0
(g1
g2
(lp2006
Von
p2007
atp2008
Rp2009
(dp2010
g12
VIN
p2011
sbag0
(g1
g2
(lp2012
g0
(g1
g2
(lp2013
Vboard
p2014
atp2015
Rp2016
(dp2017
g12
VNN
p2018
sbatp2019
Rp2020
(dp2021
g12
VNP
p2022
sbatp2023
Rp2024
(dp2025
g12
VPP
p2026
sbatp2027
Rp2028
(dp2029
g12
VNP
p2030
sbatp2031
Rp2032
(dp2033
g12
VVP
p2034
sbatp2035
Rp2036
(dp2037
g12
VS
p2038
sbatp2039
Rp2040
(dp2041
g12
VSBAR
p2042
sbatp2043
Rp2044
(dp2045
g12
VVP
p2046
sbatp2047
Rp2048
(dp2049
g12
VS
p2050
sbag0
(g1
g2
(lp2051
V.
p2052
atp2053
Rp2054
(dp2055
g12
V.
p2056
sbatp2057
Rp2058
(dp2059
g12
VS
p2060
sbatp2061
Rp2062
(dp2063
g12
S'id: 7'
p2064
sbag0
(g1
g2
(lp2065
g0
(g1
g2
(lp2066
g0
(g1
g2
(lp2067
g0
(g1
g2
(lp2068
VThere
p2069
atp2070
Rp2071
(dp2072
g12
VEX
p2073
sbatp2074
Rp2075
(dp2076
g12
VNP
p2077
sbag0
(g1
g2
(lp2078
g0
(g1
g2
(lp2079
Vare
p2080
atp2081
Rp2082
(dp2083
g12
VVBP
p2084
sbag0
(g1
g2
(lp2085
g0
(g1
g2
(lp2086
g0
(g1
g2
(lp2087
Vno
p2088
atp2089
Rp2090
(dp2091
g12
VDT
p2092
sbag0
(g1
g2
(lp2093
Vother
p2094
atp2095
Rp2096
(dp2097
g12
VJJ
p2098
sbag0
(g1
g2
(lp2099
Vboats
p2100
atp2101
Rp2102
(dp2103
g12
VNNS
p2104
sbatp2105
Rp2106
(dp2107
g12
VNP
p2108
sbag0
(g1
g2
(lp2109
g0
(g1
g2
(lp2110
Von
p2111
atp2112
Rp2113
(dp2114
g12
VIN
p2115
sbag0
(g1
g2
(lp2116
g0
(g1
g2
(lp2117
g0
(g1
g2
(lp2118
Vthe
p2119
atp2120
Rp2121
(dp2122
g12
VDT
p2123
sbag0
(g1
g2
(lp2124
Vlake
p2125
atp2126
Rp2127
(dp2128
g12
VNN
p2129
sbatp2130
Rp2131
(dp2132
g12
VNP
p2133
sbag0
(g1
g2
(lp2134
g0
(g1
g2
(lp2135
Vthat
p2136
atp2137
Rp2138
(dp2139
g12
VIN
p2140
sbag0
(g1
g2
(lp2141
g0
(g1
g2
(lp2142
g0
(g1
g2
(lp2143
Vwe
p2144
atp2145
Rp2146
(dp2147
g12
VPRP
p2148
sbatp2149
Rp2150
(dp2151
g12
VNP
p2152
sbag0
(g1
g2
(lp2153
g0
(g1
g2
(lp2154
Vcan
p2155
atp2156
Rp2157
(dp2158
g12
VMD
p2159
sbag0
(g1
g2
(lp2160
g0
(g1
g2
(lp2161
Vsee
p2162
atp2163
Rp2164
(dp2165
g12
VVB
p2166
sbatp2167
Rp2168
(dp2169
g12
VVP
p2170
sbatp2171
Rp2172
(dp2173
g12
VVP
p2174
sbatp2175
Rp2176
(dp2177
g12
VS
p2178
sbatp2179
Rp2180
(dp2181
g12
VSBAR
p2182
sbatp2183
Rp2184
(dp2185
g12
VNP
p2186
sbatp2187
Rp2188
(dp2189
g12
VPP
p2190
sbatp2191
Rp2192
(dp2193
g12
VNP
p2194
sbatp2195
Rp2196
(dp2197
g12
VVP
p2198
sbag0
(g1
g2
(lp2199
V.
p2200
atp2201
Rp2202
(dp2203
g12
V.
p2204
sbatp2205
Rp2206
(dp2207
g12
VS
p2208
sbatp2209
Rp2210
(dp2211
g12
S'id: 8'
p2212
sbag0
(g1
g2
(lp2213
g0
(g1
g2
(lp2214
g0
(g1
g2
(lp2215
g0
(g1
g2
(lp2216
g0
(g1
g2
(lp2217
VThe
p2218
atp2219
Rp2220
(dp2221
g12
VDT
p2222
sbag0
(g1
g2
(lp2223
Vdad
p2224
atp2225
Rp2226
(dp2227
g12
VNN
p2228
sbag0
(g1
g2
(lp2229
V's
p2230
atp2231
Rp2232
(dp2233
g12
VPOS
p2234
sbatp2235
Rp2236
(dp2237
g12
VNP
p2238
sbag0
(g1
g2
(lp2239
Vbook
p2240
atp2241
Rp2242
(dp2243
g12
VNN
p2244
sbatp2245
Rp2246
(dp2247
g12
VNP
p2248
sbag0
(g1
g2
(lp2249
g0
(g1
g2
(lp2250
Vappears
p2251
atp2252
Rp2253
(dp2254
g12
VVBZ
p2255
sbag0
(g1
g2
(lp2256
g0
(g1
g2
(lp2257
g0
(g1
g2
(lp2258
Vto
p2259
atp2260
Rp2261
(dp2262
g12
VTO
p2263
sbag0
(g1
g2
(lp2264
g0
(g1
g2
(lp2265
Vbe
p2266
atp2267
Rp2268
(dp2269
g12
VVB
p2270
sbag0
(g1
g2
(lp2271
g0
(g1
g2
(lp2272
Vblank
p2273
atp2274
Rp2275
(dp2276
g12
VJJ
p2277
sbatp2278
Rp2279
(dp2280
g12
VADJP
p2281
sbatp2282
Rp2283
(dp2284
g12
VVP
p2285
sbatp2286
Rp2287
(dp2288
g12
VVP
p2289
sbatp2290
Rp2291
(dp2292
g12
VS
p2293
sbatp2294
Rp2295
(dp2296
g12
VVP
p2297
sbatp2298
Rp2299
(dp2300
g12
VS
p2301
sbatp2302
Rp2303
(dp2304
g12
S'id: 9'
p2305
sbatp2306
Rp2307
(dp2308
g12
S'sentences'
p2309
sb.