ccopy_reg
_reconstructor
p0
(cnltk.tree
Tree
p1
c__builtin__
list
p2
(lp3
g0
(g1
g2
(lp4
g0
(g1
g2
(lp5
g0
(g1
g2
(lp6
VThe boy 's
p7
atp8
Rp9
(dp10
S'_label'
p11
S'start: 1'
p12
sbatp13
Rp14
(dp15
g11
S'sent: 2'
p16
sbag0
(g1
g2
(lp17
g0
(g1
g2
(lp18
Vhe
p19
atp20
Rp21
(dp22
g11
S'start: 9'
p23
sbatp24
Rp25
(dp26
g11
S'sent: 2'
p27
sbatp28
Rp29
(dp30
g11
S'id: 5'
p31
sbag0
(g1
g2
(lp32
g0
(g1
g2
(lp33
g0
(g1
g2
(lp34
Vthe girl
p35
atp36
Rp37
(dp38
g11
S'start: 14'
p39
sbatp40
Rp41
(dp42
g11
S'sent: 2'
p43
sbag0
(g1
g2
(lp44
g0
(g1
g2
(lp45
VGirl 's
p46
atp47
Rp48
(dp49
g11
S'start: 1'
p50
sbatp51
Rp52
(dp53
g11
S'sent: 15'
p54
sbatp55
Rp56
(dp57
g11
S'id: 7'
p58
sbag0
(g1
g2
(lp59
g0
(g1
g2
(lp60
g0
(g1
g2
(lp61
Vthe window
p62
atp63
Rp64
(dp65
g11
S'start: 3'
p66
sbatp67
Rp68
(dp69
g11
S'sent: 3'
p70
sbag0
(g1
g2
(lp71
g0
(g1
g2
(lp72
Vthe window
p73
atp74
Rp75
(dp76
g11
S'start: 5'
p77
sbatp78
Rp79
(dp80
g11
S'sent: 9'
p81
sbatp82
Rp83
(dp84
g11
S'id: 8'
p85
sbag0
(g1
g2
(lp86
g0
(g1
g2
(lp87
g0
(g1
g2
(lp88
VThe woman 's holding a plate .
p89
atp90
Rp91
(dp92
g11
S'start: 1'
p93
sbatp94
Rp95
(dp96
g11
S'sent: 4'
p97
sbag0
(g1
g2
(lp98
g0
(g1
g2
(lp99
VShe
p100
atp101
Rp102
(dp103
g11
S'start: 1'
p104
sbatp105
Rp106
(dp107
g11
S'sent: 5'
p108
sbatp109
Rp110
(dp111
g11
S'id: 11'
p112
sbag0
(g1
g2
(lp113
g0
(g1
g2
(lp114
g0
(g1
g2
(lp115
Va plate
p116
atp117
Rp118
(dp119
g11
S'start: 5'
p120
sbatp121
Rp122
(dp123
g11
S'sent: 4'
p124
sbag0
(g1
g2
(lp125
g0
(g1
g2
(lp126
Va plate , two cups
p127
atp128
Rp129
(dp130
g11
S'start: 3'
p131
sbatp132
Rp133
(dp134
g11
S'sent: 12'
p135
sbag0
(g1
g2
(lp136
g0
(g1
g2
(lp137
Va plate
p138
atp139
Rp140
(dp141
g11
S'start: 3'
p142
sbatp143
Rp144
(dp145
g11
S'sent: 12'
p146
sbatp147
Rp148
(dp149
g11
S'id: 12'
p150
sbag0
(g1
g2
(lp151
g0
(g1
g2
(lp152
g0
(g1
g2
(lp153
Va dress
p154
atp155
Rp156
(dp157
g11
S'start: 4'
p158
sbatp159
Rp160
(dp161
g11
S'sent: 5'
p162
sbag0
(g1
g2
(lp163
g0
(g1
g2
(lp164
Va dress
p165
atp166
Rp167
(dp168
g11
S'start: 4'
p169
sbatp170
Rp171
(dp172
g11
S'sent: 15'
p173
sbatp174
Rp175
(dp176
g11
S'id: 14'
p177
sbag0
(g1
g2
(lp178
g0
(g1
g2
(lp179
g0
(g1
g2
(lp180
VShe
p181
atp182
Rp183
(dp184
g11
S'start: 1'
p185
sbatp186
Rp187
(dp188
g11
S'sent: 10'
p189
sbag0
(g1
g2
(lp190
g0
(g1
g2
(lp191
Vhers
p192
atp193
Rp194
(dp195
g11
S'start: 13'
p196
sbatp197
Rp198
(dp199
g11
S'sent: 11'
p200
sbatp201
Rp202
(dp203
g11
S'id: 22'
p204
sbag0
(g1
g2
(lp205
g0
(g1
g2
(lp206
g0
(g1
g2
(lp207
Va house
p208
atp209
Rp210
(dp211
g11
S'start: 3'
p212
sbatp213
Rp214
(dp215
g11
S'sent: 11'
p216
sbag0
(g1
g2
(lp217
g0
(g1
g2
(lp218
Vit
p219
atp220
Rp221
(dp222
g11
S'start: 11'
p223
sbatp224
Rp225
(dp226
g11
S'sent: 11'
p227
sbatp228
Rp229
(dp230
g11
S'id: 24'
p231
sbag0
(g1
g2
(lp232
g0
(g1
g2
(lp233
g0
(g1
g2
(lp234
VShoes .
p235
atp236
Rp237
(dp238
g11
S'start: 1'
p239
sbatp240
Rp241
(dp242
g11
S'sent: 14'
p243
sbag0
(g1
g2
(lp244
g0
(g1
g2
(lp245
Vshoes
p246
atp247
Rp248
(dp249
g11
S'start: 7'
p250
sbatp251
Rp252
(dp253
g11
S'sent: 15'
p254
sbatp255
Rp256
(dp257
g11
S'id: 38'
p258
sbatp259
Rp260
(dp261
g11
S'coreferences'
p262
sb.