ccopy_reg
_reconstructor
p0
(cnltk.tree
Tree
p1
c__builtin__
list
p2
(lp3
g0
(g1
g2
(lp4
g0
(g1
g2
(lp5
g0
(g1
g2
(lp6
Vone
p7
atp8
Rp9
(dp10
S'_label'
p11
S'start: 5'
p12
sbatp13
Rp14
(dp15
g11
S'sent: 1'
p16
sbag0
(g1
g2
(lp17
g0
(g1
g2
(lp18
Vit
p19
atp20
Rp21
(dp22
g11
S'start: 13'
p23
sbatp24
Rp25
(dp26
g11
S'sent: 1'
p27
sbatp28
Rp29
(dp30
g11
S'id: 1'
p31
sbag0
(g1
g2
(lp32
g0
(g1
g2
(lp33
g0
(g1
g2
(lp34
VThe daughter
p35
atp36
Rp37
(dp38
g11
S'start: 1'
p39
sbatp40
Rp41
(dp42
g11
S'sent: 3'
p43
sbag0
(g1
g2
(lp44
g0
(g1
g2
(lp45
Vher
p46
atp47
Rp48
(dp49
g11
S'start: 12'
p50
sbatp51
Rp52
(dp53
g11
S'sent: 3'
p54
sbatp55
Rp56
(dp57
g11
S'id: 11'
p58
sbag0
(g1
g2
(lp59
g0
(g1
g2
(lp60
g0
(g1
g2
(lp61
Va kite
p62
atp63
Rp64
(dp65
g11
S'start: 15'
p66
sbatp67
Rp68
(dp69
g11
S'sent: 3'
p70
sbag0
(g1
g2
(lp71
g0
(g1
g2
(lp72
Vthe kite
p73
atp74
Rp75
(dp76
g11
S'start: 24'
p77
sbatp78
Rp79
(dp80
g11
S'sent: 7'
p81
sbatp82
Rp83
(dp84
g11
S'id: 15'
p85
sbag0
(g1
g2
(lp86
g0
(g1
g2
(lp87
g0
(g1
g2
(lp88
VThe dad
p89
atp90
Rp91
(dp92
g11
S'start: 1'
p93
sbatp94
Rp95
(dp96
g11
S'sent: 4'
p97
sbag0
(g1
g2
(lp98
g0
(g1
g2
(lp99
Vhis
p100
atp101
Rp102
(dp103
g11
S'start: 8'
p104
sbatp105
Rp106
(dp107
g11
S'sent: 4'
p108
sbag0
(g1
g2
(lp109
g0
(g1
g2
(lp110
VThe dad 's
p111
atp112
Rp113
(dp114
g11
S'start: 1'
p115
sbatp116
Rp117
(dp118
g11
S'sent: 10'
p119
sbatp120
Rp121
(dp122
g11
S'id: 17'
p123
sbag0
(g1
g2
(lp124
g0
(g1
g2
(lp125
g0
(g1
g2
(lp126
VThe
p127
atp128
Rp129
(dp130
g11
S'start: 1'
p131
sbatp132
Rp133
(dp134
g11
S'sent: 5'
p135
sbag0
(g1
g2
(lp136
g0
(g1
g2
(lp137
Vit
p138
atp139
Rp140
(dp141
g11
S'start: 8'
p142
sbatp143
Rp144
(dp145
g11
S'sent: 5'
p146
sbag0
(g1
g2
(lp147
g0
(g1
g2
(lp148
Vit
p149
atp150
Rp151
(dp152
g11
S'start: 2'
p153
sbatp154
Rp155
(dp156
g11
S'sent: 6'
p157
sbag0
(g1
g2
(lp158
g0
(g1
g2
(lp159
Vit
p160
atp161
Rp162
(dp163
g11
S'start: 11'
p164
sbatp165
Rp166
(dp167
g11
S'sent: 6'
p168
sbatp169
Rp170
(dp171
g11
S'id: 23'
p172
sbag0
(g1
g2
(lp173
g0
(g1
g2
(lp174
g0
(g1
g2
(lp175
Va park ranger
p176
atp177
Rp178
(dp179
g11
S'start: 12'
p180
sbatp181
Rp182
(dp183
g11
S'sent: 5'
p184
sbag0
(g1
g2
(lp185
g0
(g1
g2
(lp186
Va park ranger
p187
atp188
Rp189
(dp190
g11
S'start: 31'
p191
sbatp192
Rp193
(dp194
g11
S'sent: 5'
p195
sbag0
(g1
g2
(lp196
g0
(g1
g2
(lp197
Vhe
p198
atp199
Rp200
(dp201
g11
S'start: 5'
p202
sbatp203
Rp204
(dp205
g11
S'sent: 6'
p206
sbatp207
Rp208
(dp209
g11
S'id: 25'
p210
sbag0
(g1
g2
(lp211
g0
(g1
g2
(lp212
g0
(g1
g2
(lp213
Va fish
p214
atp215
Rp216
(dp217
g11
S'start: 17'
p218
sbatp219
Rp220
(dp221
g11
S'sent: 5'
p222
sbag0
(g1
g2
(lp223
g0
(g1
g2
(lp224
Vthe fish
p225
atp226
Rp227
(dp228
g11
S'start: 36'
p229
sbatp230
Rp231
(dp232
g11
S'sent: 5'
p233
sbag0
(g1
g2
(lp234
g0
(g1
g2
(lp235
Va jumping around on the line
p236
atp237
Rp238
(dp239
g11
S'start: 39'
p240
sbatp241
Rp242
(dp243
g11
S'sent: 5'
p244
sbag0
(g1
g2
(lp245
g0
(g1
g2
(lp246
VThe a
p247
atp248
Rp249
(dp250
g11
S'start: 1'
p251
sbatp252
Rp253
(dp254
g11
S'sent: 8'
p255
sbatp256
Rp257
(dp258
g11
S'id: 27'
p259
sbag0
(g1
g2
(lp260
g0
(g1
g2
(lp261
g0
(g1
g2
(lp262
Vpretty windy day
p263
atp264
Rp265
(dp266
g11
S'start: 4'
p267
sbatp268
Rp269
(dp270
g11
S'sent: 7'
p271
sbag0
(g1
g2
(lp272
g0
(g1
g2
(lp273
Vit
p274
atp275
Rp276
(dp277
g11
S'start: 29'
p278
sbatp279
Rp280
(dp281
g11
S'sent: 7'
p282
sbatp283
Rp284
(dp285
g11
S'id: 38'
p286
sbatp287
Rp288
(dp289
g11
S'coreferences'
p290
sb.