ccopy_reg
_reconstructor
p0
(cnltk.tree
Tree
p1
c__builtin__
list
p2
(lp3
g0
(g1
g2
(lp4
g0
(g1
g2
(lp5
g0
(g1
g2
(lp6
g0
(g1
g2
(lp7
VShine
p8
atp9
Rp10
(dp11
S'_label'
p12
VVB
p13
sbatp14
Rp15
(dp16
g12
VVP
p17
sbag0
(g1
g2
(lp18
V,
p19
atp20
Rp21
(dp22
g12
V,
p23
sbag0
(g1
g2
(lp24
g0
(g1
g2
(lp25
Vno
p26
atp27
Rp28
(dp29
g12
VDT
p30
sbatp31
Rp32
(dp33
g12
VNP
p34
sbag0
(g1
g2
(lp35
V.
p36
atp37
Rp38
(dp39
g12
V.
p40
sbatp41
Rp42
(dp43
g12
VS
p44
sbatp45
Rp46
(dp47
g12
S'id: 0'
p48
sbag0
(g1
g2
(lp49
g0
(g1
g2
(lp50
g0
(g1
g2
(lp51
VOK
p52
atp53
Rp54
(dp55
g12
VUH
p56
sbag0
(g1
g2
(lp57
V.
p58
atp59
Rp60
(dp61
g12
V.
p62
sbatp63
Rp64
(dp65
g12
VINTJ
p66
sbatp67
Rp68
(dp69
g12
S'id: 1'
p70
sbag0
(g1
g2
(lp71
g0
(g1
g2
(lp72
g0
(g1
g2
(lp73
g0
(g1
g2
(lp74
VLine
p75
atp76
Rp77
(dp78
g12
VNNP
p79
sbatp80
Rp81
(dp82
g12
VNP
p83
sbag0
(g1
g2
(lp84
V,
p85
atp86
Rp87
(dp88
g12
V,
p89
sbag0
(g1
g2
(lp90
g0
(g1
g2
(lp91
Vline
p92
atp93
Rp94
(dp95
g12
VNN
p96
sbatp97
Rp98
(dp99
g12
VNP
p100
sbag0
(g1
g2
(lp101
V.
p102
atp103
Rp104
(dp105
g12
V.
p106
sbatp107
Rp108
(dp109
g12
VNP
p110
sbatp111
Rp112
(dp113
g12
S'id: 2'
p114
sbag0
(g1
g2
(lp115
g0
(g1
g2
(lp116
g0
(g1
g2
(lp117
g0
(g1
g2
(lp118
VBar
p119
atp120
Rp121
(dp122
g12
VNN
p123
sbatp124
Rp125
(dp126
g12
VNP
p127
sbag0
(g1
g2
(lp128
V,
p129
atp130
Rp131
(dp132
g12
V,
p133
sbag0
(g1
g2
(lp134
g0
(g1
g2
(lp135
g0
(g1
g2
(lp136
Vbar
p137
atp138
Rp139
(dp140
g12
VNN
p141
sbatp142
Rp143
(dp144
g12
VNP
p145
sbag0
(g1
g2
(lp146
V,
p147
atp148
Rp149
(dp150
g12
V,
p151
sbag0
(g1
g2
(lp152
g0
(g1
g2
(lp153
Vbar
p154
atp155
Rp156
(dp157
g12
VNN
p158
sbatp159
Rp160
(dp161
g12
VNP
p162
sbatp163
Rp164
(dp165
g12
VNP
p166
sbag0
(g1
g2
(lp167
V.
p168
atp169
Rp170
(dp171
g12
V.
p172
sbatp173
Rp174
(dp175
g12
VNP
p176
sbatp177
Rp178
(dp179
g12
S'id: 3'
p180
sbag0
(g1
g2
(lp181
g0
(g1
g2
(lp182
g0
(g1
g2
(lp183
g0
(g1
g2
(lp184
VClown
p185
atp186
Rp187
(dp188
g12
VNNP
p189
sbatp190
Rp191
(dp192
g12
VNP
p193
sbag0
(g1
g2
(lp194
V,
p195
atp196
Rp197
(dp198
g12
V,
p199
sbag0
(g1
g2
(lp200
g0
(g1
g2
(lp201
g0
(g1
g2
(lp202
Vclown
p203
atp204
Rp205
(dp206
g12
VNN
p207
sbatp208
Rp209
(dp210
g12
VNP
p211
sbag0
(g1
g2
(lp212
V,
p213
atp214
Rp215
(dp216
g12
V,
p217
sbag0
(g1
g2
(lp218
Vand
p219
atp220
Rp221
(dp222
g12
VCC
p223
sbag0
(g1
g2
(lp224
g0
(g1
g2
(lp225
Va
p226
atp227
Rp228
(dp229
g12
VDT
p230
sbag0
(g1
g2
(lp231
Vwell
p232
atp233
Rp234
(dp235
g12
VRB
p236
sbatp237
Rp238
(dp239
g12
VNP
p240
sbatp241
Rp242
(dp243
g12
VNP
p244
sbag0
(g1
g2
(lp245
V.
p246
atp247
Rp248
(dp249
g12
V.
p250
sbatp251
Rp252
(dp253
g12
VNP
p254
sbatp255
Rp256
(dp257
g12
S'id: 4'
p258
sbag0
(g1
g2
(lp259
g0
(g1
g2
(lp260
g0
(g1
g2
(lp261
g0
(g1
g2
(lp262
g0
(g1
g2
(lp263
VCa
p264
atp265
Rp266
(dp267
g12
VNN
p268
sbag0
(g1
g2
(lp269
Vn't
p270
atp271
Rp272
(dp273
g12
VRB
p274
sbatp275
Rp276
(dp277
g12
VNP
p278
sbag0
(g1
g2
(lp279
V,
p280
atp281
Rp282
(dp283
g12
V,
p284
sbag0
(g1
g2
(lp285
g0
(g1
g2
(lp286
Vca
p287
atp288
Rp289
(dp290
g12
VMD
p291
sbag0
(g1
g2
(lp292
Vn't
p293
atp294
Rp295
(dp296
g12
VRB
p297
sbatp298
Rp299
(dp300
g12
VVP
p301
sbag0
(g1
g2
(lp302
V,
p303
atp304
Rp305
(dp306
g12
V,
p307
sbatp308
Rp309
(dp310
g12
VNP
p311
sbag0
(g1
g2
(lp312
g0
(g1
g2
(lp313
g0
(g1
g2
(lp314
Vcan
p315
atp316
Rp317
(dp318
g12
VMD
p319
sbatp320
Rp321
(dp322
g12
VVP
p323
sbag0
(g1
g2
(lp324
V,
p325
atp326
Rp327
(dp328
g12
V,
p329
sbag0
(g1
g2
(lp330
g0
(g1
g2
(lp331
Vcan
p332
atp333
Rp334
(dp335
g12
VMD
p336
sbatp337
Rp338
(dp339
g12
VVP
p340
sbag0
(g1
g2
(lp341
V,
p342
atp343
Rp344
(dp345
g12
V,
p346
sbag0
(g1
g2
(lp347
g0
(g1
g2
(lp348
Vcan
p349
atp350
Rp351
(dp352
g12
VMD
p353
sbatp354
Rp355
(dp356
g12
VVP
p357
sbatp358
Rp359
(dp360
g12
VVP
p361
sbag0
(g1
g2
(lp362
V.
p363
atp364
Rp365
(dp366
g12
V.
p367
sbatp368
Rp369
(dp370
g12
VS
p371
sbatp372
Rp373
(dp374
g12
S'id: 5'
p375
sbag0
(g1
g2
(lp376
g0
(g1
g2
(lp377
g0
(g1
g2
(lp378
g0
(g1
g2
(lp379
g0
(g1
g2
(lp380
VBoy
p381
atp382
Rp383
(dp384
g12
VNN
p385
sbatp386
Rp387
(dp388
g12
VNP
p389
sbag0
(g1
g2
(lp390
Vand
p391
atp392
Rp393
(dp394
g12
VCC
p395
sbag0
(g1
g2
(lp396
g0
(g1
g2
(lp397
Vgirl
p398
atp399
Rp400
(dp401
g12
VNN
p402
sbatp403
Rp404
(dp405
g12
VNP
p406
sbatp407
Rp408
(dp409
g12
VNP
p410
sbag0
(g1
g2
(lp411
V.
p412
atp413
Rp414
(dp415
g12
V.
p416
sbatp417
Rp418
(dp419
g12
VNP
p420
sbatp421
Rp422
(dp423
g12
S'id: 6'
p424
sbag0
(g1
g2
(lp425
g0
(g1
g2
(lp426
g0
(g1
g2
(lp427
g0
(g1
g2
(lp428
VMom
p429
atp430
Rp431
(dp432
g12
VNN
p433
sbatp434
Rp435
(dp436
g12
VNP
p437
sbag0
(g1
g2
(lp438
V,
p439
atp440
Rp441
(dp442
g12
V,
p443
sbag0
(g1
g2
(lp444
g0
(g1
g2
(lp445
Vmom
p446
atp447
Rp448
(dp449
g12
VNN
p450
sbatp451
Rp452
(dp453
g12
VNP
p454
sbag0
(g1
g2
(lp455
V,
p456
atp457
Rp458
(dp459
g12
V,
p460
sbag0
(g1
g2
(lp461
Vand
p462
atp463
Rp464
(dp465
g12
VCC
p466
sbag0
(g1
g2
(lp467
g0
(g1
g2
(lp468
g0
(g1
g2
(lp469
g0
(g1
g2
(lp470
Vand
p471
atp472
Rp473
(dp474
g12
VCC
p475
sbag0
(g1
g2
(lp476
Vdad
p477
atp478
Rp479
(dp480
g12
VNN
p481
sbatp482
Rp483
(dp484
g12
VNP
p485
sbag0
(g1
g2
(lp486
V,
p487
atp488
Rp489
(dp490
g12
V,
p491
sbag0
(g1
g2
(lp492
Vand
p493
atp494
Rp495
(dp496
g12
VCC
p497
sbag0
(g1
g2
(lp498
g0
(g1
g2
(lp499
Vgirl
p500
atp501
Rp502
(dp503
g12
VNN
p504
sbatp505
Rp506
(dp507
g12
VNP
p508
sbag0
(g1
g2
(lp509
V,
p510
atp511
Rp512
(dp513
g12
V,
p514
sbatp515
Rp516
(dp517
g12
VNP
p518
sbag0
(g1
g2
(lp519
Vand
p520
atp521
Rp522
(dp523
g12
VCC
p524
sbag0
(g1
g2
(lp525
g0
(g1
g2
(lp526
g0
(g1
g2
(lp527
Vhorse
p528
atp529
Rp530
(dp531
g12
VNN
p532
sbag0
(g1
g2
(lp533
Vhorse
p534
atp535
Rp536
(dp537
g12
VNN
p538
sbatp539
Rp540
(dp541
g12
VNP
p542
sbag0
(g1
g2
(lp543
V,
p544
atp545
Rp546
(dp547
g12
V,
p548
sbag0
(g1
g2
(lp549
Vand
p550
atp551
Rp552
(dp553
g12
VCC
p554
sbag0
(g1
g2
(lp555
g0
(g1
g2
(lp556
Vand
p557
atp558
Rp559
(dp560
g12
VCC
p561
sbatp562
Rp563
(dp564
g12
VADVP
p565
sbag0
(g1
g2
(lp566
g0
(g1
g2
(lp567
Va
p568
atp569
Rp570
(dp571
g12
VDT
p572
sbag0
(g1
g2
(lp573
g0
(g1
g2
(lp574
Vfar
p575
atp576
Rp577
(dp578
g12
VRB
p579
sbag0
(g1
g2
(lp580
Vno
p581
atp582
Rp583
(dp584
g12
VDT
p585
sbatp586
Rp587
(dp588
g12
VADJP
p589
sbatp590
Rp591
(dp592
g12
VNP
p593
sbatp594
Rp595
(dp596
g12
VNP
p597
sbatp598
Rp599
(dp600
g12
VNP
p601
sbag0
(g1
g2
(lp602
V.
p603
atp604
Rp605
(dp606
g12
V.
p607
sbatp608
Rp609
(dp610
g12
VNP
p611
sbatp612
Rp613
(dp614
g12
S'id: 7'
p615
sbag0
(g1
g2
(lp616
g0
(g1
g2
(lp617
g0
(g1
g2
(lp618
g0
(g1
g2
(lp619
VOne
p620
atp621
Rp622
(dp623
g12
VCD
p624
sbag0
(g1
g2
(lp625
Vtwo
p626
atp627
Rp628
(dp629
g12
VCD
p630
sbatp631
Rp632
(dp633
g12
VNP
p634
sbag0
(g1
g2
(lp635
g0
(g1
g2
(lp636
g0
(g1
g2
(lp637
g0
(g1
g2
(lp638
Vthree
p639
atp640
Rp641
(dp642
g12
VCD
p643
sbag0
(g1
g2
(lp644
Vfour
p645
atp646
Rp647
(dp648
g12
VCD
p649
sbatp650
Rp651
(dp652
g12
VQP
p653
sbatp654
Rp655
(dp656
g12
VNP
p657
sbag0
(g1
g2
(lp658
g0
(g1
g2
(lp659
Vfive
p660
atp661
Rp662
(dp663
g12
VCD
p664
sbatp665
Rp666
(dp667
g12
VNP
p668
sbatp669
Rp670
(dp671
g12
VNP
p672
sbag0
(g1
g2
(lp673
g0
(g1
g2
(lp674
g0
(g1
g2
(lp675
Vsix
p676
atp677
Rp678
(dp679
g12
VCD
p680
sbatp681
Rp682
(dp683
g12
VNP
p684
sbag0
(g1
g2
(lp685
V,
p686
atp687
Rp688
(dp689
g12
V,
p690
sbag0
(g1
g2
(lp691
g0
(g1
g2
(lp692
Vsix
p693
atp694
Rp695
(dp696
g12
VCD
p697
sbag0
(g1
g2
(lp698
Vgirls
p699
atp700
Rp701
(dp702
g12
VNNS
p703
sbatp704
Rp705
(dp706
g12
VNP
p707
sbatp708
Rp709
(dp710
g12
VNP
p711
sbag0
(g1
g2
(lp712
V,
p713
atp714
Rp715
(dp716
g12
V,
p717
sbag0
(g1
g2
(lp718
g0
(g1
g2
(lp719
Vsix
p720
atp721
Rp722
(dp723
g12
VCD
p724
sbag0
(g1
g2
(lp725
Vgirls
p726
atp727
Rp728
(dp729
g12
VNNS
p730
sbatp731
Rp732
(dp733
g12
VNP
p734
sbag0
(g1
g2
(lp735
V,
p736
atp737
Rp738
(dp739
g12
V,
p740
sbag0
(g1
g2
(lp741
g0
(g1
g2
(lp742
g0
(g1
g2
(lp743
Vgirls
p744
atp745
Rp746
(dp747
g12
VNNS
p748
sbatp749
Rp750
(dp751
g12
VNP
p752
sbag0
(g1
g2
(lp753
g0
(g1
g2
(lp754
Vno
p755
atp756
Rp757
(dp758
g12
VDT
p759
sbag0
(g1
g2
(lp760
Vgirls
p761
atp762
Rp763
(dp764
g12
VNNS
p765
sbatp766
Rp767
(dp768
g12
VNP
p769
sbatp770
Rp771
(dp772
g12
VNP
p773
sbag0
(g1
g2
(lp774
V.
p775
atp776
Rp777
(dp778
g12
V.
p779
sbatp780
Rp781
(dp782
g12
VNP
p783
sbatp784
Rp785
(dp786
g12
S'id: 8'
p787
sbag0
(g1
g2
(lp788
g0
(g1
g2
(lp789
g0
(g1
g2
(lp790
g0
(g1
g2
(lp791
VOne
p792
atp793
Rp794
(dp795
g12
VCD
p796
sbatp797
Rp798
(dp799
g12
VNP
p800
sbag0
(g1
g2
(lp801
V,
p802
atp803
Rp804
(dp805
g12
V,
p806
sbag0
(g1
g2
(lp807
g0
(g1
g2
(lp808
Vone
p809
atp810
Rp811
(dp812
g12
VCD
p813
sbatp814
Rp815
(dp816
g12
VNP
p817
sbag0
(g1
g2
(lp818
V.
p819
atp820
Rp821
(dp822
g12
V.
p823
sbatp824
Rp825
(dp826
g12
VNP
p827
sbatp828
Rp829
(dp830
g12
S'id: 9'
p831
sbag0
(g1
g2
(lp832
g0
(g1
g2
(lp833
g0
(g1
g2
(lp834
g0
(g1
g2
(lp835
VOne
p836
atp837
Rp838
(dp839
g12
VCD
p840
sbatp841
Rp842
(dp843
g12
VNP
p844
sbag0
(g1
g2
(lp845
V.
p846
atp847
Rp848
(dp849
g12
V.
p850
sbatp851
Rp852
(dp853
g12
VFRAG
p854
sbatp855
Rp856
(dp857
g12
S'id: 10'
p858
sbag0
(g1
g2
(lp859
g0
(g1
g2
(lp860
g0
(g1
g2
(lp861
g0
(g1
g2
(lp862
VGirl
p863
atp864
Rp865
(dp866
g12
VNNP
p867
sbatp868
Rp869
(dp870
g12
VNP
p871
sbag0
(g1
g2
(lp872
V.
p873
atp874
Rp875
(dp876
g12
V.
p877
sbatp878
Rp879
(dp880
g12
VFRAG
p881
sbatp882
Rp883
(dp884
g12
S'id: 11'
p885
sbatp886
Rp887
(dp888
g12
S'sentences'
p889
sb.