ccopy_reg
_reconstructor
p0
(cnltk.tree
Tree
p1
c__builtin__
list
p2
(lp3
g0
(g1
g2
(lp4
g0
(g1
g2
(lp5
g0
(g1
g2
(lp6
Vthat
p7
atp8
Rp9
(dp10
S'_label'
p11
S'start: 4'
p12
sbatp13
Rp14
(dp15
g11
S'sent: 1'
p16
sbag0
(g1
g2
(lp17
g0
(g1
g2
(lp18
Vi
p19
atp20
Rp21
(dp22
g11
S'start: 3'
p23
sbatp24
Rp25
(dp26
g11
S'sent: 4'
p27
sbag0
(g1
g2
(lp28
g0
(g1
g2
(lp29
VI
p30
atp31
Rp32
(dp33
g11
S'start: 29'
p34
sbatp35
Rp36
(dp37
g11
S'sent: 5'
p38
sbag0
(g1
g2
(lp39
g0
(g1
g2
(lp40
Vi
p41
atp42
Rp43
(dp44
g11
S'start: 13'
p45
sbatp46
Rp47
(dp48
g11
S'sent: 9'
p49
sbag0
(g1
g2
(lp50
g0
(g1
g2
(lp51
VI
p52
atp53
Rp54
(dp55
g11
S'start: 1'
p56
sbatp57
Rp58
(dp59
g11
S'sent: 11'
p60
sbag0
(g1
g2
(lp61
g0
(g1
g2
(lp62
VI
p63
atp64
Rp65
(dp66
g11
S'start: 10'
p67
sbatp68
Rp69
(dp70
g11
S'sent: 11'
p71
sbag0
(g1
g2
(lp72
g0
(g1
g2
(lp73
VI
p74
atp75
Rp76
(dp77
g11
S'start: 1'
p78
sbatp79
Rp80
(dp81
g11
S'sent: 15'
p82
sbag0
(g1
g2
(lp83
g0
(g1
g2
(lp84
VI
p85
atp86
Rp87
(dp88
g11
S'start: 9'
p89
sbatp90
Rp91
(dp92
g11
S'sent: 15'
p93
sbatp94
Rp95
(dp96
g11
S'id: 2'
p97
sbag0
(g1
g2
(lp98
g0
(g1
g2
(lp99
g0
(g1
g2
(lp100
VOk .
p101
atp102
Rp103
(dp104
g11
S'start: 1'
p105
sbatp106
Rp107
(dp108
g11
S'sent: 2'
p109
sbag0
(g1
g2
(lp110
g0
(g1
g2
(lp111
VOk
p112
atp113
Rp114
(dp115
g11
S'start: 1'
p116
sbatp117
Rp118
(dp119
g11
S'sent: 4'
p120
sbatp121
Rp122
(dp123
g11
S'id: 3'
p124
sbag0
(g1
g2
(lp125
g0
(g1
g2
(lp126
g0
(g1
g2
(lp127
V's
p128
atp129
Rp130
(dp131
g11
S'start: 2'
p132
sbatp133
Rp134
(dp135
g11
S'sent: 3'
p136
sbag0
(g1
g2
(lp137
g0
(g1
g2
(lp138
Vthey
p139
atp140
Rp141
(dp142
g11
S'start: 2'
p143
sbatp144
Rp145
(dp146
g11
S'sent: 5'
p147
sbatp148
Rp149
(dp150
g11
S'id: 4'
p151
sbag0
(g1
g2
(lp152
g0
(g1
g2
(lp153
g0
(g1
g2
(lp154
Vthat boy
p155
atp156
Rp157
(dp158
g11
S'start: 9'
p159
sbatp160
Rp161
(dp162
g11
S'sent: 4'
p163
sbag0
(g1
g2
(lp164
g0
(g1
g2
(lp165
Vhe
p166
atp167
Rp168
(dp169
g11
S'start: 5'
p170
sbatp171
Rp172
(dp173
g11
S'sent: 5'
p174
sbag0
(g1
g2
(lp175
g0
(g1
g2
(lp176
Vhis
p177
atp178
Rp179
(dp180
g11
S'start: 7'
p181
sbatp182
Rp183
(dp184
g11
S'sent: 5'
p185
sbag0
(g1
g2
(lp186
g0
(g1
g2
(lp187
Vhe
p188
atp189
Rp190
(dp191
g11
S'start: 12'
p192
sbatp193
Rp194
(dp195
g11
S'sent: 5'
p196
sbatp197
Rp198
(dp199
g11
S'id: 7'
p200
sbag0
(g1
g2
(lp201
g0
(g1
g2
(lp202
g0
(g1
g2
(lp203
Va wire
p204
atp205
Rp206
(dp207
g11
S'start: 14'
p208
sbatp209
Rp210
(dp211
g11
S'sent: 5'
p212
sbag0
(g1
g2
(lp213
g0
(g1
g2
(lp214
Va telephone
p215
atp216
Rp217
(dp218
g11
S'start: 21'
p219
sbatp220
Rp221
(dp222
g11
S'sent: 5'
p223
sbag0
(g1
g2
(lp224
g0
(g1
g2
(lp225
Va telephone
p226
atp227
Rp228
(dp229
g11
S'start: 25'
p230
sbatp231
Rp232
(dp233
g11
S'sent: 5'
p234
sbag0
(g1
g2
(lp235
g0
(g1
g2
(lp236
Vit
p237
atp238
Rp239
(dp240
g11
S'start: 34'
p241
sbatp242
Rp243
(dp244
g11
S'sent: 5'
p245
sbag0
(g1
g2
(lp246
g0
(g1
g2
(lp247
VIt
p248
atp249
Rp250
(dp251
g11
S'start: 1'
p252
sbatp253
Rp254
(dp255
g11
S'sent: 6'
p256
sbag0
(g1
g2
(lp257
g0
(g1
g2
(lp258
Va
p259
atp260
Rp261
(dp262
g11
S'start: 3'
p263
sbatp264
Rp265
(dp266
g11
S'sent: 6'
p267
sbag0
(g1
g2
(lp268
g0
(g1
g2
(lp269
Vit
p270
atp271
Rp272
(dp273
g11
S'start: 5'
p274
sbatp275
Rp276
(dp277
g11
S'sent: 6'
p278
sbag0
(g1
g2
(lp279
g0
(g1
g2
(lp280
Va
p281
atp282
Rp283
(dp284
g11
S'start: 7'
p285
sbatp286
Rp287
(dp288
g11
S'sent: 6'
p289
sbag0
(g1
g2
(lp290
g0
(g1
g2
(lp291
Vit
p292
atp293
Rp294
(dp295
g11
S'start: 9'
p296
sbatp297
Rp298
(dp299
g11
S'sent: 6'
p300
sbatp301
Rp302
(dp303
g11
S'id: 17'
p304
sbag0
(g1
g2
(lp305
g0
(g1
g2
(lp306
g0
(g1
g2
(lp307
Va little , little , litte guy
p308
atp309
Rp310
(dp311
g11
S'start: 2'
p312
sbatp313
Rp314
(dp315
g11
S'sent: 7'
p316
sbag0
(g1
g2
(lp317
g0
(g1
g2
(lp318
Vthe little fellow
p319
atp320
Rp321
(dp322
g11
S'start: 10'
p323
sbatp324
Rp325
(dp326
g11
S'sent: 7'
p327
sbag0
(g1
g2
(lp328
g0
(g1
g2
(lp329
VHe
p330
atp331
Rp332
(dp333
g11
S'start: 1'
p334
sbatp335
Rp336
(dp337
g11
S'sent: 8'
p338
sbag0
(g1
g2
(lp339
g0
(g1
g2
(lp340
Vhe
p341
atp342
Rp343
(dp344
g11
S'start: 5'
p345
sbatp346
Rp347
(dp348
g11
S'sent: 8'
p349
sbag0
(g1
g2
(lp350
g0
(g1
g2
(lp351
Vhe
p352
atp353
Rp354
(dp355
g11
S'start: 9'
p356
sbatp357
Rp358
(dp359
g11
S'sent: 9'
p360
sbag0
(g1
g2
(lp361
g0
(g1
g2
(lp362
Vhe
p363
atp364
Rp365
(dp366
g11
S'start: 15'
p367
sbatp368
Rp369
(dp370
g11
S'sent: 9'
p371
sbatp372
Rp373
(dp374
g11
S'id: 30'
p375
sbag0
(g1
g2
(lp376
g0
(g1
g2
(lp377
g0
(g1
g2
(lp378
Vthe is the little , little dog , following the fellow that 's pulling the flag
p379
atp380
Rp381
(dp382
g11
S'start: 15'
p383
sbatp384
Rp385
(dp386
g11
S'sent: 7'
p387
sbag0
(g1
g2
(lp388
g0
(g1
g2
(lp389
Vit
p390
atp391
Rp392
(dp393
g11
S'start: 10'
p394
sbatp395
Rp396
(dp397
g11
S'sent: 8'
p398
sbag0
(g1
g2
(lp399
g0
(g1
g2
(lp400
Vthe
p401
atp402
Rp403
(dp404
g11
S'start: 2'
p405
sbatp406
Rp407
(dp408
g11
S'sent: 14'
p409
sbag0
(g1
g2
(lp410
g0
(g1
g2
(lp411
Vit
p412
atp413
Rp414
(dp415
g11
S'start: 3'
p416
sbatp417
Rp418
(dp419
g11
S'sent: 15'
p420
sbag0
(g1
g2
(lp421
g0
(g1
g2
(lp422
Vit
p423
atp424
Rp425
(dp426
g11
S'start: 3'
p427
sbatp428
Rp429
(dp430
g11
S'sent: 16'
p431
sbag0
(g1
g2
(lp432
g0
(g1
g2
(lp433
Vit
p434
atp435
Rp436
(dp437
g11
S'start: 2'
p438
sbatp439
Rp440
(dp441
g11
S'sent: 17'
p442
sbatp443
Rp444
(dp445
g11
S'id: 32'
p446
sbag0
(g1
g2
(lp447
g0
(g1
g2
(lp448
g0
(g1
g2
(lp449
Vthe flag
p450
atp451
Rp452
(dp453
g11
S'start: 29'
p454
sbatp455
Rp456
(dp457
g11
S'sent: 7'
p458
sbag0
(g1
g2
(lp459
g0
(g1
g2
(lp460
Vthe flag
p461
atp462
Rp463
(dp464
g11
S'start: 5'
p465
sbatp466
Rp467
(dp468
g11
S'sent: 10'
p469
sbag0
(g1
g2
(lp470
g0
(g1
g2
(lp471
Vthe flag
p472
atp473
Rp474
(dp475
g11
S'start: 5'
p476
sbatp477
Rp478
(dp479
g11
S'sent: 11'
p480
sbag0
(g1
g2
(lp481
g0
(g1
g2
(lp482
VThe flag
p483
atp484
Rp485
(dp486
g11
S'start: 1'
p487
sbatp488
Rp489
(dp490
g11
S'sent: 12'
p491
sbatp492
Rp493
(dp494
g11
S'id: 36'
p495
sbag0
(g1
g2
(lp496
g0
(g1
g2
(lp497
g0
(g1
g2
(lp498
Va fellow out there , o he 's , o i guess he 's seen
p499
atp500
Rp501
(dp502
g11
S'start: 3'
p503
sbatp504
Rp505
(dp506
g11
S'sent: 9'
p507
sbag0
(g1
g2
(lp508
g0
(g1
g2
(lp509
Vhe
p510
atp511
Rp512
(dp513
g11
S'start: 19'
p514
sbatp515
Rp516
(dp517
g11
S'sent: 9'
p518
sbag0
(g1
g2
(lp519
g0
(g1
g2
(lp520
Vhe
p521
atp522
Rp523
(dp524
g11
S'start: 25'
p525
sbatp526
Rp527
(dp528
g11
S'sent: 9'
p529
sbatp530
Rp531
(dp532
g11
S'id: 40'
p533
sbag0
(g1
g2
(lp534
g0
(g1
g2
(lp535
g0
(g1
g2
(lp536
Va fish
p537
atp538
Rp539
(dp540
g11
S'start: 22'
p541
sbatp542
Rp543
(dp544
g11
S'sent: 9'
p545
sbag0
(g1
g2
(lp546
g0
(g1
g2
(lp547
Va fish
p548
atp549
Rp550
(dp551
g11
S'start: 29'
p552
sbatp553
Rp554
(dp555
g11
S'sent: 9'
p556
sbatp557
Rp558
(dp559
g11
S'id: 48'
p560
sbag0
(g1
g2
(lp561
g0
(g1
g2
(lp562
g0
(g1
g2
(lp563
Va cedar tree
p564
atp565
Rp566
(dp567
g11
S'start: 6'
p568
sbatp569
Rp570
(dp571
g11
S'sent: 14'
p572
sbag0
(g1
g2
(lp573
g0
(g1
g2
(lp574
Va cedar tree
p575
atp576
Rp577
(dp578
g11
S'start: 5'
p579
sbatp580
Rp581
(dp582
g11
S'sent: 15'
p583
sbatp584
Rp585
(dp586
g11
S'id: 60'
p587
sbag0
(g1
g2
(lp588
g0
(g1
g2
(lp589
g0
(g1
g2
(lp590
Vthe girl in the in the sand bed , making the sand , making sand castle
p591
atp592
Rp593
(dp594
g11
S'start: 4'
p595
sbatp596
Rp597
(dp598
g11
S'sent: 17'
p599
sbag0
(g1
g2
(lp600
g0
(g1
g2
(lp601
Vshe
p602
atp603
Rp604
(dp605
g11
S'start: 4'
p606
sbatp607
Rp608
(dp609
g11
S'sent: 18'
p610
sbatp611
Rp612
(dp613
g11
S'id: 70'
p614
sbag0
(g1
g2
(lp615
g0
(g1
g2
(lp616
g0
(g1
g2
(lp617
Vtwo
p618
atp619
Rp620
(dp621
g11
S'start: 7'
p622
sbatp623
Rp624
(dp625
g11
S'sent: 20'
p626
sbag0
(g1
g2
(lp627
g0
(g1
g2
(lp628
Vtwo
p629
atp630
Rp631
(dp632
g11
S'start: 9'
p633
sbatp634
Rp635
(dp636
g11
S'sent: 20'
p637
sbatp638
Rp639
(dp640
g11
S'id: 80'
p641
sbatp642
Rp643
(dp644
g11
S'coreferences'
p645
sb.