ccopy_reg
_reconstructor
p0
(cnltk.tree
Tree
p1
c__builtin__
list
p2
(lp3
g0
(g1
g2
(lp4
g0
(g1
g2
(lp5
g0
(g1
g2
(lp6
VMama wishing dishes .
p7
atp8
Rp9
(dp10
S'_label'
p11
S'start: 1'
p12
sbatp13
Rp14
(dp15
g11
S'sent: 1'
p16
sbag0
(g1
g2
(lp17
g0
(g1
g2
(lp18
Vyour mama
p19
atp20
Rp21
(dp22
g11
S'start: 6'
p23
sbatp24
Rp25
(dp26
g11
S'sent: 7'
p27
sbatp28
Rp29
(dp30
g11
S'id: 1'
p31
sbag0
(g1
g2
(lp32
g0
(g1
g2
(lp33
g0
(g1
g2
(lp34
Va nice kitchen
p35
atp36
Rp37
(dp38
g11
S'start: 3'
p39
sbatp40
Rp41
(dp42
g11
S'sent: 4'
p43
sbag0
(g1
g2
(lp44
g0
(g1
g2
(lp45
Vthat
p46
atp47
Rp48
(dp49
g11
S'start: 16'
p50
sbatp51
Rp52
(dp53
g11
S'sent: 5'
p54
sbag0
(g1
g2
(lp55
g0
(g1
g2
(lp56
Va cup
p57
atp58
Rp59
(dp60
g11
S'start: 18'
p61
sbatp62
Rp63
(dp64
g11
S'sent: 5'
p65
sbag0
(g1
g2
(lp66
g0
(g1
g2
(lp67
Vits
p68
atp69
Rp70
(dp71
g11
S'start: 6'
p72
sbatp73
Rp74
(dp75
g11
S'sent: 6'
p76
sbatp77
Rp78
(dp79
g11
S'id: 15'
p80
sbag0
(g1
g2
(lp81
g0
(g1
g2
(lp82
g0
(g1
g2
(lp83
Vsome plates
p84
atp85
Rp86
(dp87
g11
S'start: 3'
p88
sbatp89
Rp90
(dp91
g11
S'sent: 5'
p92
sbag0
(g1
g2
(lp93
g0
(g1
g2
(lp94
Vplates
p95
atp96
Rp97
(dp98
g11
S'start: 6'
p99
sbatp100
Rp101
(dp102
g11
S'sent: 5'
p103
sbatp104
Rp105
(dp106
g11
S'id: 18'
p107
sbag0
(g1
g2
(lp108
g0
(g1
g2
(lp109
g0
(g1
g2
(lp110
Vcups
p111
atp112
Rp113
(dp114
g11
S'start: 9'
p115
sbatp116
Rp117
(dp118
g11
S'sent: 5'
p119
sbag0
(g1
g2
(lp120
g0
(g1
g2
(lp121
Vno what is
p122
atp123
Rp124
(dp125
g11
S'start: 11'
p126
sbatp127
Rp128
(dp129
g11
S'sent: 5'
p130
sbatp131
Rp132
(dp133
g11
S'id: 21'
p134
sbag0
(g1
g2
(lp135
g0
(g1
g2
(lp136
g0
(g1
g2
(lp137
VI
p138
atp139
Rp140
(dp141
g11
S'start: 21'
p142
sbatp143
Rp144
(dp145
g11
S'sent: 5'
p146
sbag0
(g1
g2
(lp147
g0
(g1
g2
(lp148
VI
p149
atp150
Rp151
(dp152
g11
S'start: 1'
p153
sbatp154
Rp155
(dp156
g11
S'sent: 6'
p157
sbatp158
Rp159
(dp160
g11
S'id: 25'
p161
sbag0
(g1
g2
(lp162
g0
(g1
g2
(lp163
g0
(g1
g2
(lp164
Va window
p165
atp166
Rp167
(dp168
g11
S'start: 3'
p169
sbatp170
Rp171
(dp172
g11
S'sent: 7'
p173
sbag0
(g1
g2
(lp174
g0
(g1
g2
(lp175
Vthe window
p176
atp177
Rp178
(dp179
g11
S'start: 11'
p180
sbatp181
Rp182
(dp183
g11
S'sent: 7'
p184
sbatp185
Rp186
(dp187
g11
S'id: 30'
p188
sbag0
(g1
g2
(lp189
g0
(g1
g2
(lp190
g0
(g1
g2
(lp191
VMama eating .
p192
atp193
Rp194
(dp195
g11
S'start: 1'
p196
sbatp197
Rp198
(dp199
g11
S'sent: 10'
p200
sbag0
(g1
g2
(lp201
g0
(g1
g2
(lp202
VShe
p203
atp204
Rp205
(dp206
g11
S'start: 1'
p207
sbatp208
Rp209
(dp210
g11
S'sent: 11'
p211
sbatp212
Rp213
(dp214
g11
S'id: 39'
p215
sbatp216
Rp217
(dp218
g11
S'coreferences'
p219
sb.