ccopy_reg
_reconstructor
p0
(cnltk.tree
Tree
p1
c__builtin__
list
p2
(lp3
g0
(g1
g2
(lp4
g0
(g1
g2
(lp5
g0
(g1
g2
(lp6
g0
(g1
g2
(lp7
Vthis
p8
atp9
Rp10
(dp11
S'_label'
p12
VDT
p13
sbatp14
Rp15
(dp16
g12
VNP
p17
sbag0
(g1
g2
(lp18
g0
(g1
g2
(lp19
Vlooks
p20
atp21
Rp22
(dp23
g12
VVBZ
p24
sbag0
(g1
g2
(lp25
g0
(g1
g2
(lp26
Vlike
p27
atp28
Rp29
(dp30
g12
VIN
p31
sbag0
(g1
g2
(lp32
g0
(g1
g2
(lp33
Van
p34
atp35
Rp36
(dp37
g12
VDT
p38
sbag0
(g1
g2
(lp39
Vold
p40
atp41
Rp42
(dp43
g12
VJJ
p44
sbag0
(g1
g2
(lp45
Vfashion
p46
atp47
Rp48
(dp49
g12
VNN
p50
sbag0
(g1
g2
(lp51
Vkitchen
p52
atp53
Rp54
(dp55
g12
VNN
p56
sbatp57
Rp58
(dp59
g12
VNP
p60
sbatp61
Rp62
(dp63
g12
VPP
p64
sbatp65
Rp66
(dp67
g12
VVP
p68
sbag0
(g1
g2
(lp69
V.
p70
atp71
Rp72
(dp73
g12
V.
p74
sbatp75
Rp76
(dp77
g12
VS
p78
sbatp79
Rp80
(dp81
g12
S'id: 0'
p82
sbag0
(g1
g2
(lp83
g0
(g1
g2
(lp84
g0
(g1
g2
(lp85
g0
(g1
g2
(lp86
g0
(g1
g2
(lp87
VMom
p88
atp89
Rp90
(dp91
g12
VNN
p92
sbag0
(g1
g2
(lp93
V's
p94
atp95
Rp96
(dp97
g12
VPOS
p98
sbatp99
Rp100
(dp101
g12
VNP
p102
sbag0
(g1
g2
(lp103
g0
(g1
g2
(lp104
Vthere
p105
atp106
Rp107
(dp108
g12
VEX
p109
sbatp110
Rp111
(dp112
g12
VNP
p113
sbatp114
Rp115
(dp116
g12
VNP
p117
sbag0
(g1
g2
(lp118
g0
(g1
g2
(lp119
Vdrying
p120
atp121
Rp122
(dp123
g12
VVBG
p124
sbag0
(g1
g2
(lp125
g0
(g1
g2
(lp126
Vthe
p127
atp128
Rp129
(dp130
g12
VDT
p131
sbag0
(g1
g2
(lp132
Vdishes
p133
atp134
Rp135
(dp136
g12
VNNS
p137
sbatp138
Rp139
(dp140
g12
VNP
p141
sbatp142
Rp143
(dp144
g12
VVP
p145
sbag0
(g1
g2
(lp146
V.
p147
atp148
Rp149
(dp150
g12
V.
p151
sbatp152
Rp153
(dp154
g12
VNP
p155
sbatp156
Rp157
(dp158
g12
S'id: 1'
p159
sbag0
(g1
g2
(lp160
g0
(g1
g2
(lp161
g0
(g1
g2
(lp162
g0
(g1
g2
(lp163
g0
(g1
g2
(lp164
VThe
p165
atp166
Rp167
(dp168
g12
VDT
p169
sbag0
(g1
g2
(lp170
Vsink
p171
atp172
Rp173
(dp174
g12
VNN
p175
sbatp176
Rp177
(dp178
g12
VNP
p179
sbag0
(g1
g2
(lp180
g0
(g1
g2
(lp181
Vis
p182
atp183
Rp184
(dp185
g12
VVBZ
p186
sbag0
(g1
g2
(lp187
g0
(g1
g2
(lp188
Vover
p189
atp190
Rp191
(dp192
g12
VIN
p193
sbag0
(g1
g2
(lp194
g0
(g1
g2
(lp195
Vflowing
p196
atp197
Rp198
(dp199
g12
VVBG
p200
sbatp201
Rp202
(dp203
g12
VNP
p204
sbatp205
Rp206
(dp207
g12
VPP
p208
sbatp209
Rp210
(dp211
g12
VVP
p212
sbatp213
Rp214
(dp215
g12
VS
p216
sbag0
(g1
g2
(lp217
V,
p218
atp219
Rp220
(dp221
g12
V,
p222
sbag0
(g1
g2
(lp223
Vand
p224
atp225
Rp226
(dp227
g12
VCC
p228
sbag0
(g1
g2
(lp229
g0
(g1
g2
(lp230
g0
(g1
g2
(lp231
Vof
p232
atp233
Rp234
(dp235
g12
VIN
p236
sbag0
(g1
g2
(lp237
g0
(g1
g2
(lp238
Vcourse
p239
atp240
Rp241
(dp242
g12
VNN
p243
sbatp244
Rp245
(dp246
g12
VNP
p247
sbatp248
Rp249
(dp250
g12
VPP
p251
sbag0
(g1
g2
(lp252
V,
p253
atp254
Rp255
(dp256
g12
V,
p257
sbag0
(g1
g2
(lp258
g0
(g1
g2
(lp259
Vthe
p260
atp261
Rp262
(dp263
g12
VDT
p264
sbag0
(g1
g2
(lp265
Vkids
p266
atp267
Rp268
(dp269
g12
VNNS
p270
sbatp271
Rp272
(dp273
g12
VNP
p274
sbag0
(g1
g2
(lp275
g0
(g1
g2
(lp276
Vwanted
p277
atp278
Rp279
(dp280
g12
VVBD
p281
sbag0
(g1
g2
(lp282
g0
(g1
g2
(lp283
g0
(g1
g2
(lp284
Vto
p285
atp286
Rp287
(dp288
g12
VTO
p289
sbag0
(g1
g2
(lp290
g0
(g1
g2
(lp291
Vget
p292
atp293
Rp294
(dp295
g12
VVB
p296
sbag0
(g1
g2
(lp297
g0
(g1
g2
(lp298
Vin
p299
atp300
Rp301
(dp302
g12
VIN
p303
sbag0
(g1
g2
(lp304
g0
(g1
g2
(lp305
Vthe
p306
atp307
Rp308
(dp309
g12
VDT
p310
sbag0
(g1
g2
(lp311
Vcookie
p312
atp313
Rp314
(dp315
g12
VNN
p316
sbag0
(g1
g2
(lp317
Vjar
p318
atp319
Rp320
(dp321
g12
VNN
p322
sbatp323
Rp324
(dp325
g12
VNP
p326
sbatp327
Rp328
(dp329
g12
VPP
p330
sbatp331
Rp332
(dp333
g12
VVP
p334
sbatp335
Rp336
(dp337
g12
VVP
p338
sbatp339
Rp340
(dp341
g12
VS
p342
sbatp343
Rp344
(dp345
g12
VVP
p346
sbatp347
Rp348
(dp349
g12
VS
p350
sbag0
(g1
g2
(lp351
V.
p352
atp353
Rp354
(dp355
g12
V.
p356
sbatp357
Rp358
(dp359
g12
VS
p360
sbatp361
Rp362
(dp363
g12
S'id: 2'
p364
sbag0
(g1
g2
(lp365
g0
(g1
g2
(lp366
g0
(g1
g2
(lp367
g0
(g1
g2
(lp368
VThe
p369
atp370
Rp371
(dp372
g12
VDT
p373
sbag0
(g1
g2
(lp374
Vcabinet
p375
atp376
Rp377
(dp378
g12
VNN
p379
sbatp380
Rp381
(dp382
g12
VNP
p383
sbag0
(g1
g2
(lp384
g0
(g1
g2
(lp385
Vis
p386
atp387
Rp388
(dp389
g12
VVBZ
p390
sbag0
(g1
g2
(lp391
g0
(g1
g2
(lp392
Vopen
p393
atp394
Rp395
(dp396
g12
VJJ
p397
sbatp398
Rp399
(dp400
g12
VADJP
p401
sbatp402
Rp403
(dp404
g12
VVP
p405
sbag0
(g1
g2
(lp406
V.
p407
atp408
Rp409
(dp410
g12
V.
p411
sbatp412
Rp413
(dp414
g12
VS
p415
sbatp416
Rp417
(dp418
g12
S'id: 3'
p419
sbag0
(g1
g2
(lp420
g0
(g1
g2
(lp421
g0
(g1
g2
(lp422
g0
(g1
g2
(lp423
VThe
p424
atp425
Rp426
(dp427
g12
VDT
p428
sbag0
(g1
g2
(lp429
Vboy
p430
atp431
Rp432
(dp433
g12
VNN
p434
sbag0
(g1
g2
(lp435
V's
p436
atp437
Rp438
(dp439
g12
VPOS
p440
sbatp441
Rp442
(dp443
g12
VNP
p444
sbag0
(g1
g2
(lp445
g0
(g1
g2
(lp446
g0
(g1
g2
(lp447
g0
(g1
g2
(lp448
Vup
p449
atp450
Rp451
(dp452
g12
VRP
p453
sbag0
(g1
g2
(lp454
g0
(g1
g2
(lp455
Von
p456
atp457
Rp458
(dp459
g12
VIN
p460
sbag0
(g1
g2
(lp461
g0
(g1
g2
(lp462
g0
(g1
g2
(lp463
Vthe
p464
atp465
Rp466
(dp467
g12
VDT
p468
sbag0
(g1
g2
(lp469
Vstool
p470
atp471
Rp472
(dp473
g12
VNN
p474
sbatp475
Rp476
(dp477
g12
VNP
p478
sbag0
(g1
g2
(lp479
V,
p480
atp481
Rp482
(dp483
g12
V,
p484
sbag0
(g1
g2
(lp485
g0
(g1
g2
(lp486
Vthe
p487
atp488
Rp489
(dp490
g12
VDT
p491
sbag0
(g1
g2
(lp492
Vstool
p493
atp494
Rp495
(dp496
g12
VNN
p497
sbatp498
Rp499
(dp500
g12
VNP
p501
sbatp502
Rp503
(dp504
g12
VNP
p505
sbatp506
Rp507
(dp508
g12
VPP
p509
sbatp510
Rp511
(dp512
g12
VADVP
p513
sbag0
(g1
g2
(lp514
Vis
p515
atp516
Rp517
(dp518
g12
VVBZ
p519
sbag0
(g1
g2
(lp520
g0
(g1
g2
(lp521
Vfalling
p522
atp523
Rp524
(dp525
g12
VVBG
p526
sbag0
(g1
g2
(lp527
g0
(g1
g2
(lp528
Vas
p529
atp530
Rp531
(dp532
g12
VIN
p533
sbag0
(g1
g2
(lp534
g0
(g1
g2
(lp535
g0
(g1
g2
(lp536
Vhe
p537
atp538
Rp539
(dp540
g12
VPRP
p541
sbatp542
Rp543
(dp544
g12
VNP
p545
sbag0
(g1
g2
(lp546
g0
(g1
g2
(lp547
Vgrabs
p548
atp549
Rp550
(dp551
g12
VVBZ
p552
sbag0
(g1
g2
(lp553
g0
(g1
g2
(lp554
g0
(g1
g2
(lp555
Va
p556
atp557
Rp558
(dp559
g12
VDT
p560
sbag0
(g1
g2
(lp561
Vcookie
p562
atp563
Rp564
(dp565
g12
VNN
p566
sbatp567
Rp568
(dp569
g12
VNP
p570
sbag0
(g1
g2
(lp571
g0
(g1
g2
(lp572
Vfor
p573
atp574
Rp575
(dp576
g12
VIN
p577
sbag0
(g1
g2
(lp578
g0
(g1
g2
(lp579
Vhis
p580
atp581
Rp582
(dp583
g12
VPRP$
p584
sbag0
(g1
g2
(lp585
Vlittle
p586
atp587
Rp588
(dp589
g12
VJJ
p590
sbag0
(g1
g2
(lp591
Vsister
p592
atp593
Rp594
(dp595
g12
VNN
p596
sbatp597
Rp598
(dp599
g12
VNP
p600
sbatp601
Rp602
(dp603
g12
VPP
p604
sbatp605
Rp606
(dp607
g12
VNP
p608
sbatp609
Rp610
(dp611
g12
VVP
p612
sbatp613
Rp614
(dp615
g12
VS
p616
sbatp617
Rp618
(dp619
g12
VSBAR
p620
sbatp621
Rp622
(dp623
g12
VVP
p624
sbatp625
Rp626
(dp627
g12
VVP
p628
sbag0
(g1
g2
(lp629
V,
p630
atp631
Rp632
(dp633
g12
V,
p634
sbag0
(g1
g2
(lp635
g0
(g1
g2
(lp636
g0
(g1
g2
(lp637
Vwho
p638
atp639
Rp640
(dp641
g12
VWP
p642
sbatp643
Rp644
(dp645
g12
VWHNP
p646
sbag0
(g1
g2
(lp647
g0
(g1
g2
(lp648
g0
(g1
g2
(lp649
Vis
p650
atp651
Rp652
(dp653
g12
VVBZ
p654
sbag0
(g1
g2
(lp655
g0
(g1
g2
(lp656
Vre
p657
atp658
Rp659
(dp660
g12
VJJ
p661
sbatp662
Rp663
(dp664
g12
VADJP
p665
sbag0
(g1
g2
(lp666
g0
(g1
g2
(lp667
g0
(g1
g2
(lp668
Vreaching
p669
atp670
Rp671
(dp672
g12
VVBG
p673
sbag0
(g1
g2
(lp674
g0
(g1
g2
(lp675
Vfor
p676
atp677
Rp678
(dp679
g12
VIN
p680
sbag0
(g1
g2
(lp681
g0
(g1
g2
(lp682
g0
(g1
g2
(lp683
Vthe
p684
atp685
Rp686
(dp687
g12
VDT
p688
sbag0
(g1
g2
(lp689
Vcookie
p690
atp691
Rp692
(dp693
g12
VNN
p694
sbatp695
Rp696
(dp697
g12
VNP
p698
sbag0
(g1
g2
(lp699
g0
(g1
g2
(lp700
Vwith
p701
atp702
Rp703
(dp704
g12
VIN
p705
sbag0
(g1
g2
(lp706
g0
(g1
g2
(lp707
Vher
p708
atp709
Rp710
(dp711
g12
VPRP$
p712
sbag0
(g1
g2
(lp713
Voutstretched
p714
atp715
Rp716
(dp717
g12
VJJ
p718
sbag0
(g1
g2
(lp719
Vhand
p720
atp721
Rp722
(dp723
g12
VNN
p724
sbatp725
Rp726
(dp727
g12
VNP
p728
sbatp729
Rp730
(dp731
g12
VPP
p732
sbatp733
Rp734
(dp735
g12
VNP
p736
sbatp737
Rp738
(dp739
g12
VPP
p740
sbatp741
Rp742
(dp743
g12
VVP
p744
sbatp745
Rp746
(dp747
g12
VS
p748
sbatp749
Rp750
(dp751
g12
VVP
p752
sbatp753
Rp754
(dp755
g12
VS
p756
sbatp757
Rp758
(dp759
g12
VSBAR
p760
sbatp761
Rp762
(dp763
g12
VVP
p764
sbag0
(g1
g2
(lp765
V.
p766
atp767
Rp768
(dp769
g12
V.
p770
sbatp771
Rp772
(dp773
g12
VS
p774
sbatp775
Rp776
(dp777
g12
S'id: 4'
p778
sbag0
(g1
g2
(lp779
g0
(g1
g2
(lp780
g0
(g1
g2
(lp781
g0
(g1
g2
(lp782
g0
(g1
g2
(lp783
VMom
p784
atp785
Rp786
(dp787
g12
VNN
p788
sbag0
(g1
g2
(lp789
V's
p790
atp791
Rp792
(dp793
g12
VPOS
p794
sbatp795
Rp796
(dp797
g12
VNP
p798
sbag0
(g1
g2
(lp799
Vfeet
p800
atp801
Rp802
(dp803
g12
VNNS
p804
sbatp805
Rp806
(dp807
g12
VNP
p808
sbag0
(g1
g2
(lp809
g0
(g1
g2
(lp810
Vare
p811
atp812
Rp813
(dp814
g12
VVBP
p815
sbag0
(g1
g2
(lp816
g0
(g1
g2
(lp817
Vgetting
p818
atp819
Rp820
(dp821
g12
VVBG
p822
sbag0
(g1
g2
(lp823
g0
(g1
g2
(lp824
Vwet
p825
atp826
Rp827
(dp828
g12
VJJ
p829
sbatp830
Rp831
(dp832
g12
VADJP
p833
sbatp834
Rp835
(dp836
g12
VVP
p837
sbatp838
Rp839
(dp840
g12
VVP
p841
sbag0
(g1
g2
(lp842
V.
p843
atp844
Rp845
(dp846
g12
V.
p847
sbatp848
Rp849
(dp850
g12
VS
p851
sbatp852
Rp853
(dp854
g12
S'id: 5'
p855
sbag0
(g1
g2
(lp856
g0
(g1
g2
(lp857
g0
(g1
g2
(lp858
g0
(g1
g2
(lp859
VOld
p860
atp861
Rp862
(dp863
g12
VJJ
p864
sbatp865
Rp866
(dp867
g12
VNP
p868
sbag0
(g1
g2
(lp869
g0
(g1
g2
(lp870
Vfashioned
p871
atp872
Rp873
(dp874
g12
VVBN
p875
sbag0
(g1
g2
(lp876
g0
(g1
g2
(lp877
g0
(g1
g2
(lp878
Vkind
p879
atp880
Rp881
(dp882
g12
VNN
p883
sbatp884
Rp885
(dp886
g12
VNP
p887
sbag0
(g1
g2
(lp888
g0
(g1
g2
(lp889
Vof
p890
atp891
Rp892
(dp893
g12
VIN
p894
sbag0
(g1
g2
(lp895
g0
(g1
g2
(lp896
Vpull
p897
atp898
Rp899
(dp900
g12
VNN
p901
sbatp902
Rp903
(dp904
g12
VNP
p905
sbatp906
Rp907
(dp908
g12
VPP
p909
sbatp910
Rp911
(dp912
g12
VNP
p913
sbatp914
Rp915
(dp916
g12
VVP
p917
sbag0
(g1
g2
(lp918
g0
(g1
g2
(lp919
g0
(g1
g2
(lp920
Vback
p921
atp922
Rp923
(dp924
g12
VRB
p925
sbatp926
Rp927
(dp928
g12
VADVP
p929
sbag0
(g1
g2
(lp930
g0
(g1
g2
(lp931
Vcurtains
p932
atp933
Rp934
(dp935
g12
VNNS
p936
sbatp937
Rp938
(dp939
g12
VNP
p940
sbag0
(g1
g2
(lp941
V.
p942
atp943
Rp944
(dp945
g12
V.
p946
sbatp947
Rp948
(dp949
g12
VX
p950
sbatp951
Rp952
(dp953
g12
VNP
p954
sbatp955
Rp956
(dp957
g12
S'id: 6'
p958
sbag0
(g1
g2
(lp959
g0
(g1
g2
(lp960
g0
(g1
g2
(lp961
g0
(g1
g2
(lp962
g0
(g1
g2
(lp963
g0
(g1
g2
(lp964
VThe
p965
atp966
Rp967
(dp968
g12
VDT
p969
sbag0
(g1
g2
(lp970
Vwindow
p971
atp972
Rp973
(dp974
g12
VNN
p975
sbag0
(g1
g2
(lp976
V's
p977
atp978
Rp979
(dp980
g12
VPOS
p981
sbatp982
Rp983
(dp984
g12
VNP
p985
sbag0
(g1
g2
(lp986
Vopen
p987
atp988
Rp989
(dp990
g12
VJJ
p991
sbatp992
Rp993
(dp994
g12
VNP
p995
sbatp996
Rp997
(dp998
g12
VS
p999
sbag0
(g1
g2
(lp1000
V,
p1001
atp1002
Rp1003
(dp1004
g12
V,
p1005
sbag0
(g1
g2
(lp1006
g0
(g1
g2
(lp1007
Vit
p1008
atp1009
Rp1010
(dp1011
g12
VPRP
p1012
sbatp1013
Rp1014
(dp1015
g12
VNP
p1016
sbag0
(g1
g2
(lp1017
g0
(g1
g2
(lp1018
Vmust
p1019
atp1020
Rp1021
(dp1022
g12
VMD
p1023
sbag0
(g1
g2
(lp1024
g0
(g1
g2
(lp1025
Vbe
p1026
atp1027
Rp1028
(dp1029
g12
VVB
p1030
sbag0
(g1
g2
(lp1031
g0
(g1
g2
(lp1032
Va
p1033
atp1034
Rp1035
(dp1036
g12
VDT
p1037
sbag0
(g1
g2
(lp1038
Vnice
p1039
atp1040
Rp1041
(dp1042
g12
VJJ
p1043
sbag0
(g1
g2
(lp1044
Vspring
p1045
atp1046
Rp1047
(dp1048
g12
VNN
p1049
sbag0
(g1
g2
(lp1050
Vday
p1051
atp1052
Rp1053
(dp1054
g12
VNN
p1055
sbatp1056
Rp1057
(dp1058
g12
VNP
p1059
sbag0
(g1
g2
(lp1060
g0
(g1
g2
(lp1061
Vout
p1062
atp1063
Rp1064
(dp1065
g12
VIN
p1066
sbag0
(g1
g2
(lp1067
g0
(g1
g2
(lp1068
Vthere
p1069
atp1070
Rp1071
(dp1072
g12
VRB
p1073
sbatp1074
Rp1075
(dp1076
g12
VNP
p1077
sbatp1078
Rp1079
(dp1080
g12
VPP
p1081
sbatp1082
Rp1083
(dp1084
g12
VVP
p1085
sbatp1086
Rp1087
(dp1088
g12
VVP
p1089
sbag0
(g1
g2
(lp1090
V.
p1091
atp1092
Rp1093
(dp1094
g12
V.
p1095
sbatp1096
Rp1097
(dp1098
g12
VS
p1099
sbatp1100
Rp1101
(dp1102
g12
S'id: 7'
p1103
sbag0
(g1
g2
(lp1104
g0
(g1
g2
(lp1105
g0
(g1
g2
(lp1106
g0
(g1
g2
(lp1107
VThe
p1108
atp1109
Rp1110
(dp1111
g12
VDT
p1112
sbag0
(g1
g2
(lp1113
Vkitchen
p1114
atp1115
Rp1116
(dp1117
g12
VNN
p1118
sbatp1119
Rp1120
(dp1121
g12
VNP
p1122
sbag0
(g1
g2
(lp1123
g0
(g1
g2
(lp1124
Vlooks
p1125
atp1126
Rp1127
(dp1128
g12
VVBZ
p1129
sbag0
(g1
g2
(lp1130
g0
(g1
g2
(lp1131
Vpretty
p1132
atp1133
Rp1134
(dp1135
g12
VRB
p1136
sbag0
(g1
g2
(lp1137
Vclean
p1138
atp1139
Rp1140
(dp1141
g12
VJJ
p1142
sbatp1143
Rp1144
(dp1145
g12
VADJP
p1146
sbag0
(g1
g2
(lp1147
V,
p1148
atp1149
Rp1150
(dp1151
g12
V,
p1152
sbag0
(g1
g2
(lp1153
g0
(g1
g2
(lp1154
Vexcept
p1155
atp1156
Rp1157
(dp1158
g12
VIN
p1159
sbag0
(g1
g2
(lp1160
Vfor
p1161
atp1162
Rp1163
(dp1164
g12
VIN
p1165
sbag0
(g1
g2
(lp1166
g0
(g1
g2
(lp1167
g0
(g1
g2
(lp1168
Vthe
p1169
atp1170
Rp1171
(dp1172
g12
VDT
p1173
sbag0
(g1
g2
(lp1174
Vdirty
p1175
atp1176
Rp1177
(dp1178
g12
VJJ
p1179
sbag0
(g1
g2
(lp1180
Vdishes
p1181
atp1182
Rp1183
(dp1184
g12
VNNS
p1185
sbatp1186
Rp1187
(dp1188
g12
VNP
p1189
sbag0
(g1
g2
(lp1190
V,
p1191
atp1192
Rp1193
(dp1194
g12
V,
p1195
sbag0
(g1
g2
(lp1196
Vand
p1197
atp1198
Rp1199
(dp1200
g12
VCC
p1201
sbag0
(g1
g2
(lp1202
g0
(g1
g2
(lp1203
g0
(g1
g2
(lp1204
Vthe
p1205
atp1206
Rp1207
(dp1208
g12
VDT
p1209
sbag0
(g1
g2
(lp1210
Vflood
p1211
atp1212
Rp1213
(dp1214
g12
VNN
p1215
sbatp1216
Rp1217
(dp1218
g12
VNP
p1219
sbag0
(g1
g2
(lp1220
g0
(g1
g2
(lp1221
g0
(g1
g2
(lp1222
Vthat
p1223
atp1224
Rp1225
(dp1226
g12
VWDT
p1227
sbatp1228
Rp1229
(dp1230
g12
VWHNP
p1231
sbag0
(g1
g2
(lp1232
g0
(g1
g2
(lp1233
g0
(g1
g2
(lp1234
V's
p1235
atp1236
Rp1237
(dp1238
g12
VVBZ
p1239
sbag0
(g1
g2
(lp1240
g0
(g1
g2
(lp1241
Vhappening
p1242
atp1243
Rp1244
(dp1245
g12
VVBG
p1246
sbag0
(g1
g2
(lp1247
g0
(g1
g2
(lp1248
Von
p1249
atp1250
Rp1251
(dp1252
g12
VIN
p1253
sbag0
(g1
g2
(lp1254
g0
(g1
g2
(lp1255
Vthe
p1256
atp1257
Rp1258
(dp1259
g12
VDT
p1260
sbag0
(g1
g2
(lp1261
Vfloor
p1262
atp1263
Rp1264
(dp1265
g12
VNN
p1266
sbatp1267
Rp1268
(dp1269
g12
VNP
p1270
sbatp1271
Rp1272
(dp1273
g12
VPP
p1274
sbatp1275
Rp1276
(dp1277
g12
VVP
p1278
sbatp1279
Rp1280
(dp1281
g12
VVP
p1282
sbatp1283
Rp1284
(dp1285
g12
VS
p1286
sbatp1287
Rp1288
(dp1289
g12
VSBAR
p1290
sbatp1291
Rp1292
(dp1293
g12
VNP
p1294
sbatp1295
Rp1296
(dp1297
g12
VNP
p1298
sbatp1299
Rp1300
(dp1301
g12
VPP
p1302
sbatp1303
Rp1304
(dp1305
g12
VVP
p1306
sbag0
(g1
g2
(lp1307
V.
p1308
atp1309
Rp1310
(dp1311
g12
V.
p1312
sbatp1313
Rp1314
(dp1315
g12
VS
p1316
sbatp1317
Rp1318
(dp1319
g12
S'id: 8'
p1320
sbag0
(g1
g2
(lp1321
g0
(g1
g2
(lp1322
g0
(g1
g2
(lp1323
g0
(g1
g2
(lp1324
VLet
p1325
atp1326
Rp1327
(dp1328
g12
VVB
p1329
sbag0
(g1
g2
(lp1330
g0
(g1
g2
(lp1331
g0
(g1
g2
(lp1332
V's
p1333
atp1334
Rp1335
(dp1336
g12
VPRP
p1337
sbatp1338
Rp1339
(dp1340
g12
VNP
p1341
sbag0
(g1
g2
(lp1342
g0
(g1
g2
(lp1343
Vhope
p1344
atp1345
Rp1346
(dp1347
g12
VVB
p1348
sbag0
(g1
g2
(lp1349
g0
(g1
g2
(lp1350
Vthat
p1351
atp1352
Rp1353
(dp1354
g12
VIN
p1355
sbag0
(g1
g2
(lp1356
g0
(g1
g2
(lp1357
g0
(g1
g2
(lp1358
Vmom
p1359
atp1360
Rp1361
(dp1362
g12
VNN
p1363
sbatp1364
Rp1365
(dp1366
g12
VNP
p1367
sbag0
(g1
g2
(lp1368
g0
(g1
g2
(lp1369
Vdoes
p1370
atp1371
Rp1372
(dp1373
g12
VVBZ
p1374
sbag0
(g1
g2
(lp1375
Vn't
p1376
atp1377
Rp1378
(dp1379
g12
VRB
p1380
sbag0
(g1
g2
(lp1381
g0
(g1
g2
(lp1382
Vruin
p1383
atp1384
Rp1385
(dp1386
g12
VVB
p1387
sbag0
(g1
g2
(lp1388
g0
(g1
g2
(lp1389
Vher
p1390
atp1391
Rp1392
(dp1393
g12
VPRP$
p1394
sbag0
(g1
g2
(lp1395
Vshoes
p1396
atp1397
Rp1398
(dp1399
g12
VNNS
p1400
sbatp1401
Rp1402
(dp1403
g12
VNP
p1404
sbatp1405
Rp1406
(dp1407
g12
VVP
p1408
sbatp1409
Rp1410
(dp1411
g12
VVP
p1412
sbatp1413
Rp1414
(dp1415
g12
VS
p1416
sbatp1417
Rp1418
(dp1419
g12
VSBAR
p1420
sbatp1421
Rp1422
(dp1423
g12
VVP
p1424
sbatp1425
Rp1426
(dp1427
g12
VS
p1428
sbatp1429
Rp1430
(dp1431
g12
VVP
p1432
sbag0
(g1
g2
(lp1433
V.
p1434
atp1435
Rp1436
(dp1437
g12
V.
p1438
sbatp1439
Rp1440
(dp1441
g12
VS
p1442
sbatp1443
Rp1444
(dp1445
g12
S'id: 9'
p1446
sbag0
(g1
g2
(lp1447
g0
(g1
g2
(lp1448
g0
(g1
g2
(lp1449
g0
(g1
g2
(lp1450
g0
(g1
g2
(lp1451
VLooks
p1452
atp1453
Rp1454
(dp1455
g12
VVBZ
p1456
sbag0
(g1
g2
(lp1457
g0
(g1
g2
(lp1458
Vlike
p1459
atp1460
Rp1461
(dp1462
g12
VIN
p1463
sbag0
(g1
g2
(lp1464
g0
(g1
g2
(lp1465
Vmom
p1466
atp1467
Rp1468
(dp1469
g12
VNN
p1470
sbatp1471
Rp1472
(dp1473
g12
VNP
p1474
sbatp1475
Rp1476
(dp1477
g12
VPP
p1478
sbatp1479
Rp1480
(dp1481
g12
VVP
p1482
sbatp1483
Rp1484
(dp1485
g12
VS
p1486
sbag0
(g1
g2
(lp1487
g0
(g1
g2
(lp1488
Vmight
p1489
atp1490
Rp1491
(dp1492
g12
VMD
p1493
sbag0
(g1
g2
(lp1494
g0
(g1
g2
(lp1495
Vbe
p1496
atp1497
Rp1498
(dp1499
g12
VVB
p1500
sbag0
(g1
g2
(lp1501
g0
(g1
g2
(lp1502
Vwearing
p1503
atp1504
Rp1505
(dp1506
g12
VVBG
p1507
sbag0
(g1
g2
(lp1508
g0
(g1
g2
(lp1509
Van
p1510
atp1511
Rp1512
(dp1513
g12
VDT
p1514
sbag0
(g1
g2
(lp1515
Vapron
p1516
atp1517
Rp1518
(dp1519
g12
VNN
p1520
sbatp1521
Rp1522
(dp1523
g12
VNP
p1524
sbag0
(g1
g2
(lp1525
g0
(g1
g2
(lp1526
Vtoo
p1527
atp1528
Rp1529
(dp1530
g12
VRB
p1531
sbatp1532
Rp1533
(dp1534
g12
VADVP
p1535
sbatp1536
Rp1537
(dp1538
g12
VVP
p1539
sbatp1540
Rp1541
(dp1542
g12
VVP
p1543
sbatp1544
Rp1545
(dp1546
g12
VVP
p1547
sbag0
(g1
g2
(lp1548
V.
p1549
atp1550
Rp1551
(dp1552
g12
V.
p1553
sbatp1554
Rp1555
(dp1556
g12
VS
p1557
sbatp1558
Rp1559
(dp1560
g12
S'id: 10'
p1561
sbag0
(g1
g2
(lp1562
g0
(g1
g2
(lp1563
g0
(g1
g2
(lp1564
g0
(g1
g2
(lp1565
g0
(g1
g2
(lp1566
VCould
p1567
atp1568
Rp1569
(dp1570
g12
VMD
p1571
sbag0
(g1
g2
(lp1572
g0
(g1
g2
(lp1573
Vbe
p1574
atp1575
Rp1576
(dp1577
g12
VVB
p1578
sbag0
(g1
g2
(lp1579
g0
(g1
g2
(lp1580
Vsummer
p1581
atp1582
Rp1583
(dp1584
g12
VNN
p1585
sbatp1586
Rp1587
(dp1588
g12
VNP
p1589
sbatp1590
Rp1591
(dp1592
g12
VVP
p1593
sbatp1594
Rp1595
(dp1596
g12
VVP
p1597
sbatp1598
Rp1599
(dp1600
g12
VS
p1601
sbag0
(g1
g2
(lp1602
V,
p1603
atp1604
Rp1605
(dp1606
g12
V,
p1607
sbag0
(g1
g2
(lp1608
g0
(g1
g2
(lp1609
g0
(g1
g2
(lp1610
Vspring
p1611
atp1612
Rp1613
(dp1614
g12
VNN
p1615
sbatp1616
Rp1617
(dp1618
g12
VNP
p1619
sbag0
(g1
g2
(lp1620
V,
p1621
atp1622
Rp1623
(dp1624
g12
V,
p1625
sbag0
(g1
g2
(lp1626
g0
(g1
g2
(lp1627
Vfall
p1628
atp1629
Rp1630
(dp1631
g12
VNN
p1632
sbatp1633
Rp1634
(dp1635
g12
VNP
p1636
sbag0
(g1
g2
(lp1637
V,
p1638
atp1639
Rp1640
(dp1641
g12
V,
p1642
sbatp1643
Rp1644
(dp1645
g12
VNP
p1646
sbag0
(g1
g2
(lp1647
g0
(g1
g2
(lp1648
Vleaves
p1649
atp1650
Rp1651
(dp1652
g12
VVBZ
p1653
sbag0
(g1
g2
(lp1654
g0
(g1
g2
(lp1655
Von
p1656
atp1657
Rp1658
(dp1659
g12
VIN
p1660
sbag0
(g1
g2
(lp1661
g0
(g1
g2
(lp1662
Vthe
p1663
atp1664
Rp1665
(dp1666
g12
VDT
p1667
sbag0
(g1
g2
(lp1668
Vtrees
p1669
atp1670
Rp1671
(dp1672
g12
VNNS
p1673
sbatp1674
Rp1675
(dp1676
g12
VNP
p1677
sbatp1678
Rp1679
(dp1680
g12
VPP
p1681
sbatp1682
Rp1683
(dp1684
g12
VVP
p1685
sbag0
(g1
g2
(lp1686
V.
p1687
atp1688
Rp1689
(dp1690
g12
V.
p1691
sbatp1692
Rp1693
(dp1694
g12
VS
p1695
sbatp1696
Rp1697
(dp1698
g12
S'id: 11'
p1699
sbag0
(g1
g2
(lp1700
g0
(g1
g2
(lp1701
g0
(g1
g2
(lp1702
g0
(g1
g2
(lp1703
VTwo
p1704
atp1705
Rp1706
(dp1707
g12
VCD
p1708
sbag0
(g1
g2
(lp1709
Vbowl
p1710
atp1711
Rp1712
(dp1713
g12
VNN
p1714
sbatp1715
Rp1716
(dp1717
g12
VNP
p1718
sbag0
(g1
g2
(lp1719
V,
p1720
atp1721
Rp1722
(dp1723
g12
V,
p1724
sbag0
(g1
g2
(lp1725
g0
(g1
g2
(lp1726
g0
(g1
g2
(lp1727
Vdirty
p1728
atp1729
Rp1730
(dp1731
g12
VJJ
p1732
sbatp1733
Rp1734
(dp1735
g12
VNP
p1736
sbag0
(g1
g2
(lp1737
g0
(g1
g2
(lp1738
Vbowls
p1739
atp1740
Rp1741
(dp1742
g12
VVBZ
p1743
sbatp1744
Rp1745
(dp1746
g12
VVP
p1747
sbatp1748
Rp1749
(dp1750
g12
VNP
p1751
sbag0
(g1
g2
(lp1752
V,
p1753
atp1754
Rp1755
(dp1756
g12
V,
p1757
sbag0
(g1
g2
(lp1758
g0
(g1
g2
(lp1759
Von
p1760
atp1761
Rp1762
(dp1763
g12
VIN
p1764
sbag0
(g1
g2
(lp1765
g0
(g1
g2
(lp1766
Vthe
p1767
atp1768
Rp1769
(dp1770
g12
VDT
p1771
sbag0
(g1
g2
(lp1772
Vcounter
p1773
atp1774
Rp1775
(dp1776
g12
VNN
p1777
sbatp1778
Rp1779
(dp1780
g12
VNP
p1781
sbatp1782
Rp1783
(dp1784
g12
VPP
p1785
sbag0
(g1
g2
(lp1786
V,
p1787
atp1788
Rp1789
(dp1790
g12
V,
p1791
sbag0
(g1
g2
(lp1792
g0
(g1
g2
(lp1793
g0
(g1
g2
(lp1794
Vone
p1795
atp1796
Rp1797
(dp1798
g12
VCD
p1799
sbag0
(g1
g2
(lp1800
Vdirty
p1801
atp1802
Rp1803
(dp1804
g12
VJJ
p1805
sbag0
(g1
g2
(lp1806
Vplate
p1807
atp1808
Rp1809
(dp1810
g12
VNN
p1811
sbatp1812
Rp1813
(dp1814
g12
VNP
p1815
sbag0
(g1
g2
(lp1816
g0
(g1
g2
(lp1817
Von
p1818
atp1819
Rp1820
(dp1821
g12
VIN
p1822
sbag0
(g1
g2
(lp1823
g0
(g1
g2
(lp1824
Vthe
p1825
atp1826
Rp1827
(dp1828
g12
VDT
p1829
sbag0
(g1
g2
(lp1830
Vcounter
p1831
atp1832
Rp1833
(dp1834
g12
VNN
p1835
sbatp1836
Rp1837
(dp1838
g12
VNP
p1839
sbatp1840
Rp1841
(dp1842
g12
VPP
p1843
sbatp1844
Rp1845
(dp1846
g12
VNP
p1847
sbag0
(g1
g2
(lp1848
V.
p1849
atp1850
Rp1851
(dp1852
g12
V.
p1853
sbatp1854
Rp1855
(dp1856
g12
VNP
p1857
sbatp1858
Rp1859
(dp1860
g12
S'id: 12'
p1861
sbag0
(g1
g2
(lp1862
g0
(g1
g2
(lp1863
g0
(g1
g2
(lp1864
VNot
p1865
atp1866
Rp1867
(dp1868
g12
VRB
p1869
sbag0
(g1
g2
(lp1870
g0
(g1
g2
(lp1871
g0
(g1
g2
(lp1872
Vmuch
p1873
atp1874
Rp1875
(dp1876
g12
VRB
p1877
sbatp1878
Rp1879
(dp1880
g12
VADVP
p1881
sbag0
(g1
g2
(lp1882
Vto
p1883
atp1884
Rp1885
(dp1886
g12
VTO
p1887
sbag0
(g1
g2
(lp1888
g0
(g1
g2
(lp1889
Vsay
p1890
atp1891
Rp1892
(dp1893
g12
VVB
p1894
sbag0
(g1
g2
(lp1895
g0
(g1
g2
(lp1896
Vabout
p1897
atp1898
Rp1899
(dp1900
g12
VIN
p1901
sbag0
(g1
g2
(lp1902
g0
(g1
g2
(lp1903
Vthis
p1904
atp1905
Rp1906
(dp1907
g12
VDT
p1908
sbatp1909
Rp1910
(dp1911
g12
VNP
p1912
sbatp1913
Rp1914
(dp1915
g12
VPP
p1916
sbatp1917
Rp1918
(dp1919
g12
VVP
p1920
sbatp1921
Rp1922
(dp1923
g12
VVP
p1924
sbag0
(g1
g2
(lp1925
V.
p1926
atp1927
Rp1928
(dp1929
g12
V.
p1930
sbatp1931
Rp1932
(dp1933
g12
VFRAG
p1934
sbatp1935
Rp1936
(dp1937
g12
S'id: 13'
p1938
sbag0
(g1
g2
(lp1939
g0
(g1
g2
(lp1940
g0
(g1
g2
(lp1941
g0
(g1
g2
(lp1942
VLittle
p1943
atp1944
Rp1945
(dp1946
g12
VJJ
p1947
sbag0
(g1
g2
(lp1948
Vgirl
p1949
atp1950
Rp1951
(dp1952
g12
VNN
p1953
sbatp1954
Rp1955
(dp1956
g12
VNP
p1957
sbag0
(g1
g2
(lp1958
g0
(g1
g2
(lp1959
Vhas
p1960
atp1961
Rp1962
(dp1963
g12
VVBZ
p1964
sbag0
(g1
g2
(lp1965
g0
(g1
g2
(lp1966
g0
(g1
g2
(lp1967
Vshorts
p1968
atp1969
Rp1970
(dp1971
g12
VNNS
p1972
sbatp1973
Rp1974
(dp1975
g12
VNP
p1976
sbag0
(g1
g2
(lp1977
g0
(g1
g2
(lp1978
Von
p1979
atp1980
Rp1981
(dp1982
g12
VIN
p1983
sbag0
(g1
g2
(lp1984
g0
(g1
g2
(lp1985
g0
(g1
g2
(lp1986
V,
p1987
atp1988
Rp1989
(dp1990
g12
V,
p1991
sbag0
(g1
g2
(lp1992
Vand
p1993
atp1994
Rp1995
(dp1996
g12
VCC
p1997
sbag0
(g1
g2
(lp1998
g0
(g1
g2
(lp1999
Vlittle
p2000
atp2001
Rp2002
(dp2003
g12
VJJ
p2004
sbatp2005
Rp2006
(dp2007
g12
VADVP
p2008
sbag0
(g1
g2
(lp2009
g0
(g1
g2
(lp2010
VMary
p2011
atp2012
Rp2013
(dp2014
g12
VNNP
p2015
sbatp2016
Rp2017
(dp2018
g12
VNP
p2019
sbatp2020
Rp2021
(dp2022
g12
VPRN
p2023
sbag0
(g1
g2
(lp2024
VJane
p2025
atp2026
Rp2027
(dp2028
g12
VNNP
p2029
sbag0
(g1
g2
(lp2030
Vsandals
p2031
atp2032
Rp2033
(dp2034
g12
VNNS
p2035
sbatp2036
Rp2037
(dp2038
g12
VNP
p2039
sbatp2040
Rp2041
(dp2042
g12
VPP
p2043
sbatp2044
Rp2045
(dp2046
g12
VNP
p2047
sbatp2048
Rp2049
(dp2050
g12
VVP
p2051
sbag0
(g1
g2
(lp2052
V.
p2053
atp2054
Rp2055
(dp2056
g12
V.
p2057
sbatp2058
Rp2059
(dp2060
g12
VS
p2061
sbatp2062
Rp2063
(dp2064
g12
S'id: 14'
p2065
sbag0
(g1
g2
(lp2066
g0
(g1
g2
(lp2067
g0
(g1
g2
(lp2068
g0
(g1
g2
(lp2069
g0
(g1
g2
(lp2070
VThe
p2071
atp2072
Rp2073
(dp2074
g12
VDT
p2075
sbag0
(g1
g2
(lp2076
Vboy
p2077
atp2078
Rp2079
(dp2080
g12
VNN
p2081
sbatp2082
Rp2083
(dp2084
g12
VNP
p2085
sbag0
(g1
g2
(lp2086
g0
(g1
g2
(lp2087
Vhas
p2088
atp2089
Rp2090
(dp2091
g12
VVBZ
p2092
sbatp2093
Rp2094
(dp2095
g12
VVP
p2096
sbatp2097
Rp2098
(dp2099
g12
VS
p2100
sbag0
(g1
g2
(lp2101
V,
p2102
atp2103
Rp2104
(dp2105
g12
V,
p2106
sbag0
(g1
g2
(lp2107
g0
(g1
g2
(lp2108
VI
p2109
atp2110
Rp2111
(dp2112
g12
VPRP
p2113
sbatp2114
Rp2115
(dp2116
g12
VNP
p2117
sbag0
(g1
g2
(lp2118
g0
(g1
g2
(lp2119
Vdont
p2120
atp2121
Rp2122
(dp2123
g12
VVBP
p2124
sbag0
(g1
g2
(lp2125
g0
(g1
g2
(lp2126
Vknow
p2127
atp2128
Rp2129
(dp2130
g12
VVB
p2131
sbag0
(g1
g2
(lp2132
V,
p2133
atp2134
Rp2135
(dp2136
g12
V,
p2137
sbag0
(g1
g2
(lp2138
g0
(g1
g2
(lp2139
Vshorts
p2140
atp2141
Rp2142
(dp2143
g12
VNNS
p2144
sbatp2145
Rp2146
(dp2147
g12
VNP
p2148
sbag0
(g1
g2
(lp2149
g0
(g1
g2
(lp2150
Von
p2151
atp2152
Rp2153
(dp2154
g12
VIN
p2155
sbatp2156
Rp2157
(dp2158
g12
VPP
p2159
sbatp2160
Rp2161
(dp2162
g12
VVP
p2163
sbatp2164
Rp2165
(dp2166
g12
VVP
p2167
sbag0
(g1
g2
(lp2168
V.
p2169
atp2170
Rp2171
(dp2172
g12
V.
p2173
sbatp2174
Rp2175
(dp2176
g12
VS
p2177
sbatp2178
Rp2179
(dp2180
g12
S'id: 15'
p2181
sbag0
(g1
g2
(lp2182
g0
(g1
g2
(lp2183
g0
(g1
g2
(lp2184
g0
(g1
g2
(lp2185
VLittle
p2186
atp2187
Rp2188
(dp2189
g12
VJJ
p2190
sbag0
(g1
g2
(lp2191
Vt-shirt
p2192
atp2193
Rp2194
(dp2195
g12
VNN
p2196
sbatp2197
Rp2198
(dp2199
g12
VNP
p2200
sbag0
(g1
g2
(lp2201
g0
(g1
g2
(lp2202
Vwith
p2203
atp2204
Rp2205
(dp2206
g12
VIN
p2207
sbag0
(g1
g2
(lp2208
g0
(g1
g2
(lp2209
g0
(g1
g2
(lp2210
Va
p2211
atp2212
Rp2213
(dp2214
g12
VDT
p2215
sbag0
(g1
g2
(lp2216
Vcollar
p2217
atp2218
Rp2219
(dp2220
g12
VNN
p2221
sbatp2222
Rp2223
(dp2224
g12
VNP
p2225
sbag0
(g1
g2
(lp2226
V,
p2227
atp2228
Rp2229
(dp2230
g12
V,
p2231
sbag0
(g1
g2
(lp2232
g0
(g1
g2
(lp2233
Vbare
p2234
atp2235
Rp2236
(dp2237
g12
VJJ
p2238
sbag0
(g1
g2
(lp2239
Vleg
p2240
atp2241
Rp2242
(dp2243
g12
VNN
p2244
sbag0
(g1
g2
(lp2245
Vsocks
p2246
atp2247
Rp2248
(dp2249
g12
VNNS
p2250
sbatp2251
Rp2252
(dp2253
g12
VNP
p2254
sbatp2255
Rp2256
(dp2257
g12
VNP
p2258
sbatp2259
Rp2260
(dp2261
g12
VPP
p2262
sbag0
(g1
g2
(lp2263
V.
p2264
atp2265
Rp2266
(dp2267
g12
V.
p2268
sbatp2269
Rp2270
(dp2271
g12
VNP
p2272
sbatp2273
Rp2274
(dp2275
g12
S'id: 16'
p2276
sbag0
(g1
g2
(lp2277
g0
(g1
g2
(lp2278
g0
(g1
g2
(lp2279
g0
(g1
g2
(lp2280
VGirl
p2281
atp2282
Rp2283
(dp2284
g12
VNNP
p2285
sbatp2286
Rp2287
(dp2288
g12
VNP
p2289
sbag0
(g1
g2
(lp2290
g0
(g1
g2
(lp2291
Vhas
p2292
atp2293
Rp2294
(dp2295
g12
VVBZ
p2296
sbag0
(g1
g2
(lp2297
g0
(g1
g2
(lp2298
g0
(g1
g2
(lp2299
Vkind
p2300
atp2301
Rp2302
(dp2303
g12
VNN
p2304
sbatp2305
Rp2306
(dp2307
g12
VNP
p2308
sbag0
(g1
g2
(lp2309
g0
(g1
g2
(lp2310
Vof
p2311
atp2312
Rp2313
(dp2314
g12
VIN
p2315
sbag0
(g1
g2
(lp2316
g0
(g1
g2
(lp2317
g0
(g1
g2
(lp2318
Vmedium
p2319
atp2320
Rp2321
(dp2322
g12
VNN
p2323
sbag0
(g1
g2
(lp2324
Vhair
p2325
atp2326
Rp2327
(dp2328
g12
VNN
p2329
sbatp2330
Rp2331
(dp2332
g12
VNP
p2333
sbag0
(g1
g2
(lp2334
V,
p2335
atp2336
Rp2337
(dp2338
g12
V,
p2339
sbag0
(g1
g2
(lp2340
g0
(g1
g2
(lp2341
g0
(g1
g2
(lp2342
Vmom
p2343
atp2344
Rp2345
(dp2346
g12
VNN
p2347
sbatp2348
Rp2349
(dp2350
g12
VNP
p2351
sbag0
(g1
g2
(lp2352
g0
(g1
g2
(lp2353
g0
(g1
g2
(lp2354
g0
(g1
g2
(lp2355
V's
p2356
atp2357
Rp2358
(dp2359
g12
VPOS
p2360
sbatp2361
Rp2362
(dp2363
g12
VNP
p2364
sbag0
(g1
g2
(lp2365
g0
(g1
g2
(lp2366
Vgot
p2367
atp2368
Rp2369
(dp2370
g12
VVBD
p2371
sbag0
(g1
g2
(lp2372
g0
(g1
g2
(lp2373
Vshort
p2374
atp2375
Rp2376
(dp2377
g12
VJJ
p2378
sbag0
(g1
g2
(lp2379
Vhair
p2380
atp2381
Rp2382
(dp2383
g12
VNN
p2384
sbatp2385
Rp2386
(dp2387
g12
VNP
p2388
sbatp2389
Rp2390
(dp2391
g12
VVP
p2392
sbatp2393
Rp2394
(dp2395
g12
VS
p2396
sbatp2397
Rp2398
(dp2399
g12
VSBAR
p2400
sbatp2401
Rp2402
(dp2403
g12
VNP
p2404
sbatp2405
Rp2406
(dp2407
g12
VNP
p2408
sbatp2409
Rp2410
(dp2411
g12
VPP
p2412
sbatp2413
Rp2414
(dp2415
g12
VNP
p2416
sbatp2417
Rp2418
(dp2419
g12
VVP
p2420
sbag0
(g1
g2
(lp2421
V.
p2422
atp2423
Rp2424
(dp2425
g12
V.
p2426
sbatp2427
Rp2428
(dp2429
g12
VS
p2430
sbatp2431
Rp2432
(dp2433
g12
S'id: 17'
p2434
sbag0
(g1
g2
(lp2435
g0
(g1
g2
(lp2436
g0
(g1
g2
(lp2437
g0
(g1
g2
(lp2438
VWe
p2439
atp2440
Rp2441
(dp2442
g12
VPRP
p2443
sbatp2444
Rp2445
(dp2446
g12
VNP
p2447
sbag0
(g1
g2
(lp2448
g0
(g1
g2
(lp2449
V've
p2450
atp2451
Rp2452
(dp2453
g12
VVBP
p2454
sbag0
(g1
g2
(lp2455
g0
(g1
g2
(lp2456
Vgot
p2457
atp2458
Rp2459
(dp2460
g12
VVBD
p2461
sbag0
(g1
g2
(lp2462
g0
(g1
g2
(lp2463
Vtwo
p2464
atp2465
Rp2466
(dp2467
g12
VCD
p2468
sbag0
(g1
g2
(lp2469
Vkitchen
p2470
atp2471
Rp2472
(dp2473
g12
VNN
p2474
sbag0
(g1
g2
(lp2475
Vcabinets
p2476
atp2477
Rp2478
(dp2479
g12
VNNS
p2480
sbatp2481
Rp2482
(dp2483
g12
VNP
p2484
sbag0
(g1
g2
(lp2485
g0
(g1
g2
(lp2486
Vto
p2487
atp2488
Rp2489
(dp2490
g12
VTO
p2491
sbag0
(g1
g2
(lp2492
g0
(g1
g2
(lp2493
Vthe
p2494
atp2495
Rp2496
(dp2497
g12
VDT
p2498
sbag0
(g1
g2
(lp2499
Vleft
p2500
atp2501
Rp2502
(dp2503
g12
VJJ
p2504
sbag0
(g1
g2
(lp2505
Vside
p2506
atp2507
Rp2508
(dp2509
g12
VNN
p2510
sbatp2511
Rp2512
(dp2513
g12
VNP
p2514
sbatp2515
Rp2516
(dp2517
g12
VPP
p2518
sbatp2519
Rp2520
(dp2521
g12
VVP
p2522
sbatp2523
Rp2524
(dp2525
g12
VVP
p2526
sbag0
(g1
g2
(lp2527
V.
p2528
atp2529
Rp2530
(dp2531
g12
V.
p2532
sbatp2533
Rp2534
(dp2535
g12
VS
p2536
sbatp2537
Rp2538
(dp2539
g12
S'id: 18'
p2540
sbag0
(g1
g2
(lp2541
g0
(g1
g2
(lp2542
g0
(g1
g2
(lp2543
g0
(g1
g2
(lp2544
VThan
p2545
atp2546
Rp2547
(dp2548
g12
VIN
p2549
sbag0
(g1
g2
(lp2550
g0
(g1
g2
(lp2551
g0
(g1
g2
(lp2552
Vwe
p2553
atp2554
Rp2555
(dp2556
g12
VPRP
p2557
sbatp2558
Rp2559
(dp2560
g12
VNP
p2561
sbag0
(g1
g2
(lp2562
g0
(g1
g2
(lp2563
V've
p2564
atp2565
Rp2566
(dp2567
g12
VVBP
p2568
sbag0
(g1
g2
(lp2569
g0
(g1
g2
(lp2570
Vgot
p2571
atp2572
Rp2573
(dp2574
g12
VVBN
p2575
sbag0
(g1
g2
(lp2576
g0
(g1
g2
(lp2577
g0
(g1
g2
(lp2578
Vlooks
p2579
atp2580
Rp2581
(dp2582
g12
VNNS
p2583
sbatp2584
Rp2585
(dp2586
g12
VNP
p2587
sbag0
(g1
g2
(lp2588
g0
(g1
g2
(lp2589
Vlike
p2590
atp2591
Rp2592
(dp2593
g12
VIN
p2594
sbag0
(g1
g2
(lp2595
g0
(g1
g2
(lp2596
Vtwo
p2597
atp2598
Rp2599
(dp2600
g12
VCD
p2601
sbag0
(g1
g2
(lp2602
Vcabinets
p2603
atp2604
Rp2605
(dp2606
g12
VNNS
p2607
sbatp2608
Rp2609
(dp2610
g12
VNP
p2611
sbatp2612
Rp2613
(dp2614
g12
VPP
p2615
sbatp2616
Rp2617
(dp2618
g12
VNP
p2619
sbag0
(g1
g2
(lp2620
g0
(g1
g2
(lp2621
Vto
p2622
atp2623
Rp2624
(dp2625
g12
VTO
p2626
sbag0
(g1
g2
(lp2627
g0
(g1
g2
(lp2628
g0
(g1
g2
(lp2629
g0
(g1
g2
(lp2630
Vthe
p2631
atp2632
Rp2633
(dp2634
g12
VDT
p2635
sbag0
(g1
g2
(lp2636
Vleft
p2637
atp2638
Rp2639
(dp2640
g12
VJJ
p2641
sbag0
(g1
g2
(lp2642
Vside
p2643
atp2644
Rp2645
(dp2646
g12
VNN
p2647
sbatp2648
Rp2649
(dp2650
g12
VNP
p2651
sbag0
(g1
g2
(lp2652
g0
(g1
g2
(lp2653
Vof
p2654
atp2655
Rp2656
(dp2657
g12
VIN
p2658
sbag0
(g1
g2
(lp2659
g0
(g1
g2
(lp2660
Vthe
p2661
atp2662
Rp2663
(dp2664
g12
VDT
p2665
sbag0
(g1
g2
(lp2666
Vsink
p2667
atp2668
Rp2669
(dp2670
g12
VNN
p2671
sbatp2672
Rp2673
(dp2674
g12
VNP
p2675
sbatp2676
Rp2677
(dp2678
g12
VPP
p2679
sbatp2680
Rp2681
(dp2682
g12
VNP
p2683
sbag0
(g1
g2
(lp2684
V,
p2685
atp2686
Rp2687
(dp2688
g12
V,
p2689
sbag0
(g1
g2
(lp2690
g0
(g1
g2
(lp2691
g0
(g1
g2
(lp2692
Vtwo
p2693
atp2694
Rp2695
(dp2696
g12
VCD
p2697
sbag0
(g1
g2
(lp2698
Vdoors
p2699
atp2700
Rp2701
(dp2702
g12
VNNS
p2703
sbatp2704
Rp2705
(dp2706
g12
VNP
p2707
sbag0
(g1
g2
(lp2708
g0
(g1
g2
(lp2709
Vunder
p2710
atp2711
Rp2712
(dp2713
g12
VIN
p2714
sbag0
(g1
g2
(lp2715
g0
(g1
g2
(lp2716
Vthe
p2717
atp2718
Rp2719
(dp2720
g12
VDT
p2721
sbag0
(g1
g2
(lp2722
Vsink
p2723
atp2724
Rp2725
(dp2726
g12
VNN
p2727
sbatp2728
Rp2729
(dp2730
g12
VNP
p2731
sbatp2732
Rp2733
(dp2734
g12
VPP
p2735
sbatp2736
Rp2737
(dp2738
g12
VNP
p2739
sbag0
(g1
g2
(lp2740
V,
p2741
atp2742
Rp2743
(dp2744
g12
V,
p2745
sbag0
(g1
g2
(lp2746
g0
(g1
g2
(lp2747
g0
(g1
g2
(lp2748
Vtwo
p2749
atp2750
Rp2751
(dp2752
g12
VCD
p2753
sbag0
(g1
g2
(lp2754
Vdoors
p2755
atp2756
Rp2757
(dp2758
g12
VNNS
p2759
sbatp2760
Rp2761
(dp2762
g12
VNP
p2763
sbag0
(g1
g2
(lp2764
g0
(g1
g2
(lp2765
Vto
p2766
atp2767
Rp2768
(dp2769
g12
VTO
p2770
sbag0
(g1
g2
(lp2771
g0
(g1
g2
(lp2772
g0
(g1
g2
(lp2773
Vthe
p2774
atp2775
Rp2776
(dp2777
g12
VDT
p2778
sbag0
(g1
g2
(lp2779
Vright
p2780
atp2781
Rp2782
(dp2783
g12
VNN
p2784
sbatp2785
Rp2786
(dp2787
g12
VNP
p2788
sbag0
(g1
g2
(lp2789
g0
(g1
g2
(lp2790
Vof
p2791
atp2792
Rp2793
(dp2794
g12
VIN
p2795
sbag0
(g1
g2
(lp2796
g0
(g1
g2
(lp2797
Vthe
p2798
atp2799
Rp2800
(dp2801
g12
VDT
p2802
sbag0
(g1
g2
(lp2803
Vsink
p2804
atp2805
Rp2806
(dp2807
g12
VNN
p2808
sbatp2809
Rp2810
(dp2811
g12
VNP
p2812
sbatp2813
Rp2814
(dp2815
g12
VPP
p2816
sbatp2817
Rp2818
(dp2819
g12
VNP
p2820
sbatp2821
Rp2822
(dp2823
g12
VPP
p2824
sbatp2825
Rp2826
(dp2827
g12
VNP
p2828
sbag0
(g1
g2
(lp2829
V,
p2830
atp2831
Rp2832
(dp2833
g12
V,
p2834
sbag0
(g1
g2
(lp2835
g0
(g1
g2
(lp2836
g0
(g1
g2
(lp2837
Vno
p2838
atp2839
Rp2840
(dp2841
g12
VDT
p2842
sbag0
(g1
g2
(lp2843
Vcabinets
p2844
atp2845
Rp2846
(dp2847
g12
VNNS
p2848
sbatp2849
Rp2850
(dp2851
g12
VNP
p2852
sbag0
(g1
g2
(lp2853
g0
(g1
g2
(lp2854
Vover
p2855
atp2856
Rp2857
(dp2858
g12
VIN
p2859
sbag0
(g1
g2
(lp2860
g0
(g1
g2
(lp2861
Vthe
p2862
atp2863
Rp2864
(dp2865
g12
VDT
p2866
sbag0
(g1
g2
(lp2867
Vwindow
p2868
atp2869
Rp2870
(dp2871
g12
VNN
p2872
sbatp2873
Rp2874
(dp2875
g12
VNP
p2876
sbatp2877
Rp2878
(dp2879
g12
VPP
p2880
sbatp2881
Rp2882
(dp2883
g12
VNP
p2884
sbatp2885
Rp2886
(dp2887
g12
VNP
p2888
sbatp2889
Rp2890
(dp2891
g12
VPP
p2892
sbatp2893
Rp2894
(dp2895
g12
VVP
p2896
sbatp2897
Rp2898
(dp2899
g12
VVP
p2900
sbatp2901
Rp2902
(dp2903
g12
VS
p2904
sbatp2905
Rp2906
(dp2907
g12
VSBAR
p2908
sbag0
(g1
g2
(lp2909
V.
p2910
atp2911
Rp2912
(dp2913
g12
V.
p2914
sbatp2915
Rp2916
(dp2917
g12
VFRAG
p2918
sbatp2919
Rp2920
(dp2921
g12
S'id: 19'
p2922
sbag0
(g1
g2
(lp2923
g0
(g1
g2
(lp2924
g0
(g1
g2
(lp2925
g0
(g1
g2
(lp2926
g0
(g1
g2
(lp2927
g0
(g1
g2
(lp2928
VI
p2929
atp2930
Rp2931
(dp2932
g12
VPRP
p2933
sbatp2934
Rp2935
(dp2936
g12
VNP
p2937
sbag0
(g1
g2
(lp2938
g0
(g1
g2
(lp2939
Vdo
p2940
atp2941
Rp2942
(dp2943
g12
VVBP
p2944
sbag0
(g1
g2
(lp2945
Vn't
p2946
atp2947
Rp2948
(dp2949
g12
VRB
p2950
sbag0
(g1
g2
(lp2951
g0
(g1
g2
(lp2952
Vknow
p2953
atp2954
Rp2955
(dp2956
g12
VVB
p2957
sbag0
(g1
g2
(lp2958
g0
(g1
g2
(lp2959
Vif
p2960
atp2961
Rp2962
(dp2963
g12
VIN
p2964
sbag0
(g1
g2
(lp2965
g0
(g1
g2
(lp2966
g0
(g1
g2
(lp2967
VI
p2968
atp2969
Rp2970
(dp2971
g12
VPRP
p2972
sbatp2973
Rp2974
(dp2975
g12
VNP
p2976
sbag0
(g1
g2
(lp2977
g0
(g1
g2
(lp2978
Vsaid
p2979
atp2980
Rp2981
(dp2982
g12
VVBD
p2983
sbag0
(g1
g2
(lp2984
g0
(g1
g2
(lp2985
Vthat
p2986
atp2987
Rp2988
(dp2989
g12
VIN
p2990
sbatp2991
Rp2992
(dp2993
g12
VADVP
p2994
sbatp2995
Rp2996
(dp2997
g12
VVP
p2998
sbatp2999
Rp3000
(dp3001
g12
VS
p3002
sbatp3003
Rp3004
(dp3005
g12
VSBAR
p3006
sbatp3007
Rp3008
(dp3009
g12
VVP
p3010
sbatp3011
Rp3012
(dp3013
g12
VVP
p3014
sbatp3015
Rp3016
(dp3017
g12
VS
p3018
sbag0
(g1
g2
(lp3019
V,
p3020
atp3021
Rp3022
(dp3023
g12
V,
p3024
sbag0
(g1
g2
(lp3025
Vand
p3026
atp3027
Rp3028
(dp3029
g12
VCC
p3030
sbag0
(g1
g2
(lp3031
g0
(g1
g2
(lp3032
g0
(g1
g2
(lp3033
VI
p3034
atp3035
Rp3036
(dp3037
g12
VPRP
p3038
sbatp3039
Rp3040
(dp3041
g12
VNP
p3042
sbag0
(g1
g2
(lp3043
g0
(g1
g2
(lp3044
V've
p3045
atp3046
Rp3047
(dp3048
g12
VVBP
p3049
sbag0
(g1
g2
(lp3050
g0
(g1
g2
(lp3051
Vgot
p3052
atp3053
Rp3054
(dp3055
g12
VVBD
p3056
sbag0
(g1
g2
(lp3057
g0
(g1
g2
(lp3058
g0
(g1
g2
(lp3059
Vthree
p3060
atp3061
Rp3062
(dp3063
g12
VCD
p3064
sbag0
(g1
g2
(lp3065
Vcabinets
p3066
atp3067
Rp3068
(dp3069
g12
VNNS
p3070
sbatp3071
Rp3072
(dp3073
g12
VNP
p3074
sbag0
(g1
g2
(lp3075
g0
(g1
g2
(lp3076
Vabove
p3077
atp3078
Rp3079
(dp3080
g12
VIN
p3081
sbag0
(g1
g2
(lp3082
g0
(g1
g2
(lp3083
Vthe
p3084
atp3085
Rp3086
(dp3087
g12
VDT
p3088
sbag0
(g1
g2
(lp3089
Vcounter
p3090
atp3091
Rp3092
(dp3093
g12
VNN
p3094
sbatp3095
Rp3096
(dp3097
g12
VNP
p3098
sbatp3099
Rp3100
(dp3101
g12
VPP
p3102
sbatp3103
Rp3104
(dp3105
g12
VNP
p3106
sbag0
(g1
g2
(lp3107
g0
(g1
g2
(lp3108
Vto
p3109
atp3110
Rp3111
(dp3112
g12
VTO
p3113
sbag0
(g1
g2
(lp3114
g0
(g1
g2
(lp3115
g0
(g1
g2
(lp3116
Vthe
p3117
atp3118
Rp3119
(dp3120
g12
VDT
p3121
sbatp3122
Rp3123
(dp3124
g12
VNP
p3125
sbag0
(g1
g2
(lp3126
g0
(g1
g2
(lp3127
Vleft
p3128
atp3129
Rp3130
(dp3131
g12
VVBN
p3132
sbag0
(g1
g2
(lp3133
g0
(g1
g2
(lp3134
g0
(g1
g2
(lp3135
Vwhere
p3136
atp3137
Rp3138
(dp3139
g12
VWRB
p3140
sbatp3141
Rp3142
(dp3143
g12
VWHADVP
p3144
sbatp3145
Rp3146
(dp3147
g12
VFRAG
p3148
sbatp3149
Rp3150
(dp3151
g12
VVP
p3152
sbatp3153
Rp3154
(dp3155
g12
VNP
p3156
sbatp3157
Rp3158
(dp3159
g12
VPP
p3160
sbatp3161
Rp3162
(dp3163
g12
VVP
p3164
sbatp3165
Rp3166
(dp3167
g12
VVP
p3168
sbatp3169
Rp3170
(dp3171
g12
VS
p3172
sbatp3173
Rp3174
(dp3175
g12
VS
p3176
sbag0
(g1
g2
(lp3177
g0
(g1
g2
(lp3178
g0
(g1
g2
(lp3179
Vthe
p3180
atp3181
Rp3182
(dp3183
g12
VDT
p3184
sbag0
(g1
g2
(lp3185
Vboy
p3186
atp3187
Rp3188
(dp3189
g12
VNN
p3190
sbag0
(g1
g2
(lp3191
V's
p3192
atp3193
Rp3194
(dp3195
g12
VPOS
p3196
sbatp3197
Rp3198
(dp3199
g12
VNP
p3200
sbag0
(g1
g2
(lp3201
g0
(g1
g2
(lp3202
Vstealing
p3203
atp3204
Rp3205
(dp3206
g12
VVBG
p3207
sbag0
(g1
g2
(lp3208
g0
(g1
g2
(lp3209
Vthe
p3210
atp3211
Rp3212
(dp3213
g12
VDT
p3214
sbag0
(g1
g2
(lp3215
Vcookies
p3216
atp3217
Rp3218
(dp3219
g12
VNNS
p3220
sbatp3221
Rp3222
(dp3223
g12
VNP
p3224
sbatp3225
Rp3226
(dp3227
g12
VVP
p3228
sbatp3229
Rp3230
(dp3231
g12
VS
p3232
sbag0
(g1
g2
(lp3233
V.
p3234
atp3235
Rp3236
(dp3237
g12
V.
p3238
sbatp3239
Rp3240
(dp3241
g12
VS
p3242
sbatp3243
Rp3244
(dp3245
g12
S'id: 20'
p3246
sbatp3247
Rp3248
(dp3249
g12
S'sentences'
p3250
sb.