ccopy_reg
_reconstructor
p0
(cnltk.tree
Tree
p1
c__builtin__
list
p2
(lp3
g0
(g1
g2
(lp4
g0
(g1
g2
(lp5
g0
(g1
g2
(lp6
(lp7
S'word: man, index: 2'
p8
aatp9
Rp10
(dp11
S'_label'
p12
Vdiscourse
p13
sbatp14
Rp15
(dp16
g12
S'word: oh, index: 1'
p17
sbatp18
Rp19
(dp20
g12
S'id: 0'
p21
sbag0
(g1
g2
(lp22
g0
(g1
g2
(lp23
g0
(g1
g2
(lp24
(lp25
S'word: a., index: 3'
p26
aatp27
Rp28
(dp29
g12
Vadvmod
p30
sbag0
(g1
g2
(lp31
g0
(g1
g2
(lp32
g0
(g1
g2
(lp33
(lp34
S'word: there, index: 4'
p35
aatp36
Rp37
(dp38
g12
Vexpl
p39
sbag0
(g1
g2
(lp40
g0
(g1
g2
(lp41
g0
(g1
g2
(lp42
g0
(g1
g2
(lp43
g0
(g1
g2
(lp44
(lp45
S'word: there, index: 7'
p46
aatp47
Rp48
(dp49
g12
Vexpl
p50
sbag0
(g1
g2
(lp51
g0
(g1
g2
(lp52
g0
(g1
g2
(lp53
(lp54
S'word: a, index: 9'
p55
aatp56
Rp57
(dp58
g12
Vdet
p59
sbatp60
Rp61
(dp62
g12
S'word: cookie, index: 10'
p63
sbatp64
Rp65
(dp66
g12
Vnsubj
p67
sbatp68
Rp69
(dp70
g12
S"word: 's, index: 8"
p71
sbatp72
Rp73
(dp74
g12
Vrcmod
p75
sbatp76
Rp77
(dp78
g12
S'word: a., index: 6'
p79
sbatp80
Rp81
(dp82
g12
Vnsubj
p83
sbatp84
Rp85
(dp86
g12
S"word: 's, index: 5"
p87
sbatp88
Rp89
(dp90
g12
Vccomp
p91
sbag0
(g1
g2
(lp92
(lp93
S'word: it, index: 1'
p94
aatp95
Rp96
(dp97
g12
Vnsubj
p98
sbatp99
Rp100
(dp101
g12
S"word: 's, index: 2"
p102
sbatp103
Rp104
(dp105
g12
S'id: 1'
p106
sbag0
(g1
g2
(lp107
g0
(g1
g2
(lp108
g0
(g1
g2
(lp109
(lp110
S"word: 's, index: 6"
p111
aatp112
Rp113
(dp114
g12
Vaux
p115
sbag0
(g1
g2
(lp116
(lp117
S'word: everywhere, index: 8'
p118
aatp119
Rp120
(dp121
g12
Vadvmod
p122
sbag0
(g1
g2
(lp123
(lp124
S'word: theres, index: 1'
p125
aatp126
Rp127
(dp128
g12
Vadvmod
p129
sbag0
(g1
g2
(lp130
(lp131
S'word: water, index: 3'
p132
aatp133
Rp134
(dp135
g12
Vprep
p136
sbag0
(g1
g2
(lp137
(lp138
S'word: it, index: 5'
p139
aatp140
Rp141
(dp142
g12
Vnsubj
p143
sbatp144
Rp145
(dp146
g12
S'word: going, index: 7'
p147
sbatp148
Rp149
(dp150
g12
S'id: 2'
p151
sbag0
(g1
g2
(lp152
g0
(g1
g2
(lp153
g0
(g1
g2
(lp154
g0
(g1
g2
(lp155
g0
(g1
g2
(lp156
(lp157
S'word: its, index: 11'
p158
aatp159
Rp160
(dp161
g12
Vposs
p162
sbag0
(g1
g2
(lp163
(lp164
S'word: a, index: 12'
p165
aatp166
Rp167
(dp168
g12
Vdet
p169
sbag0
(g1
g2
(lp170
(lp171
S'word: really, index: 13'
p172
aatp173
Rp174
(dp175
g12
Vadvmod
p176
sbatp177
Rp178
(dp179
g12
S'word: good, index: 14'
p180
sbatp181
Rp182
(dp183
g12
Vdep
p184
sbag0
(g1
g2
(lp185
g0
(g1
g2
(lp186
g0
(g1
g2
(lp187
(lp188
S'word: and, index: 1'
p189
aatp190
Rp191
(dp192
g12
Vcc
p193
sbag0
(g1
g2
(lp194
(lp195
S'word: there, index: 2'
p196
aatp197
Rp198
(dp199
g12
Vexpl
p200
sbag0
(g1
g2
(lp201
(lp202
S'word: a, index: 4'
p203
aatp204
Rp205
(dp206
g12
Vnsubj
p207
sbatp208
Rp209
(dp210
g12
S"word: 's, index: 3"
p211
sbatp212
Rp213
(dp214
g12
Vccomp
p215
sbag0
(g1
g2
(lp216
(lp217
S'word: I, index: 6'
p218
aatp219
Rp220
(dp221
g12
Vnsubj
p222
sbag0
(g1
g2
(lp223
(lp224
S'word: do, index: 7'
p225
aatp226
Rp227
(dp228
g12
Vaux
p229
sbag0
(g1
g2
(lp230
(lp231
S"word: n't, index: 8"
p232
aatp233
Rp234
(dp235
g12
Vneg
p236
sbatp237
Rp238
(dp239
g12
S'word: know, index: 9'
p240
sbatp241
Rp242
(dp243
g12
S'id: 3'
p244
sbag0
(g1
g2
(lp245
g0
(g1
g2
(lp246
g0
(g1
g2
(lp247
(lp248
S'word: a, index: 1'
p249
aatp250
Rp251
(dp252
g12
Vdet
p253
sbatp254
Rp255
(dp256
g12
S'word: cookie, index: 2'
p257
sbatp258
Rp259
(dp260
g12
S'id: 4'
p261
sbag0
(g1
g2
(lp262
g0
(g1
g2
(lp263
g0
(g1
g2
(lp264
(lp265
S'word: that, index: 1'
p266
aatp267
Rp268
(dp269
g12
Vnsubj
p270
sbag0
(g1
g2
(lp271
(lp272
S"word: 's, index: 2"
p273
aatp274
Rp275
(dp276
g12
Vcop
p277
sbatp278
Rp279
(dp280
g12
S'word: it, index: 3'
p281
sbatp282
Rp283
(dp284
g12
S'id: 5'
p285
sbag0
(g1
g2
(lp286
tp287
Rp288
(dp289
g12
S'id: 6'
p290
sbag0
(g1
g2
(lp291
g0
(g1
g2
(lp292
g0
(g1
g2
(lp293
(lp294
S'word: that, index: 1'
p295
aatp296
Rp297
(dp298
g12
Vnsubj
p299
sbag0
(g1
g2
(lp300
(lp301
S"word: 's, index: 2"
p302
aatp303
Rp304
(dp305
g12
Vcop
p306
sbatp307
Rp308
(dp309
g12
S'word: it, index: 3'
p310
sbatp311
Rp312
(dp313
g12
S'id: 7'
p314
sbatp315
Rp316
(dp317
g12
S'sentences'
p318
sb.