ccopy_reg
_reconstructor
p0
(cnltk.tree
Tree
p1
c__builtin__
list
p2
(lp3
g0
(g1
g2
(lp4
g0
(g1
g2
(lp5
g0
(g1
g2
(lp6
VIt
p7
atp8
Rp9
(dp10
S'_label'
p11
S'start: 1'
p12
sbatp13
Rp14
(dp15
g11
S'sent: 1'
p16
sbag0
(g1
g2
(lp17
g0
(g1
g2
(lp18
Va puna day at the circus
p19
atp20
Rp21
(dp22
g11
S'start: 3'
p23
sbatp24
Rp25
(dp26
g11
S'sent: 1'
p27
sbatp28
Rp29
(dp30
g11
S'id: 1'
p31
sbag0
(g1
g2
(lp32
g0
(g1
g2
(lp33
g0
(g1
g2
(lp34
Vthe circus
p35
atp36
Rp37
(dp38
g11
S'start: 7'
p39
sbatp40
Rp41
(dp42
g11
S'sent: 1'
p43
sbag0
(g1
g2
(lp44
g0
(g1
g2
(lp45
Vthe circus
p46
atp47
Rp48
(dp49
g11
S'start: 17'
p50
sbatp51
Rp52
(dp53
g11
S'sent: 10'
p54
sbatp55
Rp56
(dp57
g11
S'id: 3'
p58
sbag0
(g1
g2
(lp59
g0
(g1
g2
(lp60
g0
(g1
g2
(lp61
VThe brother
p62
atp63
Rp64
(dp65
g11
S'start: 1'
p66
sbatp67
Rp68
(dp69
g11
S'sent: 2'
p70
sbag0
(g1
g2
(lp71
g0
(g1
g2
(lp72
Vhis
p73
atp74
Rp75
(dp76
g11
S'start: 54'
p77
sbatp78
Rp79
(dp80
g11
S'sent: 2'
p81
sbag0
(g1
g2
(lp82
g0
(g1
g2
(lp83
Vhis
p84
atp85
Rp86
(dp87
g11
S'start: 56'
p88
sbatp89
Rp90
(dp91
g11
S'sent: 2'
p92
sbag0
(g1
g2
(lp93
g0
(g1
g2
(lp94
Vthe brother
p95
atp96
Rp97
(dp98
g11
S'start: 12'
p99
sbatp100
Rp101
(dp102
g11
S'sent: 3'
p103
sbatp104
Rp105
(dp106
g11
S'id: 4'
p107
sbag0
(g1
g2
(lp108
g0
(g1
g2
(lp109
g0
(g1
g2
(lp110
Vthe little sister for a ride
p111
atp112
Rp113
(dp114
g11
S'start: 5'
p115
sbatp116
Rp117
(dp118
g11
S'sent: 2'
p119
sbag0
(g1
g2
(lp120
g0
(g1
g2
(lp121
Vthe little sister
p122
atp123
Rp124
(dp125
g11
S'start: 29'
p126
sbatp127
Rp128
(dp129
g11
S'sent: 2'
p130
sbag0
(g1
g2
(lp131
g0
(g1
g2
(lp132
Vshe
p133
atp134
Rp135
(dp136
g11
S'start: 40'
p137
sbatp138
Rp139
(dp140
g11
S'sent: 2'
p141
sbatp142
Rp143
(dp144
g11
S'id: 5'
p145
sbag0
(g1
g2
(lp146
g0
(g1
g2
(lp147
g0
(g1
g2
(lp148
Vthe clown
p149
atp150
Rp151
(dp152
g11
S'start: 13'
p153
sbatp154
Rp155
(dp156
g11
S'sent: 2'
p157
sbag0
(g1
g2
(lp158
g0
(g1
g2
(lp159
Vhe
p160
atp161
Rp162
(dp163
g11
S'start: 25'
p164
sbatp165
Rp166
(dp167
g11
S'sent: 2'
p168
sbatp169
Rp170
(dp171
g11
S'id: 7'
p172
sbag0
(g1
g2
(lp173
g0
(g1
g2
(lp174
g0
(g1
g2
(lp175
Vthe little boy
p176
atp177
Rp178
(dp179
g11
S'start: 20'
p180
sbatp181
Rp182
(dp183
g11
S'sent: 2'
p184
sbag0
(g1
g2
(lp185
g0
(g1
g2
(lp186
Vthe little boy
p187
atp188
Rp189
(dp190
g11
S'start: 7'
p191
sbatp192
Rp193
(dp194
g11
S'sent: 3'
p195
sbatp196
Rp197
(dp198
g11
S'id: 8'
p199
sbag0
(g1
g2
(lp200
g0
(g1
g2
(lp201
g0
(g1
g2
(lp202
Vthe mama 's hand
p203
atp204
Rp205
(dp206
g11
S'start: 34'
p207
sbatp208
Rp209
(dp210
g11
S'sent: 2'
p211
sbag0
(g1
g2
(lp212
g0
(g1
g2
(lp213
Vhis hand
p214
atp215
Rp216
(dp217
g11
S'start: 5'
p218
sbatp219
Rp220
(dp221
g11
S'sent: 5'
p222
sbatp223
Rp224
(dp225
g11
S'id: 11'
p226
sbag0
(g1
g2
(lp227
g0
(g1
g2
(lp228
g0
(g1
g2
(lp229
Vthe mama 's
p230
atp231
Rp232
(dp233
g11
S'start: 34'
p234
sbatp235
Rp236
(dp237
g11
S'sent: 2'
p238
sbag0
(g1
g2
(lp239
g0
(g1
g2
(lp240
Vthe mama
p241
atp242
Rp243
(dp244
g11
S'start: 2'
p245
sbatp246
Rp247
(dp248
g11
S'sent: 11'
p249
sbag0
(g1
g2
(lp250
g0
(g1
g2
(lp251
Vher
p252
atp253
Rp254
(dp255
g11
S'start: 9'
p256
sbatp257
Rp258
(dp259
g11
S'sent: 11'
p260
sbag0
(g1
g2
(lp261
g0
(g1
g2
(lp262
Vshe
p263
atp264
Rp265
(dp266
g11
S'start: 17'
p267
sbatp268
Rp269
(dp270
g11
S'sent: 11'
p271
sbag0
(g1
g2
(lp272
g0
(g1
g2
(lp273
Vshe
p274
atp275
Rp276
(dp277
g11
S'start: 22'
p278
sbatp279
Rp280
(dp281
g11
S'sent: 11'
p282
sbag0
(g1
g2
(lp283
g0
(g1
g2
(lp284
Vshe
p285
atp286
Rp287
(dp288
g11
S'start: 25'
p289
sbatp290
Rp291
(dp292
g11
S'sent: 11'
p293
sbag0
(g1
g2
(lp294
g0
(g1
g2
(lp295
Vshe
p296
atp297
Rp298
(dp299
g11
S'start: 6'
p300
sbatp301
Rp302
(dp303
g11
S'sent: 12'
p304
sbag0
(g1
g2
(lp305
g0
(g1
g2
(lp306
Vshe
p307
atp308
Rp309
(dp310
g11
S'start: 9'
p311
sbatp312
Rp313
(dp314
g11
S'sent: 12'
p315
sbatp316
Rp317
(dp318
g11
S'id: 12'
p319
sbag0
(g1
g2
(lp320
g0
(g1
g2
(lp321
g0
(g1
g2
(lp322
Vhere with the little boy
p323
atp324
Rp325
(dp326
g11
S'start: 5'
p327
sbatp328
Rp329
(dp330
g11
S'sent: 3'
p331
sbag0
(g1
g2
(lp332
g0
(g1
g2
(lp333
Vshe
p334
atp335
Rp336
(dp337
g11
S'start: 15'
p338
sbatp339
Rp340
(dp341
g11
S'sent: 3'
p342
sbatp343
Rp344
(dp345
g11
S'id: 20'
p346
sbag0
(g1
g2
(lp347
g0
(g1
g2
(lp348
g0
(g1
g2
(lp349
Vthe circus clown
p350
atp351
Rp352
(dp353
g11
S'start: 2'
p354
sbatp355
Rp356
(dp357
g11
S'sent: 4'
p358
sbag0
(g1
g2
(lp359
g0
(g1
g2
(lp360
Vhe
p361
atp362
Rp363
(dp364
g11
S'start: 13'
p365
sbatp366
Rp367
(dp368
g11
S'sent: 4'
p369
sbag0
(g1
g2
(lp370
g0
(g1
g2
(lp371
Vhe
p372
atp373
Rp374
(dp375
g11
S'start: 20'
p376
sbatp377
Rp378
(dp379
g11
S'sent: 4'
p380
sbag0
(g1
g2
(lp381
g0
(g1
g2
(lp382
Vhis
p383
atp384
Rp385
(dp386
g11
S'start: 5'
p387
sbatp388
Rp389
(dp390
g11
S'sent: 5'
p391
sbag0
(g1
g2
(lp392
g0
(g1
g2
(lp393
Vhim
p394
atp395
Rp396
(dp397
g11
S'start: 20'
p398
sbatp399
Rp400
(dp401
g11
S'sent: 5'
p402
sbatp403
Rp404
(dp405
g11
S'id: 26'
p406
sbag0
(g1
g2
(lp407
g0
(g1
g2
(lp408
g0
(g1
g2
(lp409
VI
p410
atp411
Rp412
(dp413
g11
S'start: 9'
p414
sbatp415
Rp416
(dp417
g11
S'sent: 4'
p418
sbag0
(g1
g2
(lp419
g0
(g1
g2
(lp420
VI
p421
atp422
Rp423
(dp424
g11
S'start: 2'
p425
sbatp426
Rp427
(dp428
g11
S'sent: 14'
p429
sbatp430
Rp431
(dp432
g11
S'id: 27'
p433
sbag0
(g1
g2
(lp434
g0
(g1
g2
(lp435
g0
(g1
g2
(lp436
Vjust a joker
p437
atp438
Rp439
(dp440
g11
S'start: 2'
p441
sbatp442
Rp443
(dp444
g11
S'sent: 6'
p445
sbag0
(g1
g2
(lp446
g0
(g1
g2
(lp447
Vhe
p448
atp449
Rp450
(dp451
g11
S'start: 10'
p452
sbatp453
Rp454
(dp455
g11
S'sent: 6'
p456
sbatp457
Rp458
(dp459
g11
S'id: 39'
p460
sbag0
(g1
g2
(lp461
g0
(g1
g2
(lp462
g0
(g1
g2
(lp463
Vtwo
p464
atp465
Rp466
(dp467
g11
S'start: 8'
p468
sbatp469
Rp470
(dp471
g11
S'sent: 7'
p472
sbag0
(g1
g2
(lp473
g0
(g1
g2
(lp474
Vtwo
p475
atp476
Rp477
(dp478
g11
S'start: 16'
p479
sbatp480
Rp481
(dp482
g11
S'sent: 7'
p483
sbag0
(g1
g2
(lp484
g0
(g1
g2
(lp485
Vtwo
p486
atp487
Rp488
(dp489
g11
S'start: 10'
p490
sbatp491
Rp492
(dp493
g11
S'sent: 9'
p494
sbag0
(g1
g2
(lp495
g0
(g1
g2
(lp496
Vtwo
p497
atp498
Rp499
(dp500
g11
S'start: 21'
p501
sbatp502
Rp503
(dp504
g11
S'sent: 12'
p505
sbatp506
Rp507
(dp508
g11
S'id: 44'
p509
sbag0
(g1
g2
(lp510
g0
(g1
g2
(lp511
g0
(g1
g2
(lp512
Vfour
p513
atp514
Rp515
(dp516
g11
S'start: 12'
p517
sbatp518
Rp519
(dp520
g11
S'sent: 7'
p521
sbag0
(g1
g2
(lp522
g0
(g1
g2
(lp523
Vfour
p524
atp525
Rp526
(dp527
g11
S'start: 14'
p528
sbatp529
Rp530
(dp531
g11
S'sent: 7'
p532
sbag0
(g1
g2
(lp533
g0
(g1
g2
(lp534
Vfour
p535
atp536
Rp537
(dp538
g11
S'start: 10'
p539
sbatp540
Rp541
(dp542
g11
S'sent: 13'
p543
sbatp544
Rp545
(dp546
g11
S'id: 45'
p547
sbag0
(g1
g2
(lp548
g0
(g1
g2
(lp549
g0
(g1
g2
(lp550
VEverybody 's sitting there
p551
atp552
Rp553
(dp554
g11
S'start: 1'
p555
sbatp556
Rp557
(dp558
g11
S'sent: 7'
p559
sbag0
(g1
g2
(lp560
g0
(g1
g2
(lp561
Vhim
p562
atp563
Rp564
(dp565
g11
S'start: 24'
p566
sbatp567
Rp568
(dp569
g11
S'sent: 7'
p570
sbag0
(g1
g2
(lp571
g0
(g1
g2
(lp572
Vhim
p573
atp574
Rp575
(dp576
g11
S'start: 27'
p577
sbatp578
Rp579
(dp580
g11
S'sent: 7'
p581
sbag0
(g1
g2
(lp582
g0
(g1
g2
(lp583
Vhis
p584
atp585
Rp586
(dp587
g11
S'start: 3'
p588
sbatp589
Rp590
(dp591
g11
S'sent: 9'
p592
sbatp593
Rp594
(dp595
g11
S'id: 50'
p596
sbag0
(g1
g2
(lp597
g0
(g1
g2
(lp598
g0
(g1
g2
(lp599
Vthe mother 's
p600
atp601
Rp602
(dp603
g11
S'start: 5'
p604
sbatp605
Rp606
(dp607
g11
S'sent: 10'
p608
sbag0
(g1
g2
(lp609
g0
(g1
g2
(lp610
Vshe
p611
atp612
Rp613
(dp614
g11
S'start: 10'
p615
sbatp616
Rp617
(dp618
g11
S'sent: 10'
p619
sbatp620
Rp621
(dp622
g11
S'id: 68'
p623
sbag0
(g1
g2
(lp624
g0
(g1
g2
(lp625
g0
(g1
g2
(lp626
Vthat oldest little girl she is , she 's not too tired cause
p627
atp628
Rp629
(dp630
g11
S'start: 2'
p631
sbatp632
Rp633
(dp634
g11
S'sent: 12'
p635
sbag0
(g1
g2
(lp636
g0
(g1
g2
(lp637
Vshe
p638
atp639
Rp640
(dp641
g11
S'start: 15'
p642
sbatp643
Rp644
(dp645
g11
S'sent: 12'
p646
sbag0
(g1
g2
(lp647
g0
(g1
g2
(lp648
Vher
p649
atp650
Rp651
(dp652
g11
S'start: 20'
p653
sbatp654
Rp655
(dp656
g11
S'sent: 12'
p657
sbag0
(g1
g2
(lp658
g0
(g1
g2
(lp659
VHer
p660
atp661
Rp662
(dp663
g11
S'start: 1'
p664
sbatp665
Rp666
(dp667
g11
S'sent: 13'
p668
sbatp669
Rp670
(dp671
g11
S'id: 78'
p672
sbag0
(g1
g2
(lp673
g0
(g1
g2
(lp674
g0
(g1
g2
(lp675
VHer hair
p676
atp677
Rp678
(dp679
g11
S'start: 1'
p680
sbatp681
Rp682
(dp683
g11
S'sent: 13'
p684
sbag0
(g1
g2
(lp685
g0
(g1
g2
(lp686
Vher hair
p687
atp688
Rp689
(dp690
g11
S'start: 10'
p691
sbatp692
Rp693
(dp694
g11
S'sent: 14'
p695
sbatp696
Rp697
(dp698
g11
S'id: 86'
p699
sbag0
(g1
g2
(lp700
g0
(g1
g2
(lp701
g0
(g1
g2
(lp702
Vthe baby
p703
atp704
Rp705
(dp706
g11
S'start: 4'
p707
sbatp708
Rp709
(dp710
g11
S'sent: 14'
p711
sbag0
(g1
g2
(lp712
g0
(g1
g2
(lp713
Vher
p714
atp715
Rp716
(dp717
g11
S'start: 10'
p718
sbatp719
Rp720
(dp721
g11
S'sent: 14'
p722
sbatp723
Rp724
(dp725
g11
S'id: 93'
p726
sbatp727
Rp728
(dp729
g11
S'coreferences'
p730
sb.