ccopy_reg
_reconstructor
p0
(cnltk.tree
Tree
p1
c__builtin__
list
p2
(lp3
g0
(g1
g2
(lp4
g0
(g1
g2
(lp5
g0
(g1
g2
(lp6
g0
(g1
g2
(lp7
g0
(g1
g2
(lp8
VI
p9
atp10
Rp11
(dp12
S'_label'
p13
VPRP
p14
sbatp15
Rp16
(dp17
g13
VNP
p18
sbag0
(g1
g2
(lp19
g0
(g1
g2
(lp20
Vsee
p21
atp22
Rp23
(dp24
g13
VVBP
p25
sbag0
(g1
g2
(lp26
g0
(g1
g2
(lp27
g0
(g1
g2
(lp28
Va
p29
atp30
Rp31
(dp32
g13
VDT
p33
sbag0
(g1
g2
(lp34
Vlittle
p35
atp36
Rp37
(dp38
g13
VJJ
p39
sbag0
(g1
g2
(lp40
Vgirl
p41
atp42
Rp43
(dp44
g13
VNN
p45
sbatp46
Rp47
(dp48
g13
VNP
p49
sbag0
(g1
g2
(lp50
g0
(g1
g2
(lp51
g0
(g1
g2
(lp52
Vwho
p53
atp54
Rp55
(dp56
g13
VWP
p57
sbatp58
Rp59
(dp60
g13
VWHNP
p61
sbag0
(g1
g2
(lp62
g0
(g1
g2
(lp63
g0
(g1
g2
(lp64
V's
p65
atp66
Rp67
(dp68
g13
VVBZ
p69
sbag0
(g1
g2
(lp70
g0
(g1
g2
(lp71
Vasking
p72
atp73
Rp74
(dp75
g13
VVBG
p76
sbag0
(g1
g2
(lp77
g0
(g1
g2
(lp78
Vfor
p79
atp80
Rp81
(dp82
g13
VIN
p83
sbag0
(g1
g2
(lp84
g0
(g1
g2
(lp85
Vcookies
p86
atp87
Rp88
(dp89
g13
VNNS
p90
sbatp91
Rp92
(dp93
g13
VNP
p94
sbatp95
Rp96
(dp97
g13
VPP
p98
sbag0
(g1
g2
(lp99
g0
(g1
g2
(lp100
Vapparently
p101
atp102
Rp103
(dp104
g13
VRB
p105
sbatp106
Rp107
(dp108
g13
VADVP
p109
sbag0
(g1
g2
(lp110
g0
(g1
g2
(lp111
Vfrom
p112
atp113
Rp114
(dp115
g13
VIN
p116
sbag0
(g1
g2
(lp117
g0
(g1
g2
(lp118
g0
(g1
g2
(lp119
Vprobably
p120
atp121
Rp122
(dp123
g13
VRB
p124
sbag0
(g1
g2
(lp125
Vher
p126
atp127
Rp128
(dp129
g13
VPRP$
p130
sbag0
(g1
g2
(lp131
Vbrother
p132
atp133
Rp134
(dp135
g13
VNN
p136
sbatp137
Rp138
(dp139
g13
VNP
p140
sbag0
(g1
g2
(lp141
V,
p142
atp143
Rp144
(dp145
g13
V,
p146
sbag0
(g1
g2
(lp147
g0
(g1
g2
(lp148
g0
(g1
g2
(lp149
Vwho
p150
atp151
Rp152
(dp153
g13
VWP
p154
sbatp155
Rp156
(dp157
g13
VWHNP
p158
sbag0
(g1
g2
(lp159
g0
(g1
g2
(lp160
g0
(g1
g2
(lp161
Vis
p162
atp163
Rp164
(dp165
g13
VVBZ
p166
sbag0
(g1
g2
(lp167
g0
(g1
g2
(lp168
Von
p169
atp170
Rp171
(dp172
g13
VIN
p173
sbag0
(g1
g2
(lp174
g0
(g1
g2
(lp175
g0
(g1
g2
(lp176
Vthe
p177
atp178
Rp179
(dp180
g13
VDT
p181
sbag0
(g1
g2
(lp182
Vstool
p183
atp184
Rp185
(dp186
g13
VNN
p187
sbatp188
Rp189
(dp190
g13
VNP
p191
sbag0
(g1
g2
(lp192
g0
(g1
g2
(lp193
Vabout
p194
atp195
Rp196
(dp197
g13
VIN
p198
sbag0
(g1
g2
(lp199
g0
(g1
g2
(lp200
g0
(g1
g2
(lp201
Vto
p202
atp203
Rp204
(dp205
g13
VTO
p206
sbag0
(g1
g2
(lp207
g0
(g1
g2
(lp208
Vfall
p209
atp210
Rp211
(dp212
g13
VVB
p213
sbatp214
Rp215
(dp216
g13
VVP
p217
sbatp218
Rp219
(dp220
g13
VVP
p221
sbatp222
Rp223
(dp224
g13
VS
p225
sbatp226
Rp227
(dp228
g13
VVP
p229
sbatp230
Rp231
(dp232
g13
VNP
p233
sbatp234
Rp235
(dp236
g13
VPP
p237
sbatp238
Rp239
(dp240
g13
VVP
p241
sbatp242
Rp243
(dp244
g13
VS
p245
sbatp246
Rp247
(dp248
g13
VSBAR
p249
sbatp250
Rp251
(dp252
g13
VNP
p253
sbatp254
Rp255
(dp256
g13
VPP
p257
sbatp258
Rp259
(dp260
g13
VVP
p261
sbatp262
Rp263
(dp264
g13
VVP
p265
sbatp266
Rp267
(dp268
g13
VS
p269
sbatp270
Rp271
(dp272
g13
VSBAR
p273
sbatp274
Rp275
(dp276
g13
VNP
p277
sbatp278
Rp279
(dp280
g13
VVP
p281
sbatp282
Rp283
(dp284
g13
VS
p285
sbag0
(g1
g2
(lp286
V,
p287
atp288
Rp289
(dp290
g13
V,
p291
sbag0
(g1
g2
(lp292
g0
(g1
g2
(lp293
Vhe
p294
atp295
Rp296
(dp297
g13
VPRP
p298
sbatp299
Rp300
(dp301
g13
VNP
p302
sbag0
(g1
g2
(lp303
g0
(g1
g2
(lp304
V's
p305
atp306
Rp307
(dp308
g13
VVBZ
p309
sbag0
(g1
g2
(lp310
g0
(g1
g2
(lp311
Vreaching
p312
atp313
Rp314
(dp315
g13
VVBG
p316
sbag0
(g1
g2
(lp317
g0
(g1
g2
(lp318
Vfor
p319
atp320
Rp321
(dp322
g13
VIN
p323
sbag0
(g1
g2
(lp324
g0
(g1
g2
(lp325
Vcookies
p326
atp327
Rp328
(dp329
g13
VNNS
p330
sbatp331
Rp332
(dp333
g13
VNP
p334
sbatp335
Rp336
(dp337
g13
VPP
p338
sbatp339
Rp340
(dp341
g13
VVP
p342
sbatp343
Rp344
(dp345
g13
VVP
p346
sbag0
(g1
g2
(lp347
V.
p348
atp349
Rp350
(dp351
g13
V.
p352
sbatp353
Rp354
(dp355
g13
VS
p356
sbatp357
Rp358
(dp359
g13
S'id: 0'
p360
sbag0
(g1
g2
(lp361
g0
(g1
g2
(lp362
g0
(g1
g2
(lp363
g0
(g1
g2
(lp364
VHe
p365
atp366
Rp367
(dp368
g13
VPRP
p369
sbatp370
Rp371
(dp372
g13
VNP
p373
sbag0
(g1
g2
(lp374
g0
(g1
g2
(lp375
Vhas
p376
atp377
Rp378
(dp379
g13
VVBZ
p380
sbag0
(g1
g2
(lp381
g0
(g1
g2
(lp382
g0
(g1
g2
(lp383
g0
(g1
g2
(lp384
Vone
p385
atp386
Rp387
(dp388
g13
VCD
p389
sbatp390
Rp391
(dp392
g13
VNP
p393
sbag0
(g1
g2
(lp394
g0
(g1
g2
(lp395
Vin
p396
atp397
Rp398
(dp399
g13
VIN
p400
sbag0
(g1
g2
(lp401
g0
(g1
g2
(lp402
Vhis
p403
atp404
Rp405
(dp406
g13
VPRP$
p407
sbag0
(g1
g2
(lp408
Vhand
p409
atp410
Rp411
(dp412
g13
VNN
p413
sbatp414
Rp415
(dp416
g13
VNP
p417
sbatp418
Rp419
(dp420
g13
VPP
p421
sbatp422
Rp423
(dp424
g13
VNP
p425
sbag0
(g1
g2
(lp426
V,
p427
atp428
Rp429
(dp430
g13
V,
p431
sbag0
(g1
g2
(lp432
g0
(g1
g2
(lp433
g0
(g1
g2
(lp434
Vprobably
p435
atp436
Rp437
(dp438
g13
VRB
p439
sbag0
(g1
g2
(lp440
Vone
p441
atp442
Rp443
(dp444
g13
VCD
p445
sbatp446
Rp447
(dp448
g13
VNP
p449
sbag0
(g1
g2
(lp450
g0
(g1
g2
(lp451
Vfor
p452
atp453
Rp454
(dp455
g13
VIN
p456
sbag0
(g1
g2
(lp457
g0
(g1
g2
(lp458
Vhimself
p459
atp460
Rp461
(dp462
g13
VPRP
p463
sbatp464
Rp465
(dp466
g13
VNP
p467
sbatp468
Rp469
(dp470
g13
VPP
p471
sbatp472
Rp473
(dp474
g13
VNP
p475
sbag0
(g1
g2
(lp476
V,
p477
atp478
Rp479
(dp480
g13
V,
p481
sbag0
(g1
g2
(lp482
Vand
p483
atp484
Rp485
(dp486
g13
VCC
p487
sbag0
(g1
g2
(lp488
g0
(g1
g2
(lp489
g0
(g1
g2
(lp490
Vone
p491
atp492
Rp493
(dp494
g13
VCD
p495
sbatp496
Rp497
(dp498
g13
VNP
p499
sbag0
(g1
g2
(lp500
g0
(g1
g2
(lp501
Vfor
p502
atp503
Rp504
(dp505
g13
VIN
p506
sbag0
(g1
g2
(lp507
g0
(g1
g2
(lp508
Vher
p509
atp510
Rp511
(dp512
g13
VPRP
p513
sbatp514
Rp515
(dp516
g13
VNP
p517
sbatp518
Rp519
(dp520
g13
VPP
p521
sbatp522
Rp523
(dp524
g13
VNP
p525
sbatp526
Rp527
(dp528
g13
VNP
p529
sbatp530
Rp531
(dp532
g13
VVP
p533
sbag0
(g1
g2
(lp534
V.
p535
atp536
Rp537
(dp538
g13
V.
p539
sbatp540
Rp541
(dp542
g13
VS
p543
sbatp544
Rp545
(dp546
g13
S'id: 1'
p547
sbag0
(g1
g2
(lp548
g0
(g1
g2
(lp549
g0
(g1
g2
(lp550
g0
(g1
g2
(lp551
VThe
p552
atp553
Rp554
(dp555
g13
VDT
p556
sbag0
(g1
g2
(lp557
Vcabinet
p558
atp559
Rp560
(dp561
g13
VNN
p562
sbag0
(g1
g2
(lp563
Vdoor
p564
atp565
Rp566
(dp567
g13
VNN
p568
sbatp569
Rp570
(dp571
g13
VNP
p572
sbag0
(g1
g2
(lp573
g0
(g1
g2
(lp574
Vis
p575
atp576
Rp577
(dp578
g13
VVBZ
p579
sbag0
(g1
g2
(lp580
g0
(g1
g2
(lp581
Vopen
p582
atp583
Rp584
(dp585
g13
VJJ
p586
sbatp587
Rp588
(dp589
g13
VADJP
p590
sbatp591
Rp592
(dp593
g13
VVP
p594
sbag0
(g1
g2
(lp595
V.
p596
atp597
Rp598
(dp599
g13
V.
p600
sbatp601
Rp602
(dp603
g13
VS
p604
sbatp605
Rp606
(dp607
g13
S'id: 2'
p608
sbag0
(g1
g2
(lp609
g0
(g1
g2
(lp610
g0
(g1
g2
(lp611
g0
(g1
g2
(lp612
VWhile
p613
atp614
Rp615
(dp616
g13
VIN
p617
sbag0
(g1
g2
(lp618
g0
(g1
g2
(lp619
g0
(g1
g2
(lp620
Vmother
p621
atp622
Rp623
(dp624
g13
VNN
p625
sbatp626
Rp627
(dp628
g13
VNP
p629
sbag0
(g1
g2
(lp630
g0
(g1
g2
(lp631
Vis
p632
atp633
Rp634
(dp635
g13
VVBZ
p636
sbag0
(g1
g2
(lp637
g0
(g1
g2
(lp638
Vdiligently
p639
atp640
Rp641
(dp642
g13
VRB
p643
sbatp644
Rp645
(dp646
g13
VADVP
p647
sbag0
(g1
g2
(lp648
g0
(g1
g2
(lp649
Vdrying
p650
atp651
Rp652
(dp653
g13
VVBG
p654
sbag0
(g1
g2
(lp655
g0
(g1
g2
(lp656
Vdishes
p657
atp658
Rp659
(dp660
g13
VNNS
p661
sbatp662
Rp663
(dp664
g13
VNP
p665
sbatp666
Rp667
(dp668
g13
VVP
p669
sbatp670
Rp671
(dp672
g13
VVP
p673
sbatp674
Rp675
(dp676
g13
VS
p677
sbatp678
Rp679
(dp680
g13
VSBAR
p681
sbag0
(g1
g2
(lp682
V,
p683
atp684
Rp685
(dp686
g13
V,
p687
sbag0
(g1
g2
(lp688
g0
(g1
g2
(lp689
Vwhile
p690
atp691
Rp692
(dp693
g13
VIN
p694
sbag0
(g1
g2
(lp695
g0
(g1
g2
(lp696
g0
(g1
g2
(lp697
Vthe
p698
atp699
Rp700
(dp701
g13
VDT
p702
sbag0
(g1
g2
(lp703
Vsink
p704
atp705
Rp706
(dp707
g13
VNN
p708
sbatp709
Rp710
(dp711
g13
VNP
p712
sbag0
(g1
g2
(lp713
g0
(g1
g2
(lp714
Vis
p715
atp716
Rp717
(dp718
g13
VVBZ
p719
sbag0
(g1
g2
(lp720
g0
(g1
g2
(lp721
Vrunning
p722
atp723
Rp724
(dp725
g13
VVBG
p726
sbag0
(g1
g2
(lp727
g0
(g1
g2
(lp728
Vover
p729
atp730
Rp731
(dp732
g13
VRP
p733
sbatp734
Rp735
(dp736
g13
VPRT
p737
sbatp738
Rp739
(dp740
g13
VVP
p741
sbatp742
Rp743
(dp744
g13
VVP
p745
sbatp746
Rp747
(dp748
g13
VS
p749
sbatp750
Rp751
(dp752
g13
VSBAR
p753
sbag0
(g1
g2
(lp754
V,
p755
atp756
Rp757
(dp758
g13
V,
p759
sbag0
(g1
g2
(lp760
g0
(g1
g2
(lp761
Vit
p762
atp763
Rp764
(dp765
g13
VPRP
p766
sbatp767
Rp768
(dp769
g13
VNP
p770
sbag0
(g1
g2
(lp771
g0
(g1
g2
(lp772
Vis
p773
atp774
Rp775
(dp776
g13
VVBZ
p777
sbag0
(g1
g2
(lp778
g0
(g1
g2
(lp779
Vobviously
p780
atp781
Rp782
(dp783
g13
VRB
p784
sbatp785
Rp786
(dp787
g13
VADVP
p788
sbag0
(g1
g2
(lp789
g0
(g1
g2
(lp790
Vplugged
p791
atp792
Rp793
(dp794
g13
VVBN
p795
sbag0
(g1
g2
(lp796
g0
(g1
g2
(lp797
Vup
p798
atp799
Rp800
(dp801
g13
VRP
p802
sbatp803
Rp804
(dp805
g13
VPRT
p806
sbatp807
Rp808
(dp809
g13
VVP
p810
sbatp811
Rp812
(dp813
g13
VVP
p814
sbag0
(g1
g2
(lp815
V.
p816
atp817
Rp818
(dp819
g13
V.
p820
sbatp821
Rp822
(dp823
g13
VS
p824
sbatp825
Rp826
(dp827
g13
S'id: 3'
p828
sbag0
(g1
g2
(lp829
g0
(g1
g2
(lp830
g0
(g1
g2
(lp831
VAnd
p832
atp833
Rp834
(dp835
g13
VCC
p836
sbag0
(g1
g2
(lp837
g0
(g1
g2
(lp838
g0
(g1
g2
(lp839
Vshe
p840
atp841
Rp842
(dp843
g13
VPRP
p844
sbatp845
Rp846
(dp847
g13
VNP
p848
sbag0
(g1
g2
(lp849
g0
(g1
g2
(lp850
Vhas
p851
atp852
Rp853
(dp854
g13
VVBZ
p855
sbag0
(g1
g2
(lp856
g0
(g1
g2
(lp857
g0
(g1
g2
(lp858
Vtwo
p859
atp860
Rp861
(dp862
g13
VCD
p863
sbag0
(g1
g2
(lp864
Vdishes
p865
atp866
Rp867
(dp868
g13
VNNS
p869
sbatp870
Rp871
(dp872
g13
VNP
p873
sbag0
(g1
g2
(lp874
V,
p875
atp876
Rp877
(dp878
g13
V,
p879
sbag0
(g1
g2
(lp880
g0
(g1
g2
(lp881
Vrather
p882
atp883
Rp884
(dp885
g13
VRB
p886
sbag0
(g1
g2
(lp887
Vthan
p888
atp889
Rp890
(dp891
g13
VIN
p892
sbatp893
Rp894
(dp895
g13
VCONJP
p896
sbag0
(g1
g2
(lp897
g0
(g1
g2
(lp898
Vthree
p899
atp900
Rp901
(dp902
g13
VCD
p903
sbatp904
Rp905
(dp906
g13
VNP
p907
sbatp908
Rp909
(dp910
g13
VNP
p911
sbatp912
Rp913
(dp914
g13
VVP
p915
sbatp916
Rp917
(dp918
g13
VS
p919
sbag0
(g1
g2
(lp920
V,
p921
atp922
Rp923
(dp924
g13
V,
p925
sbag0
(g1
g2
(lp926
Vso
p927
atp928
Rp929
(dp930
g13
VRB
p931
sbag0
(g1
g2
(lp932
g0
(g1
g2
(lp933
g0
(g1
g2
(lp934
VI
p935
atp936
Rp937
(dp938
g13
VPRP
p939
sbatp940
Rp941
(dp942
g13
VNP
p943
sbag0
(g1
g2
(lp944
g0
(g1
g2
(lp945
Vwonder
p946
atp947
Rp948
(dp949
g13
VVBP
p950
sbag0
(g1
g2
(lp951
g0
(g1
g2
(lp952
g0
(g1
g2
(lp953
Vwhy
p954
atp955
Rp956
(dp957
g13
VWRB
p958
sbag0
(g1
g2
(lp959
Vnot
p960
atp961
Rp962
(dp963
g13
VRB
p964
sbatp965
Rp966
(dp967
g13
VWHADVP
p968
sbag0
(g1
g2
(lp969
V,
p970
atp971
Rp972
(dp973
g13
V,
p974
sbag0
(g1
g2
(lp975
g0
(g1
g2
(lp976
g0
(g1
g2
(lp977
Vshe
p978
atp979
Rp980
(dp981
g13
VPRP
p982
sbatp983
Rp984
(dp985
g13
VNP
p986
sbag0
(g1
g2
(lp987
g0
(g1
g2
(lp988
Vmust
p989
atp990
Rp991
(dp992
g13
VMD
p993
sbag0
(g1
g2
(lp994
g0
(g1
g2
(lp995
Vhave
p996
atp997
Rp998
(dp999
g13
VVB
p1000
sbag0
(g1
g2
(lp1001
g0
(g1
g2
(lp1002
Vjust
p1003
atp1004
Rp1005
(dp1006
g13
VRB
p1007
sbatp1008
Rp1009
(dp1010
g13
VADVP
p1011
sbag0
(g1
g2
(lp1012
g0
(g1
g2
(lp1013
Vfed
p1014
atp1015
Rp1016
(dp1017
g13
VVBN
p1018
sbag0
(g1
g2
(lp1019
g0
(g1
g2
(lp1020
g0
(g1
g2
(lp1021
g0
(g1
g2
(lp1022
Vher
p1023
atp1024
Rp1025
(dp1026
g13
VPRP$
p1027
sbag0
(g1
g2
(lp1028
Vchildren
p1029
atp1030
Rp1031
(dp1032
g13
VNNS
p1033
sbatp1034
Rp1035
(dp1036
g13
VNP
p1037
sbag0
(g1
g2
(lp1038
g0
(g1
g2
(lp1039
Vcause
p1040
atp1041
Rp1042
(dp1043
g13
VVBP
p1044
sbag0
(g1
g2
(lp1045
g0
(g1
g2
(lp1046
g0
(g1
g2
(lp1047
g0
(g1
g2
(lp1048
Vthere
p1049
atp1050
Rp1051
(dp1052
g13
VEX
p1053
sbatp1054
Rp1055
(dp1056
g13
VNP
p1057
sbag0
(g1
g2
(lp1058
g0
(g1
g2
(lp1059
V's
p1060
atp1061
Rp1062
(dp1063
g13
VVBZ
p1064
sbag0
(g1
g2
(lp1065
g0
(g1
g2
(lp1066
g0
(g1
g2
(lp1067
Vonly
p1068
atp1069
Rp1070
(dp1071
g13
VRB
p1072
sbag0
(g1
g2
(lp1073
Vtwo
p1074
atp1075
Rp1076
(dp1077
g13
VCD
p1078
sbatp1079
Rp1080
(dp1081
g13
VQP
p1082
sbatp1083
Rp1084
(dp1085
g13
VNP
p1086
sbatp1087
Rp1088
(dp1089
g13
VVP
p1090
sbatp1091
Rp1092
(dp1093
g13
VS
p1094
sbatp1095
Rp1096
(dp1097
g13
VSBAR
p1098
sbatp1099
Rp1100
(dp1101
g13
VVP
p1102
sbatp1103
Rp1104
(dp1105
g13
VS
p1106
sbatp1107
Rp1108
(dp1109
g13
VSBAR
p1110
sbatp1111
Rp1112
(dp1113
g13
VVP
p1114
sbatp1115
Rp1116
(dp1117
g13
VVP
p1118
sbatp1119
Rp1120
(dp1121
g13
VVP
p1122
sbatp1123
Rp1124
(dp1125
g13
VS
p1126
sbatp1127
Rp1128
(dp1129
g13
VSBAR
p1130
sbatp1131
Rp1132
(dp1133
g13
VVP
p1134
sbatp1135
Rp1136
(dp1137
g13
VS
p1138
sbag0
(g1
g2
(lp1139
V.
p1140
atp1141
Rp1142
(dp1143
g13
V.
p1144
sbatp1145
Rp1146
(dp1147
g13
VS
p1148
sbatp1149
Rp1150
(dp1151
g13
S'id: 4'
p1152
sbag0
(g1
g2
(lp1153
g0
(g1
g2
(lp1154
g0
(g1
g2
(lp1155
VAnd
p1156
atp1157
Rp1158
(dp1159
g13
VCC
p1160
sbag0
(g1
g2
(lp1161
g0
(g1
g2
(lp1162
Vas
p1163
atp1164
Rp1165
(dp1166
g13
VIN
p1167
sbag0
(g1
g2
(lp1168
g0
(g1
g2
(lp1169
g0
(g1
g2
(lp1170
VI
p1171
atp1172
Rp1173
(dp1174
g13
VPRP
p1175
sbatp1176
Rp1177
(dp1178
g13
VNP
p1179
sbag0
(g1
g2
(lp1180
g0
(g1
g2
(lp1181
Vlook
p1182
atp1183
Rp1184
(dp1185
g13
VVBP
p1186
sbag0
(g1
g2
(lp1187
g0
(g1
g2
(lp1188
Voutside
p1189
atp1190
Rp1191
(dp1192
g13
VRB
p1193
sbatp1194
Rp1195
(dp1196
g13
VADVP
p1197
sbatp1198
Rp1199
(dp1200
g13
VVP
p1201
sbatp1202
Rp1203
(dp1204
g13
VS
p1205
sbatp1206
Rp1207
(dp1208
g13
VSBAR
p1209
sbag0
(g1
g2
(lp1210
V,
p1211
atp1212
Rp1213
(dp1214
g13
V,
p1215
sbag0
(g1
g2
(lp1216
g0
(g1
g2
(lp1217
VI
p1218
atp1219
Rp1220
(dp1221
g13
VPRP
p1222
sbatp1223
Rp1224
(dp1225
g13
VNP
p1226
sbag0
(g1
g2
(lp1227
g0
(g1
g2
(lp1228
Vsee
p1229
atp1230
Rp1231
(dp1232
g13
VVBP
p1233
sbag0
(g1
g2
(lp1234
g0
(g1
g2
(lp1235
g0
(g1
g2
(lp1236
Va
p1237
atp1238
Rp1239
(dp1240
g13
VDT
p1241
sbag0
(g1
g2
(lp1242
Vnice
p1243
atp1244
Rp1245
(dp1246
g13
VJJ
p1247
sbag0
(g1
g2
(lp1248
Vpath
p1249
atp1250
Rp1251
(dp1252
g13
VNN
p1253
sbatp1254
Rp1255
(dp1256
g13
VNP
p1257
sbag0
(g1
g2
(lp1258
g0
(g1
g2
(lp1259
g0
(g1
g2
(lp1260
Vthat
p1261
atp1262
Rp1263
(dp1264
g13
VWDT
p1265
sbatp1266
Rp1267
(dp1268
g13
VWHNP
p1269
sbag0
(g1
g2
(lp1270
g0
(g1
g2
(lp1271
g0
(g1
g2
(lp1272
Vobviously
p1273
atp1274
Rp1275
(dp1276
g13
VRB
p1277
sbatp1278
Rp1279
(dp1280
g13
VADVP
p1281
sbag0
(g1
g2
(lp1282
g0
(g1
g2
(lp1283
Vleads
p1284
atp1285
Rp1286
(dp1287
g13
VVBZ
p1288
sbag0
(g1
g2
(lp1289
g0
(g1
g2
(lp1290
g0
(g1
g2
(lp1291
Vto
p1292
atp1293
Rp1294
(dp1295
g13
VTO
p1296
sbag0
(g1
g2
(lp1297
g0
(g1
g2
(lp1298
Va
p1299
atp1300
Rp1301
(dp1302
g13
VDT
p1303
sbag0
(g1
g2
(lp1304
Vgarage
p1305
atp1306
Rp1307
(dp1308
g13
VNN
p1309
sbatp1310
Rp1311
(dp1312
g13
VNP
p1313
sbatp1314
Rp1315
(dp1316
g13
VPP
p1317
sbag0
(g1
g2
(lp1318
V,
p1319
atp1320
Rp1321
(dp1322
g13
V,
p1323
sbag0
(g1
g2
(lp1324
Vor
p1325
atp1326
Rp1327
(dp1328
g13
VCC
p1329
sbag0
(g1
g2
(lp1330
g0
(g1
g2
(lp1331
Vto
p1332
atp1333
Rp1334
(dp1335
g13
VTO
p1336
sbag0
(g1
g2
(lp1337
g0
(g1
g2
(lp1338
Vthe
p1339
atp1340
Rp1341
(dp1342
g13
VDT
p1343
sbag0
(g1
g2
(lp1344
Vhome
p1345
atp1346
Rp1347
(dp1348
g13
VNN
p1349
sbatp1350
Rp1351
(dp1352
g13
VNP
p1353
sbatp1354
Rp1355
(dp1356
g13
VPP
p1357
sbatp1358
Rp1359
(dp1360
g13
VPP
p1361
sbag0
(g1
g2
(lp1362
g0
(g1
g2
(lp1363
Vnext
p1364
atp1365
Rp1366
(dp1367
g13
VJJ
p1368
sbag0
(g1
g2
(lp1369
Vdoor
p1370
atp1371
Rp1372
(dp1373
g13
VNN
p1374
sbatp1375
Rp1376
(dp1377
g13
VADVP
p1378
sbatp1379
Rp1380
(dp1381
g13
VVP
p1382
sbatp1383
Rp1384
(dp1385
g13
VS
p1386
sbatp1387
Rp1388
(dp1389
g13
VSBAR
p1390
sbatp1391
Rp1392
(dp1393
g13
VNP
p1394
sbatp1395
Rp1396
(dp1397
g13
VVP
p1398
sbag0
(g1
g2
(lp1399
V.
p1400
atp1401
Rp1402
(dp1403
g13
V.
p1404
sbatp1405
Rp1406
(dp1407
g13
VS
p1408
sbatp1409
Rp1410
(dp1411
g13
S'id: 5'
p1412
sbag0
(g1
g2
(lp1413
g0
(g1
g2
(lp1414
g0
(g1
g2
(lp1415
VAnd
p1416
atp1417
Rp1418
(dp1419
g13
VCC
p1420
sbag0
(g1
g2
(lp1421
g0
(g1
g2
(lp1422
Vit
p1423
atp1424
Rp1425
(dp1426
g13
VPRP
p1427
sbatp1428
Rp1429
(dp1430
g13
VNP
p1431
sbag0
(g1
g2
(lp1432
g0
(g1
g2
(lp1433
Vmust
p1434
atp1435
Rp1436
(dp1437
g13
VMD
p1438
sbag0
(g1
g2
(lp1439
g0
(g1
g2
(lp1440
Vbe
p1441
atp1442
Rp1443
(dp1444
g13
VVB
p1445
sbag0
(g1
g2
(lp1446
g0
(g1
g2
(lp1447
Vspring
p1448
atp1449
Rp1450
(dp1451
g13
VNN
p1452
sbag0
(g1
g2
(lp1453
Vtime
p1454
atp1455
Rp1456
(dp1457
g13
VNN
p1458
sbatp1459
Rp1460
(dp1461
g13
VNP
p1462
sbag0
(g1
g2
(lp1463
g0
(g1
g2
(lp1464
Vbecause
p1465
atp1466
Rp1467
(dp1468
g13
VIN
p1469
sbag0
(g1
g2
(lp1470
g0
(g1
g2
(lp1471
g0
(g1
g2
(lp1472
Vthere
p1473
atp1474
Rp1475
(dp1476
g13
VEX
p1477
sbatp1478
Rp1479
(dp1480
g13
VNP
p1481
sbag0
(g1
g2
(lp1482
g0
(g1
g2
(lp1483
Vare
p1484
atp1485
Rp1486
(dp1487
g13
VVBP
p1488
sbag0
(g1
g2
(lp1489
g0
(g1
g2
(lp1490
Vtrees
p1491
atp1492
Rp1493
(dp1494
g13
VNNS
p1495
sbag0
(g1
g2
(lp1496
Vand
p1497
atp1498
Rp1499
(dp1500
g13
VCC
p1501
sbag0
(g1
g2
(lp1502
Vbushes
p1503
atp1504
Rp1505
(dp1506
g13
VNNS
p1507
sbatp1508
Rp1509
(dp1510
g13
VNP
p1511
sbatp1512
Rp1513
(dp1514
g13
VVP
p1515
sbatp1516
Rp1517
(dp1518
g13
VS
p1519
sbatp1520
Rp1521
(dp1522
g13
VSBAR
p1523
sbatp1524
Rp1525
(dp1526
g13
VVP
p1527
sbatp1528
Rp1529
(dp1530
g13
VVP
p1531
sbag0
(g1
g2
(lp1532
V.
p1533
atp1534
Rp1535
(dp1536
g13
V.
p1537
sbatp1538
Rp1539
(dp1540
g13
VS
p1541
sbatp1542
Rp1543
(dp1544
g13
S'id: 6'
p1545
sbag0
(g1
g2
(lp1546
g0
(g1
g2
(lp1547
g0
(g1
g2
(lp1548
VAnd
p1549
atp1550
Rp1551
(dp1552
g13
VCC
p1553
sbag0
(g1
g2
(lp1554
g0
(g1
g2
(lp1555
g0
(g1
g2
(lp1556
Vmother
p1557
atp1558
Rp1559
(dp1560
g13
VNN
p1561
sbatp1562
Rp1563
(dp1564
g13
VNP
p1565
sbag0
(g1
g2
(lp1566
g0
(g1
g2
(lp1567
g0
(g1
g2
(lp1568
g0
(g1
g2
(lp1569
g0
(g1
g2
(lp1570
V's
p1571
atp1572
Rp1573
(dp1574
g13
VPOS
p1575
sbatp1576
Rp1577
(dp1578
g13
VNP
p1579
sbag0
(g1
g2
(lp1580
g0
(g1
g2
(lp1581
Vgon
p1582
atp1583
Rp1584
(dp1585
g13
VVBG
p1586
sbag0
(g1
g2
(lp1587
g0
(g1
g2
(lp1588
g0
(g1
g2
(lp1589
Vna
p1590
atp1591
Rp1592
(dp1593
g13
VTO
p1594
sbag0
(g1
g2
(lp1595
g0
(g1
g2
(lp1596
Vslip
p1597
atp1598
Rp1599
(dp1600
g13
VVB
p1601
sbag0
(g1
g2
(lp1602
g0
(g1
g2
(lp1603
Vif
p1604
atp1605
Rp1606
(dp1607
g13
VIN
p1608
sbag0
(g1
g2
(lp1609
g0
(g1
g2
(lp1610
g0
(g1
g2
(lp1611
Vshe
p1612
atp1613
Rp1614
(dp1615
g13
VPRP
p1616
sbatp1617
Rp1618
(dp1619
g13
VNP
p1620
sbag0
(g1
g2
(lp1621
g0
(g1
g2
(lp1622
V's
p1623
atp1624
Rp1625
(dp1626
g13
VVBZ
p1627
sbag0
(g1
g2
(lp1628
Vnot
p1629
atp1630
Rp1631
(dp1632
g13
VRB
p1633
sbag0
(g1
g2
(lp1634
g0
(g1
g2
(lp1635
Vcareful
p1636
atp1637
Rp1638
(dp1639
g13
VJJ
p1640
sbatp1641
Rp1642
(dp1643
g13
VADJP
p1644
sbag0
(g1
g2
(lp1645
V,
p1646
atp1647
Rp1648
(dp1649
g13
V,
p1650
sbag0
(g1
g2
(lp1651
g0
(g1
g2
(lp1652
Vbecause
p1653
atp1654
Rp1655
(dp1656
g13
VIN
p1657
sbag0
(g1
g2
(lp1658
g0
(g1
g2
(lp1659
g0
(g1
g2
(lp1660
Vthe
p1661
atp1662
Rp1663
(dp1664
g13
VDT
p1665
sbag0
(g1
g2
(lp1666
Vwater
p1667
atp1668
Rp1669
(dp1670
g13
VNN
p1671
sbatp1672
Rp1673
(dp1674
g13
VNP
p1675
sbag0
(g1
g2
(lp1676
g0
(g1
g2
(lp1677
Vis
p1678
atp1679
Rp1680
(dp1681
g13
VVBZ
p1682
sbag0
(g1
g2
(lp1683
g0
(g1
g2
(lp1684
Vunder
p1685
atp1686
Rp1687
(dp1688
g13
VIN
p1689
sbag0
(g1
g2
(lp1690
g0
(g1
g2
(lp1691
Vher
p1692
atp1693
Rp1694
(dp1695
g13
VPRP$
p1696
sbag0
(g1
g2
(lp1697
Vfeet
p1698
atp1699
Rp1700
(dp1701
g13
VNNS
p1702
sbatp1703
Rp1704
(dp1705
g13
VNP
p1706
sbatp1707
Rp1708
(dp1709
g13
VPP
p1710
sbatp1711
Rp1712
(dp1713
g13
VVP
p1714
sbatp1715
Rp1716
(dp1717
g13
VS
p1718
sbatp1719
Rp1720
(dp1721
g13
VSBAR
p1722
sbatp1723
Rp1724
(dp1725
g13
VVP
p1726
sbatp1727
Rp1728
(dp1729
g13
VS
p1730
sbatp1731
Rp1732
(dp1733
g13
VSBAR
p1734
sbatp1735
Rp1736
(dp1737
g13
VVP
p1738
sbatp1739
Rp1740
(dp1741
g13
VVP
p1742
sbatp1743
Rp1744
(dp1745
g13
VS
p1746
sbatp1747
Rp1748
(dp1749
g13
VVP
p1750
sbatp1751
Rp1752
(dp1753
g13
VS
p1754
sbag0
(g1
g2
(lp1755
V,
p1756
atp1757
Rp1758
(dp1759
g13
V,
p1760
sbag0
(g1
g2
(lp1761
Vand
p1762
atp1763
Rp1764
(dp1765
g13
VCC
p1766
sbag0
(g1
g2
(lp1767
g0
(g1
g2
(lp1768
g0
(g1
g2
(lp1769
g0
(g1
g2
(lp1770
Vshe
p1771
atp1772
Rp1773
(dp1774
g13
VPRP
p1775
sbatp1776
Rp1777
(dp1778
g13
VNP
p1779
sbag0
(g1
g2
(lp1780
g0
(g1
g2
(lp1781
Vseems
p1782
atp1783
Rp1784
(dp1785
g13
VVBZ
p1786
sbag0
(g1
g2
(lp1787
g0
(g1
g2
(lp1788
g0
(g1
g2
(lp1789
Vto
p1790
atp1791
Rp1792
(dp1793
g13
VTO
p1794
sbag0
(g1
g2
(lp1795
g0
(g1
g2
(lp1796
Vbe
p1797
atp1798
Rp1799
(dp1800
g13
VVB
p1801
sbag0
(g1
g2
(lp1802
g0
(g1
g2
(lp1803
Voblivious
p1804
atp1805
Rp1806
(dp1807
g13
VJJ
p1808
sbag0
(g1
g2
(lp1809
g0
(g1
g2
(lp1810
Vto
p1811
atp1812
Rp1813
(dp1814
g13
VTO
p1815
sbag0
(g1
g2
(lp1816
g0
(g1
g2
(lp1817
Vit
p1818
atp1819
Rp1820
(dp1821
g13
VPRP
p1822
sbatp1823
Rp1824
(dp1825
g13
VNP
p1826
sbatp1827
Rp1828
(dp1829
g13
VPP
p1830
sbatp1831
Rp1832
(dp1833
g13
VADJP
p1834
sbatp1835
Rp1836
(dp1837
g13
VVP
p1838
sbatp1839
Rp1840
(dp1841
g13
VVP
p1842
sbatp1843
Rp1844
(dp1845
g13
VS
p1846
sbatp1847
Rp1848
(dp1849
g13
VVP
p1850
sbatp1851
Rp1852
(dp1853
g13
VS
p1854
sbag0
(g1
g2
(lp1855
V,
p1856
atp1857
Rp1858
(dp1859
g13
V,
p1860
sbag0
(g1
g2
(lp1861
Vor
p1862
atp1863
Rp1864
(dp1865
g13
VCC
p1866
sbag0
(g1
g2
(lp1867
g0
(g1
g2
(lp1868
g0
(g1
g2
(lp1869
Vshe
p1870
atp1871
Rp1872
(dp1873
g13
VPRP
p1874
sbatp1875
Rp1876
(dp1877
g13
VNP
p1878
sbag0
(g1
g2
(lp1879
g0
(g1
g2
(lp1880
Vis
p1881
atp1882
Rp1883
(dp1884
g13
VVBZ
p1885
sbag0
(g1
g2
(lp1886
g0
(g1
g2
(lp1887
Vshowing
p1888
atp1889
Rp1890
(dp1891
g13
VVBG
p1892
sbag0
(g1
g2
(lp1893
g0
(g1
g2
(lp1894
g0
(g1
g2
(lp1895
Va
p1896
atp1897
Rp1898
(dp1899
g13
VDT
p1900
sbag0
(g1
g2
(lp1901
Vbit
p1902
atp1903
Rp1904
(dp1905
g13
VNN
p1906
sbatp1907
Rp1908
(dp1909
g13
VNP
p1910
sbag0
(g1
g2
(lp1911
g0
(g1
g2
(lp1912
Vof
p1913
atp1914
Rp1915
(dp1916
g13
VIN
p1917
sbag0
(g1
g2
(lp1918
g0
(g1
g2
(lp1919
Vdismay
p1920
atp1921
Rp1922
(dp1923
g13
VNN
p1924
sbatp1925
Rp1926
(dp1927
g13
VNP
p1928
sbatp1929
Rp1930
(dp1931
g13
VPP
p1932
sbatp1933
Rp1934
(dp1935
g13
VNP
p1936
sbag0
(g1
g2
(lp1937
g0
(g1
g2
(lp1938
Von
p1939
atp1940
Rp1941
(dp1942
g13
VIN
p1943
sbag0
(g1
g2
(lp1944
g0
(g1
g2
(lp1945
Vher
p1946
atp1947
Rp1948
(dp1949
g13
VPRP$
p1950
sbag0
(g1
g2
(lp1951
Vface
p1952
atp1953
Rp1954
(dp1955
g13
VNN
p1956
sbatp1957
Rp1958
(dp1959
g13
VNP
p1960
sbatp1961
Rp1962
(dp1963
g13
VPP
p1964
sbatp1965
Rp1966
(dp1967
g13
VVP
p1968
sbatp1969
Rp1970
(dp1971
g13
VVP
p1972
sbatp1973
Rp1974
(dp1975
g13
VS
p1976
sbatp1977
Rp1978
(dp1979
g13
VS
p1980
sbatp1981
Rp1982
(dp1983
g13
VS
p1984
sbatp1985
Rp1986
(dp1987
g13
VSBAR
p1988
sbatp1989
Rp1990
(dp1991
g13
VNP
p1992
sbag0
(g1
g2
(lp1993
V.
p1994
atp1995
Rp1996
(dp1997
g13
V.
p1998
sbatp1999
Rp2000
(dp2001
g13
VFRAG
p2002
sbatp2003
Rp2004
(dp2005
g13
S'id: 7'
p2006
sbag0
(g1
g2
(lp2007
g0
(g1
g2
(lp2008
g0
(g1
g2
(lp2009
g0
(g1
g2
(lp2010
g0
(g1
g2
(lp2011
VShe
p2012
atp2013
Rp2014
(dp2015
g13
VPRP
p2016
sbatp2017
Rp2018
(dp2019
g13
VNP
p2020
sbag0
(g1
g2
(lp2021
g0
(g1
g2
(lp2022
V's
p2023
atp2024
Rp2025
(dp2026
g13
VVBZ
p2027
sbag0
(g1
g2
(lp2028
g0
(g1
g2
(lp2029
Vcertainly
p2030
atp2031
Rp2032
(dp2033
g13
VRB
p2034
sbatp2035
Rp2036
(dp2037
g13
VADVP
p2038
sbag0
(g1
g2
(lp2039
Vnot
p2040
atp2041
Rp2042
(dp2043
g13
VRB
p2044
sbag0
(g1
g2
(lp2045
g0
(g1
g2
(lp2046
Vsmiling
p2047
atp2048
Rp2049
(dp2050
g13
VVBG
p2051
sbatp2052
Rp2053
(dp2054
g13
VVP
p2055
sbatp2056
Rp2057
(dp2058
g13
VVP
p2059
sbatp2060
Rp2061
(dp2062
g13
VS
p2063
sbag0
(g1
g2
(lp2064
V,
p2065
atp2066
Rp2067
(dp2068
g13
V,
p2069
sbag0
(g1
g2
(lp2070
Vbut
p2071
atp2072
Rp2073
(dp2074
g13
VCC
p2075
sbag0
(g1
g2
(lp2076
g0
(g1
g2
(lp2077
g0
(g1
g2
(lp2078
Vshe
p2079
atp2080
Rp2081
(dp2082
g13
VPRP
p2083
sbatp2084
Rp2085
(dp2086
g13
VNP
p2087
sbag0
(g1
g2
(lp2088
g0
(g1
g2
(lp2089
Vis
p2090
atp2091
Rp2092
(dp2093
g13
VVBZ
p2094
sbag0
(g1
g2
(lp2095
g0
(g1
g2
(lp2096
Valso
p2097
atp2098
Rp2099
(dp2100
g13
VRB
p2101
sbatp2102
Rp2103
(dp2104
g13
VADVP
p2105
sbag0
(g1
g2
(lp2106
g0
(g1
g2
(lp2107
g0
(g1
g2
(lp2108
Vseemingly
p2109
atp2110
Rp2111
(dp2112
g13
VRB
p2113
sbatp2114
Rp2115
(dp2116
g13
VADVP
p2117
sbag0
(g1
g2
(lp2118
Vignoring
p2119
atp2120
Rp2121
(dp2122
g13
VVBG
p2123
sbag0
(g1
g2
(lp2124
g0
(g1
g2
(lp2125
Vher
p2126
atp2127
Rp2128
(dp2129
g13
VPRP$
p2130
sbag0
(g1
g2
(lp2131
Vchildren
p2132
atp2133
Rp2134
(dp2135
g13
VNNS
p2136
sbatp2137
Rp2138
(dp2139
g13
VNP
p2140
sbatp2141
Rp2142
(dp2143
g13
VVP
p2144
sbatp2145
Rp2146
(dp2147
g13
VVP
p2148
sbatp2149
Rp2150
(dp2151
g13
VS
p2152
sbag0
(g1
g2
(lp2153
V.
p2154
atp2155
Rp2156
(dp2157
g13
V.
p2158
sbatp2159
Rp2160
(dp2161
g13
VS
p2162
sbatp2163
Rp2164
(dp2165
g13
S'id: 8'
p2166
sbag0
(g1
g2
(lp2167
g0
(g1
g2
(lp2168
g0
(g1
g2
(lp2169
g0
(g1
g2
(lp2170
VAnd
p2171
atp2172
Rp2173
(dp2174
g13
VCC
p2175
sbag0
(g1
g2
(lp2176
g0
(g1
g2
(lp2177
g0
(g1
g2
(lp2178
Vthe
p2179
atp2180
Rp2181
(dp2182
g13
VDT
p2183
sbatp2184
Rp2185
(dp2186
g13
VNP
p2187
sbag0
(g1
g2
(lp2188
V,
p2189
atp2190
Rp2191
(dp2192
g13
V,
p2193
sbag0
(g1
g2
(lp2194
Vand
p2195
atp2196
Rp2197
(dp2198
g13
VCC
p2199
sbag0
(g1
g2
(lp2200
g0
(g1
g2
(lp2201
Vthe
p2202
atp2203
Rp2204
(dp2205
g13
VDT
p2206
sbag0
(g1
g2
(lp2207
Vone
p2208
atp2209
Rp2210
(dp2211
g13
VCD
p2212
sbag0
(g1
g2
(lp2213
Vlittle
p2214
atp2215
Rp2216
(dp2217
g13
VJJ
p2218
sbag0
(g1
g2
(lp2219
Vgirl
p2220
atp2221
Rp2222
(dp2223
g13
VNN
p2224
sbatp2225
Rp2226
(dp2227
g13
VNP
p2228
sbatp2229
Rp2230
(dp2231
g13
VNP
p2232
sbag0
(g1
g2
(lp2233
g0
(g1
g2
(lp2234
Vseems
p2235
atp2236
Rp2237
(dp2238
g13
VVBZ
p2239
sbag0
(g1
g2
(lp2240
g0
(g1
g2
(lp2241
g0
(g1
g2
(lp2242
Vto
p2243
atp2244
Rp2245
(dp2246
g13
VTO
p2247
sbag0
(g1
g2
(lp2248
g0
(g1
g2
(lp2249
Vbe
p2250
atp2251
Rp2252
(dp2253
g13
VVB
p2254
sbag0
(g1
g2
(lp2255
g0
(g1
g2
(lp2256
Vsaying
p2257
atp2258
Rp2259
(dp2260
g13
VVBG
p2261
sbag0
(g1
g2
(lp2262
g0
(g1
g2
(lp2263
Vshhh
p2264
atp2265
Rp2266
(dp2267
g13
VNN
p2268
sbatp2269
Rp2270
(dp2271
g13
VNP
p2272
sbag0
(g1
g2
(lp2273
g0
(g1
g2
(lp2274
Vto
p2275
atp2276
Rp2277
(dp2278
g13
VTO
p2279
sbag0
(g1
g2
(lp2280
g0
(g1
g2
(lp2281
Vthe
p2282
atp2283
Rp2284
(dp2285
g13
VDT
p2286
sbag0
(g1
g2
(lp2287
Vboy
p2288
atp2289
Rp2290
(dp2291
g13
VNN
p2292
sbatp2293
Rp2294
(dp2295
g13
VNP
p2296
sbatp2297
Rp2298
(dp2299
g13
VPP
p2300
sbag0
(g1
g2
(lp2301
g0
(g1
g2
(lp2302
Vso
p2303
atp2304
Rp2305
(dp2306
g13
VIN
p2307
sbag0
(g1
g2
(lp2308
Vthat
p2309
atp2310
Rp2311
(dp2312
g13
VIN
p2313
sbag0
(g1
g2
(lp2314
g0
(g1
g2
(lp2315
g0
(g1
g2
(lp2316
Vmom
p2317
atp2318
Rp2319
(dp2320
g13
VNN
p2321
sbatp2322
Rp2323
(dp2324
g13
VNP
p2325
sbag0
(g1
g2
(lp2326
g0
(g1
g2
(lp2327
Vdoes
p2328
atp2329
Rp2330
(dp2331
g13
VVBZ
p2332
sbag0
(g1
g2
(lp2333
Vn't
p2334
atp2335
Rp2336
(dp2337
g13
VRB
p2338
sbag0
(g1
g2
(lp2339
g0
(g1
g2
(lp2340
Vnotice
p2341
atp2342
Rp2343
(dp2344
g13
VVB
p2345
sbatp2346
Rp2347
(dp2348
g13
VVP
p2349
sbatp2350
Rp2351
(dp2352
g13
VVP
p2353
sbatp2354
Rp2355
(dp2356
g13
VS
p2357
sbatp2358
Rp2359
(dp2360
g13
VSBAR
p2361
sbatp2362
Rp2363
(dp2364
g13
VVP
p2365
sbatp2366
Rp2367
(dp2368
g13
VVP
p2369
sbatp2370
Rp2371
(dp2372
g13
VVP
p2373
sbatp2374
Rp2375
(dp2376
g13
VS
p2377
sbatp2378
Rp2379
(dp2380
g13
VVP
p2381
sbatp2382
Rp2383
(dp2384
g13
VS
p2385
sbag0
(g1
g2
(lp2386
V,
p2387
atp2388
Rp2389
(dp2390
g13
V,
p2391
sbag0
(g1
g2
(lp2392
Vbut
p2393
atp2394
Rp2395
(dp2396
g13
VCC
p2397
sbag0
(g1
g2
(lp2398
g0
(g1
g2
(lp2399
g0
(g1
g2
(lp2400
Vshe
p2401
atp2402
Rp2403
(dp2404
g13
VPRP
p2405
sbatp2406
Rp2407
(dp2408
g13
VNP
p2409
sbag0
(g1
g2
(lp2410
g0
(g1
g2
(lp2411
Vwill
p2412
atp2413
Rp2414
(dp2415
g13
VMD
p2416
sbag0
(g1
g2
(lp2417
g0
(g1
g2
(lp2418
g0
(g1
g2
(lp2419
Vwhen
p2420
atp2421
Rp2422
(dp2423
g13
VWRB
p2424
sbatp2425
Rp2426
(dp2427
g13
VWHADVP
p2428
sbag0
(g1
g2
(lp2429
g0
(g1
g2
(lp2430
g0
(g1
g2
(lp2431
Vit
p2432
atp2433
Rp2434
(dp2435
g13
VPRP
p2436
sbatp2437
Rp2438
(dp2439
g13
VNP
p2440
sbag0
(g1
g2
(lp2441
g0
(g1
g2
(lp2442
Vgoes
p2443
atp2444
Rp2445
(dp2446
g13
VVBZ
p2447
sbag0
(g1
g2
(lp2448
g0
(g1
g2
(lp2449
Vcrash
p2450
atp2451
Rp2452
(dp2453
g13
VNN
p2454
sbatp2455
Rp2456
(dp2457
g13
VNP
p2458
sbatp2459
Rp2460
(dp2461
g13
VVP
p2462
sbatp2463
Rp2464
(dp2465
g13
VS
p2466
sbatp2467
Rp2468
(dp2469
g13
VSBAR
p2470
sbatp2471
Rp2472
(dp2473
g13
VVP
p2474
sbatp2475
Rp2476
(dp2477
g13
VS
p2478
sbag0
(g1
g2
(lp2479
V.
p2480
atp2481
Rp2482
(dp2483
g13
V.
p2484
sbatp2485
Rp2486
(dp2487
g13
VS
p2488
sbatp2489
Rp2490
(dp2491
g13
S'id: 9'
p2492
sbag0
(g1
g2
(lp2493
g0
(g1
g2
(lp2494
g0
(g1
g2
(lp2495
VAnd
p2496
atp2497
Rp2498
(dp2499
g13
VCC
p2500
sbag0
(g1
g2
(lp2501
g0
(g1
g2
(lp2502
g0
(g1
g2
(lp2503
g0
(g1
g2
(lp2504
Vall
p2505
atp2506
Rp2507
(dp2508
g13
VPDT
p2509
sbag0
(g1
g2
(lp2510
Vthe
p2511
atp2512
Rp2513
(dp2514
g13
VDT
p2515
sbag0
(g1
g2
(lp2516
Vlower
p2517
atp2518
Rp2519
(dp2520
g13
VJJR
p2521
sbatp2522
Rp2523
(dp2524
g13
VNP
p2525
sbag0
(g1
g2
(lp2526
g0
(g1
g2
(lp2527
Vcabinet
p2528
atp2529
Rp2530
(dp2531
g13
VNN
p2532
sbag0
(g1
g2
(lp2533
Vdoors
p2534
atp2535
Rp2536
(dp2537
g13
VNNS
p2538
sbatp2539
Rp2540
(dp2541
g13
VNP
p2542
sbatp2543
Rp2544
(dp2545
g13
VNP
p2546
sbag0
(g1
g2
(lp2547
g0
(g1
g2
(lp2548
Vare
p2549
atp2550
Rp2551
(dp2552
g13
VVBP
p2553
sbag0
(g1
g2
(lp2554
g0
(g1
g2
(lp2555
Vclosed
p2556
atp2557
Rp2558
(dp2559
g13
VVBN
p2560
sbatp2561
Rp2562
(dp2563
g13
VVP
p2564
sbatp2565
Rp2566
(dp2567
g13
VVP
p2568
sbatp2569
Rp2570
(dp2571
g13
VS
p2572
sbag0
(g1
g2
(lp2573
V,
p2574
atp2575
Rp2576
(dp2577
g13
V,
p2578
sbag0
(g1
g2
(lp2579
Vand
p2580
atp2581
Rp2582
(dp2583
g13
VCC
p2584
sbag0
(g1
g2
(lp2585
g0
(g1
g2
(lp2586
g0
(g1
g2
(lp2587
Vapparently
p2588
atp2589
Rp2590
(dp2591
g13
VRB
p2592
sbatp2593
Rp2594
(dp2595
g13
VADVP
p2596
sbag0
(g1
g2
(lp2597
g0
(g1
g2
(lp2598
Vshe
p2599
atp2600
Rp2601
(dp2602
g13
VPRP
p2603
sbatp2604
Rp2605
(dp2606
g13
VNP
p2607
sbag0
(g1
g2
(lp2608
g0
(g1
g2
(lp2609
Vput
p2610
atp2611
Rp2612
(dp2613
g13
VVBD
p2614
sbag0
(g1
g2
(lp2615
g0
(g1
g2
(lp2616
Vthe
p2617
atp2618
Rp2619
(dp2620
g13
VDT
p2621
sbag0
(g1
g2
(lp2622
Vcookies
p2623
atp2624
Rp2625
(dp2626
g13
VNNS
p2627
sbatp2628
Rp2629
(dp2630
g13
VNP
p2631
sbag0
(g1
g2
(lp2632
g0
(g1
g2
(lp2633
Vup
p2634
atp2635
Rp2636
(dp2637
g13
VIN
p2638
sbag0
(g1
g2
(lp2639
g0
(g1
g2
(lp2640
Vtop
p2641
atp2642
Rp2643
(dp2644
g13
VJJ
p2645
sbatp2646
Rp2647
(dp2648
g13
VNP
p2649
sbatp2650
Rp2651
(dp2652
g13
VPP
p2653
sbag0
(g1
g2
(lp2654
g0
(g1
g2
(lp2655
Vso
p2656
atp2657
Rp2658
(dp2659
g13
VIN
p2660
sbag0
(g1
g2
(lp2661
g0
(g1
g2
(lp2662
g0
(g1
g2
(lp2663
Vthey
p2664
atp2665
Rp2666
(dp2667
g13
VPRP
p2668
sbatp2669
Rp2670
(dp2671
g13
VNP
p2672
sbag0
(g1
g2
(lp2673
g0
(g1
g2
(lp2674
Vwould
p2675
atp2676
Rp2677
(dp2678
g13
VMD
p2679
sbag0
(g1
g2
(lp2680
Vn't
p2681
atp2682
Rp2683
(dp2684
g13
VRB
p2685
sbag0
(g1
g2
(lp2686
g0
(g1
g2
(lp2687
Vbother
p2688
atp2689
Rp2690
(dp2691
g13
VVB
p2692
sbag0
(g1
g2
(lp2693
g0
(g1
g2
(lp2694
Vthem
p2695
atp2696
Rp2697
(dp2698
g13
VPRP
p2699
sbatp2700
Rp2701
(dp2702
g13
VNP
p2703
sbatp2704
Rp2705
(dp2706
g13
VVP
p2707
sbatp2708
Rp2709
(dp2710
g13
VVP
p2711
sbatp2712
Rp2713
(dp2714
g13
VS
p2715
sbatp2716
Rp2717
(dp2718
g13
VSBAR
p2719
sbatp2720
Rp2721
(dp2722
g13
VVP
p2723
sbatp2724
Rp2725
(dp2726
g13
VS
p2727
sbag0
(g1
g2
(lp2728
V.
p2729
atp2730
Rp2731
(dp2732
g13
V.
p2733
sbatp2734
Rp2735
(dp2736
g13
VS
p2737
sbatp2738
Rp2739
(dp2740
g13
S'id: 10'
p2741
sbag0
(g1
g2
(lp2742
g0
(g1
g2
(lp2743
g0
(g1
g2
(lp2744
VBut
p2745
atp2746
Rp2747
(dp2748
g13
VCC
p2749
sbag0
(g1
g2
(lp2750
g0
(g1
g2
(lp2751
Vthey
p2752
atp2753
Rp2754
(dp2755
g13
VPRP
p2756
sbatp2757
Rp2758
(dp2759
g13
VNP
p2760
sbag0
(g1
g2
(lp2761
g0
(g1
g2
(lp2762
Vhave
p2763
atp2764
Rp2765
(dp2766
g13
VVBP
p2767
sbag0
(g1
g2
(lp2768
g0
(g1
g2
(lp2769
Vfound
p2770
atp2771
Rp2772
(dp2773
g13
VVBN
p2774
sbag0
(g1
g2
(lp2775
g0
(g1
g2
(lp2776
Vtheir
p2777
atp2778
Rp2779
(dp2780
g13
VPRP$
p2781
sbag0
(g1
g2
(lp2782
Vway
p2783
atp2784
Rp2785
(dp2786
g13
VNN
p2787
sbatp2788
Rp2789
(dp2790
g13
VNP
p2791
sbag0
(g1
g2
(lp2792
g0
(g1
g2
(lp2793
Vto
p2794
atp2795
Rp2796
(dp2797
g13
VTO
p2798
sbag0
(g1
g2
(lp2799
g0
(g1
g2
(lp2800
Vthem
p2801
atp2802
Rp2803
(dp2804
g13
VPRP
p2805
sbatp2806
Rp2807
(dp2808
g13
VNP
p2809
sbatp2810
Rp2811
(dp2812
g13
VPP
p2813
sbatp2814
Rp2815
(dp2816
g13
VVP
p2817
sbatp2818
Rp2819
(dp2820
g13
VVP
p2821
sbag0
(g1
g2
(lp2822
V.
p2823
atp2824
Rp2825
(dp2826
g13
V.
p2827
sbatp2828
Rp2829
(dp2830
g13
VS
p2831
sbatp2832
Rp2833
(dp2834
g13
S'id: 11'
p2835
sbag0
(g1
g2
(lp2836
g0
(g1
g2
(lp2837
g0
(g1
g2
(lp2838
VAnd
p2839
atp2840
Rp2841
(dp2842
g13
VCC
p2843
sbag0
(g1
g2
(lp2844
g0
(g1
g2
(lp2845
Vthat
p2846
atp2847
Rp2848
(dp2849
g13
VDT
p2850
sbatp2851
Rp2852
(dp2853
g13
VNP
p2854
sbag0
(g1
g2
(lp2855
g0
(g1
g2
(lp2856
V's
p2857
atp2858
Rp2859
(dp2860
g13
VVBZ
p2861
sbag0
(g1
g2
(lp2862
g0
(g1
g2
(lp2863
Vabout
p2864
atp2865
Rp2866
(dp2867
g13
VIN
p2868
sbag0
(g1
g2
(lp2869
Vall
p2870
atp2871
Rp2872
(dp2873
g13
VDT
p2874
sbatp2875
Rp2876
(dp2877
g13
VADVP
p2878
sbag0
(g1
g2
(lp2879
g0
(g1
g2
(lp2880
g0
(g1
g2
(lp2881
g0
(g1
g2
(lp2882
VI
p2883
atp2884
Rp2885
(dp2886
g13
VPRP
p2887
sbatp2888
Rp2889
(dp2890
g13
VNP
p2891
sbag0
(g1
g2
(lp2892
g0
(g1
g2
(lp2893
Vcan
p2894
atp2895
Rp2896
(dp2897
g13
VMD
p2898
sbag0
(g1
g2
(lp2899
g0
(g1
g2
(lp2900
Vsee
p2901
atp2902
Rp2903
(dp2904
g13
VVB
p2905
sbatp2906
Rp2907
(dp2908
g13
VVP
p2909
sbatp2910
Rp2911
(dp2912
g13
VVP
p2913
sbatp2914
Rp2915
(dp2916
g13
VS
p2917
sbatp2918
Rp2919
(dp2920
g13
VSBAR
p2921
sbatp2922
Rp2923
(dp2924
g13
VVP
p2925
sbag0
(g1
g2
(lp2926
V.
p2927
atp2928
Rp2929
(dp2930
g13
V.
p2931
sbatp2932
Rp2933
(dp2934
g13
VS
p2935
sbatp2936
Rp2937
(dp2938
g13
S'id: 12'
p2939
sbatp2940
Rp2941
(dp2942
g13
S'sentences'
p2943
sb.