ccopy_reg
_reconstructor
p0
(cnltk.tree
Tree
p1
c__builtin__
list
p2
(lp3
g0
(g1
g2
(lp4
g0
(g1
g2
(lp5
g0
(g1
g2
(lp6
VI
p7
atp8
Rp9
(dp10
S'_label'
p11
S'start: 1'
p12
sbatp13
Rp14
(dp15
g11
S'sent: 1'
p16
sbag0
(g1
g2
(lp17
g0
(g1
g2
(lp18
VI
p19
atp20
Rp21
(dp22
g11
S'start: 2'
p23
sbatp24
Rp25
(dp26
g11
S'sent: 6'
p27
sbag0
(g1
g2
(lp28
g0
(g1
g2
(lp29
VI
p30
atp31
Rp32
(dp33
g11
S'start: 21'
p34
sbatp35
Rp36
(dp37
g11
S'sent: 9'
p38
sbag0
(g1
g2
(lp39
g0
(g1
g2
(lp40
VI
p41
atp42
Rp43
(dp44
g11
S'start: 2'
p45
sbatp46
Rp47
(dp48
g11
S'sent: 16'
p49
sbag0
(g1
g2
(lp50
g0
(g1
g2
(lp51
VI
p52
atp53
Rp54
(dp55
g11
S'start: 2'
p56
sbatp57
Rp58
(dp59
g11
S'sent: 19'
p60
sbatp61
Rp62
(dp63
g11
S'id: 1'
p64
sbag0
(g1
g2
(lp65
g0
(g1
g2
(lp66
g0
(g1
g2
(lp67
Vthey
p68
atp69
Rp70
(dp71
g11
S'start: 9'
p72
sbatp73
Rp74
(dp75
g11
S'sent: 1'
p76
sbag0
(g1
g2
(lp77
g0
(g1
g2
(lp78
Vthey
p79
atp80
Rp81
(dp82
g11
S'start: 12'
p83
sbatp84
Rp85
(dp86
g11
S'sent: 1'
p87
sbag0
(g1
g2
(lp88
g0
(g1
g2
(lp89
Vthey
p90
atp91
Rp92
(dp93
g11
S'start: 2'
p94
sbatp95
Rp96
(dp97
g11
S'sent: 4'
p98
sbag0
(g1
g2
(lp99
g0
(g1
g2
(lp100
Vtheir
p101
atp102
Rp103
(dp104
g11
S'start: 15'
p105
sbatp106
Rp107
(dp108
g11
S'sent: 6'
p109
sbag0
(g1
g2
(lp110
g0
(g1
g2
(lp111
Vthey
p112
atp113
Rp114
(dp115
g11
S'start: 16'
p116
sbatp117
Rp118
(dp119
g11
S'sent: 9'
p120
sbag0
(g1
g2
(lp121
g0
(g1
g2
(lp122
Vthey
p123
atp124
Rp125
(dp126
g11
S'start: 2'
p127
sbatp128
Rp129
(dp130
g11
S'sent: 11'
p131
sbatp132
Rp133
(dp134
g11
S'id: 2'
p135
sbag0
(g1
g2
(lp136
g0
(g1
g2
(lp137
g0
(g1
g2
(lp138
Va lake
p139
atp140
Rp141
(dp142
g11
S'start: 15'
p143
sbatp144
Rp145
(dp146
g11
S'sent: 1'
p147
sbag0
(g1
g2
(lp148
g0
(g1
g2
(lp149
Vthe lake
p150
atp151
Rp152
(dp153
g11
S'start: 41'
p154
sbatp155
Rp156
(dp157
g11
S'sent: 9'
p158
sbatp159
Rp160
(dp161
g11
S'id: 5'
p162
sbag0
(g1
g2
(lp163
g0
(g1
g2
(lp164
g0
(g1
g2
(lp165
Va good time
p166
atp167
Rp168
(dp169
g11
S'start: 5'
p170
sbatp171
Rp172
(dp173
g11
S'sent: 5'
p174
sbag0
(g1
g2
(lp175
g0
(g1
g2
(lp176
Va good time
p177
atp178
Rp179
(dp180
g11
S'start: 18'
p181
sbatp182
Rp183
(dp184
g11
S'sent: 5'
p185
sbatp186
Rp187
(dp188
g11
S'id: 15'
p189
sbag0
(g1
g2
(lp190
g0
(g1
g2
(lp191
g0
(g1
g2
(lp192
Vthe little girl
p193
atp194
Rp195
(dp196
g11
S'start: 10'
p197
sbatp198
Rp199
(dp200
g11
S'sent: 5'
p201
sbag0
(g1
g2
(lp202
g0
(g1
g2
(lp203
Vher
p204
atp205
Rp206
(dp207
g11
S'start: 23'
p208
sbatp209
Rp210
(dp211
g11
S'sent: 5'
p212
sbatp213
Rp214
(dp215
g11
S'id: 17'
p216
sbag0
(g1
g2
(lp217
g0
(g1
g2
(lp218
g0
(g1
g2
(lp219
Vthe brother
p220
atp221
Rp222
(dp223
g11
S'start: 5'
p224
sbatp225
Rp226
(dp227
g11
S'sent: 6'
p228
sbag0
(g1
g2
(lp229
g0
(g1
g2
(lp230
Vhis
p231
atp232
Rp233
(dp234
g11
S'start: 6'
p235
sbatp236
Rp237
(dp238
g11
S'sent: 7'
p239
sbag0
(g1
g2
(lp240
g0
(g1
g2
(lp241
Vhis
p242
atp243
Rp244
(dp245
g11
S'start: 7'
p246
sbatp247
Rp248
(dp249
g11
S'sent: 10'
p250
sbatp251
Rp252
(dp253
g11
S'id: 22'
p254
sbag0
(g1
g2
(lp255
g0
(g1
g2
(lp256
g0
(g1
g2
(lp257
Vthe sailboat
p258
atp259
Rp260
(dp261
g11
S'start: 10'
p262
sbatp263
Rp264
(dp265
g11
S'sent: 7'
p266
sbag0
(g1
g2
(lp267
g0
(g1
g2
(lp268
Vit
p269
atp270
Rp271
(dp272
g11
S'start: 2'
p273
sbatp274
Rp275
(dp276
g11
S'sent: 8'
p277
sbag0
(g1
g2
(lp278
g0
(g1
g2
(lp279
Va beautiful day
p280
atp281
Rp282
(dp283
g11
S'start: 4'
p284
sbatp285
Rp286
(dp287
g11
S'sent: 8'
p288
sbag0
(g1
g2
(lp289
g0
(g1
g2
(lp290
Va sailboat
p291
atp292
Rp293
(dp294
g11
S'start: 6'
p295
sbatp296
Rp297
(dp298
g11
S'sent: 17'
p299
sbatp300
Rp301
(dp302
g11
S'id: 27'
p303
sbag0
(g1
g2
(lp304
g0
(g1
g2
(lp305
g0
(g1
g2
(lp306
Vfirst
p307
atp308
Rp309
(dp310
g11
S'start: 28'
p311
sbatp312
Rp313
(dp314
g11
S'sent: 9'
p315
sbag0
(g1
g2
(lp316
g0
(g1
g2
(lp317
Vthat
p318
atp319
Rp320
(dp321
g11
S'start: 32'
p322
sbatp323
Rp324
(dp325
g11
S'sent: 9'
p326
sbatp327
Rp328
(dp329
g11
S'id: 30'
p330
sbag0
(g1
g2
(lp331
g0
(g1
g2
(lp332
g0
(g1
g2
(lp333
Vthe house , the car that 's at the house
p334
atp335
Rp336
(dp337
g11
S'start: 2'
p338
sbatp339
Rp340
(dp341
g11
S'sent: 9'
p342
sbag0
(g1
g2
(lp343
g0
(g1
g2
(lp344
Vthe house
p345
atp346
Rp347
(dp348
g11
S'start: 2'
p349
sbatp350
Rp351
(dp352
g11
S'sent: 9'
p353
sbag0
(g1
g2
(lp354
g0
(g1
g2
(lp355
Vthe car that 's at the house
p356
atp357
Rp358
(dp359
g11
S'start: 5'
p360
sbatp361
Rp362
(dp363
g11
S'sent: 9'
p364
sbag0
(g1
g2
(lp365
g0
(g1
g2
(lp366
Vthe house
p367
atp368
Rp369
(dp370
g11
S'start: 10'
p371
sbatp372
Rp373
(dp374
g11
S'sent: 9'
p375
sbag0
(g1
g2
(lp376
g0
(g1
g2
(lp377
Vthe car they drove to the
p378
atp379
Rp380
(dp381
g11
S'start: 14'
p382
sbatp383
Rp384
(dp385
g11
S'sent: 9'
p386
sbag0
(g1
g2
(lp387
g0
(g1
g2
(lp388
Vit
p389
atp390
Rp391
(dp392
g11
S'start: 35'
p393
sbatp394
Rp395
(dp396
g11
S'sent: 9'
p397
sbag0
(g1
g2
(lp398
g0
(g1
g2
(lp399
Va house on the lake
p400
atp401
Rp402
(dp403
g11
S'start: 38'
p404
sbatp405
Rp406
(dp407
g11
S'sent: 9'
p408
sbag0
(g1
g2
(lp409
g0
(g1
g2
(lp410
Vthe house
p411
atp412
Rp413
(dp414
g11
S'start: 10'
p415
sbatp416
Rp417
(dp418
g11
S'sent: 13'
p419
sbag0
(g1
g2
(lp420
g0
(g1
g2
(lp421
Vthe house
p422
atp423
Rp424
(dp425
g11
S'start: 8'
p426
sbatp427
Rp428
(dp429
g11
S'sent: 15'
p430
sbatp431
Rp432
(dp433
g11
S'id: 31'
p434
sbag0
(g1
g2
(lp435
g0
(g1
g2
(lp436
g0
(g1
g2
(lp437
Vthe resort
p438
atp439
Rp440
(dp441
g11
S'start: 23'
p442
sbatp443
Rp444
(dp445
g11
S'sent: 9'
p446
sbag0
(g1
g2
(lp447
g0
(g1
g2
(lp448
Vresort the first time
p449
atp450
Rp451
(dp452
g11
S'start: 26'
p453
sbatp454
Rp455
(dp456
g11
S'sent: 9'
p457
sbatp458
Rp459
(dp460
g11
S'id: 40'
p461
sbag0
(g1
g2
(lp462
g0
(g1
g2
(lp463
g0
(g1
g2
(lp464
Vhis tongue hangin
p465
atp466
Rp467
(dp468
g11
S'start: 7'
p469
sbatp470
Rp471
(dp472
g11
S'sent: 10'
p473
sbag0
(g1
g2
(lp474
g0
(g1
g2
(lp475
Vhis
p476
atp477
Rp478
(dp479
g11
S'start: 11'
p480
sbatp481
Rp482
(dp483
g11
S'sent: 10'
p484
sbatp485
Rp486
(dp487
g11
S'id: 48'
p488
sbag0
(g1
g2
(lp489
g0
(g1
g2
(lp490
g0
(g1
g2
(lp491
Va little music at there
p492
atp493
Rp494
(dp495
g11
S'start: 4'
p496
sbatp497
Rp498
(dp499
g11
S'sent: 11'
p500
sbag0
(g1
g2
(lp501
g0
(g1
g2
(lp502
Vit
p503
atp504
Rp505
(dp506
g11
S'start: 2'
p507
sbatp508
Rp509
(dp510
g11
S'sent: 12'
p511
sbatp512
Rp513
(dp514
g11
S'id: 53'
p515
sbag0
(g1
g2
(lp516
g0
(g1
g2
(lp517
g0
(g1
g2
(lp518
Vtwo
p519
atp520
Rp521
(dp522
g11
S'start: 14'
p523
sbatp524
Rp525
(dp526
g11
S'sent: 17'
p527
sbag0
(g1
g2
(lp528
g0
(g1
g2
(lp529
Vit sailboat
p530
atp531
Rp532
(dp533
g11
S'start: 18'
p534
sbatp535
Rp536
(dp537
g11
S'sent: 17'
p538
sbatp539
Rp540
(dp541
g11
S'id: 68'
p542
sbag0
(g1
g2
(lp543
g0
(g1
g2
(lp544
g0
(g1
g2
(lp545
Vhe
p546
atp547
Rp548
(dp549
g11
S'start: 11'
p550
sbatp551
Rp552
(dp553
g11
S'sent: 18'
p554
sbag0
(g1
g2
(lp555
g0
(g1
g2
(lp556
Vhe
p557
atp558
Rp559
(dp560
g11
S'start: 18'
p561
sbatp562
Rp563
(dp564
g11
S'sent: 18'
p565
sbatp566
Rp567
(dp568
g11
S'id: 73'
p569
sbag0
(g1
g2
(lp570
g0
(g1
g2
(lp571
g0
(g1
g2
(lp572
Va book
p573
atp574
Rp575
(dp576
g11
S'start: 14'
p577
sbatp578
Rp579
(dp580
g11
S'sent: 18'
p581
sbag0
(g1
g2
(lp582
g0
(g1
g2
(lp583
Vit , it it 's probably midday , cause the lunch
p584
atp585
Rp586
(dp587
g11
S'start: 4'
p588
sbatp589
Rp590
(dp591
g11
S'sent: 19'
p592
sbag0
(g1
g2
(lp593
g0
(g1
g2
(lp594
Vit
p595
atp596
Rp597
(dp598
g11
S'start: 4'
p599
sbatp600
Rp601
(dp602
g11
S'sent: 19'
p603
sbag0
(g1
g2
(lp604
g0
(g1
g2
(lp605
Vit it 's probably midday , cause the lunch
p606
atp607
Rp608
(dp609
g11
S'start: 6'
p610
sbatp611
Rp612
(dp613
g11
S'sent: 19'
p614
sbag0
(g1
g2
(lp615
g0
(g1
g2
(lp616
Vit
p617
atp618
Rp619
(dp620
g11
S'start: 7'
p621
sbatp622
Rp623
(dp624
g11
S'sent: 19'
p625
sbatp626
Rp627
(dp628
g11
S'id: 74'
p629
sbatp630
Rp631
(dp632
g11
S'coreferences'
p633
sb.