ccopy_reg
_reconstructor
p0
(cnltk.tree
Tree
p1
c__builtin__
list
p2
(lp3
g0
(g1
g2
(lp4
g0
(g1
g2
(lp5
g0
(g1
g2
(lp6
VClown
p7
atp8
Rp9
(dp10
S'_label'
p11
S'start: 1'
p12
sbatp13
Rp14
(dp15
g11
S'sent: 5'
p16
sbag0
(g1
g2
(lp17
g0
(g1
g2
(lp18
Vclown , and a well
p19
atp20
Rp21
(dp22
g11
S'start: 3'
p23
sbatp24
Rp25
(dp26
g11
S'sent: 5'
p27
sbatp28
Rp29
(dp30
g11
S'id: 7'
p31
sbag0
(g1
g2
(lp32
g0
(g1
g2
(lp33
g0
(g1
g2
(lp34
Vsix
p35
atp36
Rp37
(dp38
g11
S'start: 8'
p39
sbatp40
Rp41
(dp42
g11
S'sent: 9'
p43
sbag0
(g1
g2
(lp44
g0
(g1
g2
(lp45
Vsix
p46
atp47
Rp48
(dp49
g11
S'start: 11'
p50
sbatp51
Rp52
(dp53
g11
S'sent: 9'
p54
sbatp55
Rp56
(dp57
g11
S'id: 22'
p58
sbag0
(g1
g2
(lp59
g0
(g1
g2
(lp60
g0
(g1
g2
(lp61
Vsix girls
p62
atp63
Rp64
(dp65
g11
S'start: 8'
p66
sbatp67
Rp68
(dp69
g11
S'sent: 9'
p70
sbag0
(g1
g2
(lp71
g0
(g1
g2
(lp72
Vsix girls
p73
atp74
Rp75
(dp76
g11
S'start: 11'
p77
sbatp78
Rp79
(dp80
g11
S'sent: 9'
p81
sbag0
(g1
g2
(lp82
g0
(g1
g2
(lp83
Vgirls no girls
p84
atp85
Rp86
(dp87
g11
S'start: 14'
p88
sbatp89
Rp90
(dp91
g11
S'sent: 9'
p92
sbag0
(g1
g2
(lp93
g0
(g1
g2
(lp94
Vno girls
p95
atp96
Rp97
(dp98
g11
S'start: 15'
p99
sbatp100
Rp101
(dp102
g11
S'sent: 9'
p103
sbatp104
Rp105
(dp106
g11
S'id: 26'
p107
sbatp108
Rp109
(dp110
g11
S'coreferences'
p111
sb.