ccopy_reg
_reconstructor
p0
(cnltk.tree
Tree
p1
c__builtin__
list
p2
(lp3
g0
(g1
g2
(lp4
tp5
Rp6
(dp7
S'_label'
p8
S'id: 0'
p9
sbag0
(g1
g2
(lp10
g0
(g1
g2
(lp11
g0
(g1
g2
(lp12
(lp13
S'word: a, index: 3'
p14
aatp15
Rp16
(dp17
g8
Vdet
p18
sbag0
(g1
g2
(lp19
(lp20
S'word: This, index: 1'
p21
aatp22
Rp23
(dp24
g8
Vnsubj
p25
sbag0
(g1
g2
(lp26
(lp27
S'word: is, index: 2'
p28
aatp29
Rp30
(dp31
g8
Vcop
p32
sbatp33
Rp34
(dp35
g8
S'word: circus, index: 4'
p36
sbatp37
Rp38
(dp39
g8
S'id: 1'
p40
sbag0
(g1
g2
(lp41
g0
(g1
g2
(lp42
g0
(g1
g2
(lp43
g0
(g1
g2
(lp44
g0
(g1
g2
(lp45
g0
(g1
g2
(lp46
g0
(g1
g2
(lp47
(lp48
S'word: the, index: 5'
p49
aatp50
Rp51
(dp52
g8
Vdet
p53
sbatp54
Rp55
(dp56
g8
S'word: top, index: 6'
p57
sbatp58
Rp59
(dp60
g8
Vprep
p61
sbag0
(g1
g2
(lp62
(lp63
S"word: 's, index: 2"
p64
aatp65
Rp66
(dp67
g8
Vnsubj
p68
sbatp69
Rp70
(dp71
g8
S'word: start, index: 3'
p72
sbatp73
Rp74
(dp75
g8
Vccomp
p76
sbatp77
Rp78
(dp79
g8
S'word: Let, index: 1'
p80
sbatp81
Rp82
(dp83
g8
S'id: 2'
p84
sbag0
(g1
g2
(lp85
g0
(g1
g2
(lp86
g0
(g1
g2
(lp87
g0
(g1
g2
(lp88
g0
(g1
g2
(lp89
(lp90
S'word: control, index: 27'
p91
aatp92
Rp93
(dp94
g8
Vprep
p95
sbag0
(g1
g2
(lp96
(lp97
S'word: like, index: 23'
p98
aatp99
Rp100
(dp101
g8
Vmark
p102
sbag0
(g1
g2
(lp103
(lp104
S'word: he, index: 24'
p105
aatp106
Rp107
(dp108
g8
Vnsubj
p109
sbatp110
Rp111
(dp112
g8
S"word: 's, index: 25"
p113
sbatp114
Rp115
(dp116
g8
Vadvcl
p117
sbag0
(g1
g2
(lp118
g0
(g1
g2
(lp119
g0
(g1
g2
(lp120
(lp121
S'word: We, index: 1'
p122
aatp123
Rp124
(dp125
g8
Vnsubj
p126
sbag0
(g1
g2
(lp127
(lp128
S"word: 've, index: 2"
p129
aatp130
Rp131
(dp132
g8
Vaux
p133
sbag0
(g1
g2
(lp134
g0
(g1
g2
(lp135
g0
(g1
g2
(lp136
(lp137
S'word: a, index: 4'
p138
aatp139
Rp140
(dp141
g8
Vdet
p142
sbag0
(g1
g2
(lp143
(lp144
S'word: tight, index: 5'
p145
aatp146
Rp147
(dp148
g8
Vamod
p149
sbatp150
Rp151
(dp152
g8
S'word: ropewalker, index: 6'
p153
sbatp154
Rp155
(dp156
g8
Vdobj
p157
sbag0
(g1
g2
(lp158
g0
(g1
g2
(lp159
g0
(g1
g2
(lp160
g0
(g1
g2
(lp161
g0
(g1
g2
(lp162
(lp163
S'word: his, index: 10'
p164
aatp165
Rp166
(dp167
g8
Vposs
p168
sbatp169
Rp170
(dp171
g8
S'word: beam, index: 11'
p172
sbatp173
Rp174
(dp175
g8
Vprep
p176
sbag0
(g1
g2
(lp177
g0
(g1
g2
(lp178
g0
(g1
g2
(lp179
g0
(g1
g2
(lp180
g0
(g1
g2
(lp181
(lp182
S'word: to, index: 14'
p183
aatp184
Rp185
(dp186
g8
Vaux
p187
sbag0
(g1
g2
(lp188
g0
(g1
g2
(lp189
g0
(g1
g2
(lp190
(lp191
S'word: his, index: 16'
p192
aatp193
Rp194
(dp195
g8
Vposs
p196
sbag0
(g1
g2
(lp197
(lp198
S'word: left, index: 17'
p199
aatp200
Rp201
(dp202
g8
Vamod
p203
sbatp204
Rp205
(dp206
g8
S'word: foot, index: 18'
p207
sbatp208
Rp209
(dp210
g8
Vdobj
p211
sbag0
(g1
g2
(lp212
(lp213
S'word: down, index: 19'
p214
aatp215
Rp216
(dp217
g8
Vadvmod
p218
sbatp219
Rp220
(dp221
g8
S'word: put, index: 15'
p222
sbatp223
Rp224
(dp225
g8
Vxcomp
p226
sbatp227
Rp228
(dp229
g8
S'word: starting, index: 13'
p230
sbatp231
Rp232
(dp233
g8
Vdep
p234
sbatp235
Rp236
(dp237
g8
S'word: balancing, index: 8'
p238
sbatp239
Rp240
(dp241
g8
Vdep
p242
sbatp243
Rp244
(dp245
g8
S'word: got, index: 3'
p246
sbatp247
Rp248
(dp249
g8
Vccomp
p250
sbag0
(g1
g2
(lp251
(lp252
S'word: he, index: 21'
p253
aatp254
Rp255
(dp256
g8
Vnsubj
p257
sbatp258
Rp259
(dp260
g8
S'word: looks, index: 22'
p261
sbatp262
Rp263
(dp264
g8
S'id: 3'
p265
sbag0
(g1
g2
(lp266
g0
(g1
g2
(lp267
g0
(g1
g2
(lp268
(lp269
S'word: it, index: 15'
p270
aatp271
Rp272
(dp273
g8
Vnsubj
p274
sbag0
(g1
g2
(lp275
(lp276
S"word: 's, index: 16"
p277
aatp278
Rp279
(dp280
g8
Vcop
p281
sbag0
(g1
g2
(lp282
(lp283
S'word: a, index: 17'
p284
aatp285
Rp286
(dp287
g8
Vdet
p288
sbag0
(g1
g2
(lp289
(lp290
S'word: round, index: 18'
p291
aatp292
Rp293
(dp294
g8
Vamod
p295
sbag0
(g1
g2
(lp296
g0
(g1
g2
(lp297
g0
(g1
g2
(lp298
(lp299
S'word: a, index: 22'
p300
aatp301
Rp302
(dp303
g8
Vdet
p304
sbag0
(g1
g2
(lp305
(lp306
S"word: 's, index: 24"
p307
aatp308
Rp309
(dp310
g8
Vpossessive
p311
sbag0
(g1
g2
(lp312
g0
(g1
g2
(lp313
g0
(g1
g2
(lp314
g0
(g1
g2
(lp315
g0
(g1
g2
(lp316
(lp317
S'word: his, index: 28'
p318
aatp319
Rp320
(dp321
g8
Vposs
p322
sbag0
(g1
g2
(lp323
(lp324
S'word: hind, index: 29'
p325
aatp326
Rp327
(dp328
g8
Vamod
p329
sbatp330
Rp331
(dp332
g8
S'word: quarters, index: 30'
p333
sbatp334
Rp335
(dp336
g8
Vprep
p337
sbag0
(g1
g2
(lp338
g0
(g1
g2
(lp339
g0
(g1
g2
(lp340
g0
(g1
g2
(lp341
g0
(g1
g2
(lp342
(lp343
S'word: his, index: 33'
p344
aatp345
Rp346
(dp347
g8
Vposs
p348
sbag0
(g1
g2
(lp349
(lp350
S'word: left, index: 34'
p351
aatp352
Rp353
(dp354
g8
Vamod
p355
sbatp356
Rp357
(dp358
g8
S'word: paw, index: 35'
p359
sbatp360
Rp361
(dp362
g8
Vdobj
p363
sbatp364
Rp365
(dp366
g8
S'word: raising, index: 32'
p367
sbatp368
Rp369
(dp370
g8
Vvmod
p371
sbag0
(g1
g2
(lp372
(lp373
S'word: up, index: 26'
p374
aatp375
Rp376
(dp377
g8
Vprt
p378
sbatp379
Rp380
(dp381
g8
S'word: sitting, index: 25'
p382
sbatp383
Rp384
(dp385
g8
Vvmod
p386
sbatp387
Rp388
(dp389
g8
S'word: lion, index: 23'
p390
sbatp391
Rp392
(dp393
g8
Vprep
p394
sbag0
(g1
g2
(lp395
g0
(g1
g2
(lp396
g0
(g1
g2
(lp397
g0
(g1
g2
(lp398
g0
(g1
g2
(lp399
(lp400
S'word: a, index: 13'
p401
aatp402
Rp403
(dp404
g8
Vdep
p405
sbatp406
Rp407
(dp408
g8
S'word: in, index: 12'
p409
sbatp410
Rp411
(dp412
g8
Vadvmod
p413
sbag0
(g1
g2
(lp414
g0
(g1
g2
(lp415
g0
(g1
g2
(lp416
(lp417
S'word: down, index: 2'
p418
aatp419
Rp420
(dp421
g8
Vprt
p422
sbag0
(g1
g2
(lp423
g0
(g1
g2
(lp424
g0
(g1
g2
(lp425
(lp426
S'word: a, index: 3'
p427
aatp428
Rp429
(dp430
g8
Vdet
p431
sbag0
(g1
g2
(lp432
(lp433
S'word: little, index: 4'
p434
aatp435
Rp436
(dp437
g8
Vamod
p438
sbatp439
Rp440
(dp441
g8
S'word: bit, index: 5'
p442
sbatp443
Rp444
(dp445
g8
Vdobj
p446
sbatp447
Rp448
(dp449
g8
S'word: Moving, index: 1'
p450
sbatp451
Rp452
(dp453
g8
Vvmod
p454
sbag0
(g1
g2
(lp455
(lp456
S'word: we, index: 7'
p457
aatp458
Rp459
(dp460
g8
Vnsubj
p461
sbag0
(g1
g2
(lp462
(lp463
S"word: 've, index: 8"
p464
aatp465
Rp466
(dp467
g8
Vaux
p468
sbag0
(g1
g2
(lp469
g0
(g1
g2
(lp470
g0
(g1
g2
(lp471
(lp472
S'word: the, index: 10'
p473
aatp474
Rp475
(dp476
g8
Vdet
p477
sbatp478
Rp479
(dp480
g8
S'word: lion, index: 11'
p481
sbatp482
Rp483
(dp484
g8
Vdobj
p485
sbatp486
Rp487
(dp488
g8
S'word: got, index: 9'
p489
sbatp490
Rp491
(dp492
g8
Vccomp
p493
sbatp494
Rp495
(dp496
g8
S'word: cage, index: 19'
p497
sbatp498
Rp499
(dp500
g8
S'id: 4'
p501
sbag0
(g1
g2
(lp502
g0
(g1
g2
(lp503
g0
(g1
g2
(lp504
g0
(g1
g2
(lp505
g0
(g1
g2
(lp506
g0
(g1
g2
(lp507
g0
(g1
g2
(lp508
(lp509
S'word: his, index: 4'
p510
aatp511
Rp512
(dp513
g8
Vposs
p514
sbag0
(g1
g2
(lp515
(lp516
S'word: lion, index: 5'
p517
aatp518
Rp519
(dp520
g8
Vnn
p521
sbatp522
Rp523
(dp524
g8
S'word: trainer, index: 6'
p525
sbatp526
Rp527
(dp528
g8
Vprep
p529
sbag0
(g1
g2
(lp530
g0
(g1
g2
(lp531
g0
(g1
g2
(lp532
g0
(g1
g2
(lp533
g0
(g1
g2
(lp534
(lp535
S'word: to, index: 21'
p536
aatp537
Rp538
(dp539
g8
Vaux
p540
sbag0
(g1
g2
(lp541
g0
(g1
g2
(lp542
g0
(g1
g2
(lp543
(lp544
S'word: his, index: 23'
p545
aatp546
Rp547
(dp548
g8
Vposs
p549
sbag0
(g1
g2
(lp550
(lp551
S'word: left, index: 24'
p552
aatp553
Rp554
(dp555
g8
Vamod
p556
sbatp557
Rp558
(dp559
g8
S'word: paw, index: 25'
p560
sbatp561
Rp562
(dp563
g8
Vdobj
p564
sbatp565
Rp566
(dp567
g8
S'word: raise, index: 22'
p568
sbatp569
Rp570
(dp571
g8
Vvmod
p572
sbag0
(g1
g2
(lp573
(lp574
S'word: who, index: 8'
p575
aatp576
Rp577
(dp578
g8
Vnsubj
p579
sbag0
(g1
g2
(lp580
(lp581
S"word: 's, index: 9"
p582
aatp583
Rp584
(dp585
g8
Vaux
p586
sbag0
(g1
g2
(lp587
g0
(g1
g2
(lp588
g0
(g1
g2
(lp589
g0
(g1
g2
(lp590
g0
(g1
g2
(lp591
(lp592
S'word: right, index: 15'
p593
aatp594
Rp595
(dp596
g8
Vamod
p597
sbag0
(g1
g2
(lp598
(lp599
S'word: his, index: 14'
p600
aatp601
Rp602
(dp603
g8
Vposs
p604
sbatp605
Rp606
(dp607
g8
S'word: hand, index: 16'
p608
sbatp609
Rp610
(dp611
g8
Vappos
p612
sbag0
(g1
g2
(lp613
g0
(g1
g2
(lp614
g0
(g1
g2
(lp615
(lp616
S'word: the, index: 19'
p617
aatp618
Rp619
(dp620
g8
Vdet
p621
sbatp622
Rp623
(dp624
g8
S'word: lion, index: 20'
p625
sbatp626
Rp627
(dp628
g8
Vprep
p629
sbag0
(g1
g2
(lp630
(lp631
S'word: his, index: 11'
p632
aatp633
Rp634
(dp635
g8
Vposs
p636
sbatp637
Rp638
(dp639
g8
S'word: hand, index: 12'
p640
sbatp641
Rp642
(dp643
g8
Vdobj
p644
sbatp645
Rp646
(dp647
g8
S'word: raising, index: 10'
p648
sbatp649
Rp650
(dp651
g8
Vrcmod
p652
sbatp653
Rp654
(dp655
g8
S'word: response, index: 2'
p656
sbatp657
Rp658
(dp659
g8
Vpobj
p660
sbatp661
Rp662
(dp663
g8
S'word: In, index: 1'
p664
sbatp665
Rp666
(dp667
g8
S'id: 5'
p668
sbag0
(g1
g2
(lp669
g0
(g1
g2
(lp670
g0
(g1
g2
(lp671
g0
(g1
g2
(lp672
g0
(g1
g2
(lp673
(lp674
S'word: the, index: 2'
p675
aatp676
Rp677
(dp678
g8
Vdet
p679
sbag0
(g1
g2
(lp680
(lp681
S'word: lion, index: 3'
p682
aatp683
Rp684
(dp685
g8
Vnn
p686
sbatp687
Rp688
(dp689
g8
S'word: trainer, index: 4'
p690
sbatp691
Rp692
(dp693
g8
Vnsubj
p694
sbag0
(g1
g2
(lp695
g0
(g1
g2
(lp696
g0
(g1
g2
(lp697
(lp698
S'word: a, index: 6'
p699
aatp700
Rp701
(dp702
g8
Vdet
p703
sbag0
(g1
g2
(lp704
(lp705
S'word: nice, index: 7'
p706
aatp707
Rp708
(dp709
g8
Vamod
p710
sbag0
(g1
g2
(lp711
g0
(g1
g2
(lp712
g0
(g1
g2
(lp713
g0
(g1
g2
(lp714
g0
(g1
g2
(lp715
(lp716
S'word: weird, index: 25'
p717
aatp718
Rp719
(dp720
g8
Vamod
p721
sbag0
(g1
g2
(lp722
(lp723
S'word: com, index: 27'
p724
aatp725
Rp726
(dp727
g8
Vdep
p728
sbag0
(g1
g2
(lp729
(lp730
S'word: comber, index: 28'
p731
aatp732
Rp733
(dp734
g8
Vnn
p735
sbag0
(g1
g2
(lp736
(lp737
S'word: bun, index: 29'
p738
aatp739
Rp740
(dp741
g8
Vnn
p742
sbag0
(g1
g2
(lp743
(lp744
S'word: dark, index: 31'
p745
aatp746
Rp747
(dp748
g8
Vamod
p749
sbatp750
Rp751
(dp752
g8
S'word: pants, index: 32'
p753
sbatp754
Rp755
(dp756
g8
Vprep
p757
sbatp758
Rp759
(dp760
g8
S'word: kind, index: 23'
p761
sbatp762
Rp763
(dp764
g8
Vprep
p765
sbag0
(g1
g2
(lp766
(lp767
S'word: little, index: 8'
p768
aatp769
Rp770
(dp771
g8
Vamod
p772
sbag0
(g1
g2
(lp773
(lp774
S'word: top, index: 9'
p775
aatp776
Rp777
(dp778
g8
Vamod
p779
sbag0
(g1
g2
(lp780
g0
(g1
g2
(lp781
g0
(g1
g2
(lp782
(lp783
S'word: he, index: 13'
p784
aatp785
Rp786
(dp787
g8
Vnsubj
p788
sbag0
(g1
g2
(lp789
g0
(g1
g2
(lp790
g0
(g1
g2
(lp791
g0
(g1
g2
(lp792
g0
(g1
g2
(lp793
g0
(g1
g2
(lp794
g0
(g1
g2
(lp795
(lp796
S'word: a, index: 19'
p797
aatp798
Rp799
(dp800
g8
Vdet
p801
sbag0
(g1
g2
(lp802
(lp803
S'word: tweed, index: 20'
p804
aatp805
Rp806
(dp807
g8
Vnn
p808
sbatp809
Rp810
(dp811
g8
S'word: tux, index: 21'
p812
sbatp813
Rp814
(dp815
g8
Vprep
p816
sbatp817
Rp818
(dp819
g8
S'word: looks, index: 17'
p820
sbatp821
Rp822
(dp823
g8
Vrcmod
p824
sbatp825
Rp826
(dp827
g8
S'word: a, index: 15'
p828
sbatp829
Rp830
(dp831
g8
Vdobj
p832
sbatp833
Rp834
(dp835
g8
S'word: has, index: 14'
p836
sbatp837
Rp838
(dp839
g8
Vdep
p840
sbatp841
Rp842
(dp843
g8
S'word: hat, index: 10'
p844
sbatp845
Rp846
(dp847
g8
Vdobj
p848
sbag0
(g1
g2
(lp849
(lp850
S'word: And, index: 1'
p851
aatp852
Rp853
(dp854
g8
Vcc
p855
sbatp856
Rp857
(dp858
g8
S'word: has, index: 5'
p859
sbatp860
Rp861
(dp862
g8
S'id: 6'
p863
sbag0
(g1
g2
(lp864
g0
(g1
g2
(lp865
g0
(g1
g2
(lp866
g0
(g1
g2
(lp867
g0
(g1
g2
(lp868
(lp869
S'word: a, index: 6'
p870
aatp871
Rp872
(dp873
g8
Vdet
p874
sbag0
(g1
g2
(lp875
g0
(g1
g2
(lp876
g0
(g1
g2
(lp877
(lp878
S'word: upside, index: 8'
p879
aatp880
Rp881
(dp882
g8
Vadvmod
p883
sbatp884
Rp885
(dp886
g8
S'word: down, index: 9'
p887
sbatp888
Rp889
(dp890
g8
Vdep
p891
sbag0
(g1
g2
(lp892
(lp893
S'word: tub, index: 12'
p894
aatp895
Rp896
(dp897
g8
Vappos
p898
sbatp899
Rp900
(dp901
g8
S'word: table, index: 10'
p902
sbatp903
Rp904
(dp905
g8
Vprep
p906
sbag0
(g1
g2
(lp907
(lp908
S'word: And, index: 1'
p909
aatp910
Rp911
(dp912
g8
Vcc
p913
sbag0
(g1
g2
(lp914
(lp915
S'word: the, index: 2'
p916
aatp917
Rp918
(dp919
g8
Vdet
p920
sbag0
(g1
g2
(lp921
(lp922
S"word: 's, index: 4"
p923
aatp924
Rp925
(dp926
g8
Vpossessive
p927
sbatp928
Rp929
(dp930
g8
S'word: lion, index: 3'
p931
sbatp932
Rp933
(dp934
g8
S'id: 7'
p935
sbag0
(g1
g2
(lp936
g0
(g1
g2
(lp937
g0
(g1
g2
(lp938
g0
(g1
g2
(lp939
g0
(g1
g2
(lp940
g0
(g1
g2
(lp941
g0
(g1
g2
(lp942
g0
(g1
g2
(lp943
g0
(g1
g2
(lp944
g0
(g1
g2
(lp945
g0
(g1
g2
(lp946
(lp947
S'word: very, index: 6'
p948
aatp949
Rp950
(dp951
g8
Vadvmod
p952
sbatp953
Rp954
(dp955
g8
S'word: wide, index: 7'
p956
sbatp957
Rp958
(dp959
g8
Vamod
p960
sbatp961
Rp962
(dp963
g8
S'word: stripes, index: 8'
p964
sbatp965
Rp966
(dp967
g8
Vappos
p968
sbatp969
Rp970
(dp971
g8
S'word: stripes, index: 4'
p972
sbatp973
Rp974
(dp975
g8
Vpobj
p976
sbatp977
Rp978
(dp979
g8
S'word: with, index: 3'
p980
sbatp981
Rp982
(dp983
g8
Vconj
p984
sbatp985
Rp986
(dp987
g8
S'word: Black, index: 1'
p988
sbatp989
Rp990
(dp991
g8
S'id: 8'
p992
sbag0
(g1
g2
(lp993
g0
(g1
g2
(lp994
g0
(g1
g2
(lp995
g0
(g1
g2
(lp996
g0
(g1
g2
(lp997
g0
(g1
g2
(lp998
g0
(g1
g2
(lp999
(lp1000
S'word: unless, index: 13'
p1001
aatp1002
Rp1003
(dp1004
g8
Vmark
p1005
sbag0
(g1
g2
(lp1006
(lp1007
S'word: she, index: 14'
p1008
aatp1009
Rp1010
(dp1011
g8
Vnsubj
p1012
sbag0
(g1
g2
(lp1013
(lp1014
S"word: 's, index: 15"
p1015
aatp1016
Rp1017
(dp1018
g8
Vaux
p1019
sbag0
(g1
g2
(lp1020
g0
(g1
g2
(lp1021
g0
(g1
g2
(lp1022
(lp1023
S'word: the, index: 18'
p1024
aatp1025
Rp1026
(dp1027
g8
Vdet
p1028
sbatp1029
Rp1030
(dp1031
g8
S'word: clown, index: 19'
p1032
sbatp1033
Rp1034
(dp1035
g8
Vprep
p1036
sbatp1037
Rp1038
(dp1039
g8
S'word: looking, index: 16'
p1040
sbatp1041
Rp1042
(dp1043
g8
Vadvcl
p1044
sbag0
(g1
g2
(lp1045
(lp1046
S'word: is, index: 8'
p1047
aatp1048
Rp1049
(dp1050
g8
Vcop
p1051
sbag0
(g1
g2
(lp1052
(lp1053
S'word: a, index: 9'
p1054
aatp1055
Rp1056
(dp1057
g8
Vdet
p1058
sbag0
(g1
g2
(lp1059
(lp1060
S'word: little, index: 10'
p1061
aatp1062
Rp1063
(dp1064
g8
Vamod
p1065
sbatp1066
Rp1067
(dp1068
g8
S'word: girl, index: 11'
p1069
sbatp1070
Rp1071
(dp1072
g8
Vccomp
p1073
sbag0
(g1
g2
(lp1074
(lp1075
S'word: And, index: 1'
p1076
aatp1077
Rp1078
(dp1079
g8
Vcc
p1080
sbag0
(g1
g2
(lp1081
g0
(g1
g2
(lp1082
g0
(g1
g2
(lp1083
g0
(g1
g2
(lp1084
g0
(g1
g2
(lp1085
(lp1086
S'word: the, index: 3'
p1087
aatp1088
Rp1089
(dp1090
g8
Vdet
p1091
sbatp1092
Rp1093
(dp1094
g8
S'word: lion, index: 4'
p1095
sbatp1096
Rp1097
(dp1098
g8
Vdobj
p1099
sbatp1100
Rp1101
(dp1102
g8
S'word: watching, index: 2'
p1103
sbatp1104
Rp1105
(dp1106
g8
Vvmod
p1107
sbag0
(g1
g2
(lp1108
(lp1109
S'word: I, index: 6'
p1110
aatp1111
Rp1112
(dp1113
g8
Vnsubj
p1114
sbatp1115
Rp1116
(dp1117
g8
S'word: think, index: 7'
p1118
sbatp1119
Rp1120
(dp1121
g8
S'id: 9'
p1122
sbag0
(g1
g2
(lp1123
g0
(g1
g2
(lp1124
g0
(g1
g2
(lp1125
(lp1126
S'word: There, index: 1'
p1127
aatp1128
Rp1129
(dp1130
g8
Vexpl
p1131
sbag0
(g1
g2
(lp1132
g0
(g1
g2
(lp1133
g0
(g1
g2
(lp1134
(lp1135
S'word: a, index: 3'
p1136
aatp1137
Rp1138
(dp1139
g8
Vdet
p1140
sbag0
(g1
g2
(lp1141
g0
(g1
g2
(lp1142
g0
(g1
g2
(lp1143
g0
(g1
g2
(lp1144
g0
(g1
g2
(lp1145
(lp1146
S'word: bottom, index: 11'
p1147
aatp1148
Rp1149
(dp1150
g8
Vamod
p1151
sbag0
(g1
g2
(lp1152
(lp1153
S'word: left, index: 12'
p1154
aatp1155
Rp1156
(dp1157
g8
Vamod
p1158
sbag0
(g1
g2
(lp1159
(lp1160
S'word: hand, index: 13'
p1161
aatp1162
Rp1163
(dp1164
g8
Vnn
p1165
sbatp1166
Rp1167
(dp1168
g8
S'word: corner, index: 14'
p1169
sbatp1170
Rp1171
(dp1172
g8
Vappos
p1173
sbag0
(g1
g2
(lp1174
g0
(g1
g2
(lp1175
g0
(g1
g2
(lp1176
(lp1177
S'word: who, index: 16'
p1178
aatp1179
Rp1180
(dp1181
g8
Vnsubj
p1182
sbag0
(g1
g2
(lp1183
(lp1184
S"word: 's, index: 17"
p1185
aatp1186
Rp1187
(dp1188
g8
Vaux
p1189
sbag0
(g1
g2
(lp1190
g0
(g1
g2
(lp1191
g0
(g1
g2
(lp1192
(lp1193
S'word: the, index: 20'
p1194
aatp1195
Rp1196
(dp1197
g8
Vdet
p1198
sbag0
(g1
g2
(lp1199
g0
(g1
g2
(lp1200
g0
(g1
g2
(lp1201
(lp1202
S'word: who, index: 23'
p1203
aatp1204
Rp1205
(dp1206
g8
Vnsubj
p1207
sbag0
(g1
g2
(lp1208
g0
(g1
g2
(lp1209
g0
(g1
g2
(lp1210
g0
(g1
g2
(lp1211
g0
(g1
g2
(lp1212
(lp1213
S'word: the, index: 29'
p1214
aatp1215
Rp1216
(dp1217
g8
Vdet
p1218
sbatp1219
Rp1220
(dp1221
g8
S'word: picture, index: 30'
p1222
sbatp1223
Rp1224
(dp1225
g8
Vprep
p1226
sbag0
(g1
g2
(lp1227
(lp1228
S'word: the, index: 26'
p1229
aatp1230
Rp1231
(dp1232
g8
Vdet
p1233
sbatp1234
Rp1235
(dp1236
g8
S'word: middle, index: 27'
p1237
sbatp1238
Rp1239
(dp1240
g8
Vprep
p1241
sbatp1242
Rp1243
(dp1244
g8
S"word: 's, index: 24"
p1245
sbatp1246
Rp1247
(dp1248
g8
Vrcmod
p1249
sbatp1250
Rp1251
(dp1252
g8
S'word: clown, index: 21'
p1253
sbatp1254
Rp1255
(dp1256
g8
Vprep
p1257
sbatp1258
Rp1259
(dp1260
g8
S'word: looking, index: 18'
p1261
sbatp1262
Rp1263
(dp1264
g8
Vrcmod
p1265
sbag0
(g1
g2
(lp1266
(lp1267
S'word: the, index: 6'
p1268
aatp1269
Rp1270
(dp1271
g8
Vdet
p1272
sbag0
(g1
g2
(lp1273
(lp1274
S'word: bottom, index: 7'
p1275
aatp1276
Rp1277
(dp1278
g8
Vamod
p1279
sbag0
(g1
g2
(lp1280
(lp1281
S'word: right, index: 8'
p1282
aatp1283
Rp1284
(dp1285
g8
Vamod
p1286
sbatp1287
Rp1288
(dp1289
g8
S'word: hand, index: 9'
p1290
sbatp1291
Rp1292
(dp1293
g8
Vprep
p1294
sbatp1295
Rp1296
(dp1297
g8
S'word: man, index: 4'
p1298
sbatp1299
Rp1300
(dp1301
g8
Vnsubj
p1302
sbatp1303
Rp1304
(dp1305
g8
S"word: 's, index: 2"
p1306
sbatp1307
Rp1308
(dp1309
g8
S'id: 10'
p1310
sbag0
(g1
g2
(lp1311
g0
(g1
g2
(lp1312
g0
(g1
g2
(lp1313
(lp1314
S'word: then, index: 2'
p1315
aatp1316
Rp1317
(dp1318
g8
Vadvmod
p1319
sbag0
(g1
g2
(lp1320
g0
(g1
g2
(lp1321
g0
(g1
g2
(lp1322
(lp1323
S'word: pinafore, index: 33'
p1324
aatp1325
Rp1326
(dp1327
g8
Vnn
p1328
sbag0
(g1
g2
(lp1329
g0
(g1
g2
(lp1330
g0
(g1
g2
(lp1331
(lp1332
S'word: she, index: 35'
p1333
aatp1334
Rp1335
(dp1336
g8
Vnsubjpass
p1337
sbag0
(g1
g2
(lp1338
(lp1339
S"word: 's, index: 36"
p1340
aatp1341
Rp1342
(dp1343
g8
Vauxpass
p1344
sbag0
(g1
g2
(lp1345
g0
(g1
g2
(lp1346
g0
(g1
g2
(lp1347
(lp1348
S'word: a, index: 38'
p1349
aatp1350
Rp1351
(dp1352
g8
Vdet
p1353
sbatp1354
Rp1355
(dp1356
g8
S'word: t-shirt, index: 39'
p1357
sbatp1358
Rp1359
(dp1360
g8
Vdobj
p1361
sbag0
(g1
g2
(lp1362
g0
(g1
g2
(lp1363
g0
(g1
g2
(lp1364
g0
(g1
g2
(lp1365
g0
(g1
g2
(lp1366
g0
(g1
g2
(lp1367
g0
(g1
g2
(lp1368
(lp1369
S'word: a, index: 42'
p1370
aatp1371
Rp1372
(dp1373
g8
Vdet
p1374
sbatp1375
Rp1376
(dp1377
g8
S'word: collar, index: 43'
p1378
sbatp1379
Rp1380
(dp1381
g8
Vpobj
p1382
sbatp1383
Rp1384
(dp1385
g8
S'word: with, index: 41'
p1386
sbatp1387
Rp1388
(dp1389
g8
Vpcomp
p1390
sbatp1391
Rp1392
(dp1393
g8
S'word: on, index: 40'
p1394
sbatp1395
Rp1396
(dp1397
g8
Vprep
p1398
sbatp1399
Rp1400
(dp1401
g8
S'word: got, index: 37'
p1402
sbatp1403
Rp1404
(dp1405
g8
Vrcmod
p1406
sbag0
(g1
g2
(lp1407
(lp1408
S'word: probably, index: 30'
p1409
aatp1410
Rp1411
(dp1412
g8
Vadvmod
p1413
sbag0
(g1
g2
(lp1414
(lp1415
S'word: a, index: 31'
p1416
aatp1417
Rp1418
(dp1419
g8
Vdet
p1420
sbag0
(g1
g2
(lp1421
(lp1422
S'word: little, index: 32'
p1423
aatp1424
Rp1425
(dp1426
g8
Vamod
p1427
sbatp1428
Rp1429
(dp1430
g8
S'word: cause, index: 34'
p1431
sbatp1432
Rp1433
(dp1434
g8
Vdobj
p1435
sbag0
(g1
g2
(lp1436
g0
(g1
g2
(lp1437
g0
(g1
g2
(lp1438
(lp1439
S'word: the, index: 3'
p1440
aatp1441
Rp1442
(dp1443
g8
Vdet
p1444
sbatp1445
Rp1446
(dp1447
g8
S'word: man, index: 4'
p1448
sbatp1449
Rp1450
(dp1451
g8
Vnsubj
p1452
sbag0
(g1
g2
(lp1453
g0
(g1
g2
(lp1454
g0
(g1
g2
(lp1455
g1429
atp1456
Rp1457
(dp1458
g8
Vconj
p1459
sbag0
(g1
g2
(lp1460
(lp1461
S'word: a, index: 6'
p1462
aatp1463
Rp1464
(dp1465
g8
Vdet
p1466
sbag0
(g1
g2
(lp1467
(lp1468
S'word: little, index: 7'
p1469
aatp1470
Rp1471
(dp1472
g8
Vamod
p1473
sbag0
(g1
g2
(lp1474
g0
(g1
g2
(lp1475
g0
(g1
g2
(lp1476
g0
(g1
g2
(lp1477
g0
(g1
g2
(lp1478
(lp1479
S'word: the, index: 26'
p1480
aatp1481
Rp1482
(dp1483
g8
Vdet
p1484
sbatp1485
Rp1486
(dp1487
g8
S'word: bottom, index: 27'
p1488
sbatp1489
Rp1490
(dp1491
g8
Vprep
p1492
sbag0
(g1
g2
(lp1493
(lp1494
S'word: who, index: 12'
p1495
aatp1496
Rp1497
(dp1498
g8
Vnsubj
p1499
sbatp1500
Rp1501
(dp1502
g8
S'word: bows, index: 24'
p1503
sbatp1504
Rp1505
(dp1506
g8
Vconj
p1507
sbag0
(g1
g2
(lp1508
(lp1509
S'word: him, index: 10'
p1510
aatp1511
Rp1512
(dp1513
g8
Vprep
p1514
sbag0
(g1
g2
(lp1515
g0
(g1
g2
(lp1516
g0
(g1
g2
(lp1517
g0
(g1
g2
(lp1518
g0
(g1
g2
(lp1519
g0
(g1
g2
(lp1520
g0
(g1
g2
(lp1521
(lp1522
S'word: the, index: 20'
p1523
aatp1524
Rp1525
(dp1526
g8
Vdet
p1527
sbatp1528
Rp1529
(dp1530
g8
S'word: top, index: 21'
p1531
sbatp1532
Rp1533
(dp1534
g8
Vprep
p1535
sbatp1536
Rp1537
(dp1538
g8
S'word: bows, index: 18'
p1539
sbatp1540
Rp1541
(dp1542
g8
Vprep
p1543
sbag0
(g1
g2
(lp1544
g1501
atp1545
Rp1546
(dp1547
g8
Vconj
p1548
sbag0
(g1
g2
(lp1549
(lp1550
S'word: who, index: 12'
p1551
aatp1552
Rp1553
(dp1554
g8
Vnsubj
p1555
sbag0
(g1
g2
(lp1556
(lp1557
S'word: has, index: 13'
p1558
aatp1559
Rp1560
(dp1561
g8
Vaux
p1562
sbag0
(g1
g2
(lp1563
(lp1564
S'word: pigtails, index: 15'
p1565
aatp1566
Rp1567
(dp1568
g8
Vdobj
p1569
sbatp1570
Rp1571
(dp1572
g8
S'word: braided, index: 14'
p1573
sbatp1574
Rp1575
(dp1576
g8
Vconj
p1577
sbatp1578
Rp1579
(dp1580
g8
S'word: girl, index: 8'
p1581
sbatp1582
Rp1583
(dp1584
g8
Vdobj
p1585
sbag0
(g1
g2
(lp1586
g1571
atp1587
Rp1588
(dp1589
g8
Vdobj
p1590
sbag0
(g1
g2
(lp1591
g0
(g1
g2
(lp1592
g0
(g1
g2
(lp1593
(lp1594
S'word: stripes, index: 49'
p1595
aatp1596
Rp1597
(dp1598
g8
Vdobj
p1599
sbag0
(g1
g2
(lp1600
g0
(g1
g2
(lp1601
g0
(g1
g2
(lp1602
(lp1603
S'word: the, index: 51'
p1604
aatp1605
Rp1606
(dp1607
g8
Vdet
p1608
sbatp1609
Rp1610
(dp1611
g8
S'word: back, index: 52'
p1612
sbatp1613
Rp1614
(dp1615
g8
Vprep
p1616
sbag0
(g1
g2
(lp1617
(lp1618
S'word: she, index: 46'
p1619
aatp1620
Rp1621
(dp1622
g8
Vnsubjpass
p1623
sbag0
(g1
g2
(lp1624
(lp1625
S"word: 's, index: 47"
p1626
aatp1627
Rp1628
(dp1629
g8
Vauxpass
p1630
sbatp1631
Rp1632
(dp1633
g8
S'word: got, index: 48'
p1634
sbatp1635
Rp1636
(dp1637
g8
Vconj
p1638
sbatp1639
Rp1640
(dp1641
g8
S'word: has, index: 5'
p1642
sbatp1643
Rp1644
(dp1645
g8
S'id: 11'
p1646
sbag0
(g1
g2
(lp1647
g0
(g1
g2
(lp1648
g0
(g1
g2
(lp1649
g0
(g1
g2
(lp1650
g0
(g1
g2
(lp1651
(lp1652
S'word: either, index: 6'
p1653
aatp1654
Rp1655
(dp1656
g8
Vpreconj
p1657
sbag0
(g1
g2
(lp1658
(lp1659
S'word: the, index: 7'
p1660
aatp1661
Rp1662
(dp1663
g8
Vdet
p1664
sbag0
(g1
g2
(lp1665
g0
(g1
g2
(lp1666
g0
(g1
g2
(lp1667
(lp1668
S'word: the, index: 10'
p1669
aatp1670
Rp1671
(dp1672
g8
Vdet
p1673
sbatp1674
Rp1675
(dp1676
g8
S'word: clown, index: 11'
p1677
sbatp1678
Rp1679
(dp1680
g8
Vconj
p1681
sbatp1682
Rp1683
(dp1684
g8
S'word: lion, index: 8'
p1685
sbatp1686
Rp1687
(dp1688
g8
Vprep
p1689
sbag0
(g1
g2
(lp1690
g1675
atp1691
Rp1692
(dp1693
g8
Vprep
p1694
sbag0
(g1
g2
(lp1695
(lp1696
S'word: And, index: 1'
p1697
aatp1698
Rp1699
(dp1700
g8
Vcc
p1701
sbag0
(g1
g2
(lp1702
(lp1703
S'word: she, index: 2'
p1704
aatp1705
Rp1706
(dp1707
g8
Vnsubj
p1708
sbag0
(g1
g2
(lp1709
(lp1710
S"word: 's, index: 3"
p1711
aatp1712
Rp1713
(dp1714
g8
Vaux
p1715
sbatp1716
Rp1717
(dp1718
g8
S'word: pointing, index: 4'
p1719
sbatp1720
Rp1721
(dp1722
g8
S'id: 12'
p1723
sbag0
(g1
g2
(lp1724
g0
(g1
g2
(lp1725
g0
(g1
g2
(lp1726
(lp1727
S'word: And, index: 1'
p1728
aatp1729
Rp1730
(dp1731
g8
Vcc
p1732
sbag0
(g1
g2
(lp1733
g0
(g1
g2
(lp1734
g0
(g1
g2
(lp1735
(lp1736
S'word: her, index: 17'
p1737
aatp1738
Rp1739
(dp1740
g8
Vposs
p1741
sbag0
(g1
g2
(lp1742
g0
(g1
g2
(lp1743
g0
(g1
g2
(lp1744
(lp1745
S'word: a, index: 19'
p1746
aatp1747
Rp1748
(dp1749
g8
Vdet
p1750
sbag0
(g1
g2
(lp1751
(lp1752
S'word: little, index: 20'
p1753
aatp1754
Rp1755
(dp1756
g8
Vamod
p1757
sbatp1758
Rp1759
(dp1760
g8
S'word: bit, index: 21'
p1761
sbatp1762
Rp1763
(dp1764
g8
Vdep
p1765
sbatp1766
Rp1767
(dp1768
g8
S'word: right, index: 18'
p1769
sbatp1770
Rp1771
(dp1772
g8
Vprep
p1773
sbag0
(g1
g2
(lp1774
g0
(g1
g2
(lp1775
g0
(g1
g2
(lp1776
(lp1777
S'word: the, index: 2'
p1778
aatp1779
Rp1780
(dp1781
g8
Vdet
p1782
sbag0
(g1
g2
(lp1783
g0
(g1
g2
(lp1784
g0
(g1
g2
(lp1785
(lp1786
S"word: 's, index: 7"
p1787
aatp1788
Rp1789
(dp1790
g8
Vpossessive
p1791
sbag0
(g1
g2
(lp1792
g0
(g1
g2
(lp1793
g0
(g1
g2
(lp1794
g0
(g1
g2
(lp1795
g0
(g1
g2
(lp1796
(lp1797
S'word: the, index: 13'
p1798
aatp1799
Rp1800
(dp1801
g8
Vdet
p1802
sbatp1803
Rp1804
(dp1805
g8
S'word: clown, index: 14'
p1806
sbatp1807
Rp1808
(dp1809
g8
Vappos
p1810
sbatp1811
Rp1812
(dp1813
g8
S'word: her, index: 11'
p1814
sbatp1815
Rp1816
(dp1817
g8
Vprep
p1818
sbag0
(g1
g2
(lp1819
(lp1820
S'word: the, index: 5'
p1821
aatp1822
Rp1823
(dp1824
g8
Vdet
p1825
sbatp1826
Rp1827
(dp1828
g8
S'word: lion, index: 6'
p1829
sbatp1830
Rp1831
(dp1832
g8
Vappos
p1833
sbatp1834
Rp1835
(dp1836
g8
S'word: clown, index: 3'
p1837
sbatp1838
Rp1839
(dp1840
g8
Vnsubj
p1841
sbatp1842
Rp1843
(dp1844
g8
S'word: is, index: 15'
p1845
sbatp1846
Rp1847
(dp1848
g8
S'id: 13'
p1849
sbag0
(g1
g2
(lp1850
g0
(g1
g2
(lp1851
g0
(g1
g2
(lp1852
g0
(g1
g2
(lp1853
g0
(g1
g2
(lp1854
(lp1855
S'word: wide, index: 15'
p1856
aatp1857
Rp1858
(dp1859
g8
Vamod
p1860
sbag0
(g1
g2
(lp1861
(lp1862
S'word: white, index: 16'
p1863
aatp1864
Rp1865
(dp1866
g8
Vamod
p1867
sbag0
(g1
g2
(lp1868
g0
(g1
g2
(lp1869
g0
(g1
g2
(lp1870
(lp1871
S'word: then, index: 18'
p1872
aatp1873
Rp1874
(dp1875
g8
Vadvmod
p1876
sbatp1877
Rp1878
(dp1879
g8
S'word: black, index: 19'
p1880
sbatp1881
Rp1882
(dp1883
g8
Vamod
p1884
sbag0
(g1
g2
(lp1885
g0
(g1
g2
(lp1886
g0
(g1
g2
(lp1887
(lp1888
S'word: a, index: 22'
p1889
aatp1890
Rp1891
(dp1892
g8
Vdet
p1893
sbag0
(g1
g2
(lp1894
(lp1895
S'word: flowered, index: 23'
p1896
aatp1897
Rp1898
(dp1899
g8
Vamod
p1900
sbatp1901
Rp1902
(dp1903
g8
S'word: tie, index: 24'
p1904
sbatp1905
Rp1906
(dp1907
g8
Vconj
p1908
sbatp1909
Rp1910
(dp1911
g8
S'word: stripes, index: 17'
p1912
sbatp1913
Rp1914
(dp1915
g8
Vdobj
p1916
sbag0
(g1
g2
(lp1917
g0
(g1
g2
(lp1918
g0
(g1
g2
(lp1919
(lp1920
S'word: The, index: 1'
p1921
aatp1922
Rp1923
(dp1924
g8
Vdet
p1925
sbatp1926
Rp1927
(dp1928
g8
S'word: clown, index: 2'
p1929
sbatp1930
Rp1931
(dp1932
g8
Vnsubj
p1933
sbag0
(g1
g2
(lp1934
g0
(g1
g2
(lp1935
g0
(g1
g2
(lp1936
g0
(g1
g2
(lp1937
g0
(g1
g2
(lp1938
(lp1939
S'word: white, index: 13'
p1940
aatp1941
Rp1942
(dp1943
g8
Vconj
p1944
sbatp1945
Rp1946
(dp1947
g8
S'word: black, index: 11'
p1948
sbatp1949
Rp1950
(dp1951
g8
Vamod
p1952
sbag0
(g1
g2
(lp1953
(lp1954
S'word: white, index: 13'
p1955
aatp1956
Rp1957
(dp1958
g8
Vamod
p1959
sbag0
(g1
g2
(lp1960
(lp1961
S'word: striped, index: 5'
p1962
aatp1963
Rp1964
(dp1965
g8
Vamod
p1966
sbag0
(g1
g2
(lp1967
g0
(g1
g2
(lp1968
g0
(g1
g2
(lp1969
(lp1970
S'word: suspender, index: 8'
p1971
aatp1972
Rp1973
(dp1974
g8
Vamod
p1975
sbatp1976
Rp1977
(dp1978
g8
S'word: pants, index: 9'
p1979
sbatp1980
Rp1981
(dp1982
g8
Vappos
p1983
sbatp1984
Rp1985
(dp1986
g8
S'word: pants, index: 6'
p1987
sbatp1988
Rp1989
(dp1990
g8
Vprep
p1991
sbag0
(g1
g2
(lp1992
g1902
atp1993
Rp1994
(dp1995
g8
Vdobj
p1996
sbatp1997
Rp1998
(dp1999
g8
S'word: has, index: 3'
p2000
sbatp2001
Rp2002
(dp2003
g8
S'id: 14'
p2004
sbatp2005
Rp2006
(dp2007
g8
S'sentences'
p2008
sb.