ccopy_reg
_reconstructor
p0
(cnltk.tree
Tree
p1
c__builtin__
list
p2
(lp3
g0
(g1
g2
(lp4
g0
(g1
g2
(lp5
g0
(g1
g2
(lp6
g0
(g1
g2
(lp7
Vthis
p8
atp9
Rp10
(dp11
S'_label'
p12
VDT
p13
sbatp14
Rp15
(dp16
g12
VNP
p17
sbag0
(g1
g2
(lp18
g0
(g1
g2
(lp19
Vlooks
p20
atp21
Rp22
(dp23
g12
VVBZ
p24
sbag0
(g1
g2
(lp25
g0
(g1
g2
(lp26
Vlike
p27
atp28
Rp29
(dp30
g12
VIN
p31
sbag0
(g1
g2
(lp32
g0
(g1
g2
(lp33
Va
p34
atp35
Rp36
(dp37
g12
VDT
p38
sbag0
(g1
g2
(lp39
Vcircus
p40
atp41
Rp42
(dp43
g12
VNN
p44
sbatp45
Rp46
(dp47
g12
VNP
p48
sbatp49
Rp50
(dp51
g12
VPP
p52
sbatp53
Rp54
(dp55
g12
VVP
p56
sbag0
(g1
g2
(lp57
V.
p58
atp59
Rp60
(dp61
g12
V.
p62
sbatp63
Rp64
(dp65
g12
VS
p66
sbatp67
Rp68
(dp69
g12
S'id: 0'
p70
sbag0
(g1
g2
(lp71
g0
(g1
g2
(lp72
g0
(g1
g2
(lp73
g0
(g1
g2
(lp74
g0
(g1
g2
(lp75
VSee
p76
atp77
Rp78
(dp79
g12
VVB
p80
sbag0
(g1
g2
(lp81
g0
(g1
g2
(lp82
g0
(g1
g2
(lp83
Va
p84
atp85
Rp86
(dp87
g12
VDT
p88
sbag0
(g1
g2
(lp89
Vlion
p90
atp91
Rp92
(dp93
g12
VNN
p94
sbatp95
Rp96
(dp97
g12
VNP
p98
sbag0
(g1
g2
(lp99
V,
p100
atp101
Rp102
(dp103
g12
V,
p104
sbag0
(g1
g2
(lp105
g0
(g1
g2
(lp106
Va
p107
atp108
Rp109
(dp110
g12
VDT
p111
sbag0
(g1
g2
(lp112
Vhigh
p113
atp114
Rp115
(dp116
g12
VJJ
p117
sbag0
(g1
g2
(lp118
Vwire
p119
atp120
Rp121
(dp122
g12
VNN
p123
sbag0
(g1
g2
(lp124
Vact
p125
atp126
Rp127
(dp128
g12
VNN
p129
sbatp130
Rp131
(dp132
g12
VNP
p133
sbag0
(g1
g2
(lp134
V,
p135
atp136
Rp137
(dp138
g12
V,
p139
sbag0
(g1
g2
(lp140
g0
(g1
g2
(lp141
Va
p142
atp143
Rp144
(dp145
g12
VDT
p146
sbag0
(g1
g2
(lp147
Vclown
p148
atp149
Rp150
(dp151
g12
VNN
p152
sbatp153
Rp154
(dp155
g12
VNP
p156
sbag0
(g1
g2
(lp157
V,
p158
atp159
Rp160
(dp161
g12
V,
p162
sbag0
(g1
g2
(lp163
g0
(g1
g2
(lp164
g0
(g1
g2
(lp165
Va
p166
atp167
Rp168
(dp169
g12
VDT
p170
sbag0
(g1
g2
(lp171
Vguy
p172
atp173
Rp174
(dp175
g12
VNN
p176
sbatp177
Rp178
(dp179
g12
VNP
p180
sbag0
(g1
g2
(lp181
g0
(g1
g2
(lp182
Vin
p183
atp184
Rp185
(dp186
g12
VIN
p187
sbag0
(g1
g2
(lp188
g0
(g1
g2
(lp189
Va
p190
atp191
Rp192
(dp193
g12
VDT
p194
sbag0
(g1
g2
(lp195
Vcage
p196
atp197
Rp198
(dp199
g12
VNN
p200
sbatp201
Rp202
(dp203
g12
VNP
p204
sbatp205
Rp206
(dp207
g12
VPP
p208
sbatp209
Rp210
(dp211
g12
VNP
p212
sbag0
(g1
g2
(lp213
V,
p214
atp215
Rp216
(dp217
g12
V,
p218
sbatp219
Rp220
(dp221
g12
VNP
p222
sbag0
(g1
g2
(lp223
g0
(g1
g2
(lp224
Vin
p225
atp226
Rp227
(dp228
g12
VIN
p229
sbag0
(g1
g2
(lp230
g0
(g1
g2
(lp231
Vwith
p232
atp233
Rp234
(dp235
g12
VIN
p236
sbag0
(g1
g2
(lp237
g0
(g1
g2
(lp238
Vthe
p239
atp240
Rp241
(dp242
g12
VDT
p243
sbag0
(g1
g2
(lp244
Vlion
p245
atp246
Rp247
(dp248
g12
VNN
p249
sbatp250
Rp251
(dp252
g12
VNP
p253
sbatp254
Rp255
(dp256
g12
VPP
p257
sbatp258
Rp259
(dp260
g12
VPP
p261
sbatp262
Rp263
(dp264
g12
VVP
p265
sbag0
(g1
g2
(lp266
V,
p267
atp268
Rp269
(dp270
g12
V,
p271
sbag0
(g1
g2
(lp272
Vand
p273
atp274
Rp275
(dp276
g12
VCC
p277
sbag0
(g1
g2
(lp278
g0
(g1
g2
(lp279
Vlook
p280
atp281
Rp282
(dp283
g12
VVB
p284
sbag0
(g1
g2
(lp285
g0
(g1
g2
(lp286
Vlike
p287
atp288
Rp289
(dp290
g12
VIN
p291
sbag0
(g1
g2
(lp292
g0
(g1
g2
(lp293
g0
(g1
g2
(lp294
Vsome
p295
atp296
Rp297
(dp298
g12
VDT
p299
sbag0
(g1
g2
(lp300
Vtwo
p301
atp302
Rp303
(dp304
g12
VCD
p305
sbag0
(g1
g2
(lp306
Vgirls
p307
atp308
Rp309
(dp310
g12
VNNS
p311
sbatp312
Rp313
(dp314
g12
VNP
p315
sbag0
(g1
g2
(lp316
Vand
p317
atp318
Rp319
(dp320
g12
VCC
p321
sbag0
(g1
g2
(lp322
g0
(g1
g2
(lp323
Va
p324
atp325
Rp326
(dp327
g12
VDT
p328
sbag0
(g1
g2
(lp329
Vboy
p330
atp331
Rp332
(dp333
g12
VNN
p334
sbatp335
Rp336
(dp337
g12
VNP
p338
sbatp339
Rp340
(dp341
g12
VNP
p342
sbatp343
Rp344
(dp345
g12
VPP
p346
sbag0
(g1
g2
(lp347
g0
(g1
g2
(lp348
Vdown
p349
atp350
Rp351
(dp352
g12
VIN
p353
sbag0
(g1
g2
(lp354
g0
(g1
g2
(lp355
g0
(g1
g2
(lp356
Vthere
p357
atp358
Rp359
(dp360
g12
VEX
p361
sbatp362
Rp363
(dp364
g12
VNP
p365
sbag0
(g1
g2
(lp366
g0
(g1
g2
(lp367
Vreaching
p368
atp369
Rp370
(dp371
g12
VVBG
p372
sbag0
(g1
g2
(lp373
g0
(g1
g2
(lp374
Vfor
p375
atp376
Rp377
(dp378
g12
VIN
p379
sbag0
(g1
g2
(lp380
g0
(g1
g2
(lp381
g0
(g1
g2
(lp382
Vwhatever
p383
atp384
Rp385
(dp386
g12
VWDT
p387
sbatp388
Rp389
(dp390
g12
VWHNP
p391
sbag0
(g1
g2
(lp392
g0
(g1
g2
(lp393
g0
(g1
g2
(lp394
Vthe
p395
atp396
Rp397
(dp398
g12
VDT
p399
sbag0
(g1
g2
(lp400
Vclown
p401
atp402
Rp403
(dp404
g12
VNN
p405
sbatp406
Rp407
(dp408
g12
VNP
p409
sbag0
(g1
g2
(lp410
g0
(g1
g2
(lp411
Vhas
p412
atp413
Rp414
(dp415
g12
VVBZ
p416
sbatp417
Rp418
(dp419
g12
VVP
p420
sbatp421
Rp422
(dp423
g12
VS
p424
sbatp425
Rp426
(dp427
g12
VSBAR
p428
sbatp429
Rp430
(dp431
g12
VPP
p432
sbatp433
Rp434
(dp435
g12
VVP
p436
sbatp437
Rp438
(dp439
g12
VS
p440
sbatp441
Rp442
(dp443
g12
VPP
p444
sbatp445
Rp446
(dp447
g12
VVP
p448
sbatp449
Rp450
(dp451
g12
VVP
p452
sbag0
(g1
g2
(lp453
V.
p454
atp455
Rp456
(dp457
g12
V.
p458
sbatp459
Rp460
(dp461
g12
VS
p462
sbatp463
Rp464
(dp465
g12
S'id: 1'
p466
sbag0
(g1
g2
(lp467
g0
(g1
g2
(lp468
g0
(g1
g2
(lp469
VAnd
p470
atp471
Rp472
(dp473
g12
VCC
p474
sbag0
(g1
g2
(lp475
g0
(g1
g2
(lp476
Vthen
p477
atp478
Rp479
(dp480
g12
VRB
p481
sbatp482
Rp483
(dp484
g12
VADVP
p485
sbag0
(g1
g2
(lp486
g0
(g1
g2
(lp487
Vyou
p488
atp489
Rp490
(dp491
g12
VPRP
p492
sbatp493
Rp494
(dp495
g12
VNP
p496
sbag0
(g1
g2
(lp497
g0
(g1
g2
(lp498
Vhave
p499
atp500
Rp501
(dp502
g12
VVBP
p503
sbag0
(g1
g2
(lp504
g0
(g1
g2
(lp505
g0
(g1
g2
(lp506
Vsomeone
p507
atp508
Rp509
(dp510
g12
VNN
p511
sbatp512
Rp513
(dp514
g12
VNP
p515
sbag0
(g1
g2
(lp516
g0
(g1
g2
(lp517
Vriding
p518
atp519
Rp520
(dp521
g12
VVBG
p522
sbag0
(g1
g2
(lp523
g0
(g1
g2
(lp524
Va
p525
atp526
Rp527
(dp528
g12
VDT
p529
sbag0
(g1
g2
(lp530
Vhorse
p531
atp532
Rp533
(dp534
g12
VNN
p535
sbatp536
Rp537
(dp538
g12
VNP
p539
sbag0
(g1
g2
(lp540
g0
(g1
g2
(lp541
Vover
p542
atp543
Rp544
(dp545
g12
VIN
p546
sbag0
(g1
g2
(lp547
g0
(g1
g2
(lp548
Vhere
p549
atp550
Rp551
(dp552
g12
VRB
p553
sbatp554
Rp555
(dp556
g12
VNP
p557
sbatp558
Rp559
(dp560
g12
VPP
p561
sbag0
(g1
g2
(lp562
V,
p563
atp564
Rp565
(dp566
g12
V,
p567
sbag0
(g1
g2
(lp568
g0
(g1
g2
(lp569
g0
(g1
g2
(lp570
Vdoing
p571
atp572
Rp573
(dp574
g12
VVBG
p575
sbag0
(g1
g2
(lp576
g0
(g1
g2
(lp577
g0
(g1
g2
(lp578
Vsome
p579
atp580
Rp581
(dp582
g12
VDT
p583
sbag0
(g1
g2
(lp584
Vkind
p585
atp586
Rp587
(dp588
g12
VNN
p589
sbatp590
Rp591
(dp592
g12
VNP
p593
sbag0
(g1
g2
(lp594
g0
(g1
g2
(lp595
Vof
p596
atp597
Rp598
(dp599
g12
VIN
p600
sbag0
(g1
g2
(lp601
g0
(g1
g2
(lp602
Va
p603
atp604
Rp605
(dp606
g12
VDT
p607
sbag0
(g1
g2
(lp608
Vtrick
p609
atp610
Rp611
(dp612
g12
VNN
p613
sbatp614
Rp615
(dp616
g12
VNP
p617
sbatp618
Rp619
(dp620
g12
VPP
p621
sbatp622
Rp623
(dp624
g12
VNP
p625
sbatp626
Rp627
(dp628
g12
VVP
p629
sbatp630
Rp631
(dp632
g12
VS
p633
sbatp634
Rp635
(dp636
g12
VVP
p637
sbatp638
Rp639
(dp640
g12
VNP
p641
sbatp642
Rp643
(dp644
g12
VVP
p645
sbag0
(g1
g2
(lp646
V.
p647
atp648
Rp649
(dp650
g12
V.
p651
sbatp652
Rp653
(dp654
g12
VS
p655
sbatp656
Rp657
(dp658
g12
S'id: 2'
p659
sbag0
(g1
g2
(lp660
g0
(g1
g2
(lp661
g0
(g1
g2
(lp662
VAnd
p663
atp664
Rp665
(dp666
g12
VCC
p667
sbag0
(g1
g2
(lp668
g0
(g1
g2
(lp669
Vthan
p670
atp671
Rp672
(dp673
g12
VIN
p674
sbag0
(g1
g2
(lp675
g0
(g1
g2
(lp676
g0
(g1
g2
(lp677
VI
p678
atp679
Rp680
(dp681
g12
VPRP
p682
sbatp683
Rp684
(dp685
g12
VNP
p686
sbag0
(g1
g2
(lp687
g0
(g1
g2
(lp688
Vsee
p689
atp690
Rp691
(dp692
g12
VVBP
p693
sbag0
(g1
g2
(lp694
g0
(g1
g2
(lp695
g0
(g1
g2
(lp696
Vother
p697
atp698
Rp699
(dp700
g12
VJJ
p701
sbag0
(g1
g2
(lp702
Vpeople
p703
atp704
Rp705
(dp706
g12
VNNS
p707
sbatp708
Rp709
(dp710
g12
VNP
p711
sbag0
(g1
g2
(lp712
g0
(g1
g2
(lp713
Vin
p714
atp715
Rp716
(dp717
g12
VIN
p718
sbag0
(g1
g2
(lp719
g0
(g1
g2
(lp720
Vsilhouette
p721
atp722
Rp723
(dp724
g12
VNN
p725
sbatp726
Rp727
(dp728
g12
VNP
p729
sbatp730
Rp731
(dp732
g12
VPP
p733
sbatp734
Rp735
(dp736
g12
VNP
p737
sbatp738
Rp739
(dp740
g12
VVP
p741
sbatp742
Rp743
(dp744
g12
VS
p745
sbatp746
Rp747
(dp748
g12
VSBAR
p749
sbag0
(g1
g2
(lp750
V,
p751
atp752
Rp753
(dp754
g12
V,
p755
sbag0
(g1
g2
(lp756
g0
(g1
g2
(lp757
Vcant
p758
atp759
Rp760
(dp761
g12
VJJ
p762
sbatp763
Rp764
(dp765
g12
VNP
p766
sbag0
(g1
g2
(lp767
g0
(g1
g2
(lp768
Vreally
p769
atp770
Rp771
(dp772
g12
VRB
p773
sbatp774
Rp775
(dp776
g12
VADVP
p777
sbag0
(g1
g2
(lp778
g0
(g1
g2
(lp779
Vsee
p780
atp781
Rp782
(dp783
g12
VVB
p784
sbag0
(g1
g2
(lp785
g0
(g1
g2
(lp786
Vthem
p787
atp788
Rp789
(dp790
g12
VPRP
p791
sbatp792
Rp793
(dp794
g12
VNP
p795
sbatp796
Rp797
(dp798
g12
VVP
p799
sbag0
(g1
g2
(lp800
V.
p801
atp802
Rp803
(dp804
g12
V.
p805
sbatp806
Rp807
(dp808
g12
VS
p809
sbatp810
Rp811
(dp812
g12
S'id: 3'
p813
sbag0
(g1
g2
(lp814
g0
(g1
g2
(lp815
g0
(g1
g2
(lp816
VAnd
p817
atp818
Rp819
(dp820
g12
VCC
p821
sbag0
(g1
g2
(lp822
g0
(g1
g2
(lp823
Vthat
p824
atp825
Rp826
(dp827
g12
VDT
p828
sbatp829
Rp830
(dp831
g12
VNP
p832
sbag0
(g1
g2
(lp833
g0
(g1
g2
(lp834
Vlooks
p835
atp836
Rp837
(dp838
g12
VVBZ
p839
sbag0
(g1
g2
(lp840
g0
(g1
g2
(lp841
Vlike
p842
atp843
Rp844
(dp845
g12
VIN
p846
sbag0
(g1
g2
(lp847
g0
(g1
g2
(lp848
g0
(g1
g2
(lp849
VI
p850
atp851
Rp852
(dp853
g12
VPRP
p854
sbatp855
Rp856
(dp857
g12
VNP
p858
sbag0
(g1
g2
(lp859
g0
(g1
g2
(lp860
Vguess
p861
atp862
Rp863
(dp864
g12
VVBP
p865
sbag0
(g1
g2
(lp866
g0
(g1
g2
(lp867
Va
p868
atp869
Rp870
(dp871
g12
VDT
p872
sbag0
(g1
g2
(lp873
Vpool
p874
atp875
Rp876
(dp877
g12
VNN
p878
sbatp879
Rp880
(dp881
g12
VNP
p882
sbag0
(g1
g2
(lp883
V,
p884
atp885
Rp886
(dp887
g12
V,
p888
sbag0
(g1
g2
(lp889
g0
(g1
g2
(lp890
Vwith
p891
atp892
Rp893
(dp894
g12
VIN
p895
sbag0
(g1
g2
(lp896
g0
(g1
g2
(lp897
g0
(g1
g2
(lp898
Vstars
p899
atp900
Rp901
(dp902
g12
VNNS
p903
sbatp904
Rp905
(dp906
g12
VNP
p907
sbag0
(g1
g2
(lp908
g0
(g1
g2
(lp909
Von
p910
atp911
Rp912
(dp913
g12
VIN
p914
sbag0
(g1
g2
(lp915
g0
(g1
g2
(lp916
g0
(g1
g2
(lp917
Vthe
p918
atp919
Rp920
(dp921
g12
VDT
p922
sbag0
(g1
g2
(lp923
Vside
p924
atp925
Rp926
(dp927
g12
VNN
p928
sbatp929
Rp930
(dp931
g12
VNP
p932
sbag0
(g1
g2
(lp933
g0
(g1
g2
(lp934
Vof
p935
atp936
Rp937
(dp938
g12
VIN
p939
sbag0
(g1
g2
(lp940
g0
(g1
g2
(lp941
Vthe
p942
atp943
Rp944
(dp945
g12
VDT
p946
sbag0
(g1
g2
(lp947
Vpool
p948
atp949
Rp950
(dp951
g12
VNN
p952
sbatp953
Rp954
(dp955
g12
VNP
p956
sbatp957
Rp958
(dp959
g12
VPP
p960
sbatp961
Rp962
(dp963
g12
VNP
p964
sbatp965
Rp966
(dp967
g12
VPP
p968
sbatp969
Rp970
(dp971
g12
VNP
p972
sbatp973
Rp974
(dp975
g12
VPP
p976
sbatp977
Rp978
(dp979
g12
VVP
p980
sbatp981
Rp982
(dp983
g12
VS
p984
sbatp985
Rp986
(dp987
g12
VSBAR
p988
sbatp989
Rp990
(dp991
g12
VVP
p992
sbag0
(g1
g2
(lp993
V.
p994
atp995
Rp996
(dp997
g12
V.
p998
sbatp999
Rp1000
(dp1001
g12
VS
p1002
sbatp1003
Rp1004
(dp1005
g12
S'id: 4'
p1006
sbag0
(g1
g2
(lp1007
g0
(g1
g2
(lp1008
g0
(g1
g2
(lp1009
g0
(g1
g2
(lp1010
VI
p1011
atp1012
Rp1013
(dp1014
g12
VPRP
p1015
sbatp1016
Rp1017
(dp1018
g12
VNP
p1019
sbag0
(g1
g2
(lp1020
g0
(g1
g2
(lp1021
Vsaid
p1022
atp1023
Rp1024
(dp1025
g12
VVBD
p1026
sbag0
(g1
g2
(lp1027
g0
(g1
g2
(lp1028
g0
(g1
g2
(lp1029
Vthe
p1030
atp1031
Rp1032
(dp1033
g12
VDT
p1034
sbag0
(g1
g2
(lp1035
Vhigh
p1036
atp1037
Rp1038
(dp1039
g12
VJJ
p1040
sbag0
(g1
g2
(lp1041
Vwire
p1042
atp1043
Rp1044
(dp1045
g12
VNN
p1046
sbag0
(g1
g2
(lp1047
Vact
p1048
atp1049
Rp1050
(dp1051
g12
VNN
p1052
sbatp1053
Rp1054
(dp1055
g12
VNP
p1056
sbag0
(g1
g2
(lp1057
V,
p1058
atp1059
Rp1060
(dp1061
g12
V,
p1062
sbag0
(g1
g2
(lp1063
g0
(g1
g2
(lp1064
Vright
p1065
atp1066
Rp1067
(dp1068
g12
VNN
p1069
sbatp1070
Rp1071
(dp1072
g12
VNP
p1073
sbatp1074
Rp1075
(dp1076
g12
VNP
p1077
sbatp1078
Rp1079
(dp1080
g12
VVP
p1081
sbatp1082
Rp1083
(dp1084
g12
VS
p1085
sbatp1086
Rp1087
(dp1088
g12
S'id: 5'
p1089
sbatp1090
Rp1091
(dp1092
g12
S'sentences'
p1093
sb.