ccopy_reg
_reconstructor
p0
(cnltk.tree
Tree
p1
c__builtin__
list
p2
(lp3
g0
(g1
g2
(lp4
g0
(g1
g2
(lp5
g0
(g1
g2
(lp6
g0
(g1
g2
(lp7
Vthe
p8
atp9
Rp10
(dp11
S'_label'
p12
VDT
p13
sbag0
(g1
g2
(lp14
Vboil
p15
atp16
Rp17
(dp18
g12
VNN
p19
sbatp20
Rp21
(dp22
g12
VNP
p23
sbag0
(g1
g2
(lp24
g0
(g1
g2
(lp25
Vwas
p26
atp27
Rp28
(dp29
g12
VVBD
p30
sbag0
(g1
g2
(lp31
g0
(g1
g2
(lp32
Vfollowing
p33
atp34
Rp35
(dp36
g12
VVBG
p37
sbag0
(g1
g2
(lp38
g0
(g1
g2
(lp39
Va
p40
atp41
Rp42
(dp43
g12
VDT
p44
sbag0
(g1
g2
(lp45
Vkite
p46
atp47
Rp48
(dp49
g12
VNN
p50
sbatp51
Rp52
(dp53
g12
VNP
p54
sbatp55
Rp56
(dp57
g12
VVP
p58
sbatp59
Rp60
(dp61
g12
VVP
p62
sbag0
(g1
g2
(lp63
V.
p64
atp65
Rp66
(dp67
g12
V.
p68
sbatp69
Rp70
(dp71
g12
VS
p72
sbatp73
Rp74
(dp75
g12
S'id: 0'
p76
sbag0
(g1
g2
(lp77
g0
(g1
g2
(lp78
g0
(g1
g2
(lp79
g0
(g1
g2
(lp80
Vthe
p81
atp82
Rp83
(dp84
g12
VDT
p85
sbag0
(g1
g2
(lp86
Vdog
p87
atp88
Rp89
(dp90
g12
VNN
p91
sbatp92
Rp93
(dp94
g12
VNP
p95
sbag0
(g1
g2
(lp96
g0
(g1
g2
(lp97
Vwas
p98
atp99
Rp100
(dp101
g12
VVBD
p102
sbag0
(g1
g2
(lp103
g0
(g1
g2
(lp104
Vrunning
p105
atp106
Rp107
(dp108
g12
VVBG
p109
sbag0
(g1
g2
(lp110
g0
(g1
g2
(lp111
Varound
p112
atp113
Rp114
(dp115
g12
VRB
p116
sbatp117
Rp118
(dp119
g12
VADVP
p120
sbatp121
Rp122
(dp123
g12
VVP
p124
sbatp125
Rp126
(dp127
g12
VVP
p128
sbag0
(g1
g2
(lp129
V.
p130
atp131
Rp132
(dp133
g12
V.
p134
sbatp135
Rp136
(dp137
g12
VS
p138
sbatp139
Rp140
(dp141
g12
S'id: 1'
p142
sbag0
(g1
g2
(lp143
g0
(g1
g2
(lp144
g0
(g1
g2
(lp145
g0
(g1
g2
(lp146
Vthe
p147
atp148
Rp149
(dp150
g12
VDT
p151
sbag0
(g1
g2
(lp152
Vgirl
p153
atp154
Rp155
(dp156
g12
VNN
p157
sbatp158
Rp159
(dp160
g12
VNP
p161
sbag0
(g1
g2
(lp162
g0
(g1
g2
(lp163
Vwas
p164
atp165
Rp166
(dp167
g12
VVBD
p168
sbag0
(g1
g2
(lp169
g0
(g1
g2
(lp170
Vplanning
p171
atp172
Rp173
(dp174
g12
VVBG
p175
sbag0
(g1
g2
(lp176
g0
(g1
g2
(lp177
Va
p178
atp179
Rp180
(dp181
g12
VDT
p182
sbag0
(g1
g2
(lp183
Vcastle
p184
atp185
Rp186
(dp187
g12
VNN
p188
sbatp189
Rp190
(dp191
g12
VNP
p192
sbatp193
Rp194
(dp195
g12
VVP
p196
sbatp197
Rp198
(dp199
g12
VVP
p200
sbag0
(g1
g2
(lp201
V.
p202
atp203
Rp204
(dp205
g12
V.
p206
sbatp207
Rp208
(dp209
g12
VS
p210
sbatp211
Rp212
(dp213
g12
S'id: 2'
p214
sbag0
(g1
g2
(lp215
g0
(g1
g2
(lp216
g0
(g1
g2
(lp217
g0
(g1
g2
(lp218
g0
(g1
g2
(lp219
Vthe
p220
atp221
Rp222
(dp223
g12
VDT
p224
sbag0
(g1
g2
(lp225
Vwoman
p226
atp227
Rp228
(dp229
g12
VNN
p230
sbatp231
Rp232
(dp233
g12
VNP
p234
sbag0
(g1
g2
(lp235
g0
(g1
g2
(lp236
Vwas
p237
atp238
Rp239
(dp240
g12
VVBD
p241
sbag0
(g1
g2
(lp242
g0
(g1
g2
(lp243
Vpouring
p244
atp245
Rp246
(dp247
g12
VVBG
p248
sbag0
(g1
g2
(lp249
g0
(g1
g2
(lp250
Va
p251
atp252
Rp253
(dp254
g12
VDT
p255
sbag0
(g1
g2
(lp256
Vglass
p257
atp258
Rp259
(dp260
g12
VNN
p261
sbatp262
Rp263
(dp264
g12
VNP
p265
sbatp266
Rp267
(dp268
g12
VVP
p269
sbatp270
Rp271
(dp272
g12
VVP
p273
sbatp274
Rp275
(dp276
g12
VS
p277
sbag0
(g1
g2
(lp278
V,
p279
atp280
Rp281
(dp282
g12
V,
p283
sbag0
(g1
g2
(lp284
g0
(g1
g2
(lp285
VI
p286
atp287
Rp288
(dp289
g12
VPRP
p290
sbatp291
Rp292
(dp293
g12
VNP
p294
sbag0
(g1
g2
(lp295
g0
(g1
g2
(lp296
Vthink
p297
atp298
Rp299
(dp300
g12
VVBP
p301
sbag0
(g1
g2
(lp302
g0
(g1
g2
(lp303
Vwine
p304
atp305
Rp306
(dp307
g12
VNN
p308
sbatp309
Rp310
(dp311
g12
VNP
p312
sbatp313
Rp314
(dp315
g12
VVP
p316
sbag0
(g1
g2
(lp317
V.
p318
atp319
Rp320
(dp321
g12
V.
p322
sbatp323
Rp324
(dp325
g12
VS
p326
sbatp327
Rp328
(dp329
g12
S'id: 3'
p330
sbag0
(g1
g2
(lp331
g0
(g1
g2
(lp332
g0
(g1
g2
(lp333
g0
(g1
g2
(lp334
Vthe
p335
atp336
Rp337
(dp338
g12
VDT
p339
sbag0
(g1
g2
(lp340
Vman
p341
atp342
Rp343
(dp344
g12
VNN
p345
sbatp346
Rp347
(dp348
g12
VNP
p349
sbag0
(g1
g2
(lp350
g0
(g1
g2
(lp351
Vwas
p352
atp353
Rp354
(dp355
g12
VVBD
p356
sbag0
(g1
g2
(lp357
g0
(g1
g2
(lp358
Vwinning
p359
atp360
Rp361
(dp362
g12
VVBG
p363
sbag0
(g1
g2
(lp364
g0
(g1
g2
(lp365
g0
(g1
g2
(lp366
VX
p367
atp368
Rp369
(dp370
g12
VNN
p371
sbatp372
Rp373
(dp374
g12
VNP
p375
sbag0
(g1
g2
(lp376
V,
p377
atp378
Rp379
(dp380
g12
V,
p381
sbag0
(g1
g2
(lp382
g0
(g1
g2
(lp383
Vno
p384
atp385
Rp386
(dp387
g12
VDT
p388
sbag0
(g1
g2
(lp389
g0
(g1
g2
(lp390
g0
(g1
g2
(lp391
Vsilently
p392
atp393
Rp394
(dp395
g12
VRB
p396
sbatp397
Rp398
(dp399
g12
VADVP
p400
sbag0
(g1
g2
(lp401
g0
(g1
g2
(lp402
Vwith
p403
atp404
Rp405
(dp406
g12
VIN
p407
sbag0
(g1
g2
(lp408
g0
(g1
g2
(lp409
Vhis
p410
atp411
Rp412
(dp413
g12
VPRP$
p414
sbag0
(g1
g2
(lp415
Vshoes
p416
atp417
Rp418
(dp419
g12
VNNS
p420
sbatp421
Rp422
(dp423
g12
VNP
p424
sbatp425
Rp426
(dp427
g12
VPP
p428
sbatp429
Rp430
(dp431
g12
VRRC
p432
sbatp433
Rp434
(dp435
g12
VNP
p436
sbatp437
Rp438
(dp439
g12
VNP
p440
sbag0
(g1
g2
(lp441
g0
(g1
g2
(lp442
Voff
p443
atp444
Rp445
(dp446
g12
VRP
p447
sbatp448
Rp449
(dp450
g12
VPP
p451
sbatp452
Rp453
(dp454
g12
VVP
p455
sbatp456
Rp457
(dp458
g12
VVP
p459
sbag0
(g1
g2
(lp460
V.
p461
atp462
Rp463
(dp464
g12
V.
p465
sbatp466
Rp467
(dp468
g12
VS
p469
sbatp470
Rp471
(dp472
g12
S'id: 4'
p473
sbag0
(g1
g2
(lp474
g0
(g1
g2
(lp475
g0
(g1
g2
(lp476
g0
(g1
g2
(lp477
Vthe
p478
atp479
Rp480
(dp481
g12
VDT
p482
sbag0
(g1
g2
(lp483
VX
p484
atp485
Rp486
(dp487
g12
VNN
p488
sbatp489
Rp490
(dp491
g12
VNP
p492
sbag0
(g1
g2
(lp493
g0
(g1
g2
(lp494
Vcaught
p495
atp496
Rp497
(dp498
g12
VVBD
p499
sbag0
(g1
g2
(lp500
g0
(g1
g2
(lp501
g0
(g1
g2
(lp502
Va
p503
atp504
Rp505
(dp506
g12
VDT
p507
sbatp508
Rp509
(dp510
g12
VNP
p511
sbag0
(g1
g2
(lp512
g0
(g1
g2
(lp513
Vflounder
p514
atp515
Rp516
(dp517
g12
VVB
p518
sbatp519
Rp520
(dp521
g12
VVP
p522
sbatp523
Rp524
(dp525
g12
VS
p526
sbatp527
Rp528
(dp529
g12
VVP
p530
sbatp531
Rp532
(dp533
g12
VS
p534
sbatp535
Rp536
(dp537
g12
S'id: 5'
p538
sbatp539
Rp540
(dp541
g12
S'sentences'
p542
sb.