ccopy_reg
_reconstructor
p0
(cnltk.tree
Tree
p1
c__builtin__
list
p2
(lp3
g0
(g1
g2
(lp4
g0
(g1
g2
(lp5
g0
(g1
g2
(lp6
g0
(g1
g2
(lp7
g0
(g1
g2
(lp8
Vthis
p9
atp10
Rp11
(dp12
S'_label'
p13
VDT
p14
sbatp15
Rp16
(dp17
g13
VNP
p18
sbag0
(g1
g2
(lp19
g0
(g1
g2
(lp20
Vlooks
p21
atp22
Rp23
(dp24
g13
VVBZ
p25
sbag0
(g1
g2
(lp26
g0
(g1
g2
(lp27
Vlike
p28
atp29
Rp30
(dp31
g13
VIN
p32
sbag0
(g1
g2
(lp33
g0
(g1
g2
(lp34
Va
p35
atp36
Rp37
(dp38
g13
VDT
p39
sbag0
(g1
g2
(lp40
g0
(g1
g2
(lp41
V,
p42
atp43
Rp44
(dp45
g13
V,
p46
sbag0
(g1
g2
(lp47
g0
(g1
g2
(lp48
Veither
p49
atp50
Rp51
(dp52
g13
VRB
p53
sbatp54
Rp55
(dp56
g13
VADVP
p57
sbag0
(g1
g2
(lp58
V,
p59
atp60
Rp61
(dp62
g13
V,
p63
sbatp64
Rp65
(dp66
g13
VPRN
p67
sbatp68
Rp69
(dp70
g13
VNP
p71
sbag0
(g1
g2
(lp72
g0
(g1
g2
(lp73
Vobviously
p74
atp75
Rp76
(dp77
g13
VRB
p78
sbatp79
Rp80
(dp81
g13
VADVP
p82
sbatp83
Rp84
(dp85
g13
VPP
p86
sbag0
(g1
g2
(lp87
g0
(g1
g2
(lp88
Vat
p89
atp90
Rp91
(dp92
g13
VIN
p93
sbag0
(g1
g2
(lp94
g0
(g1
g2
(lp95
g0
(g1
g2
(lp96
Vthe
p97
atp98
Rp99
(dp100
g13
VDT
p101
sbag0
(g1
g2
(lp102
Vcircus
p103
atp104
Rp105
(dp106
g13
VNN
p107
sbatp108
Rp109
(dp110
g13
VNP
p111
sbag0
(g1
g2
(lp112
V,
p113
atp114
Rp115
(dp116
g13
V,
p117
sbag0
(g1
g2
(lp118
Vor
p119
atp120
Rp121
(dp122
g13
VCC
p123
sbag0
(g1
g2
(lp124
g0
(g1
g2
(lp125
Va
p126
atp127
Rp128
(dp129
g13
VDT
p130
sbag0
(g1
g2
(lp131
Vcarnival
p132
atp133
Rp134
(dp135
g13
VNN
p136
sbatp137
Rp138
(dp139
g13
VNP
p140
sbatp141
Rp142
(dp143
g13
VNP
p144
sbatp145
Rp146
(dp147
g13
VPP
p148
sbatp149
Rp150
(dp151
g13
VVP
p152
sbatp153
Rp154
(dp155
g13
VS
p156
sbag0
(g1
g2
(lp157
V,
p158
atp159
Rp160
(dp161
g13
V,
p162
sbag0
(g1
g2
(lp163
Vbut
p164
atp165
Rp166
(dp167
g13
VCC
p168
sbag0
(g1
g2
(lp169
g0
(g1
g2
(lp170
g0
(g1
g2
(lp171
VI
p172
atp173
Rp174
(dp175
g13
VPRP
p176
sbatp177
Rp178
(dp179
g13
VNP
p180
sbag0
(g1
g2
(lp181
g0
(g1
g2
(lp182
Vwould
p183
atp184
Rp185
(dp186
g13
VMD
p187
sbag0
(g1
g2
(lp188
g0
(g1
g2
(lp189
Vsay
p190
atp191
Rp192
(dp193
g13
VVB
p194
sbag0
(g1
g2
(lp195
g0
(g1
g2
(lp196
Vat
p197
atp198
Rp199
(dp200
g13
VIN
p201
sbag0
(g1
g2
(lp202
g0
(g1
g2
(lp203
Vthe
p204
atp205
Rp206
(dp207
g13
VDT
p208
sbag0
(g1
g2
(lp209
Vcircus
p210
atp211
Rp212
(dp213
g13
VNN
p214
sbatp215
Rp216
(dp217
g13
VNP
p218
sbatp219
Rp220
(dp221
g13
VPP
p222
sbatp223
Rp224
(dp225
g13
VVP
p226
sbatp227
Rp228
(dp229
g13
VVP
p230
sbatp231
Rp232
(dp233
g13
VS
p234
sbag0
(g1
g2
(lp235
V.
p236
atp237
Rp238
(dp239
g13
V.
p240
sbatp241
Rp242
(dp243
g13
VS
p244
sbatp245
Rp246
(dp247
g13
S'id: 0'
p248
sbag0
(g1
g2
(lp249
g0
(g1
g2
(lp250
g0
(g1
g2
(lp251
VAnd
p252
atp253
Rp254
(dp255
g13
VCC
p256
sbag0
(g1
g2
(lp257
g0
(g1
g2
(lp258
Vi
p259
atp260
Rp261
(dp262
g13
VFW
p263
sbatp264
Rp265
(dp266
g13
VNP
p267
sbag0
(g1
g2
(lp268
g0
(g1
g2
(lp269
Vwould
p270
atp271
Rp272
(dp273
g13
VMD
p274
sbag0
(g1
g2
(lp275
g0
(g1
g2
(lp276
Vsay
p277
atp278
Rp279
(dp280
g13
VVB
p281
sbag0
(g1
g2
(lp282
g0
(g1
g2
(lp283
g0
(g1
g2
(lp284
g0
(g1
g2
(lp285
Vthe
p286
atp287
Rp288
(dp289
g13
VDT
p290
sbag0
(g1
g2
(lp291
Vlittle
p292
atp293
Rp294
(dp295
g13
VJJ
p296
sbag0
(g1
g2
(lp297
Vgirl
p298
atp299
Rp300
(dp301
g13
VNN
p302
sbatp303
Rp304
(dp305
g13
VNP
p306
sbag0
(g1
g2
(lp307
g0
(g1
g2
(lp308
Vis
p309
atp310
Rp311
(dp312
g13
VVBZ
p313
sbag0
(g1
g2
(lp314
g0
(g1
g2
(lp315
g0
(g1
g2
(lp316
VAfrican
p317
atp318
Rp319
(dp320
g13
VJJ
p321
sbag0
(g1
g2
(lp322
VAmerican
p323
atp324
Rp325
(dp326
g13
VJJ
p327
sbatp328
Rp329
(dp330
g13
VADJP
p331
sbag0
(g1
g2
(lp332
g0
(g1
g2
(lp333
g0
(g1
g2
(lp334
Vby
p335
atp336
Rp337
(dp338
g13
VIN
p339
sbag0
(g1
g2
(lp340
g0
(g1
g2
(lp341
Vher
p342
atp343
Rp344
(dp345
g13
VPRP$
p346
sbag0
(g1
g2
(lp347
Vbraids
p348
atp349
Rp350
(dp351
g13
VNNS
p352
sbatp353
Rp354
(dp355
g13
VNP
p356
sbatp357
Rp358
(dp359
g13
VPP
p360
sbag0
(g1
g2
(lp361
V,
p362
atp363
Rp364
(dp365
g13
V,
p366
sbag0
(g1
g2
(lp367
Vand
p368
atp369
Rp370
(dp371
g13
VCC
p372
sbag0
(g1
g2
(lp373
g0
(g1
g2
(lp374
Vby
p375
atp376
Rp377
(dp378
g13
VIN
p379
sbag0
(g1
g2
(lp380
g0
(g1
g2
(lp381
g0
(g1
g2
(lp382
Vher
p383
atp384
Rp385
(dp386
g13
VPRP
p387
sbatp388
Rp389
(dp390
g13
VNP
p391
sbag0
(g1
g2
(lp392
V,
p393
atp394
Rp395
(dp396
g13
V,
p397
sbag0
(g1
g2
(lp398
g0
(g1
g2
(lp399
Vher
p400
atp401
Rp402
(dp403
g13
VPRP$
p404
sbag0
(g1
g2
(lp405
Vdad
p406
atp407
Rp408
(dp409
g13
VNN
p410
sbatp411
Rp412
(dp413
g13
VNP
p414
sbag0
(g1
g2
(lp415
V,
p416
atp417
Rp418
(dp419
g13
V,
p420
sbatp421
Rp422
(dp423
g13
VNP
p424
sbatp425
Rp426
(dp427
g13
VPP
p428
sbatp429
Rp430
(dp431
g13
VPP
p432
sbatp433
Rp434
(dp435
g13
VADJP
p436
sbag0
(g1
g2
(lp437
g0
(g1
g2
(lp438
Vobviously
p439
atp440
Rp441
(dp442
g13
VRB
p443
sbatp444
Rp445
(dp446
g13
VADVP
p447
sbag0
(g1
g2
(lp448
V,
p449
atp450
Rp451
(dp452
g13
V,
p453
sbag0
(g1
g2
(lp454
g0
(g1
g2
(lp455
Vhis
p456
atp457
Rp458
(dp459
g13
VPRP$
p460
sbag0
(g1
g2
(lp461
Vcurly
p462
atp463
Rp464
(dp465
g13
VJJ
p466
sbag0
(g1
g2
(lp467
Vhair
p468
atp469
Rp470
(dp471
g13
VNN
p472
sbatp473
Rp474
(dp475
g13
VNP
p476
sbatp477
Rp478
(dp479
g13
VVP
p480
sbatp481
Rp482
(dp483
g13
VS
p484
sbatp485
Rp486
(dp487
g13
VSBAR
p488
sbatp489
Rp490
(dp491
g13
VVP
p492
sbatp493
Rp494
(dp495
g13
VVP
p496
sbag0
(g1
g2
(lp497
V.
p498
atp499
Rp500
(dp501
g13
V.
p502
sbatp503
Rp504
(dp505
g13
VS
p506
sbatp507
Rp508
(dp509
g13
S'id: 1'
p510
sbag0
(g1
g2
(lp511
g0
(g1
g2
(lp512
g0
(g1
g2
(lp513
g0
(g1
g2
(lp514
VIn
p515
atp516
Rp517
(dp518
g13
VIN
p519
sbag0
(g1
g2
(lp520
g0
(g1
g2
(lp521
Vthe
p522
atp523
Rp524
(dp525
g13
VDT
p526
sbag0
(g1
g2
(lp527
Vlions
p528
atp529
Rp530
(dp531
g13
VNNS
p532
sbag0
(g1
g2
(lp533
Vcages
p534
atp535
Rp536
(dp537
g13
VNNS
p538
sbatp539
Rp540
(dp541
g13
VNP
p542
sbatp543
Rp544
(dp545
g13
VPP
p546
sbag0
(g1
g2
(lp547
g0
(g1
g2
(lp548
Vis
p549
atp550
Rp551
(dp552
g13
VVBZ
p553
sbag0
(g1
g2
(lp554
g0
(g1
g2
(lp555
g0
(g1
g2
(lp556
Vthe
p557
atp558
Rp559
(dp560
g13
VDT
p561
sbatp562
Rp563
(dp564
g13
VNP
p565
sbag0
(g1
g2
(lp566
V,
p567
atp568
Rp569
(dp570
g13
V,
p571
sbag0
(g1
g2
(lp572
g0
(g1
g2
(lp573
Vhead
p574
atp575
Rp576
(dp577
g13
VNN
p578
sbag0
(g1
g2
(lp579
Vring
p580
atp581
Rp582
(dp583
g13
VNN
p584
sbag0
(g1
g2
(lp585
Vmaster
p586
atp587
Rp588
(dp589
g13
VNN
p590
sbatp591
Rp592
(dp593
g13
VNP
p594
sbag0
(g1
g2
(lp595
V,
p596
atp597
Rp598
(dp599
g13
V,
p600
sbag0
(g1
g2
(lp601
Vor
p602
atp603
Rp604
(dp605
g13
VCC
p606
sbag0
(g1
g2
(lp607
g0
(g1
g2
(lp608
Vlion
p609
atp610
Rp611
(dp612
g13
VNN
p613
sbatp614
Rp615
(dp616
g13
VNP
p617
sbatp618
Rp619
(dp620
g13
VNP
p621
sbatp622
Rp623
(dp624
g13
VVP
p625
sbag0
(g1
g2
(lp626
g0
(g1
g2
(lp627
g0
(g1
g2
(lp628
Vtamer
p629
atp630
Rp631
(dp632
g13
VJJR
p633
sbatp634
Rp635
(dp636
g13
VNP
p637
sbag0
(g1
g2
(lp638
V,
p639
atp640
Rp641
(dp642
g13
V,
p643
sbag0
(g1
g2
(lp644
g0
(g1
g2
(lp645
g0
(g1
g2
(lp646
Vone
p647
atp648
Rp649
(dp650
g13
VCD
p651
sbatp652
Rp653
(dp654
g13
VNP
p655
sbag0
(g1
g2
(lp656
g0
(g1
g2
(lp657
Vof
p658
atp659
Rp660
(dp661
g13
VIN
p662
sbag0
(g1
g2
(lp663
g0
(g1
g2
(lp664
g0
(g1
g2
(lp665
Vthe
p666
atp667
Rp668
(dp669
g13
VDT
p670
sbatp671
Rp672
(dp673
g13
VNP
p674
sbag0
(g1
g2
(lp675
V,
p676
atp677
Rp678
(dp679
g13
V,
p680
sbag0
(g1
g2
(lp681
g0
(g1
g2
(lp682
Vhopefully
p683
atp684
Rp685
(dp686
g13
VRB
p687
sbatp688
Rp689
(dp690
g13
VADVP
p691
sbatp692
Rp693
(dp694
g13
VNP
p695
sbatp696
Rp697
(dp698
g13
VPP
p699
sbag0
(g1
g2
(lp700
g0
(g1
g2
(lp701
g0
(g1
g2
(lp702
g0
(g1
g2
(lp703
Vhe
p704
atp705
Rp706
(dp707
g13
VPRP
p708
sbatp709
Rp710
(dp711
g13
VNP
p712
sbag0
(g1
g2
(lp713
g0
(g1
g2
(lp714
V's
p715
atp716
Rp717
(dp718
g13
VVBZ
p719
sbag0
(g1
g2
(lp720
g0
(g1
g2
(lp721
g0
(g1
g2
(lp722
g0
(g1
g2
(lp723
Vthe
p724
atp725
Rp726
(dp727
g13
VDT
p728
sbag0
(g1
g2
(lp729
Vlion
p730
atp731
Rp732
(dp733
g13
VNN
p734
sbatp735
Rp736
(dp737
g13
VNP
p738
sbag0
(g1
g2
(lp739
Vtamer
p740
atp741
Rp742
(dp743
g13
VJJR
p744
sbatp745
Rp746
(dp747
g13
VADJP
p748
sbag0
(g1
g2
(lp749
g0
(g1
g2
(lp750
Vbecause
p751
atp752
Rp753
(dp754
g13
VIN
p755
sbag0
(g1
g2
(lp756
g0
(g1
g2
(lp757
Vthats
p758
atp759
Rp760
(dp761
g13
VNNS
p762
sbatp763
Rp764
(dp765
g13
VNP
p766
sbatp767
Rp768
(dp769
g13
VPP
p770
sbatp771
Rp772
(dp773
g13
VADJP
p774
sbag0
(g1
g2
(lp775
g0
(g1
g2
(lp776
g0
(g1
g2
(lp777
Va
p778
atp779
Rp780
(dp781
g13
VDT
p782
sbag0
(g1
g2
(lp783
g0
(g1
g2
(lp784
g0
(g1
g2
(lp785
Vpretty
p786
atp787
Rp788
(dp789
g13
VRB
p790
sbag0
(g1
g2
(lp791
Vgood
p792
atp793
Rp794
(dp795
g13
VJJ
p796
sbatp797
Rp798
(dp799
g13
VADJP
p800
sbag0
(g1
g2
(lp801
Vsized
p802
atp803
Rp804
(dp805
g13
VVBN
p806
sbag0
(g1
g2
(lp807
Vlion
p808
atp809
Rp810
(dp811
g13
VNN
p812
sbatp813
Rp814
(dp815
g13
VNP
p816
sbatp817
Rp818
(dp819
g13
VNP
p820
sbatp821
Rp822
(dp823
g13
VS
p824
sbatp825
Rp826
(dp827
g13
VVP
p828
sbatp829
Rp830
(dp831
g13
VS
p832
sbatp833
Rp834
(dp835
g13
VSBAR
p836
sbatp837
Rp838
(dp839
g13
VNP
p840
sbatp841
Rp842
(dp843
g13
VNP
p844
sbag0
(g1
g2
(lp845
V.
p846
atp847
Rp848
(dp849
g13
V.
p850
sbatp851
Rp852
(dp853
g13
VSINV
p854
sbatp855
Rp856
(dp857
g13
S'id: 2'
p858
sbag0
(g1
g2
(lp859
g0
(g1
g2
(lp860
g0
(g1
g2
(lp861
g0
(g1
g2
(lp862
VEven
p863
atp864
Rp865
(dp866
g13
VRB
p867
sbag0
(g1
g2
(lp868
Vthough
p869
atp870
Rp871
(dp872
g13
VIN
p873
sbag0
(g1
g2
(lp874
g0
(g1
g2
(lp875
g0
(g1
g2
(lp876
Vhe
p877
atp878
Rp879
(dp880
g13
VPRP
p881
sbatp882
Rp883
(dp884
g13
VNP
p885
sbag0
(g1
g2
(lp886
g0
(g1
g2
(lp887
Vseems
p888
atp889
Rp890
(dp891
g13
VVBZ
p892
sbag0
(g1
g2
(lp893
g0
(g1
g2
(lp894
g0
(g1
g2
(lp895
Vto
p896
atp897
Rp898
(dp899
g13
VTO
p900
sbag0
(g1
g2
(lp901
g0
(g1
g2
(lp902
Vhave
p903
atp904
Rp905
(dp906
g13
VVB
p907
sbag0
(g1
g2
(lp908
g0
(g1
g2
(lp909
Va
p910
atp911
Rp912
(dp913
g13
VDT
p914
sbag0
(g1
g2
(lp915
Vsmile
p916
atp917
Rp918
(dp919
g13
VNN
p920
sbatp921
Rp922
(dp923
g13
VNP
p924
sbatp925
Rp926
(dp927
g13
VVP
p928
sbatp929
Rp930
(dp931
g13
VVP
p932
sbatp933
Rp934
(dp935
g13
VS
p936
sbatp937
Rp938
(dp939
g13
VVP
p940
sbatp941
Rp942
(dp943
g13
VS
p944
sbatp945
Rp946
(dp947
g13
VSBAR
p948
sbag0
(g1
g2
(lp949
V,
p950
atp951
Rp952
(dp953
g13
V,
p954
sbag0
(g1
g2
(lp955
g0
(g1
g2
(lp956
Vhe
p957
atp958
Rp959
(dp960
g13
VPRP
p961
sbatp962
Rp963
(dp964
g13
VNP
p965
sbag0
(g1
g2
(lp966
g0
(g1
g2
(lp967
Vlooks
p968
atp969
Rp970
(dp971
g13
VVBZ
p972
sbag0
(g1
g2
(lp973
g0
(g1
g2
(lp974
Vlike
p975
atp976
Rp977
(dp978
g13
VIN
p979
sbag0
(g1
g2
(lp980
g0
(g1
g2
(lp981
g0
(g1
g2
(lp982
Vhe
p983
atp984
Rp985
(dp986
g13
VPRP
p987
sbatp988
Rp989
(dp990
g13
VNP
p991
sbag0
(g1
g2
(lp992
g0
(g1
g2
(lp993
Vmight
p994
atp995
Rp996
(dp997
g13
VMD
p998
sbag0
(g1
g2
(lp999
g0
(g1
g2
(lp1000
Vbe
p1001
atp1002
Rp1003
(dp1004
g13
VVB
p1005
sbag0
(g1
g2
(lp1006
g0
(g1
g2
(lp1007
Vready
p1008
atp1009
Rp1010
(dp1011
g13
VJJ
p1012
sbag0
(g1
g2
(lp1013
g0
(g1
g2
(lp1014
g0
(g1
g2
(lp1015
Vto
p1016
atp1017
Rp1018
(dp1019
g13
VTO
p1020
sbag0
(g1
g2
(lp1021
g0
(g1
g2
(lp1022
Vhave
p1023
atp1024
Rp1025
(dp1026
g13
VVB
p1027
sbag0
(g1
g2
(lp1028
g0
(g1
g2
(lp1029
Vlunch
p1030
atp1031
Rp1032
(dp1033
g13
VNN
p1034
sbatp1035
Rp1036
(dp1037
g13
VNP
p1038
sbatp1039
Rp1040
(dp1041
g13
VVP
p1042
sbatp1043
Rp1044
(dp1045
g13
VVP
p1046
sbatp1047
Rp1048
(dp1049
g13
VS
p1050
sbatp1051
Rp1052
(dp1053
g13
VADJP
p1054
sbatp1055
Rp1056
(dp1057
g13
VVP
p1058
sbatp1059
Rp1060
(dp1061
g13
VVP
p1062
sbatp1063
Rp1064
(dp1065
g13
VS
p1066
sbatp1067
Rp1068
(dp1069
g13
VSBAR
p1070
sbatp1071
Rp1072
(dp1073
g13
VVP
p1074
sbag0
(g1
g2
(lp1075
V.
p1076
atp1077
Rp1078
(dp1079
g13
V.
p1080
sbatp1081
Rp1082
(dp1083
g13
VS
p1084
sbatp1085
Rp1086
(dp1087
g13
S'id: 3'
p1088
sbag0
(g1
g2
(lp1089
g0
(g1
g2
(lp1090
g0
(g1
g2
(lp1091
VAnd
p1092
atp1093
Rp1094
(dp1095
g13
VCC
p1096
sbag0
(g1
g2
(lp1097
g0
(g1
g2
(lp1098
g0
(g1
g2
(lp1099
Vthe
p1100
atp1101
Rp1102
(dp1103
g13
VDT
p1104
sbag0
(g1
g2
(lp1105
Vclown
p1106
atp1107
Rp1108
(dp1109
g13
VNN
p1110
sbatp1111
Rp1112
(dp1113
g13
VNP
p1114
sbag0
(g1
g2
(lp1115
V,
p1116
atp1117
Rp1118
(dp1119
g13
V,
p1120
sbag0
(g1
g2
(lp1121
g0
(g1
g2
(lp1122
g0
(g1
g2
(lp1123
Vwho
p1124
atp1125
Rp1126
(dp1127
g13
VWP
p1128
sbatp1129
Rp1130
(dp1131
g13
VWHNP
p1132
sbag0
(g1
g2
(lp1133
g0
(g1
g2
(lp1134
g0
(g1
g2
(lp1135
Vis
p1136
atp1137
Rp1138
(dp1139
g13
VVBZ
p1140
sbag0
(g1
g2
(lp1141
g0
(g1
g2
(lp1142
Vexpected
p1143
atp1144
Rp1145
(dp1146
g13
VVBN
p1147
sbag0
(g1
g2
(lp1148
g0
(g1
g2
(lp1149
g0
(g1
g2
(lp1150
Vto
p1151
atp1152
Rp1153
(dp1154
g13
VTO
p1155
sbag0
(g1
g2
(lp1156
g0
(g1
g2
(lp1157
Vdo
p1158
atp1159
Rp1160
(dp1161
g13
VVB
p1162
sbag0
(g1
g2
(lp1163
g0
(g1
g2
(lp1164
g0
(g1
g2
(lp1165
Vall
p1166
atp1167
Rp1168
(dp1169
g13
VDT
p1170
sbag0
(g1
g2
(lp1171
Vsorts
p1172
atp1173
Rp1174
(dp1175
g13
VNNS
p1176
sbatp1177
Rp1178
(dp1179
g13
VNP
p1180
sbag0
(g1
g2
(lp1181
g0
(g1
g2
(lp1182
Vof
p1183
atp1184
Rp1185
(dp1186
g13
VIN
p1187
sbag0
(g1
g2
(lp1188
g0
(g1
g2
(lp1189
Vsilly
p1190
atp1191
Rp1192
(dp1193
g13
VJJ
p1194
sbag0
(g1
g2
(lp1195
Vtricks
p1196
atp1197
Rp1198
(dp1199
g13
VNNS
p1200
sbatp1201
Rp1202
(dp1203
g13
VNP
p1204
sbatp1205
Rp1206
(dp1207
g13
VPP
p1208
sbatp1209
Rp1210
(dp1211
g13
VNP
p1212
sbatp1213
Rp1214
(dp1215
g13
VVP
p1216
sbatp1217
Rp1218
(dp1219
g13
VVP
p1220
sbatp1221
Rp1222
(dp1223
g13
VS
p1224
sbatp1225
Rp1226
(dp1227
g13
VVP
p1228
sbatp1229
Rp1230
(dp1231
g13
VVP
p1232
sbatp1233
Rp1234
(dp1235
g13
VS
p1236
sbatp1237
Rp1238
(dp1239
g13
VSBAR
p1240
sbatp1241
Rp1242
(dp1243
g13
VNP
p1244
sbag0
(g1
g2
(lp1245
V.
p1246
atp1247
Rp1248
(dp1249
g13
V.
p1250
sbatp1251
Rp1252
(dp1253
g13
VFRAG
p1254
sbatp1255
Rp1256
(dp1257
g13
S'id: 4'
p1258
sbag0
(g1
g2
(lp1259
g0
(g1
g2
(lp1260
g0
(g1
g2
(lp1261
g0
(g1
g2
(lp1262
VHe
p1263
atp1264
Rp1265
(dp1266
g13
VPRP
p1267
sbatp1268
Rp1269
(dp1270
g13
VNP
p1271
sbag0
(g1
g2
(lp1272
g0
(g1
g2
(lp1273
V's
p1274
atp1275
Rp1276
(dp1277
g13
VVBZ
p1278
sbag0
(g1
g2
(lp1279
g0
(g1
g2
(lp1280
Veither
p1281
atp1282
Rp1283
(dp1284
g13
VCC
p1285
sbatp1286
Rp1287
(dp1288
g13
VADVP
p1289
sbag0
(g1
g2
(lp1290
g0
(g1
g2
(lp1291
Vthrowing
p1292
atp1293
Rp1294
(dp1295
g13
VVBG
p1296
sbag0
(g1
g2
(lp1297
g0
(g1
g2
(lp1298
g0
(g1
g2
(lp1299
Vwater
p1300
atp1301
Rp1302
(dp1303
g13
VNN
p1304
sbatp1305
Rp1306
(dp1307
g13
VNP
p1308
sbag0
(g1
g2
(lp1309
V,
p1310
atp1311
Rp1312
(dp1313
g13
V,
p1314
sbag0
(g1
g2
(lp1315
Vor
p1316
atp1317
Rp1318
(dp1319
g13
VCC
p1320
sbag0
(g1
g2
(lp1321
g0
(g1
g2
(lp1322
Vpopcorn
p1323
atp1324
Rp1325
(dp1326
g13
VNN
p1327
sbatp1328
Rp1329
(dp1330
g13
VNP
p1331
sbag0
(g1
g2
(lp1332
V,
p1333
atp1334
Rp1335
(dp1336
g13
V,
p1337
sbatp1338
Rp1339
(dp1340
g13
VNP
p1341
sbag0
(g1
g2
(lp1342
g0
(g1
g2
(lp1343
Von
p1344
atp1345
Rp1346
(dp1347
g13
VIN
p1348
sbag0
(g1
g2
(lp1349
g0
(g1
g2
(lp1350
Vthe
p1351
atp1352
Rp1353
(dp1354
g13
VDT
p1355
sbag0
(g1
g2
(lp1356
Vlittle
p1357
atp1358
Rp1359
(dp1360
g13
VJJ
p1361
sbag0
(g1
g2
(lp1362
Vboy
p1363
atp1364
Rp1365
(dp1366
g13
VNN
p1367
sbatp1368
Rp1369
(dp1370
g13
VNP
p1371
sbatp1372
Rp1373
(dp1374
g13
VPP
p1375
sbatp1376
Rp1377
(dp1378
g13
VVP
p1379
sbatp1380
Rp1381
(dp1382
g13
VVP
p1383
sbag0
(g1
g2
(lp1384
V.
p1385
atp1386
Rp1387
(dp1388
g13
V.
p1389
sbatp1390
Rp1391
(dp1392
g13
VS
p1393
sbatp1394
Rp1395
(dp1396
g13
S'id: 5'
p1397
sbag0
(g1
g2
(lp1398
g0
(g1
g2
(lp1399
g0
(g1
g2
(lp1400
g0
(g1
g2
(lp1401
VAnd
p1402
atp1403
Rp1404
(dp1405
g13
VCC
p1406
sbag0
(g1
g2
(lp1407
g0
(g1
g2
(lp1408
Vthey
p1409
atp1410
Rp1411
(dp1412
g13
VPRP
p1413
sbatp1414
Rp1415
(dp1416
g13
VNP
p1417
sbag0
(g1
g2
(lp1418
g0
(g1
g2
(lp1419
V're
p1420
atp1421
Rp1422
(dp1423
g13
VVBP
p1424
sbag0
(g1
g2
(lp1425
g0
(g1
g2
(lp1426
g0
(g1
g2
(lp1427
Vlaughing
p1428
atp1429
Rp1430
(dp1431
g13
VVBG
p1432
sbatp1433
Rp1434
(dp1435
g13
VVP
p1436
sbag0
(g1
g2
(lp1437
Vand
p1438
atp1439
Rp1440
(dp1441
g13
VCC
p1442
sbag0
(g1
g2
(lp1443
g0
(g1
g2
(lp1444
Vputting
p1445
atp1446
Rp1447
(dp1448
g13
VVBG
p1449
sbag0
(g1
g2
(lp1450
g0
(g1
g2
(lp1451
Vup
p1452
atp1453
Rp1454
(dp1455
g13
VRP
p1456
sbatp1457
Rp1458
(dp1459
g13
VPRT
p1460
sbag0
(g1
g2
(lp1461
g0
(g1
g2
(lp1462
Vtheir
p1463
atp1464
Rp1465
(dp1466
g13
VPRP$
p1467
sbag0
(g1
g2
(lp1468
Vhands
p1469
atp1470
Rp1471
(dp1472
g13
VNNS
p1473
sbatp1474
Rp1475
(dp1476
g13
VNP
p1477
sbag0
(g1
g2
(lp1478
g0
(g1
g2
(lp1479
g0
(g1
g2
(lp1480
g0
(g1
g2
(lp1481
Vto
p1482
atp1483
Rp1484
(dp1485
g13
VTO
p1486
sbag0
(g1
g2
(lp1487
g0
(g1
g2
(lp1488
Vavoid
p1489
atp1490
Rp1491
(dp1492
g13
VVB
p1493
sbag0
(g1
g2
(lp1494
g0
(g1
g2
(lp1495
g0
(g1
g2
(lp1496
Vit
p1497
atp1498
Rp1499
(dp1500
g13
VPRP
p1501
sbatp1502
Rp1503
(dp1504
g13
VNP
p1505
sbag0
(g1
g2
(lp1506
g0
(g1
g2
(lp1507
Vcatching
p1508
atp1509
Rp1510
(dp1511
g13
VVBG
p1512
sbatp1513
Rp1514
(dp1515
g13
VVP
p1516
sbatp1517
Rp1518
(dp1519
g13
VS
p1520
sbatp1521
Rp1522
(dp1523
g13
VVP
p1524
sbatp1525
Rp1526
(dp1527
g13
VVP
p1528
sbag0
(g1
g2
(lp1529
V,
p1530
atp1531
Rp1532
(dp1533
g13
V,
p1534
sbag0
(g1
g2
(lp1535
Vor
p1536
atp1537
Rp1538
(dp1539
g13
VCC
p1540
sbag0
(g1
g2
(lp1541
g0
(g1
g2
(lp1542
Vmaybe
p1543
atp1544
Rp1545
(dp1546
g13
VRB
p1547
sbatp1548
Rp1549
(dp1550
g13
VADVP
p1551
sbag0
(g1
g2
(lp1552
g0
(g1
g2
(lp1553
Vto
p1554
atp1555
Rp1556
(dp1557
g13
VTO
p1558
sbag0
(g1
g2
(lp1559
g0
(g1
g2
(lp1560
Vcatch
p1561
atp1562
Rp1563
(dp1564
g13
VVB
p1565
sbag0
(g1
g2
(lp1566
g0
(g1
g2
(lp1567
g0
(g1
g2
(lp1568
Vwhat
p1569
atp1570
Rp1571
(dp1572
g13
VWP
p1573
sbatp1574
Rp1575
(dp1576
g13
VWHNP
p1577
sbag0
(g1
g2
(lp1578
g0
(g1
g2
(lp1579
g0
(g1
g2
(lp1580
Vhe
p1581
atp1582
Rp1583
(dp1584
g13
VPRP
p1585
sbatp1586
Rp1587
(dp1588
g13
VNP
p1589
sbag0
(g1
g2
(lp1590
g0
(g1
g2
(lp1591
V's
p1592
atp1593
Rp1594
(dp1595
g13
VVBZ
p1596
sbag0
(g1
g2
(lp1597
g0
(g1
g2
(lp1598
Vthrowing
p1599
atp1600
Rp1601
(dp1602
g13
VVBG
p1603
sbag0
(g1
g2
(lp1604
g0
(g1
g2
(lp1605
Vout
p1606
atp1607
Rp1608
(dp1609
g13
VRP
p1610
sbatp1611
Rp1612
(dp1613
g13
VPRT
p1614
sbatp1615
Rp1616
(dp1617
g13
VVP
p1618
sbatp1619
Rp1620
(dp1621
g13
VVP
p1622
sbatp1623
Rp1624
(dp1625
g13
VS
p1626
sbatp1627
Rp1628
(dp1629
g13
VSBAR
p1630
sbatp1631
Rp1632
(dp1633
g13
VVP
p1634
sbatp1635
Rp1636
(dp1637
g13
VVP
p1638
sbatp1639
Rp1640
(dp1641
g13
VVP
p1642
sbatp1643
Rp1644
(dp1645
g13
VS
p1646
sbatp1647
Rp1648
(dp1649
g13
VVP
p1650
sbatp1651
Rp1652
(dp1653
g13
VVP
p1654
sbatp1655
Rp1656
(dp1657
g13
VVP
p1658
sbatp1659
Rp1660
(dp1661
g13
VS
p1662
sbag0
(g1
g2
(lp1663
V,
p1664
atp1665
Rp1666
(dp1667
g13
V,
p1668
sbag0
(g1
g2
(lp1669
g0
(g1
g2
(lp1670
Vit
p1671
atp1672
Rp1673
(dp1674
g13
VPRP
p1675
sbatp1676
Rp1677
(dp1678
g13
VNP
p1679
sbag0
(g1
g2
(lp1680
g0
(g1
g2
(lp1681
Vcould
p1682
atp1683
Rp1684
(dp1685
g13
VMD
p1686
sbag0
(g1
g2
(lp1687
g0
(g1
g2
(lp1688
Vbe
p1689
atp1690
Rp1691
(dp1692
g13
VVB
p1693
sbatp1694
Rp1695
(dp1696
g13
VVP
p1697
sbatp1698
Rp1699
(dp1700
g13
VVP
p1701
sbag0
(g1
g2
(lp1702
V.
p1703
atp1704
Rp1705
(dp1706
g13
V.
p1707
sbatp1708
Rp1709
(dp1710
g13
VS
p1711
sbatp1712
Rp1713
(dp1714
g13
S'id: 6'
p1715
sbag0
(g1
g2
(lp1716
g0
(g1
g2
(lp1717
g0
(g1
g2
(lp1718
VAnd
p1719
atp1720
Rp1721
(dp1722
g13
VCC
p1723
sbag0
(g1
g2
(lp1724
g0
(g1
g2
(lp1725
Vmother
p1726
atp1727
Rp1728
(dp1729
g13
VNN
p1730
sbatp1731
Rp1732
(dp1733
g13
VNP
p1734
sbag0
(g1
g2
(lp1735
g0
(g1
g2
(lp1736
Vis
p1737
atp1738
Rp1739
(dp1740
g13
VVBZ
p1741
sbag0
(g1
g2
(lp1742
g0
(g1
g2
(lp1743
Venjoying
p1744
atp1745
Rp1746
(dp1747
g13
VVBG
p1748
sbag0
(g1
g2
(lp1749
g0
(g1
g2
(lp1750
Vit
p1751
atp1752
Rp1753
(dp1754
g13
VPRP
p1755
sbatp1756
Rp1757
(dp1758
g13
VNP
p1759
sbag0
(g1
g2
(lp1760
g0
(g1
g2
(lp1761
Vas
p1762
atp1763
Rp1764
(dp1765
g13
VRB
p1766
sbag0
(g1
g2
(lp1767
Vwell
p1768
atp1769
Rp1770
(dp1771
g13
VRB
p1772
sbatp1773
Rp1774
(dp1775
g13
VADVP
p1776
sbag0
(g1
g2
(lp1777
V,
p1778
atp1779
Rp1780
(dp1781
g13
V,
p1782
sbag0
(g1
g2
(lp1783
g0
(g1
g2
(lp1784
Vas
p1785
atp1786
Rp1787
(dp1788
g13
VIN
p1789
sbag0
(g1
g2
(lp1790
g0
(g1
g2
(lp1791
Vthe
p1792
atp1793
Rp1794
(dp1795
g13
VDT
p1796
sbag0
(g1
g2
(lp1797
Vlittle
p1798
atp1799
Rp1800
(dp1801
g13
VJJ
p1802
sbag0
(g1
g2
(lp1803
Vchild
p1804
atp1805
Rp1806
(dp1807
g13
VNN
p1808
sbatp1809
Rp1810
(dp1811
g13
VNP
p1812
sbatp1813
Rp1814
(dp1815
g13
VPP
p1816
sbatp1817
Rp1818
(dp1819
g13
VVP
p1820
sbatp1821
Rp1822
(dp1823
g13
VVP
p1824
sbag0
(g1
g2
(lp1825
V.
p1826
atp1827
Rp1828
(dp1829
g13
V.
p1830
sbatp1831
Rp1832
(dp1833
g13
VS
p1834
sbatp1835
Rp1836
(dp1837
g13
S'id: 7'
p1838
sbag0
(g1
g2
(lp1839
g0
(g1
g2
(lp1840
g0
(g1
g2
(lp1841
VAnd
p1842
atp1843
Rp1844
(dp1845
g13
VCC
p1846
sbag0
(g1
g2
(lp1847
g0
(g1
g2
(lp1848
Vcertainly
p1849
atp1850
Rp1851
(dp1852
g13
VRB
p1853
sbatp1854
Rp1855
(dp1856
g13
VADVP
p1857
sbag0
(g1
g2
(lp1858
g0
(g1
g2
(lp1859
Vit
p1860
atp1861
Rp1862
(dp1863
g13
VPRP
p1864
sbatp1865
Rp1866
(dp1867
g13
VNP
p1868
sbag0
(g1
g2
(lp1869
g0
(g1
g2
(lp1870
Vappears
p1871
atp1872
Rp1873
(dp1874
g13
VVBZ
p1875
sbag0
(g1
g2
(lp1876
g0
(g1
g2
(lp1877
Vthat
p1878
atp1879
Rp1880
(dp1881
g13
VIN
p1882
sbag0
(g1
g2
(lp1883
g0
(g1
g2
(lp1884
g0
(g1
g2
(lp1885
Vthey
p1886
atp1887
Rp1888
(dp1889
g13
VPRP
p1890
sbatp1891
Rp1892
(dp1893
g13
VNP
p1894
sbag0
(g1
g2
(lp1895
g0
(g1
g2
(lp1896
Vare
p1897
atp1898
Rp1899
(dp1900
g13
VVBP
p1901
sbag0
(g1
g2
(lp1902
g0
(g1
g2
(lp1903
Vof
p1904
atp1905
Rp1906
(dp1907
g13
VIN
p1908
sbag0
(g1
g2
(lp1909
g0
(g1
g2
(lp1910
Vtwo
p1911
atp1912
Rp1913
(dp1914
g13
VCD
p1915
sbag0
(g1
g2
(lp1916
Vdifferent
p1917
atp1918
Rp1919
(dp1920
g13
VJJ
p1921
sbag0
(g1
g2
(lp1922
Vethnicities
p1923
atp1924
Rp1925
(dp1926
g13
VNNS
p1927
sbatp1928
Rp1929
(dp1930
g13
VNP
p1931
sbatp1932
Rp1933
(dp1934
g13
VPP
p1935
sbatp1936
Rp1937
(dp1938
g13
VVP
p1939
sbatp1940
Rp1941
(dp1942
g13
VS
p1943
sbatp1944
Rp1945
(dp1946
g13
VSBAR
p1947
sbatp1948
Rp1949
(dp1950
g13
VVP
p1951
sbag0
(g1
g2
(lp1952
V.
p1953
atp1954
Rp1955
(dp1956
g13
V.
p1957
sbatp1958
Rp1959
(dp1960
g13
VS
p1961
sbatp1962
Rp1963
(dp1964
g13
S'id: 8'
p1965
sbag0
(g1
g2
(lp1966
g0
(g1
g2
(lp1967
g0
(g1
g2
(lp1968
VAnd
p1969
atp1970
Rp1971
(dp1972
g13
VCC
p1973
sbag0
(g1
g2
(lp1974
g0
(g1
g2
(lp1975
Vin
p1976
atp1977
Rp1978
(dp1979
g13
VIN
p1980
sbag0
(g1
g2
(lp1981
g0
(g1
g2
(lp1982
g0
(g1
g2
(lp1983
Vthe
p1984
atp1985
Rp1986
(dp1987
g13
VDT
p1988
sbag0
(g1
g2
(lp1989
Vcenter
p1990
atp1991
Rp1992
(dp1993
g13
VNN
p1994
sbatp1995
Rp1996
(dp1997
g13
VNP
p1998
sbag0
(g1
g2
(lp1999
g0
(g1
g2
(lp2000
Vof
p2001
atp2002
Rp2003
(dp2004
g13
VIN
p2005
sbag0
(g1
g2
(lp2006
g0
(g1
g2
(lp2007
Vthe
p2008
atp2009
Rp2010
(dp2011
g13
VDT
p2012
sbag0
(g1
g2
(lp2013
Vring
p2014
atp2015
Rp2016
(dp2017
g13
VNN
p2018
sbatp2019
Rp2020
(dp2021
g13
VNP
p2022
sbatp2023
Rp2024
(dp2025
g13
VPP
p2026
sbatp2027
Rp2028
(dp2029
g13
VNP
p2030
sbatp2031
Rp2032
(dp2033
g13
VPP
p2034
sbag0
(g1
g2
(lp2035
g0
(g1
g2
(lp2036
Vis
p2037
atp2038
Rp2039
(dp2040
g13
VVBZ
p2041
sbag0
(g1
g2
(lp2042
g0
(g1
g2
(lp2043
g0
(g1
g2
(lp2044
Vthe
p2045
atp2046
Rp2047
(dp2048
g13
VDT
p2049
sbag0
(g1
g2
(lp2050
Vlady
p2051
atp2052
Rp2053
(dp2054
g13
VNN
p2055
sbatp2056
Rp2057
(dp2058
g13
VNP
p2059
sbag0
(g1
g2
(lp2060
g0
(g1
g2
(lp2061
Von
p2062
atp2063
Rp2064
(dp2065
g13
VIN
p2066
sbag0
(g1
g2
(lp2067
g0
(g1
g2
(lp2068
Va
p2069
atp2070
Rp2071
(dp2072
g13
VDT
p2073
sbag0
(g1
g2
(lp2074
Vhorse
p2075
atp2076
Rp2077
(dp2078
g13
VNN
p2079
sbatp2080
Rp2081
(dp2082
g13
VNP
p2083
sbatp2084
Rp2085
(dp2086
g13
VPP
p2087
sbatp2088
Rp2089
(dp2090
g13
VNP
p2091
sbag0
(g1
g2
(lp2092
V,
p2093
atp2094
Rp2095
(dp2096
g13
V,
p2097
sbag0
(g1
g2
(lp2098
g0
(g1
g2
(lp2099
Vprobably
p2100
atp2101
Rp2102
(dp2103
g13
VRB
p2104
sbatp2105
Rp2106
(dp2107
g13
VADVP
p2108
sbatp2109
Rp2110
(dp2111
g13
VVP
p2112
sbag0
(g1
g2
(lp2113
g0
(g1
g2
(lp2114
g0
(g1
g2
(lp2115
Vwhat
p2116
atp2117
Rp2118
(dp2119
g13
VWP
p2120
sbatp2121
Rp2122
(dp2123
g13
VWHNP
p2124
sbag0
(g1
g2
(lp2125
g0
(g1
g2
(lp2126
g0
(g1
g2
(lp2127
g0
(g1
g2
(lp2128
Vthey
p2129
atp2130
Rp2131
(dp2132
g13
VPRP
p2133
sbatp2134
Rp2135
(dp2136
g13
VNP
p2137
sbag0
(g1
g2
(lp2138
g0
(g1
g2
(lp2139
g0
(g1
g2
(lp2140
g0
(g1
g2
(lp2141
Vwe
p2142
atp2143
Rp2144
(dp2145
g13
VPRP
p2146
sbatp2147
Rp2148
(dp2149
g13
VNP
p2150
sbag0
(g1
g2
(lp2151
g0
(g1
g2
(lp2152
Vused
p2153
atp2154
Rp2155
(dp2156
g13
VVBD
p2157
sbag0
(g1
g2
(lp2158
g0
(g1
g2
(lp2159
g0
(g1
g2
(lp2160
Vto
p2161
atp2162
Rp2163
(dp2164
g13
VTO
p2165
sbag0
(g1
g2
(lp2166
g0
(g1
g2
(lp2167
Vsay
p2168
atp2169
Rp2170
(dp2171
g13
VVB
p2172
sbag0
(g1
g2
(lp2173
g0
(g1
g2
(lp2174
Vin
p2175
atp2176
Rp2177
(dp2178
g13
VIN
p2179
sbag0
(g1
g2
(lp2180
g0
(g1
g2
(lp2181
Vmy
p2182
atp2183
Rp2184
(dp2185
g13
VPRP$
p2186
sbag0
(g1
g2
(lp2187
Vday
p2188
atp2189
Rp2190
(dp2191
g13
VNN
p2192
sbag0
(g1
g2
(lp2193
Vlady
p2194
atp2195
Rp2196
(dp2197
g13
VNN
p2198
sbag0
(g1
g2
(lp2199
Vgodiva
p2200
atp2201
Rp2202
(dp2203
g13
VNN
p2204
sbatp2205
Rp2206
(dp2207
g13
VNP
p2208
sbatp2209
Rp2210
(dp2211
g13
VPP
p2212
sbag0
(g1
g2
(lp2213
g0
(g1
g2
(lp2214
Von
p2215
atp2216
Rp2217
(dp2218
g13
VIN
p2219
sbag0
(g1
g2
(lp2220
g0
(g1
g2
(lp2221
Vthe
p2222
atp2223
Rp2224
(dp2225
g13
VDT
p2226
sbag0
(g1
g2
(lp2227
Vhorse
p2228
atp2229
Rp2230
(dp2231
g13
VNN
p2232
sbatp2233
Rp2234
(dp2235
g13
VNP
p2236
sbatp2237
Rp2238
(dp2239
g13
VPP
p2240
sbag0
(g1
g2
(lp2241
V,
p2242
atp2243
Rp2244
(dp2245
g13
V,
p2246
sbag0
(g1
g2
(lp2247
g0
(g1
g2
(lp2248
Vwith
p2249
atp2250
Rp2251
(dp2252
g13
VIN
p2253
sbag0
(g1
g2
(lp2254
g0
(g1
g2
(lp2255
g0
(g1
g2
(lp2256
Vthis
p2257
atp2258
Rp2259
(dp2260
g13
VDT
p2261
sbag0
(g1
g2
(lp2262
Vplumage
p2263
atp2264
Rp2265
(dp2266
g13
VNN
p2267
sbatp2268
Rp2269
(dp2270
g13
VNP
p2271
sbag0
(g1
g2
(lp2272
g0
(g1
g2
(lp2273
g0
(g1
g2
(lp2274
Vthat
p2275
atp2276
Rp2277
(dp2278
g13
VWDT
p2279
sbatp2280
Rp2281
(dp2282
g13
VWHNP
p2283
sbag0
(g1
g2
(lp2284
g0
(g1
g2
(lp2285
g0
(g1
g2
(lp2286
Vis
p2287
atp2288
Rp2289
(dp2290
g13
VVBZ
p2291
sbag0
(g1
g2
(lp2292
g0
(g1
g2
(lp2293
Vjust
p2294
atp2295
Rp2296
(dp2297
g13
VRB
p2298
sbatp2299
Rp2300
(dp2301
g13
VADVP
p2302
sbatp2303
Rp2304
(dp2305
g13
VVP
p2306
sbatp2307
Rp2308
(dp2309
g13
VS
p2310
sbatp2311
Rp2312
(dp2313
g13
VSBAR
p2314
sbatp2315
Rp2316
(dp2317
g13
VNP
p2318
sbatp2319
Rp2320
(dp2321
g13
VPP
p2322
sbatp2323
Rp2324
(dp2325
g13
VVP
p2326
sbatp2327
Rp2328
(dp2329
g13
VVP
p2330
sbatp2331
Rp2332
(dp2333
g13
VS
p2334
sbatp2335
Rp2336
(dp2337
g13
VVP
p2338
sbatp2339
Rp2340
(dp2341
g13
VS
p2342
sbatp2343
Rp2344
(dp2345
g13
VSBAR
p2346
sbatp2347
Rp2348
(dp2349
g13
VNP
p2350
sbag0
(g1
g2
(lp2351
g0
(g1
g2
(lp2352
Vis
p2353
atp2354
Rp2355
(dp2356
g13
VVBZ
p2357
sbag0
(g1
g2
(lp2358
g0
(g1
g2
(lp2359
Vjust
p2360
atp2361
Rp2362
(dp2363
g13
VRB
p2364
sbatp2365
Rp2366
(dp2367
g13
VADVP
p2368
sbag0
(g1
g2
(lp2369
g0
(g1
g2
(lp2370
Vbeing
p2371
atp2372
Rp2373
(dp2374
g13
VVBG
p2375
sbag0
(g1
g2
(lp2376
g0
(g1
g2
(lp2377
Venjoyed
p2378
atp2379
Rp2380
(dp2381
g13
VVBN
p2382
sbag0
(g1
g2
(lp2383
g0
(g1
g2
(lp2384
Vby
p2385
atp2386
Rp2387
(dp2388
g13
VIN
p2389
sbag0
(g1
g2
(lp2390
g0
(g1
g2
(lp2391
g0
(g1
g2
(lp2392
Vthe
p2393
atp2394
Rp2395
(dp2396
g13
VDT
p2397
sbag0
(g1
g2
(lp2398
Vcrowd
p2399
atp2400
Rp2401
(dp2402
g13
VNN
p2403
sbatp2404
Rp2405
(dp2406
g13
VNP
p2407
sbag0
(g1
g2
(lp2408
g0
(g1
g2
(lp2409
Von
p2410
atp2411
Rp2412
(dp2413
g13
VIN
p2414
sbag0
(g1
g2
(lp2415
g0
(g1
g2
(lp2416
Vthe
p2417
atp2418
Rp2419
(dp2420
g13
VDT
p2421
sbag0
(g1
g2
(lp2422
Vother
p2423
atp2424
Rp2425
(dp2426
g13
VJJ
p2427
sbag0
(g1
g2
(lp2428
Vside
p2429
atp2430
Rp2431
(dp2432
g13
VNN
p2433
sbatp2434
Rp2435
(dp2436
g13
VNP
p2437
sbatp2438
Rp2439
(dp2440
g13
VPP
p2441
sbatp2442
Rp2443
(dp2444
g13
VNP
p2445
sbatp2446
Rp2447
(dp2448
g13
VPP
p2449
sbatp2450
Rp2451
(dp2452
g13
VVP
p2453
sbatp2454
Rp2455
(dp2456
g13
VVP
p2457
sbatp2458
Rp2459
(dp2460
g13
VVP
p2461
sbatp2462
Rp2463
(dp2464
g13
VS
p2465
sbatp2466
Rp2467
(dp2468
g13
VSBAR
p2469
sbag0
(g1
g2
(lp2470
V.
p2471
atp2472
Rp2473
(dp2474
g13
V.
p2475
sbatp2476
Rp2477
(dp2478
g13
VS
p2479
sbatp2480
Rp2481
(dp2482
g13
S'id: 9'
p2483
sbag0
(g1
g2
(lp2484
g0
(g1
g2
(lp2485
g0
(g1
g2
(lp2486
g0
(g1
g2
(lp2487
VObviously
p2488
atp2489
Rp2490
(dp2491
g13
VRB
p2492
sbatp2493
Rp2494
(dp2495
g13
VADVP
p2496
sbag0
(g1
g2
(lp2497
g0
(g1
g2
(lp2498
Vof
p2499
atp2500
Rp2501
(dp2502
g13
VIN
p2503
sbag0
(g1
g2
(lp2504
g0
(g1
g2
(lp2505
Vall
p2506
atp2507
Rp2508
(dp2509
g13
VDT
p2510
sbag0
(g1
g2
(lp2511
Vages
p2512
atp2513
Rp2514
(dp2515
g13
VNNS
p2516
sbatp2517
Rp2518
(dp2519
g13
VNP
p2520
sbatp2521
Rp2522
(dp2523
g13
VPP
p2524
sbag0
(g1
g2
(lp2525
g0
(g1
g2
(lp2526
Vbecause
p2527
atp2528
Rp2529
(dp2530
g13
VIN
p2531
sbag0
(g1
g2
(lp2532
g0
(g1
g2
(lp2533
Vof
p2534
atp2535
Rp2536
(dp2537
g13
VIN
p2538
sbag0
(g1
g2
(lp2539
g0
(g1
g2
(lp2540
Vthe
p2541
atp2542
Rp2543
(dp2544
g13
VDT
p2545
sbag0
(g1
g2
(lp2546
Vsize
p2547
atp2548
Rp2549
(dp2550
g13
VNN
p2551
sbatp2552
Rp2553
(dp2554
g13
VNP
p2555
sbatp2556
Rp2557
(dp2558
g13
VPP
p2559
sbatp2560
Rp2561
(dp2562
g13
VPP
p2563
sbag0
(g1
g2
(lp2564
V,
p2565
atp2566
Rp2567
(dp2568
g13
V,
p2569
sbag0
(g1
g2
(lp2570
g0
(g1
g2
(lp2571
Vlooks
p2572
atp2573
Rp2574
(dp2575
g13
VVBZ
p2576
sbag0
(g1
g2
(lp2577
g0
(g1
g2
(lp2578
Vlike
p2579
atp2580
Rp2581
(dp2582
g13
VIN
p2583
sbag0
(g1
g2
(lp2584
g0
(g1
g2
(lp2585
g0
(g1
g2
(lp2586
Vboth
p2587
atp2588
Rp2589
(dp2590
g13
VDT
p2591
sbag0
(g1
g2
(lp2592
Vmen
p2593
atp2594
Rp2595
(dp2596
g13
VNNS
p2597
sbatp2598
Rp2599
(dp2600
g13
VNP
p2601
sbag0
(g1
g2
(lp2602
V,
p2603
atp2604
Rp2605
(dp2606
g13
V,
p2607
sbag0
(g1
g2
(lp2608
g0
(g1
g2
(lp2609
Vwomen
p2610
atp2611
Rp2612
(dp2613
g13
VNNS
p2614
sbatp2615
Rp2616
(dp2617
g13
VNP
p2618
sbag0
(g1
g2
(lp2619
V,
p2620
atp2621
Rp2622
(dp2623
g13
V,
p2624
sbag0
(g1
g2
(lp2625
Vand
p2626
atp2627
Rp2628
(dp2629
g13
VCC
p2630
sbag0
(g1
g2
(lp2631
g0
(g1
g2
(lp2632
Vchildren
p2633
atp2634
Rp2635
(dp2636
g13
VNNS
p2637
sbatp2638
Rp2639
(dp2640
g13
VNP
p2641
sbatp2642
Rp2643
(dp2644
g13
VNP
p2645
sbatp2646
Rp2647
(dp2648
g13
VPP
p2649
sbatp2650
Rp2651
(dp2652
g13
VVP
p2653
sbag0
(g1
g2
(lp2654
V.
p2655
atp2656
Rp2657
(dp2658
g13
V.
p2659
sbatp2660
Rp2661
(dp2662
g13
VS
p2663
sbatp2664
Rp2665
(dp2666
g13
S'id: 10'
p2667
sbag0
(g1
g2
(lp2668
g0
(g1
g2
(lp2669
g0
(g1
g2
(lp2670
VAnd
p2671
atp2672
Rp2673
(dp2674
g13
VCC
p2675
sbag0
(g1
g2
(lp2676
g0
(g1
g2
(lp2677
Von
p2678
atp2679
Rp2680
(dp2681
g13
VIN
p2682
sbag0
(g1
g2
(lp2683
g0
(g1
g2
(lp2684
g0
(g1
g2
(lp2685
g0
(g1
g2
(lp2686
Vtop
p2687
atp2688
Rp2689
(dp2690
g13
VNN
p2691
sbatp2692
Rp2693
(dp2694
g13
VNP
p2695
sbag0
(g1
g2
(lp2696
g0
(g1
g2
(lp2697
Vis
p2698
atp2699
Rp2700
(dp2701
g13
VVBZ
p2702
sbag0
(g1
g2
(lp2703
g0
(g1
g2
(lp2704
Vthe
p2705
atp2706
Rp2707
(dp2708
g13
VDT
p2709
sbag0
(g1
g2
(lp2710
Vtight
p2711
atp2712
Rp2713
(dp2714
g13
VJJ
p2715
sbag0
(g1
g2
(lp2716
Vrope
p2717
atp2718
Rp2719
(dp2720
g13
VNN
p2721
sbag0
(g1
g2
(lp2722
Vwalker
p2723
atp2724
Rp2725
(dp2726
g13
VNN
p2727
sbatp2728
Rp2729
(dp2730
g13
VNP
p2731
sbatp2732
Rp2733
(dp2734
g13
VVP
p2735
sbatp2736
Rp2737
(dp2738
g13
VS
p2739
sbag0
(g1
g2
(lp2740
V,
p2741
atp2742
Rp2743
(dp2744
g13
V,
p2745
sbag0
(g1
g2
(lp2746
Vand
p2747
atp2748
Rp2749
(dp2750
g13
VCC
p2751
sbag0
(g1
g2
(lp2752
g0
(g1
g2
(lp2753
g0
(g1
g2
(lp2754
Vhe
p2755
atp2756
Rp2757
(dp2758
g13
VPRP
p2759
sbatp2760
Rp2761
(dp2762
g13
VNP
p2763
sbag0
(g1
g2
(lp2764
g0
(g1
g2
(lp2765
Vis
p2766
atp2767
Rp2768
(dp2769
g13
VVBZ
p2770
sbag0
(g1
g2
(lp2771
g0
(g1
g2
(lp2772
Vvery
p2773
atp2774
Rp2775
(dp2776
g13
VRB
p2777
sbag0
(g1
g2
(lp2778
g0
(g1
g2
(lp2779
g0
(g1
g2
(lp2780
Vgingerly
p2781
atp2782
Rp2783
(dp2784
g13
VRB
p2785
sbatp2786
Rp2787
(dp2788
g13
VADVP
p2789
sbag0
(g1
g2
(lp2790
Vstepping
p2791
atp2792
Rp2793
(dp2794
g13
VVBG
p2795
sbag0
(g1
g2
(lp2796
g0
(g1
g2
(lp2797
Vacross
p2798
atp2799
Rp2800
(dp2801
g13
VIN
p2802
sbag0
(g1
g2
(lp2803
g0
(g1
g2
(lp2804
Vthe
p2805
atp2806
Rp2807
(dp2808
g13
VDT
p2809
sbag0
(g1
g2
(lp2810
Vbalance
p2811
atp2812
Rp2813
(dp2814
g13
VNN
p2815
sbag0
(g1
g2
(lp2816
Vbeam
p2817
atp2818
Rp2819
(dp2820
g13
VNN
p2821
sbatp2822
Rp2823
(dp2824
g13
VNP
p2825
sbatp2826
Rp2827
(dp2828
g13
VPP
p2829
sbatp2830
Rp2831
(dp2832
g13
VVP
p2833
sbatp2834
Rp2835
(dp2836
g13
VADVP
p2837
sbag0
(g1
g2
(lp2838
V,
p2839
atp2840
Rp2841
(dp2842
g13
V,
p2843
sbag0
(g1
g2
(lp2844
g0
(g1
g2
(lp2845
Vacross
p2846
atp2847
Rp2848
(dp2849
g13
VIN
p2850
sbag0
(g1
g2
(lp2851
g0
(g1
g2
(lp2852
Vthe
p2853
atp2854
Rp2855
(dp2856
g13
VDT
p2857
sbag0
(g1
g2
(lp2858
Vtight
p2859
atp2860
Rp2861
(dp2862
g13
VJJ
p2863
sbag0
(g1
g2
(lp2864
Vrope
p2865
atp2866
Rp2867
(dp2868
g13
VNN
p2869
sbatp2870
Rp2871
(dp2872
g13
VNP
p2873
sbatp2874
Rp2875
(dp2876
g13
VPP
p2877
sbag0
(g1
g2
(lp2878
V,
p2879
atp2880
Rp2881
(dp2882
g13
V,
p2883
sbag0
(g1
g2
(lp2884
g0
(g1
g2
(lp2885
Vwith
p2886
atp2887
Rp2888
(dp2889
g13
VIN
p2890
sbag0
(g1
g2
(lp2891
g0
(g1
g2
(lp2892
Vhis
p2893
atp2894
Rp2895
(dp2896
g13
VPRP$
p2897
sbatp2898
Rp2899
(dp2900
g13
VNP
p2901
sbatp2902
Rp2903
(dp2904
g13
VPP
p2905
sbatp2906
Rp2907
(dp2908
g13
VVP
p2909
sbatp2910
Rp2911
(dp2912
g13
VS
p2913
sbatp2914
Rp2915
(dp2916
g13
VS
p2917
sbatp2918
Rp2919
(dp2920
g13
VPP
p2921
sbag0
(g1
g2
(lp2922
V,
p2923
atp2924
Rp2925
(dp2926
g13
V,
p2927
sbag0
(g1
g2
(lp2928
g0
(g1
g2
(lp2929
VI
p2930
atp2931
Rp2932
(dp2933
g13
VPRP
p2934
sbatp2935
Rp2936
(dp2937
g13
VNP
p2938
sbag0
(g1
g2
(lp2939
g0
(g1
g2
(lp2940
Vguess
p2941
atp2942
Rp2943
(dp2944
g13
VVBP
p2945
sbag0
(g1
g2
(lp2946
g0
(g1
g2
(lp2947
g0
(g1
g2
(lp2948
Vyou
p2949
atp2950
Rp2951
(dp2952
g13
VPRP
p2953
sbatp2954
Rp2955
(dp2956
g13
VNP
p2957
sbag0
(g1
g2
(lp2958
g0
(g1
g2
(lp2959
Vcall
p2960
atp2961
Rp2962
(dp2963
g13
VVB
p2964
sbag0
(g1
g2
(lp2965
g0
(g1
g2
(lp2966
Vthat
p2967
atp2968
Rp2969
(dp2970
g13
VDT
p2971
sbag0
(g1
g2
(lp2972
Vbalancing
p2973
atp2974
Rp2975
(dp2976
g13
VVBG
p2977
sbag0
(g1
g2
(lp2978
Vstick
p2979
atp2980
Rp2981
(dp2982
g13
VNN
p2983
sbatp2984
Rp2985
(dp2986
g13
VNP
p2987
sbatp2988
Rp2989
(dp2990
g13
VVP
p2991
sbatp2992
Rp2993
(dp2994
g13
VS
p2995
sbatp2996
Rp2997
(dp2998
g13
VVP
p2999
sbag0
(g1
g2
(lp3000
V.
p3001
atp3002
Rp3003
(dp3004
g13
V.
p3005
sbatp3006
Rp3007
(dp3008
g13
VS
p3009
sbatp3010
Rp3011
(dp3012
g13
S'id: 11'
p3013
sbag0
(g1
g2
(lp3014
g0
(g1
g2
(lp3015
g0
(g1
g2
(lp3016
VAnd
p3017
atp3018
Rp3019
(dp3020
g13
VCC
p3021
sbag0
(g1
g2
(lp3022
g0
(g1
g2
(lp3023
Vhe
p3024
atp3025
Rp3026
(dp3027
g13
VPRP
p3028
sbatp3029
Rp3030
(dp3031
g13
VNP
p3032
sbag0
(g1
g2
(lp3033
g0
(g1
g2
(lp3034
Vlooks
p3035
atp3036
Rp3037
(dp3038
g13
VVBZ
p3039
sbag0
(g1
g2
(lp3040
g0
(g1
g2
(lp3041
g0
(g1
g2
(lp3042
Vto
p3043
atp3044
Rp3045
(dp3046
g13
VTO
p3047
sbag0
(g1
g2
(lp3048
g0
(g1
g2
(lp3049
Vbe
p3050
atp3051
Rp3052
(dp3053
g13
VVB
p3054
sbag0
(g1
g2
(lp3055
g0
(g1
g2
(lp3056
Vvery
p3057
atp3058
Rp3059
(dp3060
g13
VRB
p3061
sbag0
(g1
g2
(lp3062
Vyoung
p3063
atp3064
Rp3065
(dp3066
g13
VJJ
p3067
sbatp3068
Rp3069
(dp3070
g13
VADJP
p3071
sbatp3072
Rp3073
(dp3074
g13
VVP
p3075
sbatp3076
Rp3077
(dp3078
g13
VVP
p3079
sbatp3080
Rp3081
(dp3082
g13
VS
p3083
sbatp3084
Rp3085
(dp3086
g13
VVP
p3087
sbag0
(g1
g2
(lp3088
V.
p3089
atp3090
Rp3091
(dp3092
g13
V.
p3093
sbatp3094
Rp3095
(dp3096
g13
VS
p3097
sbatp3098
Rp3099
(dp3100
g13
S'id: 12'
p3101
sbag0
(g1
g2
(lp3102
g0
(g1
g2
(lp3103
g0
(g1
g2
(lp3104
VAnd
p3105
atp3106
Rp3107
(dp3108
g13
VCC
p3109
sbag0
(g1
g2
(lp3110
g0
(g1
g2
(lp3111
Vif
p3112
atp3113
Rp3114
(dp3115
g13
VIN
p3116
sbag0
(g1
g2
(lp3117
g0
(g1
g2
(lp3118
g0
(g1
g2
(lp3119
Vthis
p3120
atp3121
Rp3122
(dp3123
g13
VDT
p3124
sbatp3125
Rp3126
(dp3127
g13
VNP
p3128
sbag0
(g1
g2
(lp3129
g0
(g1
g2
(lp3130
Vwas
p3131
atp3132
Rp3133
(dp3134
g13
VVBD
p3135
sbag0
(g1
g2
(lp3136
g0
(g1
g2
(lp3137
Vin
p3138
atp3139
Rp3140
(dp3141
g13
VIN
p3142
sbatp3143
Rp3144
(dp3145
g13
VPP
p3146
sbatp3147
Rp3148
(dp3149
g13
VVP
p3150
sbatp3151
Rp3152
(dp3153
g13
VS
p3154
sbatp3155
Rp3156
(dp3157
g13
VSBAR
p3158
sbag0
(g1
g2
(lp3159
V.
p3160
atp3161
Rp3162
(dp3163
g13
V.
p3164
sbatp3165
Rp3166
(dp3167
g13
VFRAG
p3168
sbatp3169
Rp3170
(dp3171
g13
S'id: 13'
p3172
sbatp3173
Rp3174
(dp3175
g13
S'sentences'
p3176
sb.