ccopy_reg
_reconstructor
p0
(cnltk.tree
Tree
p1
c__builtin__
list
p2
(lp3
g0
(g1
g2
(lp4
tp5
Rp6
(dp7
S'_label'
p8
S'id: 0'
p9
sbag0
(g1
g2
(lp10
g0
(g1
g2
(lp11
g0
(g1
g2
(lp12
(lp13
S'word: flowing, index: 20'
p14
aatp15
Rp16
(dp17
g8
Vprep
p18
sbag0
(g1
g2
(lp19
g0
(g1
g2
(lp20
g0
(g1
g2
(lp21
g0
(g1
g2
(lp22
g0
(g1
g2
(lp23
g0
(g1
g2
(lp24
g0
(g1
g2
(lp25
(lp26
S"word: 's, index: 6"
p27
aatp28
Rp29
(dp30
g8
Vpossessive
p31
sbatp32
Rp33
(dp34
g8
S'word: mother, index: 5'
p35
sbatp36
Rp37
(dp38
g8
Vappos
p39
sbag0
(g1
g2
(lp40
(lp41
S'word: the, index: 2'
p42
aatp43
Rp44
(dp45
g8
Vdet
p46
sbatp47
Rp48
(dp49
g8
S'word: kitchen, index: 3'
p50
sbatp51
Rp52
(dp53
g8
Vnsubj
p54
sbag0
(g1
g2
(lp55
g0
(g1
g2
(lp56
g0
(g1
g2
(lp57
g0
(g1
g2
(lp58
g0
(g1
g2
(lp59
g0
(g1
g2
(lp60
g0
(g1
g2
(lp61
(lp62
S'word: the, index: 11'
p63
aatp64
Rp65
(dp66
g8
Vdet
p67
sbatp68
Rp69
(dp70
g8
S'word: dishes, index: 12'
p71
sbatp72
Rp73
(dp74
g8
Vdobj
p75
sbatp76
Rp77
(dp78
g8
S'word: washing, index: 10'
p79
sbatp80
Rp81
(dp82
g8
Vvmod
p83
sbag0
(g1
g2
(lp84
(lp85
S'word: course, index: 15'
p86
aatp87
Rp88
(dp89
g8
Vprep
p90
sbatp91
Rp92
(dp93
g8
S'word: the, index: 8'
p94
sbatp95
Rp96
(dp97
g8
Vdobj
p98
sbatp99
Rp100
(dp101
g8
S'word: washing, index: 7'
p102
sbatp103
Rp104
(dp105
g8
Vprepc
p106
sbag0
(g1
g2
(lp107
g0
(g1
g2
(lp108
g0
(g1
g2
(lp109
(lp110
S'word: the, index: 16'
p111
aatp112
Rp113
(dp114
g8
Vdet
p115
sbatp116
Rp117
(dp118
g8
S'word: sink, index: 17'
p119
sbatp120
Rp121
(dp122
g8
Vnsubj
p123
sbatp124
Rp125
(dp126
g8
S'word: is, index: 18'
p127
sbatp128
Rp129
(dp130
g8
S'id: 1'
p131
sbag0
(g1
g2
(lp132
g0
(g1
g2
(lp133
g0
(g1
g2
(lp134
g0
(g1
g2
(lp135
g0
(g1
g2
(lp136
g0
(g1
g2
(lp137
g0
(g1
g2
(lp138
(lp139
S'word: the, index: 7'
p140
aatp141
Rp142
(dp143
g8
Vdet
p144
sbag0
(g1
g2
(lp145
(lp146
S'word: cookie, index: 8'
p147
aatp148
Rp149
(dp150
g8
Vnn
p151
sbatp152
Rp153
(dp154
g8
S'word: jar, index: 9'
p155
sbatp156
Rp157
(dp158
g8
Vdobj
p159
sbag0
(g1
g2
(lp160
g0
(g1
g2
(lp161
g0
(g1
g2
(lp162
(lp163
S'word: the, index: 11'
p164
aatp165
Rp166
(dp167
g8
Vdet
p168
sbag0
(g1
g2
(lp169
(lp170
S'word: top, index: 12'
p171
aatp172
Rp173
(dp174
g8
Vamod
p175
sbatp176
Rp177
(dp178
g8
S'word: cabinet, index: 13'
p179
sbatp180
Rp181
(dp182
g8
Vprep
p183
sbatp184
Rp185
(dp186
g8
S'word: raving, index: 6'
p187
sbatp188
Rp189
(dp190
g8
Vvmod
p191
sbag0
(g1
g2
(lp192
(lp193
S'word: kids, index: 1'
p194
aatp195
Rp196
(dp197
g8
Vnsubj
p198
sbag0
(g1
g2
(lp199
(lp200
S'word: are, index: 2'
p201
aatp202
Rp203
(dp204
g8
Vaux
p205
sbag0
(g1
g2
(lp206
(lp207
S'word: rave, index: 4'
p208
aatp209
Rp210
(dp211
g8
Vccomp
p212
sbatp213
Rp214
(dp215
g8
S'word: getting, index: 3'
p216
sbatp217
Rp218
(dp219
g8
S'id: 2'
p220
sbag0
(g1
g2
(lp221
g0
(g1
g2
(lp222
g0
(g1
g2
(lp223
(lp224
S'word: her, index: 1'
p225
aatp226
Rp227
(dp228
g8
Vposs
p229
sbag0
(g1
g2
(lp230
(lp231
S"word: 's, index: 3"
p232
aatp233
Rp234
(dp235
g8
Vpossessive
p236
sbag0
(g1
g2
(lp237
(lp238
S'word: about, index: 4'
p239
aatp240
Rp241
(dp242
g8
Vprep
p243
sbag0
(g1
g2
(lp244
g0
(g1
g2
(lp245
g0
(g1
g2
(lp246
g0
(g1
g2
(lp247
g0
(g1
g2
(lp248
(lp249
S'word: the, index: 8'
p250
aatp251
Rp252
(dp253
g8
Vdet
p254
sbatp255
Rp256
(dp257
g8
S'word: stool, index: 9'
p258
sbatp259
Rp260
(dp261
g8
Vprep
p262
sbag0
(g1
g2
(lp263
(lp264
S'word: to, index: 5'
p265
aatp266
Rp267
(dp268
g8
Vaux
p269
sbatp270
Rp271
(dp272
g8
S'word: fall, index: 6'
p273
sbatp274
Rp275
(dp276
g8
Vvmod
p277
sbatp278
Rp279
(dp280
g8
S'word: son, index: 2'
p281
sbatp282
Rp283
(dp284
g8
S'id: 3'
p285
sbag0
(g1
g2
(lp286
g0
(g1
g2
(lp287
g0
(g1
g2
(lp288
(lp289
S'word: that, index: 1'
p290
aatp291
Rp292
(dp293
g8
Vnsubj
p294
sbag0
(g1
g2
(lp295
g0
(g1
g2
(lp296
g0
(g1
g2
(lp297
g0
(g1
g2
(lp298
g0
(g1
g2
(lp299
(lp300
S'word: that, index: 6'
p301
aatp302
Rp303
(dp304
g8
Vdet
p305
sbatp306
Rp307
(dp308
g8
S'word: one, index: 7'
p309
sbatp310
Rp311
(dp312
g8
Vprep
p313
sbatp314
Rp315
(dp316
g8
S'word: it, index: 4'
p317
sbatp318
Rp319
(dp320
g8
Vprep
p321
sbatp322
Rp323
(dp324
g8
S"word: 's, index: 2"
p325
sbatp326
Rp327
(dp328
g8
S'id: 4'
p329
sbag0
(g1
g2
(lp330
g0
(g1
g2
(lp331
g0
(g1
g2
(lp332
(lp333
S'word: there, index: 1'
p334
aatp335
Rp336
(dp337
g8
Vexpl
p338
sbag0
(g1
g2
(lp339
g0
(g1
g2
(lp340
g0
(g1
g2
(lp341
(lp342
S'word: two, index: 3'
p343
aatp344
Rp345
(dp346
g8
Vnum
p347
sbag0
(g1
g2
(lp348
g0
(g1
g2
(lp349
g0
(g1
g2
(lp350
(lp351
S'word: a, index: 6'
p352
aatp353
Rp354
(dp355
g8
Vdet
p356
sbag0
(g1
g2
(lp357
g0
(g1
g2
(lp358
g0
(g1
g2
(lp359
(lp360
S'word: the, index: 9'
p361
aatp362
Rp363
(dp364
g8
Vdet
p365
sbag0
(g1
g2
(lp366
g0
(g1
g2
(lp367
g0
(g1
g2
(lp368
(lp369
S'word: the, index: 12'
p370
aatp371
Rp372
(dp373
g8
Vdet
p374
sbatp375
Rp376
(dp377
g8
S'word: counter, index: 13'
p378
sbatp379
Rp380
(dp381
g8
Vappos
p382
sbatp383
Rp384
(dp385
g8
S'word: counter, index: 10'
p386
sbatp387
Rp388
(dp389
g8
Vprep
p390
sbatp391
Rp392
(dp393
g8
S'word: plate, index: 7'
p394
sbatp395
Rp396
(dp397
g8
Vappos
p398
sbatp399
Rp400
(dp401
g8
S'word: cups, index: 4'
p402
sbatp403
Rp404
(dp405
g8
Vnsubj
p406
sbatp407
Rp408
(dp409
g8
S"word: 's, index: 2"
p410
sbatp411
Rp412
(dp413
g8
S'id: 5'
p414
sbag0
(g1
g2
(lp415
g0
(g1
g2
(lp416
g0
(g1
g2
(lp417
g0
(g1
g2
(lp418
g0
(g1
g2
(lp419
(lp420
S'word: the, index: 3'
p421
aatp422
Rp423
(dp424
g8
Vdet
p425
sbag0
(g1
g2
(lp426
g0
(g1
g2
(lp427
g0
(g1
g2
(lp428
(lp429
S'word: the, index: 6'
p430
aatp431
Rp432
(dp433
g8
Vdet
p434
sbatp435
Rp436
(dp437
g8
S'word: trees, index: 7'
p438
sbatp439
Rp440
(dp441
g8
Vconj
p442
sbag0
(g1
g2
(lp443
g0
(g1
g2
(lp444
g0
(g1
g2
(lp445
(lp446
S'word: outside, index: 18'
p447
aatp448
Rp449
(dp450
g8
Vadvmod
p451
sbag0
(g1
g2
(lp452
(lp453
S'word: the, index: 10'
p454
aatp455
Rp456
(dp457
g8
Vdet
p458
sbag0
(g1
g2
(lp459
g0
(g1
g2
(lp460
g0
(g1
g2
(lp461
(lp462
S'word: the, index: 15'
p463
aatp464
Rp465
(dp466
g8
Vprep
p467
sbatp468
Rp469
(dp470
g8
S'word: bushes, index: 11'
p471
sbatp472
Rp473
(dp474
g8
Vdep
p475
sbatp476
Rp477
(dp478
g8
S'word: bushes, index: 17'
p479
sbatp480
Rp481
(dp482
g8
Vconj
p483
sbatp484
Rp485
(dp486
g8
S'word: flowers, index: 4'
p487
sbatp488
Rp489
(dp490
g8
Vdobj
p491
sbag0
(g1
g2
(lp492
g436
atp493
Rp494
(dp495
g8
Vdobj
p496
sbag0
(g1
g2
(lp497
(lp498
S'word: I, index: 1'
p499
aatp500
Rp501
(dp502
g8
Vnsubj
p503
sbag0
(g1
g2
(lp504
g477
atp505
Rp506
(dp507
g8
Vdobj
p508
sbatp509
Rp510
(dp511
g8
S'word: see, index: 2'
p512
sbatp513
Rp514
(dp515
g8
S'id: 6'
p516
sbag0
(g1
g2
(lp517
g0
(g1
g2
(lp518
g0
(g1
g2
(lp519
g0
(g1
g2
(lp520
g0
(g1
g2
(lp521
g0
(g1
g2
(lp522
g0
(g1
g2
(lp523
(lp524
S'word: the, index: 7'
p525
aatp526
Rp527
(dp528
g8
Vdet
p529
sbatp530
Rp531
(dp532
g8
S'word: sidewalk, index: 8'
p533
sbatp534
Rp535
(dp536
g8
Vdep
p537
sbatp538
Rp539
(dp540
g8
S'word: there, index: 6'
p541
sbatp542
Rp543
(dp544
g8
Vprep
p545
sbag0
(g1
g2
(lp546
g0
(g1
g2
(lp547
g0
(g1
g2
(lp548
(lp549
S'word: the, index: 3'
p550
aatp551
Rp552
(dp553
g8
Vdet
p554
sbatp555
Rp556
(dp557
g8
S'word: garage, index: 4'
p558
sbatp559
Rp560
(dp561
g8
Vprep
p562
sbatp563
Rp564
(dp565
g8
S'word: looks, index: 1'
p566
sbatp567
Rp568
(dp569
g8
S'id: 7'
p570
sbag0
(g1
g2
(lp571
g0
(g1
g2
(lp572
g0
(g1
g2
(lp573
g0
(g1
g2
(lp574
g0
(g1
g2
(lp575
(lp576
S"word: 's, index: 2"
p577
aatp578
Rp579
(dp580
g8
Vnsubj
p581
sbag0
(g1
g2
(lp582
g0
(g1
g2
(lp583
g0
(g1
g2
(lp584
(lp585
S'word: a, index: 4'
p586
aatp587
Rp588
(dp589
g8
Vdet
p590
sbatp591
Rp592
(dp593
g8
S'word: dress, index: 5'
p594
sbatp595
Rp596
(dp597
g8
Vdobj
p598
sbatp599
Rp600
(dp601
g8
S'word: wearing, index: 3'
p602
sbatp603
Rp604
(dp605
g8
Vdep
p606
sbatp607
Rp608
(dp609
g8
S'word: mom, index: 1'
p610
sbatp611
Rp612
(dp613
g8
S'id: 8'
p614
sbag0
(g1
g2
(lp615
g0
(g1
g2
(lp616
g0
(g1
g2
(lp617
(lp618
S'word: what, index: 1'
p619
aatp620
Rp621
(dp622
g8
Vdobj
p623
sbag0
(g1
g2
(lp624
(lp625
S'word: am, index: 2'
p626
aatp627
Rp628
(dp629
g8
Vaux
p630
sbag0
(g1
g2
(lp631
(lp632
S'word: I, index: 3'
p633
aatp634
Rp635
(dp636
g8
Vnsubj
p637
sbag0
(g1
g2
(lp638
(lp639
S'word: here, index: 5'
p640
aatp641
Rp642
(dp643
g8
Vadvmod
p644
sbatp645
Rp646
(dp647
g8
S'word: missing, index: 4'
p648
sbatp649
Rp650
(dp651
g8
S'id: 9'
p652
sbatp653
Rp654
(dp655
g8
S'sentences'
p656
sb.