ccopy_reg
_reconstructor
p0
(cnltk.tree
Tree
p1
c__builtin__
list
p2
(lp3
g0
(g1
g2
(lp4
g0
(g1
g2
(lp5
g0
(g1
g2
(lp6
g0
(g1
g2
(lp7
VThe
p8
atp9
Rp10
(dp11
S'_label'
p12
VDT
p13
sbatp14
Rp15
(dp16
g12
VNP
p17
sbag0
(g1
g2
(lp18
V,
p19
atp20
Rp21
(dp22
g12
V,
p23
sbag0
(g1
g2
(lp24
g0
(g1
g2
(lp25
Vthere
p26
atp27
Rp28
(dp29
g12
VEX
p30
sbatp31
Rp32
(dp33
g12
VNP
p34
sbag0
(g1
g2
(lp35
g0
(g1
g2
(lp36
Vis
p37
atp38
Rp39
(dp40
g12
VVBZ
p41
sbag0
(g1
g2
(lp42
g0
(g1
g2
(lp43
g0
(g1
g2
(lp44
Va
p45
atp46
Rp47
(dp48
g12
VDT
p49
sbag0
(g1
g2
(lp50
Vpicnic
p51
atp52
Rp53
(dp54
g12
VNN
p55
sbatp56
Rp57
(dp58
g12
VNP
p59
sbag0
(g1
g2
(lp60
g0
(g1
g2
(lp61
Von
p62
atp63
Rp64
(dp65
g12
VIN
p66
sbag0
(g1
g2
(lp67
g0
(g1
g2
(lp68
g0
(g1
g2
(lp69
Vthe
p70
atp71
Rp72
(dp73
g12
VDT
p74
sbag0
(g1
g2
(lp75
Vlake
p76
atp77
Rp78
(dp79
g12
VNN
p80
sbatp81
Rp82
(dp83
g12
VNP
p84
sbag0
(g1
g2
(lp85
g0
(g1
g2
(lp86
Vgoing
p87
atp88
Rp89
(dp90
g12
VVBG
p91
sbag0
(g1
g2
(lp92
g0
(g1
g2
(lp93
Von
p94
atp95
Rp96
(dp97
g12
VIN
p98
sbatp99
Rp100
(dp101
g12
VPP
p102
sbatp103
Rp104
(dp105
g12
VVP
p106
sbatp107
Rp108
(dp109
g12
VNP
p110
sbatp111
Rp112
(dp113
g12
VPP
p114
sbatp115
Rp116
(dp117
g12
VNP
p118
sbatp119
Rp120
(dp121
g12
VVP
p122
sbag0
(g1
g2
(lp123
V.
p124
atp125
Rp126
(dp127
g12
V.
p128
sbatp129
Rp130
(dp131
g12
VS
p132
sbatp133
Rp134
(dp135
g12
S'id: 0'
p136
sbag0
(g1
g2
(lp137
g0
(g1
g2
(lp138
g0
(g1
g2
(lp139
VBeautiful
p140
atp141
Rp142
(dp143
g12
VJJ
p144
sbag0
(g1
g2
(lp145
Vday
p146
atp147
Rp148
(dp149
g12
VNN
p150
sbag0
(g1
g2
(lp151
V.
p152
atp153
Rp154
(dp155
g12
V.
p156
sbatp157
Rp158
(dp159
g12
VNP
p160
sbatp161
Rp162
(dp163
g12
S'id: 1'
p164
sbag0
(g1
g2
(lp165
g0
(g1
g2
(lp166
g0
(g1
g2
(lp167
g0
(g1
g2
(lp168
VThere
p169
atp170
Rp171
(dp172
g12
VEX
p173
sbatp174
Rp175
(dp176
g12
VNP
p177
sbag0
(g1
g2
(lp178
g0
(g1
g2
(lp179
V's
p180
atp181
Rp182
(dp183
g12
VVBZ
p184
sbag0
(g1
g2
(lp185
g0
(g1
g2
(lp186
g0
(g1
g2
(lp187
Va
p188
atp189
Rp190
(dp191
g12
VDT
p192
sbag0
(g1
g2
(lp193
Vtree
p194
atp195
Rp196
(dp197
g12
VNN
p198
sbatp199
Rp200
(dp201
g12
VNP
p202
sbag0
(g1
g2
(lp203
V,
p204
atp205
Rp206
(dp207
g12
V,
p208
sbag0
(g1
g2
(lp209
g0
(g1
g2
(lp210
g0
(g1
g2
(lp211
Va
p212
atp213
Rp214
(dp215
g12
VDT
p216
sbag0
(g1
g2
(lp217
Vbig
p218
atp219
Rp220
(dp221
g12
VJJ
p222
sbag0
(g1
g2
(lp223
Vtree
p224
atp225
Rp226
(dp227
g12
VNN
p228
sbatp229
Rp230
(dp231
g12
VNP
p232
sbag0
(g1
g2
(lp233
g0
(g1
g2
(lp234
Vby
p235
atp236
Rp237
(dp238
g12
VIN
p239
sbag0
(g1
g2
(lp240
g0
(g1
g2
(lp241
g0
(g1
g2
(lp242
Vthe
p243
atp244
Rp245
(dp246
g12
VDT
p247
sbag0
(g1
g2
(lp248
Vhouse
p249
atp250
Rp251
(dp252
g12
VNN
p253
sbatp254
Rp255
(dp256
g12
VNP
p257
sbag0
(g1
g2
(lp258
g0
(g1
g2
(lp259
Vwith
p260
atp261
Rp262
(dp263
g12
VIN
p264
sbag0
(g1
g2
(lp265
g0
(g1
g2
(lp266
g0
(g1
g2
(lp267
Va
p268
atp269
Rp270
(dp271
g12
VDT
p272
sbag0
(g1
g2
(lp273
Vcar
p274
atp275
Rp276
(dp277
g12
VNN
p278
sbatp279
Rp280
(dp281
g12
VNP
p282
sbag0
(g1
g2
(lp283
g0
(g1
g2
(lp284
Vparked
p285
atp286
Rp287
(dp288
g12
VVBN
p289
sbag0
(g1
g2
(lp290
g0
(g1
g2
(lp291
Vnext
p292
atp293
Rp294
(dp295
g12
VJJ
p296
sbatp297
Rp298
(dp299
g12
VADVP
p300
sbag0
(g1
g2
(lp301
g0
(g1
g2
(lp302
Vto
p303
atp304
Rp305
(dp306
g12
VTO
p307
sbag0
(g1
g2
(lp308
g0
(g1
g2
(lp309
g0
(g1
g2
(lp310
Vit
p311
atp312
Rp313
(dp314
g12
VPRP
p315
sbatp316
Rp317
(dp318
g12
VNP
p319
sbag0
(g1
g2
(lp320
V,
p321
atp322
Rp323
(dp324
g12
V,
p325
sbag0
(g1
g2
(lp326
g0
(g1
g2
(lp327
Vthe
p328
atp329
Rp330
(dp331
g12
VDT
p332
sbag0
(g1
g2
(lp333
Vhouse
p334
atp335
Rp336
(dp337
g12
VNN
p338
sbatp339
Rp340
(dp341
g12
VNP
p342
sbatp343
Rp344
(dp345
g12
VNP
p346
sbatp347
Rp348
(dp349
g12
VPP
p350
sbatp351
Rp352
(dp353
g12
VVP
p354
sbatp355
Rp356
(dp357
g12
VNP
p358
sbatp359
Rp360
(dp361
g12
VPP
p362
sbatp363
Rp364
(dp365
g12
VNP
p366
sbatp367
Rp368
(dp369
g12
VPP
p370
sbatp371
Rp372
(dp373
g12
VNP
p374
sbatp375
Rp376
(dp377
g12
VNP
p378
sbatp379
Rp380
(dp381
g12
VVP
p382
sbag0
(g1
g2
(lp383
V.
p384
atp385
Rp386
(dp387
g12
V.
p388
sbatp389
Rp390
(dp391
g12
VS
p392
sbatp393
Rp394
(dp395
g12
S'id: 2'
p396
sbag0
(g1
g2
(lp397
g0
(g1
g2
(lp398
g0
(g1
g2
(lp399
g0
(g1
g2
(lp400
VThere
p401
atp402
Rp403
(dp404
g12
VEX
p405
sbatp406
Rp407
(dp408
g12
VNP
p409
sbag0
(g1
g2
(lp410
g0
(g1
g2
(lp411
V's
p412
atp413
Rp414
(dp415
g12
VVBZ
p416
sbag0
(g1
g2
(lp417
g0
(g1
g2
(lp418
Va
p419
atp420
Rp421
(dp422
g12
VDT
p423
sbag0
(g1
g2
(lp424
VAmerican
p425
atp426
Rp427
(dp428
g12
VJJ
p429
sbag0
(g1
g2
(lp430
Vflag
p431
atp432
Rp433
(dp434
g12
VNN
p435
sbatp436
Rp437
(dp438
g12
VNP
p439
sbatp440
Rp441
(dp442
g12
VVP
p443
sbag0
(g1
g2
(lp444
V.
p445
atp446
Rp447
(dp448
g12
V.
p449
sbatp450
Rp451
(dp452
g12
VS
p453
sbatp454
Rp455
(dp456
g12
S'id: 3'
p457
sbag0
(g1
g2
(lp458
g0
(g1
g2
(lp459
g0
(g1
g2
(lp460
g0
(g1
g2
(lp461
VThere
p462
atp463
Rp464
(dp465
g12
VEX
p466
sbatp467
Rp468
(dp469
g12
VNP
p470
sbag0
(g1
g2
(lp471
g0
(g1
g2
(lp472
V's
p473
atp474
Rp475
(dp476
g12
VVBZ
p477
sbag0
(g1
g2
(lp478
g0
(g1
g2
(lp479
g0
(g1
g2
(lp480
Va
p481
atp482
Rp483
(dp484
g12
VDT
p485
sbag0
(g1
g2
(lp486
Vkite
p487
atp488
Rp489
(dp490
g12
VNN
p491
sbatp492
Rp493
(dp494
g12
VNP
p495
sbag0
(g1
g2
(lp496
g0
(g1
g2
(lp497
Vbeing
p498
atp499
Rp500
(dp501
g12
VVBG
p502
sbag0
(g1
g2
(lp503
g0
(g1
g2
(lp504
Vflown
p505
atp506
Rp507
(dp508
g12
VVBN
p509
sbag0
(g1
g2
(lp510
g0
(g1
g2
(lp511
Vthe
p512
atp513
Rp514
(dp515
g12
VDT
p516
sbag0
(g1
g2
(lp517
Vbo
p518
atp519
Rp520
(dp521
g12
VNN
p522
sbatp523
Rp524
(dp525
g12
VNP
p526
sbag0
(g1
g2
(lp527
V,
p528
atp529
Rp530
(dp531
g12
V,
p532
sbag0
(g1
g2
(lp533
g0
(g1
g2
(lp534
Vby
p535
atp536
Rp537
(dp538
g12
VIN
p539
sbag0
(g1
g2
(lp540
g0
(g1
g2
(lp541
Vthe
p542
atp543
Rp544
(dp545
g12
VDT
p546
sbag0
(g1
g2
(lp547
Vboy
p548
atp549
Rp550
(dp551
g12
VNN
p552
sbatp553
Rp554
(dp555
g12
VNP
p556
sbatp557
Rp558
(dp559
g12
VPP
p560
sbatp561
Rp562
(dp563
g12
VVP
p564
sbatp565
Rp566
(dp567
g12
VVP
p568
sbatp569
Rp570
(dp571
g12
VNP
p572
sbatp573
Rp574
(dp575
g12
VVP
p576
sbag0
(g1
g2
(lp577
V.
p578
atp579
Rp580
(dp581
g12
V.
p582
sbatp583
Rp584
(dp585
g12
VS
p586
sbatp587
Rp588
(dp589
g12
S'id: 4'
p590
sbag0
(g1
g2
(lp591
g0
(g1
g2
(lp592
g0
(g1
g2
(lp593
g0
(g1
g2
(lp594
VA
p595
atp596
Rp597
(dp598
g12
VDT
p599
sbag0
(g1
g2
(lp600
Vsandcastle
p601
atp602
Rp603
(dp604
g12
VNN
p605
sbatp606
Rp607
(dp608
g12
VNP
p609
sbag0
(g1
g2
(lp610
g0
(g1
g2
(lp611
Vbeing
p612
atp613
Rp614
(dp615
g12
VVBG
p616
sbag0
(g1
g2
(lp617
g0
(g1
g2
(lp618
Vbuilt
p619
atp620
Rp621
(dp622
g12
VVBN
p623
sbag0
(g1
g2
(lp624
g0
(g1
g2
(lp625
Vby
p626
atp627
Rp628
(dp629
g12
VIN
p630
sbag0
(g1
g2
(lp631
g0
(g1
g2
(lp632
Vthe
p633
atp634
Rp635
(dp636
g12
VDT
p637
sbag0
(g1
g2
(lp638
Vsister
p639
atp640
Rp641
(dp642
g12
VNN
p643
sbatp644
Rp645
(dp646
g12
VNP
p647
sbatp648
Rp649
(dp650
g12
VPP
p651
sbatp652
Rp653
(dp654
g12
VVP
p655
sbatp656
Rp657
(dp658
g12
VVP
p659
sbag0
(g1
g2
(lp660
V.
p661
atp662
Rp663
(dp664
g12
V.
p665
sbatp666
Rp667
(dp668
g12
VNP
p669
sbatp670
Rp671
(dp672
g12
S'id: 5'
p673
sbag0
(g1
g2
(lp674
g0
(g1
g2
(lp675
g0
(g1
g2
(lp676
g0
(g1
g2
(lp677
VThere
p678
atp679
Rp680
(dp681
g12
VEX
p682
sbatp683
Rp684
(dp685
g12
VNP
p686
sbag0
(g1
g2
(lp687
g0
(g1
g2
(lp688
V's
p689
atp690
Rp691
(dp692
g12
VVBZ
p693
sbag0
(g1
g2
(lp694
g0
(g1
g2
(lp695
Valso
p696
atp697
Rp698
(dp699
g12
VRB
p700
sbatp701
Rp702
(dp703
g12
VADVP
p704
sbag0
(g1
g2
(lp705
g0
(g1
g2
(lp706
g0
(g1
g2
(lp707
Va
p708
atp709
Rp710
(dp711
g12
VDT
p712
sbag0
(g1
g2
(lp713
Vdog
p714
atp715
Rp716
(dp717
g12
VNN
p718
sbatp719
Rp720
(dp721
g12
VNP
p722
sbag0
(g1
g2
(lp723
g0
(g1
g2
(lp724
Vrunning
p725
atp726
Rp727
(dp728
g12
VVBG
p729
sbag0
(g1
g2
(lp730
g0
(g1
g2
(lp731
Vbehind
p732
atp733
Rp734
(dp735
g12
VIN
p736
sbag0
(g1
g2
(lp737
g0
(g1
g2
(lp738
Vthe
p739
atp740
Rp741
(dp742
g12
VDT
p743
sbag0
(g1
g2
(lp744
Vboy
p745
atp746
Rp747
(dp748
g12
VNN
p749
sbatp750
Rp751
(dp752
g12
VNP
p753
sbatp754
Rp755
(dp756
g12
VPP
p757
sbatp758
Rp759
(dp760
g12
VVP
p761
sbatp762
Rp763
(dp764
g12
VNP
p765
sbatp766
Rp767
(dp768
g12
VVP
p769
sbag0
(g1
g2
(lp770
V.
p771
atp772
Rp773
(dp774
g12
V.
p775
sbatp776
Rp777
(dp778
g12
VS
p779
sbatp780
Rp781
(dp782
g12
S'id: 6'
p783
sbag0
(g1
g2
(lp784
g0
(g1
g2
(lp785
g0
(g1
g2
(lp786
VAnd
p787
atp788
Rp789
(dp790
g12
VCC
p791
sbag0
(g1
g2
(lp792
g0
(g1
g2
(lp793
Vit
p794
atp795
Rp796
(dp797
g12
VPRP
p798
sbatp799
Rp800
(dp801
g12
VNP
p802
sbag0
(g1
g2
(lp803
g0
(g1
g2
(lp804
Vlo
p805
atp806
Rp807
(dp808
g12
VFW
p809
sbatp810
Rp811
(dp812
g12
VNP
p813
sbag0
(g1
g2
(lp814
g0
(g1
g2
(lp815
Vlooks
p816
atp817
Rp818
(dp819
g12
VVBZ
p820
sbag0
(g1
g2
(lp821
g0
(g1
g2
(lp822
Vlike
p823
atp824
Rp825
(dp826
g12
VIN
p827
sbag0
(g1
g2
(lp828
g0
(g1
g2
(lp829
Vguess
p830
atp831
Rp832
(dp833
g12
VNN
p834
sbatp835
Rp836
(dp837
g12
VNP
p838
sbatp839
Rp840
(dp841
g12
VPP
p842
sbag0
(g1
g2
(lp843
g0
(g1
g2
(lp844
g0
(g1
g2
(lp845
Va
p846
atp847
Rp848
(dp849
g12
VDT
p850
sbag0
(g1
g2
(lp851
Vgranddad
p852
atp853
Rp854
(dp855
g12
VNN
p856
sbatp857
Rp858
(dp859
g12
VNP
p860
sbag0
(g1
g2
(lp861
g0
(g1
g2
(lp862
Vcatching
p863
atp864
Rp865
(dp866
g12
VVBG
p867
sbag0
(g1
g2
(lp868
g0
(g1
g2
(lp869
g0
(g1
g2
(lp870
Va
p871
atp872
Rp873
(dp874
g12
VDT
p875
sbag0
(g1
g2
(lp876
Vfish
p877
atp878
Rp879
(dp880
g12
VNN
p881
sbatp882
Rp883
(dp884
g12
VNP
p885
sbag0
(g1
g2
(lp886
g0
(g1
g2
(lp887
Von
p888
atp889
Rp890
(dp891
g12
VIN
p892
sbag0
(g1
g2
(lp893
g0
(g1
g2
(lp894
Vthe
p895
atp896
Rp897
(dp898
g12
VDT
p899
sbag0
(g1
g2
(lp900
Vdock
p901
atp902
Rp903
(dp904
g12
VNN
p905
sbatp906
Rp907
(dp908
g12
VNP
p909
sbatp910
Rp911
(dp912
g12
VPP
p913
sbatp914
Rp915
(dp916
g12
VNP
p917
sbatp918
Rp919
(dp920
g12
VVP
p921
sbatp922
Rp923
(dp924
g12
VNP
p925
sbatp926
Rp927
(dp928
g12
VVP
p929
sbag0
(g1
g2
(lp930
V.
p931
atp932
Rp933
(dp934
g12
V.
p935
sbatp936
Rp937
(dp938
g12
VS
p939
sbatp940
Rp941
(dp942
g12
S'id: 7'
p943
sbag0
(g1
g2
(lp944
g0
(g1
g2
(lp945
g0
(g1
g2
(lp946
g0
(g1
g2
(lp947
VThere
p948
atp949
Rp950
(dp951
g12
VEX
p952
sbatp953
Rp954
(dp955
g12
VNP
p956
sbag0
(g1
g2
(lp957
g0
(g1
g2
(lp958
V's
p959
atp960
Rp961
(dp962
g12
VVBZ
p963
sbag0
(g1
g2
(lp964
g0
(g1
g2
(lp965
g0
(g1
g2
(lp966
Va
p967
atp968
Rp969
(dp970
g12
VDT
p971
sbag0
(g1
g2
(lp972
Vmom
p973
atp974
Rp975
(dp976
g12
VNN
p977
sbatp978
Rp979
(dp980
g12
VNP
p981
sbag0
(g1
g2
(lp982
g0
(g1
g2
(lp983
Vpouring
p984
atp985
Rp986
(dp987
g12
VVBG
p988
sbag0
(g1
g2
(lp989
g0
(g1
g2
(lp990
Vherself
p991
atp992
Rp993
(dp994
g12
VPRP
p995
sbag0
(g1
g2
(lp996
Vsomething
p997
atp998
Rp999
(dp1000
g12
VNN
p1001
sbatp1002
Rp1003
(dp1004
g12
VNP
p1005
sbag0
(g1
g2
(lp1006
g0
(g1
g2
(lp1007
g0
(g1
g2
(lp1008
Vto
p1009
atp1010
Rp1011
(dp1012
g12
VTO
p1013
sbag0
(g1
g2
(lp1014
g0
(g1
g2
(lp1015
g0
(g1
g2
(lp1016
Vdrink
p1017
atp1018
Rp1019
(dp1020
g12
VVB
p1021
sbatp1022
Rp1023
(dp1024
g12
VVP
p1025
sbag0
(g1
g2
(lp1026
V,
p1027
atp1028
Rp1029
(dp1030
g12
V,
p1031
sbag0
(g1
g2
(lp1032
Vand
p1033
atp1034
Rp1035
(dp1036
g12
VCC
p1037
sbag0
(g1
g2
(lp1038
g0
(g1
g2
(lp1039
Vlisten
p1040
atp1041
Rp1042
(dp1043
g12
VVB
p1044
sbag0
(g1
g2
(lp1045
g0
(g1
g2
(lp1046
Vto
p1047
atp1048
Rp1049
(dp1050
g12
VTO
p1051
sbag0
(g1
g2
(lp1052
g0
(g1
g2
(lp1053
g0
(g1
g2
(lp1054
Vthe
p1055
atp1056
Rp1057
(dp1058
g12
VDT
p1059
sbag0
(g1
g2
(lp1060
Vradio
p1061
atp1062
Rp1063
(dp1064
g12
VNN
p1065
sbatp1066
Rp1067
(dp1068
g12
VNP
p1069
sbag0
(g1
g2
(lp1070
g0
(g1
g2
(lp1071
Vbeside
p1072
atp1073
Rp1074
(dp1075
g12
VIN
p1076
sbag0
(g1
g2
(lp1077
g0
(g1
g2
(lp1078
Vher
p1079
atp1080
Rp1081
(dp1082
g12
VPRP$
p1083
sbatp1084
Rp1085
(dp1086
g12
VNP
p1087
sbatp1088
Rp1089
(dp1090
g12
VPP
p1091
sbatp1092
Rp1093
(dp1094
g12
VNP
p1095
sbatp1096
Rp1097
(dp1098
g12
VPP
p1099
sbag0
(g1
g2
(lp1100
g0
(g1
g2
(lp1101
Vquietely
p1102
atp1103
Rp1104
(dp1105
g12
VRB
p1106
sbatp1107
Rp1108
(dp1109
g12
VADVP
p1110
sbag0
(g1
g2
(lp1111
V,
p1112
atp1113
Rp1114
(dp1115
g12
V,
p1116
sbag0
(g1
g2
(lp1117
g0
(g1
g2
(lp1118
Vwhile
p1119
atp1120
Rp1121
(dp1122
g12
VIN
p1123
sbag0
(g1
g2
(lp1124
g0
(g1
g2
(lp1125
g0
(g1
g2
(lp1126
Vthe
p1127
atp1128
Rp1129
(dp1130
g12
VDT
p1131
sbag0
(g1
g2
(lp1132
Vdaddy
p1133
atp1134
Rp1135
(dp1136
g12
VJJ
p1137
sbatp1138
Rp1139
(dp1140
g12
VNP
p1141
sbag0
(g1
g2
(lp1142
g0
(g1
g2
(lp1143
Vreads
p1144
atp1145
Rp1146
(dp1147
g12
VVBZ
p1148
sbag0
(g1
g2
(lp1149
g0
(g1
g2
(lp1150
g0
(g1
g2
(lp1151
Va
p1152
atp1153
Rp1154
(dp1155
g12
VDT
p1156
sbag0
(g1
g2
(lp1157
Vbook
p1158
atp1159
Rp1160
(dp1161
g12
VNN
p1162
sbatp1163
Rp1164
(dp1165
g12
VNP
p1166
sbag0
(g1
g2
(lp1167
g0
(g1
g2
(lp1168
Von
p1169
atp1170
Rp1171
(dp1172
g12
VIN
p1173
sbag0
(g1
g2
(lp1174
g0
(g1
g2
(lp1175
g0
(g1
g2
(lp1176
Vthe
p1177
atp1178
Rp1179
(dp1180
g12
VDT
p1181
sbag0
(g1
g2
(lp1182
Vquilt
p1183
atp1184
Rp1185
(dp1186
g12
VNN
p1187
sbatp1188
Rp1189
(dp1190
g12
VNP
p1191
sbag0
(g1
g2
(lp1192
g0
(g1
g2
(lp1193
Vwith
p1194
atp1195
Rp1196
(dp1197
g12
VIN
p1198
sbag0
(g1
g2
(lp1199
g0
(g1
g2
(lp1200
Vhis
p1201
atp1202
Rp1203
(dp1204
g12
VPRP$
p1205
sbag0
(g1
g2
(lp1206
Vshoes
p1207
atp1208
Rp1209
(dp1210
g12
VNNS
p1211
sbatp1212
Rp1213
(dp1214
g12
VNP
p1215
sbatp1216
Rp1217
(dp1218
g12
VPP
p1219
sbatp1220
Rp1221
(dp1222
g12
VNP
p1223
sbatp1224
Rp1225
(dp1226
g12
VPP
p1227
sbatp1228
Rp1229
(dp1230
g12
VNP
p1231
sbag0
(g1
g2
(lp1232
g0
(g1
g2
(lp1233
Voff
p1234
atp1235
Rp1236
(dp1237
g12
VRP
p1238
sbatp1239
Rp1240
(dp1241
g12
VPP
p1242
sbatp1243
Rp1244
(dp1245
g12
VVP
p1246
sbatp1247
Rp1248
(dp1249
g12
VS
p1250
sbatp1251
Rp1252
(dp1253
g12
VSBAR
p1254
sbatp1255
Rp1256
(dp1257
g12
VVP
p1258
sbatp1259
Rp1260
(dp1261
g12
VVP
p1262
sbatp1263
Rp1264
(dp1265
g12
VVP
p1266
sbatp1267
Rp1268
(dp1269
g12
VS
p1270
sbatp1271
Rp1272
(dp1273
g12
VVP
p1274
sbatp1275
Rp1276
(dp1277
g12
VNP
p1278
sbatp1279
Rp1280
(dp1281
g12
VVP
p1282
sbag0
(g1
g2
(lp1283
V.
p1284
atp1285
Rp1286
(dp1287
g12
V.
p1288
sbatp1289
Rp1290
(dp1291
g12
VS
p1292
sbatp1293
Rp1294
(dp1295
g12
S'id: 8'
p1296
sbag0
(g1
g2
(lp1297
g0
(g1
g2
(lp1298
g0
(g1
g2
(lp1299
g0
(g1
g2
(lp1300
VThey
p1301
atp1302
Rp1303
(dp1304
g12
VPRP
p1305
sbatp1306
Rp1307
(dp1308
g12
VNP
p1309
sbag0
(g1
g2
(lp1310
g0
(g1
g2
(lp1311
Vseem
p1312
atp1313
Rp1314
(dp1315
g12
VVBP
p1316
sbag0
(g1
g2
(lp1317
g0
(g1
g2
(lp1318
g0
(g1
g2
(lp1319
Vto
p1320
atp1321
Rp1322
(dp1323
g12
VTO
p1324
sbag0
(g1
g2
(lp1325
g0
(g1
g2
(lp1326
Vbe
p1327
atp1328
Rp1329
(dp1330
g12
VVB
p1331
sbag0
(g1
g2
(lp1332
g0
(g1
g2
(lp1333
g0
(g1
g2
(lp1334
Vall
p1335
atp1336
Rp1337
(dp1338
g12
VDT
p1339
sbag0
(g1
g2
(lp1340
Vrelaxing
p1341
atp1342
Rp1343
(dp1344
g12
VNN
p1345
sbatp1346
Rp1347
(dp1348
g12
VNP
p1349
sbag0
(g1
g2
(lp1350
V,
p1351
atp1352
Rp1353
(dp1354
g12
V,
p1355
sbag0
(g1
g2
(lp1356
Vand
p1357
atp1358
Rp1359
(dp1360
g12
VCC
p1361
sbag0
(g1
g2
(lp1362
g0
(g1
g2
(lp1363
Vhaving
p1364
atp1365
Rp1366
(dp1367
g12
VVBG
p1368
sbag0
(g1
g2
(lp1369
g0
(g1
g2
(lp1370
g0
(g1
g2
(lp1371
Va
p1372
atp1373
Rp1374
(dp1375
g12
VDT
p1376
sbag0
(g1
g2
(lp1377
Vgood
p1378
atp1379
Rp1380
(dp1381
g12
VJJ
p1382
sbag0
(g1
g2
(lp1383
Vtime
p1384
atp1385
Rp1386
(dp1387
g12
VNN
p1388
sbatp1389
Rp1390
(dp1391
g12
VNP
p1392
sbag0
(g1
g2
(lp1393
g0
(g1
g2
(lp1394
Vat
p1395
atp1396
Rp1397
(dp1398
g12
VIN
p1399
sbag0
(g1
g2
(lp1400
g0
(g1
g2
(lp1401
Vthe
p1402
atp1403
Rp1404
(dp1405
g12
VDT
p1406
sbag0
(g1
g2
(lp1407
Vlake
p1408
atp1409
Rp1410
(dp1411
g12
VNN
p1412
sbatp1413
Rp1414
(dp1415
g12
VNP
p1416
sbatp1417
Rp1418
(dp1419
g12
VPP
p1420
sbatp1421
Rp1422
(dp1423
g12
VNP
p1424
sbatp1425
Rp1426
(dp1427
g12
VVP
p1428
sbatp1429
Rp1430
(dp1431
g12
VUCP
p1432
sbatp1433
Rp1434
(dp1435
g12
VVP
p1436
sbatp1437
Rp1438
(dp1439
g12
VVP
p1440
sbatp1441
Rp1442
(dp1443
g12
VS
p1444
sbatp1445
Rp1446
(dp1447
g12
VVP
p1448
sbag0
(g1
g2
(lp1449
V.
p1450
atp1451
Rp1452
(dp1453
g12
V.
p1454
sbatp1455
Rp1456
(dp1457
g12
VS
p1458
sbatp1459
Rp1460
(dp1461
g12
S'id: 9'
p1462
sbag0
(g1
g2
(lp1463
g0
(g1
g2
(lp1464
g0
(g1
g2
(lp1465
g0
(g1
g2
(lp1466
VThere
p1467
atp1468
Rp1469
(dp1470
g12
VEX
p1471
sbatp1472
Rp1473
(dp1474
g12
VNP
p1475
sbag0
(g1
g2
(lp1476
g0
(g1
g2
(lp1477
Vis
p1478
atp1479
Rp1480
(dp1481
g12
VVBZ
p1482
sbag0
(g1
g2
(lp1483
g0
(g1
g2
(lp1484
Valso
p1485
atp1486
Rp1487
(dp1488
g12
VRB
p1489
sbatp1490
Rp1491
(dp1492
g12
VADVP
p1493
sbag0
(g1
g2
(lp1494
g0
(g1
g2
(lp1495
Vsome
p1496
atp1497
Rp1498
(dp1499
g12
VDT
p1500
sbag0
(g1
g2
(lp1501
Vpeople
p1502
atp1503
Rp1504
(dp1505
g12
VNNS
p1506
sbatp1507
Rp1508
(dp1509
g12
VNP
p1510
sbag0
(g1
g2
(lp1511
g0
(g1
g2
(lp1512
Vout
p1513
atp1514
Rp1515
(dp1516
g12
VIN
p1517
sbag0
(g1
g2
(lp1518
g0
(g1
g2
(lp1519
Vin
p1520
atp1521
Rp1522
(dp1523
g12
VIN
p1524
sbag0
(g1
g2
(lp1525
g0
(g1
g2
(lp1526
Vsailboats
p1527
atp1528
Rp1529
(dp1530
g12
VNNS
p1531
sbatp1532
Rp1533
(dp1534
g12
VNP
p1535
sbatp1536
Rp1537
(dp1538
g12
VPP
p1539
sbatp1540
Rp1541
(dp1542
g12
VPP
p1543
sbatp1544
Rp1545
(dp1546
g12
VVP
p1547
sbag0
(g1
g2
(lp1548
V.
p1549
atp1550
Rp1551
(dp1552
g12
V.
p1553
sbatp1554
Rp1555
(dp1556
g12
VS
p1557
sbatp1558
Rp1559
(dp1560
g12
S'id: 10'
p1561
sbag0
(g1
g2
(lp1562
g0
(g1
g2
(lp1563
g0
(g1
g2
(lp1564
g0
(g1
g2
(lp1565
VI
p1566
atp1567
Rp1568
(dp1569
g12
VPRP
p1570
sbatp1571
Rp1572
(dp1573
g12
VNP
p1574
sbag0
(g1
g2
(lp1575
g0
(g1
g2
(lp1576
Vdont
p1577
atp1578
Rp1579
(dp1580
g12
VVBP
p1581
sbag0
(g1
g2
(lp1582
g0
(g1
g2
(lp1583
Vknow
p1584
atp1585
Rp1586
(dp1587
g12
VVB
p1588
sbag0
(g1
g2
(lp1589
g0
(g1
g2
(lp1590
Vwhether
p1591
atp1592
Rp1593
(dp1594
g12
VIN
p1595
sbag0
(g1
g2
(lp1596
g0
(g1
g2
(lp1597
g0
(g1
g2
(lp1598
Vit
p1599
atp1600
Rp1601
(dp1602
g12
VPRP
p1603
sbatp1604
Rp1605
(dp1606
g12
VNP
p1607
sbag0
(g1
g2
(lp1608
g0
(g1
g2
(lp1609
V's
p1610
atp1611
Rp1612
(dp1613
g12
VVBZ
p1614
sbag0
(g1
g2
(lp1615
g0
(g1
g2
(lp1616
g0
(g1
g2
(lp1617
g0
(g1
g2
(lp1618
g0
(g1
g2
(lp1619
Vthey
p1620
atp1621
Rp1622
(dp1623
g12
VPRP
p1624
sbatp1625
Rp1626
(dp1627
g12
VNP
p1628
sbag0
(g1
g2
(lp1629
g0
(g1
g2
(lp1630
Vlived
p1631
atp1632
Rp1633
(dp1634
g12
VVBD
p1635
sbag0
(g1
g2
(lp1636
g0
(g1
g2
(lp1637
Vhere
p1638
atp1639
Rp1640
(dp1641
g12
VRB
p1642
sbatp1643
Rp1644
(dp1645
g12
VADVP
p1646
sbatp1647
Rp1648
(dp1649
g12
VVP
p1650
sbatp1651
Rp1652
(dp1653
g12
VS
p1654
sbatp1655
Rp1656
(dp1657
g12
VSBAR
p1658
sbag0
(g1
g2
(lp1659
V,
p1660
atp1661
Rp1662
(dp1663
g12
V,
p1664
sbag0
(g1
g2
(lp1665
Vor
p1666
atp1667
Rp1668
(dp1669
g12
VCC
p1670
sbag0
(g1
g2
(lp1671
g0
(g1
g2
(lp1672
Vif
p1673
atp1674
Rp1675
(dp1676
g12
VIN
p1677
sbag0
(g1
g2
(lp1678
g0
(g1
g2
(lp1679
g0
(g1
g2
(lp1680
Vit
p1681
atp1682
Rp1683
(dp1684
g12
VPRP
p1685
sbatp1686
Rp1687
(dp1688
g12
VNP
p1689
sbag0
(g1
g2
(lp1690
g0
(g1
g2
(lp1691
V's
p1692
atp1693
Rp1694
(dp1695
g12
VVBZ
p1696
sbag0
(g1
g2
(lp1697
g0
(g1
g2
(lp1698
Va
p1699
atp1700
Rp1701
(dp1702
g12
VDT
p1703
sbag0
(g1
g2
(lp1704
g0
(g1
g2
(lp1705
g0
(g1
g2
(lp1706
Vvacation
p1707
atp1708
Rp1709
(dp1710
g12
VNN
p1711
sbag0
(g1
g2
(lp1712
Vhome
p1713
atp1714
Rp1715
(dp1716
g12
VNN
p1717
sbatp1718
Rp1719
(dp1720
g12
VNX
p1721
sbag0
(g1
g2
(lp1722
V,
p1723
atp1724
Rp1725
(dp1726
g12
V,
p1727
sbag0
(g1
g2
(lp1728
Vor
p1729
atp1730
Rp1731
(dp1732
g12
VCC
p1733
sbag0
(g1
g2
(lp1734
g0
(g1
g2
(lp1735
g0
(g1
g2
(lp1736
Vplace
p1737
atp1738
Rp1739
(dp1740
g12
VNN
p1741
sbatp1742
Rp1743
(dp1744
g12
VNP
p1745
sbag0
(g1
g2
(lp1746
g0
(g1
g2
(lp1747
Vthat
p1748
atp1749
Rp1750
(dp1751
g12
VIN
p1752
sbag0
(g1
g2
(lp1753
g0
(g1
g2
(lp1754
g0
(g1
g2
(lp1755
Vthey
p1756
atp1757
Rp1758
(dp1759
g12
VPRP
p1760
sbatp1761
Rp1762
(dp1763
g12
VNP
p1764
sbag0
(g1
g2
(lp1765
g0
(g1
g2
(lp1766
Vare
p1767
atp1768
Rp1769
(dp1770
g12
VVBP
p1771
sbag0
(g1
g2
(lp1772
g0
(g1
g2
(lp1773
Vjust
p1774
atp1775
Rp1776
(dp1777
g12
VRB
p1778
sbatp1779
Rp1780
(dp1781
g12
VADVP
p1782
sbag0
(g1
g2
(lp1783
g0
(g1
g2
(lp1784
Vvisiting
p1785
atp1786
Rp1787
(dp1788
g12
VVBG
p1789
sbatp1790
Rp1791
(dp1792
g12
VVP
p1793
sbatp1794
Rp1795
(dp1796
g12
VVP
p1797
sbatp1798
Rp1799
(dp1800
g12
VS
p1801
sbatp1802
Rp1803
(dp1804
g12
VSBAR
p1805
sbatp1806
Rp1807
(dp1808
g12
VNX
p1809
sbatp1810
Rp1811
(dp1812
g12
VNX
p1813
sbatp1814
Rp1815
(dp1816
g12
VNP
p1817
sbatp1818
Rp1819
(dp1820
g12
VVP
p1821
sbatp1822
Rp1823
(dp1824
g12
VS
p1825
sbatp1826
Rp1827
(dp1828
g12
VSBAR
p1829
sbatp1830
Rp1831
(dp1832
g12
VSBAR
p1833
sbatp1834
Rp1835
(dp1836
g12
VVP
p1837
sbatp1838
Rp1839
(dp1840
g12
VS
p1841
sbatp1842
Rp1843
(dp1844
g12
VSBAR
p1845
sbatp1846
Rp1847
(dp1848
g12
VVP
p1849
sbatp1850
Rp1851
(dp1852
g12
VVP
p1853
sbag0
(g1
g2
(lp1854
V.
p1855
atp1856
Rp1857
(dp1858
g12
V.
p1859
sbatp1860
Rp1861
(dp1862
g12
VS
p1863
sbatp1864
Rp1865
(dp1866
g12
S'id: 11'
p1867
sbag0
(g1
g2
(lp1868
g0
(g1
g2
(lp1869
g0
(g1
g2
(lp1870
g0
(g1
g2
(lp1871
VThere
p1872
atp1873
Rp1874
(dp1875
g12
VEX
p1876
sbatp1877
Rp1878
(dp1879
g12
VNP
p1880
sbag0
(g1
g2
(lp1881
g0
(g1
g2
(lp1882
V's
p1883
atp1884
Rp1885
(dp1886
g12
VVBZ
p1887
sbag0
(g1
g2
(lp1888
g0
(g1
g2
(lp1889
g0
(g1
g2
(lp1890
Vbucket
p1891
atp1892
Rp1893
(dp1894
g12
VNN
p1895
sbatp1896
Rp1897
(dp1898
g12
VNP
p1899
sbag0
(g1
g2
(lp1900
Vand
p1901
atp1902
Rp1903
(dp1904
g12
VCC
p1905
sbag0
(g1
g2
(lp1906
g0
(g1
g2
(lp1907
Va
p1908
atp1909
Rp1910
(dp1911
g12
VDT
p1912
sbag0
(g1
g2
(lp1913
Vshovel
p1914
atp1915
Rp1916
(dp1917
g12
VNN
p1918
sbatp1919
Rp1920
(dp1921
g12
VNP
p1922
sbatp1923
Rp1924
(dp1925
g12
VNP
p1926
sbag0
(g1
g2
(lp1927
g0
(g1
g2
(lp1928
Vthat
p1929
atp1930
Rp1931
(dp1932
g12
VIN
p1933
sbag0
(g1
g2
(lp1934
g0
(g1
g2
(lp1935
g0
(g1
g2
(lp1936
Vthe
p1937
atp1938
Rp1939
(dp1940
g12
VDT
p1941
sbag0
(g1
g2
(lp1942
Vsiser
p1943
atp1944
Rp1945
(dp1946
g12
VNN
p1947
sbatp1948
Rp1949
(dp1950
g12
VNP
p1951
sbag0
(g1
g2
(lp1952
g0
(g1
g2
(lp1953
Vis
p1954
atp1955
Rp1956
(dp1957
g12
VVBZ
p1958
sbag0
(g1
g2
(lp1959
g0
(g1
g2
(lp1960
Vusing
p1961
atp1962
Rp1963
(dp1964
g12
VVBG
p1965
sbag0
(g1
g2
(lp1966
g0
(g1
g2
(lp1967
g0
(g1
g2
(lp1968
Vto
p1969
atp1970
Rp1971
(dp1972
g12
VTO
p1973
sbag0
(g1
g2
(lp1974
g0
(g1
g2
(lp1975
Vbuild
p1976
atp1977
Rp1978
(dp1979
g12
VVB
p1980
sbag0
(g1
g2
(lp1981
g0
(g1
g2
(lp1982
Vthe
p1983
atp1984
Rp1985
(dp1986
g12
VDT
p1987
sbag0
(g1
g2
(lp1988
Vsandcastle
p1989
atp1990
Rp1991
(dp1992
g12
VNN
p1993
sbatp1994
Rp1995
(dp1996
g12
VNP
p1997
sbatp1998
Rp1999
(dp2000
g12
VVP
p2001
sbatp2002
Rp2003
(dp2004
g12
VVP
p2005
sbatp2006
Rp2007
(dp2008
g12
VS
p2009
sbatp2010
Rp2011
(dp2012
g12
VVP
p2013
sbatp2014
Rp2015
(dp2016
g12
VVP
p2017
sbatp2018
Rp2019
(dp2020
g12
VS
p2021
sbatp2022
Rp2023
(dp2024
g12
VSBAR
p2025
sbatp2026
Rp2027
(dp2028
g12
VVP
p2029
sbatp2030
Rp2031
(dp2032
g12
VS
p2033
sbatp2034
Rp2035
(dp2036
g12
S'id: 12'
p2037
sbatp2038
Rp2039
(dp2040
g12
S'sentences'
p2041
sb.