ccopy_reg
_reconstructor
p0
(cnltk.tree
Tree
p1
c__builtin__
list
p2
(lp3
g0
(g1
g2
(lp4
g0
(g1
g2
(lp5
g0
(g1
g2
(lp6
g0
(g1
g2
(lp7
g0
(g1
g2
(lp8
(lp9
S'word: There, index: 1'
p10
aatp11
Rp12
(dp13
S'_label'
p14
Vexpl
p15
sbag0
(g1
g2
(lp16
(lp17
S'word: water, index: 3'
p18
aatp19
Rp20
(dp21
g14
Vnsubj
p22
sbatp23
Rp24
(dp25
g14
S"word: 's, index: 2"
p26
sbatp27
Rp28
(dp29
g14
Vccomp
p30
sbag0
(g1
g2
(lp31
(lp32
S'word: there, index: 5'
p33
aatp34
Rp35
(dp36
g14
Vexpl
p37
sbag0
(g1
g2
(lp38
g0
(g1
g2
(lp39
g0
(g1
g2
(lp40
(lp41
S'word: a, index: 7'
p42
aatp43
Rp44
(dp45
g14
Vdet
p46
sbag0
(g1
g2
(lp47
g0
(g1
g2
(lp48
g0
(g1
g2
(lp49
(lp50
S'word: the, index: 10'
p51
aatp52
Rp53
(dp54
g14
Vdet
p55
sbatp56
Rp57
(dp58
g14
S'word: water, index: 11'
p59
sbatp60
Rp61
(dp62
g14
Vprep
p63
sbatp64
Rp65
(dp66
g14
S'word: boat, index: 8'
p67
sbatp68
Rp69
(dp70
g14
Vnsubj
p71
sbatp72
Rp73
(dp74
g14
S"word: 's, index: 6"
p75
sbatp76
Rp77
(dp78
g14
S'id: 0'
p79
sbag0
(g1
g2
(lp80
g0
(g1
g2
(lp81
g0
(g1
g2
(lp82
g0
(g1
g2
(lp83
g0
(g1
g2
(lp84
(lp85
S'word: a, index: 3'
p86
aatp87
Rp88
(dp89
g14
Vdet
p90
sbag0
(g1
g2
(lp91
g0
(g1
g2
(lp92
g0
(g1
g2
(lp93
(lp94
S'word: an, index: 6'
p95
aatp96
Rp97
(dp98
g14
Vdet
p99
sbag0
(g1
g2
(lp100
g0
(g1
g2
(lp101
g0
(g1
g2
(lp102
(lp103
S'word: a, index: 7'
p104
aatp105
Rp106
(dp107
g14
Vdet
p108
sbatp109
Rp110
(dp111
g14
S'word: sail, index: 8'
p112
sbatp113
Rp114
(dp115
g14
Vnn
p116
sbag0
(g1
g2
(lp117
g0
(g1
g2
(lp118
g0
(g1
g2
(lp119
(lp120
S'word: the, index: 11'
p121
aatp122
Rp123
(dp124
g14
Vdet
p125
sbatp126
Rp127
(dp128
g14
S'word: water, index: 12'
p129
sbatp130
Rp131
(dp132
g14
Vprep
p133
sbatp134
Rp135
(dp136
g14
S'word: boat, index: 9'
p137
sbatp138
Rp139
(dp140
g14
Vappos
p141
sbatp142
Rp143
(dp144
g14
S'word: boat, index: 4'
p145
sbatp146
Rp147
(dp148
g14
Vnsubj
p149
sbag0
(g1
g2
(lp150
(lp151
S'word: There, index: 1'
p152
aatp153
Rp154
(dp155
g14
Vexpl
p156
sbatp157
Rp158
(dp159
g14
S"word: 's, index: 2"
p160
sbatp161
Rp162
(dp163
g14
S'id: 1'
p164
sbag0
(g1
g2
(lp165
g0
(g1
g2
(lp166
g0
(g1
g2
(lp167
(lp168
S'word: There, index: 1'
p169
aatp170
Rp171
(dp172
g14
Vexpl
p173
sbag0
(g1
g2
(lp174
g0
(g1
g2
(lp175
g0
(g1
g2
(lp176
g0
(g1
g2
(lp177
g0
(g1
g2
(lp178
(lp179
S'word: the, index: 7'
p180
aatp181
Rp182
(dp183
g14
Vdet
p184
sbatp185
Rp186
(dp187
g14
S'word: water, index: 8'
p188
sbatp189
Rp190
(dp191
g14
Vprep
p192
sbag0
(g1
g2
(lp193
(lp194
S'word: a, index: 3'
p195
aatp196
Rp197
(dp198
g14
Vdet
p199
sbag0
(g1
g2
(lp200
(lp201
S'word: boy, index: 4'
p202
aatp203
Rp204
(dp205
g14
Vnn
p206
sbatp207
Rp208
(dp209
g14
S'word: playing, index: 5'
p210
sbatp211
Rp212
(dp213
g14
Vnsubj
p214
sbatp215
Rp216
(dp217
g14
S"word: 's, index: 2"
p218
sbatp219
Rp220
(dp221
g14
S'id: 2'
p222
sbag0
(g1
g2
(lp223
g0
(g1
g2
(lp224
g0
(g1
g2
(lp225
(lp226
S'word: I, index: 1'
p227
aatp228
Rp229
(dp230
g14
Vnsubj
p231
sbag0
(g1
g2
(lp232
g0
(g1
g2
(lp233
g0
(g1
g2
(lp234
(lp235
S'word: a, index: 3'
p236
aatp237
Rp238
(dp239
g14
Vdet
p240
sbatp241
Rp242
(dp243
g14
S'word: fish, index: 4'
p244
sbatp245
Rp246
(dp247
g14
Vdobj
p248
sbatp249
Rp250
(dp251
g14
S'word: see, index: 2'
p252
sbatp253
Rp254
(dp255
g14
S'id: 3'
p256
sbag0
(g1
g2
(lp257
g0
(g1
g2
(lp258
g0
(g1
g2
(lp259
(lp260
S'word: I, index: 1'
p261
aatp262
Rp263
(dp264
g14
Vnsubj
p265
sbag0
(g1
g2
(lp266
(lp267
S'word: somebody, index: 3'
p268
aatp269
Rp270
(dp271
g14
Vdobj
p272
sbag0
(g1
g2
(lp273
g0
(g1
g2
(lp274
g0
(g1
g2
(lp275
(lp276
S'word: there, index: 5'
p277
aatp278
Rp279
(dp280
g14
Vadvmod
p281
sbag0
(g1
g2
(lp282
g0
(g1
g2
(lp283
g0
(g1
g2
(lp284
(lp285
S'word: the, index: 8'
p286
aatp287
Rp288
(dp289
g14
Vdet
p290
sbatp291
Rp292
(dp293
g14
S'word: sand, index: 9'
p294
sbatp295
Rp296
(dp297
g14
Vprep
p298
sbatp299
Rp300
(dp301
g14
S'word: playing, index: 6'
p302
sbatp303
Rp304
(dp305
g14
Vprepc
p306
sbatp307
Rp308
(dp309
g14
S'word: see, index: 2'
p310
sbatp311
Rp312
(dp313
g14
S'id: 4'
p314
sbag0
(g1
g2
(lp315
g0
(g1
g2
(lp316
g0
(g1
g2
(lp317
(lp318
S'word: I, index: 1'
p319
aatp320
Rp321
(dp322
g14
Vnsubj
p323
sbag0
(g1
g2
(lp324
g0
(g1
g2
(lp325
g0
(g1
g2
(lp326
(lp327
S'word: a, index: 3'
p328
aatp329
Rp330
(dp331
g14
Vdet
p332
sbatp333
Rp334
(dp335
g14
S'word: dog, index: 4'
p336
sbatp337
Rp338
(dp339
g14
Vdobj
p340
sbatp341
Rp342
(dp343
g14
S'word: see, index: 2'
p344
sbatp345
Rp346
(dp347
g14
S'id: 5'
p348
sbag0
(g1
g2
(lp349
g0
(g1
g2
(lp350
g0
(g1
g2
(lp351
(lp352
S'word: running, index: 4'
p353
aatp354
Rp355
(dp356
g14
Vconj
p357
sbag0
(g1
g2
(lp358
(lp359
S'word: Somebody, index: 1'
p360
aatp361
Rp362
(dp363
g14
Vnn
p364
sbatp365
Rp366
(dp367
g14
S'word: escape, index: 2'
p368
sbatp369
Rp370
(dp371
g14
S'id: 6'
p372
sbag0
(g1
g2
(lp373
g0
(g1
g2
(lp374
g0
(g1
g2
(lp375
(lp376
S'word: there, index: 3'
p377
aatp378
Rp379
(dp380
g14
Vprep
p381
sbatp382
Rp383
(dp384
g14
S'word: Look, index: 1'
p385
sbatp386
Rp387
(dp388
g14
S'id: 7'
p389
sbatp390
Rp391
(dp392
g14
S'sentences'
p393
sb.