ccopy_reg
_reconstructor
p0
(cnltk.tree
Tree
p1
c__builtin__
list
p2
(lp3
g0
(g1
g2
(lp4
g0
(g1
g2
(lp5
g0
(g1
g2
(lp6
VA cookie jar
p7
atp8
Rp9
(dp10
S'_label'
p11
S'start: 1'
p12
sbatp13
Rp14
(dp15
g11
S'sent: 2'
p16
sbag0
(g1
g2
(lp17
g0
(g1
g2
(lp18
Vthe jar
p19
atp20
Rp21
(dp22
g11
S'start: 10'
p23
sbatp24
Rp25
(dp26
g11
S'sent: 2'
p27
sbatp28
Rp29
(dp30
g11
S'id: 2'
p31
sbag0
(g1
g2
(lp32
g0
(g1
g2
(lp33
g0
(g1
g2
(lp34
VThe man
p35
atp36
Rp37
(dp38
g11
S'start: 1'
p39
sbatp40
Rp41
(dp42
g11
S'sent: 3'
p43
sbag0
(g1
g2
(lp44
g0
(g1
g2
(lp45
Vthe man
p46
atp47
Rp48
(dp49
g11
S'start: 24'
p50
sbatp51
Rp52
(dp53
g11
S'sent: 9'
p54
sbatp55
Rp56
(dp57
g11
S'id: 7'
p58
sbag0
(g1
g2
(lp59
g0
(g1
g2
(lp60
g0
(g1
g2
(lp61
VI
p62
atp63
Rp64
(dp65
g11
S'start: 5'
p66
sbatp67
Rp68
(dp69
g11
S'sent: 4'
p70
sbag0
(g1
g2
(lp71
g0
(g1
g2
(lp72
VI
p73
atp74
Rp75
(dp76
g11
S'start: 1'
p77
sbatp78
Rp79
(dp80
g11
S'sent: 5'
p81
sbag0
(g1
g2
(lp82
g0
(g1
g2
(lp83
VI
p84
atp85
Rp86
(dp87
g11
S'start: 2'
p88
sbatp89
Rp90
(dp91
g11
S'sent: 6'
p92
sbag0
(g1
g2
(lp93
g0
(g1
g2
(lp94
Vit the dog , the dog
p95
atp96
Rp97
(dp98
g11
S'start: 4'
p99
sbatp100
Rp101
(dp102
g11
S'sent: 7'
p103
sbag0
(g1
g2
(lp104
g0
(g1
g2
(lp105
VI
p106
atp107
Rp108
(dp109
g11
S'start: 5'
p110
sbatp111
Rp112
(dp113
g11
S'sent: 9'
p114
sbatp115
Rp116
(dp117
g11
S'id: 10'
p118
sbag0
(g1
g2
(lp119
g0
(g1
g2
(lp120
g0
(g1
g2
(lp121
VThe dog
p122
atp123
Rp124
(dp125
g11
S'start: 1'
p126
sbatp127
Rp128
(dp129
g11
S'sent: 7'
p130
sbag0
(g1
g2
(lp131
g0
(g1
g2
(lp132
Vthe dog , the dog
p133
atp134
Rp135
(dp136
g11
S'start: 5'
p137
sbatp138
Rp139
(dp140
g11
S'sent: 7'
p141
sbag0
(g1
g2
(lp142
g0
(g1
g2
(lp143
Vthe dog
p144
atp145
Rp146
(dp147
g11
S'start: 5'
p148
sbatp149
Rp150
(dp151
g11
S'sent: 7'
p152
sbag0
(g1
g2
(lp153
g0
(g1
g2
(lp154
Vthe dog
p155
atp156
Rp157
(dp158
g11
S'start: 8'
p159
sbatp160
Rp161
(dp162
g11
S'sent: 7'
p163
sbatp164
Rp165
(dp166
g11
S'id: 19'
p167
sbag0
(g1
g2
(lp168
g0
(g1
g2
(lp169
g0
(g1
g2
(lp170
VThe twinking
p171
atp172
Rp173
(dp174
g11
S'start: 1'
p175
sbatp176
Rp177
(dp178
g11
S'sent: 9'
p179
sbag0
(g1
g2
(lp180
g0
(g1
g2
(lp181
Vwhen
p182
atp183
Rp184
(dp185
g11
S'start: 8'
p186
sbatp187
Rp188
(dp189
g11
S'sent: 9'
p190
sbatp191
Rp192
(dp193
g11
S'id: 26'
p194
sbag0
(g1
g2
(lp195
g0
(g1
g2
(lp196
g0
(g1
g2
(lp197
Vthe girl
p198
atp199
Rp200
(dp201
g11
S'start: 12'
p202
sbatp203
Rp204
(dp205
g11
S'sent: 9'
p206
sbag0
(g1
g2
(lp207
g0
(g1
g2
(lp208
Vthe girl
p209
atp210
Rp211
(dp212
g11
S'start: 18'
p213
sbatp214
Rp215
(dp216
g11
S'sent: 9'
p217
sbatp218
Rp219
(dp220
g11
S'id: 32'
p221
sbag0
(g1
g2
(lp222
g0
(g1
g2
(lp223
g0
(g1
g2
(lp224
VThe girls
p225
atp226
Rp227
(dp228
g11
S'start: 1'
p229
sbatp230
Rp231
(dp232
g11
S'sent: 10'
p233
sbag0
(g1
g2
(lp234
g0
(g1
g2
(lp235
Vtheir
p236
atp237
Rp238
(dp239
g11
S'start: 5'
p240
sbatp241
Rp242
(dp243
g11
S'sent: 10'
p244
sbatp245
Rp246
(dp247
g11
S'id: 37'
p248
sbatp249
Rp250
(dp251
g11
S'coreferences'
p252
sb.