ccopy_reg
_reconstructor
p0
(cnltk.tree
Tree
p1
c__builtin__
list
p2
(lp3
g0
(g1
g2
(lp4
g0
(g1
g2
(lp5
g0
(g1
g2
(lp6
g0
(g1
g2
(lp7
Vlook
p8
atp9
Rp10
(dp11
S'_label'
p12
VVB
p13
sbag0
(g1
g2
(lp14
g0
(g1
g2
(lp15
Vlike
p16
atp17
Rp18
(dp19
g12
VIN
p20
sbag0
(g1
g2
(lp21
g0
(g1
g2
(lp22
g0
(g1
g2
(lp23
Vthere
p24
atp25
Rp26
(dp27
g12
VEX
p28
sbatp29
Rp30
(dp31
g12
VNP
p32
sbag0
(g1
g2
(lp33
g0
(g1
g2
(lp34
V's
p35
atp36
Rp37
(dp38
g12
VVBZ
p39
sbag0
(g1
g2
(lp40
g0
(g1
g2
(lp41
Va
p42
atp43
Rp44
(dp45
g12
VDT
p46
sbag0
(g1
g2
(lp47
Vparade
p48
atp49
Rp50
(dp51
g12
VNN
p52
sbatp53
Rp54
(dp55
g12
VNP
p56
sbatp57
Rp58
(dp59
g12
VVP
p60
sbatp61
Rp62
(dp63
g12
VS
p64
sbatp65
Rp66
(dp67
g12
VSBAR
p68
sbatp69
Rp70
(dp71
g12
VVP
p72
sbag0
(g1
g2
(lp73
V.
p74
atp75
Rp76
(dp77
g12
V.
p78
sbatp79
Rp80
(dp81
g12
VS
p82
sbatp83
Rp84
(dp85
g12
S'id: 0'
p86
sbag0
(g1
g2
(lp87
g0
(g1
g2
(lp88
g0
(g1
g2
(lp89
g0
(g1
g2
(lp90
VThere
p91
atp92
Rp93
(dp94
g12
VEX
p95
sbatp96
Rp97
(dp98
g12
VNP
p99
sbag0
(g1
g2
(lp100
g0
(g1
g2
(lp101
V's
p102
atp103
Rp104
(dp105
g12
VVBZ
p106
sbag0
(g1
g2
(lp107
g0
(g1
g2
(lp108
Va
p109
atp110
Rp111
(dp112
g12
VDT
p113
sbag0
(g1
g2
(lp114
Vclown
p115
atp116
Rp117
(dp118
g12
VNN
p119
sbatp120
Rp121
(dp122
g12
VNP
p123
sbatp124
Rp125
(dp126
g12
VVP
p127
sbag0
(g1
g2
(lp128
V.
p129
atp130
Rp131
(dp132
g12
V.
p133
sbatp134
Rp135
(dp136
g12
VS
p137
sbatp138
Rp139
(dp140
g12
S'id: 1'
p141
sbag0
(g1
g2
(lp142
g0
(g1
g2
(lp143
g0
(g1
g2
(lp144
g0
(g1
g2
(lp145
VYes
p146
atp147
Rp148
(dp149
g12
VUH
p150
sbatp151
Rp152
(dp153
g12
VINTJ
p154
sbag0
(g1
g2
(lp155
V,
p156
atp157
Rp158
(dp159
g12
V,
p160
sbag0
(g1
g2
(lp161
g0
(g1
g2
(lp162
Vand
p163
atp164
Rp165
(dp166
g12
VCC
p167
sbag0
(g1
g2
(lp168
g0
(g1
g2
(lp169
g0
(g1
g2
(lp170
Va
p171
atp172
Rp173
(dp174
g12
VDT
p175
sbag0
(g1
g2
(lp176
Vgirl
p177
atp178
Rp179
(dp180
g12
VNN
p181
sbatp182
Rp183
(dp184
g12
VNP
p185
sbag0
(g1
g2
(lp186
V,
p187
atp188
Rp189
(dp190
g12
V,
p191
sbag0
(g1
g2
(lp192
g0
(g1
g2
(lp193
g0
(g1
g2
(lp194
Va
p195
atp196
Rp197
(dp198
g12
VDT
p199
sbag0
(g1
g2
(lp200
Vboy
p201
atp202
Rp203
(dp204
g12
VNN
p205
sbatp206
Rp207
(dp208
g12
VNP
p209
sbag0
(g1
g2
(lp210
g0
(g1
g2
(lp211
g0
(g1
g2
(lp212
Vdown
p213
atp214
Rp215
(dp216
g12
VIN
p217
sbatp218
Rp219
(dp220
g12
VADJP
p221
sbag0
(g1
g2
(lp222
g0
(g1
g2
(lp223
Vthere
p224
atp225
Rp226
(dp227
g12
VRB
p228
sbag0
(g1
g2
(lp229
V.
p230
atp231
Rp232
(dp233
g12
V.
p234
sbatp235
Rp236
(dp237
g12
VADVP
p238
sbatp239
Rp240
(dp241
g12
VRRC
p242
sbatp243
Rp244
(dp245
g12
VNP
p246
sbatp247
Rp248
(dp249
g12
VNP
p250
sbatp251
Rp252
(dp253
g12
VPP
p254
sbatp255
Rp256
(dp257
g12
VFRAG
p258
sbatp259
Rp260
(dp261
g12
S'id: 2'
p262
sbag0
(g1
g2
(lp263
g0
(g1
g2
(lp264
g0
(g1
g2
(lp265
g0
(g1
g2
(lp266
VThere
p267
atp268
Rp269
(dp270
g12
VEX
p271
sbatp272
Rp273
(dp274
g12
VNP
p275
sbag0
(g1
g2
(lp276
g0
(g1
g2
(lp277
V's
p278
atp279
Rp280
(dp281
g12
VVBZ
p282
sbag0
(g1
g2
(lp283
g0
(g1
g2
(lp284
g0
(g1
g2
(lp285
Vpeople
p286
atp287
Rp288
(dp289
g12
VNNS
p290
sbatp291
Rp292
(dp293
g12
VNP
p294
sbag0
(g1
g2
(lp295
g0
(g1
g2
(lp296
Vlike
p297
atp298
Rp299
(dp300
g12
VIN
p301
sbag0
(g1
g2
(lp302
g0
(g1
g2
(lp303
g0
(g1
g2
(lp304
Va
p305
atp306
Rp307
(dp308
g12
VDT
p309
sbag0
(g1
g2
(lp310
Vparade
p311
atp312
Rp313
(dp314
g12
VNN
p315
sbatp316
Rp317
(dp318
g12
VNP
p319
sbag0
(g1
g2
(lp320
g0
(g1
g2
(lp321
Vsitting
p322
atp323
Rp324
(dp325
g12
VVBG
p326
sbag0
(g1
g2
(lp327
g0
(g1
g2
(lp328
Von
p329
atp330
Rp331
(dp332
g12
VIN
p333
sbag0
(g1
g2
(lp334
g0
(g1
g2
(lp335
g0
(g1
g2
(lp336
Vthe
p337
atp338
Rp339
(dp340
g12
VDT
p341
sbag0
(g1
g2
(lp342
Voutside
p343
atp344
Rp345
(dp346
g12
VJJ
p347
sbatp348
Rp349
(dp350
g12
VNP
p351
sbag0
(g1
g2
(lp352
V,
p353
atp354
Rp355
(dp356
g12
V,
p357
sbag0
(g1
g2
(lp358
g0
(g1
g2
(lp359
g0
(g1
g2
(lp360
Vsomebody
p361
atp362
Rp363
(dp364
g12
VNN
p365
sbatp366
Rp367
(dp368
g12
VNP
p369
sbag0
(g1
g2
(lp370
g0
(g1
g2
(lp371
Vwalking
p372
atp373
Rp374
(dp375
g12
VVBG
p376
sbag0
(g1
g2
(lp377
g0
(g1
g2
(lp378
Va
p379
atp380
Rp381
(dp382
g12
VDT
p383
sbag0
(g1
g2
(lp384
Vtight
p385
atp386
Rp387
(dp388
g12
VJJ
p389
sbag0
(g1
g2
(lp390
Vrope
p391
atp392
Rp393
(dp394
g12
VNN
p395
sbatp396
Rp397
(dp398
g12
VNP
p399
sbatp400
Rp401
(dp402
g12
VVP
p403
sbatp404
Rp405
(dp406
g12
VNP
p407
sbatp408
Rp409
(dp410
g12
VNP
p411
sbatp412
Rp413
(dp414
g12
VPP
p415
sbatp416
Rp417
(dp418
g12
VVP
p419
sbatp420
Rp421
(dp422
g12
VNP
p423
sbatp424
Rp425
(dp426
g12
VPP
p427
sbatp428
Rp429
(dp430
g12
VNP
p431
sbatp432
Rp433
(dp434
g12
VVP
p435
sbag0
(g1
g2
(lp436
V.
p437
atp438
Rp439
(dp440
g12
V.
p441
sbatp442
Rp443
(dp444
g12
VS
p445
sbatp446
Rp447
(dp448
g12
S'id: 3'
p449
sbag0
(g1
g2
(lp450
g0
(g1
g2
(lp451
g0
(g1
g2
(lp452
g0
(g1
g2
(lp453
VThere
p454
atp455
Rp456
(dp457
g12
VEX
p458
sbatp459
Rp460
(dp461
g12
VNP
p462
sbag0
(g1
g2
(lp463
g0
(g1
g2
(lp464
V's
p465
atp466
Rp467
(dp468
g12
VVBZ
p469
sbag0
(g1
g2
(lp470
g0
(g1
g2
(lp471
Va
p472
atp473
Rp474
(dp475
g12
VDT
p476
sbag0
(g1
g2
(lp477
Vfemale
p478
atp479
Rp480
(dp481
g12
VJJ
p482
sbag0
(g1
g2
(lp483
Vclown
p484
atp485
Rp486
(dp487
g12
VNN
p488
sbatp489
Rp490
(dp491
g12
VNP
p492
sbatp493
Rp494
(dp495
g12
VVP
p496
sbag0
(g1
g2
(lp497
V.
p498
atp499
Rp500
(dp501
g12
V.
p502
sbatp503
Rp504
(dp505
g12
VS
p506
sbatp507
Rp508
(dp509
g12
S'id: 4'
p510
sbag0
(g1
g2
(lp511
g0
(g1
g2
(lp512
g0
(g1
g2
(lp513
g0
(g1
g2
(lp514
VThere
p515
atp516
Rp517
(dp518
g12
VEX
p519
sbatp520
Rp521
(dp522
g12
VNP
p523
sbag0
(g1
g2
(lp524
g0
(g1
g2
(lp525
V's
p526
atp527
Rp528
(dp529
g12
VVBZ
p530
sbag0
(g1
g2
(lp531
g0
(g1
g2
(lp532
Va
p533
atp534
Rp535
(dp536
g12
VDT
p537
sbag0
(g1
g2
(lp538
Vclown
p539
atp540
Rp541
(dp542
g12
VNN
p543
sbatp544
Rp545
(dp546
g12
VNP
p547
sbatp548
Rp549
(dp550
g12
VVP
p551
sbag0
(g1
g2
(lp552
V.
p553
atp554
Rp555
(dp556
g12
V.
p557
sbatp558
Rp559
(dp560
g12
VS
p561
sbatp562
Rp563
(dp564
g12
S'id: 5'
p565
sbag0
(g1
g2
(lp566
g0
(g1
g2
(lp567
g0
(g1
g2
(lp568
g0
(g1
g2
(lp569
VSomebody
p570
atp571
Rp572
(dp573
g12
VNN
p574
sbatp575
Rp576
(dp577
g12
VNP
p578
sbag0
(g1
g2
(lp579
g0
(g1
g2
(lp580
Vmight
p581
atp582
Rp583
(dp584
g12
VMD
p585
sbag0
(g1
g2
(lp586
g0
(g1
g2
(lp587
Vbe
p588
atp589
Rp590
(dp591
g12
VVB
p592
sbag0
(g1
g2
(lp593
g0
(g1
g2
(lp594
Vwalking
p595
atp596
Rp597
(dp598
g12
VVBG
p599
sbag0
(g1
g2
(lp600
g0
(g1
g2
(lp601
Vin
p602
atp603
Rp604
(dp605
g12
VIN
p606
sbag0
(g1
g2
(lp607
g0
(g1
g2
(lp608
Vthe
p609
atp610
Rp611
(dp612
g12
VDT
p613
sbag0
(g1
g2
(lp614
Vpark
p615
atp616
Rp617
(dp618
g12
VNN
p619
sbatp620
Rp621
(dp622
g12
VNP
p623
sbatp624
Rp625
(dp626
g12
VPP
p627
sbatp628
Rp629
(dp630
g12
VVP
p631
sbatp632
Rp633
(dp634
g12
VVP
p635
sbatp636
Rp637
(dp638
g12
VVP
p639
sbag0
(g1
g2
(lp640
V.
p641
atp642
Rp643
(dp644
g12
V.
p645
sbatp646
Rp647
(dp648
g12
VS
p649
sbatp650
Rp651
(dp652
g12
S'id: 6'
p653
sbag0
(g1
g2
(lp654
g0
(g1
g2
(lp655
g0
(g1
g2
(lp656
g0
(g1
g2
(lp657
VThere
p658
atp659
Rp660
(dp661
g12
VEX
p662
sbatp663
Rp664
(dp665
g12
VNP
p666
sbag0
(g1
g2
(lp667
g0
(g1
g2
(lp668
V's
p669
atp670
Rp671
(dp672
g12
VVBZ
p673
sbag0
(g1
g2
(lp674
g0
(g1
g2
(lp675
g0
(g1
g2
(lp676
Vsome
p677
atp678
Rp679
(dp680
g12
VDT
p681
sbag0
(g1
g2
(lp682
Vpeople
p683
atp684
Rp685
(dp686
g12
VNNS
p687
sbatp688
Rp689
(dp690
g12
VNP
p691
sbag0
(g1
g2
(lp692
g0
(g1
g2
(lp693
Vsitting
p694
atp695
Rp696
(dp697
g12
VVBG
p698
sbag0
(g1
g2
(lp699
g0
(g1
g2
(lp700
Von
p701
atp702
Rp703
(dp704
g12
VIN
p705
sbag0
(g1
g2
(lp706
g0
(g1
g2
(lp707
g0
(g1
g2
(lp708
Vthe
p709
atp710
Rp711
(dp712
g12
VDT
p713
sbatp714
Rp715
(dp716
g12
VNP
p717
sbag0
(g1
g2
(lp718
g0
(g1
g2
(lp719
g0
(g1
g2
(lp720
g0
(g1
g2
(lp721
Vdrum
p722
atp723
Rp724
(dp725
g12
VVBP
p726
sbatp727
Rp728
(dp729
g12
VVP
p730
sbatp731
Rp732
(dp733
g12
VS
p734
sbatp735
Rp736
(dp737
g12
VSBAR
p738
sbatp739
Rp740
(dp741
g12
VNP
p742
sbatp743
Rp744
(dp745
g12
VPP
p746
sbatp747
Rp748
(dp749
g12
VVP
p750
sbatp751
Rp752
(dp753
g12
VNP
p754
sbatp755
Rp756
(dp757
g12
VVP
p758
sbag0
(g1
g2
(lp759
V.
p760
atp761
Rp762
(dp763
g12
V.
p764
sbatp765
Rp766
(dp767
g12
VS
p768
sbatp769
Rp770
(dp771
g12
S'id: 7'
p772
sbag0
(g1
g2
(lp773
g0
(g1
g2
(lp774
g0
(g1
g2
(lp775
g0
(g1
g2
(lp776
VThere
p777
atp778
Rp779
(dp780
g12
VEX
p781
sbatp782
Rp783
(dp784
g12
VNP
p785
sbag0
(g1
g2
(lp786
g0
(g1
g2
(lp787
V's
p788
atp789
Rp790
(dp791
g12
VVBZ
p792
sbag0
(g1
g2
(lp793
g0
(g1
g2
(lp794
Vanother
p795
atp796
Rp797
(dp798
g12
VDT
p799
sbag0
(g1
g2
(lp800
Vclown
p801
atp802
Rp803
(dp804
g12
VNN
p805
sbatp806
Rp807
(dp808
g12
VNP
p809
sbatp810
Rp811
(dp812
g12
VVP
p813
sbag0
(g1
g2
(lp814
V.
p815
atp816
Rp817
(dp818
g12
V.
p819
sbatp820
Rp821
(dp822
g12
VS
p823
sbatp824
Rp825
(dp826
g12
S'id: 8'
p827
sbag0
(g1
g2
(lp828
g0
(g1
g2
(lp829
g0
(g1
g2
(lp830
g0
(g1
g2
(lp831
VThere
p832
atp833
Rp834
(dp835
g12
VEX
p836
sbatp837
Rp838
(dp839
g12
VNP
p840
sbag0
(g1
g2
(lp841
g0
(g1
g2
(lp842
V's
p843
atp844
Rp845
(dp846
g12
VVBZ
p847
sbag0
(g1
g2
(lp848
g0
(g1
g2
(lp849
Va
p850
atp851
Rp852
(dp853
g12
VDT
p854
sbag0
(g1
g2
(lp855
Varound
p856
atp857
Rp858
(dp859
g12
VRB
p860
sbatp861
Rp862
(dp863
g12
VADVP
p864
sbag0
(g1
g2
(lp865
g0
(g1
g2
(lp866
Vher
p867
atp868
Rp869
(dp870
g12
VPRP$
p871
sbag0
(g1
g2
(lp872
Vneck
p873
atp874
Rp875
(dp876
g12
VNN
p877
sbatp878
Rp879
(dp880
g12
VNP
p881
sbatp882
Rp883
(dp884
g12
VVP
p885
sbag0
(g1
g2
(lp886
V.
p887
atp888
Rp889
(dp890
g12
V.
p891
sbatp892
Rp893
(dp894
g12
VS
p895
sbatp896
Rp897
(dp898
g12
S'id: 9'
p899
sbag0
(g1
g2
(lp900
g0
(g1
g2
(lp901
g0
(g1
g2
(lp902
g0
(g1
g2
(lp903
VThere
p904
atp905
Rp906
(dp907
g12
VEX
p908
sbatp909
Rp910
(dp911
g12
VNP
p912
sbag0
(g1
g2
(lp913
g0
(g1
g2
(lp914
V's
p915
atp916
Rp917
(dp918
g12
VVBZ
p919
sbag0
(g1
g2
(lp920
g0
(g1
g2
(lp921
g0
(g1
g2
(lp922
Va
p923
atp924
Rp925
(dp926
g12
VDT
p927
sbag0
(g1
g2
(lp928
Vboy
p929
atp930
Rp931
(dp932
g12
VNN
p933
sbatp934
Rp935
(dp936
g12
VNP
p937
sbag0
(g1
g2
(lp938
g0
(g1
g2
(lp939
Vclapping
p940
atp941
Rp942
(dp943
g12
VVBG
p944
sbag0
(g1
g2
(lp945
g0
(g1
g2
(lp946
Vhis
p947
atp948
Rp949
(dp950
g12
VPRP$
p951
sbag0
(g1
g2
(lp952
Vhand
p953
atp954
Rp955
(dp956
g12
VNN
p957
sbatp958
Rp959
(dp960
g12
VNP
p961
sbatp962
Rp963
(dp964
g12
VVP
p965
sbatp966
Rp967
(dp968
g12
VNP
p969
sbatp970
Rp971
(dp972
g12
VVP
p973
sbag0
(g1
g2
(lp974
V.
p975
atp976
Rp977
(dp978
g12
V.
p979
sbatp980
Rp981
(dp982
g12
VS
p983
sbatp984
Rp985
(dp986
g12
S'id: 10'
p987
sbag0
(g1
g2
(lp988
g0
(g1
g2
(lp989
g0
(g1
g2
(lp990
g0
(g1
g2
(lp991
VThere
p992
atp993
Rp994
(dp995
g12
VEX
p996
sbatp997
Rp998
(dp999
g12
VNP
p1000
sbag0
(g1
g2
(lp1001
g0
(g1
g2
(lp1002
V's
p1003
atp1004
Rp1005
(dp1006
g12
VVBZ
p1007
sbag0
(g1
g2
(lp1008
g0
(g1
g2
(lp1009
Von
p1010
atp1011
Rp1012
(dp1013
g12
VIN
p1014
sbag0
(g1
g2
(lp1015
g0
(g1
g2
(lp1016
g0
(g1
g2
(lp1017
Vthe
p1018
atp1019
Rp1020
(dp1021
g12
VDT
p1022
sbatp1023
Rp1024
(dp1025
g12
VNP
p1026
sbag0
(g1
g2
(lp1027
g0
(g1
g2
(lp1028
g0
(g1
g2
(lp1029
g0
(g1
g2
(lp1030
Vdrum
p1031
atp1032
Rp1033
(dp1034
g12
VVBP
p1035
sbatp1036
Rp1037
(dp1038
g12
VVP
p1039
sbatp1040
Rp1041
(dp1042
g12
VS
p1043
sbatp1044
Rp1045
(dp1046
g12
VSBAR
p1047
sbatp1048
Rp1049
(dp1050
g12
VNP
p1051
sbatp1052
Rp1053
(dp1054
g12
VPP
p1055
sbatp1056
Rp1057
(dp1058
g12
VVP
p1059
sbag0
(g1
g2
(lp1060
V.
p1061
atp1062
Rp1063
(dp1064
g12
V.
p1065
sbatp1066
Rp1067
(dp1068
g12
VS
p1069
sbatp1070
Rp1071
(dp1072
g12
S'id: 11'
p1073
sbag0
(g1
g2
(lp1074
g0
(g1
g2
(lp1075
g0
(g1
g2
(lp1076
g0
(g1
g2
(lp1077
VThere
p1078
atp1079
Rp1080
(dp1081
g12
VEX
p1082
sbatp1083
Rp1084
(dp1085
g12
VNP
p1086
sbag0
(g1
g2
(lp1087
g0
(g1
g2
(lp1088
V's
p1089
atp1090
Rp1091
(dp1092
g12
VVBZ
p1093
sbag0
(g1
g2
(lp1094
g0
(g1
g2
(lp1095
Vanother
p1096
atp1097
Rp1098
(dp1099
g12
VDT
p1100
sbag0
(g1
g2
(lp1101
Vclown
p1102
atp1103
Rp1104
(dp1105
g12
VNN
p1106
sbatp1107
Rp1108
(dp1109
g12
VNP
p1110
sbatp1111
Rp1112
(dp1113
g12
VVP
p1114
sbag0
(g1
g2
(lp1115
V.
p1116
atp1117
Rp1118
(dp1119
g12
V.
p1120
sbatp1121
Rp1122
(dp1123
g12
VS
p1124
sbatp1125
Rp1126
(dp1127
g12
S'id: 12'
p1128
sbag0
(g1
g2
(lp1129
g0
(g1
g2
(lp1130
g0
(g1
g2
(lp1131
VAnd
p1132
atp1133
Rp1134
(dp1135
g12
VCC
p1136
sbag0
(g1
g2
(lp1137
g0
(g1
g2
(lp1138
g0
(g1
g2
(lp1139
Va
p1140
atp1141
Rp1142
(dp1143
g12
VDT
p1144
sbag0
(g1
g2
(lp1145
Vboy
p1146
atp1147
Rp1148
(dp1149
g12
VNN
p1150
sbatp1151
Rp1152
(dp1153
g12
VNP
p1154
sbag0
(g1
g2
(lp1155
Vdown
p1156
atp1157
Rp1158
(dp1159
g12
VIN
p1160
sbatp1161
Rp1162
(dp1163
g12
VADVP
p1164
sbag0
(g1
g2
(lp1165
g0
(g1
g2
(lp1166
g0
(g1
g2
(lp1167
Vthere
p1168
atp1169
Rp1170
(dp1171
g12
VEX
p1172
sbatp1173
Rp1174
(dp1175
g12
VNP
p1176
sbag0
(g1
g2
(lp1177
g0
(g1
g2
(lp1178
Vsmiling
p1179
atp1180
Rp1181
(dp1182
g12
VVBG
p1183
sbatp1184
Rp1185
(dp1186
g12
VVP
p1187
sbatp1188
Rp1189
(dp1190
g12
VS
p1191
sbag0
(g1
g2
(lp1192
V.
p1193
atp1194
Rp1195
(dp1196
g12
V.
p1197
sbatp1198
Rp1199
(dp1200
g12
VS
p1201
sbatp1202
Rp1203
(dp1204
g12
S'id: 13'
p1205
sbag0
(g1
g2
(lp1206
g0
(g1
g2
(lp1207
g0
(g1
g2
(lp1208
g0
(g1
g2
(lp1209
VThere
p1210
atp1211
Rp1212
(dp1213
g12
VEX
p1214
sbatp1215
Rp1216
(dp1217
g12
VNP
p1218
sbag0
(g1
g2
(lp1219
g0
(g1
g2
(lp1220
V's
p1221
atp1222
Rp1223
(dp1224
g12
VVBZ
p1225
sbag0
(g1
g2
(lp1226
g0
(g1
g2
(lp1227
g0
(g1
g2
(lp1228
Va
p1229
atp1230
Rp1231
(dp1232
g12
VDT
p1233
sbatp1234
Rp1235
(dp1236
g12
VNP
p1237
sbag0
(g1
g2
(lp1238
g0
(g1
g2
(lp1239
Vdrum
p1240
atp1241
Rp1242
(dp1243
g12
VVB
p1244
sbag0
(g1
g2
(lp1245
g0
(g1
g2
(lp1246
Vwith
p1247
atp1248
Rp1249
(dp1250
g12
VIN
p1251
sbag0
(g1
g2
(lp1252
g0
(g1
g2
(lp1253
g0
(g1
g2
(lp1254
Vstars
p1255
atp1256
Rp1257
(dp1258
g12
VNNS
p1259
sbatp1260
Rp1261
(dp1262
g12
VNP
p1263
sbag0
(g1
g2
(lp1264
g0
(g1
g2
(lp1265
Von
p1266
atp1267
Rp1268
(dp1269
g12
VIN
p1270
sbag0
(g1
g2
(lp1271
g0
(g1
g2
(lp1272
Vit
p1273
atp1274
Rp1275
(dp1276
g12
VPRP
p1277
sbatp1278
Rp1279
(dp1280
g12
VNP
p1281
sbatp1282
Rp1283
(dp1284
g12
VPP
p1285
sbatp1286
Rp1287
(dp1288
g12
VNP
p1289
sbatp1290
Rp1291
(dp1292
g12
VPP
p1293
sbatp1294
Rp1295
(dp1296
g12
VVP
p1297
sbatp1298
Rp1299
(dp1300
g12
VS
p1301
sbatp1302
Rp1303
(dp1304
g12
VVP
p1305
sbag0
(g1
g2
(lp1306
V.
p1307
atp1308
Rp1309
(dp1310
g12
V.
p1311
sbatp1312
Rp1313
(dp1314
g12
VS
p1315
sbatp1316
Rp1317
(dp1318
g12
S'id: 14'
p1319
sbag0
(g1
g2
(lp1320
g0
(g1
g2
(lp1321
g0
(g1
g2
(lp1322
g0
(g1
g2
(lp1323
g0
(g1
g2
(lp1324
VThere
p1325
atp1326
Rp1327
(dp1328
g12
VEX
p1329
sbatp1330
Rp1331
(dp1332
g12
VNP
p1333
sbag0
(g1
g2
(lp1334
g0
(g1
g2
(lp1335
V's
p1336
atp1337
Rp1338
(dp1339
g12
VVBZ
p1340
sbag0
(g1
g2
(lp1341
g0
(g1
g2
(lp1342
g0
(g1
g2
(lp1343
Va
p1344
atp1345
Rp1346
(dp1347
g12
VDT
p1348
sbag0
(g1
g2
(lp1349
Vclown
p1350
atp1351
Rp1352
(dp1353
g12
VNN
p1354
sbatp1355
Rp1356
(dp1357
g12
VNP
p1358
sbag0
(g1
g2
(lp1359
Vdown
p1360
atp1361
Rp1362
(dp1363
g12
VRB
p1364
sbatp1365
Rp1366
(dp1367
g12
VADVP
p1368
sbag0
(g1
g2
(lp1369
g0
(g1
g2
(lp1370
Vhere
p1371
atp1372
Rp1373
(dp1374
g12
VRB
p1375
sbatp1376
Rp1377
(dp1378
g12
VADVP
p1379
sbag0
(g1
g2
(lp1380
g0
(g1
g2
(lp1381
Vin
p1382
atp1383
Rp1384
(dp1385
g12
VIN
p1386
sbag0
(g1
g2
(lp1387
g0
(g1
g2
(lp1388
Vthe
p1389
atp1390
Rp1391
(dp1392
g12
VDT
p1393
sbag0
(g1
g2
(lp1394
Vcorner
p1395
atp1396
Rp1397
(dp1398
g12
VNN
p1399
sbatp1400
Rp1401
(dp1402
g12
VNP
p1403
sbatp1404
Rp1405
(dp1406
g12
VPP
p1407
sbatp1408
Rp1409
(dp1410
g12
VVP
p1411
sbatp1412
Rp1413
(dp1414
g12
VS
p1415
sbag0
(g1
g2
(lp1416
V,
p1417
atp1418
Rp1419
(dp1420
g12
V,
p1421
sbag0
(g1
g2
(lp1422
Vand
p1423
atp1424
Rp1425
(dp1426
g12
VCC
p1427
sbag0
(g1
g2
(lp1428
g0
(g1
g2
(lp1429
g0
(g1
g2
(lp1430
g0
(g1
g2
(lp1431
Vsomebody
p1432
atp1433
Rp1434
(dp1435
g12
VNN
p1436
sbatp1437
Rp1438
(dp1439
g12
VNP
p1440
sbag0
(g1
g2
(lp1441
g0
(g1
g2
(lp1442
Vup
p1443
atp1444
Rp1445
(dp1446
g12
VIN
p1447
sbag0
(g1
g2
(lp1448
g0
(g1
g2
(lp1449
Vtop
p1450
atp1451
Rp1452
(dp1453
g12
VNN
p1454
sbatp1455
Rp1456
(dp1457
g12
VNP
p1458
sbatp1459
Rp1460
(dp1461
g12
VPP
p1462
sbatp1463
Rp1464
(dp1465
g12
VNP
p1466
sbag0
(g1
g2
(lp1467
g0
(g1
g2
(lp1468
Vis
p1469
atp1470
Rp1471
(dp1472
g12
VVBZ
p1473
sbag0
(g1
g2
(lp1474
g0
(g1
g2
(lp1475
Vwalking
p1476
atp1477
Rp1478
(dp1479
g12
VVBG
p1480
sbag0
(g1
g2
(lp1481
g0
(g1
g2
(lp1482
Vthe
p1483
atp1484
Rp1485
(dp1486
g12
VDT
p1487
sbag0
(g1
g2
(lp1488
Vtight
p1489
atp1490
Rp1491
(dp1492
g12
VJJ
p1493
sbag0
(g1
g2
(lp1494
Vrope
p1495
atp1496
Rp1497
(dp1498
g12
VNN
p1499
sbatp1500
Rp1501
(dp1502
g12
VNP
p1503
sbatp1504
Rp1505
(dp1506
g12
VVP
p1507
sbatp1508
Rp1509
(dp1510
g12
VVP
p1511
sbatp1512
Rp1513
(dp1514
g12
VS
p1515
sbag0
(g1
g2
(lp1516
V.
p1517
atp1518
Rp1519
(dp1520
g12
V.
p1521
sbatp1522
Rp1523
(dp1524
g12
VS
p1525
sbatp1526
Rp1527
(dp1528
g12
S'id: 15'
p1529
sbag0
(g1
g2
(lp1530
g0
(g1
g2
(lp1531
g0
(g1
g2
(lp1532
g0
(g1
g2
(lp1533
VPlaying
p1534
atp1535
Rp1536
(dp1537
g12
VVBG
p1538
sbag0
(g1
g2
(lp1539
g0
(g1
g2
(lp1540
g0
(g1
g2
(lp1541
Vthe
p1542
atp1543
Rp1544
(dp1545
g12
VDT
p1546
sbatp1547
Rp1548
(dp1549
g12
VNP
p1550
sbag0
(g1
g2
(lp1551
g0
(g1
g2
(lp1552
Vdrum
p1553
atp1554
Rp1555
(dp1556
g12
VVB
p1557
sbag0
(g1
g2
(lp1558
g0
(g1
g2
(lp1559
Vwatching
p1560
atp1561
Rp1562
(dp1563
g12
VVBG
p1564
sbatp1565
Rp1566
(dp1567
g12
VVP
p1568
sbatp1569
Rp1570
(dp1571
g12
VVP
p1572
sbatp1573
Rp1574
(dp1575
g12
VS
p1576
sbatp1577
Rp1578
(dp1579
g12
VVP
p1580
sbag0
(g1
g2
(lp1581
V.
p1582
atp1583
Rp1584
(dp1585
g12
V.
p1586
sbatp1587
Rp1588
(dp1589
g12
VS
p1590
sbatp1591
Rp1592
(dp1593
g12
S'id: 16'
p1594
sbag0
(g1
g2
(lp1595
g0
(g1
g2
(lp1596
g0
(g1
g2
(lp1597
g0
(g1
g2
(lp1598
VThere
p1599
atp1600
Rp1601
(dp1602
g12
VEX
p1603
sbatp1604
Rp1605
(dp1606
g12
VNP
p1607
sbag0
(g1
g2
(lp1608
g0
(g1
g2
(lp1609
g0
(g1
g2
(lp1610
g0
(g1
g2
(lp1611
Va
p1612
atp1613
Rp1614
(dp1615
g12
VDT
p1616
sbag0
(g1
g2
(lp1617
Vlion
p1618
atp1619
Rp1620
(dp1621
g12
VNN
p1622
sbatp1623
Rp1624
(dp1625
g12
VNP
p1626
sbag0
(g1
g2
(lp1627
Vand
p1628
atp1629
Rp1630
(dp1631
g12
VCC
p1632
sbag0
(g1
g2
(lp1633
g0
(g1
g2
(lp1634
Vthan
p1635
atp1636
Rp1637
(dp1638
g12
VIN
p1639
sbatp1640
Rp1641
(dp1642
g12
VADVP
p1643
sbag0
(g1
g2
(lp1644
g0
(g1
g2
(lp1645
Va
p1646
atp1647
Rp1648
(dp1649
g12
VDT
p1650
sbag0
(g1
g2
(lp1651
Vclown
p1652
atp1653
Rp1654
(dp1655
g12
VNN
p1656
sbatp1657
Rp1658
(dp1659
g12
VNP
p1660
sbatp1661
Rp1662
(dp1663
g12
VNP
p1664
sbatp1665
Rp1666
(dp1667
g12
VVP
p1668
sbag0
(g1
g2
(lp1669
V.
p1670
atp1671
Rp1672
(dp1673
g12
V.
p1674
sbatp1675
Rp1676
(dp1677
g12
VS
p1678
sbatp1679
Rp1680
(dp1681
g12
S'id: 17'
p1682
sbag0
(g1
g2
(lp1683
g0
(g1
g2
(lp1684
g0
(g1
g2
(lp1685
g0
(g1
g2
(lp1686
VSomebody
p1687
atp1688
Rp1689
(dp1690
g12
VNN
p1691
sbatp1692
Rp1693
(dp1694
g12
VNP
p1695
sbag0
(g1
g2
(lp1696
g0
(g1
g2
(lp1697
Vpointing
p1698
atp1699
Rp1700
(dp1701
g12
VVBG
p1702
sbag0
(g1
g2
(lp1703
g0
(g1
g2
(lp1704
Vat
p1705
atp1706
Rp1707
(dp1708
g12
VIN
p1709
sbag0
(g1
g2
(lp1710
g0
(g1
g2
(lp1711
Vthe
p1712
atp1713
Rp1714
(dp1715
g12
VDT
p1716
sbag0
(g1
g2
(lp1717
Vlion
p1718
atp1719
Rp1720
(dp1721
g12
VNN
p1722
sbatp1723
Rp1724
(dp1725
g12
VNP
p1726
sbatp1727
Rp1728
(dp1729
g12
VPP
p1730
sbatp1731
Rp1732
(dp1733
g12
VVP
p1734
sbag0
(g1
g2
(lp1735
V.
p1736
atp1737
Rp1738
(dp1739
g12
V.
p1740
sbatp1741
Rp1742
(dp1743
g12
VNP
p1744
sbatp1745
Rp1746
(dp1747
g12
S'id: 18'
p1748
sbag0
(g1
g2
(lp1749
g0
(g1
g2
(lp1750
g0
(g1
g2
(lp1751
g0
(g1
g2
(lp1752
g0
(g1
g2
(lp1753
VAnd
p1754
atp1755
Rp1756
(dp1757
g12
VCC
p1758
sbag0
(g1
g2
(lp1759
g0
(g1
g2
(lp1760
g0
(g1
g2
(lp1761
Va
p1762
atp1763
Rp1764
(dp1765
g12
VDT
p1766
sbatp1767
Rp1768
(dp1769
g12
VNP
p1770
sbag0
(g1
g2
(lp1771
V,
p1772
atp1773
Rp1774
(dp1775
g12
V,
p1776
sbag0
(g1
g2
(lp1777
Vand
p1778
atp1779
Rp1780
(dp1781
g12
VCC
p1782
sbag0
(g1
g2
(lp1783
g0
(g1
g2
(lp1784
Va
p1785
atp1786
Rp1787
(dp1788
g12
VDT
p1789
sbatp1790
Rp1791
(dp1792
g12
VNP
p1793
sbatp1794
Rp1795
(dp1796
g12
VNP
p1797
sbag0
(g1
g2
(lp1798
V,
p1799
atp1800
Rp1801
(dp1802
g12
V,
p1803
sbag0
(g1
g2
(lp1804
Vand
p1805
atp1806
Rp1807
(dp1808
g12
VCC
p1809
sbag0
(g1
g2
(lp1810
g0
(g1
g2
(lp1811
Va
p1812
atp1813
Rp1814
(dp1815
g12
VDT
p1816
sbag0
(g1
g2
(lp1817
Vlion
p1818
atp1819
Rp1820
(dp1821
g12
VNN
p1822
sbatp1823
Rp1824
(dp1825
g12
VNP
p1826
sbatp1827
Rp1828
(dp1829
g12
VNP
p1830
sbag0
(g1
g2
(lp1831
g0
(g1
g2
(lp1832
Vdoing
p1833
atp1834
Rp1835
(dp1836
g12
VVBG
p1837
sbag0
(g1
g2
(lp1838
g0
(g1
g2
(lp1839
Vtricks
p1840
atp1841
Rp1842
(dp1843
g12
VNNS
p1844
sbatp1845
Rp1846
(dp1847
g12
VNP
p1848
sbatp1849
Rp1850
(dp1851
g12
VVP
p1852
sbatp1853
Rp1854
(dp1855
g12
VS
p1856
sbag0
(g1
g2
(lp1857
V.
p1858
atp1859
Rp1860
(dp1861
g12
V.
p1862
sbatp1863
Rp1864
(dp1865
g12
VS
p1866
sbatp1867
Rp1868
(dp1869
g12
S'id: 19'
p1870
sbatp1871
Rp1872
(dp1873
g12
S'sentences'
p1874
sb.