ccopy_reg
_reconstructor
p0
(cnltk.tree
Tree
p1
c__builtin__
list
p2
(lp3
g0
(g1
g2
(lp4
g0
(g1
g2
(lp5
g0
(g1
g2
(lp6
g0
(g1
g2
(lp7
VIt
p8
atp9
Rp10
(dp11
S'_label'
p12
VPRP
p13
sbatp14
Rp15
(dp16
g12
VNP
p17
sbag0
(g1
g2
(lp18
g0
(g1
g2
(lp19
V's
p20
atp21
Rp22
(dp23
g12
VVBZ
p24
sbag0
(g1
g2
(lp25
g0
(g1
g2
(lp26
g0
(g1
g2
(lp27
Va
p28
atp29
Rp30
(dp31
g12
VDT
p32
sbag0
(g1
g2
(lp33
Vpuna
p34
atp35
Rp36
(dp37
g12
VNN
p38
sbag0
(g1
g2
(lp39
Vday
p40
atp41
Rp42
(dp43
g12
VNN
p44
sbatp45
Rp46
(dp47
g12
VNP
p48
sbag0
(g1
g2
(lp49
g0
(g1
g2
(lp50
Vat
p51
atp52
Rp53
(dp54
g12
VIN
p55
sbag0
(g1
g2
(lp56
g0
(g1
g2
(lp57
Vthe
p58
atp59
Rp60
(dp61
g12
VDT
p62
sbag0
(g1
g2
(lp63
Vcircus
p64
atp65
Rp66
(dp67
g12
VNN
p68
sbatp69
Rp70
(dp71
g12
VNP
p72
sbatp73
Rp74
(dp75
g12
VPP
p76
sbatp77
Rp78
(dp79
g12
VNP
p80
sbatp81
Rp82
(dp83
g12
VVP
p84
sbag0
(g1
g2
(lp85
V.
p86
atp87
Rp88
(dp89
g12
V.
p90
sbatp91
Rp92
(dp93
g12
VS
p94
sbatp95
Rp96
(dp97
g12
S'id: 0'
p98
sbag0
(g1
g2
(lp99
g0
(g1
g2
(lp100
g0
(g1
g2
(lp101
g0
(g1
g2
(lp102
g0
(g1
g2
(lp103
g0
(g1
g2
(lp104
VThe
p105
atp106
Rp107
(dp108
g12
VDT
p109
sbag0
(g1
g2
(lp110
Vbrother
p111
atp112
Rp113
(dp114
g12
VNN
p115
sbatp116
Rp117
(dp118
g12
VNP
p119
sbag0
(g1
g2
(lp120
g0
(g1
g2
(lp121
Vhas
p122
atp123
Rp124
(dp125
g12
VVBZ
p126
sbag0
(g1
g2
(lp127
g0
(g1
g2
(lp128
Vtaken
p129
atp130
Rp131
(dp132
g12
VVBN
p133
sbag0
(g1
g2
(lp134
g0
(g1
g2
(lp135
g0
(g1
g2
(lp136
Vthe
p137
atp138
Rp139
(dp140
g12
VDT
p141
sbag0
(g1
g2
(lp142
Vlittle
p143
atp144
Rp145
(dp146
g12
VJJ
p147
sbag0
(g1
g2
(lp148
Vsister
p149
atp150
Rp151
(dp152
g12
VNN
p153
sbatp154
Rp155
(dp156
g12
VNP
p157
sbag0
(g1
g2
(lp158
g0
(g1
g2
(lp159
Vfor
p160
atp161
Rp162
(dp163
g12
VIN
p164
sbag0
(g1
g2
(lp165
g0
(g1
g2
(lp166
Va
p167
atp168
Rp169
(dp170
g12
VDT
p171
sbag0
(g1
g2
(lp172
Vride
p173
atp174
Rp175
(dp176
g12
VNN
p177
sbatp178
Rp179
(dp180
g12
VNP
p181
sbatp182
Rp183
(dp184
g12
VPP
p185
sbatp186
Rp187
(dp188
g12
VNP
p189
sbatp190
Rp191
(dp192
g12
VVP
p193
sbatp194
Rp195
(dp196
g12
VVP
p197
sbatp198
Rp199
(dp200
g12
VS
p201
sbag0
(g1
g2
(lp202
V,
p203
atp204
Rp205
(dp206
g12
V,
p207
sbag0
(g1
g2
(lp208
Vand
p209
atp210
Rp211
(dp212
g12
VCC
p213
sbag0
(g1
g2
(lp214
g0
(g1
g2
(lp215
g0
(g1
g2
(lp216
g0
(g1
g2
(lp217
Vthe
p218
atp219
Rp220
(dp221
g12
VDT
p222
sbag0
(g1
g2
(lp223
Vclown
p224
atp225
Rp226
(dp227
g12
VNN
p228
sbatp229
Rp230
(dp231
g12
VNP
p232
sbag0
(g1
g2
(lp233
g0
(g1
g2
(lp234
Vis
p235
atp236
Rp237
(dp238
g12
VVBZ
p239
sbag0
(g1
g2
(lp240
g0
(g1
g2
(lp241
Vgiving
p242
atp243
Rp244
(dp245
g12
VVBG
p246
sbag0
(g1
g2
(lp247
g0
(g1
g2
(lp248
Vout
p249
atp250
Rp251
(dp252
g12
VRP
p253
sbatp254
Rp255
(dp256
g12
VPRT
p257
sbag0
(g1
g2
(lp258
g0
(g1
g2
(lp259
Vcandy
p260
atp261
Rp262
(dp263
g12
VNN
p264
sbatp265
Rp266
(dp267
g12
VNP
p268
sbag0
(g1
g2
(lp269
g0
(g1
g2
(lp270
Vto
p271
atp272
Rp273
(dp274
g12
VTO
p275
sbag0
(g1
g2
(lp276
g0
(g1
g2
(lp277
Vthe
p278
atp279
Rp280
(dp281
g12
VDT
p282
sbag0
(g1
g2
(lp283
Vlittle
p284
atp285
Rp286
(dp287
g12
VJJ
p288
sbag0
(g1
g2
(lp289
Vboy
p290
atp291
Rp292
(dp293
g12
VNN
p294
sbatp295
Rp296
(dp297
g12
VNP
p298
sbatp299
Rp300
(dp301
g12
VPP
p302
sbatp303
Rp304
(dp305
g12
VVP
p306
sbatp307
Rp308
(dp309
g12
VVP
p310
sbatp311
Rp312
(dp313
g12
VS
p314
sbag0
(g1
g2
(lp315
V,
p316
atp317
Rp318
(dp319
g12
V,
p320
sbag0
(g1
g2
(lp321
Vand
p322
atp323
Rp324
(dp325
g12
VCC
p326
sbag0
(g1
g2
(lp327
g0
(g1
g2
(lp328
g0
(g1
g2
(lp329
Vhe
p330
atp331
Rp332
(dp333
g12
VPRP
p334
sbatp335
Rp336
(dp337
g12
VNP
p338
sbag0
(g1
g2
(lp339
g0
(g1
g2
(lp340
V's
p341
atp342
Rp343
(dp344
g12
VVBZ
p345
sbag0
(g1
g2
(lp346
g0
(g1
g2
(lp347
Vcatching
p348
atp349
Rp350
(dp351
g12
VVBG
p352
sbatp353
Rp354
(dp355
g12
VVP
p356
sbatp357
Rp358
(dp359
g12
VVP
p360
sbatp361
Rp362
(dp363
g12
VS
p364
sbag0
(g1
g2
(lp365
Vand
p366
atp367
Rp368
(dp369
g12
VCC
p370
sbag0
(g1
g2
(lp371
g0
(g1
g2
(lp372
g0
(g1
g2
(lp373
g0
(g1
g2
(lp374
Vthe
p375
atp376
Rp377
(dp378
g12
VDT
p379
sbag0
(g1
g2
(lp380
Vlittle
p381
atp382
Rp383
(dp384
g12
VJJ
p385
sbag0
(g1
g2
(lp386
Vsister
p387
atp388
Rp389
(dp390
g12
VNN
p391
sbatp392
Rp393
(dp394
g12
VNP
p395
sbag0
(g1
g2
(lp396
g0
(g1
g2
(lp397
Vis
p398
atp399
Rp400
(dp401
g12
VVBZ
p402
sbag0
(g1
g2
(lp403
g0
(g1
g2
(lp404
Vin
p405
atp406
Rp407
(dp408
g12
VIN
p409
sbag0
(g1
g2
(lp410
g0
(g1
g2
(lp411
g0
(g1
g2
(lp412
Vthe
p413
atp414
Rp415
(dp416
g12
VDT
p417
sbag0
(g1
g2
(lp418
Vmama
p419
atp420
Rp421
(dp422
g12
VNN
p423
sbag0
(g1
g2
(lp424
V's
p425
atp426
Rp427
(dp428
g12
VPOS
p429
sbatp430
Rp431
(dp432
g12
VNP
p433
sbag0
(g1
g2
(lp434
Vhand
p435
atp436
Rp437
(dp438
g12
VNN
p439
sbatp440
Rp441
(dp442
g12
VNP
p443
sbatp444
Rp445
(dp446
g12
VPP
p447
sbatp448
Rp449
(dp450
g12
VVP
p451
sbatp452
Rp453
(dp454
g12
VS
p455
sbag0
(g1
g2
(lp456
V,
p457
atp458
Rp459
(dp460
g12
V,
p461
sbag0
(g1
g2
(lp462
Vand
p463
atp464
Rp465
(dp466
g12
VCC
p467
sbag0
(g1
g2
(lp468
g0
(g1
g2
(lp469
g0
(g1
g2
(lp470
Vshe
p471
atp472
Rp473
(dp474
g12
VPRP
p475
sbatp476
Rp477
(dp478
g12
VNP
p479
sbag0
(g1
g2
(lp480
g0
(g1
g2
(lp481
Vcant
p482
atp483
Rp484
(dp485
g12
VVBD
p486
sbag0
(g1
g2
(lp487
g0
(g1
g2
(lp488
Vcatch
p489
atp490
Rp491
(dp492
g12
VVB
p493
sbag0
(g1
g2
(lp494
g0
(g1
g2
(lp495
Vany
p496
atp497
Rp498
(dp499
g12
VDT
p500
sbag0
(g1
g2
(lp501
Vcandy
p502
atp503
Rp504
(dp505
g12
VNN
p506
sbatp507
Rp508
(dp509
g12
VNP
p510
sbatp511
Rp512
(dp513
g12
VVP
p514
sbatp515
Rp516
(dp517
g12
VVP
p518
sbatp519
Rp520
(dp521
g12
VS
p522
sbatp523
Rp524
(dp525
g12
VS
p526
sbatp527
Rp528
(dp529
g12
VS
p530
sbatp531
Rp532
(dp533
g12
VS
p534
sbag0
(g1
g2
(lp535
V,
p536
atp537
Rp538
(dp539
g12
V,
p540
sbag0
(g1
g2
(lp541
Vso
p542
atp543
Rp544
(dp545
g12
VIN
p546
sbag0
(g1
g2
(lp547
g0
(g1
g2
(lp548
g0
(g1
g2
(lp549
Vthe
p550
atp551
Rp552
(dp553
g12
VDT
p554
sbag0
(g1
g2
(lp555
Vlittle
p556
atp557
Rp558
(dp559
g12
VJJ
p560
sbag0
(g1
g2
(lp561
Vsquirt
p562
atp563
Rp564
(dp565
g12
VNN
p566
sbatp567
Rp568
(dp569
g12
VNP
p570
sbag0
(g1
g2
(lp571
g0
(g1
g2
(lp572
Vis
p573
atp574
Rp575
(dp576
g12
VVBZ
p577
sbag0
(g1
g2
(lp578
g0
(g1
g2
(lp579
Vgon
p580
atp581
Rp582
(dp583
g12
VVBG
p584
sbag0
(g1
g2
(lp585
g0
(g1
g2
(lp586
g0
(g1
g2
(lp587
Vna
p588
atp589
Rp590
(dp591
g12
VTO
p592
sbag0
(g1
g2
(lp593
g0
(g1
g2
(lp594
Vgive
p595
atp596
Rp597
(dp598
g12
VVB
p599
sbag0
(g1
g2
(lp600
g0
(g1
g2
(lp601
Vhis
p602
atp603
Rp604
(dp605
g12
VPRP$
p606
sbatp607
Rp608
(dp609
g12
VNP
p610
sbag0
(g1
g2
(lp611
V,
p612
atp613
Rp614
(dp615
g12
V,
p616
sbag0
(g1
g2
(lp617
g0
(g1
g2
(lp618
g0
(g1
g2
(lp619
Vhis
p620
atp621
Rp622
(dp623
g12
VPRP$
p624
sbag0
(g1
g2
(lp625
Vsister
p626
atp627
Rp628
(dp629
g12
VNN
p630
sbatp631
Rp632
(dp633
g12
VNP
p634
sbag0
(g1
g2
(lp635
g0
(g1
g2
(lp636
Vsome
p637
atp638
Rp639
(dp640
g12
VDT
p641
sbag0
(g1
g2
(lp642
Vcandy
p643
atp644
Rp645
(dp646
g12
VNN
p647
sbatp648
Rp649
(dp650
g12
VNP
p651
sbatp652
Rp653
(dp654
g12
VNP
p655
sbatp656
Rp657
(dp658
g12
VVP
p659
sbatp660
Rp661
(dp662
g12
VVP
p663
sbatp664
Rp665
(dp666
g12
VS
p667
sbatp668
Rp669
(dp670
g12
VVP
p671
sbatp672
Rp673
(dp674
g12
VVP
p675
sbatp676
Rp677
(dp678
g12
VS
p679
sbag0
(g1
g2
(lp680
V.
p681
atp682
Rp683
(dp684
g12
V.
p685
sbatp686
Rp687
(dp688
g12
VS
p689
sbatp690
Rp691
(dp692
g12
S'id: 1'
p693
sbag0
(g1
g2
(lp694
g0
(g1
g2
(lp695
g0
(g1
g2
(lp696
VAnd
p697
atp698
Rp699
(dp700
g12
VCC
p701
sbag0
(g1
g2
(lp702
g0
(g1
g2
(lp703
g0
(g1
g2
(lp704
Vthe
p705
atp706
Rp707
(dp708
g12
VDT
p709
sbag0
(g1
g2
(lp710
Vone
p711
atp712
Rp713
(dp714
g12
VCD
p715
sbatp716
Rp717
(dp718
g12
VNP
p719
sbag0
(g1
g2
(lp720
g0
(g1
g2
(lp721
Vover
p722
atp723
Rp724
(dp725
g12
VIN
p726
sbag0
(g1
g2
(lp727
g0
(g1
g2
(lp728
g0
(g1
g2
(lp729
Vhere
p730
atp731
Rp732
(dp733
g12
VRB
p734
sbatp735
Rp736
(dp737
g12
VNP
p738
sbag0
(g1
g2
(lp739
g0
(g1
g2
(lp740
Vwith
p741
atp742
Rp743
(dp744
g12
VIN
p745
sbag0
(g1
g2
(lp746
g0
(g1
g2
(lp747
Vthe
p748
atp749
Rp750
(dp751
g12
VDT
p752
sbag0
(g1
g2
(lp753
Vlittle
p754
atp755
Rp756
(dp757
g12
VJJ
p758
sbag0
(g1
g2
(lp759
Vboy
p760
atp761
Rp762
(dp763
g12
VNN
p764
sbatp765
Rp766
(dp767
g12
VNP
p768
sbatp769
Rp770
(dp771
g12
VPP
p772
sbatp773
Rp774
(dp775
g12
VNP
p776
sbatp777
Rp778
(dp779
g12
VPP
p780
sbatp781
Rp782
(dp783
g12
VNP
p784
sbag0
(g1
g2
(lp785
g0
(g1
g2
(lp786
V,
p787
atp788
Rp789
(dp790
g12
V,
p791
sbag0
(g1
g2
(lp792
g0
(g1
g2
(lp793
Vwith
p794
atp795
Rp796
(dp797
g12
VIN
p798
sbag0
(g1
g2
(lp799
g0
(g1
g2
(lp800
Vthe
p801
atp802
Rp803
(dp804
g12
VDT
p805
sbag0
(g1
g2
(lp806
Vbrother
p807
atp808
Rp809
(dp810
g12
VNN
p811
sbatp812
Rp813
(dp814
g12
VNP
p815
sbatp816
Rp817
(dp818
g12
VPP
p819
sbag0
(g1
g2
(lp820
V,
p821
atp822
Rp823
(dp824
g12
V,
p825
sbatp826
Rp827
(dp828
g12
VPRN
p829
sbag0
(g1
g2
(lp830
g0
(g1
g2
(lp831
Vshe
p832
atp833
Rp834
(dp835
g12
VPRP
p836
sbatp837
Rp838
(dp839
g12
VNP
p840
sbag0
(g1
g2
(lp841
g0
(g1
g2
(lp842
Vwants
p843
atp844
Rp845
(dp846
g12
VVBZ
p847
sbag0
(g1
g2
(lp848
g0
(g1
g2
(lp849
Vsome
p850
atp851
Rp852
(dp853
g12
VDT
p854
sbag0
(g1
g2
(lp855
Vcandy
p856
atp857
Rp858
(dp859
g12
VNN
p860
sbatp861
Rp862
(dp863
g12
VNP
p864
sbag0
(g1
g2
(lp865
g0
(g1
g2
(lp866
Vtoo
p867
atp868
Rp869
(dp870
g12
VRB
p871
sbatp872
Rp873
(dp874
g12
VADVP
p875
sbatp876
Rp877
(dp878
g12
VVP
p879
sbag0
(g1
g2
(lp880
V.
p881
atp882
Rp883
(dp884
g12
V.
p885
sbatp886
Rp887
(dp888
g12
VS
p889
sbatp890
Rp891
(dp892
g12
S'id: 2'
p893
sbag0
(g1
g2
(lp894
g0
(g1
g2
(lp895
g0
(g1
g2
(lp896
VAnd
p897
atp898
Rp899
(dp900
g12
VCC
p901
sbag0
(g1
g2
(lp902
g0
(g1
g2
(lp903
g0
(g1
g2
(lp904
Vthe
p905
atp906
Rp907
(dp908
g12
VDT
p909
sbag0
(g1
g2
(lp910
Vcircus
p911
atp912
Rp913
(dp914
g12
VNN
p915
sbag0
(g1
g2
(lp916
Vclown
p917
atp918
Rp919
(dp920
g12
VNN
p921
sbatp922
Rp923
(dp924
g12
VNP
p925
sbag0
(g1
g2
(lp926
V,
p927
atp928
Rp929
(dp930
g12
V,
p931
sbag0
(g1
g2
(lp932
Vor
p933
atp934
Rp935
(dp936
g12
VCC
p937
sbag0
(g1
g2
(lp938
g0
(g1
g2
(lp939
Vsomething
p940
atp941
Rp942
(dp943
g12
VNN
p944
sbatp945
Rp946
(dp947
g12
VNP
p948
sbatp949
Rp950
(dp951
g12
VNP
p952
sbag0
(g1
g2
(lp953
V,
p954
atp955
Rp956
(dp957
g12
V,
p958
sbag0
(g1
g2
(lp959
g0
(g1
g2
(lp960
g0
(g1
g2
(lp961
g0
(g1
g2
(lp962
VI
p963
atp964
Rp965
(dp966
g12
VPRP
p967
sbatp968
Rp969
(dp970
g12
VNP
p971
sbag0
(g1
g2
(lp972
g0
(g1
g2
(lp973
Vdont
p974
atp975
Rp976
(dp977
g12
VVBP
p978
sbag0
(g1
g2
(lp979
g0
(g1
g2
(lp980
Vknow
p981
atp982
Rp983
(dp984
g12
VVB
p985
sbag0
(g1
g2
(lp986
g0
(g1
g2
(lp987
g0
(g1
g2
(lp988
Vwhat
p989
atp990
Rp991
(dp992
g12
VWP
p993
sbatp994
Rp995
(dp996
g12
VWHNP
p997
sbag0
(g1
g2
(lp998
g0
(g1
g2
(lp999
g0
(g1
g2
(lp1000
Vhe
p1001
atp1002
Rp1003
(dp1004
g12
VPRP
p1005
sbatp1006
Rp1007
(dp1008
g12
VNP
p1009
sbag0
(g1
g2
(lp1010
g0
(g1
g2
(lp1011
Vis
p1012
atp1013
Rp1014
(dp1015
g12
VVBZ
p1016
sbag0
(g1
g2
(lp1017
V,
p1018
atp1019
Rp1020
(dp1021
g12
V,
p1022
sbag0
(g1
g2
(lp1023
g0
(g1
g2
(lp1024
Vmagician
p1025
atp1026
Rp1027
(dp1028
g12
VNN
p1029
sbag0
(g1
g2
(lp1030
Vor
p1031
atp1032
Rp1033
(dp1034
g12
VCC
p1035
sbag0
(g1
g2
(lp1036
Vsomething
p1037
atp1038
Rp1039
(dp1040
g12
VNN
p1041
sbatp1042
Rp1043
(dp1044
g12
VNP
p1045
sbatp1046
Rp1047
(dp1048
g12
VVP
p1049
sbatp1050
Rp1051
(dp1052
g12
VS
p1053
sbatp1054
Rp1055
(dp1056
g12
VSBAR
p1057
sbatp1058
Rp1059
(dp1060
g12
VVP
p1061
sbatp1062
Rp1063
(dp1064
g12
VVP
p1065
sbatp1066
Rp1067
(dp1068
g12
VS
p1069
sbatp1070
Rp1071
(dp1072
g12
VPRN
p1073
sbag0
(g1
g2
(lp1074
V,
p1075
atp1076
Rp1077
(dp1078
g12
V,
p1079
sbag0
(g1
g2
(lp1080
g0
(g1
g2
(lp1081
Vhe
p1082
atp1083
Rp1084
(dp1085
g12
VPRP
p1086
sbatp1087
Rp1088
(dp1089
g12
VNP
p1090
sbag0
(g1
g2
(lp1091
g0
(g1
g2
(lp1092
V's
p1093
atp1094
Rp1095
(dp1096
g12
VVBZ
p1097
sbag0
(g1
g2
(lp1098
g0
(g1
g2
(lp1099
Vover
p1100
atp1101
Rp1102
(dp1103
g12
VIN
p1104
sbag0
(g1
g2
(lp1105
g0
(g1
g2
(lp1106
g0
(g1
g2
(lp1107
Vtalking
p1108
atp1109
Rp1110
(dp1111
g12
VVBG
p1112
sbag0
(g1
g2
(lp1113
g0
(g1
g2
(lp1114
Vto
p1115
atp1116
Rp1117
(dp1118
g12
VTO
p1119
sbag0
(g1
g2
(lp1120
g0
(g1
g2
(lp1121
Vthat
p1122
atp1123
Rp1124
(dp1125
g12
VDT
p1126
sbag0
(g1
g2
(lp1127
Vlion
p1128
atp1129
Rp1130
(dp1131
g12
VNN
p1132
sbatp1133
Rp1134
(dp1135
g12
VNP
p1136
sbatp1137
Rp1138
(dp1139
g12
VPP
p1140
sbatp1141
Rp1142
(dp1143
g12
VVP
p1144
sbatp1145
Rp1146
(dp1147
g12
VS
p1148
sbatp1149
Rp1150
(dp1151
g12
VPP
p1152
sbatp1153
Rp1154
(dp1155
g12
VVP
p1156
sbag0
(g1
g2
(lp1157
V.
p1158
atp1159
Rp1160
(dp1161
g12
V.
p1162
sbatp1163
Rp1164
(dp1165
g12
VS
p1166
sbatp1167
Rp1168
(dp1169
g12
S'id: 3'
p1170
sbag0
(g1
g2
(lp1171
g0
(g1
g2
(lp1172
g0
(g1
g2
(lp1173
g0
(g1
g2
(lp1174
VIf
p1175
atp1176
Rp1177
(dp1178
g12
VIN
p1179
sbag0
(g1
g2
(lp1180
g0
(g1
g2
(lp1181
g0
(g1
g2
(lp1182
Vyou
p1183
atp1184
Rp1185
(dp1186
g12
VPRP
p1187
sbatp1188
Rp1189
(dp1190
g12
VNP
p1191
sbag0
(g1
g2
(lp1192
g0
(g1
g2
(lp1193
Vdont
p1194
atp1195
Rp1196
(dp1197
g12
VVBP
p1198
sbatp1199
Rp1200
(dp1201
g12
VVP
p1202
sbatp1203
Rp1204
(dp1205
g12
VS
p1206
sbatp1207
Rp1208
(dp1209
g12
VSBAR
p1210
sbag0
(g1
g2
(lp1211
g0
(g1
g2
(lp1212
Vget
p1213
atp1214
Rp1215
(dp1216
g12
VVB
p1217
sbag0
(g1
g2
(lp1218
g0
(g1
g2
(lp1219
Vhis
p1220
atp1221
Rp1222
(dp1223
g12
VPRP$
p1224
sbag0
(g1
g2
(lp1225
Vhand
p1226
atp1227
Rp1228
(dp1229
g12
VNN
p1230
sbatp1231
Rp1232
(dp1233
g12
VNP
p1234
sbag0
(g1
g2
(lp1235
g0
(g1
g2
(lp1236
Vout
p1237
atp1238
Rp1239
(dp1240
g12
VIN
p1241
sbag0
(g1
g2
(lp1242
g0
(g1
g2
(lp1243
Vof
p1244
atp1245
Rp1246
(dp1247
g12
VIN
p1248
sbag0
(g1
g2
(lp1249
g0
(g1
g2
(lp1250
g0
(g1
g2
(lp1251
g0
(g1
g2
(lp1252
Vthat
p1253
atp1254
Rp1255
(dp1256
g12
VDT
p1257
sbag0
(g1
g2
(lp1258
Vlion
p1259
atp1260
Rp1261
(dp1262
g12
VNN
p1263
sbag0
(g1
g2
(lp1264
Vface
p1265
atp1266
Rp1267
(dp1268
g12
VNN
p1269
sbatp1270
Rp1271
(dp1272
g12
VNP
p1273
sbag0
(g1
g2
(lp1274
V,
p1275
atp1276
Rp1277
(dp1278
g12
V,
p1279
sbag0
(g1
g2
(lp1280
g0
(g1
g2
(lp1281
Vthat
p1282
atp1283
Rp1284
(dp1285
g12
VIN
p1286
sbag0
(g1
g2
(lp1287
g0
(g1
g2
(lp1288
g0
(g1
g2
(lp1289
Vlion
p1290
atp1291
Rp1292
(dp1293
g12
VNN
p1294
sbatp1295
Rp1296
(dp1297
g12
VNP
p1298
sbag0
(g1
g2
(lp1299
g0
(g1
g2
(lp1300
Vgo
p1301
atp1302
Rp1303
(dp1304
g12
VVB
p1305
sbatp1306
Rp1307
(dp1308
g12
VVP
p1309
sbatp1310
Rp1311
(dp1312
g12
VS
p1313
sbatp1314
Rp1315
(dp1316
g12
VSBAR
p1317
sbag0
(g1
g2
(lp1318
V,
p1319
atp1320
Rp1321
(dp1322
g12
V,
p1323
sbatp1324
Rp1325
(dp1326
g12
VNP
p1327
sbag0
(g1
g2
(lp1328
g0
(g1
g2
(lp1329
Vgon
p1330
atp1331
Rp1332
(dp1333
g12
VVBG
p1334
sbag0
(g1
g2
(lp1335
g0
(g1
g2
(lp1336
g0
(g1
g2
(lp1337
Vna
p1338
atp1339
Rp1340
(dp1341
g12
VTO
p1342
sbag0
(g1
g2
(lp1343
g0
(g1
g2
(lp1344
Vattack
p1345
atp1346
Rp1347
(dp1348
g12
VVB
p1349
sbag0
(g1
g2
(lp1350
g0
(g1
g2
(lp1351
Vhim
p1352
atp1353
Rp1354
(dp1355
g12
VPRP
p1356
sbatp1357
Rp1358
(dp1359
g12
VNP
p1360
sbatp1361
Rp1362
(dp1363
g12
VVP
p1364
sbatp1365
Rp1366
(dp1367
g12
VVP
p1368
sbatp1369
Rp1370
(dp1371
g12
VS
p1372
sbatp1373
Rp1374
(dp1375
g12
VVP
p1376
sbatp1377
Rp1378
(dp1379
g12
VNP
p1380
sbatp1381
Rp1382
(dp1383
g12
VPP
p1384
sbatp1385
Rp1386
(dp1387
g12
VADVP
p1388
sbatp1389
Rp1390
(dp1391
g12
VVP
p1392
sbag0
(g1
g2
(lp1393
V.
p1394
atp1395
Rp1396
(dp1397
g12
V.
p1398
sbatp1399
Rp1400
(dp1401
g12
VS
p1402
sbatp1403
Rp1404
(dp1405
g12
S'id: 4'
p1406
sbag0
(g1
g2
(lp1407
g0
(g1
g2
(lp1408
g0
(g1
g2
(lp1409
g0
(g1
g2
(lp1410
VAnd
p1411
atp1412
Rp1413
(dp1414
g12
VCC
p1415
sbag0
(g1
g2
(lp1416
g0
(g1
g2
(lp1417
g0
(g1
g2
(lp1418
g0
(g1
g2
(lp1419
Vjust
p1420
atp1421
Rp1422
(dp1423
g12
VRB
p1424
sbag0
(g1
g2
(lp1425
Va
p1426
atp1427
Rp1428
(dp1429
g12
VDT
p1430
sbag0
(g1
g2
(lp1431
Vjoker
p1432
atp1433
Rp1434
(dp1435
g12
VNN
p1436
sbatp1437
Rp1438
(dp1439
g12
VNP
p1440
sbag0
(g1
g2
(lp1441
Vup
p1442
atp1443
Rp1444
(dp1445
g12
VIN
p1446
sbatp1447
Rp1448
(dp1449
g12
VADVP
p1450
sbag0
(g1
g2
(lp1451
Vthere
p1452
atp1453
Rp1454
(dp1455
g12
VRB
p1456
sbatp1457
Rp1458
(dp1459
g12
VADVP
p1460
sbag0
(g1
g2
(lp1461
g0
(g1
g2
(lp1462
Vtight
p1463
atp1464
Rp1465
(dp1466
g12
VJJ
p1467
sbag0
(g1
g2
(lp1468
Vrope
p1469
atp1470
Rp1471
(dp1472
g12
VNN
p1473
sbatp1474
Rp1475
(dp1476
g12
VNP
p1477
sbatp1478
Rp1479
(dp1480
g12
VFRAG
p1481
sbag0
(g1
g2
(lp1482
V,
p1483
atp1484
Rp1485
(dp1486
g12
V,
p1487
sbag0
(g1
g2
(lp1488
g0
(g1
g2
(lp1489
Vhe
p1490
atp1491
Rp1492
(dp1493
g12
VPRP
p1494
sbatp1495
Rp1496
(dp1497
g12
VNP
p1498
sbag0
(g1
g2
(lp1499
g0
(g1
g2
(lp1500
V's
p1501
atp1502
Rp1503
(dp1504
g12
VVBZ
p1505
sbag0
(g1
g2
(lp1506
g0
(g1
g2
(lp1507
g0
(g1
g2
(lp1508
Vdoin
p1509
atp1510
Rp1511
(dp1512
g12
VNN
p1513
sbatp1514
Rp1515
(dp1516
g12
VNP
p1517
sbag0
(g1
g2
(lp1518
g0
(g1
g2
(lp1519
Va
p1520
atp1521
Rp1522
(dp1523
g12
VDT
p1524
sbag0
(g1
g2
(lp1525
Vgood
p1526
atp1527
Rp1528
(dp1529
g12
VJJ
p1530
sbag0
(g1
g2
(lp1531
Vjob
p1532
atp1533
Rp1534
(dp1535
g12
VNN
p1536
sbatp1537
Rp1538
(dp1539
g12
VNP
p1540
sbatp1541
Rp1542
(dp1543
g12
VNP
p1544
sbatp1545
Rp1546
(dp1547
g12
VVP
p1548
sbag0
(g1
g2
(lp1549
V.
p1550
atp1551
Rp1552
(dp1553
g12
V.
p1554
sbatp1555
Rp1556
(dp1557
g12
VS
p1558
sbatp1559
Rp1560
(dp1561
g12
S'id: 5'
p1562
sbag0
(g1
g2
(lp1563
g0
(g1
g2
(lp1564
g0
(g1
g2
(lp1565
g0
(g1
g2
(lp1566
g0
(g1
g2
(lp1567
g0
(g1
g2
(lp1568
g0
(g1
g2
(lp1569
g0
(g1
g2
(lp1570
VEverybody
p1571
atp1572
Rp1573
(dp1574
g12
VNN
p1575
sbag0
(g1
g2
(lp1576
V's
p1577
atp1578
Rp1579
(dp1580
g12
VPOS
p1581
sbatp1582
Rp1583
(dp1584
g12
VNP
p1585
sbag0
(g1
g2
(lp1586
Vsitting
p1587
atp1588
Rp1589
(dp1590
g12
VVBG
p1591
sbatp1592
Rp1593
(dp1594
g12
VNP
p1595
sbag0
(g1
g2
(lp1596
g0
(g1
g2
(lp1597
Vthere
p1598
atp1599
Rp1600
(dp1601
g12
VRB
p1602
sbatp1603
Rp1604
(dp1605
g12
VADVP
p1606
sbatp1607
Rp1608
(dp1609
g12
VNP
p1610
sbag0
(g1
g2
(lp1611
V,
p1612
atp1613
Rp1614
(dp1615
g12
V,
p1616
sbag0
(g1
g2
(lp1617
g0
(g1
g2
(lp1618
Vone
p1619
atp1620
Rp1621
(dp1622
g12
VCD
p1623
sbatp1624
Rp1625
(dp1626
g12
VNP
p1627
sbatp1628
Rp1629
(dp1630
g12
VNP
p1631
sbag0
(g1
g2
(lp1632
V,
p1633
atp1634
Rp1635
(dp1636
g12
V,
p1637
sbag0
(g1
g2
(lp1638
g0
(g1
g2
(lp1639
g0
(g1
g2
(lp1640
Vtwo
p1641
atp1642
Rp1643
(dp1644
g12
VCD
p1645
sbatp1646
Rp1647
(dp1648
g12
VNP
p1649
sbag0
(g1
g2
(lp1650
V,
p1651
atp1652
Rp1653
(dp1654
g12
V,
p1655
sbag0
(g1
g2
(lp1656
g0
(g1
g2
(lp1657
Vthere
p1658
atp1659
Rp1660
(dp1661
g12
VRB
p1662
sbatp1663
Rp1664
(dp1665
g12
VNP
p1666
sbag0
(g1
g2
(lp1667
V,
p1668
atp1669
Rp1670
(dp1671
g12
V,
p1672
sbag0
(g1
g2
(lp1673
g0
(g1
g2
(lp1674
Vfour
p1675
atp1676
Rp1677
(dp1678
g12
VCD
p1679
sbatp1680
Rp1681
(dp1682
g12
VNP
p1683
sbag0
(g1
g2
(lp1684
V,
p1685
atp1686
Rp1687
(dp1688
g12
V,
p1689
sbag0
(g1
g2
(lp1690
g0
(g1
g2
(lp1691
Vfour
p1692
atp1693
Rp1694
(dp1695
g12
VCD
p1696
sbatp1697
Rp1698
(dp1699
g12
VNP
p1700
sbag0
(g1
g2
(lp1701
Vand
p1702
atp1703
Rp1704
(dp1705
g12
VCC
p1706
sbag0
(g1
g2
(lp1707
g0
(g1
g2
(lp1708
Vtwo
p1709
atp1710
Rp1711
(dp1712
g12
VCD
p1713
sbag0
(g1
g2
(lp1714
Vpeoples
p1715
atp1716
Rp1717
(dp1718
g12
VNNS
p1719
sbatp1720
Rp1721
(dp1722
g12
VNP
p1723
sbatp1724
Rp1725
(dp1726
g12
VNP
p1727
sbatp1728
Rp1729
(dp1730
g12
VNP
p1731
sbag0
(g1
g2
(lp1732
g0
(g1
g2
(lp1733
Vare
p1734
atp1735
Rp1736
(dp1737
g12
VVBP
p1738
sbag0
(g1
g2
(lp1739
g0
(g1
g2
(lp1740
Vsitting
p1741
atp1742
Rp1743
(dp1744
g12
VVBG
p1745
sbag0
(g1
g2
(lp1746
g0
(g1
g2
(lp1747
Von
p1748
atp1749
Rp1750
(dp1751
g12
VIN
p1752
sbag0
(g1
g2
(lp1753
g0
(g1
g2
(lp1754
Vthe
p1755
atp1756
Rp1757
(dp1758
g12
VDT
p1759
sbag0
(g1
g2
(lp1760
Vbench
p1761
atp1762
Rp1763
(dp1764
g12
VNN
p1765
sbatp1766
Rp1767
(dp1768
g12
VNP
p1769
sbatp1770
Rp1771
(dp1772
g12
VPP
p1773
sbag0
(g1
g2
(lp1774
g0
(g1
g2
(lp1775
Vbeside
p1776
atp1777
Rp1778
(dp1779
g12
VIN
p1780
sbag0
(g1
g2
(lp1781
g0
(g1
g2
(lp1782
Vhim
p1783
atp1784
Rp1785
(dp1786
g12
VPRP
p1787
sbatp1788
Rp1789
(dp1790
g12
VNP
p1791
sbatp1792
Rp1793
(dp1794
g12
VPP
p1795
sbag0
(g1
g2
(lp1796
V,
p1797
atp1798
Rp1799
(dp1800
g12
V,
p1801
sbag0
(g1
g2
(lp1802
g0
(g1
g2
(lp1803
g0
(g1
g2
(lp1804
Vwatching
p1805
atp1806
Rp1807
(dp1808
g12
VVBG
p1809
sbag0
(g1
g2
(lp1810
g0
(g1
g2
(lp1811
Vhim
p1812
atp1813
Rp1814
(dp1815
g12
VPRP
p1816
sbatp1817
Rp1818
(dp1819
g12
VNP
p1820
sbatp1821
Rp1822
(dp1823
g12
VVP
p1824
sbatp1825
Rp1826
(dp1827
g12
VS
p1828
sbatp1829
Rp1830
(dp1831
g12
VVP
p1832
sbatp1833
Rp1834
(dp1835
g12
VVP
p1836
sbag0
(g1
g2
(lp1837
V.
p1838
atp1839
Rp1840
(dp1841
g12
V.
p1842
sbatp1843
Rp1844
(dp1845
g12
VS
p1846
sbatp1847
Rp1848
(dp1849
g12
S'id: 6'
p1850
sbag0
(g1
g2
(lp1851
g0
(g1
g2
(lp1852
g0
(g1
g2
(lp1853
VAnd
p1854
atp1855
Rp1856
(dp1857
g12
VCC
p1858
sbag0
(g1
g2
(lp1859
V,
p1860
atp1861
Rp1862
(dp1863
g12
V,
p1864
sbag0
(g1
g2
(lp1865
g0
(g1
g2
(lp1866
Vwhat
p1867
atp1868
Rp1869
(dp1870
g12
VWDT
p1871
sbatp1872
Rp1873
(dp1874
g12
VNP
p1875
sbag0
(g1
g2
(lp1876
g0
(g1
g2
(lp1877
Vsaid
p1878
atp1879
Rp1880
(dp1881
g12
VVBD
p1882
sbag0
(g1
g2
(lp1883
g0
(g1
g2
(lp1884
g0
(g1
g2
(lp1885
Vthe
p1886
atp1887
Rp1888
(dp1889
g12
VDT
p1890
sbag0
(g1
g2
(lp1891
Vmermaid
p1892
atp1893
Rp1894
(dp1895
g12
VNN
p1896
sbag0
(g1
g2
(lp1897
V,
p1898
atp1899
Rp1900
(dp1901
g12
V,
p1902
sbag0
(g1
g2
(lp1903
Vor
p1904
atp1905
Rp1906
(dp1907
g12
VCC
p1908
sbag0
(g1
g2
(lp1909
Vsomething
p1910
atp1911
Rp1912
(dp1913
g12
VNN
p1914
sbatp1915
Rp1916
(dp1917
g12
VNP
p1918
sbag0
(g1
g2
(lp1919
g0
(g1
g2
(lp1920
g0
(g1
g2
(lp1921
g0
(g1
g2
(lp1922
Vis
p1923
atp1924
Rp1925
(dp1926
g12
VVBZ
p1927
sbag0
(g1
g2
(lp1928
g0
(g1
g2
(lp1929
Vriding
p1930
atp1931
Rp1932
(dp1933
g12
VVBG
p1934
sbag0
(g1
g2
(lp1935
g0
(g1
g2
(lp1936
Vthe
p1937
atp1938
Rp1939
(dp1940
g12
VDT
p1941
sbag0
(g1
g2
(lp1942
Vpony
p1943
atp1944
Rp1945
(dp1946
g12
VNN
p1947
sbatp1948
Rp1949
(dp1950
g12
VNP
p1951
sbag0
(g1
g2
(lp1952
V,
p1953
atp1954
Rp1955
(dp1956
g12
V,
p1957
sbag0
(g1
g2
(lp1958
g0
(g1
g2
(lp1959
Vover
p1960
atp1961
Rp1962
(dp1963
g12
VIN
p1964
sbag0
(g1
g2
(lp1965
g0
(g1
g2
(lp1966
Vthere
p1967
atp1968
Rp1969
(dp1970
g12
VEX
p1971
sbatp1972
Rp1973
(dp1974
g12
VNP
p1975
sbatp1976
Rp1977
(dp1978
g12
VPP
p1979
sbatp1980
Rp1981
(dp1982
g12
VVP
p1983
sbatp1984
Rp1985
(dp1986
g12
VVP
p1987
sbatp1988
Rp1989
(dp1990
g12
VS
p1991
sbatp1992
Rp1993
(dp1994
g12
VSBAR
p1995
sbatp1996
Rp1997
(dp1998
g12
VNP
p1999
sbatp2000
Rp2001
(dp2002
g12
VVP
p2003
sbag0
(g1
g2
(lp2004
V.
p2005
atp2006
Rp2007
(dp2008
g12
V.
p2009
sbatp2010
Rp2011
(dp2012
g12
VS
p2013
sbatp2014
Rp2015
(dp2016
g12
S'id: 7'
p2017
sbag0
(g1
g2
(lp2018
g0
(g1
g2
(lp2019
g0
(g1
g2
(lp2020
VAnd
p2021
atp2022
Rp2023
(dp2024
g12
VCC
p2025
sbag0
(g1
g2
(lp2026
g0
(g1
g2
(lp2027
Vin
p2028
atp2029
Rp2030
(dp2031
g12
VIN
p2032
sbag0
(g1
g2
(lp2033
g0
(g1
g2
(lp2034
Vhis
p2035
atp2036
Rp2037
(dp2038
g12
VPRP$
p2039
sbag0
(g1
g2
(lp2040
Varea
p2041
atp2042
Rp2043
(dp2044
g12
VNN
p2045
sbatp2046
Rp2047
(dp2048
g12
VNP
p2049
sbatp2050
Rp2051
(dp2052
g12
VPP
p2053
sbag0
(g1
g2
(lp2054
V,
p2055
atp2056
Rp2057
(dp2058
g12
V,
p2059
sbag0
(g1
g2
(lp2060
g0
(g1
g2
(lp2061
Vand
p2062
atp2063
Rp2064
(dp2065
g12
VCC
p2066
sbag0
(g1
g2
(lp2067
g0
(g1
g2
(lp2068
Vthere
p2069
atp2070
Rp2071
(dp2072
g12
VEX
p2073
sbatp2074
Rp2075
(dp2076
g12
VNP
p2077
sbag0
(g1
g2
(lp2078
g0
(g1
g2
(lp2079
Vshould
p2080
atp2081
Rp2082
(dp2083
g12
VMD
p2084
sbag0
(g1
g2
(lp2085
g0
(g1
g2
(lp2086
Vbe
p2087
atp2088
Rp2089
(dp2090
g12
VVB
p2091
sbag0
(g1
g2
(lp2092
g0
(g1
g2
(lp2093
Vtwo
p2094
atp2095
Rp2096
(dp2097
g12
VCD
p2098
sbag0
(g1
g2
(lp2099
VX.
p2100
atp2101
Rp2102
(dp2103
g12
VNNP
p2104
sbatp2105
Rp2106
(dp2107
g12
VNP
p2108
sbatp2109
Rp2110
(dp2111
g12
VVP
p2112
sbatp2113
Rp2114
(dp2115
g12
VVP
p2116
sbatp2117
Rp2118
(dp2119
g12
VS
p2120
sbag0
(g1
g2
(lp2121
VAnd
p2122
atp2123
Rp2124
(dp2125
g12
VCC
p2126
sbag0
(g1
g2
(lp2127
g0
(g1
g2
(lp2128
g0
(g1
g2
(lp2129
Vthis
p2130
atp2131
Rp2132
(dp2133
g12
VDT
p2134
sbatp2135
Rp2136
(dp2137
g12
VNP
p2138
sbag0
(g1
g2
(lp2139
g0
(g1
g2
(lp2140
Vseems
p2141
atp2142
Rp2143
(dp2144
g12
VVBZ
p2145
sbag0
(g1
g2
(lp2146
g0
(g1
g2
(lp2147
g0
(g1
g2
(lp2148
Vto
p2149
atp2150
Rp2151
(dp2152
g12
VTO
p2153
sbag0
(g1
g2
(lp2154
g0
(g1
g2
(lp2155
Vbe
p2156
atp2157
Rp2158
(dp2159
g12
VVB
p2160
sbag0
(g1
g2
(lp2161
g0
(g1
g2
(lp2162
Va
p2163
atp2164
Rp2165
(dp2166
g12
VDT
p2167
sbag0
(g1
g2
(lp2168
Vwarm
p2169
atp2170
Rp2171
(dp2172
g12
VJJ
p2173
sbag0
(g1
g2
(lp2174
Vday
p2175
atp2176
Rp2177
(dp2178
g12
VNN
p2179
sbatp2180
Rp2181
(dp2182
g12
VNP
p2183
sbag0
(g1
g2
(lp2184
g0
(g1
g2
(lp2185
Vbecause
p2186
atp2187
Rp2188
(dp2189
g12
VIN
p2190
sbag0
(g1
g2
(lp2191
g0
(g1
g2
(lp2192
g0
(g1
g2
(lp2193
Veveryone
p2194
atp2195
Rp2196
(dp2197
g12
VNN
p2198
sbatp2199
Rp2200
(dp2201
g12
VNP
p2202
sbag0
(g1
g2
(lp2203
g0
(g1
g2
(lp2204
Vhas
p2205
atp2206
Rp2207
(dp2208
g12
VVBZ
p2209
sbag0
(g1
g2
(lp2210
g0
(g1
g2
(lp2211
g0
(g1
g2
(lp2212
Von
p2213
atp2214
Rp2215
(dp2216
g12
VIN
p2217
sbag0
(g1
g2
(lp2218
g0
(g1
g2
(lp2219
Vshort
p2220
atp2221
Rp2222
(dp2223
g12
VJJ
p2224
sbag0
(g1
g2
(lp2225
Vsleeves
p2226
atp2227
Rp2228
(dp2229
g12
VNNS
p2230
sbatp2231
Rp2232
(dp2233
g12
VNP
p2234
sbatp2235
Rp2236
(dp2237
g12
VPP
p2238
sbatp2239
Rp2240
(dp2241
g12
VVP
p2242
sbatp2243
Rp2244
(dp2245
g12
VVP
p2246
sbatp2247
Rp2248
(dp2249
g12
VS
p2250
sbatp2251
Rp2252
(dp2253
g12
VSBAR
p2254
sbatp2255
Rp2256
(dp2257
g12
VVP
p2258
sbatp2259
Rp2260
(dp2261
g12
VVP
p2262
sbatp2263
Rp2264
(dp2265
g12
VS
p2266
sbatp2267
Rp2268
(dp2269
g12
VVP
p2270
sbatp2271
Rp2272
(dp2273
g12
VS
p2274
sbag0
(g1
g2
(lp2275
V.
p2276
atp2277
Rp2278
(dp2279
g12
V.
p2280
sbatp2281
Rp2282
(dp2283
g12
VS
p2284
sbatp2285
Rp2286
(dp2287
g12
S'id: 8'
p2288
sbag0
(g1
g2
(lp2289
g0
(g1
g2
(lp2290
g0
(g1
g2
(lp2291
VAnd
p2292
atp2293
Rp2294
(dp2295
g12
VCC
p2296
sbag0
(g1
g2
(lp2297
g0
(g1
g2
(lp2298
g0
(g1
g2
(lp2299
Vlittle
p2300
atp2301
Rp2302
(dp2303
g12
VJJ
p2304
sbag0
(g1
g2
(lp2305
Vgirl
p2306
atp2307
Rp2308
(dp2309
g12
VNN
p2310
sbatp2311
Rp2312
(dp2313
g12
VNP
p2314
sbag0
(g1
g2
(lp2315
V,
p2316
atp2317
Rp2318
(dp2319
g12
V,
p2320
sbag0
(g1
g2
(lp2321
g0
(g1
g2
(lp2322
g0
(g1
g2
(lp2323
g0
(g1
g2
(lp2324
Vthe
p2325
atp2326
Rp2327
(dp2328
g12
VDT
p2329
sbag0
(g1
g2
(lp2330
Vmother
p2331
atp2332
Rp2333
(dp2334
g12
VNN
p2335
sbag0
(g1
g2
(lp2336
V's
p2337
atp2338
Rp2339
(dp2340
g12
VPOS
p2341
sbatp2342
Rp2343
(dp2344
g12
VNP
p2345
sbag0
(g1
g2
(lp2346
Vholding
p2347
atp2348
Rp2349
(dp2350
g12
VNN
p2351
sbatp2352
Rp2353
(dp2354
g12
VNP
p2355
sbag0
(g1
g2
(lp2356
V,
p2357
atp2358
Rp2359
(dp2360
g12
V,
p2361
sbag0
(g1
g2
(lp2362
g0
(g1
g2
(lp2363
Vshe
p2364
atp2365
Rp2366
(dp2367
g12
VPRP
p2368
sbatp2369
Rp2370
(dp2371
g12
VNP
p2372
sbatp2373
Rp2374
(dp2375
g12
VNP
p2376
sbatp2377
Rp2378
(dp2379
g12
VNP
p2380
sbag0
(g1
g2
(lp2381
g0
(g1
g2
(lp2382
V's
p2383
atp2384
Rp2385
(dp2386
g12
VVBZ
p2387
sbag0
(g1
g2
(lp2388
g0
(g1
g2
(lp2389
Vhaving
p2390
atp2391
Rp2392
(dp2393
g12
VVBG
p2394
sbag0
(g1
g2
(lp2395
g0
(g1
g2
(lp2396
g0
(g1
g2
(lp2397
Va
p2398
atp2399
Rp2400
(dp2401
g12
VDT
p2402
sbag0
(g1
g2
(lp2403
Vgood
p2404
atp2405
Rp2406
(dp2407
g12
VJJ
p2408
sbag0
(g1
g2
(lp2409
Vtime
p2410
atp2411
Rp2412
(dp2413
g12
VNN
p2414
sbatp2415
Rp2416
(dp2417
g12
VNP
p2418
sbag0
(g1
g2
(lp2419
g0
(g1
g2
(lp2420
Vat
p2421
atp2422
Rp2423
(dp2424
g12
VIN
p2425
sbag0
(g1
g2
(lp2426
g0
(g1
g2
(lp2427
Vthe
p2428
atp2429
Rp2430
(dp2431
g12
VDT
p2432
sbag0
(g1
g2
(lp2433
Vcircus
p2434
atp2435
Rp2436
(dp2437
g12
VNN
p2438
sbatp2439
Rp2440
(dp2441
g12
VNP
p2442
sbatp2443
Rp2444
(dp2445
g12
VPP
p2446
sbatp2447
Rp2448
(dp2449
g12
VNP
p2450
sbatp2451
Rp2452
(dp2453
g12
VVP
p2454
sbatp2455
Rp2456
(dp2457
g12
VVP
p2458
sbag0
(g1
g2
(lp2459
V.
p2460
atp2461
Rp2462
(dp2463
g12
V.
p2464
sbatp2465
Rp2466
(dp2467
g12
VS
p2468
sbatp2469
Rp2470
(dp2471
g12
S'id: 9'
p2472
sbag0
(g1
g2
(lp2473
g0
(g1
g2
(lp2474
g0
(g1
g2
(lp2475
VAnd
p2476
atp2477
Rp2478
(dp2479
g12
VCC
p2480
sbag0
(g1
g2
(lp2481
g0
(g1
g2
(lp2482
g0
(g1
g2
(lp2483
Vthe
p2484
atp2485
Rp2486
(dp2487
g12
VDT
p2488
sbag0
(g1
g2
(lp2489
Vmama
p2490
atp2491
Rp2492
(dp2493
g12
VNN
p2494
sbatp2495
Rp2496
(dp2497
g12
VNP
p2498
sbag0
(g1
g2
(lp2499
g0
(g1
g2
(lp2500
Vgon
p2501
atp2502
Rp2503
(dp2504
g12
VVBG
p2505
sbag0
(g1
g2
(lp2506
g0
(g1
g2
(lp2507
g0
(g1
g2
(lp2508
Vna
p2509
atp2510
Rp2511
(dp2512
g12
VTO
p2513
sbag0
(g1
g2
(lp2514
g0
(g1
g2
(lp2515
Vhave
p2516
atp2517
Rp2518
(dp2519
g12
VVB
p2520
sbag0
(g1
g2
(lp2521
g0
(g1
g2
(lp2522
g0
(g1
g2
(lp2523
Vto
p2524
atp2525
Rp2526
(dp2527
g12
VTO
p2528
sbag0
(g1
g2
(lp2529
g0
(g1
g2
(lp2530
Vput
p2531
atp2532
Rp2533
(dp2534
g12
VVB
p2535
sbag0
(g1
g2
(lp2536
g0
(g1
g2
(lp2537
Vher
p2538
atp2539
Rp2540
(dp2541
g12
VPRP
p2542
sbatp2543
Rp2544
(dp2545
g12
VNP
p2546
sbag0
(g1
g2
(lp2547
g0
(g1
g2
(lp2548
Vto
p2549
atp2550
Rp2551
(dp2552
g12
VTO
p2553
sbag0
(g1
g2
(lp2554
g0
(g1
g2
(lp2555
Vbed
p2556
atp2557
Rp2558
(dp2559
g12
VNN
p2560
sbatp2561
Rp2562
(dp2563
g12
VNP
p2564
sbatp2565
Rp2566
(dp2567
g12
VPP
p2568
sbag0
(g1
g2
(lp2569
V,
p2570
atp2571
Rp2572
(dp2573
g12
V,
p2574
sbag0
(g1
g2
(lp2575
g0
(g1
g2
(lp2576
Vsoon
p2577
atp2578
Rp2579
(dp2580
g12
VRB
p2581
sbatp2582
Rp2583
(dp2584
g12
VADVP
p2585
sbag0
(g1
g2
(lp2586
V,
p2587
atp2588
Rp2589
(dp2590
g12
V,
p2591
sbag0
(g1
g2
(lp2592
g0
(g1
g2
(lp2593
Vsoon
p2594
atp2595
Rp2596
(dp2597
g12
VRB
p2598
sbag0
(g1
g2
(lp2599
Vas
p2600
atp2601
Rp2602
(dp2603
g12
VIN
p2604
sbag0
(g1
g2
(lp2605
g0
(g1
g2
(lp2606
g0
(g1
g2
(lp2607
Vshe
p2608
atp2609
Rp2610
(dp2611
g12
VPRP
p2612
sbatp2613
Rp2614
(dp2615
g12
VNP
p2616
sbag0
(g1
g2
(lp2617
g0
(g1
g2
(lp2618
Vget
p2619
atp2620
Rp2621
(dp2622
g12
VVB
p2623
sbag0
(g1
g2
(lp2624
g0
(g1
g2
(lp2625
Vhome
p2626
atp2627
Rp2628
(dp2629
g12
VNN
p2630
sbatp2631
Rp2632
(dp2633
g12
VNP
p2634
sbatp2635
Rp2636
(dp2637
g12
VVP
p2638
sbatp2639
Rp2640
(dp2641
g12
VS
p2642
sbatp2643
Rp2644
(dp2645
g12
VSBAR
p2646
sbatp2647
Rp2648
(dp2649
g12
VVP
p2650
sbatp2651
Rp2652
(dp2653
g12
VVP
p2654
sbatp2655
Rp2656
(dp2657
g12
VS
p2658
sbatp2659
Rp2660
(dp2661
g12
VVP
p2662
sbatp2663
Rp2664
(dp2665
g12
VVP
p2666
sbatp2667
Rp2668
(dp2669
g12
VS
p2670
sbatp2671
Rp2672
(dp2673
g12
VVP
p2674
sbatp2675
Rp2676
(dp2677
g12
VS
p2678
sbag0
(g1
g2
(lp2679
V,
p2680
atp2681
Rp2682
(dp2683
g12
V,
p2684
sbag0
(g1
g2
(lp2685
Vbut
p2686
atp2687
Rp2688
(dp2689
g12
VCC
p2690
sbag0
(g1
g2
(lp2691
g0
(g1
g2
(lp2692
g0
(g1
g2
(lp2693
Vshe
p2694
atp2695
Rp2696
(dp2697
g12
VPRP
p2698
sbatp2699
Rp2700
(dp2701
g12
VNP
p2702
sbag0
(g1
g2
(lp2703
g0
(g1
g2
(lp2704
Vlook
p2705
atp2706
Rp2707
(dp2708
g12
VVB
p2709
sbag0
(g1
g2
(lp2710
g0
(g1
g2
(lp2711
Vlike
p2712
atp2713
Rp2714
(dp2715
g12
VIN
p2716
sbag0
(g1
g2
(lp2717
g0
(g1
g2
(lp2718
g0
(g1
g2
(lp2719
Vshe
p2720
atp2721
Rp2722
(dp2723
g12
VPRP
p2724
sbatp2725
Rp2726
(dp2727
g12
VNP
p2728
sbag0
(g1
g2
(lp2729
g0
(g1
g2
(lp2730
Vtired
p2731
atp2732
Rp2733
(dp2734
g12
VVBD
p2735
sbatp2736
Rp2737
(dp2738
g12
VVP
p2739
sbatp2740
Rp2741
(dp2742
g12
VS
p2743
sbatp2744
Rp2745
(dp2746
g12
VSBAR
p2747
sbatp2748
Rp2749
(dp2750
g12
VVP
p2751
sbatp2752
Rp2753
(dp2754
g12
VS
p2755
sbag0
(g1
g2
(lp2756
V.
p2757
atp2758
Rp2759
(dp2760
g12
V.
p2761
sbatp2762
Rp2763
(dp2764
g12
VS
p2765
sbatp2766
Rp2767
(dp2768
g12
S'id: 10'
p2769
sbag0
(g1
g2
(lp2770
g0
(g1
g2
(lp2771
g0
(g1
g2
(lp2772
VAnd
p2773
atp2774
Rp2775
(dp2776
g12
VCC
p2777
sbag0
(g1
g2
(lp2778
g0
(g1
g2
(lp2779
g0
(g1
g2
(lp2780
Vthat
p2781
atp2782
Rp2783
(dp2784
g12
VDT
p2785
sbag0
(g1
g2
(lp2786
Voldest
p2787
atp2788
Rp2789
(dp2790
g12
VJJS
p2791
sbag0
(g1
g2
(lp2792
Vlittle
p2793
atp2794
Rp2795
(dp2796
g12
VJJ
p2797
sbag0
(g1
g2
(lp2798
Vgirl
p2799
atp2800
Rp2801
(dp2802
g12
VNN
p2803
sbatp2804
Rp2805
(dp2806
g12
VNP
p2807
sbag0
(g1
g2
(lp2808
g0
(g1
g2
(lp2809
g0
(g1
g2
(lp2810
g0
(g1
g2
(lp2811
Vshe
p2812
atp2813
Rp2814
(dp2815
g12
VPRP
p2816
sbatp2817
Rp2818
(dp2819
g12
VNP
p2820
sbag0
(g1
g2
(lp2821
g0
(g1
g2
(lp2822
Vis
p2823
atp2824
Rp2825
(dp2826
g12
VVBZ
p2827
sbag0
(g1
g2
(lp2828
V,
p2829
atp2830
Rp2831
(dp2832
g12
V,
p2833
sbag0
(g1
g2
(lp2834
g0
(g1
g2
(lp2835
g0
(g1
g2
(lp2836
g0
(g1
g2
(lp2837
Vshe
p2838
atp2839
Rp2840
(dp2841
g12
VPRP
p2842
sbatp2843
Rp2844
(dp2845
g12
VNP
p2846
sbag0
(g1
g2
(lp2847
g0
(g1
g2
(lp2848
V's
p2849
atp2850
Rp2851
(dp2852
g12
VVBZ
p2853
sbag0
(g1
g2
(lp2854
Vnot
p2855
atp2856
Rp2857
(dp2858
g12
VRB
p2859
sbag0
(g1
g2
(lp2860
g0
(g1
g2
(lp2861
g0
(g1
g2
(lp2862
Vtoo
p2863
atp2864
Rp2865
(dp2866
g12
VRB
p2867
sbag0
(g1
g2
(lp2868
Vtired
p2869
atp2870
Rp2871
(dp2872
g12
VJJ
p2873
sbatp2874
Rp2875
(dp2876
g12
VADJP
p2877
sbag0
(g1
g2
(lp2878
Vcause
p2879
atp2880
Rp2881
(dp2882
g12
VNN
p2883
sbatp2884
Rp2885
(dp2886
g12
VNP
p2887
sbatp2888
Rp2889
(dp2890
g12
VVP
p2891
sbatp2892
Rp2893
(dp2894
g12
VS
p2895
sbatp2896
Rp2897
(dp2898
g12
VSBAR
p2899
sbatp2900
Rp2901
(dp2902
g12
VVP
p2903
sbatp2904
Rp2905
(dp2906
g12
VS
p2907
sbatp2908
Rp2909
(dp2910
g12
VSBAR
p2911
sbatp2912
Rp2913
(dp2914
g12
VNP
p2915
sbag0
(g1
g2
(lp2916
g0
(g1
g2
(lp2917
g0
(g1
g2
(lp2918
g0
(g1
g2
(lp2919
Vshe
p2920
atp2921
Rp2922
(dp2923
g12
VPRP
p2924
sbatp2925
Rp2926
(dp2927
g12
VNP
p2928
sbag0
(g1
g2
(lp2929
g0
(g1
g2
(lp2930
Vcan
p2931
atp2932
Rp2933
(dp2934
g12
VMD
p2935
sbag0
(g1
g2
(lp2936
g0
(g1
g2
(lp2937
Vstand
p2938
atp2939
Rp2940
(dp2941
g12
VVB
p2942
sbag0
(g1
g2
(lp2943
g0
(g1
g2
(lp2944
Vup
p2945
atp2946
Rp2947
(dp2948
g12
VRP
p2949
sbatp2950
Rp2951
(dp2952
g12
VPRT
p2953
sbag0
(g1
g2
(lp2954
g0
(g1
g2
(lp2955
Von
p2956
atp2957
Rp2958
(dp2959
g12
VIN
p2960
sbag0
(g1
g2
(lp2961
g0
(g1
g2
(lp2962
Vher
p2963
atp2964
Rp2965
(dp2966
g12
VPRP$
p2967
sbag0
(g1
g2
(lp2968
Vtwo
p2969
atp2970
Rp2971
(dp2972
g12
VCD
p2973
sbag0
(g1
g2
(lp2974
Vfeet
p2975
atp2976
Rp2977
(dp2978
g12
VNNS
p2979
sbatp2980
Rp2981
(dp2982
g12
VNP
p2983
sbatp2984
Rp2985
(dp2986
g12
VPP
p2987
sbatp2988
Rp2989
(dp2990
g12
VVP
p2991
sbatp2992
Rp2993
(dp2994
g12
VVP
p2995
sbatp2996
Rp2997
(dp2998
g12
VS
p2999
sbatp3000
Rp3001
(dp3002
g12
VSBAR
p3003
sbag0
(g1
g2
(lp3004
V.
p3005
atp3006
Rp3007
(dp3008
g12
V.
p3009
sbatp3010
Rp3011
(dp3012
g12
VFRAG
p3013
sbatp3014
Rp3015
(dp3016
g12
S'id: 11'
p3017
sbag0
(g1
g2
(lp3018
g0
(g1
g2
(lp3019
g0
(g1
g2
(lp3020
g0
(g1
g2
(lp3021
VHer
p3022
atp3023
Rp3024
(dp3025
g12
VPRP$
p3026
sbag0
(g1
g2
(lp3027
Vhair
p3028
atp3029
Rp3030
(dp3031
g12
VNN
p3032
sbatp3033
Rp3034
(dp3035
g12
VNP
p3036
sbag0
(g1
g2
(lp3037
g0
(g1
g2
(lp3038
Vis
p3039
atp3040
Rp3041
(dp3042
g12
VVBZ
p3043
sbag0
(g1
g2
(lp3044
g0
(g1
g2
(lp3045
Vpretty
p3046
atp3047
Rp3048
(dp3049
g12
VRB
p3050
sbag0
(g1
g2
(lp3051
g0
(g1
g2
(lp3052
V,
p3053
atp3054
Rp3055
(dp3056
g12
V,
p3057
sbag0
(g1
g2
(lp3058
g0
(g1
g2
(lp3059
Vwith
p3060
atp3061
Rp3062
(dp3063
g12
VIN
p3064
sbag0
(g1
g2
(lp3065
g0
(g1
g2
(lp3066
g0
(g1
g2
(lp3067
Vthose
p3068
atp3069
Rp3070
(dp3071
g12
VDT
p3072
sbag0
(g1
g2
(lp3073
Vfo
p3074
atp3075
Rp3076
(dp3077
g12
VNN
p3078
sbatp3079
Rp3080
(dp3081
g12
VNP
p3082
sbag0
(g1
g2
(lp3083
V,
p3084
atp3085
Rp3086
(dp3087
g12
V,
p3088
sbag0
(g1
g2
(lp3089
g0
(g1
g2
(lp3090
Vfour
p3091
atp3092
Rp3093
(dp3094
g12
VCD
p3095
sbag0
(g1
g2
(lp3096
Vlittle
p3097
atp3098
Rp3099
(dp3100
g12
VJJ
p3101
sbag0
(g1
g2
(lp3102
Vbo
p3103
atp3104
Rp3105
(dp3106
g12
VNN
p3107
sbatp3108
Rp3109
(dp3110
g12
VNP
p3111
sbatp3112
Rp3113
(dp3114
g12
VNP
p3115
sbatp3116
Rp3117
(dp3118
g12
VPP
p3119
sbag0
(g1
g2
(lp3120
V,
p3121
atp3122
Rp3123
(dp3124
g12
V,
p3125
sbatp3126
Rp3127
(dp3128
g12
VPRN
p3129
sbag0
(g1
g2
(lp3130
g0
(g1
g2
(lp3131
g0
(g1
g2
(lp3132
Vbows
p3133
atp3134
Rp3135
(dp3136
g12
VVBZ
p3137
sbag0
(g1
g2
(lp3138
g0
(g1
g2
(lp3139
Vin
p3140
atp3141
Rp3142
(dp3143
g12
VIN
p3144
sbag0
(g1
g2
(lp3145
g0
(g1
g2
(lp3146
Vthere
p3147
atp3148
Rp3149
(dp3150
g12
VRB
p3151
sbatp3152
Rp3153
(dp3154
g12
VNP
p3155
sbatp3156
Rp3157
(dp3158
g12
VPP
p3159
sbatp3160
Rp3161
(dp3162
g12
VVP
p3163
sbatp3164
Rp3165
(dp3166
g12
VS
p3167
sbatp3168
Rp3169
(dp3170
g12
VADVP
p3171
sbatp3172
Rp3173
(dp3174
g12
VVP
p3175
sbag0
(g1
g2
(lp3176
V.
p3177
atp3178
Rp3179
(dp3180
g12
V.
p3181
sbatp3182
Rp3183
(dp3184
g12
VS
p3185
sbatp3186
Rp3187
(dp3188
g12
S'id: 12'
p3189
sbag0
(g1
g2
(lp3190
g0
(g1
g2
(lp3191
g0
(g1
g2
(lp3192
VAnd
p3193
atp3194
Rp3195
(dp3196
g12
VCC
p3197
sbag0
(g1
g2
(lp3198
g0
(g1
g2
(lp3199
VI
p3200
atp3201
Rp3202
(dp3203
g12
VPRP
p3204
sbatp3205
Rp3206
(dp3207
g12
VNP
p3208
sbag0
(g1
g2
(lp3209
g0
(g1
g2
(lp3210
Vthink
p3211
atp3212
Rp3213
(dp3214
g12
VVBP
p3215
sbag0
(g1
g2
(lp3216
g0
(g1
g2
(lp3217
g0
(g1
g2
(lp3218
g0
(g1
g2
(lp3219
Vthe
p3220
atp3221
Rp3222
(dp3223
g12
VDT
p3224
sbag0
(g1
g2
(lp3225
Vbaby
p3226
atp3227
Rp3228
(dp3229
g12
VNN
p3230
sbatp3231
Rp3232
(dp3233
g12
VNP
p3234
sbag0
(g1
g2
(lp3235
g0
(g1
g2
(lp3236
Vhas
p3237
atp3238
Rp3239
(dp3240
g12
VVBZ
p3241
sbag0
(g1
g2
(lp3242
g0
(g1
g2
(lp3243
g0
(g1
g2
(lp3244
Vone
p3245
atp3246
Rp3247
(dp3248
g12
VCD
p3249
sbag0
(g1
g2
(lp3250
Vbow
p3251
atp3252
Rp3253
(dp3254
g12
VNN
p3255
sbatp3256
Rp3257
(dp3258
g12
VNP
p3259
sbag0
(g1
g2
(lp3260
g0
(g1
g2
(lp3261
Vin
p3262
atp3263
Rp3264
(dp3265
g12
VIN
p3266
sbag0
(g1
g2
(lp3267
g0
(g1
g2
(lp3268
Vher
p3269
atp3270
Rp3271
(dp3272
g12
VPRP$
p3273
sbag0
(g1
g2
(lp3274
Vhair
p3275
atp3276
Rp3277
(dp3278
g12
VNN
p3279
sbatp3280
Rp3281
(dp3282
g12
VNP
p3283
sbatp3284
Rp3285
(dp3286
g12
VPP
p3287
sbatp3288
Rp3289
(dp3290
g12
VNP
p3291
sbatp3292
Rp3293
(dp3294
g12
VVP
p3295
sbatp3296
Rp3297
(dp3298
g12
VS
p3299
sbatp3300
Rp3301
(dp3302
g12
VSBAR
p3303
sbatp3304
Rp3305
(dp3306
g12
VVP
p3307
sbag0
(g1
g2
(lp3308
V.
p3309
atp3310
Rp3311
(dp3312
g12
V.
p3313
sbatp3314
Rp3315
(dp3316
g12
VS
p3317
sbatp3318
Rp3319
(dp3320
g12
S'id: 13'
p3321
sbag0
(g1
g2
(lp3322
g0
(g1
g2
(lp3323
g0
(g1
g2
(lp3324
VAnd
p3325
atp3326
Rp3327
(dp3328
g12
VCC
p3329
sbag0
(g1
g2
(lp3330
g0
(g1
g2
(lp3331
Vthe
p3332
atp3333
Rp3334
(dp3335
g12
VDT
p3336
sbag0
(g1
g2
(lp3337
Vbrother
p3338
atp3339
Rp3340
(dp3341
g12
VNN
p3342
sbag0
(g1
g2
(lp3343
Vlittle
p3344
atp3345
Rp3346
(dp3347
g12
VJJ
p3348
sbag0
(g1
g2
(lp3349
Vbrother
p3350
atp3351
Rp3352
(dp3353
g12
VNN
p3354
sbatp3355
Rp3356
(dp3357
g12
VNP
p3358
sbag0
(g1
g2
(lp3359
g0
(g1
g2
(lp3360
Vis
p3361
atp3362
Rp3363
(dp3364
g12
VVBZ
p3365
sbag0
(g1
g2
(lp3366
g0
(g1
g2
(lp3367
Vstill
p3368
atp3369
Rp3370
(dp3371
g12
VRB
p3372
sbatp3373
Rp3374
(dp3375
g12
VADVP
p3376
sbatp3377
Rp3378
(dp3379
g12
VVP
p3380
sbatp3381
Rp3382
(dp3383
g12
VS
p3384
sbatp3385
Rp3386
(dp3387
g12
S'id: 14'
p3388
sbatp3389
Rp3390
(dp3391
g12
S'sentences'
p3392
sb.