ccopy_reg
_reconstructor
p0
(cnltk.tree
Tree
p1
c__builtin__
list
p2
(lp3
g0
(g1
g2
(lp4
g0
(g1
g2
(lp5
g0
(g1
g2
(lp6
Vthe floor
p7
atp8
Rp9
(dp10
S'_label'
p11
S'start: 11'
p12
sbatp13
Rp14
(dp15
g11
S'sent: 3'
p16
sbag0
(g1
g2
(lp17
g0
(g1
g2
(lp18
Vthe floor
p19
atp20
Rp21
(dp22
g11
S'start: 13'
p23
sbatp24
Rp25
(dp26
g11
S'sent: 6'
p27
sbag0
(g1
g2
(lp28
g0
(g1
g2
(lp29
Vthe floor
p30
atp31
Rp32
(dp33
g11
S'start: 7'
p34
sbatp35
Rp36
(dp37
g11
S'sent: 8'
p38
sbag0
(g1
g2
(lp39
g0
(g1
g2
(lp40
Vthe floor
p41
atp42
Rp43
(dp44
g11
S'start: 31'
p45
sbatp46
Rp47
(dp48
g11
S'sent: 11'
p49
sbatp50
Rp51
(dp52
g11
S'id: 7'
p53
sbag0
(g1
g2
(lp54
g0
(g1
g2
(lp55
g0
(g1
g2
(lp56
Vthe little girls and boys
p57
atp58
Rp59
(dp60
g11
S'start: 2'
p61
sbatp62
Rp63
(dp64
g11
S'sent: 5'
p65
sbag0
(g1
g2
(lp66
g0
(g1
g2
(lp67
Vthey
p68
atp69
Rp70
(dp71
g11
S'start: 11'
p72
sbatp73
Rp74
(dp75
g11
S'sent: 8'
p76
sbag0
(g1
g2
(lp77
g0
(g1
g2
(lp78
Vthem
p79
atp80
Rp81
(dp82
g11
S'start: 16'
p83
sbatp84
Rp85
(dp86
g11
S'sent: 8'
p87
sbatp88
Rp89
(dp90
g11
S'id: 9'
p91
sbag0
(g1
g2
(lp92
g0
(g1
g2
(lp93
g0
(g1
g2
(lp94
Vthe mother
p95
atp96
Rp97
(dp98
g11
S'start: 18'
p99
sbatp100
Rp101
(dp102
g11
S'sent: 5'
p103
sbag0
(g1
g2
(lp104
g0
(g1
g2
(lp105
Vthe mother
p106
atp107
Rp108
(dp109
g11
S'start: 16'
p110
sbatp111
Rp112
(dp113
g11
S'sent: 11'
p114
sbatp115
Rp116
(dp117
g11
S'id: 13'
p118
sbag0
(g1
g2
(lp119
g0
(g1
g2
(lp120
g0
(g1
g2
(lp121
Vthe picture
p122
atp123
Rp124
(dp125
g11
S'start: 7'
p126
sbatp127
Rp128
(dp129
g11
S'sent: 6'
p130
sbag0
(g1
g2
(lp131
g0
(g1
g2
(lp132
Vkind of on the floor
p133
atp134
Rp135
(dp136
g11
S'start: 10'
p137
sbatp138
Rp139
(dp140
g11
S'sent: 6'
p141
sbatp142
Rp143
(dp144
g11
S'id: 20'
p145
sbag0
(g1
g2
(lp146
g0
(g1
g2
(lp147
g0
(g1
g2
(lp148
Vthe water
p149
atp150
Rp151
(dp152
g11
S'start: 2'
p153
sbatp154
Rp155
(dp156
g11
S'sent: 8'
p157
sbag0
(g1
g2
(lp158
g0
(g1
g2
(lp159
VThe water
p160
atp161
Rp162
(dp163
g11
S'start: 1'
p164
sbatp165
Rp166
(dp167
g11
S'sent: 11'
p168
sbag0
(g1
g2
(lp169
g0
(g1
g2
(lp170
Vthe water
p171
atp172
Rp173
(dp174
g11
S'start: 6'
p175
sbatp176
Rp177
(dp178
g11
S'sent: 11'
p179
sbag0
(g1
g2
(lp180
g0
(g1
g2
(lp181
Vthe water
p182
atp183
Rp184
(dp185
g11
S'start: 22'
p186
sbatp187
Rp188
(dp189
g11
S'sent: 11'
p190
sbag0
(g1
g2
(lp191
g0
(g1
g2
(lp192
Vit
p193
atp194
Rp195
(dp196
g11
S'start: 27'
p197
sbatp198
Rp199
(dp200
g11
S'sent: 11'
p201
sbatp202
Rp203
(dp204
g11
S'id: 27'
p205
sbatp206
Rp207
(dp208
g11
S'coreferences'
p209
sb.