ccopy_reg
_reconstructor
p0
(cnltk.tree
Tree
p1
c__builtin__
list
p2
(lp3
g0
(g1
g2
(lp4
g0
(g1
g2
(lp5
g0
(g1
g2
(lp6
VThe man and woman
p7
atp8
Rp9
(dp10
S'_label'
p11
S'start: 1'
p12
sbatp13
Rp14
(dp15
g11
S'sent: 2'
p16
sbag0
(g1
g2
(lp17
g0
(g1
g2
(lp18
Va poring the the wine , and listen to the music
p19
atp20
Rp21
(dp22
g11
S'start: 6'
p23
sbatp24
Rp25
(dp26
g11
S'sent: 2'
p27
sbatp28
Rp29
(dp30
g11
S'id: 1'
p31
sbag0
(g1
g2
(lp32
g0
(g1
g2
(lp33
g0
(g1
g2
(lp34
VThe house
p35
atp36
Rp37
(dp38
g11
S'start: 1'
p39
sbatp40
Rp41
(dp42
g11
S'sent: 3'
p43
sbag0
(g1
g2
(lp44
g0
(g1
g2
(lp45
Vthe house is the car in with car
p46
atp47
Rp48
(dp49
g11
S'start: 4'
p50
sbatp51
Rp52
(dp53
g11
S'sent: 3'
p54
sbatp55
Rp56
(dp57
g11
S'id: 6'
p58
sbag0
(g1
g2
(lp59
g0
(g1
g2
(lp60
g0
(g1
g2
(lp61
VA flag , and a the boy
p62
atp63
Rp64
(dp65
g11
S'start: 1'
p66
sbatp67
Rp68
(dp69
g11
S'sent: 5'
p70
sbag0
(g1
g2
(lp71
g0
(g1
g2
(lp72
Va kite , and a run dog
p73
atp74
Rp75
(dp76
g11
S'start: 9'
p77
sbatp78
Rp79
(dp80
g11
S'sent: 5'
p81
sbag0
(g1
g2
(lp82
g0
(g1
g2
(lp83
Va kite
p84
atp85
Rp86
(dp87
g11
S'start: 9'
p88
sbatp89
Rp90
(dp91
g11
S'sent: 5'
p92
sbatp93
Rp94
(dp95
g11
S'id: 12'
p96
sbag0
(g1
g2
(lp97
g0
(g1
g2
(lp98
g0
(g1
g2
(lp99
Va fishing
p100
atp101
Rp102
(dp103
g11
S'start: 2'
p104
sbatp105
Rp106
(dp107
g11
S'sent: 8'
p108
sbag0
(g1
g2
(lp109
g0
(g1
g2
(lp110
Va
p111
atp112
Rp113
(dp114
g11
S'start: 5'
p115
sbatp116
Rp117
(dp118
g11
S'sent: 8'
p119
sbag0
(g1
g2
(lp120
g0
(g1
g2
(lp121
Vit
p122
atp123
Rp124
(dp125
g11
S'start: 2'
p126
sbatp127
Rp128
(dp129
g11
S'sent: 9'
p130
sbatp131
Rp132
(dp133
g11
S'id: 23'
p134
sbag0
(g1
g2
(lp135
g0
(g1
g2
(lp136
g0
(g1
g2
(lp137
Va sail
p138
atp139
Rp140
(dp141
g11
S'start: 16'
p142
sbatp143
Rp144
(dp145
g11
S'sent: 8'
p146
sbag0
(g1
g2
(lp147
g0
(g1
g2
(lp148
Va sail
p149
atp150
Rp151
(dp152
g11
S'start: 20'
p153
sbatp154
Rp155
(dp156
g11
S'sent: 8'
p157
sbatp158
Rp159
(dp160
g11
S'id: 28'
p161
sbatp162
Rp163
(dp164
g11
S'coreferences'
p165
sb.