ccopy_reg
_reconstructor
p0
(cnltk.tree
Tree
p1
c__builtin__
list
p2
(lp3
g0
(g1
g2
(lp4
g0
(g1
g2
(lp5
g0
(g1
g2
(lp6
Vthe water
p7
atp8
Rp9
(dp10
S'_label'
p11
S'start: 10'
p12
sbatp13
Rp14
(dp15
g11
S'sent: 1'
p16
sbag0
(g1
g2
(lp17
g0
(g1
g2
(lp18
Vthe water
p19
atp20
Rp21
(dp22
g11
S'start: 11'
p23
sbatp24
Rp25
(dp26
g11
S'sent: 2'
p27
sbag0
(g1
g2
(lp28
g0
(g1
g2
(lp29
Vthe water
p30
atp31
Rp32
(dp33
g11
S'start: 7'
p34
sbatp35
Rp36
(dp37
g11
S'sent: 3'
p38
sbatp39
Rp40
(dp41
g11
S'id: 2'
p42
sbag0
(g1
g2
(lp43
g0
(g1
g2
(lp44
g0
(g1
g2
(lp45
Va boat
p46
atp47
Rp48
(dp49
g11
S'start: 3'
p50
sbatp51
Rp52
(dp53
g11
S'sent: 2'
p54
sbag0
(g1
g2
(lp55
g0
(g1
g2
(lp56
Van a sail boat in the water
p57
atp58
Rp59
(dp60
g11
S'start: 6'
p61
sbatp62
Rp63
(dp64
g11
S'sent: 2'
p65
sbatp66
Rp67
(dp68
g11
S'id: 4'
p69
sbag0
(g1
g2
(lp70
g0
(g1
g2
(lp71
g0
(g1
g2
(lp72
VI
p73
atp74
Rp75
(dp76
g11
S'start: 1'
p77
sbatp78
Rp79
(dp80
g11
S'sent: 4'
p81
sbag0
(g1
g2
(lp82
g0
(g1
g2
(lp83
VI
p84
atp85
Rp86
(dp87
g11
S'start: 1'
p88
sbatp89
Rp90
(dp91
g11
S'sent: 5'
p92
sbag0
(g1
g2
(lp93
g0
(g1
g2
(lp94
VI
p95
atp96
Rp97
(dp98
g11
S'start: 1'
p99
sbatp100
Rp101
(dp102
g11
S'sent: 6'
p103
sbatp104
Rp105
(dp106
g11
S'id: 10'
p107
sbatp108
Rp109
(dp110
g11
S'coreferences'
p111
sb.