ccopy_reg
_reconstructor
p0
(cnltk.tree
Tree
p1
c__builtin__
list
p2
(lp3
g0
(g1
g2
(lp4
g0
(g1
g2
(lp5
g0
(g1
g2
(lp6
(lp7
S'word: this, index: 1'
p8
aatp9
Rp10
(dp11
S'_label'
p12
Vnsubj
p13
sbag0
(g1
g2
(lp14
g0
(g1
g2
(lp15
g0
(g1
g2
(lp16
g0
(g1
g2
(lp17
g0
(g1
g2
(lp18
(lp19
S'word: a, index: 4'
p20
aatp21
Rp22
(dp23
g12
Vdet
p24
sbatp25
Rp26
(dp27
g12
S'word: either, index: 6'
p28
sbatp29
Rp30
(dp31
g12
Vpobj
p32
sbag0
(g1
g2
(lp33
(lp34
S'word: obviously, index: 8'
p35
aatp36
Rp37
(dp38
g12
Vadvmod
p39
sbatp40
Rp41
(dp42
g12
S'word: like, index: 3'
p43
sbatp44
Rp45
(dp46
g12
Vprep
p47
sbag0
(g1
g2
(lp48
g0
(g1
g2
(lp49
g0
(g1
g2
(lp50
(lp51
S'word: I, index: 18'
p52
aatp53
Rp54
(dp55
g12
Vnsubj
p56
sbag0
(g1
g2
(lp57
(lp58
S'word: would, index: 19'
p59
aatp60
Rp61
(dp62
g12
Vaux
p63
sbag0
(g1
g2
(lp64
g0
(g1
g2
(lp65
g0
(g1
g2
(lp66
(lp67
S'word: the, index: 22'
p68
aatp69
Rp70
(dp71
g12
Vdet
p72
sbatp73
Rp74
(dp75
g12
S'word: circus, index: 23'
p76
sbatp77
Rp78
(dp79
g12
Vprep
p80
sbatp81
Rp82
(dp83
g12
S'word: say, index: 20'
p84
sbatp85
Rp86
(dp87
g12
Vconj
p88
sbag0
(g1
g2
(lp89
g0
(g1
g2
(lp90
g0
(g1
g2
(lp91
(lp92
S'word: the, index: 10'
p93
aatp94
Rp95
(dp96
g12
Vdet
p97
sbag0
(g1
g2
(lp98
g0
(g1
g2
(lp99
g0
(g1
g2
(lp100
(lp101
S'word: a, index: 14'
p102
aatp103
Rp104
(dp105
g12
Vdet
p106
sbatp107
Rp108
(dp109
g12
S'word: carnival, index: 15'
p110
sbatp111
Rp112
(dp113
g12
Vconj
p114
sbatp115
Rp116
(dp117
g12
S'word: circus, index: 11'
p118
sbatp119
Rp120
(dp121
g12
Vprep
p122
sbag0
(g1
g2
(lp123
g108
atp124
Rp125
(dp126
g12
Vprep
p127
sbatp128
Rp129
(dp130
g12
S'word: looks, index: 2'
p131
sbatp132
Rp133
(dp134
g12
S'id: 0'
p135
sbag0
(g1
g2
(lp136
g0
(g1
g2
(lp137
g0
(g1
g2
(lp138
(lp139
S'word: would, index: 3'
p140
aatp141
Rp142
(dp143
g12
Vaux
p144
sbag0
(g1
g2
(lp145
g0
(g1
g2
(lp146
g0
(g1
g2
(lp147
(lp148
S'word: obviously, index: 22'
p149
aatp150
Rp151
(dp152
g12
Vadvmod
p153
sbag0
(g1
g2
(lp154
g0
(g1
g2
(lp155
g0
(g1
g2
(lp156
(lp157
S'word: the, index: 5'
p158
aatp159
Rp160
(dp161
g12
Vdet
p162
sbag0
(g1
g2
(lp163
(lp164
S'word: little, index: 6'
p165
aatp166
Rp167
(dp168
g12
Vamod
p169
sbatp170
Rp171
(dp172
g12
S'word: girl, index: 7'
p173
sbatp174
Rp175
(dp176
g12
Vnsubj
p177
sbag0
(g1
g2
(lp178
(lp179
S'word: is, index: 8'
p180
aatp181
Rp182
(dp183
g12
Vcop
p184
sbag0
(g1
g2
(lp185
(lp186
S'word: African, index: 9'
p187
aatp188
Rp189
(dp190
g12
Vamod
p191
sbag0
(g1
g2
(lp192
g0
(g1
g2
(lp193
g0
(g1
g2
(lp194
(lp195
S'word: his, index: 24'
p196
aatp197
Rp198
(dp199
g12
Vposs
p200
sbag0
(g1
g2
(lp201
(lp202
S'word: curly, index: 25'
p203
aatp204
Rp205
(dp206
g12
Vamod
p207
sbatp208
Rp209
(dp210
g12
S'word: hair, index: 26'
p211
sbatp212
Rp213
(dp214
g12
Vdep
p215
sbag0
(g1
g2
(lp216
g0
(g1
g2
(lp217
g0
(g1
g2
(lp218
(lp219
S'word: her, index: 12'
p220
aatp221
Rp222
(dp223
g12
Vposs
p224
sbag0
(g1
g2
(lp225
g0
(g1
g2
(lp226
g0
(g1
g2
(lp227
g0
(g1
g2
(lp228
g0
(g1
g2
(lp229
(lp230
S'word: her, index: 19'
p231
aatp232
Rp233
(dp234
g12
Vposs
p235
sbatp236
Rp237
(dp238
g12
S'word: dad, index: 20'
p239
sbatp240
Rp241
(dp242
g12
Vappos
p243
sbatp244
Rp245
(dp246
g12
S'word: her, index: 17'
p247
sbatp248
Rp249
(dp250
g12
Vconj
p251
sbatp252
Rp253
(dp254
g12
S'word: braids, index: 13'
p255
sbatp256
Rp257
(dp258
g12
Vprep
p259
sbag0
(g1
g2
(lp260
g245
atp261
Rp262
(dp263
g12
Vprep
p264
sbatp265
Rp266
(dp267
g12
S'word: American, index: 10'
p268
sbatp269
Rp270
(dp271
g12
Vccomp
p272
sbag0
(g1
g2
(lp273
(lp274
S'word: And, index: 1'
p275
aatp276
Rp277
(dp278
g12
Vcc
p279
sbag0
(g1
g2
(lp280
(lp281
S'word: i, index: 2'
p282
aatp283
Rp284
(dp285
g12
Vnsubj
p286
sbatp287
Rp288
(dp289
g12
S'word: say, index: 4'
p290
sbatp291
Rp292
(dp293
g12
S'id: 1'
p294
sbag0
(g1
g2
(lp295
g0
(g1
g2
(lp296
g0
(g1
g2
(lp297
g0
(g1
g2
(lp298
g0
(g1
g2
(lp299
(lp300
S'word: head, index: 8'
p301
aatp302
Rp303
(dp304
g12
Vnn
p305
sbag0
(g1
g2
(lp306
(lp307
S'word: ring, index: 9'
p308
aatp309
Rp310
(dp311
g12
Vnn
p312
sbatp313
Rp314
(dp315
g12
S'word: master, index: 10'
p316
sbatp317
Rp318
(dp319
g12
Vconj
p320
sbag0
(g1
g2
(lp321
(lp322
S'word: lion, index: 13'
p323
aatp324
Rp325
(dp326
g12
Vconj
p327
sbag0
(g1
g2
(lp328
g0
(g1
g2
(lp329
g0
(g1
g2
(lp330
g0
(g1
g2
(lp331
g0
(g1
g2
(lp332
g0
(g1
g2
(lp333
g0
(g1
g2
(lp334
(lp335
S"word: 's, index: 22"
p336
aatp337
Rp338
(dp339
g12
Vcop
p340
sbag0
(g1
g2
(lp341
g0
(g1
g2
(lp342
g0
(g1
g2
(lp343
(lp344
S'word: the, index: 23'
p345
aatp346
Rp347
(dp348
g12
Vdet
p349
sbatp350
Rp351
(dp352
g12
S'word: lion, index: 24'
p353
sbatp354
Rp355
(dp356
g12
Vnpadvmod
p357
sbag0
(g1
g2
(lp358
(lp359
S'word: thats, index: 27'
p360
aatp361
Rp362
(dp363
g12
Vprep
p364
sbag0
(g1
g2
(lp365
g0
(g1
g2
(lp366
g0
(g1
g2
(lp367
(lp368
S'word: a, index: 28'
p369
aatp370
Rp371
(dp372
g12
Vdet
p373
sbag0
(g1
g2
(lp374
g0
(g1
g2
(lp375
g0
(g1
g2
(lp376
(lp377
S'word: pretty, index: 29'
p378
aatp379
Rp380
(dp381
g12
Vadvmod
p382
sbatp383
Rp384
(dp385
g12
S'word: good, index: 30'
p386
sbatp387
Rp388
(dp389
g12
Vamod
p390
sbag0
(g1
g2
(lp391
(lp392
S'word: sized, index: 31'
p393
aatp394
Rp395
(dp396
g12
Vamod
p397
sbatp398
Rp399
(dp400
g12
S'word: lion, index: 32'
p401
sbatp402
Rp403
(dp404
g12
Vdep
p405
sbag0
(g1
g2
(lp406
(lp407
S'word: he, index: 21'
p408
aatp409
Rp410
(dp411
g12
Vnsubj
p412
sbatp413
Rp414
(dp415
g12
S'word: tamer, index: 25'
p416
sbatp417
Rp418
(dp419
g12
Vrcmod
p420
sbag0
(g1
g2
(lp421
g0
(g1
g2
(lp422
g0
(g1
g2
(lp423
(lp424
S'word: hopefully, index: 20'
p425
aatp426
Rp427
(dp428
g12
Vadvmod
p429
sbatp430
Rp431
(dp432
g12
S'word: the, index: 18'
p433
sbatp434
Rp435
(dp436
g12
Vprep
p437
sbatp438
Rp439
(dp440
g12
S'word: one, index: 16'
p441
sbatp442
Rp443
(dp444
g12
Vappos
p445
sbatp446
Rp447
(dp448
g12
S'word: tamer, index: 14'
p449
sbatp450
Rp451
(dp452
g12
Vnsubj
p453
sbag0
(g1
g2
(lp454
g0
(g1
g2
(lp455
g0
(g1
g2
(lp456
(lp457
S'word: the, index: 2'
p458
aatp459
Rp460
(dp461
g12
Vdet
p462
sbag0
(g1
g2
(lp463
(lp464
S'word: lions, index: 3'
p465
aatp466
Rp467
(dp468
g12
Vnn
p469
sbatp470
Rp471
(dp472
g12
S'word: cages, index: 4'
p473
sbatp474
Rp475
(dp476
g12
Vprep
p477
sbag0
(g1
g2
(lp478
(lp479
S'word: is, index: 5'
p480
aatp481
Rp482
(dp483
g12
Vcop
p484
sbatp485
Rp486
(dp487
g12
S'word: the, index: 6'
p488
sbatp489
Rp490
(dp491
g12
S'id: 2'
p492
sbag0
(g1
g2
(lp493
g0
(g1
g2
(lp494
g0
(g1
g2
(lp495
(lp496
S'word: he, index: 10'
p497
aatp498
Rp499
(dp500
g12
Vnsubj
p501
sbag0
(g1
g2
(lp502
g0
(g1
g2
(lp503
g0
(g1
g2
(lp504
(lp505
S'word: like, index: 12'
p506
aatp507
Rp508
(dp509
g12
Vmark
p510
sbag0
(g1
g2
(lp511
(lp512
S'word: he, index: 13'
p513
aatp514
Rp515
(dp516
g12
Vnsubj
p517
sbag0
(g1
g2
(lp518
(lp519
S'word: might, index: 14'
p520
aatp521
Rp522
(dp523
g12
Vaux
p524
sbag0
(g1
g2
(lp525
(lp526
S'word: be, index: 15'
p527
aatp528
Rp529
(dp530
g12
Vcop
p531
sbag0
(g1
g2
(lp532
g0
(g1
g2
(lp533
g0
(g1
g2
(lp534
(lp535
S'word: to, index: 17'
p536
aatp537
Rp538
(dp539
g12
Vaux
p540
sbag0
(g1
g2
(lp541
(lp542
S'word: lunch, index: 19'
p543
aatp544
Rp545
(dp546
g12
Vdobj
p547
sbatp548
Rp549
(dp550
g12
S'word: have, index: 18'
p551
sbatp552
Rp553
(dp554
g12
Vxcomp
p555
sbatp556
Rp557
(dp558
g12
S'word: ready, index: 16'
p559
sbatp560
Rp561
(dp562
g12
Vadvcl
p563
sbag0
(g1
g2
(lp564
g0
(g1
g2
(lp565
g0
(g1
g2
(lp566
(lp567
S'word: Even, index: 1'
p568
aatp569
Rp570
(dp571
g12
Vadvmod
p572
sbag0
(g1
g2
(lp573
(lp574
S'word: though, index: 2'
p575
aatp576
Rp577
(dp578
g12
Vmark
p579
sbag0
(g1
g2
(lp580
(lp581
S'word: he, index: 3'
p582
aatp583
Rp584
(dp585
g12
Vnsubj
p586
sbag0
(g1
g2
(lp587
g0
(g1
g2
(lp588
g0
(g1
g2
(lp589
(lp590
S'word: to, index: 5'
p591
aatp592
Rp593
(dp594
g12
Vaux
p595
sbag0
(g1
g2
(lp596
g0
(g1
g2
(lp597
g0
(g1
g2
(lp598
(lp599
S'word: a, index: 7'
p600
aatp601
Rp602
(dp603
g12
Vdet
p604
sbatp605
Rp606
(dp607
g12
S'word: smile, index: 8'
p608
sbatp609
Rp610
(dp611
g12
Vdobj
p612
sbatp613
Rp614
(dp615
g12
S'word: have, index: 6'
p616
sbatp617
Rp618
(dp619
g12
Vxcomp
p620
sbatp621
Rp622
(dp623
g12
S'word: seems, index: 4'
p624
sbatp625
Rp626
(dp627
g12
Vadvcl
p628
sbatp629
Rp630
(dp631
g12
S'word: looks, index: 11'
p632
sbatp633
Rp634
(dp635
g12
S'id: 3'
p636
sbag0
(g1
g2
(lp637
g0
(g1
g2
(lp638
g0
(g1
g2
(lp639
(lp640
S'word: And, index: 1'
p641
aatp642
Rp643
(dp644
g12
Vcc
p645
sbag0
(g1
g2
(lp646
(lp647
S'word: the, index: 2'
p648
aatp649
Rp650
(dp651
g12
Vdet
p652
sbag0
(g1
g2
(lp653
g0
(g1
g2
(lp654
g0
(g1
g2
(lp655
(lp656
S'word: who, index: 5'
p657
aatp658
Rp659
(dp660
g12
Vnsubjpass
p661
sbag0
(g1
g2
(lp662
(lp663
S'word: is, index: 6'
p664
aatp665
Rp666
(dp667
g12
Vauxpass
p668
sbag0
(g1
g2
(lp669
g0
(g1
g2
(lp670
g0
(g1
g2
(lp671
(lp672
S'word: to, index: 8'
p673
aatp674
Rp675
(dp676
g12
Vaux
p677
sbag0
(g1
g2
(lp678
g0
(g1
g2
(lp679
g0
(g1
g2
(lp680
g0
(g1
g2
(lp681
g0
(g1
g2
(lp682
(lp683
S'word: silly, index: 13'
p684
aatp685
Rp686
(dp687
g12
Vamod
p688
sbatp689
Rp690
(dp691
g12
S'word: tricks, index: 14'
p692
sbatp693
Rp694
(dp695
g12
Vprep
p696
sbag0
(g1
g2
(lp697
(lp698
S'word: all, index: 10'
p699
aatp700
Rp701
(dp702
g12
Vdet
p703
sbatp704
Rp705
(dp706
g12
S'word: sorts, index: 11'
p707
sbatp708
Rp709
(dp710
g12
Vdobj
p711
sbatp712
Rp713
(dp714
g12
S'word: do, index: 9'
p715
sbatp716
Rp717
(dp718
g12
Vxcomp
p719
sbatp720
Rp721
(dp722
g12
S'word: expected, index: 7'
p723
sbatp724
Rp725
(dp726
g12
Vrcmod
p727
sbatp728
Rp729
(dp730
g12
S'word: clown, index: 3'
p731
sbatp732
Rp733
(dp734
g12
S'id: 4'
p735
sbag0
(g1
g2
(lp736
g0
(g1
g2
(lp737
g0
(g1
g2
(lp738
(lp739
S'word: He, index: 1'
p740
aatp741
Rp742
(dp743
g12
Vnsubj
p744
sbag0
(g1
g2
(lp745
(lp746
S"word: 's, index: 2"
p747
aatp748
Rp749
(dp750
g12
Vaux
p751
sbag0
(g1
g2
(lp752
(lp753
S'word: either, index: 3'
p754
aatp755
Rp756
(dp757
g12
Vadvmod
p758
sbag0
(g1
g2
(lp759
g0
(g1
g2
(lp760
g0
(g1
g2
(lp761
(lp762
S'word: popcorn, index: 8'
p763
aatp764
Rp765
(dp766
g12
Vconj
p767
sbatp768
Rp769
(dp770
g12
S'word: water, index: 5'
p771
sbatp772
Rp773
(dp774
g12
Vdobj
p775
sbag0
(g1
g2
(lp776
(lp777
S'word: popcorn, index: 8'
p778
aatp779
Rp780
(dp781
g12
Vdobj
p782
sbag0
(g1
g2
(lp783
g0
(g1
g2
(lp784
g0
(g1
g2
(lp785
(lp786
S'word: the, index: 11'
p787
aatp788
Rp789
(dp790
g12
Vdet
p791
sbag0
(g1
g2
(lp792
(lp793
S'word: little, index: 12'
p794
aatp795
Rp796
(dp797
g12
Vamod
p798
sbatp799
Rp800
(dp801
g12
S'word: boy, index: 13'
p802
sbatp803
Rp804
(dp805
g12
Vprep
p806
sbatp807
Rp808
(dp809
g12
S'word: throwing, index: 4'
p810
sbatp811
Rp812
(dp813
g12
S'id: 5'
p814
sbag0
(g1
g2
(lp815
g0
(g1
g2
(lp816
g0
(g1
g2
(lp817
g0
(g1
g2
(lp818
g0
(g1
g2
(lp819
(lp820
S'word: they, index: 2'
p821
aatp822
Rp823
(dp824
g12
Vnsubj
p825
sbag0
(g1
g2
(lp826
(lp827
S"word: 're, index: 3"
p828
aatp829
Rp830
(dp831
g12
Vaux
p832
sbag0
(g1
g2
(lp833
g0
(g1
g2
(lp834
g0
(g1
g2
(lp835
(lp836
S'word: they, index: 2'
p837
aatp838
Rp839
(dp840
g12
Vnsubj
p841
sbag0
(g1
g2
(lp842
g0
(g1
g2
(lp843
g0
(g1
g2
(lp844
g0
(g1
g2
(lp845
g0
(g1
g2
(lp846
(lp847
S'word: what, index: 19'
p848
aatp849
Rp850
(dp851
g12
Vdobj
p852
sbag0
(g1
g2
(lp853
(lp854
S'word: he, index: 20'
p855
aatp856
Rp857
(dp858
g12
Vnsubj
p859
sbag0
(g1
g2
(lp860
(lp861
S"word: 's, index: 21"
p862
aatp863
Rp864
(dp865
g12
Vaux
p866
sbag0
(g1
g2
(lp867
(lp868
S'word: out, index: 23'
p869
aatp870
Rp871
(dp872
g12
Vprt
p873
sbatp874
Rp875
(dp876
g12
S'word: throwing, index: 22'
p877
sbatp878
Rp879
(dp880
g12
Vccomp
p881
sbag0
(g1
g2
(lp882
(lp883
S'word: maybe, index: 16'
p884
aatp885
Rp886
(dp887
g12
Vadvmod
p888
sbag0
(g1
g2
(lp889
(lp890
S'word: to, index: 17'
p891
aatp892
Rp893
(dp894
g12
Vaux
p895
sbatp896
Rp897
(dp898
g12
S'word: catch, index: 18'
p899
sbatp900
Rp901
(dp902
g12
Vdep
p903
sbag0
(g1
g2
(lp904
(lp905
S'word: up, index: 7'
p906
aatp907
Rp908
(dp909
g12
Vprt
p910
sbag0
(g1
g2
(lp911
g0
(g1
g2
(lp912
g0
(g1
g2
(lp913
(lp914
S'word: their, index: 8'
p915
aatp916
Rp917
(dp918
g12
Vposs
p919
sbatp920
Rp921
(dp922
g12
S'word: hands, index: 9'
p923
sbatp924
Rp925
(dp926
g12
Vdobj
p927
sbag0
(g1
g2
(lp928
g0
(g1
g2
(lp929
g0
(g1
g2
(lp930
g897
atp931
Rp932
(dp933
g12
Vconj
p934
sbag0
(g1
g2
(lp935
(lp936
S'word: to, index: 10'
p937
aatp938
Rp939
(dp940
g12
Vaux
p941
sbag0
(g1
g2
(lp942
g0
(g1
g2
(lp943
g0
(g1
g2
(lp944
(lp945
S'word: it, index: 12'
p946
aatp947
Rp948
(dp949
g12
Vnsubj
p950
sbatp951
Rp952
(dp953
g12
S'word: catching, index: 13'
p954
sbatp955
Rp956
(dp957
g12
Vdep
p958
sbatp959
Rp960
(dp961
g12
S'word: avoid, index: 11'
p962
sbatp963
Rp964
(dp965
g12
Vdep
p966
sbatp967
Rp968
(dp969
g12
S'word: putting, index: 6'
p970
sbatp971
Rp972
(dp973
g12
Vconj
p974
sbatp975
Rp976
(dp977
g12
S'word: laughing, index: 4'
p978
sbatp979
Rp980
(dp981
g12
Vccomp
p982
sbag0
(g1
g2
(lp983
g968
atp984
Rp985
(dp986
g12
Vccomp
p987
sbag0
(g1
g2
(lp988
(lp989
S'word: it, index: 25'
p990
aatp991
Rp992
(dp993
g12
Vnsubj
p994
sbag0
(g1
g2
(lp995
(lp996
S'word: could, index: 26'
p997
aatp998
Rp999
(dp1000
g12
Vaux
p1001
sbatp1002
Rp1003
(dp1004
g12
S'word: be, index: 27'
p1005
sbatp1006
Rp1007
(dp1008
g12
S'id: 6'
p1009
sbag0
(g1
g2
(lp1010
g0
(g1
g2
(lp1011
g0
(g1
g2
(lp1012
(lp1013
S'word: it, index: 5'
p1014
aatp1015
Rp1016
(dp1017
g12
Vdobj
p1018
sbag0
(g1
g2
(lp1019
g0
(g1
g2
(lp1020
g0
(g1
g2
(lp1021
(lp1022
S'word: as, index: 6'
p1023
aatp1024
Rp1025
(dp1026
g12
Vadvmod
p1027
sbatp1028
Rp1029
(dp1030
g12
S'word: well, index: 7'
p1031
sbatp1032
Rp1033
(dp1034
g12
Vadvmod
p1035
sbag0
(g1
g2
(lp1036
g0
(g1
g2
(lp1037
g0
(g1
g2
(lp1038
(lp1039
S'word: the, index: 10'
p1040
aatp1041
Rp1042
(dp1043
g12
Vdet
p1044
sbag0
(g1
g2
(lp1045
(lp1046
S'word: little, index: 11'
p1047
aatp1048
Rp1049
(dp1050
g12
Vamod
p1051
sbatp1052
Rp1053
(dp1054
g12
S'word: child, index: 12'
p1055
sbatp1056
Rp1057
(dp1058
g12
Vprep
p1059
sbag0
(g1
g2
(lp1060
(lp1061
S'word: And, index: 1'
p1062
aatp1063
Rp1064
(dp1065
g12
Vcc
p1066
sbag0
(g1
g2
(lp1067
(lp1068
S'word: mother, index: 2'
p1069
aatp1070
Rp1071
(dp1072
g12
Vnsubj
p1073
sbag0
(g1
g2
(lp1074
(lp1075
S'word: is, index: 3'
p1076
aatp1077
Rp1078
(dp1079
g12
Vaux
p1080
sbatp1081
Rp1082
(dp1083
g12
S'word: enjoying, index: 4'
p1084
sbatp1085
Rp1086
(dp1087
g12
S'id: 7'
p1088
sbag0
(g1
g2
(lp1089
g0
(g1
g2
(lp1090
g0
(g1
g2
(lp1091
(lp1092
S'word: And, index: 1'
p1093
aatp1094
Rp1095
(dp1096
g12
Vcc
p1097
sbag0
(g1
g2
(lp1098
(lp1099
S'word: certainly, index: 2'
p1100
aatp1101
Rp1102
(dp1103
g12
Vadvmod
p1104
sbag0
(g1
g2
(lp1105
(lp1106
S'word: it, index: 3'
p1107
aatp1108
Rp1109
(dp1110
g12
Vnsubj
p1111
sbag0
(g1
g2
(lp1112
g0
(g1
g2
(lp1113
g0
(g1
g2
(lp1114
g0
(g1
g2
(lp1115
g0
(g1
g2
(lp1116
(lp1117
S'word: two, index: 9'
p1118
aatp1119
Rp1120
(dp1121
g12
Vnum
p1122
sbag0
(g1
g2
(lp1123
(lp1124
S'word: different, index: 10'
p1125
aatp1126
Rp1127
(dp1128
g12
Vamod
p1129
sbatp1130
Rp1131
(dp1132
g12
S'word: ethnicities, index: 11'
p1133
sbatp1134
Rp1135
(dp1136
g12
Vprep
p1137
sbag0
(g1
g2
(lp1138
(lp1139
S'word: that, index: 5'
p1140
aatp1141
Rp1142
(dp1143
g12
Vmark
p1144
sbag0
(g1
g2
(lp1145
(lp1146
S'word: they, index: 6'
p1147
aatp1148
Rp1149
(dp1150
g12
Vnsubj
p1151
sbatp1152
Rp1153
(dp1154
g12
S'word: are, index: 7'
p1155
sbatp1156
Rp1157
(dp1158
g12
Vccomp
p1159
sbatp1160
Rp1161
(dp1162
g12
S'word: appears, index: 4'
p1163
sbatp1164
Rp1165
(dp1166
g12
S'id: 8'
p1167
sbag0
(g1
g2
(lp1168
g0
(g1
g2
(lp1169
g0
(g1
g2
(lp1170
g0
(g1
g2
(lp1171
g0
(g1
g2
(lp1172
(lp1173
S'word: a, index: 12'
p1174
aatp1175
Rp1176
(dp1177
g12
Vdet
p1178
sbatp1179
Rp1180
(dp1181
g12
S'word: horse, index: 13'
p1182
sbatp1183
Rp1184
(dp1185
g12
Vprep
p1186
sbag0
(g1
g2
(lp1187
(lp1188
S'word: probably, index: 15'
p1189
aatp1190
Rp1191
(dp1192
g12
Vadvmod
p1193
sbag0
(g1
g2
(lp1194
(lp1195
S'word: And, index: 1'
p1196
aatp1197
Rp1198
(dp1199
g12
Vcc
p1200
sbag0
(g1
g2
(lp1201
g0
(g1
g2
(lp1202
g0
(g1
g2
(lp1203
(lp1204
S'word: the, index: 3'
p1205
aatp1206
Rp1207
(dp1208
g12
Vdet
p1209
sbag0
(g1
g2
(lp1210
g0
(g1
g2
(lp1211
g0
(g1
g2
(lp1212
(lp1213
S'word: the, index: 6'
p1214
aatp1215
Rp1216
(dp1217
g12
Vdet
p1218
sbatp1219
Rp1220
(dp1221
g12
S'word: ring, index: 7'
p1222
sbatp1223
Rp1224
(dp1225
g12
Vprep
p1226
sbatp1227
Rp1228
(dp1229
g12
S'word: center, index: 4'
p1230
sbatp1231
Rp1232
(dp1233
g12
Vprep
p1234
sbag0
(g1
g2
(lp1235
(lp1236
S'word: is, index: 8'
p1237
aatp1238
Rp1239
(dp1240
g12
Vcop
p1241
sbag0
(g1
g2
(lp1242
g0
(g1
g2
(lp1243
g0
(g1
g2
(lp1244
g0
(g1
g2
(lp1245
g0
(g1
g2
(lp1246
g0
(g1
g2
(lp1247
g0
(g1
g2
(lp1248
(lp1249
S'word: the, index: 45'
p1250
aatp1251
Rp1252
(dp1253
g12
Vdet
p1254
sbag0
(g1
g2
(lp1255
(lp1256
S'word: other, index: 46'
p1257
aatp1258
Rp1259
(dp1260
g12
Vamod
p1261
sbatp1262
Rp1263
(dp1264
g12
S'word: side, index: 47'
p1265
sbatp1266
Rp1267
(dp1268
g12
Vprep
p1269
sbag0
(g1
g2
(lp1270
(lp1271
S'word: the, index: 42'
p1272
aatp1273
Rp1274
(dp1275
g12
Vdet
p1276
sbatp1277
Rp1278
(dp1279
g12
S'word: crowd, index: 43'
p1280
sbatp1281
Rp1282
(dp1283
g12
Vagent
p1284
sbag0
(g1
g2
(lp1285
(lp1286
S'word: what, index: 16'
p1287
aatp1288
Rp1289
(dp1290
g12
Vdobj
p1291
sbag0
(g1
g2
(lp1292
g0
(g1
g2
(lp1293
g0
(g1
g2
(lp1294
g0
(g1
g2
(lp1295
g0
(g1
g2
(lp1296
(lp1297
S'word: we, index: 18'
p1298
aatp1299
Rp1300
(dp1301
g12
Vnsubj
p1302
sbag0
(g1
g2
(lp1303
g0
(g1
g2
(lp1304
g0
(g1
g2
(lp1305
g0
(g1
g2
(lp1306
g0
(g1
g2
(lp1307
(lp1308
S'word: the, index: 28'
p1309
aatp1310
Rp1311
(dp1312
g12
Vdet
p1313
sbatp1314
Rp1315
(dp1316
g12
S'word: horse, index: 29'
p1317
sbatp1318
Rp1319
(dp1320
g12
Vprep
p1321
sbag0
(g1
g2
(lp1322
g0
(g1
g2
(lp1323
g0
(g1
g2
(lp1324
(lp1325
S'word: this, index: 32'
p1326
aatp1327
Rp1328
(dp1329
g12
Vdet
p1330
sbag0
(g1
g2
(lp1331
g0
(g1
g2
(lp1332
g0
(g1
g2
(lp1333
(lp1334
S'word: that, index: 34'
p1335
aatp1336
Rp1337
(dp1338
g12
Vnsubj
p1339
sbag0
(g1
g2
(lp1340
(lp1341
S'word: just, index: 36'
p1342
aatp1343
Rp1344
(dp1345
g12
Vadvmod
p1346
sbatp1347
Rp1348
(dp1349
g12
S'word: is, index: 35'
p1350
sbatp1351
Rp1352
(dp1353
g12
Vrcmod
p1354
sbatp1355
Rp1356
(dp1357
g12
S'word: plumage, index: 33'
p1358
sbatp1359
Rp1360
(dp1361
g12
Vprep
p1362
sbag0
(g1
g2
(lp1363
(lp1364
S'word: to, index: 20'
p1365
aatp1366
Rp1367
(dp1368
g12
Vaux
p1369
sbag0
(g1
g2
(lp1370
g0
(g1
g2
(lp1371
g0
(g1
g2
(lp1372
(lp1373
S'word: my, index: 23'
p1374
aatp1375
Rp1376
(dp1377
g12
Vposs
p1378
sbag0
(g1
g2
(lp1379
(lp1380
S'word: day, index: 24'
p1381
aatp1382
Rp1383
(dp1384
g12
Vnn
p1385
sbag0
(g1
g2
(lp1386
(lp1387
S'word: lady, index: 25'
p1388
aatp1389
Rp1390
(dp1391
g12
Vnn
p1392
sbatp1393
Rp1394
(dp1395
g12
S'word: godiva, index: 26'
p1396
sbatp1397
Rp1398
(dp1399
g12
Vprep
p1400
sbatp1401
Rp1402
(dp1403
g12
S'word: say, index: 21'
p1404
sbatp1405
Rp1406
(dp1407
g12
Vxcomp
p1408
sbatp1409
Rp1410
(dp1411
g12
S'word: used, index: 19'
p1412
sbatp1413
Rp1414
(dp1415
g12
Vrcmod
p1416
sbatp1417
Rp1418
(dp1419
g12
S'word: they, index: 17'
p1420
sbatp1421
Rp1422
(dp1423
g12
Vnsubjpass
p1424
sbag0
(g1
g2
(lp1425
(lp1426
S'word: is, index: 37'
p1427
aatp1428
Rp1429
(dp1430
g12
Vaux
p1431
sbag0
(g1
g2
(lp1432
(lp1433
S'word: just, index: 38'
p1434
aatp1435
Rp1436
(dp1437
g12
Vadvmod
p1438
sbag0
(g1
g2
(lp1439
(lp1440
S'word: being, index: 39'
p1441
aatp1442
Rp1443
(dp1444
g12
Vauxpass
p1445
sbatp1446
Rp1447
(dp1448
g12
S'word: enjoyed, index: 40'
p1449
sbatp1450
Rp1451
(dp1452
g12
Vdep
p1453
sbag0
(g1
g2
(lp1454
(lp1455
S'word: the, index: 9'
p1456
aatp1457
Rp1458
(dp1459
g12
Vdet
p1460
sbatp1461
Rp1462
(dp1463
g12
S'word: lady, index: 10'
p1464
sbatp1465
Rp1466
(dp1467
g12
S'id: 9'
p1468
sbag0
(g1
g2
(lp1469
g0
(g1
g2
(lp1470
g0
(g1
g2
(lp1471
(lp1472
S'word: women, index: 15'
p1473
aatp1474
Rp1475
(dp1476
g12
Vprep
p1477
sbag0
(g1
g2
(lp1478
(lp1479
S'word: Obviously, index: 1'
p1480
aatp1481
Rp1482
(dp1483
g12
Vadvmod
p1484
sbag0
(g1
g2
(lp1485
(lp1486
S'word: children, index: 18'
p1487
aatp1488
Rp1489
(dp1490
g12
Vprep
p1491
sbag0
(g1
g2
(lp1492
g0
(g1
g2
(lp1493
g0
(g1
g2
(lp1494
(lp1495
S'word: all, index: 3'
p1496
aatp1497
Rp1498
(dp1499
g12
Vdet
p1500
sbatp1501
Rp1502
(dp1503
g12
S'word: ages, index: 4'
p1504
sbatp1505
Rp1506
(dp1507
g12
Vprep
p1508
sbag0
(g1
g2
(lp1509
(lp1510
S'word: of, index: 6'
p1511
aatp1512
Rp1513
(dp1514
g12
Vprepc
p1515
sbag0
(g1
g2
(lp1516
g0
(g1
g2
(lp1517
g0
(g1
g2
(lp1518
(lp1519
S'word: the, index: 7'
p1520
aatp1521
Rp1522
(dp1523
g12
Vdet
p1524
sbatp1525
Rp1526
(dp1527
g12
S'word: size, index: 8'
p1528
sbatp1529
Rp1530
(dp1531
g12
Vpobj
p1532
sbag0
(g1
g2
(lp1533
g0
(g1
g2
(lp1534
g0
(g1
g2
(lp1535
(lp1536
S'word: women, index: 15'
p1537
aatp1538
Rp1539
(dp1540
g12
Vconj
p1541
sbag0
(g1
g2
(lp1542
(lp1543
S'word: children, index: 18'
p1544
aatp1545
Rp1546
(dp1547
g12
Vconj
p1548
sbag0
(g1
g2
(lp1549
(lp1550
S'word: both, index: 12'
p1551
aatp1552
Rp1553
(dp1554
g12
Vdet
p1555
sbatp1556
Rp1557
(dp1558
g12
S'word: men, index: 13'
p1559
sbatp1560
Rp1561
(dp1562
g12
Vprep
p1563
sbatp1564
Rp1565
(dp1566
g12
S'word: looks, index: 10'
p1567
sbatp1568
Rp1569
(dp1570
g12
S'id: 10'
p1571
sbag0
(g1
g2
(lp1572
g0
(g1
g2
(lp1573
g0
(g1
g2
(lp1574
(lp1575
S'word: And, index: 1'
p1576
aatp1577
Rp1578
(dp1579
g12
Vcc
p1580
sbag0
(g1
g2
(lp1581
g0
(g1
g2
(lp1582
g0
(g1
g2
(lp1583
(lp1584
S'word: top, index: 3'
p1585
aatp1586
Rp1587
(dp1588
g12
Vnsubj
p1589
sbag0
(g1
g2
(lp1590
(lp1591
S'word: is, index: 4'
p1592
aatp1593
Rp1594
(dp1595
g12
Vcop
p1596
sbag0
(g1
g2
(lp1597
(lp1598
S'word: the, index: 5'
p1599
aatp1600
Rp1601
(dp1602
g12
Vdet
p1603
sbag0
(g1
g2
(lp1604
(lp1605
S'word: tight, index: 6'
p1606
aatp1607
Rp1608
(dp1609
g12
Vamod
p1610
sbag0
(g1
g2
(lp1611
(lp1612
S'word: rope, index: 7'
p1613
aatp1614
Rp1615
(dp1616
g12
Vnn
p1617
sbag0
(g1
g2
(lp1618
g0
(g1
g2
(lp1619
g0
(g1
g2
(lp1620
g0
(g1
g2
(lp1621
g0
(g1
g2
(lp1622
(lp1623
S'word: the, index: 22'
p1624
aatp1625
Rp1626
(dp1627
g12
Vdet
p1628
sbag0
(g1
g2
(lp1629
(lp1630
S'word: tight, index: 23'
p1631
aatp1632
Rp1633
(dp1634
g12
Vamod
p1635
sbatp1636
Rp1637
(dp1638
g12
S'word: rope, index: 24'
p1639
sbatp1640
Rp1641
(dp1642
g12
Vprep
p1643
sbag0
(g1
g2
(lp1644
(lp1645
S'word: he, index: 11'
p1646
aatp1647
Rp1648
(dp1649
g12
Vnsubj
p1650
sbag0
(g1
g2
(lp1651
(lp1652
S'word: his, index: 27'
p1653
aatp1654
Rp1655
(dp1656
g12
Vprep
p1657
sbag0
(g1
g2
(lp1658
g0
(g1
g2
(lp1659
g0
(g1
g2
(lp1660
g0
(g1
g2
(lp1661
g0
(g1
g2
(lp1662
g0
(g1
g2
(lp1663
g0
(g1
g2
(lp1664
(lp1665
S'word: the, index: 17'
p1666
aatp1667
Rp1668
(dp1669
g12
Vdet
p1670
sbag0
(g1
g2
(lp1671
(lp1672
S'word: balance, index: 18'
p1673
aatp1674
Rp1675
(dp1676
g12
Vnn
p1677
sbatp1678
Rp1679
(dp1680
g12
S'word: beam, index: 19'
p1681
sbatp1682
Rp1683
(dp1684
g12
Vprep
p1685
sbag0
(g1
g2
(lp1686
(lp1687
S'word: gingerly, index: 14'
p1688
aatp1689
Rp1690
(dp1691
g12
Vadvmod
p1692
sbatp1693
Rp1694
(dp1695
g12
S'word: stepping, index: 15'
p1696
sbatp1697
Rp1698
(dp1699
g12
Vdep
p1700
sbatp1701
Rp1702
(dp1703
g12
S'word: very, index: 13'
p1704
sbatp1705
Rp1706
(dp1707
g12
Vadvmod
p1708
sbatp1709
Rp1710
(dp1711
g12
S'word: is, index: 12'
p1712
sbatp1713
Rp1714
(dp1715
g12
Vconj
p1716
sbatp1717
Rp1718
(dp1719
g12
S'word: walker, index: 8'
p1720
sbatp1721
Rp1722
(dp1723
g12
Vprepc
p1724
sbag0
(g1
g2
(lp1725
g1710
atp1726
Rp1727
(dp1728
g12
Vprepc
p1729
sbag0
(g1
g2
(lp1730
(lp1731
S'word: I, index: 29'
p1732
aatp1733
Rp1734
(dp1735
g12
Vnsubj
p1736
sbag0
(g1
g2
(lp1737
g0
(g1
g2
(lp1738
g0
(g1
g2
(lp1739
g0
(g1
g2
(lp1740
g0
(g1
g2
(lp1741
(lp1742
S'word: that, index: 33'
p1743
aatp1744
Rp1745
(dp1746
g12
Vdet
p1747
sbag0
(g1
g2
(lp1748
(lp1749
S'word: balancing, index: 34'
p1750
aatp1751
Rp1752
(dp1753
g12
Vamod
p1754
sbatp1755
Rp1756
(dp1757
g12
S'word: stick, index: 35'
p1758
sbatp1759
Rp1760
(dp1761
g12
Vdobj
p1762
sbag0
(g1
g2
(lp1763
(lp1764
S'word: you, index: 31'
p1765
aatp1766
Rp1767
(dp1768
g12
Vnsubj
p1769
sbatp1770
Rp1771
(dp1772
g12
S'word: call, index: 32'
p1773
sbatp1774
Rp1775
(dp1776
g12
Vccomp
p1777
sbatp1778
Rp1779
(dp1780
g12
S'word: guess, index: 30'
p1781
sbatp1782
Rp1783
(dp1784
g12
S'id: 11'
p1785
sbag0
(g1
g2
(lp1786
g0
(g1
g2
(lp1787
g0
(g1
g2
(lp1788
g0
(g1
g2
(lp1789
g0
(g1
g2
(lp1790
(lp1791
S'word: to, index: 4'
p1792
aatp1793
Rp1794
(dp1795
g12
Vaux
p1796
sbag0
(g1
g2
(lp1797
(lp1798
S'word: be, index: 5'
p1799
aatp1800
Rp1801
(dp1802
g12
Vcop
p1803
sbag0
(g1
g2
(lp1804
(lp1805
S'word: very, index: 6'
p1806
aatp1807
Rp1808
(dp1809
g12
Vadvmod
p1810
sbatp1811
Rp1812
(dp1813
g12
S'word: young, index: 7'
p1814
sbatp1815
Rp1816
(dp1817
g12
Vxcomp
p1818
sbag0
(g1
g2
(lp1819
(lp1820
S'word: And, index: 1'
p1821
aatp1822
Rp1823
(dp1824
g12
Vcc
p1825
sbag0
(g1
g2
(lp1826
(lp1827
S'word: he, index: 2'
p1828
aatp1829
Rp1830
(dp1831
g12
Vnsubj
p1832
sbatp1833
Rp1834
(dp1835
g12
S'word: looks, index: 3'
p1836
sbatp1837
Rp1838
(dp1839
g12
S'id: 12'
p1840
sbag0
(g1
g2
(lp1841
g0
(g1
g2
(lp1842
g0
(g1
g2
(lp1843
(lp1844
S'word: And, index: 1'
p1845
aatp1846
Rp1847
(dp1848
g12
Vcc
p1849
sbag0
(g1
g2
(lp1850
(lp1851
S'word: if, index: 2'
p1852
aatp1853
Rp1854
(dp1855
g12
Vmark
p1856
sbag0
(g1
g2
(lp1857
(lp1858
S'word: this, index: 3'
p1859
aatp1860
Rp1861
(dp1862
g12
Vnsubj
p1863
sbag0
(g1
g2
(lp1864
(lp1865
S'word: in, index: 5'
p1866
aatp1867
Rp1868
(dp1869
g12
Vprep
p1870
sbatp1871
Rp1872
(dp1873
g12
S'word: was, index: 4'
p1874
sbatp1875
Rp1876
(dp1877
g12
S'id: 13'
p1878
sbatp1879
Rp1880
(dp1881
g12
S'sentences'
p1882
sb.