ccopy_reg
_reconstructor
p0
(cnltk.tree
Tree
p1
c__builtin__
list
p2
(lp3
g0
(g1
g2
(lp4
g0
(g1
g2
(lp5
g0
(g1
g2
(lp6
g0
(g1
g2
(lp7
Vthere
p8
atp9
Rp10
(dp11
S'_label'
p12
VEX
p13
sbatp14
Rp15
(dp16
g12
VNP
p17
sbag0
(g1
g2
(lp18
g0
(g1
g2
(lp19
V's
p20
atp21
Rp22
(dp23
g12
VVBZ
p24
sbag0
(g1
g2
(lp25
g0
(g1
g2
(lp26
g0
(g1
g2
(lp27
Va
p28
atp29
Rp30
(dp31
g12
VDT
p32
sbag0
(g1
g2
(lp33
Vboy
p34
atp35
Rp36
(dp37
g12
VNN
p38
sbatp39
Rp40
(dp41
g12
VNP
p42
sbag0
(g1
g2
(lp43
g0
(g1
g2
(lp44
Vflying
p45
atp46
Rp47
(dp48
g12
VVBG
p49
sbag0
(g1
g2
(lp50
g0
(g1
g2
(lp51
Va
p52
atp53
Rp54
(dp55
g12
VDT
p56
sbag0
(g1
g2
(lp57
Vkite
p58
atp59
Rp60
(dp61
g12
VNN
p62
sbatp63
Rp64
(dp65
g12
VNP
p66
sbag0
(g1
g2
(lp67
g0
(g1
g2
(lp68
Vwith
p69
atp70
Rp71
(dp72
g12
VIN
p73
sbag0
(g1
g2
(lp74
g0
(g1
g2
(lp75
Va
p76
atp77
Rp78
(dp79
g12
VDT
p80
sbag0
(g1
g2
(lp81
Vdog
p82
atp83
Rp84
(dp85
g12
VNN
p86
sbatp87
Rp88
(dp89
g12
VNP
p90
sbatp91
Rp92
(dp93
g12
VPP
p94
sbatp95
Rp96
(dp97
g12
VVP
p98
sbatp99
Rp100
(dp101
g12
VNP
p102
sbatp103
Rp104
(dp105
g12
VVP
p106
sbag0
(g1
g2
(lp107
V.
p108
atp109
Rp110
(dp111
g12
V.
p112
sbatp113
Rp114
(dp115
g12
VS
p116
sbatp117
Rp118
(dp119
g12
S'id: 0'
p120
sbag0
(g1
g2
(lp121
g0
(g1
g2
(lp122
g0
(g1
g2
(lp123
g0
(g1
g2
(lp124
VThere
p125
atp126
Rp127
(dp128
g12
VEX
p129
sbatp130
Rp131
(dp132
g12
VNP
p133
sbag0
(g1
g2
(lp134
g0
(g1
g2
(lp135
V's
p136
atp137
Rp138
(dp139
g12
VVBZ
p140
sbag0
(g1
g2
(lp141
g0
(g1
g2
(lp142
g0
(g1
g2
(lp143
Va
p144
atp145
Rp146
(dp147
g12
VDT
p148
sbag0
(g1
g2
(lp149
Vman
p150
atp151
Rp152
(dp153
g12
VNN
p154
sbag0
(g1
g2
(lp155
Vreading
p156
atp157
Rp158
(dp159
g12
VNN
p160
sbatp161
Rp162
(dp163
g12
VNP
p164
sbag0
(g1
g2
(lp165
g0
(g1
g2
(lp166
Vwith
p167
atp168
Rp169
(dp170
g12
VIN
p171
sbag0
(g1
g2
(lp172
g0
(g1
g2
(lp173
Vhis
p174
atp175
Rp176
(dp177
g12
VPRP$
p178
sbag0
(g1
g2
(lp179
Vshoes
p180
atp181
Rp182
(dp183
g12
VNNS
p184
sbatp185
Rp186
(dp187
g12
VNP
p188
sbatp189
Rp190
(dp191
g12
VPP
p192
sbatp193
Rp194
(dp195
g12
VNP
p196
sbag0
(g1
g2
(lp197
g0
(g1
g2
(lp198
Voff
p199
atp200
Rp201
(dp202
g12
VRP
p203
sbatp204
Rp205
(dp206
g12
VADVP
p207
sbatp208
Rp209
(dp210
g12
VVP
p211
sbag0
(g1
g2
(lp212
V.
p213
atp214
Rp215
(dp216
g12
V.
p217
sbatp218
Rp219
(dp220
g12
VS
p221
sbatp222
Rp223
(dp224
g12
S'id: 1'
p225
sbag0
(g1
g2
(lp226
g0
(g1
g2
(lp227
g0
(g1
g2
(lp228
g0
(g1
g2
(lp229
VThere
p230
atp231
Rp232
(dp233
g12
VEX
p234
sbatp235
Rp236
(dp237
g12
VNP
p238
sbag0
(g1
g2
(lp239
g0
(g1
g2
(lp240
V's
p241
atp242
Rp243
(dp244
g12
VVBZ
p245
sbag0
(g1
g2
(lp246
g0
(g1
g2
(lp247
g0
(g1
g2
(lp248
Va
p249
atp250
Rp251
(dp252
g12
VDT
p253
sbag0
(g1
g2
(lp254
Vwoman
p255
atp256
Rp257
(dp258
g12
VNN
p259
sbatp260
Rp261
(dp262
g12
VNP
p263
sbag0
(g1
g2
(lp264
g0
(g1
g2
(lp265
Vpouring
p266
atp267
Rp268
(dp269
g12
VVBG
p270
sbag0
(g1
g2
(lp271
g0
(g1
g2
(lp272
Va
p273
atp274
Rp275
(dp276
g12
VDT
p277
sbag0
(g1
g2
(lp278
Vdrink
p279
atp280
Rp281
(dp282
g12
VNN
p283
sbatp284
Rp285
(dp286
g12
VNP
p287
sbag0
(g1
g2
(lp288
V,
p289
atp290
Rp291
(dp292
g12
V,
p293
sbag0
(g1
g2
(lp294
g0
(g1
g2
(lp295
g0
(g1
g2
(lp296
Vlistening
p297
atp298
Rp299
(dp300
g12
VVBG
p301
sbag0
(g1
g2
(lp302
g0
(g1
g2
(lp303
Vto
p304
atp305
Rp306
(dp307
g12
VTO
p308
sbag0
(g1
g2
(lp309
g0
(g1
g2
(lp310
Vthe
p311
atp312
Rp313
(dp314
g12
VDT
p315
sbag0
(g1
g2
(lp316
Vradio
p317
atp318
Rp319
(dp320
g12
VNN
p321
sbatp322
Rp323
(dp324
g12
VNP
p325
sbatp326
Rp327
(dp328
g12
VPP
p329
sbatp330
Rp331
(dp332
g12
VVP
p333
sbatp334
Rp335
(dp336
g12
VS
p337
sbatp338
Rp339
(dp340
g12
VVP
p341
sbatp342
Rp343
(dp344
g12
VNP
p345
sbatp346
Rp347
(dp348
g12
VVP
p349
sbag0
(g1
g2
(lp350
V.
p351
atp352
Rp353
(dp354
g12
V.
p355
sbatp356
Rp357
(dp358
g12
VS
p359
sbatp360
Rp361
(dp362
g12
S'id: 2'
p363
sbag0
(g1
g2
(lp364
g0
(g1
g2
(lp365
g0
(g1
g2
(lp366
g0
(g1
g2
(lp367
VThere
p368
atp369
Rp370
(dp371
g12
VEX
p372
sbatp373
Rp374
(dp375
g12
VNP
p376
sbag0
(g1
g2
(lp377
g0
(g1
g2
(lp378
V's
p379
atp380
Rp381
(dp382
g12
VVBZ
p383
sbag0
(g1
g2
(lp384
g0
(g1
g2
(lp385
g0
(g1
g2
(lp386
Va
p387
atp388
Rp389
(dp390
g12
VDT
p391
sbag0
(g1
g2
(lp392
Vgirl
p393
atp394
Rp395
(dp396
g12
VNN
p397
sbatp398
Rp399
(dp400
g12
VNP
p401
sbag0
(g1
g2
(lp402
g0
(g1
g2
(lp403
Vmaking
p404
atp405
Rp406
(dp407
g12
VVBG
p408
sbag0
(g1
g2
(lp409
g0
(g1
g2
(lp410
Va
p411
atp412
Rp413
(dp414
g12
VDT
p415
sbag0
(g1
g2
(lp416
Vsandcastle
p417
atp418
Rp419
(dp420
g12
VNN
p421
sbatp422
Rp423
(dp424
g12
VNP
p425
sbatp426
Rp427
(dp428
g12
VVP
p429
sbatp430
Rp431
(dp432
g12
VNP
p433
sbatp434
Rp435
(dp436
g12
VVP
p437
sbag0
(g1
g2
(lp438
V.
p439
atp440
Rp441
(dp442
g12
V.
p443
sbatp444
Rp445
(dp446
g12
VS
p447
sbatp448
Rp449
(dp450
g12
S'id: 3'
p451
sbag0
(g1
g2
(lp452
g0
(g1
g2
(lp453
g0
(g1
g2
(lp454
g0
(g1
g2
(lp455
VThere
p456
atp457
Rp458
(dp459
g12
VEX
p460
sbatp461
Rp462
(dp463
g12
VNP
p464
sbag0
(g1
g2
(lp465
g0
(g1
g2
(lp466
V's
p467
atp468
Rp469
(dp470
g12
VVBZ
p471
sbag0
(g1
g2
(lp472
g0
(g1
g2
(lp473
Va
p474
atp475
Rp476
(dp477
g12
VDT
p478
sbag0
(g1
g2
(lp479
Vman
p480
atp481
Rp482
(dp483
g12
VNN
p484
sbag0
(g1
g2
(lp485
Vfishing
p486
atp487
Rp488
(dp489
g12
VNN
p490
sbatp491
Rp492
(dp493
g12
VNP
p494
sbatp495
Rp496
(dp497
g12
VVP
p498
sbag0
(g1
g2
(lp499
V.
p500
atp501
Rp502
(dp503
g12
V.
p504
sbatp505
Rp506
(dp507
g12
VS
p508
sbatp509
Rp510
(dp511
g12
S'id: 4'
p512
sbag0
(g1
g2
(lp513
g0
(g1
g2
(lp514
g0
(g1
g2
(lp515
g0
(g1
g2
(lp516
VThere
p517
atp518
Rp519
(dp520
g12
VEX
p521
sbatp522
Rp523
(dp524
g12
VNP
p525
sbag0
(g1
g2
(lp526
g0
(g1
g2
(lp527
V's
p528
atp529
Rp530
(dp531
g12
VVBZ
p532
sbag0
(g1
g2
(lp533
g0
(g1
g2
(lp534
g0
(g1
g2
(lp535
Vtwo
p536
atp537
Rp538
(dp539
g12
VCD
p540
sbag0
(g1
g2
(lp541
Vpeople
p542
atp543
Rp544
(dp545
g12
VNNS
p546
sbatp547
Rp548
(dp549
g12
VNP
p550
sbag0
(g1
g2
(lp551
g0
(g1
g2
(lp552
Vin
p553
atp554
Rp555
(dp556
g12
VIN
p557
sbag0
(g1
g2
(lp558
g0
(g1
g2
(lp559
Va
p560
atp561
Rp562
(dp563
g12
VDT
p564
sbag0
(g1
g2
(lp565
Vboat
p566
atp567
Rp568
(dp569
g12
VNN
p570
sbatp571
Rp572
(dp573
g12
VNP
p574
sbatp575
Rp576
(dp577
g12
VPP
p578
sbatp579
Rp580
(dp581
g12
VNP
p582
sbatp583
Rp584
(dp585
g12
VVP
p586
sbag0
(g1
g2
(lp587
V.
p588
atp589
Rp590
(dp591
g12
V.
p592
sbatp593
Rp594
(dp595
g12
VS
p596
sbatp597
Rp598
(dp599
g12
S'id: 5'
p600
sbag0
(g1
g2
(lp601
g0
(g1
g2
(lp602
g0
(g1
g2
(lp603
g0
(g1
g2
(lp604
VThere
p605
atp606
Rp607
(dp608
g12
VEX
p609
sbatp610
Rp611
(dp612
g12
VNP
p613
sbag0
(g1
g2
(lp614
g0
(g1
g2
(lp615
V's
p616
atp617
Rp618
(dp619
g12
VVBZ
p620
sbag0
(g1
g2
(lp621
g0
(g1
g2
(lp622
Va
p623
atp624
Rp625
(dp626
g12
VDT
p627
sbag0
(g1
g2
(lp628
Vflag
p629
atp630
Rp631
(dp632
g12
VNN
p633
sbatp634
Rp635
(dp636
g12
VNP
p637
sbatp638
Rp639
(dp640
g12
VVP
p641
sbag0
(g1
g2
(lp642
V.
p643
atp644
Rp645
(dp646
g12
V.
p647
sbatp648
Rp649
(dp650
g12
VS
p651
sbatp652
Rp653
(dp654
g12
S'id: 6'
p655
sbag0
(g1
g2
(lp656
g0
(g1
g2
(lp657
g0
(g1
g2
(lp658
g0
(g1
g2
(lp659
VThere
p660
atp661
Rp662
(dp663
g12
VEX
p664
sbatp665
Rp666
(dp667
g12
VNP
p668
sbag0
(g1
g2
(lp669
g0
(g1
g2
(lp670
V's
p671
atp672
Rp673
(dp674
g12
VVBZ
p675
sbag0
(g1
g2
(lp676
g0
(g1
g2
(lp677
g0
(g1
g2
(lp678
Va
p679
atp680
Rp681
(dp682
g12
VDT
p683
sbag0
(g1
g2
(lp684
Vcar
p685
atp686
Rp687
(dp688
g12
VNN
p689
sbatp690
Rp691
(dp692
g12
VNP
p693
sbag0
(g1
g2
(lp694
g0
(g1
g2
(lp695
Vin
p696
atp697
Rp698
(dp699
g12
VIN
p700
sbag0
(g1
g2
(lp701
g0
(g1
g2
(lp702
g0
(g1
g2
(lp703
Vfront
p704
atp705
Rp706
(dp707
g12
VNN
p708
sbatp709
Rp710
(dp711
g12
VNP
p712
sbag0
(g1
g2
(lp713
g0
(g1
g2
(lp714
Vof
p715
atp716
Rp717
(dp718
g12
VIN
p719
sbag0
(g1
g2
(lp720
g0
(g1
g2
(lp721
Va
p722
atp723
Rp724
(dp725
g12
VDT
p726
sbag0
(g1
g2
(lp727
Vhouse
p728
atp729
Rp730
(dp731
g12
VNN
p732
sbatp733
Rp734
(dp735
g12
VNP
p736
sbatp737
Rp738
(dp739
g12
VPP
p740
sbatp741
Rp742
(dp743
g12
VNP
p744
sbatp745
Rp746
(dp747
g12
VPP
p748
sbatp749
Rp750
(dp751
g12
VNP
p752
sbag0
(g1
g2
(lp753
V,
p754
atp755
Rp756
(dp757
g12
V,
p758
sbag0
(g1
g2
(lp759
g0
(g1
g2
(lp760
Vbehind
p761
atp762
Rp763
(dp764
g12
VIN
p765
sbag0
(g1
g2
(lp766
g0
(g1
g2
(lp767
Va
p768
atp769
Rp770
(dp771
g12
VDT
p772
sbag0
(g1
g2
(lp773
Vtree
p774
atp775
Rp776
(dp777
g12
VNN
p778
sbatp779
Rp780
(dp781
g12
VNP
p782
sbatp783
Rp784
(dp785
g12
VPP
p786
sbatp787
Rp788
(dp789
g12
VVP
p790
sbag0
(g1
g2
(lp791
V.
p792
atp793
Rp794
(dp795
g12
V.
p796
sbatp797
Rp798
(dp799
g12
VS
p800
sbatp801
Rp802
(dp803
g12
S'id: 7'
p804
sbag0
(g1
g2
(lp805
g0
(g1
g2
(lp806
g0
(g1
g2
(lp807
g0
(g1
g2
(lp808
VThe
p809
atp810
Rp811
(dp812
g12
VDT
p813
sbag0
(g1
g2
(lp814
Vwoman
p815
atp816
Rp817
(dp818
g12
VNN
p819
sbag0
(g1
g2
(lp820
Vand
p821
atp822
Rp823
(dp824
g12
VCC
p825
sbag0
(g1
g2
(lp826
Vman
p827
atp828
Rp829
(dp830
g12
VNN
p831
sbatp832
Rp833
(dp834
g12
VNP
p835
sbag0
(g1
g2
(lp836
g0
(g1
g2
(lp837
Von
p838
atp839
Rp840
(dp841
g12
VIN
p842
sbag0
(g1
g2
(lp843
g0
(g1
g2
(lp844
Va
p845
atp846
Rp847
(dp848
g12
VDT
p849
sbag0
(g1
g2
(lp850
Vblanket
p851
atp852
Rp853
(dp854
g12
VNN
p855
sbatp856
Rp857
(dp858
g12
VNP
p859
sbatp860
Rp861
(dp862
g12
VPP
p863
sbag0
(g1
g2
(lp864
V.
p865
atp866
Rp867
(dp868
g12
V.
p869
sbatp870
Rp871
(dp872
g12
VNP
p873
sbatp874
Rp875
(dp876
g12
S'id: 8'
p877
sbag0
(g1
g2
(lp878
g0
(g1
g2
(lp879
g0
(g1
g2
(lp880
g0
(g1
g2
(lp881
g0
(g1
g2
(lp882
VShe
p883
atp884
Rp885
(dp886
g12
VPRP
p887
sbatp888
Rp889
(dp890
g12
VNP
p891
sbag0
(g1
g2
(lp892
g0
(g1
g2
(lp893
V's
p894
atp895
Rp896
(dp897
g12
VVBZ
p898
sbag0
(g1
g2
(lp899
g0
(g1
g2
(lp900
Vin
p901
atp902
Rp903
(dp904
g12
VIN
p905
sbag0
(g1
g2
(lp906
g0
(g1
g2
(lp907
Vshorts
p908
atp909
Rp910
(dp911
g12
VNNS
p912
sbatp913
Rp914
(dp915
g12
VNP
p916
sbatp917
Rp918
(dp919
g12
VPP
p920
sbatp921
Rp922
(dp923
g12
VVP
p924
sbatp925
Rp926
(dp927
g12
VS
p928
sbag0
(g1
g2
(lp929
V,
p930
atp931
Rp932
(dp933
g12
V,
p934
sbag0
(g1
g2
(lp935
g0
(g1
g2
(lp936
Vhe
p937
atp938
Rp939
(dp940
g12
VPRP
p941
sbatp942
Rp943
(dp944
g12
VNP
p945
sbag0
(g1
g2
(lp946
g0
(g1
g2
(lp947
V's
p948
atp949
Rp950
(dp951
g12
VVBZ
p952
sbag0
(g1
g2
(lp953
g0
(g1
g2
(lp954
Vin
p955
atp956
Rp957
(dp958
g12
VIN
p959
sbag0
(g1
g2
(lp960
g0
(g1
g2
(lp961
Vlong
p962
atp963
Rp964
(dp965
g12
VJJ
p966
sbag0
(g1
g2
(lp967
Vpants
p968
atp969
Rp970
(dp971
g12
VNNS
p972
sbatp973
Rp974
(dp975
g12
VNP
p976
sbatp977
Rp978
(dp979
g12
VPP
p980
sbatp981
Rp982
(dp983
g12
VVP
p984
sbag0
(g1
g2
(lp985
V.
p986
atp987
Rp988
(dp989
g12
V.
p990
sbatp991
Rp992
(dp993
g12
VS
p994
sbatp995
Rp996
(dp997
g12
S'id: 9'
p998
sbag0
(g1
g2
(lp999
g0
(g1
g2
(lp1000
g0
(g1
g2
(lp1001
g0
(g1
g2
(lp1002
VMan
p1003
atp1004
Rp1005
(dp1006
g12
VNN
p1007
sbag0
(g1
g2
(lp1008
Vfishing
p1009
atp1010
Rp1011
(dp1012
g12
VNN
p1013
sbatp1014
Rp1015
(dp1016
g12
VNP
p1017
sbag0
(g1
g2
(lp1018
g0
(g1
g2
(lp1019
Vhas
p1020
atp1021
Rp1022
(dp1023
g12
VVBZ
p1024
sbag0
(g1
g2
(lp1025
g0
(g1
g2
(lp1026
Vcaught
p1027
atp1028
Rp1029
(dp1030
g12
VVBN
p1031
sbag0
(g1
g2
(lp1032
g0
(g1
g2
(lp1033
Va
p1034
atp1035
Rp1036
(dp1037
g12
VDT
p1038
sbag0
(g1
g2
(lp1039
Vfish
p1040
atp1041
Rp1042
(dp1043
g12
VNN
p1044
sbatp1045
Rp1046
(dp1047
g12
VNP
p1048
sbatp1049
Rp1050
(dp1051
g12
VVP
p1052
sbatp1053
Rp1054
(dp1055
g12
VVP
p1056
sbag0
(g1
g2
(lp1057
V.
p1058
atp1059
Rp1060
(dp1061
g12
V.
p1062
sbatp1063
Rp1064
(dp1065
g12
VS
p1066
sbatp1067
Rp1068
(dp1069
g12
S'id: 10'
p1070
sbag0
(g1
g2
(lp1071
g0
(g1
g2
(lp1072
g0
(g1
g2
(lp1073
g0
(g1
g2
(lp1074
VThere
p1075
atp1076
Rp1077
(dp1078
g12
VEX
p1079
sbatp1080
Rp1081
(dp1082
g12
VNP
p1083
sbag0
(g1
g2
(lp1084
g0
(g1
g2
(lp1085
V's
p1086
atp1087
Rp1088
(dp1089
g12
VVBZ
p1090
sbag0
(g1
g2
(lp1091
g0
(g1
g2
(lp1092
Vbushes
p1093
atp1094
Rp1095
(dp1096
g12
VNNS
p1097
sbatp1098
Rp1099
(dp1100
g12
VNP
p1101
sbag0
(g1
g2
(lp1102
g0
(g1
g2
(lp1103
Varound
p1104
atp1105
Rp1106
(dp1107
g12
VIN
p1108
sbatp1109
Rp1110
(dp1111
g12
VADVP
p1112
sbatp1113
Rp1114
(dp1115
g12
VVP
p1116
sbag0
(g1
g2
(lp1117
V.
p1118
atp1119
Rp1120
(dp1121
g12
V.
p1122
sbatp1123
Rp1124
(dp1125
g12
VS
p1126
sbatp1127
Rp1128
(dp1129
g12
S'id: 11'
p1130
sbag0
(g1
g2
(lp1131
g0
(g1
g2
(lp1132
g0
(g1
g2
(lp1133
g0
(g1
g2
(lp1134
VThere
p1135
atp1136
Rp1137
(dp1138
g12
VEX
p1139
sbatp1140
Rp1141
(dp1142
g12
VNP
p1143
sbag0
(g1
g2
(lp1144
g0
(g1
g2
(lp1145
V's
p1146
atp1147
Rp1148
(dp1149
g12
VVBZ
p1150
sbag0
(g1
g2
(lp1151
g0
(g1
g2
(lp1152
g0
(g1
g2
(lp1153
Va
p1154
atp1155
Rp1156
(dp1157
g12
VDT
p1158
sbag0
(g1
g2
(lp1159
Vradio
p1160
atp1161
Rp1162
(dp1163
g12
VNN
p1164
sbatp1165
Rp1166
(dp1167
g12
VNP
p1168
sbag0
(g1
g2
(lp1169
g0
(g1
g2
(lp1170
Von
p1171
atp1172
Rp1173
(dp1174
g12
VIN
p1175
sbag0
(g1
g2
(lp1176
g0
(g1
g2
(lp1177
Vthe
p1178
atp1179
Rp1180
(dp1181
g12
VDT
p1182
sbag0
(g1
g2
(lp1183
Vblanket
p1184
atp1185
Rp1186
(dp1187
g12
VNN
p1188
sbatp1189
Rp1190
(dp1191
g12
VNP
p1192
sbatp1193
Rp1194
(dp1195
g12
VPP
p1196
sbatp1197
Rp1198
(dp1199
g12
VNP
p1200
sbatp1201
Rp1202
(dp1203
g12
VVP
p1204
sbag0
(g1
g2
(lp1205
V.
p1206
atp1207
Rp1208
(dp1209
g12
V.
p1210
sbatp1211
Rp1212
(dp1213
g12
VS
p1214
sbatp1215
Rp1216
(dp1217
g12
S'id: 12'
p1218
sbag0
(g1
g2
(lp1219
g0
(g1
g2
(lp1220
g0
(g1
g2
(lp1221
g0
(g1
g2
(lp1222
VBushes
p1223
atp1224
Rp1225
(dp1226
g12
VNNS
p1227
sbatp1228
Rp1229
(dp1230
g12
VNP
p1231
sbag0
(g1
g2
(lp1232
g0
(g1
g2
(lp1233
Vin
p1234
atp1235
Rp1236
(dp1237
g12
VIN
p1238
sbag0
(g1
g2
(lp1239
g0
(g1
g2
(lp1240
Vfront
p1241
atp1242
Rp1243
(dp1244
g12
VNN
p1245
sbatp1246
Rp1247
(dp1248
g12
VNP
p1249
sbatp1250
Rp1251
(dp1252
g12
VPP
p1253
sbag0
(g1
g2
(lp1254
g0
(g1
g2
(lp1255
Vof
p1256
atp1257
Rp1258
(dp1259
g12
VIN
p1260
sbag0
(g1
g2
(lp1261
g0
(g1
g2
(lp1262
Vthe
p1263
atp1264
Rp1265
(dp1266
g12
VDT
p1267
sbag0
(g1
g2
(lp1268
Vhouse
p1269
atp1270
Rp1271
(dp1272
g12
VNN
p1273
sbatp1274
Rp1275
(dp1276
g12
VNP
p1277
sbatp1278
Rp1279
(dp1280
g12
VPP
p1281
sbag0
(g1
g2
(lp1282
V.
p1283
atp1284
Rp1285
(dp1286
g12
V.
p1287
sbatp1288
Rp1289
(dp1290
g12
VNP
p1291
sbatp1292
Rp1293
(dp1294
g12
S'id: 13'
p1295
sbag0
(g1
g2
(lp1296
g0
(g1
g2
(lp1297
g0
(g1
g2
(lp1298
g0
(g1
g2
(lp1299
VThere
p1300
atp1301
Rp1302
(dp1303
g12
VEX
p1304
sbatp1305
Rp1306
(dp1307
g12
VNP
p1308
sbag0
(g1
g2
(lp1309
g0
(g1
g2
(lp1310
V's
p1311
atp1312
Rp1313
(dp1314
g12
VVBZ
p1315
sbag0
(g1
g2
(lp1316
g0
(g1
g2
(lp1317
g0
(g1
g2
(lp1318
Vtwo
p1319
atp1320
Rp1321
(dp1322
g12
VCD
p1323
sbag0
(g1
g2
(lp1324
Vwindows
p1325
atp1326
Rp1327
(dp1328
g12
VNNS
p1329
sbatp1330
Rp1331
(dp1332
g12
VNP
p1333
sbag0
(g1
g2
(lp1334
V,
p1335
atp1336
Rp1337
(dp1338
g12
V,
p1339
sbag0
(g1
g2
(lp1340
g0
(g1
g2
(lp1341
Va
p1342
atp1343
Rp1344
(dp1345
g12
VDT
p1346
sbag0
(g1
g2
(lp1347
Vdoor
p1348
atp1349
Rp1350
(dp1351
g12
VNN
p1352
sbatp1353
Rp1354
(dp1355
g12
VNP
p1356
sbatp1357
Rp1358
(dp1359
g12
VNP
p1360
sbatp1361
Rp1362
(dp1363
g12
VVP
p1364
sbag0
(g1
g2
(lp1365
V.
p1366
atp1367
Rp1368
(dp1369
g12
V.
p1370
sbatp1371
Rp1372
(dp1373
g12
VS
p1374
sbatp1375
Rp1376
(dp1377
g12
S'id: 14'
p1378
sbag0
(g1
g2
(lp1379
g0
(g1
g2
(lp1380
g0
(g1
g2
(lp1381
g0
(g1
g2
(lp1382
VBoys
p1383
atp1384
Rp1385
(dp1386
g12
VNNS
p1387
sbatp1388
Rp1389
(dp1390
g12
VNP
p1391
sbag0
(g1
g2
(lp1392
g0
(g1
g2
(lp1393
Vwearing
p1394
atp1395
Rp1396
(dp1397
g12
VVBG
p1398
sbag0
(g1
g2
(lp1399
g0
(g1
g2
(lp1400
Vshorts
p1401
atp1402
Rp1403
(dp1404
g12
VNNS
p1405
sbatp1406
Rp1407
(dp1408
g12
VNP
p1409
sbatp1410
Rp1411
(dp1412
g12
VVP
p1413
sbag0
(g1
g2
(lp1414
V.
p1415
atp1416
Rp1417
(dp1418
g12
V.
p1419
sbatp1420
Rp1421
(dp1422
g12
VNP
p1423
sbatp1424
Rp1425
(dp1426
g12
S'id: 15'
p1427
sbag0
(g1
g2
(lp1428
g0
(g1
g2
(lp1429
g0
(g1
g2
(lp1430
g0
(g1
g2
(lp1431
VThere
p1432
atp1433
Rp1434
(dp1435
g12
VEX
p1436
sbatp1437
Rp1438
(dp1439
g12
VNP
p1440
sbag0
(g1
g2
(lp1441
g0
(g1
g2
(lp1442
V's
p1443
atp1444
Rp1445
(dp1446
g12
VVBZ
p1447
sbag0
(g1
g2
(lp1448
g0
(g1
g2
(lp1449
g0
(g1
g2
(lp1450
Va
p1451
atp1452
Rp1453
(dp1454
g12
VDT
p1455
sbag0
(g1
g2
(lp1456
Vtail
p1457
atp1458
Rp1459
(dp1460
g12
VNN
p1461
sbatp1462
Rp1463
(dp1464
g12
VNP
p1465
sbag0
(g1
g2
(lp1466
g0
(g1
g2
(lp1467
Von
p1468
atp1469
Rp1470
(dp1471
g12
VIN
p1472
sbag0
(g1
g2
(lp1473
g0
(g1
g2
(lp1474
Vthe
p1475
atp1476
Rp1477
(dp1478
g12
VDT
p1479
sbag0
(g1
g2
(lp1480
Vkite
p1481
atp1482
Rp1483
(dp1484
g12
VNN
p1485
sbatp1486
Rp1487
(dp1488
g12
VNP
p1489
sbatp1490
Rp1491
(dp1492
g12
VPP
p1493
sbatp1494
Rp1495
(dp1496
g12
VNP
p1497
sbatp1498
Rp1499
(dp1500
g12
VVP
p1501
sbag0
(g1
g2
(lp1502
V.
p1503
atp1504
Rp1505
(dp1506
g12
V.
p1507
sbatp1508
Rp1509
(dp1510
g12
VS
p1511
sbatp1512
Rp1513
(dp1514
g12
S'id: 16'
p1515
sbag0
(g1
g2
(lp1516
g0
(g1
g2
(lp1517
g0
(g1
g2
(lp1518
g0
(g1
g2
(lp1519
VThe
p1520
atp1521
Rp1522
(dp1523
g12
VDT
p1524
sbag0
(g1
g2
(lp1525
Vboat
p1526
atp1527
Rp1528
(dp1529
g12
VNN
p1530
sbatp1531
Rp1532
(dp1533
g12
VNP
p1534
sbag0
(g1
g2
(lp1535
g0
(g1
g2
(lp1536
Vis
p1537
atp1538
Rp1539
(dp1540
g12
VVBZ
p1541
sbatp1542
Rp1543
(dp1544
g12
VVP
p1545
sbatp1546
Rp1547
(dp1548
g12
VS
p1549
sbatp1550
Rp1551
(dp1552
g12
S'id: 17'
p1553
sbatp1554
Rp1555
(dp1556
g12
S'sentences'
p1557
sb.