ccopy_reg
_reconstructor
p0
(cnltk.tree
Tree
p1
c__builtin__
list
p2
(lp3
g0
(g1
g2
(lp4
g0
(g1
g2
(lp5
g0
(g1
g2
(lp6
g0
(g1
g2
(lp7
Vok
p8
atp9
Rp10
(dp11
S'_label'
p12
VJJ
p13
sbatp14
Rp15
(dp16
g12
VNP
p17
sbag0
(g1
g2
(lp18
g0
(g1
g2
(lp19
Vlet
p20
atp21
Rp22
(dp23
g12
VVB
p24
sbag0
(g1
g2
(lp25
g0
(g1
g2
(lp26
g0
(g1
g2
(lp27
V's
p28
atp29
Rp30
(dp31
g12
VPOS
p32
sbatp33
Rp34
(dp35
g12
VNP
p36
sbag0
(g1
g2
(lp37
g0
(g1
g2
(lp38
Vsee
p39
atp40
Rp41
(dp42
g12
VVB
p43
sbatp44
Rp45
(dp46
g12
VVP
p47
sbatp48
Rp49
(dp50
g12
VS
p51
sbatp52
Rp53
(dp54
g12
VVP
p55
sbag0
(g1
g2
(lp56
V.
p57
atp58
Rp59
(dp60
g12
V.
p61
sbatp62
Rp63
(dp64
g12
VS
p65
sbatp66
Rp67
(dp68
g12
S'id: 0'
p69
sbag0
(g1
g2
(lp70
g0
(g1
g2
(lp71
g0
(g1
g2
(lp72
g0
(g1
g2
(lp73
VI
p74
atp75
Rp76
(dp77
g12
VPRP
p78
sbatp79
Rp80
(dp81
g12
VNP
p82
sbag0
(g1
g2
(lp83
g0
(g1
g2
(lp84
Vknow
p85
atp86
Rp87
(dp88
g12
VVBP
p89
sbag0
(g1
g2
(lp90
g0
(g1
g2
(lp91
g0
(g1
g2
(lp92
Vwhat
p93
atp94
Rp95
(dp96
g12
VWP
p97
sbatp98
Rp99
(dp100
g12
VWHNP
p101
sbag0
(g1
g2
(lp102
g0
(g1
g2
(lp103
g0
(g1
g2
(lp104
Vit
p105
atp106
Rp107
(dp108
g12
VPRP
p109
sbatp110
Rp111
(dp112
g12
VNP
p113
sbag0
(g1
g2
(lp114
g0
(g1
g2
(lp115
Vis
p116
atp117
Rp118
(dp119
g12
VVBZ
p120
sbag0
(g1
g2
(lp121
g0
(g1
g2
(lp122
Vbut
p123
atp124
Rp125
(dp126
g12
VCC
p127
sbag0
(g1
g2
(lp128
g0
(g1
g2
(lp129
g0
(g1
g2
(lp130
VI
p131
atp132
Rp133
(dp134
g12
VPRP
p135
sbatp136
Rp137
(dp138
g12
VNP
p139
sbag0
(g1
g2
(lp140
g0
(g1
g2
(lp141
Vca
p142
atp143
Rp144
(dp145
g12
VMD
p146
sbag0
(g1
g2
(lp147
Vn't
p148
atp149
Rp150
(dp151
g12
VRB
p152
sbag0
(g1
g2
(lp153
g0
(g1
g2
(lp154
Vsay
p155
atp156
Rp157
(dp158
g12
VVB
p159
sbatp160
Rp161
(dp162
g12
VVP
p163
sbatp164
Rp165
(dp166
g12
VVP
p167
sbatp168
Rp169
(dp170
g12
VS
p171
sbatp172
Rp173
(dp174
g12
VSBAR
p175
sbatp176
Rp177
(dp178
g12
VVP
p179
sbatp180
Rp181
(dp182
g12
VS
p183
sbatp184
Rp185
(dp186
g12
VSBAR
p187
sbatp188
Rp189
(dp190
g12
VVP
p191
sbag0
(g1
g2
(lp192
V.
p193
atp194
Rp195
(dp196
g12
V.
p197
sbatp198
Rp199
(dp200
g12
VS
p201
sbatp202
Rp203
(dp204
g12
S'id: 1'
p205
sbag0
(g1
g2
(lp206
g0
(g1
g2
(lp207
g0
(g1
g2
(lp208
g0
(g1
g2
(lp209
VHorse
p210
atp211
Rp212
(dp213
g12
VNN
p214
sbatp215
Rp216
(dp217
g12
VNP
p218
sbag0
(g1
g2
(lp219
V,
p220
atp221
Rp222
(dp223
g12
V,
p224
sbag0
(g1
g2
(lp225
g0
(g1
g2
(lp226
VI
p227
atp228
Rp229
(dp230
g12
VPRP
p231
sbatp232
Rp233
(dp234
g12
VNP
p235
sbag0
(g1
g2
(lp236
g0
(g1
g2
(lp237
V'm
p238
atp239
Rp240
(dp241
g12
VVBP
p242
sbag0
(g1
g2
(lp243
g0
(g1
g2
(lp244
Vsaying
p245
atp246
Rp247
(dp248
g12
VVBG
p249
sbag0
(g1
g2
(lp250
g0
(g1
g2
(lp251
g0
(g1
g2
(lp252
Vhorse
p253
atp254
Rp255
(dp256
g12
VNN
p257
sbatp258
Rp259
(dp260
g12
VNP
p261
sbag0
(g1
g2
(lp262
V,
p263
atp264
Rp265
(dp266
g12
V,
p267
sbag0
(g1
g2
(lp268
Vnot
p269
atp270
Rp271
(dp272
g12
VRB
p273
sbag0
(g1
g2
(lp274
g0
(g1
g2
(lp275
Va
p276
atp277
Rp278
(dp279
g12
VDT
p280
sbag0
(g1
g2
(lp281
Vhorse
p282
atp283
Rp284
(dp285
g12
VNN
p286
sbatp287
Rp288
(dp289
g12
VNP
p290
sbatp291
Rp292
(dp293
g12
VNP
p294
sbatp295
Rp296
(dp297
g12
VVP
p298
sbatp299
Rp300
(dp301
g12
VVP
p302
sbag0
(g1
g2
(lp303
V.
p304
atp305
Rp306
(dp307
g12
V.
p308
sbatp309
Rp310
(dp311
g12
VS
p312
sbatp313
Rp314
(dp315
g12
S'id: 2'
p316
sbag0
(g1
g2
(lp317
g0
(g1
g2
(lp318
g0
(g1
g2
(lp319
g0
(g1
g2
(lp320
g0
(g1
g2
(lp321
g0
(g1
g2
(lp322
VWell
p323
atp324
Rp325
(dp326
g12
VRB
p327
sbatp328
Rp329
(dp330
g12
VADVP
p331
sbag0
(g1
g2
(lp332
g0
(g1
g2
(lp333
Vlet
p334
atp335
Rp336
(dp337
g12
VVB
p338
sbag0
(g1
g2
(lp339
g0
(g1
g2
(lp340
g0
(g1
g2
(lp341
V's
p342
atp343
Rp344
(dp345
g12
VPOS
p346
sbatp347
Rp348
(dp349
g12
VNP
p350
sbag0
(g1
g2
(lp351
g0
(g1
g2
(lp352
Vsee
p353
atp354
Rp355
(dp356
g12
VVB
p357
sbatp358
Rp359
(dp360
g12
VVP
p361
sbatp362
Rp363
(dp364
g12
VS
p365
sbatp366
Rp367
(dp368
g12
VVP
p369
sbatp370
Rp371
(dp372
g12
VS
p373
sbag0
(g1
g2
(lp374
V,
p375
atp376
Rp377
(dp378
g12
V,
p379
sbag0
(g1
g2
(lp380
g0
(g1
g2
(lp381
Vthe
p382
atp383
Rp384
(dp385
g12
VDT
p386
sbag0
(g1
g2
(lp387
Vman
p388
atp389
Rp390
(dp391
g12
VNN
p392
sbatp393
Rp394
(dp395
g12
VNP
p396
sbag0
(g1
g2
(lp397
g0
(g1
g2
(lp398
Vhas
p399
atp400
Rp401
(dp402
g12
VVBZ
p403
sbag0
(g1
g2
(lp404
g0
(g1
g2
(lp405
g0
(g1
g2
(lp406
Vthe
p407
atp408
Rp409
(dp410
g12
VDT
p411
sbag0
(g1
g2
(lp412
Vman
p413
atp414
Rp415
(dp416
g12
VNN
p417
sbatp418
Rp419
(dp420
g12
VNP
p421
sbag0
(g1
g2
(lp422
g0
(g1
g2
(lp423
g0
(g1
g2
(lp424
Vwho
p425
atp426
Rp427
(dp428
g12
VWP
p429
sbatp430
Rp431
(dp432
g12
VWHNP
p433
sbag0
(g1
g2
(lp434
g0
(g1
g2
(lp435
g0
(g1
g2
(lp436
Vis
p437
atp438
Rp439
(dp440
g12
VVBZ
p441
sbag0
(g1
g2
(lp442
g0
(g1
g2
(lp443
Vtrying
p444
atp445
Rp446
(dp447
g12
VVBG
p448
sbag0
(g1
g2
(lp449
g0
(g1
g2
(lp450
Vto
p451
atp452
Rp453
(dp454
g12
VTO
p455
sbag0
(g1
g2
(lp456
g0
(g1
g2
(lp457
Vscratch
p458
atp459
Rp460
(dp461
g12
VNN
p462
sbatp463
Rp464
(dp465
g12
VNP
p466
sbatp467
Rp468
(dp469
g12
VPP
p470
sbatp471
Rp472
(dp473
g12
VVP
p474
sbatp475
Rp476
(dp477
g12
VVP
p478
sbatp479
Rp480
(dp481
g12
VS
p482
sbatp483
Rp484
(dp485
g12
VSBAR
p486
sbatp487
Rp488
(dp489
g12
VNP
p490
sbatp491
Rp492
(dp493
g12
VVP
p494
sbatp495
Rp496
(dp497
g12
VS
p498
sbag0
(g1
g2
(lp499
g0
(g1
g2
(lp500
V,
p501
atp502
Rp503
(dp504
g12
V,
p505
sbag0
(g1
g2
(lp506
g0
(g1
g2
(lp507
g0
(g1
g2
(lp508
Vi
p509
atp510
Rp511
(dp512
g12
VFW
p513
sbatp514
Rp515
(dp516
g12
VNP
p517
sbag0
(g1
g2
(lp518
g0
(g1
g2
(lp519
Vknow
p520
atp521
Rp522
(dp523
g12
VVBP
p524
sbag0
(g1
g2
(lp525
g0
(g1
g2
(lp526
g0
(g1
g2
(lp527
Vwhat
p528
atp529
Rp530
(dp531
g12
VWP
p532
sbatp533
Rp534
(dp535
g12
VWHNP
p536
sbag0
(g1
g2
(lp537
g0
(g1
g2
(lp538
g0
(g1
g2
(lp539
Vit
p540
atp541
Rp542
(dp543
g12
VPRP
p544
sbatp545
Rp546
(dp547
g12
VNP
p548
sbag0
(g1
g2
(lp549
g0
(g1
g2
(lp550
Vis
p551
atp552
Rp553
(dp554
g12
VVBZ
p555
sbatp556
Rp557
(dp558
g12
VVP
p559
sbatp560
Rp561
(dp562
g12
VS
p563
sbatp564
Rp565
(dp566
g12
VSBAR
p567
sbatp568
Rp569
(dp570
g12
VVP
p571
sbatp572
Rp573
(dp574
g12
VS
p575
sbag0
(g1
g2
(lp576
V,
p577
atp578
Rp579
(dp580
g12
V,
p581
sbatp582
Rp583
(dp584
g12
VPRN
p585
sbag0
(g1
g2
(lp586
Vbut
p587
atp588
Rp589
(dp590
g12
VCC
p591
sbag0
(g1
g2
(lp592
g0
(g1
g2
(lp593
g0
(g1
g2
(lp594
VI
p595
atp596
Rp597
(dp598
g12
VPRP
p599
sbatp600
Rp601
(dp602
g12
VNP
p603
sbag0
(g1
g2
(lp604
g0
(g1
g2
(lp605
Vcant
p606
atp607
Rp608
(dp609
g12
VVBP
p610
sbag0
(g1
g2
(lp611
g0
(g1
g2
(lp612
Vsay
p613
atp614
Rp615
(dp616
g12
VVB
p617
sbag0
(g1
g2
(lp618
g0
(g1
g2
(lp619
Vit
p620
atp621
Rp622
(dp623
g12
VPRP
p624
sbatp625
Rp626
(dp627
g12
VNP
p628
sbatp629
Rp630
(dp631
g12
VVP
p632
sbatp633
Rp634
(dp635
g12
VVP
p636
sbatp637
Rp638
(dp639
g12
VS
p640
sbag0
(g1
g2
(lp641
V.
p642
atp643
Rp644
(dp645
g12
V.
p646
sbatp647
Rp648
(dp649
g12
VS
p650
sbatp651
Rp652
(dp653
g12
S'id: 3'
p654
sbag0
(g1
g2
(lp655
g0
(g1
g2
(lp656
VOther
p657
atp658
Rp659
(dp660
g12
VJJ
p661
sbag0
(g1
g2
(lp662
Vguy
p663
atp664
Rp665
(dp666
g12
VNN
p667
sbag0
(g1
g2
(lp668
Vwho
p669
atp670
Rp671
(dp672
g12
VWP
p673
sbag0
(g1
g2
(lp674
V's
p675
atp676
Rp677
(dp678
g12
VVBZ
p679
sbag0
(g1
g2
(lp680
Vwearing
p681
atp682
Rp683
(dp684
g12
VVBG
p685
sbag0
(g1
g2
(lp686
Vall
p687
atp688
Rp689
(dp690
g12
VPDT
p691
sbag0
(g1
g2
(lp692
Vthe
p693
atp694
Rp695
(dp696
g12
VDT
p697
sbag0
(g1
g2
(lp698
Vpaint
p699
atp700
Rp701
(dp702
g12
VNN
p703
sbag0
(g1
g2
(lp704
Von
p705
atp706
Rp707
(dp708
g12
VIN
p709
sbag0
(g1
g2
(lp710
Vhis
p711
atp712
Rp713
(dp714
g12
VPRP$
p715
sbag0
(g1
g2
(lp716
Vface
p717
atp718
Rp719
(dp720
g12
VNN
p721
sbag0
(g1
g2
(lp722
V,
p723
atp724
Rp725
(dp726
g12
V,
p727
sbag0
(g1
g2
(lp728
Vand
p729
atp730
Rp731
(dp732
g12
VCC
p733
sbag0
(g1
g2
(lp734
Vthe
p735
atp736
Rp737
(dp738
g12
VDT
p739
sbag0
(g1
g2
(lp740
Vbig
p741
atp742
Rp743
(dp744
g12
VJJ
p745
sbag0
(g1
g2
(lp746
Vfancy
p747
atp748
Rp749
(dp750
g12
VJJ
p751
sbag0
(g1
g2
(lp752
Vhair
p753
atp754
Rp755
(dp756
g12
VNN
p757
sbag0
(g1
g2
(lp758
V,
p759
atp760
Rp761
(dp762
g12
V,
p763
sbag0
(g1
g2
(lp764
Vand
p765
atp766
Rp767
(dp768
g12
VCC
p769
sbag0
(g1
g2
(lp770
Vhe
p771
atp772
Rp773
(dp774
g12
VPRP
p775
sbag0
(g1
g2
(lp776
V's
p777
atp778
Rp779
(dp780
g12
VVBZ
p781
sbag0
(g1
g2
(lp782
Vgot
p783
atp784
Rp785
(dp786
g12
VVBN
p787
sbag0
(g1
g2
(lp788
Vwater
p789
atp790
Rp791
(dp792
g12
VNN
p793
sbag0
(g1
g2
(lp794
V,
p795
atp796
Rp797
(dp798
g12
V,
p799
sbag0
(g1
g2
(lp800
Vand
p801
atp802
Rp803
(dp804
g12
VCC
p805
sbag0
(g1
g2
(lp806
Vhe
p807
atp808
Rp809
(dp810
g12
VPRP
p811
sbag0
(g1
g2
(lp812
V's
p813
atp814
Rp815
(dp816
g12
VVBZ
p817
sbag0
(g1
g2
(lp818
Vtrying
p819
atp820
Rp821
(dp822
g12
VVBG
p823
sbag0
(g1
g2
(lp824
Vto
p825
atp826
Rp827
(dp828
g12
VTO
p829
sbag0
(g1
g2
(lp830
Vput
p831
atp832
Rp833
(dp834
g12
VVB
p835
sbag0
(g1
g2
(lp836
Vthe
p837
atp838
Rp839
(dp840
g12
VDT
p841
sbag0
(g1
g2
(lp842
Vwater
p843
atp844
Rp845
(dp846
g12
VNN
p847
sbag0
(g1
g2
(lp848
Von
p849
atp850
Rp851
(dp852
g12
VIN
p853
sbag0
(g1
g2
(lp854
Vto
p855
atp856
Rp857
(dp858
g12
VTO
p859
sbag0
(g1
g2
(lp860
V,
p861
atp862
Rp863
(dp864
g12
V,
p865
sbag0
(g1
g2
(lp866
Vit
p867
atp868
Rp869
(dp870
g12
VPRP
p871
sbag0
(g1
g2
(lp872
Vlooks
p873
atp874
Rp875
(dp876
g12
VVBZ
p877
sbag0
(g1
g2
(lp878
Vlike
p879
atp880
Rp881
(dp882
g12
VIN
p883
sbag0
(g1
g2
(lp884
Vwater
p885
atp886
Rp887
(dp888
g12
VNN
p889
sbag0
(g1
g2
(lp890
Vbut
p891
atp892
Rp893
(dp894
g12
VCC
p895
sbag0
(g1
g2
(lp896
Vit
p897
atp898
Rp899
(dp900
g12
VPRP
p901
sbag0
(g1
g2
(lp902
V's
p903
atp904
Rp905
(dp906
g12
VVBZ
p907
sbag0
(g1
g2
(lp908
Vnot
p909
atp910
Rp911
(dp912
g12
VRB
p913
sbag0
(g1
g2
(lp914
V,
p915
atp916
Rp917
(dp918
g12
V,
p919
sbag0
(g1
g2
(lp920
Vit
p921
atp922
Rp923
(dp924
g12
VPRP
p925
sbag0
(g1
g2
(lp926
V's
p927
atp928
Rp929
(dp930
g12
VVBZ
p931
sbag0
(g1
g2
(lp932
Vsomething
p933
atp934
Rp935
(dp936
g12
VNN
p937
sbag0
(g1
g2
(lp938
Velse
p939
atp940
Rp941
(dp942
g12
VRB
p943
sbag0
(g1
g2
(lp944
V,
p945
atp946
Rp947
(dp948
g12
V,
p949
sbag0
(g1
g2
(lp950
Von
p951
atp952
Rp953
(dp954
g12
VIN
p955
sbag0
(g1
g2
(lp956
Vto
p957
atp958
Rp959
(dp960
g12
VTO
p961
sbag0
(g1
g2
(lp962
Vthe
p963
atp964
Rp965
(dp966
g12
VDT
p967
sbag0
(g1
g2
(lp968
Vboy
p969
atp970
Rp971
(dp972
g12
VNN
p973
sbag0
(g1
g2
(lp974
Vand
p975
atp976
Rp977
(dp978
g12
VCC
p979
sbag0
(g1
g2
(lp980
Vgirl
p981
atp982
Rp983
(dp984
g12
VNN
p985
sbag0
(g1
g2
(lp986
V,
p987
atp988
Rp989
(dp990
g12
V,
p991
sbag0
(g1
g2
(lp992
Vand
p993
atp994
Rp995
(dp996
g12
VCC
p997
sbag0
(g1
g2
(lp998
Vthe
p999
atp1000
Rp1001
(dp1002
g12
VDT
p1003
sbag0
(g1
g2
(lp1004
Vmother
p1005
atp1006
Rp1007
(dp1008
g12
VNN
p1009
sbag0
(g1
g2
(lp1010
V,
p1011
atp1012
Rp1013
(dp1014
g12
V,
p1015
sbag0
(g1
g2
(lp1016
Vand
p1017
atp1018
Rp1019
(dp1020
g12
VCC
p1021
sbag0
(g1
g2
(lp1022
Vthe
p1023
atp1024
Rp1025
(dp1026
g12
VDT
p1027
sbag0
(g1
g2
(lp1028
Vgirl
p1029
atp1030
Rp1031
(dp1032
g12
VNN
p1033
sbag0
(g1
g2
(lp1034
Vis
p1035
atp1036
Rp1037
(dp1038
g12
VVBZ
p1039
sbag0
(g1
g2
(lp1040
Vturned
p1041
atp1042
Rp1043
(dp1044
g12
VVBN
p1045
sbag0
(g1
g2
(lp1046
Varound
p1047
atp1048
Rp1049
(dp1050
g12
VRP
p1051
sbag0
(g1
g2
(lp1052
V,
p1053
atp1054
Rp1055
(dp1056
g12
V,
p1057
sbag0
(g1
g2
(lp1058
Vand
p1059
atp1060
Rp1061
(dp1062
g12
VCC
p1063
sbag0
(g1
g2
(lp1064
Vtwirling
p1065
atp1066
Rp1067
(dp1068
g12
VVBG
p1069
sbag0
(g1
g2
(lp1070
Varound
p1071
atp1072
Rp1073
(dp1074
g12
VRB
p1075
sbag0
(g1
g2
(lp1076
V.
p1077
atp1078
Rp1079
(dp1080
g12
V.
p1081
sbatp1082
Rp1083
(dp1084
g12
S'id: 4'
p1085
sbag0
(g1
g2
(lp1086
g0
(g1
g2
(lp1087
g0
(g1
g2
(lp1088
g0
(g1
g2
(lp1089
g0
(g1
g2
(lp1090
g0
(g1
g2
(lp1091
VA
p1092
atp1093
Rp1094
(dp1095
g12
VDT
p1096
sbag0
(g1
g2
(lp1097
Vman
p1098
atp1099
Rp1100
(dp1101
g12
VNN
p1102
sbatp1103
Rp1104
(dp1105
g12
VNP
p1106
sbag0
(g1
g2
(lp1107
g0
(g1
g2
(lp1108
Vup
p1109
atp1110
Rp1111
(dp1112
g12
VRB
p1113
sbag0
(g1
g2
(lp1114
Vabove
p1115
atp1116
Rp1117
(dp1118
g12
VRB
p1119
sbatp1120
Rp1121
(dp1122
g12
VADVP
p1123
sbag0
(g1
g2
(lp1124
g0
(g1
g2
(lp1125
Vis
p1126
atp1127
Rp1128
(dp1129
g12
VVBZ
p1130
sbag0
(g1
g2
(lp1131
g0
(g1
g2
(lp1132
Vclimbing
p1133
atp1134
Rp1135
(dp1136
g12
VVBG
p1137
sbag0
(g1
g2
(lp1138
g0
(g1
g2
(lp1139
Vup
p1140
atp1141
Rp1142
(dp1143
g12
VRP
p1144
sbatp1145
Rp1146
(dp1147
g12
VPRT
p1148
sbag0
(g1
g2
(lp1149
g0
(g1
g2
(lp1150
Vhigh
p1151
atp1152
Rp1153
(dp1154
g12
VJJ
p1155
sbag0
(g1
g2
(lp1156
Vup
p1157
atp1158
Rp1159
(dp1160
g12
VRB
p1161
sbatp1162
Rp1163
(dp1164
g12
VADVP
p1165
sbatp1166
Rp1167
(dp1168
g12
VVP
p1169
sbatp1170
Rp1171
(dp1172
g12
VVP
p1173
sbatp1174
Rp1175
(dp1176
g12
VS
p1177
sbag0
(g1
g2
(lp1178
V,
p1179
atp1180
Rp1181
(dp1182
g12
V,
p1183
sbag0
(g1
g2
(lp1184
g0
(g1
g2
(lp1185
Vwell
p1186
atp1187
Rp1188
(dp1189
g12
VRB
p1190
sbatp1191
Rp1192
(dp1193
g12
VADVP
p1194
sbag0
(g1
g2
(lp1195
g0
(g1
g2
(lp1196
g0
(g1
g2
(lp1197
VI
p1198
atp1199
Rp1200
(dp1201
g12
VPRP
p1202
sbatp1203
Rp1204
(dp1205
g12
VNP
p1206
sbag0
(g1
g2
(lp1207
g0
(g1
g2
(lp1208
Vca
p1209
atp1210
Rp1211
(dp1212
g12
VMD
p1213
sbag0
(g1
g2
(lp1214
Vn't
p1215
atp1216
Rp1217
(dp1218
g12
VRB
p1219
sbag0
(g1
g2
(lp1220
g0
(g1
g2
(lp1221
Vsay
p1222
atp1223
Rp1224
(dp1225
g12
VVB
p1226
sbag0
(g1
g2
(lp1227
g0
(g1
g2
(lp1228
Vit
p1229
atp1230
Rp1231
(dp1232
g12
VPRP
p1233
sbatp1234
Rp1235
(dp1236
g12
VNP
p1237
sbatp1238
Rp1239
(dp1240
g12
VVP
p1241
sbatp1242
Rp1243
(dp1244
g12
VVP
p1245
sbatp1246
Rp1247
(dp1248
g12
VS
p1249
sbatp1250
Rp1251
(dp1252
g12
VS
p1253
sbag0
(g1
g2
(lp1254
V,
p1255
atp1256
Rp1257
(dp1258
g12
V,
p1259
sbag0
(g1
g2
(lp1260
g0
(g1
g2
(lp1261
Vhe
p1262
atp1263
Rp1264
(dp1265
g12
VPRP
p1266
sbatp1267
Rp1268
(dp1269
g12
VNP
p1270
sbag0
(g1
g2
(lp1271
g0
(g1
g2
(lp1272
V's
p1273
atp1274
Rp1275
(dp1276
g12
VVBZ
p1277
sbag0
(g1
g2
(lp1278
g0
(g1
g2
(lp1279
Vwalking
p1280
atp1281
Rp1282
(dp1283
g12
VVBG
p1284
sbag0
(g1
g2
(lp1285
g0
(g1
g2
(lp1286
Vacross
p1287
atp1288
Rp1289
(dp1290
g12
VIN
p1291
sbag0
(g1
g2
(lp1292
g0
(g1
g2
(lp1293
Vthe
p1294
atp1295
Rp1296
(dp1297
g12
VDT
p1298
sbag0
(g1
g2
(lp1299
Vtop
p1300
atp1301
Rp1302
(dp1303
g12
VNN
p1304
sbatp1305
Rp1306
(dp1307
g12
VNP
p1308
sbatp1309
Rp1310
(dp1311
g12
VPP
p1312
sbatp1313
Rp1314
(dp1315
g12
VVP
p1316
sbatp1317
Rp1318
(dp1319
g12
VVP
p1320
sbag0
(g1
g2
(lp1321
V.
p1322
atp1323
Rp1324
(dp1325
g12
V.
p1326
sbatp1327
Rp1328
(dp1329
g12
VS
p1330
sbatp1331
Rp1332
(dp1333
g12
S'id: 5'
p1334
sbag0
(g1
g2
(lp1335
g0
(g1
g2
(lp1336
g0
(g1
g2
(lp1337
VAnd
p1338
atp1339
Rp1340
(dp1341
g12
VCC
p1342
sbag0
(g1
g2
(lp1343
g0
(g1
g2
(lp1344
Von
p1345
atp1346
Rp1347
(dp1348
g12
VIN
p1349
sbag0
(g1
g2
(lp1350
g0
(g1
g2
(lp1351
Vthe
p1352
atp1353
Rp1354
(dp1355
g12
VDT
p1356
sbag0
(g1
g2
(lp1357
g0
(g1
g2
(lp1358
Vvery
p1359
atp1360
Rp1361
(dp1362
g12
VRB
p1363
sbag0
(g1
g2
(lp1364
Vfar
p1365
atp1366
Rp1367
(dp1368
g12
VRB
p1369
sbag0
(g1
g2
(lp1370
Vright
p1371
atp1372
Rp1373
(dp1374
g12
VJJ
p1375
sbatp1376
Rp1377
(dp1378
g12
VADJP
p1379
sbatp1380
Rp1381
(dp1382
g12
VNP
p1383
sbatp1384
Rp1385
(dp1386
g12
VPP
p1387
sbag0
(g1
g2
(lp1388
g0
(g1
g2
(lp1389
g0
(g1
g2
(lp1390
Vi
p1391
atp1392
Rp1393
(dp1394
g12
VFW
p1395
sbatp1396
Rp1397
(dp1398
g12
VNP
p1399
sbag0
(g1
g2
(lp1400
g0
(g1
g2
(lp1401
Vsee
p1402
atp1403
Rp1404
(dp1405
g12
VVB
p1406
sbag0
(g1
g2
(lp1407
g0
(g1
g2
(lp1408
g0
(g1
g2
(lp1409
Vthe
p1410
atp1411
Rp1412
(dp1413
g12
VDT
p1414
sbag0
(g1
g2
(lp1415
Vlady
p1416
atp1417
Rp1418
(dp1419
g12
VNN
p1420
sbag0
(g1
g2
(lp1421
V's
p1422
atp1423
Rp1424
(dp1425
g12
VPOS
p1426
sbatp1427
Rp1428
(dp1429
g12
VNP
p1430
sbag0
(g1
g2
(lp1431
g0
(g1
g2
(lp1432
Vriding
p1433
atp1434
Rp1435
(dp1436
g12
VVBG
p1437
sbag0
(g1
g2
(lp1438
g0
(g1
g2
(lp1439
Vthe
p1440
atp1441
Rp1442
(dp1443
g12
VDT
p1444
sbag0
(g1
g2
(lp1445
Vhorse
p1446
atp1447
Rp1448
(dp1449
g12
VNN
p1450
sbatp1451
Rp1452
(dp1453
g12
VNP
p1454
sbatp1455
Rp1456
(dp1457
g12
VVP
p1458
sbatp1459
Rp1460
(dp1461
g12
VS
p1462
sbatp1463
Rp1464
(dp1465
g12
VVP
p1466
sbatp1467
Rp1468
(dp1469
g12
VS
p1470
sbag0
(g1
g2
(lp1471
V,
p1472
atp1473
Rp1474
(dp1475
g12
V,
p1476
sbag0
(g1
g2
(lp1477
Vand
p1478
atp1479
Rp1480
(dp1481
g12
VCC
p1482
sbag0
(g1
g2
(lp1483
g0
(g1
g2
(lp1484
g0
(g1
g2
(lp1485
Vthe
p1486
atp1487
Rp1488
(dp1489
g12
VDT
p1490
sbag0
(g1
g2
(lp1491
Vhorse
p1492
atp1493
Rp1494
(dp1495
g12
VNN
p1496
sbatp1497
Rp1498
(dp1499
g12
VNP
p1500
sbag0
(g1
g2
(lp1501
g0
(g1
g2
(lp1502
Vis
p1503
atp1504
Rp1505
(dp1506
g12
VVBZ
p1507
sbag0
(g1
g2
(lp1508
g0
(g1
g2
(lp1509
Vjust
p1510
atp1511
Rp1512
(dp1513
g12
VRB
p1514
sbatp1515
Rp1516
(dp1517
g12
VADVP
p1518
sbag0
(g1
g2
(lp1519
g0
(g1
g2
(lp1520
Vwalking
p1521
atp1522
Rp1523
(dp1524
g12
VVBG
p1525
sbag0
(g1
g2
(lp1526
g0
(g1
g2
(lp1527
Varound
p1528
atp1529
Rp1530
(dp1531
g12
VRB
p1532
sbatp1533
Rp1534
(dp1535
g12
VADVP
p1536
sbatp1537
Rp1538
(dp1539
g12
VVP
p1540
sbatp1541
Rp1542
(dp1543
g12
VVP
p1544
sbatp1545
Rp1546
(dp1547
g12
VS
p1548
sbag0
(g1
g2
(lp1549
V.
p1550
atp1551
Rp1552
(dp1553
g12
V.
p1554
sbatp1555
Rp1556
(dp1557
g12
VS
p1558
sbatp1559
Rp1560
(dp1561
g12
S'id: 6'
p1562
sbag0
(g1
g2
(lp1563
g0
(g1
g2
(lp1564
g0
(g1
g2
(lp1565
VAnd
p1566
atp1567
Rp1568
(dp1569
g12
VCC
p1570
sbag0
(g1
g2
(lp1571
g0
(g1
g2
(lp1572
g0
(g1
g2
(lp1573
Vshe
p1574
atp1575
Rp1576
(dp1577
g12
VPRP
p1578
sbatp1579
Rp1580
(dp1581
g12
VNP
p1582
sbag0
(g1
g2
(lp1583
g0
(g1
g2
(lp1584
V's
p1585
atp1586
Rp1587
(dp1588
g12
VVBZ
p1589
sbag0
(g1
g2
(lp1590
g0
(g1
g2
(lp1591
Vgetting
p1592
atp1593
Rp1594
(dp1595
g12
VVBG
p1596
sbag0
(g1
g2
(lp1597
g0
(g1
g2
(lp1598
Vready
p1599
atp1600
Rp1601
(dp1602
g12
VJJ
p1603
sbag0
(g1
g2
(lp1604
g0
(g1
g2
(lp1605
g0
(g1
g2
(lp1606
Vto
p1607
atp1608
Rp1609
(dp1610
g12
VTO
p1611
sbag0
(g1
g2
(lp1612
g0
(g1
g2
(lp1613
g0
(g1
g2
(lp1614
Vgo
p1615
atp1616
Rp1617
(dp1618
g12
VVB
p1619
sbag0
(g1
g2
(lp1620
g0
(g1
g2
(lp1621
Vupon
p1622
atp1623
Rp1624
(dp1625
g12
VIN
p1626
sbag0
(g1
g2
(lp1627
g0
(g1
g2
(lp1628
Vher
p1629
atp1630
Rp1631
(dp1632
g12
VPRP$
p1633
sbag0
(g1
g2
(lp1634
Vtoes
p1635
atp1636
Rp1637
(dp1638
g12
VNNS
p1639
sbatp1640
Rp1641
(dp1642
g12
VNP
p1643
sbatp1644
Rp1645
(dp1646
g12
VPP
p1647
sbatp1648
Rp1649
(dp1650
g12
VVP
p1651
sbag0
(g1
g2
(lp1652
V,
p1653
atp1654
Rp1655
(dp1656
g12
V,
p1657
sbag0
(g1
g2
(lp1658
Vbut
p1659
atp1660
Rp1661
(dp1662
g12
VCC
p1663
sbag0
(g1
g2
(lp1664
g0
(g1
g2
(lp1665
g0
(g1
g2
(lp1666
Vshe
p1667
atp1668
Rp1669
(dp1670
g12
VPRP
p1671
sbatp1672
Rp1673
(dp1674
g12
VNP
p1675
sbag0
(g1
g2
(lp1676
g0
(g1
g2
(lp1677
Vjust
p1678
atp1679
Rp1680
(dp1681
g12
VRB
p1682
sbatp1683
Rp1684
(dp1685
g12
VADVP
p1686
sbatp1687
Rp1688
(dp1689
g12
VVP
p1690
sbatp1691
Rp1692
(dp1693
g12
VVP
p1694
sbatp1695
Rp1696
(dp1697
g12
VVP
p1698
sbatp1699
Rp1700
(dp1701
g12
VS
p1702
sbatp1703
Rp1704
(dp1705
g12
VADJP
p1706
sbatp1707
Rp1708
(dp1709
g12
VVP
p1710
sbatp1711
Rp1712
(dp1713
g12
VVP
p1714
sbatp1715
Rp1716
(dp1717
g12
VS
p1718
sbag0
(g1
g2
(lp1719
V,
p1720
atp1721
Rp1722
(dp1723
g12
V,
p1724
sbag0
(g1
g2
(lp1725
Vbut
p1726
atp1727
Rp1728
(dp1729
g12
VCC
p1730
sbag0
(g1
g2
(lp1731
g0
(g1
g2
(lp1732
g0
(g1
g2
(lp1733
Vshe
p1734
atp1735
Rp1736
(dp1737
g12
VPRP
p1738
sbatp1739
Rp1740
(dp1741
g12
VNP
p1742
sbag0
(g1
g2
(lp1743
g0
(g1
g2
(lp1744
V's
p1745
atp1746
Rp1747
(dp1748
g12
VVBZ
p1749
sbag0
(g1
g2
(lp1750
g0
(g1
g2
(lp1751
Vjust
p1752
atp1753
Rp1754
(dp1755
g12
VRB
p1756
sbatp1757
Rp1758
(dp1759
g12
VADVP
p1760
sbag0
(g1
g2
(lp1761
g0
(g1
g2
(lp1762
Vsitting
p1763
atp1764
Rp1765
(dp1766
g12
VVBG
p1767
sbag0
(g1
g2
(lp1768
g0
(g1
g2
(lp1769
Vthere
p1770
atp1771
Rp1772
(dp1773
g12
VRB
p1774
sbatp1775
Rp1776
(dp1777
g12
VADVP
p1778
sbatp1779
Rp1780
(dp1781
g12
VVP
p1782
sbatp1783
Rp1784
(dp1785
g12
VVP
p1786
sbatp1787
Rp1788
(dp1789
g12
VS
p1790
sbag0
(g1
g2
(lp1791
V.
p1792
atp1793
Rp1794
(dp1795
g12
V.
p1796
sbatp1797
Rp1798
(dp1799
g12
VS
p1800
sbatp1801
Rp1802
(dp1803
g12
S'id: 7'
p1804
sbag0
(g1
g2
(lp1805
g0
(g1
g2
(lp1806
g0
(g1
g2
(lp1807
g0
(g1
g2
(lp1808
VLet
p1809
atp1810
Rp1811
(dp1812
g12
VVB
p1813
sbag0
(g1
g2
(lp1814
g0
(g1
g2
(lp1815
g0
(g1
g2
(lp1816
V's
p1817
atp1818
Rp1819
(dp1820
g12
VPRP
p1821
sbatp1822
Rp1823
(dp1824
g12
VNP
p1825
sbag0
(g1
g2
(lp1826
g0
(g1
g2
(lp1827
Vsee
p1828
atp1829
Rp1830
(dp1831
g12
VVB
p1832
sbatp1833
Rp1834
(dp1835
g12
VVP
p1836
sbatp1837
Rp1838
(dp1839
g12
VS
p1840
sbatp1841
Rp1842
(dp1843
g12
VVP
p1844
sbag0
(g1
g2
(lp1845
V.
p1846
atp1847
Rp1848
(dp1849
g12
V.
p1850
sbatp1851
Rp1852
(dp1853
g12
VS
p1854
sbatp1855
Rp1856
(dp1857
g12
S'id: 8'
p1858
sbag0
(g1
g2
(lp1859
g0
(g1
g2
(lp1860
g0
(g1
g2
(lp1861
g0
(g1
g2
(lp1862
g0
(g1
g2
(lp1863
g0
(g1
g2
(lp1864
VPardon
p1865
atp1866
Rp1867
(dp1868
g12
VVB
p1869
sbag0
(g1
g2
(lp1870
g0
(g1
g2
(lp1871
Vme
p1872
atp1873
Rp1874
(dp1875
g12
VPRP
p1876
sbatp1877
Rp1878
(dp1879
g12
VNP
p1880
sbatp1881
Rp1882
(dp1883
g12
VVP
p1884
sbatp1885
Rp1886
(dp1887
g12
VS
p1888
sbag0
(g1
g2
(lp1889
V,
p1890
atp1891
Rp1892
(dp1893
g12
V,
p1894
sbag0
(g1
g2
(lp1895
g0
(g1
g2
(lp1896
VI
p1897
atp1898
Rp1899
(dp1900
g12
VPRP
p1901
sbatp1902
Rp1903
(dp1904
g12
VNP
p1905
sbag0
(g1
g2
(lp1906
g0
(g1
g2
(lp1907
Vknow
p1908
atp1909
Rp1910
(dp1911
g12
VVBP
p1912
sbag0
(g1
g2
(lp1913
g0
(g1
g2
(lp1914
g0
(g1
g2
(lp1915
Vwhat
p1916
atp1917
Rp1918
(dp1919
g12
VWP
p1920
sbatp1921
Rp1922
(dp1923
g12
VWHNP
p1924
sbag0
(g1
g2
(lp1925
g0
(g1
g2
(lp1926
g0
(g1
g2
(lp1927
Vit
p1928
atp1929
Rp1930
(dp1931
g12
VPRP
p1932
sbatp1933
Rp1934
(dp1935
g12
VNP
p1936
sbag0
(g1
g2
(lp1937
g0
(g1
g2
(lp1938
Vis
p1939
atp1940
Rp1941
(dp1942
g12
VVBZ
p1943
sbatp1944
Rp1945
(dp1946
g12
VVP
p1947
sbatp1948
Rp1949
(dp1950
g12
VS
p1951
sbatp1952
Rp1953
(dp1954
g12
VSBAR
p1955
sbatp1956
Rp1957
(dp1958
g12
VVP
p1959
sbatp1960
Rp1961
(dp1962
g12
VS
p1963
sbag0
(g1
g2
(lp1964
V,
p1965
atp1966
Rp1967
(dp1968
g12
V,
p1969
sbag0
(g1
g2
(lp1970
Vbut
p1971
atp1972
Rp1973
(dp1974
g12
VCC
p1975
sbag0
(g1
g2
(lp1976
g0
(g1
g2
(lp1977
g0
(g1
g2
(lp1978
VI
p1979
atp1980
Rp1981
(dp1982
g12
VPRP
p1983
sbatp1984
Rp1985
(dp1986
g12
VNP
p1987
sbag0
(g1
g2
(lp1988
g0
(g1
g2
(lp1989
Vcant
p1990
atp1991
Rp1992
(dp1993
g12
VVBP
p1994
sbag0
(g1
g2
(lp1995
g0
(g1
g2
(lp1996
Vsay
p1997
atp1998
Rp1999
(dp2000
g12
VVB
p2001
sbag0
(g1
g2
(lp2002
g0
(g1
g2
(lp2003
Vtheir
p2004
atp2005
Rp2006
(dp2007
g12
VPRP$
p2008
sbag0
(g1
g2
(lp2009
Vnames
p2010
atp2011
Rp2012
(dp2013
g12
VNNS
p2014
sbatp2015
Rp2016
(dp2017
g12
VNP
p2018
sbatp2019
Rp2020
(dp2021
g12
VVP
p2022
sbatp2023
Rp2024
(dp2025
g12
VVP
p2026
sbatp2027
Rp2028
(dp2029
g12
VS
p2030
sbag0
(g1
g2
(lp2031
V.
p2032
atp2033
Rp2034
(dp2035
g12
V.
p2036
sbatp2037
Rp2038
(dp2039
g12
VS
p2040
sbatp2041
Rp2042
(dp2043
g12
S'id: 9'
p2044
sbag0
(g1
g2
(lp2045
g0
(g1
g2
(lp2046
g0
(g1
g2
(lp2047
g0
(g1
g2
(lp2048
g0
(g1
g2
(lp2049
g0
(g1
g2
(lp2050
VOnly
p2051
atp2052
Rp2053
(dp2054
g12
VRB
p2055
sbag0
(g1
g2
(lp2056
Vthing
p2057
atp2058
Rp2059
(dp2060
g12
VNN
p2061
sbatp2062
Rp2063
(dp2064
g12
VNP
p2065
sbag0
(g1
g2
(lp2066
g0
(g1
g2
(lp2067
g0
(g1
g2
(lp2068
g0
(g1
g2
(lp2069
Vi
p2070
atp2071
Rp2072
(dp2073
g12
VFW
p2074
sbatp2075
Rp2076
(dp2077
g12
VNP
p2078
sbag0
(g1
g2
(lp2079
g0
(g1
g2
(lp2080
Vreally
p2081
atp2082
Rp2083
(dp2084
g12
VRB
p2085
sbatp2086
Rp2087
(dp2088
g12
VADVP
p2089
sbag0
(g1
g2
(lp2090
g0
(g1
g2
(lp2091
Vsay
p2092
atp2093
Rp2094
(dp2095
g12
VVB
p2096
sbatp2097
Rp2098
(dp2099
g12
VVP
p2100
sbatp2101
Rp2102
(dp2103
g12
VS
p2104
sbatp2105
Rp2106
(dp2107
g12
VSBAR
p2108
sbatp2109
Rp2110
(dp2111
g12
VNP
p2112
sbag0
(g1
g2
(lp2113
g0
(g1
g2
(lp2114
Vis
p2115
atp2116
Rp2117
(dp2118
g12
VVBZ
p2119
sbag0
(g1
g2
(lp2120
g0
(g1
g2
(lp2121
Vthe
p2122
atp2123
Rp2124
(dp2125
g12
VDT
p2126
sbag0
(g1
g2
(lp2127
Vhorse
p2128
atp2129
Rp2130
(dp2131
g12
VNN
p2132
sbatp2133
Rp2134
(dp2135
g12
VNP
p2136
sbatp2137
Rp2138
(dp2139
g12
VVP
p2140
sbatp2141
Rp2142
(dp2143
g12
VS
p2144
sbag0
(g1
g2
(lp2145
V,
p2146
atp2147
Rp2148
(dp2149
g12
V,
p2150
sbag0
(g1
g2
(lp2151
g0
(g1
g2
(lp2152
VI
p2153
atp2154
Rp2155
(dp2156
g12
VPRP
p2157
sbatp2158
Rp2159
(dp2160
g12
VNP
p2161
sbag0
(g1
g2
(lp2162
g0
(g1
g2
(lp2163
Vcant
p2164
atp2165
Rp2166
(dp2167
g12
VVBP
p2168
sbag0
(g1
g2
(lp2169
g0
(g1
g2
(lp2170
Vsay
p2171
atp2172
Rp2173
(dp2174
g12
VVB
p2175
sbag0
(g1
g2
(lp2176
g0
(g1
g2
(lp2177
Vhorse
p2178
atp2179
Rp2180
(dp2181
g12
VNN
p2182
sbatp2183
Rp2184
(dp2185
g12
VNP
p2186
sbatp2187
Rp2188
(dp2189
g12
VVP
p2190
sbatp2191
Rp2192
(dp2193
g12
VVP
p2194
sbag0
(g1
g2
(lp2195
V.
p2196
atp2197
Rp2198
(dp2199
g12
V.
p2200
sbatp2201
Rp2202
(dp2203
g12
VS
p2204
sbatp2205
Rp2206
(dp2207
g12
S'id: 10'
p2208
sbatp2209
Rp2210
(dp2211
g12
S'sentences'
p2212
sb.