ccopy_reg
_reconstructor
p0
(cnltk.tree
Tree
p1
c__builtin__
list
p2
(lp3
g0
(g1
g2
(lp4
g0
(g1
g2
(lp5
g0
(g1
g2
(lp6
Vok .
p7
atp8
Rp9
(dp10
S'_label'
p11
S'start: 1'
p12
sbatp13
Rp14
(dp15
g11
S'sent: 1'
p16
sbag0
(g1
g2
(lp17
g0
(g1
g2
(lp18
VOk .
p19
atp20
Rp21
(dp22
g11
S'start: 1'
p23
sbatp24
Rp25
(dp26
g11
S'sent: 7'
p27
sbatp28
Rp29
(dp30
g11
S'id: 1'
p31
sbag0
(g1
g2
(lp32
g0
(g1
g2
(lp33
g0
(g1
g2
(lp34
Va kite
p35
atp36
Rp37
(dp38
g11
S'start: 5'
p39
sbatp40
Rp41
(dp42
g11
S'sent: 4'
p43
sbag0
(g1
g2
(lp44
g0
(g1
g2
(lp45
Vthe kite
p46
atp47
Rp48
(dp49
g11
S'start: 13'
p50
sbatp51
Rp52
(dp53
g11
S'sent: 5'
p54
sbatp55
Rp56
(dp57
g11
S'id: 9'
p58
sbag0
(g1
g2
(lp59
g0
(g1
g2
(lp60
g0
(g1
g2
(lp61
Va dog running with the guy flying the kite
p62
atp63
Rp64
(dp65
g11
S'start: 6'
p66
sbatp67
Rp68
(dp69
g11
S'sent: 5'
p70
sbag0
(g1
g2
(lp71
g0
(g1
g2
(lp72
Vshe
p73
atp74
Rp75
(dp76
g11
S'start: 6'
p77
sbatp78
Rp79
(dp80
g11
S'sent: 6'
p81
sbatp82
Rp83
(dp84
g11
S'id: 11'
p85
sbag0
(g1
g2
(lp86
g0
(g1
g2
(lp87
g0
(g1
g2
(lp88
Vthe guy flying the kite
p89
atp90
Rp91
(dp92
g11
S'start: 10'
p93
sbatp94
Rp95
(dp96
g11
S'sent: 5'
p97
sbag0
(g1
g2
(lp98
g0
(g1
g2
(lp99
VGuy
p100
atp101
Rp102
(dp103
g11
S'start: 1'
p104
sbatp105
Rp106
(dp107
g11
S'sent: 9'
p108
sbatp109
Rp110
(dp111
g11
S'id: 12'
p112
sbag0
(g1
g2
(lp113
g0
(g1
g2
(lp114
g0
(g1
g2
(lp115
VI
p116
atp117
Rp118
(dp119
g11
S'start: 1'
p120
sbatp121
Rp122
(dp123
g11
S'sent: 6'
p124
sbag0
(g1
g2
(lp125
g0
(g1
g2
(lp126
VI can , a sailboat
p127
atp128
Rp129
(dp130
g11
S'start: 1'
p131
sbatp132
Rp133
(dp134
g11
S'sent: 8'
p135
sbag0
(g1
g2
(lp136
g0
(g1
g2
(lp137
VI can
p138
atp139
Rp140
(dp141
g11
S'start: 1'
p142
sbatp143
Rp144
(dp145
g11
S'sent: 8'
p146
sbag0
(g1
g2
(lp147
g0
(g1
g2
(lp148
VI
p149
atp150
Rp151
(dp152
g11
S'start: 1'
p153
sbatp154
Rp155
(dp156
g11
S'sent: 15'
p157
sbatp158
Rp159
(dp160
g11
S'id: 14'
p161
sbag0
(g1
g2
(lp162
g0
(g1
g2
(lp163
g0
(g1
g2
(lp164
VThey
p165
atp166
Rp167
(dp168
g11
S'start: 1'
p169
sbatp170
Rp171
(dp172
g11
S'sent: 10'
p173
sbag0
(g1
g2
(lp174
g0
(g1
g2
(lp175
Vtheir
p176
atp177
Rp178
(dp179
g11
S'start: 6'
p180
sbatp181
Rp182
(dp183
g11
S'sent: 10'
p184
sbatp185
Rp186
(dp187
g11
S'id: 23'
p188
sbag0
(g1
g2
(lp189
g0
(g1
g2
(lp190
g0
(g1
g2
(lp191
Vthe
p192
atp193
Rp194
(dp195
g11
S'start: 4'
p196
sbatp197
Rp198
(dp199
g11
S'sent: 12'
p200
sbag0
(g1
g2
(lp201
g0
(g1
g2
(lp202
Va radio
p203
atp204
Rp205
(dp206
g11
S'start: 14'
p207
sbatp208
Rp209
(dp210
g11
S'sent: 12'
p211
sbatp212
Rp213
(dp214
g11
S'id: 31'
p215
sbag0
(g1
g2
(lp216
g0
(g1
g2
(lp217
g0
(g1
g2
(lp218
VHe
p219
atp220
Rp221
(dp222
g11
S'start: 1'
p223
sbatp224
Rp225
(dp226
g11
S'sent: 13'
p227
sbag0
(g1
g2
(lp228
g0
(g1
g2
(lp229
Vhe
p230
atp231
Rp232
(dp233
g11
S'start: 10'
p234
sbatp235
Rp236
(dp237
g11
S'sent: 13'
p238
sbatp239
Rp240
(dp241
g11
S'id: 34'
p242
sbatp243
Rp244
(dp245
g11
S'coreferences'
p246
sb.