ccopy_reg
_reconstructor
p0
(cnltk.tree
Tree
p1
c__builtin__
list
p2
(lp3
g0
(g1
g2
(lp4
g0
(g1
g2
(lp5
g0
(g1
g2
(lp6
Vok
p7
atp8
Rp9
(dp10
S'_label'
p11
VNN
p12
sbag0
(g1
g2
(lp13
V.
p14
atp15
Rp16
(dp17
g11
V.
p18
sbatp19
Rp20
(dp21
g11
VNP
p22
sbatp23
Rp24
(dp25
g11
S'id: 0'
p26
sbag0
(g1
g2
(lp27
g0
(g1
g2
(lp28
g0
(g1
g2
(lp29
g0
(g1
g2
(lp30
g0
(g1
g2
(lp31
VThe
p32
atp33
Rp34
(dp35
g11
VDT
p36
sbag0
(g1
g2
(lp37
g0
(g1
g2
(lp38
V,
p39
atp40
Rp41
(dp42
g11
V,
p43
sbag0
(g1
g2
(lp44
g0
(g1
g2
(lp45
g0
(g1
g2
(lp46
Vthe
p47
atp48
Rp49
(dp50
g11
VDT
p51
sbag0
(g1
g2
(lp52
Vfathers
p53
atp54
Rp55
(dp56
g11
VNNS
p57
sbatp58
Rp59
(dp60
g11
VNP
p61
sbag0
(g1
g2
(lp62
V,
p63
atp64
Rp65
(dp66
g11
V,
p67
sbag0
(g1
g2
(lp68
g0
(g1
g2
(lp69
Vthe
p70
atp71
Rp72
(dp73
g11
VDT
p74
sbatp75
Rp76
(dp77
g11
VNP
p78
sbag0
(g1
g2
(lp79
V,
p80
atp81
Rp82
(dp83
g11
V,
p84
sbag0
(g1
g2
(lp85
g0
(g1
g2
(lp86
Vhe
p87
atp88
Rp89
(dp90
g11
VPRP
p91
sbatp92
Rp93
(dp94
g11
VNP
p95
sbag0
(g1
g2
(lp96
V,
p97
atp98
Rp99
(dp100
g11
V,
p101
sbag0
(g1
g2
(lp102
g0
(g1
g2
(lp103
Vhe
p104
atp105
Rp106
(dp107
g11
VPRP
p108
sbatp109
Rp110
(dp111
g11
VNP
p112
sbatp113
Rp114
(dp115
g11
VNP
p116
sbag0
(g1
g2
(lp117
V,
p118
atp119
Rp120
(dp121
g11
V,
p122
sbatp123
Rp124
(dp125
g11
VPRN
p126
sbag0
(g1
g2
(lp127
Vs
p128
atp129
Rp130
(dp131
g11
VNNS
p132
sbatp133
Rp134
(dp135
g11
VNP
p136
sbag0
(g1
g2
(lp137
g0
(g1
g2
(lp138
Vreading
p139
atp140
Rp141
(dp142
g11
VVBG
p143
sbag0
(g1
g2
(lp144
g0
(g1
g2
(lp145
Vto
p146
atp147
Rp148
(dp149
g11
VTO
p150
sbatp151
Rp152
(dp153
g11
VPP
p154
sbag0
(g1
g2
(lp155
V,
p156
atp157
Rp158
(dp159
g11
V,
p160
sbag0
(g1
g2
(lp161
g0
(g1
g2
(lp162
Vto
p163
atp164
Rp165
(dp166
g11
VTO
p167
sbag0
(g1
g2
(lp168
g0
(g1
g2
(lp169
g0
(g1
g2
(lp170
Vthe
p171
atp172
Rp173
(dp174
g11
VDT
p175
sbatp176
Rp177
(dp178
g11
VNP
p179
sbag0
(g1
g2
(lp180
g0
(g1
g2
(lp181
Vto
p182
atp183
Rp184
(dp185
g11
VTO
p186
sbag0
(g1
g2
(lp187
g0
(g1
g2
(lp188
Vthe
p189
atp190
Rp191
(dp192
g11
VDT
p193
sbag0
(g1
g2
(lp194
Vchildren
p195
atp196
Rp197
(dp198
g11
VNNS
p199
sbatp200
Rp201
(dp202
g11
VNP
p203
sbatp204
Rp205
(dp206
g11
VPP
p207
sbatp208
Rp209
(dp210
g11
VNP
p211
sbatp212
Rp213
(dp214
g11
VPP
p215
sbatp216
Rp217
(dp218
g11
VVP
p219
sbatp220
Rp221
(dp222
g11
VS
p223
sbag0
(g1
g2
(lp224
V,
p225
atp226
Rp227
(dp228
g11
V,
p229
sbag0
(g1
g2
(lp230
g0
(g1
g2
(lp231
Vno
p232
atp233
Rp234
(dp235
g11
VDT
p236
sbag0
(g1
g2
(lp237
Vhe
p238
atp239
Rp240
(dp241
g11
VPRP
p242
sbatp243
Rp244
(dp245
g11
VNP
p246
sbag0
(g1
g2
(lp247
g0
(g1
g2
(lp248
V's
p249
atp250
Rp251
(dp252
g11
VVBZ
p253
sbag0
(g1
g2
(lp254
g0
(g1
g2
(lp255
Vreading
p256
atp257
Rp258
(dp259
g11
VVBG
p260
sbag0
(g1
g2
(lp261
g0
(g1
g2
(lp262
Va
p263
atp264
Rp265
(dp266
g11
VDT
p267
sbag0
(g1
g2
(lp268
Vbook
p269
atp270
Rp271
(dp272
g11
VNN
p273
sbatp274
Rp275
(dp276
g11
VNP
p277
sbatp278
Rp279
(dp280
g11
VVP
p281
sbatp282
Rp283
(dp284
g11
VVP
p285
sbag0
(g1
g2
(lp286
V.
p287
atp288
Rp289
(dp290
g11
V.
p291
sbatp292
Rp293
(dp294
g11
VS
p295
sbatp296
Rp297
(dp298
g11
S'id: 1'
p299
sbag0
(g1
g2
(lp300
g0
(g1
g2
(lp301
g0
(g1
g2
(lp302
VAnd
p303
atp304
Rp305
(dp306
g11
VCC
p307
sbag0
(g1
g2
(lp308
V,
p309
atp310
Rp311
(dp312
g11
V,
p313
sbag0
(g1
g2
(lp314
g0
(g1
g2
(lp315
Vthe
p316
atp317
Rp318
(dp319
g11
VDT
p320
sbag0
(g1
g2
(lp321
Vleaves
p322
atp323
Rp324
(dp325
g11
VNNS
p326
sbatp327
Rp328
(dp329
g11
VNP
p330
sbag0
(g1
g2
(lp331
V,
p332
atp333
Rp334
(dp335
g11
V,
p336
sbag0
(g1
g2
(lp337
g0
(g1
g2
(lp338
g0
(g1
g2
(lp339
Vthe
p340
atp341
Rp342
(dp343
g11
VDT
p344
sbag0
(g1
g2
(lp345
Vleaves
p346
atp347
Rp348
(dp349
g11
VNNS
p350
sbatp351
Rp352
(dp353
g11
VNP
p354
sbag0
(g1
g2
(lp355
Von
p356
atp357
Rp358
(dp359
g11
VIN
p360
sbatp361
Rp362
(dp363
g11
VPP
p364
sbag0
(g1
g2
(lp365
V,
p366
atp367
Rp368
(dp369
g11
V,
p370
sbag0
(g1
g2
(lp371
g0
(g1
g2
(lp372
Vthe
p373
atp374
Rp375
(dp376
g11
VDT
p377
sbag0
(g1
g2
(lp378
Vleaves
p379
atp380
Rp381
(dp382
g11
VNNS
p383
sbatp384
Rp385
(dp386
g11
VNP
p387
sbag0
(g1
g2
(lp388
g0
(g1
g2
(lp389
Vare
p390
atp391
Rp392
(dp393
g11
VVBP
p394
sbag0
(g1
g2
(lp395
g0
(g1
g2
(lp396
Von
p397
atp398
Rp399
(dp400
g11
VIN
p401
sbag0
(g1
g2
(lp402
g0
(g1
g2
(lp403
g0
(g1
g2
(lp404
Vthe
p405
atp406
Rp407
(dp408
g11
VDT
p409
sbatp410
Rp411
(dp412
g11
VNP
p413
sbag0
(g1
g2
(lp414
V,
p415
atp416
Rp417
(dp418
g11
V,
p419
sbag0
(g1
g2
(lp420
g0
(g1
g2
(lp421
Vare
p422
atp423
Rp424
(dp425
g11
VVBP
p426
sbatp427
Rp428
(dp429
g11
VVP
p430
sbatp431
Rp432
(dp433
g11
VNP
p434
sbatp435
Rp436
(dp437
g11
VPP
p438
sbag0
(g1
g2
(lp439
V,
p440
atp441
Rp442
(dp443
g11
V,
p444
sbag0
(g1
g2
(lp445
g0
(g1
g2
(lp446
Vo
p447
atp448
Rp449
(dp450
g11
VNN
p451
sbag0
(g1
g2
(lp452
Vgosh
p453
atp454
Rp455
(dp456
g11
VNN
p457
sbatp458
Rp459
(dp460
g11
VNP
p461
sbatp462
Rp463
(dp464
g11
VVP
p465
sbag0
(g1
g2
(lp466
V.
p467
atp468
Rp469
(dp470
g11
V.
p471
sbatp472
Rp473
(dp474
g11
VS
p475
sbatp476
Rp477
(dp478
g11
S'id: 2'
p479
sbag0
(g1
g2
(lp480
g0
(g1
g2
(lp481
g0
(g1
g2
(lp482
g0
(g1
g2
(lp483
g0
(g1
g2
(lp484
VHe
p485
atp486
Rp487
(dp488
g11
VPRP
p489
sbatp490
Rp491
(dp492
g11
VNP
p493
sbag0
(g1
g2
(lp494
g0
(g1
g2
(lp495
Vhas
p496
atp497
Rp498
(dp499
g11
VVBZ
p500
sbag0
(g1
g2
(lp501
g0
(g1
g2
(lp502
g0
(g1
g2
(lp503
Vsandals
p504
atp505
Rp506
(dp507
g11
VNNS
p508
sbatp509
Rp510
(dp511
g11
VNP
p512
sbag0
(g1
g2
(lp513
g0
(g1
g2
(lp514
Von
p515
atp516
Rp517
(dp518
g11
VIN
p519
sbag0
(g1
g2
(lp520
g0
(g1
g2
(lp521
Vhis
p522
atp523
Rp524
(dp525
g11
VPRP$
p526
sbag0
(g1
g2
(lp527
Vfeet
p528
atp529
Rp530
(dp531
g11
VNNS
p532
sbatp533
Rp534
(dp535
g11
VNP
p536
sbatp537
Rp538
(dp539
g11
VPP
p540
sbatp541
Rp542
(dp543
g11
VNP
p544
sbatp545
Rp546
(dp547
g11
VVP
p548
sbatp549
Rp550
(dp551
g11
VS
p552
sbag0
(g1
g2
(lp553
V,
p554
atp555
Rp556
(dp557
g11
V,
p558
sbag0
(g1
g2
(lp559
g0
(g1
g2
(lp560
g0
(g1
g2
(lp561
Vno
p562
atp563
Rp564
(dp565
g11
VDT
p566
sbatp567
Rp568
(dp569
g11
VNP
p570
sbag0
(g1
g2
(lp571
V,
p572
atp573
Rp574
(dp575
g11
V,
p576
sbag0
(g1
g2
(lp577
g0
(g1
g2
(lp578
Vit
p579
atp580
Rp581
(dp582
g11
VPRP
p583
sbatp584
Rp585
(dp586
g11
VNP
p587
sbatp588
Rp589
(dp590
g11
VS
p591
sbag0
(g1
g2
(lp592
V,
p593
atp594
Rp595
(dp596
g11
V,
p597
sbag0
(g1
g2
(lp598
g0
(g1
g2
(lp599
g0
(g1
g2
(lp600
Vthey
p601
atp602
Rp603
(dp604
g11
VPRP
p605
sbatp606
Rp607
(dp608
g11
VNP
p609
sbag0
(g1
g2
(lp610
g0
(g1
g2
(lp611
Vcame
p612
atp613
Rp614
(dp615
g11
VVBD
p616
sbag0
(g1
g2
(lp617
g0
(g1
g2
(lp618
Voff
p619
atp620
Rp621
(dp622
g11
VRP
p623
sbatp624
Rp625
(dp626
g11
VPRT
p627
sbag0
(g1
g2
(lp628
g0
(g1
g2
(lp629
Vhis
p630
atp631
Rp632
(dp633
g11
VPRP$
p634
sbag0
(g1
g2
(lp635
Vfeet
p636
atp637
Rp638
(dp639
g11
VNNS
p640
sbatp641
Rp642
(dp643
g11
VNP
p644
sbatp645
Rp646
(dp647
g11
VVP
p648
sbatp649
Rp650
(dp651
g11
VS
p652
sbag0
(g1
g2
(lp653
V.
p654
atp655
Rp656
(dp657
g11
V.
p658
sbatp659
Rp660
(dp661
g11
VS
p662
sbatp663
Rp664
(dp665
g11
S'id: 3'
p666
sbag0
(g1
g2
(lp667
g0
(g1
g2
(lp668
g0
(g1
g2
(lp669
VAnd
p670
atp671
Rp672
(dp673
g11
VCC
p674
sbag0
(g1
g2
(lp675
g0
(g1
g2
(lp676
Vshe
p677
atp678
Rp679
(dp680
g11
VPRP
p681
sbatp682
Rp683
(dp684
g11
VNP
p685
sbag0
(g1
g2
(lp686
g0
(g1
g2
(lp687
V's
p688
atp689
Rp690
(dp691
g11
VVBZ
p692
sbag0
(g1
g2
(lp693
g0
(g1
g2
(lp694
Vgot
p695
atp696
Rp697
(dp698
g11
VVBD
p699
sbag0
(g1
g2
(lp700
g0
(g1
g2
(lp701
Va
p702
atp703
Rp704
(dp705
g11
VDT
p706
sbag0
(g1
g2
(lp707
Vpicnic
p708
atp709
Rp710
(dp711
g11
VNN
p712
sbag0
(g1
g2
(lp713
Vbasket
p714
atp715
Rp716
(dp717
g11
VNN
p718
sbatp719
Rp720
(dp721
g11
VNP
p722
sbatp723
Rp724
(dp725
g11
VVP
p726
sbatp727
Rp728
(dp729
g11
VVP
p730
sbag0
(g1
g2
(lp731
V.
p732
atp733
Rp734
(dp735
g11
V.
p736
sbatp737
Rp738
(dp739
g11
VS
p740
sbatp741
Rp742
(dp743
g11
S'id: 4'
p744
sbag0
(g1
g2
(lp745
g0
(g1
g2
(lp746
g0
(g1
g2
(lp747
VAnd
p748
atp749
Rp750
(dp751
g11
VCC
p752
sbag0
(g1
g2
(lp753
g0
(g1
g2
(lp754
Vthe
p755
atp756
Rp757
(dp758
g11
VDT
p759
sbag0
(g1
g2
(lp760
Vradio
p761
atp762
Rp763
(dp764
g11
VNN
p765
sbatp766
Rp767
(dp768
g11
VNP
p769
sbag0
(g1
g2
(lp770
g0
(g1
g2
(lp771
Vis
p772
atp773
Rp774
(dp775
g11
VVBZ
p776
sbag0
(g1
g2
(lp777
V,
p778
atp779
Rp780
(dp781
g11
V,
p782
sbag0
(g1
g2
(lp783
g0
(g1
g2
(lp784
g0
(g1
g2
(lp785
g0
(g1
g2
(lp786
Vis
p787
atp788
Rp789
(dp790
g11
VVBZ
p791
sbag0
(g1
g2
(lp792
g0
(g1
g2
(lp793
Vplaying
p794
atp795
Rp796
(dp797
g11
VVBG
p798
sbatp799
Rp800
(dp801
g11
VVP
p802
sbatp803
Rp804
(dp805
g11
VVP
p806
sbatp807
Rp808
(dp809
g11
VS
p810
sbatp811
Rp812
(dp813
g11
VSBAR
p814
sbatp815
Rp816
(dp817
g11
VVP
p818
sbag0
(g1
g2
(lp819
V.
p820
atp821
Rp822
(dp823
g11
V.
p824
sbatp825
Rp826
(dp827
g11
VS
p828
sbatp829
Rp830
(dp831
g11
S'id: 5'
p832
sbag0
(g1
g2
(lp833
g0
(g1
g2
(lp834
g0
(g1
g2
(lp835
g0
(g1
g2
(lp836
VAnd
p837
atp838
Rp839
(dp840
g11
VCC
p841
sbag0
(g1
g2
(lp842
g0
(g1
g2
(lp843
Vhe
p844
atp845
Rp846
(dp847
g11
VPRP
p848
sbatp849
Rp850
(dp851
g11
VNP
p852
sbag0
(g1
g2
(lp853
g0
(g1
g2
(lp854
V's
p855
atp856
Rp857
(dp858
g11
VVBZ
p859
sbag0
(g1
g2
(lp860
g0
(g1
g2
(lp861
Vflying
p862
atp863
Rp864
(dp865
g11
VVBG
p866
sbag0
(g1
g2
(lp867
g0
(g1
g2
(lp868
Va
p869
atp870
Rp871
(dp872
g11
VDT
p873
sbag0
(g1
g2
(lp874
Vkite
p875
atp876
Rp877
(dp878
g11
VNN
p879
sbatp880
Rp881
(dp882
g11
VNP
p883
sbatp884
Rp885
(dp886
g11
VVP
p887
sbatp888
Rp889
(dp890
g11
VVP
p891
sbatp892
Rp893
(dp894
g11
VS
p895
sbag0
(g1
g2
(lp896
V,
p897
atp898
Rp899
(dp900
g11
V,
p901
sbag0
(g1
g2
(lp902
g0
(g1
g2
(lp903
Vthe
p904
atp905
Rp906
(dp907
g11
VDT
p908
sbag0
(g1
g2
(lp909
Vdog
p910
atp911
Rp912
(dp913
g11
VNN
p914
sbatp915
Rp916
(dp917
g11
VNP
p918
sbag0
(g1
g2
(lp919
g0
(g1
g2
(lp920
Vis
p921
atp922
Rp923
(dp924
g11
VVBZ
p925
sbag0
(g1
g2
(lp926
g0
(g1
g2
(lp927
Vfollowing
p928
atp929
Rp930
(dp931
g11
VVBG
p932
sbag0
(g1
g2
(lp933
g0
(g1
g2
(lp934
Vhim
p935
atp936
Rp937
(dp938
g11
VPRP
p939
sbatp940
Rp941
(dp942
g11
VNP
p943
sbatp944
Rp945
(dp946
g11
VVP
p947
sbatp948
Rp949
(dp950
g11
VVP
p951
sbag0
(g1
g2
(lp952
V.
p953
atp954
Rp955
(dp956
g11
V.
p957
sbatp958
Rp959
(dp960
g11
VS
p961
sbatp962
Rp963
(dp964
g11
S'id: 6'
p965
sbag0
(g1
g2
(lp966
g0
(g1
g2
(lp967
g0
(g1
g2
(lp968
g0
(g1
g2
(lp969
VThe
p970
atp971
Rp972
(dp973
g11
VDT
p974
sbag0
(g1
g2
(lp975
Vfisherman
p976
atp977
Rp978
(dp979
g11
VNN
p980
sbatp981
Rp982
(dp983
g11
VNP
p984
sbag0
(g1
g2
(lp985
g0
(g1
g2
(lp986
Vcaught
p987
atp988
Rp989
(dp990
g11
VVBD
p991
sbag0
(g1
g2
(lp992
g0
(g1
g2
(lp993
Va
p994
atp995
Rp996
(dp997
g11
VDT
p998
sbag0
(g1
g2
(lp999
Vfish
p1000
atp1001
Rp1002
(dp1003
g11
VNN
p1004
sbatp1005
Rp1006
(dp1007
g11
VNP
p1008
sbatp1009
Rp1010
(dp1011
g11
VVP
p1012
sbag0
(g1
g2
(lp1013
V.
p1014
atp1015
Rp1016
(dp1017
g11
V.
p1018
sbatp1019
Rp1020
(dp1021
g11
VS
p1022
sbatp1023
Rp1024
(dp1025
g11
S'id: 7'
p1026
sbag0
(g1
g2
(lp1027
g0
(g1
g2
(lp1028
g0
(g1
g2
(lp1029
g0
(g1
g2
(lp1030
VAnd
p1031
atp1032
Rp1033
(dp1034
g11
VCC
p1035
sbatp1036
Rp1037
(dp1038
g11
VVP
p1039
sbag0
(g1
g2
(lp1040
V.
p1041
atp1042
Rp1043
(dp1044
g11
V.
p1045
sbatp1046
Rp1047
(dp1048
g11
VS
p1049
sbatp1050
Rp1051
(dp1052
g11
S'id: 8'
p1053
sbag0
(g1
g2
(lp1054
g0
(g1
g2
(lp1055
g0
(g1
g2
(lp1056
g0
(g1
g2
(lp1057
VThere
p1058
atp1059
Rp1060
(dp1061
g11
VRB
p1062
sbatp1063
Rp1064
(dp1065
g11
VADVP
p1066
sbag0
(g1
g2
(lp1067
V,
p1068
atp1069
Rp1070
(dp1071
g11
V,
p1072
sbag0
(g1
g2
(lp1073
g0
(g1
g2
(lp1074
Vthere
p1075
atp1076
Rp1077
(dp1078
g11
VEX
p1079
sbatp1080
Rp1081
(dp1082
g11
VNP
p1083
sbag0
(g1
g2
(lp1084
g0
(g1
g2
(lp1085
Vin
p1086
atp1087
Rp1088
(dp1089
g11
VIN
p1090
sbag0
(g1
g2
(lp1091
g0
(g1
g2
(lp1092
g0
(g1
g2
(lp1093
Va
p1094
atp1095
Rp1096
(dp1097
g11
VDT
p1098
sbatp1099
Rp1100
(dp1101
g11
VNP
p1102
sbag0
(g1
g2
(lp1103
V,
p1104
atp1105
Rp1106
(dp1107
g11
V,
p1108
sbag0
(g1
g2
(lp1109
g0
(g1
g2
(lp1110
Vno
p1111
atp1112
Rp1113
(dp1114
g11
VDT
p1115
sbag0
(g1
g2
(lp1116
Vthey
p1117
atp1118
Rp1119
(dp1120
g11
VPRP
p1121
sbatp1122
Rp1123
(dp1124
g11
VNP
p1125
sbatp1126
Rp1127
(dp1128
g11
VNP
p1129
sbatp1130
Rp1131
(dp1132
g11
VPP
p1133
sbag0
(g1
g2
(lp1134
g0
(g1
g2
(lp1135
V're
p1136
atp1137
Rp1138
(dp1139
g11
VVBP
p1140
sbag0
(g1
g2
(lp1141
Vnot
p1142
atp1143
Rp1144
(dp1145
g11
VRB
p1146
sbag0
(g1
g2
(lp1147
g0
(g1
g2
(lp1148
Vin
p1149
atp1150
Rp1151
(dp1152
g11
VIN
p1153
sbag0
(g1
g2
(lp1154
g0
(g1
g2
(lp1155
Vthe
p1156
atp1157
Rp1158
(dp1159
g11
VDT
p1160
sbag0
(g1
g2
(lp1161
Vtree
p1162
atp1163
Rp1164
(dp1165
g11
VNN
p1166
sbatp1167
Rp1168
(dp1169
g11
VNP
p1170
sbatp1171
Rp1172
(dp1173
g11
VPP
p1174
sbatp1175
Rp1176
(dp1177
g11
VVP
p1178
sbag0
(g1
g2
(lp1179
V.
p1180
atp1181
Rp1182
(dp1183
g11
V.
p1184
sbatp1185
Rp1186
(dp1187
g11
VS
p1188
sbatp1189
Rp1190
(dp1191
g11
S'id: 9'
p1192
sbag0
(g1
g2
(lp1193
g0
(g1
g2
(lp1194
g0
(g1
g2
(lp1195
g0
(g1
g2
(lp1196
g0
(g1
g2
(lp1197
VFlags
p1198
atp1199
Rp1200
(dp1201
g11
VNNS
p1202
sbatp1203
Rp1204
(dp1205
g11
VNP
p1206
sbag0
(g1
g2
(lp1207
g0
(g1
g2
(lp1208
Vflying
p1209
atp1210
Rp1211
(dp1212
g11
VVBG
p1213
sbatp1214
Rp1215
(dp1216
g11
VVP
p1217
sbatp1218
Rp1219
(dp1220
g11
VNP
p1221
sbag0
(g1
g2
(lp1222
g0
(g1
g2
(lp1223
V,
p1224
atp1225
Rp1226
(dp1227
g11
V,
p1228
sbag0
(g1
g2
(lp1229
g0
(g1
g2
(lp1230
Vkite
p1231
atp1232
Rp1233
(dp1234
g11
VNN
p1235
sbatp1236
Rp1237
(dp1238
g11
VNP
p1239
sbag0
(g1
g2
(lp1240
g0
(g1
g2
(lp1241
Vis
p1242
atp1243
Rp1244
(dp1245
g11
VVBZ
p1246
sbatp1247
Rp1248
(dp1249
g11
VVP
p1250
sbag0
(g1
g2
(lp1251
V,
p1252
atp1253
Rp1254
(dp1255
g11
V,
p1256
sbatp1257
Rp1258
(dp1259
g11
VPRN
p1260
sbag0
(g1
g2
(lp1261
g0
(g1
g2
(lp1262
Vis
p1263
atp1264
Rp1265
(dp1266
g11
VVBZ
p1267
sbag0
(g1
g2
(lp1268
g0
(g1
g2
(lp1269
Vflying
p1270
atp1271
Rp1272
(dp1273
g11
VVBG
p1274
sbag0
(g1
g2
(lp1275
g0
(g1
g2
(lp1276
Vto
p1277
atp1278
Rp1279
(dp1280
g11
VTO
p1281
sbatp1282
Rp1283
(dp1284
g11
VPP
p1285
sbatp1286
Rp1287
(dp1288
g11
VVP
p1289
sbatp1290
Rp1291
(dp1292
g11
VVP
p1293
sbag0
(g1
g2
(lp1294
V.
p1295
atp1296
Rp1297
(dp1298
g11
V.
p1299
sbatp1300
Rp1301
(dp1302
g11
VS
p1303
sbatp1304
Rp1305
(dp1306
g11
S'id: 10'
p1307
sbag0
(g1
g2
(lp1308
g0
(g1
g2
(lp1309
g0
(g1
g2
(lp1310
VAnd
p1311
atp1312
Rp1313
(dp1314
g11
VCC
p1315
sbag0
(g1
g2
(lp1316
g0
(g1
g2
(lp1317
Va
p1318
atp1319
Rp1320
(dp1321
g11
VDT
p1322
sbag0
(g1
g2
(lp1323
Vcar
p1324
atp1325
Rp1326
(dp1327
g11
VNN
p1328
sbatp1329
Rp1330
(dp1331
g11
VNP
p1332
sbag0
(g1
g2
(lp1333
V,
p1334
atp1335
Rp1336
(dp1337
g11
V,
p1338
sbag0
(g1
g2
(lp1339
g0
(g1
g2
(lp1340
Vit
p1341
atp1342
Rp1343
(dp1344
g11
VPRP
p1345
sbatp1346
Rp1347
(dp1348
g11
VNP
p1349
sbag0
(g1
g2
(lp1350
g0
(g1
g2
(lp1351
V's
p1352
atp1353
Rp1354
(dp1355
g11
VVBZ
p1356
sbag0
(g1
g2
(lp1357
V,
p1358
atp1359
Rp1360
(dp1361
g11
V,
p1362
sbag0
(g1
g2
(lp1363
g0
(g1
g2
(lp1364
g0
(g1
g2
(lp1365
g0
(g1
g2
(lp1366
Vit
p1367
atp1368
Rp1369
(dp1370
g11
VPRP
p1371
sbatp1372
Rp1373
(dp1374
g11
VNP
p1375
sbag0
(g1
g2
(lp1376
g0
(g1
g2
(lp1377
V's
p1378
atp1379
Rp1380
(dp1381
g11
VVBZ
p1382
sbag0
(g1
g2
(lp1383
g0
(g1
g2
(lp1384
Vparked
p1385
atp1386
Rp1387
(dp1388
g11
VVBN
p1389
sbatp1390
Rp1391
(dp1392
g11
VVP
p1393
sbatp1394
Rp1395
(dp1396
g11
VVP
p1397
sbatp1398
Rp1399
(dp1400
g11
VS
p1401
sbatp1402
Rp1403
(dp1404
g11
VSBAR
p1405
sbatp1406
Rp1407
(dp1408
g11
VVP
p1409
sbag0
(g1
g2
(lp1410
V.
p1411
atp1412
Rp1413
(dp1414
g11
V.
p1415
sbatp1416
Rp1417
(dp1418
g11
VS
p1419
sbatp1420
Rp1421
(dp1422
g11
S'id: 11'
p1423
sbag0
(g1
g2
(lp1424
g0
(g1
g2
(lp1425
g0
(g1
g2
(lp1426
VAnd
p1427
atp1428
Rp1429
(dp1430
g11
VCC
p1431
sbag0
(g1
g2
(lp1432
g0
(g1
g2
(lp1433
g0
(g1
g2
(lp1434
Va
p1435
atp1436
Rp1437
(dp1438
g11
VDT
p1439
sbatp1440
Rp1441
(dp1442
g11
VNP
p1443
sbag0
(g1
g2
(lp1444
V,
p1445
atp1446
Rp1447
(dp1448
g11
V,
p1449
sbag0
(g1
g2
(lp1450
Vand
p1451
atp1452
Rp1453
(dp1454
g11
VCC
p1455
sbag0
(g1
g2
(lp1456
g0
(g1
g2
(lp1457
Va
p1458
atp1459
Rp1460
(dp1461
g11
VDT
p1462
sbatp1463
Rp1464
(dp1465
g11
VNP
p1466
sbag0
(g1
g2
(lp1467
V,
p1468
atp1469
Rp1470
(dp1471
g11
V,
p1472
sbag0
(g1
g2
(lp1473
g0
(g1
g2
(lp1474
Vthe
p1475
atp1476
Rp1477
(dp1478
g11
VDT
p1479
sbag0
(g1
g2
(lp1480
Vdoor
p1481
atp1482
Rp1483
(dp1484
g11
VNN
p1485
sbatp1486
Rp1487
(dp1488
g11
VNP
p1489
sbag0
(g1
g2
(lp1490
V,
p1491
atp1492
Rp1493
(dp1494
g11
V,
p1495
sbag0
(g1
g2
(lp1496
g0
(g1
g2
(lp1497
Vthe
p1498
atp1499
Rp1500
(dp1501
g11
VDT
p1502
sbag0
(g1
g2
(lp1503
Vdoor
p1504
atp1505
Rp1506
(dp1507
g11
VNN
p1508
sbatp1509
Rp1510
(dp1511
g11
VNP
p1512
sbatp1513
Rp1514
(dp1515
g11
VNP
p1516
sbag0
(g1
g2
(lp1517
g0
(g1
g2
(lp1518
Vis
p1519
atp1520
Rp1521
(dp1522
g11
VVBZ
p1523
sbag0
(g1
g2
(lp1524
g0
(g1
g2
(lp1525
Vclosed
p1526
atp1527
Rp1528
(dp1529
g11
VVBN
p1530
sbatp1531
Rp1532
(dp1533
g11
VVP
p1534
sbatp1535
Rp1536
(dp1537
g11
VVP
p1538
sbag0
(g1
g2
(lp1539
V.
p1540
atp1541
Rp1542
(dp1543
g11
V.
p1544
sbatp1545
Rp1546
(dp1547
g11
VS
p1548
sbatp1549
Rp1550
(dp1551
g11
S'id: 12'
p1552
sbag0
(g1
g2
(lp1553
g0
(g1
g2
(lp1554
g0
(g1
g2
(lp1555
VAnd
p1556
atp1557
Rp1558
(dp1559
g11
VCC
p1560
sbag0
(g1
g2
(lp1561
g0
(g1
g2
(lp1562
Va
p1563
atp1564
Rp1565
(dp1566
g11
VDT
p1567
sbatp1568
Rp1569
(dp1570
g11
VADVP
p1571
sbag0
(g1
g2
(lp1572
V,
p1573
atp1574
Rp1575
(dp1576
g11
V,
p1577
sbag0
(g1
g2
(lp1578
g0
(g1
g2
(lp1579
g0
(g1
g2
(lp1580
Vthere
p1581
atp1582
Rp1583
(dp1584
g11
VEX
p1585
sbatp1586
Rp1587
(dp1588
g11
VNP
p1589
sbag0
(g1
g2
(lp1590
g0
(g1
g2
(lp1591
V's
p1592
atp1593
Rp1594
(dp1595
g11
VVBZ
p1596
sbag0
(g1
g2
(lp1597
g0
(g1
g2
(lp1598
g0
(g1
g2
(lp1599
Vwater
p1600
atp1601
Rp1602
(dp1603
g11
VNN
p1604
sbatp1605
Rp1606
(dp1607
g11
VNP
p1608
sbag0
(g1
g2
(lp1609
g0
(g1
g2
(lp1610
Vin
p1611
atp1612
Rp1613
(dp1614
g11
VIN
p1615
sbag0
(g1
g2
(lp1616
g0
(g1
g2
(lp1617
g0
(g1
g2
(lp1618
Vthe
p1619
atp1620
Rp1621
(dp1622
g11
VDT
p1623
sbatp1624
Rp1625
(dp1626
g11
VNP
p1627
sbag0
(g1
g2
(lp1628
V,
p1629
atp1630
Rp1631
(dp1632
g11
V,
p1633
sbag0
(g1
g2
(lp1634
g0
(g1
g2
(lp1635
g0
(g1
g2
(lp1636
Vwater
p1637
atp1638
Rp1639
(dp1640
g11
VNN
p1641
sbatp1642
Rp1643
(dp1644
g11
VNP
p1645
sbag0
(g1
g2
(lp1646
g0
(g1
g2
(lp1647
Vin
p1648
atp1649
Rp1650
(dp1651
g11
VIN
p1652
sbag0
(g1
g2
(lp1653
g0
(g1
g2
(lp1654
Vthe
p1655
atp1656
Rp1657
(dp1658
g11
VDT
p1659
sbag0
(g1
g2
(lp1660
Vlake
p1661
atp1662
Rp1663
(dp1664
g11
VNN
p1665
sbatp1666
Rp1667
(dp1668
g11
VNP
p1669
sbatp1670
Rp1671
(dp1672
g11
VPP
p1673
sbatp1674
Rp1675
(dp1676
g11
VNP
p1677
sbatp1678
Rp1679
(dp1680
g11
VNP
p1681
sbatp1682
Rp1683
(dp1684
g11
VPP
p1685
sbatp1686
Rp1687
(dp1688
g11
VNP
p1689
sbatp1690
Rp1691
(dp1692
g11
VVP
p1693
sbatp1694
Rp1695
(dp1696
g11
VS
p1697
sbag0
(g1
g2
(lp1698
V,
p1699
atp1700
Rp1701
(dp1702
g11
V,
p1703
sbag0
(g1
g2
(lp1704
Vand
p1705
atp1706
Rp1707
(dp1708
g11
VCC
p1709
sbag0
(g1
g2
(lp1710
g0
(g1
g2
(lp1711
g0
(g1
g2
(lp1712
Vthere
p1713
atp1714
Rp1715
(dp1716
g11
VEX
p1717
sbatp1718
Rp1719
(dp1720
g11
VNP
p1721
sbag0
(g1
g2
(lp1722
g0
(g1
g2
(lp1723
V's
p1724
atp1725
Rp1726
(dp1727
g11
VVBZ
p1728
sbag0
(g1
g2
(lp1729
g0
(g1
g2
(lp1730
g0
(g1
g2
(lp1731
g0
(g1
g2
(lp1732
Vboats
p1733
atp1734
Rp1735
(dp1736
g11
VNNS
p1737
sbatp1738
Rp1739
(dp1740
g11
VNP
p1741
sbag0
(g1
g2
(lp1742
g0
(g1
g2
(lp1743
Vin
p1744
atp1745
Rp1746
(dp1747
g11
VIN
p1748
sbag0
(g1
g2
(lp1749
g0
(g1
g2
(lp1750
Vit
p1751
atp1752
Rp1753
(dp1754
g11
VPRP
p1755
sbatp1756
Rp1757
(dp1758
g11
VNP
p1759
sbatp1760
Rp1761
(dp1762
g11
VPP
p1763
sbatp1764
Rp1765
(dp1766
g11
VNP
p1767
sbag0
(g1
g2
(lp1768
V,
p1769
atp1770
Rp1771
(dp1772
g11
V,
p1773
sbag0
(g1
g2
(lp1774
g0
(g1
g2
(lp1775
g0
(g1
g2
(lp1776
Vno
p1777
atp1778
Rp1779
(dp1780
g11
VDT
p1781
sbag0
(g1
g2
(lp1782
Va
p1783
atp1784
Rp1785
(dp1786
g11
VDT
p1787
sbag0
(g1
g2
(lp1788
Vboat
p1789
atp1790
Rp1791
(dp1792
g11
VNN
p1793
sbatp1794
Rp1795
(dp1796
g11
VNP
p1797
sbag0
(g1
g2
(lp1798
g0
(g1
g2
(lp1799
Vin
p1800
atp1801
Rp1802
(dp1803
g11
VIN
p1804
sbag0
(g1
g2
(lp1805
g0
(g1
g2
(lp1806
Vit
p1807
atp1808
Rp1809
(dp1810
g11
VPRP
p1811
sbatp1812
Rp1813
(dp1814
g11
VNP
p1815
sbatp1816
Rp1817
(dp1818
g11
VPP
p1819
sbatp1820
Rp1821
(dp1822
g11
VNP
p1823
sbatp1824
Rp1825
(dp1826
g11
VNP
p1827
sbatp1828
Rp1829
(dp1830
g11
VVP
p1831
sbatp1832
Rp1833
(dp1834
g11
VS
p1835
sbag0
(g1
g2
(lp1836
V.
p1837
atp1838
Rp1839
(dp1840
g11
V.
p1841
sbatp1842
Rp1843
(dp1844
g11
VS
p1845
sbatp1846
Rp1847
(dp1848
g11
S'id: 13'
p1849
sbatp1850
Rp1851
(dp1852
g11
S'sentences'
p1853
sb.