ccopy_reg
_reconstructor
p0
(cnltk.tree
Tree
p1
c__builtin__
list
p2
(lp3
g0
(g1
g2
(lp4
g0
(g1
g2
(lp5
g0
(g1
g2
(lp6
Vok
p7
atp8
Rp9
(dp10
S'_label'
p11
VNN
p12
sbag0
(g1
g2
(lp13
V.
p14
atp15
Rp16
(dp17
g11
V.
p18
sbatp19
Rp20
(dp21
g11
VNP
p22
sbatp23
Rp24
(dp25
g11
S'id: 0'
p26
sbag0
(g1
g2
(lp27
g0
(g1
g2
(lp28
g0
(g1
g2
(lp29
g0
(g1
g2
(lp30
VThis
p31
atp32
Rp33
(dp34
g11
VDT
p35
sbatp36
Rp37
(dp38
g11
VNP
p39
sbag0
(g1
g2
(lp40
g0
(g1
g2
(lp41
Vis
p42
atp43
Rp44
(dp45
g11
VVBZ
p46
sbag0
(g1
g2
(lp47
g0
(g1
g2
(lp48
g0
(g1
g2
(lp49
Va
p50
atp51
Rp52
(dp53
g11
VDT
p54
sbag0
(g1
g2
(lp55
Vpicture
p56
atp57
Rp58
(dp59
g11
VNN
p60
sbatp61
Rp62
(dp63
g11
VNP
p64
sbag0
(g1
g2
(lp65
V,
p66
atp67
Rp68
(dp69
g11
V,
p70
sbag0
(g1
g2
(lp71
g0
(g1
g2
(lp72
g0
(g1
g2
(lp73
g0
(g1
g2
(lp74
Vlooks
p75
atp76
Rp77
(dp78
g11
VVBZ
p79
sbag0
(g1
g2
(lp80
g0
(g1
g2
(lp81
Vlike
p82
atp83
Rp84
(dp85
g11
VIN
p86
sbag0
(g1
g2
(lp87
g0
(g1
g2
(lp88
g0
(g1
g2
(lp89
Vit
p90
atp91
Rp92
(dp93
g11
VPRP
p94
sbatp95
Rp96
(dp97
g11
VNP
p98
sbag0
(g1
g2
(lp99
g0
(g1
g2
(lp100
V's
p101
atp102
Rp103
(dp104
g11
VVBZ
p105
sbag0
(g1
g2
(lp106
g0
(g1
g2
(lp107
Va
p108
atp109
Rp110
(dp111
g11
VDT
p112
sbag0
(g1
g2
(lp113
Vlakeside
p114
atp115
Rp116
(dp117
g11
VNN
p118
sbatp119
Rp120
(dp121
g11
VNP
p122
sbatp123
Rp124
(dp125
g11
VVP
p126
sbatp127
Rp128
(dp129
g11
VS
p130
sbatp131
Rp132
(dp133
g11
VSBAR
p134
sbatp135
Rp136
(dp137
g11
VVP
p138
sbatp139
Rp140
(dp141
g11
VS
p142
sbatp143
Rp144
(dp145
g11
VSBAR
p146
sbatp147
Rp148
(dp149
g11
VNP
p150
sbatp151
Rp152
(dp153
g11
VVP
p154
sbag0
(g1
g2
(lp155
V.
p156
atp157
Rp158
(dp159
g11
V.
p160
sbatp161
Rp162
(dp163
g11
VS
p164
sbatp165
Rp166
(dp167
g11
S'id: 1'
p168
sbag0
(g1
g2
(lp169
g0
(g1
g2
(lp170
g0
(g1
g2
(lp171
g0
(g1
g2
(lp172
g0
(g1
g2
(lp173
VThere
p174
atp175
Rp176
(dp177
g11
VEX
p178
sbatp179
Rp180
(dp181
g11
VNP
p182
sbag0
(g1
g2
(lp183
g0
(g1
g2
(lp184
Vis
p185
atp186
Rp187
(dp188
g11
VVBZ
p189
sbag0
(g1
g2
(lp190
g0
(g1
g2
(lp191
g0
(g1
g2
(lp192
Va
p193
atp194
Rp195
(dp196
g11
VDT
p197
sbag0
(g1
g2
(lp198
Vsailboat
p199
atp200
Rp201
(dp202
g11
VNN
p203
sbatp204
Rp205
(dp206
g11
VNP
p207
sbag0
(g1
g2
(lp208
g0
(g1
g2
(lp209
Von
p210
atp211
Rp212
(dp213
g11
VIN
p214
sbag0
(g1
g2
(lp215
g0
(g1
g2
(lp216
Vthe
p217
atp218
Rp219
(dp220
g11
VDT
p221
sbag0
(g1
g2
(lp222
Vlake
p223
atp224
Rp225
(dp226
g11
VNN
p227
sbatp228
Rp229
(dp230
g11
VNP
p231
sbatp232
Rp233
(dp234
g11
VPP
p235
sbatp236
Rp237
(dp238
g11
VNP
p239
sbag0
(g1
g2
(lp240
V,
p241
atp242
Rp243
(dp244
g11
V,
p245
sbag0
(g1
g2
(lp246
g0
(g1
g2
(lp247
Vwith
p248
atp249
Rp250
(dp251
g11
VIN
p252
sbag0
(g1
g2
(lp253
g0
(g1
g2
(lp254
g0
(g1
g2
(lp255
Vtwo
p256
atp257
Rp258
(dp259
g11
VCD
p260
sbag0
(g1
g2
(lp261
Vpeople
p262
atp263
Rp264
(dp265
g11
VNNS
p266
sbatp267
Rp268
(dp269
g11
VNP
p270
sbag0
(g1
g2
(lp271
g0
(g1
g2
(lp272
Vin
p273
atp274
Rp275
(dp276
g11
VIN
p277
sbag0
(g1
g2
(lp278
g0
(g1
g2
(lp279
Vit
p280
atp281
Rp282
(dp283
g11
VPRP
p284
sbatp285
Rp286
(dp287
g11
VNP
p288
sbatp289
Rp290
(dp291
g11
VPP
p292
sbatp293
Rp294
(dp295
g11
VNP
p296
sbatp297
Rp298
(dp299
g11
VPP
p300
sbatp301
Rp302
(dp303
g11
VVP
p304
sbatp305
Rp306
(dp307
g11
VS
p308
sbag0
(g1
g2
(lp309
Vand
p310
atp311
Rp312
(dp313
g11
VCC
p314
sbag0
(g1
g2
(lp315
g0
(g1
g2
(lp316
g0
(g1
g2
(lp317
Vthey
p318
atp319
Rp320
(dp321
g11
VPRP
p322
sbatp323
Rp324
(dp325
g11
VNP
p326
sbag0
(g1
g2
(lp327
g0
(g1
g2
(lp328
V're
p329
atp330
Rp331
(dp332
g11
VVBP
p333
sbag0
(g1
g2
(lp334
g0
(g1
g2
(lp335
Vwaving
p336
atp337
Rp338
(dp339
g11
VVBG
p340
sbag0
(g1
g2
(lp341
g0
(g1
g2
(lp342
Vat
p343
atp344
Rp345
(dp346
g11
VIN
p347
sbag0
(g1
g2
(lp348
g0
(g1
g2
(lp349
g0
(g1
g2
(lp350
Vthe
p351
atp352
Rp353
(dp354
g11
VDT
p355
sbag0
(g1
g2
(lp356
Vpeople
p357
atp358
Rp359
(dp360
g11
VNNS
p361
sbatp362
Rp363
(dp364
g11
VNP
p365
sbag0
(g1
g2
(lp366
g0
(g1
g2
(lp367
Von
p368
atp369
Rp370
(dp371
g11
VIN
p372
sbag0
(g1
g2
(lp373
g0
(g1
g2
(lp374
Vshore
p375
atp376
Rp377
(dp378
g11
VNN
p379
sbatp380
Rp381
(dp382
g11
VNP
p383
sbatp384
Rp385
(dp386
g11
VPP
p387
sbatp388
Rp389
(dp390
g11
VNP
p391
sbatp392
Rp393
(dp394
g11
VPP
p395
sbatp396
Rp397
(dp398
g11
VVP
p399
sbatp400
Rp401
(dp402
g11
VVP
p403
sbatp404
Rp405
(dp406
g11
VS
p407
sbag0
(g1
g2
(lp408
V.
p409
atp410
Rp411
(dp412
g11
V.
p413
sbatp414
Rp415
(dp416
g11
VS
p417
sbatp418
Rp419
(dp420
g11
S'id: 2'
p421
sbag0
(g1
g2
(lp422
g0
(g1
g2
(lp423
g0
(g1
g2
(lp424
g0
(g1
g2
(lp425
VThere
p426
atp427
Rp428
(dp429
g11
VEX
p430
sbatp431
Rp432
(dp433
g11
VNP
p434
sbag0
(g1
g2
(lp435
g0
(g1
g2
(lp436
V's
p437
atp438
Rp439
(dp440
g11
VVBZ
p441
sbag0
(g1
g2
(lp442
g0
(g1
g2
(lp443
g0
(g1
g2
(lp444
Va
p445
atp446
Rp447
(dp448
g11
VDT
p449
sbag0
(g1
g2
(lp450
Vhouse
p451
atp452
Rp453
(dp454
g11
VNN
p455
sbatp456
Rp457
(dp458
g11
VNP
p459
sbag0
(g1
g2
(lp460
g0
(g1
g2
(lp461
Vwith
p462
atp463
Rp464
(dp465
g11
VIN
p466
sbag0
(g1
g2
(lp467
g0
(g1
g2
(lp468
Va
p469
atp470
Rp471
(dp472
g11
VDT
p473
sbag0
(g1
g2
(lp474
Vcar
p475
atp476
Rp477
(dp478
g11
VNN
p479
sbatp480
Rp481
(dp482
g11
VNP
p483
sbatp484
Rp485
(dp486
g11
VPP
p487
sbatp488
Rp489
(dp490
g11
VNP
p491
sbag0
(g1
g2
(lp492
g0
(g1
g2
(lp493
Vthere
p494
atp495
Rp496
(dp497
g11
VRB
p498
sbatp499
Rp500
(dp501
g11
VADVP
p502
sbatp503
Rp504
(dp505
g11
VVP
p506
sbag0
(g1
g2
(lp507
V.
p508
atp509
Rp510
(dp511
g11
V.
p512
sbatp513
Rp514
(dp515
g11
VS
p516
sbatp517
Rp518
(dp519
g11
S'id: 3'
p520
sbag0
(g1
g2
(lp521
g0
(g1
g2
(lp522
g0
(g1
g2
(lp523
g0
(g1
g2
(lp524
VAnd
p525
atp526
Rp527
(dp528
g11
VCC
p529
sbag0
(g1
g2
(lp530
g0
(g1
g2
(lp531
Vthere
p532
atp533
Rp534
(dp535
g11
VEX
p536
sbatp537
Rp538
(dp539
g11
VNP
p540
sbag0
(g1
g2
(lp541
g0
(g1
g2
(lp542
V's
p543
atp544
Rp545
(dp546
g11
VVBZ
p547
sbag0
(g1
g2
(lp548
g0
(g1
g2
(lp549
g0
(g1
g2
(lp550
Va
p551
atp552
Rp553
(dp554
g11
VDT
p555
sbag0
(g1
g2
(lp556
Vman
p557
atp558
Rp559
(dp560
g11
VNN
p561
sbag0
(g1
g2
(lp562
g0
(g1
g2
(lp563
Vout
p564
atp565
Rp566
(dp567
g11
VRP
p568
sbatp569
Rp570
(dp571
g11
VPRT
p572
sbatp573
Rp574
(dp575
g11
VNP
p576
sbag0
(g1
g2
(lp577
g0
(g1
g2
(lp578
Von
p579
atp580
Rp581
(dp582
g11
VIN
p583
sbag0
(g1
g2
(lp584
g0
(g1
g2
(lp585
Vthe
p586
atp587
Rp588
(dp589
g11
VDT
p590
sbag0
(g1
g2
(lp591
Vpier
p592
atp593
Rp594
(dp595
g11
VNN
p596
sbag0
(g1
g2
(lp597
Vfishing
p598
atp599
Rp600
(dp601
g11
VNN
p602
sbatp603
Rp604
(dp605
g11
VNP
p606
sbatp607
Rp608
(dp609
g11
VPP
p610
sbatp611
Rp612
(dp613
g11
VNP
p614
sbatp615
Rp616
(dp617
g11
VVP
p618
sbatp619
Rp620
(dp621
g11
VS
p622
sbag0
(g1
g2
(lp623
V,
p624
atp625
Rp626
(dp627
g11
V,
p628
sbag0
(g1
g2
(lp629
g0
(g1
g2
(lp630
Vhe
p631
atp632
Rp633
(dp634
g11
VPRP
p635
sbatp636
Rp637
(dp638
g11
VNP
p639
sbag0
(g1
g2
(lp640
g0
(g1
g2
(lp641
Vjust
p642
atp643
Rp644
(dp645
g11
VRB
p646
sbatp647
Rp648
(dp649
g11
VADVP
p650
sbag0
(g1
g2
(lp651
g0
(g1
g2
(lp652
Vcaught
p653
atp654
Rp655
(dp656
g11
VVBD
p657
sbag0
(g1
g2
(lp658
g0
(g1
g2
(lp659
Va
p660
atp661
Rp662
(dp663
g11
VDT
p664
sbag0
(g1
g2
(lp665
Vfish
p666
atp667
Rp668
(dp669
g11
VNN
p670
sbatp671
Rp672
(dp673
g11
VNP
p674
sbatp675
Rp676
(dp677
g11
VVP
p678
sbag0
(g1
g2
(lp679
V.
p680
atp681
Rp682
(dp683
g11
V.
p684
sbatp685
Rp686
(dp687
g11
VS
p688
sbatp689
Rp690
(dp691
g11
S'id: 4'
p692
sbag0
(g1
g2
(lp693
g0
(g1
g2
(lp694
g0
(g1
g2
(lp695
g0
(g1
g2
(lp696
VHe
p697
atp698
Rp699
(dp700
g11
VPRP
p701
sbatp702
Rp703
(dp704
g11
VNP
p705
sbag0
(g1
g2
(lp706
g0
(g1
g2
(lp707
Vhas
p708
atp709
Rp710
(dp711
g11
VVBZ
p712
sbag0
(g1
g2
(lp713
g0
(g1
g2
(lp714
Von
p715
atp716
Rp717
(dp718
g11
VIN
p719
sbag0
(g1
g2
(lp720
g0
(g1
g2
(lp721
Va
p722
atp723
Rp724
(dp725
g11
VDT
p726
sbag0
(g1
g2
(lp727
Vstraw
p728
atp729
Rp730
(dp731
g11
VNN
p732
sbatp733
Rp734
(dp735
g11
VNP
p736
sbatp737
Rp738
(dp739
g11
VPP
p740
sbag0
(g1
g2
(lp741
g0
(g1
g2
(lp742
g0
(g1
g2
(lp743
Vhat
p744
atp745
Rp746
(dp747
g11
VNN
p748
sbatp749
Rp750
(dp751
g11
VNP
p752
sbag0
(g1
g2
(lp753
g0
(g1
g2
(lp754
Vkeeping
p755
atp756
Rp757
(dp758
g11
VVBG
p759
sbag0
(g1
g2
(lp760
g0
(g1
g2
(lp761
g0
(g1
g2
(lp762
Vthe
p763
atp764
Rp765
(dp766
g11
VDT
p767
sbag0
(g1
g2
(lp768
Vsun
p769
atp770
Rp771
(dp772
g11
VNN
p773
sbatp774
Rp775
(dp776
g11
VNP
p777
sbag0
(g1
g2
(lp778
Vout
p779
atp780
Rp781
(dp782
g11
VIN
p783
sbatp784
Rp785
(dp786
g11
VADVP
p787
sbag0
(g1
g2
(lp788
g0
(g1
g2
(lp789
Vof
p790
atp791
Rp792
(dp793
g11
VIN
p794
sbag0
(g1
g2
(lp795
g0
(g1
g2
(lp796
Vhis
p797
atp798
Rp799
(dp800
g11
VPRP$
p801
sbag0
(g1
g2
(lp802
Vface
p803
atp804
Rp805
(dp806
g11
VNN
p807
sbatp808
Rp809
(dp810
g11
VNP
p811
sbatp812
Rp813
(dp814
g11
VPP
p815
sbatp816
Rp817
(dp818
g11
VVP
p819
sbatp820
Rp821
(dp822
g11
VNP
p823
sbatp824
Rp825
(dp826
g11
VVP
p827
sbag0
(g1
g2
(lp828
V.
p829
atp830
Rp831
(dp832
g11
V.
p833
sbatp834
Rp835
(dp836
g11
VS
p837
sbatp838
Rp839
(dp840
g11
S'id: 5'
p841
sbag0
(g1
g2
(lp842
g0
(g1
g2
(lp843
g0
(g1
g2
(lp844
g0
(g1
g2
(lp845
g0
(g1
g2
(lp846
VThere
p847
atp848
Rp849
(dp850
g11
VEX
p851
sbatp852
Rp853
(dp854
g11
VNP
p855
sbag0
(g1
g2
(lp856
g0
(g1
g2
(lp857
V's
p858
atp859
Rp860
(dp861
g11
VVBZ
p862
sbag0
(g1
g2
(lp863
g0
(g1
g2
(lp864
g0
(g1
g2
(lp865
Va
p866
atp867
Rp868
(dp869
g11
VDT
p870
sbag0
(g1
g2
(lp871
Vlittle
p872
atp873
Rp874
(dp875
g11
VJJ
p876
sbag0
(g1
g2
(lp877
Vgirl
p878
atp879
Rp880
(dp881
g11
VNN
p882
sbag0
(g1
g2
(lp883
Vplaying
p884
atp885
Rp886
(dp887
g11
VNN
p888
sbatp889
Rp890
(dp891
g11
VNP
p892
sbag0
(g1
g2
(lp893
g0
(g1
g2
(lp894
Vin
p895
atp896
Rp897
(dp898
g11
VIN
p899
sbag0
(g1
g2
(lp900
g0
(g1
g2
(lp901
Vthe
p902
atp903
Rp904
(dp905
g11
VDT
p906
sbag0
(g1
g2
(lp907
Vsand
p908
atp909
Rp910
(dp911
g11
VNN
p912
sbatp913
Rp914
(dp915
g11
VNP
p916
sbatp917
Rp918
(dp919
g11
VPP
p920
sbatp921
Rp922
(dp923
g11
VNP
p924
sbatp925
Rp926
(dp927
g11
VVP
p928
sbatp929
Rp930
(dp931
g11
VS
p932
sbag0
(g1
g2
(lp933
V,
p934
atp935
Rp936
(dp937
g11
V,
p938
sbag0
(g1
g2
(lp939
g0
(g1
g2
(lp940
Vshe
p941
atp942
Rp943
(dp944
g11
VPRP
p945
sbatp946
Rp947
(dp948
g11
VNP
p949
sbag0
(g1
g2
(lp950
g0
(g1
g2
(lp951
V's
p952
atp953
Rp954
(dp955
g11
VVBZ
p956
sbag0
(g1
g2
(lp957
g0
(g1
g2
(lp958
Vbuilt
p959
atp960
Rp961
(dp962
g11
VVBN
p963
sbag0
(g1
g2
(lp964
g0
(g1
g2
(lp965
g0
(g1
g2
(lp966
Va
p967
atp968
Rp969
(dp970
g11
VDT
p971
sbag0
(g1
g2
(lp972
Vsandcastle
p973
atp974
Rp975
(dp976
g11
VNN
p977
sbatp978
Rp979
(dp980
g11
VNP
p981
sbag0
(g1
g2
(lp982
V,
p983
atp984
Rp985
(dp986
g11
V,
p987
sbag0
(g1
g2
(lp988
g0
(g1
g2
(lp989
g0
(g1
g2
(lp990
g0
(g1
g2
(lp991
Vlooks
p992
atp993
Rp994
(dp995
g11
VVBZ
p996
sbag0
(g1
g2
(lp997
g0
(g1
g2
(lp998
Vlike
p999
atp1000
Rp1001
(dp1002
g11
VIN
p1003
sbag0
(g1
g2
(lp1004
g0
(g1
g2
(lp1005
g0
(g1
g2
(lp1006
Vshe
p1007
atp1008
Rp1009
(dp1010
g11
VPRP
p1011
sbatp1012
Rp1013
(dp1014
g11
VNP
p1015
sbag0
(g1
g2
(lp1016
g0
(g1
g2
(lp1017
V's
p1018
atp1019
Rp1020
(dp1021
g11
VVBZ
p1022
sbag0
(g1
g2
(lp1023
g0
(g1
g2
(lp1024
Vreally
p1025
atp1026
Rp1027
(dp1028
g11
VRB
p1029
sbatp1030
Rp1031
(dp1032
g11
VADVP
p1033
sbag0
(g1
g2
(lp1034
g0
(g1
g2
(lp1035
Venjoying
p1036
atp1037
Rp1038
(dp1039
g11
VVBG
p1040
sbag0
(g1
g2
(lp1041
g0
(g1
g2
(lp1042
Vherself
p1043
atp1044
Rp1045
(dp1046
g11
VPRP
p1047
sbatp1048
Rp1049
(dp1050
g11
VNP
p1051
sbatp1052
Rp1053
(dp1054
g11
VVP
p1055
sbatp1056
Rp1057
(dp1058
g11
VVP
p1059
sbatp1060
Rp1061
(dp1062
g11
VS
p1063
sbatp1064
Rp1065
(dp1066
g11
VSBAR
p1067
sbatp1068
Rp1069
(dp1070
g11
VVP
p1071
sbatp1072
Rp1073
(dp1074
g11
VS
p1075
sbatp1076
Rp1077
(dp1078
g11
VSBAR
p1079
sbatp1080
Rp1081
(dp1082
g11
VNP
p1083
sbatp1084
Rp1085
(dp1086
g11
VVP
p1087
sbatp1088
Rp1089
(dp1090
g11
VVP
p1091
sbag0
(g1
g2
(lp1092
V.
p1093
atp1094
Rp1095
(dp1096
g11
V.
p1097
sbatp1098
Rp1099
(dp1100
g11
VS
p1101
sbatp1102
Rp1103
(dp1104
g11
S'id: 6'
p1105
sbag0
(g1
g2
(lp1106
g0
(g1
g2
(lp1107
g0
(g1
g2
(lp1108
g0
(g1
g2
(lp1109
g0
(g1
g2
(lp1110
VThere
p1111
atp1112
Rp1113
(dp1114
g11
VEX
p1115
sbatp1116
Rp1117
(dp1118
g11
VNP
p1119
sbag0
(g1
g2
(lp1120
g0
(g1
g2
(lp1121
V's
p1122
atp1123
Rp1124
(dp1125
g11
VVBZ
p1126
sbag0
(g1
g2
(lp1127
g0
(g1
g2
(lp1128
g0
(g1
g2
(lp1129
Va
p1130
atp1131
Rp1132
(dp1133
g11
VDT
p1134
sbag0
(g1
g2
(lp1135
Vlady
p1136
atp1137
Rp1138
(dp1139
g11
VNN
p1140
sbatp1141
Rp1142
(dp1143
g11
VNP
p1144
sbag0
(g1
g2
(lp1145
Vand
p1146
atp1147
Rp1148
(dp1149
g11
VCC
p1150
sbag0
(g1
g2
(lp1151
g0
(g1
g2
(lp1152
Va
p1153
atp1154
Rp1155
(dp1156
g11
VDT
p1157
sbag0
(g1
g2
(lp1158
Vman
p1159
atp1160
Rp1161
(dp1162
g11
VNN
p1163
sbatp1164
Rp1165
(dp1166
g11
VNP
p1167
sbatp1168
Rp1169
(dp1170
g11
VNP
p1171
sbag0
(g1
g2
(lp1172
V,
p1173
atp1174
Rp1175
(dp1176
g11
V,
p1177
sbag0
(g1
g2
(lp1178
g0
(g1
g2
(lp1179
g0
(g1
g2
(lp1180
Vhaving
p1181
atp1182
Rp1183
(dp1184
g11
VVBG
p1185
sbag0
(g1
g2
(lp1186
g0
(g1
g2
(lp1187
Va
p1188
atp1189
Rp1190
(dp1191
g11
VDT
p1192
sbag0
(g1
g2
(lp1193
Vpicnic
p1194
atp1195
Rp1196
(dp1197
g11
VNN
p1198
sbag0
(g1
g2
(lp1199
Vlunch
p1200
atp1201
Rp1202
(dp1203
g11
VNN
p1204
sbatp1205
Rp1206
(dp1207
g11
VNP
p1208
sbatp1209
Rp1210
(dp1211
g11
VVP
p1212
sbatp1213
Rp1214
(dp1215
g11
VS
p1216
sbatp1217
Rp1218
(dp1219
g11
VVP
p1220
sbatp1221
Rp1222
(dp1223
g11
VS
p1224
sbag0
(g1
g2
(lp1225
V,
p1226
atp1227
Rp1228
(dp1229
g11
V,
p1230
sbag0
(g1
g2
(lp1231
g0
(g1
g2
(lp1232
Vshe
p1233
atp1234
Rp1235
(dp1236
g11
VPRP
p1237
sbatp1238
Rp1239
(dp1240
g11
VNP
p1241
sbag0
(g1
g2
(lp1242
g0
(g1
g2
(lp1243
V's
p1244
atp1245
Rp1246
(dp1247
g11
VVBZ
p1248
sbag0
(g1
g2
(lp1249
g0
(g1
g2
(lp1250
Vpouring
p1251
atp1252
Rp1253
(dp1254
g11
VVBG
p1255
sbag0
(g1
g2
(lp1256
g0
(g1
g2
(lp1257
g0
(g1
g2
(lp1258
Vthem
p1259
atp1260
Rp1261
(dp1262
g11
VPRP
p1263
sbatp1264
Rp1265
(dp1266
g11
VNP
p1267
sbag0
(g1
g2
(lp1268
g0
(g1
g2
(lp1269
g0
(g1
g2
(lp1270
Vsomething
p1271
atp1272
Rp1273
(dp1274
g11
VNN
p1275
sbatp1276
Rp1277
(dp1278
g11
VNP
p1279
sbag0
(g1
g2
(lp1280
g0
(g1
g2
(lp1281
Vcold
p1282
atp1283
Rp1284
(dp1285
g11
VJJ
p1286
sbag0
(g1
g2
(lp1287
g0
(g1
g2
(lp1288
g0
(g1
g2
(lp1289
Vto
p1290
atp1291
Rp1292
(dp1293
g11
VTO
p1294
sbag0
(g1
g2
(lp1295
g0
(g1
g2
(lp1296
Vdrink
p1297
atp1298
Rp1299
(dp1300
g11
VVB
p1301
sbatp1302
Rp1303
(dp1304
g11
VVP
p1305
sbatp1306
Rp1307
(dp1308
g11
VVP
p1309
sbatp1310
Rp1311
(dp1312
g11
VS
p1313
sbatp1314
Rp1315
(dp1316
g11
VADJP
p1317
sbatp1318
Rp1319
(dp1320
g11
VNP
p1321
sbatp1322
Rp1323
(dp1324
g11
VS
p1325
sbatp1326
Rp1327
(dp1328
g11
VVP
p1329
sbatp1330
Rp1331
(dp1332
g11
VVP
p1333
sbag0
(g1
g2
(lp1334
V.
p1335
atp1336
Rp1337
(dp1338
g11
V.
p1339
sbatp1340
Rp1341
(dp1342
g11
VS
p1343
sbatp1344
Rp1345
(dp1346
g11
S'id: 7'
p1347
sbag0
(g1
g2
(lp1348
g0
(g1
g2
(lp1349
g0
(g1
g2
(lp1350
g0
(g1
g2
(lp1351
VThey
p1352
atp1353
Rp1354
(dp1355
g11
VPRP
p1356
sbatp1357
Rp1358
(dp1359
g11
VNP
p1360
sbag0
(g1
g2
(lp1361
g0
(g1
g2
(lp1362
Vhave
p1363
atp1364
Rp1365
(dp1366
g11
VVBP
p1367
sbag0
(g1
g2
(lp1368
g0
(g1
g2
(lp1369
g0
(g1
g2
(lp1370
Va
p1371
atp1372
Rp1373
(dp1374
g11
VDT
p1375
sbag0
(g1
g2
(lp1376
Vradio
p1377
atp1378
Rp1379
(dp1380
g11
VNN
p1381
sbatp1382
Rp1383
(dp1384
g11
VNP
p1385
sbag0
(g1
g2
(lp1386
g0
(g1
g2
(lp1387
Vso
p1388
atp1389
Rp1390
(dp1391
g11
VIN
p1392
sbag0
(g1
g2
(lp1393
g0
(g1
g2
(lp1394
g0
(g1
g2
(lp1395
Vthey
p1396
atp1397
Rp1398
(dp1399
g11
VPRP
p1400
sbatp1401
Rp1402
(dp1403
g11
VNP
p1404
sbag0
(g1
g2
(lp1405
g0
(g1
g2
(lp1406
Vcan
p1407
atp1408
Rp1409
(dp1410
g11
VMD
p1411
sbag0
(g1
g2
(lp1412
g0
(g1
g2
(lp1413
Vlisten
p1414
atp1415
Rp1416
(dp1417
g11
VVB
p1418
sbag0
(g1
g2
(lp1419
g0
(g1
g2
(lp1420
Vto
p1421
atp1422
Rp1423
(dp1424
g11
VTO
p1425
sbag0
(g1
g2
(lp1426
g0
(g1
g2
(lp1427
Vmusic
p1428
atp1429
Rp1430
(dp1431
g11
VNN
p1432
sbatp1433
Rp1434
(dp1435
g11
VNP
p1436
sbatp1437
Rp1438
(dp1439
g11
VPP
p1440
sbatp1441
Rp1442
(dp1443
g11
VVP
p1444
sbatp1445
Rp1446
(dp1447
g11
VVP
p1448
sbatp1449
Rp1450
(dp1451
g11
VS
p1452
sbatp1453
Rp1454
(dp1455
g11
VSBAR
p1456
sbatp1457
Rp1458
(dp1459
g11
VNP
p1460
sbatp1461
Rp1462
(dp1463
g11
VVP
p1464
sbag0
(g1
g2
(lp1465
V.
p1466
atp1467
Rp1468
(dp1469
g11
V.
p1470
sbatp1471
Rp1472
(dp1473
g11
VS
p1474
sbatp1475
Rp1476
(dp1477
g11
S'id: 8'
p1478
sbag0
(g1
g2
(lp1479
g0
(g1
g2
(lp1480
g0
(g1
g2
(lp1481
g0
(g1
g2
(lp1482
VThe
p1483
atp1484
Rp1485
(dp1486
g11
VDT
p1487
sbag0
(g1
g2
(lp1488
Vman
p1489
atp1490
Rp1491
(dp1492
g11
VNN
p1493
sbatp1494
Rp1495
(dp1496
g11
VNP
p1497
sbag0
(g1
g2
(lp1498
g0
(g1
g2
(lp1499
Vis
p1500
atp1501
Rp1502
(dp1503
g11
VVBZ
p1504
sbag0
(g1
g2
(lp1505
g0
(g1
g2
(lp1506
Vcriss
p1507
atp1508
Rp1509
(dp1510
g11
VJJ
p1511
sbag0
(g1
g2
(lp1512
Vcross
p1513
atp1514
Rp1515
(dp1516
g11
VNN
p1517
sbag0
(g1
g2
(lp1518
Vapplesauce
p1519
atp1520
Rp1521
(dp1522
g11
VNN
p1523
sbatp1524
Rp1525
(dp1526
g11
VNP
p1527
sbag0
(g1
g2
(lp1528
V,
p1529
atp1530
Rp1531
(dp1532
g11
V,
p1533
sbag0
(g1
g2
(lp1534
g0
(g1
g2
(lp1535
g0
(g1
g2
(lp1536
Vreading
p1537
atp1538
Rp1539
(dp1540
g11
VVBG
p1541
sbag0
(g1
g2
(lp1542
g0
(g1
g2
(lp1543
Va
p1544
atp1545
Rp1546
(dp1547
g11
VDT
p1548
sbag0
(g1
g2
(lp1549
Vbook
p1550
atp1551
Rp1552
(dp1553
g11
VNN
p1554
sbatp1555
Rp1556
(dp1557
g11
VNP
p1558
sbatp1559
Rp1560
(dp1561
g11
VVP
p1562
sbatp1563
Rp1564
(dp1565
g11
VS
p1566
sbatp1567
Rp1568
(dp1569
g11
VVP
p1570
sbag0
(g1
g2
(lp1571
V.
p1572
atp1573
Rp1574
(dp1575
g11
V.
p1576
sbatp1577
Rp1578
(dp1579
g11
VS
p1580
sbatp1581
Rp1582
(dp1583
g11
S'id: 9'
p1584
sbag0
(g1
g2
(lp1585
g0
(g1
g2
(lp1586
g0
(g1
g2
(lp1587
g0
(g1
g2
(lp1588
VThere
p1589
atp1590
Rp1591
(dp1592
g11
VEX
p1593
sbatp1594
Rp1595
(dp1596
g11
VNP
p1597
sbag0
(g1
g2
(lp1598
g0
(g1
g2
(lp1599
Vis
p1600
atp1601
Rp1602
(dp1603
g11
VVBZ
p1604
sbag0
(g1
g2
(lp1605
g0
(g1
g2
(lp1606
g0
(g1
g2
(lp1607
Va
p1608
atp1609
Rp1610
(dp1611
g11
VDT
p1612
sbag0
(g1
g2
(lp1613
Vlittle
p1614
atp1615
Rp1616
(dp1617
g11
VJJ
p1618
sbag0
(g1
g2
(lp1619
Vboy
p1620
atp1621
Rp1622
(dp1623
g11
VNN
p1624
sbatp1625
Rp1626
(dp1627
g11
VNP
p1628
sbag0
(g1
g2
(lp1629
g0
(g1
g2
(lp1630
g0
(g1
g2
(lp1631
Vflying
p1632
atp1633
Rp1634
(dp1635
g11
VVBG
p1636
sbag0
(g1
g2
(lp1637
g0
(g1
g2
(lp1638
Va
p1639
atp1640
Rp1641
(dp1642
g11
VDT
p1643
sbag0
(g1
g2
(lp1644
Vkite
p1645
atp1646
Rp1647
(dp1648
g11
VNN
p1649
sbatp1650
Rp1651
(dp1652
g11
VNP
p1653
sbatp1654
Rp1655
(dp1656
g11
VVP
p1657
sbag0
(g1
g2
(lp1658
V,
p1659
atp1660
Rp1661
(dp1662
g11
V,
p1663
sbag0
(g1
g2
(lp1664
g0
(g1
g2
(lp1665
Vlooks
p1666
atp1667
Rp1668
(dp1669
g11
VVBZ
p1670
sbatp1671
Rp1672
(dp1673
g11
VVP
p1674
sbag0
(g1
g2
(lp1675
g0
(g1
g2
(lp1676
Vlike
p1677
atp1678
Rp1679
(dp1680
g11
VIN
p1681
sbag0
(g1
g2
(lp1682
g0
(g1
g2
(lp1683
g0
(g1
g2
(lp1684
Vhe
p1685
atp1686
Rp1687
(dp1688
g11
VPRP
p1689
sbatp1690
Rp1691
(dp1692
g11
VNP
p1693
sbag0
(g1
g2
(lp1694
g0
(g1
g2
(lp1695
V's
p1696
atp1697
Rp1698
(dp1699
g11
VVBZ
p1700
sbag0
(g1
g2
(lp1701
g0
(g1
g2
(lp1702
Vreally
p1703
atp1704
Rp1705
(dp1706
g11
VRB
p1707
sbatp1708
Rp1709
(dp1710
g11
VADVP
p1711
sbag0
(g1
g2
(lp1712
g0
(g1
g2
(lp1713
Venjoying
p1714
atp1715
Rp1716
(dp1717
g11
VVBG
p1718
sbag0
(g1
g2
(lp1719
g0
(g1
g2
(lp1720
Vthe
p1721
atp1722
Rp1723
(dp1724
g11
VDT
p1725
sbag0
(g1
g2
(lp1726
Vkite
p1727
atp1728
Rp1729
(dp1730
g11
VNN
p1731
sbatp1732
Rp1733
(dp1734
g11
VNP
p1735
sbatp1736
Rp1737
(dp1738
g11
VVP
p1739
sbatp1740
Rp1741
(dp1742
g11
VVP
p1743
sbatp1744
Rp1745
(dp1746
g11
VS
p1747
sbatp1748
Rp1749
(dp1750
g11
VSBAR
p1751
sbatp1752
Rp1753
(dp1754
g11
VVP
p1755
sbatp1756
Rp1757
(dp1758
g11
VNP
p1759
sbatp1760
Rp1761
(dp1762
g11
VVP
p1763
sbag0
(g1
g2
(lp1764
V.
p1765
atp1766
Rp1767
(dp1768
g11
V.
p1769
sbatp1770
Rp1771
(dp1772
g11
VS
p1773
sbatp1774
Rp1775
(dp1776
g11
S'id: 10'
p1777
sbag0
(g1
g2
(lp1778
g0
(g1
g2
(lp1779
g0
(g1
g2
(lp1780
VAnd
p1781
atp1782
Rp1783
(dp1784
g11
VCC
p1785
sbag0
(g1
g2
(lp1786
g0
(g1
g2
(lp1787
Vhe
p1788
atp1789
Rp1790
(dp1791
g11
VPRP
p1792
sbatp1793
Rp1794
(dp1795
g11
VNP
p1796
sbag0
(g1
g2
(lp1797
g0
(g1
g2
(lp1798
Vhas
p1799
atp1800
Rp1801
(dp1802
g11
VVBZ
p1803
sbag0
(g1
g2
(lp1804
g0
(g1
g2
(lp1805
g0
(g1
g2
(lp1806
VI
p1807
atp1808
Rp1809
(dp1810
g11
VPRP
p1811
sbatp1812
Rp1813
(dp1814
g11
VNP
p1815
sbag0
(g1
g2
(lp1816
g0
(g1
g2
(lp1817
Vguess
p1818
atp1819
Rp1820
(dp1821
g11
VVB
p1822
sbag0
(g1
g2
(lp1823
g0
(g1
g2
(lp1824
Vhis
p1825
atp1826
Rp1827
(dp1828
g11
VPRP$
p1829
sbag0
(g1
g2
(lp1830
Vdog
p1831
atp1832
Rp1833
(dp1834
g11
VNN
p1835
sbatp1836
Rp1837
(dp1838
g11
VNP
p1839
sbag0
(g1
g2
(lp1840
g0
(g1
g2
(lp1841
Vwith
p1842
atp1843
Rp1844
(dp1845
g11
VIN
p1846
sbag0
(g1
g2
(lp1847
g0
(g1
g2
(lp1848
Vhim
p1849
atp1850
Rp1851
(dp1852
g11
VPRP
p1853
sbatp1854
Rp1855
(dp1856
g11
VNP
p1857
sbatp1858
Rp1859
(dp1860
g11
VPP
p1861
sbatp1862
Rp1863
(dp1864
g11
VVP
p1865
sbatp1866
Rp1867
(dp1868
g11
VS
p1869
sbatp1870
Rp1871
(dp1872
g11
VVP
p1873
sbag0
(g1
g2
(lp1874
V.
p1875
atp1876
Rp1877
(dp1878
g11
V.
p1879
sbatp1880
Rp1881
(dp1882
g11
VS
p1883
sbatp1884
Rp1885
(dp1886
g11
S'id: 11'
p1887
sbag0
(g1
g2
(lp1888
g0
(g1
g2
(lp1889
g0
(g1
g2
(lp1890
g0
(g1
g2
(lp1891
g0
(g1
g2
(lp1892
VDog
p1893
atp1894
Rp1895
(dp1896
g11
VNN
p1897
sbatp1898
Rp1899
(dp1900
g11
VNP
p1901
sbag0
(g1
g2
(lp1902
g0
(g1
g2
(lp1903
Vlooks
p1904
atp1905
Rp1906
(dp1907
g11
VVBZ
p1908
sbag0
(g1
g2
(lp1909
g0
(g1
g2
(lp1910
Vvery
p1911
atp1912
Rp1913
(dp1914
g11
VRB
p1915
sbag0
(g1
g2
(lp1916
Vhappy
p1917
atp1918
Rp1919
(dp1920
g11
VJJ
p1921
sbatp1922
Rp1923
(dp1924
g11
VADJP
p1925
sbatp1926
Rp1927
(dp1928
g11
VVP
p1929
sbatp1930
Rp1931
(dp1932
g11
VS
p1933
sbag0
(g1
g2
(lp1934
V,
p1935
atp1936
Rp1937
(dp1938
g11
V,
p1939
sbag0
(g1
g2
(lp1940
g0
(g1
g2
(lp1941
g0
(g1
g2
(lp1942
Vthe
p1943
atp1944
Rp1945
(dp1946
g11
VDT
p1947
sbag0
(g1
g2
(lp1948
Vboy
p1949
atp1950
Rp1951
(dp1952
g11
VNN
p1953
sbatp1954
Rp1955
(dp1956
g11
VNP
p1957
sbag0
(g1
g2
(lp1958
g0
(g1
g2
(lp1959
Vlooks
p1960
atp1961
Rp1962
(dp1963
g11
VVBZ
p1964
sbag0
(g1
g2
(lp1965
g0
(g1
g2
(lp1966
Vvery
p1967
atp1968
Rp1969
(dp1970
g11
VRB
p1971
sbag0
(g1
g2
(lp1972
Vhappy
p1973
atp1974
Rp1975
(dp1976
g11
VJJ
p1977
sbatp1978
Rp1979
(dp1980
g11
VADJP
p1981
sbatp1982
Rp1983
(dp1984
g11
VVP
p1985
sbatp1986
Rp1987
(dp1988
g11
VS
p1989
sbag0
(g1
g2
(lp1990
V,
p1991
atp1992
Rp1993
(dp1994
g11
V,
p1995
sbag0
(g1
g2
(lp1996
g0
(g1
g2
(lp1997
g0
(g1
g2
(lp1998
g0
(g1
g2
(lp1999
Veverybody
p2000
atp2001
Rp2002
(dp2003
g11
VNN
p2004
sbatp2005
Rp2006
(dp2007
g11
VNP
p2008
sbag0
(g1
g2
(lp2009
g0
(g1
g2
(lp2010
Vin
p2011
atp2012
Rp2013
(dp2014
g11
VIN
p2015
sbag0
(g1
g2
(lp2016
g0
(g1
g2
(lp2017
Vthe
p2018
atp2019
Rp2020
(dp2021
g11
VDT
p2022
sbag0
(g1
g2
(lp2023
Vpicture
p2024
atp2025
Rp2026
(dp2027
g11
VNN
p2028
sbatp2029
Rp2030
(dp2031
g11
VNP
p2032
sbatp2033
Rp2034
(dp2035
g11
VPP
p2036
sbatp2037
Rp2038
(dp2039
g11
VNP
p2040
sbag0
(g1
g2
(lp2041
g0
(g1
g2
(lp2042
Vlooks
p2043
atp2044
Rp2045
(dp2046
g11
VVBZ
p2047
sbag0
(g1
g2
(lp2048
g0
(g1
g2
(lp2049
Vreally
p2050
atp2051
Rp2052
(dp2053
g11
VRB
p2054
sbag0
(g1
g2
(lp2055
Vhappy
p2056
atp2057
Rp2058
(dp2059
g11
VJJ
p2060
sbatp2061
Rp2062
(dp2063
g11
VADJP
p2064
sbatp2065
Rp2066
(dp2067
g11
VVP
p2068
sbatp2069
Rp2070
(dp2071
g11
VS
p2072
sbag0
(g1
g2
(lp2073
V.
p2074
atp2075
Rp2076
(dp2077
g11
V.
p2078
sbatp2079
Rp2080
(dp2081
g11
VS
p2082
sbatp2083
Rp2084
(dp2085
g11
S'id: 12'
p2086
sbag0
(g1
g2
(lp2087
g0
(g1
g2
(lp2088
g0
(g1
g2
(lp2089
g0
(g1
g2
(lp2090
VIt
p2091
atp2092
Rp2093
(dp2094
g11
VPRP
p2095
sbatp2096
Rp2097
(dp2098
g11
VNP
p2099
sbag0
(g1
g2
(lp2100
g0
(g1
g2
(lp2101
V's
p2102
atp2103
Rp2104
(dp2105
g11
VVBZ
p2106
sbag0
(g1
g2
(lp2107
g0
(g1
g2
(lp2108
g0
(g1
g2
(lp2109
Va
p2110
atp2111
Rp2112
(dp2113
g11
VDT
p2114
sbag0
(g1
g2
(lp2115
Vnice
p2116
atp2117
Rp2118
(dp2119
g11
VJJ
p2120
sbag0
(g1
g2
(lp2121
Vdriveway
p2122
atp2123
Rp2124
(dp2125
g11
VNN
p2126
sbatp2127
Rp2128
(dp2129
g11
VNP
p2130
sbag0
(g1
g2
(lp2131
V,
p2132
atp2133
Rp2134
(dp2135
g11
V,
p2136
sbag0
(g1
g2
(lp2137
g0
(g1
g2
(lp2138
g0
(g1
g2
(lp2139
g0
(g1
g2
(lp2140
Vlooks
p2141
atp2142
Rp2143
(dp2144
g11
VVBZ
p2145
sbag0
(g1
g2
(lp2146
g0
(g1
g2
(lp2147
Vlike
p2148
atp2149
Rp2150
(dp2151
g11
VIN
p2152
sbag0
(g1
g2
(lp2153
g0
(g1
g2
(lp2154
g0
(g1
g2
(lp2155
Vit
p2156
atp2157
Rp2158
(dp2159
g11
VPRP
p2160
sbatp2161
Rp2162
(dp2163
g11
VNP
p2164
sbag0
(g1
g2
(lp2165
g0
(g1
g2
(lp2166
Vwould
p2167
atp2168
Rp2169
(dp2170
g11
VMD
p2171
sbag0
(g1
g2
(lp2172
g0
(g1
g2
(lp2173
Vbe
p2174
atp2175
Rp2176
(dp2177
g11
VVB
p2178
sbag0
(g1
g2
(lp2179
g0
(g1
g2
(lp2180
Va
p2181
atp2182
Rp2183
(dp2184
g11
VDT
p2185
sbag0
(g1
g2
(lp2186
g0
(g1
g2
(lp2187
Vreally
p2188
atp2189
Rp2190
(dp2191
g11
VRB
p2192
sbag0
(g1
g2
(lp2193
Vnice
p2194
atp2195
Rp2196
(dp2197
g11
VJJ
p2198
sbatp2199
Rp2200
(dp2201
g11
VADJP
p2202
sbag0
(g1
g2
(lp2203
Vsummer
p2204
atp2205
Rp2206
(dp2207
g11
VNN
p2208
sbag0
(g1
g2
(lp2209
Vday
p2210
atp2211
Rp2212
(dp2213
g11
VNN
p2214
sbatp2215
Rp2216
(dp2217
g11
VNP
p2218
sbatp2219
Rp2220
(dp2221
g11
VVP
p2222
sbatp2223
Rp2224
(dp2225
g11
VVP
p2226
sbatp2227
Rp2228
(dp2229
g11
VS
p2230
sbatp2231
Rp2232
(dp2233
g11
VSBAR
p2234
sbatp2235
Rp2236
(dp2237
g11
VVP
p2238
sbatp2239
Rp2240
(dp2241
g11
VS
p2242
sbatp2243
Rp2244
(dp2245
g11
VSBAR
p2246
sbatp2247
Rp2248
(dp2249
g11
VNP
p2250
sbatp2251
Rp2252
(dp2253
g11
VVP
p2254
sbag0
(g1
g2
(lp2255
V.
p2256
atp2257
Rp2258
(dp2259
g11
V.
p2260
sbatp2261
Rp2262
(dp2263
g11
VS
p2264
sbatp2265
Rp2266
(dp2267
g11
S'id: 13'
p2268
sbag0
(g1
g2
(lp2269
g0
(g1
g2
(lp2270
g0
(g1
g2
(lp2271
g0
(g1
g2
(lp2272
VThere
p2273
atp2274
Rp2275
(dp2276
g11
VEX
p2277
sbatp2278
Rp2279
(dp2280
g11
VNP
p2281
sbag0
(g1
g2
(lp2282
g0
(g1
g2
(lp2283
V's
p2284
atp2285
Rp2286
(dp2287
g11
VVBZ
p2288
sbag0
(g1
g2
(lp2289
g0
(g1
g2
(lp2290
g0
(g1
g2
(lp2291
Va
p2292
atp2293
Rp2294
(dp2295
g11
VDT
p2296
sbag0
(g1
g2
(lp2297
Vflag
p2298
atp2299
Rp2300
(dp2301
g11
VNN
p2302
sbatp2303
Rp2304
(dp2305
g11
VNP
p2306
sbag0
(g1
g2
(lp2307
g0
(g1
g2
(lp2308
Vflying
p2309
atp2310
Rp2311
(dp2312
g11
VVBG
p2313
sbag0
(g1
g2
(lp2314
g0
(g1
g2
(lp2315
Voutside
p2316
atp2317
Rp2318
(dp2319
g11
VIN
p2320
sbag0
(g1
g2
(lp2321
g0
(g1
g2
(lp2322
Vthe
p2323
atp2324
Rp2325
(dp2326
g11
VDT
p2327
sbag0
(g1
g2
(lp2328
Vhouse
p2329
atp2330
Rp2331
(dp2332
g11
VNN
p2333
sbatp2334
Rp2335
(dp2336
g11
VNP
p2337
sbatp2338
Rp2339
(dp2340
g11
VPP
p2341
sbatp2342
Rp2343
(dp2344
g11
VVP
p2345
sbatp2346
Rp2347
(dp2348
g11
VNP
p2349
sbatp2350
Rp2351
(dp2352
g11
VVP
p2353
sbag0
(g1
g2
(lp2354
V.
p2355
atp2356
Rp2357
(dp2358
g11
V.
p2359
sbatp2360
Rp2361
(dp2362
g11
VS
p2363
sbatp2364
Rp2365
(dp2366
g11
S'id: 14'
p2367
sbag0
(g1
g2
(lp2368
g0
(g1
g2
(lp2369
g0
(g1
g2
(lp2370
g0
(g1
g2
(lp2371
VNice
p2372
atp2373
Rp2374
(dp2375
g11
VJJ
p2376
sbag0
(g1
g2
(lp2377
Vshady
p2378
atp2379
Rp2380
(dp2381
g11
VJJ
p2382
sbag0
(g1
g2
(lp2383
Vtree
p2384
atp2385
Rp2386
(dp2387
g11
VNN
p2388
sbatp2389
Rp2390
(dp2391
g11
VNP
p2392
sbag0
(g1
g2
(lp2393
g0
(g1
g2
(lp2394
Vin
p2395
atp2396
Rp2397
(dp2398
g11
VIN
p2399
sbag0
(g1
g2
(lp2400
g0
(g1
g2
(lp2401
Vthe
p2402
atp2403
Rp2404
(dp2405
g11
VDT
p2406
sbag0
(g1
g2
(lp2407
Vyard
p2408
atp2409
Rp2410
(dp2411
g11
VNN
p2412
sbatp2413
Rp2414
(dp2415
g11
VNP
p2416
sbatp2417
Rp2418
(dp2419
g11
VPP
p2420
sbag0
(g1
g2
(lp2421
V.
p2422
atp2423
Rp2424
(dp2425
g11
V.
p2426
sbatp2427
Rp2428
(dp2429
g11
VNP
p2430
sbatp2431
Rp2432
(dp2433
g11
S'id: 15'
p2434
sbag0
(g1
g2
(lp2435
g0
(g1
g2
(lp2436
g0
(g1
g2
(lp2437
VAnd
p2438
atp2439
Rp2440
(dp2441
g11
VCC
p2442
sbag0
(g1
g2
(lp2443
g0
(g1
g2
(lp2444
Vthe
p2445
atp2446
Rp2447
(dp2448
g11
VDT
p2449
sbag0
(g1
g2
(lp2450
Vman
p2451
atp2452
Rp2453
(dp2454
g11
VNN
p2455
sbatp2456
Rp2457
(dp2458
g11
VNP
p2459
sbag0
(g1
g2
(lp2460
g0
(g1
g2
(lp2461
Vhas
p2462
atp2463
Rp2464
(dp2465
g11
VVBZ
p2466
sbag0
(g1
g2
(lp2467
g0
(g1
g2
(lp2468
Vhis
p2469
atp2470
Rp2471
(dp2472
g11
VPRP$
p2473
sbag0
(g1
g2
(lp2474
Vshoes
p2475
atp2476
Rp2477
(dp2478
g11
VNNS
p2479
sbatp2480
Rp2481
(dp2482
g11
VNP
p2483
sbag0
(g1
g2
(lp2484
g0
(g1
g2
(lp2485
Voff
p2486
atp2487
Rp2488
(dp2489
g11
VRP
p2490
sbatp2491
Rp2492
(dp2493
g11
VPP
p2494
sbatp2495
Rp2496
(dp2497
g11
VVP
p2498
sbag0
(g1
g2
(lp2499
V.
p2500
atp2501
Rp2502
(dp2503
g11
V.
p2504
sbatp2505
Rp2506
(dp2507
g11
VS
p2508
sbatp2509
Rp2510
(dp2511
g11
S'id: 16'
p2512
sbatp2513
Rp2514
(dp2515
g11
S'sentences'
p2516
sb.