ccopy_reg
_reconstructor
p0
(cnltk.tree
Tree
p1
c__builtin__
list
p2
(lp3
g0
(g1
g2
(lp4
g0
(g1
g2
(lp5
g0
(g1
g2
(lp6
(lp7
S'word: the, index: 1'
p8
aatp9
Rp10
(dp11
S'_label'
p12
Vdet
p13
sbag0
(g1
g2
(lp14
g0
(g1
g2
(lp15
g0
(g1
g2
(lp16
g0
(g1
g2
(lp17
g0
(g1
g2
(lp18
g0
(g1
g2
(lp19
g0
(g1
g2
(lp20
(lp21
S'word: all, index: 5'
p22
aatp23
Rp24
(dp25
g12
Vdep
p26
sbatp27
Rp28
(dp29
g12
S'word: over, index: 6'
p30
sbatp31
Rp32
(dp33
g12
Vadvmod
p34
sbag0
(g1
g2
(lp35
(lp36
S'word: over, index: 10'
p37
aatp38
Rp39
(dp40
g12
Vdep
p41
sbag0
(g1
g2
(lp42
g0
(g1
g2
(lp43
g0
(g1
g2
(lp44
(lp45
S'word: the, index: 12'
p46
aatp47
Rp48
(dp49
g12
Vdet
p50
sbatp51
Rp52
(dp53
g12
S'word: kids, index: 13'
p54
sbatp55
Rp56
(dp57
g12
Vprep
p58
sbatp59
Rp60
(dp61
g12
S'word: confetti, index: 4'
p62
sbatp63
Rp64
(dp65
g12
Vdobj
p66
sbatp67
Rp68
(dp69
g12
S'word: spreading, index: 3'
p70
sbatp71
Rp72
(dp73
g12
Vvmod
p74
sbatp75
Rp76
(dp77
g12
S'word: clowns, index: 2'
p78
sbatp79
Rp80
(dp81
g12
S'id: 0'
p82
sbag0
(g1
g2
(lp83
g0
(g1
g2
(lp84
g0
(g1
g2
(lp85
g0
(g1
g2
(lp86
g0
(g1
g2
(lp87
(lp88
S'word: the, index: 2'
p89
aatp90
Rp91
(dp92
g12
Vdet
p93
sbatp94
Rp95
(dp96
g12
S'word: kids, index: 3'
p97
sbatp98
Rp99
(dp100
g12
Vnsubj
p101
sbag0
(g1
g2
(lp102
(lp103
S'word: are, index: 4'
p104
aatp105
Rp106
(dp107
g12
Vcop
p108
sbag0
(g1
g2
(lp109
(lp110
S'word: it, index: 7'
p111
aatp112
Rp113
(dp114
g12
Vprep
p115
sbag0
(g1
g2
(lp116
g0
(g1
g2
(lp117
g0
(g1
g2
(lp118
g0
(g1
g2
(lp119
g0
(g1
g2
(lp120
(lp121
S'word: the, index: 10'
p122
aatp123
Rp124
(dp125
g12
Vdet
p126
sbatp127
Rp128
(dp129
g12
S'word: clowns, index: 11'
p130
sbatp131
Rp132
(dp133
g12
Vnsubjpass
p134
sbag0
(g1
g2
(lp135
(lp136
S'word: are, index: 12'
p137
aatp138
Rp139
(dp140
g12
Vauxpass
p141
sbag0
(g1
g2
(lp142
g0
(g1
g2
(lp143
g0
(g1
g2
(lp144
(lp145
S'word: like, index: 15'
p146
aatp147
Rp148
(dp149
g12
Vpcomp
p150
sbatp151
Rp152
(dp153
g12
S'word: in, index: 14'
p154
sbatp155
Rp156
(dp157
g12
Vprep
p158
sbag0
(g1
g2
(lp159
(lp160
S'word: like, index: 17'
p161
aatp162
Rp163
(dp164
g12
Vprep
p165
sbatp166
Rp167
(dp168
g12
S'word: dressed, index: 13'
p169
sbatp170
Rp171
(dp172
g12
Vconj
p173
sbatp174
Rp175
(dp176
g12
S'word: happy, index: 5'
p177
sbatp178
Rp179
(dp180
g12
S'id: 1'
p181
sbag0
(g1
g2
(lp182
g0
(g1
g2
(lp183
g0
(g1
g2
(lp184
g0
(g1
g2
(lp185
g0
(g1
g2
(lp186
(lp187
S'word: they, index: 23'
p188
aatp189
Rp190
(dp191
g12
Vnsubj
p192
sbag0
(g1
g2
(lp193
(lp194
S"word: 've, index: 24"
p195
aatp196
Rp197
(dp198
g12
Vaux
p199
sbag0
(g1
g2
(lp200
(lp201
S'word: makeup, index: 26'
p202
aatp203
Rp204
(dp205
g12
Vdobj
p206
sbag0
(g1
g2
(lp207
(lp208
S'word: on, index: 27'
p209
aatp210
Rp211
(dp212
g12
Vprep
p213
sbag0
(g1
g2
(lp214
g0
(g1
g2
(lp215
g0
(g1
g2
(lp216
(lp217
S'word: the, index: 29'
p218
aatp219
Rp220
(dp221
g12
Vdet
p222
sbag0
(g1
g2
(lp223
(lp224
S'word: on, index: 31'
p225
aatp226
Rp227
(dp228
g12
Vprep
p229
sbatp230
Rp231
(dp232
g12
S'word: nose, index: 30'
p233
sbatp234
Rp235
(dp236
g12
Vconj
p237
sbatp238
Rp239
(dp240
g12
S'word: got, index: 25'
p241
sbatp242
Rp243
(dp244
g12
Vconj
p245
sbag0
(g1
g2
(lp246
g0
(g1
g2
(lp247
g0
(g1
g2
(lp248
g0
(g1
g2
(lp249
g0
(g1
g2
(lp250
(lp251
S'word: their, index: 12'
p252
aatp253
Rp254
(dp255
g12
Vposs
p256
sbag0
(g1
g2
(lp257
g0
(g1
g2
(lp258
g0
(g1
g2
(lp259
g0
(g1
g2
(lp260
g0
(g1
g2
(lp261
(lp262
S'word: the, index: 17'
p263
aatp264
Rp265
(dp266
g12
Vdet
p267
sbatp268
Rp269
(dp270
g12
S'word: head, index: 18'
p271
sbatp272
Rp273
(dp274
g12
Vprep
p275
sbatp276
Rp277
(dp278
g12
S'word: hats, index: 15'
p279
sbatp280
Rp281
(dp282
g12
Vappos
p283
sbatp284
Rp285
(dp286
g12
S'word: head, index: 13'
p287
sbatp288
Rp289
(dp290
g12
Vprep
p291
sbatp292
Rp293
(dp294
g12
S'word: hats, index: 10'
p295
sbatp296
Rp297
(dp298
g12
Vdobj
p299
sbag0
(g1
g2
(lp300
g231
atp301
Rp302
(dp303
g12
Vconj
p304
sbag0
(g1
g2
(lp305
(lp306
S'word: they, index: 2'
p307
aatp308
Rp309
(dp310
g12
Vnsubj
p311
sbag0
(g1
g2
(lp312
g0
(g1
g2
(lp313
g0
(g1
g2
(lp314
g0
(g1
g2
(lp315
g0
(g1
g2
(lp316
(lp317
S'word: their, index: 6'
p318
aatp319
Rp320
(dp321
g12
Vposs
p322
sbatp323
Rp324
(dp325
g12
S'word: hands, index: 7'
p326
sbatp327
Rp328
(dp329
g12
Vprep
p330
sbag0
(g1
g2
(lp331
g293
atp332
Rp333
(dp334
g12
Vconj
p335
sbatp336
Rp337
(dp338
g12
S'word: gloves, index: 4'
p339
sbatp340
Rp341
(dp342
g12
Vdobj
p343
sbatp344
Rp345
(dp346
g12
S'word: have, index: 3'
p347
sbatp348
Rp349
(dp350
g12
S'id: 2'
p351
sbag0
(g1
g2
(lp352
tp353
Rp354
(dp355
g12
S'id: 3'
p356
sbag0
(g1
g2
(lp357
g0
(g1
g2
(lp358
g0
(g1
g2
(lp359
g0
(g1
g2
(lp360
g0
(g1
g2
(lp361
g0
(g1
g2
(lp362
g0
(g1
g2
(lp363
(lp364
S'word: and, index: 9'
p365
aatp366
Rp367
(dp368
g12
Vcc
p369
sbag0
(g1
g2
(lp370
(lp371
S'word: he, index: 10'
p372
aatp373
Rp374
(dp375
g12
Vnsubj
p376
sbag0
(g1
g2
(lp377
(lp378
S"word: 's, index: 11"
p379
aatp380
Rp381
(dp382
g12
Vcop
p383
sbatp384
Rp385
(dp386
g12
S'word: a, index: 12'
p387
sbatp388
Rp389
(dp390
g12
Vparataxis
p391
sbag0
(g1
g2
(lp392
(lp393
S'word: he, index: 14'
p394
aatp395
Rp396
(dp397
g12
Vnsubj
p398
sbag0
(g1
g2
(lp399
(lp400
S"word: 's, index: 15"
p401
aatp402
Rp403
(dp404
g12
Vcop
p405
sbag0
(g1
g2
(lp406
g0
(g1
g2
(lp407
g0
(g1
g2
(lp408
(lp409
S'word: the, index: 2'
p410
aatp411
Rp412
(dp413
g12
Vdet
p414
sbag0
(g1
g2
(lp415
g0
(g1
g2
(lp416
g0
(g1
g2
(lp417
(lp418
S'word: a, index: 6'
p419
aatp420
Rp421
(dp422
g12
Vdet
p423
sbatp424
Rp425
(dp426
g12
S'word: cage, index: 7'
p427
sbatp428
Rp429
(dp430
g12
Vprep
p431
sbatp432
Rp433
(dp434
g12
S'word: lion, index: 3'
p435
sbatp436
Rp437
(dp438
g12
Vprep
p439
sbatp440
Rp441
(dp442
g12
S'word: a, index: 16'
p443
sbatp444
Rp445
(dp446
g12
Vccomp
p447
sbag0
(g1
g2
(lp448
(lp449
S'word: he, index: 18'
p450
aatp451
Rp452
(dp453
g12
Vnsubj
p454
sbatp455
Rp456
(dp457
g12
S"word: 's, index: 19"
p458
sbatp459
Rp460
(dp461
g12
S'id: 4'
p462
sbag0
(g1
g2
(lp463
g0
(g1
g2
(lp464
g0
(g1
g2
(lp465
(lp466
S'word: there, index: 3'
p467
aatp468
Rp469
(dp470
g12
Vdep
p471
sbag0
(g1
g2
(lp472
g0
(g1
g2
(lp473
g0
(g1
g2
(lp474
g0
(g1
g2
(lp475
g0
(g1
g2
(lp476
(lp477
S'word: where, index: 16'
p478
aatp479
Rp480
(dp481
g12
Vadvmod
p482
sbag0
(g1
g2
(lp483
(lp484
S'word: they, index: 17'
p485
aatp486
Rp487
(dp488
g12
Vnsubj
p489
sbag0
(g1
g2
(lp490
g0
(g1
g2
(lp491
g0
(g1
g2
(lp492
(lp493
S'word: they, index: 21'
p494
aatp495
Rp496
(dp497
g12
Vnsubj
p498
sbag0
(g1
g2
(lp499
(lp500
S'word: leotards, index: 24'
p501
aatp502
Rp503
(dp504
g12
Vprep
p505
sbatp506
Rp507
(dp508
g12
S'word: walk, index: 22'
p509
sbatp510
Rp511
(dp512
g12
Vconj
p513
sbatp514
Rp515
(dp516
g12
S'word: walk, index: 18'
p517
sbatp518
Rp519
(dp520
g12
Vdep
p521
sbag0
(g1
g2
(lp522
g0
(g1
g2
(lp523
g0
(g1
g2
(lp524
g0
(g1
g2
(lp525
g0
(g1
g2
(lp526
(lp527
S'word: nother, index: 7'
p528
aatp529
Rp530
(dp531
g12
Vadvmod
p532
sbag0
(g1
g2
(lp533
(lp534
S'word: poles, index: 9'
p535
aatp536
Rp537
(dp538
g12
Vdep
p539
sbatp540
Rp541
(dp542
g12
S'word: there, index: 8'
p543
sbatp544
Rp545
(dp546
g12
Vappos
p547
sbatp548
Rp549
(dp550
g12
S'word: there, index: 5'
p551
sbatp552
Rp553
(dp554
g12
Vnpadvmod
p555
sbag0
(g1
g2
(lp556
g507
atp557
Rp558
(dp559
g12
Vdep
p560
sbag0
(g1
g2
(lp561
g0
(g1
g2
(lp562
g0
(g1
g2
(lp563
(lp564
S'word: the, index: 11'
p565
aatp566
Rp567
(dp568
g12
Vdet
p569
sbag0
(g1
g2
(lp570
(lp571
S'word: the, index: 14'
p572
aatp573
Rp574
(dp575
g12
Vdep
p576
sbatp577
Rp578
(dp579
g12
S'word: on, index: 13'
p580
sbatp581
Rp582
(dp583
g12
Vpobj
p584
sbatp585
Rp586
(dp587
g12
S'word: on, index: 10'
p588
sbatp589
Rp590
(dp591
g12
Vprep
p592
sbatp593
Rp594
(dp595
g12
S'word: There, index: 1'
p596
sbatp597
Rp598
(dp599
g12
S'id: 5'
p600
sbag0
(g1
g2
(lp601
g0
(g1
g2
(lp602
g0
(g1
g2
(lp603
g0
(g1
g2
(lp604
g0
(g1
g2
(lp605
(lp606
S'word: their, index: 2'
p607
aatp608
Rp609
(dp610
g12
Vposs
p611
sbatp612
Rp613
(dp614
g12
S'word: horses, index: 3'
p615
sbatp616
Rp617
(dp618
g12
Vnsubj
p619
sbag0
(g1
g2
(lp620
g0
(g1
g2
(lp621
g0
(g1
g2
(lp622
(lp623
S'word: to, index: 6'
p624
aatp625
Rp626
(dp627
g12
Vpcomp
p628
sbatp629
Rp630
(dp631
g12
S'word: in, index: 5'
p632
sbatp633
Rp634
(dp635
g12
Vprep
p636
sbag0
(g1
g2
(lp637
g0
(g1
g2
(lp638
g0
(g1
g2
(lp639
(lp640
S'word: their, index: 9'
p641
aatp642
Rp643
(dp644
g12
Vnsubj
p645
sbag0
(g1
g2
(lp646
g0
(g1
g2
(lp647
g0
(g1
g2
(lp648
g0
(g1
g2
(lp649
g0
(g1
g2
(lp650
(lp651
S'word: ballet, index: 16'
p652
aatp653
Rp654
(dp655
g12
Vprep
p656
sbatp657
Rp658
(dp659
g12
S'word: leotards, index: 14'
p660
sbatp661
Rp662
(dp663
g12
Vappos
p664
sbatp665
Rp666
(dp667
g12
S'word: leotard, index: 12'
p668
sbatp669
Rp670
(dp671
g12
Vprep
p672
sbatp673
Rp674
(dp675
g12
S'word: dressed, index: 10'
p676
sbatp677
Rp678
(dp679
g12
Vconj
p680
sbatp681
Rp682
(dp683
g12
S'word: are, index: 4'
p684
sbatp685
Rp686
(dp687
g12
S'id: 6'
p688
sbag0
(g1
g2
(lp689
tp690
Rp691
(dp692
g12
S'id: 7'
p693
sbag0
(g1
g2
(lp694
g0
(g1
g2
(lp695
g0
(g1
g2
(lp696
g0
(g1
g2
(lp697
g0
(g1
g2
(lp698
(lp699
S'word: a, index: 12'
p700
aatp701
Rp702
(dp703
g12
Vdet
p704
sbag0
(g1
g2
(lp705
g0
(g1
g2
(lp706
g0
(g1
g2
(lp707
(lp708
S'word: no, index: 15'
p709
aatp710
Rp711
(dp712
g12
Vneg
p713
sbag0
(g1
g2
(lp714
(lp715
S'word: a, index: 16'
p716
aatp717
Rp718
(dp719
g12
Vdet
p720
sbag0
(g1
g2
(lp721
(lp722
S'word: the, index: 19'
p723
aatp724
Rp725
(dp726
g12
Vprep
p727
sbatp728
Rp729
(dp730
g12
S'word: coat, index: 17'
p731
sbatp732
Rp733
(dp734
g12
Vappos
p735
sbatp736
Rp737
(dp738
g12
S'word: coat, index: 13'
p739
sbatp740
Rp741
(dp742
g12
Vconj
p743
sbag0
(g1
g2
(lp744
(lp745
S'word: He, index: 1'
p746
aatp747
Rp748
(dp749
g12
Vnsubj
p750
sbag0
(g1
g2
(lp751
(lp752
S"word: 's, index: 2"
p753
aatp754
Rp755
(dp756
g12
Vcop
p757
sbag0
(g1
g2
(lp758
g0
(g1
g2
(lp759
g0
(g1
g2
(lp760
(lp761
S'word: long, index: 8'
p762
aatp763
Rp764
(dp765
g12
Vadvmod
p766
sbag0
(g1
g2
(lp767
(lp768
S'word: pants, index: 9'
p769
aatp770
Rp771
(dp772
g12
Vdep
p773
sbag0
(g1
g2
(lp774
(lp775
S'word: and, index: 7'
p776
aatp777
Rp778
(dp779
g12
Vcc
p780
sbatp781
Rp782
(dp783
g12
S'word: pants, index: 5'
p784
sbatp785
Rp786
(dp787
g12
Vprep
p788
sbatp789
Rp790
(dp791
g12
S'word: Got, index: 3'
p792
sbatp793
Rp794
(dp795
g12
S'id: 8'
p796
sbatp797
Rp798
(dp799
g12
S'sentences'
p800
sb.