ccopy_reg
_reconstructor
p0
(cnltk.tree
Tree
p1
c__builtin__
list
p2
(lp3
g0
(g1
g2
(lp4
g0
(g1
g2
(lp5
g0
(g1
g2
(lp6
g0
(g1
g2
(lp7
Vthan
p8
atp9
Rp10
(dp11
S'_label'
p12
VIN
p13
sbatp14
Rp15
(dp16
g12
VADVP
p17
sbag0
(g1
g2
(lp18
V.
p19
atp20
Rp21
(dp22
g12
V.
p23
sbatp24
Rp25
(dp26
g12
VFRAG
p27
sbatp28
Rp29
(dp30
g12
S'id: 0'
p31
sbag0
(g1
g2
(lp32
g0
(g1
g2
(lp33
g0
(g1
g2
(lp34
g0
(g1
g2
(lp35
VGod
p36
atp37
Rp38
(dp39
g12
VNNP
p40
sbatp41
Rp42
(dp43
g12
VNP
p44
sbag0
(g1
g2
(lp45
V.
p46
atp47
Rp48
(dp49
g12
V.
p50
sbatp51
Rp52
(dp53
g12
VFRAG
p54
sbatp55
Rp56
(dp57
g12
S'id: 1'
p58
sbag0
(g1
g2
(lp59
g0
(g1
g2
(lp60
g0
(g1
g2
(lp61
VMan
p62
atp63
Rp64
(dp65
g12
VNN
p66
sbag0
(g1
g2
(lp67
V.
p68
atp69
Rp70
(dp71
g12
V.
p72
sbatp73
Rp74
(dp75
g12
VNP
p76
sbatp77
Rp78
(dp79
g12
S'id: 2'
p80
sbag0
(g1
g2
(lp81
g0
(g1
g2
(lp82
g0
(g1
g2
(lp83
g0
(g1
g2
(lp84
VOver
p85
atp86
Rp87
(dp88
g12
VIN
p89
sbag0
(g1
g2
(lp90
g0
(g1
g2
(lp91
Vby
p92
atp93
Rp94
(dp95
g12
VIN
p96
sbag0
(g1
g2
(lp97
g0
(g1
g2
(lp98
Vthere
p99
atp100
Rp101
(dp102
g12
VRB
p103
sbatp104
Rp105
(dp106
g12
VNP
p107
sbatp108
Rp109
(dp110
g12
VPP
p111
sbatp112
Rp113
(dp114
g12
VPP
p115
sbag0
(g1
g2
(lp116
V.
p117
atp118
Rp119
(dp120
g12
V.
p121
sbatp122
Rp123
(dp124
g12
VFRAG
p125
sbatp126
Rp127
(dp128
g12
S'id: 3'
p129
sbag0
(g1
g2
(lp130
g0
(g1
g2
(lp131
g0
(g1
g2
(lp132
g0
(g1
g2
(lp133
VThey
p134
atp135
Rp136
(dp137
g12
VPRP
p138
sbatp139
Rp140
(dp141
g12
VNP
p142
sbag0
(g1
g2
(lp143
V.
p144
atp145
Rp146
(dp147
g12
V.
p148
sbatp149
Rp150
(dp151
g12
VFRAG
p152
sbatp153
Rp154
(dp155
g12
S'id: 4'
p156
sbag0
(g1
g2
(lp157
g0
(g1
g2
(lp158
g0
(g1
g2
(lp159
g0
(g1
g2
(lp160
VArt
p161
atp162
Rp163
(dp164
g12
VNNP
p165
sbatp166
Rp167
(dp168
g12
VNP
p169
sbag0
(g1
g2
(lp170
g0
(g1
g2
(lp171
Vno
p172
atp173
Rp174
(dp175
g12
VDT
p176
sbatp177
Rp178
(dp179
g12
VNP
p180
sbag0
(g1
g2
(lp181
V.
p182
atp183
Rp184
(dp185
g12
V.
p186
sbatp187
Rp188
(dp189
g12
VNP
p190
sbatp191
Rp192
(dp193
g12
S'id: 5'
p194
sbag0
(g1
g2
(lp195
g0
(g1
g2
(lp196
g0
(g1
g2
(lp197
g0
(g1
g2
(lp198
VArt
p199
atp200
Rp201
(dp202
g12
VNNP
p203
sbatp204
Rp205
(dp206
g12
VNP
p207
sbag0
(g1
g2
(lp208
g0
(g1
g2
(lp209
Vno
p210
atp211
Rp212
(dp213
g12
VDT
p214
sbatp215
Rp216
(dp217
g12
VNP
p218
sbag0
(g1
g2
(lp219
V.
p220
atp221
Rp222
(dp223
g12
V.
p224
sbatp225
Rp226
(dp227
g12
VNP
p228
sbatp229
Rp230
(dp231
g12
S'id: 6'
p232
sbag0
(g1
g2
(lp233
g0
(g1
g2
(lp234
g0
(g1
g2
(lp235
g0
(g1
g2
(lp236
VArt
p237
atp238
Rp239
(dp240
g12
VNNP
p241
sbatp242
Rp243
(dp244
g12
VNP
p245
sbag0
(g1
g2
(lp246
V.
p247
atp248
Rp249
(dp250
g12
V.
p251
sbatp252
Rp253
(dp254
g12
VFRAG
p255
sbatp256
Rp257
(dp258
g12
S'id: 7'
p259
sbag0
(g1
g2
(lp260
g0
(g1
g2
(lp261
g0
(g1
g2
(lp262
g0
(g1
g2
(lp263
VRight
p264
atp265
Rp266
(dp267
g12
VRB
p268
sbag0
(g1
g2
(lp269
Vthere
p270
atp271
Rp272
(dp273
g12
VRB
p274
sbatp275
Rp276
(dp277
g12
VADVP
p278
sbag0
(g1
g2
(lp279
V.
p280
atp281
Rp282
(dp283
g12
V.
p284
sbatp285
Rp286
(dp287
g12
VFRAG
p288
sbatp289
Rp290
(dp291
g12
S'id: 8'
p292
sbag0
(g1
g2
(lp293
g0
(g1
g2
(lp294
g0
(g1
g2
(lp295
g0
(g1
g2
(lp296
VLike
p297
atp298
Rp299
(dp300
g12
VIN
p301
sbag0
(g1
g2
(lp302
g0
(g1
g2
(lp303
Va
p304
atp305
Rp306
(dp307
g12
VDT
p308
sbag0
(g1
g2
(lp309
Vyeah
p310
atp311
Rp312
(dp313
g12
VNN
p314
sbatp315
Rp316
(dp317
g12
VNP
p318
sbatp319
Rp320
(dp321
g12
VPP
p322
sbag0
(g1
g2
(lp323
V.
p324
atp325
Rp326
(dp327
g12
V.
p328
sbatp329
Rp330
(dp331
g12
VFRAG
p332
sbatp333
Rp334
(dp335
g12
S'id: 9'
p336
sbag0
(g1
g2
(lp337
g0
(g1
g2
(lp338
g0
(g1
g2
(lp339
g0
(g1
g2
(lp340
VThat
p341
atp342
Rp343
(dp344
g12
VDT
p345
sbag0
(g1
g2
(lp346
Vbook
p347
atp348
Rp349
(dp350
g12
VNN
p351
sbatp352
Rp353
(dp354
g12
VNP
p355
sbag0
(g1
g2
(lp356
V,
p357
atp358
Rp359
(dp360
g12
V,
p361
sbag0
(g1
g2
(lp362
g0
(g1
g2
(lp363
Vbook
p364
atp365
Rp366
(dp367
g12
VNN
p368
sbatp369
Rp370
(dp371
g12
VNP
p372
sbag0
(g1
g2
(lp373
V.
p374
atp375
Rp376
(dp377
g12
V.
p378
sbatp379
Rp380
(dp381
g12
VNP
p382
sbatp383
Rp384
(dp385
g12
S'id: 10'
p386
sbag0
(g1
g2
(lp387
g0
(g1
g2
(lp388
g0
(g1
g2
(lp389
g0
(g1
g2
(lp390
VHard
p391
atp392
Rp393
(dp394
g12
VJJ
p395
sbatp396
Rp397
(dp398
g12
VADJP
p399
sbag0
(g1
g2
(lp400
V.
p401
atp402
Rp403
(dp404
g12
V.
p405
sbatp406
Rp407
(dp408
g12
VFRAG
p409
sbatp410
Rp411
(dp412
g12
S'id: 11'
p413
sbag0
(g1
g2
(lp414
g0
(g1
g2
(lp415
g0
(g1
g2
(lp416
g0
(g1
g2
(lp417
VNo
p418
atp419
Rp420
(dp421
g12
VDT
p422
sbatp423
Rp424
(dp425
g12
VNP
p426
sbag0
(g1
g2
(lp427
V.
p428
atp429
Rp430
(dp431
g12
V.
p432
sbatp433
Rp434
(dp435
g12
VFRAG
p436
sbatp437
Rp438
(dp439
g12
S'id: 12'
p440
sbag0
(g1
g2
(lp441
g0
(g1
g2
(lp442
g0
(g1
g2
(lp443
g0
(g1
g2
(lp444
VArt
p445
atp446
Rp447
(dp448
g12
VNNP
p449
sbatp450
Rp451
(dp452
g12
VNP
p453
sbag0
(g1
g2
(lp454
g0
(g1
g2
(lp455
Vno
p456
atp457
Rp458
(dp459
g12
VDT
p460
sbatp461
Rp462
(dp463
g12
VNP
p464
sbag0
(g1
g2
(lp465
V.
p466
atp467
Rp468
(dp469
g12
V.
p470
sbatp471
Rp472
(dp473
g12
VNP
p474
sbatp475
Rp476
(dp477
g12
S'id: 13'
p478
sbag0
(g1
g2
(lp479
g0
(g1
g2
(lp480
g0
(g1
g2
(lp481
VMan
p482
atp483
Rp484
(dp485
g12
VNN
p486
sbag0
(g1
g2
(lp487
V.
p488
atp489
Rp490
(dp491
g12
V.
p492
sbatp493
Rp494
(dp495
g12
VNP
p496
sbatp497
Rp498
(dp499
g12
S'id: 14'
p500
sbatp501
Rp502
(dp503
g12
S'sentences'
p504
sb.