ccopy_reg
_reconstructor
p0
(cnltk.tree
Tree
p1
c__builtin__
list
p2
(lp3
g0
(g1
g2
(lp4
g0
(g1
g2
(lp5
g0
(g1
g2
(lp6
Vit
p7
atp8
Rp9
(dp10
S'_label'
p11
S'start: 1'
p12
sbatp13
Rp14
(dp15
g11
S'sent: 2'
p16
sbag0
(g1
g2
(lp17
g0
(g1
g2
(lp18
Vit
p19
atp20
Rp21
(dp22
g11
S'start: 5'
p23
sbatp24
Rp25
(dp26
g11
S'sent: 3'
p27
sbatp28
Rp29
(dp30
g11
S'id: 1'
p31
sbag0
(g1
g2
(lp32
g0
(g1
g2
(lp33
g0
(g1
g2
(lp34
Va
p35
atp36
Rp37
(dp38
g11
S'start: 4'
p39
sbatp40
Rp41
(dp42
g11
S'sent: 4'
p43
sbag0
(g1
g2
(lp44
g0
(g1
g2
(lp45
Vits
p46
atp47
Rp48
(dp49
g11
S'start: 11'
p50
sbatp51
Rp52
(dp53
g11
S'sent: 4'
p54
sbatp55
Rp56
(dp57
g11
S'id: 5'
p58
sbag0
(g1
g2
(lp59
g0
(g1
g2
(lp60
g0
(g1
g2
(lp61
Va cookie .
p62
atp63
Rp64
(dp65
g11
S'start: 1'
p66
sbatp67
Rp68
(dp69
g11
S'sent: 5'
p70
sbag0
(g1
g2
(lp71
g0
(g1
g2
(lp72
Vthat
p73
atp74
Rp75
(dp76
g11
S'start: 1'
p77
sbatp78
Rp79
(dp80
g11
S'sent: 6'
p81
sbag0
(g1
g2
(lp82
g0
(g1
g2
(lp83
Vit
p84
atp85
Rp86
(dp87
g11
S'start: 3'
p88
sbatp89
Rp90
(dp91
g11
S'sent: 6'
p92
sbag0
(g1
g2
(lp93
g0
(g1
g2
(lp94
Vcookie .
p95
atp96
Rp97
(dp98
g11
S'start: 1'
p99
sbatp100
Rp101
(dp102
g11
S'sent: 7'
p103
sbag0
(g1
g2
(lp104
g0
(g1
g2
(lp105
Vthat
p106
atp107
Rp108
(dp109
g11
S'start: 1'
p110
sbatp111
Rp112
(dp113
g11
S'sent: 8'
p114
sbag0
(g1
g2
(lp115
g0
(g1
g2
(lp116
Vit
p117
atp118
Rp119
(dp120
g11
S'start: 3'
p121
sbatp122
Rp123
(dp124
g11
S'sent: 8'
p125
sbatp126
Rp127
(dp128
g11
S'id: 9'
p129
sbatp130
Rp131
(dp132
g11
S'coreferences'
p133
sb.