ccopy_reg
_reconstructor
p0
(cnltk.tree
Tree
p1
c__builtin__
list
p2
(lp3
g0
(g1
g2
(lp4
g0
(g1
g2
(lp5
g0
(g1
g2
(lp6
g0
(g1
g2
(lp7
g0
(g1
g2
(lp8
VBoy
p9
atp10
Rp11
(dp12
S'_label'
p13
VNN
p14
sbatp15
Rp16
(dp17
g13
VNP
p18
sbag0
(g1
g2
(lp19
Vand
p20
atp21
Rp22
(dp23
g13
VCC
p24
sbag0
(g1
g2
(lp25
g0
(g1
g2
(lp26
Vgirl
p27
atp28
Rp29
(dp30
g13
VNN
p31
sbatp32
Rp33
(dp34
g13
VNP
p35
sbatp36
Rp37
(dp38
g13
VNP
p39
sbag0
(g1
g2
(lp40
V.
p41
atp42
Rp43
(dp44
g13
V.
p45
sbatp46
Rp47
(dp48
g13
VNP
p49
sbatp50
Rp51
(dp52
g13
S'id: 0'
p53
sbag0
(g1
g2
(lp54
g0
(g1
g2
(lp55
g0
(g1
g2
(lp56
g0
(g1
g2
(lp57
VWhat
p58
atp59
Rp60
(dp61
g13
VWDT
p62
sbatp63
Rp64
(dp65
g13
VWHNP
p66
sbag0
(g1
g2
(lp67
V.
p68
atp69
Rp70
(dp71
g13
V.
p72
sbatp73
Rp74
(dp75
g13
VFRAG
p76
sbatp77
Rp78
(dp79
g13
S'id: 1'
p80
sbag0
(g1
g2
(lp81
g0
(g1
g2
(lp82
g0
(g1
g2
(lp83
Vpet
p84
atp85
Rp86
(dp87
g13
VNN
p88
sbag0
(g1
g2
(lp89
V.
p90
atp91
Rp92
(dp93
g13
V.
p94
sbatp95
Rp96
(dp97
g13
VNP
p98
sbatp99
Rp100
(dp101
g13
S'id: 2'
p102
sbag0
(g1
g2
(lp103
g0
(g1
g2
(lp104
g0
(g1
g2
(lp105
g0
(g1
g2
(lp106
VDog
p107
atp108
Rp109
(dp110
g13
VNN
p111
sbatp112
Rp113
(dp114
g13
VNP
p115
sbag0
(g1
g2
(lp116
V,
p117
atp118
Rp119
(dp120
g13
V,
p121
sbag0
(g1
g2
(lp122
g0
(g1
g2
(lp123
Vdog
p124
atp125
Rp126
(dp127
g13
VNN
p128
sbatp129
Rp130
(dp131
g13
VNP
p132
sbag0
(g1
g2
(lp133
V.
p134
atp135
Rp136
(dp137
g13
V.
p138
sbatp139
Rp140
(dp141
g13
VNP
p142
sbatp143
Rp144
(dp145
g13
S'id: 3'
p146
sbag0
(g1
g2
(lp147
g0
(g1
g2
(lp148
g0
(g1
g2
(lp149
g0
(g1
g2
(lp150
g0
(g1
g2
(lp151
VBoy
p152
atp153
Rp154
(dp155
g13
VNN
p156
sbatp157
Rp158
(dp159
g13
VNP
p160
sbag0
(g1
g2
(lp161
Vand
p162
atp163
Rp164
(dp165
g13
VCC
p166
sbag0
(g1
g2
(lp167
g0
(g1
g2
(lp168
Vgirl
p169
atp170
Rp171
(dp172
g13
VNN
p173
sbatp174
Rp175
(dp176
g13
VNP
p177
sbatp178
Rp179
(dp180
g13
VNP
p181
sbag0
(g1
g2
(lp182
V.
p183
atp184
Rp185
(dp186
g13
V.
p187
sbatp188
Rp189
(dp190
g13
VNP
p191
sbatp192
Rp193
(dp194
g13
S'id: 4'
p195
sbag0
(g1
g2
(lp196
g0
(g1
g2
(lp197
g0
(g1
g2
(lp198
g0
(g1
g2
(lp199
VNo
p200
atp201
Rp202
(dp203
g13
VDT
p204
sbatp205
Rp206
(dp207
g13
VNP
p208
sbag0
(g1
g2
(lp209
V,
p210
atp211
Rp212
(dp213
g13
V,
p214
sbag0
(g1
g2
(lp215
g0
(g1
g2
(lp216
Vplied
p217
atp218
Rp219
(dp220
g13
VVBD
p221
sbatp222
Rp223
(dp224
g13
VVP
p225
sbag0
(g1
g2
(lp226
V.
p227
atp228
Rp229
(dp230
g13
V.
p231
sbatp232
Rp233
(dp234
g13
VS
p235
sbatp236
Rp237
(dp238
g13
S'id: 5'
p239
sbag0
(g1
g2
(lp240
g0
(g1
g2
(lp241
g0
(g1
g2
(lp242
g0
(g1
g2
(lp243
VNo
p244
atp245
Rp246
(dp247
g13
VDT
p248
sbatp249
Rp250
(dp251
g13
VNP
p252
sbag0
(g1
g2
(lp253
V,
p254
atp255
Rp256
(dp257
g13
V,
p258
sbag0
(g1
g2
(lp259
g0
(g1
g2
(lp260
Vplied
p261
atp262
Rp263
(dp264
g13
VVBD
p265
sbatp266
Rp267
(dp268
g13
VVP
p269
sbag0
(g1
g2
(lp270
V.
p271
atp272
Rp273
(dp274
g13
V.
p275
sbatp276
Rp277
(dp278
g13
VS
p279
sbatp280
Rp281
(dp282
g13
S'id: 6'
p283
sbag0
(g1
g2
(lp284
g0
(g1
g2
(lp285
g0
(g1
g2
(lp286
g0
(g1
g2
(lp287
g0
(g1
g2
(lp288
VNo
p289
atp290
Rp291
(dp292
g13
VDT
p293
sbatp294
Rp295
(dp296
g13
VNP
p297
sbag0
(g1
g2
(lp298
V,
p299
atp300
Rp301
(dp302
g13
V,
p303
sbag0
(g1
g2
(lp304
g0
(g1
g2
(lp305
Vno
p306
atp307
Rp308
(dp309
g13
VDT
p310
sbatp311
Rp312
(dp313
g13
VNP
p314
sbag0
(g1
g2
(lp315
V,
p316
atp317
Rp318
(dp319
g13
V,
p320
sbatp321
Rp322
(dp323
g13
VNP
p324
sbag0
(g1
g2
(lp325
g0
(g1
g2
(lp326
Vblack
p327
atp328
Rp329
(dp330
g13
VJJ
p331
sbag0
(g1
g2
(lp332
V,
p333
atp334
Rp335
(dp336
g13
V,
p337
sbag0
(g1
g2
(lp338
Vblack
p339
atp340
Rp341
(dp342
g13
VJJ
p343
sbag0
(g1
g2
(lp344
V,
p345
atp346
Rp347
(dp348
g13
V,
p349
sbag0
(g1
g2
(lp350
Vblack
p351
atp352
Rp353
(dp354
g13
VJJ
p355
sbatp356
Rp357
(dp358
g13
VADJP
p359
sbag0
(g1
g2
(lp360
V.
p361
atp362
Rp363
(dp364
g13
V.
p365
sbatp366
Rp367
(dp368
g13
VNP
p369
sbatp370
Rp371
(dp372
g13
S'id: 7'
p373
sbag0
(g1
g2
(lp374
g0
(g1
g2
(lp375
g0
(g1
g2
(lp376
g0
(g1
g2
(lp377
VCar
p378
atp379
Rp380
(dp381
g13
VNN
p382
sbatp383
Rp384
(dp385
g13
VNP
p386
sbag0
(g1
g2
(lp387
V,
p388
atp389
Rp390
(dp391
g13
V,
p392
sbag0
(g1
g2
(lp393
g0
(g1
g2
(lp394
Vcar
p395
atp396
Rp397
(dp398
g13
VNN
p399
sbatp400
Rp401
(dp402
g13
VNP
p403
sbag0
(g1
g2
(lp404
V.
p405
atp406
Rp407
(dp408
g13
V.
p409
sbatp410
Rp411
(dp412
g13
VNP
p413
sbatp414
Rp415
(dp416
g13
S'id: 8'
p417
sbag0
(g1
g2
(lp418
g0
(g1
g2
(lp419
g0
(g1
g2
(lp420
g0
(g1
g2
(lp421
VHouse
p422
atp423
Rp424
(dp425
g13
VNNP
p426
sbatp427
Rp428
(dp429
g13
VNP
p430
sbag0
(g1
g2
(lp431
V,
p432
atp433
Rp434
(dp435
g13
V,
p436
sbag0
(g1
g2
(lp437
g0
(g1
g2
(lp438
Vhouse
p439
atp440
Rp441
(dp442
g13
VNN
p443
sbatp444
Rp445
(dp446
g13
VNP
p447
sbag0
(g1
g2
(lp448
V.
p449
atp450
Rp451
(dp452
g13
V.
p453
sbatp454
Rp455
(dp456
g13
VNP
p457
sbatp458
Rp459
(dp460
g13
S'id: 9'
p461
sbag0
(g1
g2
(lp462
g0
(g1
g2
(lp463
g0
(g1
g2
(lp464
g0
(g1
g2
(lp465
VBoat
p466
atp467
Rp468
(dp469
g13
VNNP
p470
sbatp471
Rp472
(dp473
g13
VNP
p474
sbag0
(g1
g2
(lp475
V,
p476
atp477
Rp478
(dp479
g13
V,
p480
sbag0
(g1
g2
(lp481
g0
(g1
g2
(lp482
Vboat
p483
atp484
Rp485
(dp486
g13
VNN
p487
sbatp488
Rp489
(dp490
g13
VNP
p491
sbag0
(g1
g2
(lp492
V,
p493
atp494
Rp495
(dp496
g13
V,
p497
sbag0
(g1
g2
(lp498
g0
(g1
g2
(lp499
Vboat
p500
atp501
Rp502
(dp503
g13
VNN
p504
sbatp505
Rp506
(dp507
g13
VNP
p508
sbag0
(g1
g2
(lp509
V,
p510
atp511
Rp512
(dp513
g13
V,
p514
sbag0
(g1
g2
(lp515
Vand
p516
atp517
Rp518
(dp519
g13
VCC
p520
sbag0
(g1
g2
(lp521
g0
(g1
g2
(lp522
g0
(g1
g2
(lp523
Vone
p524
atp525
Rp526
(dp527
g13
VCD
p528
sbatp529
Rp530
(dp531
g13
VNP
p532
sbag0
(g1
g2
(lp533
V,
p534
atp535
Rp536
(dp537
g13
V,
p538
sbag0
(g1
g2
(lp539
g0
(g1
g2
(lp540
Vtwo
p541
atp542
Rp543
(dp544
g13
VCD
p545
sbatp546
Rp547
(dp548
g13
VNP
p549
sbatp550
Rp551
(dp552
g13
VNP
p553
sbag0
(g1
g2
(lp554
V,
p555
atp556
Rp557
(dp558
g13
V,
p559
sbag0
(g1
g2
(lp560
g0
(g1
g2
(lp561
Vtwo
p562
atp563
Rp564
(dp565
g13
VCD
p566
sbatp567
Rp568
(dp569
g13
VNP
p570
sbag0
(g1
g2
(lp571
V,
p572
atp573
Rp574
(dp575
g13
V,
p576
sbag0
(g1
g2
(lp577
g0
(g1
g2
(lp578
Vtwo
p579
atp580
Rp581
(dp582
g13
VCD
p583
sbag0
(g1
g2
(lp584
Vboys
p585
atp586
Rp587
(dp588
g13
VNNS
p589
sbatp590
Rp591
(dp592
g13
VNP
p593
sbag0
(g1
g2
(lp594
V.
p595
atp596
Rp597
(dp598
g13
V.
p599
sbatp600
Rp601
(dp602
g13
VNP
p603
sbatp604
Rp605
(dp606
g13
S'id: 10'
p607
sbag0
(g1
g2
(lp608
g0
(g1
g2
(lp609
g0
(g1
g2
(lp610
g0
(g1
g2
(lp611
VNo
p612
atp613
Rp614
(dp615
g13
VDT
p616
sbag0
(g1
g2
(lp617
Vtwo
p618
atp619
Rp620
(dp621
g13
VCD
p622
sbatp623
Rp624
(dp625
g13
VNP
p626
sbag0
(g1
g2
(lp627
V,
p628
atp629
Rp630
(dp631
g13
V,
p632
sbag0
(g1
g2
(lp633
g0
(g1
g2
(lp634
Vtwo
p635
atp636
Rp637
(dp638
g13
VCD
p639
sbatp640
Rp641
(dp642
g13
VNP
p643
sbag0
(g1
g2
(lp644
V,
p645
atp646
Rp647
(dp648
g13
V,
p649
sbag0
(g1
g2
(lp650
g0
(g1
g2
(lp651
Vperson
p652
atp653
Rp654
(dp655
g13
VNN
p656
sbatp657
Rp658
(dp659
g13
VNP
p660
sbag0
(g1
g2
(lp661
V,
p662
atp663
Rp664
(dp665
g13
V,
p666
sbag0
(g1
g2
(lp667
g0
(g1
g2
(lp668
Vperson
p669
atp670
Rp671
(dp672
g13
VNN
p673
sbatp674
Rp675
(dp676
g13
VNP
p677
sbag0
(g1
g2
(lp678
V.
p679
atp680
Rp681
(dp682
g13
V.
p683
sbatp684
Rp685
(dp686
g13
VNP
p687
sbatp688
Rp689
(dp690
g13
S'id: 11'
p691
sbag0
(g1
g2
(lp692
g0
(g1
g2
(lp693
g0
(g1
g2
(lp694
g0
(g1
g2
(lp695
VLake
p696
atp697
Rp698
(dp699
g13
VNNP
p700
sbatp701
Rp702
(dp703
g13
VNP
p704
sbag0
(g1
g2
(lp705
V,
p706
atp707
Rp708
(dp709
g13
V,
p710
sbag0
(g1
g2
(lp711
g0
(g1
g2
(lp712
Vlake
p713
atp714
Rp715
(dp716
g13
VNN
p717
sbatp718
Rp719
(dp720
g13
VNP
p721
sbag0
(g1
g2
(lp722
V.
p723
atp724
Rp725
(dp726
g13
V.
p727
sbatp728
Rp729
(dp730
g13
VNP
p731
sbatp732
Rp733
(dp734
g13
S'id: 12'
p735
sbatp736
Rp737
(dp738
g13
S'sentences'
p739
sb.