ccopy_reg
_reconstructor
p0
(cnltk.tree
Tree
p1
c__builtin__
list
p2
(lp3
g0
(g1
g2
(lp4
g0
(g1
g2
(lp5
g0
(g1
g2
(lp6
(lp7
S'word: boy, index: 3'
p8
aatp9
Rp10
(dp11
S'_label'
p12
Vappos
p13
sbatp14
Rp15
(dp16
g12
S'word: Girl, index: 1'
p17
sbatp18
Rp19
(dp20
g12
S'id: 0'
p21
sbag0
(g1
g2
(lp22
g0
(g1
g2
(lp23
g0
(g1
g2
(lp24
(lp25
S'word: no, index: 3'
p26
aatp27
Rp28
(dp29
g12
Vappos
p30
sbatp31
Rp32
(dp33
g12
S'word: Candy, index: 1'
p34
sbatp35
Rp36
(dp37
g12
S'id: 1'
p38
sbag0
(g1
g2
(lp39
g0
(g1
g2
(lp40
g0
(g1
g2
(lp41
(lp42
S'word: A, index: 1'
p43
aatp44
Rp45
(dp46
g12
Vdet
p47
sbag0
(g1
g2
(lp48
g0
(g1
g2
(lp49
g0
(g1
g2
(lp50
(lp51
S'word: jar, index: 7'
p52
aatp53
Rp54
(dp55
g12
Vappos
p56
sbag0
(g1
g2
(lp57
(lp58
S'word: candy, index: 4'
p59
aatp60
Rp61
(dp62
g12
Vnn
p63
sbatp64
Rp65
(dp66
g12
S'word: jar, index: 5'
p67
sbatp68
Rp69
(dp70
g12
Vappos
p71
sbatp72
Rp73
(dp74
g12
S'word: candy, index: 2'
p75
sbatp76
Rp77
(dp78
g12
S'id: 2'
p79
sbag0
(g1
g2
(lp80
tp81
Rp82
(dp83
g12
S'id: 3'
p84
sbag0
(g1
g2
(lp85
g0
(g1
g2
(lp86
g0
(g1
g2
(lp87
g0
(g1
g2
(lp88
g0
(g1
g2
(lp89
(lp90
S'word: I, index: 3'
p91
aatp92
Rp93
(dp94
g12
Vdep
p95
sbag0
(g1
g2
(lp96
g0
(g1
g2
(lp97
g0
(g1
g2
(lp98
(lp99
S'word: I, index: 6'
p100
aatp101
Rp102
(dp103
g12
Vdep
p104
sbatp105
Rp106
(dp107
g12
S'word: candy, index: 7'
p108
sbatp109
Rp110
(dp111
g12
Vappos
p112
sbatp113
Rp114
(dp115
g12
S'word: candy, index: 4'
p116
sbatp117
Rp118
(dp119
g12
Vappos
p120
sbatp121
Rp122
(dp123
g12
S'word: I, index: 1'
p124
sbatp125
Rp126
(dp127
g12
S'id: 4'
p128
sbag0
(g1
g2
(lp129
g0
(g1
g2
(lp130
g0
(g1
g2
(lp131
(lp132
S'word: mom, index: 2'
p133
aatp134
Rp135
(dp136
g12
Vdep
p137
sbatp138
Rp139
(dp140
g12
S'word: Mom, index: 1'
p141
sbatp142
Rp143
(dp144
g12
S'id: 5'
p145
sbag0
(g1
g2
(lp146
g0
(g1
g2
(lp147
g0
(g1
g2
(lp148
g0
(g1
g2
(lp149
g0
(g1
g2
(lp150
(lp151
S'word: water, index: 3'
p152
aatp153
Rp154
(dp155
g12
Vnn
p156
sbag0
(g1
g2
(lp157
(lp158
S'word: water, index: 5'
p159
aatp160
Rp161
(dp162
g12
Vdep
p163
sbag0
(g1
g2
(lp164
g0
(g1
g2
(lp165
g0
(g1
g2
(lp166
(lp167
S'word: yes, index: 9'
p168
aatp169
Rp170
(dp171
g12
Vdiscourse
p172
sbatp173
Rp174
(dp175
g12
S'word: water, index: 10'
p176
sbatp177
Rp178
(dp179
g12
Vrcmod
p180
sbatp181
Rp182
(dp183
g12
S'word: water, index: 7'
p184
sbatp185
Rp186
(dp187
g12
Vappos
p188
sbatp189
Rp190
(dp191
g12
S'word: Water, index: 1'
p192
sbatp193
Rp194
(dp195
g12
S'id: 6'
p196
sbag0
(g1
g2
(lp197
g0
(g1
g2
(lp198
g0
(g1
g2
(lp199
g0
(g1
g2
(lp200
g0
(g1
g2
(lp201
g0
(g1
g2
(lp202
g0
(g1
g2
(lp203
(lp204
S'word: no, index: 4'
p205
aatp206
Rp207
(dp208
g12
Vneg
p209
sbatp210
Rp211
(dp212
g12
S'word: sinks, index: 5'
p213
sbatp214
Rp215
(dp216
g12
Vappos
p217
sbag0
(g1
g2
(lp218
(lp219
S'word: a, index: 2'
p220
aatp221
Rp222
(dp223
g12
Vdep
p224
sbatp225
Rp226
(dp227
g12
S'word: Soap, index: 1'
p228
sbatp229
Rp230
(dp231
g12
Vnsubj
p232
sbatp233
Rp234
(dp235
g12
S'word: sinks, index: 7'
p236
sbatp237
Rp238
(dp239
g12
S'id: 7'
p240
sbag0
(g1
g2
(lp241
g0
(g1
g2
(lp242
g0
(g1
g2
(lp243
g0
(g1
g2
(lp244
g0
(g1
g2
(lp245
(lp246
S'word: no, index: 3'
p247
aatp248
Rp249
(dp250
g12
Vneg
p251
sbatp252
Rp253
(dp254
g12
S'word: shine, index: 4'
p255
sbatp256
Rp257
(dp258
g12
Vappos
p259
sbatp260
Rp261
(dp262
g12
S'word: Candy, index: 1'
p263
sbatp264
Rp265
(dp266
g12
S'id: 8'
p267
sbag0
(g1
g2
(lp268
tp269
Rp270
(dp271
g12
S'id: 9'
p272
sbag0
(g1
g2
(lp273
tp274
Rp275
(dp276
g12
S'id: 10'
p277
sbag0
(g1
g2
(lp278
tp279
Rp280
(dp281
g12
S'id: 11'
p282
sbatp283
Rp284
(dp285
g12
S'sentences'
p286
sb.