ccopy_reg
_reconstructor
p0
(cnltk.tree
Tree
p1
c__builtin__
list
p2
(lp3
g0
(g1
g2
(lp4
g0
(g1
g2
(lp5
g0
(g1
g2
(lp6
Vok
p7
atp8
Rp9
(dp10
S'_label'
p11
VNN
p12
sbag0
(g1
g2
(lp13
V.
p14
atp15
Rp16
(dp17
g11
V.
p18
sbatp19
Rp20
(dp21
g11
VNP
p22
sbatp23
Rp24
(dp25
g11
S'id: 0'
p26
sbag0
(g1
g2
(lp27
g0
(g1
g2
(lp28
g0
(g1
g2
(lp29
g0
(g1
g2
(lp30
VMother
p31
atp32
Rp33
(dp34
g11
VNN
p35
sbatp36
Rp37
(dp38
g11
VNP
p39
sbag0
(g1
g2
(lp40
g0
(g1
g2
(lp41
Vis
p42
atp43
Rp44
(dp45
g11
VVBZ
p46
sbag0
(g1
g2
(lp47
g0
(g1
g2
(lp48
Vwashing
p49
atp50
Rp51
(dp52
g11
VVBG
p53
sbag0
(g1
g2
(lp54
V,
p55
atp56
Rp57
(dp58
g11
V,
p59
sbag0
(g1
g2
(lp60
g0
(g1
g2
(lp61
g0
(g1
g2
(lp62
Vwiping
p63
atp64
Rp65
(dp66
g11
VVBG
p67
sbag0
(g1
g2
(lp68
g0
(g1
g2
(lp69
g0
(g1
g2
(lp70
Vthe
p71
atp72
Rp73
(dp74
g11
VDT
p75
sbag0
(g1
g2
(lp76
Vbish
p77
atp78
Rp79
(dp80
g11
VNN
p81
sbatp82
Rp83
(dp84
g11
VNP
p85
sbag0
(g1
g2
(lp86
V,
p87
atp88
Rp89
(dp90
g11
V,
p91
sbag0
(g1
g2
(lp92
g0
(g1
g2
(lp93
Vthe
p94
atp95
Rp96
(dp97
g11
VDT
p98
sbag0
(g1
g2
(lp99
Vbishes
p100
atp101
Rp102
(dp103
g11
VNNS
p104
sbatp105
Rp106
(dp107
g11
VNP
p108
sbatp109
Rp110
(dp111
g11
VNP
p112
sbatp113
Rp114
(dp115
g11
VVP
p116
sbatp117
Rp118
(dp119
g11
VS
p120
sbatp121
Rp122
(dp123
g11
VVP
p124
sbatp125
Rp126
(dp127
g11
VVP
p128
sbag0
(g1
g2
(lp129
V.
p130
atp131
Rp132
(dp133
g11
V.
p134
sbatp135
Rp136
(dp137
g11
VS
p138
sbatp139
Rp140
(dp141
g11
S'id: 1'
p142
sbag0
(g1
g2
(lp143
g0
(g1
g2
(lp144
g0
(g1
g2
(lp145
g0
(g1
g2
(lp146
VWater
p147
atp148
Rp149
(dp150
g11
VNN
p151
sbatp152
Rp153
(dp154
g11
VNP
p155
sbag0
(g1
g2
(lp156
g0
(g1
g2
(lp157
Vis
p158
atp159
Rp160
(dp161
g11
VVBZ
p162
sbag0
(g1
g2
(lp163
g0
(g1
g2
(lp164
Vflowing
p165
atp166
Rp167
(dp168
g11
VVBG
p169
sbag0
(g1
g2
(lp170
g0
(g1
g2
(lp171
Vover
p172
atp173
Rp174
(dp175
g11
VIN
p176
sbag0
(g1
g2
(lp177
g0
(g1
g2
(lp178
g0
(g1
g2
(lp179
Vthe
p180
atp181
Rp182
(dp183
g11
VDT
p184
sbag0
(g1
g2
(lp185
Vbitchen
p186
atp187
Rp188
(dp189
g11
VNN
p190
sbatp191
Rp192
(dp193
g11
VNP
p194
sbag0
(g1
g2
(lp195
V,
p196
atp197
Rp198
(dp199
g11
V,
p200
sbag0
(g1
g2
(lp201
g0
(g1
g2
(lp202
Vkitchen
p203
atp204
Rp205
(dp206
g11
VNN
p207
sbatp208
Rp209
(dp210
g11
VNP
p211
sbag0
(g1
g2
(lp212
V,
p213
atp214
Rp215
(dp216
g11
V,
p217
sbatp218
Rp219
(dp220
g11
VNP
p221
sbatp222
Rp223
(dp224
g11
VPP
p225
sbag0
(g1
g2
(lp226
g0
(g1
g2
(lp227
Vonto
p228
atp229
Rp230
(dp231
g11
VIN
p232
sbag0
(g1
g2
(lp233
g0
(g1
g2
(lp234
Vthe
p235
atp236
Rp237
(dp238
g11
VDT
p239
sbag0
(g1
g2
(lp240
Vfloor
p241
atp242
Rp243
(dp244
g11
VNN
p245
sbatp246
Rp247
(dp248
g11
VNP
p249
sbatp250
Rp251
(dp252
g11
VPP
p253
sbatp254
Rp255
(dp256
g11
VVP
p257
sbatp258
Rp259
(dp260
g11
VVP
p261
sbag0
(g1
g2
(lp262
V.
p263
atp264
Rp265
(dp266
g11
V.
p267
sbatp268
Rp269
(dp270
g11
VS
p271
sbatp272
Rp273
(dp274
g11
S'id: 2'
p275
sbag0
(g1
g2
(lp276
g0
(g1
g2
(lp277
g0
(g1
g2
(lp278
g0
(g1
g2
(lp279
VWater
p280
atp281
Rp282
(dp283
g11
VNN
p284
sbatp285
Rp286
(dp287
g11
VNP
p288
sbag0
(g1
g2
(lp289
g0
(g1
g2
(lp290
Vis
p291
atp292
Rp293
(dp294
g11
VVBZ
p295
sbag0
(g1
g2
(lp296
g0
(g1
g2
(lp297
Vrunning
p298
atp299
Rp300
(dp301
g11
VVBG
p302
sbag0
(g1
g2
(lp303
g0
(g1
g2
(lp304
Veverywhere
p305
atp306
Rp307
(dp308
g11
VRB
p309
sbatp310
Rp311
(dp312
g11
VADVP
p313
sbatp314
Rp315
(dp316
g11
VVP
p317
sbatp318
Rp319
(dp320
g11
VVP
p321
sbag0
(g1
g2
(lp322
V.
p323
atp324
Rp325
(dp326
g11
V.
p327
sbatp328
Rp329
(dp330
g11
VS
p331
sbatp332
Rp333
(dp334
g11
S'id: 3'
p335
sbag0
(g1
g2
(lp336
g0
(g1
g2
(lp337
g0
(g1
g2
(lp338
VAnd
p339
atp340
Rp341
(dp342
g11
VCC
p343
sbag0
(g1
g2
(lp344
g0
(g1
g2
(lp345
g0
(g1
g2
(lp346
g0
(g1
g2
(lp347
Vthe
p348
atp349
Rp350
(dp351
g11
VDT
p352
sbag0
(g1
g2
(lp353
Vlittle
p354
atp355
Rp356
(dp357
g11
VJJ
p358
sbag0
(g1
g2
(lp359
Vgirls
p360
atp361
Rp362
(dp363
g11
VNNS
p364
sbag0
(g1
g2
(lp365
Vand
p366
atp367
Rp368
(dp369
g11
VCC
p370
sbag0
(g1
g2
(lp371
Vboys
p372
atp373
Rp374
(dp375
g11
VNNS
p376
sbatp377
Rp378
(dp379
g11
VNP
p380
sbag0
(g1
g2
(lp381
V,
p382
atp383
Rp384
(dp385
g11
V,
p386
sbag0
(g1
g2
(lp387
g0
(g1
g2
(lp388
Vthe
p389
atp390
Rp391
(dp392
g11
VDT
p393
sbag0
(g1
g2
(lp394
Vboy
p395
atp396
Rp397
(dp398
g11
VNN
p399
sbatp400
Rp401
(dp402
g11
VNP
p403
sbatp404
Rp405
(dp406
g11
VNP
p407
sbag0
(g1
g2
(lp408
g0
(g1
g2
(lp409
Vis
p410
atp411
Rp412
(dp413
g11
VVBZ
p414
sbag0
(g1
g2
(lp415
g0
(g1
g2
(lp416
Vgetting
p417
atp418
Rp419
(dp420
g11
VVBG
p421
sbag0
(g1
g2
(lp422
g0
(g1
g2
(lp423
Vsome
p424
atp425
Rp426
(dp427
g11
VDT
p428
sbag0
(g1
g2
(lp429
Vcookies
p430
atp431
Rp432
(dp433
g11
VNNS
p434
sbatp435
Rp436
(dp437
g11
VNP
p438
sbag0
(g1
g2
(lp439
g0
(g1
g2
(lp440
Vfrom
p441
atp442
Rp443
(dp444
g11
VIN
p445
sbag0
(g1
g2
(lp446
g0
(g1
g2
(lp447
Vthe
p448
atp449
Rp450
(dp451
g11
VDT
p452
sbatp453
Rp454
(dp455
g11
VNP
p456
sbatp457
Rp458
(dp459
g11
VPP
p460
sbatp461
Rp462
(dp463
g11
VVP
p464
sbatp465
Rp466
(dp467
g11
VVP
p468
sbatp469
Rp470
(dp471
g11
VS
p472
sbag0
(g1
g2
(lp473
V,
p474
atp475
Rp476
(dp477
g11
V,
p478
sbag0
(g1
g2
(lp479
Vand
p480
atp481
Rp482
(dp483
g11
VCC
p484
sbag0
(g1
g2
(lp485
g0
(g1
g2
(lp486
g0
(g1
g2
(lp487
g0
(g1
g2
(lp488
Vthe
p489
atp490
Rp491
(dp492
g11
VDT
p493
sbag0
(g1
g2
(lp494
Vmother
p495
atp496
Rp497
(dp498
g11
VNN
p499
sbatp500
Rp501
(dp502
g11
VNP
p503
sbag0
(g1
g2
(lp504
g0
(g1
g2
(lp505
g0
(g1
g2
(lp506
Vate
p507
atp508
Rp509
(dp510
g11
VVBD
p511
sbatp512
Rp513
(dp514
g11
VVP
p515
sbag0
(g1
g2
(lp516
Vand
p517
atp518
Rp519
(dp520
g11
VCC
p521
sbag0
(g1
g2
(lp522
g0
(g1
g2
(lp523
g0
(g1
g2
(lp524
Vmother
p525
atp526
Rp527
(dp528
g11
VNN
p529
sbatp530
Rp531
(dp532
g11
VNP
p533
sbag0
(g1
g2
(lp534
g0
(g1
g2
(lp535
Vtoo
p536
atp537
Rp538
(dp539
g11
VRB
p540
sbatp541
Rp542
(dp543
g11
VADVP
p544
sbatp545
Rp546
(dp547
g11
VVP
p548
sbatp549
Rp550
(dp551
g11
VVP
p552
sbatp553
Rp554
(dp555
g11
VS
p556
sbag0
(g1
g2
(lp557
V,
p558
atp559
Rp560
(dp561
g11
V,
p562
sbag0
(g1
g2
(lp563
Vand
p564
atp565
Rp566
(dp567
g11
VCC
p568
sbag0
(g1
g2
(lp569
g0
(g1
g2
(lp570
g0
(g1
g2
(lp571
Vlittle
p572
atp573
Rp574
(dp575
g11
VJJ
p576
sbag0
(g1
g2
(lp577
Vboy
p578
atp579
Rp580
(dp581
g11
VNN
p582
sbatp583
Rp584
(dp585
g11
VNP
p586
sbag0
(g1
g2
(lp587
g0
(g1
g2
(lp588
Vis
p589
atp590
Rp591
(dp592
g11
VVBZ
p593
sbag0
(g1
g2
(lp594
g0
(g1
g2
(lp595
Vfalling
p596
atp597
Rp598
(dp599
g11
VVBG
p600
sbag0
(g1
g2
(lp601
V,
p602
atp603
Rp604
(dp605
g11
V,
p606
sbag0
(g1
g2
(lp607
g0
(g1
g2
(lp608
Vover
p609
atp610
Rp611
(dp612
g11
VIN
p613
sbag0
(g1
g2
(lp614
g0
(g1
g2
(lp615
g0
(g1
g2
(lp616
Vthe
p617
atp618
Rp619
(dp620
g11
VDT
p621
sbag0
(g1
g2
(lp622
Vfid
p623
atp624
Rp625
(dp626
g11
VNN
p627
sbatp628
Rp629
(dp630
g11
VNP
p631
sbag0
(g1
g2
(lp632
V,
p633
atp634
Rp635
(dp636
g11
V,
p637
sbag0
(g1
g2
(lp638
g0
(g1
g2
(lp639
Vthe
p640
atp641
Rp642
(dp643
g11
VDT
p644
sbag0
(g1
g2
(lp645
Vcarl
p646
atp647
Rp648
(dp649
g11
VNN
p650
sbatp651
Rp652
(dp653
g11
VNP
p654
sbag0
(g1
g2
(lp655
V,
p656
atp657
Rp658
(dp659
g11
V,
p660
sbag0
(g1
g2
(lp661
g0
(g1
g2
(lp662
Vthe
p663
atp664
Rp665
(dp666
g11
VDT
p667
sbag0
(g1
g2
(lp668
Vchar
p669
atp670
Rp671
(dp672
g11
VNN
p673
sbatp674
Rp675
(dp676
g11
VNP
p677
sbag0
(g1
g2
(lp678
V,
p679
atp680
Rp681
(dp682
g11
V,
p683
sbag0
(g1
g2
(lp684
g0
(g1
g2
(lp685
Vchair
p686
atp687
Rp688
(dp689
g11
VNN
p690
sbatp691
Rp692
(dp693
g11
VNP
p694
sbag0
(g1
g2
(lp695
V,
p696
atp697
Rp698
(dp699
g11
V,
p700
sbag0
(g1
g2
(lp701
g0
(g1
g2
(lp702
Vchair
p703
atp704
Rp705
(dp706
g11
VNN
p707
sbatp708
Rp709
(dp710
g11
VNP
p711
sbatp712
Rp713
(dp714
g11
VNP
p715
sbatp716
Rp717
(dp718
g11
VPP
p719
sbatp720
Rp721
(dp722
g11
VVP
p723
sbatp724
Rp725
(dp726
g11
VVP
p727
sbatp728
Rp729
(dp730
g11
VS
p731
sbatp732
Rp733
(dp734
g11
VS
p735
sbag0
(g1
g2
(lp736
V.
p737
atp738
Rp739
(dp740
g11
V.
p741
sbatp742
Rp743
(dp744
g11
VS
p745
sbatp746
Rp747
(dp748
g11
S'id: 4'
p749
sbag0
(g1
g2
(lp750
g0
(g1
g2
(lp751
g0
(g1
g2
(lp752
VAnd
p753
atp754
Rp755
(dp756
g11
VCC
p757
sbag0
(g1
g2
(lp758
g0
(g1
g2
(lp759
Vthe
p760
atp761
Rp762
(dp763
g11
VDT
p764
sbag0
(g1
g2
(lp765
Vgrass
p766
atp767
Rp768
(dp769
g11
VNN
p770
sbatp771
Rp772
(dp773
g11
VNP
p774
sbag0
(g1
g2
(lp775
g0
(g1
g2
(lp776
Vis
p777
atp778
Rp779
(dp780
g11
VVBZ
p781
sbag0
(g1
g2
(lp782
g0
(g1
g2
(lp783
Vout
p784
atp785
Rp786
(dp787
g11
VRP
p788
sbatp789
Rp790
(dp791
g11
VADVP
p792
sbag0
(g1
g2
(lp793
g0
(g1
g2
(lp794
Vin
p795
atp796
Rp797
(dp798
g11
VIN
p799
sbag0
(g1
g2
(lp800
g0
(g1
g2
(lp801
g0
(g1
g2
(lp802
Vthe
p803
atp804
Rp805
(dp806
g11
VDT
p807
sbag0
(g1
g2
(lp808
Vpicture
p809
atp810
Rp811
(dp812
g11
VNN
p813
sbatp814
Rp815
(dp816
g11
VNP
p817
sbag0
(g1
g2
(lp818
V,
p819
atp820
Rp821
(dp822
g11
V,
p823
sbag0
(g1
g2
(lp824
g0
(g1
g2
(lp825
g0
(g1
g2
(lp826
Vkind
p827
atp828
Rp829
(dp830
g11
VNN
p831
sbatp832
Rp833
(dp834
g11
VNP
p835
sbag0
(g1
g2
(lp836
g0
(g1
g2
(lp837
Vof
p838
atp839
Rp840
(dp841
g11
VIN
p842
sbag0
(g1
g2
(lp843
g0
(g1
g2
(lp844
Von
p845
atp846
Rp847
(dp848
g11
VIN
p849
sbag0
(g1
g2
(lp850
g0
(g1
g2
(lp851
Vthe
p852
atp853
Rp854
(dp855
g11
VDT
p856
sbag0
(g1
g2
(lp857
Vfloor
p858
atp859
Rp860
(dp861
g11
VNN
p862
sbatp863
Rp864
(dp865
g11
VNP
p866
sbatp867
Rp868
(dp869
g11
VPP
p870
sbatp871
Rp872
(dp873
g11
VPP
p874
sbatp875
Rp876
(dp877
g11
VNP
p878
sbatp879
Rp880
(dp881
g11
VNP
p882
sbatp883
Rp884
(dp885
g11
VPP
p886
sbatp887
Rp888
(dp889
g11
VVP
p890
sbag0
(g1
g2
(lp891
V.
p892
atp893
Rp894
(dp895
g11
V.
p896
sbatp897
Rp898
(dp899
g11
VS
p900
sbatp901
Rp902
(dp903
g11
S'id: 5'
p904
sbag0
(g1
g2
(lp905
g0
(g1
g2
(lp906
g0
(g1
g2
(lp907
VAnd
p908
atp909
Rp910
(dp911
g11
VCC
p912
sbag0
(g1
g2
(lp913
g0
(g1
g2
(lp914
Vthere
p915
atp916
Rp917
(dp918
g11
VEX
p919
sbatp920
Rp921
(dp922
g11
VNP
p923
sbag0
(g1
g2
(lp924
g0
(g1
g2
(lp925
Vis
p926
atp927
Rp928
(dp929
g11
VVBZ
p930
sbag0
(g1
g2
(lp931
g0
(g1
g2
(lp932
g0
(g1
g2
(lp933
Vsome
p934
atp935
Rp936
(dp937
g11
VDT
p938
sbag0
(g1
g2
(lp939
Vdishes
p940
atp941
Rp942
(dp943
g11
VNNS
p944
sbatp945
Rp946
(dp947
g11
VNP
p948
sbag0
(g1
g2
(lp949
g0
(g1
g2
(lp950
Von
p951
atp952
Rp953
(dp954
g11
VIN
p955
sbag0
(g1
g2
(lp956
g0
(g1
g2
(lp957
g0
(g1
g2
(lp958
Vthe
p959
atp960
Rp961
(dp962
g11
VDT
p963
sbag0
(g1
g2
(lp964
Vline
p965
atp966
Rp967
(dp968
g11
VNN
p969
sbatp970
Rp971
(dp972
g11
VNP
p973
sbag0
(g1
g2
(lp974
g0
(g1
g2
(lp975
Vup
p976
atp977
Rp978
(dp979
g11
VRP
p980
sbag0
(g1
g2
(lp981
g0
(g1
g2
(lp982
Vplate
p983
atp984
Rp985
(dp986
g11
VNN
p987
sbag0
(g1
g2
(lp988
Vfloor
p989
atp990
Rp991
(dp992
g11
VNN
p993
sbatp994
Rp995
(dp996
g11
VNP
p997
sbatp998
Rp999
(dp1000
g11
VPP
p1001
sbatp1002
Rp1003
(dp1004
g11
VNP
p1005
sbatp1006
Rp1007
(dp1008
g11
VPP
p1009
sbatp1010
Rp1011
(dp1012
g11
VNP
p1013
sbag0
(g1
g2
(lp1014
V,
p1015
atp1016
Rp1017
(dp1018
g11
V,
p1019
sbag0
(g1
g2
(lp1020
g0
(g1
g2
(lp1021
Vthat
p1022
atp1023
Rp1024
(dp1025
g11
VIN
p1026
sbag0
(g1
g2
(lp1027
g0
(g1
g2
(lp1028
g0
(g1
g2
(lp1029
Vyou
p1030
atp1031
Rp1032
(dp1033
g11
VPRP
p1034
sbatp1035
Rp1036
(dp1037
g11
VNP
p1038
sbag0
(g1
g2
(lp1039
g0
(g1
g2
(lp1040
Vcleaned
p1041
atp1042
Rp1043
(dp1044
g11
VVBD
p1045
sbag0
(g1
g2
(lp1046
V,
p1047
atp1048
Rp1049
(dp1050
g11
V,
p1051
sbag0
(g1
g2
(lp1052
g0
(g1
g2
(lp1053
Vthat
p1054
atp1055
Rp1056
(dp1057
g11
VIN
p1058
sbag0
(g1
g2
(lp1059
g0
(g1
g2
(lp1060
g0
(g1
g2
(lp1061
Vmother
p1062
atp1063
Rp1064
(dp1065
g11
VNN
p1066
sbatp1067
Rp1068
(dp1069
g11
VNP
p1070
sbag0
(g1
g2
(lp1071
g0
(g1
g2
(lp1072
Vhas
p1073
atp1074
Rp1075
(dp1076
g11
VVBZ
p1077
sbag0
(g1
g2
(lp1078
g0
(g1
g2
(lp1079
Vwashed
p1080
atp1081
Rp1082
(dp1083
g11
VVBN
p1084
sbag0
(g1
g2
(lp1085
g0
(g1
g2
(lp1086
Vout
p1087
atp1088
Rp1089
(dp1090
g11
VRP
p1091
sbatp1092
Rp1093
(dp1094
g11
VPRT
p1095
sbag0
(g1
g2
(lp1096
V,
p1097
atp1098
Rp1099
(dp1100
g11
V,
p1101
sbag0
(g1
g2
(lp1102
Vwashed
p1103
atp1104
Rp1105
(dp1106
g11
VVBN
p1107
sbag0
(g1
g2
(lp1108
Vand
p1109
atp1110
Rp1111
(dp1112
g11
VCC
p1113
sbag0
(g1
g2
(lp1114
Vwiped
p1115
atp1116
Rp1117
(dp1118
g11
VVBN
p1119
sbatp1120
Rp1121
(dp1122
g11
VVP
p1123
sbatp1124
Rp1125
(dp1126
g11
VVP
p1127
sbatp1128
Rp1129
(dp1130
g11
VS
p1131
sbatp1132
Rp1133
(dp1134
g11
VSBAR
p1135
sbatp1136
Rp1137
(dp1138
g11
VVP
p1139
sbatp1140
Rp1141
(dp1142
g11
VS
p1143
sbatp1144
Rp1145
(dp1146
g11
VSBAR
p1147
sbatp1148
Rp1149
(dp1150
g11
VVP
p1151
sbag0
(g1
g2
(lp1152
V.
p1153
atp1154
Rp1155
(dp1156
g11
V.
p1157
sbatp1158
Rp1159
(dp1160
g11
VS
p1161
sbatp1162
Rp1163
(dp1164
g11
S'id: 6'
p1165
sbag0
(g1
g2
(lp1166
g0
(g1
g2
(lp1167
g0
(g1
g2
(lp1168
VAnd
p1169
atp1170
Rp1171
(dp1172
g11
VCC
p1173
sbag0
(g1
g2
(lp1174
g0
(g1
g2
(lp1175
g0
(g1
g2
(lp1176
Vthe
p1177
atp1178
Rp1179
(dp1180
g11
VDT
p1181
sbag0
(g1
g2
(lp1182
Vwater
p1183
atp1184
Rp1185
(dp1186
g11
VNN
p1187
sbatp1188
Rp1189
(dp1190
g11
VNP
p1191
sbag0
(g1
g2
(lp1192
g0
(g1
g2
(lp1193
Vis
p1194
atp1195
Rp1196
(dp1197
g11
VVBZ
p1198
sbag0
(g1
g2
(lp1199
g0
(g1
g2
(lp1200
Vrunning
p1201
atp1202
Rp1203
(dp1204
g11
VVBG
p1205
sbag0
(g1
g2
(lp1206
g0
(g1
g2
(lp1207
Vover
p1208
atp1209
Rp1210
(dp1211
g11
VIN
p1212
sbag0
(g1
g2
(lp1213
g0
(g1
g2
(lp1214
Vthe
p1215
atp1216
Rp1217
(dp1218
g11
VDT
p1219
sbag0
(g1
g2
(lp1220
Vfloor
p1221
atp1222
Rp1223
(dp1224
g11
VNN
p1225
sbatp1226
Rp1227
(dp1228
g11
VNP
p1229
sbatp1230
Rp1231
(dp1232
g11
VPP
p1233
sbatp1234
Rp1235
(dp1236
g11
VVP
p1237
sbatp1238
Rp1239
(dp1240
g11
VVP
p1241
sbatp1242
Rp1243
(dp1244
g11
VS
p1245
sbag0
(g1
g2
(lp1246
V,
p1247
atp1248
Rp1249
(dp1250
g11
V,
p1251
sbag0
(g1
g2
(lp1252
Vand
p1253
atp1254
Rp1255
(dp1256
g11
VCC
p1257
sbag0
(g1
g2
(lp1258
g0
(g1
g2
(lp1259
g0
(g1
g2
(lp1260
Vthey
p1261
atp1262
Rp1263
(dp1264
g11
VPRP
p1265
sbatp1266
Rp1267
(dp1268
g11
VNP
p1269
sbag0
(g1
g2
(lp1270
g0
(g1
g2
(lp1271
Vwill
p1272
atp1273
Rp1274
(dp1275
g11
VMD
p1276
sbag0
(g1
g2
(lp1277
g0
(g1
g2
(lp1278
Vhave
p1279
atp1280
Rp1281
(dp1282
g11
VVB
p1283
sbag0
(g1
g2
(lp1284
g0
(g1
g2
(lp1285
g0
(g1
g2
(lp1286
Vto
p1287
atp1288
Rp1289
(dp1290
g11
VTO
p1291
sbag0
(g1
g2
(lp1292
g0
(g1
g2
(lp1293
Vget
p1294
atp1295
Rp1296
(dp1297
g11
VVB
p1298
sbag0
(g1
g2
(lp1299
g0
(g1
g2
(lp1300
Vthem
p1301
atp1302
Rp1303
(dp1304
g11
VPRP
p1305
sbatp1306
Rp1307
(dp1308
g11
VNP
p1309
sbag0
(g1
g2
(lp1310
g0
(g1
g2
(lp1311
Vup
p1312
atp1313
Rp1314
(dp1315
g11
VRP
p1316
sbatp1317
Rp1318
(dp1319
g11
VPRT
p1320
sbatp1321
Rp1322
(dp1323
g11
VVP
p1324
sbatp1325
Rp1326
(dp1327
g11
VVP
p1328
sbatp1329
Rp1330
(dp1331
g11
VS
p1332
sbatp1333
Rp1334
(dp1335
g11
VVP
p1336
sbatp1337
Rp1338
(dp1339
g11
VVP
p1340
sbatp1341
Rp1342
(dp1343
g11
VS
p1344
sbag0
(g1
g2
(lp1345
V.
p1346
atp1347
Rp1348
(dp1349
g11
V.
p1350
sbatp1351
Rp1352
(dp1353
g11
VS
p1354
sbatp1355
Rp1356
(dp1357
g11
S'id: 7'
p1358
sbag0
(g1
g2
(lp1359
g0
(g1
g2
(lp1360
g0
(g1
g2
(lp1361
g0
(g1
g2
(lp1362
VWell
p1363
atp1364
Rp1365
(dp1366
g11
VRB
p1367
sbatp1368
Rp1369
(dp1370
g11
VADVP
p1371
sbag0
(g1
g2
(lp1372
g0
(g1
g2
(lp1373
Vthe
p1374
atp1375
Rp1376
(dp1377
g11
VDT
p1378
sbag0
(g1
g2
(lp1379
Vgirl
p1380
atp1381
Rp1382
(dp1383
g11
VNN
p1384
sbatp1385
Rp1386
(dp1387
g11
VNP
p1388
sbag0
(g1
g2
(lp1389
g0
(g1
g2
(lp1390
Vhad
p1391
atp1392
Rp1393
(dp1394
g11
VVBD
p1395
sbag0
(g1
g2
(lp1396
Vn't
p1397
atp1398
Rp1399
(dp1400
g11
VRB
p1401
sbag0
(g1
g2
(lp1402
g0
(g1
g2
(lp1403
Vgot
p1404
atp1405
Rp1406
(dp1407
g11
VVBD
p1408
sbag0
(g1
g2
(lp1409
g0
(g1
g2
(lp1410
Vany
p1411
atp1412
Rp1413
(dp1414
g11
VDT
p1415
sbag0
(g1
g2
(lp1416
Vcookies
p1417
atp1418
Rp1419
(dp1420
g11
VNNS
p1421
sbatp1422
Rp1423
(dp1424
g11
VNP
p1425
sbag0
(g1
g2
(lp1426
g0
(g1
g2
(lp1427
Vyet
p1428
atp1429
Rp1430
(dp1431
g11
VRB
p1432
sbatp1433
Rp1434
(dp1435
g11
VADVP
p1436
sbag0
(g1
g2
(lp1437
g0
(g1
g2
(lp1438
V,
p1439
atp1440
Rp1441
(dp1442
g11
V,
p1443
sbag0
(g1
g2
(lp1444
g0
(g1
g2
(lp1445
Voff
p1446
atp1447
Rp1448
(dp1449
g11
VIN
p1450
sbag0
(g1
g2
(lp1451
g0
(g1
g2
(lp1452
Vof
p1453
atp1454
Rp1455
(dp1456
g11
VIN
p1457
sbatp1458
Rp1459
(dp1460
g11
VPP
p1461
sbatp1462
Rp1463
(dp1464
g11
VPP
p1465
sbag0
(g1
g2
(lp1466
V,
p1467
atp1468
Rp1469
(dp1470
g11
V,
p1471
sbatp1472
Rp1473
(dp1474
g11
VPRN
p1475
sbag0
(g1
g2
(lp1476
g0
(g1
g2
(lp1477
Vout
p1478
atp1479
Rp1480
(dp1481
g11
VIN
p1482
sbag0
(g1
g2
(lp1483
g0
(g1
g2
(lp1484
Vof
p1485
atp1486
Rp1487
(dp1488
g11
VIN
p1489
sbag0
(g1
g2
(lp1490
g0
(g1
g2
(lp1491
Vthe
p1492
atp1493
Rp1494
(dp1495
g11
VDT
p1496
sbag0
(g1
g2
(lp1497
Vjar
p1498
atp1499
Rp1500
(dp1501
g11
VNN
p1502
sbatp1503
Rp1504
(dp1505
g11
VNP
p1506
sbatp1507
Rp1508
(dp1509
g11
VPP
p1510
sbatp1511
Rp1512
(dp1513
g11
VPP
p1514
sbatp1515
Rp1516
(dp1517
g11
VVP
p1518
sbatp1519
Rp1520
(dp1521
g11
VVP
p1522
sbag0
(g1
g2
(lp1523
V.
p1524
atp1525
Rp1526
(dp1527
g11
V.
p1528
sbatp1529
Rp1530
(dp1531
g11
VS
p1532
sbatp1533
Rp1534
(dp1535
g11
S'id: 8'
p1536
sbag0
(g1
g2
(lp1537
g0
(g1
g2
(lp1538
g0
(g1
g2
(lp1539
g0
(g1
g2
(lp1540
VDo
p1541
atp1542
Rp1543
(dp1544
g11
VVBP
p1545
sbag0
(g1
g2
(lp1546
Vn't
p1547
atp1548
Rp1549
(dp1550
g11
VRB
p1551
sbag0
(g1
g2
(lp1552
g0
(g1
g2
(lp1553
Vknow
p1554
atp1555
Rp1556
(dp1557
g11
VVB
p1558
sbag0
(g1
g2
(lp1559
g0
(g1
g2
(lp1560
g0
(g1
g2
(lp1561
Vwhat
p1562
atp1563
Rp1564
(dp1565
g11
VWP
p1566
sbatp1567
Rp1568
(dp1569
g11
VWHNP
p1570
sbag0
(g1
g2
(lp1571
g0
(g1
g2
(lp1572
g0
(g1
g2
(lp1573
Vthis
p1574
atp1575
Rp1576
(dp1577
g11
VDT
p1578
sbatp1579
Rp1580
(dp1581
g11
VNP
p1582
sbag0
(g1
g2
(lp1583
g0
(g1
g2
(lp1584
Vis
p1585
atp1586
Rp1587
(dp1588
g11
VVBZ
p1589
sbatp1590
Rp1591
(dp1592
g11
VVP
p1593
sbatp1594
Rp1595
(dp1596
g11
VS
p1597
sbatp1598
Rp1599
(dp1600
g11
VSBAR
p1601
sbatp1602
Rp1603
(dp1604
g11
VVP
p1605
sbatp1606
Rp1607
(dp1608
g11
VVP
p1609
sbag0
(g1
g2
(lp1610
V.
p1611
atp1612
Rp1613
(dp1614
g11
V.
p1615
sbatp1616
Rp1617
(dp1618
g11
VS
p1619
sbatp1620
Rp1621
(dp1622
g11
S'id: 9'
p1623
sbag0
(g1
g2
(lp1624
g0
(g1
g2
(lp1625
g0
(g1
g2
(lp1626
g0
(g1
g2
(lp1627
g0
(g1
g2
(lp1628
VThe
p1629
atp1630
Rp1631
(dp1632
g11
VDT
p1633
sbag0
(g1
g2
(lp1634
Vwater
p1635
atp1636
Rp1637
(dp1638
g11
VNN
p1639
sbatp1640
Rp1641
(dp1642
g11
VNP
p1643
sbag0
(g1
g2
(lp1644
g0
(g1
g2
(lp1645
Vis
p1646
atp1647
Rp1648
(dp1649
g11
VVBZ
p1650
sbag0
(g1
g2
(lp1651
g0
(g1
g2
(lp1652
Vrunning
p1653
atp1654
Rp1655
(dp1656
g11
VVBG
p1657
sbatp1658
Rp1659
(dp1660
g11
VVP
p1661
sbatp1662
Rp1663
(dp1664
g11
VVP
p1665
sbatp1666
Rp1667
(dp1668
g11
VS
p1669
sbag0
(g1
g2
(lp1670
V,
p1671
atp1672
Rp1673
(dp1674
g11
V,
p1675
sbag0
(g1
g2
(lp1676
g0
(g1
g2
(lp1677
g0
(g1
g2
(lp1678
Vthe
p1679
atp1680
Rp1681
(dp1682
g11
VDT
p1683
sbag0
(g1
g2
(lp1684
Vwater
p1685
atp1686
Rp1687
(dp1688
g11
VNN
p1689
sbatp1690
Rp1691
(dp1692
g11
VNP
p1693
sbag0
(g1
g2
(lp1694
g0
(g1
g2
(lp1695
Vis
p1696
atp1697
Rp1698
(dp1699
g11
VVBZ
p1700
sbag0
(g1
g2
(lp1701
g0
(g1
g2
(lp1702
Vrunning
p1703
atp1704
Rp1705
(dp1706
g11
VVBG
p1707
sbatp1708
Rp1709
(dp1710
g11
VVP
p1711
sbatp1712
Rp1713
(dp1714
g11
VVP
p1715
sbatp1716
Rp1717
(dp1718
g11
VS
p1719
sbag0
(g1
g2
(lp1720
V,
p1721
atp1722
Rp1723
(dp1724
g11
V,
p1725
sbag0
(g1
g2
(lp1726
g0
(g1
g2
(lp1727
g0
(g1
g2
(lp1728
VI
p1729
atp1730
Rp1731
(dp1732
g11
VPRP
p1733
sbatp1734
Rp1735
(dp1736
g11
VNP
p1737
sbag0
(g1
g2
(lp1738
g0
(g1
g2
(lp1739
Vsee
p1740
atp1741
Rp1742
(dp1743
g11
VVBP
p1744
sbag0
(g1
g2
(lp1745
g0
(g1
g2
(lp1746
g0
(g1
g2
(lp1747
g0
(g1
g2
(lp1748
g0
(g1
g2
(lp1749
Vthe
p1750
atp1751
Rp1752
(dp1753
g11
VDT
p1754
sbag0
(g1
g2
(lp1755
Vmama
p1756
atp1757
Rp1758
(dp1759
g11
VNN
p1760
sbatp1761
Rp1762
(dp1763
g11
VNP
p1764
sbag0
(g1
g2
(lp1765
V,
p1766
atp1767
Rp1768
(dp1769
g11
V,
p1770
sbag0
(g1
g2
(lp1771
g0
(g1
g2
(lp1772
Vthe
p1773
atp1774
Rp1775
(dp1776
g11
VDT
p1777
sbag0
(g1
g2
(lp1778
Vmother
p1779
atp1780
Rp1781
(dp1782
g11
VNN
p1783
sbatp1784
Rp1785
(dp1786
g11
VNP
p1787
sbag0
(g1
g2
(lp1788
V,
p1789
atp1790
Rp1791
(dp1792
g11
V,
p1793
sbatp1794
Rp1795
(dp1796
g11
VNP
p1797
sbag0
(g1
g2
(lp1798
g0
(g1
g2
(lp1799
Vhad
p1800
atp1801
Rp1802
(dp1803
g11
VVBD
p1804
sbag0
(g1
g2
(lp1805
Vn't
p1806
atp1807
Rp1808
(dp1809
g11
VRB
p1810
sbag0
(g1
g2
(lp1811
g0
(g1
g2
(lp1812
Vcut
p1813
atp1814
Rp1815
(dp1816
g11
VVB
p1817
sbag0
(g1
g2
(lp1818
g0
(g1
g2
(lp1819
Vthe
p1820
atp1821
Rp1822
(dp1823
g11
VDT
p1824
sbag0
(g1
g2
(lp1825
Vwater
p1826
atp1827
Rp1828
(dp1829
g11
VNN
p1830
sbatp1831
Rp1832
(dp1833
g11
VNP
p1834
sbag0
(g1
g2
(lp1835
g0
(g1
g2
(lp1836
Voff
p1837
atp1838
Rp1839
(dp1840
g11
VRP
p1841
sbatp1842
Rp1843
(dp1844
g11
VPRT
p1845
sbatp1846
Rp1847
(dp1848
g11
VVP
p1849
sbatp1850
Rp1851
(dp1852
g11
VVP
p1853
sbatp1854
Rp1855
(dp1856
g11
VS
p1857
sbatp1858
Rp1859
(dp1860
g11
VSBAR
p1861
sbatp1862
Rp1863
(dp1864
g11
VVP
p1865
sbatp1866
Rp1867
(dp1868
g11
VS
p1869
sbag0
(g1
g2
(lp1870
V,
p1871
atp1872
Rp1873
(dp1874
g11
V,
p1875
sbag0
(g1
g2
(lp1876
Vand
p1877
atp1878
Rp1879
(dp1880
g11
VCC
p1881
sbag0
(g1
g2
(lp1882
g0
(g1
g2
(lp1883
g0
(g1
g2
(lp1884
Vit
p1885
atp1886
Rp1887
(dp1888
g11
VPRP
p1889
sbatp1890
Rp1891
(dp1892
g11
VNP
p1893
sbag0
(g1
g2
(lp1894
g0
(g1
g2
(lp1895
Vis
p1896
atp1897
Rp1898
(dp1899
g11
VVBZ
p1900
sbag0
(g1
g2
(lp1901
g0
(g1
g2
(lp1902
Vrunning
p1903
atp1904
Rp1905
(dp1906
g11
VVBG
p1907
sbag0
(g1
g2
(lp1908
g0
(g1
g2
(lp1909
Vonto
p1910
atp1911
Rp1912
(dp1913
g11
VIN
p1914
sbag0
(g1
g2
(lp1915
g0
(g1
g2
(lp1916
Vthe
p1917
atp1918
Rp1919
(dp1920
g11
VDT
p1921
sbag0
(g1
g2
(lp1922
Vfloor
p1923
atp1924
Rp1925
(dp1926
g11
VNN
p1927
sbatp1928
Rp1929
(dp1930
g11
VNP
p1931
sbatp1932
Rp1933
(dp1934
g11
VPP
p1935
sbatp1936
Rp1937
(dp1938
g11
VVP
p1939
sbatp1940
Rp1941
(dp1942
g11
VVP
p1943
sbatp1944
Rp1945
(dp1946
g11
VS
p1947
sbag0
(g1
g2
(lp1948
V.
p1949
atp1950
Rp1951
(dp1952
g11
V.
p1953
sbatp1954
Rp1955
(dp1956
g11
VS
p1957
sbatp1958
Rp1959
(dp1960
g11
S'id: 10'
p1961
sbatp1962
Rp1963
(dp1964
g11
S'sentences'
p1965
sb.