ccopy_reg
_reconstructor
p0
(cnltk.tree
Tree
p1
c__builtin__
list
p2
(lp3
g0
(g1
g2
(lp4
g0
(g1
g2
(lp5
g0
(g1
g2
(lp6
VWater
p7
atp8
Rp9
(dp10
S'_label'
p11
VNN
p12
sbag0
(g1
g2
(lp13
V.
p14
atp15
Rp16
(dp17
g11
V.
p18
sbatp19
Rp20
(dp21
g11
VNP
p22
sbatp23
Rp24
(dp25
g11
S'id: 0'
p26
sbag0
(g1
g2
(lp27
g0
(g1
g2
(lp28
g0
(g1
g2
(lp29
g0
(g1
g2
(lp30
VWater
p31
atp32
Rp33
(dp34
g11
VNN
p35
sbatp36
Rp37
(dp38
g11
VNP
p39
sbag0
(g1
g2
(lp40
V,
p41
atp42
Rp43
(dp44
g11
V,
p45
sbag0
(g1
g2
(lp46
g0
(g1
g2
(lp47
Vno
p48
atp49
Rp50
(dp51
g11
VDT
p52
sbag0
(g1
g2
(lp53
Vno
p54
atp55
Rp56
(dp57
g11
VDT
p58
sbag0
(g1
g2
(lp59
Vwater
p60
atp61
Rp62
(dp63
g11
VNN
p64
sbatp65
Rp66
(dp67
g11
VNP
p68
sbag0
(g1
g2
(lp69
V.
p70
atp71
Rp72
(dp73
g11
V.
p74
sbatp75
Rp76
(dp77
g11
VNP
p78
sbatp79
Rp80
(dp81
g11
S'id: 1'
p82
sbag0
(g1
g2
(lp83
g0
(g1
g2
(lp84
g0
(g1
g2
(lp85
g0
(g1
g2
(lp86
VI
p87
atp88
Rp89
(dp90
g11
VPRP
p91
sbatp92
Rp93
(dp94
g11
VNP
p95
sbag0
(g1
g2
(lp96
g0
(g1
g2
(lp97
Vdo
p98
atp99
Rp100
(dp101
g11
VVBP
p102
sbag0
(g1
g2
(lp103
Vn't
p104
atp105
Rp106
(dp107
g11
VRB
p108
sbag0
(g1
g2
(lp109
g0
(g1
g2
(lp110
Vknow
p111
atp112
Rp113
(dp114
g11
VVB
p115
sbag0
(g1
g2
(lp116
V,
p117
atp118
Rp119
(dp120
g11
V,
p121
sbag0
(g1
g2
(lp122
g0
(g1
g2
(lp123
g0
(g1
g2
(lp124
Vwater
p125
atp126
Rp127
(dp128
g11
VNN
p129
sbatp130
Rp131
(dp132
g11
VNP
p133
sbag0
(g1
g2
(lp134
g0
(g1
g2
(lp135
Vo
p136
atp137
Rp138
(dp139
g11
VNN
p140
sbag0
(g1
g2
(lp141
Vno
p142
atp143
Rp144
(dp145
g11
VRB
p146
sbatp147
Rp148
(dp149
g11
VNP
p150
sbatp151
Rp152
(dp153
g11
VNP-TMP
p154
sbag0
(g1
g2
(lp155
V,
p156
atp157
Rp158
(dp159
g11
V,
p160
sbag0
(g1
g2
(lp161
g0
(g1
g2
(lp162
Vwater
p163
atp164
Rp165
(dp166
g11
VNN
p167
sbatp168
Rp169
(dp170
g11
VNP
p171
sbatp172
Rp173
(dp174
g11
VVP
p175
sbatp176
Rp177
(dp178
g11
VVP
p179
sbag0
(g1
g2
(lp180
V.
p181
atp182
Rp183
(dp184
g11
V.
p185
sbatp186
Rp187
(dp188
g11
VS
p189
sbatp190
Rp191
(dp192
g11
S'id: 2'
p193
sbag0
(g1
g2
(lp194
g0
(g1
g2
(lp195
g0
(g1
g2
(lp196
g0
(g1
g2
(lp197
VI
p198
atp199
Rp200
(dp201
g11
VPRP
p202
sbatp203
Rp204
(dp205
g11
VNP
p206
sbag0
(g1
g2
(lp207
g0
(g1
g2
(lp208
Vdo
p209
atp210
Rp211
(dp212
g11
VVBP
p213
sbag0
(g1
g2
(lp214
Vn't
p215
atp216
Rp217
(dp218
g11
VRB
p219
sbag0
(g1
g2
(lp220
g0
(g1
g2
(lp221
Vknow
p222
atp223
Rp224
(dp225
g11
VVB
p226
sbatp227
Rp228
(dp229
g11
VVP
p230
sbatp231
Rp232
(dp233
g11
VVP
p234
sbag0
(g1
g2
(lp235
V.
p236
atp237
Rp238
(dp239
g11
V.
p240
sbatp241
Rp242
(dp243
g11
VS
p244
sbatp245
Rp246
(dp247
g11
S'id: 3'
p248
sbag0
(g1
g2
(lp249
g0
(g1
g2
(lp250
g0
(g1
g2
(lp251
g0
(g1
g2
(lp252
VNo
p253
atp254
Rp255
(dp256
g11
VDT
p257
sbatp258
Rp259
(dp260
g11
VNP
p261
sbag0
(g1
g2
(lp262
V.
p263
atp264
Rp265
(dp266
g11
V.
p267
sbatp268
Rp269
(dp270
g11
VFRAG
p271
sbatp272
Rp273
(dp274
g11
S'id: 4'
p275
sbag0
(g1
g2
(lp276
g0
(g1
g2
(lp277
g0
(g1
g2
(lp278
g0
(g1
g2
(lp279
g0
(g1
g2
(lp280
VLeaves
p281
atp282
Rp283
(dp284
g11
VVBZ
p285
sbatp286
Rp287
(dp288
g11
VVP
p289
sbag0
(g1
g2
(lp290
V,
p291
atp292
Rp293
(dp294
g11
V,
p295
sbag0
(g1
g2
(lp296
g0
(g1
g2
(lp297
g0
(g1
g2
(lp298
Vtwo
p299
atp300
Rp301
(dp302
g11
VCD
p303
sbatp304
Rp305
(dp306
g11
VNP
p307
sbag0
(g1
g2
(lp308
g0
(g1
g2
(lp309
Vof
p310
atp311
Rp312
(dp313
g11
VIN
p314
sbag0
(g1
g2
(lp315
g0
(g1
g2
(lp316
Vthem
p317
atp318
Rp319
(dp320
g11
VPRP
p321
sbatp322
Rp323
(dp324
g11
VNP
p325
sbatp326
Rp327
(dp328
g11
VPP
p329
sbatp330
Rp331
(dp332
g11
VNP
p333
sbatp334
Rp335
(dp336
g11
VVP
p337
sbag0
(g1
g2
(lp338
V.
p339
atp340
Rp341
(dp342
g11
V.
p343
sbatp344
Rp345
(dp346
g11
VS
p347
sbatp348
Rp349
(dp350
g11
S'id: 5'
p351
sbag0
(g1
g2
(lp352
g0
(g1
g2
(lp353
g0
(g1
g2
(lp354
VWater
p355
atp356
Rp357
(dp358
g11
VNN
p359
sbag0
(g1
g2
(lp360
V.
p361
atp362
Rp363
(dp364
g11
V.
p365
sbatp366
Rp367
(dp368
g11
VNP
p369
sbatp370
Rp371
(dp372
g11
S'id: 6'
p373
sbag0
(g1
g2
(lp374
g0
(g1
g2
(lp375
g0
(g1
g2
(lp376
g0
(g1
g2
(lp377
VGirl
p378
atp379
Rp380
(dp381
g11
VNNP
p382
sbatp383
Rp384
(dp385
g11
VNP
p386
sbag0
(g1
g2
(lp387
V.
p388
atp389
Rp390
(dp391
g11
V.
p392
sbatp393
Rp394
(dp395
g11
VFRAG
p396
sbatp397
Rp398
(dp399
g11
S'id: 7'
p400
sbatp401
Rp402
(dp403
g11
S'sentences'
p404
sb.