ccopy_reg
_reconstructor
p0
(cnltk.tree
Tree
p1
c__builtin__
list
p2
(lp3
g0
(g1
g2
(lp4
g0
(g1
g2
(lp5
g0
(g1
g2
(lp6
g0
(g1
g2
(lp7
Vlet
p8
atp9
Rp10
(dp11
S'_label'
p12
VVB
p13
sbag0
(g1
g2
(lp14
g0
(g1
g2
(lp15
g0
(g1
g2
(lp16
V's
p17
atp18
Rp19
(dp20
g12
VPOS
p21
sbatp22
Rp23
(dp24
g12
VNP
p25
sbag0
(g1
g2
(lp26
g0
(g1
g2
(lp27
Vsee
p28
atp29
Rp30
(dp31
g12
VVB
p32
sbag0
(g1
g2
(lp33
g0
(g1
g2
(lp34
g0
(g1
g2
(lp35
g0
(g1
g2
(lp36
Vthis
p37
atp38
Rp39
(dp40
g12
VDT
p41
sbatp42
Rp43
(dp44
g12
VNP
p45
sbag0
(g1
g2
(lp46
g0
(g1
g2
(lp47
Vis
p48
atp49
Rp50
(dp51
g12
VVBZ
p52
sbag0
(g1
g2
(lp53
g0
(g1
g2
(lp54
Va
p55
atp56
Rp57
(dp58
g12
VDT
p59
sbag0
(g1
g2
(lp60
Vcircus
p61
atp62
Rp63
(dp64
g12
VNN
p65
sbatp66
Rp67
(dp68
g12
VNP
p69
sbatp70
Rp71
(dp72
g12
VVP
p73
sbatp74
Rp75
(dp76
g12
VS
p77
sbatp78
Rp79
(dp80
g12
VSBAR
p81
sbatp82
Rp83
(dp84
g12
VVP
p85
sbatp86
Rp87
(dp88
g12
VS
p89
sbatp90
Rp91
(dp92
g12
VVP
p93
sbag0
(g1
g2
(lp94
V.
p95
atp96
Rp97
(dp98
g12
V.
p99
sbatp100
Rp101
(dp102
g12
VS
p103
sbatp104
Rp105
(dp106
g12
S'id: 0'
p107
sbag0
(g1
g2
(lp108
g0
(g1
g2
(lp109
g0
(g1
g2
(lp110
g0
(g1
g2
(lp111
VThere
p112
atp113
Rp114
(dp115
g12
VEX
p116
sbatp117
Rp118
(dp119
g12
VNP
p120
sbag0
(g1
g2
(lp121
g0
(g1
g2
(lp122
Vis
p123
atp124
Rp125
(dp126
g12
VVBZ
p127
sbag0
(g1
g2
(lp128
g0
(g1
g2
(lp129
g0
(g1
g2
(lp130
Va
p131
atp132
Rp133
(dp134
g12
VDT
p135
sbag0
(g1
g2
(lp136
Vman
p137
atp138
Rp139
(dp140
g12
VNN
p141
sbatp142
Rp143
(dp144
g12
VNP
p145
sbag0
(g1
g2
(lp146
g0
(g1
g2
(lp147
Vin
p148
atp149
Rp150
(dp151
g12
VIN
p152
sbag0
(g1
g2
(lp153
g0
(g1
g2
(lp154
g0
(g1
g2
(lp155
Va
p156
atp157
Rp158
(dp159
g12
VDT
p160
sbag0
(g1
g2
(lp161
Vcage
p162
atp163
Rp164
(dp165
g12
VNN
p166
sbatp167
Rp168
(dp169
g12
VNP
p170
sbag0
(g1
g2
(lp171
g0
(g1
g2
(lp172
Vwith
p173
atp174
Rp175
(dp176
g12
VIN
p177
sbag0
(g1
g2
(lp178
g0
(g1
g2
(lp179
Va
p180
atp181
Rp182
(dp183
g12
VDT
p184
sbag0
(g1
g2
(lp185
Vlion
p186
atp187
Rp188
(dp189
g12
VNN
p190
sbatp191
Rp192
(dp193
g12
VNP
p194
sbatp195
Rp196
(dp197
g12
VPP
p198
sbatp199
Rp200
(dp201
g12
VNP
p202
sbatp203
Rp204
(dp205
g12
VPP
p206
sbatp207
Rp208
(dp209
g12
VNP
p210
sbatp211
Rp212
(dp213
g12
VVP
p214
sbag0
(g1
g2
(lp215
V.
p216
atp217
Rp218
(dp219
g12
V.
p220
sbatp221
Rp222
(dp223
g12
VS
p224
sbatp225
Rp226
(dp227
g12
S'id: 1'
p228
sbag0
(g1
g2
(lp229
g0
(g1
g2
(lp230
g0
(g1
g2
(lp231
g0
(g1
g2
(lp232
VThere
p233
atp234
Rp235
(dp236
g12
VEX
p237
sbatp238
Rp239
(dp240
g12
VNP
p241
sbag0
(g1
g2
(lp242
g0
(g1
g2
(lp243
V's
p244
atp245
Rp246
(dp247
g12
VVBZ
p248
sbag0
(g1
g2
(lp249
g0
(g1
g2
(lp250
g0
(g1
g2
(lp251
Va
p252
atp253
Rp254
(dp255
g12
VDT
p256
sbag0
(g1
g2
(lp257
Vboy
p258
atp259
Rp260
(dp261
g12
VNN
p262
sbatp263
Rp264
(dp265
g12
VNP
p266
sbag0
(g1
g2
(lp267
Vand
p268
atp269
Rp270
(dp271
g12
VCC
p272
sbag0
(g1
g2
(lp273
g0
(g1
g2
(lp274
Va
p275
atp276
Rp277
(dp278
g12
VDT
p279
sbag0
(g1
g2
(lp280
Vand
p281
atp282
Rp283
(dp284
g12
VCC
p285
sbag0
(g1
g2
(lp286
Vson
p287
atp288
Rp289
(dp290
g12
VNN
p291
sbatp292
Rp293
(dp294
g12
VNP
p295
sbatp296
Rp297
(dp298
g12
VNP
p299
sbatp300
Rp301
(dp302
g12
VVP
p303
sbag0
(g1
g2
(lp304
V.
p305
atp306
Rp307
(dp308
g12
V.
p309
sbatp310
Rp311
(dp312
g12
VS
p313
sbatp314
Rp315
(dp316
g12
S'id: 2'
p317
sbag0
(g1
g2
(lp318
g0
(g1
g2
(lp319
g0
(g1
g2
(lp320
g0
(g1
g2
(lp321
VThere
p322
atp323
Rp324
(dp325
g12
VEX
p326
sbatp327
Rp328
(dp329
g12
VNP
p330
sbag0
(g1
g2
(lp331
g0
(g1
g2
(lp332
V's
p333
atp334
Rp335
(dp336
g12
VVBZ
p337
sbag0
(g1
g2
(lp338
g0
(g1
g2
(lp339
g0
(g1
g2
(lp340
Va
p341
atp342
Rp343
(dp344
g12
VDT
p345
sbag0
(g1
g2
(lp346
Vwoman
p347
atp348
Rp349
(dp350
g12
VNN
p351
sbatp352
Rp353
(dp354
g12
VNP
p355
sbag0
(g1
g2
(lp356
V,
p357
atp358
Rp359
(dp360
g12
V,
p361
sbag0
(g1
g2
(lp362
g0
(g1
g2
(lp363
g0
(g1
g2
(lp364
Vdaughter
p365
atp366
Rp367
(dp368
g12
VNN
p369
sbatp370
Rp371
(dp372
g12
VNP
p373
sbag0
(g1
g2
(lp374
V,
p375
atp376
Rp377
(dp378
g12
V,
p379
sbag0
(g1
g2
(lp380
g0
(g1
g2
(lp381
Vson
p382
atp383
Rp384
(dp385
g12
VNN
p386
sbatp387
Rp388
(dp389
g12
VNP
p390
sbatp391
Rp392
(dp393
g12
VNP
p394
sbatp395
Rp396
(dp397
g12
VNP
p398
sbatp399
Rp400
(dp401
g12
VVP
p402
sbag0
(g1
g2
(lp403
V.
p404
atp405
Rp406
(dp407
g12
V.
p408
sbatp409
Rp410
(dp411
g12
VS
p412
sbatp413
Rp414
(dp415
g12
S'id: 3'
p416
sbag0
(g1
g2
(lp417
g0
(g1
g2
(lp418
g0
(g1
g2
(lp419
g0
(g1
g2
(lp420
VThere
p421
atp422
Rp423
(dp424
g12
VEX
p425
sbatp426
Rp427
(dp428
g12
VNP
p429
sbag0
(g1
g2
(lp430
g0
(g1
g2
(lp431
V's
p432
atp433
Rp434
(dp435
g12
VVBZ
p436
sbag0
(g1
g2
(lp437
g0
(g1
g2
(lp438
Va
p439
atp440
Rp441
(dp442
g12
VDT
p443
sbag0
(g1
g2
(lp444
Vclown
p445
atp446
Rp447
(dp448
g12
VNN
p449
sbatp450
Rp451
(dp452
g12
VNP
p453
sbatp454
Rp455
(dp456
g12
VVP
p457
sbag0
(g1
g2
(lp458
V.
p459
atp460
Rp461
(dp462
g12
V.
p463
sbatp464
Rp465
(dp466
g12
VS
p467
sbatp468
Rp469
(dp470
g12
S'id: 4'
p471
sbag0
(g1
g2
(lp472
g0
(g1
g2
(lp473
g0
(g1
g2
(lp474
g0
(g1
g2
(lp475
VThere
p476
atp477
Rp478
(dp479
g12
VEX
p480
sbatp481
Rp482
(dp483
g12
VNP
p484
sbag0
(g1
g2
(lp485
g0
(g1
g2
(lp486
V's
p487
atp488
Rp489
(dp490
g12
VVBZ
p491
sbag0
(g1
g2
(lp492
g0
(g1
g2
(lp493
g0
(g1
g2
(lp494
Va
p495
atp496
Rp497
(dp498
g12
VDT
p499
sbag0
(g1
g2
(lp500
Vwoman
p501
atp502
Rp503
(dp504
g12
VNN
p505
sbatp506
Rp507
(dp508
g12
VNP
p509
sbag0
(g1
g2
(lp510
g0
(g1
g2
(lp511
Von
p512
atp513
Rp514
(dp515
g12
VIN
p516
sbag0
(g1
g2
(lp517
g0
(g1
g2
(lp518
Va
p519
atp520
Rp521
(dp522
g12
VDT
p523
sbag0
(g1
g2
(lp524
Vhorse
p525
atp526
Rp527
(dp528
g12
VNN
p529
sbatp530
Rp531
(dp532
g12
VNP
p533
sbatp534
Rp535
(dp536
g12
VPP
p537
sbatp538
Rp539
(dp540
g12
VNP
p541
sbatp542
Rp543
(dp544
g12
VVP
p545
sbag0
(g1
g2
(lp546
V.
p547
atp548
Rp549
(dp550
g12
V.
p551
sbatp552
Rp553
(dp554
g12
VS
p555
sbatp556
Rp557
(dp558
g12
S'id: 5'
p559
sbag0
(g1
g2
(lp560
g0
(g1
g2
(lp561
g0
(g1
g2
(lp562
g0
(g1
g2
(lp563
VFive
p564
atp565
Rp566
(dp567
g12
VCD
p568
sbag0
(g1
g2
(lp569
Vpeople
p570
atp571
Rp572
(dp573
g12
VNNS
p574
sbatp575
Rp576
(dp577
g12
VNP
p578
sbag0
(g1
g2
(lp579
g0
(g1
g2
(lp580
Vwatching
p581
atp582
Rp583
(dp584
g12
VVBG
p585
sbatp586
Rp587
(dp588
g12
VVP
p589
sbag0
(g1
g2
(lp590
V.
p591
atp592
Rp593
(dp594
g12
V.
p595
sbatp596
Rp597
(dp598
g12
VNP
p599
sbatp600
Rp601
(dp602
g12
S'id: 6'
p603
sbag0
(g1
g2
(lp604
g0
(g1
g2
(lp605
g0
(g1
g2
(lp606
g0
(g1
g2
(lp607
VThere
p608
atp609
Rp610
(dp611
g12
VEX
p612
sbatp613
Rp614
(dp615
g12
VNP
p616
sbag0
(g1
g2
(lp617
g0
(g1
g2
(lp618
V's
p619
atp620
Rp621
(dp622
g12
VVBZ
p623
sbag0
(g1
g2
(lp624
g0
(g1
g2
(lp625
g0
(g1
g2
(lp626
Va
p627
atp628
Rp629
(dp630
g12
VDT
p631
sbag0
(g1
g2
(lp632
Vman
p633
atp634
Rp635
(dp636
g12
VNN
p637
sbatp638
Rp639
(dp640
g12
VNP
p641
sbag0
(g1
g2
(lp642
g0
(g1
g2
(lp643
Vwalking
p644
atp645
Rp646
(dp647
g12
VVBG
p648
sbag0
(g1
g2
(lp649
g0
(g1
g2
(lp650
Von
p651
atp652
Rp653
(dp654
g12
VIN
p655
sbag0
(g1
g2
(lp656
g0
(g1
g2
(lp657
Vthe
p658
atp659
Rp660
(dp661
g12
VDT
p662
sbag0
(g1
g2
(lp663
Vwire
p664
atp665
Rp666
(dp667
g12
VNN
p668
sbatp669
Rp670
(dp671
g12
VNP
p672
sbatp673
Rp674
(dp675
g12
VPP
p676
sbatp677
Rp678
(dp679
g12
VVP
p680
sbatp681
Rp682
(dp683
g12
VNP
p684
sbatp685
Rp686
(dp687
g12
VVP
p688
sbag0
(g1
g2
(lp689
V.
p690
atp691
Rp692
(dp693
g12
V.
p694
sbatp695
Rp696
(dp697
g12
VS
p698
sbatp699
Rp700
(dp701
g12
S'id: 7'
p702
sbag0
(g1
g2
(lp703
g0
(g1
g2
(lp704
g0
(g1
g2
(lp705
g0
(g1
g2
(lp706
VLet
p707
atp708
Rp709
(dp710
g12
VVB
p711
sbag0
(g1
g2
(lp712
g0
(g1
g2
(lp713
g0
(g1
g2
(lp714
V's
p715
atp716
Rp717
(dp718
g12
VPRP
p719
sbatp720
Rp721
(dp722
g12
VNP
p723
sbag0
(g1
g2
(lp724
g0
(g1
g2
(lp725
Vsee
p726
atp727
Rp728
(dp729
g12
VVB
p730
sbatp731
Rp732
(dp733
g12
VVP
p734
sbatp735
Rp736
(dp737
g12
VS
p738
sbatp739
Rp740
(dp741
g12
VVP
p742
sbag0
(g1
g2
(lp743
V.
p744
atp745
Rp746
(dp747
g12
V.
p748
sbatp749
Rp750
(dp751
g12
VS
p752
sbatp753
Rp754
(dp755
g12
S'id: 8'
p756
sbag0
(g1
g2
(lp757
g0
(g1
g2
(lp758
g0
(g1
g2
(lp759
g0
(g1
g2
(lp760
VThe
p761
atp762
Rp763
(dp764
g12
VDT
p765
sbag0
(g1
g2
(lp766
Vgirl
p767
atp768
Rp769
(dp770
g12
VNN
p771
sbatp772
Rp773
(dp774
g12
VNP
p775
sbag0
(g1
g2
(lp776
g0
(g1
g2
(lp777
Vis
p778
atp779
Rp780
(dp781
g12
VVBZ
p782
sbag0
(g1
g2
(lp783
g0
(g1
g2
(lp784
Vlaughing
p785
atp786
Rp787
(dp788
g12
VVBG
p789
sbatp790
Rp791
(dp792
g12
VVP
p793
sbatp794
Rp795
(dp796
g12
VVP
p797
sbag0
(g1
g2
(lp798
V.
p799
atp800
Rp801
(dp802
g12
V.
p803
sbatp804
Rp805
(dp806
g12
VS
p807
sbatp808
Rp809
(dp810
g12
S'id: 9'
p811
sbag0
(g1
g2
(lp812
g0
(g1
g2
(lp813
g0
(g1
g2
(lp814
g0
(g1
g2
(lp815
g0
(g1
g2
(lp816
VWoman
p817
atp818
Rp819
(dp820
g12
VNNP
p821
sbag0
(g1
g2
(lp822
V's
p823
atp824
Rp825
(dp826
g12
VPOS
p827
sbatp828
Rp829
(dp830
g12
VNP
p831
sbag0
(g1
g2
(lp832
g0
(g1
g2
(lp833
Vwearing
p834
atp835
Rp836
(dp837
g12
VVBG
p838
sbag0
(g1
g2
(lp839
g0
(g1
g2
(lp840
g0
(g1
g2
(lp841
Vsome
p842
atp843
Rp844
(dp845
g12
VDT
p846
sbag0
(g1
g2
(lp847
Vkind
p848
atp849
Rp850
(dp851
g12
VNN
p852
sbatp853
Rp854
(dp855
g12
VNP
p856
sbag0
(g1
g2
(lp857
g0
(g1
g2
(lp858
Vof
p859
atp860
Rp861
(dp862
g12
VIN
p863
sbag0
(g1
g2
(lp864
g0
(g1
g2
(lp865
Vsparkly
p866
atp867
Rp868
(dp869
g12
VJJ
p870
sbag0
(g1
g2
(lp871
Vthing
p872
atp873
Rp874
(dp875
g12
VNN
p876
sbatp877
Rp878
(dp879
g12
VNP
p880
sbatp881
Rp882
(dp883
g12
VPP
p884
sbatp885
Rp886
(dp887
g12
VNP
p888
sbatp889
Rp890
(dp891
g12
VVP
p892
sbatp893
Rp894
(dp895
g12
VS
p896
sbag0
(g1
g2
(lp897
V.
p898
atp899
Rp900
(dp901
g12
V.
p902
sbatp903
Rp904
(dp905
g12
VS
p906
sbatp907
Rp908
(dp909
g12
S'id: 10'
p910
sbag0
(g1
g2
(lp911
g0
(g1
g2
(lp912
g0
(g1
g2
(lp913
g0
(g1
g2
(lp914
g0
(g1
g2
(lp915
VClown
p916
atp917
Rp918
(dp919
g12
VNNP
p920
sbag0
(g1
g2
(lp921
V's
p922
atp923
Rp924
(dp925
g12
VPOS
p926
sbatp927
Rp928
(dp929
g12
VNP
p930
sbag0
(g1
g2
(lp931
Vspilling
p932
atp933
Rp934
(dp935
g12
VNN
p936
sbatp937
Rp938
(dp939
g12
VNP
p940
sbag0
(g1
g2
(lp941
g0
(g1
g2
(lp942
g0
(g1
g2
(lp943
Vi
p944
atp945
Rp946
(dp947
g12
VFW
p948
sbatp949
Rp950
(dp951
g12
VNP
p952
sbag0
(g1
g2
(lp953
g0
(g1
g2
(lp954
Vguess
p955
atp956
Rp957
(dp958
g12
VNN
p959
sbag0
(g1
g2
(lp960
Vpopcorn
p961
atp962
Rp963
(dp964
g12
VNN
p965
sbatp966
Rp967
(dp968
g12
VNP
p969
sbatp970
Rp971
(dp972
g12
VNP
p973
sbag0
(g1
g2
(lp974
V.
p975
atp976
Rp977
(dp978
g12
V.
p979
sbatp980
Rp981
(dp982
g12
VNP
p983
sbatp984
Rp985
(dp986
g12
S'id: 11'
p987
sbag0
(g1
g2
(lp988
g0
(g1
g2
(lp989
g0
(g1
g2
(lp990
g0
(g1
g2
(lp991
VHe
p992
atp993
Rp994
(dp995
g12
VPRP
p996
sbatp997
Rp998
(dp999
g12
VNP
p1000
sbag0
(g1
g2
(lp1001
g0
(g1
g2
(lp1002
V's
p1003
atp1004
Rp1005
(dp1006
g12
VVBZ
p1007
sbag0
(g1
g2
(lp1008
g0
(g1
g2
(lp1009
Vwearing
p1010
atp1011
Rp1012
(dp1013
g12
VVBG
p1014
sbag0
(g1
g2
(lp1015
g0
(g1
g2
(lp1016
Va
p1017
atp1018
Rp1019
(dp1020
g12
VDT
p1021
sbag0
(g1
g2
(lp1022
Vhat
p1023
atp1024
Rp1025
(dp1026
g12
VNN
p1027
sbatp1028
Rp1029
(dp1030
g12
VNP
p1031
sbatp1032
Rp1033
(dp1034
g12
VVP
p1035
sbatp1036
Rp1037
(dp1038
g12
VVP
p1039
sbag0
(g1
g2
(lp1040
V.
p1041
atp1042
Rp1043
(dp1044
g12
V.
p1045
sbatp1046
Rp1047
(dp1048
g12
VS
p1049
sbatp1050
Rp1051
(dp1052
g12
S'id: 12'
p1053
sbag0
(g1
g2
(lp1054
g0
(g1
g2
(lp1055
g0
(g1
g2
(lp1056
g0
(g1
g2
(lp1057
VWearing
p1058
atp1059
Rp1060
(dp1061
g12
VVBG
p1062
sbag0
(g1
g2
(lp1063
g0
(g1
g2
(lp1064
Va
p1065
atp1066
Rp1067
(dp1068
g12
VDT
p1069
sbag0
(g1
g2
(lp1070
Vtie
p1071
atp1072
Rp1073
(dp1074
g12
VNN
p1075
sbatp1076
Rp1077
(dp1078
g12
VNP
p1079
sbatp1080
Rp1081
(dp1082
g12
VVP
p1083
sbag0
(g1
g2
(lp1084
V.
p1085
atp1086
Rp1087
(dp1088
g12
V.
p1089
sbatp1090
Rp1091
(dp1092
g12
VS
p1093
sbatp1094
Rp1095
(dp1096
g12
S'id: 13'
p1097
sbag0
(g1
g2
(lp1098
g0
(g1
g2
(lp1099
g0
(g1
g2
(lp1100
g0
(g1
g2
(lp1101
VThe
p1102
atp1103
Rp1104
(dp1105
g12
VDT
p1106
sbag0
(g1
g2
(lp1107
Vclown
p1108
atp1109
Rp1110
(dp1111
g12
VNN
p1112
sbatp1113
Rp1114
(dp1115
g12
VNP
p1116
sbag0
(g1
g2
(lp1117
g0
(g1
g2
(lp1118
Vis
p1119
atp1120
Rp1121
(dp1122
g12
VVBZ
p1123
sbag0
(g1
g2
(lp1124
g0
(g1
g2
(lp1125
Vsetting
p1126
atp1127
Rp1128
(dp1129
g12
VVBG
p1130
sbag0
(g1
g2
(lp1131
g0
(g1
g2
(lp1132
Von
p1133
atp1134
Rp1135
(dp1136
g12
VIN
p1137
sbag0
(g1
g2
(lp1138
g0
(g1
g2
(lp1139
g0
(g1
g2
(lp1140
Vit
p1141
atp1142
Rp1143
(dp1144
g12
VPRP
p1145
sbatp1146
Rp1147
(dp1148
g12
VNP
p1149
sbag0
(g1
g2
(lp1150
g0
(g1
g2
(lp1151
V's
p1152
atp1153
Rp1154
(dp1155
g12
VVBZ
p1156
sbag0
(g1
g2
(lp1157
g0
(g1
g2
(lp1158
Vback
p1159
atp1160
Rp1161
(dp1162
g12
VRB
p1163
sbatp1164
Rp1165
(dp1166
g12
VADVP
p1167
sbag0
(g1
g2
(lp1168
g0
(g1
g2
(lp1169
Vlegs
p1170
atp1171
Rp1172
(dp1173
g12
VNNS
p1174
sbatp1175
Rp1176
(dp1177
g12
VNP
p1178
sbatp1179
Rp1180
(dp1181
g12
VVP
p1182
sbatp1183
Rp1184
(dp1185
g12
VS
p1186
sbatp1187
Rp1188
(dp1189
g12
VPP
p1190
sbatp1191
Rp1192
(dp1193
g12
VVP
p1194
sbatp1195
Rp1196
(dp1197
g12
VVP
p1198
sbag0
(g1
g2
(lp1199
V.
p1200
atp1201
Rp1202
(dp1203
g12
V.
p1204
sbatp1205
Rp1206
(dp1207
g12
VS
p1208
sbatp1209
Rp1210
(dp1211
g12
S'id: 14'
p1212
sbag0
(g1
g2
(lp1213
g0
(g1
g2
(lp1214
g0
(g1
g2
(lp1215
g0
(g1
g2
(lp1216
VThe
p1217
atp1218
Rp1219
(dp1220
g12
VDT
p1221
sbag0
(g1
g2
(lp1222
Vman
p1223
atp1224
Rp1225
(dp1226
g12
VNN
p1227
sbatp1228
Rp1229
(dp1230
g12
VNP
p1231
sbag0
(g1
g2
(lp1232
g0
(g1
g2
(lp1233
g0
(g1
g2
(lp1234
Vwearing
p1235
atp1236
Rp1237
(dp1238
g12
VVBG
p1239
sbag0
(g1
g2
(lp1240
g0
(g1
g2
(lp1241
Va
p1242
atp1243
Rp1244
(dp1245
g12
VDT
p1246
sbag0
(g1
g2
(lp1247
Vhat
p1248
atp1249
Rp1250
(dp1251
g12
VNN
p1252
sbatp1253
Rp1254
(dp1255
g12
VNP
p1256
sbatp1257
Rp1258
(dp1259
g12
VVP
p1260
sbatp1261
Rp1262
(dp1263
g12
VS
p1264
sbatp1265
Rp1266
(dp1267
g12
VFRAG
p1268
sbatp1269
Rp1270
(dp1271
g12
S'id: 15'
p1272
sbatp1273
Rp1274
(dp1275
g12
S'sentences'
p1276
sb.