ccopy_reg
_reconstructor
p0
(cnltk.tree
Tree
p1
c__builtin__
list
p2
(lp3
g0
(g1
g2
(lp4
g0
(g1
g2
(lp5
g0
(g1
g2
(lp6
(lp7
S'word: that, index: 1'
p8
aatp9
Rp10
(dp11
S'_label'
p12
Vnsubj
p13
sbag0
(g1
g2
(lp14
(lp15
S"word: 's, index: 2"
p16
aatp17
Rp18
(dp19
g12
Vcop
p20
sbag0
(g1
g2
(lp21
(lp22
S'word: the, index: 3'
p23
aatp24
Rp25
(dp26
g12
Vdet
p27
sbag0
(g1
g2
(lp28
(lp29
S'word: the, index: 6'
p30
aatp31
Rp32
(dp33
g12
Vconj
p34
sbag0
(g1
g2
(lp35
g0
(g1
g2
(lp36
g0
(g1
g2
(lp37
(lp38
S'word: the, index: 8'
p39
aatp40
Rp41
(dp42
g12
Vdet
p43
sbatp44
Rp45
(dp46
g12
S'word: son, index: 9'
p47
sbatp48
Rp49
(dp50
g12
Vconj
p51
sbag0
(g1
g2
(lp52
g0
(g1
g2
(lp53
g0
(g1
g2
(lp54
g0
(g1
g2
(lp55
g0
(g1
g2
(lp56
(lp57
S'word: the, index: 14'
p58
aatp59
Rp60
(dp61
g12
Vdet
p62
sbatp63
Rp64
(dp65
g12
S'word: girl, index: 15'
p66
sbatp67
Rp68
(dp69
g12
Vappos
p70
sbatp71
Rp72
(dp73
g12
S'word: the, index: 12'
p74
sbatp75
Rp76
(dp77
g12
Vconj
p78
sbatp79
Rp80
(dp81
g12
S'word: mom, index: 4'
p82
sbatp83
Rp84
(dp85
g12
S'id: 0'
p86
sbag0
(g1
g2
(lp87
g0
(g1
g2
(lp88
g0
(g1
g2
(lp89
g0
(g1
g2
(lp90
g0
(g1
g2
(lp91
g0
(g1
g2
(lp92
g0
(g1
g2
(lp93
(lp94
S'word: the, index: 6'
p95
aatp96
Rp97
(dp98
g12
Vdet
p99
sbatp100
Rp101
(dp102
g12
S'word: water, index: 7'
p103
sbatp104
Rp105
(dp106
g12
Vdep
p107
sbatp108
Rp109
(dp110
g12
S'word: there, index: 5'
p111
sbatp112
Rp113
(dp114
g12
Vappos
p115
sbag0
(g1
g2
(lp116
g0
(g1
g2
(lp117
g0
(g1
g2
(lp118
(lp119
S'word: they, index: 9'
p120
aatp121
Rp122
(dp123
g12
Vnsubj
p124
sbag0
(g1
g2
(lp125
(lp126
S"word: 're, index: 10"
p127
aatp128
Rp129
(dp130
g12
Vaux
p131
sbag0
(g1
g2
(lp132
(lp133
S'word: it, index: 12'
p134
aatp135
Rp136
(dp137
g12
Vdobj
p138
sbatp139
Rp140
(dp141
g12
S'word: throwing, index: 11'
p142
sbatp143
Rp144
(dp145
g12
Vrcmod
p146
sbag0
(g1
g2
(lp147
g0
(g1
g2
(lp148
g0
(g1
g2
(lp149
(lp150
S'word: now, index: 14'
p151
aatp152
Rp153
(dp154
g12
Vdep
p155
sbatp156
Rp157
(dp158
g12
S'word: out, index: 13'
p159
sbatp160
Rp161
(dp162
g12
Vdep
p163
sbag0
(g1
g2
(lp164
(lp165
S'word: There, index: 1'
p166
aatp167
Rp168
(dp169
g12
Vexpl
p170
sbag0
(g1
g2
(lp171
(lp172
S'word: the, index: 2'
p173
aatp174
Rp175
(dp176
g12
Vdet
p177
sbatp178
Rp179
(dp180
g12
S'word: cookie, index: 3'
p181
sbatp182
Rp183
(dp184
g12
S'id: 1'
p185
sbag0
(g1
g2
(lp186
g0
(g1
g2
(lp187
g0
(g1
g2
(lp188
g0
(g1
g2
(lp189
g0
(g1
g2
(lp190
(lp191
S'word: waste, index: 6'
p192
aatp193
Rp194
(dp195
g12
Vnn
p196
sbag0
(g1
g2
(lp197
(lp198
S'word: p-a-p-e, index: 7'
p199
aatp200
Rp201
(dp202
g12
Vnn
p203
sbag0
(g1
g2
(lp204
(lp205
S'word: washer, index: 4'
p206
aatp207
Rp208
(dp209
g12
Vposs
p210
sbatp211
Rp212
(dp213
g12
S'word: paple, index: 8'
p214
sbatp215
Rp216
(dp217
g12
Vdep
p218
sbag0
(g1
g2
(lp219
(lp220
S'word: She, index: 1'
p221
aatp222
Rp223
(dp224
g12
Vnsubj
p225
sbag0
(g1
g2
(lp226
(lp227
S'word: there, index: 3'
p228
aatp229
Rp230
(dp231
g12
Vpobj
p232
sbatp233
Rp234
(dp235
g12
S'word: in, index: 2'
p236
sbatp237
Rp238
(dp239
g12
S'id: 2'
p240
sbag0
(g1
g2
(lp241
g0
(g1
g2
(lp242
g0
(g1
g2
(lp243
(lp244
S'word: There, index: 1'
p245
aatp246
Rp247
(dp248
g12
Vexpl
p249
sbag0
(g1
g2
(lp250
g0
(g1
g2
(lp251
g0
(g1
g2
(lp252
(lp253
S'word: the, index: 4'
p254
aatp255
Rp256
(dp257
g12
Vdet
p258
sbatp259
Rp260
(dp261
g12
S'word: house, index: 5'
p262
sbatp263
Rp264
(dp265
g12
Vprep
p266
sbatp267
Rp268
(dp269
g12
S'word: out, index: 2'
p270
sbatp271
Rp272
(dp273
g12
S'id: 3'
p274
sbag0
(g1
g2
(lp275
g0
(g1
g2
(lp276
g0
(g1
g2
(lp277
(lp278
S'word: And, index: 1'
p279
aatp280
Rp281
(dp282
g12
Vcc
p283
sbag0
(g1
g2
(lp284
g0
(g1
g2
(lp285
g0
(g1
g2
(lp286
g0
(g1
g2
(lp287
g0
(g1
g2
(lp288
(lp289
S'word: the, index: 3'
p290
aatp291
Rp292
(dp293
g12
Vdet
p294
sbatp295
Rp296
(dp297
g12
S'word: water, index: 4'
p298
sbatp299
Rp300
(dp301
g12
Vnn
p302
sbatp303
Rp304
(dp305
g12
S'word: downstairs, index: 5'
p306
sbatp307
Rp308
(dp309
g12
Vdep
p310
sbatp311
Rp312
(dp313
g12
S'word: now, index: 2'
p314
sbatp315
Rp316
(dp317
g12
S'id: 4'
p318
sbag0
(g1
g2
(lp319
g0
(g1
g2
(lp320
g0
(g1
g2
(lp321
g0
(g1
g2
(lp322
g0
(g1
g2
(lp323
(lp324
S'word: here, index: 2'
p325
aatp326
Rp327
(dp328
g12
Vpobj
p329
sbatp330
Rp331
(dp332
g12
S'word: Up, index: 1'
p333
sbatp334
Rp335
(dp336
g12
Vprep
p337
sbag0
(g1
g2
(lp338
(lp339
S'word: there, index: 4'
p340
aatp341
Rp342
(dp343
g12
Vexpl
p344
sbag0
(g1
g2
(lp345
g0
(g1
g2
(lp346
g0
(g1
g2
(lp347
(lp348
S'word: the, index: 6'
p349
aatp350
Rp351
(dp352
g12
Vdet
p353
sbatp354
Rp355
(dp356
g12
S'word: son, index: 7'
p357
sbatp358
Rp359
(dp360
g12
Vnsubj
p361
sbatp362
Rp363
(dp364
g12
S"word: 's, index: 5"
p365
sbatp366
Rp367
(dp368
g12
S'id: 5'
p369
sbag0
(g1
g2
(lp370
g0
(g1
g2
(lp371
g0
(g1
g2
(lp372
g0
(g1
g2
(lp373
g0
(g1
g2
(lp374
(lp375
S'word: a, index: 18'
p376
aatp377
Rp378
(dp379
g12
Vdet
p380
sbag0
(g1
g2
(lp381
(lp382
S'word: s, index: 19'
p383
aatp384
Rp385
(dp386
g12
Vnn
p387
sbag0
(g1
g2
(lp388
g0
(g1
g2
(lp389
g0
(g1
g2
(lp390
(lp391
S'word: o, index: 21'
p392
aatp393
Rp394
(dp395
g12
Vnn
p396
sbag0
(g1
g2
(lp397
(lp398
S'word: o, index: 22'
p399
aatp400
Rp401
(dp402
g12
Vnn
p403
sbatp404
Rp405
(dp406
g12
S'word: stool, index: 23'
p407
sbatp408
Rp409
(dp410
g12
Vdep
p411
sbag0
(g1
g2
(lp412
g0
(g1
g2
(lp413
g0
(g1
g2
(lp414
(lp415
S'word: she, index: 26'
p416
aatp417
Rp418
(dp419
g12
Vnsubj
p420
sbag0
(g1
g2
(lp421
g0
(g1
g2
(lp422
g0
(g1
g2
(lp423
(lp424
S'word: ha, index: 28'
p425
aatp426
Rp427
(dp428
g12
Vnn
p429
sbatp430
Rp431
(dp432
g12
S'word: ha, index: 29'
p433
sbatp434
Rp435
(dp436
g12
Vdobj
p437
sbatp438
Rp439
(dp440
g12
S'word: say, index: 27'
p441
sbatp442
Rp443
(dp444
g12
Vconj
p445
sbag0
(g1
g2
(lp446
(lp447
S'word: it, index: 16'
p448
aatp449
Rp450
(dp451
g12
Vnsubj
p452
sbag0
(g1
g2
(lp453
(lp454
S"word: 's, index: 17"
p455
aatp456
Rp457
(dp458
g12
Vcop
p459
sbag0
(g1
g2
(lp460
g0
(g1
g2
(lp461
g0
(g1
g2
(lp462
g0
(g1
g2
(lp463
g0
(g1
g2
(lp464
(lp465
S'word: her, index: 35'
p466
aatp467
Rp468
(dp469
g12
Vposs
p470
sbatp471
Rp472
(dp473
g12
S'word: hand, index: 36'
p474
sbatp475
Rp476
(dp477
g12
Vprep
p478
sbag0
(g1
g2
(lp479
(lp480
S'word: she, index: 31'
p481
aatp482
Rp483
(dp484
g12
Vdep
p485
sbag0
(g1
g2
(lp486
(lp487
S'word: up, index: 32'
p488
aatp489
Rp490
(dp491
g12
Vadvmod
p492
sbatp493
Rp494
(dp495
g12
S'word: there, index: 33'
p496
sbatp497
Rp498
(dp499
g12
Vconj
p500
sbatp501
Rp502
(dp503
g12
S'word: t, index: 20'
p504
sbatp505
Rp506
(dp507
g12
Vdep
p508
sbag0
(g1
g2
(lp509
g0
(g1
g2
(lp510
g0
(g1
g2
(lp511
(lp512
S'word: now, index: 2'
p513
aatp514
Rp515
(dp516
g12
Vadvmod
p517
sbag0
(g1
g2
(lp518
(lp519
S'word: he, index: 3'
p520
aatp521
Rp522
(dp523
g12
Vnsubj
p524
sbag0
(g1
g2
(lp525
(lp526
S"word: 's, index: 4"
p527
aatp528
Rp529
(dp530
g12
Vaux
p531
sbag0
(g1
g2
(lp532
(lp533
S'word: down, index: 6'
p534
aatp535
Rp536
(dp537
g12
Vprt
p538
sbatp539
Rp540
(dp541
g12
S'word: pushing, index: 5'
p542
sbatp543
Rp544
(dp545
g12
Vdep
p546
sbag0
(g1
g2
(lp547
(lp548
S'word: is, index: 7'
p549
aatp550
Rp551
(dp552
g12
Vcop
p553
sbag0
(g1
g2
(lp554
g0
(g1
g2
(lp555
g0
(g1
g2
(lp556
(lp557
S'word: right, index: 8'
p558
aatp559
Rp560
(dp561
g12
Vadvmod
p562
sbatp563
Rp564
(dp565
g12
S'word: there, index: 9'
p566
sbatp567
Rp568
(dp569
g12
Vadvmod
p570
sbag0
(g1
g2
(lp571
g439
atp572
Rp573
(dp574
g12
Vdep
p575
sbag0
(g1
g2
(lp576
g0
(g1
g2
(lp577
g0
(g1
g2
(lp578
(lp579
S'word: not, index: 12'
p580
aatp581
Rp582
(dp583
g12
Vneg
p584
sbag0
(g1
g2
(lp585
(lp586
S'word: a, index: 13'
p587
aatp588
Rp589
(dp590
g12
Vdet
p591
sbatp592
Rp593
(dp594
g12
S'word: church, index: 14'
p595
sbatp596
Rp597
(dp598
g12
Vappos
p599
sbag0
(g1
g2
(lp600
(lp601
S'word: He, index: 1'
p602
aatp603
Rp604
(dp605
g12
Vnsubj
p606
sbag0
(g1
g2
(lp607
g494
atp608
Rp609
(dp610
g12
Vdep
p611
sbatp612
Rp613
(dp614
g12
S'word: church, index: 10'
p615
sbatp616
Rp617
(dp618
g12
S'id: 6'
p619
sbag0
(g1
g2
(lp620
g0
(g1
g2
(lp621
g0
(g1
g2
(lp622
(lp623
S'word: And, index: 1'
p624
aatp625
Rp626
(dp627
g12
Vcc
p628
sbag0
(g1
g2
(lp629
(lp630
S'word: they, index: 2'
p631
aatp632
Rp633
(dp634
g12
Vnsubj
p635
sbag0
(g1
g2
(lp636
g0
(g1
g2
(lp637
g0
(g1
g2
(lp638
g0
(g1
g2
(lp639
g0
(g1
g2
(lp640
(lp641
S'word: whatever, index: 5'
p642
aatp643
Rp644
(dp645
g12
Vnsubj
p646
sbatp647
Rp648
(dp649
g12
S'word: she, index: 6'
p650
sbatp651
Rp652
(dp653
g12
Vxcomp
p654
sbatp655
Rp656
(dp657
g12
S'word: see, index: 4'
p658
sbatp659
Rp660
(dp661
g12
Vccomp
p662
sbatp663
Rp664
(dp665
g12
S'word: cant, index: 3'
p666
sbatp667
Rp668
(dp669
g12
S'id: 7'
p670
sbag0
(g1
g2
(lp671
g0
(g1
g2
(lp672
g0
(g1
g2
(lp673
(lp674
S"word: 're, index: 8"
p675
aatp676
Rp677
(dp678
g12
Vaux
p679
sbag0
(g1
g2
(lp680
g0
(g1
g2
(lp681
g0
(g1
g2
(lp682
(lp683
S'word: their, index: 10'
p684
aatp685
Rp686
(dp687
g12
Vposs
p688
sbatp689
Rp690
(dp691
g12
S'word: cookies, index: 11'
p692
sbatp693
Rp694
(dp695
g12
Vdobj
p696
sbag0
(g1
g2
(lp697
g0
(g1
g2
(lp698
g0
(g1
g2
(lp699
g0
(g1
g2
(lp700
g0
(g1
g2
(lp701
(lp702
S'word: they, index: 14'
p703
aatp704
Rp705
(dp706
g12
Vnsubj
p707
sbag0
(g1
g2
(lp708
(lp709
S'word: can, index: 15'
p710
aatp711
Rp712
(dp713
g12
Vaux
p714
sbag0
(g1
g2
(lp715
(lp716
S'word: everything, index: 17'
p717
aatp718
Rp719
(dp720
g12
Vdobj
p721
sbatp722
Rp723
(dp724
g12
S'word: eat, index: 16'
p725
sbatp726
Rp727
(dp728
g12
Vccomp
p729
sbag0
(g1
g2
(lp730
(lp731
S'word: they, index: 7'
p732
aatp733
Rp734
(dp735
g12
Vnsubj
p736
sbatp737
Rp738
(dp739
g12
S'word: thinking, index: 13'
p740
sbatp741
Rp742
(dp743
g12
Vconj
p744
sbag0
(g1
g2
(lp745
(lp746
S'word: So, index: 1'
p747
aatp748
Rp749
(dp750
g12
Vadvmod
p751
sbag0
(g1
g2
(lp752
(lp753
S'word: so, index: 4'
p754
aatp755
Rp756
(dp757
g12
Vadvmod
p758
sbag0
(g1
g2
(lp759
(lp760
S'word: now, index: 6'
p761
aatp762
Rp763
(dp764
g12
Vadvmod
p765
sbag0
(g1
g2
(lp766
(lp767
S'word: they, index: 7'
p768
aatp769
Rp770
(dp771
g12
Vnsubj
p772
sbatp773
Rp774
(dp775
g12
S'word: taking, index: 9'
p776
sbatp777
Rp778
(dp779
g12
S'id: 8'
p780
sbag0
(g1
g2
(lp781
g0
(g1
g2
(lp782
g0
(g1
g2
(lp783
(lp784
S'word: he, index: 11'
p785
aatp786
Rp787
(dp788
g12
Vnsubj
p789
sbag0
(g1
g2
(lp790
(lp791
S'word: that, index: 13'
p792
aatp793
Rp794
(dp795
g12
Vadvmod
p796
sbag0
(g1
g2
(lp797
g0
(g1
g2
(lp798
g0
(g1
g2
(lp799
(lp800
S'word: he, index: 11'
p801
aatp802
Rp803
(dp804
g12
Vnsubj
p805
sbag0
(g1
g2
(lp806
(lp807
S'word: it, index: 16'
p808
aatp809
Rp810
(dp811
g12
Vdep
p812
sbag0
(g1
g2
(lp813
(lp814
S'word: pretty, index: 17'
p815
aatp816
Rp817
(dp818
g12
Vadvmod
p819
sbatp820
Rp821
(dp822
g12
S'word: bad, index: 18'
p823
sbatp824
Rp825
(dp826
g12
Vconj
p827
sbag0
(g1
g2
(lp828
g0
(g1
g2
(lp829
g0
(g1
g2
(lp830
g0
(g1
g2
(lp831
g0
(g1
g2
(lp832
(lp833
S'word: so, index: 3'
p834
aatp835
Rp836
(dp837
g12
Vadvmod
p838
sbatp839
Rp840
(dp841
g12
S'word: well, index: 4'
p842
sbatp843
Rp844
(dp845
g12
Vadvmod
p846
sbag0
(g1
g2
(lp847
(lp848
S'word: she, index: 5'
p849
aatp850
Rp851
(dp852
g12
Vnsubjpass
p853
sbag0
(g1
g2
(lp854
(lp855
S"word: 's, index: 6"
p856
aatp857
Rp858
(dp859
g12
Vauxpass
p860
sbag0
(g1
g2
(lp861
g0
(g1
g2
(lp862
g0
(g1
g2
(lp863
(lp864
S'word: her, index: 8'
p865
aatp866
Rp867
(dp868
g12
Vposs
p869
sbatp870
Rp871
(dp872
g12
S'word: shoes, index: 9'
p873
sbatp874
Rp875
(dp876
g12
Vdobj
p877
sbatp878
Rp879
(dp880
g12
S'word: got, index: 7'
p881
sbatp882
Rp883
(dp884
g12
Vadvcl
p885
sbatp886
Rp887
(dp888
g12
S'word: got, index: 12'
p889
sbatp890
Rp891
(dp892
g12
S'id: 9'
p893
sbag0
(g1
g2
(lp894
g0
(g1
g2
(lp895
g0
(g1
g2
(lp896
(lp897
S'word: They, index: 1'
p898
aatp899
Rp900
(dp901
g12
Vnsubj
p902
sbag0
(g1
g2
(lp903
(lp904
S"word: 're, index: 2"
p905
aatp906
Rp907
(dp908
g12
Vcop
p909
sbag0
(g1
g2
(lp910
g0
(g1
g2
(lp911
g0
(g1
g2
(lp912
(lp913
S'word: that, index: 6'
p914
aatp915
Rp916
(dp917
g12
Vnsubj
p918
sbag0
(g1
g2
(lp919
(lp920
S"word: 's, index: 7"
p921
aatp922
Rp923
(dp924
g12
Vcop
p925
sbag0
(g1
g2
(lp926
(lp927
S'word: his, index: 8'
p928
aatp929
Rp930
(dp931
g12
Vposs
p932
sbatp933
Rp934
(dp935
g12
S'word: mom, index: 9'
p936
sbatp937
Rp938
(dp939
g12
Vconj
p940
sbatp941
Rp942
(dp943
g12
S'word: nice, index: 3'
p944
sbatp945
Rp946
(dp947
g12
S'id: 10'
p948
sbag0
(g1
g2
(lp949
g0
(g1
g2
(lp950
g0
(g1
g2
(lp951
(lp952
S'word: down, index: 18'
p953
aatp954
Rp955
(dp956
g12
Vadvmod
p957
sbag0
(g1
g2
(lp958
g0
(g1
g2
(lp959
g0
(g1
g2
(lp960
(lp961
S'word: So, index: 1'
p962
aatp963
Rp964
(dp965
g12
Vadvmod
p966
sbag0
(g1
g2
(lp967
(lp968
S'word: that, index: 3'
p969
aatp970
Rp971
(dp972
g12
Vnsubj
p973
sbag0
(g1
g2
(lp974
g0
(g1
g2
(lp975
g0
(g1
g2
(lp976
(lp977
S'word: that, index: 7'
p978
aatp979
Rp980
(dp981
g12
Vnsubj
p982
sbag0
(g1
g2
(lp983
(lp984
S'word: his, index: 10'
p985
aatp986
Rp987
(dp988
g12
Vprep
p989
sbatp990
Rp991
(dp992
g12
S"word: 's, index: 8"
p993
sbatp994
Rp995
(dp996
g12
Vconj
p997
sbatp998
Rp999
(dp1000
g12
S"word: 's, index: 4"
p1001
sbatp1002
Rp1003
(dp1004
g12
Vccomp
p1005
sbag0
(g1
g2
(lp1006
g991
atp1007
Rp1008
(dp1009
g12
Vccomp
p1010
sbag0
(g1
g2
(lp1011
(lp1012
S'word: his, index: 12'
p1013
aatp1014
Rp1015
(dp1016
g12
Vnsubj
p1017
sbag0
(g1
g2
(lp1018
(lp1019
S'word: yeah, index: 14'
p1020
aatp1021
Rp1022
(dp1023
g12
Vadvmod
p1024
sbag0
(g1
g2
(lp1025
g0
(g1
g2
(lp1026
g0
(g1
g2
(lp1027
g0
(g1
g2
(lp1028
g0
(g1
g2
(lp1029
(lp1030
S'word: up, index: 20'
p1031
aatp1032
Rp1033
(dp1034
g12
Vadvmod
p1035
sbag0
(g1
g2
(lp1036
(lp1037
S'word: up, index: 24'
p1038
aatp1039
Rp1040
(dp1041
g12
Vconj
p1042
sbag0
(g1
g2
(lp1043
(lp1044
S'word: here, index: 25'
p1045
aatp1046
Rp1047
(dp1048
g12
Vdep
p1049
sbatp1050
Rp1051
(dp1052
g12
S'word: here, index: 21'
p1053
sbatp1054
Rp1055
(dp1056
g12
Vdep
p1057
sbag0
(g1
g2
(lp1058
(lp1059
S'word: up, index: 24'
p1060
aatp1061
Rp1062
(dp1063
g12
Vdep
p1064
sbag0
(g1
g2
(lp1065
(lp1066
S'word: chi, index: 28'
p1067
aatp1068
Rp1069
(dp1070
g12
Vprep
p1071
sbag0
(g1
g2
(lp1072
g0
(g1
g2
(lp1073
g0
(g1
g2
(lp1074
(lp1075
S'word: c-a-b-i, index: 33'
p1076
aatp1077
Rp1078
(dp1079
g12
Vappos
p1080
sbag0
(g1
g2
(lp1081
(lp1082
S'word: cabi, index: 35'
p1083
aatp1084
Rp1085
(dp1086
g12
Vappos
p1087
sbag0
(g1
g2
(lp1088
(lp1089
S'word: cable, index: 37'
p1090
aatp1091
Rp1092
(dp1093
g12
Vappos
p1094
sbag0
(g1
g2
(lp1095
(lp1096
S'word: table, index: 39'
p1097
aatp1098
Rp1099
(dp1100
g12
Vappos
p1101
sbatp1102
Rp1103
(dp1104
g12
S'word: chicken, index: 31'
p1105
sbatp1106
Rp1107
(dp1108
g12
Vdep
p1109
sbatp1110
Rp1111
(dp1112
g12
S'word: not, index: 30'
p1113
sbatp1114
Rp1115
(dp1116
g12
Vdep
p1117
sbag0
(g1
g2
(lp1118
(lp1119
S'word: that, index: 16'
p1120
aatp1121
Rp1122
(dp1123
g12
Vnsubj
p1124
sbatp1125
Rp1126
(dp1127
g12
S"word: 's, index: 17"
p1128
sbatp1129
Rp1130
(dp1131
g12
S'id: 11'
p1132
sbag0
(g1
g2
(lp1133
g0
(g1
g2
(lp1134
g0
(g1
g2
(lp1135
(lp1136
S'word: out, index: 4'
p1137
aatp1138
Rp1139
(dp1140
g12
Vadvmod
p1141
sbag0
(g1
g2
(lp1142
g0
(g1
g2
(lp1143
g0
(g1
g2
(lp1144
(lp1145
S'word: the, index: 6'
p1146
aatp1147
Rp1148
(dp1149
g12
Vdet
p1150
sbag0
(g1
g2
(lp1151
(lp1152
S'word: outside, index: 9'
p1153
aatp1154
Rp1155
(dp1156
g12
Vappos
p1157
sbatp1158
Rp1159
(dp1160
g12
S'word: water, index: 7'
p1161
sbatp1162
Rp1163
(dp1164
g12
Vprep
p1165
sbag0
(g1
g2
(lp1166
(lp1167
S'word: And, index: 1'
p1168
aatp1169
Rp1170
(dp1171
g12
Vcc
p1172
sbag0
(g1
g2
(lp1173
(lp1174
S'word: there, index: 2'
p1175
aatp1176
Rp1177
(dp1178
g12
Vexpl
p1179
sbatp1180
Rp1181
(dp1182
g12
S"word: 's, index: 3"
p1183
sbatp1184
Rp1185
(dp1186
g12
S'id: 12'
p1187
sbag0
(g1
g2
(lp1188
g0
(g1
g2
(lp1189
g0
(g1
g2
(lp1190
(lp1191
S'word: There, index: 1'
p1192
aatp1193
Rp1194
(dp1195
g12
Vexpl
p1196
sbag0
(g1
g2
(lp1197
g0
(g1
g2
(lp1198
g0
(g1
g2
(lp1199
(lp1200
S'word: a, index: 3'
p1201
aatp1202
Rp1203
(dp1204
g12
Vdet
p1205
sbatp1206
Rp1207
(dp1208
g12
S'word: tree, index: 4'
p1209
sbatp1210
Rp1211
(dp1212
g12
Vnsubj
p1213
sbatp1214
Rp1215
(dp1216
g12
S"word: 's, index: 2"
p1217
sbatp1218
Rp1219
(dp1220
g12
S'id: 13'
p1221
sbag0
(g1
g2
(lp1222
g0
(g1
g2
(lp1223
g0
(g1
g2
(lp1224
(lp1225
S'word: That, index: 1'
p1226
aatp1227
Rp1228
(dp1229
g12
Vnsubj
p1230
sbag0
(g1
g2
(lp1231
(lp1232
S"word: 's, index: 2"
p1233
aatp1234
Rp1235
(dp1236
g12
Vcop
p1237
sbag0
(g1
g2
(lp1238
(lp1239
S'word: the, index: 3'
p1240
aatp1241
Rp1242
(dp1243
g12
Vdet
p1244
sbatp1245
Rp1246
(dp1247
g12
S'word: grass, index: 4'
p1248
sbatp1249
Rp1250
(dp1251
g12
S'id: 14'
p1252
sbag0
(g1
g2
(lp1253
g0
(g1
g2
(lp1254
g0
(g1
g2
(lp1255
(lp1256
S'word: That, index: 1'
p1257
aatp1258
Rp1259
(dp1260
g12
Vnsubj
p1261
sbag0
(g1
g2
(lp1262
(lp1263
S"word: 's, index: 2"
p1264
aatp1265
Rp1266
(dp1267
g12
Vcop
p1268
sbag0
(g1
g2
(lp1269
g0
(g1
g2
(lp1270
g0
(g1
g2
(lp1271
(lp1272
S'word: pretty, index: 3'
p1273
aatp1274
Rp1275
(dp1276
g12
Vadvmod
p1277
sbatp1278
Rp1279
(dp1280
g12
S'word: much, index: 4'
p1281
sbatp1282
Rp1283
(dp1284
g12
Vamod
p1285
sbatp1286
Rp1287
(dp1288
g12
S'word: everything, index: 5'
p1289
sbatp1290
Rp1291
(dp1292
g12
S'id: 15'
p1293
sbag0
(g1
g2
(lp1294
g0
(g1
g2
(lp1295
g0
(g1
g2
(lp1296
(lp1297
S'word: She, index: 1'
p1298
aatp1299
Rp1300
(dp1301
g12
Vnsubj
p1302
sbatp1303
Rp1304
(dp1305
g12
S"word: 's, index: 2"
p1306
sbatp1307
Rp1308
(dp1309
g12
S'id: 16'
p1310
sbatp1311
Rp1312
(dp1313
g12
S'sentences'
p1314
sb.