ccopy_reg
_reconstructor
p0
(cnltk.tree
Tree
p1
c__builtin__
list
p2
(lp3
g0
(g1
g2
(lp4
g0
(g1
g2
(lp5
g0
(g1
g2
(lp6
(lp7
S'word: oh, index: 1'
p8
aatp9
Rp10
(dp11
S'_label'
p12
Vdiscourse
p13
sbatp14
Rp15
(dp16
g12
S'word: kitchen, index: 2'
p17
sbatp18
Rp19
(dp20
g12
S'id: 0'
p21
sbag0
(g1
g2
(lp22
g0
(g1
g2
(lp23
g0
(g1
g2
(lp24
g0
(g1
g2
(lp25
g0
(g1
g2
(lp26
(lp27
S'word: people, index: 3'
p28
aatp29
Rp30
(dp31
g12
Vnsubj
p32
sbag0
(g1
g2
(lp33
g0
(g1
g2
(lp34
g0
(g1
g2
(lp35
(lp36
S'word: a, index: 6'
p37
aatp38
Rp39
(dp40
g12
Vdet
p41
sbag0
(g1
g2
(lp42
(lp43
S'word: cookie, index: 7'
p44
aatp45
Rp46
(dp47
g12
Vnn
p48
sbatp49
Rp50
(dp51
g12
S'word: jar, index: 8'
p52
sbatp53
Rp54
(dp55
g12
Vprep
p56
sbag0
(g1
g2
(lp57
g0
(g1
g2
(lp58
g0
(g1
g2
(lp59
(lp60
S'word: a, index: 11'
p61
aatp62
Rp63
(dp64
g12
Vdet
p65
sbag0
(g1
g2
(lp66
(lp67
S'word: little, index: 12'
p68
aatp69
Rp70
(dp71
g12
Vamod
p72
sbag0
(g1
g2
(lp73
(lp74
S'word: trippin, index: 15'
p75
aatp76
Rp77
(dp78
g12
Vprep
p79
sbatp80
Rp81
(dp82
g12
S'word: kind, index: 13'
p83
sbatp84
Rp85
(dp86
g12
Vprep
p87
sbag0
(g1
g2
(lp88
(lp89
S'word: over, index: 16'
p90
aatp91
Rp92
(dp93
g12
Vprep
p94
sbatp95
Rp96
(dp97
g12
S'word: getting, index: 4'
p98
sbatp99
Rp100
(dp101
g12
Vdep
p102
sbag0
(g1
g2
(lp103
g0
(g1
g2
(lp104
g0
(g1
g2
(lp105
g0
(g1
g2
(lp106
g0
(g1
g2
(lp107
(lp108
S'word: a, index: 19'
p109
aatp110
Rp111
(dp112
g12
Vdet
p113
sbatp114
Rp115
(dp116
g12
S'word: sink, index: 20'
p117
sbatp118
Rp119
(dp120
g12
Vnsubj
p121
sbag0
(g1
g2
(lp122
(lp123
S'word: is, index: 21'
p124
aatp125
Rp126
(dp127
g12
Vcop
p128
sbatp129
Rp130
(dp131
g12
S'word: over, index: 22'
p132
sbatp133
Rp134
(dp135
g12
Vconj
p136
sbag0
(g1
g2
(lp137
(lp138
S'word: I, index: 1'
p139
aatp140
Rp141
(dp142
g12
Vnsubj
p143
sbatp144
Rp145
(dp146
g12
S'word: see, index: 2'
p147
sbatp148
Rp149
(dp150
g12
S'id: 1'
p151
sbag0
(g1
g2
(lp152
g0
(g1
g2
(lp153
g0
(g1
g2
(lp154
g0
(g1
g2
(lp155
g0
(g1
g2
(lp156
g0
(g1
g2
(lp157
g0
(g1
g2
(lp158
(lp159
S'word: the, index: 12'
p160
aatp161
Rp162
(dp163
g12
Vdet
p164
sbatp165
Rp166
(dp167
g12
S'word: girl, index: 13'
p168
sbatp169
Rp170
(dp171
g12
Vnsubj
p172
sbag0
(g1
g2
(lp173
(lp174
S'word: is, index: 14'
p175
aatp176
Rp177
(dp178
g12
Vaux
p179
sbag0
(g1
g2
(lp180
g0
(g1
g2
(lp181
g0
(g1
g2
(lp182
(lp183
S'word: because, index: 16'
p184
aatp185
Rp186
(dp187
g12
Vmark
p188
sbag0
(g1
g2
(lp189
g0
(g1
g2
(lp190
g0
(g1
g2
(lp191
(lp192
S'word: her, index: 17'
p193
aatp194
Rp195
(dp196
g12
Vposs
p197
sbatp198
Rp199
(dp200
g12
S'word: brother, index: 18'
p201
sbatp202
Rp203
(dp204
g12
Vnsubj
p205
sbag0
(g1
g2
(lp206
(lp207
S'word: trouble, index: 21'
p208
aatp209
Rp210
(dp211
g12
Vprep
p212
sbatp213
Rp214
(dp215
g12
S'word: is, index: 19'
p216
sbatp217
Rp218
(dp219
g12
Vadvcl
p220
sbatp221
Rp222
(dp223
g12
S'word: giggling, index: 15'
p224
sbatp225
Rp226
(dp227
g12
Vconj
p228
sbag0
(g1
g2
(lp229
g0
(g1
g2
(lp230
g0
(g1
g2
(lp231
(lp232
S'word: That, index: 1'
p233
aatp234
Rp235
(dp236
g12
Vdet
p237
sbatp238
Rp239
(dp240
g12
S'word: lady, index: 2'
p241
sbatp242
Rp243
(dp244
g12
Vnsubj
p245
sbag0
(g1
g2
(lp246
g0
(g1
g2
(lp247
g0
(g1
g2
(lp248
g0
(g1
g2
(lp249
g0
(g1
g2
(lp250
(lp251
S'word: boy, index: 7'
p252
aatp253
Rp254
(dp255
g12
Vnn
p256
sbag0
(g1
g2
(lp257
(lp258
S'word: o, index: 8'
p259
aatp260
Rp261
(dp262
g12
Vnn
p263
sbatp264
Rp265
(dp266
g12
S'word: boy, index: 9'
p267
sbatp268
Rp269
(dp270
g12
Vappos
p271
sbatp272
Rp273
(dp274
g12
S'word: trouble, index: 5'
p275
sbatp276
Rp277
(dp278
g12
Vprep
p279
sbatp280
Rp281
(dp282
g12
S'word: is, index: 3'
p283
sbatp284
Rp285
(dp286
g12
S'id: 2'
p287
sbag0
(g1
g2
(lp288
g0
(g1
g2
(lp289
g0
(g1
g2
(lp290
(lp291
S'word: And, index: 1'
p292
aatp293
Rp294
(dp295
g12
Vcc
p296
sbag0
(g1
g2
(lp297
g0
(g1
g2
(lp298
g0
(g1
g2
(lp299
g0
(g1
g2
(lp300
g0
(g1
g2
(lp301
(lp302
S'word: the, index: 2'
p303
aatp304
Rp305
(dp306
g12
Vdet
p307
sbatp308
Rp309
(dp310
g12
S'word: lady, index: 3'
p311
sbatp312
Rp313
(dp314
g12
Vposs
p315
sbag0
(g1
g2
(lp316
g0
(g1
g2
(lp317
g0
(g1
g2
(lp318
g0
(g1
g2
(lp319
g0
(g1
g2
(lp320
g0
(g1
g2
(lp321
g0
(g1
g2
(lp322
(lp323
S'word: she, index: 12'
p324
aatp325
Rp326
(dp327
g12
Vnsubj
p328
sbag0
(g1
g2
(lp329
(lp330
S'word: better, index: 13'
p331
aatp332
Rp333
(dp334
g12
Vadvmod
p335
sbag0
(g1
g2
(lp336
(lp337
S'word: a, index: 15'
p338
aatp339
Rp340
(dp341
g12
Vdobj
p342
sbatp343
Rp344
(dp345
g12
S'word: get, index: 14'
p346
sbatp347
Rp348
(dp349
g12
Vrcmod
p350
sbatp351
Rp352
(dp353
g12
S'word: water, index: 10'
p354
sbatp355
Rp356
(dp357
g12
Vprep
p358
sbag0
(g1
g2
(lp359
(lp360
S'word: a, index: 7'
p361
aatp362
Rp363
(dp364
g12
Vdet
p365
sbatp366
Rp367
(dp368
g12
S'word: puddle, index: 8'
p369
sbatp370
Rp371
(dp372
g12
Vprep
p373
sbatp374
Rp375
(dp376
g12
S'word: walking, index: 5'
p377
sbatp378
Rp379
(dp380
g12
Vnsubj
p381
sbatp382
Rp383
(dp384
g12
S'word: mop, index: 16'
p385
sbatp386
Rp387
(dp388
g12
S'id: 3'
p389
sbag0
(g1
g2
(lp390
g0
(g1
g2
(lp391
g0
(g1
g2
(lp392
g0
(g1
g2
(lp393
g0
(g1
g2
(lp394
(lp395
S'word: I, index: 13'
p396
aatp397
Rp398
(dp399
g12
Vnsubj
p400
sbag0
(g1
g2
(lp401
g0
(g1
g2
(lp402
g0
(g1
g2
(lp403
g0
(g1
g2
(lp404
g0
(g1
g2
(lp405
(lp406
S'word: whether, index: 16'
p407
aatp408
Rp409
(dp410
g12
Vmark
p411
sbag0
(g1
g2
(lp412
(lp413
S'word: they, index: 17'
p414
aatp415
Rp416
(dp417
g12
Vnsubj
p418
sbag0
(g1
g2
(lp419
(lp420
S'word: are, index: 18'
p421
aatp422
Rp423
(dp424
g12
Vcop
p425
sbag0
(g1
g2
(lp426
g0
(g1
g2
(lp427
g0
(g1
g2
(lp428
(lp429
S'word: they, index: 17'
p430
aatp431
Rp432
(dp433
g12
Vnsubj
p434
sbatp435
Rp436
(dp437
g12
S'word: dirty, index: 21'
p438
sbatp439
Rp440
(dp441
g12
Vconj
p442
sbatp443
Rp444
(dp445
g12
S'word: clean, index: 19'
p446
sbatp447
Rp448
(dp449
g12
Vccomp
p450
sbag0
(g1
g2
(lp451
g436
atp452
Rp453
(dp454
g12
Vccomp
p455
sbatp456
Rp457
(dp458
g12
S'word: know, index: 15'
p459
sbatp460
Rp461
(dp462
g12
Vxcomp
p463
sbatp464
Rp465
(dp466
g12
S'word: dont, index: 14'
p467
sbatp468
Rp469
(dp470
g12
Vconj
p471
sbag0
(g1
g2
(lp472
(lp473
S'word: I, index: 4'
p474
aatp475
Rp476
(dp477
g12
Vconj
p478
sbag0
(g1
g2
(lp479
g0
(g1
g2
(lp480
g0
(g1
g2
(lp481
(lp482
S'word: some, index: 6'
p483
aatp484
Rp485
(dp486
g12
Vdet
p487
sbatp488
Rp489
(dp490
g12
S'word: dishes, index: 7'
p491
sbatp492
Rp493
(dp494
g12
Vdobj
p495
sbag0
(g1
g2
(lp496
g0
(g1
g2
(lp497
g0
(g1
g2
(lp498
(lp499
S'word: the, index: 9'
p500
aatp501
Rp502
(dp503
g12
Vdet
p504
sbatp505
Rp506
(dp507
g12
S'word: side, index: 10'
p508
sbatp509
Rp510
(dp511
g12
Vprep
p512
sbag0
(g1
g2
(lp513
g0
(g1
g2
(lp514
g0
(g1
g2
(lp515
(lp516
S'word: they, index: 24'
p517
aatp518
Rp519
(dp520
g12
Vnsubj
p521
sbag0
(g1
g2
(lp522
(lp523
S"word: 're, index: 25"
p524
aatp525
Rp526
(dp527
g12
Vcop
p528
sbag0
(g1
g2
(lp529
(lp530
S'word: probably, index: 26'
p531
aatp532
Rp533
(dp534
g12
Vadvmod
p535
sbatp536
Rp537
(dp538
g12
S'word: clean, index: 27'
p539
sbatp540
Rp541
(dp542
g12
Vconj
p543
sbatp544
Rp545
(dp546
g12
S'word: see, index: 5'
p547
sbatp548
Rp549
(dp550
g12
S'id: 4'
p551
sbag0
(g1
g2
(lp552
g0
(g1
g2
(lp553
g0
(g1
g2
(lp554
(lp555
S'word: And, index: 1'
p556
aatp557
Rp558
(dp559
g12
Vcc
p560
sbag0
(g1
g2
(lp561
(lp562
S'word: I, index: 2'
p563
aatp564
Rp565
(dp566
g12
Vnsubj
p567
sbag0
(g1
g2
(lp568
g0
(g1
g2
(lp569
g0
(g1
g2
(lp570
g0
(g1
g2
(lp571
g0
(g1
g2
(lp572
(lp573
S'word: a, index: 4'
p574
aatp575
Rp576
(dp577
g12
Vdet
p578
sbag0
(g1
g2
(lp579
(lp580
S'word: kitchen, index: 5'
p581
aatp582
Rp583
(dp584
g12
Vnn
p585
sbatp586
Rp587
(dp588
g12
S'word: counter, index: 6'
p589
sbatp590
Rp591
(dp592
g12
Vnsubj
p593
sbag0
(g1
g2
(lp594
g0
(g1
g2
(lp595
g0
(g1
g2
(lp596
g0
(g1
g2
(lp597
g0
(g1
g2
(lp598
(lp599
S'word: a, index: 8'
p600
aatp601
Rp602
(dp603
g12
Vdet
p604
sbatp605
Rp606
(dp607
g12
S'word: little, index: 9'
p608
sbatp609
Rp610
(dp611
g12
Vnpadvmod
p612
sbag0
(g1
g2
(lp613
g0
(g1
g2
(lp614
g0
(g1
g2
(lp615
(lp616
S'word: not, index: 13'
p617
aatp618
Rp619
(dp620
g12
Vneg
p621
sbatp622
Rp623
(dp624
g12
S'word: bad, index: 14'
p625
sbatp626
Rp627
(dp628
g12
Vconj
p629
sbatp630
Rp631
(dp632
g12
S'word: cluttered, index: 10'
p633
sbatp634
Rp635
(dp636
g12
Vacomp
p637
sbag0
(g1
g2
(lp638
g623
atp639
Rp640
(dp641
g12
Vacomp
p642
sbatp643
Rp644
(dp645
g12
S'word: thats, index: 7'
p646
sbatp647
Rp648
(dp649
g12
Vccomp
p650
sbatp651
Rp652
(dp653
g12
S'word: see, index: 3'
p654
sbatp655
Rp656
(dp657
g12
S'id: 5'
p658
sbag0
(g1
g2
(lp659
g0
(g1
g2
(lp660
g0
(g1
g2
(lp661
g0
(g1
g2
(lp662
g0
(g1
g2
(lp663
(lp664
S'word: the, index: 2'
p665
aatp666
Rp667
(dp668
g12
Vdet
p669
sbatp670
Rp671
(dp672
g12
S'word: curtains, index: 3'
p673
sbatp674
Rp675
(dp676
g12
Vnsubj
p677
sbag0
(g1
g2
(lp678
(lp679
S'word: are, index: 4'
p680
aatp681
Rp682
(dp683
g12
Vcop
p684
sbag0
(g1
g2
(lp685
g0
(g1
g2
(lp686
g0
(g1
g2
(lp687
g0
(g1
g2
(lp688
g0
(g1
g2
(lp689
(lp690
S'word: the, index: 8'
p691
aatp692
Rp693
(dp694
g12
Vdet
p695
sbag0
(g1
g2
(lp696
(lp697
S'word: cookie, index: 9'
p698
aatp699
Rp700
(dp701
g12
Vnn
p702
sbatp703
Rp704
(dp705
g12
S'word: jar, index: 10'
p706
sbatp707
Rp708
(dp709
g12
Vnsubj
p710
sbag0
(g1
g2
(lp711
(lp712
S'word: is, index: 11'
p713
aatp714
Rp715
(dp716
g12
Vcop
p717
sbatp718
Rp719
(dp720
g12
S'word: full, index: 12'
p721
sbatp722
Rp723
(dp724
g12
Vconj
p725
sbag0
(g1
g2
(lp726
g0
(g1
g2
(lp727
g0
(g1
g2
(lp728
g671
atp729
Rp730
(dp731
g12
Vnsubj
p732
sbag0
(g1
g2
(lp733
(lp734
S'word: empty, index: 16'
p735
aatp736
Rp737
(dp738
g12
Vacomp
p739
sbatp740
Rp741
(dp742
g12
S'word: going, index: 15'
p743
sbatp744
Rp745
(dp746
g12
Vconj
p747
sbatp748
Rp749
(dp750
g12
S'word: nice, index: 5'
p751
sbatp752
Rp753
(dp754
g12
S'id: 6'
p755
sbag0
(g1
g2
(lp756
g0
(g1
g2
(lp757
g0
(g1
g2
(lp758
g0
(g1
g2
(lp759
g0
(g1
g2
(lp760
(lp761
S'word: like, index: 5'
p762
aatp763
Rp764
(dp765
g12
Vmark
p766
sbag0
(g1
g2
(lp767
(lp768
S'word: he, index: 6'
p769
aatp770
Rp771
(dp772
g12
Vnsubjpass
p773
sbag0
(g1
g2
(lp774
(lp775
S"word: 's, index: 7"
p776
aatp777
Rp778
(dp779
g12
Vauxpass
p780
sbag0
(g1
g2
(lp781
(lp782
S'word: already, index: 8'
p783
aatp784
Rp785
(dp786
g12
Vadvmod
p787
sbag0
(g1
g2
(lp788
g0
(g1
g2
(lp789
g0
(g1
g2
(lp790
(lp791
S'word: one, index: 10'
p792
aatp793
Rp794
(dp795
g12
Vnum
p796
sbag0
(g1
g2
(lp797
g0
(g1
g2
(lp798
g0
(g1
g2
(lp799
(lp800
S'word: too, index: 24'
p801
aatp802
Rp803
(dp804
g12
Vadvmod
p805
sbag0
(g1
g2
(lp806
g0
(g1
g2
(lp807
g0
(g1
g2
(lp808
g0
(g1
g2
(lp809
g0
(g1
g2
(lp810
(lp811
S'word: the, index: 22'
p812
aatp813
Rp814
(dp815
g12
Vdet
p816
sbatp817
Rp818
(dp819
g12
S'word: cookie, index: 23'
p820
sbatp821
Rp822
(dp823
g12
Vprep
p824
sbag0
(g1
g2
(lp825
g0
(g1
g2
(lp826
g0
(g1
g2
(lp827
g0
(g1
g2
(lp828
g0
(g1
g2
(lp829
(lp830
S'word: his, index: 17'
p831
aatp832
Rp833
(dp834
g12
Vposs
p835
sbag0
(g1
g2
(lp836
(lp837
S"word: 's, index: 19"
p838
aatp839
Rp840
(dp841
g12
Vpossessive
p842
sbatp843
Rp844
(dp845
g12
S'word: sister, index: 18'
p846
sbatp847
Rp848
(dp849
g12
Vappos
p850
sbatp851
Rp852
(dp853
g12
S'word: another, index: 15'
p854
sbatp855
Rp856
(dp857
g12
Vnsubj
p858
sbatp859
Rp860
(dp861
g12
S'word: reaching, index: 20'
p862
sbatp863
Rp864
(dp865
g12
Vprepc
p866
sbatp867
Rp868
(dp869
g12
S'word: heading, index: 13'
p870
sbatp871
Rp872
(dp873
g12
Vconj
p874
sbatp875
Rp876
(dp877
g12
S'word: cookie, index: 11'
p878
sbatp879
Rp880
(dp881
g12
Vdobj
p882
sbag0
(g1
g2
(lp883
g868
atp884
Rp885
(dp886
g12
Vdobj
p887
sbatp888
Rp889
(dp890
g12
S'word: got, index: 9'
p891
sbatp892
Rp893
(dp894
g12
Vadvcl
p895
sbag0
(g1
g2
(lp896
g0
(g1
g2
(lp897
g0
(g1
g2
(lp898
(lp899
S'word: it, index: 3'
p900
aatp901
Rp902
(dp903
g12
Vconj
p904
sbatp905
Rp906
(dp907
g12
S'word: ok, index: 1'
p908
sbatp909
Rp910
(dp911
g12
Vnsubj
p912
sbag0
(g1
g2
(lp913
(lp914
S'word: it, index: 3'
p915
aatp916
Rp917
(dp918
g12
Vnsubj
p919
sbatp920
Rp921
(dp922
g12
S'word: looks, index: 4'
p923
sbatp924
Rp925
(dp926
g12
S'id: 7'
p927
sbag0
(g1
g2
(lp928
g0
(g1
g2
(lp929
g0
(g1
g2
(lp930
g0
(g1
g2
(lp931
g0
(g1
g2
(lp932
(lp933
S'word: about, index: 2'
p934
aatp935
Rp936
(dp937
g12
Vadvmod
p938
sbatp939
Rp940
(dp941
g12
S'word: that, index: 3'
p942
sbatp943
Rp944
(dp945
g12
Vprep
p946
sbatp947
Rp948
(dp949
g12
S'word: How, index: 1'
p950
sbatp951
Rp952
(dp953
g12
S'id: 8'
p954
sbatp955
Rp956
(dp957
g12
S'sentences'
p958
sb.