ccopy_reg
_reconstructor
p0
(cnltk.tree
Tree
p1
c__builtin__
list
p2
(lp3
g0
(g1
g2
(lp4
g0
(g1
g2
(lp5
g0
(g1
g2
(lp6
Va clown
p7
atp8
Rp9
(dp10
S'_label'
p11
S'start: 3'
p12
sbatp13
Rp14
(dp15
g11
S'sent: 2'
p16
sbag0
(g1
g2
(lp17
g0
(g1
g2
(lp18
Va clown
p19
atp20
Rp21
(dp22
g11
S'start: 3'
p23
sbatp24
Rp25
(dp26
g11
S'sent: 6'
p27
sbag0
(g1
g2
(lp28
g0
(g1
g2
(lp29
Va clown
p30
atp31
Rp32
(dp33
g11
S'start: 3'
p34
sbatp35
Rp36
(dp37
g11
S'sent: 16'
p38
sbag0
(g1
g2
(lp39
g0
(g1
g2
(lp40
Va clown
p41
atp42
Rp43
(dp44
g11
S'start: 6'
p45
sbatp46
Rp47
(dp48
g11
S'sent: 18'
p49
sbatp50
Rp51
(dp52
g11
S'id: 2'
p53
sbag0
(g1
g2
(lp54
g0
(g1
g2
(lp55
g0
(g1
g2
(lp56
Va tight rope
p57
atp58
Rp59
(dp60
g11
S'start: 14'
p61
sbatp62
Rp63
(dp64
g11
S'sent: 4'
p65
sbag0
(g1
g2
(lp66
g0
(g1
g2
(lp67
Vthe tight rope
p68
atp69
Rp70
(dp71
g11
S'start: 17'
p72
sbatp73
Rp74
(dp75
g11
S'sent: 16'
p76
sbatp77
Rp78
(dp79
g11
S'id: 11'
p80
sbag0
(g1
g2
(lp81
g0
(g1
g2
(lp82
g0
(g1
g2
(lp83
Vthe drum
p84
atp85
Rp86
(dp87
g11
S'start: 7'
p88
sbatp89
Rp90
(dp91
g11
S'sent: 8'
p92
sbag0
(g1
g2
(lp93
g0
(g1
g2
(lp94
Vthe drum
p95
atp96
Rp97
(dp98
g11
S'start: 4'
p99
sbatp100
Rp101
(dp102
g11
S'sent: 12'
p103
sbag0
(g1
g2
(lp104
g0
(g1
g2
(lp105
Vit
p106
atp107
Rp108
(dp109
g11
S'start: 8'
p110
sbatp111
Rp112
(dp113
g11
S'sent: 15'
p114
sbag0
(g1
g2
(lp115
g0
(g1
g2
(lp116
Vthe
p117
atp118
Rp119
(dp120
g11
S'start: 2'
p121
sbatp122
Rp123
(dp124
g11
S'sent: 17'
p125
sbatp126
Rp127
(dp128
g11
S'id: 16'
p129
sbag0
(g1
g2
(lp130
g0
(g1
g2
(lp131
g0
(g1
g2
(lp132
Vanother clown
p133
atp134
Rp135
(dp136
g11
S'start: 3'
p137
sbatp138
Rp139
(dp140
g11
S'sent: 9'
p141
sbag0
(g1
g2
(lp142
g0
(g1
g2
(lp143
Vhis
p144
atp145
Rp146
(dp147
g11
S'start: 6'
p148
sbatp149
Rp150
(dp151
g11
S'sent: 11'
p152
sbatp153
Rp154
(dp155
g11
S'id: 17'
p156
sbag0
(g1
g2
(lp157
g0
(g1
g2
(lp158
g0
(g1
g2
(lp159
Va
p160
atp161
Rp162
(dp163
g11
S'start: 3'
p164
sbatp165
Rp166
(dp167
g11
S'sent: 15'
p168
sbag0
(g1
g2
(lp169
g0
(g1
g2
(lp170
Va , and a
p171
atp172
Rp173
(dp174
g11
S'start: 2'
p175
sbatp176
Rp177
(dp178
g11
S'sent: 20'
p179
sbag0
(g1
g2
(lp180
g0
(g1
g2
(lp181
Va
p182
atp183
Rp184
(dp185
g11
S'start: 2'
p186
sbatp187
Rp188
(dp189
g11
S'sent: 20'
p190
sbag0
(g1
g2
(lp191
g0
(g1
g2
(lp192
Va
p193
atp194
Rp195
(dp196
g11
S'start: 5'
p197
sbatp198
Rp199
(dp200
g11
S'sent: 20'
p201
sbatp202
Rp203
(dp204
g11
S'id: 26'
p205
sbag0
(g1
g2
(lp206
g0
(g1
g2
(lp207
g0
(g1
g2
(lp208
Va lion
p209
atp210
Rp211
(dp212
g11
S'start: 2'
p213
sbatp214
Rp215
(dp216
g11
S'sent: 18'
p217
sbag0
(g1
g2
(lp218
g0
(g1
g2
(lp219
Vthe lion
p220
atp221
Rp222
(dp223
g11
S'start: 4'
p224
sbatp225
Rp226
(dp227
g11
S'sent: 19'
p228
sbag0
(g1
g2
(lp229
g0
(g1
g2
(lp230
Va lion
p231
atp232
Rp233
(dp234
g11
S'start: 8'
p235
sbatp236
Rp237
(dp238
g11
S'sent: 20'
p239
sbatp240
Rp241
(dp242
g11
S'id: 35'
p243
sbatp244
Rp245
(dp246
g11
S'coreferences'
p247
sb.