ccopy_reg
_reconstructor
p0
(cnltk.tree
Tree
p1
c__builtin__
list
p2
(lp3
g0
(g1
g2
(lp4
g0
(g1
g2
(lp5
g0
(g1
g2
(lp6
g0
(g1
g2
(lp7
Vooo
p8
atp9
Rp10
(dp11
S'_label'
p12
VNN
p13
sbatp14
Rp15
(dp16
g12
VNP
p17
sbag0
(g1
g2
(lp18
g0
(g1
g2
(lp19
g0
(g1
g2
(lp20
Vanother
p21
atp22
Rp23
(dp24
g12
VDT
p25
sbag0
(g1
g2
(lp26
Vpencil
p27
atp28
Rp29
(dp30
g12
VNN
p31
sbag0
(g1
g2
(lp32
Vjob
p33
atp34
Rp35
(dp36
g12
VNN
p37
sbatp38
Rp39
(dp40
g12
VNP
p41
sbag0
(g1
g2
(lp42
V,
p43
atp44
Rp45
(dp46
g12
V,
p47
sbag0
(g1
g2
(lp48
g0
(g1
g2
(lp49
Vok
p50
atp51
Rp52
(dp53
g12
VNN
p54
sbatp55
Rp56
(dp57
g12
VNP
p58
sbatp59
Rp60
(dp61
g12
VNP
p62
sbag0
(g1
g2
(lp63
V.
p64
atp65
Rp66
(dp67
g12
V.
p68
sbatp69
Rp70
(dp71
g12
VNP
p72
sbatp73
Rp74
(dp75
g12
S'id: 0'
p76
sbag0
(g1
g2
(lp77
g0
(g1
g2
(lp78
g0
(g1
g2
(lp79
g0
(g1
g2
(lp80
VWe
p81
atp82
Rp83
(dp84
g12
VPRP
p85
sbatp86
Rp87
(dp88
g12
VNP
p89
sbag0
(g1
g2
(lp90
g0
(g1
g2
(lp91
Vare
p92
atp93
Rp94
(dp95
g12
VVBP
p96
sbag0
(g1
g2
(lp97
g0
(g1
g2
(lp98
Vlooking
p99
atp100
Rp101
(dp102
g12
VVBG
p103
sbag0
(g1
g2
(lp104
g0
(g1
g2
(lp105
Vat
p106
atp107
Rp108
(dp109
g12
VIN
p110
sbag0
(g1
g2
(lp111
g0
(g1
g2
(lp112
Va
p113
atp114
Rp115
(dp116
g12
VDT
p117
sbag0
(g1
g2
(lp118
Vmerry
p119
atp120
Rp121
(dp122
g12
VNN
p123
sbatp124
Rp125
(dp126
g12
VNP
p127
sbatp128
Rp129
(dp130
g12
VPP
p131
sbag0
(g1
g2
(lp132
V,
p133
atp134
Rp135
(dp136
g12
V,
p137
sbag0
(g1
g2
(lp138
g0
(g1
g2
(lp139
Vat
p140
atp141
Rp142
(dp143
g12
VIN
p144
sbag0
(g1
g2
(lp145
g0
(g1
g2
(lp146
g0
(g1
g2
(lp147
Va
p148
atp149
Rp150
(dp151
g12
VDT
p152
sbag0
(g1
g2
(lp153
Vtiger
p154
atp155
Rp156
(dp157
g12
VNN
p158
sbatp159
Rp160
(dp161
g12
VNP
p162
sbag0
(g1
g2
(lp163
g0
(g1
g2
(lp164
Vin
p165
atp166
Rp167
(dp168
g12
VIN
p169
sbag0
(g1
g2
(lp170
g0
(g1
g2
(lp171
g0
(g1
g2
(lp172
Vthe
p173
atp174
Rp175
(dp176
g12
VDT
p177
sbag0
(g1
g2
(lp178
Vcage
p179
atp180
Rp181
(dp182
g12
VNN
p183
sbatp184
Rp185
(dp186
g12
VNP
p187
sbag0
(g1
g2
(lp188
V,
p189
atp190
Rp191
(dp192
g12
V,
p193
sbag0
(g1
g2
(lp194
Vand
p195
atp196
Rp197
(dp198
g12
VCC
p199
sbag0
(g1
g2
(lp200
g0
(g1
g2
(lp201
Va
p202
atp203
Rp204
(dp205
g12
VDT
p206
sbag0
(g1
g2
(lp207
Vbare
p208
atp209
Rp210
(dp211
g12
VJJ
p212
sbag0
(g1
g2
(lp213
Vback
p214
atp215
Rp216
(dp217
g12
VNN
p218
sbag0
(g1
g2
(lp219
Vrider
p220
atp221
Rp222
(dp223
g12
VNN
p224
sbatp225
Rp226
(dp227
g12
VNP
p228
sbag0
(g1
g2
(lp229
V,
p230
atp231
Rp232
(dp233
g12
V,
p234
sbag0
(g1
g2
(lp235
Vand
p236
atp237
Rp238
(dp239
g12
VCC
p240
sbag0
(g1
g2
(lp241
g0
(g1
g2
(lp242
Va
p243
atp244
Rp245
(dp246
g12
VDT
p247
sbag0
(g1
g2
(lp248
Vtight
p249
atp250
Rp251
(dp252
g12
VJJ
p253
sbag0
(g1
g2
(lp254
Vrope
p255
atp256
Rp257
(dp258
g12
VNN
p259
sbag0
(g1
g2
(lp260
Vwalker
p261
atp262
Rp263
(dp264
g12
VNN
p265
sbatp266
Rp267
(dp268
g12
VNP
p269
sbatp270
Rp271
(dp272
g12
VNP
p273
sbatp274
Rp275
(dp276
g12
VPP
p277
sbatp278
Rp279
(dp280
g12
VNP
p281
sbatp282
Rp283
(dp284
g12
VPP
p285
sbatp286
Rp287
(dp288
g12
VVP
p289
sbatp290
Rp291
(dp292
g12
VVP
p293
sbag0
(g1
g2
(lp294
V.
p295
atp296
Rp297
(dp298
g12
V.
p299
sbatp300
Rp301
(dp302
g12
VS
p303
sbatp304
Rp305
(dp306
g12
S'id: 1'
p307
sbag0
(g1
g2
(lp308
g0
(g1
g2
(lp309
g0
(g1
g2
(lp310
g0
(g1
g2
(lp311
Vboy
p312
atp313
Rp314
(dp315
g12
VNN
p316
sbatp317
Rp318
(dp319
g12
VNP
p320
sbag0
(g1
g2
(lp321
g0
(g1
g2
(lp322
g0
(g1
g2
(lp323
g0
(g1
g2
(lp324
Vthose
p325
atp326
Rp327
(dp328
g12
VDT
p329
sbatp330
Rp331
(dp332
g12
VNP
p333
sbag0
(g1
g2
(lp334
g0
(g1
g2
(lp335
Vare
p336
atp337
Rp338
(dp339
g12
VVBP
p340
sbag0
(g1
g2
(lp341
g0
(g1
g2
(lp342
Vall
p343
atp344
Rp345
(dp346
g12
VDT
p347
sbatp348
Rp349
(dp350
g12
VNP
p351
sbatp352
Rp353
(dp354
g12
VVP
p355
sbatp356
Rp357
(dp358
g12
VS
p359
sbag0
(g1
g2
(lp360
V,
p361
atp362
Rp363
(dp364
g12
V,
p365
sbatp366
Rp367
(dp368
g12
VPRN
p369
sbag0
(g1
g2
(lp370
g0
(g1
g2
(lp371
Vmust
p372
atp373
Rp374
(dp375
g12
VMD
p376
sbag0
(g1
g2
(lp377
g0
(g1
g2
(lp378
Vbe
p379
atp380
Rp381
(dp382
g12
VVB
p383
sbag0
(g1
g2
(lp384
g0
(g1
g2
(lp385
g0
(g1
g2
(lp386
Va
p387
atp388
Rp389
(dp390
g12
VDT
p391
sbag0
(g1
g2
(lp392
Vcircus
p393
atp394
Rp395
(dp396
g12
VNN
p397
sbatp398
Rp399
(dp400
g12
VNP
p401
sbag0
(g1
g2
(lp402
g0
(g1
g2
(lp403
Vin
p404
atp405
Rp406
(dp407
g12
VIN
p408
sbag0
(g1
g2
(lp409
g0
(g1
g2
(lp410
Vtown
p411
atp412
Rp413
(dp414
g12
VNN
p415
sbatp416
Rp417
(dp418
g12
VNP
p419
sbatp420
Rp421
(dp422
g12
VPP
p423
sbatp424
Rp425
(dp426
g12
VNP
p427
sbatp428
Rp429
(dp430
g12
VVP
p431
sbatp432
Rp433
(dp434
g12
VVP
p435
sbag0
(g1
g2
(lp436
V.
p437
atp438
Rp439
(dp440
g12
V.
p441
sbatp442
Rp443
(dp444
g12
VS
p445
sbatp446
Rp447
(dp448
g12
S'id: 2'
p449
sbag0
(g1
g2
(lp450
g0
(g1
g2
(lp451
g0
(g1
g2
(lp452
g0
(g1
g2
(lp453
VWell
p454
atp455
Rp456
(dp457
g12
VRB
p458
sbatp459
Rp460
(dp461
g12
VADVP
p462
sbag0
(g1
g2
(lp463
g0
(g1
g2
(lp464
Vthere
p465
atp466
Rp467
(dp468
g12
VEX
p469
sbatp470
Rp471
(dp472
g12
VNP
p473
sbag0
(g1
g2
(lp474
g0
(g1
g2
(lp475
V's
p476
atp477
Rp478
(dp479
g12
VVBZ
p480
sbag0
(g1
g2
(lp481
g0
(g1
g2
(lp482
Va
p483
atp484
Rp485
(dp486
g12
VDT
p487
sbag0
(g1
g2
(lp488
Vclown
p489
atp490
Rp491
(dp492
g12
VNN
p493
sbag0
(g1
g2
(lp494
g0
(g1
g2
(lp495
g0
(g1
g2
(lp496
Vflipping
p497
atp498
Rp499
(dp500
g12
VVBG
p501
sbag0
(g1
g2
(lp502
g0
(g1
g2
(lp503
Vout
p504
atp505
Rp506
(dp507
g12
VRP
p508
sbatp509
Rp510
(dp511
g12
VPRT
p512
sbag0
(g1
g2
(lp513
g0
(g1
g2
(lp514
Vpopcorn
p515
atp516
Rp517
(dp518
g12
VNN
p519
sbatp520
Rp521
(dp522
g12
VNP
p523
sbag0
(g1
g2
(lp524
g0
(g1
g2
(lp525
Vall
p526
atp527
Rp528
(dp529
g12
VDT
p530
sbag0
(g1
g2
(lp531
Vover
p532
atp533
Rp534
(dp535
g12
VIN
p536
sbag0
(g1
g2
(lp537
g0
(g1
g2
(lp538
Vthe
p539
atp540
Rp541
(dp542
g12
VDT
p543
sbag0
(g1
g2
(lp544
Vplace
p545
atp546
Rp547
(dp548
g12
VNN
p549
sbatp550
Rp551
(dp552
g12
VNP
p553
sbatp554
Rp555
(dp556
g12
VPP
p557
sbatp558
Rp559
(dp560
g12
VVP
p561
sbatp562
Rp563
(dp564
g12
VS
p565
sbatp566
Rp567
(dp568
g12
VNP
p569
sbatp570
Rp571
(dp572
g12
VVP
p573
sbag0
(g1
g2
(lp574
V.
p575
atp576
Rp577
(dp578
g12
V.
p579
sbatp580
Rp581
(dp582
g12
VS
p583
sbatp584
Rp585
(dp586
g12
S'id: 3'
p587
sbag0
(g1
g2
(lp588
g0
(g1
g2
(lp589
g0
(g1
g2
(lp590
VAnd
p591
atp592
Rp593
(dp594
g12
VCC
p595
sbag0
(g1
g2
(lp596
g0
(g1
g2
(lp597
g0
(g1
g2
(lp598
g0
(g1
g2
(lp599
Va
p600
atp601
Rp602
(dp603
g12
VDT
p604
sbag0
(g1
g2
(lp605
Vyoung
p606
atp607
Rp608
(dp609
g12
VJJ
p610
sbag0
(g1
g2
(lp611
Vlady
p612
atp613
Rp614
(dp615
g12
VNN
p616
sbatp617
Rp618
(dp619
g12
VNP
p620
sbag0
(g1
g2
(lp621
g0
(g1
g2
(lp622
Vwith
p623
atp624
Rp625
(dp626
g12
VIN
p627
sbag0
(g1
g2
(lp628
g0
(g1
g2
(lp629
g0
(g1
g2
(lp630
Va
p631
atp632
Rp633
(dp634
g12
VDT
p635
sbag0
(g1
g2
(lp636
Vprinted
p637
atp638
Rp639
(dp640
g12
VVBN
p641
sbag0
(g1
g2
(lp642
Vblouse
p643
atp644
Rp645
(dp646
g12
VNN
p647
sbatp648
Rp649
(dp650
g12
VNP
p651
sbag0
(g1
g2
(lp652
g0
(g1
g2
(lp653
Von
p654
atp655
Rp656
(dp657
g12
VIN
p658
sbatp659
Rp660
(dp661
g12
VPP
p662
sbatp663
Rp664
(dp665
g12
VNP
p666
sbatp667
Rp668
(dp669
g12
VPP
p670
sbatp671
Rp672
(dp673
g12
VNP
p674
sbatp675
Rp676
(dp677
g12
VS
p678
sbag0
(g1
g2
(lp679
Vand
p680
atp681
Rp682
(dp683
g12
VCC
p684
sbag0
(g1
g2
(lp685
g0
(g1
g2
(lp686
g0
(g1
g2
(lp687
Vshe
p688
atp689
Rp690
(dp691
g12
VPRP
p692
sbatp693
Rp694
(dp695
g12
VNP
p696
sbag0
(g1
g2
(lp697
g0
(g1
g2
(lp698
Vis
p699
atp700
Rp701
(dp702
g12
VVBZ
p703
sbag0
(g1
g2
(lp704
g0
(g1
g2
(lp705
Vcarrying
p706
atp707
Rp708
(dp709
g12
VVBG
p710
sbag0
(g1
g2
(lp711
g0
(g1
g2
(lp712
Va
p713
atp714
Rp715
(dp716
g12
VDT
p717
sbag0
(g1
g2
(lp718
Vyounger
p719
atp720
Rp721
(dp722
g12
VJJR
p723
sbag0
(g1
g2
(lp724
Vlady
p725
atp726
Rp727
(dp728
g12
VNN
p729
sbatp730
Rp731
(dp732
g12
VNP
p733
sbatp734
Rp735
(dp736
g12
VVP
p737
sbatp738
Rp739
(dp740
g12
VVP
p741
sbatp742
Rp743
(dp744
g12
VS
p745
sbag0
(g1
g2
(lp746
V,
p747
atp748
Rp749
(dp750
g12
V,
p751
sbag0
(g1
g2
(lp752
Vand
p753
atp754
Rp755
(dp756
g12
VCC
p757
sbag0
(g1
g2
(lp758
g0
(g1
g2
(lp759
g0
(g1
g2
(lp760
Vher
p761
atp762
Rp763
(dp764
g12
VPRP$
p765
sbag0
(g1
g2
(lp766
Vson
p767
atp768
Rp769
(dp770
g12
VNN
p771
sbatp772
Rp773
(dp774
g12
VNP
p775
sbag0
(g1
g2
(lp776
g0
(g1
g2
(lp777
Vis
p778
atp779
Rp780
(dp781
g12
VVBZ
p782
sbag0
(g1
g2
(lp783
g0
(g1
g2
(lp784
Valong
p785
atp786
Rp787
(dp788
g12
VIN
p789
sbag0
(g1
g2
(lp790
g0
(g1
g2
(lp791
g0
(g1
g2
(lp792
Vside
p793
atp794
Rp795
(dp796
g12
VNN
p797
sbatp798
Rp799
(dp800
g12
VNP
p801
sbag0
(g1
g2
(lp802
g0
(g1
g2
(lp803
Vof
p804
atp805
Rp806
(dp807
g12
VIN
p808
sbag0
(g1
g2
(lp809
g0
(g1
g2
(lp810
Vher
p811
atp812
Rp813
(dp814
g12
VPRP$
p815
sbatp816
Rp817
(dp818
g12
VNP
p819
sbatp820
Rp821
(dp822
g12
VPP
p823
sbatp824
Rp825
(dp826
g12
VNP
p827
sbatp828
Rp829
(dp830
g12
VPP
p831
sbatp832
Rp833
(dp834
g12
VVP
p835
sbatp836
Rp837
(dp838
g12
VS
p839
sbag0
(g1
g2
(lp840
V.
p841
atp842
Rp843
(dp844
g12
V.
p845
sbatp846
Rp847
(dp848
g12
VS
p849
sbatp850
Rp851
(dp852
g12
S'id: 4'
p853
sbag0
(g1
g2
(lp854
g0
(g1
g2
(lp855
g0
(g1
g2
(lp856
g0
(g1
g2
(lp857
VAnd
p858
atp859
Rp860
(dp861
g12
VCC
p862
sbag0
(g1
g2
(lp863
g0
(g1
g2
(lp864
g0
(g1
g2
(lp865
Vthe
p866
atp867
Rp868
(dp869
g12
VDT
p870
sbag0
(g1
g2
(lp871
Vman
p872
atp873
Rp874
(dp875
g12
VNN
p876
sbatp877
Rp878
(dp879
g12
VNP
p880
sbag0
(g1
g2
(lp881
g0
(g1
g2
(lp882
Vin
p883
atp884
Rp885
(dp886
g12
VIN
p887
sbag0
(g1
g2
(lp888
g0
(g1
g2
(lp889
Vthe
p890
atp891
Rp892
(dp893
g12
VDT
p894
sbag0
(g1
g2
(lp895
Vcage
p896
atp897
Rp898
(dp899
g12
VNN
p900
sbatp901
Rp902
(dp903
g12
VNP
p904
sbatp905
Rp906
(dp907
g12
VPP
p908
sbatp909
Rp910
(dp911
g12
VNP
p912
sbag0
(g1
g2
(lp913
g0
(g1
g2
(lp914
Vis
p915
atp916
Rp917
(dp918
g12
VVBZ
p919
sbag0
(g1
g2
(lp920
g0
(g1
g2
(lp921
Vwearing
p922
atp923
Rp924
(dp925
g12
VVBG
p926
sbag0
(g1
g2
(lp927
g0
(g1
g2
(lp928
g0
(g1
g2
(lp929
g0
(g1
g2
(lp930
Va
p931
atp932
Rp933
(dp934
g12
VDT
p935
sbag0
(g1
g2
(lp936
Vtop
p937
atp938
Rp939
(dp940
g12
VJJ
p941
sbag0
(g1
g2
(lp942
Vhat
p943
atp944
Rp945
(dp946
g12
VNN
p947
sbatp948
Rp949
(dp950
g12
VNP
p951
sbag0
(g1
g2
(lp952
V,
p953
atp954
Rp955
(dp956
g12
V,
p957
sbag0
(g1
g2
(lp958
Vand
p959
atp960
Rp961
(dp962
g12
VCC
p963
sbag0
(g1
g2
(lp964
g0
(g1
g2
(lp965
Vcoat
p966
atp967
Rp968
(dp969
g12
VNN
p970
sbatp971
Rp972
(dp973
g12
VNP
p974
sbag0
(g1
g2
(lp975
V,
p976
atp977
Rp978
(dp979
g12
V,
p980
sbatp981
Rp982
(dp983
g12
VNP
p984
sbag0
(g1
g2
(lp985
Vand
p986
atp987
Rp988
(dp989
g12
VCC
p990
sbag0
(g1
g2
(lp991
g0
(g1
g2
(lp992
Vtails
p993
atp994
Rp995
(dp996
g12
VNNS
p997
sbatp998
Rp999
(dp1000
g12
VNP
p1001
sbatp1002
Rp1003
(dp1004
g12
VNP
p1005
sbatp1006
Rp1007
(dp1008
g12
VVP
p1009
sbatp1010
Rp1011
(dp1012
g12
VVP
p1013
sbatp1014
Rp1015
(dp1016
g12
VS
p1017
sbag0
(g1
g2
(lp1018
V,
p1019
atp1020
Rp1021
(dp1022
g12
V,
p1023
sbag0
(g1
g2
(lp1024
g0
(g1
g2
(lp1025
Vhe
p1026
atp1027
Rp1028
(dp1029
g12
VPRP
p1030
sbatp1031
Rp1032
(dp1033
g12
VNP
p1034
sbag0
(g1
g2
(lp1035
g0
(g1
g2
(lp1036
V's
p1037
atp1038
Rp1039
(dp1040
g12
VVBZ
p1041
sbag0
(g1
g2
(lp1042
g0
(g1
g2
(lp1043
Vreally
p1044
atp1045
Rp1046
(dp1047
g12
VRB
p1048
sbag0
(g1
g2
(lp1049
Vformal
p1050
atp1051
Rp1052
(dp1053
g12
VJJ
p1054
sbatp1055
Rp1056
(dp1057
g12
VADJP
p1058
sbatp1059
Rp1060
(dp1061
g12
VVP
p1062
sbag0
(g1
g2
(lp1063
V.
p1064
atp1065
Rp1066
(dp1067
g12
V.
p1068
sbatp1069
Rp1070
(dp1071
g12
VS
p1072
sbatp1073
Rp1074
(dp1075
g12
S'id: 5'
p1076
sbag0
(g1
g2
(lp1077
g0
(g1
g2
(lp1078
g0
(g1
g2
(lp1079
VAnd
p1080
atp1081
Rp1082
(dp1083
g12
VCC
p1084
sbag0
(g1
g2
(lp1085
g0
(g1
g2
(lp1086
g0
(g1
g2
(lp1087
Vthe
p1088
atp1089
Rp1090
(dp1091
g12
VDT
p1092
sbatp1093
Rp1094
(dp1095
g12
VX
p1096
sbag0
(g1
g2
(lp1097
V,
p1098
atp1099
Rp1100
(dp1101
g12
V,
p1102
sbag0
(g1
g2
(lp1103
g0
(g1
g2
(lp1104
g0
(g1
g2
(lp1105
Vthe
p1106
atp1107
Rp1108
(dp1109
g12
VDT
p1110
sbag0
(g1
g2
(lp1111
Vthe
p1112
atp1113
Rp1114
(dp1115
g12
VDT
p1116
sbatp1117
Rp1118
(dp1119
g12
VNP
p1120
sbag0
(g1
g2
(lp1121
V,
p1122
atp1123
Rp1124
(dp1125
g12
V,
p1126
sbag0
(g1
g2
(lp1127
g0
(g1
g2
(lp1128
g0
(g1
g2
(lp1129
Vhorse
p1130
atp1131
Rp1132
(dp1133
g12
VNN
p1134
sbatp1135
Rp1136
(dp1137
g12
VNP
p1138
sbag0
(g1
g2
(lp1139
g0
(g1
g2
(lp1140
g0
(g1
g2
(lp1141
g0
(g1
g2
(lp1142
Vis
p1143
atp1144
Rp1145
(dp1146
g12
VVBZ
p1147
sbag0
(g1
g2
(lp1148
g0
(g1
g2
(lp1149
Vin
p1150
atp1151
Rp1152
(dp1153
g12
VIN
p1154
sbag0
(g1
g2
(lp1155
Va
p1156
atp1157
Rp1158
(dp1159
g12
VDT
p1160
sbatp1161
Rp1162
(dp1163
g12
VADVP
p1164
sbatp1165
Rp1166
(dp1167
g12
VVP
p1168
sbatp1169
Rp1170
(dp1171
g12
VS
p1172
sbatp1173
Rp1174
(dp1175
g12
VSBAR
p1176
sbatp1177
Rp1178
(dp1179
g12
VNP
p1180
sbag0
(g1
g2
(lp1181
V,
p1182
atp1183
Rp1184
(dp1185
g12
V,
p1186
sbatp1187
Rp1188
(dp1189
g12
VNP
p1190
sbag0
(g1
g2
(lp1191
g0
(g1
g2
(lp1192
Vlooks
p1193
atp1194
Rp1195
(dp1196
g12
VVBZ
p1197
sbag0
(g1
g2
(lp1198
g0
(g1
g2
(lp1199
Vlike
p1200
atp1201
Rp1202
(dp1203
g12
VIN
p1204
sbag0
(g1
g2
(lp1205
g0
(g1
g2
(lp1206
g0
(g1
g2
(lp1207
Va
p1208
atp1209
Rp1210
(dp1211
g12
VDT
p1212
sbag0
(g1
g2
(lp1213
Vring
p1214
atp1215
Rp1216
(dp1217
g12
VNN
p1218
sbatp1219
Rp1220
(dp1221
g12
VNP
p1222
sbag0
(g1
g2
(lp1223
g0
(g1
g2
(lp1224
g0
(g1
g2
(lp1225
Vthat
p1226
atp1227
Rp1228
(dp1229
g12
VWDT
p1230
sbatp1231
Rp1232
(dp1233
g12
VWHNP
p1234
sbag0
(g1
g2
(lp1235
g0
(g1
g2
(lp1236
g0
(g1
g2
(lp1237
Vmay
p1238
atp1239
Rp1240
(dp1241
g12
VMD
p1242
sbag0
(g1
g2
(lp1243
g0
(g1
g2
(lp1244
Vbe
p1245
atp1246
Rp1247
(dp1248
g12
VVB
p1249
sbag0
(g1
g2
(lp1250
g0
(g1
g2
(lp1251
Vsand
p1252
atp1253
Rp1254
(dp1255
g12
VNN
p1256
sbag0
(g1
g2
(lp1257
Vcoated
p1258
atp1259
Rp1260
(dp1261
g12
VJJ
p1262
sbatp1263
Rp1264
(dp1265
g12
VNP
p1266
sbatp1267
Rp1268
(dp1269
g12
VVP
p1270
sbatp1271
Rp1272
(dp1273
g12
VVP
p1274
sbatp1275
Rp1276
(dp1277
g12
VS
p1278
sbatp1279
Rp1280
(dp1281
g12
VSBAR
p1282
sbatp1283
Rp1284
(dp1285
g12
VNP
p1286
sbatp1287
Rp1288
(dp1289
g12
VPP
p1290
sbatp1291
Rp1292
(dp1293
g12
VVP
p1294
sbatp1295
Rp1296
(dp1297
g12
VS
p1298
sbag0
(g1
g2
(lp1299
V,
p1300
atp1301
Rp1302
(dp1303
g12
V,
p1304
sbag0
(g1
g2
(lp1305
Vand
p1306
atp1307
Rp1308
(dp1309
g12
VCC
p1310
sbag0
(g1
g2
(lp1311
g0
(g1
g2
(lp1312
g0
(g1
g2
(lp1313
g0
(g1
g2
(lp1314
Vit
p1315
atp1316
Rp1317
(dp1318
g12
VPRP
p1319
sbatp1320
Rp1321
(dp1322
g12
VNP
p1323
sbag0
(g1
g2
(lp1324
g0
(g1
g2
(lp1325
V's
p1326
atp1327
Rp1328
(dp1329
g12
VVBZ
p1330
sbag0
(g1
g2
(lp1331
g0
(g1
g2
(lp1332
Vgot
p1333
atp1334
Rp1335
(dp1336
g12
VVBD
p1337
sbag0
(g1
g2
(lp1338
g0
(g1
g2
(lp1339
Va
p1340
atp1341
Rp1342
(dp1343
g12
VDT
p1344
sbag0
(g1
g2
(lp1345
Vfancy
p1346
atp1347
Rp1348
(dp1349
g12
VJJ
p1350
sbatp1351
Rp1352
(dp1353
g12
VNP
p1354
sbatp1355
Rp1356
(dp1357
g12
VVP
p1358
sbatp1359
Rp1360
(dp1361
g12
VVP
p1362
sbatp1363
Rp1364
(dp1365
g12
VS
p1366
sbag0
(g1
g2
(lp1367
V,
p1368
atp1369
Rp1370
(dp1371
g12
V,
p1372
sbag0
(g1
g2
(lp1373
g0
(g1
g2
(lp1374
VI
p1375
atp1376
Rp1377
(dp1378
g12
VPRP
p1379
sbatp1380
Rp1381
(dp1382
g12
VNP
p1383
sbag0
(g1
g2
(lp1384
g0
(g1
g2
(lp1385
Vguess
p1386
atp1387
Rp1388
(dp1389
g12
VVBP
p1390
sbag0
(g1
g2
(lp1391
g0
(g1
g2
(lp1392
g0
(g1
g2
(lp1393
g0
(g1
g2
(lp1394
Vthat
p1395
atp1396
Rp1397
(dp1398
g12
VDT
p1399
sbatp1400
Rp1401
(dp1402
g12
VNP
p1403
sbag0
(g1
g2
(lp1404
g0
(g1
g2
(lp1405
Vis
p1406
atp1407
Rp1408
(dp1409
g12
VVBZ
p1410
sbag0
(g1
g2
(lp1411
g0
(g1
g2
(lp1412
g0
(g1
g2
(lp1413
Va
p1414
atp1415
Rp1416
(dp1417
g12
VDT
p1418
sbag0
(g1
g2
(lp1419
Vharness
p1420
atp1421
Rp1422
(dp1423
g12
VNN
p1424
sbatp1425
Rp1426
(dp1427
g12
VNP
p1428
sbag0
(g1
g2
(lp1429
g0
(g1
g2
(lp1430
Von
p1431
atp1432
Rp1433
(dp1434
g12
VIN
p1435
sbag0
(g1
g2
(lp1436
g0
(g1
g2
(lp1437
Vit
p1438
atp1439
Rp1440
(dp1441
g12
VPRP
p1442
sbatp1443
Rp1444
(dp1445
g12
VNP
p1446
sbatp1447
Rp1448
(dp1449
g12
VPP
p1450
sbatp1451
Rp1452
(dp1453
g12
VNP
p1454
sbatp1455
Rp1456
(dp1457
g12
VVP
p1458
sbatp1459
Rp1460
(dp1461
g12
VS
p1462
sbatp1463
Rp1464
(dp1465
g12
VSBAR
p1466
sbatp1467
Rp1468
(dp1469
g12
VVP
p1470
sbatp1471
Rp1472
(dp1473
g12
VS
p1474
sbag0
(g1
g2
(lp1475
V.
p1476
atp1477
Rp1478
(dp1479
g12
V.
p1480
sbatp1481
Rp1482
(dp1483
g12
VS
p1484
sbatp1485
Rp1486
(dp1487
g12
S'id: 6'
p1488
sbag0
(g1
g2
(lp1489
g0
(g1
g2
(lp1490
g0
(g1
g2
(lp1491
VAnd
p1492
atp1493
Rp1494
(dp1495
g12
VCC
p1496
sbag0
(g1
g2
(lp1497
g0
(g1
g2
(lp1498
g0
(g1
g2
(lp1499
Vthe
p1500
atp1501
Rp1502
(dp1503
g12
VDT
p1504
sbag0
(g1
g2
(lp1505
Vhorse
p1506
atp1507
Rp1508
(dp1509
g12
VNN
p1510
sbag0
(g1
g2
(lp1511
V's
p1512
atp1513
Rp1514
(dp1515
g12
VPOS
p1516
sbatp1517
Rp1518
(dp1519
g12
VNP
p1520
sbag0
(g1
g2
(lp1521
Vmane
p1522
atp1523
Rp1524
(dp1525
g12
VNN
p1526
sbatp1527
Rp1528
(dp1529
g12
VNP
p1530
sbag0
(g1
g2
(lp1531
g0
(g1
g2
(lp1532
Vis
p1533
atp1534
Rp1535
(dp1536
g12
VVBZ
p1537
sbag0
(g1
g2
(lp1538
g0
(g1
g2
(lp1539
g0
(g1
g2
(lp1540
Vall
p1541
atp1542
Rp1543
(dp1544
g12
VDT
p1545
sbatp1546
Rp1547
(dp1548
g12
VNP
p1549
sbag0
(g1
g2
(lp1550
g0
(g1
g2
(lp1551
g0
(g1
g2
(lp1552
g0
(g1
g2
(lp1553
Vdolled
p1554
atp1555
Rp1556
(dp1557
g12
VVBD
p1558
sbag0
(g1
g2
(lp1559
g0
(g1
g2
(lp1560
Vup
p1561
atp1562
Rp1563
(dp1564
g12
VRP
p1565
sbatp1566
Rp1567
(dp1568
g12
VPRT
p1569
sbag0
(g1
g2
(lp1570
V,
p1571
atp1572
Rp1573
(dp1574
g12
V,
p1575
sbag0
(g1
g2
(lp1576
g0
(g1
g2
(lp1577
Vwith
p1578
atp1579
Rp1580
(dp1581
g12
VIN
p1582
sbag0
(g1
g2
(lp1583
g0
(g1
g2
(lp1584
g0
(g1
g2
(lp1585
Va
p1586
atp1587
Rp1588
(dp1589
g12
VDT
p1590
sbag0
(g1
g2
(lp1591
g0
(g1
g2
(lp1592
V,
p1593
atp1594
Rp1595
(dp1596
g12
V,
p1597
sbag0
(g1
g2
(lp1598
g0
(g1
g2
(lp1599
Vwith
p1600
atp1601
Rp1602
(dp1603
g12
VIN
p1604
sbag0
(g1
g2
(lp1605
g0
(g1
g2
(lp1606
Vsome
p1607
atp1608
Rp1609
(dp1610
g12
VDT
p1611
sbag0
(g1
g2
(lp1612
Vtossles
p1613
atp1614
Rp1615
(dp1616
g12
VNNS
p1617
sbatp1618
Rp1619
(dp1620
g12
VNP
p1621
sbatp1622
Rp1623
(dp1624
g12
VPP
p1625
sbag0
(g1
g2
(lp1626
V,
p1627
atp1628
Rp1629
(dp1630
g12
V,
p1631
sbatp1632
Rp1633
(dp1634
g12
VPRN
p1635
sbatp1636
Rp1637
(dp1638
g12
VADJP
p1639
sbag0
(g1
g2
(lp1640
Vtassels
p1641
atp1642
Rp1643
(dp1644
g12
VNNS
p1645
sbatp1646
Rp1647
(dp1648
g12
VNP
p1649
sbatp1650
Rp1651
(dp1652
g12
VPP
p1653
sbatp1654
Rp1655
(dp1656
g12
VVP
p1657
sbatp1658
Rp1659
(dp1660
g12
VS
p1661
sbatp1662
Rp1663
(dp1664
g12
VSBAR
p1665
sbatp1666
Rp1667
(dp1668
g12
VNP
p1669
sbatp1670
Rp1671
(dp1672
g12
VVP
p1673
sbag0
(g1
g2
(lp1674
V.
p1675
atp1676
Rp1677
(dp1678
g12
V.
p1679
sbatp1680
Rp1681
(dp1682
g12
VS
p1683
sbatp1684
Rp1685
(dp1686
g12
S'id: 7'
p1687
sbag0
(g1
g2
(lp1688
g0
(g1
g2
(lp1689
g0
(g1
g2
(lp1690
VAnd
p1691
atp1692
Rp1693
(dp1694
g12
VCC
p1695
sbag0
(g1
g2
(lp1696
g0
(g1
g2
(lp1697
Vit
p1698
atp1699
Rp1700
(dp1701
g12
VPRP
p1702
sbatp1703
Rp1704
(dp1705
g12
VNP
p1706
sbag0
(g1
g2
(lp1707
g0
(g1
g2
(lp1708
V's
p1709
atp1710
Rp1711
(dp1712
g12
VVBZ
p1713
sbag0
(g1
g2
(lp1714
g0
(g1
g2
(lp1715
Vgot
p1716
atp1717
Rp1718
(dp1719
g12
VVBD
p1720
sbag0
(g1
g2
(lp1721
g0
(g1
g2
(lp1722
g0
(g1
g2
(lp1723
Va
p1724
atp1725
Rp1726
(dp1727
g12
VDT
p1728
sbatp1729
Rp1730
(dp1731
g12
VNP
p1732
sbag0
(g1
g2
(lp1733
V,
p1734
atp1735
Rp1736
(dp1737
g12
V,
p1738
sbag0
(g1
g2
(lp1739
g0
(g1
g2
(lp1740
Va
p1741
atp1742
Rp1743
(dp1744
g12
VDT
p1745
sbatp1746
Rp1747
(dp1748
g12
VNP
p1749
sbag0
(g1
g2
(lp1750
V,
p1751
atp1752
Rp1753
(dp1754
g12
V,
p1755
sbag0
(g1
g2
(lp1756
g0
(g1
g2
(lp1757
g0
(g1
g2
(lp1758
Vwhat
p1759
atp1760
Rp1761
(dp1762
g12
VWP
p1763
sbatp1764
Rp1765
(dp1766
g12
VWHNP
p1767
sbag0
(g1
g2
(lp1768
g0
(g1
g2
(lp1769
g0
(g1
g2
(lp1770
Vdo
p1771
atp1772
Rp1773
(dp1774
g12
VVBP
p1775
sbag0
(g1
g2
(lp1776
g0
(g1
g2
(lp1777
g0
(g1
g2
(lp1778
Vyou
p1779
atp1780
Rp1781
(dp1782
g12
VPRP
p1783
sbatp1784
Rp1785
(dp1786
g12
VNP
p1787
sbag0
(g1
g2
(lp1788
g0
(g1
g2
(lp1789
Vcall
p1790
atp1791
Rp1792
(dp1793
g12
VVB
p1794
sbag0
(g1
g2
(lp1795
g0
(g1
g2
(lp1796
g0
(g1
g2
(lp1797
g0
(g1
g2
(lp1798
g0
(g1
g2
(lp1799
Vthat
p1800
atp1801
Rp1802
(dp1803
g12
VDT
p1804
sbag0
(g1
g2
(lp1805
Vthing
p1806
atp1807
Rp1808
(dp1809
g12
VNN
p1810
sbatp1811
Rp1812
(dp1813
g12
VNP
p1814
sbag0
(g1
g2
(lp1815
g0
(g1
g2
(lp1816
Von
p1817
atp1818
Rp1819
(dp1820
g12
VIN
p1821
sbag0
(g1
g2
(lp1822
g0
(g1
g2
(lp1823
Vit
p1824
atp1825
Rp1826
(dp1827
g12
VPRP
p1828
sbatp1829
Rp1830
(dp1831
g12
VNP
p1832
sbatp1833
Rp1834
(dp1835
g12
VPP
p1836
sbatp1837
Rp1838
(dp1839
g12
VNP
p1840
sbag0
(g1
g2
(lp1841
g0
(g1
g2
(lp1842
V's
p1843
atp1844
Rp1845
(dp1846
g12
VVBZ
p1847
sbag0
(g1
g2
(lp1848
g0
(g1
g2
(lp1849
Vhead
p1850
atp1851
Rp1852
(dp1853
g12
VNN
p1854
sbatp1855
Rp1856
(dp1857
g12
VNP
p1858
sbatp1859
Rp1860
(dp1861
g12
VVP
p1862
sbatp1863
Rp1864
(dp1865
g12
VS
p1866
sbatp1867
Rp1868
(dp1869
g12
VSBAR
p1870
sbatp1871
Rp1872
(dp1873
g12
VVP
p1874
sbatp1875
Rp1876
(dp1877
g12
VS
p1878
sbatp1879
Rp1880
(dp1881
g12
VVP
p1882
sbatp1883
Rp1884
(dp1885
g12
VS
p1886
sbatp1887
Rp1888
(dp1889
g12
VSBAR
p1890
sbatp1891
Rp1892
(dp1893
g12
VNP
p1894
sbatp1895
Rp1896
(dp1897
g12
VVP
p1898
sbatp1899
Rp1900
(dp1901
g12
VVP
p1902
sbatp1903
Rp1904
(dp1905
g12
VS
p1906
sbatp1907
Rp1908
(dp1909
g12
S'id: 8'
p1910
sbatp1911
Rp1912
(dp1913
g12
S'sentences'
p1914
sb.