ccopy_reg
_reconstructor
p0
(cnltk.tree
Tree
p1
c__builtin__
list
p2
(lp3
g0
(g1
g2
(lp4
g0
(g1
g2
(lp5
g0
(g1
g2
(lp6
VThis
p7
atp8
Rp9
(dp10
S'_label'
p11
S'start: 1'
p12
sbatp13
Rp14
(dp15
g11
S'sent: 1'
p16
sbag0
(g1
g2
(lp17
g0
(g1
g2
(lp18
Vit
p19
atp20
Rp21
(dp22
g11
S'start: 6'
p23
sbatp24
Rp25
(dp26
g11
S'sent: 2'
p27
sbag0
(g1
g2
(lp28
g0
(g1
g2
(lp29
Vit
p30
atp31
Rp32
(dp33
g11
S'start: 16'
p34
sbatp35
Rp36
(dp37
g11
S'sent: 2'
p38
sbatp39
Rp40
(dp41
g11
S'id: 1'
p42
sbag0
(g1
g2
(lp43
g0
(g1
g2
(lp44
g0
(g1
g2
(lp45
Vthe family
p46
atp47
Rp48
(dp49
g11
S'start: 8'
p50
sbatp51
Rp52
(dp53
g11
S'sent: 1'
p54
sbag0
(g1
g2
(lp55
g0
(g1
g2
(lp56
Vthe family
p57
atp58
Rp59
(dp60
g11
S'start: 2'
p61
sbatp62
Rp63
(dp64
g11
S'sent: 5'
p65
sbag0
(g1
g2
(lp66
g0
(g1
g2
(lp67
Vshe
p68
atp69
Rp70
(dp71
g11
S'start: 9'
p72
sbatp73
Rp74
(dp75
g11
S'sent: 5'
p76
sbag0
(g1
g2
(lp77
g0
(g1
g2
(lp78
Vherself
p79
atp80
Rp81
(dp82
g11
S'start: 32'
p83
sbatp84
Rp85
(dp86
g11
S'sent: 6'
p87
sbatp88
Rp89
(dp90
g11
S'id: 3'
p91
sbag0
(g1
g2
(lp92
g0
(g1
g2
(lp93
g0
(g1
g2
(lp94
Vthe house
p95
atp96
Rp97
(dp98
g11
S'start: 31'
p99
sbatp100
Rp101
(dp102
g11
S'sent: 2'
p103
sbag0
(g1
g2
(lp104
g0
(g1
g2
(lp105
Vit
p106
atp107
Rp108
(dp109
g11
S'start: 39'
p110
sbatp111
Rp112
(dp113
g11
S'sent: 2'
p114
sbatp115
Rp116
(dp117
g11
S'id: 13'
p118
sbag0
(g1
g2
(lp119
g0
(g1
g2
(lp120
g0
(g1
g2
(lp121
Vsome reason
p122
atp123
Rp124
(dp125
g11
S'start: 3'
p126
sbatp127
Rp128
(dp129
g11
S'sent: 3'
p130
sbag0
(g1
g2
(lp131
g0
(g1
g2
(lp132
Vit
p133
atp134
Rp135
(dp136
g11
S'start: 17'
p137
sbatp138
Rp139
(dp140
g11
S'sent: 3'
p141
sbatp142
Rp143
(dp144
g11
S'id: 20'
p145
sbag0
(g1
g2
(lp146
g0
(g1
g2
(lp147
g0
(g1
g2
(lp148
Va flag
p149
atp150
Rp151
(dp152
g11
S'start: 7'
p153
sbatp154
Rp155
(dp156
g11
S'sent: 3'
p157
sbag0
(g1
g2
(lp158
g0
(g1
g2
(lp159
Vthe flag
p160
atp161
Rp162
(dp163
g11
S'start: 20'
p164
sbatp165
Rp166
(dp167
g11
S'sent: 7'
p168
sbatp169
Rp170
(dp171
g11
S'id: 21'
p172
sbag0
(g1
g2
(lp173
g0
(g1
g2
(lp174
g0
(g1
g2
(lp175
Vthe person who maintains the area
p176
atp177
Rp178
(dp179
g11
S'start: 7'
p180
sbatp181
Rp182
(dp183
g11
S'sent: 4'
p184
sbag0
(g1
g2
(lp185
g0
(g1
g2
(lp186
Vhis
p187
atp188
Rp189
(dp190
g11
S'start: 17'
p191
sbatp192
Rp193
(dp194
g11
S'sent: 6'
p195
sbatp196
Rp197
(dp198
g11
S'id: 27'
p199
sbag0
(g1
g2
(lp200
g0
(g1
g2
(lp201
g0
(g1
g2
(lp202
Vpeople visiting
p203
atp204
Rp205
(dp206
g11
S'start: 16'
p207
sbatp208
Rp209
(dp210
g11
S'sent: 4'
p211
sbag0
(g1
g2
(lp212
g0
(g1
g2
(lp213
Vthey
p214
atp215
Rp216
(dp217
g11
S'start: 2'
p218
sbatp219
Rp220
(dp221
g11
S'sent: 6'
p222
sbag0
(g1
g2
(lp223
g0
(g1
g2
(lp224
Vtheir
p225
atp226
Rp227
(dp228
g11
S'start: 4'
p229
sbatp230
Rp231
(dp232
g11
S'sent: 6'
p233
sbag0
(g1
g2
(lp234
g0
(g1
g2
(lp235
Vtheir
p236
atp237
Rp238
(dp239
g11
S'start: 9'
p240
sbatp241
Rp242
(dp243
g11
S'sent: 6'
p244
sbatp245
Rp246
(dp247
g11
S'id: 29'
p248
sbag0
(g1
g2
(lp249
g0
(g1
g2
(lp250
g0
(g1
g2
(lp251
Va drink
p252
atp253
Rp254
(dp255
g11
S'start: 12'
p256
sbatp257
Rp258
(dp259
g11
S'sent: 5'
p260
sbag0
(g1
g2
(lp261
g0
(g1
g2
(lp262
Vthat
p263
atp264
Rp265
(dp266
g11
S'start: 17'
p267
sbatp268
Rp269
(dp270
g11
S'sent: 5'
p271
sbag0
(g1
g2
(lp272
g0
(g1
g2
(lp273
Vevaon water rather than anything else
p274
atp275
Rp276
(dp277
g11
S'start: 19'
p278
sbatp279
Rp280
(dp281
g11
S'sent: 5'
p282
sbatp283
Rp284
(dp285
g11
S'id: 33'
p286
sbag0
(g1
g2
(lp287
g0
(g1
g2
(lp288
g0
(g1
g2
(lp289
Vtheir little portable radio
p290
atp291
Rp292
(dp293
g11
S'start: 4'
p294
sbatp295
Rp296
(dp297
g11
S'sent: 6'
p298
sbag0
(g1
g2
(lp299
g0
(g1
g2
(lp300
Vit
p301
atp302
Rp303
(dp304
g11
S'start: 13'
p305
sbatp306
Rp307
(dp308
g11
S'sent: 7'
p309
sbag0
(g1
g2
(lp310
g0
(g1
g2
(lp311
Va good day
p312
atp313
Rp314
(dp315
g11
S'start: 16'
p316
sbatp317
Rp318
(dp319
g11
S'sent: 7'
p320
sbatp321
Rp322
(dp323
g11
S'id: 37'
p324
sbag0
(g1
g2
(lp325
g0
(g1
g2
(lp326
g0
(g1
g2
(lp327
Vtheir sandals
p328
atp329
Rp330
(dp331
g11
S'start: 9'
p332
sbatp333
Rp334
(dp335
g11
S'sent: 6'
p336
sbag0
(g1
g2
(lp337
g0
(g1
g2
(lp338
Vhis sandals
p339
atp340
Rp341
(dp342
g11
S'start: 17'
p343
sbatp344
Rp345
(dp346
g11
S'sent: 6'
p347
sbatp348
Rp349
(dp350
g11
S'id: 39'
p351
sbag0
(g1
g2
(lp352
g0
(g1
g2
(lp353
g0
(g1
g2
(lp354
Vthe son
p355
atp356
Rp357
(dp358
g11
S'start: 2'
p359
sbatp360
Rp361
(dp362
g11
S'sent: 7'
p363
sbag0
(g1
g2
(lp364
g0
(g1
g2
(lp365
Vhis
p366
atp367
Rp368
(dp369
g11
S'start: 6'
p370
sbatp371
Rp372
(dp373
g11
S'sent: 7'
p374
sbag0
(g1
g2
(lp375
g0
(g1
g2
(lp376
Vhe
p377
atp378
Rp379
(dp380
g11
S'start: 9'
p381
sbatp382
Rp383
(dp384
g11
S'sent: 8'
p385
sbatp386
Rp387
(dp388
g11
S'id: 48'
p389
sbag0
(g1
g2
(lp390
g0
(g1
g2
(lp391
g0
(g1
g2
(lp392
Vhis kite
p393
atp394
Rp395
(dp396
g11
S'start: 6'
p397
sbatp398
Rp399
(dp400
g11
S'sent: 7'
p401
sbag0
(g1
g2
(lp402
g0
(g1
g2
(lp403
Vthe kite
p404
atp405
Rp406
(dp407
g11
S'start: 24'
p408
sbatp409
Rp410
(dp411
g11
S'sent: 7'
p412
sbatp413
Rp414
(dp415
g11
S'id: 49'
p416
sbag0
(g1
g2
(lp417
g0
(g1
g2
(lp418
g0
(g1
g2
(lp419
Vanother man who looks to be like he
p420
atp421
Rp422
(dp423
g11
S'start: 2'
p424
sbatp425
Rp426
(dp427
g11
S'sent: 8'
p428
sbag0
(g1
g2
(lp429
g0
(g1
g2
(lp430
Vthe ranger
p431
atp432
Rp433
(dp434
g11
S'start: 12'
p435
sbatp436
Rp437
(dp438
g11
S'sent: 8'
p439
sbag0
(g1
g2
(lp440
g0
(g1
g2
(lp441
Vhe
p442
atp443
Rp444
(dp445
g11
S'start: 20'
p446
sbatp447
Rp448
(dp449
g11
S'sent: 8'
p450
sbag0
(g1
g2
(lp451
g0
(g1
g2
(lp452
Va fisherman
p453
atp454
Rp455
(dp456
g11
S'start: 23'
p457
sbatp458
Rp459
(dp460
g11
S'sent: 8'
p461
sbag0
(g1
g2
(lp462
g0
(g1
g2
(lp463
Vhe
p464
atp465
Rp466
(dp467
g11
S'start: 26'
p468
sbatp469
Rp470
(dp471
g11
S'sent: 8'
p472
sbatp473
Rp474
(dp475
g11
S'id: 57'
p476
sbag0
(g1
g2
(lp477
g0
(g1
g2
(lp478
g0
(g1
g2
(lp479
Vthe little girl
p480
atp481
Rp482
(dp483
g11
S'start: 2'
p484
sbatp485
Rp486
(dp487
g11
S'sent: 9'
p488
sbag0
(g1
g2
(lp489
g0
(g1
g2
(lp490
Vshe
p491
atp492
Rp493
(dp494
g11
S'start: 12'
p495
sbatp496
Rp497
(dp498
g11
S'sent: 9'
p499
sbatp500
Rp501
(dp502
g11
S'id: 65'
p503
sbag0
(g1
g2
(lp504
g0
(g1
g2
(lp505
g0
(g1
g2
(lp506
Vthe boaters
p507
atp508
Rp509
(dp510
g11
S'start: 2'
p511
sbatp512
Rp513
(dp514
g11
S'sent: 10'
p515
sbag0
(g1
g2
(lp516
g0
(g1
g2
(lp517
Vthem
p518
atp519
Rp520
(dp521
g11
S'start: 16'
p522
sbatp523
Rp524
(dp525
g11
S'sent: 10'
p526
sbatp527
Rp528
(dp529
g11
S'id: 69'
p530
sbatp531
Rp532
(dp533
g11
S'coreferences'
p534
sb.