ccopy_reg
_reconstructor
p0
(cnltk.tree
Tree
p1
c__builtin__
list
p2
(lp3
g0
(g1
g2
(lp4
g0
(g1
g2
(lp5
g0
(g1
g2
(lp6
Vok
p7
atp8
Rp9
(dp10
S'_label'
p11
VNN
p12
sbag0
(g1
g2
(lp13
V.
p14
atp15
Rp16
(dp17
g11
V.
p18
sbatp19
Rp20
(dp21
g11
VNP
p22
sbatp23
Rp24
(dp25
g11
S'id: 0'
p26
sbag0
(g1
g2
(lp27
g0
(g1
g2
(lp28
g0
(g1
g2
(lp29
g0
(g1
g2
(lp30
Vin
p31
atp32
Rp33
(dp34
g11
VIN
p35
sbag0
(g1
g2
(lp36
g0
(g1
g2
(lp37
g0
(g1
g2
(lp38
g0
(g1
g2
(lp39
Vthe
p40
atp41
Rp42
(dp43
g11
VDT
p44
sbag0
(g1
g2
(lp45
Vkitchen
p46
atp47
Rp48
(dp49
g11
VNN
p50
sbatp51
Rp52
(dp53
g11
VNP
p54
sbag0
(g1
g2
(lp55
V,
p56
atp57
Rp58
(dp59
g11
V,
p60
sbag0
(g1
g2
(lp61
g0
(g1
g2
(lp62
g0
(g1
g2
(lp63
Vmother
p64
atp65
Rp66
(dp67
g11
VNN
p68
sbatp69
Rp70
(dp71
g11
VNP
p72
sbag0
(g1
g2
(lp73
V's
p74
atp75
Rp76
(dp77
g11
VPOS
p78
sbatp79
Rp80
(dp81
g11
VNP
p82
sbatp83
Rp84
(dp85
g11
VNP
p86
sbag0
(g1
g2
(lp87
g0
(g1
g2
(lp88
Vwashing
p89
atp90
Rp91
(dp92
g11
VVBG
p93
sbag0
(g1
g2
(lp94
g0
(g1
g2
(lp95
g0
(g1
g2
(lp96
Vthe
p97
atp98
Rp99
(dp100
g11
VDT
p101
sbatp102
Rp103
(dp104
g11
VNP
p105
sbag0
(g1
g2
(lp106
V,
p107
atp108
Rp109
(dp110
g11
V,
p111
sbag0
(g1
g2
(lp112
g0
(g1
g2
(lp113
Vwashing
p114
atp115
Rp116
(dp117
g11
VVBG
p118
sbag0
(g1
g2
(lp119
g0
(g1
g2
(lp120
Vthe
p121
atp122
Rp123
(dp124
g11
VDT
p125
sbag0
(g1
g2
(lp126
Vdishes
p127
atp128
Rp129
(dp130
g11
VNNS
p131
sbatp132
Rp133
(dp134
g11
VNP
p135
sbatp136
Rp137
(dp138
g11
VVP
p139
sbag0
(g1
g2
(lp140
V,
p141
atp142
Rp143
(dp144
g11
V,
p145
sbag0
(g1
g2
(lp146
g0
(g1
g2
(lp147
Vof
p148
atp149
Rp150
(dp151
g11
VIN
p152
sbag0
(g1
g2
(lp153
g0
(g1
g2
(lp154
Vcourse
p155
atp156
Rp157
(dp158
g11
VNN
p159
sbatp160
Rp161
(dp162
g11
VNP
p163
sbatp164
Rp165
(dp166
g11
VPP
p167
sbatp168
Rp169
(dp170
g11
VNP
p171
sbatp172
Rp173
(dp174
g11
VVP
p175
sbatp176
Rp177
(dp178
g11
VS
p179
sbatp180
Rp181
(dp182
g11
VPP
p183
sbag0
(g1
g2
(lp184
g0
(g1
g2
(lp185
Vthe
p186
atp187
Rp188
(dp189
g11
VDT
p190
sbag0
(g1
g2
(lp191
Vsink
p192
atp193
Rp194
(dp195
g11
VNN
p196
sbatp197
Rp198
(dp199
g11
VNP
p200
sbag0
(g1
g2
(lp201
g0
(g1
g2
(lp202
Vis
p203
atp204
Rp205
(dp206
g11
VVBZ
p207
sbag0
(g1
g2
(lp208
g0
(g1
g2
(lp209
Vover
p210
atp211
Rp212
(dp213
g11
VIN
p214
sbag0
(g1
g2
(lp215
g0
(g1
g2
(lp216
Vflowing
p217
atp218
Rp219
(dp220
g11
VVBG
p221
sbatp222
Rp223
(dp224
g11
VNP
p225
sbatp226
Rp227
(dp228
g11
VPP
p229
sbatp230
Rp231
(dp232
g11
VVP
p233
sbag0
(g1
g2
(lp234
V.
p235
atp236
Rp237
(dp238
g11
V.
p239
sbatp240
Rp241
(dp242
g11
VS
p243
sbatp244
Rp245
(dp246
g11
S'id: 1'
p247
sbag0
(g1
g2
(lp248
g0
(g1
g2
(lp249
g0
(g1
g2
(lp250
g0
(g1
g2
(lp251
Vkids
p252
atp253
Rp254
(dp255
g11
VNNS
p256
sbatp257
Rp258
(dp259
g11
VNP
p260
sbag0
(g1
g2
(lp261
g0
(g1
g2
(lp262
Vare
p263
atp264
Rp265
(dp266
g11
VVBP
p267
sbag0
(g1
g2
(lp268
g0
(g1
g2
(lp269
Vgetting
p270
atp271
Rp272
(dp273
g11
VVBG
p274
sbag0
(g1
g2
(lp275
g0
(g1
g2
(lp276
g0
(g1
g2
(lp277
Vrave
p278
atp279
Rp280
(dp281
g11
VVB
p282
sbatp283
Rp284
(dp285
g11
VVP
p286
sbatp287
Rp288
(dp289
g11
VS
p290
sbag0
(g1
g2
(lp291
V,
p292
atp293
Rp294
(dp295
g11
V,
p296
sbag0
(g1
g2
(lp297
g0
(g1
g2
(lp298
g0
(g1
g2
(lp299
Vraving
p300
atp301
Rp302
(dp303
g11
VVBG
p304
sbag0
(g1
g2
(lp305
g0
(g1
g2
(lp306
Vthe
p307
atp308
Rp309
(dp310
g11
VDT
p311
sbag0
(g1
g2
(lp312
Vcookie
p313
atp314
Rp315
(dp316
g11
VNN
p317
sbag0
(g1
g2
(lp318
Vjar
p319
atp320
Rp321
(dp322
g11
VNN
p323
sbatp324
Rp325
(dp326
g11
VNP
p327
sbag0
(g1
g2
(lp328
g0
(g1
g2
(lp329
Vin
p330
atp331
Rp332
(dp333
g11
VIN
p334
sbag0
(g1
g2
(lp335
g0
(g1
g2
(lp336
Vthe
p337
atp338
Rp339
(dp340
g11
VDT
p341
sbag0
(g1
g2
(lp342
Vtop
p343
atp344
Rp345
(dp346
g11
VJJ
p347
sbag0
(g1
g2
(lp348
Vcabinet
p349
atp350
Rp351
(dp352
g11
VNN
p353
sbatp354
Rp355
(dp356
g11
VNP
p357
sbatp358
Rp359
(dp360
g11
VPP
p361
sbatp362
Rp363
(dp364
g11
VVP
p365
sbatp366
Rp367
(dp368
g11
VS
p369
sbatp370
Rp371
(dp372
g11
VVP
p373
sbatp374
Rp375
(dp376
g11
VVP
p377
sbag0
(g1
g2
(lp378
V.
p379
atp380
Rp381
(dp382
g11
V.
p383
sbatp384
Rp385
(dp386
g11
VS
p387
sbatp388
Rp389
(dp390
g11
S'id: 2'
p391
sbag0
(g1
g2
(lp392
g0
(g1
g2
(lp393
g0
(g1
g2
(lp394
g0
(g1
g2
(lp395
g0
(g1
g2
(lp396
Vher
p397
atp398
Rp399
(dp400
g11
VPRP$
p401
sbag0
(g1
g2
(lp402
Vson
p403
atp404
Rp405
(dp406
g11
VNN
p407
sbag0
(g1
g2
(lp408
V's
p409
atp410
Rp411
(dp412
g11
VPOS
p413
sbatp414
Rp415
(dp416
g11
VNP
p417
sbag0
(g1
g2
(lp418
g0
(g1
g2
(lp419
Vabout
p420
atp421
Rp422
(dp423
g11
VIN
p424
sbatp425
Rp426
(dp427
g11
VPP
p428
sbatp429
Rp430
(dp431
g11
VNP
p432
sbag0
(g1
g2
(lp433
g0
(g1
g2
(lp434
g0
(g1
g2
(lp435
g0
(g1
g2
(lp436
Vto
p437
atp438
Rp439
(dp440
g11
VTO
p441
sbag0
(g1
g2
(lp442
g0
(g1
g2
(lp443
Vfall
p444
atp445
Rp446
(dp447
g11
VVB
p448
sbag0
(g1
g2
(lp449
g0
(g1
g2
(lp450
Vover
p451
atp452
Rp453
(dp454
g11
VIN
p455
sbag0
(g1
g2
(lp456
g0
(g1
g2
(lp457
Vthe
p458
atp459
Rp460
(dp461
g11
VDT
p462
sbag0
(g1
g2
(lp463
Vstool
p464
atp465
Rp466
(dp467
g11
VNN
p468
sbatp469
Rp470
(dp471
g11
VNP
p472
sbatp473
Rp474
(dp475
g11
VPP
p476
sbatp477
Rp478
(dp479
g11
VVP
p480
sbatp481
Rp482
(dp483
g11
VVP
p484
sbatp485
Rp486
(dp487
g11
VS
p488
sbatp489
Rp490
(dp491
g11
VSBAR
p492
sbag0
(g1
g2
(lp493
V.
p494
atp495
Rp496
(dp497
g11
V.
p498
sbatp499
Rp500
(dp501
g11
VNP
p502
sbatp503
Rp504
(dp505
g11
S'id: 3'
p506
sbag0
(g1
g2
(lp507
g0
(g1
g2
(lp508
g0
(g1
g2
(lp509
g0
(g1
g2
(lp510
Vthat
p511
atp512
Rp513
(dp514
g11
VDT
p515
sbatp516
Rp517
(dp518
g11
VNP
p519
sbag0
(g1
g2
(lp520
g0
(g1
g2
(lp521
V's
p522
atp523
Rp524
(dp525
g11
VVBZ
p526
sbag0
(g1
g2
(lp527
g0
(g1
g2
(lp528
Vabout
p529
atp530
Rp531
(dp532
g11
VIN
p533
sbag0
(g1
g2
(lp534
g0
(g1
g2
(lp535
g0
(g1
g2
(lp536
Vit
p537
atp538
Rp539
(dp540
g11
VPRP
p541
sbatp542
Rp543
(dp544
g11
VNP
p545
sbag0
(g1
g2
(lp546
g0
(g1
g2
(lp547
Vfor
p548
atp549
Rp550
(dp551
g11
VIN
p552
sbag0
(g1
g2
(lp553
g0
(g1
g2
(lp554
Vthat
p555
atp556
Rp557
(dp558
g11
VDT
p559
sbag0
(g1
g2
(lp560
Vone
p561
atp562
Rp563
(dp564
g11
VCD
p565
sbatp566
Rp567
(dp568
g11
VNP
p569
sbatp570
Rp571
(dp572
g11
VPP
p573
sbatp574
Rp575
(dp576
g11
VNP
p577
sbatp578
Rp579
(dp580
g11
VPP
p581
sbatp582
Rp583
(dp584
g11
VVP
p585
sbag0
(g1
g2
(lp586
V.
p587
atp588
Rp589
(dp590
g11
V.
p591
sbatp592
Rp593
(dp594
g11
VS
p595
sbatp596
Rp597
(dp598
g11
S'id: 4'
p599
sbag0
(g1
g2
(lp600
g0
(g1
g2
(lp601
g0
(g1
g2
(lp602
g0
(g1
g2
(lp603
Vthere
p604
atp605
Rp606
(dp607
g11
VEX
p608
sbatp609
Rp610
(dp611
g11
VNP
p612
sbag0
(g1
g2
(lp613
g0
(g1
g2
(lp614
V's
p615
atp616
Rp617
(dp618
g11
VVBZ
p619
sbag0
(g1
g2
(lp620
g0
(g1
g2
(lp621
g0
(g1
g2
(lp622
Vtwo
p623
atp624
Rp625
(dp626
g11
VCD
p627
sbag0
(g1
g2
(lp628
Vcups
p629
atp630
Rp631
(dp632
g11
VNNS
p633
sbatp634
Rp635
(dp636
g11
VNP
p637
sbag0
(g1
g2
(lp638
V,
p639
atp640
Rp641
(dp642
g11
V,
p643
sbag0
(g1
g2
(lp644
g0
(g1
g2
(lp645
g0
(g1
g2
(lp646
Va
p647
atp648
Rp649
(dp650
g11
VDT
p651
sbag0
(g1
g2
(lp652
Vplate
p653
atp654
Rp655
(dp656
g11
VNN
p657
sbatp658
Rp659
(dp660
g11
VNP
p661
sbag0
(g1
g2
(lp662
g0
(g1
g2
(lp663
Von
p664
atp665
Rp666
(dp667
g11
VIN
p668
sbag0
(g1
g2
(lp669
g0
(g1
g2
(lp670
g0
(g1
g2
(lp671
Vthe
p672
atp673
Rp674
(dp675
g11
VDT
p676
sbag0
(g1
g2
(lp677
Vcounter
p678
atp679
Rp680
(dp681
g11
VNN
p682
sbatp683
Rp684
(dp685
g11
VNP
p686
sbag0
(g1
g2
(lp687
V,
p688
atp689
Rp690
(dp691
g11
V,
p692
sbag0
(g1
g2
(lp693
g0
(g1
g2
(lp694
Vthe
p695
atp696
Rp697
(dp698
g11
VDT
p699
sbag0
(g1
g2
(lp700
Vcounter
p701
atp702
Rp703
(dp704
g11
VNN
p705
sbatp706
Rp707
(dp708
g11
VNP
p709
sbatp710
Rp711
(dp712
g11
VNP
p713
sbatp714
Rp715
(dp716
g11
VPP
p717
sbatp718
Rp719
(dp720
g11
VNP
p721
sbatp722
Rp723
(dp724
g11
VNP
p725
sbatp726
Rp727
(dp728
g11
VVP
p729
sbag0
(g1
g2
(lp730
V.
p731
atp732
Rp733
(dp734
g11
V.
p735
sbatp736
Rp737
(dp738
g11
VS
p739
sbatp740
Rp741
(dp742
g11
S'id: 5'
p743
sbag0
(g1
g2
(lp744
g0
(g1
g2
(lp745
g0
(g1
g2
(lp746
g0
(g1
g2
(lp747
VI
p748
atp749
Rp750
(dp751
g11
VPRP
p752
sbatp753
Rp754
(dp755
g11
VNP
p756
sbag0
(g1
g2
(lp757
g0
(g1
g2
(lp758
Vsee
p759
atp760
Rp761
(dp762
g11
VVBP
p763
sbag0
(g1
g2
(lp764
g0
(g1
g2
(lp765
g0
(g1
g2
(lp766
Vthe
p767
atp768
Rp769
(dp770
g11
VDT
p771
sbag0
(g1
g2
(lp772
Vflowers
p773
atp774
Rp775
(dp776
g11
VNNS
p777
sbatp778
Rp779
(dp780
g11
VNP
p781
sbag0
(g1
g2
(lp782
V,
p783
atp784
Rp785
(dp786
g11
V,
p787
sbag0
(g1
g2
(lp788
g0
(g1
g2
(lp789
Vthe
p790
atp791
Rp792
(dp793
g11
VDT
p794
sbag0
(g1
g2
(lp795
Vtrees
p796
atp797
Rp798
(dp799
g11
VNNS
p800
sbatp801
Rp802
(dp803
g11
VNP
p804
sbag0
(g1
g2
(lp805
V,
p806
atp807
Rp808
(dp809
g11
V,
p810
sbag0
(g1
g2
(lp811
Vand
p812
atp813
Rp814
(dp815
g11
VCC
p816
sbag0
(g1
g2
(lp817
g0
(g1
g2
(lp818
g0
(g1
g2
(lp819
Vthe
p820
atp821
Rp822
(dp823
g11
VDT
p824
sbag0
(g1
g2
(lp825
g0
(g1
g2
(lp826
g0
(g1
g2
(lp827
g0
(g1
g2
(lp828
Vbushes
p829
atp830
Rp831
(dp832
g11
VNNS
p833
sbatp834
Rp835
(dp836
g11
VNX
p837
sbag0
(g1
g2
(lp838
g0
(g1
g2
(lp839
V,
p840
atp841
Rp842
(dp843
g11
V,
p844
sbag0
(g1
g2
(lp845
g0
(g1
g2
(lp846
Vout
p847
atp848
Rp849
(dp850
g11
VIN
p851
sbatp852
Rp853
(dp854
g11
VADVP
p855
sbag0
(g1
g2
(lp856
g0
(g1
g2
(lp857
Vof
p858
atp859
Rp860
(dp861
g11
VIN
p862
sbag0
(g1
g2
(lp863
g0
(g1
g2
(lp864
Vthe
p865
atp866
Rp867
(dp868
g11
VDT
p869
sbatp870
Rp871
(dp872
g11
VNP
p873
sbatp874
Rp875
(dp876
g11
VPP
p877
sbatp878
Rp879
(dp880
g11
VPRN
p881
sbatp882
Rp883
(dp884
g11
VNX
p885
sbag0
(g1
g2
(lp886
V,
p887
atp888
Rp889
(dp890
g11
V,
p891
sbag0
(g1
g2
(lp892
g0
(g1
g2
(lp893
Vbushes
p894
atp895
Rp896
(dp897
g11
VNNS
p898
sbatp899
Rp900
(dp901
g11
VNX
p902
sbatp903
Rp904
(dp905
g11
VNX
p906
sbatp907
Rp908
(dp909
g11
VNP
p910
sbag0
(g1
g2
(lp911
g0
(g1
g2
(lp912
Voutside
p913
atp914
Rp915
(dp916
g11
VIN
p917
sbatp918
Rp919
(dp920
g11
VADVP
p921
sbatp922
Rp923
(dp924
g11
VNP
p925
sbatp926
Rp927
(dp928
g11
VNP
p929
sbatp930
Rp931
(dp932
g11
VVP
p933
sbag0
(g1
g2
(lp934
V.
p935
atp936
Rp937
(dp938
g11
V.
p939
sbatp940
Rp941
(dp942
g11
VS
p943
sbatp944
Rp945
(dp946
g11
S'id: 6'
p947
sbag0
(g1
g2
(lp948
g0
(g1
g2
(lp949
g0
(g1
g2
(lp950
g0
(g1
g2
(lp951
Vlooks
p952
atp953
Rp954
(dp955
g11
VNNS
p956
sbatp957
Rp958
(dp959
g11
VNP
p960
sbag0
(g1
g2
(lp961
g0
(g1
g2
(lp962
Vlike
p963
atp964
Rp965
(dp966
g11
VIN
p967
sbag0
(g1
g2
(lp968
g0
(g1
g2
(lp969
Vthe
p970
atp971
Rp972
(dp973
g11
VDT
p974
sbag0
(g1
g2
(lp975
Vgarage
p976
atp977
Rp978
(dp979
g11
VNN
p980
sbatp981
Rp982
(dp983
g11
VNP
p984
sbatp985
Rp986
(dp987
g11
VPP
p988
sbag0
(g1
g2
(lp989
g0
(g1
g2
(lp990
Vover
p991
atp992
Rp993
(dp994
g11
VIN
p995
sbag0
(g1
g2
(lp996
g0
(g1
g2
(lp997
g0
(g1
g2
(lp998
Vthere
p999
atp1000
Rp1001
(dp1002
g11
VEX
p1003
sbatp1004
Rp1005
(dp1006
g11
VNP
p1007
sbag0
(g1
g2
(lp1008
g0
(g1
g2
(lp1009
Vthe
p1010
atp1011
Rp1012
(dp1013
g11
VDT
p1014
sbag0
(g1
g2
(lp1015
Vsidewalk
p1016
atp1017
Rp1018
(dp1019
g11
VNN
p1020
sbatp1021
Rp1022
(dp1023
g11
VNP
p1024
sbatp1025
Rp1026
(dp1027
g11
VNP
p1028
sbatp1029
Rp1030
(dp1031
g11
VPP
p1032
sbag0
(g1
g2
(lp1033
V.
p1034
atp1035
Rp1036
(dp1037
g11
V.
p1038
sbatp1039
Rp1040
(dp1041
g11
VNP
p1042
sbatp1043
Rp1044
(dp1045
g11
S'id: 7'
p1046
sbag0
(g1
g2
(lp1047
g0
(g1
g2
(lp1048
g0
(g1
g2
(lp1049
g0
(g1
g2
(lp1050
Vmom
p1051
atp1052
Rp1053
(dp1054
g11
VNN
p1055
sbag0
(g1
g2
(lp1056
g0
(g1
g2
(lp1057
g0
(g1
g2
(lp1058
V's
p1059
atp1060
Rp1061
(dp1062
g11
VPOS
p1063
sbatp1064
Rp1065
(dp1066
g11
VNP
p1067
sbag0
(g1
g2
(lp1068
g0
(g1
g2
(lp1069
Vwearing
p1070
atp1071
Rp1072
(dp1073
g11
VVBG
p1074
sbag0
(g1
g2
(lp1075
g0
(g1
g2
(lp1076
Va
p1077
atp1078
Rp1079
(dp1080
g11
VDT
p1081
sbag0
(g1
g2
(lp1082
Vdress
p1083
atp1084
Rp1085
(dp1086
g11
VNN
p1087
sbatp1088
Rp1089
(dp1090
g11
VNP
p1091
sbatp1092
Rp1093
(dp1094
g11
VVP
p1095
sbatp1096
Rp1097
(dp1098
g11
VS
p1099
sbatp1100
Rp1101
(dp1102
g11
VVP
p1103
sbag0
(g1
g2
(lp1104
V.
p1105
atp1106
Rp1107
(dp1108
g11
V.
p1109
sbatp1110
Rp1111
(dp1112
g11
VS
p1113
sbatp1114
Rp1115
(dp1116
g11
S'id: 8'
p1117
sbag0
(g1
g2
(lp1118
g0
(g1
g2
(lp1119
g0
(g1
g2
(lp1120
g0
(g1
g2
(lp1121
Vwhat
p1122
atp1123
Rp1124
(dp1125
g11
VWDT
p1126
sbatp1127
Rp1128
(dp1129
g11
VWHNP
p1130
sbag0
(g1
g2
(lp1131
g0
(g1
g2
(lp1132
Vam
p1133
atp1134
Rp1135
(dp1136
g11
VVBP
p1137
sbag0
(g1
g2
(lp1138
g0
(g1
g2
(lp1139
VI
p1140
atp1141
Rp1142
(dp1143
g11
VPRP
p1144
sbatp1145
Rp1146
(dp1147
g11
VNP
p1148
sbag0
(g1
g2
(lp1149
g0
(g1
g2
(lp1150
Vmissing
p1151
atp1152
Rp1153
(dp1154
g11
VVBG
p1155
sbag0
(g1
g2
(lp1156
g0
(g1
g2
(lp1157
Vhere
p1158
atp1159
Rp1160
(dp1161
g11
VRB
p1162
sbatp1163
Rp1164
(dp1165
g11
VADVP
p1166
sbatp1167
Rp1168
(dp1169
g11
VVP
p1170
sbatp1171
Rp1172
(dp1173
g11
VSQ
p1174
sbatp1175
Rp1176
(dp1177
g11
VSBARQ
p1178
sbatp1179
Rp1180
(dp1181
g11
S'id: 9'
p1182
sbatp1183
Rp1184
(dp1185
g11
S'sentences'
p1186
sb.