ccopy_reg
_reconstructor
p0
(cnltk.tree
Tree
p1
c__builtin__
list
p2
(lp3
g0
(g1
g2
(lp4
g0
(g1
g2
(lp5
g0
(g1
g2
(lp6
Va little girl
p7
atp8
Rp9
(dp10
S'_label'
p11
S'start: 3'
p12
sbatp13
Rp14
(dp15
g11
S'sent: 2'
p16
sbag0
(g1
g2
(lp17
g0
(g1
g2
(lp18
Vshe
p19
atp20
Rp21
(dp22
g11
S'start: 8'
p23
sbatp24
Rp25
(dp26
g11
S'sent: 2'
p27
sbatp28
Rp29
(dp30
g11
S'id: 3'
p31
sbag0
(g1
g2
(lp32
g0
(g1
g2
(lp33
g0
(g1
g2
(lp34
Vthis in the sand
p35
atp36
Rp37
(dp38
g11
S'start: 11'
p39
sbatp40
Rp41
(dp42
g11
S'sent: 2'
p43
sbag0
(g1
g2
(lp44
g0
(g1
g2
(lp45
Vthat
p46
atp47
Rp48
(dp49
g11
S'start: 2'
p50
sbatp51
Rp52
(dp53
g11
S'sent: 3'
p54
sbag0
(g1
g2
(lp55
g0
(g1
g2
(lp56
Vthat
p57
atp58
Rp59
(dp60
g11
S'start: 2'
p61
sbatp62
Rp63
(dp64
g11
S'sent: 4'
p65
sbag0
(g1
g2
(lp66
g0
(g1
g2
(lp67
Vthat
p68
atp69
Rp70
(dp71
g11
S'start: 2'
p72
sbatp73
Rp74
(dp75
g11
S'sent: 5'
p76
sbag0
(g1
g2
(lp77
g0
(g1
g2
(lp78
Va , that 's a , that 's a , little man there
p79
atp80
Rp81
(dp82
g11
S'start: 4'
p83
sbatp84
Rp85
(dp86
g11
S'sent: 5'
p87
sbag0
(g1
g2
(lp88
g0
(g1
g2
(lp89
Va
p90
atp91
Rp92
(dp93
g11
S'start: 4'
p94
sbatp95
Rp96
(dp97
g11
S'sent: 5'
p98
sbag0
(g1
g2
(lp99
g0
(g1
g2
(lp100
Va
p101
atp102
Rp103
(dp104
g11
S'start: 8'
p105
sbatp106
Rp107
(dp108
g11
S'sent: 5'
p109
sbag0
(g1
g2
(lp110
g0
(g1
g2
(lp111
Va
p112
atp113
Rp114
(dp115
g11
S'start: 12'
p116
sbatp117
Rp118
(dp119
g11
S'sent: 5'
p120
sbag0
(g1
g2
(lp121
g0
(g1
g2
(lp122
Vthat
p123
atp124
Rp125
(dp126
g11
S'start: 2'
p127
sbatp128
Rp129
(dp130
g11
S'sent: 7'
p131
sbag0
(g1
g2
(lp132
g0
(g1
g2
(lp133
Vthat
p134
atp135
Rp136
(dp137
g11
S'start: 2'
p138
sbatp139
Rp140
(dp141
g11
S'sent: 8'
p142
sbag0
(g1
g2
(lp143
g0
(g1
g2
(lp144
Vhis dog
p145
atp146
Rp147
(dp148
g11
S'start: 4'
p149
sbatp150
Rp151
(dp152
g11
S'sent: 8'
p153
sbag0
(g1
g2
(lp154
g0
(g1
g2
(lp155
Vthat
p156
atp157
Rp158
(dp159
g11
S'start: 2'
p160
sbatp161
Rp162
(dp163
g11
S'sent: 9'
p164
sbag0
(g1
g2
(lp165
g0
(g1
g2
(lp166
Vthat
p167
atp168
Rp169
(dp170
g11
S'start: 7'
p171
sbatp172
Rp173
(dp174
g11
S'sent: 9'
p175
sbatp176
Rp177
(dp178
g11
S'id: 5'
p179
sbag0
(g1
g2
(lp180
g0
(g1
g2
(lp181
g0
(g1
g2
(lp182
Va , that 's a , little man there
p183
atp184
Rp185
(dp186
g11
S'start: 8'
p187
sbatp188
Rp189
(dp190
g11
S'sent: 5'
p191
sbag0
(g1
g2
(lp192
g0
(g1
g2
(lp193
Vhe
p194
atp195
Rp196
(dp197
g11
S'start: 1'
p198
sbatp199
Rp200
(dp201
g11
S'sent: 6'
p202
sbag0
(g1
g2
(lp203
g0
(g1
g2
(lp204
Va bigger man
p205
atp206
Rp207
(dp208
g11
S'start: 4'
p209
sbatp210
Rp211
(dp212
g11
S'sent: 6'
p213
sbag0
(g1
g2
(lp214
g0
(g1
g2
(lp215
Vhis
p216
atp217
Rp218
(dp219
g11
S'start: 4'
p220
sbatp221
Rp222
(dp223
g11
S'sent: 8'
p224
sbag0
(g1
g2
(lp225
g0
(g1
g2
(lp226
Vhis
p227
atp228
Rp229
(dp230
g11
S'start: 4'
p231
sbatp232
Rp233
(dp234
g11
S'sent: 9'
p235
sbag0
(g1
g2
(lp236
g0
(g1
g2
(lp237
Vhis
p238
atp239
Rp240
(dp241
g11
S'start: 9'
p242
sbatp243
Rp244
(dp245
g11
S'sent: 9'
p246
sbag0
(g1
g2
(lp247
g0
(g1
g2
(lp248
Vthe man
p249
atp250
Rp251
(dp252
g11
S'start: 6'
p253
sbatp254
Rp255
(dp256
g11
S'sent: 10'
p257
sbag0
(g1
g2
(lp258
g0
(g1
g2
(lp259
Vhis
p260
atp261
Rp262
(dp263
g11
S'start: 4'
p264
sbatp265
Rp266
(dp267
g11
S'sent: 11'
p268
sbatp269
Rp270
(dp271
g11
S'id: 12'
p272
sbag0
(g1
g2
(lp273
g0
(g1
g2
(lp274
g0
(g1
g2
(lp275
Vshoes
p276
atp277
Rp278
(dp279
g11
S'start: 3'
p280
sbatp281
Rp282
(dp283
g11
S'sent: 10'
p284
sbag0
(g1
g2
(lp285
g0
(g1
g2
(lp286
Vthat
p287
atp288
Rp289
(dp290
g11
S'start: 2'
p291
sbatp292
Rp293
(dp294
g11
S'sent: 11'
p295
sbag0
(g1
g2
(lp296
g0
(g1
g2
(lp297
Vthat
p298
atp299
Rp300
(dp301
g11
S'start: 2'
p302
sbatp303
Rp304
(dp305
g11
S'sent: 12'
p306
sbag0
(g1
g2
(lp307
g0
(g1
g2
(lp308
Vthat
p309
atp310
Rp311
(dp312
g11
S'start: 2'
p313
sbatp314
Rp315
(dp316
g11
S'sent: 13'
p317
sbag0
(g1
g2
(lp318
g0
(g1
g2
(lp319
Vthat
p320
atp321
Rp322
(dp323
g11
S'start: 2'
p324
sbatp325
Rp326
(dp327
g11
S'sent: 14'
p328
sbatp329
Rp330
(dp331
g11
S'id: 29'
p332
sbag0
(g1
g2
(lp333
g0
(g1
g2
(lp334
g0
(g1
g2
(lp335
Vhis woman
p336
atp337
Rp338
(dp339
g11
S'start: 4'
p340
sbatp341
Rp342
(dp343
g11
S'sent: 11'
p344
sbag0
(g1
g2
(lp345
g0
(g1
g2
(lp346
Vshe
p347
atp348
Rp349
(dp350
g11
S'start: 8'
p351
sbatp352
Rp353
(dp354
g11
S'sent: 11'
p355
sbag0
(g1
g2
(lp356
g0
(g1
g2
(lp357
Vher
p358
atp359
Rp360
(dp361
g11
S'start: 11'
p362
sbatp363
Rp364
(dp365
g11
S'sent: 11'
p366
sbag0
(g1
g2
(lp367
g0
(g1
g2
(lp368
Vshe
p369
atp370
Rp371
(dp372
g11
S'start: 16'
p373
sbatp374
Rp375
(dp376
g11
S'sent: 11'
p377
sbatp378
Rp379
(dp380
g11
S'id: 32'
p381
sbag0
(g1
g2
(lp382
g0
(g1
g2
(lp383
g0
(g1
g2
(lp384
Vher kids
p385
atp386
Rp387
(dp388
g11
S'start: 11'
p389
sbatp390
Rp391
(dp392
g11
S'sent: 11'
p393
sbag0
(g1
g2
(lp394
g0
(g1
g2
(lp395
Vthem
p396
atp397
Rp398
(dp399
g11
S'start: 12'
p400
sbatp401
Rp402
(dp403
g11
S'sent: 14'
p404
sbatp405
Rp406
(dp407
g11
S'id: 35'
p408
sbag0
(g1
g2
(lp409
g0
(g1
g2
(lp410
g0
(g1
g2
(lp411
Vsomething to drink
p412
atp413
Rp414
(dp415
g11
S'start: 13'
p416
sbatp417
Rp418
(dp419
g11
S'sent: 14'
p420
sbag0
(g1
g2
(lp421
g0
(g1
g2
(lp422
Vthat
p423
atp424
Rp425
(dp426
g11
S'start: 2'
p427
sbatp428
Rp429
(dp430
g11
S'sent: 15'
p431
sbag0
(g1
g2
(lp432
g0
(g1
g2
(lp433
Va p-o-o-k , book , a book
p434
atp435
Rp436
(dp437
g11
S'start: 4'
p438
sbatp439
Rp440
(dp441
g11
S'sent: 15'
p442
sbag0
(g1
g2
(lp443
g0
(g1
g2
(lp444
Va p-o-o-k
p445
atp446
Rp447
(dp448
g11
S'start: 4'
p449
sbatp450
Rp451
(dp452
g11
S'sent: 15'
p453
sbag0
(g1
g2
(lp454
g0
(g1
g2
(lp455
Vbook , a book
p456
atp457
Rp458
(dp459
g11
S'start: 7'
p460
sbatp461
Rp462
(dp463
g11
S'sent: 15'
p464
sbag0
(g1
g2
(lp465
g0
(g1
g2
(lp466
Va book
p467
atp468
Rp469
(dp470
g11
S'start: 9'
p471
sbatp472
Rp473
(dp474
g11
S'sent: 15'
p475
sbatp476
Rp477
(dp478
g11
S'id: 45'
p479
sbag0
(g1
g2
(lp480
g0
(g1
g2
(lp481
g0
(g1
g2
(lp482
Va man in the fish
p483
atp484
Rp485
(dp486
g11
S'start: 4'
p487
sbatp488
Rp489
(dp490
g11
S'sent: 17'
p491
sbag0
(g1
g2
(lp492
g0
(g1
g2
(lp493
Vthis man
p494
atp495
Rp496
(dp497
g11
S'start: 13'
p498
sbatp499
Rp500
(dp501
g11
S'sent: 22'
p502
sbag0
(g1
g2
(lp503
g0
(g1
g2
(lp504
Vhis
p505
atp506
Rp507
(dp508
g11
S'start: 4'
p509
sbatp510
Rp511
(dp512
g11
S'sent: 24'
p513
sbatp514
Rp515
(dp516
g11
S'id: 53'
p517
sbag0
(g1
g2
(lp518
g0
(g1
g2
(lp519
g0
(g1
g2
(lp520
Va boat in the
p521
atp522
Rp523
(dp524
g11
S'start: 4'
p525
sbatp526
Rp527
(dp528
g11
S'sent: 18'
p529
sbag0
(g1
g2
(lp530
g0
(g1
g2
(lp531
Vit
p532
atp533
Rp534
(dp535
g11
S'start: 9'
p536
sbatp537
Rp538
(dp539
g11
S'sent: 18'
p540
sbag0
(g1
g2
(lp541
g0
(g1
g2
(lp542
Vthat
p543
atp544
Rp545
(dp546
g11
S'start: 1'
p547
sbatp548
Rp549
(dp550
g11
S'sent: 19'
p551
sbag0
(g1
g2
(lp552
g0
(g1
g2
(lp553
Vtheir house
p554
atp555
Rp556
(dp557
g11
S'start: 3'
p558
sbatp559
Rp560
(dp561
g11
S'sent: 19'
p562
sbatp563
Rp564
(dp565
g11
S'id: 55'
p566
sbag0
(g1
g2
(lp567
g0
(g1
g2
(lp568
g0
(g1
g2
(lp569
Vthe
p570
atp571
Rp572
(dp573
g11
S'start: 7'
p574
sbatp575
Rp576
(dp577
g11
S'sent: 18'
p578
sbag0
(g1
g2
(lp579
g0
(g1
g2
(lp580
Vtheir
p581
atp582
Rp583
(dp584
g11
S'start: 3'
p585
sbatp586
Rp587
(dp588
g11
S'sent: 19'
p589
sbag0
(g1
g2
(lp590
g0
(g1
g2
(lp591
Vtheir
p592
atp593
Rp594
(dp595
g11
S'start: 4'
p596
sbatp597
Rp598
(dp599
g11
S'sent: 20'
p600
sbag0
(g1
g2
(lp601
g0
(g1
g2
(lp602
Vthey
p603
atp604
Rp605
(dp606
g11
S'start: 5'
p607
sbatp608
Rp609
(dp610
g11
S'sent: 21'
p611
sbag0
(g1
g2
(lp612
g0
(g1
g2
(lp613
Vthe
p614
atp615
Rp616
(dp617
g11
S'start: 19'
p618
sbatp619
Rp620
(dp621
g11
S'sent: 22'
p622
sbatp623
Rp624
(dp625
g11
S'id: 56'
p626
sbag0
(g1
g2
(lp627
g0
(g1
g2
(lp628
g0
(g1
g2
(lp629
Vsail , sailing
p630
atp631
Rp632
(dp633
g11
S'start: 12'
p634
sbatp635
Rp636
(dp637
g11
S'sent: 18'
p638
sbag0
(g1
g2
(lp639
g0
(g1
g2
(lp640
Vthat
p641
atp642
Rp643
(dp644
g11
S'start: 17'
p645
sbatp646
Rp647
(dp648
g11
S'sent: 18'
p649
sbatp650
Rp651
(dp652
g11
S'id: 58'
p653
sbag0
(g1
g2
(lp654
g0
(g1
g2
(lp655
g0
(g1
g2
(lp656
Vtheir car
p657
atp658
Rp659
(dp660
g11
S'start: 4'
p661
sbatp662
Rp663
(dp664
g11
S'sent: 20'
p665
sbag0
(g1
g2
(lp666
g0
(g1
g2
(lp667
Vthat
p668
atp669
Rp670
(dp671
g11
S'start: 2'
p672
sbatp673
Rp674
(dp675
g11
S'sent: 21'
p676
sbatp677
Rp678
(dp679
g11
S'id: 64'
p680
sbag0
(g1
g2
(lp681
g0
(g1
g2
(lp682
g0
(g1
g2
(lp683
Va flag up
p684
atp685
Rp686
(dp687
g11
S'start: 5'
p688
sbatp689
Rp690
(dp691
g11
S'sent: 22'
p692
sbag0
(g1
g2
(lp693
g0
(g1
g2
(lp694
Vthat
p695
atp696
Rp697
(dp698
g11
S'start: 2'
p699
sbatp700
Rp701
(dp702
g11
S'sent: 23'
p703
sbag0
(g1
g2
(lp704
g0
(g1
g2
(lp705
Vthat
p706
atp707
Rp708
(dp709
g11
S'start: 2'
p710
sbatp711
Rp712
(dp713
g11
S'sent: 24'
p714
sbag0
(g1
g2
(lp715
g0
(g1
g2
(lp716
Vthat
p717
atp718
Rp719
(dp720
g11
S'start: 1'
p721
sbatp722
Rp723
(dp724
g11
S'sent: 26'
p725
sbag0
(g1
g2
(lp726
g0
(g1
g2
(lp727
Vhis dog look , right there , little , l-e-c-e
p728
atp729
Rp730
(dp731
g11
S'start: 3'
p732
sbatp733
Rp734
(dp735
g11
S'sent: 26'
p736
sbag0
(g1
g2
(lp737
g0
(g1
g2
(lp738
Vhis dog look , right there
p739
atp740
Rp741
(dp742
g11
S'start: 3'
p743
sbatp744
Rp745
(dp746
g11
S'sent: 26'
p747
sbag0
(g1
g2
(lp748
g0
(g1
g2
(lp749
Vhis dog look
p750
atp751
Rp752
(dp753
g11
S'start: 3'
p754
sbatp755
Rp756
(dp757
g11
S'sent: 26'
p758
sbatp759
Rp760
(dp761
g11
S'id: 68'
p762
sbag0
(g1
g2
(lp763
g0
(g1
g2
(lp764
g0
(g1
g2
(lp765
Vhis boy
p766
atp767
Rp768
(dp769
g11
S'start: 4'
p770
sbatp771
Rp772
(dp773
g11
S'sent: 24'
p774
sbag0
(g1
g2
(lp775
g0
(g1
g2
(lp776
Vhis
p777
atp778
Rp779
(dp780
g11
S'start: 4'
p781
sbatp782
Rp783
(dp784
g11
S'sent: 25'
p785
sbag0
(g1
g2
(lp786
g0
(g1
g2
(lp787
Vhis
p788
atp789
Rp790
(dp791
g11
S'start: 3'
p792
sbatp793
Rp794
(dp795
g11
S'sent: 26'
p796
sbatp797
Rp798
(dp799
g11
S'id: 77'
p800
sbag0
(g1
g2
(lp801
g0
(g1
g2
(lp802
g0
(g1
g2
(lp803
Vthat
p804
atp805
Rp806
(dp807
g11
S'start: 2'
p808
sbatp809
Rp810
(dp811
g11
S'sent: 25'
p812
sbag0
(g1
g2
(lp813
g0
(g1
g2
(lp814
Vhis little dog
p815
atp816
Rp817
(dp818
g11
S'start: 4'
p819
sbatp820
Rp821
(dp822
g11
S'sent: 25'
p823
sbatp824
Rp825
(dp826
g11
S'id: 79'
p827
sbatp828
Rp829
(dp830
g11
S'coreferences'
p831
sb.