ccopy_reg
_reconstructor
p0
(cnltk.tree
Tree
p1
c__builtin__
list
p2
(lp3
g0
(g1
g2
(lp4
tp5
Rp6
(dp7
S'_label'
p8
S'id: 0'
p9
sbag0
(g1
g2
(lp10
g0
(g1
g2
(lp11
g0
(g1
g2
(lp12
(lp13
S'word: here, index: 2'
p14
aatp15
Rp16
(dp17
g8
Vdep
p18
sbatp19
Rp20
(dp21
g8
S'word: This, index: 1'
p22
sbatp23
Rp24
(dp25
g8
S'id: 1'
p26
sbag0
(g1
g2
(lp27
g0
(g1
g2
(lp28
g0
(g1
g2
(lp29
g0
(g1
g2
(lp30
g0
(g1
g2
(lp31
(lp32
S'word: a, index: 3'
p33
aatp34
Rp35
(dp36
g8
Vdet
p37
sbatp38
Rp39
(dp40
g8
S'word: boy, index: 4'
p41
sbatp42
Rp43
(dp44
g8
Vconj
p45
sbatp46
Rp47
(dp48
g8
S'word: Girl, index: 1'
p49
sbatp50
Rp51
(dp52
g8
S'id: 2'
p53
sbag0
(g1
g2
(lp54
g0
(g1
g2
(lp55
g0
(g1
g2
(lp56
(lp57
S'word: radio, index: 2'
p58
aatp59
Rp60
(dp61
g8
Vdobj
p62
sbatp63
Rp64
(dp65
g8
S'word: See, index: 1'
p66
sbatp67
Rp68
(dp69
g8
S'id: 3'
p70
sbag0
(g1
g2
(lp71
tp72
Rp73
(dp74
g8
S'id: 4'
p75
sbag0
(g1
g2
(lp76
g0
(g1
g2
(lp77
g0
(g1
g2
(lp78
(lp79
S'word: Here, index: 1'
p80
aatp81
Rp82
(dp83
g8
Vadvmod
p84
sbag0
(g1
g2
(lp85
g0
(g1
g2
(lp86
g0
(g1
g2
(lp87
(lp88
S'word: a, index: 3'
p89
aatp90
Rp91
(dp92
g8
Vdet
p93
sbag0
(g1
g2
(lp94
g0
(g1
g2
(lp95
g0
(g1
g2
(lp96
(lp97
S'word: that, index: 5'
p98
aatp99
Rp100
(dp101
g8
Vnsubj
p102
sbag0
(g1
g2
(lp103
g0
(g1
g2
(lp104
g0
(g1
g2
(lp105
(lp106
S'word: a, index: 7'
p107
aatp108
Rp109
(dp110
g8
Vdet
p111
sbag0
(g1
g2
(lp112
(lp113
S'word: giant, index: 8'
p114
aatp115
Rp116
(dp117
g8
Vamod
p118
sbatp119
Rp120
(dp121
g8
S'word: kite, index: 9'
p122
sbatp123
Rp124
(dp125
g8
Vdobj
p126
sbatp127
Rp128
(dp129
g8
S'word: flying, index: 6'
p130
sbatp131
Rp132
(dp133
g8
Vccomp
p134
sbatp135
Rp136
(dp137
g8
S'word: boy, index: 4'
p138
sbatp139
Rp140
(dp141
g8
Vnsubj
p142
sbatp143
Rp144
(dp145
g8
S'word: got, index: 2'
p146
sbatp147
Rp148
(dp149
g8
S'id: 5'
p150
sbag0
(g1
g2
(lp151
g0
(g1
g2
(lp152
g0
(g1
g2
(lp153
g0
(g1
g2
(lp154
g0
(g1
g2
(lp155
(lp156
S'word: dog, index: 6'
p157
aatp158
Rp159
(dp160
g8
Vnsubj
p161
sbag0
(g1
g2
(lp162
(lp163
S'word: to, index: 8'
p164
aatp165
Rp166
(dp167
g8
Vprep
p168
sbag0
(g1
g2
(lp169
g0
(g1
g2
(lp170
g0
(g1
g2
(lp171
g0
(g1
g2
(lp172
g0
(g1
g2
(lp173
(lp174
S'word: all, index: 2'
p175
aatp176
Rp177
(dp178
g8
Vdet
p179
sbag0
(g1
g2
(lp180
(lp181
S'word: day, index: 3'
p182
aatp183
Rp184
(dp185
g8
Vnn
p186
sbatp187
Rp188
(dp189
g8
S'word: dog, index: 4'
p190
sbatp191
Rp192
(dp193
g8
Vdobj
p194
sbatp195
Rp196
(dp197
g8
S'word: Running, index: 1'
p198
sbatp199
Rp200
(dp201
g8
Vvmod
p202
sbatp203
Rp204
(dp205
g8
S'word: try, index: 7'
p206
sbatp207
Rp208
(dp209
g8
Vccomp
p210
sbag0
(g1
g2
(lp211
(lp212
S'word: dog, index: 10'
p213
aatp214
Rp215
(dp216
g8
Vnsubj
p217
sbatp218
Rp219
(dp220
g8
S'word: do, index: 11'
p221
sbatp222
Rp223
(dp224
g8
S'id: 6'
p225
sbag0
(g1
g2
(lp226
g0
(g1
g2
(lp227
g0
(g1
g2
(lp228
(lp229
S'word: boy, index: 2'
p230
aatp231
Rp232
(dp233
g8
Vdep
p234
sbag0
(g1
g2
(lp235
(lp236
S'word: sandcastle, index: 4'
p237
aatp238
Rp239
(dp240
g8
Vdep
p241
sbatp242
Rp243
(dp244
g8
S'word: Here, index: 1'
p245
sbatp246
Rp247
(dp248
g8
S'id: 7'
p249
sbag0
(g1
g2
(lp250
g0
(g1
g2
(lp251
g0
(g1
g2
(lp252
g0
(g1
g2
(lp253
g0
(g1
g2
(lp254
(lp255
S'word: Here, index: 1'
p256
aatp257
Rp258
(dp259
g8
Vadvmod
p260
sbatp261
Rp262
(dp263
g8
S'word: fishing, index: 2'
p264
sbatp265
Rp266
(dp267
g8
Vccomp
p268
sbag0
(g1
g2
(lp269
(lp270
S'word: he, index: 4'
p271
aatp272
Rp273
(dp274
g8
Vnsubj
p275
sbag0
(g1
g2
(lp276
(lp277
S'word: one, index: 6'
p278
aatp279
Rp280
(dp281
g8
Vdobj
p282
sbatp283
Rp284
(dp285
g8
S'word: caught, index: 5'
p286
sbatp287
Rp288
(dp289
g8
S'id: 8'
p290
sbag0
(g1
g2
(lp291
g0
(g1
g2
(lp292
g0
(g1
g2
(lp293
g0
(g1
g2
(lp294
g0
(g1
g2
(lp295
(lp296
S'word: two, index: 4'
p297
aatp298
Rp299
(dp300
g8
Vnum
p301
sbatp302
Rp303
(dp304
g8
S'word: people, index: 5'
p305
sbatp306
Rp307
(dp308
g8
Vconj
p309
sbag0
(g1
g2
(lp310
(lp311
S'word: rabing, index: 6'
p312
aatp313
Rp314
(dp315
g8
Vvmod
p316
sbatp317
Rp318
(dp319
g8
S'word: Sailboat, index: 1'
p320
sbatp321
Rp322
(dp323
g8
S'id: 9'
p324
sbag0
(g1
g2
(lp325
tp326
Rp327
(dp328
g8
S'id: 10'
p329
sbag0
(g1
g2
(lp330
tp331
Rp332
(dp333
g8
S'id: 11'
p334
sbag0
(g1
g2
(lp335
g0
(g1
g2
(lp336
g0
(g1
g2
(lp337
(lp338
S'word: Is, index: 1'
p339
aatp340
Rp341
(dp342
g8
Vcop
p343
sbag0
(g1
g2
(lp344
(lp345
S'word: one, index: 2'
p346
aatp347
Rp348
(dp349
g8
Vnum
p350
sbatp351
Rp352
(dp353
g8
S'word: house, index: 3'
p354
sbatp355
Rp356
(dp357
g8
S'id: 12'
p358
sbatp359
Rp360
(dp361
g8
S'sentences'
p362
sb.