ccopy_reg
_reconstructor
p0
(cnltk.tree
Tree
p1
c__builtin__
list
p2
(lp3
g0
(g1
g2
(lp4
g0
(g1
g2
(lp5
g0
(g1
g2
(lp6
Va horse
p7
atp8
Rp9
(dp10
S'_label'
p11
S'start: 14'
p12
sbatp13
Rp14
(dp15
g11
S'sent: 3'
p16
sbag0
(g1
g2
(lp17
g0
(g1
g2
(lp18
Vthe horse
p19
atp20
Rp21
(dp22
g11
S'start: 9'
p23
sbatp24
Rp25
(dp26
g11
S'sent: 5'
p27
sbatp28
Rp29
(dp30
g11
S'id: 7'
p31
sbag0
(g1
g2
(lp32
g0
(g1
g2
(lp33
g0
(g1
g2
(lp34
Vthe little girl
p35
atp36
Rp37
(dp38
g11
S'start: 3'
p39
sbatp40
Rp41
(dp42
g11
S'sent: 6'
p43
sbag0
(g1
g2
(lp44
g0
(g1
g2
(lp45
Vthe little girl
p46
atp47
Rp48
(dp49
g11
S'start: 5'
p50
sbatp51
Rp52
(dp53
g11
S'sent: 9'
p54
sbatp55
Rp56
(dp57
g11
S'id: 13'
p58
sbag0
(g1
g2
(lp59
g0
(g1
g2
(lp60
g0
(g1
g2
(lp61
Va good time
p62
atp63
Rp64
(dp65
g11
S'start: 8'
p66
sbatp67
Rp68
(dp69
g11
S'sent: 6'
p70
sbag0
(g1
g2
(lp71
g0
(g1
g2
(lp72
Vit
p73
atp74
Rp75
(dp76
g11
S'start: 27'
p77
sbatp78
Rp79
(dp80
g11
S'sent: 6'
p81
sbatp82
Rp83
(dp84
g11
S'id: 14'
p85
sbag0
(g1
g2
(lp86
g0
(g1
g2
(lp87
g0
(g1
g2
(lp88
Vthe clin , the clown
p89
atp90
Rp91
(dp92
g11
S'start: 13'
p93
sbatp94
Rp95
(dp96
g11
S'sent: 6'
p97
sbag0
(g1
g2
(lp98
g0
(g1
g2
(lp99
Vthe clin
p100
atp101
Rp102
(dp103
g11
S'start: 13'
p104
sbatp105
Rp106
(dp107
g11
S'sent: 6'
p108
sbag0
(g1
g2
(lp109
g0
(g1
g2
(lp110
Vthe clown
p111
atp112
Rp113
(dp114
g11
S'start: 16'
p115
sbatp116
Rp117
(dp118
g11
S'sent: 6'
p119
sbag0
(g1
g2
(lp120
g0
(g1
g2
(lp121
Vthe clown
p122
atp123
Rp124
(dp125
g11
S'start: 2'
p126
sbatp127
Rp128
(dp129
g11
S'sent: 7'
p130
sbag0
(g1
g2
(lp131
g0
(g1
g2
(lp132
Vhis
p133
atp134
Rp135
(dp136
g11
S'start: 7'
p137
sbatp138
Rp139
(dp140
g11
S'sent: 7'
p141
sbag0
(g1
g2
(lp142
g0
(g1
g2
(lp143
Vhe
p144
atp145
Rp146
(dp147
g11
S'start: 2'
p148
sbatp149
Rp150
(dp151
g11
S'sent: 8'
p152
sbag0
(g1
g2
(lp153
g0
(g1
g2
(lp154
Vthe clown
p155
atp156
Rp157
(dp158
g11
S'start: 11'
p159
sbatp160
Rp161
(dp162
g11
S'sent: 9'
p163
sbag0
(g1
g2
(lp164
g0
(g1
g2
(lp165
Vthe clown
p166
atp167
Rp168
(dp169
g11
S'start: 10'
p170
sbatp171
Rp172
(dp173
g11
S'sent: 10'
p174
sbatp175
Rp176
(dp177
g11
S'id: 15'
p178
sbag0
(g1
g2
(lp179
g0
(g1
g2
(lp180
g0
(g1
g2
(lp181
VI
p182
atp183
Rp184
(dp185
g11
S'start: 22'
p186
sbatp187
Rp188
(dp189
g11
S'sent: 6'
p190
sbag0
(g1
g2
(lp191
g0
(g1
g2
(lp192
VI
p193
atp194
Rp195
(dp196
g11
S'start: 14'
p197
sbatp198
Rp199
(dp200
g11
S'sent: 9'
p201
sbag0
(g1
g2
(lp202
g0
(g1
g2
(lp203
VI
p204
atp205
Rp206
(dp207
g11
S'start: 3'
p208
sbatp209
Rp210
(dp211
g11
S'sent: 10'
p212
sbatp213
Rp214
(dp215
g11
S'id: 18'
p216
sbag0
(g1
g2
(lp217
g0
(g1
g2
(lp218
g0
(g1
g2
(lp219
Vthe dad and the little girl
p220
atp221
Rp222
(dp223
g11
S'start: 2'
p224
sbatp225
Rp226
(dp227
g11
S'sent: 9'
p228
sbag0
(g1
g2
(lp229
g0
(g1
g2
(lp230
Vthey
p231
atp232
Rp233
(dp234
g11
S'start: 5'
p235
sbatp236
Rp237
(dp238
g11
S'sent: 10'
p239
sbatp240
Rp241
(dp242
g11
S'id: 27'
p243
sbatp244
Rp245
(dp246
g11
S'coreferences'
p247
sb.