ccopy_reg
_reconstructor
p0
(cnltk.tree
Tree
p1
c__builtin__
list
p2
(lp3
g0
(g1
g2
(lp4
g0
(g1
g2
(lp5
g0
(g1
g2
(lp6
g0
(g1
g2
(lp7
g0
(g1
g2
(lp8
(lp9
S'word: like, index: 2'
p10
aatp11
Rp12
(dp13
S'_label'
p14
Vprep
p15
sbatp16
Rp17
(dp18
g14
S'word: looks, index: 1'
p19
sbatp20
Rp21
(dp22
g14
Vnsubj
p23
sbag0
(g1
g2
(lp24
g0
(g1
g2
(lp25
g0
(g1
g2
(lp26
(lp27
S'word: the, index: 5'
p28
aatp29
Rp30
(dp31
g14
Vdet
p32
sbatp33
Rp34
(dp35
g14
S'word: circus, index: 6'
p36
sbatp37
Rp38
(dp39
g14
Vprep
p40
sbatp41
Rp42
(dp43
g14
S'word: were, index: 3'
p44
sbatp45
Rp46
(dp47
g14
S'id: 0'
p48
sbag0
(g1
g2
(lp49
g0
(g1
g2
(lp50
g0
(g1
g2
(lp51
g0
(g1
g2
(lp52
g0
(g1
g2
(lp53
(lp54
S'word: a, index: 3'
p55
aatp56
Rp57
(dp58
g14
Vdet
p59
sbag0
(g1
g2
(lp60
(lp61
S'word: up, index: 5'
p62
aatp63
Rp64
(dp65
g14
Vdep
p66
sbag0
(g1
g2
(lp67
g0
(g1
g2
(lp68
g0
(g1
g2
(lp69
(lp70
S'word: the, index: 7'
p71
aatp72
Rp73
(dp74
g14
Vdet
p75
sbag0
(g1
g2
(lp76
(lp77
S'word: tight, index: 8'
p78
aatp79
Rp80
(dp81
g14
Vamod
p82
sbatp83
Rp84
(dp85
g14
S'word: rope, index: 9'
p86
sbatp87
Rp88
(dp89
g14
Vprep
p90
sbatp91
Rp92
(dp93
g14
S'word: guy, index: 4'
p94
sbatp95
Rp96
(dp97
g14
Vnsubj
p98
sbag0
(g1
g2
(lp99
(lp100
S'word: There, index: 1'
p101
aatp102
Rp103
(dp104
g14
Vexpl
p105
sbatp106
Rp107
(dp108
g14
S"word: 's, index: 2"
p109
sbatp110
Rp111
(dp112
g14
S'id: 1'
p113
sbag0
(g1
g2
(lp114
g0
(g1
g2
(lp115
g0
(g1
g2
(lp116
(lp117
S'word: And, index: 1'
p118
aatp119
Rp120
(dp121
g14
Vcc
p122
sbag0
(g1
g2
(lp123
(lp124
S'word: there, index: 2'
p125
aatp126
Rp127
(dp128
g14
Vexpl
p129
sbag0
(g1
g2
(lp130
g0
(g1
g2
(lp131
g0
(g1
g2
(lp132
g0
(g1
g2
(lp133
g0
(g1
g2
(lp134
(lp135
S'word: horseback, index: 7'
p136
aatp137
Rp138
(dp139
g14
Vdobj
p140
sbag0
(g1
g2
(lp141
g0
(g1
g2
(lp142
g0
(g1
g2
(lp143
g0
(g1
g2
(lp144
g0
(g1
g2
(lp145
(lp146
S'word: the, index: 11'
p147
aatp148
Rp149
(dp150
g14
Vdet
p151
sbag0
(g1
g2
(lp152
g0
(g1
g2
(lp153
g0
(g1
g2
(lp154
(lp155
S'word: a, index: 14'
p156
aatp157
Rp158
(dp159
g14
Vdet
p160
sbatp161
Rp162
(dp163
g14
S'word: horse, index: 15'
p164
sbatp165
Rp166
(dp167
g14
Vprep
p168
sbatp169
Rp170
(dp171
g14
S'word: back, index: 12'
p172
sbatp173
Rp174
(dp175
g14
Vpobj
p176
sbatp177
Rp178
(dp179
g14
S'word: on, index: 10'
p180
sbatp181
Rp182
(dp183
g14
Vconj
p184
sbatp185
Rp186
(dp187
g14
S'word: riding, index: 6'
p188
sbatp189
Rp190
(dp191
g14
Vdep
p192
sbag0
(g1
g2
(lp193
g178
atp194
Rp195
(dp196
g14
Vdep
p197
sbag0
(g1
g2
(lp198
(lp199
S'word: a, index: 4'
p200
aatp201
Rp202
(dp203
g14
Vdet
p204
sbatp205
Rp206
(dp207
g14
S'word: girl, index: 5'
p208
sbatp209
Rp210
(dp211
g14
Vnsubj
p212
sbatp213
Rp214
(dp215
g14
S"word: 's, index: 3"
p216
sbatp217
Rp218
(dp219
g14
S'id: 2'
p220
sbag0
(g1
g2
(lp221
g0
(g1
g2
(lp222
g0
(g1
g2
(lp223
g0
(g1
g2
(lp224
g0
(g1
g2
(lp225
g0
(g1
g2
(lp226
g0
(g1
g2
(lp227
(lp228
S'word: the, index: 9'
p229
aatp230
Rp231
(dp232
g14
Vdet
p233
sbatp234
Rp235
(dp236
g14
S'word: shadows, index: 10'
p237
sbatp238
Rp239
(dp240
g14
Vprep
p241
sbag0
(g1
g2
(lp242
(lp243
S'word: like, index: 2'
p244
aatp245
Rp246
(dp247
g14
Vmark
p248
sbag0
(g1
g2
(lp249
g0
(g1
g2
(lp250
g0
(g1
g2
(lp251
(lp252
S'word: the, index: 3'
p253
aatp254
Rp255
(dp256
g14
Vdet
p257
sbatp258
Rp259
(dp260
g14
S'word: crowd, index: 4'
p261
sbatp262
Rp263
(dp264
g14
Vnsubj
p265
sbag0
(g1
g2
(lp266
g0
(g1
g2
(lp267
g0
(g1
g2
(lp268
(lp269
S'word: back, index: 6'
p270
aatp271
Rp272
(dp273
g14
Vadvmod
p274
sbatp275
Rp276
(dp277
g14
S'word: there, index: 7'
p278
sbatp279
Rp280
(dp281
g14
Vadvmod
p282
sbatp283
Rp284
(dp285
g14
S'word: is, index: 5'
p286
sbatp287
Rp288
(dp289
g14
Vadvcl
p290
sbatp291
Rp292
(dp293
g14
S'word: Looks, index: 1'
p294
sbatp295
Rp296
(dp297
g14
S'id: 3'
p298
sbag0
(g1
g2
(lp299
g0
(g1
g2
(lp300
g0
(g1
g2
(lp301
g0
(g1
g2
(lp302
g0
(g1
g2
(lp303
(lp304
S'word: around, index: 13'
p305
aatp306
Rp307
(dp308
g14
Vadvmod
p309
sbag0
(g1
g2
(lp310
(lp311
S'word: in, index: 14'
p312
aatp313
Rp314
(dp315
g14
Vprep
p316
sbag0
(g1
g2
(lp317
(lp318
S'word: that, index: 8'
p319
aatp320
Rp321
(dp322
g14
Vmark
p323
sbag0
(g1
g2
(lp324
g0
(g1
g2
(lp325
g0
(g1
g2
(lp326
(lp327
S'word: the, index: 9'
p328
aatp329
Rp330
(dp331
g14
Vdet
p332
sbatp333
Rp334
(dp335
g14
S'word: horse, index: 10'
p336
sbatp337
Rp338
(dp339
g14
Vnsubj
p340
sbag0
(g1
g2
(lp341
(lp342
S'word: is, index: 11'
p343
aatp344
Rp345
(dp346
g14
Vaux
p347
sbatp348
Rp349
(dp350
g14
S'word: going, index: 12'
p351
sbatp352
Rp353
(dp354
g14
Vccomp
p355
sbag0
(g1
g2
(lp356
(lp357
S'word: And, index: 1'
p358
aatp359
Rp360
(dp361
g14
Vcc
p362
sbag0
(g1
g2
(lp363
(lp364
S'word: there, index: 2'
p365
aatp366
Rp367
(dp368
g14
Vexpl
p369
sbag0
(g1
g2
(lp370
g0
(g1
g2
(lp371
g0
(g1
g2
(lp372
(lp373
S'word: a, index: 4'
p374
aatp375
Rp376
(dp377
g14
Vdet
p378
sbatp379
Rp380
(dp381
g14
S'word: ring, index: 5'
p382
sbatp383
Rp384
(dp385
g14
Vnsubj
p386
sbag0
(g1
g2
(lp387
(lp388
S'word: there, index: 6'
p389
aatp390
Rp391
(dp392
g14
Vadvmod
p393
sbatp394
Rp395
(dp396
g14
S"word: 's, index: 3"
p397
sbatp398
Rp399
(dp400
g14
S'id: 4'
p401
sbag0
(g1
g2
(lp402
g0
(g1
g2
(lp403
g0
(g1
g2
(lp404
(lp405
S'word: something, index: 32'
p406
aatp407
Rp408
(dp409
g14
Vccomp
p410
sbag0
(g1
g2
(lp411
g0
(g1
g2
(lp412
g0
(g1
g2
(lp413
(lp414
S'word: is, index: 19'
p415
aatp416
Rp417
(dp418
g14
Vaux
p419
sbag0
(g1
g2
(lp420
g0
(g1
g2
(lp421
g0
(g1
g2
(lp422
g0
(g1
g2
(lp423
g0
(g1
g2
(lp424
(lp425
S'word: the, index: 16'
p426
aatp427
Rp428
(dp429
g14
Vdet
p430
sbatp431
Rp432
(dp433
g14
S'word: clown, index: 17'
p434
sbatp435
Rp436
(dp437
g14
Vappos
p438
sbag0
(g1
g2
(lp439
(lp440
S'word: the, index: 13'
p441
aatp442
Rp443
(dp444
g14
Vdet
p445
sbatp446
Rp447
(dp448
g14
S'word: clin, index: 14'
p449
sbatp450
Rp451
(dp452
g14
Vnsubj
p453
sbatp454
Rp455
(dp456
g14
S'word: throwing, index: 20'
p457
sbatp458
Rp459
(dp460
g14
Vccomp
p461
sbag0
(g1
g2
(lp462
(lp463
S'word: I, index: 22'
p464
aatp465
Rp466
(dp467
g14
Vnsubj
p468
sbag0
(g1
g2
(lp469
g0
(g1
g2
(lp470
g0
(g1
g2
(lp471
g0
(g1
g2
(lp472
g0
(g1
g2
(lp473
g0
(g1
g2
(lp474
g0
(g1
g2
(lp475
(lp476
S'word: the, index: 3'
p477
aatp478
Rp479
(dp480
g14
Vdet
p481
sbag0
(g1
g2
(lp482
(lp483
S'word: little, index: 4'
p484
aatp485
Rp486
(dp487
g14
Vamod
p488
sbatp489
Rp490
(dp491
g14
S'word: girl, index: 5'
p492
sbatp493
Rp494
(dp495
g14
Vconj
p496
sbatp497
Rp498
(dp499
g14
S'word: Mom, index: 1'
p500
sbatp501
Rp502
(dp503
g14
Vnsubj
p504
sbag0
(g1
g2
(lp505
g455
atp506
Rp507
(dp508
g14
Vconj
p509
sbag0
(g1
g2
(lp510
g490
atp511
Rp512
(dp513
g14
Vnsubj
p514
sbag0
(g1
g2
(lp515
(lp516
S'word: are, index: 6'
p517
aatp518
Rp519
(dp520
g14
Vaux
p521
sbag0
(g1
g2
(lp522
g0
(g1
g2
(lp523
g0
(g1
g2
(lp524
(lp525
S'word: a, index: 8'
p526
aatp527
Rp528
(dp529
g14
Vdet
p530
sbag0
(g1
g2
(lp531
(lp532
S'word: good, index: 9'
p533
aatp534
Rp535
(dp536
g14
Vamod
p537
sbatp538
Rp539
(dp540
g14
S'word: time, index: 10'
p541
sbatp542
Rp543
(dp544
g14
Vdobj
p545
sbatp546
Rp547
(dp548
g14
S'word: having, index: 7'
p549
sbatp550
Rp551
(dp552
g14
Vccomp
p553
sbag0
(g1
g2
(lp554
(lp555
S'word: do, index: 23'
p556
aatp557
Rp558
(dp559
g14
Vaux
p560
sbag0
(g1
g2
(lp561
(lp562
S"word: n't, index: 24"
p563
aatp564
Rp565
(dp566
g14
Vneg
p567
sbag0
(g1
g2
(lp568
g0
(g1
g2
(lp569
g0
(g1
g2
(lp570
(lp571
S'word: something, index: 32'
p572
aatp573
Rp574
(dp575
g14
Vconj
p576
sbag0
(g1
g2
(lp577
g0
(g1
g2
(lp578
g0
(g1
g2
(lp579
(lp580
S'word: the, index: 34'
p581
aatp582
Rp583
(dp584
g14
Vdet
p585
sbag0
(g1
g2
(lp586
(lp587
S'word: little, index: 35'
p588
aatp589
Rp590
(dp591
g14
Vamod
p592
sbatp593
Rp594
(dp595
g14
S'word: boy, index: 36'
p596
sbatp597
Rp598
(dp599
g14
Vprep
p600
sbag0
(g1
g2
(lp601
(lp602
S'word: what, index: 26'
p603
aatp604
Rp605
(dp606
g14
Vdobj
p607
sbag0
(g1
g2
(lp608
(lp609
S'word: it, index: 27'
p610
aatp611
Rp612
(dp613
g14
Vnsubj
p614
sbag0
(g1
g2
(lp615
(lp616
S'word: is, index: 28'
p617
aatp618
Rp619
(dp620
g14
Vcop
p621
sbatp622
Rp623
(dp624
g14
S'word: confetti, index: 30'
p625
sbatp626
Rp627
(dp628
g14
Vccomp
p629
sbatp630
Rp631
(dp632
g14
S'word: know, index: 25'
p633
sbatp634
Rp635
(dp636
g14
S'id: 5'
p637
sbag0
(g1
g2
(lp638
g0
(g1
g2
(lp639
g0
(g1
g2
(lp640
g0
(g1
g2
(lp641
g0
(g1
g2
(lp642
(lp643
S'word: the, index: 2'
p644
aatp645
Rp646
(dp647
g14
Vdet
p648
sbatp649
Rp650
(dp651
g14
S'word: clown, index: 3'
p652
sbatp653
Rp654
(dp655
g14
Vnsubj
p656
sbag0
(g1
g2
(lp657
g0
(g1
g2
(lp658
g0
(g1
g2
(lp659
g0
(g1
g2
(lp660
g0
(g1
g2
(lp661
(lp662
S'word: his, index: 7'
p663
aatp664
Rp665
(dp666
g14
Vposs
p667
sbatp668
Rp669
(dp670
g14
S'word: tie, index: 8'
p671
sbatp672
Rp673
(dp674
g14
Vprep
p675
sbatp676
Rp677
(dp678
g14
S'word: flowers, index: 5'
p679
sbatp680
Rp681
(dp682
g14
Vdobj
p683
sbag0
(g1
g2
(lp684
(lp685
S'word: And, index: 1'
p686
aatp687
Rp688
(dp689
g14
Vcc
p690
sbatp691
Rp692
(dp693
g14
S'word: has, index: 4'
p694
sbatp695
Rp696
(dp697
g14
S'id: 6'
p698
sbag0
(g1
g2
(lp699
g0
(g1
g2
(lp700
g0
(g1
g2
(lp701
(lp702
S'word: usual, index: 7'
p703
aatp704
Rp705
(dp706
g14
Vprep
p707
sbag0
(g1
g2
(lp708
(lp709
S'word: And, index: 1'
p710
aatp711
Rp712
(dp713
g14
Vcc
p714
sbag0
(g1
g2
(lp715
(lp716
S'word: he, index: 2'
p717
aatp718
Rp719
(dp720
g14
Vnsubj
p721
sbag0
(g1
g2
(lp722
(lp723
S"word: 's, index: 3"
p724
aatp725
Rp726
(dp727
g14
Vcop
p728
sbag0
(g1
g2
(lp729
(lp730
S'word: pretty, index: 4'
p731
aatp732
Rp733
(dp734
g14
Vadvmod
p735
sbatp736
Rp737
(dp738
g14
S'word: happy, index: 5'
p739
sbatp740
Rp741
(dp742
g14
S'id: 7'
p743
sbag0
(g1
g2
(lp744
g0
(g1
g2
(lp745
g0
(g1
g2
(lp746
g0
(g1
g2
(lp747
g0
(g1
g2
(lp748
(lp749
S'word: are, index: 8'
p750
aatp751
Rp752
(dp753
g14
Vaux
p754
sbag0
(g1
g2
(lp755
g0
(g1
g2
(lp756
g0
(g1
g2
(lp757
(lp758
S'word: the, index: 11'
p759
aatp760
Rp761
(dp762
g14
Vdet
p763
sbatp764
Rp765
(dp766
g14
S'word: clown, index: 12'
p767
sbatp768
Rp769
(dp770
g14
Vprep
p771
sbag0
(g1
g2
(lp772
(lp773
S'word: And, index: 1'
p774
aatp775
Rp776
(dp777
g14
Vcc
p778
sbag0
(g1
g2
(lp779
g0
(g1
g2
(lp780
g0
(g1
g2
(lp781
(lp782
S'word: the, index: 2'
p783
aatp784
Rp785
(dp786
g14
Vdet
p787
sbag0
(g1
g2
(lp788
g0
(g1
g2
(lp789
g0
(g1
g2
(lp790
(lp791
S'word: the, index: 5'
p792
aatp793
Rp794
(dp795
g14
Vdet
p796
sbag0
(g1
g2
(lp797
(lp798
S'word: little, index: 6'
p799
aatp800
Rp801
(dp802
g14
Vamod
p803
sbatp804
Rp805
(dp806
g14
S'word: girl, index: 7'
p807
sbatp808
Rp809
(dp810
g14
Vconj
p811
sbatp812
Rp813
(dp814
g14
S'word: dad, index: 3'
p815
sbatp816
Rp817
(dp818
g14
Vnsubj
p819
sbag0
(g1
g2
(lp820
g805
atp821
Rp822
(dp823
g14
Vnsubj
p824
sbatp825
Rp826
(dp827
g14
S'word: pointing, index: 9'
p828
sbatp829
Rp830
(dp831
g14
Vccomp
p832
sbag0
(g1
g2
(lp833
(lp834
S'word: I, index: 14'
p835
aatp836
Rp837
(dp838
g14
Vnsubj
p839
sbatp840
Rp841
(dp842
g14
S'word: think, index: 15'
p843
sbatp844
Rp845
(dp846
g14
S'id: 8'
p847
sbag0
(g1
g2
(lp848
g0
(g1
g2
(lp849
g0
(g1
g2
(lp850
(lp851
S'word: Yeah, index: 1'
p852
aatp853
Rp854
(dp855
g14
Vdiscourse
p856
sbag0
(g1
g2
(lp857
(lp858
S'word: I, index: 3'
p859
aatp860
Rp861
(dp862
g14
Vnsubj
p863
sbag0
(g1
g2
(lp864
g0
(g1
g2
(lp865
g0
(g1
g2
(lp866
g0
(g1
g2
(lp867
g0
(g1
g2
(lp868
(lp869
S'word: the, index: 10'
p870
aatp871
Rp872
(dp873
g14
Vdet
p874
sbatp875
Rp876
(dp877
g14
S'word: clown, index: 11'
p878
sbatp879
Rp880
(dp881
g14
Vprep
p882
sbag0
(g1
g2
(lp883
(lp884
S'word: they, index: 5'
p885
aatp886
Rp887
(dp888
g14
Vnsubj
p889
sbag0
(g1
g2
(lp890
(lp891
S"word: 're, index: 6"
p892
aatp893
Rp894
(dp895
g14
Vaux
p896
sbag0
(g1
g2
(lp897
(lp898
S'word: that, index: 8'
p899
aatp900
Rp901
(dp902
g14
Vdep
p903
sbatp904
Rp905
(dp906
g14
S'word: doing, index: 7'
p907
sbatp908
Rp909
(dp910
g14
Vccomp
p911
sbatp912
Rp913
(dp914
g14
S'word: think, index: 4'
p915
sbatp916
Rp917
(dp918
g14
S'id: 9'
p919
sbag0
(g1
g2
(lp920
g0
(g1
g2
(lp921
g0
(g1
g2
(lp922
(lp923
S'word: And, index: 1'
p924
aatp925
Rp926
(dp927
g14
Vcc
p928
sbag0
(g1
g2
(lp929
g0
(g1
g2
(lp930
g0
(g1
g2
(lp931
(lp932
S'word: the, index: 2'
p933
aatp934
Rp935
(dp936
g14
Vdet
p937
sbag0
(g1
g2
(lp938
(lp939
S'word: ring, index: 3'
p940
aatp941
Rp942
(dp943
g14
Vnn
p944
sbatp945
Rp946
(dp947
g14
S'word: master, index: 4'
p948
sbatp949
Rp950
(dp951
g14
Vnsubj
p952
sbag0
(g1
g2
(lp953
(lp954
S'word: is, index: 5'
p955
aatp956
Rp957
(dp958
g14
Vaux
p959
sbag0
(g1
g2
(lp960
g0
(g1
g2
(lp961
g0
(g1
g2
(lp962
(lp963
S'word: the, index: 8'
p964
aatp965
Rp966
(dp967
g14
Vdet
p968
sbag0
(g1
g2
(lp969
g0
(g1
g2
(lp970
g0
(g1
g2
(lp971
(lp972
S'word: the, index: 12'
p973
aatp974
Rp975
(dp976
g14
Vdet
p977
sbatp978
Rp979
(dp980
g14
S'word: cage, index: 13'
p981
sbatp982
Rp983
(dp984
g14
Vprep
p985
sbatp986
Rp987
(dp988
g14
S'word: lion, index: 9'
p989
sbatp990
Rp991
(dp992
g14
Vprep
p993
sbatp994
Rp995
(dp996
g14
S'word: playing, index: 6'
p997
sbatp998
Rp999
(dp1000
g14
S'id: 10'
p1001
sbag0
(g1
g2
(lp1002
g0
(g1
g2
(lp1003
g0
(g1
g2
(lp1004
(lp1005
S'word: What, index: 1'
p1006
aatp1007
Rp1008
(dp1009
g14
Vdep
p1010
sbatp1011
Rp1012
(dp1013
g14
S'word: else, index: 2'
p1014
sbatp1015
Rp1016
(dp1017
g14
S'id: 11'
p1018
sbatp1019
Rp1020
(dp1021
g14
S'sentences'
p1022
sb.