ccopy_reg
_reconstructor
p0
(cnltk.tree
Tree
p1
c__builtin__
list
p2
(lp3
g0
(g1
g2
(lp4
tp5
Rp6
(dp7
S'_label'
p8
S'id: 0'
p9
sbag0
(g1
g2
(lp10
g0
(g1
g2
(lp11
g0
(g1
g2
(lp12
(lp13
S'word: a, index: 3'
p14
aatp15
Rp16
(dp17
g8
Vdet
p18
sbag0
(g1
g2
(lp19
(lp20
S'word: s-u-r, index: 4'
p21
aatp22
Rp23
(dp24
g8
Vamod
p25
sbag0
(g1
g2
(lp26
(lp27
S'word: circus, index: 7'
p28
aatp29
Rp30
(dp31
g8
Vappos
p32
sbag0
(g1
g2
(lp33
(lp34
S'word: This, index: 1'
p35
aatp36
Rp37
(dp38
g8
Vnsubj
p39
sbag0
(g1
g2
(lp40
(lp41
S'word: is, index: 2'
p42
aatp43
Rp44
(dp45
g8
Vcop
p46
sbatp47
Rp48
(dp49
g8
S'word: circus, index: 5'
p50
sbatp51
Rp52
(dp53
g8
S'id: 1'
p54
sbag0
(g1
g2
(lp55
g0
(g1
g2
(lp56
g0
(g1
g2
(lp57
g0
(g1
g2
(lp58
g0
(g1
g2
(lp59
g0
(g1
g2
(lp60
g0
(g1
g2
(lp61
g0
(g1
g2
(lp62
g0
(g1
g2
(lp63
(lp64
S'word: clown, index: 11'
p65
aatp66
Rp67
(dp68
g8
Vappos
p69
sbatp70
Rp71
(dp72
g8
S'word: clown, index: 9'
p73
sbatp74
Rp75
(dp76
g8
Vappos
p77
sbatp78
Rp79
(dp80
g8
S'word: clown, index: 7'
p81
sbatp82
Rp83
(dp84
g8
Vnsubj
p85
sbag0
(g1
g2
(lp86
(lp87
S'word: that, index: 4'
p88
aatp89
Rp90
(dp91
g8
Vmark
p92
sbag0
(g1
g2
(lp93
(lp94
S'word: there, index: 5'
p95
aatp96
Rp97
(dp98
g8
Vexpl
p99
sbatp100
Rp101
(dp102
g8
S'word: is, index: 6'
p103
sbatp104
Rp105
(dp106
g8
Vccomp
p107
sbag0
(g1
g2
(lp108
(lp109
S'word: There, index: 1'
p110
aatp111
Rp112
(dp113
g8
Vexpl
p114
sbatp115
Rp116
(dp117
g8
S'word: is, index: 2'
p118
sbatp119
Rp120
(dp121
g8
S'id: 2'
p122
sbag0
(g1
g2
(lp123
g0
(g1
g2
(lp124
g0
(g1
g2
(lp125
g0
(g1
g2
(lp126
g0
(g1
g2
(lp127
(lp128
S'word: a, index: 9'
p129
aatp130
Rp131
(dp132
g8
Vdet
p133
sbatp134
Rp135
(dp136
g8
S'word: dad, index: 10'
p137
sbatp138
Rp139
(dp140
g8
Vnsubj
p141
sbag0
(g1
g2
(lp142
g0
(g1
g2
(lp143
g0
(g1
g2
(lp144
(lp145
S'word: there, index: 12'
p146
aatp147
Rp148
(dp149
g8
Vexpl
p150
sbag0
(g1
g2
(lp151
(lp152
S'word: a, index: 13'
p153
aatp154
Rp155
(dp156
g8
Vdet
p157
sbatp158
Rp159
(dp160
g8
S'word: boy, index: 14'
p161
sbatp162
Rp163
(dp164
g8
Vccomp
p165
sbag0
(g1
g2
(lp166
g0
(g1
g2
(lp167
g0
(g1
g2
(lp168
(lp169
S'word: there, index: 16'
p170
aatp171
Rp172
(dp173
g8
Vexpl
p174
sbag0
(g1
g2
(lp175
g0
(g1
g2
(lp176
g0
(g1
g2
(lp177
(lp178
S'word: another, index: 18'
p179
aatp180
Rp181
(dp182
g8
Vdet
p183
sbag0
(g1
g2
(lp184
(lp185
S'word: little, index: 19'
p186
aatp187
Rp188
(dp189
g8
Vamod
p190
sbatp191
Rp192
(dp193
g8
S'word: girl, index: 20'
p194
sbatp195
Rp196
(dp197
g8
Vnsubj
p198
sbatp199
Rp200
(dp201
g8
S"word: 's, index: 17"
p202
sbatp203
Rp204
(dp205
g8
Vccomp
p206
sbag0
(g1
g2
(lp207
g0
(g1
g2
(lp208
g0
(g1
g2
(lp209
(lp210
S'word: There, index: 1'
p211
aatp212
Rp213
(dp214
g8
Vexpl
p215
sbag0
(g1
g2
(lp216
g0
(g1
g2
(lp217
g0
(g1
g2
(lp218
(lp219
S'word: a, index: 3'
p220
aatp221
Rp222
(dp223
g8
Vdet
p224
sbag0
(g1
g2
(lp225
(lp226
S'word: little, index: 4'
p227
aatp228
Rp229
(dp230
g8
Vamod
p231
sbatp232
Rp233
(dp234
g8
S'word: girl, index: 5'
p235
sbatp236
Rp237
(dp238
g8
Vnsubj
p239
sbatp240
Rp241
(dp242
g8
S"word: 's, index: 2"
p243
sbatp244
Rp245
(dp246
g8
Vccomp
p247
sbag0
(g1
g2
(lp248
(lp249
S'word: there, index: 7'
p250
aatp251
Rp252
(dp253
g8
Vexpl
p254
sbag0
(g1
g2
(lp255
g0
(g1
g2
(lp256
g0
(g1
g2
(lp257
g135
atp258
Rp259
(dp260
g8
Vnsubj
p261
sbag0
(g1
g2
(lp262
g0
(g1
g2
(lp263
g0
(g1
g2
(lp264
g0
(g1
g2
(lp265
g0
(g1
g2
(lp266
(lp267
S'word: a, index: 25'
p268
aatp269
Rp270
(dp271
g8
Vdet
p272
sbatp273
Rp274
(dp275
g8
S'word: mom, index: 26'
p276
sbatp277
Rp278
(dp279
g8
Vnpadvmod
p280
sbatp281
Rp282
(dp283
g8
S'word: up, index: 27'
p284
sbatp285
Rp286
(dp287
g8
Vadvmod
p288
sbag0
(g1
g2
(lp289
(lp290
S'word: there, index: 28'
p291
aatp292
Rp293
(dp294
g8
Vadvmod
p295
sbag0
(g1
g2
(lp296
g0
(g1
g2
(lp297
g0
(g1
g2
(lp298
(lp299
S'word: that, index: 30'
p300
aatp301
Rp302
(dp303
g8
Vnsubj
p304
sbag0
(g1
g2
(lp305
(lp306
S"word: 's, index: 31"
p307
aatp308
Rp309
(dp310
g8
Vcop
p311
sbag0
(g1
g2
(lp312
(lp313
S'word: a, index: 32'
p314
aatp315
Rp316
(dp317
g8
Vdet
p318
sbatp319
Rp320
(dp321
g8
S'word: mom, index: 33'
p322
sbatp323
Rp324
(dp325
g8
Vccomp
p326
sbag0
(g1
g2
(lp327
(lp328
S'word: there, index: 23'
p329
aatp330
Rp331
(dp332
g8
Vexpl
p333
sbatp334
Rp335
(dp336
g8
S"word: 's, index: 24"
p337
sbatp338
Rp339
(dp340
g8
Vconj
p341
sbatp342
Rp343
(dp344
g8
S"word: 's, index: 8"
p345
sbatp346
Rp347
(dp348
g8
S'id: 3'
p349
sbag0
(g1
g2
(lp350
g0
(g1
g2
(lp351
g0
(g1
g2
(lp352
g0
(g1
g2
(lp353
g0
(g1
g2
(lp354
g0
(g1
g2
(lp355
g0
(g1
g2
(lp356
(lp357
S'word: there, index: 14'
p358
aatp359
Rp360
(dp361
g8
Vexpl
p362
sbag0
(g1
g2
(lp363
g0
(g1
g2
(lp364
g0
(g1
g2
(lp365
(lp366
S'word: the, index: 17'
p367
aatp368
Rp369
(dp370
g8
Vdet
p371
sbag0
(g1
g2
(lp372
(lp373
S'word: horse, index: 20'
p374
aatp375
Rp376
(dp377
g8
Vappos
p378
sbatp379
Rp380
(dp381
g8
S'word: house, index: 18'
p382
sbatp383
Rp384
(dp385
g8
Vprep
p386
sbatp387
Rp388
(dp389
g8
S'word: running, index: 15'
p390
sbatp391
Rp392
(dp393
g8
Vprepc
p394
sbag0
(g1
g2
(lp395
(lp396
S'word: that, index: 9'
p397
aatp398
Rp399
(dp400
g8
Vnsubj
p401
sbag0
(g1
g2
(lp402
(lp403
S"word: 's, index: 10"
p404
aatp405
Rp406
(dp407
g8
Vcop
p408
sbag0
(g1
g2
(lp409
(lp410
S'word: a, index: 11'
p411
aatp412
Rp413
(dp414
g8
Vdet
p415
sbatp416
Rp417
(dp418
g8
S'word: woman, index: 12'
p419
sbatp420
Rp421
(dp422
g8
Vconj
p423
sbag0
(g1
g2
(lp424
(lp425
S'word: now, index: 2'
p426
aatp427
Rp428
(dp429
g8
Vadvmod
p430
sbag0
(g1
g2
(lp431
(lp432
S'word: there, index: 3'
p433
aatp434
Rp435
(dp436
g8
Vexpl
p437
sbag0
(g1
g2
(lp438
g0
(g1
g2
(lp439
g0
(g1
g2
(lp440
(lp441
S'word: a, index: 5'
p442
aatp443
Rp444
(dp445
g8
Vdet
p446
sbatp447
Rp448
(dp449
g8
S'word: horse, index: 6'
p450
sbatp451
Rp452
(dp453
g8
Vnsubj
p454
sbatp455
Rp456
(dp457
g8
S"word: 's, index: 4"
p458
sbatp459
Rp460
(dp461
g8
S'id: 4'
p462
sbag0
(g1
g2
(lp463
g0
(g1
g2
(lp464
g0
(g1
g2
(lp465
(lp466
S'word: And, index: 1'
p467
aatp468
Rp469
(dp470
g8
Vcc
p471
sbag0
(g1
g2
(lp472
(lp473
S'word: there, index: 2'
p474
aatp475
Rp476
(dp477
g8
Vexpl
p478
sbag0
(g1
g2
(lp479
(lp480
S'word: they, index: 3'
p481
aatp482
Rp483
(dp484
g8
Vnsubj
p485
sbag0
(g1
g2
(lp486
g0
(g1
g2
(lp487
g0
(g1
g2
(lp488
(lp489
S'word: the, index: 6'
p490
aatp491
Rp492
(dp493
g8
Vdet
p494
sbatp495
Rp496
(dp497
g8
S'word: abute, index: 7'
p498
sbatp499
Rp500
(dp501
g8
Vprep
p502
sbatp503
Rp504
(dp505
g8
S'word: go, index: 4'
p506
sbatp507
Rp508
(dp509
g8
S'id: 5'
p510
sbag0
(g1
g2
(lp511
g0
(g1
g2
(lp512
g0
(g1
g2
(lp513
(lp514
S'word: this, index: 2'
p515
aatp516
Rp517
(dp518
g8
Vdet
p519
sbag0
(g1
g2
(lp520
g0
(g1
g2
(lp521
g0
(g1
g2
(lp522
(lp523
S'word: he, index: 4'
p524
aatp525
Rp526
(dp527
g8
Vnsubj
p528
sbag0
(g1
g2
(lp529
(lp530
S'word: just, index: 5'
p531
aatp532
Rp533
(dp534
g8
Vadvmod
p535
sbag0
(g1
g2
(lp536
(lp537
S'word: that, index: 7'
p538
aatp539
Rp540
(dp541
g8
Vnsubj
p542
sbag0
(g1
g2
(lp543
(lp544
S"word: 's, index: 8"
p545
aatp546
Rp547
(dp548
g8
Vcop
p549
sbag0
(g1
g2
(lp550
(lp551
S'word: clown, index: 11'
p552
aatp553
Rp554
(dp555
g8
Vappos
p556
sbatp557
Rp558
(dp559
g8
S'word: a, index: 9'
p560
sbatp561
Rp562
(dp563
g8
Vccomp
p564
sbag0
(g1
g2
(lp565
(lp566
S'word: And, index: 1'
p567
aatp568
Rp569
(dp570
g8
Vcc
p571
sbatp572
Rp573
(dp574
g8
S'word: guy, index: 3'
p575
sbatp576
Rp577
(dp578
g8
S'id: 6'
p579
sbag0
(g1
g2
(lp580
g0
(g1
g2
(lp581
g0
(g1
g2
(lp582
g0
(g1
g2
(lp583
g0
(g1
g2
(lp584
(lp585
S'word: the, index: 4'
p586
aatp587
Rp588
(dp589
g8
Vdet
p590
sbatp591
Rp592
(dp593
g8
S'word: stuff, index: 5'
p594
sbatp595
Rp596
(dp597
g8
Vdobj
p598
sbag0
(g1
g2
(lp599
g0
(g1
g2
(lp600
g0
(g1
g2
(lp601
(lp602
S'word: the, index: 7'
p603
aatp604
Rp605
(dp606
g8
Vdet
p607
sbag0
(g1
g2
(lp608
(lp609
S"word: 's, index: 9"
p610
aatp611
Rp612
(dp613
g8
Vpossessive
p614
sbatp615
Rp616
(dp617
g8
S'word: boy, index: 8'
p618
sbatp619
Rp620
(dp621
g8
Vprep
p622
sbag0
(g1
g2
(lp623
(lp624
S'word: He, index: 1'
p625
aatp626
Rp627
(dp628
g8
Vnsubj
p629
sbag0
(g1
g2
(lp630
(lp631
S"word: 's, index: 2"
p632
aatp633
Rp634
(dp635
g8
Vaux
p636
sbatp637
Rp638
(dp639
g8
S'word: throwing, index: 3'
p640
sbatp641
Rp642
(dp643
g8
S'id: 7'
p644
sbag0
(g1
g2
(lp645
g0
(g1
g2
(lp646
g0
(g1
g2
(lp647
(lp648
S'word: it, index: 10'
p649
aatp650
Rp651
(dp652
g8
Vnsubj
p653
sbag0
(g1
g2
(lp654
(lp655
S'word: lion, index: 12'
p656
aatp657
Rp658
(dp659
g8
Vdep
p660
sbag0
(g1
g2
(lp661
g0
(g1
g2
(lp662
g0
(g1
g2
(lp663
(lp664
S'word: And, index: 1'
p665
aatp666
Rp667
(dp668
g8
Vcc
p669
sbag0
(g1
g2
(lp670
(lp671
S'word: now, index: 2'
p672
aatp673
Rp674
(dp675
g8
Vadvmod
p676
sbag0
(g1
g2
(lp677
(lp678
S'word: there, index: 3'
p679
aatp680
Rp681
(dp682
g8
Vexpl
p683
sbag0
(g1
g2
(lp684
g0
(g1
g2
(lp685
g0
(g1
g2
(lp686
(lp687
S'word: lion, index: 8'
p688
aatp689
Rp690
(dp691
g8
Vappos
p692
sbag0
(g1
g2
(lp693
(lp694
S'word: a, index: 5'
p695
aatp696
Rp697
(dp698
g8
Vdet
p699
sbatp700
Rp701
(dp702
g8
S'word: lin, index: 6'
p703
sbatp704
Rp705
(dp706
g8
Vnsubj
p707
sbatp708
Rp709
(dp710
g8
S"word: 's, index: 4"
p711
sbatp712
Rp713
(dp714
g8
Vccomp
p715
sbatp716
Rp717
(dp718
g8
S"word: 's, index: 11"
p719
sbatp720
Rp721
(dp722
g8
S'id: 8'
p723
sbag0
(g1
g2
(lp724
g0
(g1
g2
(lp725
g0
(g1
g2
(lp726
(lp727
S'word: that, index: 2'
p728
aatp729
Rp730
(dp731
g8
Vnsubj
p732
sbag0
(g1
g2
(lp733
(lp734
S"word: 's, index: 3"
p735
aatp736
Rp737
(dp738
g8
Vcop
p739
sbag0
(g1
g2
(lp740
(lp741
S'word: a, index: 4'
p742
aatp743
Rp744
(dp745
g8
Vdet
p746
sbag0
(g1
g2
(lp747
g0
(g1
g2
(lp748
g0
(g1
g2
(lp749
g0
(g1
g2
(lp750
g0
(g1
g2
(lp751
(lp752
S'word: his, index: 12'
p753
aatp754
Rp755
(dp756
g8
Vposs
p757
sbatp758
Rp759
(dp760
g8
S'word: house, index: 13'
p761
sbatp762
Rp763
(dp764
g8
Vprep
p765
sbag0
(g1
g2
(lp766
(lp767
S'word: that, index: 9'
p768
aatp769
Rp770
(dp771
g8
Vnsubj
p772
sbatp773
Rp774
(dp775
g8
S"word: 's, index: 10"
p776
sbatp777
Rp778
(dp779
g8
Vconj
p780
sbatp781
Rp782
(dp783
g8
S'word: man, index: 5'
p784
sbatp785
Rp786
(dp787
g8
S'id: 9'
p788
sbag0
(g1
g2
(lp789
g0
(g1
g2
(lp790
g0
(g1
g2
(lp791
(lp792
S'word: he, index: 2'
p793
aatp794
Rp795
(dp796
g8
Vnsubj
p797
sbag0
(g1
g2
(lp798
g0
(g1
g2
(lp799
g0
(g1
g2
(lp800
(lp801
S'word: the, index: 5'
p802
aatp803
Rp804
(dp805
g8
Vdet
p806
sbatp807
Rp808
(dp809
g8
S'word: lion, index: 6'
p810
sbatp811
Rp812
(dp813
g8
Vprep
p814
sbag0
(g1
g2
(lp815
g0
(g1
g2
(lp816
g0
(g1
g2
(lp817
(lp818
S'word: that, index: 9'
p819
aatp820
Rp821
(dp822
g8
Vnsubj
p823
sbag0
(g1
g2
(lp824
(lp825
S"word: 's, index: 10"
p826
aatp827
Rp828
(dp829
g8
Vcop
p830
sbag0
(g1
g2
(lp831
(lp832
S'word: a, index: 11'
p833
aatp834
Rp835
(dp836
g8
Vdet
p837
sbag0
(g1
g2
(lp838
(lp839
S'word: big, index: 12'
p840
aatp841
Rp842
(dp843
g8
Vamod
p844
sbatp845
Rp846
(dp847
g8
S'word: lion, index: 13'
p848
sbatp849
Rp850
(dp851
g8
Vconj
p852
sbatp853
Rp854
(dp855
g8
S"word: 's, index: 3"
p856
sbatp857
Rp858
(dp859
g8
S'id: 10'
p860
sbag0
(g1
g2
(lp861
g0
(g1
g2
(lp862
g0
(g1
g2
(lp863
(lp864
S'word: He, index: 1'
p865
aatp866
Rp867
(dp868
g8
Vnsubjpass
p869
sbag0
(g1
g2
(lp870
(lp871
S"word: 's, index: 2"
p872
aatp873
Rp874
(dp875
g8
Vauxpass
p876
sbag0
(g1
g2
(lp877
g0
(g1
g2
(lp878
g0
(g1
g2
(lp879
(lp880
S'word: the, index: 4'
p881
aatp882
Rp883
(dp884
g8
Vdet
p885
sbag0
(g1
g2
(lp886
(lp887
S'word: lion, index: 7'
p888
aatp889
Rp890
(dp891
g8
Vconj
p892
sbag0
(g1
g2
(lp893
g0
(g1
g2
(lp894
g0
(g1
g2
(lp895
(lp896
S'word: the, index: 9'
p897
aatp898
Rp899
(dp900
g8
Vdet
p901
sbag0
(g1
g2
(lp902
(lp903
S'word: pair, index: 10'
p904
aatp905
Rp906
(dp907
g8
Vnn
p908
sbag0
(g1
g2
(lp909
(lp910
S'word: p-a-i, index: 12'
p911
aatp912
Rp913
(dp914
g8
Vdep
p915
sbatp916
Rp917
(dp918
g8
S'word: pair, index: 14'
p919
sbatp920
Rp921
(dp922
g8
Vconj
p923
sbatp924
Rp925
(dp926
g8
S'word: lon, index: 5'
p927
sbatp928
Rp929
(dp930
g8
Vdobj
p931
sbag0
(g1
g2
(lp932
(lp933
S'word: lion, index: 7'
p934
aatp935
Rp936
(dp937
g8
Vdobj
p938
sbag0
(g1
g2
(lp939
g917
atp940
Rp941
(dp942
g8
Vdobj
p943
sbatp944
Rp945
(dp946
g8
S'word: got, index: 3'
p947
sbatp948
Rp949
(dp950
g8
S'id: 11'
p951
sbag0
(g1
g2
(lp952
g0
(g1
g2
(lp953
g0
(g1
g2
(lp954
g0
(g1
g2
(lp955
g0
(g1
g2
(lp956
(lp957
S'word: these, index: 7'
p958
aatp959
Rp960
(dp961
g8
Vnsubj
p962
sbag0
(g1
g2
(lp963
(lp964
S'word: are, index: 8'
p965
aatp966
Rp967
(dp968
g8
Vcop
p969
sbag0
(g1
g2
(lp970
(lp971
S'word: the, index: 9'
p972
aatp973
Rp974
(dp975
g8
Vdet
p976
sbatp977
Rp978
(dp979
g8
S'word: bars, index: 10'
p980
sbatp981
Rp982
(dp983
g8
Vconj
p984
sbag0
(g1
g2
(lp985
(lp986
S'word: That, index: 1'
p987
aatp988
Rp989
(dp990
g8
Vnsubj
p991
sbag0
(g1
g2
(lp992
(lp993
S"word: 's, index: 2"
p994
aatp995
Rp996
(dp997
g8
Vcop
p998
sbag0
(g1
g2
(lp999
(lp1000
S'word: a, index: 3'
p1001
aatp1002
Rp1003
(dp1004
g8
Vdet
p1005
sbatp1006
Rp1007
(dp1008
g8
S'word: man, index: 4'
p1009
sbatp1010
Rp1011
(dp1012
g8
S'id: 12'
p1013
sbag0
(g1
g2
(lp1014
g0
(g1
g2
(lp1015
g0
(g1
g2
(lp1016
g0
(g1
g2
(lp1017
g0
(g1
g2
(lp1018
(lp1019
S'word: the, index: 10'
p1020
aatp1021
Rp1022
(dp1023
g8
Vdet
p1024
sbag0
(g1
g2
(lp1025
(lp1026
S'word: up, index: 12'
p1027
aatp1028
Rp1029
(dp1030
g8
Vdep
p1031
sbag0
(g1
g2
(lp1032
g0
(g1
g2
(lp1033
g0
(g1
g2
(lp1034
(lp1035
S'word: the, index: 14'
p1036
aatp1037
Rp1038
(dp1039
g8
Vdet
p1040
sbatp1041
Rp1042
(dp1043
g8
S'word: water, index: 15'
p1044
sbatp1045
Rp1046
(dp1047
g8
Vpobj
p1048
sbatp1049
Rp1050
(dp1051
g8
S'word: in, index: 13'
p1052
sbatp1053
Rp1054
(dp1055
g8
Vdobj
p1056
sbag0
(g1
g2
(lp1057
(lp1058
S'word: And, index: 1'
p1059
aatp1060
Rp1061
(dp1062
g8
Vcc
p1063
sbag0
(g1
g2
(lp1064
g0
(g1
g2
(lp1065
g0
(g1
g2
(lp1066
(lp1067
S'word: woman, index: 8'
p1068
aatp1069
Rp1070
(dp1071
g8
Vappos
p1072
sbag0
(g1
g2
(lp1073
(lp1074
S'word: and, index: 3'
p1075
aatp1076
Rp1077
(dp1078
g8
Vcc
p1079
sbag0
(g1
g2
(lp1080
(lp1081
S'word: here, index: 4'
p1082
aatp1083
Rp1084
(dp1085
g8
Vposs
p1086
sbatp1087
Rp1088
(dp1089
g8
S'word: man, index: 6'
p1090
sbatp1091
Rp1092
(dp1093
g8
Vnsubj
p1094
sbatp1095
Rp1096
(dp1097
g8
S'word: watching, index: 9'
p1098
sbatp1099
Rp1100
(dp1101
g8
S'id: 13'
p1102
sbag0
(g1
g2
(lp1103
g0
(g1
g2
(lp1104
g0
(g1
g2
(lp1105
(lp1106
S'word: And, index: 1'
p1107
aatp1108
Rp1109
(dp1110
g8
Vcc
p1111
sbag0
(g1
g2
(lp1112
(lp1113
S'word: that, index: 2'
p1114
aatp1115
Rp1116
(dp1117
g8
Vnsubj
p1118
sbag0
(g1
g2
(lp1119
(lp1120
S"word: 's, index: 3"
p1121
aatp1122
Rp1123
(dp1124
g8
Vcop
p1125
sbag0
(g1
g2
(lp1126
(lp1127
S'word: a, index: 4'
p1128
aatp1129
Rp1130
(dp1131
g8
Vdet
p1132
sbatp1133
Rp1134
(dp1135
g8
S'word: man, index: 5'
p1136
sbatp1137
Rp1138
(dp1139
g8
S'id: 14'
p1140
sbag0
(g1
g2
(lp1141
g0
(g1
g2
(lp1142
g0
(g1
g2
(lp1143
(lp1144
S'word: And, index: 1'
p1145
aatp1146
Rp1147
(dp1148
g8
Vcc
p1149
sbag0
(g1
g2
(lp1150
(lp1151
S'word: that, index: 2'
p1152
aatp1153
Rp1154
(dp1155
g8
Vnsubj
p1156
sbag0
(g1
g2
(lp1157
(lp1158
S"word: 's, index: 3"
p1159
aatp1160
Rp1161
(dp1162
g8
Vcop
p1163
sbag0
(g1
g2
(lp1164
(lp1165
S'word: the, index: 4'
p1166
aatp1167
Rp1168
(dp1169
g8
Vdet
p1170
sbag0
(g1
g2
(lp1171
(lp1172
S'word: that, index: 7'
p1173
aatp1174
Rp1175
(dp1176
g8
Vadvmod
p1177
sbatp1178
Rp1179
(dp1180
g8
S'word: small, index: 5'
p1181
sbatp1182
Rp1183
(dp1184
g8
S'id: 15'
p1185
sbag0
(g1
g2
(lp1186
g0
(g1
g2
(lp1187
g0
(g1
g2
(lp1188
(lp1189
S'word: And, index: 1'
p1190
aatp1191
Rp1192
(dp1193
g8
Vcc
p1194
sbag0
(g1
g2
(lp1195
g0
(g1
g2
(lp1196
g0
(g1
g2
(lp1197
(lp1198
S'word: that, index: 5'
p1199
aatp1200
Rp1201
(dp1202
g8
Vconj
p1203
sbatp1204
Rp1205
(dp1206
g8
S'word: I, index: 2'
p1207
sbatp1208
Rp1209
(dp1210
g8
Vnsubj
p1211
sbag0
(g1
g2
(lp1212
(lp1213
S'word: that, index: 5'
p1214
aatp1215
Rp1216
(dp1217
g8
Vnsubj
p1218
sbag0
(g1
g2
(lp1219
(lp1220
S"word: 's, index: 6"
p1221
aatp1222
Rp1223
(dp1224
g8
Vcop
p1225
sbag0
(g1
g2
(lp1226
(lp1227
S'word: a, index: 7'
p1228
aatp1229
Rp1230
(dp1231
g8
Vdet
p1232
sbatp1233
Rp1234
(dp1235
g8
S'word: man, index: 8'
p1236
sbatp1237
Rp1238
(dp1239
g8
S'id: 16'
p1240
sbag0
(g1
g2
(lp1241
g0
(g1
g2
(lp1242
g0
(g1
g2
(lp1243
g0
(g1
g2
(lp1244
g0
(g1
g2
(lp1245
(lp1246
S'word: I, index: 5'
p1247
aatp1248
Rp1249
(dp1250
g8
Vnsubj
p1251
sbag0
(g1
g2
(lp1252
g0
(g1
g2
(lp1253
g0
(g1
g2
(lp1254
(lp1255
S'word: I, index: 5'
p1256
aatp1257
Rp1258
(dp1259
g8
Vnsubj
p1260
sbag0
(g1
g2
(lp1261
g0
(g1
g2
(lp1262
g0
(g1
g2
(lp1263
(lp1264
S'word: that, index: 23'
p1265
aatp1266
Rp1267
(dp1268
g8
Vnsubj
p1269
sbag0
(g1
g2
(lp1270
(lp1271
S"word: 's, index: 24"
p1272
aatp1273
Rp1274
(dp1275
g8
Vcop
p1276
sbag0
(g1
g2
(lp1277
(lp1278
S'word: pretty, index: 25'
p1279
aatp1280
Rp1281
(dp1282
g8
Vadvmod
p1283
sbatp1284
Rp1285
(dp1286
g8
S'word: nice, index: 26'
p1287
sbatp1288
Rp1289
(dp1290
g8
Vccomp
p1291
sbatp1292
Rp1293
(dp1294
g8
S'word: yeah, index: 22'
p1295
sbatp1296
Rp1297
(dp1298
g8
Vconj
p1299
sbag0
(g1
g2
(lp1300
g0
(g1
g2
(lp1301
g0
(g1
g2
(lp1302
(lp1303
S'word: him, index: 8'
p1304
aatp1305
Rp1306
(dp1307
g8
Vdobj
p1308
sbag0
(g1
g2
(lp1309
g0
(g1
g2
(lp1310
g0
(g1
g2
(lp1311
g0
(g1
g2
(lp1312
g0
(g1
g2
(lp1313
(lp1314
S'word: what, index: 9'
p1315
aatp1316
Rp1317
(dp1318
g8
Vdet
p1319
sbag0
(g1
g2
(lp1320
(lp1321
S'word: the, index: 10'
p1322
aatp1323
Rp1324
(dp1325
g8
Vdet
p1326
sbatp1327
Rp1328
(dp1329
g8
S'word: name, index: 11'
p1330
sbatp1331
Rp1332
(dp1333
g8
Vdobj
p1334
sbag0
(g1
g2
(lp1335
(lp1336
S'word: he, index: 13'
p1337
aatp1338
Rp1339
(dp1340
g8
Vnsubjpass
p1341
sbag0
(g1
g2
(lp1342
(lp1343
S"word: 's, index: 14"
p1344
aatp1345
Rp1346
(dp1347
g8
Vauxpass
p1348
sbag0
(g1
g2
(lp1349
g0
(g1
g2
(lp1350
g0
(g1
g2
(lp1351
(lp1352
S'word: remember, index: 19'
p1353
aatp1354
Rp1355
(dp1356
g8
Vrcmod
p1357
sbag0
(g1
g2
(lp1358
(lp1359
S'word: i, index: 17'
p1360
aatp1361
Rp1362
(dp1363
g8
Vnn
p1364
sbatp1365
Rp1366
(dp1367
g8
S'word: cant, index: 18'
p1368
sbatp1369
Rp1370
(dp1371
g8
Vdobj
p1372
sbatp1373
Rp1374
(dp1375
g8
S'word: supposed, index: 15'
p1376
sbatp1377
Rp1378
(dp1379
g8
Vdep
p1380
sbatp1381
Rp1382
(dp1383
g8
S'word: give, index: 7'
p1384
sbatp1385
Rp1386
(dp1387
g8
Vxcomp
p1388
sbatp1389
Rp1390
(dp1391
g8
S'word: cant, index: 6'
p1392
sbatp1393
Rp1394
(dp1395
g8
Vccomp
p1396
sbag0
(g1
g2
(lp1397
g1293
atp1398
Rp1399
(dp1400
g8
Vccomp
p1401
sbag0
(g1
g2
(lp1402
(lp1403
S'word: And, index: 1'
p1404
aatp1405
Rp1406
(dp1407
g8
Vcc
p1408
sbag0
(g1
g2
(lp1409
(lp1410
S'word: that, index: 2'
p1411
aatp1412
Rp1413
(dp1414
g8
Vnsubj
p1415
sbatp1416
Rp1417
(dp1418
g8
S"word: 's, index: 3"
p1419
sbatp1420
Rp1421
(dp1422
g8
S'id: 17'
p1423
sbag0
(g1
g2
(lp1424
g0
(g1
g2
(lp1425
g0
(g1
g2
(lp1426
(lp1427
S'word: thats, index: 6'
p1428
aatp1429
Rp1430
(dp1431
g8
Vdep
p1432
sbag0
(g1
g2
(lp1433
(lp1434
S'word: in, index: 9'
p1435
aatp1436
Rp1437
(dp1438
g8
Vprep
p1439
sbag0
(g1
g2
(lp1440
(lp1441
S'word: And, index: 1'
p1442
aatp1443
Rp1444
(dp1445
g8
Vcc
p1446
sbag0
(g1
g2
(lp1447
(lp1448
S'word: but, index: 2'
p1449
aatp1450
Rp1451
(dp1452
g8
Vadvmod
p1453
sbag0
(g1
g2
(lp1454
(lp1455
S'word: he, index: 3'
p1456
aatp1457
Rp1458
(dp1459
g8
Vnsubj
p1460
sbag0
(g1
g2
(lp1461
(lp1462
S"word: 's, index: 4"
p1463
aatp1464
Rp1465
(dp1466
g8
Vcop
p1467
sbatp1468
Rp1469
(dp1470
g8
S'word: thats, index: 8'
p1471
sbatp1472
Rp1473
(dp1474
g8
S'id: 18'
p1475
sbatp1476
Rp1477
(dp1478
g8
S'sentences'
p1479
sb.