ccopy_reg
_reconstructor
p0
(cnltk.tree
Tree
p1
c__builtin__
list
p2
(lp3
g0
(g1
g2
(lp4
g0
(g1
g2
(lp5
g0
(g1
g2
(lp6
g0
(g1
g2
(lp7
g0
(g1
g2
(lp8
Vok
p9
atp10
Rp11
(dp12
S'_label'
p13
VNN
p14
sbatp15
Rp16
(dp17
g13
VNP
p18
sbag0
(g1
g2
(lp19
g0
(g1
g2
(lp20
g0
(g1
g2
(lp21
g0
(g1
g2
(lp22
Vthis
p23
atp24
Rp25
(dp26
g13
VDT
p27
sbatp28
Rp29
(dp30
g13
VNP
p31
sbag0
(g1
g2
(lp32
g0
(g1
g2
(lp33
Vis
p34
atp35
Rp36
(dp37
g13
VVBZ
p38
sbag0
(g1
g2
(lp39
g0
(g1
g2
(lp40
Vat
p41
atp42
Rp43
(dp44
g13
VIN
p45
sbag0
(g1
g2
(lp46
g0
(g1
g2
(lp47
Vthe
p48
atp49
Rp50
(dp51
g13
VDT
p52
sbag0
(g1
g2
(lp53
Vlake
p54
atp55
Rp56
(dp57
g13
VNN
p58
sbag0
(g1
g2
(lp59
Vhouse
p60
atp61
Rp62
(dp63
g13
VNN
p64
sbatp65
Rp66
(dp67
g13
VNP
p68
sbatp69
Rp70
(dp71
g13
VPP
p72
sbatp73
Rp74
(dp75
g13
VVP
p76
sbatp77
Rp78
(dp79
g13
VS
p80
sbatp81
Rp82
(dp83
g13
VSBAR
p84
sbatp85
Rp86
(dp87
g13
VNP
p88
sbag0
(g1
g2
(lp89
g0
(g1
g2
(lp90
Vis
p91
atp92
Rp93
(dp94
g13
VVBZ
p95
sbag0
(g1
g2
(lp96
g0
(g1
g2
(lp97
Vup
p98
atp99
Rp100
(dp101
g13
VRB
p102
sbag0
(g1
g2
(lp103
g0
(g1
g2
(lp104
Von
p105
atp106
Rp107
(dp108
g13
VIN
p109
sbag0
(g1
g2
(lp110
g0
(g1
g2
(lp111
Vthe
p112
atp113
Rp114
(dp115
g13
VDT
p116
sbag0
(g1
g2
(lp117
Vpoint
p118
atp119
Rp120
(dp121
g13
VNN
p122
sbatp123
Rp124
(dp125
g13
VNP
p126
sbatp127
Rp128
(dp129
g13
VPP
p130
sbatp131
Rp132
(dp133
g13
VADVP
p134
sbag0
(g1
g2
(lp135
g0
(g1
g2
(lp136
Vthere
p137
atp138
Rp139
(dp140
g13
VRB
p141
sbatp142
Rp143
(dp144
g13
VADVP
p145
sbatp146
Rp147
(dp148
g13
VVP
p149
sbag0
(g1
g2
(lp150
V.
p151
atp152
Rp153
(dp154
g13
V.
p155
sbatp156
Rp157
(dp158
g13
VS
p159
sbatp160
Rp161
(dp162
g13
S'id: 0'
p163
sbag0
(g1
g2
(lp164
g0
(g1
g2
(lp165
g0
(g1
g2
(lp166
g0
(g1
g2
(lp167
Vgot
p168
atp169
Rp170
(dp171
g13
VVBD
p172
sbag0
(g1
g2
(lp173
g0
(g1
g2
(lp174
Va
p175
atp176
Rp177
(dp178
g13
VDT
p179
sbag0
(g1
g2
(lp180
Vflag
p181
atp182
Rp183
(dp184
g13
VNN
p185
sbag0
(g1
g2
(lp186
Vpole
p187
atp188
Rp189
(dp190
g13
VNN
p191
sbatp192
Rp193
(dp194
g13
VNP
p195
sbatp196
Rp197
(dp198
g13
VVP
p199
sbag0
(g1
g2
(lp200
V.
p201
atp202
Rp203
(dp204
g13
V.
p205
sbatp206
Rp207
(dp208
g13
VS
p209
sbatp210
Rp211
(dp212
g13
S'id: 1'
p213
sbag0
(g1
g2
(lp214
g0
(g1
g2
(lp215
g0
(g1
g2
(lp216
g0
(g1
g2
(lp217
Vhave
p218
atp219
Rp220
(dp221
g13
VVB
p222
sbag0
(g1
g2
(lp223
g0
(g1
g2
(lp224
g0
(g1
g2
(lp225
Vyou
p226
atp227
Rp228
(dp229
g13
VPRP
p230
sbatp231
Rp232
(dp233
g13
VNP
p234
sbag0
(g1
g2
(lp235
g0
(g1
g2
(lp236
Vever
p237
atp238
Rp239
(dp240
g13
VRB
p241
sbatp242
Rp243
(dp244
g13
VADVP
p245
sbag0
(g1
g2
(lp246
g0
(g1
g2
(lp247
Vflown
p248
atp249
Rp250
(dp251
g13
VVBD
p252
sbag0
(g1
g2
(lp253
g0
(g1
g2
(lp254
Va
p255
atp256
Rp257
(dp258
g13
VDT
p259
sbag0
(g1
g2
(lp260
Vkite
p261
atp262
Rp263
(dp264
g13
VNN
p265
sbag0
(g1
g2
(lp266
Vor
p267
atp268
Rp269
(dp270
g13
VCC
p271
sbag0
(g1
g2
(lp272
Vanything
p273
atp274
Rp275
(dp276
g13
VNN
p277
sbatp278
Rp279
(dp280
g13
VNP
p281
sbatp282
Rp283
(dp284
g13
VVP
p285
sbatp286
Rp287
(dp288
g13
VS
p289
sbatp290
Rp291
(dp292
g13
VVP
p293
sbatp294
Rp295
(dp296
g13
VS
p297
sbatp298
Rp299
(dp300
g13
S'id: 2'
p301
sbatp302
Rp303
(dp304
g13
S'sentences'
p305
sb.