ccopy_reg
_reconstructor
p0
(cnltk.tree
Tree
p1
c__builtin__
list
p2
(lp3
g0
(g1
g2
(lp4
g0
(g1
g2
(lp5
g0
(g1
g2
(lp6
(lp7
S'word: We, index: 1'
p8
aatp9
Rp10
(dp11
S'_label'
p12
Vnsubj
p13
sbag0
(g1
g2
(lp14
(lp15
S'word: a, index: 3'
p16
aatp17
Rp18
(dp19
g12
Vdobj
p20
sbag0
(g1
g2
(lp21
g0
(g1
g2
(lp22
g0
(g1
g2
(lp23
(lp24
S'word: it, index: 5'
p25
aatp26
Rp27
(dp28
g12
Vnsubj
p29
sbag0
(g1
g2
(lp30
(lp31
S"word: 's, index: 6"
p32
aatp33
Rp34
(dp35
g12
Vcop
p36
sbag0
(g1
g2
(lp37
(lp38
S'word: not, index: 7'
p39
aatp40
Rp41
(dp42
g12
Vneg
p43
sbag0
(g1
g2
(lp44
(lp45
S'word: a, index: 8'
p46
aatp47
Rp48
(dp49
g12
Vdet
p50
sbag0
(g1
g2
(lp51
g0
(g1
g2
(lp52
g0
(g1
g2
(lp53
(lp54
S'word: this, index: 10'
p55
aatp56
Rp57
(dp58
g12
Vdep
p59
sbatp60
Rp61
(dp62
g12
S'word: dark, index: 9'
p63
sbatp64
Rp65
(dp66
g12
Vamod
p67
sbatp68
Rp69
(dp70
g12
S'word: time, index: 11'
p71
sbatp72
Rp73
(dp74
g12
Vdep
p75
sbag0
(g1
g2
(lp76
(lp77
S'word: so, index: 13'
p78
aatp79
Rp80
(dp81
g12
Vdep
p82
sbag0
(g1
g2
(lp83
g0
(g1
g2
(lp84
g0
(g1
g2
(lp85
g0
(g1
g2
(lp86
g0
(g1
g2
(lp87
(lp88
S'word: like, index: 16'
p89
aatp90
Rp91
(dp92
g12
Vmark
p93
sbag0
(g1
g2
(lp94
(lp95
S'word: it, index: 17'
p96
aatp97
Rp98
(dp99
g12
Vnsubjpass
p100
sbag0
(g1
g2
(lp101
(lp102
S'word: has, index: 18'
p103
aatp104
Rp105
(dp106
g12
Vaux
p107
sbag0
(g1
g2
(lp108
(lp109
S'word: been, index: 19'
p110
aatp111
Rp112
(dp113
g12
Vauxpass
p114
sbag0
(g1
g2
(lp115
g0
(g1
g2
(lp116
g0
(g1
g2
(lp117
(lp118
S'word: a, index: 22'
p119
aatp120
Rp121
(dp122
g12
Vdet
p123
sbag0
(g1
g2
(lp124
(lp125
S'word: different, index: 23'
p126
aatp127
Rp128
(dp129
g12
Vamod
p130
sbatp131
Rp132
(dp133
g12
S'word: artist, index: 24'
p134
sbatp135
Rp136
(dp137
g12
Vagent
p138
sbatp139
Rp140
(dp141
g12
S'word: done, index: 20'
p142
sbatp143
Rp144
(dp145
g12
Vadvcl
p146
sbag0
(g1
g2
(lp147
(lp148
S'word: it, index: 14'
p149
aatp150
Rp151
(dp152
g12
Vnsubj
p153
sbatp154
Rp155
(dp156
g12
S'word: looks, index: 15'
p157
sbatp158
Rp159
(dp160
g12
Vparataxis
p161
sbatp162
Rp163
(dp164
g12
S'word: have, index: 2'
p165
sbatp166
Rp167
(dp168
g12
S'id: 0'
p169
sbag0
(g1
g2
(lp170
g0
(g1
g2
(lp171
g0
(g1
g2
(lp172
g0
(g1
g2
(lp173
g0
(g1
g2
(lp174
(lp175
S'word: A, index: 1'
p176
aatp177
Rp178
(dp179
g12
Vdet
p180
sbag0
(g1
g2
(lp181
(lp182
S'word: young, index: 2'
p183
aatp184
Rp185
(dp186
g12
Vamod
p187
sbatp188
Rp189
(dp190
g12
S'word: man, index: 3'
p191
sbatp192
Rp193
(dp194
g12
Vnsubj
p195
sbag0
(g1
g2
(lp196
(lp197
S'word: is, index: 4'
p198
aatp199
Rp200
(dp201
g12
Vcop
p202
sbag0
(g1
g2
(lp203
(lp204
S'word: flying, index: 6'
p205
aatp206
Rp207
(dp208
g12
Vvmod
p209
sbatp210
Rp211
(dp212
g12
S'word: kite, index: 5'
p213
sbatp214
Rp215
(dp216
g12
S'id: 1'
p217
sbag0
(g1
g2
(lp218
g0
(g1
g2
(lp219
g0
(g1
g2
(lp220
g0
(g1
g2
(lp221
g0
(g1
g2
(lp222
g0
(g1
g2
(lp223
g0
(g1
g2
(lp224
(lp225
S'word: the, index: 8'
p226
aatp227
Rp228
(dp229
g12
Vdet
p230
sbatp231
Rp232
(dp233
g12
S'word: lake, index: 9'
p234
sbatp235
Rp236
(dp237
g12
Vprep
p238
sbag0
(g1
g2
(lp239
(lp240
S'word: a, index: 4'
p241
aatp242
Rp243
(dp244
g12
Vdet
p245
sbag0
(g1
g2
(lp246
(lp247
S'word: sail, index: 5'
p248
aatp249
Rp250
(dp251
g12
Vnn
p252
sbatp253
Rp254
(dp255
g12
S'word: boat, index: 6'
p256
sbatp257
Rp258
(dp259
g12
Vnsubj
p260
sbag0
(g1
g2
(lp261
(lp262
S'word: And, index: 1'
p263
aatp264
Rp265
(dp266
g12
Vcc
p267
sbag0
(g1
g2
(lp268
(lp269
S'word: there, index: 2'
p270
aatp271
Rp272
(dp273
g12
Vexpl
p274
sbatp275
Rp276
(dp277
g12
S"word: 's, index: 3"
p278
sbatp279
Rp280
(dp281
g12
S'id: 2'
p282
sbag0
(g1
g2
(lp283
g0
(g1
g2
(lp284
g0
(g1
g2
(lp285
(lp286
S'word: too, index: 9'
p287
aatp288
Rp289
(dp290
g12
Vadvmod
p291
sbag0
(g1
g2
(lp292
(lp293
S'word: And, index: 1'
p294
aatp295
Rp296
(dp297
g12
Vcc
p298
sbag0
(g1
g2
(lp299
g0
(g1
g2
(lp300
g0
(g1
g2
(lp301
(lp302
S'word: somebody, index: 2'
p303
aatp304
Rp305
(dp306
g12
Vposs
p307
sbatp308
Rp309
(dp310
g12
S'word: fishing, index: 4'
p311
sbatp312
Rp313
(dp314
g12
Vnsubj
p315
sbag0
(g1
g2
(lp316
g0
(g1
g2
(lp317
g0
(g1
g2
(lp318
(lp319
S'word: a, index: 7'
p320
aatp321
Rp322
(dp323
g12
Vdet
p324
sbatp325
Rp326
(dp327
g12
S'word: fish, index: 8'
p328
sbatp329
Rp330
(dp331
g12
Vdobj
p332
sbatp333
Rp334
(dp335
g12
S'word: caught, index: 6'
p336
sbatp337
Rp338
(dp339
g12
S'id: 3'
p340
sbag0
(g1
g2
(lp341
g0
(g1
g2
(lp342
g0
(g1
g2
(lp343
(lp344
S'word: that, index: 3'
p345
aatp346
Rp347
(dp348
g12
Vprep
p349
sbatp350
Rp351
(dp352
g12
S'word: how, index: 1'
p353
sbatp354
Rp355
(dp356
g12
S'id: 4'
p357
sbatp358
Rp359
(dp360
g12
S'sentences'
p361
sb.