ccopy_reg
_reconstructor
p0
(cnltk.tree
Tree
p1
c__builtin__
list
p2
(lp3
g0
(g1
g2
(lp4
g0
(g1
g2
(lp5
g0
(g1
g2
(lp6
(lp7
S'word: the, index: 1'
p8
aatp9
Rp10
(dp11
S'_label'
p12
Vtmod
p13
sbag0
(g1
g2
(lp14
g0
(g1
g2
(lp15
g0
(g1
g2
(lp16
(lp17
S'word: their, index: 3'
p18
aatp19
Rp20
(dp21
g12
Vposs
p22
sbatp23
Rp24
(dp25
g12
S'word: family, index: 4'
p26
sbatp27
Rp28
(dp29
g12
Vnsubj
p30
sbag0
(g1
g2
(lp31
(lp32
S'word: is, index: 5'
p33
aatp34
Rp35
(dp36
g12
Vaux
p37
sbag0
(g1
g2
(lp38
g0
(g1
g2
(lp39
g0
(g1
g2
(lp40
(lp41
S'word: a, index: 7'
p42
aatp43
Rp44
(dp45
g12
Vdet
p46
sbatp47
Rp48
(dp49
g12
S'word: circus, index: 8'
p50
sbatp51
Rp52
(dp53
g12
Vdobj
p54
sbatp55
Rp56
(dp57
g12
S'word: enjoying, index: 6'
p58
sbatp59
Rp60
(dp61
g12
S'id: 0'
p62
sbag0
(g1
g2
(lp63
g0
(g1
g2
(lp64
g0
(g1
g2
(lp65
g0
(g1
g2
(lp66
g0
(g1
g2
(lp67
(lp68
S'word: two, index: 2'
p69
aatp70
Rp71
(dp72
g12
Vnum
p73
sbatp74
Rp75
(dp76
g12
S'word: families, index: 3'
p77
sbatp78
Rp79
(dp80
g12
Vnsubj
p81
sbag0
(g1
g2
(lp82
(lp83
S'word: are, index: 4'
p84
aatp85
Rp86
(dp87
g12
Vcop
p88
sbag0
(g1
g2
(lp89
g0
(g1
g2
(lp90
g0
(g1
g2
(lp91
g0
(g1
g2
(lp92
g0
(g1
g2
(lp93
(lp94
S'word: the, index: 9'
p95
aatp96
Rp97
(dp98
g12
Vdet
p99
sbatp100
Rp101
(dp102
g12
S'word: picture, index: 10'
p103
sbatp104
Rp105
(dp106
g12
Vprep
p107
sbag0
(g1
g2
(lp108
g0
(g1
g2
(lp109
g0
(g1
g2
(lp110
(lp111
S'word: many, index: 13'
p112
aatp113
Rp114
(dp115
g12
Vamod
p116
sbatp117
Rp118
(dp119
g12
S'word: more, index: 14'
p120
sbatp121
Rp122
(dp123
g12
Vconj
p124
sbatp125
Rp126
(dp127
g12
S'word: three, index: 7'
p128
sbatp129
Rp130
(dp131
g12
Vdep
p132
sbag0
(g1
g2
(lp133
g118
atp134
Rp135
(dp136
g12
Vdep
p137
sbag0
(g1
g2
(lp138
(lp139
S'word: actually, index: 1'
p140
aatp141
Rp142
(dp143
g12
Vadvmod
p144
sbatp145
Rp146
(dp147
g12
S'word: unseen, index: 15'
p148
sbatp149
Rp150
(dp151
g12
S'id: 1'
p152
sbag0
(g1
g2
(lp153
g0
(g1
g2
(lp154
g0
(g1
g2
(lp155
g0
(g1
g2
(lp156
g0
(g1
g2
(lp157
(lp158
S'word: a, index: 7'
p159
aatp160
Rp161
(dp162
g12
Vdet
p163
sbag0
(g1
g2
(lp164
g0
(g1
g2
(lp165
g0
(g1
g2
(lp166
(lp167
S'word: also, index: 11'
p168
aatp169
Rp170
(dp171
g12
Vadvmod
p172
sbag0
(g1
g2
(lp173
(lp174
S'word: a, index: 12'
p175
aatp176
Rp177
(dp178
g12
Vdet
p179
sbag0
(g1
g2
(lp180
g0
(g1
g2
(lp181
g0
(g1
g2
(lp182
(lp183
S'word: a, index: 15'
p184
aatp185
Rp186
(dp187
g12
Vdet
p188
sbatp189
Rp190
(dp191
g12
S'word: horse, index: 16'
p192
sbatp193
Rp194
(dp195
g12
Vprep
p196
sbatp197
Rp198
(dp199
g12
S'word: lady, index: 13'
p200
sbatp201
Rp202
(dp203
g12
Vconj
p204
sbag0
(g1
g2
(lp205
g0
(g1
g2
(lp206
g0
(g1
g2
(lp207
g0
(g1
g2
(lp208
g0
(g1
g2
(lp209
(lp210
S'word: a, index: 19'
p211
aatp212
Rp213
(dp214
g12
Vdet
p215
sbag0
(g1
g2
(lp216
(lp217
S'word: ballet-ballerina, index: 20'
p218
aatp219
Rp220
(dp221
g12
Vnn
p222
sbatp223
Rp224
(dp225
g12
S'word: suit, index: 21'
p226
sbatp227
Rp228
(dp229
g12
Vpobj
p230
sbatp231
Rp232
(dp233
g12
S'word: in, index: 18'
p234
sbatp235
Rp236
(dp237
g12
Vdep
p238
sbatp239
Rp240
(dp241
g12
S'word: juggler, index: 8'
p242
sbatp243
Rp244
(dp245
g12
Vccomp
p246
sbag0
(g1
g2
(lp247
g0
(g1
g2
(lp248
g0
(g1
g2
(lp249
(lp250
S'word: there, index: 24'
p251
aatp252
Rp253
(dp254
g12
Vexpl
p255
sbag0
(g1
g2
(lp256
g0
(g1
g2
(lp257
g0
(g1
g2
(lp258
(lp259
S'word: a, index: 26'
p260
aatp261
Rp262
(dp263
g12
Vdet
p264
sbag0
(g1
g2
(lp265
g0
(g1
g2
(lp266
g0
(g1
g2
(lp267
g0
(g1
g2
(lp268
g0
(g1
g2
(lp269
(lp270
S'word: the, index: 29'
p271
aatp272
Rp273
(dp274
g12
Vdet
p275
sbatp276
Rp277
(dp278
g12
S'word: lion, index: 30'
p279
sbatp280
Rp281
(dp282
g12
Vposs
p283
sbatp284
Rp285
(dp286
g12
S'word: den, index: 32'
p287
sbatp288
Rp289
(dp290
g12
Vprep
p291
sbag0
(g1
g2
(lp292
g0
(g1
g2
(lp293
g0
(g1
g2
(lp294
(lp295
S'word: orders, index: 38'
p296
aatp297
Rp298
(dp299
g12
Vdobj
p300
sbag0
(g1
g2
(lp301
(lp302
S'word: that, index: 33'
p303
aatp304
Rp305
(dp306
g12
Vnsubj
p307
sbag0
(g1
g2
(lp308
(lp309
S'word: is, index: 34'
p310
aatp311
Rp312
(dp313
g12
Vaux
p314
sbag0
(g1
g2
(lp315
g0
(g1
g2
(lp316
g0
(g1
g2
(lp317
(lp318
S'word: the, index: 36'
p319
aatp320
Rp321
(dp322
g12
Vdet
p323
sbatp324
Rp325
(dp326
g12
S'word: lion, index: 37'
p327
sbatp328
Rp329
(dp330
g12
Viobj
p331
sbatp332
Rp333
(dp334
g12
S'word: giving, index: 35'
p335
sbatp336
Rp337
(dp338
g12
Vrcmod
p339
sbatp340
Rp341
(dp342
g12
S'word: trainer, index: 27'
p343
sbatp344
Rp345
(dp346
g12
Vnsubj
p347
sbatp348
Rp349
(dp350
g12
S"word: 's, index: 25"
p351
sbatp352
Rp353
(dp354
g12
Vconj
p355
sbag0
(g1
g2
(lp356
g198
atp357
Rp358
(dp359
g12
Vccomp
p360
sbag0
(g1
g2
(lp361
(lp362
S'word: There, index: 1'
p363
aatp364
Rp365
(dp366
g12
Vexpl
p367
sbag0
(g1
g2
(lp368
g0
(g1
g2
(lp369
g0
(g1
g2
(lp370
g0
(g1
g2
(lp371
g0
(g1
g2
(lp372
(lp373
S'word: a, index: 3'
p374
aatp375
Rp376
(dp377
g12
Vdet
p378
sbatp379
Rp380
(dp381
g12
S'word: clown, index: 4'
p382
sbatp383
Rp384
(dp385
g12
Vnpadvmod
p386
sbatp387
Rp388
(dp389
g12
S'word: entertaining, index: 5'
p390
sbatp391
Rp392
(dp393
g12
Vacomp
p394
sbatp395
Rp396
(dp397
g12
S"word: 's, index: 2"
p398
sbatp399
Rp400
(dp401
g12
S'id: 2'
p402
sbag0
(g1
g2
(lp403
g0
(g1
g2
(lp404
g0
(g1
g2
(lp405
g0
(g1
g2
(lp406
g0
(g1
g2
(lp407
g0
(g1
g2
(lp408
g0
(g1
g2
(lp409
(lp410
S'word: her, index: 9'
p411
aatp412
Rp413
(dp414
g12
Vposs
p415
sbatp416
Rp417
(dp418
g12
S'word: dad, index: 10'
p419
sbatp420
Rp421
(dp422
g12
Vprep
p423
sbag0
(g1
g2
(lp424
(lp425
S'word: to, index: 12'
p426
aatp427
Rp428
(dp429
g12
Vaux
p430
sbag0
(g1
g2
(lp431
g0
(g1
g2
(lp432
g0
(g1
g2
(lp433
(lp434
S'word: the, index: 15'
p435
aatp436
Rp437
(dp438
g12
Vdet
p439
sbatp440
Rp441
(dp442
g12
S'word: clown, index: 16'
p443
sbatp444
Rp445
(dp446
g12
Vprep
p447
sbatp448
Rp449
(dp450
g12
S'word: look, index: 13'
p451
sbatp452
Rp453
(dp454
g12
Vxcomp
p455
sbag0
(g1
g2
(lp456
g0
(g1
g2
(lp457
g0
(g1
g2
(lp458
(lp459
S'word: The, index: 1'
p460
aatp461
Rp462
(dp463
g12
Vdet
p464
sbag0
(g1
g2
(lp465
(lp466
S'word: little, index: 2'
p467
aatp468
Rp469
(dp470
g12
Vamod
p471
sbatp472
Rp473
(dp474
g12
S'word: girl, index: 3'
p475
sbatp476
Rp477
(dp478
g12
Vnsubj
p479
sbag0
(g1
g2
(lp480
(lp481
S'word: is, index: 4'
p482
aatp483
Rp484
(dp485
g12
Vaux
p486
sbag0
(g1
g2
(lp487
(lp488
S'word: her, index: 6'
p489
aatp490
Rp491
(dp492
g12
Vdobj
p493
sbatp494
Rp495
(dp496
g12
S'word: pointing, index: 5'
p497
sbatp498
Rp499
(dp500
g12
S'id: 3'
p501
sbag0
(g1
g2
(lp502
g0
(g1
g2
(lp503
g0
(g1
g2
(lp504
g0
(g1
g2
(lp505
g0
(g1
g2
(lp506
(lp507
S'word: is, index: 13'
p508
aatp509
Rp510
(dp511
g12
Vaux
p512
sbag0
(g1
g2
(lp513
g0
(g1
g2
(lp514
g0
(g1
g2
(lp515
(lp516
S'word: to, index: 15'
p517
aatp518
Rp519
(dp520
g12
Vaux
p521
sbatp522
Rp523
(dp524
g12
S'word: catch, index: 16'
p525
sbatp526
Rp527
(dp528
g12
Vxcomp
p529
sbatp530
Rp531
(dp532
g12
S'word: trying, index: 14'
p533
sbatp534
Rp535
(dp536
g12
Vparataxis
p537
sbag0
(g1
g2
(lp538
g0
(g1
g2
(lp539
g0
(g1
g2
(lp540
(lp541
S'word: The, index: 1'
p542
aatp543
Rp544
(dp545
g12
Vdet
p546
sbag0
(g1
g2
(lp547
(lp548
S'word: little, index: 2'
p549
aatp550
Rp551
(dp552
g12
Vamod
p553
sbag0
(g1
g2
(lp554
g0
(g1
g2
(lp555
g0
(g1
g2
(lp556
(lp557
S'word: that, index: 4'
p558
aatp559
Rp560
(dp561
g12
Vnsubj
p562
sbag0
(g1
g2
(lp563
g0
(g1
g2
(lp564
g0
(g1
g2
(lp565
(lp566
S'word: the, index: 7'
p567
aatp568
Rp569
(dp570
g12
Vdet
p571
sbag0
(g1
g2
(lp572
(lp573
S'word: opposite, index: 8'
p574
aatp575
Rp576
(dp577
g12
Vamod
p578
sbatp579
Rp580
(dp581
g12
S'word: family, index: 9'
p582
sbatp583
Rp584
(dp585
g12
Vprep
p586
sbatp587
Rp588
(dp589
g12
S'word: belongs, index: 5'
p590
sbatp591
Rp592
(dp593
g12
Vrcmod
p594
sbatp595
Rp596
(dp597
g12
S'word: boy, index: 3'
p598
sbatp599
Rp600
(dp601
g12
Vnsubj
p602
sbag0
(g1
g2
(lp603
g0
(g1
g2
(lp604
g0
(g1
g2
(lp605
(lp606
S'word: some, index: 18'
p607
aatp608
Rp609
(dp610
g12
Vdet
p611
sbag0
(g1
g2
(lp612
g0
(g1
g2
(lp613
g0
(g1
g2
(lp614
(lp615
S'word: that, index: 20'
p616
aatp617
Rp618
(dp619
g12
Vmark
p620
sbag0
(g1
g2
(lp621
g0
(g1
g2
(lp622
g0
(g1
g2
(lp623
(lp624
S'word: the, index: 21'
p625
aatp626
Rp627
(dp628
g12
Vdet
p629
sbatp630
Rp631
(dp632
g12
S'word: clown, index: 22'
p633
sbatp634
Rp635
(dp636
g12
Vnsubjpass
p637
sbag0
(g1
g2
(lp638
(lp639
S'word: is, index: 23'
p640
aatp641
Rp642
(dp643
g12
Vauxpass
p644
sbag0
(g1
g2
(lp645
(lp646
S'word: out, index: 25'
p647
aatp648
Rp649
(dp650
g12
Vprt
p651
sbatp652
Rp653
(dp654
g12
S'word: thrown, index: 24'
p655
sbatp656
Rp657
(dp658
g12
Vdep
p659
sbatp660
Rp661
(dp662
g12
S'word: candy, index: 19'
p663
sbatp664
Rp665
(dp666
g12
Vdobj
p667
sbag0
(g1
g2
(lp668
(lp669
S'word: is, index: 10'
p670
aatp671
Rp672
(dp673
g12
Vaux
p674
sbatp675
Rp676
(dp677
g12
S'word: catching, index: 11'
p678
sbatp679
Rp680
(dp681
g12
S'id: 4'
p682
sbag0
(g1
g2
(lp683
g0
(g1
g2
(lp684
g0
(g1
g2
(lp685
(lp686
S'word: is, index: 16'
p687
aatp688
Rp689
(dp690
g12
Vaux
p691
sbag0
(g1
g2
(lp692
g0
(g1
g2
(lp693
g0
(g1
g2
(lp694
(lp695
S'word: The, index: 1'
p696
aatp697
Rp698
(dp699
g12
Vdet
p700
sbag0
(g1
g2
(lp701
(lp702
S'word: other, index: 2'
p703
aatp704
Rp705
(dp706
g12
Vamod
p707
sbag0
(g1
g2
(lp708
g0
(g1
g2
(lp709
g0
(g1
g2
(lp710
(lp711
S'word: the, index: 5'
p712
aatp713
Rp714
(dp715
g12
Vdet
p716
sbatp717
Rp718
(dp719
g12
S'word: crowd, index: 6'
p720
sbatp721
Rp722
(dp723
g12
Vprep
p724
sbag0
(g1
g2
(lp725
g0
(g1
g2
(lp726
g0
(g1
g2
(lp727
(lp728
S'word: that, index: 8'
p729
aatp730
Rp731
(dp732
g12
Vmark
p733
sbag0
(g1
g2
(lp734
(lp735
S'word: you, index: 9'
p736
aatp737
Rp738
(dp739
g12
Vnsubj
p740
sbag0
(g1
g2
(lp741
(lp742
S'word: can, index: 10'
p743
aatp744
Rp745
(dp746
g12
Vaux
p747
sbag0
(g1
g2
(lp748
g0
(g1
g2
(lp749
g0
(g1
g2
(lp750
(lp751
S'word: the, index: 13'
p752
aatp753
Rp754
(dp755
g12
Vdet
p756
sbatp757
Rp758
(dp759
g12
S'word: distance, index: 14'
p760
sbatp761
Rp762
(dp763
g12
Vprep
p764
sbatp765
Rp766
(dp767
g12
S'word: see, index: 11'
p768
sbatp769
Rp770
(dp771
g12
Vdep
p772
sbatp773
Rp774
(dp775
g12
S'word: people, index: 3'
p776
sbatp777
Rp778
(dp779
g12
Vnsubj
p780
sbag0
(g1
g2
(lp781
g0
(g1
g2
(lp782
g0
(g1
g2
(lp783
(lp784
S'word: the, index: 18'
p785
aatp786
Rp787
(dp788
g12
Vdet
p789
sbag0
(g1
g2
(lp790
(lp791
S'word: tight, index: 19'
p792
aatp793
Rp794
(dp795
g12
Vamod
p796
sbag0
(g1
g2
(lp797
g0
(g1
g2
(lp798
g0
(g1
g2
(lp799
(lp800
S'word: rape, index: 22'
p801
aatp802
Rp803
(dp804
g12
Vnn
p805
sbatp806
Rp807
(dp808
g12
S'word: worker, index: 23'
p809
sbatp810
Rp811
(dp812
g12
Vappos
p813
sbag0
(g1
g2
(lp814
g0
(g1
g2
(lp815
g0
(g1
g2
(lp816
(lp817
S'word: that, index: 25'
p818
aatp819
Rp820
(dp821
g12
Vmark
p822
sbag0
(g1
g2
(lp823
(lp824
S'word: which, index: 26'
p825
aatp826
Rp827
(dp828
g12
Vnsubj
p829
sbag0
(g1
g2
(lp830
(lp831
S'word: is, index: 27'
p832
aatp833
Rp834
(dp835
g12
Vcop
p836
sbag0
(g1
g2
(lp837
(lp838
S'word: a, index: 28'
p839
aatp840
Rp841
(dp842
g12
Vdet
p843
sbag0
(g1
g2
(lp844
g0
(g1
g2
(lp845
g0
(g1
g2
(lp846
g0
(g1
g2
(lp847
g0
(g1
g2
(lp848
(lp849
S'word: the, index: 32'
p850
aatp851
Rp852
(dp853
g12
Vdet
p854
sbag0
(g1
g2
(lp855
(lp856
S'word: tight, index: 33'
p857
aatp858
Rp859
(dp860
g12
Vamod
p861
sbatp862
Rp863
(dp864
g12
S'word: rope, index: 34'
p865
sbatp866
Rp867
(dp868
g12
Vprep
p869
sbatp870
Rp871
(dp872
g12
S'word: walk, index: 30'
p873
sbatp874
Rp875
(dp876
g12
Vdep
p877
sbatp878
Rp879
(dp880
g12
S'word: man, index: 29'
p881
sbatp882
Rp883
(dp884
g12
Vdep
p885
sbatp886
Rp887
(dp888
g12
S'word: rape, index: 20'
p889
sbatp890
Rp891
(dp892
g12
Vdobj
p893
sbatp894
Rp895
(dp896
g12
S'word: watching, index: 17'
p897
sbatp898
Rp899
(dp900
g12
S'id: 5'
p901
sbag0
(g1
g2
(lp902
g0
(g1
g2
(lp903
g0
(g1
g2
(lp904
g0
(g1
g2
(lp905
g0
(g1
g2
(lp906
(lp907
S'word: The, index: 1'
p908
aatp909
Rp910
(dp911
g12
Vdet
p912
sbatp913
Rp914
(dp915
g12
S'word: mom, index: 2'
p916
sbatp917
Rp918
(dp919
g12
Vnsubj
p920
sbag0
(g1
g2
(lp921
(lp922
S'word: is, index: 3'
p923
aatp924
Rp925
(dp926
g12
Vaux
p927
sbag0
(g1
g2
(lp928
g0
(g1
g2
(lp929
g0
(g1
g2
(lp930
(lp931
S'word: the, index: 5'
p932
aatp933
Rp934
(dp935
g12
Vdet
p936
sbag0
(g1
g2
(lp937
(lp938
S'word: little, index: 6'
p939
aatp940
Rp941
(dp942
g12
Vamod
p943
sbatp944
Rp945
(dp946
g12
S'word: girl, index: 7'
p947
sbatp948
Rp949
(dp950
g12
Vdobj
p951
sbag0
(g1
g2
(lp952
g0
(g1
g2
(lp953
g0
(g1
g2
(lp954
(lp955
S'word: she, index: 10'
p956
aatp957
Rp958
(dp959
g12
Vnsubj
p960
sbag0
(g1
g2
(lp961
(lp962
S'word: is, index: 11'
p963
aatp964
Rp965
(dp966
g12
Vaux
p967
sbag0
(g1
g2
(lp968
(lp969
S'word: is, index: 12'
p970
aatp971
Rp972
(dp973
g12
Vaux
p974
sbag0
(g1
g2
(lp975
g0
(g1
g2
(lp976
g0
(g1
g2
(lp977
(lp978
S'word: she, index: 10'
p979
aatp980
Rp981
(dp982
g12
Vnsubj
p983
sbag0
(g1
g2
(lp984
g0
(g1
g2
(lp985
g0
(g1
g2
(lp986
(lp987
S'word: too, index: 17'
p988
aatp989
Rp990
(dp991
g12
Vadvmod
p992
sbatp993
Rp994
(dp995
g12
S'word: fun, index: 16'
p996
sbatp997
Rp998
(dp999
g12
Vdobj
p1000
sbatp1001
Rp1002
(dp1003
g12
S'word: having, index: 15'
p1004
sbatp1005
Rp1006
(dp1007
g12
Vconj
p1008
sbatp1009
Rp1010
(dp1011
g12
S'word: smiling, index: 13'
p1012
sbatp1013
Rp1014
(dp1015
g12
Vconj
p1016
sbag0
(g1
g2
(lp1017
g1002
atp1018
Rp1019
(dp1020
g12
Vconj
p1021
sbatp1022
Rp1023
(dp1024
g12
S'word: holding, index: 4'
p1025
sbatp1026
Rp1027
(dp1028
g12
S'id: 6'
p1029
sbag0
(g1
g2
(lp1030
g0
(g1
g2
(lp1031
g0
(g1
g2
(lp1032
(lp1033
S'word: are, index: 11'
p1034
aatp1035
Rp1036
(dp1037
g12
Vaux
p1038
sbag0
(g1
g2
(lp1039
g0
(g1
g2
(lp1040
g0
(g1
g2
(lp1041
g0
(g1
g2
(lp1042
g0
(g1
g2
(lp1043
(lp1044
S'word: you, index: 5'
p1045
aatp1046
Rp1047
(dp1048
g12
Vnsubj
p1049
sbag0
(g1
g2
(lp1050
(lp1051
S'word: can, index: 6'
p1052
aatp1053
Rp1054
(dp1055
g12
Vaux
p1056
sbag0
(g1
g2
(lp1057
g0
(g1
g2
(lp1058
g0
(g1
g2
(lp1059
(lp1060
S'word: their, index: 8'
p1061
aatp1062
Rp1063
(dp1064
g12
Vposs
p1065
sbatp1066
Rp1067
(dp1068
g12
S'word: faces, index: 9'
p1069
sbatp1070
Rp1071
(dp1072
g12
Vdobj
p1073
sbag0
(g1
g2
(lp1074
(lp1075
S'word: that, index: 4'
p1076
aatp1077
Rp1078
(dp1079
g12
Vmark
p1080
sbatp1081
Rp1082
(dp1083
g12
S'word: see, index: 7'
p1084
sbatp1085
Rp1086
(dp1087
g12
Vdep
p1088
sbag0
(g1
g2
(lp1089
(lp1090
S'word: All, index: 1'
p1091
aatp1092
Rp1093
(dp1094
g12
Vdet
p1095
sbatp1096
Rp1097
(dp1098
g12
S'word: people, index: 2'
p1099
sbatp1100
Rp1101
(dp1102
g12
Vnsubj
p1103
sbatp1104
Rp1105
(dp1106
g12
S'word: smiling, index: 12'
p1107
sbatp1108
Rp1109
(dp1110
g12
S'id: 7'
p1111
sbag0
(g1
g2
(lp1112
g0
(g1
g2
(lp1113
g0
(g1
g2
(lp1114
g0
(g1
g2
(lp1115
g0
(g1
g2
(lp1116
g0
(g1
g2
(lp1117
g0
(g1
g2
(lp1118
(lp1119
S'word: to, index: 11'
p1120
aatp1121
Rp1122
(dp1123
g12
Vaux
p1124
sbag0
(g1
g2
(lp1125
(lp1126
S'word: be, index: 12'
p1127
aatp1128
Rp1129
(dp1130
g12
Vaux
p1131
sbag0
(g1
g2
(lp1132
g0
(g1
g2
(lp1133
g0
(g1
g2
(lp1134
(lp1135
S'word: the, index: 14'
p1136
aatp1137
Rp1138
(dp1139
g12
Vdet
p1140
sbatp1141
Rp1142
(dp1143
g12
S'word: time, index: 15'
p1144
sbatp1145
Rp1146
(dp1147
g12
Vdobj
p1148
sbatp1149
Rp1150
(dp1151
g12
S'word: enjoy, index: 13'
p1152
sbatp1153
Rp1154
(dp1155
g12
Vxcomp
p1156
sbag0
(g1
g2
(lp1157
(lp1158
S'word: that, index: 3'
p1159
aatp1160
Rp1161
(dp1162
g12
Vmark
p1163
sbag0
(g1
g2
(lp1164
g0
(g1
g2
(lp1165
g0
(g1
g2
(lp1166
(lp1167
S'word: the, index: 4'
p1168
aatp1169
Rp1170
(dp1171
g12
Vdet
p1172
sbag0
(g1
g2
(lp1173
g0
(g1
g2
(lp1174
g0
(g1
g2
(lp1175
(lp1176
S'word: as, index: 8'
p1177
aatp1178
Rp1179
(dp1180
g12
Vadvmod
p1181
sbatp1182
Rp1183
(dp1184
g12
S'word: tha, index: 7'
p1185
sbatp1186
Rp1187
(dp1188
g12
Vappos
p1189
sbatp1190
Rp1191
(dp1192
g12
S'word: spectadas, index: 5'
p1193
sbatp1194
Rp1195
(dp1196
g12
Vnsubj
p1197
sbatp1198
Rp1199
(dp1200
g12
S'word: seem, index: 10'
p1201
sbatp1202
Rp1203
(dp1204
g12
Vccomp
p1205
sbag0
(g1
g2
(lp1206
(lp1207
S'word: And, index: 1'
p1208
aatp1209
Rp1210
(dp1211
g12
Vcc
p1212
sbatp1213
Rp1214
(dp1215
g12
S'word: seems, index: 2'
p1216
sbatp1217
Rp1218
(dp1219
g12
S'id: 8'
p1220
sbag0
(g1
g2
(lp1221
g0
(g1
g2
(lp1222
g0
(g1
g2
(lp1223
(lp1224
S'word: There, index: 1'
p1225
aatp1226
Rp1227
(dp1228
g12
Vexpl
p1229
sbatp1230
Rp1231
(dp1232
g12
S"word: 's, index: 2"
p1233
sbatp1234
Rp1235
(dp1236
g12
S'id: 9'
p1237
sbatp1238
Rp1239
(dp1240
g12
S'sentences'
p1241
sb.