ccopy_reg
_reconstructor
p0
(cnltk.tree
Tree
p1
c__builtin__
list
p2
(lp3
g0
(g1
g2
(lp4
g0
(g1
g2
(lp5
g0
(g1
g2
(lp6
Va man in a top hat
p7
atp8
Rp9
(dp10
S'_label'
p11
S'start: 3'
p12
sbatp13
Rp14
(dp15
g11
S'sent: 3'
p16
sbag0
(g1
g2
(lp17
g0
(g1
g2
(lp18
Vhim
p19
atp20
Rp21
(dp22
g11
S'start: 4'
p23
sbatp24
Rp25
(dp26
g11
S'sent: 4'
p27
sbatp28
Rp29
(dp30
g11
S'id: 5'
p31
sbag0
(g1
g2
(lp32
g0
(g1
g2
(lp33
g0
(g1
g2
(lp34
Vthe high wire
p35
atp36
Rp37
(dp38
g11
S'start: 14'
p39
sbatp40
Rp41
(dp42
g11
S'sent: 5'
p43
sbag0
(g1
g2
(lp44
g0
(g1
g2
(lp45
Vit
p46
atp47
Rp48
(dp49
g11
S'start: 20'
p50
sbatp51
Rp52
(dp53
g11
S'sent: 5'
p54
sbatp55
Rp56
(dp57
g11
S'id: 13'
p58
sbag0
(g1
g2
(lp59
g0
(g1
g2
(lp60
g0
(g1
g2
(lp61
Va tutu doing tricks on a horse in the , in the little circular arena , type play thing
p62
atp63
Rp64
(dp65
g11
S'start: 6'
p66
sbatp67
Rp68
(dp69
g11
S'sent: 6'
p70
sbag0
(g1
g2
(lp71
g0
(g1
g2
(lp72
Vhis
p73
atp74
Rp75
(dp76
g11
S'start: 14'
p77
sbatp78
Rp79
(dp80
g11
S'sent: 7'
p81
sbatp82
Rp83
(dp84
g11
S'id: 17'
p85
sbag0
(g1
g2
(lp86
g0
(g1
g2
(lp87
g0
(g1
g2
(lp88
Vthe little circular arena
p89
atp90
Rp91
(dp92
g11
S'start: 17'
p93
sbatp94
Rp95
(dp96
g11
S'sent: 6'
p97
sbag0
(g1
g2
(lp98
g0
(g1
g2
(lp99
Vtype play thing
p100
atp101
Rp102
(dp103
g11
S'start: 22'
p104
sbatp105
Rp106
(dp107
g11
S'sent: 6'
p108
sbag0
(g1
g2
(lp109
g0
(g1
g2
(lp110
Vhis thing
p111
atp112
Rp113
(dp114
g11
S'start: 17'
p115
sbatp116
Rp117
(dp118
g11
S'sent: 12'
p119
sbatp120
Rp121
(dp122
g11
S'id: 22'
p123
sbag0
(g1
g2
(lp124
g0
(g1
g2
(lp125
g0
(g1
g2
(lp126
Vfront of all this
p127
atp128
Rp129
(dp130
g11
S'start: 2'
p131
sbatp132
Rp133
(dp134
g11
S'sent: 7'
p135
sbag0
(g1
g2
(lp136
g0
(g1
g2
(lp137
Vit
p138
atp139
Rp140
(dp141
g11
S'start: 4'
p142
sbatp143
Rp144
(dp145
g11
S'sent: 8'
p146
sbag0
(g1
g2
(lp147
g0
(g1
g2
(lp148
Va red nose
p149
atp150
Rp151
(dp152
g11
S'start: 6'
p153
sbatp154
Rp155
(dp156
g11
S'sent: 8'
p157
sbag0
(g1
g2
(lp158
g0
(g1
g2
(lp159
Vthe front
p160
atp161
Rp162
(dp163
g11
S'start: 4'
p164
sbatp165
Rp166
(dp167
g11
S'sent: 13'
p168
sbatp169
Rp170
(dp171
g11
S'id: 24'
p172
sbag0
(g1
g2
(lp173
g0
(g1
g2
(lp174
g0
(g1
g2
(lp175
Va clown who has a flower in his hair , and has a nose
p176
atp177
Rp178
(dp179
g11
S'start: 7'
p180
sbatp181
Rp182
(dp183
g11
S'sent: 7'
p184
sbag0
(g1
g2
(lp185
g0
(g1
g2
(lp186
Vhe
p187
atp188
Rp189
(dp190
g11
S'start: 2'
p191
sbatp192
Rp193
(dp194
g11
S'sent: 9'
p195
sbag0
(g1
g2
(lp196
g0
(g1
g2
(lp197
Vhis
p198
atp199
Rp200
(dp201
g11
S'start: 5'
p202
sbatp203
Rp204
(dp205
g11
S'sent: 9'
p206
sbatp207
Rp208
(dp209
g11
S'id: 25'
p210
sbag0
(g1
g2
(lp211
g0
(g1
g2
(lp212
g0
(g1
g2
(lp213
Vwater on the kids
p214
atp215
Rp216
(dp217
g11
S'start: 2'
p218
sbatp219
Rp220
(dp221
g11
S'sent: 10'
p222
sbag0
(g1
g2
(lp223
g0
(g1
g2
(lp224
Vit
p225
atp226
Rp227
(dp228
g11
S'start: 13'
p229
sbatp230
Rp231
(dp232
g11
S'sent: 10'
p233
sbag0
(g1
g2
(lp234
g0
(g1
g2
(lp235
Vit
p236
atp237
Rp238
(dp239
g11
S'start: 18'
p240
sbatp241
Rp242
(dp243
g11
S'sent: 10'
p244
sbatp245
Rp246
(dp247
g11
S'id: 37'
p248
sbag0
(g1
g2
(lp249
g0
(g1
g2
(lp250
g0
(g1
g2
(lp251
Vthe kids
p252
atp253
Rp254
(dp255
g11
S'start: 4'
p256
sbatp257
Rp258
(dp259
g11
S'sent: 10'
p260
sbag0
(g1
g2
(lp261
g0
(g1
g2
(lp262
Vthem
p263
atp264
Rp265
(dp266
g11
S'start: 15'
p267
sbatp268
Rp269
(dp270
g11
S'sent: 10'
p271
sbatp272
Rp273
(dp274
g11
S'id: 38'
p275
sbag0
(g1
g2
(lp276
g0
(g1
g2
(lp277
g0
(g1
g2
(lp278
Vtwo three
p279
atp280
Rp281
(dp282
g11
S'start: 5'
p283
sbatp284
Rp285
(dp286
g11
S'sent: 11'
p287
sbag0
(g1
g2
(lp288
g0
(g1
g2
(lp289
Vthree
p290
atp291
Rp292
(dp293
g11
S'start: 8'
p294
sbatp295
Rp296
(dp297
g11
S'sent: 11'
p298
sbatp299
Rp300
(dp301
g11
S'id: 44'
p302
sbag0
(g1
g2
(lp303
g0
(g1
g2
(lp304
g0
(g1
g2
(lp305
Vthe high wire guy
p306
atp307
Rp308
(dp309
g11
S'start: 12'
p310
sbatp311
Rp312
(dp313
g11
S'sent: 12'
p314
sbag0
(g1
g2
(lp315
g0
(g1
g2
(lp316
Vhis
p317
atp318
Rp319
(dp320
g11
S'start: 17'
p321
sbatp322
Rp323
(dp324
g11
S'sent: 12'
p325
sbatp326
Rp327
(dp328
g11
S'id: 54'
p329
sbatp330
Rp331
(dp332
g11
S'coreferences'
p333
sb.