ccopy_reg
_reconstructor
p0
(cnltk.tree
Tree
p1
c__builtin__
list
p2
(lp3
g0
(g1
g2
(lp4
g0
(g1
g2
(lp5
g0
(g1
g2
(lp6
g0
(g1
g2
(lp7
g0
(g1
g2
(lp8
Vok
p9
atp10
Rp11
(dp12
S'_label'
p13
VNN
p14
sbatp15
Rp16
(dp17
g13
VNP
p18
sbag0
(g1
g2
(lp19
g0
(g1
g2
(lp20
g0
(g1
g2
(lp21
Vthat
p22
atp23
Rp24
(dp25
g13
VWDT
p26
sbatp27
Rp28
(dp29
g13
VWHNP
p30
sbag0
(g1
g2
(lp31
g0
(g1
g2
(lp32
g0
(g1
g2
(lp33
Vis
p34
atp35
Rp36
(dp37
g13
VVBZ
p38
sbag0
(g1
g2
(lp39
g0
(g1
g2
(lp40
Va
p41
atp42
Rp43
(dp44
g13
VDT
p45
sbag0
(g1
g2
(lp46
Vbig
p47
atp48
Rp49
(dp50
g13
VJJ
p51
sbag0
(g1
g2
(lp52
Vone
p53
atp54
Rp55
(dp56
g13
VNN
p57
sbatp58
Rp59
(dp60
g13
VNP
p61
sbatp62
Rp63
(dp64
g13
VVP
p65
sbatp66
Rp67
(dp68
g13
VS
p69
sbatp70
Rp71
(dp72
g13
VSBAR
p73
sbatp74
Rp75
(dp76
g13
VNP
p77
sbag0
(g1
g2
(lp78
V.
p79
atp80
Rp81
(dp82
g13
V.
p83
sbatp84
Rp85
(dp86
g13
VFRAG
p87
sbatp88
Rp89
(dp90
g13
S'id: 0'
p91
sbag0
(g1
g2
(lp92
g0
(g1
g2
(lp93
g0
(g1
g2
(lp94
g0
(g1
g2
(lp95
VAlright
p96
atp97
Rp98
(dp99
g13
VNNP
p100
sbatp101
Rp102
(dp103
g13
VNP
p104
sbag0
(g1
g2
(lp105
V.
p106
atp107
Rp108
(dp109
g13
V.
p110
sbatp111
Rp112
(dp113
g13
VFRAG
p114
sbatp115
Rp116
(dp117
g13
S'id: 1'
p118
sbag0
(g1
g2
(lp119
g0
(g1
g2
(lp120
g0
(g1
g2
(lp121
g0
(g1
g2
(lp122
g0
(g1
g2
(lp123
g0
(g1
g2
(lp124
VThe
p125
atp126
Rp127
(dp128
g13
VDT
p129
sbag0
(g1
g2
(lp130
Vman
p131
atp132
Rp133
(dp134
g13
VNN
p135
sbatp136
Rp137
(dp138
g13
VNP
p139
sbag0
(g1
g2
(lp140
Vand
p141
atp142
Rp143
(dp144
g13
VCC
p145
sbag0
(g1
g2
(lp146
g0
(g1
g2
(lp147
Va
p148
atp149
Rp150
(dp151
g13
VDT
p152
sbag0
(g1
g2
(lp153
Vwoman
p154
atp155
Rp156
(dp157
g13
VNN
p158
sbatp159
Rp160
(dp161
g13
VNP
p162
sbatp163
Rp164
(dp165
g13
VNP
p166
sbag0
(g1
g2
(lp167
g0
(g1
g2
(lp168
Vare
p169
atp170
Rp171
(dp172
g13
VVBP
p173
sbag0
(g1
g2
(lp174
g0
(g1
g2
(lp175
g0
(g1
g2
(lp176
Voutside
p177
atp178
Rp179
(dp180
g13
VJJ
p181
sbatp182
Rp183
(dp184
g13
VADVP
p185
sbag0
(g1
g2
(lp186
Veating
p187
atp188
Rp189
(dp190
g13
VVBG
p191
sbag0
(g1
g2
(lp192
g0
(g1
g2
(lp193
Vfood
p194
atp195
Rp196
(dp197
g13
VNN
p198
sbatp199
Rp200
(dp201
g13
VNP
p202
sbag0
(g1
g2
(lp203
V,
p204
atp205
Rp206
(dp207
g13
V,
p208
sbag0
(g1
g2
(lp209
g0
(g1
g2
(lp210
Voutside
p211
atp212
Rp213
(dp214
g13
VJJ
p215
sbatp216
Rp217
(dp218
g13
VADVP
p219
sbatp220
Rp221
(dp222
g13
VVP
p223
sbatp224
Rp225
(dp226
g13
VVP
p227
sbatp228
Rp229
(dp230
g13
VS
p231
sbag0
(g1
g2
(lp232
Vand
p233
atp234
Rp235
(dp236
g13
VCC
p237
sbag0
(g1
g2
(lp238
g0
(g1
g2
(lp239
g0
(g1
g2
(lp240
Vthey
p241
atp242
Rp243
(dp244
g13
VPRP
p245
sbatp246
Rp247
(dp248
g13
VNP
p249
sbag0
(g1
g2
(lp250
g0
(g1
g2
(lp251
Vgot
p252
atp253
Rp254
(dp255
g13
VVBD
p256
sbag0
(g1
g2
(lp257
g0
(g1
g2
(lp258
Vthe
p259
atp260
Rp261
(dp262
g13
VDT
p263
sbag0
(g1
g2
(lp264
Vlittle
p265
atp266
Rp267
(dp268
g13
VJJ
p269
sbatp270
Rp271
(dp272
g13
VNP
p273
sbag0
(g1
g2
(lp274
g0
(g1
g2
(lp275
g0
(g1
g2
(lp276
Vlistening
p277
atp278
Rp279
(dp280
g13
VVBG
p281
sbag0
(g1
g2
(lp282
g0
(g1
g2
(lp283
Vto
p284
atp285
Rp286
(dp287
g13
VTO
p288
sbag0
(g1
g2
(lp289
g0
(g1
g2
(lp290
Vsinging
p291
atp292
Rp293
(dp294
g13
VNN
p295
sbatp296
Rp297
(dp298
g13
VNP
p299
sbatp300
Rp301
(dp302
g13
VPP
p303
sbatp304
Rp305
(dp306
g13
VVP
p307
sbatp308
Rp309
(dp310
g13
VS
p311
sbatp312
Rp313
(dp314
g13
VVP
p315
sbatp316
Rp317
(dp318
g13
VS
p319
sbag0
(g1
g2
(lp320
V.
p321
atp322
Rp323
(dp324
g13
V.
p325
sbatp326
Rp327
(dp328
g13
VS
p329
sbatp330
Rp331
(dp332
g13
S'id: 2'
p333
sbag0
(g1
g2
(lp334
g0
(g1
g2
(lp335
g0
(g1
g2
(lp336
g0
(g1
g2
(lp337
VAnd
p338
atp339
Rp340
(dp341
g13
VCC
p342
sbag0
(g1
g2
(lp343
g0
(g1
g2
(lp344
g0
(g1
g2
(lp345
Vit
p346
atp347
Rp348
(dp349
g13
VPRP
p350
sbatp351
Rp352
(dp353
g13
VNP
p354
sbag0
(g1
g2
(lp355
g0
(g1
g2
(lp356
Vin
p357
atp358
Rp359
(dp360
g13
VIN
p361
sbag0
(g1
g2
(lp362
g0
(g1
g2
(lp363
g0
(g1
g2
(lp364
Vfront
p365
atp366
Rp367
(dp368
g13
VNN
p369
sbatp370
Rp371
(dp372
g13
VNP
p373
sbag0
(g1
g2
(lp374
g0
(g1
g2
(lp375
Vof
p376
atp377
Rp378
(dp379
g13
VIN
p380
sbag0
(g1
g2
(lp381
g0
(g1
g2
(lp382
g0
(g1
g2
(lp383
Vtheir
p384
atp385
Rp386
(dp387
g13
VPRP$
p388
sbag0
(g1
g2
(lp389
Vhouse
p390
atp391
Rp392
(dp393
g13
VNN
p394
sbatp395
Rp396
(dp397
g13
VNP
p398
sbag0
(g1
g2
(lp399
V,
p400
atp401
Rp402
(dp403
g13
V,
p404
sbag0
(g1
g2
(lp405
g0
(g1
g2
(lp406
Vi
p407
atp408
Rp409
(dp410
g13
VFW
p411
sbag0
(g1
g2
(lp412
Vdont
p413
atp414
Rp415
(dp416
g13
VFW
p417
sbatp418
Rp419
(dp420
g13
VNP
p421
sbatp422
Rp423
(dp424
g13
VNP
p425
sbatp426
Rp427
(dp428
g13
VPP
p429
sbatp430
Rp431
(dp432
g13
VNP
p433
sbatp434
Rp435
(dp436
g13
VPP
p437
sbatp438
Rp439
(dp440
g13
VNP
p441
sbag0
(g1
g2
(lp442
g0
(g1
g2
(lp443
Vknow
p444
atp445
Rp446
(dp447
g13
VVBP
p448
sbag0
(g1
g2
(lp449
g0
(g1
g2
(lp450
g0
(g1
g2
(lp451
Vwhy
p452
atp453
Rp454
(dp455
g13
VWRB
p456
sbatp457
Rp458
(dp459
g13
VWHADVP
p460
sbag0
(g1
g2
(lp461
g0
(g1
g2
(lp462
g0
(g1
g2
(lp463
Vthey
p464
atp465
Rp466
(dp467
g13
VPRP
p468
sbatp469
Rp470
(dp471
g13
VNP
p472
sbag0
(g1
g2
(lp473
g0
(g1
g2
(lp474
Vare
p475
atp476
Rp477
(dp478
g13
VVBP
p479
sbag0
(g1
g2
(lp480
g0
(g1
g2
(lp481
Vdoing
p482
atp483
Rp484
(dp485
g13
VVBG
p486
sbag0
(g1
g2
(lp487
g0
(g1
g2
(lp488
Voutside
p489
atp490
Rp491
(dp492
g13
VIN
p493
sbag0
(g1
g2
(lp494
g0
(g1
g2
(lp495
Vthe
p496
atp497
Rp498
(dp499
g13
VDT
p500
sbag0
(g1
g2
(lp501
Vhouse
p502
atp503
Rp504
(dp505
g13
VNN
p506
sbatp507
Rp508
(dp509
g13
VNP
p510
sbatp511
Rp512
(dp513
g13
VPP
p514
sbatp515
Rp516
(dp517
g13
VVP
p518
sbatp519
Rp520
(dp521
g13
VVP
p522
sbatp523
Rp524
(dp525
g13
VS
p526
sbatp527
Rp528
(dp529
g13
VSBAR
p530
sbatp531
Rp532
(dp533
g13
VVP
p534
sbatp535
Rp536
(dp537
g13
VS
p538
sbag0
(g1
g2
(lp539
V,
p540
atp541
Rp542
(dp543
g13
V,
p544
sbag0
(g1
g2
(lp545
Vbut
p546
atp547
Rp548
(dp549
g13
VCC
p550
sbag0
(g1
g2
(lp551
g0
(g1
g2
(lp552
g0
(g1
g2
(lp553
Vthey
p554
atp555
Rp556
(dp557
g13
VPRP
p558
sbatp559
Rp560
(dp561
g13
VNP
p562
sbag0
(g1
g2
(lp563
g0
(g1
g2
(lp564
V're
p565
atp566
Rp567
(dp568
g13
VVBP
p569
sbag0
(g1
g2
(lp570
g0
(g1
g2
(lp571
Vdoing
p572
atp573
Rp574
(dp575
g13
VVBG
p576
sbag0
(g1
g2
(lp577
g0
(g1
g2
(lp578
Vit
p579
atp580
Rp581
(dp582
g13
VPRP
p583
sbatp584
Rp585
(dp586
g13
VNP
p587
sbag0
(g1
g2
(lp588
g0
(g1
g2
(lp589
Voutside
p590
atp591
Rp592
(dp593
g13
VIN
p594
sbag0
(g1
g2
(lp595
g0
(g1
g2
(lp596
Vhouse
p597
atp598
Rp599
(dp600
g13
VNN
p601
sbatp602
Rp603
(dp604
g13
VNP
p605
sbatp606
Rp607
(dp608
g13
VPP
p609
sbatp610
Rp611
(dp612
g13
VVP
p613
sbatp614
Rp615
(dp616
g13
VVP
p617
sbatp618
Rp619
(dp620
g13
VS
p621
sbag0
(g1
g2
(lp622
V.
p623
atp624
Rp625
(dp626
g13
V.
p627
sbatp628
Rp629
(dp630
g13
VS
p631
sbatp632
Rp633
(dp634
g13
S'id: 3'
p635
sbag0
(g1
g2
(lp636
g0
(g1
g2
(lp637
g0
(g1
g2
(lp638
g0
(g1
g2
(lp639
VSee
p640
atp641
Rp642
(dp643
g13
VVB
p644
sbag0
(g1
g2
(lp645
g0
(g1
g2
(lp646
Vthe
p647
atp648
Rp649
(dp650
g13
VDT
p651
sbag0
(g1
g2
(lp652
Vcar
p653
atp654
Rp655
(dp656
g13
VNN
p657
sbatp658
Rp659
(dp660
g13
VNP
p661
sbatp662
Rp663
(dp664
g13
VVP
p665
sbag0
(g1
g2
(lp666
V.
p667
atp668
Rp669
(dp670
g13
V.
p671
sbatp672
Rp673
(dp674
g13
VS
p675
sbatp676
Rp677
(dp678
g13
S'id: 4'
p679
sbag0
(g1
g2
(lp680
g0
(g1
g2
(lp681
g0
(g1
g2
(lp682
VAnd
p683
atp684
Rp685
(dp686
g13
VCC
p687
sbag0
(g1
g2
(lp688
g0
(g1
g2
(lp689
g0
(g1
g2
(lp690
VI
p691
atp692
Rp693
(dp694
g13
VPRP
p695
sbatp696
Rp697
(dp698
g13
VNP
p699
sbag0
(g1
g2
(lp700
g0
(g1
g2
(lp701
Valso
p702
atp703
Rp704
(dp705
g13
VRB
p706
sbatp707
Rp708
(dp709
g13
VADVP
p710
sbag0
(g1
g2
(lp711
g0
(g1
g2
(lp712
Vsee
p713
atp714
Rp715
(dp716
g13
VVBP
p717
sbatp718
Rp719
(dp720
g13
VVP
p721
sbatp722
Rp723
(dp724
g13
VS
p725
sbag0
(g1
g2
(lp726
V,
p727
atp728
Rp729
(dp730
g13
V,
p731
sbag0
(g1
g2
(lp732
g0
(g1
g2
(lp733
Valso
p734
atp735
Rp736
(dp737
g13
VRB
p738
sbatp739
Rp740
(dp741
g13
VADVP
p742
sbag0
(g1
g2
(lp743
g0
(g1
g2
(lp744
g0
(g1
g2
(lp745
g0
(g1
g2
(lp746
Vwater
p747
atp748
Rp749
(dp750
g13
VNN
p751
sbatp752
Rp753
(dp754
g13
VNP
p755
sbag0
(g1
g2
(lp756
g0
(g1
g2
(lp757
Von
p758
atp759
Rp760
(dp761
g13
VIN
p762
sbag0
(g1
g2
(lp763
g0
(g1
g2
(lp764
g0
(g1
g2
(lp765
Vthe
p766
atp767
Rp768
(dp769
g13
VDT
p770
sbag0
(g1
g2
(lp771
Vright
p772
atp773
Rp774
(dp775
g13
VNN
p776
sbatp777
Rp778
(dp779
g13
VNP
p780
sbag0
(g1
g2
(lp781
Vand
p782
atp783
Rp784
(dp785
g13
VCC
p786
sbag0
(g1
g2
(lp787
g0
(g1
g2
(lp788
Vthe
p789
atp790
Rp791
(dp792
g13
VDT
p793
sbag0
(g1
g2
(lp794
Vman
p795
atp796
Rp797
(dp798
g13
VNN
p799
sbatp800
Rp801
(dp802
g13
VNP
p803
sbatp804
Rp805
(dp806
g13
VNP
p807
sbatp808
Rp809
(dp810
g13
VPP
p811
sbatp812
Rp813
(dp814
g13
VNP
p815
sbag0
(g1
g2
(lp816
g0
(g1
g2
(lp817
Vis
p818
atp819
Rp820
(dp821
g13
VVBZ
p822
sbag0
(g1
g2
(lp823
g0
(g1
g2
(lp824
Vout
p825
atp826
Rp827
(dp828
g13
VRP
p829
sbag0
(g1
g2
(lp830
g0
(g1
g2
(lp831
Vin
p832
atp833
Rp834
(dp835
g13
VIN
p836
sbag0
(g1
g2
(lp837
g0
(g1
g2
(lp838
Vthe
p839
atp840
Rp841
(dp842
g13
VDT
p843
sbag0
(g1
g2
(lp844
Vwater
p845
atp846
Rp847
(dp848
g13
VNN
p849
sbatp850
Rp851
(dp852
g13
VNP
p853
sbatp854
Rp855
(dp856
g13
VPP
p857
sbatp858
Rp859
(dp860
g13
VADVP
p861
sbag0
(g1
g2
(lp862
g0
(g1
g2
(lp863
Vtrying
p864
atp865
Rp866
(dp867
g13
VVBG
p868
sbag0
(g1
g2
(lp869
g0
(g1
g2
(lp870
g0
(g1
g2
(lp871
Vto
p872
atp873
Rp874
(dp875
g13
VTO
p876
sbag0
(g1
g2
(lp877
g0
(g1
g2
(lp878
Vget
p879
atp880
Rp881
(dp882
g13
VVB
p883
sbag0
(g1
g2
(lp884
g0
(g1
g2
(lp885
Vfix
p886
atp887
Rp888
(dp889
g13
VNN
p890
sbatp891
Rp892
(dp893
g13
VNP
p894
sbatp895
Rp896
(dp897
g13
VVP
p898
sbatp899
Rp900
(dp901
g13
VVP
p902
sbatp903
Rp904
(dp905
g13
VS
p906
sbatp907
Rp908
(dp909
g13
VVP
p910
sbatp911
Rp912
(dp913
g13
VVP
p914
sbatp915
Rp916
(dp917
g13
VS
p918
sbag0
(g1
g2
(lp919
V.
p920
atp921
Rp922
(dp923
g13
V.
p924
sbatp925
Rp926
(dp927
g13
VS
p928
sbatp929
Rp930
(dp931
g13
S'id: 5'
p932
sbag0
(g1
g2
(lp933
g0
(g1
g2
(lp934
g0
(g1
g2
(lp935
g0
(g1
g2
(lp936
VAnyway
p937
atp938
Rp939
(dp940
g13
VRB
p941
sbatp942
Rp943
(dp944
g13
VADVP
p945
sbag0
(g1
g2
(lp946
g0
(g1
g2
(lp947
Vhe
p948
atp949
Rp950
(dp951
g13
VPRP
p952
sbatp953
Rp954
(dp955
g13
VNP
p956
sbag0
(g1
g2
(lp957
g0
(g1
g2
(lp958
V's
p959
atp960
Rp961
(dp962
g13
VVBZ
p963
sbag0
(g1
g2
(lp964
g0
(g1
g2
(lp965
Vin
p966
atp967
Rp968
(dp969
g13
VIN
p970
sbag0
(g1
g2
(lp971
g0
(g1
g2
(lp972
g0
(g1
g2
(lp973
Vthe
p974
atp975
Rp976
(dp977
g13
VDT
p978
sbag0
(g1
g2
(lp979
Vwater
p980
atp981
Rp982
(dp983
g13
VNN
p984
sbatp985
Rp986
(dp987
g13
VNP
p988
sbag0
(g1
g2
(lp989
g0
(g1
g2
(lp990
Vtrying
p991
atp992
Rp993
(dp994
g13
VVBG
p995
sbag0
(g1
g2
(lp996
g0
(g1
g2
(lp997
g0
(g1
g2
(lp998
Vto
p999
atp1000
Rp1001
(dp1002
g13
VTO
p1003
sbag0
(g1
g2
(lp1004
g0
(g1
g2
(lp1005
Vget
p1006
atp1007
Rp1008
(dp1009
g13
VVB
p1010
sbag0
(g1
g2
(lp1011
g0
(g1
g2
(lp1012
g0
(g1
g2
(lp1013
Vthe
p1014
atp1015
Rp1016
(dp1017
g13
VDT
p1018
sbatp1019
Rp1020
(dp1021
g13
VNP
p1022
sbag0
(g1
g2
(lp1023
g0
(g1
g2
(lp1024
Vgrow
p1025
atp1026
Rp1027
(dp1028
g13
VVB
p1029
sbag0
(g1
g2
(lp1030
g0
(g1
g2
(lp1031
Vup
p1032
atp1033
Rp1034
(dp1035
g13
VRP
p1036
sbatp1037
Rp1038
(dp1039
g13
VPRT
p1040
sbatp1041
Rp1042
(dp1043
g13
VVP
p1044
sbatp1045
Rp1046
(dp1047
g13
VS
p1048
sbatp1049
Rp1050
(dp1051
g13
VVP
p1052
sbatp1053
Rp1054
(dp1055
g13
VVP
p1056
sbatp1057
Rp1058
(dp1059
g13
VS
p1060
sbatp1061
Rp1062
(dp1063
g13
VVP
p1064
sbatp1065
Rp1066
(dp1067
g13
VNP
p1068
sbatp1069
Rp1070
(dp1071
g13
VPP
p1072
sbatp1073
Rp1074
(dp1075
g13
VVP
p1076
sbag0
(g1
g2
(lp1077
V.
p1078
atp1079
Rp1080
(dp1081
g13
V.
p1082
sbatp1083
Rp1084
(dp1085
g13
VS
p1086
sbatp1087
Rp1088
(dp1089
g13
S'id: 6'
p1090
sbag0
(g1
g2
(lp1091
g0
(g1
g2
(lp1092
g0
(g1
g2
(lp1093
g0
(g1
g2
(lp1094
VHe
p1095
atp1096
Rp1097
(dp1098
g13
VPRP
p1099
sbatp1100
Rp1101
(dp1102
g13
VNP
p1103
sbag0
(g1
g2
(lp1104
g0
(g1
g2
(lp1105
V's
p1106
atp1107
Rp1108
(dp1109
g13
VVBZ
p1110
sbag0
(g1
g2
(lp1111
g0
(g1
g2
(lp1112
Vin
p1113
atp1114
Rp1115
(dp1116
g13
VIN
p1117
sbag0
(g1
g2
(lp1118
g0
(g1
g2
(lp1119
g0
(g1
g2
(lp1120
Vthe
p1121
atp1122
Rp1123
(dp1124
g13
VDT
p1125
sbag0
(g1
g2
(lp1126
Vwater
p1127
atp1128
Rp1129
(dp1130
g13
VNN
p1131
sbatp1132
Rp1133
(dp1134
g13
VNP
p1135
sbag0
(g1
g2
(lp1136
V,
p1137
atp1138
Rp1139
(dp1140
g13
V,
p1141
sbag0
(g1
g2
(lp1142
g0
(g1
g2
(lp1143
g0
(g1
g2
(lp1144
Vlittle
p1145
atp1146
Rp1147
(dp1148
g13
VJJ
p1149
sbag0
(g1
g2
(lp1150
Vthings
p1151
atp1152
Rp1153
(dp1154
g13
VNNS
p1155
sbatp1156
Rp1157
(dp1158
g13
VNP
p1159
sbag0
(g1
g2
(lp1160
g0
(g1
g2
(lp1161
Vcoming
p1162
atp1163
Rp1164
(dp1165
g13
VVBG
p1166
sbag0
(g1
g2
(lp1167
g0
(g1
g2
(lp1168
Vup
p1169
atp1170
Rp1171
(dp1172
g13
VRB
p1173
sbatp1174
Rp1175
(dp1176
g13
VADVP
p1177
sbatp1178
Rp1179
(dp1180
g13
VVP
p1181
sbatp1182
Rp1183
(dp1184
g13
VNP
p1185
sbatp1186
Rp1187
(dp1188
g13
VNP
p1189
sbatp1190
Rp1191
(dp1192
g13
VPP
p1193
sbatp1194
Rp1195
(dp1196
g13
VVP
p1197
sbag0
(g1
g2
(lp1198
V.
p1199
atp1200
Rp1201
(dp1202
g13
V.
p1203
sbatp1204
Rp1205
(dp1206
g13
VS
p1207
sbatp1208
Rp1209
(dp1210
g13
S'id: 7'
p1211
sbag0
(g1
g2
(lp1212
g0
(g1
g2
(lp1213
g0
(g1
g2
(lp1214
VAnd
p1215
atp1216
Rp1217
(dp1218
g13
VCC
p1219
sbag0
(g1
g2
(lp1220
g0
(g1
g2
(lp1221
g0
(g1
g2
(lp1222
Vthe
p1223
atp1224
Rp1225
(dp1226
g13
VDT
p1227
sbatp1228
Rp1229
(dp1230
g13
VX
p1231
sbag0
(g1
g2
(lp1232
V,
p1233
atp1234
Rp1235
(dp1236
g13
V,
p1237
sbag0
(g1
g2
(lp1238
g0
(g1
g2
(lp1239
g0
(g1
g2
(lp1240
g0
(g1
g2
(lp1241
Vthe
p1242
atp1243
Rp1244
(dp1245
g13
VDT
p1246
sbag0
(g1
g2
(lp1247
Vboy
p1248
atp1249
Rp1250
(dp1251
g13
VNN
p1252
sbatp1253
Rp1254
(dp1255
g13
VNP
p1256
sbag0
(g1
g2
(lp1257
g0
(g1
g2
(lp1258
Vis
p1259
atp1260
Rp1261
(dp1262
g13
VVBZ
p1263
sbag0
(g1
g2
(lp1264
g0
(g1
g2
(lp1265
Vrunning
p1266
atp1267
Rp1268
(dp1269
g13
VVBG
p1270
sbag0
(g1
g2
(lp1271
g0
(g1
g2
(lp1272
Varound
p1273
atp1274
Rp1275
(dp1276
g13
VRP
p1277
sbatp1278
Rp1279
(dp1280
g13
VPRT
p1281
sbag0
(g1
g2
(lp1282
g0
(g1
g2
(lp1283
Vwith
p1284
atp1285
Rp1286
(dp1287
g13
VIN
p1288
sbag0
(g1
g2
(lp1289
g0
(g1
g2
(lp1290
Vhis
p1291
atp1292
Rp1293
(dp1294
g13
VPRP$
p1295
sbag0
(g1
g2
(lp1296
Vdog
p1297
atp1298
Rp1299
(dp1300
g13
VNN
p1301
sbatp1302
Rp1303
(dp1304
g13
VNP
p1305
sbatp1306
Rp1307
(dp1308
g13
VPP
p1309
sbatp1310
Rp1311
(dp1312
g13
VVP
p1313
sbatp1314
Rp1315
(dp1316
g13
VVP
p1317
sbatp1318
Rp1319
(dp1320
g13
VS
p1321
sbatp1322
Rp1323
(dp1324
g13
VPRN
p1325
sbag0
(g1
g2
(lp1326
g0
(g1
g2
(lp1327
Vis
p1328
atp1329
Rp1330
(dp1331
g13
VVBZ
p1332
sbag0
(g1
g2
(lp1333
g0
(g1
g2
(lp1334
Vchasing
p1335
atp1336
Rp1337
(dp1338
g13
VVBG
p1339
sbag0
(g1
g2
(lp1340
g0
(g1
g2
(lp1341
Vhim
p1342
atp1343
Rp1344
(dp1345
g13
VPRP
p1346
sbatp1347
Rp1348
(dp1349
g13
VNP
p1350
sbatp1351
Rp1352
(dp1353
g13
VVP
p1354
sbatp1355
Rp1356
(dp1357
g13
VVP
p1358
sbatp1359
Rp1360
(dp1361
g13
VS
p1362
sbag0
(g1
g2
(lp1363
V,
p1364
atp1365
Rp1366
(dp1367
g13
V,
p1368
sbag0
(g1
g2
(lp1369
Vand
p1370
atp1371
Rp1372
(dp1373
g13
VCC
p1374
sbag0
(g1
g2
(lp1375
g0
(g1
g2
(lp1376
g0
(g1
g2
(lp1377
Vhe
p1378
atp1379
Rp1380
(dp1381
g13
VPRP
p1382
sbatp1383
Rp1384
(dp1385
g13
VNP
p1386
sbag0
(g1
g2
(lp1387
g0
(g1
g2
(lp1388
V's
p1389
atp1390
Rp1391
(dp1392
g13
VVBZ
p1393
sbag0
(g1
g2
(lp1394
g0
(g1
g2
(lp1395
Vgot
p1396
atp1397
Rp1398
(dp1399
g13
VVBD
p1400
sbag0
(g1
g2
(lp1401
g0
(g1
g2
(lp1402
Vthe
p1403
atp1404
Rp1405
(dp1406
g13
VDT
p1407
sbag0
(g1
g2
(lp1408
Vthing
p1409
atp1410
Rp1411
(dp1412
g13
VNN
p1413
sbatp1414
Rp1415
(dp1416
g13
VNP
p1417
sbag0
(g1
g2
(lp1418
V,
p1419
atp1420
Rp1421
(dp1422
g13
V,
p1423
sbag0
(g1
g2
(lp1424
g0
(g1
g2
(lp1425
Vup
p1426
atp1427
Rp1428
(dp1429
g13
VRB
p1430
sbatp1431
Rp1432
(dp1433
g13
VADVP
p1434
sbag0
(g1
g2
(lp1435
V,
p1436
atp1437
Rp1438
(dp1439
g13
V,
p1440
sbag0
(g1
g2
(lp1441
g0
(g1
g2
(lp1442
Vup
p1443
atp1444
Rp1445
(dp1446
g13
VRB
p1447
sbatp1448
Rp1449
(dp1450
g13
VADVP
p1451
sbag0
(g1
g2
(lp1452
V,
p1453
atp1454
Rp1455
(dp1456
g13
V,
p1457
sbag0
(g1
g2
(lp1458
g0
(g1
g2
(lp1459
Vhigh
p1460
atp1461
Rp1462
(dp1463
g13
VJJ
p1464
sbag0
(g1
g2
(lp1465
Vup
p1466
atp1467
Rp1468
(dp1469
g13
VRB
p1470
sbatp1471
Rp1472
(dp1473
g13
VADVP
p1474
sbag0
(g1
g2
(lp1475
V,
p1476
atp1477
Rp1478
(dp1479
g13
V,
p1480
sbag0
(g1
g2
(lp1481
g0
(g1
g2
(lp1482
g0
(g1
g2
(lp1483
Vtrying
p1484
atp1485
Rp1486
(dp1487
g13
VVBG
p1488
sbag0
(g1
g2
(lp1489
g0
(g1
g2
(lp1490
g0
(g1
g2
(lp1491
Vto
p1492
atp1493
Rp1494
(dp1495
g13
VTO
p1496
sbag0
(g1
g2
(lp1497
g0
(g1
g2
(lp1498
Vgo
p1499
atp1500
Rp1501
(dp1502
g13
VVB
p1503
sbag0
(g1
g2
(lp1504
g0
(g1
g2
(lp1505
g0
(g1
g2
(lp1506
Vup
p1507
atp1508
Rp1509
(dp1510
g13
VRB
p1511
sbag0
(g1
g2
(lp1512
Vhigh
p1513
atp1514
Rp1515
(dp1516
g13
VJJ
p1517
sbatp1518
Rp1519
(dp1520
g13
VADVP
p1521
sbag0
(g1
g2
(lp1522
Vup
p1523
atp1524
Rp1525
(dp1526
g13
VRB
p1527
sbatp1528
Rp1529
(dp1530
g13
VADVP
p1531
sbatp1532
Rp1533
(dp1534
g13
VVP
p1535
sbatp1536
Rp1537
(dp1538
g13
VVP
p1539
sbatp1540
Rp1541
(dp1542
g13
VS
p1543
sbatp1544
Rp1545
(dp1546
g13
VVP
p1547
sbatp1548
Rp1549
(dp1550
g13
VS
p1551
sbatp1552
Rp1553
(dp1554
g13
VVP
p1555
sbatp1556
Rp1557
(dp1558
g13
VVP
p1559
sbatp1560
Rp1561
(dp1562
g13
VS
p1563
sbag0
(g1
g2
(lp1564
V.
p1565
atp1566
Rp1567
(dp1568
g13
V.
p1569
sbatp1570
Rp1571
(dp1572
g13
VS
p1573
sbatp1574
Rp1575
(dp1576
g13
S'id: 8'
p1577
sbag0
(g1
g2
(lp1578
g0
(g1
g2
(lp1579
g0
(g1
g2
(lp1580
VAnd
p1581
atp1582
Rp1583
(dp1584
g13
VCC
p1585
sbag0
(g1
g2
(lp1586
g0
(g1
g2
(lp1587
Von
p1588
atp1589
Rp1590
(dp1591
g13
VIN
p1592
sbag0
(g1
g2
(lp1593
g0
(g1
g2
(lp1594
Vthe
p1595
atp1596
Rp1597
(dp1598
g13
VDT
p1599
sbag0
(g1
g2
(lp1600
Vright
p1601
atp1602
Rp1603
(dp1604
g13
VNN
p1605
sbatp1606
Rp1607
(dp1608
g13
VNP
p1609
sbatp1610
Rp1611
(dp1612
g13
VADVP
p1613
sbag0
(g1
g2
(lp1614
V,
p1615
atp1616
Rp1617
(dp1618
g13
V,
p1619
sbag0
(g1
g2
(lp1620
g0
(g1
g2
(lp1621
g0
(g1
g2
(lp1622
g0
(g1
g2
(lp1623
Vthe
p1624
atp1625
Rp1626
(dp1627
g13
VDT
p1628
sbag0
(g1
g2
(lp1629
g0
(g1
g2
(lp1630
Vguy
p1631
atp1632
Rp1633
(dp1634
g13
VNN
p1635
sbag0
(g1
g2
(lp1636
V's
p1637
atp1638
Rp1639
(dp1640
g13
VPOS
p1641
sbatp1642
Rp1643
(dp1644
g13
VNP
p1645
sbatp1646
Rp1647
(dp1648
g13
VNP
p1649
sbag0
(g1
g2
(lp1650
g0
(g1
g2
(lp1651
Vout
p1652
atp1653
Rp1654
(dp1655
g13
VRP
p1656
sbatp1657
Rp1658
(dp1659
g13
VADVP
p1660
sbatp1661
Rp1662
(dp1663
g13
VNP
p1664
sbag0
(g1
g2
(lp1665
Vin
p1666
atp1667
Rp1668
(dp1669
g13
VIN
p1670
sbag0
(g1
g2
(lp1671
g0
(g1
g2
(lp1672
Vthe
p1673
atp1674
Rp1675
(dp1676
g13
VDT
p1677
sbag0
(g1
g2
(lp1678
Vwater
p1679
atp1680
Rp1681
(dp1682
g13
VNN
p1683
sbatp1684
Rp1685
(dp1686
g13
VNP
p1687
sbatp1688
Rp1689
(dp1690
g13
VPP
p1691
sbag0
(g1
g2
(lp1692
V,
p1693
atp1694
Rp1695
(dp1696
g13
V,
p1697
sbag0
(g1
g2
(lp1698
g0
(g1
g2
(lp1699
g0
(g1
g2
(lp1700
g0
(g1
g2
(lp1701
Vanother
p1702
atp1703
Rp1704
(dp1705
g13
VDT
p1706
sbag0
(g1
g2
(lp1707
Vstill
p1708
atp1709
Rp1710
(dp1711
g13
VRB
p1712
sbatp1713
Rp1714
(dp1715
g13
VNP
p1716
sbag0
(g1
g2
(lp1717
Vout
p1718
atp1719
Rp1720
(dp1721
g13
VIN
p1722
sbatp1723
Rp1724
(dp1725
g13
VADVP
p1726
sbag0
(g1
g2
(lp1727
Vin
p1728
atp1729
Rp1730
(dp1731
g13
VIN
p1732
sbag0
(g1
g2
(lp1733
g0
(g1
g2
(lp1734
Vthe
p1735
atp1736
Rp1737
(dp1738
g13
VDT
p1739
sbag0
(g1
g2
(lp1740
Vwater
p1741
atp1742
Rp1743
(dp1744
g13
VNN
p1745
sbatp1746
Rp1747
(dp1748
g13
VNP
p1749
sbatp1750
Rp1751
(dp1752
g13
VPP
p1753
sbag0
(g1
g2
(lp1754
V.
p1755
atp1756
Rp1757
(dp1758
g13
V.
p1759
sbatp1760
Rp1761
(dp1762
g13
VFRAG
p1763
sbatp1764
Rp1765
(dp1766
g13
S'id: 9'
p1767
sbag0
(g1
g2
(lp1768
g0
(g1
g2
(lp1769
g0
(g1
g2
(lp1770
g0
(g1
g2
(lp1771
g0
(g1
g2
(lp1772
VPeople
p1773
atp1774
Rp1775
(dp1776
g13
VNNS
p1777
sbatp1778
Rp1779
(dp1780
g13
VNP
p1781
sbag0
(g1
g2
(lp1782
g0
(g1
g2
(lp1783
g0
(g1
g2
(lp1784
Vout
p1785
atp1786
Rp1787
(dp1788
g13
VIN
p1789
sbag0
(g1
g2
(lp1790
g0
(g1
g2
(lp1791
Vfurther
p1792
atp1793
Rp1794
(dp1795
g13
VRB
p1796
sbag0
(g1
g2
(lp1797
Vaway
p1798
atp1799
Rp1800
(dp1801
g13
VRB
p1802
sbatp1803
Rp1804
(dp1805
g13
VADVP
p1806
sbatp1807
Rp1808
(dp1809
g13
VADJP
p1810
sbatp1811
Rp1812
(dp1813
g13
VRRC
p1814
sbatp1815
Rp1816
(dp1817
g13
VNP
p1818
sbag0
(g1
g2
(lp1819
V,
p1820
atp1821
Rp1822
(dp1823
g13
V,
p1824
sbag0
(g1
g2
(lp1825
g0
(g1
g2
(lp1826
g0
(g1
g2
(lp1827
Vtwo
p1828
atp1829
Rp1830
(dp1831
g13
VCD
p1832
sbag0
(g1
g2
(lp1833
Vpeople
p1834
atp1835
Rp1836
(dp1837
g13
VNNS
p1838
sbatp1839
Rp1840
(dp1841
g13
VNP
p1842
sbag0
(g1
g2
(lp1843
g0
(g1
g2
(lp1844
Vin
p1845
atp1846
Rp1847
(dp1848
g13
VIN
p1849
sbag0
(g1
g2
(lp1850
g0
(g1
g2
(lp1851
Vthe
p1852
atp1853
Rp1854
(dp1855
g13
VDT
p1856
sbag0
(g1
g2
(lp1857
Vwater
p1858
atp1859
Rp1860
(dp1861
g13
VNN
p1862
sbatp1863
Rp1864
(dp1865
g13
VNP
p1866
sbatp1867
Rp1868
(dp1869
g13
VPP
p1870
sbatp1871
Rp1872
(dp1873
g13
VNP
p1874
sbag0
(g1
g2
(lp1875
V.
p1876
atp1877
Rp1878
(dp1879
g13
V.
p1880
sbatp1881
Rp1882
(dp1883
g13
VNP
p1884
sbatp1885
Rp1886
(dp1887
g13
S'id: 10'
p1888
sbag0
(g1
g2
(lp1889
g0
(g1
g2
(lp1890
g0
(g1
g2
(lp1891
VAnd
p1892
atp1893
Rp1894
(dp1895
g13
VCC
p1896
sbag0
(g1
g2
(lp1897
g0
(g1
g2
(lp1898
Vthan
p1899
atp1900
Rp1901
(dp1902
g13
VIN
p1903
sbag0
(g1
g2
(lp1904
g0
(g1
g2
(lp1905
Vin
p1906
atp1907
Rp1908
(dp1909
g13
VIN
p1910
sbag0
(g1
g2
(lp1911
g0
(g1
g2
(lp1912
g0
(g1
g2
(lp1913
Vfront
p1914
atp1915
Rp1916
(dp1917
g13
VNN
p1918
sbatp1919
Rp1920
(dp1921
g13
VNP
p1922
sbag0
(g1
g2
(lp1923
g0
(g1
g2
(lp1924
Vof
p1925
atp1926
Rp1927
(dp1928
g13
VIN
p1929
sbag0
(g1
g2
(lp1930
g0
(g1
g2
(lp1931
g0
(g1
g2
(lp1932
Vthe
p1933
atp1934
Rp1935
(dp1936
g13
VDT
p1937
sbag0
(g1
g2
(lp1938
Vwater
p1939
atp1940
Rp1941
(dp1942
g13
VNN
p1943
sbatp1944
Rp1945
(dp1946
g13
VNP
p1947
sbag0
(g1
g2
(lp1948
V,
p1949
atp1950
Rp1951
(dp1952
g13
V,
p1953
sbag0
(g1
g2
(lp1954
g0
(g1
g2
(lp1955
g0
(g1
g2
(lp1956
Vwhere
p1957
atp1958
Rp1959
(dp1960
g13
VWRB
p1961
sbatp1962
Rp1963
(dp1964
g13
VWHADVP
p1965
sbag0
(g1
g2
(lp1966
g0
(g1
g2
(lp1967
g0
(g1
g2
(lp1968
Vthe
p1969
atp1970
Rp1971
(dp1972
g13
VDT
p1973
sbag0
(g1
g2
(lp1974
Vsand
p1975
atp1976
Rp1977
(dp1978
g13
VNN
p1979
sbatp1980
Rp1981
(dp1982
g13
VNP
p1983
sbag0
(g1
g2
(lp1984
g0
(g1
g2
(lp1985
Vis
p1986
atp1987
Rp1988
(dp1989
g13
VVBZ
p1990
sbatp1991
Rp1992
(dp1993
g13
VVP
p1994
sbatp1995
Rp1996
(dp1997
g13
VS
p1998
sbatp1999
Rp2000
(dp2001
g13
VSBAR
p2002
sbatp2003
Rp2004
(dp2005
g13
VNP
p2006
sbatp2007
Rp2008
(dp2009
g13
VPP
p2010
sbatp2011
Rp2012
(dp2013
g13
VNP
p2014
sbatp2015
Rp2016
(dp2017
g13
VPP
p2018
sbatp2019
Rp2020
(dp2021
g13
VADVP
p2022
sbag0
(g1
g2
(lp2023
V,
p2024
atp2025
Rp2026
(dp2027
g13
V,
p2028
sbag0
(g1
g2
(lp2029
g0
(g1
g2
(lp2030
Vthe
p2031
atp2032
Rp2033
(dp2034
g13
VDT
p2035
sbag0
(g1
g2
(lp2036
Vgirl
p2037
atp2038
Rp2039
(dp2040
g13
VNN
p2041
sbatp2042
Rp2043
(dp2044
g13
VNP
p2045
sbag0
(g1
g2
(lp2046
g0
(g1
g2
(lp2047
Vis
p2048
atp2049
Rp2050
(dp2051
g13
VVBZ
p2052
sbag0
(g1
g2
(lp2053
g0
(g1
g2
(lp2054
Vplaying
p2055
atp2056
Rp2057
(dp2058
g13
VVBG
p2059
sbag0
(g1
g2
(lp2060
g0
(g1
g2
(lp2061
Vwith
p2062
atp2063
Rp2064
(dp2065
g13
VIN
p2066
sbag0
(g1
g2
(lp2067
g0
(g1
g2
(lp2068
Vthe
p2069
atp2070
Rp2071
(dp2072
g13
VDT
p2073
sbag0
(g1
g2
(lp2074
Vsand
p2075
atp2076
Rp2077
(dp2078
g13
VNN
p2079
sbatp2080
Rp2081
(dp2082
g13
VNP
p2083
sbatp2084
Rp2085
(dp2086
g13
VPP
p2087
sbatp2088
Rp2089
(dp2090
g13
VVP
p2091
sbatp2092
Rp2093
(dp2094
g13
VVP
p2095
sbag0
(g1
g2
(lp2096
V.
p2097
atp2098
Rp2099
(dp2100
g13
V.
p2101
sbatp2102
Rp2103
(dp2104
g13
VS
p2105
sbatp2106
Rp2107
(dp2108
g13
S'id: 11'
p2109
sbag0
(g1
g2
(lp2110
g0
(g1
g2
(lp2111
g0
(g1
g2
(lp2112
VAnd
p2113
atp2114
Rp2115
(dp2116
g13
VCC
p2117
sbag0
(g1
g2
(lp2118
g0
(g1
g2
(lp2119
Vit
p2120
atp2121
Rp2122
(dp2123
g13
VPRP
p2124
sbatp2125
Rp2126
(dp2127
g13
VNP
p2128
sbag0
(g1
g2
(lp2129
g0
(g1
g2
(lp2130
Vmust
p2131
atp2132
Rp2133
(dp2134
g13
VMD
p2135
sbag0
(g1
g2
(lp2136
g0
(g1
g2
(lp2137
Vbe
p2138
atp2139
Rp2140
(dp2141
g13
VVB
p2142
sbag0
(g1
g2
(lp2143
g0
(g1
g2
(lp2144
g0
(g1
g2
(lp2145
Va
p2146
atp2147
Rp2148
(dp2149
g13
VDT
p2150
sbag0
(g1
g2
(lp2151
Vfancy
p2152
atp2153
Rp2154
(dp2155
g13
VJJ
p2156
sbag0
(g1
g2
(lp2157
Vhouse
p2158
atp2159
Rp2160
(dp2161
g13
VNN
p2162
sbatp2163
Rp2164
(dp2165
g13
VNP
p2166
sbag0
(g1
g2
(lp2167
V,
p2168
atp2169
Rp2170
(dp2171
g13
V,
p2172
sbag0
(g1
g2
(lp2173
g0
(g1
g2
(lp2174
Vliving
p2175
atp2176
Rp2177
(dp2178
g13
VVBG
p2179
sbag0
(g1
g2
(lp2180
g0
(g1
g2
(lp2181
Vin
p2182
atp2183
Rp2184
(dp2185
g13
VIN
p2186
sbag0
(g1
g2
(lp2187
g0
(g1
g2
(lp2188
Va
p2189
atp2190
Rp2191
(dp2192
g13
VDT
p2193
sbag0
(g1
g2
(lp2194
Vfancy
p2195
atp2196
Rp2197
(dp2198
g13
VJJ
p2199
sbag0
(g1
g2
(lp2200
Vhouse
p2201
atp2202
Rp2203
(dp2204
g13
VNN
p2205
sbatp2206
Rp2207
(dp2208
g13
VNP
p2209
sbatp2210
Rp2211
(dp2212
g13
VPP
p2213
sbatp2214
Rp2215
(dp2216
g13
VVP
p2217
sbag0
(g1
g2
(lp2218
V,
p2219
atp2220
Rp2221
(dp2222
g13
V,
p2223
sbatp2224
Rp2225
(dp2226
g13
VNP
p2227
sbag0
(g1
g2
(lp2228
g0
(g1
g2
(lp2229
Vbecause
p2230
atp2231
Rp2232
(dp2233
g13
VIN
p2234
sbag0
(g1
g2
(lp2235
g0
(g1
g2
(lp2236
g0
(g1
g2
(lp2237
Vhis
p2238
atp2239
Rp2240
(dp2241
g13
VPRP$
p2242
sbag0
(g1
g2
(lp2243
Vhouse
p2244
atp2245
Rp2246
(dp2247
g13
VNN
p2248
sbatp2249
Rp2250
(dp2251
g13
VNP
p2252
sbag0
(g1
g2
(lp2253
g0
(g1
g2
(lp2254
Vis
p2255
atp2256
Rp2257
(dp2258
g13
VVBZ
p2259
sbag0
(g1
g2
(lp2260
g0
(g1
g2
(lp2261
Vright
p2262
atp2263
Rp2264
(dp2265
g13
VJJ
p2266
sbag0
(g1
g2
(lp2267
g0
(g1
g2
(lp2268
Vnext
p2269
atp2270
Rp2271
(dp2272
g13
VIN
p2273
sbag0
(g1
g2
(lp2274
g0
(g1
g2
(lp2275
Vto
p2276
atp2277
Rp2278
(dp2279
g13
VTO
p2280
sbag0
(g1
g2
(lp2281
g0
(g1
g2
(lp2282
Vthe
p2283
atp2284
Rp2285
(dp2286
g13
VDT
p2287
sbag0
(g1
g2
(lp2288
Vwater
p2289
atp2290
Rp2291
(dp2292
g13
VNN
p2293
sbatp2294
Rp2295
(dp2296
g13
VNP
p2297
sbatp2298
Rp2299
(dp2300
g13
VPP
p2301
sbatp2302
Rp2303
(dp2304
g13
VPP
p2305
sbatp2306
Rp2307
(dp2308
g13
VADJP
p2309
sbatp2310
Rp2311
(dp2312
g13
VVP
p2313
sbatp2314
Rp2315
(dp2316
g13
VS
p2317
sbatp2318
Rp2319
(dp2320
g13
VSBAR
p2321
sbatp2322
Rp2323
(dp2324
g13
VVP
p2325
sbatp2326
Rp2327
(dp2328
g13
VVP
p2329
sbag0
(g1
g2
(lp2330
V.
p2331
atp2332
Rp2333
(dp2334
g13
V.
p2335
sbatp2336
Rp2337
(dp2338
g13
VS
p2339
sbatp2340
Rp2341
(dp2342
g13
S'id: 12'
p2343
sbag0
(g1
g2
(lp2344
g0
(g1
g2
(lp2345
g0
(g1
g2
(lp2346
g0
(g1
g2
(lp2347
VIt
p2348
atp2349
Rp2350
(dp2351
g13
VPRP
p2352
sbatp2353
Rp2354
(dp2355
g13
VNP
p2356
sbag0
(g1
g2
(lp2357
g0
(g1
g2
(lp2358
Vcosts
p2359
atp2360
Rp2361
(dp2362
g13
VVBZ
p2363
sbag0
(g1
g2
(lp2364
g0
(g1
g2
(lp2365
g0
(g1
g2
(lp2366
g0
(g1
g2
(lp2367
Va
p2368
atp2369
Rp2370
(dp2371
g13
VDT
p2372
sbag0
(g1
g2
(lp2373
Vlot
p2374
atp2375
Rp2376
(dp2377
g13
VNN
p2378
sbatp2379
Rp2380
(dp2381
g13
VNP
p2382
sbag0
(g1
g2
(lp2383
g0
(g1
g2
(lp2384
Vof
p2385
atp2386
Rp2387
(dp2388
g13
VIN
p2389
sbag0
(g1
g2
(lp2390
g0
(g1
g2
(lp2391
Vmoney
p2392
atp2393
Rp2394
(dp2395
g13
VNN
p2396
sbatp2397
Rp2398
(dp2399
g13
VNP
p2400
sbatp2401
Rp2402
(dp2403
g13
VPP
p2404
sbatp2405
Rp2406
(dp2407
g13
VNP
p2408
sbag0
(g1
g2
(lp2409
g0
(g1
g2
(lp2410
Vto
p2411
atp2412
Rp2413
(dp2414
g13
VTO
p2415
sbag0
(g1
g2
(lp2416
g0
(g1
g2
(lp2417
Vhave
p2418
atp2419
Rp2420
(dp2421
g13
VVB
p2422
sbag0
(g1
g2
(lp2423
g0
(g1
g2
(lp2424
g0
(g1
g2
(lp2425
Va
p2426
atp2427
Rp2428
(dp2429
g13
VDT
p2430
sbag0
(g1
g2
(lp2431
Vhouse
p2432
atp2433
Rp2434
(dp2435
g13
VNN
p2436
sbatp2437
Rp2438
(dp2439
g13
VNP
p2440
sbag0
(g1
g2
(lp2441
g0
(g1
g2
(lp2442
Vover
p2443
atp2444
Rp2445
(dp2446
g13
VIN
p2447
sbag0
(g1
g2
(lp2448
g0
(g1
g2
(lp2449
Vthere
p2450
atp2451
Rp2452
(dp2453
g13
VRB
p2454
sbatp2455
Rp2456
(dp2457
g13
VNP
p2458
sbatp2459
Rp2460
(dp2461
g13
VPP
p2462
sbatp2463
Rp2464
(dp2465
g13
VNP
p2466
sbatp2467
Rp2468
(dp2469
g13
VVP
p2470
sbatp2471
Rp2472
(dp2473
g13
VVP
p2474
sbatp2475
Rp2476
(dp2477
g13
VS
p2478
sbatp2479
Rp2480
(dp2481
g13
VVP
p2482
sbag0
(g1
g2
(lp2483
V.
p2484
atp2485
Rp2486
(dp2487
g13
V.
p2488
sbatp2489
Rp2490
(dp2491
g13
VS
p2492
sbatp2493
Rp2494
(dp2495
g13
S'id: 13'
p2496
sbag0
(g1
g2
(lp2497
g0
(g1
g2
(lp2498
g0
(g1
g2
(lp2499
g0
(g1
g2
(lp2500
VBout
p2501
atp2502
Rp2503
(dp2504
g13
VVB
p2505
sbag0
(g1
g2
(lp2506
g0
(g1
g2
(lp2507
g0
(g1
g2
(lp2508
Vall
p2509
atp2510
Rp2511
(dp2512
g13
VDT
p2513
sbatp2514
Rp2515
(dp2516
g13
VNP
p2517
sbag0
(g1
g2
(lp2518
g0
(g1
g2
(lp2519
g0
(g1
g2
(lp2520
g0
(g1
g2
(lp2521
Vyou
p2522
atp2523
Rp2524
(dp2525
g13
VPRP
p2526
sbatp2527
Rp2528
(dp2529
g13
VNP
p2530
sbag0
(g1
g2
(lp2531
g0
(g1
g2
(lp2532
Vcan
p2533
atp2534
Rp2535
(dp2536
g13
VMD
p2537
sbag0
(g1
g2
(lp2538
g0
(g1
g2
(lp2539
Vsay
p2540
atp2541
Rp2542
(dp2543
g13
VVB
p2544
sbag0
(g1
g2
(lp2545
g0
(g1
g2
(lp2546
Von
p2547
atp2548
Rp2549
(dp2550
g13
VIN
p2551
sbag0
(g1
g2
(lp2552
g0
(g1
g2
(lp2553
Vthat
p2554
atp2555
Rp2556
(dp2557
g13
VDT
p2558
sbag0
(g1
g2
(lp2559
Vone
p2560
atp2561
Rp2562
(dp2563
g13
VCD
p2564
sbatp2565
Rp2566
(dp2567
g13
VNP
p2568
sbatp2569
Rp2570
(dp2571
g13
VPP
p2572
sbatp2573
Rp2574
(dp2575
g13
VVP
p2576
sbatp2577
Rp2578
(dp2579
g13
VVP
p2580
sbatp2581
Rp2582
(dp2583
g13
VS
p2584
sbatp2585
Rp2586
(dp2587
g13
VSBAR
p2588
sbatp2589
Rp2590
(dp2591
g13
VNP
p2592
sbatp2593
Rp2594
(dp2595
g13
VVP
p2596
sbatp2597
Rp2598
(dp2599
g13
VS
p2600
sbatp2601
Rp2602
(dp2603
g13
S'id: 14'
p2604
sbatp2605
Rp2606
(dp2607
g13
S'sentences'
p2608
sb.