ccopy_reg
_reconstructor
p0
(cnltk.tree
Tree
p1
c__builtin__
list
p2
(lp3
g0
(g1
g2
(lp4
g0
(g1
g2
(lp5
g0
(g1
g2
(lp6
Vnice tables
p7
atp8
Rp9
(dp10
S'_label'
p11
S'start: 3'
p12
sbatp13
Rp14
(dp15
g11
S'sent: 2'
p16
sbag0
(g1
g2
(lp17
g0
(g1
g2
(lp18
Vlions
p19
atp20
Rp21
(dp22
g11
S'start: 6'
p23
sbatp24
Rp25
(dp26
g11
S'sent: 2'
p27
sbatp28
Rp29
(dp30
g11
S'id: 6'
p31
sbag0
(g1
g2
(lp32
g0
(g1
g2
(lp33
g0
(g1
g2
(lp34
Va
p35
atp36
Rp37
(dp38
g11
S'start: 2'
p39
sbatp40
Rp41
(dp42
g11
S'sent: 3'
p43
sbag0
(g1
g2
(lp44
g0
(g1
g2
(lp45
Vit
p46
atp47
Rp48
(dp49
g11
S'start: 7'
p50
sbatp51
Rp52
(dp53
g11
S'sent: 3'
p54
sbag0
(g1
g2
(lp55
g0
(g1
g2
(lp56
Vacrobatic walking on the tight rope
p57
atp58
Rp59
(dp60
g11
S'start: 9'
p61
sbatp62
Rp63
(dp64
g11
S'sent: 3'
p65
sbatp66
Rp67
(dp68
g11
S'id: 10'
p69
sbag0
(g1
g2
(lp70
g0
(g1
g2
(lp71
g0
(g1
g2
(lp72
Va compettie in the hand
p73
atp74
Rp75
(dp76
g11
S'start: 4'
p77
sbatp78
Rp79
(dp80
g11
S'sent: 7'
p81
sbag0
(g1
g2
(lp82
g0
(g1
g2
(lp83
Vit
p84
atp85
Rp86
(dp87
g11
S'start: 12'
p88
sbatp89
Rp90
(dp91
g11
S'sent: 7'
p92
sbatp93
Rp94
(dp95
g11
S'id: 20'
p96
sbag0
(g1
g2
(lp97
g0
(g1
g2
(lp98
g0
(g1
g2
(lp99
Vnine
p100
atp101
Rp102
(dp103
g11
S'start: 4'
p104
sbatp105
Rp106
(dp107
g11
S'sent: 10'
p108
sbag0
(g1
g2
(lp109
g0
(g1
g2
(lp110
VNine
p111
atp112
Rp113
(dp114
g11
S'start: 1'
p115
sbatp116
Rp117
(dp118
g11
S'sent: 11'
p119
sbatp120
Rp121
(dp122
g11
S'id: 25'
p123
sbag0
(g1
g2
(lp124
g0
(g1
g2
(lp125
g0
(g1
g2
(lp126
Va pointed hat
p127
atp128
Rp129
(dp130
g11
S'start: 4'
p131
sbatp132
Rp133
(dp134
g11
S'sent: 12'
p135
sbag0
(g1
g2
(lp136
g0
(g1
g2
(lp137
Vthe hat
p138
atp139
Rp140
(dp141
g11
S'start: 14'
p142
sbatp143
Rp144
(dp145
g11
S'sent: 12'
p146
sbatp147
Rp148
(dp149
g11
S'id: 31'
p150
sbatp151
Rp152
(dp153
g11
S'coreferences'
p154
sb.