ccopy_reg
_reconstructor
p0
(cnltk.tree
Tree
p1
c__builtin__
list
p2
(lp3
g0
(g1
g2
(lp4
g0
(g1
g2
(lp5
g0
(g1
g2
(lp6
g0
(g1
g2
(lp7
g0
(g1
g2
(lp8
(lp9
S'word: a, index: 2'
p10
aatp11
Rp12
(dp13
S'_label'
p14
Vadvmod
p15
sbatp16
Rp17
(dp18
g14
S'word: its, index: 1'
p19
sbatp20
Rp21
(dp22
g14
Vccomp
p23
sbag0
(g1
g2
(lp24
(lp25
S'word: it, index: 4'
p26
aatp27
Rp28
(dp29
g14
Vnsubj
p30
sbag0
(g1
g2
(lp31
(lp32
S'word: is, index: 5'
p33
aatp34
Rp35
(dp36
g14
Vcop
p37
sbag0
(g1
g2
(lp38
(lp39
S'word: a, index: 6'
p40
aatp41
Rp42
(dp43
g14
Vdet
p44
sbatp45
Rp46
(dp47
g14
S'word: circus, index: 7'
p48
sbatp49
Rp50
(dp51
g14
S'id: 0'
p52
sbag0
(g1
g2
(lp53
g0
(g1
g2
(lp54
g0
(g1
g2
(lp55
g0
(g1
g2
(lp56
g0
(g1
g2
(lp57
(lp58
S'word: its, index: 6'
p59
aatp60
Rp61
(dp62
g14
Vposs
p63
sbatp64
Rp65
(dp66
g14
S'word: woman, index: 7'
p67
sbatp68
Rp69
(dp70
g14
Vconj
p71
sbag0
(g1
g2
(lp72
g0
(g1
g2
(lp73
g0
(g1
g2
(lp74
g0
(g1
g2
(lp75
g0
(g1
g2
(lp76
(lp77
S'word: a, index: 10'
p78
aatp79
Rp80
(dp81
g14
Vdet
p82
sbatp83
Rp84
(dp85
g14
S'word: horse, index: 11'
p86
sbatp87
Rp88
(dp89
g14
Vdobj
p90
sbatp91
Rp92
(dp93
g14
S'word: riding, index: 9'
p94
sbatp95
Rp96
(dp97
g14
Vvmod
p98
sbag0
(g1
g2
(lp99
(lp100
S'word: its, index: 1'
p101
aatp102
Rp103
(dp104
g14
Vposs
p105
sbag0
(g1
g2
(lp106
(lp107
S'word: a, index: 2'
p108
aatp109
Rp110
(dp111
g14
Vdet
p112
sbatp113
Rp114
(dp115
g14
S'word: horse, index: 3'
p116
sbatp117
Rp118
(dp119
g14
S'id: 1'
p120
sbag0
(g1
g2
(lp121
g0
(g1
g2
(lp122
g0
(g1
g2
(lp123
g0
(g1
g2
(lp124
g0
(g1
g2
(lp125
(lp126
S'word: lady, index: 8'
p127
aatp128
Rp129
(dp130
g14
Vnsubj
p131
sbag0
(g1
g2
(lp132
g0
(g1
g2
(lp133
g0
(g1
g2
(lp134
(lp135
S'word: a, index: 10'
p136
aatp137
Rp138
(dp139
g14
Vdet
p140
sbatp141
Rp142
(dp143
g14
S'word: child, index: 11'
p144
sbatp145
Rp146
(dp147
g14
Vdobj
p148
sbatp149
Rp150
(dp151
g14
S'word: holding, index: 9'
p152
sbatp153
Rp154
(dp155
g14
Vconj
p156
sbag0
(g1
g2
(lp157
g0
(g1
g2
(lp158
g0
(g1
g2
(lp159
(lp160
S'word: a, index: 2'
p161
aatp162
Rp163
(dp164
g14
Vdet
p165
sbatp166
Rp167
(dp168
g14
S'word: clown, index: 3'
p169
sbatp170
Rp171
(dp172
g14
Vnsubj
p173
sbag0
(g1
g2
(lp174
(lp175
S'word: is, index: 4'
p176
aatp177
Rp178
(dp179
g14
Vcop
p180
sbatp181
Rp182
(dp183
g14
S'word: popcorn, index: 5'
p184
sbatp185
Rp186
(dp187
g14
S'id: 2'
p188
sbag0
(g1
g2
(lp189
g0
(g1
g2
(lp190
g0
(g1
g2
(lp191
(lp192
S'word: And, index: 1'
p193
aatp194
Rp195
(dp196
g14
Vcc
p197
sbag0
(g1
g2
(lp198
g0
(g1
g2
(lp199
g0
(g1
g2
(lp200
(lp201
S'word: the, index: 2'
p202
aatp203
Rp204
(dp205
g14
Vdet
p206
sbatp207
Rp208
(dp209
g14
S'word: boy, index: 3'
p210
sbatp211
Rp212
(dp213
g14
Vnsubj
p214
sbag0
(g1
g2
(lp215
(lp216
S'word: is, index: 4'
p217
aatp218
Rp219
(dp220
g14
Vaux
p221
sbag0
(g1
g2
(lp222
g0
(g1
g2
(lp223
g0
(g1
g2
(lp224
(lp225
S'word: the, index: 6'
p226
aatp227
Rp228
(dp229
g14
Vdet
p230
sbatp231
Rp232
(dp233
g14
S'word: popcorn, index: 7'
p234
sbatp235
Rp236
(dp237
g14
Vdobj
p238
sbatp239
Rp240
(dp241
g14
S'word: catching, index: 5'
p242
sbatp243
Rp244
(dp245
g14
S'id: 3'
p246
sbag0
(g1
g2
(lp247
g0
(g1
g2
(lp248
g0
(g1
g2
(lp249
g0
(g1
g2
(lp250
g0
(g1
g2
(lp251
(lp252
S'word: a, index: 10'
p253
aatp254
Rp255
(dp256
g14
Vdet
p257
sbag0
(g1
g2
(lp258
(lp259
S'word: little, index: 11'
p260
aatp261
Rp262
(dp263
g14
Vamod
p264
sbatp265
Rp266
(dp267
g14
S'word: girl, index: 12'
p268
sbatp269
Rp270
(dp271
g14
Vnsubj
p272
sbag0
(g1
g2
(lp273
(lp274
S'word: is, index: 14'
p275
aatp276
Rp277
(dp278
g14
Vaux
p279
sbag0
(g1
g2
(lp280
g0
(g1
g2
(lp281
g0
(g1
g2
(lp282
g266
atp283
Rp284
(dp285
g14
Vconj
p286
sbag0
(g1
g2
(lp287
(lp288
S'word: The, index: 1'
p289
aatp290
Rp291
(dp292
g14
Vdet
p293
sbag0
(g1
g2
(lp294
g0
(g1
g2
(lp295
g0
(g1
g2
(lp296
g0
(g1
g2
(lp297
g0
(g1
g2
(lp298
(lp299
S'word: the, index: 2'
p300
aatp301
Rp302
(dp303
g14
Vdep
p304
sbatp305
Rp306
(dp307
g14
S'word: the, index: 3'
p308
sbatp309
Rp310
(dp311
g14
Vadvmod
p312
sbatp313
Rp314
(dp315
g14
S'word: the, index: 4'
p316
sbatp317
Rp318
(dp319
g14
Vamod
p320
sbag0
(g1
g2
(lp321
(lp322
S'word: two, index: 8'
p323
aatp324
Rp325
(dp326
g14
Vconj
p327
sbatp328
Rp329
(dp330
g14
S'word: man, index: 5'
p331
sbatp332
Rp333
(dp334
g14
Vnsubj
p335
sbag0
(g1
g2
(lp336
(lp337
S'word: two, index: 8'
p338
aatp339
Rp340
(dp341
g14
Vnsubj
p342
sbatp343
Rp344
(dp345
g14
S'word: laughing, index: 15'
p346
sbatp347
Rp348
(dp349
g14
S'id: 4'
p350
sbag0
(g1
g2
(lp351
g0
(g1
g2
(lp352
g0
(g1
g2
(lp353
(lp354
S'word: The, index: 1'
p355
aatp356
Rp357
(dp358
g14
Vdet
p359
sbatp360
Rp361
(dp362
g14
S'word: ring, index: 2'
p363
sbatp364
Rp365
(dp366
g14
S'id: 5'
p367
sbag0
(g1
g2
(lp368
g0
(g1
g2
(lp369
g0
(g1
g2
(lp370
(lp371
S'word: The, index: 1'
p372
aatp373
Rp374
(dp375
g14
Vdet
p376
sbatp377
Rp378
(dp379
g14
S'word: mass, index: 2'
p380
sbatp381
Rp382
(dp383
g14
S'id: 6'
p384
sbag0
(g1
g2
(lp385
g0
(g1
g2
(lp386
g0
(g1
g2
(lp387
g0
(g1
g2
(lp388
g0
(g1
g2
(lp389
(lp390
S'word: is, index: 4'
p391
aatp392
Rp393
(dp394
g14
Vaux
p395
sbatp396
Rp397
(dp398
g14
S'word: is, index: 5'
p399
sbatp400
Rp401
(dp402
g14
Vccomp
p403
sbag0
(g1
g2
(lp404
g0
(g1
g2
(lp405
g0
(g1
g2
(lp406
(lp407
S'word: a, index: 7'
p408
aatp409
Rp410
(dp411
g14
Vdet
p412
sbatp413
Rp414
(dp415
g14
S'word: lion, index: 8'
p416
sbatp417
Rp418
(dp419
g14
Vnsubj
p420
sbag0
(g1
g2
(lp421
(lp422
S'word: is, index: 9'
p423
aatp424
Rp425
(dp426
g14
Vaux
p427
sbag0
(g1
g2
(lp428
g0
(g1
g2
(lp429
g0
(g1
g2
(lp430
(lp431
S'word: the, index: 12'
p432
aatp433
Rp434
(dp435
g14
Vdet
p436
sbag0
(g1
g2
(lp437
(lp438
S'word: ring, index: 13'
p439
aatp440
Rp441
(dp442
g14
Vnn
p443
sbatp444
Rp445
(dp446
g14
S'word: master, index: 14'
p447
sbatp448
Rp449
(dp450
g14
Vprep
p451
sbag0
(g1
g2
(lp452
g0
(g1
g2
(lp453
g0
(g1
g2
(lp454
(lp455
S'word: The, index: 1'
p456
aatp457
Rp458
(dp459
g14
Vdet
p460
sbatp461
Rp462
(dp463
g14
S'word: lion, index: 2'
p464
sbatp465
Rp466
(dp467
g14
Vnsubj
p468
sbatp469
Rp470
(dp471
g14
S'word: sitting, index: 10'
p472
sbatp473
Rp474
(dp475
g14
S'id: 7'
p476
sbag0
(g1
g2
(lp477
tp478
Rp479
(dp480
g14
S'id: 8'
p481
sbag0
(g1
g2
(lp482
g0
(g1
g2
(lp483
g0
(g1
g2
(lp484
g0
(g1
g2
(lp485
g0
(g1
g2
(lp486
(lp487
S'word: The, index: 1'
p488
aatp489
Rp490
(dp491
g14
Vnsubj
p492
sbatp493
Rp494
(dp495
g14
S'word: riding, index: 2'
p496
sbatp497
Rp498
(dp499
g14
Vadvcl
p500
sbag0
(g1
g2
(lp501
g0
(g1
g2
(lp502
g0
(g1
g2
(lp503
(lp504
S'word: a, index: 4'
p505
aatp506
Rp507
(dp508
g14
Vdet
p509
sbatp510
Rp511
(dp512
g14
S'word: type, index: 5'
p513
sbatp514
Rp515
(dp516
g14
Vnsubj
p517
sbatp518
Rp519
(dp520
g14
S'word: write, index: 6'
p521
sbatp522
Rp523
(dp524
g14
S'id: 9'
p525
sbag0
(g1
g2
(lp526
g0
(g1
g2
(lp527
g0
(g1
g2
(lp528
g0
(g1
g2
(lp529
g0
(g1
g2
(lp530
(lp531
S'word: a, index: 2'
p532
aatp533
Rp534
(dp535
g14
Vpredet
p536
sbag0
(g1
g2
(lp537
(lp538
S'word: the, index: 3'
p539
aatp540
Rp541
(dp542
g14
Vdet
p543
sbatp544
Rp545
(dp546
g14
S'word: walk, index: 4'
p547
sbatp548
Rp549
(dp550
g14
Vdobj
p551
sbatp552
Rp553
(dp554
g14
S'word: Riding, index: 1'
p555
sbatp556
Rp557
(dp558
g14
S'id: 10'
p559
sbag0
(g1
g2
(lp560
g0
(g1
g2
(lp561
g0
(g1
g2
(lp562
(lp563
S'word: The, index: 1'
p564
aatp565
Rp566
(dp567
g14
Vdet
p568
sbag0
(g1
g2
(lp569
g0
(g1
g2
(lp570
g0
(g1
g2
(lp571
(lp572
S'word: the, index: 4'
p573
aatp574
Rp575
(dp576
g14
Vdet
p577
sbag0
(g1
g2
(lp578
(lp579
S'word: tight, index: 5'
p580
aatp581
Rp582
(dp583
g14
Vamod
p584
sbatp585
Rp586
(dp587
g14
S'word: wire, index: 6'
p588
sbatp589
Rp590
(dp591
g14
Vappos
p592
sbag0
(g1
g2
(lp593
(lp594
S'word: balancing, index: 8'
p595
aatp596
Rp597
(dp598
g14
Vappos
p599
sbag0
(g1
g2
(lp600
g0
(g1
g2
(lp601
g0
(g1
g2
(lp602
(lp603
S'word: the, index: 10'
p604
aatp605
Rp606
(dp607
g14
Vnsubj
p608
sbag0
(g1
g2
(lp609
g0
(g1
g2
(lp610
g0
(g1
g2
(lp611
(lp612
S'word: the, index: 12'
p613
aatp614
Rp615
(dp616
g14
Vdet
p617
sbatp618
Rp619
(dp620
g14
S'word: person, index: 13'
p621
sbatp622
Rp623
(dp624
g14
Vdobj
p625
sbatp626
Rp627
(dp628
g14
S'word: balancing, index: 11'
p629
sbatp630
Rp631
(dp632
g14
Vdep
p633
sbatp634
Rp635
(dp636
g14
S'word: type, index: 2'
p637
sbatp638
Rp639
(dp640
g14
S'id: 11'
p641
sbatp642
Rp643
(dp644
g14
S'sentences'
p645
sb.