ccopy_reg
_reconstructor
p0
(cnltk.tree
Tree
p1
c__builtin__
list
p2
(lp3
g0
(g1
g2
(lp4
g0
(g1
g2
(lp5
g0
(g1
g2
(lp6
g0
(g1
g2
(lp7
Vok
p8
atp9
Rp10
(dp11
S'_label'
p12
VNN
p13
sbatp14
Rp15
(dp16
g12
VNP
p17
sbag0
(g1
g2
(lp18
g0
(g1
g2
(lp19
VI
p20
atp21
Rp22
(dp23
g12
VPRP
p24
sbatp25
Rp26
(dp27
g12
VNP
p28
sbag0
(g1
g2
(lp29
g0
(g1
g2
(lp30
Vsaw
p31
atp32
Rp33
(dp34
g12
VVBD
p35
sbag0
(g1
g2
(lp36
g0
(g1
g2
(lp37
Vthis
p38
atp39
Rp40
(dp41
g12
VDT
p42
sbag0
(g1
g2
(lp43
Vyesterday
p44
atp45
Rp46
(dp47
g12
VNN
p48
sbatp49
Rp50
(dp51
g12
VNP-TMP
p52
sbatp53
Rp54
(dp55
g12
VVP
p56
sbag0
(g1
g2
(lp57
V.
p58
atp59
Rp60
(dp61
g12
V.
p62
sbatp63
Rp64
(dp65
g12
VS
p66
sbatp67
Rp68
(dp69
g12
S'id: 0'
p70
sbag0
(g1
g2
(lp71
g0
(g1
g2
(lp72
g0
(g1
g2
(lp73
g0
(g1
g2
(lp74
g0
(g1
g2
(lp75
Vthere
p76
atp77
Rp78
(dp79
g12
VEX
p80
sbatp81
Rp82
(dp83
g12
VNP
p84
sbag0
(g1
g2
(lp85
g0
(g1
g2
(lp86
V's
p87
atp88
Rp89
(dp90
g12
VVBZ
p91
sbag0
(g1
g2
(lp92
g0
(g1
g2
(lp93
Va
p94
atp95
Rp96
(dp97
g12
VDT
p98
sbag0
(g1
g2
(lp99
Vlittle
p100
atp101
Rp102
(dp103
g12
VJJ
p104
sbag0
(g1
g2
(lp105
Vgirl
p106
atp107
Rp108
(dp109
g12
VNN
p110
sbatp111
Rp112
(dp113
g12
VNP
p114
sbatp115
Rp116
(dp117
g12
VVP
p118
sbatp119
Rp120
(dp121
g12
VS
p122
sbag0
(g1
g2
(lp123
V,
p124
atp125
Rp126
(dp127
g12
V,
p128
sbag0
(g1
g2
(lp129
Vand
p130
atp131
Rp132
(dp133
g12
VCC
p134
sbag0
(g1
g2
(lp135
g0
(g1
g2
(lp136
g0
(g1
g2
(lp137
Vshe
p138
atp139
Rp140
(dp141
g12
VPRP
p142
sbatp143
Rp144
(dp145
g12
VNP
p146
sbag0
(g1
g2
(lp147
g0
(g1
g2
(lp148
V's
p149
atp150
Rp151
(dp152
g12
VVBZ
p153
sbag0
(g1
g2
(lp154
g0
(g1
g2
(lp155
Vgetting
p156
atp157
Rp158
(dp159
g12
VVBG
p160
sbag0
(g1
g2
(lp161
g0
(g1
g2
(lp162
g0
(g1
g2
(lp163
Vthis
p164
atp165
Rp166
(dp167
g12
VDT
p168
sbatp169
Rp170
(dp171
g12
VNP
p172
sbag0
(g1
g2
(lp173
g0
(g1
g2
(lp174
Vin
p175
atp176
Rp177
(dp178
g12
VIN
p179
sbag0
(g1
g2
(lp180
g0
(g1
g2
(lp181
Vthe
p182
atp183
Rp184
(dp185
g12
VDT
p186
sbag0
(g1
g2
(lp187
Vsand
p188
atp189
Rp190
(dp191
g12
VNN
p192
sbatp193
Rp194
(dp195
g12
VNP
p196
sbatp197
Rp198
(dp199
g12
VPP
p200
sbatp201
Rp202
(dp203
g12
VNP
p204
sbatp205
Rp206
(dp207
g12
VVP
p208
sbatp209
Rp210
(dp211
g12
VVP
p212
sbatp213
Rp214
(dp215
g12
VS
p216
sbag0
(g1
g2
(lp217
V.
p218
atp219
Rp220
(dp221
g12
V.
p222
sbatp223
Rp224
(dp225
g12
VS
p226
sbatp227
Rp228
(dp229
g12
S'id: 1'
p230
sbag0
(g1
g2
(lp231
g0
(g1
g2
(lp232
g0
(g1
g2
(lp233
Vand
p234
atp235
Rp236
(dp237
g12
VCC
p238
sbag0
(g1
g2
(lp239
g0
(g1
g2
(lp240
Vthat
p241
atp242
Rp243
(dp244
g12
VDT
p245
sbatp246
Rp247
(dp248
g12
VNP
p249
sbag0
(g1
g2
(lp250
g0
(g1
g2
(lp251
V's
p252
atp253
Rp254
(dp255
g12
VVBZ
p256
sbag0
(g1
g2
(lp257
g0
(g1
g2
(lp258
Vappell
p259
atp260
Rp261
(dp262
g12
VNN
p263
sbatp264
Rp265
(dp266
g12
VNP
p267
sbatp268
Rp269
(dp270
g12
VVP
p271
sbag0
(g1
g2
(lp272
V.
p273
atp274
Rp275
(dp276
g12
V.
p277
sbatp278
Rp279
(dp280
g12
VS
p281
sbatp282
Rp283
(dp284
g12
S'id: 2'
p285
sbag0
(g1
g2
(lp286
g0
(g1
g2
(lp287
g0
(g1
g2
(lp288
VAnd
p289
atp290
Rp291
(dp292
g12
VCC
p293
sbag0
(g1
g2
(lp294
g0
(g1
g2
(lp295
Vthat
p296
atp297
Rp298
(dp299
g12
VDT
p300
sbatp301
Rp302
(dp303
g12
VNP
p304
sbag0
(g1
g2
(lp305
g0
(g1
g2
(lp306
V's
p307
atp308
Rp309
(dp310
g12
VVBZ
p311
sbag0
(g1
g2
(lp312
g0
(g1
g2
(lp313
Vc-a-t-ten
p314
atp315
Rp316
(dp317
g12
VNN
p318
sbatp319
Rp320
(dp321
g12
VNP
p322
sbatp323
Rp324
(dp325
g12
VVP
p326
sbag0
(g1
g2
(lp327
V.
p328
atp329
Rp330
(dp331
g12
V.
p332
sbatp333
Rp334
(dp335
g12
VS
p336
sbatp337
Rp338
(dp339
g12
S'id: 3'
p340
sbag0
(g1
g2
(lp341
g0
(g1
g2
(lp342
g0
(g1
g2
(lp343
VAnd
p344
atp345
Rp346
(dp347
g12
VCC
p348
sbag0
(g1
g2
(lp349
g0
(g1
g2
(lp350
Vthat
p351
atp352
Rp353
(dp354
g12
VDT
p355
sbatp356
Rp357
(dp358
g12
VNP
p359
sbag0
(g1
g2
(lp360
g0
(g1
g2
(lp361
V's
p362
atp363
Rp364
(dp365
g12
VVBZ
p366
sbag0
(g1
g2
(lp367
g0
(g1
g2
(lp368
g0
(g1
g2
(lp369
Va
p370
atp371
Rp372
(dp373
g12
VDT
p374
sbatp375
Rp376
(dp377
g12
VNP
p378
sbag0
(g1
g2
(lp379
V,
p380
atp381
Rp382
(dp383
g12
V,
p384
sbag0
(g1
g2
(lp385
g0
(g1
g2
(lp386
g0
(g1
g2
(lp387
Vthat
p388
atp389
Rp390
(dp391
g12
VDT
p392
sbatp393
Rp394
(dp395
g12
VWHNP
p396
sbag0
(g1
g2
(lp397
g0
(g1
g2
(lp398
g0
(g1
g2
(lp399
V's
p400
atp401
Rp402
(dp403
g12
VVBZ
p404
sbag0
(g1
g2
(lp405
g0
(g1
g2
(lp406
g0
(g1
g2
(lp407
Va
p408
atp409
Rp410
(dp411
g12
VDT
p412
sbatp413
Rp414
(dp415
g12
VNP
p416
sbag0
(g1
g2
(lp417
V,
p418
atp419
Rp420
(dp421
g12
V,
p422
sbag0
(g1
g2
(lp423
g0
(g1
g2
(lp424
g0
(g1
g2
(lp425
Vthat
p426
atp427
Rp428
(dp429
g12
VDT
p430
sbatp431
Rp432
(dp433
g12
VWHNP
p434
sbag0
(g1
g2
(lp435
g0
(g1
g2
(lp436
g0
(g1
g2
(lp437
V's
p438
atp439
Rp440
(dp441
g12
VVBZ
p442
sbag0
(g1
g2
(lp443
g0
(g1
g2
(lp444
g0
(g1
g2
(lp445
Va
p446
atp447
Rp448
(dp449
g12
VDT
p450
sbatp451
Rp452
(dp453
g12
VNP
p454
sbag0
(g1
g2
(lp455
V,
p456
atp457
Rp458
(dp459
g12
V,
p460
sbag0
(g1
g2
(lp461
Vlittle
p462
atp463
Rp464
(dp465
g12
VJJ
p466
sbag0
(g1
g2
(lp467
Vman
p468
atp469
Rp470
(dp471
g12
VNN
p472
sbatp473
Rp474
(dp475
g12
VNP
p476
sbag0
(g1
g2
(lp477
g0
(g1
g2
(lp478
Vthere
p479
atp480
Rp481
(dp482
g12
VRB
p483
sbatp484
Rp485
(dp486
g12
VADVP
p487
sbatp488
Rp489
(dp490
g12
VVP
p491
sbatp492
Rp493
(dp494
g12
VS
p495
sbatp496
Rp497
(dp498
g12
VSBAR
p499
sbatp500
Rp501
(dp502
g12
VNP
p503
sbatp504
Rp505
(dp506
g12
VVP
p507
sbatp508
Rp509
(dp510
g12
VS
p511
sbatp512
Rp513
(dp514
g12
VSBAR
p515
sbatp516
Rp517
(dp518
g12
VNP
p519
sbatp520
Rp521
(dp522
g12
VVP
p523
sbag0
(g1
g2
(lp524
V.
p525
atp526
Rp527
(dp528
g12
V.
p529
sbatp530
Rp531
(dp532
g12
VS
p533
sbatp534
Rp535
(dp536
g12
S'id: 4'
p537
sbag0
(g1
g2
(lp538
g0
(g1
g2
(lp539
g0
(g1
g2
(lp540
g0
(g1
g2
(lp541
Vhe
p542
atp543
Rp544
(dp545
g12
VPRP
p546
sbatp547
Rp548
(dp549
g12
VNP
p550
sbag0
(g1
g2
(lp551
g0
(g1
g2
(lp552
V's
p553
atp554
Rp555
(dp556
g12
VVBZ
p557
sbag0
(g1
g2
(lp558
g0
(g1
g2
(lp559
Vactually
p560
atp561
Rp562
(dp563
g12
VRB
p564
sbatp565
Rp566
(dp567
g12
VADVP
p568
sbag0
(g1
g2
(lp569
g0
(g1
g2
(lp570
Va
p571
atp572
Rp573
(dp574
g12
VDT
p575
sbag0
(g1
g2
(lp576
Vbigger
p577
atp578
Rp579
(dp580
g12
VJJR
p581
sbag0
(g1
g2
(lp582
Vman
p583
atp584
Rp585
(dp586
g12
VNN
p587
sbatp588
Rp589
(dp590
g12
VNP
p591
sbatp592
Rp593
(dp594
g12
VVP
p595
sbag0
(g1
g2
(lp596
V.
p597
atp598
Rp599
(dp600
g12
V.
p601
sbatp602
Rp603
(dp604
g12
VS
p605
sbatp606
Rp607
(dp608
g12
S'id: 5'
p609
sbag0
(g1
g2
(lp610
g0
(g1
g2
(lp611
g0
(g1
g2
(lp612
Vand
p613
atp614
Rp615
(dp616
g12
VCC
p617
sbag0
(g1
g2
(lp618
g0
(g1
g2
(lp619
Vthat
p620
atp621
Rp622
(dp623
g12
VDT
p624
sbatp625
Rp626
(dp627
g12
VNP
p628
sbag0
(g1
g2
(lp629
g0
(g1
g2
(lp630
V's
p631
atp632
Rp633
(dp634
g12
VVBZ
p635
sbag0
(g1
g2
(lp636
g0
(g1
g2
(lp637
Vkite
p638
atp639
Rp640
(dp641
g12
VNN
p642
sbatp643
Rp644
(dp645
g12
VNP
p646
sbatp647
Rp648
(dp649
g12
VVP
p650
sbag0
(g1
g2
(lp651
V.
p652
atp653
Rp654
(dp655
g12
V.
p656
sbatp657
Rp658
(dp659
g12
VS
p660
sbatp661
Rp662
(dp663
g12
S'id: 6'
p664
sbag0
(g1
g2
(lp665
g0
(g1
g2
(lp666
g0
(g1
g2
(lp667
Vand
p668
atp669
Rp670
(dp671
g12
VCC
p672
sbag0
(g1
g2
(lp673
g0
(g1
g2
(lp674
Vthat
p675
atp676
Rp677
(dp678
g12
VDT
p679
sbatp680
Rp681
(dp682
g12
VNP
p683
sbag0
(g1
g2
(lp684
g0
(g1
g2
(lp685
V's
p686
atp687
Rp688
(dp689
g12
VVBZ
p690
sbag0
(g1
g2
(lp691
g0
(g1
g2
(lp692
Vhis
p693
atp694
Rp695
(dp696
g12
VPRP$
p697
sbag0
(g1
g2
(lp698
Vdog
p699
atp700
Rp701
(dp702
g12
VNN
p703
sbatp704
Rp705
(dp706
g12
VNP
p707
sbatp708
Rp709
(dp710
g12
VVP
p711
sbag0
(g1
g2
(lp712
V.
p713
atp714
Rp715
(dp716
g12
V.
p717
sbatp718
Rp719
(dp720
g12
VS
p721
sbatp722
Rp723
(dp724
g12
S'id: 7'
p725
sbag0
(g1
g2
(lp726
g0
(g1
g2
(lp727
g0
(g1
g2
(lp728
g0
(g1
g2
(lp729
Vand
p730
atp731
Rp732
(dp733
g12
VCC
p734
sbag0
(g1
g2
(lp735
g0
(g1
g2
(lp736
Vthat
p737
atp738
Rp739
(dp740
g12
VDT
p741
sbatp742
Rp743
(dp744
g12
VNP
p745
sbag0
(g1
g2
(lp746
g0
(g1
g2
(lp747
V's
p748
atp749
Rp750
(dp751
g12
VVBZ
p752
sbag0
(g1
g2
(lp753
g0
(g1
g2
(lp754
Vhis
p755
atp756
Rp757
(dp758
g12
VPRP$
p759
sbag0
(g1
g2
(lp760
Vmom
p761
atp762
Rp763
(dp764
g12
VNN
p765
sbatp766
Rp767
(dp768
g12
VNP
p769
sbatp770
Rp771
(dp772
g12
VVP
p773
sbatp774
Rp775
(dp776
g12
VS
p777
sbag0
(g1
g2
(lp778
V,
p779
atp780
Rp781
(dp782
g12
V,
p783
sbag0
(g1
g2
(lp784
g0
(g1
g2
(lp785
Vthat
p786
atp787
Rp788
(dp789
g12
VDT
p790
sbatp791
Rp792
(dp793
g12
VNP
p794
sbag0
(g1
g2
(lp795
g0
(g1
g2
(lp796
V's
p797
atp798
Rp799
(dp800
g12
VVBZ
p801
sbag0
(g1
g2
(lp802
g0
(g1
g2
(lp803
Vhis
p804
atp805
Rp806
(dp807
g12
VPRP$
p808
sbag0
(g1
g2
(lp809
Vdad
p810
atp811
Rp812
(dp813
g12
VNN
p814
sbatp815
Rp816
(dp817
g12
VNP
p818
sbatp819
Rp820
(dp821
g12
VVP
p822
sbag0
(g1
g2
(lp823
V.
p824
atp825
Rp826
(dp827
g12
V.
p828
sbatp829
Rp830
(dp831
g12
VS
p832
sbatp833
Rp834
(dp835
g12
S'id: 8'
p836
sbag0
(g1
g2
(lp837
g0
(g1
g2
(lp838
g0
(g1
g2
(lp839
g0
(g1
g2
(lp840
Vthere
p841
atp842
Rp843
(dp844
g12
VEX
p845
sbatp846
Rp847
(dp848
g12
VNP
p849
sbag0
(g1
g2
(lp850
g0
(g1
g2
(lp851
V's
p852
atp853
Rp854
(dp855
g12
VVBZ
p856
sbag0
(g1
g2
(lp857
g0
(g1
g2
(lp858
g0
(g1
g2
(lp859
Vshoes
p860
atp861
Rp862
(dp863
g12
VNNS
p864
sbatp865
Rp866
(dp867
g12
VNP
p868
sbag0
(g1
g2
(lp869
V,
p870
atp871
Rp872
(dp873
g12
V,
p874
sbag0
(g1
g2
(lp875
Vand
p876
atp877
Rp878
(dp879
g12
VCC
p880
sbag0
(g1
g2
(lp881
g0
(g1
g2
(lp882
Vthe
p883
atp884
Rp885
(dp886
g12
VDT
p887
sbag0
(g1
g2
(lp888
Vman
p889
atp890
Rp891
(dp892
g12
VNN
p893
sbatp894
Rp895
(dp896
g12
VNP
p897
sbatp898
Rp899
(dp900
g12
VNP
p901
sbag0
(g1
g2
(lp902
g0
(g1
g2
(lp903
Vthere
p904
atp905
Rp906
(dp907
g12
VRB
p908
sbag0
(g1
g2
(lp909
Vout
p910
atp911
Rp912
(dp913
g12
VRB
p914
sbatp915
Rp916
(dp917
g12
VADVP
p918
sbatp919
Rp920
(dp921
g12
VVP
p922
sbag0
(g1
g2
(lp923
V.
p924
atp925
Rp926
(dp927
g12
V.
p928
sbatp929
Rp930
(dp931
g12
VS
p932
sbatp933
Rp934
(dp935
g12
S'id: 9'
p936
sbag0
(g1
g2
(lp937
g0
(g1
g2
(lp938
g0
(g1
g2
(lp939
g0
(g1
g2
(lp940
Vand
p941
atp942
Rp943
(dp944
g12
VCC
p945
sbag0
(g1
g2
(lp946
g0
(g1
g2
(lp947
Vthat
p948
atp949
Rp950
(dp951
g12
VDT
p952
sbatp953
Rp954
(dp955
g12
VNP
p956
sbag0
(g1
g2
(lp957
g0
(g1
g2
(lp958
V's
p959
atp960
Rp961
(dp962
g12
VVBZ
p963
sbag0
(g1
g2
(lp964
g0
(g1
g2
(lp965
Vhis
p966
atp967
Rp968
(dp969
g12
VPRP$
p970
sbag0
(g1
g2
(lp971
Vwoman
p972
atp973
Rp974
(dp975
g12
VNN
p976
sbatp977
Rp978
(dp979
g12
VNP
p980
sbatp981
Rp982
(dp983
g12
VVP
p984
sbatp985
Rp986
(dp987
g12
VS
p988
sbag0
(g1
g2
(lp989
V,
p990
atp991
Rp992
(dp993
g12
V,
p994
sbag0
(g1
g2
(lp995
Vand
p996
atp997
Rp998
(dp999
g12
VCC
p1000
sbag0
(g1
g2
(lp1001
g0
(g1
g2
(lp1002
g0
(g1
g2
(lp1003
Vshe
p1004
atp1005
Rp1006
(dp1007
g12
VPRP
p1008
sbatp1009
Rp1010
(dp1011
g12
VNP
p1012
sbag0
(g1
g2
(lp1013
g0
(g1
g2
(lp1014
V's
p1015
atp1016
Rp1017
(dp1018
g12
VVBZ
p1019
sbag0
(g1
g2
(lp1020
g0
(g1
g2
(lp1021
Vgot
p1022
atp1023
Rp1024
(dp1025
g12
VVBD
p1026
sbag0
(g1
g2
(lp1027
g0
(g1
g2
(lp1028
Vher
p1029
atp1030
Rp1031
(dp1032
g12
VPRP$
p1033
sbag0
(g1
g2
(lp1034
Vkids
p1035
atp1036
Rp1037
(dp1038
g12
VNNS
p1039
sbatp1040
Rp1041
(dp1042
g12
VNP
p1043
sbag0
(g1
g2
(lp1044
g0
(g1
g2
(lp1045
Vout
p1046
atp1047
Rp1048
(dp1049
g12
VIN
p1050
sbag0
(g1
g2
(lp1051
Vthere
p1052
atp1053
Rp1054
(dp1055
g12
VRB
p1056
sbatp1057
Rp1058
(dp1059
g12
VADVP
p1060
sbag0
(g1
g2
(lp1061
g0
(g1
g2
(lp1062
Vthat
p1063
atp1064
Rp1065
(dp1066
g12
VIN
p1067
sbag0
(g1
g2
(lp1068
g0
(g1
g2
(lp1069
g0
(g1
g2
(lp1070
Vshe
p1071
atp1072
Rp1073
(dp1074
g12
VPRP
p1075
sbatp1076
Rp1077
(dp1078
g12
VNP
p1079
sbag0
(g1
g2
(lp1080
g0
(g1
g2
(lp1081
V's
p1082
atp1083
Rp1084
(dp1085
g12
VVBZ
p1086
sbag0
(g1
g2
(lp1087
g0
(g1
g2
(lp1088
Vsitting
p1089
atp1090
Rp1091
(dp1092
g12
VVBG
p1093
sbatp1094
Rp1095
(dp1096
g12
VVP
p1097
sbatp1098
Rp1099
(dp1100
g12
VVP
p1101
sbatp1102
Rp1103
(dp1104
g12
VS
p1105
sbatp1106
Rp1107
(dp1108
g12
VSBAR
p1109
sbatp1110
Rp1111
(dp1112
g12
VVP
p1113
sbatp1114
Rp1115
(dp1116
g12
VVP
p1117
sbatp1118
Rp1119
(dp1120
g12
VS
p1121
sbag0
(g1
g2
(lp1122
V.
p1123
atp1124
Rp1125
(dp1126
g12
V.
p1127
sbatp1128
Rp1129
(dp1130
g12
VS
p1131
sbatp1132
Rp1133
(dp1134
g12
S'id: 10'
p1135
sbag0
(g1
g2
(lp1136
g0
(g1
g2
(lp1137
g0
(g1
g2
(lp1138
Vand
p1139
atp1140
Rp1141
(dp1142
g12
VCC
p1143
sbag0
(g1
g2
(lp1144
g0
(g1
g2
(lp1145
Vthat
p1146
atp1147
Rp1148
(dp1149
g12
VDT
p1150
sbatp1151
Rp1152
(dp1153
g12
VNP
p1154
sbag0
(g1
g2
(lp1155
g0
(g1
g2
(lp1156
V's
p1157
atp1158
Rp1159
(dp1160
g12
VVBZ
p1161
sbag0
(g1
g2
(lp1162
g0
(g1
g2
(lp1163
Vpicnic
p1164
atp1165
Rp1166
(dp1167
g12
VNN
p1168
sbatp1169
Rp1170
(dp1171
g12
VNP
p1172
sbatp1173
Rp1174
(dp1175
g12
VVP
p1176
sbag0
(g1
g2
(lp1177
V.
p1178
atp1179
Rp1180
(dp1181
g12
V.
p1182
sbatp1183
Rp1184
(dp1185
g12
VS
p1186
sbatp1187
Rp1188
(dp1189
g12
S'id: 11'
p1190
sbag0
(g1
g2
(lp1191
g0
(g1
g2
(lp1192
g0
(g1
g2
(lp1193
Vand
p1194
atp1195
Rp1196
(dp1197
g12
VCC
p1198
sbag0
(g1
g2
(lp1199
g0
(g1
g2
(lp1200
Vthat
p1201
atp1202
Rp1203
(dp1204
g12
VDT
p1205
sbatp1206
Rp1207
(dp1208
g12
VNP
p1209
sbag0
(g1
g2
(lp1210
g0
(g1
g2
(lp1211
V's
p1212
atp1213
Rp1214
(dp1215
g12
VVBZ
p1216
sbag0
(g1
g2
(lp1217
g0
(g1
g2
(lp1218
Vin
p1219
atp1220
Rp1221
(dp1222
g12
VIN
p1223
sbag0
(g1
g2
(lp1224
g0
(g1
g2
(lp1225
Va
p1226
atp1227
Rp1228
(dp1229
g12
VDT
p1230
sbag0
(g1
g2
(lp1231
Vbutton
p1232
atp1233
Rp1234
(dp1235
g12
VNN
p1236
sbatp1237
Rp1238
(dp1239
g12
VNP
p1240
sbatp1241
Rp1242
(dp1243
g12
VPP
p1244
sbatp1245
Rp1246
(dp1247
g12
VVP
p1248
sbag0
(g1
g2
(lp1249
V.
p1250
atp1251
Rp1252
(dp1253
g12
V.
p1254
sbatp1255
Rp1256
(dp1257
g12
VS
p1258
sbatp1259
Rp1260
(dp1261
g12
S'id: 12'
p1262
sbag0
(g1
g2
(lp1263
g0
(g1
g2
(lp1264
g0
(g1
g2
(lp1265
Vand
p1266
atp1267
Rp1268
(dp1269
g12
VCC
p1270
sbag0
(g1
g2
(lp1271
g0
(g1
g2
(lp1272
Vthat
p1273
atp1274
Rp1275
(dp1276
g12
VDT
p1277
sbatp1278
Rp1279
(dp1280
g12
VNP
p1281
sbag0
(g1
g2
(lp1282
g0
(g1
g2
(lp1283
V's
p1284
atp1285
Rp1286
(dp1287
g12
VVBZ
p1288
sbag0
(g1
g2
(lp1289
g0
(g1
g2
(lp1290
Vin
p1291
atp1292
Rp1293
(dp1294
g12
VIN
p1295
sbag0
(g1
g2
(lp1296
g0
(g1
g2
(lp1297
g0
(g1
g2
(lp1298
Vthe
p1299
atp1300
Rp1301
(dp1302
g12
VDT
p1303
sbag0
(g1
g2
(lp1304
Vwine
p1305
atp1306
Rp1307
(dp1308
g12
VNN
p1309
sbag0
(g1
g2
(lp1310
V,
p1311
atp1312
Rp1313
(dp1314
g12
V,
p1315
sbag0
(g1
g2
(lp1316
Vor
p1317
atp1318
Rp1319
(dp1320
g12
VCC
p1321
sbag0
(g1
g2
(lp1322
Vwater
p1323
atp1324
Rp1325
(dp1326
g12
VNN
p1327
sbag0
(g1
g2
(lp1328
V,
p1329
atp1330
Rp1331
(dp1332
g12
V,
p1333
sbatp1334
Rp1335
(dp1336
g12
VNP
p1337
sbag0
(g1
g2
(lp1338
g0
(g1
g2
(lp1339
Vgiving
p1340
atp1341
Rp1342
(dp1343
g12
VVBG
p1344
sbag0
(g1
g2
(lp1345
g0
(g1
g2
(lp1346
Vthem
p1347
atp1348
Rp1349
(dp1350
g12
VPRP
p1351
sbatp1352
Rp1353
(dp1354
g12
VNP
p1355
sbag0
(g1
g2
(lp1356
g0
(g1
g2
(lp1357
Vsomething
p1358
atp1359
Rp1360
(dp1361
g12
VNN
p1362
sbag0
(g1
g2
(lp1363
g0
(g1
g2
(lp1364
g0
(g1
g2
(lp1365
Vto
p1366
atp1367
Rp1368
(dp1369
g12
VTO
p1370
sbag0
(g1
g2
(lp1371
g0
(g1
g2
(lp1372
Vdrink
p1373
atp1374
Rp1375
(dp1376
g12
VVB
p1377
sbatp1378
Rp1379
(dp1380
g12
VVP
p1381
sbatp1382
Rp1383
(dp1384
g12
VVP
p1385
sbatp1386
Rp1387
(dp1388
g12
VS
p1389
sbatp1390
Rp1391
(dp1392
g12
VNP
p1393
sbatp1394
Rp1395
(dp1396
g12
VVP
p1397
sbatp1398
Rp1399
(dp1400
g12
VNP
p1401
sbatp1402
Rp1403
(dp1404
g12
VPP
p1405
sbatp1406
Rp1407
(dp1408
g12
VVP
p1409
sbag0
(g1
g2
(lp1410
V.
p1411
atp1412
Rp1413
(dp1414
g12
V.
p1415
sbatp1416
Rp1417
(dp1418
g12
VS
p1419
sbatp1420
Rp1421
(dp1422
g12
S'id: 13'
p1423
sbag0
(g1
g2
(lp1424
g0
(g1
g2
(lp1425
g0
(g1
g2
(lp1426
Vand
p1427
atp1428
Rp1429
(dp1430
g12
VCC
p1431
sbag0
(g1
g2
(lp1432
g0
(g1
g2
(lp1433
Vthat
p1434
atp1435
Rp1436
(dp1437
g12
VDT
p1438
sbatp1439
Rp1440
(dp1441
g12
VNP
p1442
sbag0
(g1
g2
(lp1443
g0
(g1
g2
(lp1444
V's
p1445
atp1446
Rp1447
(dp1448
g12
VVBZ
p1449
sbag0
(g1
g2
(lp1450
g0
(g1
g2
(lp1451
g0
(g1
g2
(lp1452
Va
p1453
atp1454
Rp1455
(dp1456
g12
VDT
p1457
sbag0
(g1
g2
(lp1458
Vp-o-o-k
p1459
atp1460
Rp1461
(dp1462
g12
VNN
p1463
sbatp1464
Rp1465
(dp1466
g12
VNP
p1467
sbag0
(g1
g2
(lp1468
V,
p1469
atp1470
Rp1471
(dp1472
g12
V,
p1473
sbag0
(g1
g2
(lp1474
g0
(g1
g2
(lp1475
g0
(g1
g2
(lp1476
Vbook
p1477
atp1478
Rp1479
(dp1480
g12
VNN
p1481
sbatp1482
Rp1483
(dp1484
g12
VNP
p1485
sbag0
(g1
g2
(lp1486
V,
p1487
atp1488
Rp1489
(dp1490
g12
V,
p1491
sbag0
(g1
g2
(lp1492
g0
(g1
g2
(lp1493
Va
p1494
atp1495
Rp1496
(dp1497
g12
VDT
p1498
sbag0
(g1
g2
(lp1499
Vbook
p1500
atp1501
Rp1502
(dp1503
g12
VNN
p1504
sbatp1505
Rp1506
(dp1507
g12
VNP
p1508
sbatp1509
Rp1510
(dp1511
g12
VNP
p1512
sbatp1513
Rp1514
(dp1515
g12
VNP
p1516
sbatp1517
Rp1518
(dp1519
g12
VVP
p1520
sbag0
(g1
g2
(lp1521
V.
p1522
atp1523
Rp1524
(dp1525
g12
V.
p1526
sbatp1527
Rp1528
(dp1529
g12
VS
p1530
sbatp1531
Rp1532
(dp1533
g12
S'id: 14'
p1534
sbag0
(g1
g2
(lp1535
g0
(g1
g2
(lp1536
g0
(g1
g2
(lp1537
Vand
p1538
atp1539
Rp1540
(dp1541
g12
VCC
p1542
sbag0
(g1
g2
(lp1543
g0
(g1
g2
(lp1544
Vthere
p1545
atp1546
Rp1547
(dp1548
g12
VEX
p1549
sbatp1550
Rp1551
(dp1552
g12
VNP
p1553
sbag0
(g1
g2
(lp1554
g0
(g1
g2
(lp1555
V's
p1556
atp1557
Rp1558
(dp1559
g12
VVBZ
p1560
sbag0
(g1
g2
(lp1561
g0
(g1
g2
(lp1562
Vhis
p1563
atp1564
Rp1565
(dp1566
g12
VPRP$
p1567
sbag0
(g1
g2
(lp1568
Veyes
p1569
atp1570
Rp1571
(dp1572
g12
VNNS
p1573
sbatp1574
Rp1575
(dp1576
g12
VNP
p1577
sbatp1578
Rp1579
(dp1580
g12
VVP
p1581
sbag0
(g1
g2
(lp1582
V.
p1583
atp1584
Rp1585
(dp1586
g12
V.
p1587
sbatp1588
Rp1589
(dp1590
g12
VS
p1591
sbatp1592
Rp1593
(dp1594
g12
S'id: 15'
p1595
sbag0
(g1
g2
(lp1596
g0
(g1
g2
(lp1597
g0
(g1
g2
(lp1598
Vand
p1599
atp1600
Rp1601
(dp1602
g12
VCC
p1603
sbag0
(g1
g2
(lp1604
g0
(g1
g2
(lp1605
Vthere
p1606
atp1607
Rp1608
(dp1609
g12
VEX
p1610
sbatp1611
Rp1612
(dp1613
g12
VNP
p1614
sbag0
(g1
g2
(lp1615
g0
(g1
g2
(lp1616
V's
p1617
atp1618
Rp1619
(dp1620
g12
VVBZ
p1621
sbag0
(g1
g2
(lp1622
g0
(g1
g2
(lp1623
g0
(g1
g2
(lp1624
Va
p1625
atp1626
Rp1627
(dp1628
g12
VDT
p1629
sbag0
(g1
g2
(lp1630
Vman
p1631
atp1632
Rp1633
(dp1634
g12
VNN
p1635
sbatp1636
Rp1637
(dp1638
g12
VNP
p1639
sbag0
(g1
g2
(lp1640
g0
(g1
g2
(lp1641
Vin
p1642
atp1643
Rp1644
(dp1645
g12
VIN
p1646
sbag0
(g1
g2
(lp1647
g0
(g1
g2
(lp1648
Vthe
p1649
atp1650
Rp1651
(dp1652
g12
VDT
p1653
sbag0
(g1
g2
(lp1654
Vfish
p1655
atp1656
Rp1657
(dp1658
g12
VNN
p1659
sbatp1660
Rp1661
(dp1662
g12
VNP
p1663
sbatp1664
Rp1665
(dp1666
g12
VPP
p1667
sbatp1668
Rp1669
(dp1670
g12
VNP
p1671
sbatp1672
Rp1673
(dp1674
g12
VVP
p1675
sbag0
(g1
g2
(lp1676
V.
p1677
atp1678
Rp1679
(dp1680
g12
V.
p1681
sbatp1682
Rp1683
(dp1684
g12
VS
p1685
sbatp1686
Rp1687
(dp1688
g12
S'id: 16'
p1689
sbag0
(g1
g2
(lp1690
g0
(g1
g2
(lp1691
g0
(g1
g2
(lp1692
g0
(g1
g2
(lp1693
Vand
p1694
atp1695
Rp1696
(dp1697
g12
VCC
p1698
sbag0
(g1
g2
(lp1699
g0
(g1
g2
(lp1700
Vthere
p1701
atp1702
Rp1703
(dp1704
g12
VEX
p1705
sbatp1706
Rp1707
(dp1708
g12
VNP
p1709
sbag0
(g1
g2
(lp1710
g0
(g1
g2
(lp1711
V's
p1712
atp1713
Rp1714
(dp1715
g12
VVBZ
p1716
sbag0
(g1
g2
(lp1717
g0
(g1
g2
(lp1718
g0
(g1
g2
(lp1719
Va
p1720
atp1721
Rp1722
(dp1723
g12
VDT
p1724
sbag0
(g1
g2
(lp1725
Vboat
p1726
atp1727
Rp1728
(dp1729
g12
VNN
p1730
sbatp1731
Rp1732
(dp1733
g12
VNP
p1734
sbag0
(g1
g2
(lp1735
g0
(g1
g2
(lp1736
Vin
p1737
atp1738
Rp1739
(dp1740
g12
VIN
p1741
sbag0
(g1
g2
(lp1742
g0
(g1
g2
(lp1743
Vthe
p1744
atp1745
Rp1746
(dp1747
g12
VDT
p1748
sbatp1749
Rp1750
(dp1751
g12
VNP
p1752
sbatp1753
Rp1754
(dp1755
g12
VPP
p1756
sbatp1757
Rp1758
(dp1759
g12
VNP
p1760
sbatp1761
Rp1762
(dp1763
g12
VVP
p1764
sbatp1765
Rp1766
(dp1767
g12
VS
p1768
sbag0
(g1
g2
(lp1769
g0
(g1
g2
(lp1770
V,
p1771
atp1772
Rp1773
(dp1774
g12
V,
p1775
sbag0
(g1
g2
(lp1776
g0
(g1
g2
(lp1777
g0
(g1
g2
(lp1778
Vit
p1779
atp1780
Rp1781
(dp1782
g12
VPRP
p1783
sbatp1784
Rp1785
(dp1786
g12
VNP
p1787
sbag0
(g1
g2
(lp1788
g0
(g1
g2
(lp1789
V's
p1790
atp1791
Rp1792
(dp1793
g12
VVBZ
p1794
sbag0
(g1
g2
(lp1795
g0
(g1
g2
(lp1796
Vat
p1797
atp1798
Rp1799
(dp1800
g12
VIN
p1801
sbag0
(g1
g2
(lp1802
g0
(g1
g2
(lp1803
g0
(g1
g2
(lp1804
Vsail
p1805
atp1806
Rp1807
(dp1808
g12
VNN
p1809
sbatp1810
Rp1811
(dp1812
g12
VNP
p1813
sbag0
(g1
g2
(lp1814
V,
p1815
atp1816
Rp1817
(dp1818
g12
V,
p1819
sbag0
(g1
g2
(lp1820
g0
(g1
g2
(lp1821
Vsailing
p1822
atp1823
Rp1824
(dp1825
g12
VNN
p1826
sbatp1827
Rp1828
(dp1829
g12
VNP
p1830
sbatp1831
Rp1832
(dp1833
g12
VNP
p1834
sbatp1835
Rp1836
(dp1837
g12
VPP
p1838
sbatp1839
Rp1840
(dp1841
g12
VVP
p1842
sbatp1843
Rp1844
(dp1845
g12
VS
p1846
sbag0
(g1
g2
(lp1847
V,
p1848
atp1849
Rp1850
(dp1851
g12
V,
p1852
sbatp1853
Rp1854
(dp1855
g12
VPRN
p1856
sbag0
(g1
g2
(lp1857
Vand
p1858
atp1859
Rp1860
(dp1861
g12
VCC
p1862
sbag0
(g1
g2
(lp1863
g0
(g1
g2
(lp1864
g0
(g1
g2
(lp1865
Vthat
p1866
atp1867
Rp1868
(dp1869
g12
VDT
p1870
sbatp1871
Rp1872
(dp1873
g12
VNP
p1874
sbag0
(g1
g2
(lp1875
g0
(g1
g2
(lp1876
V's
p1877
atp1878
Rp1879
(dp1880
g12
VVBZ
p1881
sbag0
(g1
g2
(lp1882
g0
(g1
g2
(lp1883
Vin
p1884
atp1885
Rp1886
(dp1887
g12
VIN
p1888
sbag0
(g1
g2
(lp1889
g0
(g1
g2
(lp1890
Vthe
p1891
atp1892
Rp1893
(dp1894
g12
VDT
p1895
sbag0
(g1
g2
(lp1896
Vwater
p1897
atp1898
Rp1899
(dp1900
g12
VNN
p1901
sbatp1902
Rp1903
(dp1904
g12
VNP
p1905
sbatp1906
Rp1907
(dp1908
g12
VPP
p1909
sbatp1910
Rp1911
(dp1912
g12
VVP
p1913
sbatp1914
Rp1915
(dp1916
g12
VS
p1917
sbag0
(g1
g2
(lp1918
V.
p1919
atp1920
Rp1921
(dp1922
g12
V.
p1923
sbatp1924
Rp1925
(dp1926
g12
VS
p1927
sbatp1928
Rp1929
(dp1930
g12
S'id: 17'
p1931
sbag0
(g1
g2
(lp1932
g0
(g1
g2
(lp1933
g0
(g1
g2
(lp1934
g0
(g1
g2
(lp1935
Vthat
p1936
atp1937
Rp1938
(dp1939
g12
VDT
p1940
sbatp1941
Rp1942
(dp1943
g12
VNP
p1944
sbag0
(g1
g2
(lp1945
g0
(g1
g2
(lp1946
V's
p1947
atp1948
Rp1949
(dp1950
g12
VVBZ
p1951
sbag0
(g1
g2
(lp1952
g0
(g1
g2
(lp1953
Vtheir
p1954
atp1955
Rp1956
(dp1957
g12
VPRP$
p1958
sbag0
(g1
g2
(lp1959
Vhouse
p1960
atp1961
Rp1962
(dp1963
g12
VNN
p1964
sbatp1965
Rp1966
(dp1967
g12
VNP
p1968
sbatp1969
Rp1970
(dp1971
g12
VVP
p1972
sbag0
(g1
g2
(lp1973
V.
p1974
atp1975
Rp1976
(dp1977
g12
V.
p1978
sbatp1979
Rp1980
(dp1981
g12
VS
p1982
sbatp1983
Rp1984
(dp1985
g12
S'id: 18'
p1986
sbag0
(g1
g2
(lp1987
g0
(g1
g2
(lp1988
g0
(g1
g2
(lp1989
Vand
p1990
atp1991
Rp1992
(dp1993
g12
VCC
p1994
sbag0
(g1
g2
(lp1995
g0
(g1
g2
(lp1996
Vthere
p1997
atp1998
Rp1999
(dp2000
g12
VEX
p2001
sbatp2002
Rp2003
(dp2004
g12
VNP
p2005
sbag0
(g1
g2
(lp2006
g0
(g1
g2
(lp2007
V's
p2008
atp2009
Rp2010
(dp2011
g12
VVBZ
p2012
sbag0
(g1
g2
(lp2013
g0
(g1
g2
(lp2014
Vtheir
p2015
atp2016
Rp2017
(dp2018
g12
VPRP$
p2019
sbag0
(g1
g2
(lp2020
Vcar
p2021
atp2022
Rp2023
(dp2024
g12
VNN
p2025
sbatp2026
Rp2027
(dp2028
g12
VNP
p2029
sbatp2030
Rp2031
(dp2032
g12
VVP
p2033
sbag0
(g1
g2
(lp2034
V.
p2035
atp2036
Rp2037
(dp2038
g12
V.
p2039
sbatp2040
Rp2041
(dp2042
g12
VS
p2043
sbatp2044
Rp2045
(dp2046
g12
S'id: 19'
p2047
sbag0
(g1
g2
(lp2048
g0
(g1
g2
(lp2049
g0
(g1
g2
(lp2050
Vand
p2051
atp2052
Rp2053
(dp2054
g12
VCC
p2055
sbag0
(g1
g2
(lp2056
g0
(g1
g2
(lp2057
Vthat
p2058
atp2059
Rp2060
(dp2061
g12
VDT
p2062
sbatp2063
Rp2064
(dp2065
g12
VNP
p2066
sbag0
(g1
g2
(lp2067
g0
(g1
g2
(lp2068
V's
p2069
atp2070
Rp2071
(dp2072
g12
VVBZ
p2073
sbag0
(g1
g2
(lp2074
g0
(g1
g2
(lp2075
g0
(g1
g2
(lp2076
Vwhere
p2077
atp2078
Rp2079
(dp2080
g12
VWRB
p2081
sbatp2082
Rp2083
(dp2084
g12
VWHADVP
p2085
sbag0
(g1
g2
(lp2086
g0
(g1
g2
(lp2087
g0
(g1
g2
(lp2088
Vthey
p2089
atp2090
Rp2091
(dp2092
g12
VPRP
p2093
sbatp2094
Rp2095
(dp2096
g12
VNP
p2097
sbag0
(g1
g2
(lp2098
g0
(g1
g2
(lp2099
V're
p2100
atp2101
Rp2102
(dp2103
g12
VVBP
p2104
sbag0
(g1
g2
(lp2105
g0
(g1
g2
(lp2106
Vdriving
p2107
atp2108
Rp2109
(dp2110
g12
VVBG
p2111
sbatp2112
Rp2113
(dp2114
g12
VVP
p2115
sbatp2116
Rp2117
(dp2118
g12
VVP
p2119
sbatp2120
Rp2121
(dp2122
g12
VS
p2123
sbatp2124
Rp2125
(dp2126
g12
VSBAR
p2127
sbatp2128
Rp2129
(dp2130
g12
VVP
p2131
sbag0
(g1
g2
(lp2132
V.
p2133
atp2134
Rp2135
(dp2136
g12
V.
p2137
sbatp2138
Rp2139
(dp2140
g12
VS
p2141
sbatp2142
Rp2143
(dp2144
g12
S'id: 20'
p2145
sbag0
(g1
g2
(lp2146
g0
(g1
g2
(lp2147
g0
(g1
g2
(lp2148
Vand
p2149
atp2150
Rp2151
(dp2152
g12
VCC
p2153
sbag0
(g1
g2
(lp2154
V,
p2155
atp2156
Rp2157
(dp2158
g12
V,
p2159
sbag0
(g1
g2
(lp2160
g0
(g1
g2
(lp2161
Vthere
p2162
atp2163
Rp2164
(dp2165
g12
VEX
p2166
sbatp2167
Rp2168
(dp2169
g12
VNP
p2170
sbag0
(g1
g2
(lp2171
g0
(g1
g2
(lp2172
V's
p2173
atp2174
Rp2175
(dp2176
g12
VVBZ
p2177
sbag0
(g1
g2
(lp2178
g0
(g1
g2
(lp2179
g0
(g1
g2
(lp2180
Va
p2181
atp2182
Rp2183
(dp2184
g12
VDT
p2185
sbag0
(g1
g2
(lp2186
Vflag
p2187
atp2188
Rp2189
(dp2190
g12
VNN
p2191
sbatp2192
Rp2193
(dp2194
g12
VNP
p2195
sbag0
(g1
g2
(lp2196
g0
(g1
g2
(lp2197
Vup
p2198
atp2199
Rp2200
(dp2201
g12
VRP
p2202
sbatp2203
Rp2204
(dp2205
g12
VADVP
p2206
sbatp2207
Rp2208
(dp2209
g12
VNP
p2210
sbag0
(g1
g2
(lp2211
g0
(g1
g2
(lp2212
Vin
p2213
atp2214
Rp2215
(dp2216
g12
VIN
p2217
sbag0
(g1
g2
(lp2218
g0
(g1
g2
(lp2219
g0
(g1
g2
(lp2220
g0
(g1
g2
(lp2221
Vthe
p2222
atp2223
Rp2224
(dp2225
g12
VDT
p2226
sbag0
(g1
g2
(lp2227
Vair
p2228
atp2229
Rp2230
(dp2231
g12
VNN
p2232
sbatp2233
Rp2234
(dp2235
g12
VNP
p2236
sbag0
(g1
g2
(lp2237
V,
p2238
atp2239
Rp2240
(dp2241
g12
V,
p2242
sbag0
(g1
g2
(lp2243
Vand
p2244
atp2245
Rp2246
(dp2247
g12
VCC
p2248
sbag0
(g1
g2
(lp2249
g0
(g1
g2
(lp2250
Vthis
p2251
atp2252
Rp2253
(dp2254
g12
VDT
p2255
sbag0
(g1
g2
(lp2256
Vman
p2257
atp2258
Rp2259
(dp2260
g12
VNN
p2261
sbatp2262
Rp2263
(dp2264
g12
VNP
p2265
sbag0
(g1
g2
(lp2266
Van
p2267
atp2268
Rp2269
(dp2270
g12
VDT
p2271
sbatp2272
Rp2273
(dp2274
g12
VNP
p2275
sbag0
(g1
g2
(lp2276
g0
(g1
g2
(lp2277
Vis
p2278
atp2279
Rp2280
(dp2281
g12
VVBZ
p2282
sbag0
(g1
g2
(lp2283
V,
p2284
atp2285
Rp2286
(dp2287
g12
V,
p2288
sbag0
(g1
g2
(lp2289
g0
(g1
g2
(lp2290
Vin
p2291
atp2292
Rp2293
(dp2294
g12
VIN
p2295
sbag0
(g1
g2
(lp2296
g0
(g1
g2
(lp2297
Vthe
p2298
atp2299
Rp2300
(dp2301
g12
VDT
p2302
sbatp2303
Rp2304
(dp2305
g12
VNP
p2306
sbatp2307
Rp2308
(dp2309
g12
VPP
p2310
sbag0
(g1
g2
(lp2311
g0
(g1
g2
(lp2312
Vup
p2313
atp2314
Rp2315
(dp2316
g12
VRB
p2317
sbag0
(g1
g2
(lp2318
Vhere
p2319
atp2320
Rp2321
(dp2322
g12
VRB
p2323
sbatp2324
Rp2325
(dp2326
g12
VADVP
p2327
sbatp2328
Rp2329
(dp2330
g12
VVP
p2331
sbatp2332
Rp2333
(dp2334
g12
VS
p2335
sbatp2336
Rp2337
(dp2338
g12
VSBAR
p2339
sbag0
(g1
g2
(lp2340
V,
p2341
atp2342
Rp2343
(dp2344
g12
V,
p2345
sbag0
(g1
g2
(lp2346
g0
(g1
g2
(lp2347
Vup
p2348
atp2349
Rp2350
(dp2351
g12
VRB
p2352
sbag0
(g1
g2
(lp2353
g0
(g1
g2
(lp2354
Vin
p2355
atp2356
Rp2357
(dp2358
g12
VIN
p2359
sbag0
(g1
g2
(lp2360
g0
(g1
g2
(lp2361
Vthe
p2362
atp2363
Rp2364
(dp2365
g12
VDT
p2366
sbag0
(g1
g2
(lp2367
Vw-h-a-r-f
p2368
atp2369
Rp2370
(dp2371
g12
VJJ
p2372
sbag0
(g1
g2
(lp2373
Vwharf
p2374
atp2375
Rp2376
(dp2377
g12
VNN
p2378
sbatp2379
Rp2380
(dp2381
g12
VNP
p2382
sbatp2383
Rp2384
(dp2385
g12
VPP
p2386
sbatp2387
Rp2388
(dp2389
g12
VADVP
p2390
sbatp2391
Rp2392
(dp2393
g12
VVP
p2394
sbag0
(g1
g2
(lp2395
V.
p2396
atp2397
Rp2398
(dp2399
g12
V.
p2400
sbatp2401
Rp2402
(dp2403
g12
VS
p2404
sbatp2405
Rp2406
(dp2407
g12
S'id: 21'
p2408
sbag0
(g1
g2
(lp2409
g0
(g1
g2
(lp2410
g0
(g1
g2
(lp2411
Vand
p2412
atp2413
Rp2414
(dp2415
g12
VCC
p2416
sbag0
(g1
g2
(lp2417
g0
(g1
g2
(lp2418
Vthat
p2419
atp2420
Rp2421
(dp2422
g12
VDT
p2423
sbatp2424
Rp2425
(dp2426
g12
VNP
p2427
sbag0
(g1
g2
(lp2428
g0
(g1
g2
(lp2429
V's
p2430
atp2431
Rp2432
(dp2433
g12
VVBZ
p2434
sbag0
(g1
g2
(lp2435
g0
(g1
g2
(lp2436
Vin
p2437
atp2438
Rp2439
(dp2440
g12
VIN
p2441
sbag0
(g1
g2
(lp2442
g0
(g1
g2
(lp2443
Vthe
p2444
atp2445
Rp2446
(dp2447
g12
VDT
p2448
sbag0
(g1
g2
(lp2449
Vfishing
p2450
atp2451
Rp2452
(dp2453
g12
VNN
p2454
sbatp2455
Rp2456
(dp2457
g12
VNP
p2458
sbatp2459
Rp2460
(dp2461
g12
VPP
p2462
sbatp2463
Rp2464
(dp2465
g12
VVP
p2466
sbag0
(g1
g2
(lp2467
V.
p2468
atp2469
Rp2470
(dp2471
g12
V.
p2472
sbatp2473
Rp2474
(dp2475
g12
VS
p2476
sbatp2477
Rp2478
(dp2479
g12
S'id: 22'
p2480
sbag0
(g1
g2
(lp2481
g0
(g1
g2
(lp2482
g0
(g1
g2
(lp2483
Vand
p2484
atp2485
Rp2486
(dp2487
g12
VCC
p2488
sbag0
(g1
g2
(lp2489
g0
(g1
g2
(lp2490
Vthat
p2491
atp2492
Rp2493
(dp2494
g12
VDT
p2495
sbatp2496
Rp2497
(dp2498
g12
VNP
p2499
sbag0
(g1
g2
(lp2500
g0
(g1
g2
(lp2501
V's
p2502
atp2503
Rp2504
(dp2505
g12
VVBZ
p2506
sbag0
(g1
g2
(lp2507
g0
(g1
g2
(lp2508
Vhis
p2509
atp2510
Rp2511
(dp2512
g12
VPRP$
p2513
sbag0
(g1
g2
(lp2514
Vboy
p2515
atp2516
Rp2517
(dp2518
g12
VNN
p2519
sbatp2520
Rp2521
(dp2522
g12
VNP
p2523
sbatp2524
Rp2525
(dp2526
g12
VVP
p2527
sbag0
(g1
g2
(lp2528
V.
p2529
atp2530
Rp2531
(dp2532
g12
V.
p2533
sbatp2534
Rp2535
(dp2536
g12
VS
p2537
sbatp2538
Rp2539
(dp2540
g12
S'id: 23'
p2541
sbag0
(g1
g2
(lp2542
g0
(g1
g2
(lp2543
g0
(g1
g2
(lp2544
Vand
p2545
atp2546
Rp2547
(dp2548
g12
VCC
p2549
sbag0
(g1
g2
(lp2550
g0
(g1
g2
(lp2551
Vthat
p2552
atp2553
Rp2554
(dp2555
g12
VDT
p2556
sbatp2557
Rp2558
(dp2559
g12
VNP
p2560
sbag0
(g1
g2
(lp2561
g0
(g1
g2
(lp2562
V's
p2563
atp2564
Rp2565
(dp2566
g12
VVBZ
p2567
sbag0
(g1
g2
(lp2568
g0
(g1
g2
(lp2569
Vhis
p2570
atp2571
Rp2572
(dp2573
g12
VPRP$
p2574
sbag0
(g1
g2
(lp2575
Vlittle
p2576
atp2577
Rp2578
(dp2579
g12
VJJ
p2580
sbag0
(g1
g2
(lp2581
Vdog
p2582
atp2583
Rp2584
(dp2585
g12
VNN
p2586
sbatp2587
Rp2588
(dp2589
g12
VNP
p2590
sbatp2591
Rp2592
(dp2593
g12
VVP
p2594
sbag0
(g1
g2
(lp2595
V.
p2596
atp2597
Rp2598
(dp2599
g12
V.
p2600
sbatp2601
Rp2602
(dp2603
g12
VS
p2604
sbatp2605
Rp2606
(dp2607
g12
S'id: 24'
p2608
sbag0
(g1
g2
(lp2609
g0
(g1
g2
(lp2610
g0
(g1
g2
(lp2611
g0
(g1
g2
(lp2612
Vthat
p2613
atp2614
Rp2615
(dp2616
g12
VDT
p2617
sbatp2618
Rp2619
(dp2620
g12
VNP
p2621
sbag0
(g1
g2
(lp2622
g0
(g1
g2
(lp2623
V's
p2624
atp2625
Rp2626
(dp2627
g12
VVBZ
p2628
sbag0
(g1
g2
(lp2629
g0
(g1
g2
(lp2630
g0
(g1
g2
(lp2631
g0
(g1
g2
(lp2632
Vhis
p2633
atp2634
Rp2635
(dp2636
g12
VPRP$
p2637
sbag0
(g1
g2
(lp2638
Vdog
p2639
atp2640
Rp2641
(dp2642
g12
VNN
p2643
sbag0
(g1
g2
(lp2644
Vlook
p2645
atp2646
Rp2647
(dp2648
g12
VNN
p2649
sbatp2650
Rp2651
(dp2652
g12
VNP
p2653
sbag0
(g1
g2
(lp2654
V,
p2655
atp2656
Rp2657
(dp2658
g12
V,
p2659
sbag0
(g1
g2
(lp2660
g0
(g1
g2
(lp2661
Vright
p2662
atp2663
Rp2664
(dp2665
g12
VRB
p2666
sbag0
(g1
g2
(lp2667
Vthere
p2668
atp2669
Rp2670
(dp2671
g12
VRB
p2672
sbatp2673
Rp2674
(dp2675
g12
VADVP
p2676
sbag0
(g1
g2
(lp2677
V,
p2678
atp2679
Rp2680
(dp2681
g12
V,
p2682
sbatp2683
Rp2684
(dp2685
g12
VNP
p2686
sbag0
(g1
g2
(lp2687
g0
(g1
g2
(lp2688
Vlittle
p2689
atp2690
Rp2691
(dp2692
g12
VJJ
p2693
sbag0
(g1
g2
(lp2694
V,
p2695
atp2696
Rp2697
(dp2698
g12
V,
p2699
sbag0
(g1
g2
(lp2700
Vl-e-c-e
p2701
atp2702
Rp2703
(dp2704
g12
VJJ
p2705
sbatp2706
Rp2707
(dp2708
g12
VADJP
p2709
sbatp2710
Rp2711
(dp2712
g12
VNP
p2713
sbatp2714
Rp2715
(dp2716
g12
VVP
p2717
sbatp2718
Rp2719
(dp2720
g12
VS
p2721
sbatp2722
Rp2723
(dp2724
g12
S'id: 25'
p2725
sbatp2726
Rp2727
(dp2728
g12
S'sentences'
p2729
sb.