ccopy_reg
_reconstructor
p0
(cnltk.tree
Tree
p1
c__builtin__
list
p2
(lp3
g0
(g1
g2
(lp4
tp5
Rp6
(dp7
S'_label'
p8
S'id: 0'
p9
sbag0
(g1
g2
(lp10
g0
(g1
g2
(lp11
g0
(g1
g2
(lp12
g0
(g1
g2
(lp13
g0
(g1
g2
(lp14
g0
(g1
g2
(lp15
g0
(g1
g2
(lp16
(lp17
S'word: the, index: 6'
p18
aatp19
Rp20
(dp21
g8
Vdet
p22
sbatp23
Rp24
(dp25
g8
S'word: man, index: 7'
p26
sbatp27
Rp28
(dp29
g8
Vconj
p30
sbatp31
Rp32
(dp33
g8
S'word: lion, index: 3'
p34
sbatp35
Rp36
(dp37
g8
Vnsubj
p38
sbag0
(g1
g2
(lp39
g24
atp40
Rp41
(dp42
g8
Vnsubj
p43
sbag0
(g1
g2
(lp44
(lp45
S'word: Totally, index: 1'
p46
aatp47
Rp48
(dp49
g8
Vadvmod
p50
sbatp51
Rp52
(dp53
g8
S'word: is, index: 8'
p54
sbatp55
Rp56
(dp57
g8
S'id: 1'
p58
sbag0
(g1
g2
(lp59
g0
(g1
g2
(lp60
g0
(g1
g2
(lp61
g0
(g1
g2
(lp62
g0
(g1
g2
(lp63
(lp64
S'word: The, index: 1'
p65
aatp66
Rp67
(dp68
g8
Vdet
p69
sbatp70
Rp71
(dp72
g8
S'word: man, index: 2'
p73
sbatp74
Rp75
(dp76
g8
Vnsubj
p77
sbag0
(g1
g2
(lp78
(lp79
S'word: is, index: 3'
p80
aatp81
Rp82
(dp83
g8
Vcop
p84
sbag0
(g1
g2
(lp85
(lp86
S'word: the, index: 4'
p87
aatp88
Rp89
(dp90
g8
Vdet
p91
sbatp92
Rp93
(dp94
g8
S'word: bleeding, index: 5'
p95
sbatp96
Rp97
(dp98
g8
S'id: 2'
p99
sbag0
(g1
g2
(lp100
g0
(g1
g2
(lp101
g0
(g1
g2
(lp102
g0
(g1
g2
(lp103
g0
(g1
g2
(lp104
(lp105
S'word: the, index: 12'
p106
aatp107
Rp108
(dp109
g8
Vdet
p110
sbatp111
Rp112
(dp113
g8
S'word: bigit, index: 13'
p114
sbatp115
Rp116
(dp117
g8
Vprep
p118
sbag0
(g1
g2
(lp119
g0
(g1
g2
(lp120
g0
(g1
g2
(lp121
(lp122
S'word: so, index: 2'
p123
aatp124
Rp125
(dp126
g8
Vadvmod
p127
sbatp128
Rp129
(dp130
g8
S'word: It, index: 1'
p131
sbatp132
Rp133
(dp134
g8
Vccomp
p135
sbag0
(g1
g2
(lp136
g0
(g1
g2
(lp137
g0
(g1
g2
(lp138
g0
(g1
g2
(lp139
g0
(g1
g2
(lp140
g0
(g1
g2
(lp141
g0
(g1
g2
(lp142
(lp143
S'word: the, index: 8'
p144
aatp145
Rp146
(dp147
g8
Vdet
p148
sbatp149
Rp150
(dp151
g8
S'word: man, index: 9'
p152
sbatp153
Rp154
(dp155
g8
Vappos
p156
sbatp157
Rp158
(dp159
g8
S'word: cor, index: 6'
p160
sbatp161
Rp162
(dp163
g8
Vappos
p164
sbatp165
Rp166
(dp167
g8
S'word: corp, index: 4'
p168
sbatp169
Rp170
(dp171
g8
Vnsubj
p172
sbatp173
Rp174
(dp175
g8
S'word: crawls, index: 10'
p176
sbatp177
Rp178
(dp179
g8
S'id: 3'
p180
sbag0
(g1
g2
(lp181
g0
(g1
g2
(lp182
g0
(g1
g2
(lp183
(lp184
S'word: I, index: 1'
p185
aatp186
Rp187
(dp188
g8
Vnsubj
p189
sbag0
(g1
g2
(lp190
g0
(g1
g2
(lp191
g0
(g1
g2
(lp192
(lp193
S'word: a, index: 3'
p194
aatp195
Rp196
(dp197
g8
Vdet
p198
sbag0
(g1
g2
(lp199
(lp200
S'word: girl, index: 6'
p201
aatp202
Rp203
(dp204
g8
Vconj
p205
sbatp206
Rp207
(dp208
g8
S'word: man, index: 4'
p209
sbatp210
Rp211
(dp212
g8
Vdobj
p213
sbag0
(g1
g2
(lp214
(lp215
S'word: girl, index: 6'
p216
aatp217
Rp218
(dp219
g8
Vdobj
p220
sbag0
(g1
g2
(lp221
g0
(g1
g2
(lp222
g0
(g1
g2
(lp223
g0
(g1
g2
(lp224
g0
(g1
g2
(lp225
(lp226
S'word: there, index: 12'
p227
aatp228
Rp229
(dp230
g8
Vexpl
p231
sbag0
(g1
g2
(lp232
(lp233
S'word: hornt, index: 14'
p234
aatp235
Rp236
(dp237
g8
Vdobj
p238
sbatp239
Rp240
(dp241
g8
S'word: drinking, index: 13'
p242
sbatp243
Rp244
(dp245
g8
Vdep
p246
sbag0
(g1
g2
(lp247
g0
(g1
g2
(lp248
g0
(g1
g2
(lp249
(lp250
S'word: the, index: 9'
p251
aatp252
Rp253
(dp254
g8
Vdet
p255
sbatp256
Rp257
(dp258
g8
S'word: man, index: 10'
p259
sbatp260
Rp261
(dp262
g8
Vnsubj
p263
sbatp264
Rp265
(dp266
g8
S'word: is, index: 11'
p267
sbatp268
Rp269
(dp270
g8
Vconj
p271
sbatp272
Rp273
(dp274
g8
S'word: saw, index: 2'
p275
sbatp276
Rp277
(dp278
g8
S'id: 4'
p279
sbag0
(g1
g2
(lp280
g0
(g1
g2
(lp281
g0
(g1
g2
(lp282
g0
(g1
g2
(lp283
g0
(g1
g2
(lp284
g0
(g1
g2
(lp285
g0
(g1
g2
(lp286
(lp287
S'word: girl, index: 6'
p288
aatp289
Rp290
(dp291
g8
Vconj
p292
sbag0
(g1
g2
(lp293
g0
(g1
g2
(lp294
g0
(g1
g2
(lp295
(lp296
S'word: a, index: 8'
p297
aatp298
Rp299
(dp300
g8
Vdet
p301
sbag0
(g1
g2
(lp302
(lp303
S'word: black, index: 9'
p304
aatp305
Rp306
(dp307
g8
Vamod
p308
sbag0
(g1
g2
(lp309
(lp310
S'word: therry, index: 11'
p311
aatp312
Rp313
(dp314
g8
Vamod
p315
sbag0
(g1
g2
(lp316
(lp317
S'word: berry, index: 12'
p318
aatp319
Rp320
(dp321
g8
Vnn
p322
sbatp323
Rp324
(dp325
g8
S'word: gary, index: 13'
p326
sbatp327
Rp328
(dp329
g8
Vconj
p330
sbatp331
Rp332
(dp333
g8
S'word: man, index: 4'
p334
sbatp335
Rp336
(dp337
g8
Vnsubj
p338
sbag0
(g1
g2
(lp339
(lp340
S'word: girl, index: 6'
p341
aatp342
Rp343
(dp344
g8
Vnsubj
p345
sbag0
(g1
g2
(lp346
g324
atp347
Rp348
(dp349
g8
Vnsubj
p350
sbag0
(g1
g2
(lp351
(lp352
S'word: is, index: 14'
p353
aatp354
Rp355
(dp356
g8
Vcop
p357
sbatp358
Rp359
(dp360
g8
S'word: good, index: 15'
p361
sbatp362
Rp363
(dp364
g8
Vccomp
p365
sbag0
(g1
g2
(lp366
(lp367
S'word: And, index: 1'
p368
aatp369
Rp370
(dp371
g8
Vcc
p372
sbag0
(g1
g2
(lp373
(lp374
S'word: I, index: 2'
p375
aatp376
Rp377
(dp378
g8
Vnsubj
p379
sbatp380
Rp381
(dp382
g8
S'word: thaw, index: 3'
p383
sbatp384
Rp385
(dp386
g8
S'id: 5'
p387
sbag0
(g1
g2
(lp388
g0
(g1
g2
(lp389
g0
(g1
g2
(lp390
(lp391
S'word: man, index: 2'
p392
aatp393
Rp394
(dp395
g8
Vnsubj
p396
sbag0
(g1
g2
(lp397
(lp398
S'word: is, index: 3'
p399
aatp400
Rp401
(dp402
g8
Vaux
p403
sbag0
(g1
g2
(lp404
g0
(g1
g2
(lp405
g0
(g1
g2
(lp406
(lp407
S'word: the, index: 5'
p408
aatp409
Rp410
(dp411
g8
Vdet
p412
sbatp413
Rp414
(dp415
g8
S'word: showder, index: 6'
p416
sbatp417
Rp418
(dp419
g8
Vdobj
p420
sbag0
(g1
g2
(lp421
(lp422
S'word: And, index: 1'
p423
aatp424
Rp425
(dp426
g8
Vcc
p427
sbatp428
Rp429
(dp430
g8
S'word: drinking, index: 4'
p431
sbatp432
Rp433
(dp434
g8
S'id: 6'
p435
sbag0
(g1
g2
(lp436
g0
(g1
g2
(lp437
g0
(g1
g2
(lp438
g0
(g1
g2
(lp439
g0
(g1
g2
(lp440
(lp441
S'word: somebody, index: 3'
p442
aatp443
Rp444
(dp445
g8
Vconj
p446
sbatp447
Rp448
(dp449
g8
S'word: Clown, index: 1'
p450
sbatp451
Rp452
(dp453
g8
Vnsubj
p454
sbag0
(g1
g2
(lp455
(lp456
S'word: somebody, index: 3'
p457
aatp458
Rp459
(dp460
g8
Vnsubj
p461
sbag0
(g1
g2
(lp462
(lp463
S'word: is, index: 4'
p464
aatp465
Rp466
(dp467
g8
Vaux
p468
sbatp469
Rp470
(dp471
g8
S'word: drinking, index: 5'
p472
sbatp473
Rp474
(dp475
g8
S'id: 7'
p476
sbag0
(g1
g2
(lp477
g0
(g1
g2
(lp478
g0
(g1
g2
(lp479
g0
(g1
g2
(lp480
g0
(g1
g2
(lp481
(lp482
S'word: the, index: 9'
p483
aatp484
Rp485
(dp486
g8
Vdet
p487
sbatp488
Rp489
(dp490
g8
S'word: girl, index: 10'
p491
sbatp492
Rp493
(dp494
g8
Vnsubj
p495
sbag0
(g1
g2
(lp496
g0
(g1
g2
(lp497
g0
(g1
g2
(lp498
(lp499
S'word: another, index: 12'
p500
aatp501
Rp502
(dp503
g8
Vdet
p504
sbatp505
Rp506
(dp507
g8
S'word: one, index: 13'
p508
sbatp509
Rp510
(dp511
g8
Vnsubj
p512
sbag0
(g1
g2
(lp513
(lp514
S'word: is, index: 14'
p515
aatp516
Rp517
(dp518
g8
Vaux
p519
sbag0
(g1
g2
(lp520
(lp521
S'word: They, index: 1'
p522
aatp523
Rp524
(dp525
g8
Vnsubj
p526
sbag0
(g1
g2
(lp527
(lp528
S'word: but, index: 17'
p529
aatp530
Rp531
(dp532
g8
Vadvmod
p533
sbag0
(g1
g2
(lp534
g0
(g1
g2
(lp535
g0
(g1
g2
(lp536
g489
atp537
Rp538
(dp539
g8
Vconj
p540
sbag0
(g1
g2
(lp541
g506
atp542
Rp543
(dp544
g8
Vconj
p545
sbag0
(g1
g2
(lp546
(lp547
S'word: girl, index: 5'
p548
aatp549
Rp550
(dp551
g8
Vconj
p552
sbag0
(g1
g2
(lp553
(lp554
S'word: boy, index: 7'
p555
aatp556
Rp557
(dp558
g8
Vconj
p559
sbatp560
Rp561
(dp562
g8
S'word: man, index: 3'
p563
sbatp564
Rp565
(dp566
g8
Vnsubj
p567
sbag0
(g1
g2
(lp568
(lp569
S'word: girl, index: 5'
p570
aatp571
Rp572
(dp573
g8
Vnsubj
p574
sbag0
(g1
g2
(lp575
(lp576
S'word: boy, index: 7'
p577
aatp578
Rp579
(dp580
g8
Vnsubj
p581
sbatp582
Rp583
(dp584
g8
S'word: laughing, index: 15'
p585
sbatp586
Rp587
(dp588
g8
S'id: 8'
p589
sbatp590
Rp591
(dp592
g8
S'sentences'
p593
sb.