ccopy_reg
_reconstructor
p0
(cnltk.tree
Tree
p1
c__builtin__
list
p2
(lp3
g0
(g1
g2
(lp4
g0
(g1
g2
(lp5
g0
(g1
g2
(lp6
Vok
p7
atp8
Rp9
(dp10
S'_label'
p11
VNN
p12
sbag0
(g1
g2
(lp13
V.
p14
atp15
Rp16
(dp17
g11
V.
p18
sbatp19
Rp20
(dp21
g11
VNP
p22
sbatp23
Rp24
(dp25
g11
S'id: 0'
p26
sbag0
(g1
g2
(lp27
g0
(g1
g2
(lp28
g0
(g1
g2
(lp29
g0
(g1
g2
(lp30
Vhere
p31
atp32
Rp33
(dp34
g11
VRB
p35
sbatp36
Rp37
(dp38
g11
VADVP
p39
sbag0
(g1
g2
(lp40
V,
p41
atp42
Rp43
(dp44
g11
V,
p45
sbag0
(g1
g2
(lp46
g0
(g1
g2
(lp47
g0
(g1
g2
(lp48
Vhere
p49
atp50
Rp51
(dp52
g11
VRB
p53
sbatp54
Rp55
(dp56
g11
VNP
p57
sbag0
(g1
g2
(lp58
V,
p59
atp60
Rp61
(dp62
g11
V,
p63
sbag0
(g1
g2
(lp64
g0
(g1
g2
(lp65
Vhere
p66
atp67
Rp68
(dp69
g11
VRB
p70
sbatp71
Rp72
(dp73
g11
VNP
p74
sbag0
(g1
g2
(lp75
V,
p76
atp77
Rp78
(dp79
g11
V,
p80
sbag0
(g1
g2
(lp81
Vand
p82
atp83
Rp84
(dp85
g11
VCC
p86
sbag0
(g1
g2
(lp87
g0
(g1
g2
(lp88
Vhere
p89
atp90
Rp91
(dp92
g11
VRB
p93
sbatp94
Rp95
(dp96
g11
VNP
p97
sbatp98
Rp99
(dp100
g11
VNP
p101
sbag0
(g1
g2
(lp102
V.
p103
atp104
Rp105
(dp106
g11
V.
p107
sbatp108
Rp109
(dp110
g11
VFRAG
p111
sbatp112
Rp113
(dp114
g11
S'id: 1'
p115
sbag0
(g1
g2
(lp116
g0
(g1
g2
(lp117
g0
(g1
g2
(lp118
Vand
p119
atp120
Rp121
(dp122
g11
VCC
p123
sbag0
(g1
g2
(lp124
g0
(g1
g2
(lp125
Vthere
p126
atp127
Rp128
(dp129
g11
VRB
p130
sbatp131
Rp132
(dp133
g11
VADVP
p134
sbag0
(g1
g2
(lp135
V.
p136
atp137
Rp138
(dp139
g11
V.
p140
sbatp141
Rp142
(dp143
g11
VFRAG
p144
sbatp145
Rp146
(dp147
g11
S'id: 2'
p148
sbatp149
Rp150
(dp151
g11
S'sentences'
p152
sb.