ccopy_reg
_reconstructor
p0
(cnltk.tree
Tree
p1
c__builtin__
list
p2
(lp3
g0
(g1
g2
(lp4
g0
(g1
g2
(lp5
g0
(g1
g2
(lp6
g0
(g1
g2
(lp7
g0
(g1
g2
(lp8
g0
(g1
g2
(lp9
g0
(g1
g2
(lp10
g0
(g1
g2
(lp11
VThe
p12
atp13
Rp14
(dp15
S'_label'
p16
VDT
p17
sbag0
(g1
g2
(lp18
Vboy
p19
atp20
Rp21
(dp22
g16
VNN
p23
sbatp24
Rp25
(dp26
g16
VNP
p27
sbag0
(g1
g2
(lp28
V,
p29
atp30
Rp31
(dp32
g16
V,
p33
sbag0
(g1
g2
(lp34
g0
(g1
g2
(lp35
g0
(g1
g2
(lp36
g0
(g1
g2
(lp37
Vthe
p38
atp39
Rp40
(dp41
g16
VDT
p42
sbag0
(g1
g2
(lp43
Vboy
p44
atp45
Rp46
(dp47
g16
VNN
p48
sbag0
(g1
g2
(lp49
V's
p50
atp51
Rp52
(dp53
g16
VPOS
p54
sbatp55
Rp56
(dp57
g16
VNP
p58
sbag0
(g1
g2
(lp59
Vraiding
p60
atp61
Rp62
(dp63
g16
VNN
p64
sbatp65
Rp66
(dp67
g16
VNP
p68
sbag0
(g1
g2
(lp69
g0
(g1
g2
(lp70
Vthe
p71
atp72
Rp73
(dp74
g16
VDT
p75
sbag0
(g1
g2
(lp76
Vcooking
p77
atp78
Rp79
(dp80
g16
VNN
p81
sbag0
(g1
g2
(lp82
Vjar
p83
atp84
Rp85
(dp86
g16
VNN
p87
sbatp88
Rp89
(dp90
g16
VNP
p91
sbatp92
Rp93
(dp94
g16
VNP
p95
sbag0
(g1
g2
(lp96
V,
p97
atp98
Rp99
(dp100
g16
V,
p101
sbatp102
Rp103
(dp104
g16
VNP
p105
sbag0
(g1
g2
(lp106
Vand
p107
atp108
Rp109
(dp110
g16
VCC
p111
sbag0
(g1
g2
(lp112
g0
(g1
g2
(lp113
V,
p114
atp115
Rp116
(dp117
g16
V,
p118
sbag0
(g1
g2
(lp119
Vand
p120
atp121
Rp122
(dp123
g16
VCC
p124
sbag0
(g1
g2
(lp125
g0
(g1
g2
(lp126
Vhe
p127
atp128
Rp129
(dp130
g16
VPRP
p131
sbatp132
Rp133
(dp134
g16
VNP
p135
sbag0
(g1
g2
(lp136
V,
p137
atp138
Rp139
(dp140
g16
V,
p141
sbatp142
Rp143
(dp144
g16
VPRN
p145
sbag0
(g1
g2
(lp146
g0
(g1
g2
(lp147
Vhe
p148
atp149
Rp150
(dp151
g16
VPRP
p152
sbatp153
Rp154
(dp155
g16
VNP
p156
sbatp157
Rp158
(dp159
g16
VNP
p160
sbag0
(g1
g2
(lp161
g0
(g1
g2
(lp162
V,
p163
atp164
Rp165
(dp166
g16
V,
p167
sbag0
(g1
g2
(lp168
g0
(g1
g2
(lp169
g0
(g1
g2
(lp170
Vhe
p171
atp172
Rp173
(dp174
g16
VPRP
p175
sbatp176
Rp177
(dp178
g16
VNP
p179
sbag0
(g1
g2
(lp180
g0
(g1
g2
(lp181
V's
p182
atp183
Rp184
(dp185
g16
VVBZ
p186
sbag0
(g1
g2
(lp187
g0
(g1
g2
(lp188
Vstanding
p189
atp190
Rp191
(dp192
g16
VVBG
p193
sbag0
(g1
g2
(lp194
g0
(g1
g2
(lp195
Von
p196
atp197
Rp198
(dp199
g16
VIN
p200
sbag0
(g1
g2
(lp201
g0
(g1
g2
(lp202
Va
p203
atp204
Rp205
(dp206
g16
VDT
p207
sbag0
(g1
g2
(lp208
Vstool
p209
atp210
Rp211
(dp212
g16
VNN
p213
sbatp214
Rp215
(dp216
g16
VNP
p217
sbatp218
Rp219
(dp220
g16
VPP
p221
sbatp222
Rp223
(dp224
g16
VVP
p225
sbatp226
Rp227
(dp228
g16
VVP
p229
sbatp230
Rp231
(dp232
g16
VS
p233
sbag0
(g1
g2
(lp234
V,
p235
atp236
Rp237
(dp238
g16
V,
p239
sbatp240
Rp241
(dp242
g16
VPRN
p243
sbatp244
Rp245
(dp246
g16
VNP
p247
sbag0
(g1
g2
(lp248
g0
(g1
g2
(lp249
Von
p250
atp251
Rp252
(dp253
g16
VIN
p254
sbag0
(g1
g2
(lp255
g0
(g1
g2
(lp256
Va
p257
atp258
Rp259
(dp260
g16
VDT
p261
sbag0
(g1
g2
(lp262
Vstool
p263
atp264
Rp265
(dp266
g16
VNN
p267
sbatp268
Rp269
(dp270
g16
VNP
p271
sbatp272
Rp273
(dp274
g16
VPP
p275
sbatp276
Rp277
(dp278
g16
VS
p279
sbag0
(g1
g2
(lp280
V,
p281
atp282
Rp283
(dp284
g16
V,
p285
sbag0
(g1
g2
(lp286
Vand
p287
atp288
Rp289
(dp290
g16
VCC
p291
sbag0
(g1
g2
(lp292
g0
(g1
g2
(lp293
g0
(g1
g2
(lp294
Vhe
p295
atp296
Rp297
(dp298
g16
VPRP
p299
sbatp300
Rp301
(dp302
g16
VNP
p303
sbag0
(g1
g2
(lp304
V,
p305
atp306
Rp307
(dp308
g16
V,
p309
sbag0
(g1
g2
(lp310
g0
(g1
g2
(lp311
Vit
p312
atp313
Rp314
(dp315
g16
VPRP
p316
sbatp317
Rp318
(dp319
g16
VNP
p320
sbatp321
Rp322
(dp323
g16
VS
p324
sbag0
(g1
g2
(lp325
V,
p326
atp327
Rp328
(dp329
g16
V,
p330
sbag0
(g1
g2
(lp331
g0
(g1
g2
(lp332
g0
(g1
g2
(lp333
Vit
p334
atp335
Rp336
(dp337
g16
VPRP
p338
sbatp339
Rp340
(dp341
g16
VNP
p342
sbag0
(g1
g2
(lp343
g0
(g1
g2
(lp344
V's
p345
atp346
Rp347
(dp348
g16
VVBZ
p349
sbag0
(g1
g2
(lp350
g0
(g1
g2
(lp351
Vfalling
p352
atp353
Rp354
(dp355
g16
VVBG
p356
sbatp357
Rp358
(dp359
g16
VVP
p360
sbatp361
Rp362
(dp363
g16
VVP
p364
sbatp365
Rp366
(dp367
g16
VS
p368
sbag0
(g1
g2
(lp369
V.
p370
atp371
Rp372
(dp373
g16
V.
p374
sbatp375
Rp376
(dp377
g16
VS
p378
sbatp379
Rp380
(dp381
g16
S'id: 0'
p382
sbag0
(g1
g2
(lp383
g0
(g1
g2
(lp384
g0
(g1
g2
(lp385
VAnd
p386
atp387
Rp388
(dp389
g16
VCC
p390
sbag0
(g1
g2
(lp391
g0
(g1
g2
(lp392
g0
(g1
g2
(lp393
Vthe
p394
atp395
Rp396
(dp397
g16
VDT
p398
sbag0
(g1
g2
(lp399
Vgirl
p400
atp401
Rp402
(dp403
g16
VNN
p404
sbatp405
Rp406
(dp407
g16
VNP
p408
sbag0
(g1
g2
(lp409
g0
(g1
g2
(lp410
Vis
p411
atp412
Rp413
(dp414
g16
VVBZ
p415
sbag0
(g1
g2
(lp416
g0
(g1
g2
(lp417
Vtelling
p418
atp419
Rp420
(dp421
g16
VVBG
p422
sbag0
(g1
g2
(lp423
g0
(g1
g2
(lp424
g0
(g1
g2
(lp425
g0
(g1
g2
(lp426
Vhim
p427
atp428
Rp429
(dp430
g16
VPRP
p431
sbatp432
Rp433
(dp434
g16
VNP
p435
sbag0
(g1
g2
(lp436
V,
p437
atp438
Rp439
(dp440
g16
V,
p441
sbag0
(g1
g2
(lp442
g0
(g1
g2
(lp443
Vhim
p444
atp445
Rp446
(dp447
g16
VPRP
p448
sbatp449
Rp450
(dp451
g16
VNP
p452
sbag0
(g1
g2
(lp453
V,
p454
atp455
Rp456
(dp457
g16
V,
p458
sbatp459
Rp460
(dp461
g16
VNP
p462
sbag0
(g1
g2
(lp463
g0
(g1
g2
(lp464
Vto
p465
atp466
Rp467
(dp468
g16
VTO
p469
sbag0
(g1
g2
(lp470
g0
(g1
g2
(lp471
Vbe
p472
atp473
Rp474
(dp475
g16
VVB
p476
sbag0
(g1
g2
(lp477
g0
(g1
g2
(lp478
Vquiet
p479
atp480
Rp481
(dp482
g16
VJJ
p483
sbatp484
Rp485
(dp486
g16
VADJP
p487
sbatp488
Rp489
(dp490
g16
VVP
p491
sbatp492
Rp493
(dp494
g16
VVP
p495
sbatp496
Rp497
(dp498
g16
VS
p499
sbatp500
Rp501
(dp502
g16
VVP
p503
sbatp504
Rp505
(dp506
g16
VVP
p507
sbatp508
Rp509
(dp510
g16
VS
p511
sbag0
(g1
g2
(lp512
V,
p513
atp514
Rp515
(dp516
g16
V,
p517
sbag0
(g1
g2
(lp518
Vbut
p519
atp520
Rp521
(dp522
g16
VCC
p523
sbag0
(g1
g2
(lp524
g0
(g1
g2
(lp525
g0
(g1
g2
(lp526
Vshe
p527
atp528
Rp529
(dp530
g16
VPRP
p531
sbatp532
Rp533
(dp534
g16
VNP
p535
sbag0
(g1
g2
(lp536
g0
(g1
g2
(lp537
Valso
p538
atp539
Rp540
(dp541
g16
VRB
p542
sbatp543
Rp544
(dp545
g16
VADVP
p546
sbag0
(g1
g2
(lp547
g0
(g1
g2
(lp548
Vgot
p549
atp550
Rp551
(dp552
g16
VVBD
p553
sbag0
(g1
g2
(lp554
g0
(g1
g2
(lp555
Va
p556
atp557
Rp558
(dp559
g16
VDT
p560
sbag0
(g1
g2
(lp561
Vcookie
p562
atp563
Rp564
(dp565
g16
VNN
p566
sbatp567
Rp568
(dp569
g16
VNP
p570
sbatp571
Rp572
(dp573
g16
VVP
p574
sbatp575
Rp576
(dp577
g16
VS
p578
sbag0
(g1
g2
(lp579
V.
p580
atp581
Rp582
(dp583
g16
V.
p584
sbatp585
Rp586
(dp587
g16
VS
p588
sbatp589
Rp590
(dp591
g16
S'id: 1'
p592
sbag0
(g1
g2
(lp593
g0
(g1
g2
(lp594
g0
(g1
g2
(lp595
g0
(g1
g2
(lp596
g0
(g1
g2
(lp597
g0
(g1
g2
(lp598
g0
(g1
g2
(lp599
VOk
p600
atp601
Rp602
(dp603
g16
VNNP
p604
sbatp605
Rp606
(dp607
g16
VNP
p608
sbag0
(g1
g2
(lp609
V,
p610
atp611
Rp612
(dp613
g16
V,
p614
sbag0
(g1
g2
(lp615
g0
(g1
g2
(lp616
g0
(g1
g2
(lp617
g0
(g1
g2
(lp618
Vthe
p619
atp620
Rp621
(dp622
g16
VDT
p623
sbag0
(g1
g2
(lp624
Vmom
p625
atp626
Rp627
(dp628
g16
VNN
p629
sbatp630
Rp631
(dp632
g16
VNP
p633
sbag0
(g1
g2
(lp634
g0
(g1
g2
(lp635
Vwashing
p636
atp637
Rp638
(dp639
g16
VVBG
p640
sbag0
(g1
g2
(lp641
g0
(g1
g2
(lp642
Vdishes
p643
atp644
Rp645
(dp646
g16
VNNS
p647
sbatp648
Rp649
(dp650
g16
VNP
p651
sbatp652
Rp653
(dp654
g16
VVP
p655
sbatp656
Rp657
(dp658
g16
VNP
p659
sbag0
(g1
g2
(lp660
V,
p661
atp662
Rp663
(dp664
g16
V,
p665
sbag0
(g1
g2
(lp666
Vand
p667
atp668
Rp669
(dp670
g16
VCC
p671
sbag0
(g1
g2
(lp672
g0
(g1
g2
(lp673
g0
(g1
g2
(lp674
Vthe
p675
atp676
Rp677
(dp678
g16
VDT
p679
sbag0
(g1
g2
(lp680
Vsink
p681
atp682
Rp683
(dp684
g16
VNN
p685
sbag0
(g1
g2
(lp686
V's
p687
atp688
Rp689
(dp690
g16
VPOS
p691
sbatp692
Rp693
(dp694
g16
VNP
p695
sbag0
(g1
g2
(lp696
Voverflowing
p697
atp698
Rp699
(dp700
g16
VVBG
p701
sbatp702
Rp703
(dp704
g16
VNP
p705
sbatp706
Rp707
(dp708
g16
VNP
p709
sbatp710
Rp711
(dp712
g16
VNP
p713
sbag0
(g1
g2
(lp714
V,
p715
atp716
Rp717
(dp718
g16
V,
p719
sbag0
(g1
g2
(lp720
g0
(g1
g2
(lp721
g0
(g1
g2
(lp722
Vthe
p723
atp724
Rp725
(dp726
g16
VDT
p727
sbag0
(g1
g2
(lp728
Vsink
p729
atp730
Rp731
(dp732
g16
VNN
p733
sbag0
(g1
g2
(lp734
V's
p735
atp736
Rp737
(dp738
g16
VPOS
p739
sbatp740
Rp741
(dp742
g16
VNP
p743
sbag0
(g1
g2
(lp744
Voverflowing
p745
atp746
Rp747
(dp748
g16
VVBG
p749
sbatp750
Rp751
(dp752
g16
VNP
p753
sbatp754
Rp755
(dp756
g16
VNP
p757
sbatp758
Rp759
(dp760
g16
VVP
p761
sbag0
(g1
g2
(lp762
V.
p763
atp764
Rp765
(dp766
g16
V.
p767
sbatp768
Rp769
(dp770
g16
VS
p771
sbatp772
Rp773
(dp774
g16
S'id: 2'
p775
sbag0
(g1
g2
(lp776
g0
(g1
g2
(lp777
g0
(g1
g2
(lp778
g0
(g1
g2
(lp779
g0
(g1
g2
(lp780
VOk
p781
atp782
Rp783
(dp784
g16
VNNP
p785
sbatp786
Rp787
(dp788
g16
VNP
p789
sbag0
(g1
g2
(lp790
V,
p791
atp792
Rp793
(dp794
g16
V,
p795
sbag0
(g1
g2
(lp796
Vand
p797
atp798
Rp799
(dp800
g16
VCC
p801
sbag0
(g1
g2
(lp802
g0
(g1
g2
(lp803
Vthe
p804
atp805
Rp806
(dp807
g16
VDT
p808
sbag0
(g1
g2
(lp809
Vcurtians
p810
atp811
Rp812
(dp813
g16
VNNS
p814
sbatp815
Rp816
(dp817
g16
VNP
p818
sbatp819
Rp820
(dp821
g16
VNP
p822
sbag0
(g1
g2
(lp823
g0
(g1
g2
(lp824
g0
(g1
g2
(lp825
Vare
p826
atp827
Rp828
(dp829
g16
VVBP
p830
sbatp831
Rp832
(dp833
g16
VVP
p834
sbag0
(g1
g2
(lp835
V,
p836
atp837
Rp838
(dp839
g16
V,
p840
sbag0
(g1
g2
(lp841
g0
(g1
g2
(lp842
g0
(g1
g2
(lp843
Vwhatever
p844
atp845
Rp846
(dp847
g16
VWDT
p848
sbag0
(g1
g2
(lp849
Vcolor
p850
atp851
Rp852
(dp853
g16
VNN
p854
sbatp855
Rp856
(dp857
g16
VWHNP
p858
sbag0
(g1
g2
(lp859
g0
(g1
g2
(lp860
g0
(g1
g2
(lp861
Vthey
p862
atp863
Rp864
(dp865
g16
VPRP
p866
sbatp867
Rp868
(dp869
g16
VNP
p870
sbag0
(g1
g2
(lp871
g0
(g1
g2
(lp872
Vare
p873
atp874
Rp875
(dp876
g16
VVBP
p877
sbatp878
Rp879
(dp880
g16
VVP
p881
sbatp882
Rp883
(dp884
g16
VS
p885
sbatp886
Rp887
(dp888
g16
VSBAR
p889
sbatp890
Rp891
(dp892
g16
VVP
p893
sbag0
(g1
g2
(lp894
V.
p895
atp896
Rp897
(dp898
g16
V.
p899
sbatp900
Rp901
(dp902
g16
VS
p903
sbatp904
Rp905
(dp906
g16
S'id: 3'
p907
sbag0
(g1
g2
(lp908
g0
(g1
g2
(lp909
g0
(g1
g2
(lp910
VAnd
p911
atp912
Rp913
(dp914
g16
VCC
p915
sbag0
(g1
g2
(lp916
g0
(g1
g2
(lp917
Vthere
p918
atp919
Rp920
(dp921
g16
VEX
p922
sbatp923
Rp924
(dp925
g16
VNP
p926
sbag0
(g1
g2
(lp927
g0
(g1
g2
(lp928
Vshrubery
p929
atp930
Rp931
(dp932
g16
VVBZ
p933
sbag0
(g1
g2
(lp934
g0
(g1
g2
(lp935
Vout
p936
atp937
Rp938
(dp939
g16
VRP
p940
sbatp941
Rp942
(dp943
g16
VPRT
p944
sbag0
(g1
g2
(lp945
V,
p946
atp947
Rp948
(dp949
g16
V,
p950
sbag0
(g1
g2
(lp951
g0
(g1
g2
(lp952
Voutside
p953
atp954
Rp955
(dp956
g16
VJJ
p957
sbatp958
Rp959
(dp960
g16
VADVP
p961
sbatp962
Rp963
(dp964
g16
VVP
p965
sbag0
(g1
g2
(lp966
V.
p967
atp968
Rp969
(dp970
g16
V.
p971
sbatp972
Rp973
(dp974
g16
VS
p975
sbatp976
Rp977
(dp978
g16
S'id: 4'
p979
sbag0
(g1
g2
(lp980
g0
(g1
g2
(lp981
g0
(g1
g2
(lp982
VAnd
p983
atp984
Rp985
(dp986
g16
VCC
p987
sbag0
(g1
g2
(lp988
V,
p989
atp990
Rp991
(dp992
g16
V,
p993
sbag0
(g1
g2
(lp994
g0
(g1
g2
(lp995
Vand
p996
atp997
Rp998
(dp999
g16
VCC
p1000
sbag0
(g1
g2
(lp1001
g0
(g1
g2
(lp1002
Vtrees
p1003
atp1004
Rp1005
(dp1006
g16
VNNS
p1007
sbatp1008
Rp1009
(dp1010
g16
VNP
p1011
sbag0
(g1
g2
(lp1012
g0
(g1
g2
(lp1013
Vare
p1014
atp1015
Rp1016
(dp1017
g16
VVBP
p1018
sbag0
(g1
g2
(lp1019
g0
(g1
g2
(lp1020
Voutside
p1021
atp1022
Rp1023
(dp1024
g16
VJJ
p1025
sbatp1026
Rp1027
(dp1028
g16
VADVP
p1029
sbatp1030
Rp1031
(dp1032
g16
VVP
p1033
sbatp1034
Rp1035
(dp1036
g16
VS
p1037
sbag0
(g1
g2
(lp1038
V.
p1039
atp1040
Rp1041
(dp1042
g16
V.
p1043
sbatp1044
Rp1045
(dp1046
g16
VS
p1047
sbatp1048
Rp1049
(dp1050
g16
S'id: 5'
p1051
sbag0
(g1
g2
(lp1052
g0
(g1
g2
(lp1053
g0
(g1
g2
(lp1054
g0
(g1
g2
(lp1055
VAnd
p1056
atp1057
Rp1058
(dp1059
g16
VCC
p1060
sbatp1061
Rp1062
(dp1063
g16
VVP
p1064
sbag0
(g1
g2
(lp1065
V.
p1066
atp1067
Rp1068
(dp1069
g16
V.
p1070
sbatp1071
Rp1072
(dp1073
g16
VS
p1074
sbatp1075
Rp1076
(dp1077
g16
S'id: 6'
p1078
sbag0
(g1
g2
(lp1079
g0
(g1
g2
(lp1080
g0
(g1
g2
(lp1081
g0
(g1
g2
(lp1082
VNo
p1083
atp1084
Rp1085
(dp1086
g16
VDT
p1087
sbatp1088
Rp1089
(dp1090
g16
VNP
p1091
sbag0
(g1
g2
(lp1092
V.
p1093
atp1094
Rp1095
(dp1096
g16
V.
p1097
sbatp1098
Rp1099
(dp1100
g16
VFRAG
p1101
sbatp1102
Rp1103
(dp1104
g16
S'id: 7'
p1105
sbag0
(g1
g2
(lp1106
g0
(g1
g2
(lp1107
g0
(g1
g2
(lp1108
g0
(g1
g2
(lp1109
VThe
p1110
atp1111
Rp1112
(dp1113
g16
VDT
p1114
sbag0
(g1
g2
(lp1115
Vcookie
p1116
atp1117
Rp1118
(dp1119
g16
VNN
p1120
sbag0
(g1
g2
(lp1121
Vjar
p1122
atp1123
Rp1124
(dp1125
g16
VNN
p1126
sbatp1127
Rp1128
(dp1129
g16
VNP
p1130
sbag0
(g1
g2
(lp1131
V,
p1132
atp1133
Rp1134
(dp1135
g16
V,
p1136
sbag0
(g1
g2
(lp1137
g0
(g1
g2
(lp1138
Vno
p1139
atp1140
Rp1141
(dp1142
g16
VDT
p1143
sbatp1144
Rp1145
(dp1146
g16
VNP
p1147
sbag0
(g1
g2
(lp1148
V.
p1149
atp1150
Rp1151
(dp1152
g16
V.
p1153
sbatp1154
Rp1155
(dp1156
g16
VNP
p1157
sbatp1158
Rp1159
(dp1160
g16
S'id: 8'
p1161
sbag0
(g1
g2
(lp1162
g0
(g1
g2
(lp1163
g0
(g1
g2
(lp1164
g0
(g1
g2
(lp1165
g0
(g1
g2
(lp1166
VThe
p1167
atp1168
Rp1169
(dp1170
g16
VDT
p1171
sbag0
(g1
g2
(lp1172
Vcookie
p1173
atp1174
Rp1175
(dp1176
g16
VNN
p1177
sbag0
(g1
g2
(lp1178
Vjar
p1179
atp1180
Rp1181
(dp1182
g16
VNN
p1183
sbatp1184
Rp1185
(dp1186
g16
VNP
p1187
sbag0
(g1
g2
(lp1188
g0
(g1
g2
(lp1189
Vis
p1190
atp1191
Rp1192
(dp1193
g16
VVBZ
p1194
sbag0
(g1
g2
(lp1195
g0
(g1
g2
(lp1196
Von
p1197
atp1198
Rp1199
(dp1200
g16
VIN
p1201
sbag0
(g1
g2
(lp1202
g0
(g1
g2
(lp1203
Vthe
p1204
atp1205
Rp1206
(dp1207
g16
VDT
p1208
sbag0
(g1
g2
(lp1209
Vinside
p1210
atp1211
Rp1212
(dp1213
g16
VNN
p1214
sbatp1215
Rp1216
(dp1217
g16
VNP
p1218
sbatp1219
Rp1220
(dp1221
g16
VPP
p1222
sbatp1223
Rp1224
(dp1225
g16
VVP
p1226
sbatp1227
Rp1228
(dp1229
g16
VS
p1230
sbag0
(g1
g2
(lp1231
V,
p1232
atp1233
Rp1234
(dp1235
g16
V,
p1236
sbag0
(g1
g2
(lp1237
Vand
p1238
atp1239
Rp1240
(dp1241
g16
VCC
p1242
sbag0
(g1
g2
(lp1243
g0
(g1
g2
(lp1244
g0
(g1
g2
(lp1245
Vit
p1246
atp1247
Rp1248
(dp1249
g16
VPRP
p1250
sbatp1251
Rp1252
(dp1253
g16
VNP
p1254
sbag0
(g1
g2
(lp1255
g0
(g1
g2
(lp1256
V's
p1257
atp1258
Rp1259
(dp1260
g16
VVBZ
p1261
sbag0
(g1
g2
(lp1262
g0
(g1
g2
(lp1263
Vbroke
p1264
atp1265
Rp1266
(dp1267
g16
VVBD
p1268
sbag0
(g1
g2
(lp1269
g0
(g1
g2
(lp1270
Vthe
p1271
atp1272
Rp1273
(dp1274
g16
VDT
p1275
sbag0
(g1
g2
(lp1276
Vcookie
p1277
atp1278
Rp1279
(dp1280
g16
VNN
p1281
sbag0
(g1
g2
(lp1282
Vjar
p1283
atp1284
Rp1285
(dp1286
g16
VNN
p1287
sbatp1288
Rp1289
(dp1290
g16
VNP
p1291
sbag0
(g1
g2
(lp1292
g0
(g1
g2
(lp1293
Von
p1294
atp1295
Rp1296
(dp1297
g16
VIN
p1298
sbag0
(g1
g2
(lp1299
g0
(g1
g2
(lp1300
Vit
p1301
atp1302
Rp1303
(dp1304
g16
VPRP
p1305
sbatp1306
Rp1307
(dp1308
g16
VNP
p1309
sbatp1310
Rp1311
(dp1312
g16
VPP
p1313
sbatp1314
Rp1315
(dp1316
g16
VVP
p1317
sbatp1318
Rp1319
(dp1320
g16
VVP
p1321
sbatp1322
Rp1323
(dp1324
g16
VS
p1325
sbag0
(g1
g2
(lp1326
V.
p1327
atp1328
Rp1329
(dp1330
g16
V.
p1331
sbatp1332
Rp1333
(dp1334
g16
VS
p1335
sbatp1336
Rp1337
(dp1338
g16
S'id: 9'
p1339
sbag0
(g1
g2
(lp1340
g0
(g1
g2
(lp1341
g0
(g1
g2
(lp1342
VAnd
p1343
atp1344
Rp1345
(dp1346
g16
VCC
p1347
sbag0
(g1
g2
(lp1348
g0
(g1
g2
(lp1349
g0
(g1
g2
(lp1350
Vhe
p1351
atp1352
Rp1353
(dp1354
g16
VPRP
p1355
sbatp1356
Rp1357
(dp1358
g16
VNP
p1359
sbag0
(g1
g2
(lp1360
V,
p1361
atp1362
Rp1363
(dp1364
g16
V,
p1365
sbag0
(g1
g2
(lp1366
g0
(g1
g2
(lp1367
g0
(g1
g2
(lp1368
Vtheir
p1369
atp1370
Rp1371
(dp1372
g16
VPRP$
p1373
sbatp1374
Rp1375
(dp1376
g16
VNP
p1377
sbag0
(g1
g2
(lp1378
g0
(g1
g2
(lp1379
Vboth
p1380
atp1381
Rp1382
(dp1383
g16
VDT
p1384
sbatp1385
Rp1386
(dp1387
g16
VNP
p1388
sbatp1389
Rp1390
(dp1391
g16
VNP
p1392
sbatp1393
Rp1394
(dp1395
g16
VNP
p1396
sbag0
(g1
g2
(lp1397
g0
(g1
g2
(lp1398
Vdressed
p1399
atp1400
Rp1401
(dp1402
g16
VVBN
p1403
sbag0
(g1
g2
(lp1404
g0
(g1
g2
(lp1405
Vin
p1406
atp1407
Rp1408
(dp1409
g16
VIN
p1410
sbag0
(g1
g2
(lp1411
g0
(g1
g2
(lp1412
V,
p1413
atp1414
Rp1415
(dp1416
g16
V,
p1417
sbag0
(g1
g2
(lp1418
g0
(g1
g2
(lp1419
Vfor
p1420
atp1421
Rp1422
(dp1423
g16
VIN
p1424
sbag0
(g1
g2
(lp1425
g0
(g1
g2
(lp1426
Voutside
p1427
atp1428
Rp1429
(dp1430
g16
VJJ
p1431
sbatp1432
Rp1433
(dp1434
g16
VNP
p1435
sbatp1436
Rp1437
(dp1438
g16
VPP
p1439
sbag0
(g1
g2
(lp1440
V,
p1441
atp1442
Rp1443
(dp1444
g16
V,
p1445
sbatp1446
Rp1447
(dp1448
g16
VPRN
p1449
sbatp1450
Rp1451
(dp1452
g16
VPP
p1453
sbag0
(g1
g2
(lp1454
g0
(g1
g2
(lp1455
Vafter
p1456
atp1457
Rp1458
(dp1459
g16
VIN
p1460
sbag0
(g1
g2
(lp1461
g0
(g1
g2
(lp1462
Va
p1463
atp1464
Rp1465
(dp1466
g16
VDT
p1467
sbag0
(g1
g2
(lp1468
Vwhile
p1469
atp1470
Rp1471
(dp1472
g16
VNN
p1473
sbatp1474
Rp1475
(dp1476
g16
VNP
p1477
sbatp1478
Rp1479
(dp1480
g16
VPP
p1481
sbatp1482
Rp1483
(dp1484
g16
VVP
p1485
sbag0
(g1
g2
(lp1486
V.
p1487
atp1488
Rp1489
(dp1490
g16
V.
p1491
sbatp1492
Rp1493
(dp1494
g16
VS
p1495
sbatp1496
Rp1497
(dp1498
g16
S'id: 10'
p1499
sbag0
(g1
g2
(lp1500
g0
(g1
g2
(lp1501
g0
(g1
g2
(lp1502
g0
(g1
g2
(lp1503
VBut
p1504
atp1505
Rp1506
(dp1507
g16
VCC
p1508
sbag0
(g1
g2
(lp1509
g0
(g1
g2
(lp1510
g0
(g1
g2
(lp1511
Vthe
p1512
atp1513
Rp1514
(dp1515
g16
VDT
p1516
sbatp1517
Rp1518
(dp1519
g16
VX
p1520
sbag0
(g1
g2
(lp1521
g0
(g1
g2
(lp1522
g0
(g1
g2
(lp1523
Vthe
p1524
atp1525
Rp1526
(dp1527
g16
VDT
p1528
sbag0
(g1
g2
(lp1529
Vgirl
p1530
atp1531
Rp1532
(dp1533
g16
VNN
p1534
sbatp1535
Rp1536
(dp1537
g16
VNP
p1538
sbag0
(g1
g2
(lp1539
g0
(g1
g2
(lp1540
Vhas
p1541
atp1542
Rp1543
(dp1544
g16
VVBZ
p1545
sbag0
(g1
g2
(lp1546
g0
(g1
g2
(lp1547
g0
(g1
g2
(lp1548
Von
p1549
atp1550
Rp1551
(dp1552
g16
VIN
p1553
sbag0
(g1
g2
(lp1554
g0
(g1
g2
(lp1555
Va
p1556
atp1557
Rp1558
(dp1559
g16
VDT
p1560
sbag0
(g1
g2
(lp1561
Vskirt
p1562
atp1563
Rp1564
(dp1565
g16
VNN
p1566
sbatp1567
Rp1568
(dp1569
g16
VNP
p1570
sbatp1571
Rp1572
(dp1573
g16
VPP
p1574
sbatp1575
Rp1576
(dp1577
g16
VVP
p1578
sbatp1579
Rp1580
(dp1581
g16
VVP
p1582
sbatp1583
Rp1584
(dp1585
g16
VS
p1586
sbatp1587
Rp1588
(dp1589
g16
VSBAR
p1590
sbag0
(g1
g2
(lp1591
V,
p1592
atp1593
Rp1594
(dp1595
g16
V,
p1596
sbag0
(g1
g2
(lp1597
g0
(g1
g2
(lp1598
Vthe
p1599
atp1600
Rp1601
(dp1602
g16
VDT
p1603
sbag0
(g1
g2
(lp1604
Vgirl
p1605
atp1606
Rp1607
(dp1608
g16
VNN
p1609
sbatp1610
Rp1611
(dp1612
g16
VNP
p1613
sbag0
(g1
g2
(lp1614
g0
(g1
g2
(lp1615
Vhas
p1616
atp1617
Rp1618
(dp1619
g16
VVBZ
p1620
sbag0
(g1
g2
(lp1621
g0
(g1
g2
(lp1622
g0
(g1
g2
(lp1623
Von
p1624
atp1625
Rp1626
(dp1627
g16
VIN
p1628
sbag0
(g1
g2
(lp1629
g0
(g1
g2
(lp1630
Va
p1631
atp1632
Rp1633
(dp1634
g16
VDT
p1635
sbag0
(g1
g2
(lp1636
Vskirt
p1637
atp1638
Rp1639
(dp1640
g16
VNN
p1641
sbag0
(g1
g2
(lp1642
Vand
p1643
atp1644
Rp1645
(dp1646
g16
VCC
p1647
sbag0
(g1
g2
(lp1648
Vblouse
p1649
atp1650
Rp1651
(dp1652
g16
VNN
p1653
sbatp1654
Rp1655
(dp1656
g16
VNP
p1657
sbatp1658
Rp1659
(dp1660
g16
VPP
p1661
sbatp1662
Rp1663
(dp1664
g16
VVP
p1665
sbatp1666
Rp1667
(dp1668
g16
VVP
p1669
sbatp1670
Rp1671
(dp1672
g16
VS
p1673
sbag0
(g1
g2
(lp1674
V,
p1675
atp1676
Rp1677
(dp1678
g16
V,
p1679
sbag0
(g1
g2
(lp1680
Vand
p1681
atp1682
Rp1683
(dp1684
g16
VCC
p1685
sbag0
(g1
g2
(lp1686
g0
(g1
g2
(lp1687
g0
(g1
g2
(lp1688
Vthe
p1689
atp1690
Rp1691
(dp1692
g16
VDT
p1693
sbag0
(g1
g2
(lp1694
Vboy
p1695
atp1696
Rp1697
(dp1698
g16
VNN
p1699
sbatp1700
Rp1701
(dp1702
g16
VNP
p1703
sbag0
(g1
g2
(lp1704
g0
(g1
g2
(lp1705
Vhas
p1706
atp1707
Rp1708
(dp1709
g16
VVBZ
p1710
sbag0
(g1
g2
(lp1711
g0
(g1
g2
(lp1712
g0
(g1
g2
(lp1713
Von
p1714
atp1715
Rp1716
(dp1717
g16
VIN
p1718
sbag0
(g1
g2
(lp1719
g0
(g1
g2
(lp1720
g0
(g1
g2
(lp1721
g0
(g1
g2
(lp1722
Va
p1723
atp1724
Rp1725
(dp1726
g16
VDT
p1727
sbatp1728
Rp1729
(dp1730
g16
VNP
p1731
sbag0
(g1
g2
(lp1732
V,
p1733
atp1734
Rp1735
(dp1736
g16
V,
p1737
sbag0
(g1
g2
(lp1738
g0
(g1
g2
(lp1739
Va
p1740
atp1741
Rp1742
(dp1743
g16
VDT
p1744
sbag0
(g1
g2
(lp1745
Vshirt
p1746
atp1747
Rp1748
(dp1749
g16
VNN
p1750
sbatp1751
Rp1752
(dp1753
g16
VNP
p1754
sbag0
(g1
g2
(lp1755
Vand
p1756
atp1757
Rp1758
(dp1759
g16
VCC
p1760
sbag0
(g1
g2
(lp1761
g0
(g1
g2
(lp1762
Va
p1763
atp1764
Rp1765
(dp1766
g16
VDT
p1767
sbatp1768
Rp1769
(dp1770
g16
VNP
p1771
sbatp1772
Rp1773
(dp1774
g16
VNP
p1775
sbag0
(g1
g2
(lp1776
V,
p1777
atp1778
Rp1779
(dp1780
g16
V,
p1781
sbag0
(g1
g2
(lp1782
Vand
p1783
atp1784
Rp1785
(dp1786
g16
VCC
p1787
sbag0
(g1
g2
(lp1788
g0
(g1
g2
(lp1789
g0
(g1
g2
(lp1790
Va
p1791
atp1792
Rp1793
(dp1794
g16
VDT
p1795
sbag0
(g1
g2
(lp1796
g0
(g1
g2
(lp1797
V,
p1798
atp1799
Rp1800
(dp1801
g16
V,
p1802
sbag0
(g1
g2
(lp1803
Vand
p1804
atp1805
Rp1806
(dp1807
g16
VCC
p1808
sbag0
(g1
g2
(lp1809
g0
(g1
g2
(lp1810
g0
(g1
g2
(lp1811
Va
p1812
atp1813
Rp1814
(dp1815
g16
VDT
p1816
sbatp1817
Rp1818
(dp1819
g16
VNP
p1820
sbag0
(g1
g2
(lp1821
V,
p1822
atp1823
Rp1824
(dp1825
g16
V,
p1826
sbag0
(g1
g2
(lp1827
g0
(g1
g2
(lp1828
Vtwo
p1829
atp1830
Rp1831
(dp1832
g16
VCD
p1833
sbatp1834
Rp1835
(dp1836
g16
VNP
p1837
sbatp1838
Rp1839
(dp1840
g16
VNP
p1841
sbatp1842
Rp1843
(dp1844
g16
VPRN
p1845
sbatp1846
Rp1847
(dp1848
g16
VADJP
p1849
sbag0
(g1
g2
(lp1850
Vshoes
p1851
atp1852
Rp1853
(dp1854
g16
VNNS
p1855
sbatp1856
Rp1857
(dp1858
g16
VNP
p1859
sbatp1860
Rp1861
(dp1862
g16
VNP
p1863
sbatp1864
Rp1865
(dp1866
g16
VPP
p1867
sbatp1868
Rp1869
(dp1870
g16
VVP
p1871
sbatp1872
Rp1873
(dp1874
g16
VVP
p1875
sbatp1876
Rp1877
(dp1878
g16
VS
p1879
sbag0
(g1
g2
(lp1880
V.
p1881
atp1882
Rp1883
(dp1884
g16
V.
p1885
sbatp1886
Rp1887
(dp1888
g16
VS
p1889
sbatp1890
Rp1891
(dp1892
g16
S'id: 11'
p1893
sbag0
(g1
g2
(lp1894
g0
(g1
g2
(lp1895
g0
(g1
g2
(lp1896
g0
(g1
g2
(lp1897
g0
(g1
g2
(lp1898
VOk
p1899
atp1900
Rp1901
(dp1902
g16
VNNP
p1903
sbatp1904
Rp1905
(dp1906
g16
VNP
p1907
sbag0
(g1
g2
(lp1908
g0
(g1
g2
(lp1909
V,
p1910
atp1911
Rp1912
(dp1913
g16
V,
p1914
sbag0
(g1
g2
(lp1915
g0
(g1
g2
(lp1916
g0
(g1
g2
(lp1917
Vthe
p1918
atp1919
Rp1920
(dp1921
g16
VDT
p1922
sbag0
(g1
g2
(lp1923
Vgirl
p1924
atp1925
Rp1926
(dp1927
g16
VNN
p1928
sbatp1929
Rp1930
(dp1931
g16
VNP
p1932
sbag0
(g1
g2
(lp1933
g0
(g1
g2
(lp1934
Vhas
p1935
atp1936
Rp1937
(dp1938
g16
VVBZ
p1939
sbag0
(g1
g2
(lp1940
g0
(g1
g2
(lp1941
g0
(g1
g2
(lp1942
Von
p1943
atp1944
Rp1945
(dp1946
g16
VIN
p1947
sbag0
(g1
g2
(lp1948
g0
(g1
g2
(lp1949
Vballet
p1950
atp1951
Rp1952
(dp1953
g16
VJJ
p1954
sbatp1955
Rp1956
(dp1957
g16
VNP
p1958
sbatp1959
Rp1960
(dp1961
g16
VPP
p1962
sbatp1963
Rp1964
(dp1965
g16
VVP
p1966
sbatp1967
Rp1968
(dp1969
g16
VVP
p1970
sbatp1971
Rp1972
(dp1973
g16
VS
p1974
sbag0
(g1
g2
(lp1975
V,
p1976
atp1977
Rp1978
(dp1979
g16
V,
p1980
sbatp1981
Rp1982
(dp1983
g16
VPRN
p1984
sbag0
(g1
g2
(lp1985
g0
(g1
g2
(lp1986
Vno
p1987
atp1988
Rp1989
(dp1990
g16
VDT
p1991
sbag0
(g1
g2
(lp1992
VI
p1993
atp1994
Rp1995
(dp1996
g16
VPRP
p1997
sbatp1998
Rp1999
(dp2000
g16
VNP
p2001
sbag0
(g1
g2
(lp2002
g0
(g1
g2
(lp2003
Vdo
p2004
atp2005
Rp2006
(dp2007
g16
VVBP
p2008
sbag0
(g1
g2
(lp2009
Vn't
p2010
atp2011
Rp2012
(dp2013
g16
VRB
p2014
sbag0
(g1
g2
(lp2015
g0
(g1
g2
(lp2016
Vknow
p2017
atp2018
Rp2019
(dp2020
g16
VVB
p2021
sbatp2022
Rp2023
(dp2024
g16
VVP
p2025
sbatp2026
Rp2027
(dp2028
g16
VVP
p2029
sbatp2030
Rp2031
(dp2032
g16
VS
p2033
sbag0
(g1
g2
(lp2034
V,
p2035
atp2036
Rp2037
(dp2038
g16
V,
p2039
sbag0
(g1
g2
(lp2040
g0
(g1
g2
(lp2041
Vit
p2042
atp2043
Rp2044
(dp2045
g16
VPRP
p2046
sbatp2047
Rp2048
(dp2049
g16
VNP
p2050
sbag0
(g1
g2
(lp2051
g0
(g1
g2
(lp2052
Vlooks
p2053
atp2054
Rp2055
(dp2056
g16
VVBZ
p2057
sbag0
(g1
g2
(lp2058
g0
(g1
g2
(lp2059
Vlike
p2060
atp2061
Rp2062
(dp2063
g16
VIN
p2064
sbag0
(g1
g2
(lp2065
g0
(g1
g2
(lp2066
Vballet
p2067
atp2068
Rp2069
(dp2070
g16
VJJ
p2071
sbag0
(g1
g2
(lp2072
Vshoes
p2073
atp2074
Rp2075
(dp2076
g16
VNNS
p2077
sbatp2078
Rp2079
(dp2080
g16
VNP
p2081
sbatp2082
Rp2083
(dp2084
g16
VPP
p2085
sbatp2086
Rp2087
(dp2088
g16
VVP
p2089
sbag0
(g1
g2
(lp2090
V.
p2091
atp2092
Rp2093
(dp2094
g16
V.
p2095
sbatp2096
Rp2097
(dp2098
g16
VS
p2099
sbatp2100
Rp2101
(dp2102
g16
S'id: 12'
p2103
sbatp2104
Rp2105
(dp2106
g16
S'sentences'
p2107
sb.