ccopy_reg
_reconstructor
p0
(cnltk.tree
Tree
p1
c__builtin__
list
p2
(lp3
g0
(g1
g2
(lp4
g0
(g1
g2
(lp5
g0
(g1
g2
(lp6
Va lion
p7
atp8
Rp9
(dp10
S'_label'
p11
S'start: 2'
p12
sbatp13
Rp14
(dp15
g11
S'sent: 2'
p16
sbag0
(g1
g2
(lp17
g0
(g1
g2
(lp18
Va high wire act
p19
atp20
Rp21
(dp22
g11
S'start: 5'
p23
sbatp24
Rp25
(dp26
g11
S'sent: 2'
p27
sbag0
(g1
g2
(lp28
g0
(g1
g2
(lp29
Vthe lion
p30
atp31
Rp32
(dp33
g11
S'start: 21'
p34
sbatp35
Rp36
(dp37
g11
S'sent: 2'
p38
sbag0
(g1
g2
(lp39
g0
(g1
g2
(lp40
Vthe high wire act
p41
atp42
Rp43
(dp44
g11
S'start: 3'
p45
sbatp46
Rp47
(dp48
g11
S'sent: 6'
p49
sbatp50
Rp51
(dp52
g11
S'id: 5'
p53
sbag0
(g1
g2
(lp54
g0
(g1
g2
(lp55
g0
(g1
g2
(lp56
Va clown
p57
atp58
Rp59
(dp60
g11
S'start: 10'
p61
sbatp62
Rp63
(dp64
g11
S'sent: 2'
p65
sbag0
(g1
g2
(lp66
g0
(g1
g2
(lp67
Va guy in a cage
p68
atp69
Rp70
(dp71
g11
S'start: 13'
p72
sbatp73
Rp74
(dp75
g11
S'sent: 2'
p76
sbag0
(g1
g2
(lp77
g0
(g1
g2
(lp78
Vthe clown
p79
atp80
Rp81
(dp82
g11
S'start: 38'
p83
sbatp84
Rp85
(dp86
g11
S'sent: 2'
p87
sbatp88
Rp89
(dp90
g11
S'id: 7'
p91
sbag0
(g1
g2
(lp92
g0
(g1
g2
(lp93
g0
(g1
g2
(lp94
VI
p95
atp96
Rp97
(dp98
g11
S'start: 3'
p99
sbatp100
Rp101
(dp102
g11
S'sent: 4'
p103
sbag0
(g1
g2
(lp104
g0
(g1
g2
(lp105
Vthat
p106
atp107
Rp108
(dp109
g11
S'start: 2'
p110
sbatp111
Rp112
(dp113
g11
S'sent: 5'
p114
sbag0
(g1
g2
(lp115
g0
(g1
g2
(lp116
VI
p117
atp118
Rp119
(dp120
g11
S'start: 5'
p121
sbatp122
Rp123
(dp124
g11
S'sent: 5'
p125
sbag0
(g1
g2
(lp126
g0
(g1
g2
(lp127
VI
p128
atp129
Rp130
(dp131
g11
S'start: 1'
p132
sbatp133
Rp134
(dp135
g11
S'sent: 6'
p136
sbatp137
Rp138
(dp139
g11
S'id: 21'
p140
sbag0
(g1
g2
(lp141
g0
(g1
g2
(lp142
g0
(g1
g2
(lp143
Vother people in silhouette
p144
atp145
Rp146
(dp147
g11
S'start: 5'
p148
sbatp149
Rp150
(dp151
g11
S'sent: 4'
p152
sbag0
(g1
g2
(lp153
g0
(g1
g2
(lp154
Vthem
p155
atp156
Rp157
(dp158
g11
S'start: 13'
p159
sbatp160
Rp161
(dp162
g11
S'sent: 4'
p163
sbatp164
Rp165
(dp166
g11
S'id: 22'
p167
sbag0
(g1
g2
(lp168
g0
(g1
g2
(lp169
g0
(g1
g2
(lp170
Va pool
p171
atp172
Rp173
(dp174
g11
S'start: 7'
p175
sbatp176
Rp177
(dp178
g11
S'sent: 5'
p179
sbag0
(g1
g2
(lp180
g0
(g1
g2
(lp181
Vthe pool
p182
atp183
Rp184
(dp185
g11
S'start: 16'
p186
sbatp187
Rp188
(dp189
g11
S'sent: 5'
p190
sbatp191
Rp192
(dp193
g11
S'id: 27'
p194
sbatp195
Rp196
(dp197
g11
S'coreferences'
p198
sb.