ccopy_reg
_reconstructor
p0
(cnltk.tree
Tree
p1
c__builtin__
list
p2
(lp3
g0
(g1
g2
(lp4
g0
(g1
g2
(lp5
g0
(g1
g2
(lp6
Voh
p7
atp8
Rp9
(dp10
S'_label'
p11
VUH
p12
sbag0
(g1
g2
(lp13
g0
(g1
g2
(lp14
Vboy
p15
atp16
Rp17
(dp18
g11
VUH
p19
sbatp20
Rp21
(dp22
g11
VINTJ
p23
sbag0
(g1
g2
(lp24
V.
p25
atp26
Rp27
(dp28
g11
V.
p29
sbatp30
Rp31
(dp32
g11
VFRAG
p33
sbatp34
Rp35
(dp36
g11
S'id: 0'
p37
sbag0
(g1
g2
(lp38
g0
(g1
g2
(lp39
g0
(g1
g2
(lp40
g0
(g1
g2
(lp41
VThe
p42
atp43
Rp44
(dp45
g11
VDT
p46
sbag0
(g1
g2
(lp47
Vman
p48
atp49
Rp50
(dp51
g11
VNN
p52
sbag0
(g1
g2
(lp53
Vand
p54
atp55
Rp56
(dp57
g11
VCC
p58
sbag0
(g1
g2
(lp59
Vwoman
p60
atp61
Rp62
(dp63
g11
VNN
p64
sbatp65
Rp66
(dp67
g11
VNP
p68
sbag0
(g1
g2
(lp69
g0
(g1
g2
(lp70
Vwere
p71
atp72
Rp73
(dp74
g11
VVBD
p75
sbag0
(g1
g2
(lp76
g0
(g1
g2
(lp77
Va
p78
atp79
Rp80
(dp81
g11
VDT
p82
sbag0
(g1
g2
(lp83
g0
(g1
g2
(lp84
g0
(g1
g2
(lp85
g0
(g1
g2
(lp86
Vporing
p87
atp88
Rp89
(dp90
g11
VVBG
p91
sbag0
(g1
g2
(lp92
g0
(g1
g2
(lp93
Vthe
p94
atp95
Rp96
(dp97
g11
VDT
p98
sbag0
(g1
g2
(lp99
Vthe
p100
atp101
Rp102
(dp103
g11
VDT
p104
sbag0
(g1
g2
(lp105
Vwine
p106
atp107
Rp108
(dp109
g11
VNN
p110
sbatp111
Rp112
(dp113
g11
VNP
p114
sbatp115
Rp116
(dp117
g11
VVP
p118
sbatp119
Rp120
(dp121
g11
VS
p122
sbag0
(g1
g2
(lp123
V,
p124
atp125
Rp126
(dp127
g11
V,
p128
sbag0
(g1
g2
(lp129
Vand
p130
atp131
Rp132
(dp133
g11
VCC
p134
sbag0
(g1
g2
(lp135
g0
(g1
g2
(lp136
g0
(g1
g2
(lp137
Vlisten
p138
atp139
Rp140
(dp141
g11
VVB
p142
sbag0
(g1
g2
(lp143
g0
(g1
g2
(lp144
Vto
p145
atp146
Rp147
(dp148
g11
VTO
p149
sbag0
(g1
g2
(lp150
g0
(g1
g2
(lp151
Vthe
p152
atp153
Rp154
(dp155
g11
VDT
p156
sbag0
(g1
g2
(lp157
Vmusic
p158
atp159
Rp160
(dp161
g11
VNN
p162
sbatp163
Rp164
(dp165
g11
VNP
p166
sbatp167
Rp168
(dp169
g11
VPP
p170
sbatp171
Rp172
(dp173
g11
VVP
p174
sbatp175
Rp176
(dp177
g11
VS
p178
sbatp179
Rp180
(dp181
g11
VS
p182
sbatp183
Rp184
(dp185
g11
VNP
p186
sbatp187
Rp188
(dp189
g11
VVP
p190
sbag0
(g1
g2
(lp191
V.
p192
atp193
Rp194
(dp195
g11
V.
p196
sbatp197
Rp198
(dp199
g11
VS
p200
sbatp201
Rp202
(dp203
g11
S'id: 1'
p204
sbag0
(g1
g2
(lp205
g0
(g1
g2
(lp206
g0
(g1
g2
(lp207
g0
(g1
g2
(lp208
VThe
p209
atp210
Rp211
(dp212
g11
VDT
p213
sbag0
(g1
g2
(lp214
Vhouse
p215
atp216
Rp217
(dp218
g11
VNN
p219
sbatp220
Rp221
(dp222
g11
VNP
p223
sbag0
(g1
g2
(lp224
V,
p225
atp226
Rp227
(dp228
g11
V,
p229
sbag0
(g1
g2
(lp230
g0
(g1
g2
(lp231
g0
(g1
g2
(lp232
Vthe
p233
atp234
Rp235
(dp236
g11
VDT
p237
sbag0
(g1
g2
(lp238
Vhouse
p239
atp240
Rp241
(dp242
g11
VNN
p243
sbatp244
Rp245
(dp246
g11
VNP
p247
sbag0
(g1
g2
(lp248
g0
(g1
g2
(lp249
g0
(g1
g2
(lp250
g0
(g1
g2
(lp251
Vis
p252
atp253
Rp254
(dp255
g11
VVBZ
p256
sbag0
(g1
g2
(lp257
g0
(g1
g2
(lp258
g0
(g1
g2
(lp259
Vthe
p260
atp261
Rp262
(dp263
g11
VDT
p264
sbag0
(g1
g2
(lp265
Vcar
p266
atp267
Rp268
(dp269
g11
VNN
p270
sbatp271
Rp272
(dp273
g11
VNP
p274
sbag0
(g1
g2
(lp275
g0
(g1
g2
(lp276
Vin
p277
atp278
Rp279
(dp280
g11
VIN
p281
sbag0
(g1
g2
(lp282
g0
(g1
g2
(lp283
Vwith
p284
atp285
Rp286
(dp287
g11
VIN
p288
sbag0
(g1
g2
(lp289
g0
(g1
g2
(lp290
Vcar
p291
atp292
Rp293
(dp294
g11
VNN
p295
sbatp296
Rp297
(dp298
g11
VNP
p299
sbatp300
Rp301
(dp302
g11
VPP
p303
sbatp304
Rp305
(dp306
g11
VPP
p307
sbatp308
Rp309
(dp310
g11
VNP
p311
sbatp312
Rp313
(dp314
g11
VVP
p315
sbatp316
Rp317
(dp318
g11
VS
p319
sbatp320
Rp321
(dp322
g11
VSBAR
p323
sbatp324
Rp325
(dp326
g11
VNP
p327
sbag0
(g1
g2
(lp328
V,
p329
atp330
Rp331
(dp332
g11
V,
p333
sbag0
(g1
g2
(lp334
g0
(g1
g2
(lp335
Vwith
p336
atp337
Rp338
(dp339
g11
VIN
p340
sbag0
(g1
g2
(lp341
g0
(g1
g2
(lp342
Voutside
p343
atp344
Rp345
(dp346
g11
VJJ
p347
sbatp348
Rp349
(dp350
g11
VNP
p351
sbatp352
Rp353
(dp354
g11
VPP
p355
sbag0
(g1
g2
(lp356
V.
p357
atp358
Rp359
(dp360
g11
V.
p361
sbatp362
Rp363
(dp364
g11
VNP
p365
sbatp366
Rp367
(dp368
g11
S'id: 2'
p369
sbag0
(g1
g2
(lp370
g0
(g1
g2
(lp371
g0
(g1
g2
(lp372
g0
(g1
g2
(lp373
VThe
p374
atp375
Rp376
(dp377
g11
VDT
p378
sbag0
(g1
g2
(lp379
Vtress
p380
atp381
Rp382
(dp383
g11
VNN
p384
sbatp385
Rp386
(dp387
g11
VNP
p388
sbag0
(g1
g2
(lp389
g0
(g1
g2
(lp390
Vis
p391
atp392
Rp393
(dp394
g11
VVBZ
p395
sbag0
(g1
g2
(lp396
g0
(g1
g2
(lp397
g0
(g1
g2
(lp398
Va
p399
atp400
Rp401
(dp402
g11
VDT
p403
sbag0
(g1
g2
(lp404
Vblooming
p405
atp406
Rp407
(dp408
g11
VVBG
p409
sbag0
(g1
g2
(lp410
V,
p411
atp412
Rp413
(dp414
g11
V,
p415
sbag0
(g1
g2
(lp416
Vblue
p417
atp418
Rp419
(dp420
g11
VJJ
p421
sbag0
(g1
g2
(lp422
Vtree
p423
atp424
Rp425
(dp426
g11
VNN
p427
sbatp428
Rp429
(dp430
g11
VNP
p431
sbag0
(g1
g2
(lp432
g0
(g1
g2
(lp433
g0
(g1
g2
(lp434
g0
(g1
g2
(lp435
Vis
p436
atp437
Rp438
(dp439
g11
VVBZ
p440
sbag0
(g1
g2
(lp441
g0
(g1
g2
(lp442
Vok
p443
atp444
Rp445
(dp446
g11
VNN
p447
sbatp448
Rp449
(dp450
g11
VNP
p451
sbatp452
Rp453
(dp454
g11
VVP
p455
sbatp456
Rp457
(dp458
g11
VS
p459
sbatp460
Rp461
(dp462
g11
VSBAR
p463
sbatp464
Rp465
(dp466
g11
VNP
p467
sbatp468
Rp469
(dp470
g11
VVP
p471
sbag0
(g1
g2
(lp472
V.
p473
atp474
Rp475
(dp476
g11
V.
p477
sbatp478
Rp479
(dp480
g11
VS
p481
sbatp482
Rp483
(dp484
g11
S'id: 3'
p485
sbag0
(g1
g2
(lp486
g0
(g1
g2
(lp487
g0
(g1
g2
(lp488
g0
(g1
g2
(lp489
g0
(g1
g2
(lp490
VA
p491
atp492
Rp493
(dp494
g11
VDT
p495
sbag0
(g1
g2
(lp496
Vflag
p497
atp498
Rp499
(dp500
g11
VNN
p501
sbatp502
Rp503
(dp504
g11
VNP
p505
sbag0
(g1
g2
(lp506
V,
p507
atp508
Rp509
(dp510
g11
V,
p511
sbag0
(g1
g2
(lp512
Vand
p513
atp514
Rp515
(dp516
g11
VCC
p517
sbag0
(g1
g2
(lp518
g0
(g1
g2
(lp519
Va
p520
atp521
Rp522
(dp523
g11
VDT
p524
sbag0
(g1
g2
(lp525
Vthe
p526
atp527
Rp528
(dp529
g11
VDT
p530
sbag0
(g1
g2
(lp531
Vboy
p532
atp533
Rp534
(dp535
g11
VNN
p536
sbatp537
Rp538
(dp539
g11
VNP
p540
sbatp541
Rp542
(dp543
g11
VNP
p544
sbag0
(g1
g2
(lp545
g0
(g1
g2
(lp546
Vis
p547
atp548
Rp549
(dp550
g11
VVBZ
p551
sbag0
(g1
g2
(lp552
g0
(g1
g2
(lp553
g0
(g1
g2
(lp554
Va
p555
atp556
Rp557
(dp558
g11
VDT
p559
sbag0
(g1
g2
(lp560
Vkite
p561
atp562
Rp563
(dp564
g11
VNN
p565
sbatp566
Rp567
(dp568
g11
VNP
p569
sbag0
(g1
g2
(lp570
V,
p571
atp572
Rp573
(dp574
g11
V,
p575
sbag0
(g1
g2
(lp576
Vand
p577
atp578
Rp579
(dp580
g11
VCC
p581
sbag0
(g1
g2
(lp582
g0
(g1
g2
(lp583
Va
p584
atp585
Rp586
(dp587
g11
VDT
p588
sbag0
(g1
g2
(lp589
Vrun
p590
atp591
Rp592
(dp593
g11
VNN
p594
sbag0
(g1
g2
(lp595
Vdog
p596
atp597
Rp598
(dp599
g11
VNN
p600
sbatp601
Rp602
(dp603
g11
VNP
p604
sbatp605
Rp606
(dp607
g11
VNP
p608
sbatp609
Rp610
(dp611
g11
VVP
p612
sbag0
(g1
g2
(lp613
V.
p614
atp615
Rp616
(dp617
g11
V.
p618
sbatp619
Rp620
(dp621
g11
VS
p622
sbatp623
Rp624
(dp625
g11
S'id: 4'
p626
sbag0
(g1
g2
(lp627
g0
(g1
g2
(lp628
g0
(g1
g2
(lp629
g0
(g1
g2
(lp630
VSandcastle
p631
atp632
Rp633
(dp634
g11
VNNP
p635
sbatp636
Rp637
(dp638
g11
VNP
p639
sbag0
(g1
g2
(lp640
g0
(g1
g2
(lp641
Vis
p642
atp643
Rp644
(dp645
g11
VVBZ
p646
sbag0
(g1
g2
(lp647
g0
(g1
g2
(lp648
Va
p649
atp650
Rp651
(dp652
g11
VDT
p653
sbag0
(g1
g2
(lp654
Vwoman
p655
atp656
Rp657
(dp658
g11
VNN
p659
sbatp660
Rp661
(dp662
g11
VNP
p663
sbatp664
Rp665
(dp666
g11
VVP
p667
sbag0
(g1
g2
(lp668
V.
p669
atp670
Rp671
(dp672
g11
V.
p673
sbatp674
Rp675
(dp676
g11
VS
p677
sbatp678
Rp679
(dp680
g11
S'id: 5'
p681
sbag0
(g1
g2
(lp682
g0
(g1
g2
(lp683
g0
(g1
g2
(lp684
g0
(g1
g2
(lp685
g0
(g1
g2
(lp686
VA
p687
atp688
Rp689
(dp690
g11
VDT
p691
sbag0
(g1
g2
(lp692
Vchild
p693
atp694
Rp695
(dp696
g11
VNN
p697
sbatp698
Rp699
(dp700
g11
VNP
p701
sbag0
(g1
g2
(lp702
V,
p703
atp704
Rp705
(dp706
g11
V,
p707
sbag0
(g1
g2
(lp708
g0
(g1
g2
(lp709
Vchild
p710
atp711
Rp712
(dp713
g11
VNN
p714
sbatp715
Rp716
(dp717
g11
VNP
p718
sbatp719
Rp720
(dp721
g11
VNP
p722
sbag0
(g1
g2
(lp723
g0
(g1
g2
(lp724
Vis
p725
atp726
Rp727
(dp728
g11
VVBZ
p729
sbag0
(g1
g2
(lp730
g0
(g1
g2
(lp731
Va
p732
atp733
Rp734
(dp735
g11
VDT
p736
sbag0
(g1
g2
(lp737
Vcastle
p738
atp739
Rp740
(dp741
g11
VNN
p742
sbatp743
Rp744
(dp745
g11
VNP
p746
sbatp747
Rp748
(dp749
g11
VVP
p750
sbag0
(g1
g2
(lp751
V.
p752
atp753
Rp754
(dp755
g11
V.
p756
sbatp757
Rp758
(dp759
g11
VS
p760
sbatp761
Rp762
(dp763
g11
S'id: 6'
p764
sbag0
(g1
g2
(lp765
g0
(g1
g2
(lp766
g0
(g1
g2
(lp767
g0
(g1
g2
(lp768
VIn
p769
atp770
Rp771
(dp772
g11
VIN
p773
sbag0
(g1
g2
(lp774
g0
(g1
g2
(lp775
g0
(g1
g2
(lp776
Va
p777
atp778
Rp779
(dp780
g11
VDT
p781
sbag0
(g1
g2
(lp782
Vfishing
p783
atp784
Rp785
(dp786
g11
VNN
p787
sbatp788
Rp789
(dp790
g11
VNP
p791
sbag0
(g1
g2
(lp792
g0
(g1
g2
(lp793
Vis
p794
atp795
Rp796
(dp797
g11
VVBZ
p798
sbag0
(g1
g2
(lp799
g0
(g1
g2
(lp800
Va
p801
atp802
Rp803
(dp804
g11
VDT
p805
sbatp806
Rp807
(dp808
g11
VNP
p809
sbatp810
Rp811
(dp812
g11
VVP
p813
sbatp814
Rp815
(dp816
g11
VS
p817
sbatp818
Rp819
(dp820
g11
VSBAR
p821
sbag0
(g1
g2
(lp822
V,
p823
atp824
Rp825
(dp826
g11
V,
p827
sbag0
(g1
g2
(lp828
g0
(g1
g2
(lp829
g0
(g1
g2
(lp830
Vcaught
p831
atp832
Rp833
(dp834
g11
VVBN
p835
sbag0
(g1
g2
(lp836
g0
(g1
g2
(lp837
Vin
p838
atp839
Rp840
(dp841
g11
VIN
p842
sbag0
(g1
g2
(lp843
g0
(g1
g2
(lp844
g0
(g1
g2
(lp845
g0
(g1
g2
(lp846
Va
p847
atp848
Rp849
(dp850
g11
VDT
p851
sbag0
(g1
g2
(lp852
Vfish
p853
atp854
Rp855
(dp856
g11
VNN
p857
sbatp858
Rp859
(dp860
g11
VNP
p861
sbag0
(g1
g2
(lp862
g0
(g1
g2
(lp863
Vin
p864
atp865
Rp866
(dp867
g11
VIN
p868
sbag0
(g1
g2
(lp869
g0
(g1
g2
(lp870
Va
p871
atp872
Rp873
(dp874
g11
VDT
p875
sbag0
(g1
g2
(lp876
Vdock
p877
atp878
Rp879
(dp880
g11
VNN
p881
sbatp882
Rp883
(dp884
g11
VNP
p885
sbatp886
Rp887
(dp888
g11
VPP
p889
sbatp890
Rp891
(dp892
g11
VNP
p893
sbag0
(g1
g2
(lp894
V,
p895
atp896
Rp897
(dp898
g11
V,
p899
sbag0
(g1
g2
(lp900
Vand
p901
atp902
Rp903
(dp904
g11
VCC
p905
sbag0
(g1
g2
(lp906
g0
(g1
g2
(lp907
Va
p908
atp909
Rp910
(dp911
g11
VDT
p912
sbag0
(g1
g2
(lp913
Vsail
p914
atp915
Rp916
(dp917
g11
VNN
p918
sbatp919
Rp920
(dp921
g11
VNP
p922
sbatp923
Rp924
(dp925
g11
VNP
p926
sbatp927
Rp928
(dp929
g11
VPP
p930
sbatp931
Rp932
(dp933
g11
VVP
p934
sbatp935
Rp936
(dp937
g11
VS
p938
sbag0
(g1
g2
(lp939
V,
p940
atp941
Rp942
(dp943
g11
V,
p944
sbag0
(g1
g2
(lp945
g0
(g1
g2
(lp946
Vis
p947
atp948
Rp949
(dp950
g11
VVBZ
p951
sbag0
(g1
g2
(lp952
g0
(g1
g2
(lp953
g0
(g1
g2
(lp954
Va
p955
atp956
Rp957
(dp958
g11
VDT
p959
sbag0
(g1
g2
(lp960
Vsail
p961
atp962
Rp963
(dp964
g11
VNN
p965
sbatp966
Rp967
(dp968
g11
VNP
p969
sbag0
(g1
g2
(lp970
V,
p971
atp972
Rp973
(dp974
g11
V,
p975
sbag0
(g1
g2
(lp976
g0
(g1
g2
(lp977
Vsailing
p978
atp979
Rp980
(dp981
g11
VVBG
p982
sbag0
(g1
g2
(lp983
g0
(g1
g2
(lp984
Vaway
p985
atp986
Rp987
(dp988
g11
VRB
p989
sbatp990
Rp991
(dp992
g11
VADVP
p993
sbatp994
Rp995
(dp996
g11
VVP
p997
sbatp998
Rp999
(dp1000
g11
VNP
p1001
sbatp1002
Rp1003
(dp1004
g11
VVP
p1005
sbag0
(g1
g2
(lp1006
V.
p1007
atp1008
Rp1009
(dp1010
g11
V.
p1011
sbatp1012
Rp1013
(dp1014
g11
VS
p1015
sbatp1016
Rp1017
(dp1018
g11
S'id: 7'
p1019
sbag0
(g1
g2
(lp1020
g0
(g1
g2
(lp1021
g0
(g1
g2
(lp1022
g0
(g1
g2
(lp1023
VThats
p1024
atp1025
Rp1026
(dp1027
g11
VVBZ
p1028
sbag0
(g1
g2
(lp1029
g0
(g1
g2
(lp1030
Vit
p1031
atp1032
Rp1033
(dp1034
g11
VPRP
p1035
sbatp1036
Rp1037
(dp1038
g11
VNP
p1039
sbatp1040
Rp1041
(dp1042
g11
VVP
p1043
sbag0
(g1
g2
(lp1044
V.
p1045
atp1046
Rp1047
(dp1048
g11
V.
p1049
sbatp1050
Rp1051
(dp1052
g11
VS
p1053
sbatp1054
Rp1055
(dp1056
g11
S'id: 8'
p1057
sbatp1058
Rp1059
(dp1060
g11
S'sentences'
p1061
sb.