ccopy_reg
_reconstructor
p0
(cnltk.tree
Tree
p1
c__builtin__
list
p2
(lp3
g0
(g1
g2
(lp4
g0
(g1
g2
(lp5
g0
(g1
g2
(lp6
g0
(g1
g2
(lp7
g0
(g1
g2
(lp8
g0
(g1
g2
(lp9
g0
(g1
g2
(lp10
(lp11
S'word: this, index: 2'
p12
aatp13
Rp14
(dp15
S'_label'
p16
Vnsubj
p17
sbag0
(g1
g2
(lp18
g0
(g1
g2
(lp19
g0
(g1
g2
(lp20
(lp21
S'word: the, index: 5'
p22
aatp23
Rp24
(dp25
g16
Vdet
p26
sbag0
(g1
g2
(lp27
(lp28
S'word: lake, index: 6'
p29
aatp30
Rp31
(dp32
g16
Vnn
p33
sbatp34
Rp35
(dp36
g16
S'word: house, index: 7'
p37
sbatp38
Rp39
(dp40
g16
Vprep
p41
sbatp42
Rp43
(dp44
g16
S'word: is, index: 3'
p45
sbatp46
Rp47
(dp48
g16
Vrcmod
p49
sbatp50
Rp51
(dp52
g16
S'word: ok, index: 1'
p53
sbatp54
Rp55
(dp56
g16
Vnsubj
p57
sbag0
(g1
g2
(lp58
g0
(g1
g2
(lp59
g0
(g1
g2
(lp60
g0
(g1
g2
(lp61
g0
(g1
g2
(lp62
(lp63
S'word: the, index: 11'
p64
aatp65
Rp66
(dp67
g16
Vdet
p68
sbatp69
Rp70
(dp71
g16
S'word: point, index: 12'
p72
sbatp73
Rp74
(dp75
g16
Vprep
p76
sbatp77
Rp78
(dp79
g16
S'word: up, index: 9'
p80
sbatp81
Rp82
(dp83
g16
Vadvmod
p84
sbag0
(g1
g2
(lp85
(lp86
S'word: there, index: 13'
p87
aatp88
Rp89
(dp90
g16
Vadvmod
p91
sbatp92
Rp93
(dp94
g16
S'word: is, index: 8'
p95
sbatp96
Rp97
(dp98
g16
S'id: 0'
p99
sbag0
(g1
g2
(lp100
g0
(g1
g2
(lp101
g0
(g1
g2
(lp102
g0
(g1
g2
(lp103
g0
(g1
g2
(lp104
(lp105
S'word: flag, index: 3'
p106
aatp107
Rp108
(dp109
g16
Vnn
p110
sbag0
(g1
g2
(lp111
(lp112
S'word: a, index: 2'
p113
aatp114
Rp115
(dp116
g16
Vdet
p117
sbatp118
Rp119
(dp120
g16
S'word: pole, index: 4'
p121
sbatp122
Rp123
(dp124
g16
Vdobj
p125
sbatp126
Rp127
(dp128
g16
S'word: got, index: 1'
p129
sbatp130
Rp131
(dp132
g16
S'id: 1'
p133
sbag0
(g1
g2
(lp134
g0
(g1
g2
(lp135
g0
(g1
g2
(lp136
g0
(g1
g2
(lp137
g0
(g1
g2
(lp138
g0
(g1
g2
(lp139
g0
(g1
g2
(lp140
(lp141
S'word: anything, index: 8'
p142
aatp143
Rp144
(dp145
g16
Vconj
p146
sbag0
(g1
g2
(lp147
(lp148
S'word: a, index: 5'
p149
aatp150
Rp151
(dp152
g16
Vdet
p153
sbatp154
Rp155
(dp156
g16
S'word: kite, index: 6'
p157
sbatp158
Rp159
(dp160
g16
Vdobj
p161
sbag0
(g1
g2
(lp162
(lp163
S'word: anything, index: 8'
p164
aatp165
Rp166
(dp167
g16
Vdobj
p168
sbag0
(g1
g2
(lp169
(lp170
S'word: you, index: 2'
p171
aatp172
Rp173
(dp174
g16
Vnsubj
p175
sbag0
(g1
g2
(lp176
(lp177
S'word: ever, index: 3'
p178
aatp179
Rp180
(dp181
g16
Vadvmod
p182
sbatp183
Rp184
(dp185
g16
S'word: flown, index: 4'
p186
sbatp187
Rp188
(dp189
g16
Vccomp
p190
sbatp191
Rp192
(dp193
g16
S'word: have, index: 1'
p194
sbatp195
Rp196
(dp197
g16
S'id: 2'
p198
sbatp199
Rp200
(dp201
g16
S'sentences'
p202
sb.