ccopy_reg
_reconstructor
p0
(cnltk.tree
Tree
p1
c__builtin__
list
p2
(lp3
g0
(g1
g2
(lp4
g0
(g1
g2
(lp5
g0
(g1
g2
(lp6
g0
(g1
g2
(lp7
g0
(g1
g2
(lp8
(lp9
S'word: that, index: 2'
p10
aatp11
Rp12
(dp13
S'_label'
p14
Vnsubj
p15
sbag0
(g1
g2
(lp16
(lp17
S'word: is, index: 3'
p18
aatp19
Rp20
(dp21
g14
Vcop
p22
sbag0
(g1
g2
(lp23
(lp24
S'word: a, index: 4'
p25
aatp26
Rp27
(dp28
g14
Vdet
p29
sbag0
(g1
g2
(lp30
(lp31
S'word: big, index: 5'
p32
aatp33
Rp34
(dp35
g14
Vamod
p36
sbatp37
Rp38
(dp39
g14
S'word: one, index: 6'
p40
sbatp41
Rp42
(dp43
g14
Vrcmod
p44
sbatp45
Rp46
(dp47
g14
S'word: ok, index: 1'
p48
sbatp49
Rp50
(dp51
g14
S'id: 0'
p52
sbag0
(g1
g2
(lp53
tp54
Rp55
(dp56
g14
S'id: 1'
p57
sbag0
(g1
g2
(lp58
g0
(g1
g2
(lp59
g0
(g1
g2
(lp60
(lp61
S'word: are, index: 6'
p62
aatp63
Rp64
(dp65
g14
Vaux
p66
sbag0
(g1
g2
(lp67
(lp68
S'word: outside, index: 7'
p69
aatp70
Rp71
(dp72
g14
Vadvmod
p73
sbag0
(g1
g2
(lp74
(lp75
S'word: food, index: 9'
p76
aatp77
Rp78
(dp79
g14
Vdobj
p80
sbag0
(g1
g2
(lp81
(lp82
S'word: outside, index: 11'
p83
aatp84
Rp85
(dp86
g14
Vadvmod
p87
sbag0
(g1
g2
(lp88
g0
(g1
g2
(lp89
g0
(g1
g2
(lp90
(lp91
S'word: they, index: 13'
p92
aatp93
Rp94
(dp95
g14
Vnsubj
p96
sbag0
(g1
g2
(lp97
g0
(g1
g2
(lp98
g0
(g1
g2
(lp99
(lp100
S'word: the, index: 15'
p101
aatp102
Rp103
(dp104
g14
Vdet
p105
sbatp106
Rp107
(dp108
g14
S'word: little, index: 16'
p109
sbatp110
Rp111
(dp112
g14
Vdobj
p113
sbag0
(g1
g2
(lp114
g0
(g1
g2
(lp115
g0
(g1
g2
(lp116
(lp117
S'word: singing, index: 19'
p118
aatp119
Rp120
(dp121
g14
Vprep
p122
sbatp123
Rp124
(dp125
g14
S'word: listening, index: 17'
p126
sbatp127
Rp128
(dp129
g14
Vxcomp
p130
sbatp131
Rp132
(dp133
g14
S'word: got, index: 14'
p134
sbatp135
Rp136
(dp137
g14
Vconj
p138
sbag0
(g1
g2
(lp139
g0
(g1
g2
(lp140
g0
(g1
g2
(lp141
(lp142
S'word: The, index: 1'
p143
aatp144
Rp145
(dp146
g14
Vdet
p147
sbag0
(g1
g2
(lp148
g0
(g1
g2
(lp149
g0
(g1
g2
(lp150
(lp151
S'word: a, index: 4'
p152
aatp153
Rp154
(dp155
g14
Vdet
p156
sbatp157
Rp158
(dp159
g14
S'word: woman, index: 5'
p160
sbatp161
Rp162
(dp163
g14
Vconj
p164
sbatp165
Rp166
(dp167
g14
S'word: man, index: 2'
p168
sbatp169
Rp170
(dp171
g14
Vnsubj
p172
sbag0
(g1
g2
(lp173
g158
atp174
Rp175
(dp176
g14
Vnsubj
p177
sbatp178
Rp179
(dp180
g14
S'word: eating, index: 8'
p181
sbatp182
Rp183
(dp184
g14
S'id: 2'
p185
sbag0
(g1
g2
(lp186
g0
(g1
g2
(lp187
g0
(g1
g2
(lp188
g0
(g1
g2
(lp189
g0
(g1
g2
(lp190
(lp191
S'word: why, index: 12'
p192
aatp193
Rp194
(dp195
g14
Vadvmod
p196
sbag0
(g1
g2
(lp197
(lp198
S'word: they, index: 13'
p199
aatp200
Rp201
(dp202
g14
Vnsubj
p203
sbag0
(g1
g2
(lp204
(lp205
S'word: are, index: 14'
p206
aatp207
Rp208
(dp209
g14
Vaux
p210
sbag0
(g1
g2
(lp211
g0
(g1
g2
(lp212
g0
(g1
g2
(lp213
(lp214
S'word: the, index: 17'
p215
aatp216
Rp217
(dp218
g14
Vdet
p219
sbatp220
Rp221
(dp222
g14
S'word: house, index: 18'
p223
sbatp224
Rp225
(dp226
g14
Vprep
p227
sbatp228
Rp229
(dp230
g14
S'word: doing, index: 15'
p231
sbatp232
Rp233
(dp234
g14
Vccomp
p235
sbag0
(g1
g2
(lp236
g0
(g1
g2
(lp237
g0
(g1
g2
(lp238
g0
(g1
g2
(lp239
g0
(g1
g2
(lp240
g0
(g1
g2
(lp241
g0
(g1
g2
(lp242
(lp243
S'word: i, index: 9'
p244
aatp245
Rp246
(dp247
g14
Vnn
p248
sbatp249
Rp250
(dp251
g14
S'word: dont, index: 10'
p252
sbatp253
Rp254
(dp255
g14
Vappos
p256
sbag0
(g1
g2
(lp257
(lp258
S'word: their, index: 6'
p259
aatp260
Rp261
(dp262
g14
Vposs
p263
sbatp264
Rp265
(dp266
g14
S'word: house, index: 7'
p267
sbatp268
Rp269
(dp270
g14
Vprep
p271
sbatp272
Rp273
(dp274
g14
S'word: it, index: 2'
p275
sbatp276
Rp277
(dp278
g14
Vnsubj
p279
sbag0
(g1
g2
(lp280
g0
(g1
g2
(lp281
g0
(g1
g2
(lp282
(lp283
S'word: house, index: 26'
p284
aatp285
Rp286
(dp287
g14
Vprep
p288
sbag0
(g1
g2
(lp289
(lp290
S'word: they, index: 21'
p291
aatp292
Rp293
(dp294
g14
Vnsubj
p295
sbag0
(g1
g2
(lp296
(lp297
S"word: 're, index: 22"
p298
aatp299
Rp300
(dp301
g14
Vaux
p302
sbag0
(g1
g2
(lp303
(lp304
S'word: it, index: 24'
p305
aatp306
Rp307
(dp308
g14
Vdobj
p309
sbatp310
Rp311
(dp312
g14
S'word: doing, index: 23'
p313
sbatp314
Rp315
(dp316
g14
Vconj
p317
sbatp318
Rp319
(dp320
g14
S'word: know, index: 11'
p321
sbatp322
Rp323
(dp324
g14
S'id: 3'
p325
sbag0
(g1
g2
(lp326
g0
(g1
g2
(lp327
g0
(g1
g2
(lp328
g0
(g1
g2
(lp329
g0
(g1
g2
(lp330
(lp331
S'word: the, index: 2'
p332
aatp333
Rp334
(dp335
g14
Vdet
p336
sbatp337
Rp338
(dp339
g14
S'word: car, index: 3'
p340
sbatp341
Rp342
(dp343
g14
Vdobj
p344
sbatp345
Rp346
(dp347
g14
S'word: See, index: 1'
p348
sbatp349
Rp350
(dp351
g14
S'id: 4'
p352
sbag0
(g1
g2
(lp353
g0
(g1
g2
(lp354
g0
(g1
g2
(lp355
(lp356
S'word: And, index: 1'
p357
aatp358
Rp359
(dp360
g14
Vcc
p361
sbag0
(g1
g2
(lp362
(lp363
S'word: I, index: 2'
p364
aatp365
Rp366
(dp367
g14
Vnsubj
p368
sbag0
(g1
g2
(lp369
(lp370
S'word: also, index: 3'
p371
aatp372
Rp373
(dp374
g14
Vadvmod
p375
sbag0
(g1
g2
(lp376
g0
(g1
g2
(lp377
g0
(g1
g2
(lp378
g0
(g1
g2
(lp379
g0
(g1
g2
(lp380
g0
(g1
g2
(lp381
g0
(g1
g2
(lp382
(lp383
S'word: the, index: 17'
p384
aatp385
Rp386
(dp387
g14
Vdet
p388
sbatp389
Rp390
(dp391
g14
S'word: water, index: 18'
p392
sbatp393
Rp394
(dp395
g14
Vprep
p396
sbatp397
Rp398
(dp399
g14
S'word: out, index: 15'
p400
sbatp401
Rp402
(dp403
g14
Vadvmod
p404
sbag0
(g1
g2
(lp405
g0
(g1
g2
(lp406
g0
(g1
g2
(lp407
(lp408
S'word: to, index: 20'
p409
aatp410
Rp411
(dp412
g14
Vaux
p413
sbag0
(g1
g2
(lp414
(lp415
S'word: fix, index: 22'
p416
aatp417
Rp418
(dp419
g14
Vdobj
p420
sbatp421
Rp422
(dp423
g14
S'word: get, index: 21'
p424
sbatp425
Rp426
(dp427
g14
Vxcomp
p428
sbag0
(g1
g2
(lp429
(lp430
S'word: also, index: 6'
p431
aatp432
Rp433
(dp434
g14
Vadvmod
p435
sbag0
(g1
g2
(lp436
g0
(g1
g2
(lp437
g0
(g1
g2
(lp438
g0
(g1
g2
(lp439
g0
(g1
g2
(lp440
(lp441
S'word: the, index: 9'
p442
aatp443
Rp444
(dp445
g14
Vdet
p446
sbag0
(g1
g2
(lp447
g0
(g1
g2
(lp448
g0
(g1
g2
(lp449
(lp450
S'word: the, index: 12'
p451
aatp452
Rp453
(dp454
g14
Vdet
p455
sbatp456
Rp457
(dp458
g14
S'word: man, index: 13'
p459
sbatp460
Rp461
(dp462
g14
Vconj
p463
sbatp464
Rp465
(dp466
g14
S'word: right, index: 10'
p467
sbatp468
Rp469
(dp470
g14
Vprep
p471
sbag0
(g1
g2
(lp472
g457
atp473
Rp474
(dp475
g14
Vprep
p476
sbatp477
Rp478
(dp479
g14
S'word: water, index: 7'
p480
sbatp481
Rp482
(dp483
g14
Vnsubj
p484
sbag0
(g1
g2
(lp485
(lp486
S'word: is, index: 14'
p487
aatp488
Rp489
(dp490
g14
Vaux
p491
sbatp492
Rp493
(dp494
g14
S'word: trying, index: 19'
p495
sbatp496
Rp497
(dp498
g14
Vparataxis
p499
sbatp500
Rp501
(dp502
g14
S'word: see, index: 4'
p503
sbatp504
Rp505
(dp506
g14
S'id: 5'
p507
sbag0
(g1
g2
(lp508
g0
(g1
g2
(lp509
g0
(g1
g2
(lp510
(lp511
S'word: he, index: 2'
p512
aatp513
Rp514
(dp515
g14
Vnsubj
p516
sbag0
(g1
g2
(lp517
g0
(g1
g2
(lp518
g0
(g1
g2
(lp519
(lp520
S'word: the, index: 5'
p521
aatp522
Rp523
(dp524
g14
Vdet
p525
sbag0
(g1
g2
(lp526
g0
(g1
g2
(lp527
g0
(g1
g2
(lp528
g0
(g1
g2
(lp529
g0
(g1
g2
(lp530
(lp531
S'word: to, index: 8'
p532
aatp533
Rp534
(dp535
g14
Vaux
p536
sbag0
(g1
g2
(lp537
g0
(g1
g2
(lp538
g0
(g1
g2
(lp539
(lp540
S'word: the, index: 10'
p541
aatp542
Rp543
(dp544
g14
Vnsubj
p545
sbag0
(g1
g2
(lp546
(lp547
S'word: up, index: 12'
p548
aatp549
Rp550
(dp551
g14
Vprt
p552
sbatp553
Rp554
(dp555
g14
S'word: grow, index: 11'
p556
sbatp557
Rp558
(dp559
g14
Vccomp
p560
sbatp561
Rp562
(dp563
g14
S'word: get, index: 9'
p564
sbatp565
Rp566
(dp567
g14
Vxcomp
p568
sbatp569
Rp570
(dp571
g14
S'word: trying, index: 7'
p572
sbatp573
Rp574
(dp575
g14
Vvmod
p576
sbatp577
Rp578
(dp579
g14
S'word: water, index: 6'
p580
sbatp581
Rp582
(dp583
g14
Vprep
p584
sbag0
(g1
g2
(lp585
(lp586
S'word: Anyway, index: 1'
p587
aatp588
Rp589
(dp590
g14
Vadvmod
p591
sbatp592
Rp593
(dp594
g14
S"word: 's, index: 3"
p595
sbatp596
Rp597
(dp598
g14
S'id: 6'
p599
sbag0
(g1
g2
(lp600
g0
(g1
g2
(lp601
g0
(g1
g2
(lp602
g0
(g1
g2
(lp603
g0
(g1
g2
(lp604
g0
(g1
g2
(lp605
g0
(g1
g2
(lp606
(lp607
S'word: little, index: 7'
p608
aatp609
Rp610
(dp611
g14
Vamod
p612
sbag0
(g1
g2
(lp613
g0
(g1
g2
(lp614
g0
(g1
g2
(lp615
(lp616
S'word: up, index: 10'
p617
aatp618
Rp619
(dp620
g14
Vadvmod
p621
sbatp622
Rp623
(dp624
g14
S'word: coming, index: 9'
p625
sbatp626
Rp627
(dp628
g14
Vvmod
p629
sbatp630
Rp631
(dp632
g14
S'word: things, index: 8'
p633
sbatp634
Rp635
(dp636
g14
Vappos
p637
sbag0
(g1
g2
(lp638
(lp639
S'word: the, index: 4'
p640
aatp641
Rp642
(dp643
g14
Vdet
p644
sbatp645
Rp646
(dp647
g14
S'word: water, index: 5'
p648
sbatp649
Rp650
(dp651
g14
Vprep
p652
sbag0
(g1
g2
(lp653
(lp654
S'word: He, index: 1'
p655
aatp656
Rp657
(dp658
g14
Vnsubj
p659
sbatp660
Rp661
(dp662
g14
S"word: 's, index: 2"
p663
sbatp664
Rp665
(dp666
g14
S'id: 7'
p667
sbag0
(g1
g2
(lp668
g0
(g1
g2
(lp669
g0
(g1
g2
(lp670
(lp671
S'word: is, index: 12'
p672
aatp673
Rp674
(dp675
g14
Vaux
p676
sbag0
(g1
g2
(lp677
(lp678
S'word: him, index: 14'
p679
aatp680
Rp681
(dp682
g14
Vdobj
p683
sbag0
(g1
g2
(lp684
(lp685
S'word: the, index: 2'
p686
aatp687
Rp688
(dp689
g14
Vdep
p690
sbag0
(g1
g2
(lp691
g0
(g1
g2
(lp692
g0
(g1
g2
(lp693
(lp694
S'word: up, index: 25'
p695
aatp696
Rp697
(dp698
g14
Vadvmod
p699
sbag0
(g1
g2
(lp700
g0
(g1
g2
(lp701
g0
(g1
g2
(lp702
(lp703
S'word: high, index: 27'
p704
aatp705
Rp706
(dp707
g14
Vadvmod
p708
sbatp709
Rp710
(dp711
g14
S'word: up, index: 28'
p712
sbatp713
Rp714
(dp715
g14
Vadvmod
p716
sbag0
(g1
g2
(lp717
g0
(g1
g2
(lp718
g0
(g1
g2
(lp719
g0
(g1
g2
(lp720
g0
(g1
g2
(lp721
(lp722
S'word: to, index: 31'
p723
aatp724
Rp725
(dp726
g14
Vaux
p727
sbag0
(g1
g2
(lp728
g0
(g1
g2
(lp729
g0
(g1
g2
(lp730
(lp731
S'word: up, index: 33'
p732
aatp733
Rp734
(dp735
g14
Vadvmod
p736
sbag0
(g1
g2
(lp737
(lp738
S'word: up, index: 35'
p739
aatp740
Rp741
(dp742
g14
Vadvmod
p743
sbatp744
Rp745
(dp746
g14
S'word: high, index: 34'
p747
sbatp748
Rp749
(dp750
g14
Vadvmod
p751
sbatp752
Rp753
(dp754
g14
S'word: go, index: 32'
p755
sbatp756
Rp757
(dp758
g14
Vxcomp
p759
sbatp760
Rp761
(dp762
g14
S'word: trying, index: 30'
p763
sbatp764
Rp765
(dp766
g14
Vvmod
p767
sbag0
(g1
g2
(lp768
(lp769
S'word: he, index: 17'
p770
aatp771
Rp772
(dp773
g14
Vnsubjpass
p774
sbag0
(g1
g2
(lp775
(lp776
S"word: 's, index: 18"
p777
aatp778
Rp779
(dp780
g14
Vauxpass
p781
sbag0
(g1
g2
(lp782
g0
(g1
g2
(lp783
g0
(g1
g2
(lp784
(lp785
S'word: the, index: 20'
p786
aatp787
Rp788
(dp789
g14
Vdet
p790
sbatp791
Rp792
(dp793
g14
S'word: thing, index: 21'
p794
sbatp795
Rp796
(dp797
g14
Vdobj
p798
sbag0
(g1
g2
(lp799
(lp800
S'word: up, index: 23'
p801
aatp802
Rp803
(dp804
g14
Vadvmod
p805
sbatp806
Rp807
(dp808
g14
S'word: got, index: 19'
p809
sbatp810
Rp811
(dp812
g14
Vconj
p813
sbag0
(g1
g2
(lp814
g0
(g1
g2
(lp815
g0
(g1
g2
(lp816
(lp817
S'word: around, index: 8'
p818
aatp819
Rp820
(dp821
g14
Vprt
p822
sbag0
(g1
g2
(lp823
g0
(g1
g2
(lp824
g0
(g1
g2
(lp825
(lp826
S'word: his, index: 10'
p827
aatp828
Rp829
(dp830
g14
Vposs
p831
sbatp832
Rp833
(dp834
g14
S'word: dog, index: 11'
p835
sbatp836
Rp837
(dp838
g14
Vprep
p839
sbag0
(g1
g2
(lp840
g0
(g1
g2
(lp841
g0
(g1
g2
(lp842
(lp843
S'word: the, index: 4'
p844
aatp845
Rp846
(dp847
g14
Vdet
p848
sbatp849
Rp850
(dp851
g14
S'word: boy, index: 5'
p852
sbatp853
Rp854
(dp855
g14
Vnsubj
p856
sbag0
(g1
g2
(lp857
(lp858
S'word: is, index: 6'
p859
aatp860
Rp861
(dp862
g14
Vaux
p863
sbatp864
Rp865
(dp866
g14
S'word: running, index: 7'
p867
sbatp868
Rp869
(dp870
g14
Vparataxis
p871
sbatp872
Rp873
(dp874
g14
S'word: chasing, index: 13'
p875
sbatp876
Rp877
(dp878
g14
S'id: 8'
p879
sbag0
(g1
g2
(lp880
g0
(g1
g2
(lp881
g0
(g1
g2
(lp882
g0
(g1
g2
(lp883
g0
(g1
g2
(lp884
(lp885
S'word: the, index: 11'
p886
aatp887
Rp888
(dp889
g14
Vdet
p890
sbatp891
Rp892
(dp893
g14
S'word: water, index: 12'
p894
sbatp895
Rp896
(dp897
g14
Vprep
p898
sbag0
(g1
g2
(lp899
g0
(g1
g2
(lp900
g0
(g1
g2
(lp901
g0
(g1
g2
(lp902
g0
(g1
g2
(lp903
(lp904
S'word: another, index: 14'
p905
aatp906
Rp907
(dp908
g14
Vdet
p909
sbatp910
Rp911
(dp912
g14
S'word: still, index: 15'
p913
sbatp914
Rp915
(dp916
g14
Vnpadvmod
p917
sbatp918
Rp919
(dp920
g14
S'word: out, index: 16'
p921
sbatp922
Rp923
(dp924
g14
Vadvmod
p925
sbag0
(g1
g2
(lp926
(lp927
S'word: And, index: 1'
p928
aatp929
Rp930
(dp931
g14
Vcc
p932
sbag0
(g1
g2
(lp933
g0
(g1
g2
(lp934
g0
(g1
g2
(lp935
(lp936
S'word: the, index: 18'
p937
aatp938
Rp939
(dp940
g14
Vdet
p941
sbatp942
Rp943
(dp944
g14
S'word: water, index: 19'
p945
sbatp946
Rp947
(dp948
g14
Vprep
p949
sbag0
(g1
g2
(lp950
g0
(g1
g2
(lp951
g0
(g1
g2
(lp952
(lp953
S'word: the, index: 3'
p954
aatp955
Rp956
(dp957
g14
Vdet
p958
sbatp959
Rp960
(dp961
g14
S'word: right, index: 4'
p962
sbatp963
Rp964
(dp965
g14
Vpobj
p966
sbag0
(g1
g2
(lp967
g0
(g1
g2
(lp968
g0
(g1
g2
(lp969
(lp970
S'word: the, index: 6'
p971
aatp972
Rp973
(dp974
g14
Vdet
p975
sbag0
(g1
g2
(lp976
(lp977
S"word: 's, index: 8"
p978
aatp979
Rp980
(dp981
g14
Vpossessive
p982
sbag0
(g1
g2
(lp983
(lp984
S'word: out, index: 9'
p985
aatp986
Rp987
(dp988
g14
Vadvmod
p989
sbatp990
Rp991
(dp992
g14
S'word: guy, index: 7'
p993
sbatp994
Rp995
(dp996
g14
Vnpadvmod
p997
sbatp998
Rp999
(dp1000
g14
S'word: on, index: 2'
p1001
sbatp1002
Rp1003
(dp1004
g14
S'id: 9'
p1005
sbag0
(g1
g2
(lp1006
g0
(g1
g2
(lp1007
g0
(g1
g2
(lp1008
g0
(g1
g2
(lp1009
g0
(g1
g2
(lp1010
g0
(g1
g2
(lp1011
g0
(g1
g2
(lp1012
(lp1013
S'word: further, index: 3'
p1014
aatp1015
Rp1016
(dp1017
g14
Vadvmod
p1018
sbatp1019
Rp1020
(dp1021
g14
S'word: away, index: 4'
p1022
sbatp1023
Rp1024
(dp1025
g14
Vadvmod
p1026
sbatp1027
Rp1028
(dp1029
g14
S'word: out, index: 2'
p1030
sbatp1031
Rp1032
(dp1033
g14
Vrcmod
p1034
sbag0
(g1
g2
(lp1035
g0
(g1
g2
(lp1036
g0
(g1
g2
(lp1037
(lp1038
S'word: two, index: 6'
p1039
aatp1040
Rp1041
(dp1042
g14
Vnum
p1043
sbag0
(g1
g2
(lp1044
g0
(g1
g2
(lp1045
g0
(g1
g2
(lp1046
(lp1047
S'word: the, index: 9'
p1048
aatp1049
Rp1050
(dp1051
g14
Vdet
p1052
sbatp1053
Rp1054
(dp1055
g14
S'word: water, index: 10'
p1056
sbatp1057
Rp1058
(dp1059
g14
Vprep
p1060
sbatp1061
Rp1062
(dp1063
g14
S'word: people, index: 7'
p1064
sbatp1065
Rp1066
(dp1067
g14
Vappos
p1068
sbatp1069
Rp1070
(dp1071
g14
S'word: People, index: 1'
p1072
sbatp1073
Rp1074
(dp1075
g14
S'id: 10'
p1076
sbag0
(g1
g2
(lp1077
g0
(g1
g2
(lp1078
g0
(g1
g2
(lp1079
(lp1080
S'word: And, index: 1'
p1081
aatp1082
Rp1083
(dp1084
g14
Vcc
p1085
sbag0
(g1
g2
(lp1086
g0
(g1
g2
(lp1087
g0
(g1
g2
(lp1088
g0
(g1
g2
(lp1089
g0
(g1
g2
(lp1090
(lp1091
S'word: the, index: 6'
p1092
aatp1093
Rp1094
(dp1095
g14
Vdet
p1096
sbag0
(g1
g2
(lp1097
g0
(g1
g2
(lp1098
g0
(g1
g2
(lp1099
(lp1100
S'word: where, index: 9'
p1101
aatp1102
Rp1103
(dp1104
g14
Vadvmod
p1105
sbag0
(g1
g2
(lp1106
g0
(g1
g2
(lp1107
g0
(g1
g2
(lp1108
(lp1109
S'word: the, index: 10'
p1110
aatp1111
Rp1112
(dp1113
g14
Vdet
p1114
sbatp1115
Rp1116
(dp1117
g14
S'word: sand, index: 11'
p1118
sbatp1119
Rp1120
(dp1121
g14
Vnsubj
p1122
sbatp1123
Rp1124
(dp1125
g14
S'word: is, index: 12'
p1126
sbatp1127
Rp1128
(dp1129
g14
Vrcmod
p1130
sbatp1131
Rp1132
(dp1133
g14
S'word: water, index: 7'
p1134
sbatp1135
Rp1136
(dp1137
g14
Vprep
p1138
sbatp1139
Rp1140
(dp1141
g14
S'word: than, index: 2'
p1142
sbatp1143
Rp1144
(dp1145
g14
Vadvmod
p1146
sbag0
(g1
g2
(lp1147
g0
(g1
g2
(lp1148
g0
(g1
g2
(lp1149
(lp1150
S'word: the, index: 19'
p1151
aatp1152
Rp1153
(dp1154
g14
Vdet
p1155
sbatp1156
Rp1157
(dp1158
g14
S'word: sand, index: 20'
p1159
sbatp1160
Rp1161
(dp1162
g14
Vprep
p1163
sbag0
(g1
g2
(lp1164
g0
(g1
g2
(lp1165
g0
(g1
g2
(lp1166
(lp1167
S'word: the, index: 14'
p1168
aatp1169
Rp1170
(dp1171
g14
Vdet
p1172
sbatp1173
Rp1174
(dp1175
g14
S'word: girl, index: 15'
p1176
sbatp1177
Rp1178
(dp1179
g14
Vnsubj
p1180
sbag0
(g1
g2
(lp1181
(lp1182
S'word: is, index: 16'
p1183
aatp1184
Rp1185
(dp1186
g14
Vaux
p1187
sbatp1188
Rp1189
(dp1190
g14
S'word: playing, index: 17'
p1191
sbatp1192
Rp1193
(dp1194
g14
S'id: 11'
p1195
sbag0
(g1
g2
(lp1196
g0
(g1
g2
(lp1197
g0
(g1
g2
(lp1198
(lp1199
S'word: be, index: 4'
p1200
aatp1201
Rp1202
(dp1203
g14
Vcop
p1204
sbag0
(g1
g2
(lp1205
(lp1206
S'word: a, index: 5'
p1207
aatp1208
Rp1209
(dp1210
g14
Vdet
p1211
sbag0
(g1
g2
(lp1212
(lp1213
S'word: fancy, index: 6'
p1214
aatp1215
Rp1216
(dp1217
g14
Vamod
p1218
sbag0
(g1
g2
(lp1219
g0
(g1
g2
(lp1220
g0
(g1
g2
(lp1221
g0
(g1
g2
(lp1222
g0
(g1
g2
(lp1223
(lp1224
S'word: a, index: 11'
p1225
aatp1226
Rp1227
(dp1228
g14
Vdet
p1229
sbag0
(g1
g2
(lp1230
(lp1231
S'word: fancy, index: 12'
p1232
aatp1233
Rp1234
(dp1235
g14
Vamod
p1236
sbatp1237
Rp1238
(dp1239
g14
S'word: house, index: 13'
p1240
sbatp1241
Rp1242
(dp1243
g14
Vprep
p1244
sbatp1245
Rp1246
(dp1247
g14
S'word: living, index: 9'
p1248
sbatp1249
Rp1250
(dp1251
g14
Vvmod
p1252
sbag0
(g1
g2
(lp1253
(lp1254
S'word: And, index: 1'
p1255
aatp1256
Rp1257
(dp1258
g14
Vcc
p1259
sbag0
(g1
g2
(lp1260
(lp1261
S'word: it, index: 2'
p1262
aatp1263
Rp1264
(dp1265
g14
Vnsubj
p1266
sbag0
(g1
g2
(lp1267
(lp1268
S'word: must, index: 3'
p1269
aatp1270
Rp1271
(dp1272
g14
Vaux
p1273
sbag0
(g1
g2
(lp1274
g0
(g1
g2
(lp1275
g0
(g1
g2
(lp1276
(lp1277
S'word: to, index: 21'
p1278
aatp1279
Rp1280
(dp1281
g14
Vprepc
p1282
sbag0
(g1
g2
(lp1283
g0
(g1
g2
(lp1284
g0
(g1
g2
(lp1285
(lp1286
S'word: the, index: 22'
p1287
aatp1288
Rp1289
(dp1290
g14
Vdet
p1291
sbatp1292
Rp1293
(dp1294
g14
S'word: water, index: 23'
p1295
sbatp1296
Rp1297
(dp1298
g14
Vpobj
p1299
sbag0
(g1
g2
(lp1300
(lp1301
S'word: because, index: 15'
p1302
aatp1303
Rp1304
(dp1305
g14
Vmark
p1306
sbag0
(g1
g2
(lp1307
g0
(g1
g2
(lp1308
g0
(g1
g2
(lp1309
(lp1310
S'word: his, index: 16'
p1311
aatp1312
Rp1313
(dp1314
g14
Vposs
p1315
sbatp1316
Rp1317
(dp1318
g14
S'word: house, index: 17'
p1319
sbatp1320
Rp1321
(dp1322
g14
Vnsubj
p1323
sbag0
(g1
g2
(lp1324
(lp1325
S'word: is, index: 18'
p1326
aatp1327
Rp1328
(dp1329
g14
Vcop
p1330
sbatp1331
Rp1332
(dp1333
g14
S'word: right, index: 19'
p1334
sbatp1335
Rp1336
(dp1337
g14
Vadvcl
p1338
sbatp1339
Rp1340
(dp1341
g14
S'word: house, index: 7'
p1342
sbatp1343
Rp1344
(dp1345
g14
S'id: 12'
p1346
sbag0
(g1
g2
(lp1347
g0
(g1
g2
(lp1348
g0
(g1
g2
(lp1349
g0
(g1
g2
(lp1350
g0
(g1
g2
(lp1351
(lp1352
S'word: to, index: 7'
p1353
aatp1354
Rp1355
(dp1356
g14
Vaux
p1357
sbag0
(g1
g2
(lp1358
g0
(g1
g2
(lp1359
g0
(g1
g2
(lp1360
(lp1361
S'word: a, index: 9'
p1362
aatp1363
Rp1364
(dp1365
g14
Vdet
p1366
sbag0
(g1
g2
(lp1367
g0
(g1
g2
(lp1368
g0
(g1
g2
(lp1369
(lp1370
S'word: there, index: 12'
p1371
aatp1372
Rp1373
(dp1374
g14
Vpobj
p1375
sbatp1376
Rp1377
(dp1378
g14
S'word: over, index: 11'
p1379
sbatp1380
Rp1381
(dp1382
g14
Vprep
p1383
sbatp1384
Rp1385
(dp1386
g14
S'word: house, index: 10'
p1387
sbatp1388
Rp1389
(dp1390
g14
Vdobj
p1391
sbatp1392
Rp1393
(dp1394
g14
S'word: have, index: 8'
p1395
sbatp1396
Rp1397
(dp1398
g14
Vxcomp
p1399
sbag0
(g1
g2
(lp1400
(lp1401
S'word: It, index: 1'
p1402
aatp1403
Rp1404
(dp1405
g14
Vnsubj
p1406
sbag0
(g1
g2
(lp1407
g0
(g1
g2
(lp1408
g0
(g1
g2
(lp1409
(lp1410
S'word: a, index: 3'
p1411
aatp1412
Rp1413
(dp1414
g14
Vdet
p1415
sbag0
(g1
g2
(lp1416
(lp1417
S'word: money, index: 6'
p1418
aatp1419
Rp1420
(dp1421
g14
Vprep
p1422
sbatp1423
Rp1424
(dp1425
g14
S'word: lot, index: 4'
p1426
sbatp1427
Rp1428
(dp1429
g14
Vdobj
p1430
sbatp1431
Rp1432
(dp1433
g14
S'word: costs, index: 2'
p1434
sbatp1435
Rp1436
(dp1437
g14
S'id: 13'
p1438
sbag0
(g1
g2
(lp1439
g0
(g1
g2
(lp1440
g0
(g1
g2
(lp1441
g0
(g1
g2
(lp1442
g0
(g1
g2
(lp1443
g0
(g1
g2
(lp1444
g0
(g1
g2
(lp1445
(lp1446
S'word: you, index: 3'
p1447
aatp1448
Rp1449
(dp1450
g14
Vnsubj
p1451
sbag0
(g1
g2
(lp1452
(lp1453
S'word: can, index: 4'
p1454
aatp1455
Rp1456
(dp1457
g14
Vaux
p1458
sbag0
(g1
g2
(lp1459
g0
(g1
g2
(lp1460
g0
(g1
g2
(lp1461
(lp1462
S'word: that, index: 7'
p1463
aatp1464
Rp1465
(dp1466
g14
Vdet
p1467
sbatp1468
Rp1469
(dp1470
g14
S'word: one, index: 8'
p1471
sbatp1472
Rp1473
(dp1474
g14
Vprep
p1475
sbatp1476
Rp1477
(dp1478
g14
S'word: say, index: 5'
p1479
sbatp1480
Rp1481
(dp1482
g14
Vrcmod
p1483
sbatp1484
Rp1485
(dp1486
g14
S'word: all, index: 2'
p1487
sbatp1488
Rp1489
(dp1490
g14
Vdobj
p1491
sbatp1492
Rp1493
(dp1494
g14
S'word: Bout, index: 1'
p1495
sbatp1496
Rp1497
(dp1498
g14
S'id: 14'
p1499
sbatp1500
Rp1501
(dp1502
g14
S'sentences'
p1503
sb.