ccopy_reg
_reconstructor
p0
(cnltk.tree
Tree
p1
c__builtin__
list
p2
(lp3
g0
(g1
g2
(lp4
g0
(g1
g2
(lp5
g0
(g1
g2
(lp6
g0
(g1
g2
(lp7
g0
(g1
g2
(lp8
(lp9
S'word: like, index: 2'
p10
aatp11
Rp12
(dp13
S'_label'
p14
Vmark
p15
sbag0
(g1
g2
(lp16
(lp17
S'word: there, index: 3'
p18
aatp19
Rp20
(dp21
g14
Vexpl
p22
sbag0
(g1
g2
(lp23
g0
(g1
g2
(lp24
g0
(g1
g2
(lp25
(lp26
S'word: a, index: 5'
p27
aatp28
Rp29
(dp30
g14
Vdet
p31
sbatp32
Rp33
(dp34
g14
S'word: parade, index: 6'
p35
sbatp36
Rp37
(dp38
g14
Vnsubj
p39
sbatp40
Rp41
(dp42
g14
S"word: 's, index: 4"
p43
sbatp44
Rp45
(dp46
g14
Vadvcl
p47
sbatp48
Rp49
(dp50
g14
S'word: look, index: 1'
p51
sbatp52
Rp53
(dp54
g14
S'id: 0'
p55
sbag0
(g1
g2
(lp56
g0
(g1
g2
(lp57
g0
(g1
g2
(lp58
g0
(g1
g2
(lp59
g0
(g1
g2
(lp60
(lp61
S'word: a, index: 3'
p62
aatp63
Rp64
(dp65
g14
Vdet
p66
sbatp67
Rp68
(dp69
g14
S'word: clown, index: 4'
p70
sbatp71
Rp72
(dp73
g14
Vnsubj
p74
sbag0
(g1
g2
(lp75
(lp76
S'word: There, index: 1'
p77
aatp78
Rp79
(dp80
g14
Vexpl
p81
sbatp82
Rp83
(dp84
g14
S"word: 's, index: 2"
p85
sbatp86
Rp87
(dp88
g14
S'id: 1'
p89
sbag0
(g1
g2
(lp90
g0
(g1
g2
(lp91
g0
(g1
g2
(lp92
g0
(g1
g2
(lp93
g0
(g1
g2
(lp94
g0
(g1
g2
(lp95
g0
(g1
g2
(lp96
g0
(g1
g2
(lp97
g0
(g1
g2
(lp98
(lp99
S'word: a, index: 7'
p100
aatp101
Rp102
(dp103
g14
Vdet
p104
sbag0
(g1
g2
(lp105
g0
(g1
g2
(lp106
g0
(g1
g2
(lp107
(lp108
S'word: there, index: 10'
p109
aatp110
Rp111
(dp112
g14
Vadvmod
p113
sbatp114
Rp115
(dp116
g14
S'word: down, index: 9'
p117
sbatp118
Rp119
(dp120
g14
Vrcmod
p121
sbatp122
Rp123
(dp124
g14
S'word: boy, index: 8'
p125
sbatp126
Rp127
(dp128
g14
Vappos
p129
sbag0
(g1
g2
(lp130
(lp131
S'word: a, index: 4'
p132
aatp133
Rp134
(dp135
g14
Vdet
p136
sbatp137
Rp138
(dp139
g14
S'word: girl, index: 5'
p140
sbatp141
Rp142
(dp143
g14
Vpobj
p144
sbatp145
Rp146
(dp147
g14
S'word: and, index: 3'
p148
sbatp149
Rp150
(dp151
g14
Vprep
p152
sbatp153
Rp154
(dp155
g14
S'word: Yes, index: 1'
p156
sbatp157
Rp158
(dp159
g14
S'id: 2'
p160
sbag0
(g1
g2
(lp161
g0
(g1
g2
(lp162
g0
(g1
g2
(lp163
(lp164
S'word: There, index: 1'
p165
aatp166
Rp167
(dp168
g14
Vexpl
p169
sbag0
(g1
g2
(lp170
g0
(g1
g2
(lp171
g0
(g1
g2
(lp172
g0
(g1
g2
(lp173
g0
(g1
g2
(lp174
(lp175
S'word: a, index: 5'
p176
aatp177
Rp178
(dp179
g14
Vdet
p180
sbag0
(g1
g2
(lp181
g0
(g1
g2
(lp182
g0
(g1
g2
(lp183
g0
(g1
g2
(lp184
g0
(g1
g2
(lp185
(lp186
S'word: the, index: 9'
p187
aatp188
Rp189
(dp190
g14
Vdet
p191
sbag0
(g1
g2
(lp192
g0
(g1
g2
(lp193
g0
(g1
g2
(lp194
g0
(g1
g2
(lp195
g0
(g1
g2
(lp196
g0
(g1
g2
(lp197
g0
(g1
g2
(lp198
(lp199
S'word: a, index: 14'
p200
aatp201
Rp202
(dp203
g14
Vdet
p204
sbag0
(g1
g2
(lp205
(lp206
S'word: tight, index: 15'
p207
aatp208
Rp209
(dp210
g14
Vamod
p211
sbatp212
Rp213
(dp214
g14
S'word: rope, index: 16'
p215
sbatp216
Rp217
(dp218
g14
Vdobj
p219
sbatp220
Rp221
(dp222
g14
S'word: walking, index: 13'
p223
sbatp224
Rp225
(dp226
g14
Vvmod
p227
sbatp228
Rp229
(dp230
g14
S'word: somebody, index: 12'
p231
sbatp232
Rp233
(dp234
g14
Vappos
p235
sbatp236
Rp237
(dp238
g14
S'word: outside, index: 10'
p239
sbatp240
Rp241
(dp242
g14
Vprep
p243
sbatp244
Rp245
(dp246
g14
S'word: sitting, index: 7'
p247
sbatp248
Rp249
(dp250
g14
Vvmod
p251
sbatp252
Rp253
(dp254
g14
S'word: parade, index: 6'
p255
sbatp256
Rp257
(dp258
g14
Vprep
p259
sbatp260
Rp261
(dp262
g14
S'word: people, index: 3'
p263
sbatp264
Rp265
(dp266
g14
Vnsubj
p267
sbatp268
Rp269
(dp270
g14
S"word: 's, index: 2"
p271
sbatp272
Rp273
(dp274
g14
S'id: 3'
p275
sbag0
(g1
g2
(lp276
g0
(g1
g2
(lp277
g0
(g1
g2
(lp278
(lp279
S'word: There, index: 1'
p280
aatp281
Rp282
(dp283
g14
Vexpl
p284
sbag0
(g1
g2
(lp285
g0
(g1
g2
(lp286
g0
(g1
g2
(lp287
(lp288
S'word: a, index: 3'
p289
aatp290
Rp291
(dp292
g14
Vdet
p293
sbag0
(g1
g2
(lp294
(lp295
S'word: female, index: 4'
p296
aatp297
Rp298
(dp299
g14
Vamod
p300
sbatp301
Rp302
(dp303
g14
S'word: clown, index: 5'
p304
sbatp305
Rp306
(dp307
g14
Vnsubj
p308
sbatp309
Rp310
(dp311
g14
S"word: 's, index: 2"
p312
sbatp313
Rp314
(dp315
g14
S'id: 4'
p316
sbag0
(g1
g2
(lp317
g0
(g1
g2
(lp318
g0
(g1
g2
(lp319
(lp320
S'word: There, index: 1'
p321
aatp322
Rp323
(dp324
g14
Vexpl
p325
sbag0
(g1
g2
(lp326
g0
(g1
g2
(lp327
g0
(g1
g2
(lp328
(lp329
S'word: a, index: 3'
p330
aatp331
Rp332
(dp333
g14
Vdet
p334
sbatp335
Rp336
(dp337
g14
S'word: clown, index: 4'
p338
sbatp339
Rp340
(dp341
g14
Vnsubj
p342
sbatp343
Rp344
(dp345
g14
S"word: 's, index: 2"
p346
sbatp347
Rp348
(dp349
g14
S'id: 5'
p350
sbag0
(g1
g2
(lp351
g0
(g1
g2
(lp352
g0
(g1
g2
(lp353
(lp354
S'word: might, index: 2'
p355
aatp356
Rp357
(dp358
g14
Vaux
p359
sbag0
(g1
g2
(lp360
(lp361
S'word: be, index: 3'
p362
aatp363
Rp364
(dp365
g14
Vaux
p366
sbag0
(g1
g2
(lp367
g0
(g1
g2
(lp368
g0
(g1
g2
(lp369
(lp370
S'word: the, index: 6'
p371
aatp372
Rp373
(dp374
g14
Vdet
p375
sbatp376
Rp377
(dp378
g14
S'word: park, index: 7'
p379
sbatp380
Rp381
(dp382
g14
Vprep
p383
sbag0
(g1
g2
(lp384
(lp385
S'word: Somebody, index: 1'
p386
aatp387
Rp388
(dp389
g14
Vnsubj
p390
sbatp391
Rp392
(dp393
g14
S'word: walking, index: 4'
p394
sbatp395
Rp396
(dp397
g14
S'id: 6'
p398
sbag0
(g1
g2
(lp399
g0
(g1
g2
(lp400
g0
(g1
g2
(lp401
(lp402
S'word: There, index: 1'
p403
aatp404
Rp405
(dp406
g14
Vexpl
p407
sbag0
(g1
g2
(lp408
g0
(g1
g2
(lp409
g0
(g1
g2
(lp410
g0
(g1
g2
(lp411
g0
(g1
g2
(lp412
g0
(g1
g2
(lp413
g0
(g1
g2
(lp414
(lp415
S'word: drum, index: 8'
p416
aatp417
Rp418
(dp419
g14
Vrcmod
p420
sbatp421
Rp422
(dp423
g14
S'word: the, index: 7'
p424
sbatp425
Rp426
(dp427
g14
Vprep
p428
sbatp429
Rp430
(dp431
g14
S'word: sitting, index: 5'
p432
sbatp433
Rp434
(dp435
g14
Vvmod
p436
sbag0
(g1
g2
(lp437
(lp438
S'word: some, index: 3'
p439
aatp440
Rp441
(dp442
g14
Vdet
p443
sbatp444
Rp445
(dp446
g14
S'word: people, index: 4'
p447
sbatp448
Rp449
(dp450
g14
Vnsubj
p451
sbatp452
Rp453
(dp454
g14
S"word: 's, index: 2"
p455
sbatp456
Rp457
(dp458
g14
S'id: 7'
p459
sbag0
(g1
g2
(lp460
g0
(g1
g2
(lp461
g0
(g1
g2
(lp462
(lp463
S'word: There, index: 1'
p464
aatp465
Rp466
(dp467
g14
Vexpl
p468
sbag0
(g1
g2
(lp469
g0
(g1
g2
(lp470
g0
(g1
g2
(lp471
(lp472
S'word: another, index: 3'
p473
aatp474
Rp475
(dp476
g14
Vdet
p477
sbatp478
Rp479
(dp480
g14
S'word: clown, index: 4'
p481
sbatp482
Rp483
(dp484
g14
Vnsubj
p485
sbatp486
Rp487
(dp488
g14
S"word: 's, index: 2"
p489
sbatp490
Rp491
(dp492
g14
S'id: 8'
p493
sbag0
(g1
g2
(lp494
g0
(g1
g2
(lp495
g0
(g1
g2
(lp496
(lp497
S'word: There, index: 1'
p498
aatp499
Rp500
(dp501
g14
Vexpl
p502
sbag0
(g1
g2
(lp503
g0
(g1
g2
(lp504
g0
(g1
g2
(lp505
(lp506
S'word: a, index: 3'
p507
aatp508
Rp509
(dp510
g14
Vdep
p511
sbatp512
Rp513
(dp514
g14
S'word: around, index: 4'
p515
sbatp516
Rp517
(dp518
g14
Vadvmod
p519
sbag0
(g1
g2
(lp520
g0
(g1
g2
(lp521
g0
(g1
g2
(lp522
(lp523
S'word: her, index: 5'
p524
aatp525
Rp526
(dp527
g14
Vposs
p528
sbatp529
Rp530
(dp531
g14
S'word: neck, index: 6'
p532
sbatp533
Rp534
(dp535
g14
Vnsubj
p536
sbatp537
Rp538
(dp539
g14
S"word: 's, index: 2"
p540
sbatp541
Rp542
(dp543
g14
S'id: 9'
p544
sbag0
(g1
g2
(lp545
g0
(g1
g2
(lp546
g0
(g1
g2
(lp547
(lp548
S'word: There, index: 1'
p549
aatp550
Rp551
(dp552
g14
Vexpl
p553
sbag0
(g1
g2
(lp554
g0
(g1
g2
(lp555
g0
(g1
g2
(lp556
(lp557
S'word: a, index: 3'
p558
aatp559
Rp560
(dp561
g14
Vdet
p562
sbag0
(g1
g2
(lp563
g0
(g1
g2
(lp564
g0
(g1
g2
(lp565
g0
(g1
g2
(lp566
g0
(g1
g2
(lp567
(lp568
S'word: his, index: 6'
p569
aatp570
Rp571
(dp572
g14
Vposs
p573
sbatp574
Rp575
(dp576
g14
S'word: hand, index: 7'
p577
sbatp578
Rp579
(dp580
g14
Vdobj
p581
sbatp582
Rp583
(dp584
g14
S'word: clapping, index: 5'
p585
sbatp586
Rp587
(dp588
g14
Vvmod
p589
sbatp590
Rp591
(dp592
g14
S'word: boy, index: 4'
p593
sbatp594
Rp595
(dp596
g14
Vnsubj
p597
sbatp598
Rp599
(dp600
g14
S"word: 's, index: 2"
p601
sbatp602
Rp603
(dp604
g14
S'id: 10'
p605
sbag0
(g1
g2
(lp606
g0
(g1
g2
(lp607
g0
(g1
g2
(lp608
(lp609
S'word: There, index: 1'
p610
aatp611
Rp612
(dp613
g14
Vexpl
p614
sbag0
(g1
g2
(lp615
g0
(g1
g2
(lp616
g0
(g1
g2
(lp617
(lp618
S'word: drum, index: 5'
p619
aatp620
Rp621
(dp622
g14
Vrcmod
p623
sbatp624
Rp625
(dp626
g14
S'word: the, index: 4'
p627
sbatp628
Rp629
(dp630
g14
Vprep
p631
sbatp632
Rp633
(dp634
g14
S"word: 's, index: 2"
p635
sbatp636
Rp637
(dp638
g14
S'id: 11'
p639
sbag0
(g1
g2
(lp640
g0
(g1
g2
(lp641
g0
(g1
g2
(lp642
g0
(g1
g2
(lp643
g0
(g1
g2
(lp644
(lp645
S'word: another, index: 3'
p646
aatp647
Rp648
(dp649
g14
Vdet
p650
sbatp651
Rp652
(dp653
g14
S'word: clown, index: 4'
p654
sbatp655
Rp656
(dp657
g14
Vnsubj
p658
sbag0
(g1
g2
(lp659
(lp660
S'word: There, index: 1'
p661
aatp662
Rp663
(dp664
g14
Vexpl
p665
sbatp666
Rp667
(dp668
g14
S"word: 's, index: 2"
p669
sbatp670
Rp671
(dp672
g14
S'id: 12'
p673
sbag0
(g1
g2
(lp674
g0
(g1
g2
(lp675
g0
(g1
g2
(lp676
(lp677
S'word: And, index: 1'
p678
aatp679
Rp680
(dp681
g14
Vcc
p682
sbag0
(g1
g2
(lp683
g0
(g1
g2
(lp684
g0
(g1
g2
(lp685
g0
(g1
g2
(lp686
g0
(g1
g2
(lp687
(lp688
S'word: a, index: 2'
p689
aatp690
Rp691
(dp692
g14
Vdet
p693
sbatp694
Rp695
(dp696
g14
S'word: boy, index: 3'
p697
sbatp698
Rp699
(dp700
g14
Vnpadvmod
p701
sbatp702
Rp703
(dp704
g14
S'word: down, index: 4'
p705
sbatp706
Rp707
(dp708
g14
Vadvmod
p709
sbag0
(g1
g2
(lp710
(lp711
S'word: there, index: 5'
p712
aatp713
Rp714
(dp715
g14
Vexpl
p716
sbatp717
Rp718
(dp719
g14
S'word: smiling, index: 6'
p720
sbatp721
Rp722
(dp723
g14
S'id: 13'
p724
sbag0
(g1
g2
(lp725
g0
(g1
g2
(lp726
g0
(g1
g2
(lp727
(lp728
S'word: There, index: 1'
p729
aatp730
Rp731
(dp732
g14
Vexpl
p733
sbag0
(g1
g2
(lp734
g0
(g1
g2
(lp735
g0
(g1
g2
(lp736
(lp737
S'word: a, index: 3'
p738
aatp739
Rp740
(dp741
g14
Vnsubj
p742
sbag0
(g1
g2
(lp743
g0
(g1
g2
(lp744
g0
(g1
g2
(lp745
(lp746
S'word: it, index: 8'
p747
aatp748
Rp749
(dp750
g14
Vprep
p751
sbatp752
Rp753
(dp754
g14
S'word: stars, index: 6'
p755
sbatp756
Rp757
(dp758
g14
Vprep
p759
sbatp760
Rp761
(dp762
g14
S'word: drum, index: 4'
p763
sbatp764
Rp765
(dp766
g14
Vccomp
p767
sbatp768
Rp769
(dp770
g14
S"word: 's, index: 2"
p771
sbatp772
Rp773
(dp774
g14
S'id: 14'
p775
sbag0
(g1
g2
(lp776
g0
(g1
g2
(lp777
g0
(g1
g2
(lp778
g0
(g1
g2
(lp779
g0
(g1
g2
(lp780
(lp781
S'word: is, index: 15'
p782
aatp783
Rp784
(dp785
g14
Vaux
p786
sbag0
(g1
g2
(lp787
g0
(g1
g2
(lp788
g0
(g1
g2
(lp789
(lp790
S'word: the, index: 17'
p791
aatp792
Rp793
(dp794
g14
Vdet
p795
sbag0
(g1
g2
(lp796
(lp797
S'word: tight, index: 18'
p798
aatp799
Rp800
(dp801
g14
Vamod
p802
sbatp803
Rp804
(dp805
g14
S'word: rope, index: 19'
p806
sbatp807
Rp808
(dp809
g14
Vdobj
p810
sbag0
(g1
g2
(lp811
g0
(g1
g2
(lp812
g0
(g1
g2
(lp813
(lp814
S'word: top, index: 14'
p815
aatp816
Rp817
(dp818
g14
Vprep
p819
sbatp820
Rp821
(dp822
g14
S'word: somebody, index: 12'
p823
sbatp824
Rp825
(dp826
g14
Vnsubj
p827
sbatp828
Rp829
(dp830
g14
S'word: walking, index: 16'
p831
sbatp832
Rp833
(dp834
g14
Vconj
p835
sbag0
(g1
g2
(lp836
(lp837
S'word: There, index: 1'
p838
aatp839
Rp840
(dp841
g14
Vexpl
p842
sbag0
(g1
g2
(lp843
g0
(g1
g2
(lp844
g0
(g1
g2
(lp845
g0
(g1
g2
(lp846
g0
(g1
g2
(lp847
(lp848
S'word: a, index: 3'
p849
aatp850
Rp851
(dp852
g14
Vdet
p853
sbatp854
Rp855
(dp856
g14
S'word: clown, index: 4'
p857
sbatp858
Rp859
(dp860
g14
Vnpadvmod
p861
sbatp862
Rp863
(dp864
g14
S'word: down, index: 5'
p865
sbatp866
Rp867
(dp868
g14
Vadvmod
p869
sbag0
(g1
g2
(lp870
(lp871
S'word: here, index: 6'
p872
aatp873
Rp874
(dp875
g14
Vadvmod
p876
sbag0
(g1
g2
(lp877
g0
(g1
g2
(lp878
g0
(g1
g2
(lp879
(lp880
S'word: the, index: 8'
p881
aatp882
Rp883
(dp884
g14
Vdet
p885
sbatp886
Rp887
(dp888
g14
S'word: corner, index: 9'
p889
sbatp890
Rp891
(dp892
g14
Vprep
p893
sbatp894
Rp895
(dp896
g14
S"word: 's, index: 2"
p897
sbatp898
Rp899
(dp900
g14
S'id: 15'
p901
sbag0
(g1
g2
(lp902
g0
(g1
g2
(lp903
g0
(g1
g2
(lp904
g0
(g1
g2
(lp905
g0
(g1
g2
(lp906
(lp907
S'word: the, index: 2'
p908
aatp909
Rp910
(dp911
g14
Vnsubj
p912
sbag0
(g1
g2
(lp913
(lp914
S'word: watching, index: 4'
p915
aatp916
Rp917
(dp918
g14
Vxcomp
p919
sbatp920
Rp921
(dp922
g14
S'word: drum, index: 3'
p923
sbatp924
Rp925
(dp926
g14
Vccomp
p927
sbatp928
Rp929
(dp930
g14
S'word: Playing, index: 1'
p931
sbatp932
Rp933
(dp934
g14
S'id: 16'
p935
sbag0
(g1
g2
(lp936
g0
(g1
g2
(lp937
g0
(g1
g2
(lp938
(lp939
S'word: than, index: 5'
p940
aatp941
Rp942
(dp943
g14
Vadvmod
p944
sbag0
(g1
g2
(lp945
g0
(g1
g2
(lp946
g0
(g1
g2
(lp947
(lp948
S'word: a, index: 6'
p949
aatp950
Rp951
(dp952
g14
Vdet
p953
sbatp954
Rp955
(dp956
g14
S'word: clown, index: 7'
p957
sbatp958
Rp959
(dp960
g14
Vconj
p961
sbag0
(g1
g2
(lp962
(lp963
S'word: There, index: 1'
p964
aatp965
Rp966
(dp967
g14
Vexpl
p968
sbag0
(g1
g2
(lp969
(lp970
S'word: a, index: 2'
p971
aatp972
Rp973
(dp974
g14
Vdet
p975
sbatp976
Rp977
(dp978
g14
S'word: lion, index: 3'
p979
sbatp980
Rp981
(dp982
g14
S'id: 17'
p983
sbag0
(g1
g2
(lp984
g0
(g1
g2
(lp985
g0
(g1
g2
(lp986
g0
(g1
g2
(lp987
g0
(g1
g2
(lp988
g0
(g1
g2
(lp989
g0
(g1
g2
(lp990
(lp991
S'word: the, index: 4'
p992
aatp993
Rp994
(dp995
g14
Vdet
p996
sbatp997
Rp998
(dp999
g14
S'word: lion, index: 5'
p1000
sbatp1001
Rp1002
(dp1003
g14
Vprep
p1004
sbatp1005
Rp1006
(dp1007
g14
S'word: pointing, index: 2'
p1008
sbatp1009
Rp1010
(dp1011
g14
Vvmod
p1012
sbatp1013
Rp1014
(dp1015
g14
S'word: Somebody, index: 1'
p1016
sbatp1017
Rp1018
(dp1019
g14
S'id: 18'
p1020
sbag0
(g1
g2
(lp1021
g0
(g1
g2
(lp1022
g0
(g1
g2
(lp1023
g0
(g1
g2
(lp1024
g0
(g1
g2
(lp1025
(lp1026
S'word: a, index: 8'
p1027
aatp1028
Rp1029
(dp1030
g14
Vdet
p1031
sbatp1032
Rp1033
(dp1034
g14
S'word: lion, index: 9'
p1035
sbatp1036
Rp1037
(dp1038
g14
Vnsubj
p1039
sbag0
(g1
g2
(lp1040
(lp1041
S'word: tricks, index: 11'
p1042
aatp1043
Rp1044
(dp1045
g14
Vdobj
p1046
sbag0
(g1
g2
(lp1047
g0
(g1
g2
(lp1048
g0
(g1
g2
(lp1049
g1033
atp1050
Rp1051
(dp1052
g14
Vconj
p1053
sbag0
(g1
g2
(lp1054
(lp1055
S'word: a, index: 5'
p1056
aatp1057
Rp1058
(dp1059
g14
Vconj
p1060
sbatp1061
Rp1062
(dp1063
g14
S'word: a, index: 2'
p1064
sbatp1065
Rp1066
(dp1067
g14
Vnsubj
p1068
sbag0
(g1
g2
(lp1069
(lp1070
S'word: a, index: 5'
p1071
aatp1072
Rp1073
(dp1074
g14
Vnsubj
p1075
sbatp1076
Rp1077
(dp1078
g14
S'word: doing, index: 10'
p1079
sbatp1080
Rp1081
(dp1082
g14
S'id: 19'
p1083
sbatp1084
Rp1085
(dp1086
g14
S'sentences'
p1087
sb.