ccopy_reg
_reconstructor
p0
(cnltk.tree
Tree
p1
c__builtin__
list
p2
(lp3
g0
(g1
g2
(lp4
tp5
Rp6
(dp7
S'_label'
p8
S'id: 0'
p9
sbag0
(g1
g2
(lp10
g0
(g1
g2
(lp11
g0
(g1
g2
(lp12
(lp13
S'word: a, index: 3'
p14
aatp15
Rp16
(dp17
g8
Vdet
p18
sbag0
(g1
g2
(lp19
g0
(g1
g2
(lp20
g0
(g1
g2
(lp21
g0
(g1
g2
(lp22
g0
(g1
g2
(lp23
(lp24
S'word: like, index: 7'
p25
aatp26
Rp27
(dp28
g8
Vmark
p29
sbag0
(g1
g2
(lp30
(lp31
S'word: it, index: 8'
p32
aatp33
Rp34
(dp35
g8
Vnsubj
p36
sbag0
(g1
g2
(lp37
(lp38
S"word: 's, index: 9"
p39
aatp40
Rp41
(dp42
g8
Vcop
p43
sbag0
(g1
g2
(lp44
(lp45
S'word: a, index: 10'
p46
aatp47
Rp48
(dp49
g8
Vdet
p50
sbatp51
Rp52
(dp53
g8
S'word: lakeside, index: 11'
p54
sbatp55
Rp56
(dp57
g8
Vadvcl
p58
sbatp59
Rp60
(dp61
g8
S'word: looks, index: 6'
p62
sbatp63
Rp64
(dp65
g8
Vrcmod
p66
sbag0
(g1
g2
(lp67
(lp68
S'word: This, index: 1'
p69
aatp70
Rp71
(dp72
g8
Vnsubj
p73
sbag0
(g1
g2
(lp74
(lp75
S'word: is, index: 2'
p76
aatp77
Rp78
(dp79
g8
Vcop
p80
sbatp81
Rp82
(dp83
g8
S'word: picture, index: 4'
p84
sbatp85
Rp86
(dp87
g8
S'id: 1'
p88
sbag0
(g1
g2
(lp89
g0
(g1
g2
(lp90
g0
(g1
g2
(lp91
g0
(g1
g2
(lp92
g0
(g1
g2
(lp93
(lp94
S'word: two, index: 10'
p95
aatp96
Rp97
(dp98
g8
Vnum
p99
sbag0
(g1
g2
(lp100
(lp101
S'word: it, index: 13'
p102
aatp103
Rp104
(dp105
g8
Vprep
p106
sbatp107
Rp108
(dp109
g8
S'word: people, index: 11'
p110
sbatp111
Rp112
(dp113
g8
Vprep
p114
sbag0
(g1
g2
(lp115
(lp116
S'word: There, index: 1'
p117
aatp118
Rp119
(dp120
g8
Vexpl
p121
sbag0
(g1
g2
(lp122
g0
(g1
g2
(lp123
g0
(g1
g2
(lp124
(lp125
S'word: they, index: 15'
p126
aatp127
Rp128
(dp129
g8
Vnsubj
p130
sbag0
(g1
g2
(lp131
(lp132
S"word: 're, index: 16"
p133
aatp134
Rp135
(dp136
g8
Vaux
p137
sbag0
(g1
g2
(lp138
g0
(g1
g2
(lp139
g0
(g1
g2
(lp140
(lp141
S'word: shore, index: 22'
p142
aatp143
Rp144
(dp145
g8
Vprep
p146
sbag0
(g1
g2
(lp147
(lp148
S'word: the, index: 19'
p149
aatp150
Rp151
(dp152
g8
Vdet
p153
sbatp154
Rp155
(dp156
g8
S'word: people, index: 20'
p157
sbatp158
Rp159
(dp160
g8
Vprep
p161
sbatp162
Rp163
(dp164
g8
S'word: waving, index: 17'
p165
sbatp166
Rp167
(dp168
g8
Vconj
p169
sbag0
(g1
g2
(lp170
g0
(g1
g2
(lp171
g0
(g1
g2
(lp172
g0
(g1
g2
(lp173
g0
(g1
g2
(lp174
(lp175
S'word: the, index: 6'
p176
aatp177
Rp178
(dp179
g8
Vdet
p180
sbatp181
Rp182
(dp183
g8
S'word: lake, index: 7'
p184
sbatp185
Rp186
(dp187
g8
Vprep
p188
sbag0
(g1
g2
(lp189
(lp190
S'word: a, index: 3'
p191
aatp192
Rp193
(dp194
g8
Vdet
p195
sbatp196
Rp197
(dp198
g8
S'word: sailboat, index: 4'
p199
sbatp200
Rp201
(dp202
g8
Vnsubj
p203
sbatp204
Rp205
(dp206
g8
S'word: is, index: 2'
p207
sbatp208
Rp209
(dp210
g8
S'id: 2'
p211
sbag0
(g1
g2
(lp212
g0
(g1
g2
(lp213
g0
(g1
g2
(lp214
(lp215
S'word: There, index: 1'
p216
aatp217
Rp218
(dp219
g8
Vexpl
p220
sbag0
(g1
g2
(lp221
g0
(g1
g2
(lp222
g0
(g1
g2
(lp223
(lp224
S'word: a, index: 3'
p225
aatp226
Rp227
(dp228
g8
Vdet
p229
sbag0
(g1
g2
(lp230
g0
(g1
g2
(lp231
g0
(g1
g2
(lp232
(lp233
S'word: a, index: 6'
p234
aatp235
Rp236
(dp237
g8
Vdet
p238
sbatp239
Rp240
(dp241
g8
S'word: car, index: 7'
p242
sbatp243
Rp244
(dp245
g8
Vprep
p246
sbatp247
Rp248
(dp249
g8
S'word: house, index: 4'
p250
sbatp251
Rp252
(dp253
g8
Vnsubj
p254
sbag0
(g1
g2
(lp255
(lp256
S'word: there, index: 8'
p257
aatp258
Rp259
(dp260
g8
Vadvmod
p261
sbatp262
Rp263
(dp264
g8
S"word: 's, index: 2"
p265
sbatp266
Rp267
(dp268
g8
S'id: 3'
p269
sbag0
(g1
g2
(lp270
g0
(g1
g2
(lp271
g0
(g1
g2
(lp272
(lp273
S'word: he, index: 12'
p274
aatp275
Rp276
(dp277
g8
Vnsubj
p278
sbag0
(g1
g2
(lp279
(lp280
S'word: just, index: 13'
p281
aatp282
Rp283
(dp284
g8
Vadvmod
p285
sbag0
(g1
g2
(lp286
g0
(g1
g2
(lp287
g0
(g1
g2
(lp288
(lp289
S'word: a, index: 15'
p290
aatp291
Rp292
(dp293
g8
Vdet
p294
sbatp295
Rp296
(dp297
g8
S'word: fish, index: 16'
p298
sbatp299
Rp300
(dp301
g8
Vdobj
p302
sbag0
(g1
g2
(lp303
g0
(g1
g2
(lp304
g0
(g1
g2
(lp305
(lp306
S'word: And, index: 1'
p307
aatp308
Rp309
(dp310
g8
Vcc
p311
sbag0
(g1
g2
(lp312
(lp313
S'word: there, index: 2'
p314
aatp315
Rp316
(dp317
g8
Vexpl
p318
sbag0
(g1
g2
(lp319
g0
(g1
g2
(lp320
g0
(g1
g2
(lp321
(lp322
S'word: a, index: 4'
p323
aatp324
Rp325
(dp326
g8
Vdet
p327
sbag0
(g1
g2
(lp328
(lp329
S'word: out, index: 6'
p330
aatp331
Rp332
(dp333
g8
Vdep
p334
sbag0
(g1
g2
(lp335
g0
(g1
g2
(lp336
g0
(g1
g2
(lp337
(lp338
S'word: the, index: 8'
p339
aatp340
Rp341
(dp342
g8
Vdet
p343
sbag0
(g1
g2
(lp344
(lp345
S'word: pier, index: 9'
p346
aatp347
Rp348
(dp349
g8
Vnn
p350
sbatp351
Rp352
(dp353
g8
S'word: fishing, index: 10'
p354
sbatp355
Rp356
(dp357
g8
Vprep
p358
sbatp359
Rp360
(dp361
g8
S'word: man, index: 5'
p362
sbatp363
Rp364
(dp365
g8
Vnsubj
p366
sbatp367
Rp368
(dp369
g8
S"word: 's, index: 3"
p370
sbatp371
Rp372
(dp373
g8
Vccomp
p374
sbatp375
Rp376
(dp377
g8
S'word: caught, index: 14'
p378
sbatp379
Rp380
(dp381
g8
S'id: 4'
p382
sbag0
(g1
g2
(lp383
g0
(g1
g2
(lp384
g0
(g1
g2
(lp385
(lp386
S'word: He, index: 1'
p387
aatp388
Rp389
(dp390
g8
Vnsubj
p391
sbag0
(g1
g2
(lp392
g0
(g1
g2
(lp393
g0
(g1
g2
(lp394
(lp395
S'word: a, index: 4'
p396
aatp397
Rp398
(dp399
g8
Vdet
p400
sbatp401
Rp402
(dp403
g8
S'word: straw, index: 5'
p404
sbatp405
Rp406
(dp407
g8
Vprep
p408
sbag0
(g1
g2
(lp409
g0
(g1
g2
(lp410
g0
(g1
g2
(lp411
g0
(g1
g2
(lp412
g0
(g1
g2
(lp413
g0
(g1
g2
(lp414
g0
(g1
g2
(lp415
(lp416
S'word: the, index: 8'
p417
aatp418
Rp419
(dp420
g8
Vdet
p421
sbatp422
Rp423
(dp424
g8
S'word: sun, index: 9'
p425
sbatp426
Rp427
(dp428
g8
Vnpadvmod
p429
sbag0
(g1
g2
(lp430
g0
(g1
g2
(lp431
g0
(g1
g2
(lp432
(lp433
S'word: his, index: 12'
p434
aatp435
Rp436
(dp437
g8
Vposs
p438
sbatp439
Rp440
(dp441
g8
S'word: face, index: 13'
p442
sbatp443
Rp444
(dp445
g8
Vprep
p446
sbatp447
Rp448
(dp449
g8
S'word: keeping, index: 7'
p450
sbatp451
Rp452
(dp453
g8
Vvmod
p454
sbatp455
Rp456
(dp457
g8
S'word: hat, index: 6'
p458
sbatp459
Rp460
(dp461
g8
Vdobj
p462
sbatp463
Rp464
(dp465
g8
S'word: has, index: 2'
p466
sbatp467
Rp468
(dp469
g8
S'id: 5'
p470
sbag0
(g1
g2
(lp471
g0
(g1
g2
(lp472
g0
(g1
g2
(lp473
g0
(g1
g2
(lp474
g0
(g1
g2
(lp475
g0
(g1
g2
(lp476
g0
(g1
g2
(lp477
(lp478
S'word: a, index: 3'
p479
aatp480
Rp481
(dp482
g8
Vdet
p483
sbag0
(g1
g2
(lp484
(lp485
S'word: little, index: 4'
p486
aatp487
Rp488
(dp489
g8
Vamod
p490
sbag0
(g1
g2
(lp491
(lp492
S'word: girl, index: 5'
p493
aatp494
Rp495
(dp496
g8
Vnn
p497
sbag0
(g1
g2
(lp498
g0
(g1
g2
(lp499
g0
(g1
g2
(lp500
(lp501
S'word: the, index: 8'
p502
aatp503
Rp504
(dp505
g8
Vdet
p506
sbatp507
Rp508
(dp509
g8
S'word: sand, index: 9'
p510
sbatp511
Rp512
(dp513
g8
Vprep
p514
sbatp515
Rp516
(dp517
g8
S'word: playing, index: 6'
p518
sbatp519
Rp520
(dp521
g8
Vnsubj
p522
sbag0
(g1
g2
(lp523
(lp524
S'word: There, index: 1'
p525
aatp526
Rp527
(dp528
g8
Vexpl
p529
sbatp530
Rp531
(dp532
g8
S"word: 's, index: 2"
p533
sbatp534
Rp535
(dp536
g8
Vccomp
p537
sbag0
(g1
g2
(lp538
(lp539
S'word: she, index: 11'
p540
aatp541
Rp542
(dp543
g8
Vnsubjpass
p544
sbag0
(g1
g2
(lp545
(lp546
S"word: 's, index: 12"
p547
aatp548
Rp549
(dp550
g8
Vauxpass
p551
sbag0
(g1
g2
(lp552
g0
(g1
g2
(lp553
g0
(g1
g2
(lp554
(lp555
S'word: a, index: 14'
p556
aatp557
Rp558
(dp559
g8
Vdet
p560
sbag0
(g1
g2
(lp561
g0
(g1
g2
(lp562
g0
(g1
g2
(lp563
g0
(g1
g2
(lp564
g0
(g1
g2
(lp565
(lp566
S'word: like, index: 18'
p567
aatp568
Rp569
(dp570
g8
Vmark
p571
sbag0
(g1
g2
(lp572
(lp573
S'word: she, index: 19'
p574
aatp575
Rp576
(dp577
g8
Vnsubj
p578
sbag0
(g1
g2
(lp579
(lp580
S"word: 's, index: 20"
p581
aatp582
Rp583
(dp584
g8
Vaux
p585
sbag0
(g1
g2
(lp586
(lp587
S'word: really, index: 21'
p588
aatp589
Rp590
(dp591
g8
Vadvmod
p592
sbag0
(g1
g2
(lp593
(lp594
S'word: herself, index: 23'
p595
aatp596
Rp597
(dp598
g8
Vdobj
p599
sbatp600
Rp601
(dp602
g8
S'word: enjoying, index: 22'
p603
sbatp604
Rp605
(dp606
g8
Vadvcl
p607
sbatp608
Rp609
(dp610
g8
S'word: looks, index: 17'
p611
sbatp612
Rp613
(dp614
g8
Vrcmod
p615
sbatp616
Rp617
(dp618
g8
S'word: sandcastle, index: 15'
p619
sbatp620
Rp621
(dp622
g8
Vdobj
p623
sbatp624
Rp625
(dp626
g8
S'word: built, index: 13'
p627
sbatp628
Rp629
(dp630
g8
S'id: 6'
p631
sbag0
(g1
g2
(lp632
g0
(g1
g2
(lp633
g0
(g1
g2
(lp634
(lp635
S'word: she, index: 14'
p636
aatp637
Rp638
(dp639
g8
Vnsubj
p640
sbag0
(g1
g2
(lp641
(lp642
S"word: 's, index: 15"
p643
aatp644
Rp645
(dp646
g8
Vaux
p647
sbag0
(g1
g2
(lp648
g0
(g1
g2
(lp649
g0
(g1
g2
(lp650
g0
(g1
g2
(lp651
g0
(g1
g2
(lp652
(lp653
S'word: a, index: 6'
p654
aatp655
Rp656
(dp657
g8
Vdet
p658
sbatp659
Rp660
(dp661
g8
S'word: man, index: 7'
p662
sbatp663
Rp664
(dp665
g8
Vnsubj
p666
sbag0
(g1
g2
(lp667
g0
(g1
g2
(lp668
g0
(g1
g2
(lp669
g0
(g1
g2
(lp670
g0
(g1
g2
(lp671
(lp672
S'word: a, index: 10'
p673
aatp674
Rp675
(dp676
g8
Vdet
p677
sbag0
(g1
g2
(lp678
(lp679
S'word: picnic, index: 11'
p680
aatp681
Rp682
(dp683
g8
Vnn
p684
sbatp685
Rp686
(dp687
g8
S'word: lunch, index: 12'
p688
sbatp689
Rp690
(dp691
g8
Vdobj
p692
sbatp693
Rp694
(dp695
g8
S'word: having, index: 9'
p696
sbatp697
Rp698
(dp699
g8
Vvmod
p700
sbag0
(g1
g2
(lp701
(lp702
S'word: There, index: 1'
p703
aatp704
Rp705
(dp706
g8
Vexpl
p707
sbag0
(g1
g2
(lp708
g0
(g1
g2
(lp709
g0
(g1
g2
(lp710
g660
atp711
Rp712
(dp713
g8
Vconj
p714
sbag0
(g1
g2
(lp715
(lp716
S'word: a, index: 3'
p717
aatp718
Rp719
(dp720
g8
Vdet
p721
sbatp722
Rp723
(dp724
g8
S'word: lady, index: 4'
p725
sbatp726
Rp727
(dp728
g8
Vnsubj
p729
sbatp730
Rp731
(dp732
g8
S"word: 's, index: 2"
p733
sbatp734
Rp735
(dp736
g8
Vccomp
p737
sbag0
(g1
g2
(lp738
g0
(g1
g2
(lp739
g0
(g1
g2
(lp740
(lp741
S'word: them, index: 17'
p742
aatp743
Rp744
(dp745
g8
Vnsubj
p746
sbag0
(g1
g2
(lp747
g0
(g1
g2
(lp748
g0
(g1
g2
(lp749
g0
(g1
g2
(lp750
g0
(g1
g2
(lp751
(lp752
S'word: to, index: 20'
p753
aatp754
Rp755
(dp756
g8
Vaux
p757
sbatp758
Rp759
(dp760
g8
S'word: drink, index: 21'
p761
sbatp762
Rp763
(dp764
g8
Vxcomp
p765
sbatp766
Rp767
(dp768
g8
S'word: cold, index: 19'
p769
sbatp770
Rp771
(dp772
g8
Vamod
p773
sbatp774
Rp775
(dp776
g8
S'word: something, index: 18'
p777
sbatp778
Rp779
(dp780
g8
Vxcomp
p781
sbatp782
Rp783
(dp784
g8
S'word: pouring, index: 16'
p785
sbatp786
Rp787
(dp788
g8
S'id: 7'
p789
sbag0
(g1
g2
(lp790
g0
(g1
g2
(lp791
g0
(g1
g2
(lp792
(lp793
S'word: They, index: 1'
p794
aatp795
Rp796
(dp797
g8
Vnsubj
p798
sbag0
(g1
g2
(lp799
g0
(g1
g2
(lp800
g0
(g1
g2
(lp801
g0
(g1
g2
(lp802
g0
(g1
g2
(lp803
(lp804
S'word: music, index: 10'
p805
aatp806
Rp807
(dp808
g8
Vprep
p809
sbag0
(g1
g2
(lp810
(lp811
S'word: so, index: 5'
p812
aatp813
Rp814
(dp815
g8
Vmark
p816
sbag0
(g1
g2
(lp817
(lp818
S'word: they, index: 6'
p819
aatp820
Rp821
(dp822
g8
Vnsubj
p823
sbag0
(g1
g2
(lp824
(lp825
S'word: can, index: 7'
p826
aatp827
Rp828
(dp829
g8
Vaux
p830
sbatp831
Rp832
(dp833
g8
S'word: listen, index: 8'
p834
sbatp835
Rp836
(dp837
g8
Vrcmod
p838
sbag0
(g1
g2
(lp839
(lp840
S'word: a, index: 3'
p841
aatp842
Rp843
(dp844
g8
Vdet
p845
sbatp846
Rp847
(dp848
g8
S'word: radio, index: 4'
p849
sbatp850
Rp851
(dp852
g8
Vdobj
p853
sbatp854
Rp855
(dp856
g8
S'word: have, index: 2'
p857
sbatp858
Rp859
(dp860
g8
S'id: 8'
p861
sbag0
(g1
g2
(lp862
g0
(g1
g2
(lp863
g0
(g1
g2
(lp864
g0
(g1
g2
(lp865
g0
(g1
g2
(lp866
(lp867
S'word: The, index: 1'
p868
aatp869
Rp870
(dp871
g8
Vdet
p872
sbatp873
Rp874
(dp875
g8
S'word: man, index: 2'
p876
sbatp877
Rp878
(dp879
g8
Vnsubj
p880
sbag0
(g1
g2
(lp881
(lp882
S'word: is, index: 3'
p883
aatp884
Rp885
(dp886
g8
Vcop
p887
sbag0
(g1
g2
(lp888
(lp889
S'word: criss, index: 4'
p890
aatp891
Rp892
(dp893
g8
Vamod
p894
sbag0
(g1
g2
(lp895
(lp896
S'word: cross, index: 5'
p897
aatp898
Rp899
(dp900
g8
Vnn
p901
sbag0
(g1
g2
(lp902
g0
(g1
g2
(lp903
g0
(g1
g2
(lp904
g0
(g1
g2
(lp905
g0
(g1
g2
(lp906
(lp907
S'word: a, index: 9'
p908
aatp909
Rp910
(dp911
g8
Vdet
p912
sbatp913
Rp914
(dp915
g8
S'word: book, index: 10'
p916
sbatp917
Rp918
(dp919
g8
Vdobj
p920
sbatp921
Rp922
(dp923
g8
S'word: reading, index: 8'
p924
sbatp925
Rp926
(dp927
g8
Vvmod
p928
sbatp929
Rp930
(dp931
g8
S'word: applesauce, index: 6'
p932
sbatp933
Rp934
(dp935
g8
S'id: 9'
p936
sbag0
(g1
g2
(lp937
g0
(g1
g2
(lp938
g0
(g1
g2
(lp939
(lp940
S'word: There, index: 1'
p941
aatp942
Rp943
(dp944
g8
Vexpl
p945
sbag0
(g1
g2
(lp946
g0
(g1
g2
(lp947
g0
(g1
g2
(lp948
(lp949
S'word: a, index: 3'
p950
aatp951
Rp952
(dp953
g8
Vdet
p954
sbag0
(g1
g2
(lp955
(lp956
S'word: little, index: 4'
p957
aatp958
Rp959
(dp960
g8
Vamod
p961
sbag0
(g1
g2
(lp962
g0
(g1
g2
(lp963
g0
(g1
g2
(lp964
g0
(g1
g2
(lp965
g0
(g1
g2
(lp966
(lp967
S'word: really, index: 14'
p968
aatp969
Rp970
(dp971
g8
Vadvmod
p972
sbag0
(g1
g2
(lp973
g0
(g1
g2
(lp974
g0
(g1
g2
(lp975
(lp976
S'word: the, index: 16'
p977
aatp978
Rp979
(dp980
g8
Vdet
p981
sbatp982
Rp983
(dp984
g8
S'word: kite, index: 17'
p985
sbatp986
Rp987
(dp988
g8
Vdobj
p989
sbag0
(g1
g2
(lp990
(lp991
S'word: like, index: 11'
p992
aatp993
Rp994
(dp995
g8
Vmark
p996
sbag0
(g1
g2
(lp997
(lp998
S'word: he, index: 12'
p999
aatp1000
Rp1001
(dp1002
g8
Vnsubj
p1003
sbag0
(g1
g2
(lp1004
(lp1005
S"word: 's, index: 13"
p1006
aatp1007
Rp1008
(dp1009
g8
Vaux
p1010
sbatp1011
Rp1012
(dp1013
g8
S'word: enjoying, index: 15'
p1014
sbatp1015
Rp1016
(dp1017
g8
Vadvcl
p1018
sbag0
(g1
g2
(lp1019
g0
(g1
g2
(lp1020
g0
(g1
g2
(lp1021
(lp1022
S'word: a, index: 7'
p1023
aatp1024
Rp1025
(dp1026
g8
Vdet
p1027
sbatp1028
Rp1029
(dp1030
g8
S'word: kite, index: 8'
p1031
sbatp1032
Rp1033
(dp1034
g8
Vdobj
p1035
sbag0
(g1
g2
(lp1036
(lp1037
S'word: looks, index: 10'
p1038
aatp1039
Rp1040
(dp1041
g8
Vdep
p1042
sbatp1043
Rp1044
(dp1045
g8
S'word: flying, index: 6'
p1046
sbatp1047
Rp1048
(dp1049
g8
Vdep
p1050
sbatp1051
Rp1052
(dp1053
g8
S'word: boy, index: 5'
p1054
sbatp1055
Rp1056
(dp1057
g8
Vnsubj
p1058
sbatp1059
Rp1060
(dp1061
g8
S'word: is, index: 2'
p1062
sbatp1063
Rp1064
(dp1065
g8
S'id: 10'
p1066
sbag0
(g1
g2
(lp1067
g0
(g1
g2
(lp1068
g0
(g1
g2
(lp1069
(lp1070
S'word: And, index: 1'
p1071
aatp1072
Rp1073
(dp1074
g8
Vcc
p1075
sbag0
(g1
g2
(lp1076
(lp1077
S'word: he, index: 2'
p1078
aatp1079
Rp1080
(dp1081
g8
Vnsubj
p1082
sbag0
(g1
g2
(lp1083
g0
(g1
g2
(lp1084
g0
(g1
g2
(lp1085
(lp1086
S'word: I, index: 4'
p1087
aatp1088
Rp1089
(dp1090
g8
Vnsubj
p1091
sbag0
(g1
g2
(lp1092
g0
(g1
g2
(lp1093
g0
(g1
g2
(lp1094
(lp1095
S'word: his, index: 6'
p1096
aatp1097
Rp1098
(dp1099
g8
Vposs
p1100
sbatp1101
Rp1102
(dp1103
g8
S'word: dog, index: 7'
p1104
sbatp1105
Rp1106
(dp1107
g8
Vdobj
p1108
sbag0
(g1
g2
(lp1109
(lp1110
S'word: him, index: 9'
p1111
aatp1112
Rp1113
(dp1114
g8
Vprep
p1115
sbatp1116
Rp1117
(dp1118
g8
S'word: guess, index: 5'
p1119
sbatp1120
Rp1121
(dp1122
g8
Vccomp
p1123
sbatp1124
Rp1125
(dp1126
g8
S'word: has, index: 3'
p1127
sbatp1128
Rp1129
(dp1130
g8
S'id: 11'
p1131
sbag0
(g1
g2
(lp1132
g0
(g1
g2
(lp1133
g0
(g1
g2
(lp1134
g0
(g1
g2
(lp1135
g0
(g1
g2
(lp1136
(lp1137
S'word: very, index: 3'
p1138
aatp1139
Rp1140
(dp1141
g8
Vadvmod
p1142
sbatp1143
Rp1144
(dp1145
g8
S'word: happy, index: 4'
p1146
sbatp1147
Rp1148
(dp1149
g8
Vacomp
p1150
sbag0
(g1
g2
(lp1151
g0
(g1
g2
(lp1152
g0
(g1
g2
(lp1153
g0
(g1
g2
(lp1154
g0
(g1
g2
(lp1155
(lp1156
S'word: the, index: 6'
p1157
aatp1158
Rp1159
(dp1160
g8
Vdet
p1161
sbatp1162
Rp1163
(dp1164
g8
S'word: boy, index: 7'
p1165
sbatp1166
Rp1167
(dp1168
g8
Vnsubj
p1169
sbag0
(g1
g2
(lp1170
g0
(g1
g2
(lp1171
g0
(g1
g2
(lp1172
(lp1173
S'word: very, index: 9'
p1174
aatp1175
Rp1176
(dp1177
g8
Vadvmod
p1178
sbatp1179
Rp1180
(dp1181
g8
S'word: happy, index: 10'
p1182
sbatp1183
Rp1184
(dp1185
g8
Vacomp
p1186
sbatp1187
Rp1188
(dp1189
g8
S'word: looks, index: 8'
p1190
sbatp1191
Rp1192
(dp1193
g8
Vparataxis
p1194
sbag0
(g1
g2
(lp1195
g0
(g1
g2
(lp1196
g0
(g1
g2
(lp1197
g0
(g1
g2
(lp1198
g0
(g1
g2
(lp1199
g0
(g1
g2
(lp1200
g0
(g1
g2
(lp1201
(lp1202
S'word: the, index: 14'
p1203
aatp1204
Rp1205
(dp1206
g8
Vdet
p1207
sbatp1208
Rp1209
(dp1210
g8
S'word: picture, index: 15'
p1211
sbatp1212
Rp1213
(dp1214
g8
Vprep
p1215
sbatp1216
Rp1217
(dp1218
g8
S'word: everybody, index: 12'
p1219
sbatp1220
Rp1221
(dp1222
g8
Vnsubj
p1223
sbag0
(g1
g2
(lp1224
g0
(g1
g2
(lp1225
g0
(g1
g2
(lp1226
(lp1227
S'word: really, index: 17'
p1228
aatp1229
Rp1230
(dp1231
g8
Vadvmod
p1232
sbatp1233
Rp1234
(dp1235
g8
S'word: happy, index: 18'
p1236
sbatp1237
Rp1238
(dp1239
g8
Vacomp
p1240
sbatp1241
Rp1242
(dp1243
g8
S'word: looks, index: 16'
p1244
sbatp1245
Rp1246
(dp1247
g8
Vparataxis
p1248
sbag0
(g1
g2
(lp1249
(lp1250
S'word: Dog, index: 1'
p1251
aatp1252
Rp1253
(dp1254
g8
Vnsubj
p1255
sbatp1256
Rp1257
(dp1258
g8
S'word: looks, index: 2'
p1259
sbatp1260
Rp1261
(dp1262
g8
S'id: 12'
p1263
sbag0
(g1
g2
(lp1264
g0
(g1
g2
(lp1265
g0
(g1
g2
(lp1266
g0
(g1
g2
(lp1267
g0
(g1
g2
(lp1268
g0
(g1
g2
(lp1269
g0
(g1
g2
(lp1270
(lp1271
S'word: like, index: 8'
p1272
aatp1273
Rp1274
(dp1275
g8
Vmark
p1276
sbag0
(g1
g2
(lp1277
(lp1278
S'word: it, index: 9'
p1279
aatp1280
Rp1281
(dp1282
g8
Vnsubj
p1283
sbag0
(g1
g2
(lp1284
(lp1285
S'word: would, index: 10'
p1286
aatp1287
Rp1288
(dp1289
g8
Vaux
p1290
sbag0
(g1
g2
(lp1291
(lp1292
S'word: be, index: 11'
p1293
aatp1294
Rp1295
(dp1296
g8
Vcop
p1297
sbag0
(g1
g2
(lp1298
(lp1299
S'word: a, index: 12'
p1300
aatp1301
Rp1302
(dp1303
g8
Vdet
p1304
sbag0
(g1
g2
(lp1305
g0
(g1
g2
(lp1306
g0
(g1
g2
(lp1307
(lp1308
S'word: really, index: 13'
p1309
aatp1310
Rp1311
(dp1312
g8
Vadvmod
p1313
sbatp1314
Rp1315
(dp1316
g8
S'word: nice, index: 14'
p1317
sbatp1318
Rp1319
(dp1320
g8
Vamod
p1321
sbag0
(g1
g2
(lp1322
(lp1323
S'word: summer, index: 15'
p1324
aatp1325
Rp1326
(dp1327
g8
Vnn
p1328
sbatp1329
Rp1330
(dp1331
g8
S'word: day, index: 16'
p1332
sbatp1333
Rp1334
(dp1335
g8
Vadvcl
p1336
sbatp1337
Rp1338
(dp1339
g8
S'word: looks, index: 7'
p1340
sbatp1341
Rp1342
(dp1343
g8
Vrcmod
p1344
sbag0
(g1
g2
(lp1345
(lp1346
S'word: It, index: 1'
p1347
aatp1348
Rp1349
(dp1350
g8
Vnsubj
p1351
sbag0
(g1
g2
(lp1352
(lp1353
S"word: 's, index: 2"
p1354
aatp1355
Rp1356
(dp1357
g8
Vcop
p1358
sbag0
(g1
g2
(lp1359
(lp1360
S'word: a, index: 3'
p1361
aatp1362
Rp1363
(dp1364
g8
Vdet
p1365
sbag0
(g1
g2
(lp1366
(lp1367
S'word: nice, index: 4'
p1368
aatp1369
Rp1370
(dp1371
g8
Vamod
p1372
sbatp1373
Rp1374
(dp1375
g8
S'word: driveway, index: 5'
p1376
sbatp1377
Rp1378
(dp1379
g8
S'id: 13'
p1380
sbag0
(g1
g2
(lp1381
g0
(g1
g2
(lp1382
g0
(g1
g2
(lp1383
(lp1384
S'word: There, index: 1'
p1385
aatp1386
Rp1387
(dp1388
g8
Vexpl
p1389
sbag0
(g1
g2
(lp1390
g0
(g1
g2
(lp1391
g0
(g1
g2
(lp1392
(lp1393
S'word: a, index: 3'
p1394
aatp1395
Rp1396
(dp1397
g8
Vdet
p1398
sbag0
(g1
g2
(lp1399
g0
(g1
g2
(lp1400
g0
(g1
g2
(lp1401
g0
(g1
g2
(lp1402
g0
(g1
g2
(lp1403
(lp1404
S'word: the, index: 7'
p1405
aatp1406
Rp1407
(dp1408
g8
Vdet
p1409
sbatp1410
Rp1411
(dp1412
g8
S'word: house, index: 8'
p1413
sbatp1414
Rp1415
(dp1416
g8
Vprep
p1417
sbatp1418
Rp1419
(dp1420
g8
S'word: flying, index: 5'
p1421
sbatp1422
Rp1423
(dp1424
g8
Vvmod
p1425
sbatp1426
Rp1427
(dp1428
g8
S'word: flag, index: 4'
p1429
sbatp1430
Rp1431
(dp1432
g8
Vnsubj
p1433
sbatp1434
Rp1435
(dp1436
g8
S"word: 's, index: 2"
p1437
sbatp1438
Rp1439
(dp1440
g8
S'id: 14'
p1441
sbag0
(g1
g2
(lp1442
g0
(g1
g2
(lp1443
g0
(g1
g2
(lp1444
(lp1445
S'word: Nice, index: 1'
p1446
aatp1447
Rp1448
(dp1449
g8
Vamod
p1450
sbag0
(g1
g2
(lp1451
(lp1452
S'word: shady, index: 2'
p1453
aatp1454
Rp1455
(dp1456
g8
Vamod
p1457
sbag0
(g1
g2
(lp1458
g0
(g1
g2
(lp1459
g0
(g1
g2
(lp1460
(lp1461
S'word: the, index: 5'
p1462
aatp1463
Rp1464
(dp1465
g8
Vdet
p1466
sbatp1467
Rp1468
(dp1469
g8
S'word: yard, index: 6'
p1470
sbatp1471
Rp1472
(dp1473
g8
Vprep
p1474
sbatp1475
Rp1476
(dp1477
g8
S'word: tree, index: 3'
p1478
sbatp1479
Rp1480
(dp1481
g8
S'id: 15'
p1482
sbag0
(g1
g2
(lp1483
g0
(g1
g2
(lp1484
g0
(g1
g2
(lp1485
(lp1486
S'word: And, index: 1'
p1487
aatp1488
Rp1489
(dp1490
g8
Vcc
p1491
sbag0
(g1
g2
(lp1492
g0
(g1
g2
(lp1493
g0
(g1
g2
(lp1494
(lp1495
S'word: the, index: 2'
p1496
aatp1497
Rp1498
(dp1499
g8
Vdet
p1500
sbatp1501
Rp1502
(dp1503
g8
S'word: man, index: 3'
p1504
sbatp1505
Rp1506
(dp1507
g8
Vnsubj
p1508
sbag0
(g1
g2
(lp1509
g0
(g1
g2
(lp1510
g0
(g1
g2
(lp1511
(lp1512
S'word: his, index: 5'
p1513
aatp1514
Rp1515
(dp1516
g8
Vposs
p1517
sbatp1518
Rp1519
(dp1520
g8
S'word: shoes, index: 6'
p1521
sbatp1522
Rp1523
(dp1524
g8
Vdobj
p1525
sbag0
(g1
g2
(lp1526
(lp1527
S'word: off, index: 7'
p1528
aatp1529
Rp1530
(dp1531
g8
Vprep
p1532
sbatp1533
Rp1534
(dp1535
g8
S'word: has, index: 4'
p1536
sbatp1537
Rp1538
(dp1539
g8
S'id: 16'
p1540
sbatp1541
Rp1542
(dp1543
g8
S'sentences'
p1544
sb.