ccopy_reg
_reconstructor
p0
(cnltk.tree
Tree
p1
c__builtin__
list
p2
(lp3
g0
(g1
g2
(lp4
g0
(g1
g2
(lp5
g0
(g1
g2
(lp6
(lp7
S'word: girl, index: 3'
p8
aatp9
Rp10
(dp11
S'_label'
p12
Vconj
p13
sbatp14
Rp15
(dp16
g12
S'word: Boy, index: 1'
p17
sbatp18
Rp19
(dp20
g12
S'id: 0'
p21
sbag0
(g1
g2
(lp22
tp23
Rp24
(dp25
g12
S'id: 1'
p26
sbag0
(g1
g2
(lp27
tp28
Rp29
(dp30
g12
S'id: 2'
p31
sbag0
(g1
g2
(lp32
g0
(g1
g2
(lp33
g0
(g1
g2
(lp34
(lp35
S'word: dog, index: 3'
p36
aatp37
Rp38
(dp39
g12
Vappos
p40
sbatp41
Rp42
(dp43
g12
S'word: Dog, index: 1'
p44
sbatp45
Rp46
(dp47
g12
S'id: 3'
p48
sbag0
(g1
g2
(lp49
g0
(g1
g2
(lp50
g0
(g1
g2
(lp51
(lp52
S'word: girl, index: 3'
p53
aatp54
Rp55
(dp56
g12
Vconj
p57
sbatp58
Rp59
(dp60
g12
S'word: Boy, index: 1'
p61
sbatp62
Rp63
(dp64
g12
S'id: 4'
p65
sbag0
(g1
g2
(lp66
g0
(g1
g2
(lp67
g0
(g1
g2
(lp68
(lp69
S'word: No, index: 1'
p70
aatp71
Rp72
(dp73
g12
Vnsubj
p74
sbatp75
Rp76
(dp77
g12
S'word: plied, index: 3'
p78
sbatp79
Rp80
(dp81
g12
S'id: 5'
p82
sbag0
(g1
g2
(lp83
g0
(g1
g2
(lp84
g0
(g1
g2
(lp85
(lp86
S'word: No, index: 1'
p87
aatp88
Rp89
(dp90
g12
Vnsubj
p91
sbatp92
Rp93
(dp94
g12
S'word: plied, index: 3'
p95
sbatp96
Rp97
(dp98
g12
S'id: 6'
p99
sbag0
(g1
g2
(lp100
g0
(g1
g2
(lp101
g0
(g1
g2
(lp102
g0
(g1
g2
(lp103
g0
(g1
g2
(lp104
(lp105
S'word: black, index: 5'
p106
aatp107
Rp108
(dp109
g12
Vamod
p110
sbag0
(g1
g2
(lp111
(lp112
S'word: black, index: 7'
p113
aatp114
Rp115
(dp116
g12
Vamod
p117
sbatp118
Rp119
(dp120
g12
S'word: black, index: 9'
p121
sbatp122
Rp123
(dp124
g12
Vamod
p125
sbag0
(g1
g2
(lp126
(lp127
S'word: no, index: 3'
p128
aatp129
Rp130
(dp131
g12
Vappos
p132
sbatp133
Rp134
(dp135
g12
S'word: No, index: 1'
p136
sbatp137
Rp138
(dp139
g12
S'id: 7'
p140
sbag0
(g1
g2
(lp141
g0
(g1
g2
(lp142
g0
(g1
g2
(lp143
(lp144
S'word: car, index: 3'
p145
aatp146
Rp147
(dp148
g12
Vappos
p149
sbatp150
Rp151
(dp152
g12
S'word: Car, index: 1'
p153
sbatp154
Rp155
(dp156
g12
S'id: 8'
p157
sbag0
(g1
g2
(lp158
g0
(g1
g2
(lp159
g0
(g1
g2
(lp160
(lp161
S'word: house, index: 3'
p162
aatp163
Rp164
(dp165
g12
Vappos
p166
sbatp167
Rp168
(dp169
g12
S'word: House, index: 1'
p170
sbatp171
Rp172
(dp173
g12
S'id: 9'
p174
sbag0
(g1
g2
(lp175
g0
(g1
g2
(lp176
g0
(g1
g2
(lp177
g0
(g1
g2
(lp178
g0
(g1
g2
(lp179
(lp180
S'word: two, index: 14'
p181
aatp182
Rp183
(dp184
g12
Vnum
p185
sbatp186
Rp187
(dp188
g12
S'word: boys, index: 15'
p189
sbatp190
Rp191
(dp192
g12
Vconj
p193
sbag0
(g1
g2
(lp194
(lp195
S'word: boat, index: 3'
p196
aatp197
Rp198
(dp199
g12
Vconj
p200
sbag0
(g1
g2
(lp201
(lp202
S'word: boat, index: 5'
p203
aatp204
Rp205
(dp206
g12
Vconj
p207
sbag0
(g1
g2
(lp208
g0
(g1
g2
(lp209
g0
(g1
g2
(lp210
(lp211
S'word: two, index: 10'
p212
aatp213
Rp214
(dp215
g12
Vamod
p216
sbatp217
Rp218
(dp219
g12
S'word: one, index: 8'
p220
sbatp221
Rp222
(dp223
g12
Vconj
p224
sbag0
(g1
g2
(lp225
(lp226
S'word: two, index: 12'
p227
aatp228
Rp229
(dp230
g12
Vconj
p231
sbatp232
Rp233
(dp234
g12
S'word: Boat, index: 1'
p235
sbatp236
Rp237
(dp238
g12
S'id: 10'
p239
sbag0
(g1
g2
(lp240
g0
(g1
g2
(lp241
g0
(g1
g2
(lp242
(lp243
S'word: No, index: 1'
p244
aatp245
Rp246
(dp247
g12
Vneg
p248
sbag0
(g1
g2
(lp249
(lp250
S'word: two, index: 4'
p251
aatp252
Rp253
(dp254
g12
Vamod
p255
sbag0
(g1
g2
(lp256
(lp257
S'word: person, index: 6'
p258
aatp259
Rp260
(dp261
g12
Vappos
p262
sbag0
(g1
g2
(lp263
(lp264
S'word: person, index: 8'
p265
aatp266
Rp267
(dp268
g12
Vappos
p269
sbatp270
Rp271
(dp272
g12
S'word: two, index: 2'
p273
sbatp274
Rp275
(dp276
g12
S'id: 11'
p277
sbag0
(g1
g2
(lp278
g0
(g1
g2
(lp279
g0
(g1
g2
(lp280
(lp281
S'word: lake, index: 3'
p282
aatp283
Rp284
(dp285
g12
Vappos
p286
sbatp287
Rp288
(dp289
g12
S'word: Lake, index: 1'
p290
sbatp291
Rp292
(dp293
g12
S'id: 12'
p294
sbatp295
Rp296
(dp297
g12
S'sentences'
p298
sb.