ccopy_reg
_reconstructor
p0
(cnltk.tree
Tree
p1
c__builtin__
list
p2
(lp3
g0
(g1
g2
(lp4
g0
(g1
g2
(lp5
g0
(g1
g2
(lp6
g0
(g1
g2
(lp7
Vthe
p8
atp9
Rp10
(dp11
S'_label'
p12
VDT
p13
sbatp14
Rp15
(dp16
g12
VNP-TMP
p17
sbag0
(g1
g2
(lp18
V,
p19
atp20
Rp21
(dp22
g12
V,
p23
sbag0
(g1
g2
(lp24
g0
(g1
g2
(lp25
Vtheir
p26
atp27
Rp28
(dp29
g12
VPRP$
p30
sbag0
(g1
g2
(lp31
Vfamily
p32
atp33
Rp34
(dp35
g12
VNN
p36
sbatp37
Rp38
(dp39
g12
VNP
p40
sbag0
(g1
g2
(lp41
g0
(g1
g2
(lp42
Vis
p43
atp44
Rp45
(dp46
g12
VVBZ
p47
sbag0
(g1
g2
(lp48
g0
(g1
g2
(lp49
Venjoying
p50
atp51
Rp52
(dp53
g12
VVBG
p54
sbag0
(g1
g2
(lp55
g0
(g1
g2
(lp56
Va
p57
atp58
Rp59
(dp60
g12
VDT
p61
sbag0
(g1
g2
(lp62
Vcircus
p63
atp64
Rp65
(dp66
g12
VNN
p67
sbatp68
Rp69
(dp70
g12
VNP
p71
sbatp72
Rp73
(dp74
g12
VVP
p75
sbatp76
Rp77
(dp78
g12
VVP
p79
sbag0
(g1
g2
(lp80
V.
p81
atp82
Rp83
(dp84
g12
V.
p85
sbatp86
Rp87
(dp88
g12
VS
p89
sbatp90
Rp91
(dp92
g12
S'id: 0'
p93
sbag0
(g1
g2
(lp94
g0
(g1
g2
(lp95
g0
(g1
g2
(lp96
g0
(g1
g2
(lp97
Vactually
p98
atp99
Rp100
(dp101
g12
VRB
p102
sbatp103
Rp104
(dp105
g12
VADVP
p106
sbag0
(g1
g2
(lp107
g0
(g1
g2
(lp108
Vtwo
p109
atp110
Rp111
(dp112
g12
VCD
p113
sbag0
(g1
g2
(lp114
Vfamilies
p115
atp116
Rp117
(dp118
g12
VNNS
p119
sbatp120
Rp121
(dp122
g12
VNP
p123
sbag0
(g1
g2
(lp124
g0
(g1
g2
(lp125
Vare
p126
atp127
Rp128
(dp129
g12
VVBP
p130
sbag0
(g1
g2
(lp131
g0
(g1
g2
(lp132
g0
(g1
g2
(lp133
V,
p134
atp135
Rp136
(dp137
g12
V,
p138
sbag0
(g1
g2
(lp139
Vor
p140
atp141
Rp142
(dp143
g12
VCC
p144
sbag0
(g1
g2
(lp145
g0
(g1
g2
(lp146
g0
(g1
g2
(lp147
Vthree
p148
atp149
Rp150
(dp151
g12
VCD
p152
sbatp153
Rp154
(dp155
g12
VNP
p156
sbag0
(g1
g2
(lp157
g0
(g1
g2
(lp158
Vin
p159
atp160
Rp161
(dp162
g12
VIN
p163
sbag0
(g1
g2
(lp164
g0
(g1
g2
(lp165
Vthe
p166
atp167
Rp168
(dp169
g12
VDT
p170
sbag0
(g1
g2
(lp171
Vpicture
p172
atp173
Rp174
(dp175
g12
VNN
p176
sbatp177
Rp178
(dp179
g12
VNP
p180
sbatp181
Rp182
(dp183
g12
VPP
p184
sbag0
(g1
g2
(lp185
V,
p186
atp187
Rp188
(dp189
g12
V,
p190
sbag0
(g1
g2
(lp191
Vand
p192
atp193
Rp194
(dp195
g12
VCC
p196
sbag0
(g1
g2
(lp197
g0
(g1
g2
(lp198
Vmany
p199
atp200
Rp201
(dp202
g12
VJJ
p203
sbag0
(g1
g2
(lp204
Vmore
p205
atp206
Rp207
(dp208
g12
VJJR
p209
sbatp210
Rp211
(dp212
g12
VNP
p213
sbatp214
Rp215
(dp216
g12
VNP
p217
sbatp218
Rp219
(dp220
g12
VPRN
p221
sbag0
(g1
g2
(lp222
Vunseen
p223
atp224
Rp225
(dp226
g12
VJJ
p227
sbatp228
Rp229
(dp230
g12
VADJP
p231
sbatp232
Rp233
(dp234
g12
VVP
p235
sbag0
(g1
g2
(lp236
V.
p237
atp238
Rp239
(dp240
g12
V.
p241
sbatp242
Rp243
(dp244
g12
VS
p245
sbatp246
Rp247
(dp248
g12
S'id: 1'
p249
sbag0
(g1
g2
(lp250
g0
(g1
g2
(lp251
g0
(g1
g2
(lp252
g0
(g1
g2
(lp253
g0
(g1
g2
(lp254
VThere
p255
atp256
Rp257
(dp258
g12
VEX
p259
sbatp260
Rp261
(dp262
g12
VNP
p263
sbag0
(g1
g2
(lp264
g0
(g1
g2
(lp265
V's
p266
atp267
Rp268
(dp269
g12
VVBZ
p270
sbag0
(g1
g2
(lp271
g0
(g1
g2
(lp272
g0
(g1
g2
(lp273
Va
p274
atp275
Rp276
(dp277
g12
VDT
p278
sbag0
(g1
g2
(lp279
Vclown
p280
atp281
Rp282
(dp283
g12
VNN
p284
sbatp285
Rp286
(dp287
g12
VNP
p288
sbag0
(g1
g2
(lp289
Ventertaining
p290
atp291
Rp292
(dp293
g12
VJJ
p294
sbatp295
Rp296
(dp297
g12
VADJP
p298
sbatp299
Rp300
(dp301
g12
VVP
p302
sbatp303
Rp304
(dp305
g12
VS
p306
sbag0
(g1
g2
(lp307
V,
p308
atp309
Rp310
(dp311
g12
V,
p312
sbag0
(g1
g2
(lp313
g0
(g1
g2
(lp314
g0
(g1
g2
(lp315
g0
(g1
g2
(lp316
Va
p317
atp318
Rp319
(dp320
g12
VDT
p321
sbag0
(g1
g2
(lp322
Vjuggler
p323
atp324
Rp325
(dp326
g12
VNN
p327
sbatp328
Rp329
(dp330
g12
VNP
p331
sbag0
(g1
g2
(lp332
V,
p333
atp334
Rp335
(dp336
g12
V,
p337
sbag0
(g1
g2
(lp338
Vand
p339
atp340
Rp341
(dp342
g12
VCC
p343
sbag0
(g1
g2
(lp344
g0
(g1
g2
(lp345
Valso
p346
atp347
Rp348
(dp349
g12
VRB
p350
sbatp351
Rp352
(dp353
g12
VADVP
p354
sbag0
(g1
g2
(lp355
g0
(g1
g2
(lp356
g0
(g1
g2
(lp357
Va
p358
atp359
Rp360
(dp361
g12
VDT
p362
sbag0
(g1
g2
(lp363
Vlady
p364
atp365
Rp366
(dp367
g12
VNN
p368
sbatp369
Rp370
(dp371
g12
VNP
p372
sbag0
(g1
g2
(lp373
g0
(g1
g2
(lp374
Von
p375
atp376
Rp377
(dp378
g12
VIN
p379
sbag0
(g1
g2
(lp380
g0
(g1
g2
(lp381
Va
p382
atp383
Rp384
(dp385
g12
VDT
p386
sbag0
(g1
g2
(lp387
Vhorse
p388
atp389
Rp390
(dp391
g12
VNN
p392
sbatp393
Rp394
(dp395
g12
VNP
p396
sbatp397
Rp398
(dp399
g12
VPP
p400
sbatp401
Rp402
(dp403
g12
VNP
p404
sbag0
(g1
g2
(lp405
V,
p406
atp407
Rp408
(dp409
g12
V,
p410
sbatp411
Rp412
(dp413
g12
VNP
p414
sbag0
(g1
g2
(lp415
g0
(g1
g2
(lp416
Vin
p417
atp418
Rp419
(dp420
g12
VIN
p421
sbag0
(g1
g2
(lp422
g0
(g1
g2
(lp423
Va
p424
atp425
Rp426
(dp427
g12
VDT
p428
sbag0
(g1
g2
(lp429
Vballet-ballerina
p430
atp431
Rp432
(dp433
g12
VNN
p434
sbag0
(g1
g2
(lp435
Vsuit
p436
atp437
Rp438
(dp439
g12
VNN
p440
sbatp441
Rp442
(dp443
g12
VNP
p444
sbatp445
Rp446
(dp447
g12
VPP
p448
sbatp449
Rp450
(dp451
g12
VS
p452
sbag0
(g1
g2
(lp453
V,
p454
atp455
Rp456
(dp457
g12
V,
p458
sbag0
(g1
g2
(lp459
Vand
p460
atp461
Rp462
(dp463
g12
VCC
p464
sbag0
(g1
g2
(lp465
g0
(g1
g2
(lp466
g0
(g1
g2
(lp467
Vthere
p468
atp469
Rp470
(dp471
g12
VEX
p472
sbatp473
Rp474
(dp475
g12
VNP
p476
sbag0
(g1
g2
(lp477
g0
(g1
g2
(lp478
V's
p479
atp480
Rp481
(dp482
g12
VVBZ
p483
sbag0
(g1
g2
(lp484
g0
(g1
g2
(lp485
g0
(g1
g2
(lp486
Va
p487
atp488
Rp489
(dp490
g12
VDT
p491
sbag0
(g1
g2
(lp492
Vtrainer
p493
atp494
Rp495
(dp496
g12
VNN
p497
sbatp498
Rp499
(dp500
g12
VNP
p501
sbag0
(g1
g2
(lp502
g0
(g1
g2
(lp503
Vin
p504
atp505
Rp506
(dp507
g12
VIN
p508
sbag0
(g1
g2
(lp509
g0
(g1
g2
(lp510
g0
(g1
g2
(lp511
Vthe
p512
atp513
Rp514
(dp515
g12
VDT
p516
sbag0
(g1
g2
(lp517
Vlion
p518
atp519
Rp520
(dp521
g12
VNN
p522
sbag0
(g1
g2
(lp523
V's
p524
atp525
Rp526
(dp527
g12
VPOS
p528
sbatp529
Rp530
(dp531
g12
VNP
p532
sbag0
(g1
g2
(lp533
Vden
p534
atp535
Rp536
(dp537
g12
VNN
p538
sbatp539
Rp540
(dp541
g12
VNP
p542
sbatp543
Rp544
(dp545
g12
VPP
p546
sbag0
(g1
g2
(lp547
g0
(g1
g2
(lp548
g0
(g1
g2
(lp549
Vthat
p550
atp551
Rp552
(dp553
g12
VWDT
p554
sbatp555
Rp556
(dp557
g12
VWHNP
p558
sbag0
(g1
g2
(lp559
g0
(g1
g2
(lp560
g0
(g1
g2
(lp561
Vis
p562
atp563
Rp564
(dp565
g12
VVBZ
p566
sbag0
(g1
g2
(lp567
g0
(g1
g2
(lp568
Vgiving
p569
atp570
Rp571
(dp572
g12
VVBG
p573
sbag0
(g1
g2
(lp574
g0
(g1
g2
(lp575
Vthe
p576
atp577
Rp578
(dp579
g12
VDT
p580
sbag0
(g1
g2
(lp581
Vlion
p582
atp583
Rp584
(dp585
g12
VNN
p586
sbatp587
Rp588
(dp589
g12
VNP
p590
sbag0
(g1
g2
(lp591
g0
(g1
g2
(lp592
Vorders
p593
atp594
Rp595
(dp596
g12
VNNS
p597
sbatp598
Rp599
(dp600
g12
VNP
p601
sbatp602
Rp603
(dp604
g12
VVP
p605
sbatp606
Rp607
(dp608
g12
VVP
p609
sbatp610
Rp611
(dp612
g12
VS
p613
sbatp614
Rp615
(dp616
g12
VSBAR
p617
sbatp618
Rp619
(dp620
g12
VNP
p621
sbatp622
Rp623
(dp624
g12
VVP
p625
sbatp626
Rp627
(dp628
g12
VS
p629
sbag0
(g1
g2
(lp630
V.
p631
atp632
Rp633
(dp634
g12
V.
p635
sbatp636
Rp637
(dp638
g12
VS
p639
sbatp640
Rp641
(dp642
g12
S'id: 2'
p643
sbag0
(g1
g2
(lp644
g0
(g1
g2
(lp645
g0
(g1
g2
(lp646
g0
(g1
g2
(lp647
VThe
p648
atp649
Rp650
(dp651
g12
VDT
p652
sbag0
(g1
g2
(lp653
Vlittle
p654
atp655
Rp656
(dp657
g12
VJJ
p658
sbag0
(g1
g2
(lp659
Vgirl
p660
atp661
Rp662
(dp663
g12
VNN
p664
sbatp665
Rp666
(dp667
g12
VNP
p668
sbag0
(g1
g2
(lp669
g0
(g1
g2
(lp670
Vis
p671
atp672
Rp673
(dp674
g12
VVBZ
p675
sbag0
(g1
g2
(lp676
g0
(g1
g2
(lp677
Vpointing
p678
atp679
Rp680
(dp681
g12
VVBG
p682
sbag0
(g1
g2
(lp683
g0
(g1
g2
(lp684
g0
(g1
g2
(lp685
Vher
p686
atp687
Rp688
(dp689
g12
VPRP
p690
sbatp691
Rp692
(dp693
g12
VNP
p694
sbag0
(g1
g2
(lp695
V,
p696
atp697
Rp698
(dp699
g12
V,
p700
sbag0
(g1
g2
(lp701
g0
(g1
g2
(lp702
Vto
p703
atp704
Rp705
(dp706
g12
VTO
p707
sbag0
(g1
g2
(lp708
g0
(g1
g2
(lp709
Vher
p710
atp711
Rp712
(dp713
g12
VPRP$
p714
sbag0
(g1
g2
(lp715
Vdad
p716
atp717
Rp718
(dp719
g12
VNN
p720
sbatp721
Rp722
(dp723
g12
VNP
p724
sbatp725
Rp726
(dp727
g12
VPP
p728
sbag0
(g1
g2
(lp729
V,
p730
atp731
Rp732
(dp733
g12
V,
p734
sbag0
(g1
g2
(lp735
g0
(g1
g2
(lp736
Vto
p737
atp738
Rp739
(dp740
g12
VTO
p741
sbag0
(g1
g2
(lp742
g0
(g1
g2
(lp743
Vlook
p744
atp745
Rp746
(dp747
g12
VVB
p748
sbag0
(g1
g2
(lp749
g0
(g1
g2
(lp750
Vat
p751
atp752
Rp753
(dp754
g12
VIN
p755
sbag0
(g1
g2
(lp756
g0
(g1
g2
(lp757
Vthe
p758
atp759
Rp760
(dp761
g12
VDT
p762
sbag0
(g1
g2
(lp763
Vclown
p764
atp765
Rp766
(dp767
g12
VNN
p768
sbatp769
Rp770
(dp771
g12
VNP
p772
sbatp773
Rp774
(dp775
g12
VPP
p776
sbatp777
Rp778
(dp779
g12
VVP
p780
sbatp781
Rp782
(dp783
g12
VVP
p784
sbatp785
Rp786
(dp787
g12
VS
p788
sbatp789
Rp790
(dp791
g12
VVP
p792
sbatp793
Rp794
(dp795
g12
VVP
p796
sbag0
(g1
g2
(lp797
V.
p798
atp799
Rp800
(dp801
g12
V.
p802
sbatp803
Rp804
(dp805
g12
VS
p806
sbatp807
Rp808
(dp809
g12
S'id: 3'
p810
sbag0
(g1
g2
(lp811
g0
(g1
g2
(lp812
g0
(g1
g2
(lp813
g0
(g1
g2
(lp814
g0
(g1
g2
(lp815
VThe
p816
atp817
Rp818
(dp819
g12
VDT
p820
sbag0
(g1
g2
(lp821
Vlittle
p822
atp823
Rp824
(dp825
g12
VJJ
p826
sbag0
(g1
g2
(lp827
Vboy
p828
atp829
Rp830
(dp831
g12
VNN
p832
sbatp833
Rp834
(dp835
g12
VNP
p836
sbag0
(g1
g2
(lp837
g0
(g1
g2
(lp838
g0
(g1
g2
(lp839
Vthat
p840
atp841
Rp842
(dp843
g12
VWDT
p844
sbatp845
Rp846
(dp847
g12
VWHNP
p848
sbag0
(g1
g2
(lp849
g0
(g1
g2
(lp850
g0
(g1
g2
(lp851
Vbelongs
p852
atp853
Rp854
(dp855
g12
VVBZ
p856
sbag0
(g1
g2
(lp857
g0
(g1
g2
(lp858
Vto
p859
atp860
Rp861
(dp862
g12
VTO
p863
sbag0
(g1
g2
(lp864
g0
(g1
g2
(lp865
Vthe
p866
atp867
Rp868
(dp869
g12
VDT
p870
sbag0
(g1
g2
(lp871
Vopposite
p872
atp873
Rp874
(dp875
g12
VJJ
p876
sbag0
(g1
g2
(lp877
Vfamily
p878
atp879
Rp880
(dp881
g12
VNN
p882
sbatp883
Rp884
(dp885
g12
VNP
p886
sbatp887
Rp888
(dp889
g12
VPP
p890
sbatp891
Rp892
(dp893
g12
VVP
p894
sbatp895
Rp896
(dp897
g12
VS
p898
sbatp899
Rp900
(dp901
g12
VSBAR
p902
sbatp903
Rp904
(dp905
g12
VNP
p906
sbag0
(g1
g2
(lp907
g0
(g1
g2
(lp908
Vis
p909
atp910
Rp911
(dp912
g12
VVBZ
p913
sbag0
(g1
g2
(lp914
g0
(g1
g2
(lp915
Vcatching
p916
atp917
Rp918
(dp919
g12
VVBG
p920
sbag0
(g1
g2
(lp921
g0
(g1
g2
(lp922
V,
p923
atp924
Rp925
(dp926
g12
V,
p927
sbag0
(g1
g2
(lp928
g0
(g1
g2
(lp929
g0
(g1
g2
(lp930
Vis
p931
atp932
Rp933
(dp934
g12
VVBZ
p935
sbag0
(g1
g2
(lp936
g0
(g1
g2
(lp937
Vtrying
p938
atp939
Rp940
(dp941
g12
VVBG
p942
sbag0
(g1
g2
(lp943
g0
(g1
g2
(lp944
g0
(g1
g2
(lp945
Vto
p946
atp947
Rp948
(dp949
g12
VTO
p950
sbag0
(g1
g2
(lp951
g0
(g1
g2
(lp952
Vcatch
p953
atp954
Rp955
(dp956
g12
VVB
p957
sbatp958
Rp959
(dp960
g12
VVP
p961
sbatp962
Rp963
(dp964
g12
VVP
p965
sbatp966
Rp967
(dp968
g12
VS
p969
sbatp970
Rp971
(dp972
g12
VVP
p973
sbatp974
Rp975
(dp976
g12
VVP
p977
sbatp978
Rp979
(dp980
g12
VS
p981
sbag0
(g1
g2
(lp982
V,
p983
atp984
Rp985
(dp986
g12
V,
p987
sbatp988
Rp989
(dp990
g12
VPRN
p991
sbag0
(g1
g2
(lp992
g0
(g1
g2
(lp993
g0
(g1
g2
(lp994
Vsome
p995
atp996
Rp997
(dp998
g12
VDT
p999
sbag0
(g1
g2
(lp1000
Vcandy
p1001
atp1002
Rp1003
(dp1004
g12
VNN
p1005
sbatp1006
Rp1007
(dp1008
g12
VNP
p1009
sbag0
(g1
g2
(lp1010
g0
(g1
g2
(lp1011
Vthat
p1012
atp1013
Rp1014
(dp1015
g12
VIN
p1016
sbag0
(g1
g2
(lp1017
g0
(g1
g2
(lp1018
g0
(g1
g2
(lp1019
Vthe
p1020
atp1021
Rp1022
(dp1023
g12
VDT
p1024
sbag0
(g1
g2
(lp1025
Vclown
p1026
atp1027
Rp1028
(dp1029
g12
VNN
p1030
sbatp1031
Rp1032
(dp1033
g12
VNP
p1034
sbag0
(g1
g2
(lp1035
g0
(g1
g2
(lp1036
Vis
p1037
atp1038
Rp1039
(dp1040
g12
VVBZ
p1041
sbag0
(g1
g2
(lp1042
g0
(g1
g2
(lp1043
Vthrown
p1044
atp1045
Rp1046
(dp1047
g12
VVBN
p1048
sbag0
(g1
g2
(lp1049
g0
(g1
g2
(lp1050
Vout
p1051
atp1052
Rp1053
(dp1054
g12
VRP
p1055
sbatp1056
Rp1057
(dp1058
g12
VPRT
p1059
sbatp1060
Rp1061
(dp1062
g12
VVP
p1063
sbatp1064
Rp1065
(dp1066
g12
VVP
p1067
sbatp1068
Rp1069
(dp1070
g12
VS
p1071
sbatp1072
Rp1073
(dp1074
g12
VSBAR
p1075
sbatp1076
Rp1077
(dp1078
g12
VNP
p1079
sbatp1080
Rp1081
(dp1082
g12
VVP
p1083
sbatp1084
Rp1085
(dp1086
g12
VVP
p1087
sbag0
(g1
g2
(lp1088
V.
p1089
atp1090
Rp1091
(dp1092
g12
V.
p1093
sbatp1094
Rp1095
(dp1096
g12
VS
p1097
sbatp1098
Rp1099
(dp1100
g12
S'id: 4'
p1101
sbag0
(g1
g2
(lp1102
g0
(g1
g2
(lp1103
g0
(g1
g2
(lp1104
g0
(g1
g2
(lp1105
g0
(g1
g2
(lp1106
VThe
p1107
atp1108
Rp1109
(dp1110
g12
VDT
p1111
sbag0
(g1
g2
(lp1112
Vother
p1113
atp1114
Rp1115
(dp1116
g12
VJJ
p1117
sbag0
(g1
g2
(lp1118
Vpeople
p1119
atp1120
Rp1121
(dp1122
g12
VNNS
p1123
sbatp1124
Rp1125
(dp1126
g12
VNP
p1127
sbag0
(g1
g2
(lp1128
g0
(g1
g2
(lp1129
Vin
p1130
atp1131
Rp1132
(dp1133
g12
VIN
p1134
sbag0
(g1
g2
(lp1135
g0
(g1
g2
(lp1136
Vthe
p1137
atp1138
Rp1139
(dp1140
g12
VDT
p1141
sbag0
(g1
g2
(lp1142
Vcrowd
p1143
atp1144
Rp1145
(dp1146
g12
VNN
p1147
sbatp1148
Rp1149
(dp1150
g12
VNP
p1151
sbatp1152
Rp1153
(dp1154
g12
VPP
p1155
sbag0
(g1
g2
(lp1156
V,
p1157
atp1158
Rp1159
(dp1160
g12
V,
p1161
sbag0
(g1
g2
(lp1162
g0
(g1
g2
(lp1163
Vthat
p1164
atp1165
Rp1166
(dp1167
g12
VIN
p1168
sbag0
(g1
g2
(lp1169
g0
(g1
g2
(lp1170
g0
(g1
g2
(lp1171
Vyou
p1172
atp1173
Rp1174
(dp1175
g12
VPRP
p1176
sbatp1177
Rp1178
(dp1179
g12
VNP
p1180
sbag0
(g1
g2
(lp1181
g0
(g1
g2
(lp1182
Vcan
p1183
atp1184
Rp1185
(dp1186
g12
VMD
p1187
sbag0
(g1
g2
(lp1188
g0
(g1
g2
(lp1189
Vsee
p1190
atp1191
Rp1192
(dp1193
g12
VVB
p1194
sbag0
(g1
g2
(lp1195
g0
(g1
g2
(lp1196
Vin
p1197
atp1198
Rp1199
(dp1200
g12
VIN
p1201
sbag0
(g1
g2
(lp1202
g0
(g1
g2
(lp1203
Vthe
p1204
atp1205
Rp1206
(dp1207
g12
VDT
p1208
sbag0
(g1
g2
(lp1209
Vdistance
p1210
atp1211
Rp1212
(dp1213
g12
VNN
p1214
sbatp1215
Rp1216
(dp1217
g12
VNP
p1218
sbatp1219
Rp1220
(dp1221
g12
VPP
p1222
sbatp1223
Rp1224
(dp1225
g12
VVP
p1226
sbatp1227
Rp1228
(dp1229
g12
VVP
p1230
sbatp1231
Rp1232
(dp1233
g12
VS
p1234
sbatp1235
Rp1236
(dp1237
g12
VSBAR
p1238
sbag0
(g1
g2
(lp1239
V,
p1240
atp1241
Rp1242
(dp1243
g12
V,
p1244
sbatp1245
Rp1246
(dp1247
g12
VNP
p1248
sbag0
(g1
g2
(lp1249
g0
(g1
g2
(lp1250
Vis
p1251
atp1252
Rp1253
(dp1254
g12
VVBZ
p1255
sbag0
(g1
g2
(lp1256
g0
(g1
g2
(lp1257
Vwatching
p1258
atp1259
Rp1260
(dp1261
g12
VVBG
p1262
sbag0
(g1
g2
(lp1263
g0
(g1
g2
(lp1264
g0
(g1
g2
(lp1265
Vthe
p1266
atp1267
Rp1268
(dp1269
g12
VDT
p1270
sbag0
(g1
g2
(lp1271
Vtight
p1272
atp1273
Rp1274
(dp1275
g12
VJJ
p1276
sbag0
(g1
g2
(lp1277
Vrape
p1278
atp1279
Rp1280
(dp1281
g12
VNN
p1282
sbatp1283
Rp1284
(dp1285
g12
VNP
p1286
sbag0
(g1
g2
(lp1287
V,
p1288
atp1289
Rp1290
(dp1291
g12
V,
p1292
sbag0
(g1
g2
(lp1293
g0
(g1
g2
(lp1294
Vrape
p1295
atp1296
Rp1297
(dp1298
g12
VNN
p1299
sbag0
(g1
g2
(lp1300
Vworker
p1301
atp1302
Rp1303
(dp1304
g12
VNN
p1305
sbatp1306
Rp1307
(dp1308
g12
VNP
p1309
sbag0
(g1
g2
(lp1310
V,
p1311
atp1312
Rp1313
(dp1314
g12
V,
p1315
sbag0
(g1
g2
(lp1316
g0
(g1
g2
(lp1317
Vthat
p1318
atp1319
Rp1320
(dp1321
g12
VIN
p1322
sbag0
(g1
g2
(lp1323
g0
(g1
g2
(lp1324
g0
(g1
g2
(lp1325
Vwhich
p1326
atp1327
Rp1328
(dp1329
g12
VWDT
p1330
sbatp1331
Rp1332
(dp1333
g12
VNP
p1334
sbag0
(g1
g2
(lp1335
g0
(g1
g2
(lp1336
Vis
p1337
atp1338
Rp1339
(dp1340
g12
VVBZ
p1341
sbag0
(g1
g2
(lp1342
g0
(g1
g2
(lp1343
Va
p1344
atp1345
Rp1346
(dp1347
g12
VDT
p1348
sbag0
(g1
g2
(lp1349
Vman
p1350
atp1351
Rp1352
(dp1353
g12
VNN
p1354
sbag0
(g1
g2
(lp1355
g0
(g1
g2
(lp1356
g0
(g1
g2
(lp1357
Vwalk
p1358
atp1359
Rp1360
(dp1361
g12
VVB
p1362
sbag0
(g1
g2
(lp1363
g0
(g1
g2
(lp1364
Von
p1365
atp1366
Rp1367
(dp1368
g12
VIN
p1369
sbag0
(g1
g2
(lp1370
g0
(g1
g2
(lp1371
Vthe
p1372
atp1373
Rp1374
(dp1375
g12
VDT
p1376
sbag0
(g1
g2
(lp1377
Vtight
p1378
atp1379
Rp1380
(dp1381
g12
VJJ
p1382
sbag0
(g1
g2
(lp1383
Vrope
p1384
atp1385
Rp1386
(dp1387
g12
VNN
p1388
sbatp1389
Rp1390
(dp1391
g12
VNP
p1392
sbatp1393
Rp1394
(dp1395
g12
VPP
p1396
sbatp1397
Rp1398
(dp1399
g12
VVP
p1400
sbatp1401
Rp1402
(dp1403
g12
VS
p1404
sbatp1405
Rp1406
(dp1407
g12
VNP
p1408
sbatp1409
Rp1410
(dp1411
g12
VVP
p1412
sbatp1413
Rp1414
(dp1415
g12
VS
p1416
sbatp1417
Rp1418
(dp1419
g12
VSBAR
p1420
sbatp1421
Rp1422
(dp1423
g12
VNP
p1424
sbatp1425
Rp1426
(dp1427
g12
VVP
p1428
sbatp1429
Rp1430
(dp1431
g12
VVP
p1432
sbag0
(g1
g2
(lp1433
V.
p1434
atp1435
Rp1436
(dp1437
g12
V.
p1438
sbatp1439
Rp1440
(dp1441
g12
VS
p1442
sbatp1443
Rp1444
(dp1445
g12
S'id: 5'
p1446
sbag0
(g1
g2
(lp1447
g0
(g1
g2
(lp1448
g0
(g1
g2
(lp1449
g0
(g1
g2
(lp1450
g0
(g1
g2
(lp1451
VThe
p1452
atp1453
Rp1454
(dp1455
g12
VDT
p1456
sbag0
(g1
g2
(lp1457
Vmom
p1458
atp1459
Rp1460
(dp1461
g12
VNN
p1462
sbatp1463
Rp1464
(dp1465
g12
VNP
p1466
sbag0
(g1
g2
(lp1467
g0
(g1
g2
(lp1468
Vis
p1469
atp1470
Rp1471
(dp1472
g12
VVBZ
p1473
sbag0
(g1
g2
(lp1474
g0
(g1
g2
(lp1475
Vholding
p1476
atp1477
Rp1478
(dp1479
g12
VVBG
p1480
sbag0
(g1
g2
(lp1481
g0
(g1
g2
(lp1482
Vthe
p1483
atp1484
Rp1485
(dp1486
g12
VDT
p1487
sbag0
(g1
g2
(lp1488
Vlittle
p1489
atp1490
Rp1491
(dp1492
g12
VJJ
p1493
sbag0
(g1
g2
(lp1494
Vgirl
p1495
atp1496
Rp1497
(dp1498
g12
VNN
p1499
sbatp1500
Rp1501
(dp1502
g12
VNP
p1503
sbatp1504
Rp1505
(dp1506
g12
VVP
p1507
sbatp1508
Rp1509
(dp1510
g12
VVP
p1511
sbatp1512
Rp1513
(dp1514
g12
VS
p1515
sbag0
(g1
g2
(lp1516
V,
p1517
atp1518
Rp1519
(dp1520
g12
V,
p1521
sbag0
(g1
g2
(lp1522
Vand
p1523
atp1524
Rp1525
(dp1526
g12
VCC
p1527
sbag0
(g1
g2
(lp1528
g0
(g1
g2
(lp1529
g0
(g1
g2
(lp1530
Vshe
p1531
atp1532
Rp1533
(dp1534
g12
VPRP
p1535
sbatp1536
Rp1537
(dp1538
g12
VNP
p1539
sbag0
(g1
g2
(lp1540
g0
(g1
g2
(lp1541
Vis
p1542
atp1543
Rp1544
(dp1545
g12
VVBZ
p1546
sbag0
(g1
g2
(lp1547
g0
(g1
g2
(lp1548
Vis
p1549
atp1550
Rp1551
(dp1552
g12
VVBZ
p1553
sbag0
(g1
g2
(lp1554
g0
(g1
g2
(lp1555
g0
(g1
g2
(lp1556
Vsmiling
p1557
atp1558
Rp1559
(dp1560
g12
VVBG
p1561
sbatp1562
Rp1563
(dp1564
g12
VVP
p1565
sbag0
(g1
g2
(lp1566
Vand
p1567
atp1568
Rp1569
(dp1570
g12
VCC
p1571
sbag0
(g1
g2
(lp1572
g0
(g1
g2
(lp1573
Vhaving
p1574
atp1575
Rp1576
(dp1577
g12
VVBG
p1578
sbag0
(g1
g2
(lp1579
g0
(g1
g2
(lp1580
Vfun
p1581
atp1582
Rp1583
(dp1584
g12
VNN
p1585
sbag0
(g1
g2
(lp1586
Vtoo
p1587
atp1588
Rp1589
(dp1590
g12
VRB
p1591
sbatp1592
Rp1593
(dp1594
g12
VNP
p1595
sbatp1596
Rp1597
(dp1598
g12
VVP
p1599
sbatp1600
Rp1601
(dp1602
g12
VVP
p1603
sbatp1604
Rp1605
(dp1606
g12
VVP
p1607
sbatp1608
Rp1609
(dp1610
g12
VVP
p1611
sbatp1612
Rp1613
(dp1614
g12
VS
p1615
sbag0
(g1
g2
(lp1616
V.
p1617
atp1618
Rp1619
(dp1620
g12
V.
p1621
sbatp1622
Rp1623
(dp1624
g12
VS
p1625
sbatp1626
Rp1627
(dp1628
g12
S'id: 6'
p1629
sbag0
(g1
g2
(lp1630
g0
(g1
g2
(lp1631
g0
(g1
g2
(lp1632
g0
(g1
g2
(lp1633
g0
(g1
g2
(lp1634
VAll
p1635
atp1636
Rp1637
(dp1638
g12
VDT
p1639
sbag0
(g1
g2
(lp1640
Vpeople
p1641
atp1642
Rp1643
(dp1644
g12
VNNS
p1645
sbatp1646
Rp1647
(dp1648
g12
VNP
p1649
sbag0
(g1
g2
(lp1650
V,
p1651
atp1652
Rp1653
(dp1654
g12
V,
p1655
sbag0
(g1
g2
(lp1656
g0
(g1
g2
(lp1657
Vthat
p1658
atp1659
Rp1660
(dp1661
g12
VIN
p1662
sbag0
(g1
g2
(lp1663
g0
(g1
g2
(lp1664
g0
(g1
g2
(lp1665
Vyou
p1666
atp1667
Rp1668
(dp1669
g12
VPRP
p1670
sbatp1671
Rp1672
(dp1673
g12
VNP
p1674
sbag0
(g1
g2
(lp1675
g0
(g1
g2
(lp1676
Vcan
p1677
atp1678
Rp1679
(dp1680
g12
VMD
p1681
sbag0
(g1
g2
(lp1682
g0
(g1
g2
(lp1683
Vsee
p1684
atp1685
Rp1686
(dp1687
g12
VVB
p1688
sbag0
(g1
g2
(lp1689
g0
(g1
g2
(lp1690
Vtheir
p1691
atp1692
Rp1693
(dp1694
g12
VPRP$
p1695
sbag0
(g1
g2
(lp1696
Vfaces
p1697
atp1698
Rp1699
(dp1700
g12
VNNS
p1701
sbatp1702
Rp1703
(dp1704
g12
VNP
p1705
sbatp1706
Rp1707
(dp1708
g12
VVP
p1709
sbatp1710
Rp1711
(dp1712
g12
VVP
p1713
sbatp1714
Rp1715
(dp1716
g12
VS
p1717
sbatp1718
Rp1719
(dp1720
g12
VSBAR
p1721
sbag0
(g1
g2
(lp1722
V,
p1723
atp1724
Rp1725
(dp1726
g12
V,
p1727
sbatp1728
Rp1729
(dp1730
g12
VNP
p1731
sbag0
(g1
g2
(lp1732
g0
(g1
g2
(lp1733
Vare
p1734
atp1735
Rp1736
(dp1737
g12
VVBP
p1738
sbag0
(g1
g2
(lp1739
g0
(g1
g2
(lp1740
Vsmiling
p1741
atp1742
Rp1743
(dp1744
g12
VVBG
p1745
sbatp1746
Rp1747
(dp1748
g12
VVP
p1749
sbatp1750
Rp1751
(dp1752
g12
VVP
p1753
sbag0
(g1
g2
(lp1754
V.
p1755
atp1756
Rp1757
(dp1758
g12
V.
p1759
sbatp1760
Rp1761
(dp1762
g12
VS
p1763
sbatp1764
Rp1765
(dp1766
g12
S'id: 7'
p1767
sbag0
(g1
g2
(lp1768
g0
(g1
g2
(lp1769
g0
(g1
g2
(lp1770
VAnd
p1771
atp1772
Rp1773
(dp1774
g12
VCC
p1775
sbag0
(g1
g2
(lp1776
g0
(g1
g2
(lp1777
Vseems
p1778
atp1779
Rp1780
(dp1781
g12
VVBZ
p1782
sbag0
(g1
g2
(lp1783
g0
(g1
g2
(lp1784
Vthat
p1785
atp1786
Rp1787
(dp1788
g12
VIN
p1789
sbag0
(g1
g2
(lp1790
g0
(g1
g2
(lp1791
g0
(g1
g2
(lp1792
g0
(g1
g2
(lp1793
Vthe
p1794
atp1795
Rp1796
(dp1797
g12
VDT
p1798
sbag0
(g1
g2
(lp1799
Vspectadas
p1800
atp1801
Rp1802
(dp1803
g12
VNNS
p1804
sbatp1805
Rp1806
(dp1807
g12
VNP
p1808
sbag0
(g1
g2
(lp1809
V,
p1810
atp1811
Rp1812
(dp1813
g12
V,
p1814
sbag0
(g1
g2
(lp1815
g0
(g1
g2
(lp1816
Vtha
p1817
atp1818
Rp1819
(dp1820
g12
VNN
p1821
sbag0
(g1
g2
(lp1822
Vas
p1823
atp1824
Rp1825
(dp1826
g12
VRB
p1827
sbatp1828
Rp1829
(dp1830
g12
VNP
p1831
sbag0
(g1
g2
(lp1832
V,
p1833
atp1834
Rp1835
(dp1836
g12
V,
p1837
sbatp1838
Rp1839
(dp1840
g12
VNP
p1841
sbag0
(g1
g2
(lp1842
g0
(g1
g2
(lp1843
Vseem
p1844
atp1845
Rp1846
(dp1847
g12
VVBP
p1848
sbag0
(g1
g2
(lp1849
g0
(g1
g2
(lp1850
g0
(g1
g2
(lp1851
Vto
p1852
atp1853
Rp1854
(dp1855
g12
VTO
p1856
sbag0
(g1
g2
(lp1857
g0
(g1
g2
(lp1858
Vbe
p1859
atp1860
Rp1861
(dp1862
g12
VVB
p1863
sbag0
(g1
g2
(lp1864
g0
(g1
g2
(lp1865
Venjoy
p1866
atp1867
Rp1868
(dp1869
g12
VVB
p1870
sbag0
(g1
g2
(lp1871
g0
(g1
g2
(lp1872
Vthe
p1873
atp1874
Rp1875
(dp1876
g12
VDT
p1877
sbag0
(g1
g2
(lp1878
Vtime
p1879
atp1880
Rp1881
(dp1882
g12
VNN
p1883
sbatp1884
Rp1885
(dp1886
g12
VNP
p1887
sbatp1888
Rp1889
(dp1890
g12
VVP
p1891
sbatp1892
Rp1893
(dp1894
g12
VVP
p1895
sbatp1896
Rp1897
(dp1898
g12
VVP
p1899
sbatp1900
Rp1901
(dp1902
g12
VS
p1903
sbatp1904
Rp1905
(dp1906
g12
VVP
p1907
sbatp1908
Rp1909
(dp1910
g12
VS
p1911
sbatp1912
Rp1913
(dp1914
g12
VSBAR
p1915
sbatp1916
Rp1917
(dp1918
g12
VVP
p1919
sbag0
(g1
g2
(lp1920
V.
p1921
atp1922
Rp1923
(dp1924
g12
V.
p1925
sbatp1926
Rp1927
(dp1928
g12
VS
p1929
sbatp1930
Rp1931
(dp1932
g12
S'id: 8'
p1933
sbag0
(g1
g2
(lp1934
g0
(g1
g2
(lp1935
g0
(g1
g2
(lp1936
g0
(g1
g2
(lp1937
VThere
p1938
atp1939
Rp1940
(dp1941
g12
VEX
p1942
sbatp1943
Rp1944
(dp1945
g12
VNP
p1946
sbag0
(g1
g2
(lp1947
g0
(g1
g2
(lp1948
V's
p1949
atp1950
Rp1951
(dp1952
g12
VVBZ
p1953
sbatp1954
Rp1955
(dp1956
g12
VVP
p1957
sbatp1958
Rp1959
(dp1960
g12
VS
p1961
sbatp1962
Rp1963
(dp1964
g12
S'id: 9'
p1965
sbatp1966
Rp1967
(dp1968
g12
S'sentences'
p1969
sb.