ccopy_reg
_reconstructor
p0
(cnltk.tree
Tree
p1
c__builtin__
list
p2
(lp3
g0
(g1
g2
(lp4
g0
(g1
g2
(lp5
g0
(g1
g2
(lp6
VCookie dar .
p7
atp8
Rp9
(dp10
S'_label'
p11
S'start: 1'
p12
sbatp13
Rp14
(dp15
g11
S'sent: 2'
p16
sbag0
(g1
g2
(lp17
g0
(g1
g2
(lp18
VCookie in it .
p19
atp20
Rp21
(dp22
g11
S'start: 1'
p23
sbatp24
Rp25
(dp26
g11
S'sent: 3'
p27
sbag0
(g1
g2
(lp28
g0
(g1
g2
(lp29
Vit
p30
atp31
Rp32
(dp33
g11
S'start: 3'
p34
sbatp35
Rp36
(dp37
g11
S'sent: 3'
p38
sbag0
(g1
g2
(lp39
g0
(g1
g2
(lp40
VIt
p41
atp42
Rp43
(dp44
g11
S'start: 1'
p45
sbatp46
Rp47
(dp48
g11
S'sent: 4'
p49
sbag0
(g1
g2
(lp50
g0
(g1
g2
(lp51
Vit
p52
atp53
Rp54
(dp55
g11
S'start: 5'
p56
sbatp57
Rp58
(dp59
g11
S'sent: 4'
p60
sbag0
(g1
g2
(lp61
g0
(g1
g2
(lp62
Vit
p63
atp64
Rp65
(dp66
g11
S'start: 7'
p67
sbatp68
Rp69
(dp70
g11
S'sent: 4'
p71
sbag0
(g1
g2
(lp72
g0
(g1
g2
(lp73
Vcookie from him
p74
atp75
Rp76
(dp77
g11
S'start: 3'
p78
sbatp79
Rp80
(dp81
g11
S'sent: 5'
p82
sbatp83
Rp84
(dp85
g11
S'id: 2'
p86
sbag0
(g1
g2
(lp87
g0
(g1
g2
(lp88
g0
(g1
g2
(lp89
VFall
p90
atp91
Rp92
(dp93
g11
S'start: 1'
p94
sbatp95
Rp96
(dp97
g11
S'sent: 7'
p98
sbag0
(g1
g2
(lp99
g0
(g1
g2
(lp100
Vfall
p101
atp102
Rp103
(dp104
g11
S'start: 3'
p105
sbatp106
Rp107
(dp108
g11
S'sent: 7'
p109
sbatp110
Rp111
(dp112
g11
S'id: 13'
p113
sbag0
(g1
g2
(lp114
g0
(g1
g2
(lp115
g0
(g1
g2
(lp116
Vtwo over here
p117
atp118
Rp119
(dp120
g11
S'start: 2'
p121
sbatp122
Rp123
(dp124
g11
S'sent: 9'
p125
sbag0
(g1
g2
(lp126
g0
(g1
g2
(lp127
VIt
p128
atp129
Rp130
(dp131
g11
S'start: 1'
p132
sbatp133
Rp134
(dp135
g11
S'sent: 10'
p136
sbatp137
Rp138
(dp139
g11
S'id: 15'
p140
sbatp141
Rp142
(dp143
g11
S'coreferences'
p144
sb.