ccopy_reg
_reconstructor
p0
(cnltk.tree
Tree
p1
c__builtin__
list
p2
(lp3
g0
(g1
g2
(lp4
g0
(g1
g2
(lp5
g0
(g1
g2
(lp6
g0
(g1
g2
(lp7
Vwe
p8
atp9
Rp10
(dp11
S'_label'
p12
VPRP
p13
sbatp14
Rp15
(dp16
g12
VNP
p17
sbag0
(g1
g2
(lp18
g0
(g1
g2
(lp19
V're
p20
atp21
Rp22
(dp23
g12
VVBP
p24
sbag0
(g1
g2
(lp25
g0
(g1
g2
(lp26
Vback
p27
atp28
Rp29
(dp30
g12
VRB
p31
sbatp32
Rp33
(dp34
g12
VADVP
p35
sbag0
(g1
g2
(lp36
g0
(g1
g2
(lp37
Vat
p38
atp39
Rp40
(dp41
g12
VIN
p42
sbag0
(g1
g2
(lp43
g0
(g1
g2
(lp44
g0
(g1
g2
(lp45
Vthe
p46
atp47
Rp48
(dp49
g12
VDT
p50
sbag0
(g1
g2
(lp51
Vbeach
p52
atp53
Rp54
(dp55
g12
VNN
p56
sbatp57
Rp58
(dp59
g12
VNP
p60
sbag0
(g1
g2
(lp61
V,
p62
atp63
Rp64
(dp65
g12
V,
p66
sbag0
(g1
g2
(lp67
Vand
p68
atp69
Rp70
(dp71
g12
VCC
p72
sbag0
(g1
g2
(lp73
g0
(g1
g2
(lp74
Vthe
p75
atp76
Rp77
(dp78
g12
VDT
p79
sbag0
(g1
g2
(lp80
Vlake
p81
atp82
Rp83
(dp84
g12
VNN
p85
sbatp86
Rp87
(dp88
g12
VNP
p89
sbatp90
Rp91
(dp92
g12
VNP
p93
sbatp94
Rp95
(dp96
g12
VPP
p97
sbag0
(g1
g2
(lp98
g0
(g1
g2
(lp99
g0
(g1
g2
(lp100
Vwhere
p101
atp102
Rp103
(dp104
g12
VWRB
p105
sbatp106
Rp107
(dp108
g12
VWHADVP
p109
sbag0
(g1
g2
(lp110
g0
(g1
g2
(lp111
g0
(g1
g2
(lp112
Vwe
p113
atp114
Rp115
(dp116
g12
VPRP
p117
sbatp118
Rp119
(dp120
g12
VNP
p121
sbag0
(g1
g2
(lp122
g0
(g1
g2
(lp123
Vwere
p124
atp125
Rp126
(dp127
g12
VVBD
p128
sbag0
(g1
g2
(lp129
g0
(g1
g2
(lp130
Vyesterday
p131
atp132
Rp133
(dp134
g12
VNN
p135
sbatp136
Rp137
(dp138
g12
VNP-TMP
p139
sbatp140
Rp141
(dp142
g12
VVP
p143
sbatp144
Rp145
(dp146
g12
VS
p147
sbatp148
Rp149
(dp150
g12
VSBAR
p151
sbag0
(g1
g2
(lp152
V,
p153
atp154
Rp155
(dp156
g12
V,
p157
sbag0
(g1
g2
(lp158
g0
(g1
g2
(lp159
Vwith
p160
atp161
Rp162
(dp163
g12
VIN
p164
sbag0
(g1
g2
(lp165
g0
(g1
g2
(lp166
g0
(g1
g2
(lp167
Vmom
p168
atp169
Rp170
(dp171
g12
VNN
p172
sbag0
(g1
g2
(lp173
Vand
p174
atp175
Rp176
(dp177
g12
VCC
p178
sbag0
(g1
g2
(lp179
Vdad
p180
atp181
Rp182
(dp183
g12
VNN
p184
sbatp185
Rp186
(dp187
g12
VNP
p188
sbag0
(g1
g2
(lp189
V,
p190
atp191
Rp192
(dp193
g12
V,
p194
sbag0
(g1
g2
(lp195
Vand
p196
atp197
Rp198
(dp199
g12
VCC
p200
sbag0
(g1
g2
(lp201
g0
(g1
g2
(lp202
Vtwo
p203
atp204
Rp205
(dp206
g12
VCD
p207
sbag0
(g1
g2
(lp208
Vboy
p209
atp210
Rp211
(dp212
g12
VNN
p213
sbatp214
Rp215
(dp216
g12
VNP
p217
sbag0
(g1
g2
(lp218
V,
p219
atp220
Rp221
(dp222
g12
V,
p223
sbag0
(g1
g2
(lp224
g0
(g1
g2
(lp225
Vtheir
p226
atp227
Rp228
(dp229
g12
VPRP$
p230
sbag0
(g1
g2
(lp231
Vson
p232
atp233
Rp234
(dp235
g12
VNN
p236
sbag0
(g1
g2
(lp237
Vand
p238
atp239
Rp240
(dp241
g12
VCC
p242
sbag0
(g1
g2
(lp243
Vdaughter
p244
atp245
Rp246
(dp247
g12
VNN
p248
sbatp249
Rp250
(dp251
g12
VNP
p252
sbag0
(g1
g2
(lp253
V,
p254
atp255
Rp256
(dp257
g12
V,
p258
sbag0
(g1
g2
(lp259
Vand
p260
atp261
Rp262
(dp263
g12
VCC
p264
sbag0
(g1
g2
(lp265
g0
(g1
g2
(lp266
g0
(g1
g2
(lp267
Vdog
p268
atp269
Rp270
(dp271
g12
VNN
p272
sbatp273
Rp274
(dp275
g12
VNP
p276
sbag0
(g1
g2
(lp277
g0
(g1
g2
(lp278
Von
p279
atp280
Rp281
(dp282
g12
VIN
p283
sbag0
(g1
g2
(lp284
g0
(g1
g2
(lp285
Va
p286
atp287
Rp288
(dp289
g12
VDT
p290
sbag0
(g1
g2
(lp291
Vpicnic
p292
atp293
Rp294
(dp295
g12
VNN
p296
sbatp297
Rp298
(dp299
g12
VNP
p300
sbatp301
Rp302
(dp303
g12
VPP
p304
sbatp305
Rp306
(dp307
g12
VNP
p308
sbatp309
Rp310
(dp311
g12
VNP
p312
sbatp313
Rp314
(dp315
g12
VPP
p316
sbatp317
Rp318
(dp319
g12
VVP
p320
sbag0
(g1
g2
(lp321
V.
p322
atp323
Rp324
(dp325
g12
V.
p326
sbatp327
Rp328
(dp329
g12
VS
p330
sbatp331
Rp332
(dp333
g12
S'id: 0'
p334
sbag0
(g1
g2
(lp335
g0
(g1
g2
(lp336
g0
(g1
g2
(lp337
g0
(g1
g2
(lp338
VMom
p339
atp340
Rp341
(dp342
g12
VNN
p343
sbag0
(g1
g2
(lp344
Vand
p345
atp346
Rp347
(dp348
g12
VCC
p349
sbag0
(g1
g2
(lp350
Vdad
p351
atp352
Rp353
(dp354
g12
VNN
p355
sbatp356
Rp357
(dp358
g12
VNP
p359
sbag0
(g1
g2
(lp360
g0
(g1
g2
(lp361
Vare
p362
atp363
Rp364
(dp365
g12
VVBP
p366
sbag0
(g1
g2
(lp367
g0
(g1
g2
(lp368
Vsitting
p369
atp370
Rp371
(dp372
g12
VVBG
p373
sbag0
(g1
g2
(lp374
g0
(g1
g2
(lp375
Von
p376
atp377
Rp378
(dp379
g12
VIN
p380
sbag0
(g1
g2
(lp381
g0
(g1
g2
(lp382
Vthe
p383
atp384
Rp385
(dp386
g12
VDT
p387
sbag0
(g1
g2
(lp388
Vbeach
p389
atp390
Rp391
(dp392
g12
VNN
p393
sbag0
(g1
g2
(lp394
Vblanket
p395
atp396
Rp397
(dp398
g12
VNN
p399
sbatp400
Rp401
(dp402
g12
VNP
p403
sbatp404
Rp405
(dp406
g12
VPP
p407
sbag0
(g1
g2
(lp408
V,
p409
atp410
Rp411
(dp412
g12
V,
p413
sbag0
(g1
g2
(lp414
g0
(g1
g2
(lp415
Vup
p416
atp417
Rp418
(dp419
g12
VRB
p420
sbag0
(g1
g2
(lp421
g0
(g1
g2
(lp422
Von
p423
atp424
Rp425
(dp426
g12
VIN
p427
sbag0
(g1
g2
(lp428
g0
(g1
g2
(lp429
Vthe
p430
atp431
Rp432
(dp433
g12
VDT
p434
sbag0
(g1
g2
(lp435
Vgrass
p436
atp437
Rp438
(dp439
g12
VNN
p440
sbatp441
Rp442
(dp443
g12
VNP
p444
sbatp445
Rp446
(dp447
g12
VPP
p448
sbatp449
Rp450
(dp451
g12
VADVP
p452
sbatp453
Rp454
(dp455
g12
VVP
p456
sbatp457
Rp458
(dp459
g12
VVP
p460
sbag0
(g1
g2
(lp461
V.
p462
atp463
Rp464
(dp465
g12
V.
p466
sbatp467
Rp468
(dp469
g12
VS
p470
sbatp471
Rp472
(dp473
g12
S'id: 1'
p474
sbag0
(g1
g2
(lp475
g0
(g1
g2
(lp476
g0
(g1
g2
(lp477
g0
(g1
g2
(lp478
g0
(g1
g2
(lp479
VDad
p480
atp481
Rp482
(dp483
g12
VNNP
p484
sbag0
(g1
g2
(lp485
V's
p486
atp487
Rp488
(dp489
g12
VPOS
p490
sbatp491
Rp492
(dp493
g12
VNP
p494
sbag0
(g1
g2
(lp495
Vcloght
p496
atp497
Rp498
(dp499
g12
VNN
p500
sbatp501
Rp502
(dp503
g12
VNP
p504
sbag0
(g1
g2
(lp505
g0
(g1
g2
(lp506
g0
(g1
g2
(lp507
g0
(g1
g2
(lp508
g0
(g1
g2
(lp509
Vhis
p510
atp511
Rp512
(dp513
g12
VPRP$
p514
sbag0
(g1
g2
(lp515
Vlegs
p516
atp517
Rp518
(dp519
g12
VNNS
p520
sbatp521
Rp522
(dp523
g12
VNP
p524
sbag0
(g1
g2
(lp525
g0
(g1
g2
(lp526
Vcrossed
p527
atp528
Rp529
(dp530
g12
VVBD
p531
sbatp532
Rp533
(dp534
g12
VVP
p535
sbatp536
Rp537
(dp538
g12
VS
p539
sbag0
(g1
g2
(lp540
V,
p541
atp542
Rp543
(dp544
g12
V,
p545
sbag0
(g1
g2
(lp546
Vand
p547
atp548
Rp549
(dp550
g12
VCC
p551
sbag0
(g1
g2
(lp552
g0
(g1
g2
(lp553
g0
(g1
g2
(lp554
g0
(g1
g2
(lp555
Vhe
p556
atp557
Rp558
(dp559
g12
VPRP
p560
sbatp561
Rp562
(dp563
g12
VNP
p564
sbag0
(g1
g2
(lp565
g0
(g1
g2
(lp566
V's
p567
atp568
Rp569
(dp570
g12
VVBZ
p571
sbag0
(g1
g2
(lp572
g0
(g1
g2
(lp573
Vreading
p574
atp575
Rp576
(dp577
g12
VVBG
p578
sbag0
(g1
g2
(lp579
g0
(g1
g2
(lp580
Va
p581
atp582
Rp583
(dp584
g12
VDT
p585
sbag0
(g1
g2
(lp586
Vbook
p587
atp588
Rp589
(dp590
g12
VNN
p591
sbatp592
Rp593
(dp594
g12
VNP
p595
sbag0
(g1
g2
(lp596
V,
p597
atp598
Rp599
(dp600
g12
V,
p601
sbag0
(g1
g2
(lp602
g0
(g1
g2
(lp603
Vwith
p604
atp605
Rp606
(dp607
g12
VIN
p608
sbag0
(g1
g2
(lp609
g0
(g1
g2
(lp610
Vit
p611
atp612
Rp613
(dp614
g12
VPRP
p615
sbatp616
Rp617
(dp618
g12
VNP
p619
sbatp620
Rp621
(dp622
g12
VPP
p623
sbatp624
Rp625
(dp626
g12
VVP
p627
sbatp628
Rp629
(dp630
g12
VVP
p631
sbatp632
Rp633
(dp634
g12
VS
p635
sbag0
(g1
g2
(lp636
V,
p637
atp638
Rp639
(dp640
g12
V,
p641
sbag0
(g1
g2
(lp642
g0
(g1
g2
(lp643
Vhopefully
p644
atp645
Rp646
(dp647
g12
VRB
p648
sbatp649
Rp650
(dp651
g12
VADVP
p652
sbag0
(g1
g2
(lp653
g0
(g1
g2
(lp654
g0
(g1
g2
(lp655
Vhe
p656
atp657
Rp658
(dp659
g12
VPRP
p660
sbatp661
Rp662
(dp663
g12
VNP
p664
sbag0
(g1
g2
(lp665
g0
(g1
g2
(lp666
Vcan
p667
atp668
Rp669
(dp670
g12
VMD
p671
sbag0
(g1
g2
(lp672
g0
(g1
g2
(lp673
Vsee
p674
atp675
Rp676
(dp677
g12
VVB
p678
sbag0
(g1
g2
(lp679
g0
(g1
g2
(lp680
Vbetter
p681
atp682
Rp683
(dp684
g12
VJJR
p685
sbag0
(g1
g2
(lp686
Vcause
p687
atp688
Rp689
(dp690
g12
VNN
p691
sbatp692
Rp693
(dp694
g12
VNP
p695
sbatp696
Rp697
(dp698
g12
VVP
p699
sbatp700
Rp701
(dp702
g12
VVP
p703
sbatp704
Rp705
(dp706
g12
VS
p707
sbatp708
Rp709
(dp710
g12
VS
p711
sbatp712
Rp713
(dp714
g12
VS
p715
sbatp716
Rp717
(dp718
g12
VPRN
p719
sbag0
(g1
g2
(lp720
g0
(g1
g2
(lp721
Vhe
p722
atp723
Rp724
(dp725
g12
VPRP
p726
sbatp727
Rp728
(dp729
g12
VNP
p730
sbag0
(g1
g2
(lp731
g0
(g1
g2
(lp732
V's
p733
atp734
Rp735
(dp736
g12
VVBZ
p737
sbag0
(g1
g2
(lp738
g0
(g1
g2
(lp739
Vgot
p740
atp741
Rp742
(dp743
g12
VVBD
p744
sbag0
(g1
g2
(lp745
g0
(g1
g2
(lp746
Vhis
p747
atp748
Rp749
(dp750
g12
VPRP$
p751
sbag0
(g1
g2
(lp752
Veye
p753
atp754
Rp755
(dp756
g12
VNN
p757
sbag0
(g1
g2
(lp758
Vglasses
p759
atp760
Rp761
(dp762
g12
VNNS
p763
sbatp764
Rp765
(dp766
g12
VNP
p767
sbag0
(g1
g2
(lp768
g0
(g1
g2
(lp769
Von
p770
atp771
Rp772
(dp773
g12
VIN
p774
sbatp775
Rp776
(dp777
g12
VPP
p778
sbatp779
Rp780
(dp781
g12
VVP
p782
sbatp783
Rp784
(dp785
g12
VVP
p786
sbag0
(g1
g2
(lp787
V.
p788
atp789
Rp790
(dp791
g12
V.
p792
sbatp793
Rp794
(dp795
g12
VS
p796
sbatp797
Rp798
(dp799
g12
S'id: 2'
p800
sbag0
(g1
g2
(lp801
g0
(g1
g2
(lp802
g0
(g1
g2
(lp803
g0
(g1
g2
(lp804
VHis
p805
atp806
Rp807
(dp808
g12
VPRP$
p809
sbag0
(g1
g2
(lp810
Vsandals
p811
atp812
Rp813
(dp814
g12
VNNS
p815
sbatp816
Rp817
(dp818
g12
VNP
p819
sbag0
(g1
g2
(lp820
g0
(g1
g2
(lp821
Vare
p822
atp823
Rp824
(dp825
g12
VVBP
p826
sbag0
(g1
g2
(lp827
g0
(g1
g2
(lp828
Vlaying
p829
atp830
Rp831
(dp832
g12
VVBG
p833
sbag0
(g1
g2
(lp834
g0
(g1
g2
(lp835
Von
p836
atp837
Rp838
(dp839
g12
VIN
p840
sbag0
(g1
g2
(lp841
g0
(g1
g2
(lp842
Vto
p843
atp844
Rp845
(dp846
g12
VTO
p847
sbag0
(g1
g2
(lp848
g0
(g1
g2
(lp849
Vhis
p850
atp851
Rp852
(dp853
g12
VPRP$
p854
sbag0
(g1
g2
(lp855
Vright
p856
atp857
Rp858
(dp859
g12
VJJ
p860
sbag0
(g1
g2
(lp861
Vside
p862
atp863
Rp864
(dp865
g12
VNN
p866
sbatp867
Rp868
(dp869
g12
VNP
p870
sbatp871
Rp872
(dp873
g12
VPP
p874
sbatp875
Rp876
(dp877
g12
VPP
p878
sbag0
(g1
g2
(lp879
V,
p880
atp881
Rp882
(dp883
g12
V,
p884
sbag0
(g1
g2
(lp885
g0
(g1
g2
(lp886
Von
p887
atp888
Rp889
(dp890
g12
VIN
p891
sbag0
(g1
g2
(lp892
g0
(g1
g2
(lp893
Vthe
p894
atp895
Rp896
(dp897
g12
VDT
p898
sbag0
(g1
g2
(lp899
Vblanket
p900
atp901
Rp902
(dp903
g12
VNN
p904
sbatp905
Rp906
(dp907
g12
VNP
p908
sbatp909
Rp910
(dp911
g12
VPP
p912
sbatp913
Rp914
(dp915
g12
VVP
p916
sbatp917
Rp918
(dp919
g12
VVP
p920
sbag0
(g1
g2
(lp921
V.
p922
atp923
Rp924
(dp925
g12
V.
p926
sbatp927
Rp928
(dp929
g12
VS
p930
sbatp931
Rp932
(dp933
g12
S'id: 3'
p934
sbag0
(g1
g2
(lp935
g0
(g1
g2
(lp936
g0
(g1
g2
(lp937
g0
(g1
g2
(lp938
g0
(g1
g2
(lp939
VIn
p940
atp941
Rp942
(dp943
g12
VIN
p944
sbag0
(g1
g2
(lp945
g0
(g1
g2
(lp946
g0
(g1
g2
(lp947
Vfront
p948
atp949
Rp950
(dp951
g12
VNN
p952
sbatp953
Rp954
(dp955
g12
VNP
p956
sbag0
(g1
g2
(lp957
g0
(g1
g2
(lp958
Vof
p959
atp960
Rp961
(dp962
g12
VIN
p963
sbag0
(g1
g2
(lp964
g0
(g1
g2
(lp965
Vthat
p966
atp967
Rp968
(dp969
g12
VDT
p970
sbatp971
Rp972
(dp973
g12
VNP
p974
sbatp975
Rp976
(dp977
g12
VPP
p978
sbatp979
Rp980
(dp981
g12
VNP
p982
sbatp983
Rp984
(dp985
g12
VPP
p986
sbag0
(g1
g2
(lp987
V,
p988
atp989
Rp990
(dp991
g12
V,
p992
sbag0
(g1
g2
(lp993
g0
(g1
g2
(lp994
g0
(g1
g2
(lp995
Vis
p996
atp997
Rp998
(dp999
g12
VVBZ
p1000
sbag0
(g1
g2
(lp1001
g0
(g1
g2
(lp1002
Vin
p1003
atp1004
Rp1005
(dp1006
g12
VIN
p1007
sbag0
(g1
g2
(lp1008
g0
(g1
g2
(lp1009
g0
(g1
g2
(lp1010
Vfront
p1011
atp1012
Rp1013
(dp1014
g12
VNN
p1015
sbatp1016
Rp1017
(dp1018
g12
VNP
p1019
sbag0
(g1
g2
(lp1020
g0
(g1
g2
(lp1021
Vof
p1022
atp1023
Rp1024
(dp1025
g12
VIN
p1026
sbag0
(g1
g2
(lp1027
g0
(g1
g2
(lp1028
Vhim
p1029
atp1030
Rp1031
(dp1032
g12
VPRP
p1033
sbatp1034
Rp1035
(dp1036
g12
VNP
p1037
sbatp1038
Rp1039
(dp1040
g12
VPP
p1041
sbatp1042
Rp1043
(dp1044
g12
VNP
p1045
sbatp1046
Rp1047
(dp1048
g12
VPP
p1049
sbatp1050
Rp1051
(dp1052
g12
VVP
p1053
sbatp1054
Rp1055
(dp1056
g12
VS
p1057
sbag0
(g1
g2
(lp1058
V,
p1059
atp1060
Rp1061
(dp1062
g12
V,
p1063
sbag0
(g1
g2
(lp1064
g0
(g1
g2
(lp1065
Vis
p1066
atp1067
Rp1068
(dp1069
g12
VVBZ
p1070
sbag0
(g1
g2
(lp1071
g0
(g1
g2
(lp1072
Vmom
p1073
atp1074
Rp1075
(dp1076
g12
VNN
p1077
sbatp1078
Rp1079
(dp1080
g12
VNP
p1081
sbag0
(g1
g2
(lp1082
V,
p1083
atp1084
Rp1085
(dp1086
g12
V,
p1087
sbag0
(g1
g2
(lp1088
g0
(g1
g2
(lp1089
g0
(g1
g2
(lp1090
Vkneeling
p1091
atp1092
Rp1093
(dp1094
g12
VVBG
p1095
sbatp1096
Rp1097
(dp1098
g12
VVP
p1099
sbatp1100
Rp1101
(dp1102
g12
VS
p1103
sbatp1104
Rp1105
(dp1106
g12
VVP
p1107
sbatp1108
Rp1109
(dp1110
g12
VS
p1111
sbag0
(g1
g2
(lp1112
V,
p1113
atp1114
Rp1115
(dp1116
g12
V,
p1117
sbag0
(g1
g2
(lp1118
Vand
p1119
atp1120
Rp1121
(dp1122
g12
VCC
p1123
sbag0
(g1
g2
(lp1124
g0
(g1
g2
(lp1125
g0
(g1
g2
(lp1126
g0
(g1
g2
(lp1127
Vshe
p1128
atp1129
Rp1130
(dp1131
g12
VPRP
p1132
sbatp1133
Rp1134
(dp1135
g12
VNP
p1136
sbag0
(g1
g2
(lp1137
g0
(g1
g2
(lp1138
V's
p1139
atp1140
Rp1141
(dp1142
g12
VVBZ
p1143
sbag0
(g1
g2
(lp1144
g0
(g1
g2
(lp1145
Vpouring
p1146
atp1147
Rp1148
(dp1149
g12
VVBG
p1150
sbag0
(g1
g2
(lp1151
g0
(g1
g2
(lp1152
g0
(g1
g2
(lp1153
Va
p1154
atp1155
Rp1156
(dp1157
g12
VDT
p1158
sbag0
(g1
g2
(lp1159
Vglass
p1160
atp1161
Rp1162
(dp1163
g12
VNN
p1164
sbatp1165
Rp1166
(dp1167
g12
VNP
p1168
sbag0
(g1
g2
(lp1169
g0
(g1
g2
(lp1170
Vof
p1171
atp1172
Rp1173
(dp1174
g12
VIN
p1175
sbag0
(g1
g2
(lp1176
g0
(g1
g2
(lp1177
Vsoda
p1178
atp1179
Rp1180
(dp1181
g12
VNN
p1182
sbatp1183
Rp1184
(dp1185
g12
VNP
p1186
sbatp1187
Rp1188
(dp1189
g12
VPP
p1190
sbatp1191
Rp1192
(dp1193
g12
VNP
p1194
sbag0
(g1
g2
(lp1195
g0
(g1
g2
(lp1196
Vover
p1197
atp1198
Rp1199
(dp1200
g12
VIN
p1201
sbag0
(g1
g2
(lp1202
g0
(g1
g2
(lp1203
g0
(g1
g2
(lp1204
Vthe
p1205
atp1206
Rp1207
(dp1208
g12
VDT
p1209
sbag0
(g1
g2
(lp1210
Vpicnic
p1211
atp1212
Rp1213
(dp1214
g12
VNN
p1215
sbag0
(g1
g2
(lp1216
Vbasket
p1217
atp1218
Rp1219
(dp1220
g12
VNN
p1221
sbatp1222
Rp1223
(dp1224
g12
VNP
p1225
sbag0
(g1
g2
(lp1226
g0
(g1
g2
(lp1227
Vbetween
p1228
atp1229
Rp1230
(dp1231
g12
VIN
p1232
sbag0
(g1
g2
(lp1233
g0
(g1
g2
(lp1234
Vthem
p1235
atp1236
Rp1237
(dp1238
g12
VPRP
p1239
sbatp1240
Rp1241
(dp1242
g12
VNP
p1243
sbatp1244
Rp1245
(dp1246
g12
VPP
p1247
sbatp1248
Rp1249
(dp1250
g12
VNP
p1251
sbatp1252
Rp1253
(dp1254
g12
VPP
p1255
sbatp1256
Rp1257
(dp1258
g12
VVP
p1259
sbatp1260
Rp1261
(dp1262
g12
VVP
p1263
sbatp1264
Rp1265
(dp1266
g12
VS
p1267
sbag0
(g1
g2
(lp1268
V,
p1269
atp1270
Rp1271
(dp1272
g12
V,
p1273
sbag0
(g1
g2
(lp1274
Vand
p1275
atp1276
Rp1277
(dp1278
g12
VCC
p1279
sbag0
(g1
g2
(lp1280
g0
(g1
g2
(lp1281
g0
(g1
g2
(lp1282
Vshe
p1283
atp1284
Rp1285
(dp1286
g12
VPRP
p1287
sbatp1288
Rp1289
(dp1290
g12
VNP
p1291
sbag0
(g1
g2
(lp1292
g0
(g1
g2
(lp1293
V's
p1294
atp1295
Rp1296
(dp1297
g12
VVBZ
p1298
sbag0
(g1
g2
(lp1299
g0
(g1
g2
(lp1300
Vlistening
p1301
atp1302
Rp1303
(dp1304
g12
VVBG
p1305
sbag0
(g1
g2
(lp1306
g0
(g1
g2
(lp1307
Vto
p1308
atp1309
Rp1310
(dp1311
g12
VTO
p1312
sbag0
(g1
g2
(lp1313
g0
(g1
g2
(lp1314
Va
p1315
atp1316
Rp1317
(dp1318
g12
VDT
p1319
sbag0
(g1
g2
(lp1320
Vradio
p1321
atp1322
Rp1323
(dp1324
g12
VNN
p1325
sbatp1326
Rp1327
(dp1328
g12
VNP
p1329
sbatp1330
Rp1331
(dp1332
g12
VPP
p1333
sbatp1334
Rp1335
(dp1336
g12
VVP
p1337
sbatp1338
Rp1339
(dp1340
g12
VVP
p1341
sbatp1342
Rp1343
(dp1344
g12
VS
p1345
sbatp1346
Rp1347
(dp1348
g12
VS
p1349
sbag0
(g1
g2
(lp1350
V.
p1351
atp1352
Rp1353
(dp1354
g12
V.
p1355
sbatp1356
Rp1357
(dp1358
g12
VS
p1359
sbatp1360
Rp1361
(dp1362
g12
S'id: 4'
p1363
sbag0
(g1
g2
(lp1364
g0
(g1
g2
(lp1365
g0
(g1
g2
(lp1366
g0
(g1
g2
(lp1367
VLet
p1368
atp1369
Rp1370
(dp1371
g12
VVB
p1372
sbag0
(g1
g2
(lp1373
g0
(g1
g2
(lp1374
g0
(g1
g2
(lp1375
V's
p1376
atp1377
Rp1378
(dp1379
g12
VPRP
p1380
sbatp1381
Rp1382
(dp1383
g12
VNP
p1384
sbag0
(g1
g2
(lp1385
g0
(g1
g2
(lp1386
Vsee
p1387
atp1388
Rp1389
(dp1390
g12
VVB
p1391
sbatp1392
Rp1393
(dp1394
g12
VVP
p1395
sbatp1396
Rp1397
(dp1398
g12
VS
p1399
sbatp1400
Rp1401
(dp1402
g12
VVP
p1403
sbag0
(g1
g2
(lp1404
V.
p1405
atp1406
Rp1407
(dp1408
g12
V.
p1409
sbatp1410
Rp1411
(dp1412
g12
VS
p1413
sbatp1414
Rp1415
(dp1416
g12
S'id: 5'
p1417
sbag0
(g1
g2
(lp1418
g0
(g1
g2
(lp1419
g0
(g1
g2
(lp1420
g0
(g1
g2
(lp1421
g0
(g1
g2
(lp1422
VBehind
p1423
atp1424
Rp1425
(dp1426
g12
VIN
p1427
sbag0
(g1
g2
(lp1428
g0
(g1
g2
(lp1429
Vmom
p1430
atp1431
Rp1432
(dp1433
g12
VNN
p1434
sbatp1435
Rp1436
(dp1437
g12
VNP
p1438
sbatp1439
Rp1440
(dp1441
g12
VPP
p1442
sbag0
(g1
g2
(lp1443
V,
p1444
atp1445
Rp1446
(dp1447
g12
V,
p1448
sbag0
(g1
g2
(lp1449
g0
(g1
g2
(lp1450
Vis
p1451
atp1452
Rp1453
(dp1454
g12
VVBZ
p1455
sbag0
(g1
g2
(lp1456
g0
(g1
g2
(lp1457
g0
(g1
g2
(lp1458
Vthe
p1459
atp1460
Rp1461
(dp1462
g12
VDT
p1463
sbatp1464
Rp1465
(dp1466
g12
VNP
p1467
sbag0
(g1
g2
(lp1468
V,
p1469
atp1470
Rp1471
(dp1472
g12
V,
p1473
sbag0
(g1
g2
(lp1474
g0
(g1
g2
(lp1475
Vtheir
p1476
atp1477
Rp1478
(dp1479
g12
VPRP$
p1480
sbag0
(g1
g2
(lp1481
Vson
p1482
atp1483
Rp1484
(dp1485
g12
VNN
p1486
sbatp1487
Rp1488
(dp1489
g12
VNP
p1490
sbag0
(g1
g2
(lp1491
V,
p1492
atp1493
Rp1494
(dp1495
g12
V,
p1496
sbag0
(g1
g2
(lp1497
g0
(g1
g2
(lp1498
g0
(g1
g2
(lp1499
Vwho
p1500
atp1501
Rp1502
(dp1503
g12
VWP
p1504
sbatp1505
Rp1506
(dp1507
g12
VWHNP
p1508
sbag0
(g1
g2
(lp1509
g0
(g1
g2
(lp1510
g0
(g1
g2
(lp1511
V's
p1512
atp1513
Rp1514
(dp1515
g12
VVBZ
p1516
sbag0
(g1
g2
(lp1517
g0
(g1
g2
(lp1518
Vflying
p1519
atp1520
Rp1521
(dp1522
g12
VVBG
p1523
sbag0
(g1
g2
(lp1524
g0
(g1
g2
(lp1525
Va
p1526
atp1527
Rp1528
(dp1529
g12
VDT
p1530
sbag0
(g1
g2
(lp1531
Vkite
p1532
atp1533
Rp1534
(dp1535
g12
VNN
p1536
sbatp1537
Rp1538
(dp1539
g12
VNP
p1540
sbatp1541
Rp1542
(dp1543
g12
VVP
p1544
sbatp1545
Rp1546
(dp1547
g12
VVP
p1548
sbatp1549
Rp1550
(dp1551
g12
VS
p1552
sbatp1553
Rp1554
(dp1555
g12
VSBAR
p1556
sbatp1557
Rp1558
(dp1559
g12
VNP
p1560
sbatp1561
Rp1562
(dp1563
g12
VVP
p1564
sbatp1565
Rp1566
(dp1567
g12
VS
p1568
sbag0
(g1
g2
(lp1569
V,
p1570
atp1571
Rp1572
(dp1573
g12
V,
p1574
sbag0
(g1
g2
(lp1575
Vand
p1576
atp1577
Rp1578
(dp1579
g12
VCC
p1580
sbag0
(g1
g2
(lp1581
g0
(g1
g2
(lp1582
g0
(g1
g2
(lp1583
Vhe
p1584
atp1585
Rp1586
(dp1587
g12
VPRP
p1588
sbatp1589
Rp1590
(dp1591
g12
VNP
p1592
sbag0
(g1
g2
(lp1593
g0
(g1
g2
(lp1594
V's
p1595
atp1596
Rp1597
(dp1598
g12
VVBZ
p1599
sbag0
(g1
g2
(lp1600
g0
(g1
g2
(lp1601
Vrunning
p1602
atp1603
Rp1604
(dp1605
g12
VVBG
p1606
sbag0
(g1
g2
(lp1607
g0
(g1
g2
(lp1608
Valong
p1609
atp1610
Rp1611
(dp1612
g12
VRB
p1613
sbatp1614
Rp1615
(dp1616
g12
VADVP
p1617
sbag0
(g1
g2
(lp1618
V,
p1619
atp1620
Rp1621
(dp1622
g12
V,
p1623
sbag0
(g1
g2
(lp1624
g0
(g1
g2
(lp1625
Vwith
p1626
atp1627
Rp1628
(dp1629
g12
VIN
p1630
sbag0
(g1
g2
(lp1631
g0
(g1
g2
(lp1632
g0
(g1
g2
(lp1633
Vthe
p1634
atp1635
Rp1636
(dp1637
g12
VDT
p1638
sbag0
(g1
g2
(lp1639
Vdog
p1640
atp1641
Rp1642
(dp1643
g12
VNN
p1644
sbatp1645
Rp1646
(dp1647
g12
VNP
p1648
sbag0
(g1
g2
(lp1649
g0
(g1
g2
(lp1650
Vchasing
p1651
atp1652
Rp1653
(dp1654
g12
VVBG
p1655
sbag0
(g1
g2
(lp1656
g0
(g1
g2
(lp1657
Vhim
p1658
atp1659
Rp1660
(dp1661
g12
VPRP
p1662
sbatp1663
Rp1664
(dp1665
g12
VNP
p1666
sbatp1667
Rp1668
(dp1669
g12
VVP
p1670
sbatp1671
Rp1672
(dp1673
g12
VNP
p1674
sbatp1675
Rp1676
(dp1677
g12
VPP
p1678
sbatp1679
Rp1680
(dp1681
g12
VVP
p1682
sbatp1683
Rp1684
(dp1685
g12
VVP
p1686
sbatp1687
Rp1688
(dp1689
g12
VS
p1690
sbag0
(g1
g2
(lp1691
V.
p1692
atp1693
Rp1694
(dp1695
g12
V.
p1696
sbatp1697
Rp1698
(dp1699
g12
VS
p1700
sbatp1701
Rp1702
(dp1703
g12
S'id: 6'
p1704
sbag0
(g1
g2
(lp1705
g0
(g1
g2
(lp1706
g0
(g1
g2
(lp1707
VAnd
p1708
atp1709
Rp1710
(dp1711
g12
VCC
p1712
sbag0
(g1
g2
(lp1713
g0
(g1
g2
(lp1714
Vthan
p1715
atp1716
Rp1717
(dp1718
g12
VIN
p1719
sbag0
(g1
g2
(lp1720
g0
(g1
g2
(lp1721
Va
p1722
atp1723
Rp1724
(dp1725
g12
VDT
p1726
sbag0
(g1
g2
(lp1727
Vlittle
p1728
atp1729
Rp1730
(dp1731
g12
VJJ
p1732
sbag0
(g1
g2
(lp1733
Vbit
p1734
atp1735
Rp1736
(dp1737
g12
VNN
p1738
sbatp1739
Rp1740
(dp1741
g12
VNP
p1742
sbatp1743
Rp1744
(dp1745
g12
VPP
p1746
sbag0
(g1
g2
(lp1747
g0
(g1
g2
(lp1748
Vfurther
p1749
atp1750
Rp1751
(dp1752
g12
VRBR
p1753
sbag0
(g1
g2
(lp1754
Vdown
p1755
atp1756
Rp1757
(dp1758
g12
VRB
p1759
sbatp1760
Rp1761
(dp1762
g12
VADVP
p1763
sbag0
(g1
g2
(lp1764
V,
p1765
atp1766
Rp1767
(dp1768
g12
V,
p1769
sbag0
(g1
g2
(lp1770
g0
(g1
g2
(lp1771
g0
(g1
g2
(lp1772
Vthe
p1773
atp1774
Rp1775
(dp1776
g12
VDT
p1777
sbag0
(g1
g2
(lp1778
Va
p1779
atp1780
Rp1781
(dp1782
g12
VDT
p1783
sbatp1784
Rp1785
(dp1786
g12
VNP
p1787
sbag0
(g1
g2
(lp1788
V,
p1789
atp1790
Rp1791
(dp1792
g12
V,
p1793
sbag0
(g1
g2
(lp1794
g0
(g1
g2
(lp1795
Vbehind
p1796
atp1797
Rp1798
(dp1799
g12
VIN
p1800
sbag0
(g1
g2
(lp1801
g0
(g1
g2
(lp1802
Vthe
p1803
atp1804
Rp1805
(dp1806
g12
VDT
p1807
sbag0
(g1
g2
(lp1808
Vblanket
p1809
atp1810
Rp1811
(dp1812
g12
VNN
p1813
sbatp1814
Rp1815
(dp1816
g12
VNP
p1817
sbatp1818
Rp1819
(dp1820
g12
VPP
p1821
sbag0
(g1
g2
(lp1822
V,
p1823
atp1824
Rp1825
(dp1826
g12
V,
p1827
sbatp1828
Rp1829
(dp1830
g12
VNP
p1831
sbag0
(g1
g2
(lp1832
g0
(g1
g2
(lp1833
Vis
p1834
atp1835
Rp1836
(dp1837
g12
VVBZ
p1838
sbag0
(g1
g2
(lp1839
g0
(g1
g2
(lp1840
g0
(g1
g2
(lp1841
Vtheir
p1842
atp1843
Rp1844
(dp1845
g12
VPRP$
p1846
sbag0
(g1
g2
(lp1847
Vdaughter
p1848
atp1849
Rp1850
(dp1851
g12
VNN
p1852
sbatp1853
Rp1854
(dp1855
g12
VNP
p1856
sbag0
(g1
g2
(lp1857
V,
p1858
atp1859
Rp1860
(dp1861
g12
V,
p1862
sbag0
(g1
g2
(lp1863
g0
(g1
g2
(lp1864
Vin
p1865
atp1866
Rp1867
(dp1868
g12
VIN
p1869
sbag0
(g1
g2
(lp1870
g0
(g1
g2
(lp1871
Vthe
p1872
atp1873
Rp1874
(dp1875
g12
VDT
p1876
sbag0
(g1
g2
(lp1877
Vsand
p1878
atp1879
Rp1880
(dp1881
g12
VNN
p1882
sbatp1883
Rp1884
(dp1885
g12
VNP
p1886
sbatp1887
Rp1888
(dp1889
g12
VPP
p1890
sbag0
(g1
g2
(lp1891
V,
p1892
atp1893
Rp1894
(dp1895
g12
V,
p1896
sbag0
(g1
g2
(lp1897
g0
(g1
g2
(lp1898
Vbuilding
p1899
atp1900
Rp1901
(dp1902
g12
VVBG
p1903
sbag0
(g1
g2
(lp1904
g0
(g1
g2
(lp1905
Va
p1906
atp1907
Rp1908
(dp1909
g12
VDT
p1910
sbag0
(g1
g2
(lp1911
Vsandcastle
p1912
atp1913
Rp1914
(dp1915
g12
VNN
p1916
sbatp1917
Rp1918
(dp1919
g12
VNP
p1920
sbatp1921
Rp1922
(dp1923
g12
VVP
p1924
sbatp1925
Rp1926
(dp1927
g12
VNP
p1928
sbatp1929
Rp1930
(dp1931
g12
VVP
p1932
sbag0
(g1
g2
(lp1933
V.
p1934
atp1935
Rp1936
(dp1937
g12
V.
p1938
sbatp1939
Rp1940
(dp1941
g12
VS
p1942
sbatp1943
Rp1944
(dp1945
g12
S'id: 7'
p1946
sbag0
(g1
g2
(lp1947
g0
(g1
g2
(lp1948
g0
(g1
g2
(lp1949
VAnd
p1950
atp1951
Rp1952
(dp1953
g12
VCC
p1954
sbag0
(g1
g2
(lp1955
g0
(g1
g2
(lp1956
Vshe
p1957
atp1958
Rp1959
(dp1960
g12
VPRP
p1961
sbatp1962
Rp1963
(dp1964
g12
VNP
p1965
sbag0
(g1
g2
(lp1966
g0
(g1
g2
(lp1967
Vhas
p1968
atp1969
Rp1970
(dp1971
g12
VVBZ
p1972
sbag0
(g1
g2
(lp1973
g0
(g1
g2
(lp1974
g0
(g1
g2
(lp1975
Va
p1976
atp1977
Rp1978
(dp1979
g12
VDT
p1980
sbag0
(g1
g2
(lp1981
Vbucket
p1982
atp1983
Rp1984
(dp1985
g12
VNN
p1986
sbatp1987
Rp1988
(dp1989
g12
VNP
p1990
sbag0
(g1
g2
(lp1991
Vand
p1992
atp1993
Rp1994
(dp1995
g12
VCC
p1996
sbag0
(g1
g2
(lp1997
g0
(g1
g2
(lp1998
Va
p1999
atp2000
Rp2001
(dp2002
g12
VDT
p2003
sbag0
(g1
g2
(lp2004
Vshovel
p2005
atp2006
Rp2007
(dp2008
g12
VNN
p2009
sbag0
(g1
g2
(lp2010
g0
(g1
g2
(lp2011
g0
(g1
g2
(lp2012
Vto
p2013
atp2014
Rp2015
(dp2016
g12
VTO
p2017
sbag0
(g1
g2
(lp2018
g0
(g1
g2
(lp2019
Vhelp
p2020
atp2021
Rp2022
(dp2023
g12
VVB
p2024
sbag0
(g1
g2
(lp2025
g0
(g1
g2
(lp2026
g0
(g1
g2
(lp2027
Vher
p2028
atp2029
Rp2030
(dp2031
g12
VPRP$
p2032
sbatp2033
Rp2034
(dp2035
g12
VNP
p2036
sbag0
(g1
g2
(lp2037
g0
(g1
g2
(lp2038
Vbuild
p2039
atp2040
Rp2041
(dp2042
g12
VVB
p2043
sbag0
(g1
g2
(lp2044
g0
(g1
g2
(lp2045
Vthe
p2046
atp2047
Rp2048
(dp2049
g12
VDT
p2050
sbag0
(g1
g2
(lp2051
Vsandcastle
p2052
atp2053
Rp2054
(dp2055
g12
VNN
p2056
sbatp2057
Rp2058
(dp2059
g12
VNP
p2060
sbatp2061
Rp2062
(dp2063
g12
VVP
p2064
sbatp2065
Rp2066
(dp2067
g12
VS
p2068
sbatp2069
Rp2070
(dp2071
g12
VVP
p2072
sbatp2073
Rp2074
(dp2075
g12
VVP
p2076
sbatp2077
Rp2078
(dp2079
g12
VS
p2080
sbatp2081
Rp2082
(dp2083
g12
VNP
p2084
sbatp2085
Rp2086
(dp2087
g12
VNP
p2088
sbatp2089
Rp2090
(dp2091
g12
VVP
p2092
sbag0
(g1
g2
(lp2093
V.
p2094
atp2095
Rp2096
(dp2097
g12
V.
p2098
sbatp2099
Rp2100
(dp2101
g12
VS
p2102
sbatp2103
Rp2104
(dp2105
g12
S'id: 8'
p2106
sbag0
(g1
g2
(lp2107
g0
(g1
g2
(lp2108
g0
(g1
g2
(lp2109
VAnd
p2110
atp2111
Rp2112
(dp2113
g12
VCC
p2114
sbag0
(g1
g2
(lp2115
g0
(g1
g2
(lp2116
g0
(g1
g2
(lp2117
Vthan
p2118
atp2119
Rp2120
(dp2121
g12
VIN
p2122
sbag0
(g1
g2
(lp2123
g0
(g1
g2
(lp2124
Vout
p2125
atp2126
Rp2127
(dp2128
g12
VIN
p2129
sbag0
(g1
g2
(lp2130
g0
(g1
g2
(lp2131
Vbehind
p2132
atp2133
Rp2134
(dp2135
g12
VIN
p2136
sbag0
(g1
g2
(lp2137
g0
(g1
g2
(lp2138
Vthe
p2139
atp2140
Rp2141
(dp2142
g12
VDT
p2143
sbag0
(g1
g2
(lp2144
Vgirl
p2145
atp2146
Rp2147
(dp2148
g12
VNN
p2149
sbatp2150
Rp2151
(dp2152
g12
VNP
p2153
sbatp2154
Rp2155
(dp2156
g12
VPP
p2157
sbatp2158
Rp2159
(dp2160
g12
VPP
p2161
sbatp2162
Rp2163
(dp2164
g12
VPP
p2165
sbag0
(g1
g2
(lp2166
V,
p2167
atp2168
Rp2169
(dp2170
g12
V,
p2171
sbag0
(g1
g2
(lp2172
g0
(g1
g2
(lp2173
Vinto
p2174
atp2175
Rp2176
(dp2177
g12
VIN
p2178
sbag0
(g1
g2
(lp2179
g0
(g1
g2
(lp2180
g0
(g1
g2
(lp2181
Vthe
p2182
atp2183
Rp2184
(dp2185
g12
VDT
p2186
sbag0
(g1
g2
(lp2187
Vbay
p2188
atp2189
Rp2190
(dp2191
g12
VNN
p2192
sbatp2193
Rp2194
(dp2195
g12
VNP
p2196
sbag0
(g1
g2
(lp2197
V,
p2198
atp2199
Rp2200
(dp2201
g12
V,
p2202
sbag0
(g1
g2
(lp2203
Vor
p2204
atp2205
Rp2206
(dp2207
g12
VCC
p2208
sbag0
(g1
g2
(lp2209
g0
(g1
g2
(lp2210
Vocean
p2211
atp2212
Rp2213
(dp2214
g12
VNN
p2215
sbatp2216
Rp2217
(dp2218
g12
VNP
p2219
sbatp2220
Rp2221
(dp2222
g12
VNP
p2223
sbatp2224
Rp2225
(dp2226
g12
VPP
p2227
sbatp2228
Rp2229
(dp2230
g12
VPP
p2231
sbag0
(g1
g2
(lp2232
V,
p2233
atp2234
Rp2235
(dp2236
g12
V,
p2237
sbag0
(g1
g2
(lp2238
g0
(g1
g2
(lp2239
Vis
p2240
atp2241
Rp2242
(dp2243
g12
VVBZ
p2244
sbag0
(g1
g2
(lp2245
g0
(g1
g2
(lp2246
g0
(g1
g2
(lp2247
Va
p2248
atp2249
Rp2250
(dp2251
g12
VDT
p2252
sbag0
(g1
g2
(lp2253
Vsailboat
p2254
atp2255
Rp2256
(dp2257
g12
VNN
p2258
sbatp2259
Rp2260
(dp2261
g12
VNP
p2262
sbag0
(g1
g2
(lp2263
V,
p2264
atp2265
Rp2266
(dp2267
g12
V,
p2268
sbag0
(g1
g2
(lp2269
g0
(g1
g2
(lp2270
g0
(g1
g2
(lp2271
Vnumber
p2272
atp2273
Rp2274
(dp2275
g12
VNN
p2276
sbatp2277
Rp2278
(dp2279
g12
VNP
p2280
sbag0
(g1
g2
(lp2281
g0
(g1
g2
(lp2282
Vfour
p2283
atp2284
Rp2285
(dp2286
g12
VCD
p2287
sbag0
(g1
g2
(lp2288
Vseventy
p2289
atp2290
Rp2291
(dp2292
g12
VCD
p2293
sbatp2294
Rp2295
(dp2296
g12
VNP
p2297
sbatp2298
Rp2299
(dp2300
g12
VNP
p2301
sbag0
(g1
g2
(lp2302
V,
p2303
atp2304
Rp2305
(dp2306
g12
V,
p2307
sbag0
(g1
g2
(lp2308
g0
(g1
g2
(lp2309
Vwith
p2310
atp2311
Rp2312
(dp2313
g12
VIN
p2314
sbag0
(g1
g2
(lp2315
g0
(g1
g2
(lp2316
g0
(g1
g2
(lp2317
g0
(g1
g2
(lp2318
Vone
p2319
atp2320
Rp2321
(dp2322
g12
VCD
p2323
sbag0
(g1
g2
(lp2324
Vperson
p2325
atp2326
Rp2327
(dp2328
g12
VNN
p2329
sbatp2330
Rp2331
(dp2332
g12
VNP
p2333
sbag0
(g1
g2
(lp2334
g0
(g1
g2
(lp2335
Vwaving
p2336
atp2337
Rp2338
(dp2339
g12
VVBG
p2340
sbatp2341
Rp2342
(dp2343
g12
VVP
p2344
sbatp2345
Rp2346
(dp2347
g12
VNP
p2348
sbag0
(g1
g2
(lp2349
Vand
p2350
atp2351
Rp2352
(dp2353
g12
VCC
p2354
sbag0
(g1
g2
(lp2355
g0
(g1
g2
(lp2356
g0
(g1
g2
(lp2357
Vthe
p2358
atp2359
Rp2360
(dp2361
g12
VDT
p2362
sbag0
(g1
g2
(lp2363
Vother
p2364
atp2365
Rp2366
(dp2367
g12
VJJ
p2368
sbag0
(g1
g2
(lp2369
Vperson
p2370
atp2371
Rp2372
(dp2373
g12
VNN
p2374
sbatp2375
Rp2376
(dp2377
g12
VNP
p2378
sbag0
(g1
g2
(lp2379
g0
(g1
g2
(lp2380
Vsteering
p2381
atp2382
Rp2383
(dp2384
g12
VVBG
p2385
sbag0
(g1
g2
(lp2386
g0
(g1
g2
(lp2387
Vthe
p2388
atp2389
Rp2390
(dp2391
g12
VDT
p2392
sbag0
(g1
g2
(lp2393
Vrudder
p2394
atp2395
Rp2396
(dp2397
g12
VNN
p2398
sbatp2399
Rp2400
(dp2401
g12
VNP
p2402
sbatp2403
Rp2404
(dp2405
g12
VVP
p2406
sbatp2407
Rp2408
(dp2409
g12
VNP
p2410
sbatp2411
Rp2412
(dp2413
g12
VNP
p2414
sbatp2415
Rp2416
(dp2417
g12
VPP
p2418
sbatp2419
Rp2420
(dp2421
g12
VNP
p2422
sbatp2423
Rp2424
(dp2425
g12
VVP
p2426
sbag0
(g1
g2
(lp2427
V.
p2428
atp2429
Rp2430
(dp2431
g12
V.
p2432
sbatp2433
Rp2434
(dp2435
g12
VS
p2436
sbatp2437
Rp2438
(dp2439
g12
S'id: 9'
p2440
sbag0
(g1
g2
(lp2441
g0
(g1
g2
(lp2442
g0
(g1
g2
(lp2443
g0
(g1
g2
(lp2444
VDown
p2445
atp2446
Rp2447
(dp2448
g12
VIN
p2449
sbag0
(g1
g2
(lp2450
g0
(g1
g2
(lp2451
Vfurther
p2452
atp2453
Rp2454
(dp2455
g12
VRB
p2456
sbatp2457
Rp2458
(dp2459
g12
VADVP
p2460
sbatp2461
Rp2462
(dp2463
g12
VPP
p2464
sbag0
(g1
g2
(lp2465
g0
(g1
g2
(lp2466
Vfrom
p2467
atp2468
Rp2469
(dp2470
g12
VIN
p2471
sbag0
(g1
g2
(lp2472
g0
(g1
g2
(lp2473
Vthe
p2474
atp2475
Rp2476
(dp2477
g12
VDT
p2478
sbag0
(g1
g2
(lp2479
Vgirl
p2480
atp2481
Rp2482
(dp2483
g12
VNN
p2484
sbatp2485
Rp2486
(dp2487
g12
VNP
p2488
sbatp2489
Rp2490
(dp2491
g12
VPP
p2492
sbag0
(g1
g2
(lp2493
V,
p2494
atp2495
Rp2496
(dp2497
g12
V,
p2498
sbag0
(g1
g2
(lp2499
g0
(g1
g2
(lp2500
Vis
p2501
atp2502
Rp2503
(dp2504
g12
VVBZ
p2505
sbag0
(g1
g2
(lp2506
g0
(g1
g2
(lp2507
Va
p2508
atp2509
Rp2510
(dp2511
g12
VDT
p2512
sbag0
(g1
g2
(lp2513
Vdock
p2514
atp2515
Rp2516
(dp2517
g12
VNN
p2518
sbatp2519
Rp2520
(dp2521
g12
VNP
p2522
sbatp2523
Rp2524
(dp2525
g12
VVP
p2526
sbag0
(g1
g2
(lp2527
V.
p2528
atp2529
Rp2530
(dp2531
g12
V.
p2532
sbatp2533
Rp2534
(dp2535
g12
VS
p2536
sbatp2537
Rp2538
(dp2539
g12
S'id: 10'
p2540
sbag0
(g1
g2
(lp2541
g0
(g1
g2
(lp2542
g0
(g1
g2
(lp2543
VAnd
p2544
atp2545
Rp2546
(dp2547
g12
VCC
p2548
sbag0
(g1
g2
(lp2549
g0
(g1
g2
(lp2550
g0
(g1
g2
(lp2551
Vthere
p2552
atp2553
Rp2554
(dp2555
g12
VEX
p2556
sbatp2557
Rp2558
(dp2559
g12
VNP
p2560
sbag0
(g1
g2
(lp2561
g0
(g1
g2
(lp2562
V's
p2563
atp2564
Rp2565
(dp2566
g12
VVBZ
p2567
sbag0
(g1
g2
(lp2568
g0
(g1
g2
(lp2569
g0
(g1
g2
(lp2570
Va
p2571
atp2572
Rp2573
(dp2574
g12
VDT
p2575
sbag0
(g1
g2
(lp2576
Vman
p2577
atp2578
Rp2579
(dp2580
g12
VNN
p2581
sbatp2582
Rp2583
(dp2584
g12
VNP
p2585
sbag0
(g1
g2
(lp2586
g0
(g1
g2
(lp2587
Von
p2588
atp2589
Rp2590
(dp2591
g12
VIN
p2592
sbag0
(g1
g2
(lp2593
g0
(g1
g2
(lp2594
Vthat
p2595
atp2596
Rp2597
(dp2598
g12
VDT
p2599
sbag0
(g1
g2
(lp2600
Vdock
p2601
atp2602
Rp2603
(dp2604
g12
VNN
p2605
sbatp2606
Rp2607
(dp2608
g12
VNP
p2609
sbatp2610
Rp2611
(dp2612
g12
VPP
p2613
sbatp2614
Rp2615
(dp2616
g12
VNP
p2617
sbatp2618
Rp2619
(dp2620
g12
VVP
p2621
sbatp2622
Rp2623
(dp2624
g12
VS
p2625
sbag0
(g1
g2
(lp2626
g0
(g1
g2
(lp2627
V,
p2628
atp2629
Rp2630
(dp2631
g12
V,
p2632
sbag0
(g1
g2
(lp2633
g0
(g1
g2
(lp2634
g0
(g1
g2
(lp2635
VI
p2636
atp2637
Rp2638
(dp2639
g12
VPRP
p2640
sbatp2641
Rp2642
(dp2643
g12
VNP
p2644
sbag0
(g1
g2
(lp2645
g0
(g1
g2
(lp2646
Vdo
p2647
atp2648
Rp2649
(dp2650
g12
VVBP
p2651
sbag0
(g1
g2
(lp2652
Vn't
p2653
atp2654
Rp2655
(dp2656
g12
VRB
p2657
sbag0
(g1
g2
(lp2658
g0
(g1
g2
(lp2659
Vknow
p2660
atp2661
Rp2662
(dp2663
g12
VVB
p2664
sbag0
(g1
g2
(lp2665
g0
(g1
g2
(lp2666
Vwhether
p2667
atp2668
Rp2669
(dp2670
g12
VIN
p2671
sbag0
(g1
g2
(lp2672
g0
(g1
g2
(lp2673
g0
(g1
g2
(lp2674
Vhe
p2675
atp2676
Rp2677
(dp2678
g12
VPRP
p2679
sbatp2680
Rp2681
(dp2682
g12
VNP
p2683
sbag0
(g1
g2
(lp2684
g0
(g1
g2
(lp2685
V's
p2686
atp2687
Rp2688
(dp2689
g12
VVBZ
p2690
sbag0
(g1
g2
(lp2691
g0
(g1
g2
(lp2692
Vrelated
p2693
atp2694
Rp2695
(dp2696
g12
VJJ
p2697
sbatp2698
Rp2699
(dp2700
g12
VADJP
p2701
sbatp2702
Rp2703
(dp2704
g12
VVP
p2705
sbatp2706
Rp2707
(dp2708
g12
VS
p2709
sbag0
(g1
g2
(lp2710
Vor
p2711
atp2712
Rp2713
(dp2714
g12
VCC
p2715
sbag0
(g1
g2
(lp2716
Vnot
p2717
atp2718
Rp2719
(dp2720
g12
VRB
p2721
sbatp2722
Rp2723
(dp2724
g12
VSBAR
p2725
sbatp2726
Rp2727
(dp2728
g12
VVP
p2729
sbatp2730
Rp2731
(dp2732
g12
VVP
p2733
sbatp2734
Rp2735
(dp2736
g12
VS
p2737
sbag0
(g1
g2
(lp2738
V,
p2739
atp2740
Rp2741
(dp2742
g12
V,
p2743
sbatp2744
Rp2745
(dp2746
g12
VPRN
p2747
sbag0
(g1
g2
(lp2748
Vand
p2749
atp2750
Rp2751
(dp2752
g12
VCC
p2753
sbag0
(g1
g2
(lp2754
g0
(g1
g2
(lp2755
g0
(g1
g2
(lp2756
Vhe
p2757
atp2758
Rp2759
(dp2760
g12
VPRP
p2761
sbatp2762
Rp2763
(dp2764
g12
VNP
p2765
sbag0
(g1
g2
(lp2766
g0
(g1
g2
(lp2767
Vjust
p2768
atp2769
Rp2770
(dp2771
g12
VRB
p2772
sbatp2773
Rp2774
(dp2775
g12
VADVP
p2776
sbag0
(g1
g2
(lp2777
g0
(g1
g2
(lp2778
Vcaught
p2779
atp2780
Rp2781
(dp2782
g12
VVBD
p2783
sbag0
(g1
g2
(lp2784
g0
(g1
g2
(lp2785
g0
(g1
g2
(lp2786
Va
p2787
atp2788
Rp2789
(dp2790
g12
VDT
p2791
sbag0
(g1
g2
(lp2792
Vfish
p2793
atp2794
Rp2795
(dp2796
g12
VNN
p2797
sbatp2798
Rp2799
(dp2800
g12
VNP
p2801
sbag0
(g1
g2
(lp2802
g0
(g1
g2
(lp2803
g0
(g1
g2
(lp2804
Vthat
p2805
atp2806
Rp2807
(dp2808
g12
VWDT
p2809
sbatp2810
Rp2811
(dp2812
g12
VWHNP
p2813
sbag0
(g1
g2
(lp2814
g0
(g1
g2
(lp2815
g0
(g1
g2
(lp2816
Vjumped
p2817
atp2818
Rp2819
(dp2820
g12
VVBD
p2821
sbag0
(g1
g2
(lp2822
g0
(g1
g2
(lp2823
Vout
p2824
atp2825
Rp2826
(dp2827
g12
VIN
p2828
sbatp2829
Rp2830
(dp2831
g12
VPRT
p2832
sbag0
(g1
g2
(lp2833
g0
(g1
g2
(lp2834
Vof
p2835
atp2836
Rp2837
(dp2838
g12
VIN
p2839
sbag0
(g1
g2
(lp2840
g0
(g1
g2
(lp2841
Vthe
p2842
atp2843
Rp2844
(dp2845
g12
VDT
p2846
sbag0
(g1
g2
(lp2847
Vwater
p2848
atp2849
Rp2850
(dp2851
g12
VNN
p2852
sbatp2853
Rp2854
(dp2855
g12
VNP
p2856
sbatp2857
Rp2858
(dp2859
g12
VPP
p2860
sbatp2861
Rp2862
(dp2863
g12
VVP
p2864
sbatp2865
Rp2866
(dp2867
g12
VS
p2868
sbatp2869
Rp2870
(dp2871
g12
VSBAR
p2872
sbatp2873
Rp2874
(dp2875
g12
VNP
p2876
sbatp2877
Rp2878
(dp2879
g12
VVP
p2880
sbatp2881
Rp2882
(dp2883
g12
VS
p2884
sbag0
(g1
g2
(lp2885
V.
p2886
atp2887
Rp2888
(dp2889
g12
V.
p2890
sbatp2891
Rp2892
(dp2893
g12
VS
p2894
sbatp2895
Rp2896
(dp2897
g12
S'id: 11'
p2898
sbag0
(g1
g2
(lp2899
g0
(g1
g2
(lp2900
g0
(g1
g2
(lp2901
VAnd
p2902
atp2903
Rp2904
(dp2905
g12
VCC
p2906
sbag0
(g1
g2
(lp2907
g0
(g1
g2
(lp2908
Vhe
p2909
atp2910
Rp2911
(dp2912
g12
VPRP
p2913
sbatp2914
Rp2915
(dp2916
g12
VNP
p2917
sbag0
(g1
g2
(lp2918
g0
(g1
g2
(lp2919
V's
p2920
atp2921
Rp2922
(dp2923
g12
VVBZ
p2924
sbag0
(g1
g2
(lp2925
g0
(g1
g2
(lp2926
Vgot
p2927
atp2928
Rp2929
(dp2930
g12
VVBD
p2931
sbag0
(g1
g2
(lp2932
g0
(g1
g2
(lp2933
Va
p2934
atp2935
Rp2936
(dp2937
g12
VDT
p2938
sbatp2939
Rp2940
(dp2941
g12
VNP
p2942
sbatp2943
Rp2944
(dp2945
g12
VVP
p2946
sbatp2947
Rp2948
(dp2949
g12
VVP
p2950
sbatp2951
Rp2952
(dp2953
g12
VS
p2954
sbatp2955
Rp2956
(dp2957
g12
S'id: 12'
p2958
sbatp2959
Rp2960
(dp2961
g12
S'sentences'
p2962
sb.