ccopy_reg
_reconstructor
p0
(cnltk.tree
Tree
p1
c__builtin__
list
p2
(lp3
g0
(g1
g2
(lp4
g0
(g1
g2
(lp5
g0
(g1
g2
(lp6
Vthe clowns spreading confetti all over , over , over , the kids .
p7
atp8
Rp9
(dp10
S'_label'
p11
S'start: 1'
p12
sbatp13
Rp14
(dp15
g11
S'sent: 1'
p16
sbag0
(g1
g2
(lp17
g0
(g1
g2
(lp18
Vthe clowns
p19
atp20
Rp21
(dp22
g11
S'start: 10'
p23
sbatp24
Rp25
(dp26
g11
S'sent: 2'
p27
sbatp28
Rp29
(dp30
g11
S'id: 1'
p31
sbag0
(g1
g2
(lp32
g0
(g1
g2
(lp33
g0
(g1
g2
(lp34
Vconfetti all over
p35
atp36
Rp37
(dp38
g11
S'start: 4'
p39
sbatp40
Rp41
(dp42
g11
S'sent: 1'
p43
sbag0
(g1
g2
(lp44
g0
(g1
g2
(lp45
Vit
p46
atp47
Rp48
(dp49
g11
S'start: 7'
p50
sbatp51
Rp52
(dp53
g11
S'sent: 2'
p54
sbatp55
Rp56
(dp57
g11
S'id: 3'
p58
sbag0
(g1
g2
(lp59
g0
(g1
g2
(lp60
g0
(g1
g2
(lp61
Vthe kids
p62
atp63
Rp64
(dp65
g11
S'start: 12'
p66
sbatp67
Rp68
(dp69
g11
S'sent: 1'
p70
sbag0
(g1
g2
(lp71
g0
(g1
g2
(lp72
Vthe kids
p73
atp74
Rp75
(dp76
g11
S'start: 2'
p77
sbatp78
Rp79
(dp80
g11
S'sent: 2'
p81
sbag0
(g1
g2
(lp82
g0
(g1
g2
(lp83
Vthey
p84
atp85
Rp86
(dp87
g11
S'start: 2'
p88
sbatp89
Rp90
(dp91
g11
S'sent: 3'
p92
sbag0
(g1
g2
(lp93
g0
(g1
g2
(lp94
Vtheir
p95
atp96
Rp97
(dp98
g11
S'start: 6'
p99
sbatp100
Rp101
(dp102
g11
S'sent: 3'
p103
sbag0
(g1
g2
(lp104
g0
(g1
g2
(lp105
Vtheir
p106
atp107
Rp108
(dp109
g11
S'start: 12'
p110
sbatp111
Rp112
(dp113
g11
S'sent: 3'
p114
sbag0
(g1
g2
(lp115
g0
(g1
g2
(lp116
Vthey
p117
atp118
Rp119
(dp120
g11
S'start: 23'
p121
sbatp122
Rp123
(dp124
g11
S'sent: 3'
p125
sbatp126
Rp127
(dp128
g11
S'id: 4'
p129
sbag0
(g1
g2
(lp130
g0
(g1
g2
(lp131
g0
(g1
g2
(lp132
Vtheir head
p133
atp134
Rp135
(dp136
g11
S'start: 12'
p137
sbatp138
Rp139
(dp140
g11
S'sent: 3'
p141
sbag0
(g1
g2
(lp142
g0
(g1
g2
(lp143
Vthe head
p144
atp145
Rp146
(dp147
g11
S'start: 17'
p148
sbatp149
Rp150
(dp151
g11
S'sent: 3'
p152
sbatp153
Rp154
(dp155
g11
S'id: 15'
p156
sbag0
(g1
g2
(lp157
g0
(g1
g2
(lp158
g0
(g1
g2
(lp159
Va cage
p160
atp161
Rp162
(dp163
g11
S'start: 6'
p164
sbatp165
Rp166
(dp167
g11
S'sent: 5'
p168
sbag0
(g1
g2
(lp169
g0
(g1
g2
(lp170
Va
p171
atp172
Rp173
(dp174
g11
S'start: 12'
p175
sbatp176
Rp177
(dp178
g11
S'sent: 5'
p179
sbag0
(g1
g2
(lp180
g0
(g1
g2
(lp181
Va
p182
atp183
Rp184
(dp185
g11
S'start: 16'
p186
sbatp187
Rp188
(dp189
g11
S'sent: 5'
p190
sbatp191
Rp192
(dp193
g11
S'id: 24'
p194
sbag0
(g1
g2
(lp195
g0
(g1
g2
(lp196
g0
(g1
g2
(lp197
Vhe
p198
atp199
Rp200
(dp201
g11
S'start: 10'
p202
sbatp203
Rp204
(dp205
g11
S'sent: 5'
p206
sbag0
(g1
g2
(lp207
g0
(g1
g2
(lp208
Vhe
p209
atp210
Rp211
(dp212
g11
S'start: 14'
p213
sbatp214
Rp215
(dp216
g11
S'sent: 5'
p217
sbag0
(g1
g2
(lp218
g0
(g1
g2
(lp219
Vhe
p220
atp221
Rp222
(dp223
g11
S'start: 18'
p224
sbatp225
Rp226
(dp227
g11
S'sent: 5'
p228
sbatp229
Rp230
(dp231
g11
S'id: 25'
p232
sbag0
(g1
g2
(lp233
g0
(g1
g2
(lp234
g0
(g1
g2
(lp235
Vthere , nother there poles
p236
atp237
Rp238
(dp239
g11
S'start: 5'
p240
sbatp241
Rp242
(dp243
g11
S'sent: 6'
p244
sbag0
(g1
g2
(lp245
g0
(g1
g2
(lp246
Vthey
p247
atp248
Rp249
(dp250
g11
S'start: 17'
p251
sbatp252
Rp253
(dp254
g11
S'sent: 6'
p255
sbag0
(g1
g2
(lp256
g0
(g1
g2
(lp257
Vthey
p258
atp259
Rp260
(dp261
g11
S'start: 21'
p262
sbatp263
Rp264
(dp265
g11
S'sent: 6'
p266
sbag0
(g1
g2
(lp267
g0
(g1
g2
(lp268
Vtheir
p269
atp270
Rp271
(dp272
g11
S'start: 2'
p273
sbatp274
Rp275
(dp276
g11
S'sent: 7'
p277
sbag0
(g1
g2
(lp278
g0
(g1
g2
(lp279
Vtheir
p280
atp281
Rp282
(dp283
g11
S'start: 9'
p284
sbatp285
Rp286
(dp287
g11
S'sent: 7'
p288
sbatp289
Rp290
(dp291
g11
S'id: 30'
p292
sbag0
(g1
g2
(lp293
g0
(g1
g2
(lp294
g0
(g1
g2
(lp295
Vthere poles
p296
atp297
Rp298
(dp299
g11
S'start: 8'
p300
sbatp301
Rp302
(dp303
g11
S'sent: 6'
p304
sbag0
(g1
g2
(lp305
g0
(g1
g2
(lp306
VHe
p307
atp308
Rp309
(dp310
g11
S'start: 1'
p311
sbatp312
Rp313
(dp314
g11
S'sent: 9'
p315
sbatp316
Rp317
(dp318
g11
S'id: 31'
p319
sbag0
(g1
g2
(lp320
g0
(g1
g2
(lp321
g0
(g1
g2
(lp322
Vthe , on the
p323
atp324
Rp325
(dp326
g11
S'start: 11'
p327
sbatp328
Rp329
(dp330
g11
S'sent: 6'
p331
sbag0
(g1
g2
(lp332
g0
(g1
g2
(lp333
Vthe
p334
atp335
Rp336
(dp337
g11
S'start: 19'
p338
sbatp339
Rp340
(dp341
g11
S'sent: 9'
p342
sbatp343
Rp344
(dp345
g11
S'id: 32'
p346
sbag0
(g1
g2
(lp347
g0
(g1
g2
(lp348
g0
(g1
g2
(lp349
Vpants
p350
atp351
Rp352
(dp353
g11
S'start: 5'
p354
sbatp355
Rp356
(dp357
g11
S'sent: 9'
p358
sbag0
(g1
g2
(lp359
g0
(g1
g2
(lp360
Vpants
p361
atp362
Rp363
(dp364
g11
S'start: 9'
p365
sbatp366
Rp367
(dp368
g11
S'sent: 9'
p369
sbatp370
Rp371
(dp372
g11
S'id: 47'
p373
sbag0
(g1
g2
(lp374
g0
(g1
g2
(lp375
g0
(g1
g2
(lp376
Va coat
p377
atp378
Rp379
(dp380
g11
S'start: 12'
p381
sbatp382
Rp383
(dp384
g11
S'sent: 9'
p385
sbag0
(g1
g2
(lp386
g0
(g1
g2
(lp387
Vno a coat for the
p388
atp389
Rp390
(dp391
g11
S'start: 15'
p392
sbatp393
Rp394
(dp395
g11
S'sent: 9'
p396
sbatp397
Rp398
(dp399
g11
S'id: 50'
p400
sbatp401
Rp402
(dp403
g11
S'coreferences'
p404
sb.