ccopy_reg
_reconstructor
p0
(cnltk.tree
Tree
p1
c__builtin__
list
p2
(lp3
g0
(g1
g2
(lp4
g0
(g1
g2
(lp5
g0
(g1
g2
(lp6
(lp7
S'word: All, index: 1'
p8
aatp9
Rp10
(dp11
S'_label'
p12
Vdet
p13
sbatp14
Rp15
(dp16
g12
S'word: right, index: 2'
p17
sbatp18
Rp19
(dp20
g12
S'id: 0'
p21
sbag0
(g1
g2
(lp22
g0
(g1
g2
(lp23
g0
(g1
g2
(lp24
g0
(g1
g2
(lp25
g0
(g1
g2
(lp26
(lp27
S'word: the, index: 4'
p28
aatp29
Rp30
(dp31
g12
Vdet
p32
sbatp33
Rp34
(dp35
g12
S'word: circus, index: 5'
p36
sbatp37
Rp38
(dp39
g12
Vprep
p40
sbag0
(g1
g2
(lp41
g0
(g1
g2
(lp42
g0
(g1
g2
(lp43
(lp44
S'word: there, index: 8'
p45
aatp46
Rp47
(dp48
g12
Vexpl
p49
sbag0
(g1
g2
(lp50
g0
(g1
g2
(lp51
g0
(g1
g2
(lp52
(lp53
S'word: a, index: 10'
p54
aatp55
Rp56
(dp57
g12
Vdet
p58
sbag0
(g1
g2
(lp59
g0
(g1
g2
(lp60
g0
(g1
g2
(lp61
(lp62
S'word: on, index: 13'
p63
aatp64
Rp65
(dp66
g12
Vprep
p67
sbatp68
Rp69
(dp70
g12
S'word: going, index: 12'
p71
sbatp72
Rp73
(dp74
g12
Vvmod
p75
sbatp76
Rp77
(dp78
g12
S'word: lot, index: 11'
p79
sbatp80
Rp81
(dp82
g12
Vnsubj
p83
sbatp84
Rp85
(dp86
g12
S'word: is, index: 9'
p87
sbatp88
Rp89
(dp90
g12
Vconj
p91
sbag0
(g1
g2
(lp92
(lp93
S'word: We, index: 1'
p94
aatp95
Rp96
(dp97
g12
Vnsubj
p98
sbatp99
Rp100
(dp101
g12
S'word: are, index: 2'
p102
sbatp103
Rp104
(dp105
g12
S'id: 1'
p106
sbag0
(g1
g2
(lp107
g0
(g1
g2
(lp108
g0
(g1
g2
(lp109
g0
(g1
g2
(lp110
g0
(g1
g2
(lp111
g0
(g1
g2
(lp112
g0
(g1
g2
(lp113
g0
(g1
g2
(lp114
g0
(g1
g2
(lp115
g0
(g1
g2
(lp116
g0
(g1
g2
(lp117
(lp118
S'word: the, index: 13'
p119
aatp120
Rp121
(dp122
g12
Vdet
p123
sbatp124
Rp125
(dp126
g12
S'word: lion, index: 14'
p127
sbatp128
Rp129
(dp130
g12
Vpobj
p131
sbatp132
Rp133
(dp134
g12
S'word: with, index: 12'
p135
sbatp136
Rp137
(dp138
g12
Vpcomp
p139
sbatp140
Rp141
(dp142
g12
S'word: in, index: 11'
p143
sbatp144
Rp145
(dp146
g12
Vprep
p147
sbatp148
Rp149
(dp150
g12
S'word: tails, index: 10'
p151
sbatp152
Rp153
(dp154
g12
Vnsubj
p155
sbag0
(g1
g2
(lp156
(lp157
S'word: There, index: 1'
p158
aatp159
Rp160
(dp161
g12
Vexpl
p162
sbag0
(g1
g2
(lp163
g0
(g1
g2
(lp164
g0
(g1
g2
(lp165
g0
(g1
g2
(lp166
g0
(g1
g2
(lp167
(lp168
S'word: a, index: 6'
p169
aatp170
Rp171
(dp172
g12
Vdet
p173
sbag0
(g1
g2
(lp174
(lp175
S'word: top, index: 7'
p176
aatp177
Rp178
(dp179
g12
Vamod
p180
sbatp181
Rp182
(dp183
g12
S'word: hat, index: 8'
p184
sbatp185
Rp186
(dp187
g12
Vprep
p188
sbag0
(g1
g2
(lp189
g149
atp190
Rp191
(dp192
g12
Vconj
p193
sbag0
(g1
g2
(lp194
(lp195
S'word: a, index: 3'
p196
aatp197
Rp198
(dp199
g12
Vdet
p200
sbatp201
Rp202
(dp203
g12
S'word: man, index: 4'
p204
sbatp205
Rp206
(dp207
g12
Vnsubj
p208
sbatp209
Rp210
(dp211
g12
S'word: is, index: 2'
p212
sbatp213
Rp214
(dp215
g12
S'id: 2'
p216
sbag0
(g1
g2
(lp217
g0
(g1
g2
(lp218
g0
(g1
g2
(lp219
g0
(g1
g2
(lp220
g0
(g1
g2
(lp221
(lp222
S'word: to, index: 2'
p223
aatp224
Rp225
(dp226
g12
Vaux
p227
sbag0
(g1
g2
(lp228
(lp229
S'word: him, index: 4'
p230
aatp231
Rp232
(dp233
g12
Vdobj
p234
sbag0
(g1
g2
(lp235
g0
(g1
g2
(lp236
g0
(g1
g2
(lp237
(lp238
S'word: to, index: 5'
p239
aatp240
Rp241
(dp242
g12
Vaux
p243
sbag0
(g1
g2
(lp244
(lp245
S'word: tricks, index: 7'
p246
aatp247
Rp248
(dp249
g12
Vdobj
p250
sbatp251
Rp252
(dp253
g12
S'word: do, index: 6'
p254
sbatp255
Rp256
(dp257
g12
Vxcomp
p258
sbatp259
Rp260
(dp261
g12
S'word: get, index: 3'
p262
sbatp263
Rp264
(dp265
g12
Vxcomp
p266
sbatp267
Rp268
(dp269
g12
S'word: Trying, index: 1'
p270
sbatp271
Rp272
(dp273
g12
S'id: 3'
p274
sbag0
(g1
g2
(lp275
g0
(g1
g2
(lp276
g0
(g1
g2
(lp277
g0
(g1
g2
(lp278
g0
(g1
g2
(lp279
g0
(g1
g2
(lp280
g0
(g1
g2
(lp281
(lp282
S'word: the, index: 14'
p283
aatp284
Rp285
(dp286
g12
Vdet
p287
sbag0
(g1
g2
(lp288
(lp289
S'word: high, index: 15'
p290
aatp291
Rp292
(dp293
g12
Vamod
p294
sbatp295
Rp296
(dp297
g12
S'word: wire, index: 16'
p298
sbatp299
Rp300
(dp301
g12
Vprep
p302
sbag0
(g1
g2
(lp303
(lp304
S'word: While, index: 1'
p305
aatp306
Rp307
(dp308
g12
Vmark
p309
sbag0
(g1
g2
(lp310
g0
(g1
g2
(lp311
g0
(g1
g2
(lp312
(lp313
S'word: a, index: 18'
p314
aatp315
Rp316
(dp317
g12
Vdet
p318
sbatp319
Rp320
(dp321
g12
S'word: net, index: 19'
p322
sbatp323
Rp324
(dp325
g12
Vprep
p326
sbag0
(g1
g2
(lp327
g0
(g1
g2
(lp328
g0
(g1
g2
(lp329
(lp330
S'word: the, index: 2'
p331
aatp332
Rp333
(dp334
g12
Vdet
p335
sbag0
(g1
g2
(lp336
(lp337
S'word: trapeze, index: 3'
p338
aatp339
Rp340
(dp341
g12
Vnn
p342
sbag0
(g1
g2
(lp343
g0
(g1
g2
(lp344
g0
(g1
g2
(lp345
(lp346
S'word: high, index: 7'
p347
aatp348
Rp349
(dp350
g12
Vamod
p351
sbag0
(g1
g2
(lp352
(lp353
S'word: wire, index: 8'
p354
aatp355
Rp356
(dp357
g12
Vnn
p358
sbatp359
Rp360
(dp361
g12
S'word: dude, index: 9'
p362
sbatp363
Rp364
(dp365
g12
Vconj
p366
sbatp367
Rp368
(dp369
g12
S'word: artist, index: 4'
p370
sbatp371
Rp372
(dp373
g12
Vnsubj
p374
sbag0
(g1
g2
(lp375
g360
atp376
Rp377
(dp378
g12
Vnsubj
p379
sbag0
(g1
g2
(lp380
(lp381
S'word: is, index: 11'
p382
aatp383
Rp384
(dp385
g12
Vaux
p386
sbatp387
Rp388
(dp389
g12
S'word: walking, index: 12'
p390
sbatp391
Rp392
(dp393
g12
Vadvcl
p394
sbag0
(g1
g2
(lp395
(lp396
S'word: it, index: 20'
p397
aatp398
Rp399
(dp400
g12
Vnsubj
p401
sbatp402
Rp403
(dp404
g12
S'word: appears, index: 21'
p405
sbatp406
Rp407
(dp408
g12
S'id: 4'
p409
sbag0
(g1
g2
(lp410
g0
(g1
g2
(lp411
g0
(g1
g2
(lp412
(lp413
S'word: There, index: 1'
p414
aatp415
Rp416
(dp417
g12
Vexpl
p418
sbag0
(g1
g2
(lp419
g0
(g1
g2
(lp420
g0
(g1
g2
(lp421
(lp422
S'word: a, index: 3'
p423
aatp424
Rp425
(dp426
g12
Vdet
p427
sbag0
(g1
g2
(lp428
g0
(g1
g2
(lp429
g0
(g1
g2
(lp430
(lp431
S'word: a, index: 6'
p432
aatp433
Rp434
(dp435
g12
Vdet
p436
sbag0
(g1
g2
(lp437
g0
(g1
g2
(lp438
g0
(g1
g2
(lp439
g0
(g1
g2
(lp440
g0
(g1
g2
(lp441
(lp442
S'word: the, index: 17'
p443
aatp444
Rp445
(dp446
g12
Vdet
p447
sbag0
(g1
g2
(lp448
(lp449
S'word: little, index: 18'
p450
aatp451
Rp452
(dp453
g12
Vamod
p454
sbag0
(g1
g2
(lp455
(lp456
S'word: circular, index: 19'
p457
aatp458
Rp459
(dp460
g12
Vamod
p461
sbag0
(g1
g2
(lp462
g0
(g1
g2
(lp463
g0
(g1
g2
(lp464
(lp465
S'word: type, index: 22'
p466
aatp467
Rp468
(dp469
g12
Vnn
p470
sbag0
(g1
g2
(lp471
(lp472
S'word: play, index: 23'
p473
aatp474
Rp475
(dp476
g12
Vnn
p477
sbatp478
Rp479
(dp480
g12
S'word: thing, index: 24'
p481
sbatp482
Rp483
(dp484
g12
Vappos
p485
sbatp486
Rp487
(dp488
g12
S'word: arena, index: 20'
p489
sbatp490
Rp491
(dp492
g12
Vprep
p493
sbag0
(g1
g2
(lp494
g0
(g1
g2
(lp495
g0
(g1
g2
(lp496
g0
(g1
g2
(lp497
g0
(g1
g2
(lp498
(lp499
S'word: a, index: 11'
p500
aatp501
Rp502
(dp503
g12
Vdet
p504
sbag0
(g1
g2
(lp505
(lp506
S'word: the, index: 14'
p507
aatp508
Rp509
(dp510
g12
Vprep
p511
sbatp512
Rp513
(dp514
g12
S'word: horse, index: 12'
p515
sbatp516
Rp517
(dp518
g12
Vprep
p519
sbatp520
Rp521
(dp522
g12
S'word: tricks, index: 9'
p523
sbatp524
Rp525
(dp526
g12
Vdobj
p527
sbatp528
Rp529
(dp530
g12
S'word: doing, index: 8'
p531
sbatp532
Rp533
(dp534
g12
Vvmod
p535
sbatp536
Rp537
(dp538
g12
S'word: tutu, index: 7'
p539
sbatp540
Rp541
(dp542
g12
Vprep
p543
sbatp544
Rp545
(dp546
g12
S'word: lady, index: 4'
p547
sbatp548
Rp549
(dp550
g12
Vnsubj
p551
sbatp552
Rp553
(dp554
g12
S'word: is, index: 2'
p555
sbatp556
Rp557
(dp558
g12
S'id: 5'
p559
sbag0
(g1
g2
(lp560
g0
(g1
g2
(lp561
g0
(g1
g2
(lp562
g0
(g1
g2
(lp563
g0
(g1
g2
(lp564
(lp565
S'word: all, index: 4'
p566
aatp567
Rp568
(dp569
g12
Vpredet
p570
sbatp571
Rp572
(dp573
g12
S'word: this, index: 5'
p574
sbatp575
Rp576
(dp577
g12
Vprep
p578
sbag0
(g1
g2
(lp579
g0
(g1
g2
(lp580
g0
(g1
g2
(lp581
g0
(g1
g2
(lp582
g0
(g1
g2
(lp583
g0
(g1
g2
(lp584
g0
(g1
g2
(lp585
(lp586
S'word: a, index: 19'
p587
aatp588
Rp589
(dp590
g12
Vdet
p591
sbatp592
Rp593
(dp594
g12
S'word: nose, index: 20'
p595
sbatp596
Rp597
(dp598
g12
Vdobj
p599
sbag0
(g1
g2
(lp600
(lp601
S'word: who, index: 9'
p602
aatp603
Rp604
(dp605
g12
Vnsubj
p606
sbatp607
Rp608
(dp609
g12
S'word: has, index: 18'
p610
sbatp611
Rp612
(dp613
g12
Vccomp
p614
sbag0
(g1
g2
(lp615
(lp616
S'word: a, index: 7'
p617
aatp618
Rp619
(dp620
g12
Vdet
p621
sbag0
(g1
g2
(lp622
g0
(g1
g2
(lp623
g0
(g1
g2
(lp624
g608
atp625
Rp626
(dp627
g12
Vconj
p628
sbag0
(g1
g2
(lp629
(lp630
S'word: who, index: 9'
p631
aatp632
Rp633
(dp634
g12
Vnsubj
p635
sbag0
(g1
g2
(lp636
g0
(g1
g2
(lp637
g0
(g1
g2
(lp638
(lp639
S'word: a, index: 11'
p640
aatp641
Rp642
(dp643
g12
Vdet
p644
sbag0
(g1
g2
(lp645
g0
(g1
g2
(lp646
g0
(g1
g2
(lp647
(lp648
S'word: his, index: 14'
p649
aatp650
Rp651
(dp652
g12
Vposs
p653
sbatp654
Rp655
(dp656
g12
S'word: hair, index: 15'
p657
sbatp658
Rp659
(dp660
g12
Vprep
p661
sbatp662
Rp663
(dp664
g12
S'word: flower, index: 12'
p665
sbatp666
Rp667
(dp668
g12
Vdobj
p669
sbatp670
Rp671
(dp672
g12
S'word: has, index: 10'
p673
sbatp674
Rp675
(dp676
g12
Vccomp
p677
sbatp678
Rp679
(dp680
g12
S'word: clown, index: 8'
p681
sbatp682
Rp683
(dp684
g12
Vnsubj
p685
sbatp686
Rp687
(dp688
g12
S'word: is, index: 6'
p689
sbatp690
Rp691
(dp692
g12
S'id: 6'
p693
sbag0
(g1
g2
(lp694
g0
(g1
g2
(lp695
g0
(g1
g2
(lp696
g0
(g1
g2
(lp697
g0
(g1
g2
(lp698
(lp699
S"word: 's, index: 5"
p700
aatp701
Rp702
(dp703
g12
Vcop
p704
sbag0
(g1
g2
(lp705
(lp706
S'word: a, index: 6'
p707
aatp708
Rp709
(dp710
g12
Vdet
p711
sbag0
(g1
g2
(lp712
(lp713
S'word: red, index: 7'
p714
aatp715
Rp716
(dp717
g12
Vamod
p718
sbag0
(g1
g2
(lp719
(lp720
S'word: it, index: 4'
p721
aatp722
Rp723
(dp724
g12
Vnsubj
p725
sbatp726
Rp727
(dp728
g12
S'word: nose, index: 8'
p729
sbatp730
Rp731
(dp732
g12
Vccomp
p733
sbag0
(g1
g2
(lp734
(lp735
S'word: I, index: 1'
p736
aatp737
Rp738
(dp739
g12
Vnsubj
p740
sbag0
(g1
g2
(lp741
(lp742
S"word: 'd, index: 2"
p743
aatp744
Rp745
(dp746
g12
Vaux
p747
sbatp748
Rp749
(dp750
g12
S'word: say, index: 3'
p751
sbatp752
Rp753
(dp754
g12
S'id: 7'
p755
sbag0
(g1
g2
(lp756
g0
(g1
g2
(lp757
g0
(g1
g2
(lp758
(lp759
S'word: And, index: 1'
p760
aatp761
Rp762
(dp763
g12
Vcc
p764
sbag0
(g1
g2
(lp765
(lp766
S'word: he, index: 2'
p767
aatp768
Rp769
(dp770
g12
Vnsubj
p771
sbag0
(g1
g2
(lp772
g0
(g1
g2
(lp773
g0
(g1
g2
(lp774
(lp775
S'word: his, index: 5'
p776
aatp777
Rp778
(dp779
g12
Vposs
p780
sbatp781
Rp782
(dp783
g12
S'word: full, index: 6'
p784
sbatp785
Rp786
(dp787
g12
Vprep
p788
sbag0
(g1
g2
(lp789
g0
(g1
g2
(lp790
g0
(g1
g2
(lp791
(lp792
S'word: up, index: 8'
p793
aatp794
Rp795
(dp796
g12
Vprt
p797
sbatp798
Rp799
(dp800
g12
S'word: make, index: 7'
p801
sbatp802
Rp803
(dp804
g12
Vccomp
p805
sbatp806
Rp807
(dp808
g12
S"word: 's, index: 3"
p809
sbatp810
Rp811
(dp812
g12
S'id: 8'
p813
sbag0
(g1
g2
(lp814
g0
(g1
g2
(lp815
g0
(g1
g2
(lp816
g0
(g1
g2
(lp817
g0
(g1
g2
(lp818
(lp819
S'word: to, index: 11'
p820
aatp821
Rp822
(dp823
g12
Vaux
p824
sbag0
(g1
g2
(lp825
g0
(g1
g2
(lp826
g0
(g1
g2
(lp827
(lp828
S'word: it, index: 13'
p829
aatp830
Rp831
(dp832
g12
Vnsubj
p833
sbag0
(g1
g2
(lp834
g0
(g1
g2
(lp835
g0
(g1
g2
(lp836
(lp837
S'word: them, index: 15'
p838
aatp839
Rp840
(dp841
g12
Vnsubj
p842
sbag0
(g1
g2
(lp843
g0
(g1
g2
(lp844
g0
(g1
g2
(lp845
(lp846
S'word: that, index: 17'
p847
aatp848
Rp849
(dp850
g12
Vmark
p851
sbag0
(g1
g2
(lp852
(lp853
S'word: it, index: 18'
p854
aatp855
Rp856
(dp857
g12
Vnsubj
p858
sbag0
(g1
g2
(lp859
(lp860
S"word: 's, index: 19"
p861
aatp862
Rp863
(dp864
g12
Vcop
p865
sbatp866
Rp867
(dp868
g12
S'word: water, index: 20'
p869
sbatp870
Rp871
(dp872
g12
Vccomp
p873
sbatp874
Rp875
(dp876
g12
S'word: think, index: 16'
p877
sbatp878
Rp879
(dp880
g12
Vccomp
p881
sbatp882
Rp883
(dp884
g12
S'word: look, index: 14'
p885
sbatp886
Rp887
(dp888
g12
Vccomp
p889
sbatp890
Rp891
(dp892
g12
S'word: make, index: 12'
p893
sbatp894
Rp895
(dp896
g12
Vvmod
p897
sbag0
(g1
g2
(lp898
g0
(g1
g2
(lp899
g0
(g1
g2
(lp900
g0
(g1
g2
(lp901
g0
(g1
g2
(lp902
(lp903
S'word: the, index: 4'
p904
aatp905
Rp906
(dp907
g12
Vdet
p908
sbatp909
Rp910
(dp911
g12
S'word: kids, index: 5'
p912
sbatp913
Rp914
(dp915
g12
Vprep
p916
sbag0
(g1
g2
(lp917
g0
(g1
g2
(lp918
g0
(g1
g2
(lp919
(lp920
S'word: paper, index: 10'
p921
aatp922
Rp923
(dp924
g12
Vprep
p925
sbatp926
Rp927
(dp928
g12
S'word: pieces, index: 8'
p929
sbatp930
Rp931
(dp932
g12
Vconj
p933
sbatp934
Rp935
(dp936
g12
S'word: water, index: 2'
p937
sbatp938
Rp939
(dp940
g12
Vdobj
p941
sbag0
(g1
g2
(lp942
g927
atp943
Rp944
(dp945
g12
Vdobj
p946
sbatp947
Rp948
(dp949
g12
S'word: Throwing, index: 1'
p950
sbatp951
Rp952
(dp953
g12
S'id: 9'
p954
sbag0
(g1
g2
(lp955
g0
(g1
g2
(lp956
g0
(g1
g2
(lp957
g0
(g1
g2
(lp958
g0
(g1
g2
(lp959
(lp960
S'word: two, index: 15'
p961
aatp962
Rp963
(dp964
g12
Vnum
p965
sbatp966
Rp967
(dp968
g12
S'word: parents, index: 16'
p969
sbatp970
Rp971
(dp972
g12
Vnsubj
p973
sbag0
(g1
g2
(lp974
(lp975
S'word: There, index: 1'
p976
aatp977
Rp978
(dp979
g12
Vexpl
p980
sbag0
(g1
g2
(lp981
g0
(g1
g2
(lp982
g0
(g1
g2
(lp983
g967
atp984
Rp985
(dp986
g12
Vconj
p987
sbag0
(g1
g2
(lp988
g0
(g1
g2
(lp989
g0
(g1
g2
(lp990
(lp991
S'word: two, index: 5'
p992
aatp993
Rp994
(dp995
g12
Vnum
p996
sbatp997
Rp998
(dp999
g12
S'word: three, index: 6'
p1000
sbatp1001
Rp1002
(dp1003
g12
Vappos
p1004
sbag0
(g1
g2
(lp1005
g0
(g1
g2
(lp1006
g0
(g1
g2
(lp1007
(lp1008
S'word: three, index: 8'
p1009
aatp1010
Rp1011
(dp1012
g12
Vnum
p1013
sbag0
(g1
g2
(lp1014
g0
(g1
g2
(lp1015
g0
(g1
g2
(lp1016
(lp1017
S'word: the, index: 11'
p1018
aatp1019
Rp1020
(dp1021
g12
Vdet
p1022
sbatp1023
Rp1024
(dp1025
g12
S'word: forefront, index: 12'
p1026
sbatp1027
Rp1028
(dp1029
g12
Vprep
p1030
sbatp1031
Rp1032
(dp1033
g12
S'word: kids, index: 9'
p1034
sbatp1035
Rp1036
(dp1037
g12
Vconj
p1038
sbatp1039
Rp1040
(dp1041
g12
S'word: one, index: 3'
p1042
sbatp1043
Rp1044
(dp1045
g12
Vnsubj
p1046
sbag0
(g1
g2
(lp1047
g1032
atp1048
Rp1049
(dp1050
g12
Vnsubj
p1051
sbatp1052
Rp1053
(dp1054
g12
S"word: 's, index: 2"
p1055
sbatp1056
Rp1057
(dp1058
g12
S'id: 10'
p1059
sbag0
(g1
g2
(lp1060
g0
(g1
g2
(lp1061
g0
(g1
g2
(lp1062
g0
(g1
g2
(lp1063
g0
(g1
g2
(lp1064
(lp1065
S'word: his, index: 17'
p1066
aatp1067
Rp1068
(dp1069
g12
Vposs
p1070
sbatp1071
Rp1072
(dp1073
g12
S'word: thing, index: 18'
p1074
sbatp1075
Rp1076
(dp1077
g12
Vdobj
p1078
sbag0
(g1
g2
(lp1079
g0
(g1
g2
(lp1080
g0
(g1
g2
(lp1081
(lp1082
S'word: Than, index: 1'
p1083
aatp1084
Rp1085
(dp1086
g12
Vmark
p1087
sbag0
(g1
g2
(lp1088
(lp1089
S'word: there, index: 2'
p1090
aatp1091
Rp1092
(dp1093
g12
Vexpl
p1094
sbag0
(g1
g2
(lp1095
(lp1096
S'word: also, index: 4'
p1097
aatp1098
Rp1099
(dp1100
g12
Vadvmod
p1101
sbag0
(g1
g2
(lp1102
g0
(g1
g2
(lp1103
g0
(g1
g2
(lp1104
(lp1105
S'word: several, index: 5'
p1106
aatp1107
Rp1108
(dp1109
g12
Vamod
p1110
sbag0
(g1
g2
(lp1111
g0
(g1
g2
(lp1112
g0
(g1
g2
(lp1113
(lp1114
S'word: the, index: 8'
p1115
aatp1116
Rp1117
(dp1118
g12
Vdet
p1119
sbag0
(g1
g2
(lp1120
(lp1121
S'word: back, index: 9'
p1122
aatp1123
Rp1124
(dp1125
g12
Vamod
p1126
sbag0
(g1
g2
(lp1127
g0
(g1
g2
(lp1128
g0
(g1
g2
(lp1129
g0
(g1
g2
(lp1130
g0
(g1
g2
(lp1131
(lp1132
S'word: the, index: 12'
p1133
aatp1134
Rp1135
(dp1136
g12
Vdet
p1137
sbag0
(g1
g2
(lp1138
(lp1139
S'word: high, index: 13'
p1140
aatp1141
Rp1142
(dp1143
g12
Vamod
p1144
sbag0
(g1
g2
(lp1145
(lp1146
S'word: wire, index: 14'
p1147
aatp1148
Rp1149
(dp1150
g12
Vnn
p1151
sbatp1152
Rp1153
(dp1154
g12
S'word: guy, index: 15'
p1155
sbatp1156
Rp1157
(dp1158
g12
Vdobj
p1159
sbatp1160
Rp1161
(dp1162
g12
S'word: watching, index: 11'
p1163
sbatp1164
Rp1165
(dp1166
g12
Vvmod
p1167
sbatp1168
Rp1169
(dp1170
g12
S'word: ground, index: 10'
p1171
sbatp1172
Rp1173
(dp1174
g12
Vprep
p1175
sbatp1176
Rp1177
(dp1178
g12
S'word: people, index: 6'
p1179
sbatp1180
Rp1181
(dp1182
g12
Vnsubj
p1183
sbatp1184
Rp1185
(dp1186
g12
S"word: 's, index: 3"
p1187
sbatp1188
Rp1189
(dp1190
g12
Vnsubj
p1191
sbatp1192
Rp1193
(dp1194
g12
S'word: do, index: 16'
p1195
sbatp1196
Rp1197
(dp1198
g12
S'id: 11'
p1199
sbag0
(g1
g2
(lp1200
g0
(g1
g2
(lp1201
g0
(g1
g2
(lp1202
g0
(g1
g2
(lp1203
g0
(g1
g2
(lp1204
(lp1205
S'word: the, index: 4'
p1206
aatp1207
Rp1208
(dp1209
g12
Vdet
p1210
sbatp1211
Rp1212
(dp1213
g12
S'word: front, index: 5'
p1214
sbatp1215
Rp1216
(dp1217
g12
Vprep
p1218
sbag0
(g1
g2
(lp1219
(lp1220
S'word: The, index: 1'
p1221
aatp1222
Rp1223
(dp1224
g12
Vdet
p1225
sbatp1226
Rp1227
(dp1228
g12
S'word: clown, index: 2'
p1229
sbatp1230
Rp1231
(dp1232
g12
S'id: 12'
p1233
sbatp1234
Rp1235
(dp1236
g12
S'sentences'
p1237
sb.