ccopy_reg
_reconstructor
p0
(cnltk.tree
Tree
p1
c__builtin__
list
p2
(lp3
g0
(g1
g2
(lp4
g0
(g1
g2
(lp5
g0
(g1
g2
(lp6
g0
(g1
g2
(lp7
g0
(g1
g2
(lp8
VMother
p9
atp10
Rp11
(dp12
S'_label'
p13
VNNP
p14
sbatp15
Rp16
(dp17
g13
VNP
p18
sbag0
(g1
g2
(lp19
g0
(g1
g2
(lp20
Vwashes
p21
atp22
Rp23
(dp24
g13
VVBZ
p25
sbag0
(g1
g2
(lp26
g0
(g1
g2
(lp27
Vdishes
p28
atp29
Rp30
(dp31
g13
VNNS
p32
sbatp33
Rp34
(dp35
g13
VNP
p36
sbatp37
Rp38
(dp39
g13
VVP
p40
sbatp41
Rp42
(dp43
g13
VS
p44
sbag0
(g1
g2
(lp45
V,
p46
atp47
Rp48
(dp49
g13
V,
p50
sbag0
(g1
g2
(lp51
g0
(g1
g2
(lp52
Vlets
p53
atp54
Rp55
(dp56
g13
VVBZ
p57
sbatp58
Rp59
(dp60
g13
VVP
p61
sbag0
(g1
g2
(lp62
g0
(g1
g2
(lp63
g0
(g1
g2
(lp64
Vthe
p65
atp66
Rp67
(dp68
g13
VDT
p69
sbag0
(g1
g2
(lp70
Vwater
p71
atp72
Rp73
(dp74
g13
VNN
p75
sbag0
(g1
g2
(lp76
Vdrip
p77
atp78
Rp79
(dp80
g13
VNN
p81
sbatp82
Rp83
(dp84
g13
VNP
p85
sbag0
(g1
g2
(lp86
V,
p87
atp88
Rp89
(dp90
g13
V,
p91
sbag0
(g1
g2
(lp92
g0
(g1
g2
(lp93
g0
(g1
g2
(lp94
Vdrip
p95
atp96
Rp97
(dp98
g13
VNN
p99
sbatp100
Rp101
(dp102
g13
VNP
p103
sbag0
(g1
g2
(lp104
g0
(g1
g2
(lp105
Von
p106
atp107
Rp108
(dp109
g13
VIN
p110
sbag0
(g1
g2
(lp111
g0
(g1
g2
(lp112
Vthe
p113
atp114
Rp115
(dp116
g13
VDT
p117
sbag0
(g1
g2
(lp118
Vfloor
p119
atp120
Rp121
(dp122
g13
VNN
p123
sbatp124
Rp125
(dp126
g13
VNP
p127
sbatp128
Rp129
(dp130
g13
VPP
p131
sbatp132
Rp133
(dp134
g13
VNP
p135
sbatp136
Rp137
(dp138
g13
VNP
p139
sbag0
(g1
g2
(lp140
V.
p141
atp142
Rp143
(dp144
g13
V.
p145
sbatp146
Rp147
(dp148
g13
VSINV
p149
sbatp150
Rp151
(dp152
g13
S'id: 0'
p153
sbag0
(g1
g2
(lp154
g0
(g1
g2
(lp155
g0
(g1
g2
(lp156
VAnd
p157
atp158
Rp159
(dp160
g13
VCC
p161
sbag0
(g1
g2
(lp162
V,
p163
atp164
Rp165
(dp166
g13
V,
p167
sbag0
(g1
g2
(lp168
g0
(g1
g2
(lp169
Vand
p170
atp171
Rp172
(dp173
g13
VCC
p174
sbag0
(g1
g2
(lp175
g0
(g1
g2
(lp176
g0
(g1
g2
(lp177
Vthe
p178
atp179
Rp180
(dp181
g13
VDT
p182
sbag0
(g1
g2
(lp183
Vtwo
p184
atp185
Rp186
(dp187
g13
VCD
p188
sbag0
(g1
g2
(lp189
Vkids
p190
atp191
Rp192
(dp193
g13
VNNS
p194
sbatp195
Rp196
(dp197
g13
VNP
p198
sbag0
(g1
g2
(lp199
g0
(g1
g2
(lp200
Vare
p201
atp202
Rp203
(dp204
g13
VVBP
p205
sbag0
(g1
g2
(lp206
g0
(g1
g2
(lp207
Vgetting
p208
atp209
Rp210
(dp211
g13
VVBG
p212
sbag0
(g1
g2
(lp213
g0
(g1
g2
(lp214
Vin
p215
atp216
Rp217
(dp218
g13
VIN
p219
sbag0
(g1
g2
(lp220
g0
(g1
g2
(lp221
Vto
p222
atp223
Rp224
(dp225
g13
VTO
p226
sbag0
(g1
g2
(lp227
g0
(g1
g2
(lp228
g0
(g1
g2
(lp229
Vthe
p230
atp231
Rp232
(dp233
g13
VDT
p234
sbag0
(g1
g2
(lp235
Vcookie
p236
atp237
Rp238
(dp239
g13
VNN
p240
sbag0
(g1
g2
(lp241
Vjar
p242
atp243
Rp244
(dp245
g13
VNN
p246
sbatp247
Rp248
(dp249
g13
VNP
p250
sbag0
(g1
g2
(lp251
V,
p252
atp253
Rp254
(dp255
g13
V,
p256
sbag0
(g1
g2
(lp257
Vand
p258
atp259
Rp260
(dp261
g13
VCC
p262
sbag0
(g1
g2
(lp263
g0
(g1
g2
(lp264
Vtheir
p265
atp266
Rp267
(dp268
g13
VPRP$
p269
sbag0
(g1
g2
(lp270
g0
(g1
g2
(lp271
g0
(g1
g2
(lp272
Vone
p273
atp274
Rp275
(dp276
g13
VCD
p277
sbatp278
Rp279
(dp280
g13
VNP
p281
sbag0
(g1
g2
(lp282
g0
(g1
g2
(lp283
Vof
p284
atp285
Rp286
(dp287
g13
VIN
p288
sbag0
(g1
g2
(lp289
g0
(g1
g2
(lp290
g0
(g1
g2
(lp291
Vthe
p292
atp293
Rp294
(dp295
g13
VDT
p296
sbag0
(g1
g2
(lp297
Vguy
p298
atp299
Rp300
(dp301
g13
VNN
p302
sbatp303
Rp304
(dp305
g13
VNP
p306
sbag0
(g1
g2
(lp307
g0
(g1
g2
(lp308
Von
p309
atp310
Rp311
(dp312
g13
VIN
p313
sbag0
(g1
g2
(lp314
g0
(g1
g2
(lp315
Vthe
p316
atp317
Rp318
(dp319
g13
VDT
p320
sbag0
(g1
g2
(lp321
Vstool
p322
atp323
Rp324
(dp325
g13
VNN
p326
sbatp327
Rp328
(dp329
g13
VNP
p330
sbatp331
Rp332
(dp333
g13
VPP
p334
sbatp335
Rp336
(dp337
g13
VNP
p338
sbatp339
Rp340
(dp341
g13
VPP
p342
sbatp343
Rp344
(dp345
g13
VNP
p346
sbatp347
Rp348
(dp349
g13
VNP
p350
sbatp351
Rp352
(dp353
g13
VNP
p354
sbatp355
Rp356
(dp357
g13
VPP
p358
sbatp359
Rp360
(dp361
g13
VPP
p362
sbatp363
Rp364
(dp365
g13
VVP
p366
sbatp367
Rp368
(dp369
g13
VVP
p370
sbatp371
Rp372
(dp373
g13
VS
p374
sbatp375
Rp376
(dp377
g13
VS
p378
sbag0
(g1
g2
(lp379
g0
(g1
g2
(lp380
Vis
p381
atp382
Rp383
(dp384
g13
VVBZ
p385
sbag0
(g1
g2
(lp386
g0
(g1
g2
(lp387
Vletting
p388
atp389
Rp390
(dp391
g13
VVBG
p392
sbag0
(g1
g2
(lp393
g0
(g1
g2
(lp394
g0
(g1
g2
(lp395
Vit
p396
atp397
Rp398
(dp399
g13
VPRP
p400
sbatp401
Rp402
(dp403
g13
VNP
p404
sbag0
(g1
g2
(lp405
g0
(g1
g2
(lp406
Vdrop
p407
atp408
Rp409
(dp410
g13
VVB
p411
sbag0
(g1
g2
(lp412
g0
(g1
g2
(lp413
Vover
p414
atp415
Rp416
(dp417
g13
VRP
p418
sbatp419
Rp420
(dp421
g13
VPRT
p422
sbatp423
Rp424
(dp425
g13
VVP
p426
sbatp427
Rp428
(dp429
g13
VS
p430
sbatp431
Rp432
(dp433
g13
VVP
p434
sbatp435
Rp436
(dp437
g13
VVP
p438
sbag0
(g1
g2
(lp439
V.
p440
atp441
Rp442
(dp443
g13
V.
p444
sbatp445
Rp446
(dp447
g13
VS
p448
sbatp449
Rp450
(dp451
g13
S'id: 1'
p452
sbag0
(g1
g2
(lp453
g0
(g1
g2
(lp454
g0
(g1
g2
(lp455
g0
(g1
g2
(lp456
VAnd
p457
atp458
Rp459
(dp460
g13
VCC
p461
sbag0
(g1
g2
(lp462
g0
(g1
g2
(lp463
Vthat
p464
atp465
Rp466
(dp467
g13
VDT
p468
sbatp469
Rp470
(dp471
g13
VNP
p472
sbag0
(g1
g2
(lp473
g0
(g1
g2
(lp474
V's
p475
atp476
Rp477
(dp478
g13
VVBZ
p479
sbag0
(g1
g2
(lp480
g0
(g1
g2
(lp481
Vit
p482
atp483
Rp484
(dp485
g13
VPRP
p486
sbatp487
Rp488
(dp489
g13
VNP
p490
sbatp491
Rp492
(dp493
g13
VVP
p494
sbatp495
Rp496
(dp497
g13
VS
p498
sbag0
(g1
g2
(lp499
V,
p500
atp501
Rp502
(dp503
g13
V,
p504
sbag0
(g1
g2
(lp505
g0
(g1
g2
(lp506
Vthat
p507
atp508
Rp509
(dp510
g13
VDT
p511
sbatp512
Rp513
(dp514
g13
VNP
p515
sbag0
(g1
g2
(lp516
g0
(g1
g2
(lp517
V's
p518
atp519
Rp520
(dp521
g13
VVBZ
p522
sbag0
(g1
g2
(lp523
g0
(g1
g2
(lp524
g0
(g1
g2
(lp525
g0
(g1
g2
(lp526
Vall
p527
atp528
Rp529
(dp530
g13
VDT
p531
sbag0
(g1
g2
(lp532
Vi
p533
atp534
Rp535
(dp536
g13
VFW
p537
sbatp538
Rp539
(dp540
g13
VNP
p541
sbag0
(g1
g2
(lp542
g0
(g1
g2
(lp543
Vcan
p544
atp545
Rp546
(dp547
g13
VMD
p548
sbag0
(g1
g2
(lp549
g0
(g1
g2
(lp550
Vsee
p551
atp552
Rp553
(dp554
g13
VVB
p555
sbatp556
Rp557
(dp558
g13
VVP
p559
sbatp560
Rp561
(dp562
g13
VVP
p563
sbatp564
Rp565
(dp566
g13
VS
p567
sbatp568
Rp569
(dp570
g13
VSBAR
p571
sbatp572
Rp573
(dp574
g13
VVP
p575
sbag0
(g1
g2
(lp576
V.
p577
atp578
Rp579
(dp580
g13
V.
p581
sbatp582
Rp583
(dp584
g13
VS
p585
sbatp586
Rp587
(dp588
g13
S'id: 2'
p589
sbag0
(g1
g2
(lp590
g0
(g1
g2
(lp591
g0
(g1
g2
(lp592
g0
(g1
g2
(lp593
g0
(g1
g2
(lp594
Vwell
p595
atp596
Rp597
(dp598
g13
VRB
p599
sbatp600
Rp601
(dp602
g13
VADVP
p603
sbag0
(g1
g2
(lp604
g0
(g1
g2
(lp605
Vlet
p606
atp607
Rp608
(dp609
g13
VVB
p610
sbag0
(g1
g2
(lp611
g0
(g1
g2
(lp612
g0
(g1
g2
(lp613
V's
p614
atp615
Rp616
(dp617
g13
VPOS
p618
sbatp619
Rp620
(dp621
g13
VNP
p622
sbag0
(g1
g2
(lp623
g0
(g1
g2
(lp624
Vsee
p625
atp626
Rp627
(dp628
g13
VVB
p629
sbatp630
Rp631
(dp632
g13
VVP
p633
sbatp634
Rp635
(dp636
g13
VS
p637
sbatp638
Rp639
(dp640
g13
VVP
p641
sbatp642
Rp643
(dp644
g13
VS
p645
sbag0
(g1
g2
(lp646
V,
p647
atp648
Rp649
(dp650
g13
V,
p651
sbag0
(g1
g2
(lp652
g0
(g1
g2
(lp653
Vthere
p654
atp655
Rp656
(dp657
g13
VEX
p658
sbatp659
Rp660
(dp661
g13
VNP
p662
sbag0
(g1
g2
(lp663
g0
(g1
g2
(lp664
Vare
p665
atp666
Rp667
(dp668
g13
VVBP
p669
sbag0
(g1
g2
(lp670
g0
(g1
g2
(lp671
g0
(g1
g2
(lp672
Vsome
p673
atp674
Rp675
(dp676
g13
VDT
p677
sbag0
(g1
g2
(lp678
Vdishes
p679
atp680
Rp681
(dp682
g13
VNNS
p683
sbatp684
Rp685
(dp686
g13
VNP
p687
sbag0
(g1
g2
(lp688
g0
(g1
g2
(lp689
Von
p690
atp691
Rp692
(dp693
g13
VIN
p694
sbag0
(g1
g2
(lp695
g0
(g1
g2
(lp696
g0
(g1
g2
(lp697
Vthe
p698
atp699
Rp700
(dp701
g13
VDT
p702
sbag0
(g1
g2
(lp703
Vcupboard
p704
atp705
Rp706
(dp707
g13
VNN
p708
sbatp709
Rp710
(dp711
g13
VNP
p712
sbag0
(g1
g2
(lp713
V,
p714
atp715
Rp716
(dp717
g13
V,
p718
sbag0
(g1
g2
(lp719
g0
(g1
g2
(lp720
g0
(g1
g2
(lp721
Vthat
p722
atp723
Rp724
(dp725
g13
VWDT
p726
sbatp727
Rp728
(dp729
g13
VWHNP
p730
sbag0
(g1
g2
(lp731
g0
(g1
g2
(lp732
g0
(g1
g2
(lp733
Vwould
p734
atp735
Rp736
(dp737
g13
VMD
p738
sbag0
(g1
g2
(lp739
g0
(g1
g2
(lp740
Vbe
p741
atp742
Rp743
(dp744
g13
VVB
p745
sbag0
(g1
g2
(lp746
g0
(g1
g2
(lp747
Vhelpful
p748
atp749
Rp750
(dp751
g13
VJJ
p752
sbatp753
Rp754
(dp755
g13
VADJP
p756
sbatp757
Rp758
(dp759
g13
VVP
p760
sbatp761
Rp762
(dp763
g13
VVP
p764
sbatp765
Rp766
(dp767
g13
VS
p768
sbatp769
Rp770
(dp771
g13
VSBAR
p772
sbatp773
Rp774
(dp775
g13
VNP
p776
sbatp777
Rp778
(dp779
g13
VPP
p780
sbatp781
Rp782
(dp783
g13
VNP
p784
sbatp785
Rp786
(dp787
g13
VVP
p788
sbag0
(g1
g2
(lp789
V.
p790
atp791
Rp792
(dp793
g13
V.
p794
sbatp795
Rp796
(dp797
g13
VS
p798
sbatp799
Rp800
(dp801
g13
S'id: 3'
p802
sbag0
(g1
g2
(lp803
g0
(g1
g2
(lp804
g0
(g1
g2
(lp805
VAnd
p806
atp807
Rp808
(dp809
g13
VCC
p810
sbag0
(g1
g2
(lp811
g0
(g1
g2
(lp812
Vyou
p813
atp814
Rp815
(dp816
g13
VPRP
p817
sbatp818
Rp819
(dp820
g13
VNP
p821
sbag0
(g1
g2
(lp822
g0
(g1
g2
(lp823
Vcan
p824
atp825
Rp826
(dp827
g13
VMD
p828
sbag0
(g1
g2
(lp829
g0
(g1
g2
(lp830
Vsee
p831
atp832
Rp833
(dp834
g13
VVB
p835
sbag0
(g1
g2
(lp836
g0
(g1
g2
(lp837
Va
p838
atp839
Rp840
(dp841
g13
VDT
p842
sbag0
(g1
g2
(lp843
Vscene
p844
atp845
Rp846
(dp847
g13
VNN
p848
sbatp849
Rp850
(dp851
g13
VNP
p852
sbag0
(g1
g2
(lp853
g0
(g1
g2
(lp854
Voutside
p855
atp856
Rp857
(dp858
g13
VIN
p859
sbatp860
Rp861
(dp862
g13
VADVP
p863
sbatp864
Rp865
(dp866
g13
VVP
p867
sbatp868
Rp869
(dp870
g13
VVP
p871
sbag0
(g1
g2
(lp872
V.
p873
atp874
Rp875
(dp876
g13
V.
p877
sbatp878
Rp879
(dp880
g13
VS
p881
sbatp882
Rp883
(dp884
g13
S'id: 4'
p885
sbag0
(g1
g2
(lp886
g0
(g1
g2
(lp887
g0
(g1
g2
(lp888
VAnd
p889
atp890
Rp891
(dp892
g13
VCC
p893
sbag0
(g1
g2
(lp894
g0
(g1
g2
(lp895
Vthere
p896
atp897
Rp898
(dp899
g13
VEX
p900
sbatp901
Rp902
(dp903
g13
VNP
p904
sbag0
(g1
g2
(lp905
g0
(g1
g2
(lp906
V's
p907
atp908
Rp909
(dp910
g13
VVBZ
p911
sbag0
(g1
g2
(lp912
g0
(g1
g2
(lp913
g0
(g1
g2
(lp914
Vcurtains
p915
atp916
Rp917
(dp918
g13
VNNS
p919
sbatp920
Rp921
(dp922
g13
VNP
p923
sbag0
(g1
g2
(lp924
g0
(g1
g2
(lp925
Von
p926
atp927
Rp928
(dp929
g13
VIN
p930
sbag0
(g1
g2
(lp931
g0
(g1
g2
(lp932
Vthe
p933
atp934
Rp935
(dp936
g13
VDT
p937
sbag0
(g1
g2
(lp938
Vwindow
p939
atp940
Rp941
(dp942
g13
VNN
p943
sbatp944
Rp945
(dp946
g13
VNP
p947
sbatp948
Rp949
(dp950
g13
VPP
p951
sbatp952
Rp953
(dp954
g13
VNP
p955
sbatp956
Rp957
(dp958
g13
VVP
p959
sbag0
(g1
g2
(lp960
V.
p961
atp962
Rp963
(dp964
g13
V.
p965
sbatp966
Rp967
(dp968
g13
VS
p969
sbatp970
Rp971
(dp972
g13
S'id: 5'
p973
sbag0
(g1
g2
(lp974
g0
(g1
g2
(lp975
g0
(g1
g2
(lp976
VAnd
p977
atp978
Rp979
(dp980
g13
VCC
p981
sbag0
(g1
g2
(lp982
g0
(g1
g2
(lp983
g0
(g1
g2
(lp984
Vthere
p985
atp986
Rp987
(dp988
g13
VEX
p989
sbatp990
Rp991
(dp992
g13
VNP
p993
sbag0
(g1
g2
(lp994
g0
(g1
g2
(lp995
V's
p996
atp997
Rp998
(dp999
g13
VVBZ
p1000
sbag0
(g1
g2
(lp1001
g0
(g1
g2
(lp1002
g0
(g1
g2
(lp1003
Vdrapes
p1004
atp1005
Rp1006
(dp1007
g13
VNNS
p1008
sbatp1009
Rp1010
(dp1011
g13
VNP
p1012
sbag0
(g1
g2
(lp1013
g0
(g1
g2
(lp1014
Von
p1015
atp1016
Rp1017
(dp1018
g13
VIN
p1019
sbag0
(g1
g2
(lp1020
g0
(g1
g2
(lp1021
Vthe
p1022
atp1023
Rp1024
(dp1025
g13
VDT
p1026
sbatp1027
Rp1028
(dp1029
g13
VNP
p1030
sbatp1031
Rp1032
(dp1033
g13
VPP
p1034
sbatp1035
Rp1036
(dp1037
g13
VNP
p1038
sbatp1039
Rp1040
(dp1041
g13
VVP
p1042
sbatp1043
Rp1044
(dp1045
g13
VS
p1046
sbag0
(g1
g2
(lp1047
V,
p1048
atp1049
Rp1050
(dp1051
g13
V,
p1052
sbag0
(g1
g2
(lp1053
g0
(g1
g2
(lp1054
g0
(g1
g2
(lp1055
VI
p1056
atp1057
Rp1058
(dp1059
g13
VPRP
p1060
sbatp1061
Rp1062
(dp1063
g13
VNP
p1064
sbag0
(g1
g2
(lp1065
g0
(g1
g2
(lp1066
Vmean
p1067
atp1068
Rp1069
(dp1070
g13
VVBP
p1071
sbatp1072
Rp1073
(dp1074
g13
VVP
p1075
sbatp1076
Rp1077
(dp1078
g13
VS
p1079
sbag0
(g1
g2
(lp1080
V,
p1081
atp1082
Rp1083
(dp1084
g13
V,
p1085
sbag0
(g1
g2
(lp1086
g0
(g1
g2
(lp1087
g0
(g1
g2
(lp1088
g0
(g1
g2
(lp1089
Vstuff
p1090
atp1091
Rp1092
(dp1093
g13
VVBP
p1094
sbag0
(g1
g2
(lp1095
g0
(g1
g2
(lp1096
Von
p1097
atp1098
Rp1099
(dp1100
g13
VIN
p1101
sbag0
(g1
g2
(lp1102
g0
(g1
g2
(lp1103
Vthe
p1104
atp1105
Rp1106
(dp1107
g13
VDT
p1108
sbag0
(g1
g2
(lp1109
Vflower
p1110
atp1111
Rp1112
(dp1113
g13
VNN
p1114
sbag0
(g1
g2
(lp1115
Vbeds
p1116
atp1117
Rp1118
(dp1119
g13
VNNS
p1120
sbatp1121
Rp1122
(dp1123
g13
VNP
p1124
sbatp1125
Rp1126
(dp1127
g13
VPP
p1128
sbatp1129
Rp1130
(dp1131
g13
VVP
p1132
sbatp1133
Rp1134
(dp1135
g13
VS
p1136
sbatp1137
Rp1138
(dp1139
g13
VSBAR
p1140
sbag0
(g1
g2
(lp1141
V.
p1142
atp1143
Rp1144
(dp1145
g13
V.
p1146
sbatp1147
Rp1148
(dp1149
g13
VS
p1150
sbatp1151
Rp1152
(dp1153
g13
S'id: 6'
p1154
sbag0
(g1
g2
(lp1155
g0
(g1
g2
(lp1156
g0
(g1
g2
(lp1157
g0
(g1
g2
(lp1158
VWhatever
p1159
atp1160
Rp1161
(dp1162
g13
VWDT
p1163
sbatp1164
Rp1165
(dp1166
g13
VNP
p1167
sbag0
(g1
g2
(lp1168
g0
(g1
g2
(lp1169
g0
(g1
g2
(lp1170
g0
(g1
g2
(lp1171
g0
(g1
g2
(lp1172
Vyou
p1173
atp1174
Rp1175
(dp1176
g13
VPRP
p1177
sbatp1178
Rp1179
(dp1180
g13
VNP
p1181
sbag0
(g1
g2
(lp1182
g0
(g1
g2
(lp1183
Vwant
p1184
atp1185
Rp1186
(dp1187
g13
VVBP
p1188
sbatp1189
Rp1190
(dp1191
g13
VVP
p1192
sbatp1193
Rp1194
(dp1195
g13
VS
p1196
sbag0
(g1
g2
(lp1197
V,
p1198
atp1199
Rp1200
(dp1201
g13
V,
p1202
sbag0
(g1
g2
(lp1203
Vbut
p1204
atp1205
Rp1206
(dp1207
g13
VCC
p1208
sbag0
(g1
g2
(lp1209
g0
(g1
g2
(lp1210
g0
(g1
g2
(lp1211
Vthere
p1212
atp1213
Rp1214
(dp1215
g13
VEX
p1216
sbatp1217
Rp1218
(dp1219
g13
VNP
p1220
sbag0
(g1
g2
(lp1221
g0
(g1
g2
(lp1222
V's
p1223
atp1224
Rp1225
(dp1226
g13
VVBZ
p1227
sbag0
(g1
g2
(lp1228
g0
(g1
g2
(lp1229
Vflowers
p1230
atp1231
Rp1232
(dp1233
g13
VNNS
p1234
sbatp1235
Rp1236
(dp1237
g13
VNP
p1238
sbatp1239
Rp1240
(dp1241
g13
VVP
p1242
sbatp1243
Rp1244
(dp1245
g13
VS
p1246
sbatp1247
Rp1248
(dp1249
g13
VS
p1250
sbag0
(g1
g2
(lp1251
V,
p1252
atp1253
Rp1254
(dp1255
g13
V,
p1256
sbatp1257
Rp1258
(dp1259
g13
VPRN
p1260
sbag0
(g1
g2
(lp1261
g0
(g1
g2
(lp1262
Vcan
p1263
atp1264
Rp1265
(dp1266
g13
VMD
p1267
sbag0
(g1
g2
(lp1268
g0
(g1
g2
(lp1269
Vbe
p1270
atp1271
Rp1272
(dp1273
g13
VVB
p1274
sbag0
(g1
g2
(lp1275
g0
(g1
g2
(lp1276
Vthere
p1277
atp1278
Rp1279
(dp1280
g13
VRB
p1281
sbatp1282
Rp1283
(dp1284
g13
VADVP
p1285
sbatp1286
Rp1287
(dp1288
g13
VVP
p1289
sbatp1290
Rp1291
(dp1292
g13
VVP
p1293
sbag0
(g1
g2
(lp1294
V.
p1295
atp1296
Rp1297
(dp1298
g13
V.
p1299
sbatp1300
Rp1301
(dp1302
g13
VS
p1303
sbatp1304
Rp1305
(dp1306
g13
S'id: 7'
p1307
sbag0
(g1
g2
(lp1308
g0
(g1
g2
(lp1309
g0
(g1
g2
(lp1310
g0
(g1
g2
(lp1311
VThere
p1312
atp1313
Rp1314
(dp1315
g13
VEX
p1316
sbatp1317
Rp1318
(dp1319
g13
VNP
p1320
sbag0
(g1
g2
(lp1321
g0
(g1
g2
(lp1322
V's
p1323
atp1324
Rp1325
(dp1326
g13
VVBZ
p1327
sbag0
(g1
g2
(lp1328
g0
(g1
g2
(lp1329
Vcupboards
p1330
atp1331
Rp1332
(dp1333
g13
VNNS
p1334
sbatp1335
Rp1336
(dp1337
g13
VNP
p1338
sbag0
(g1
g2
(lp1339
g0
(g1
g2
(lp1340
Vthere
p1341
atp1342
Rp1343
(dp1344
g13
VRB
p1345
sbag0
(g1
g2
(lp1346
g0
(g1
g2
(lp1347
Vwith
p1348
atp1349
Rp1350
(dp1351
g13
VIN
p1352
sbag0
(g1
g2
(lp1353
g0
(g1
g2
(lp1354
Vdoors
p1355
atp1356
Rp1357
(dp1358
g13
VNNS
p1359
sbatp1360
Rp1361
(dp1362
g13
VNP
p1363
sbatp1364
Rp1365
(dp1366
g13
VPP
p1367
sbatp1368
Rp1369
(dp1370
g13
VADVP
p1371
sbatp1372
Rp1373
(dp1374
g13
VVP
p1375
sbag0
(g1
g2
(lp1376
V.
p1377
atp1378
Rp1379
(dp1380
g13
V.
p1381
sbatp1382
Rp1383
(dp1384
g13
VS
p1385
sbatp1386
Rp1387
(dp1388
g13
S'id: 8'
p1389
sbag0
(g1
g2
(lp1390
g0
(g1
g2
(lp1391
g0
(g1
g2
(lp1392
VAnd
p1393
atp1394
Rp1395
(dp1396
g13
VCC
p1397
sbag0
(g1
g2
(lp1398
g0
(g1
g2
(lp1399
g0
(g1
g2
(lp1400
Vthe
p1401
atp1402
Rp1403
(dp1404
g13
VDT
p1405
sbag0
(g1
g2
(lp1406
Vlittle
p1407
atp1408
Rp1409
(dp1410
g13
VJJ
p1411
sbag0
(g1
g2
(lp1412
Vboy
p1413
atp1414
Rp1415
(dp1416
g13
VNN
p1417
sbatp1418
Rp1419
(dp1420
g13
VNP
p1421
sbag0
(g1
g2
(lp1422
g0
(g1
g2
(lp1423
Vhas
p1424
atp1425
Rp1426
(dp1427
g13
VVBZ
p1428
sbag0
(g1
g2
(lp1429
g0
(g1
g2
(lp1430
Vcookie
p1431
atp1432
Rp1433
(dp1434
g13
VNN
p1435
sbatp1436
Rp1437
(dp1438
g13
VNP
p1439
sbatp1440
Rp1441
(dp1442
g13
VVP
p1443
sbatp1444
Rp1445
(dp1446
g13
VS
p1447
sbag0
(g1
g2
(lp1448
V,
p1449
atp1450
Rp1451
(dp1452
g13
V,
p1453
sbag0
(g1
g2
(lp1454
Vand
p1455
atp1456
Rp1457
(dp1458
g13
VCC
p1459
sbag0
(g1
g2
(lp1460
g0
(g1
g2
(lp1461
g0
(g1
g2
(lp1462
Vhe
p1463
atp1464
Rp1465
(dp1466
g13
VPRP
p1467
sbatp1468
Rp1469
(dp1470
g13
VNP
p1471
sbag0
(g1
g2
(lp1472
g0
(g1
g2
(lp1473
V's
p1474
atp1475
Rp1476
(dp1477
g13
VVBZ
p1478
sbag0
(g1
g2
(lp1479
g0
(g1
g2
(lp1480
Vgiving
p1481
atp1482
Rp1483
(dp1484
g13
VVBG
p1485
sbag0
(g1
g2
(lp1486
g0
(g1
g2
(lp1487
Vit
p1488
atp1489
Rp1490
(dp1491
g13
VPRP
p1492
sbatp1493
Rp1494
(dp1495
g13
VNP
p1496
sbag0
(g1
g2
(lp1497
g0
(g1
g2
(lp1498
Vto
p1499
atp1500
Rp1501
(dp1502
g13
VTO
p1503
sbag0
(g1
g2
(lp1504
g0
(g1
g2
(lp1505
Vthe
p1506
atp1507
Rp1508
(dp1509
g13
VDT
p1510
sbag0
(g1
g2
(lp1511
Vsister
p1512
atp1513
Rp1514
(dp1515
g13
VNN
p1516
sbatp1517
Rp1518
(dp1519
g13
VNP
p1520
sbatp1521
Rp1522
(dp1523
g13
VPP
p1524
sbatp1525
Rp1526
(dp1527
g13
VVP
p1528
sbatp1529
Rp1530
(dp1531
g13
VVP
p1532
sbatp1533
Rp1534
(dp1535
g13
VS
p1536
sbag0
(g1
g2
(lp1537
V.
p1538
atp1539
Rp1540
(dp1541
g13
V.
p1542
sbatp1543
Rp1544
(dp1545
g13
VS
p1546
sbatp1547
Rp1548
(dp1549
g13
S'id: 9'
p1550
sbag0
(g1
g2
(lp1551
g0
(g1
g2
(lp1552
g0
(g1
g2
(lp1553
VAnd
p1554
atp1555
Rp1556
(dp1557
g13
VCC
p1558
sbag0
(g1
g2
(lp1559
g0
(g1
g2
(lp1560
Vlet
p1561
atp1562
Rp1563
(dp1564
g13
VVB
p1565
sbag0
(g1
g2
(lp1566
g0
(g1
g2
(lp1567
g0
(g1
g2
(lp1568
V's
p1569
atp1570
Rp1571
(dp1572
g13
VPOS
p1573
sbatp1574
Rp1575
(dp1576
g13
VNP
p1577
sbag0
(g1
g2
(lp1578
g0
(g1
g2
(lp1579
Vsee
p1580
atp1581
Rp1582
(dp1583
g13
VVB
p1584
sbag0
(g1
g2
(lp1585
g0
(g1
g2
(lp1586
g0
(g1
g2
(lp1587
Vwhat
p1588
atp1589
Rp1590
(dp1591
g13
VWP
p1592
sbatp1593
Rp1594
(dp1595
g13
VWHNP
p1596
sbag0
(g1
g2
(lp1597
g0
(g1
g2
(lp1598
g0
(g1
g2
(lp1599
Velse
p1600
atp1601
Rp1602
(dp1603
g13
VRB
p1604
sbag0
(g1
g2
(lp1605
Vshe
p1606
atp1607
Rp1608
(dp1609
g13
VPRP
p1610
sbatp1611
Rp1612
(dp1613
g13
VNP
p1614
sbag0
(g1
g2
(lp1615
g0
(g1
g2
(lp1616
Vhave
p1617
atp1618
Rp1619
(dp1620
g13
VVBP
p1621
sbag0
(g1
g2
(lp1622
g0
(g1
g2
(lp1623
g0
(g1
g2
(lp1624
Von
p1625
atp1626
Rp1627
(dp1628
g13
VIN
p1629
sbatp1630
Rp1631
(dp1632
g13
VPP
p1633
sbatp1634
Rp1635
(dp1636
g13
VVP
p1637
sbatp1638
Rp1639
(dp1640
g13
VVP
p1641
sbatp1642
Rp1643
(dp1644
g13
VS
p1645
sbatp1646
Rp1647
(dp1648
g13
VSBAR
p1649
sbatp1650
Rp1651
(dp1652
g13
VVP
p1653
sbatp1654
Rp1655
(dp1656
g13
VS
p1657
sbatp1658
Rp1659
(dp1660
g13
VVP
p1661
sbag0
(g1
g2
(lp1662
V.
p1663
atp1664
Rp1665
(dp1666
g13
V.
p1667
sbatp1668
Rp1669
(dp1670
g13
VS
p1671
sbatp1672
Rp1673
(dp1674
g13
S'id: 10'
p1675
sbag0
(g1
g2
(lp1676
g0
(g1
g2
(lp1677
g0
(g1
g2
(lp1678
g0
(g1
g2
(lp1679
VShe
p1680
atp1681
Rp1682
(dp1683
g13
VPRP
p1684
sbatp1685
Rp1686
(dp1687
g13
VNP
p1688
sbag0
(g1
g2
(lp1689
g0
(g1
g2
(lp1690
Vseems
p1691
atp1692
Rp1693
(dp1694
g13
VVBZ
p1695
sbag0
(g1
g2
(lp1696
g0
(g1
g2
(lp1697
Vhappy
p1698
atp1699
Rp1700
(dp1701
g13
VJJ
p1702
sbag0
(g1
g2
(lp1703
g0
(g1
g2
(lp1704
Vwith
p1705
atp1706
Rp1707
(dp1708
g13
VIN
p1709
sbag0
(g1
g2
(lp1710
g0
(g1
g2
(lp1711
g0
(g1
g2
(lp1712
Vwhat
p1713
atp1714
Rp1715
(dp1716
g13
VWP
p1717
sbatp1718
Rp1719
(dp1720
g13
VWHNP
p1721
sbag0
(g1
g2
(lp1722
g0
(g1
g2
(lp1723
g0
(g1
g2
(lp1724
Vshe
p1725
atp1726
Rp1727
(dp1728
g13
VPRP
p1729
sbatp1730
Rp1731
(dp1732
g13
VNP
p1733
sbag0
(g1
g2
(lp1734
g0
(g1
g2
(lp1735
Vis
p1736
atp1737
Rp1738
(dp1739
g13
VVBZ
p1740
sbag0
(g1
g2
(lp1741
g0
(g1
g2
(lp1742
Vdoing
p1743
atp1744
Rp1745
(dp1746
g13
VVBG
p1747
sbatp1748
Rp1749
(dp1750
g13
VVP
p1751
sbatp1752
Rp1753
(dp1754
g13
VVP
p1755
sbatp1756
Rp1757
(dp1758
g13
VS
p1759
sbatp1760
Rp1761
(dp1762
g13
VSBAR
p1763
sbatp1764
Rp1765
(dp1766
g13
VPP
p1767
sbatp1768
Rp1769
(dp1770
g13
VADJP
p1771
sbag0
(g1
g2
(lp1772
V,
p1773
atp1774
Rp1775
(dp1776
g13
V,
p1777
sbag0
(g1
g2
(lp1778
g0
(g1
g2
(lp1779
g0
(g1
g2
(lp1780
Vletting
p1781
atp1782
Rp1783
(dp1784
g13
VVBG
p1785
sbag0
(g1
g2
(lp1786
g0
(g1
g2
(lp1787
Vthe
p1788
atp1789
Rp1790
(dp1791
g13
VDT
p1792
sbag0
(g1
g2
(lp1793
Vwater
p1794
atp1795
Rp1796
(dp1797
g13
VNN
p1798
sbag0
(g1
g2
(lp1799
Vdrip
p1800
atp1801
Rp1802
(dp1803
g13
VNN
p1804
sbatp1805
Rp1806
(dp1807
g13
VNP
p1808
sbag0
(g1
g2
(lp1809
g0
(g1
g2
(lp1810
Von
p1811
atp1812
Rp1813
(dp1814
g13
VIN
p1815
sbag0
(g1
g2
(lp1816
g0
(g1
g2
(lp1817
Vthe
p1818
atp1819
Rp1820
(dp1821
g13
VDT
p1822
sbag0
(g1
g2
(lp1823
Vfloor
p1824
atp1825
Rp1826
(dp1827
g13
VNN
p1828
sbatp1829
Rp1830
(dp1831
g13
VNP
p1832
sbatp1833
Rp1834
(dp1835
g13
VPP
p1836
sbatp1837
Rp1838
(dp1839
g13
VVP
p1840
sbatp1841
Rp1842
(dp1843
g13
VS
p1844
sbatp1845
Rp1846
(dp1847
g13
VVP
p1848
sbag0
(g1
g2
(lp1849
V.
p1850
atp1851
Rp1852
(dp1853
g13
V.
p1854
sbatp1855
Rp1856
(dp1857
g13
VS
p1858
sbatp1859
Rp1860
(dp1861
g13
S'id: 11'
p1862
sbag0
(g1
g2
(lp1863
g0
(g1
g2
(lp1864
g0
(g1
g2
(lp1865
VAnd
p1866
atp1867
Rp1868
(dp1869
g13
VCC
p1870
sbag0
(g1
g2
(lp1871
V,
p1872
atp1873
Rp1874
(dp1875
g13
V,
p1876
sbag0
(g1
g2
(lp1877
g0
(g1
g2
(lp1878
Vand
p1879
atp1880
Rp1881
(dp1882
g13
VCC
p1883
sbag0
(g1
g2
(lp1884
g0
(g1
g2
(lp1885
Vshe
p1886
atp1887
Rp1888
(dp1889
g13
VPRP
p1890
sbatp1891
Rp1892
(dp1893
g13
VNP
p1894
sbag0
(g1
g2
(lp1895
g0
(g1
g2
(lp1896
V's
p1897
atp1898
Rp1899
(dp1900
g13
VVBZ
p1901
sbatp1902
Rp1903
(dp1904
g13
VVP
p1905
sbatp1906
Rp1907
(dp1908
g13
VS
p1909
sbag0
(g1
g2
(lp1910
V.
p1911
atp1912
Rp1913
(dp1914
g13
V.
p1915
sbatp1916
Rp1917
(dp1918
g13
VS
p1919
sbatp1920
Rp1921
(dp1922
g13
S'id: 12'
p1923
sbatp1924
Rp1925
(dp1926
g13
S'sentences'
p1927
sb.