ccopy_reg
_reconstructor
p0
(cnltk.tree
Tree
p1
c__builtin__
list
p2
(lp3
g0
(g1
g2
(lp4
g0
(g1
g2
(lp5
g0
(g1
g2
(lp6
(lp7
S'word: This, index: 1'
p8
aatp9
Rp10
(dp11
S'_label'
p12
Vnsubj
p13
sbag0
(g1
g2
(lp14
g0
(g1
g2
(lp15
g0
(g1
g2
(lp16
(lp17
S'word: a, index: 4'
p18
aatp19
Rp20
(dp21
g12
Vdet
p22
sbag0
(g1
g2
(lp23
(lp24
S'word: vacation, index: 5'
p25
aatp26
Rp27
(dp28
g12
Vnn
p29
sbag0
(g1
g2
(lp30
g0
(g1
g2
(lp31
g0
(g1
g2
(lp32
(lp33
S'word: the, index: 8'
p34
aatp35
Rp36
(dp37
g12
Vdet
p38
sbatp39
Rp40
(dp41
g12
S'word: family, index: 9'
p42
sbatp43
Rp44
(dp45
g12
Vprep
p46
sbatp47
Rp48
(dp49
g12
S'word: time, index: 6'
p50
sbatp51
Rp52
(dp53
g12
Vprep
p54
sbag0
(g1
g2
(lp55
g0
(g1
g2
(lp56
g0
(g1
g2
(lp57
(lp58
S'word: the, index: 11'
p59
aatp60
Rp61
(dp62
g12
Vdet
p63
sbatp64
Rp65
(dp66
g12
S'word: lake, index: 12'
p67
sbatp68
Rp69
(dp70
g12
Vprep
p71
sbatp72
Rp73
(dp74
g12
S'word: looks, index: 2'
p75
sbatp76
Rp77
(dp78
g12
S'id: 0'
p79
sbag0
(g1
g2
(lp80
g0
(g1
g2
(lp81
g0
(g1
g2
(lp82
(lp83
S"word: 'm, index: 3"
p84
aatp85
Rp86
(dp87
g12
Vaux
p88
sbag0
(g1
g2
(lp89
g0
(g1
g2
(lp90
g0
(g1
g2
(lp91
(lp92
S'word: that, index: 5'
p93
aatp94
Rp95
(dp96
g12
Vmark
p97
sbag0
(g1
g2
(lp98
(lp99
S'word: it, index: 6'
p100
aatp101
Rp102
(dp103
g12
Vdep
p104
sbag0
(g1
g2
(lp105
(lp106
S'word: not, index: 7'
p107
aatp108
Rp109
(dp110
g12
Vneg
p111
sbag0
(g1
g2
(lp112
g0
(g1
g2
(lp113
g0
(g1
g2
(lp114
g0
(g1
g2
(lp115
g0
(g1
g2
(lp116
g0
(g1
g2
(lp117
g0
(g1
g2
(lp118
(lp119
S'word: that, index: 20'
p120
aatp121
Rp122
(dp123
g12
Vmark
p124
sbag0
(g1
g2
(lp125
(lp126
S'word: there, index: 21'
p127
aatp128
Rp129
(dp130
g12
Vexpl
p131
sbag0
(g1
g2
(lp132
g0
(g1
g2
(lp133
g0
(g1
g2
(lp134
(lp135
S'word: a, index: 23'
p136
aatp137
Rp138
(dp139
g12
Vdet
p140
sbag0
(g1
g2
(lp141
(lp142
S'word: sail, index: 24'
p143
aatp144
Rp145
(dp146
g12
Vnn
p147
sbag0
(g1
g2
(lp148
g0
(g1
g2
(lp149
g0
(g1
g2
(lp150
(lp151
S'word: the, index: 27'
p152
aatp153
Rp154
(dp155
g12
Vdet
p156
sbatp157
Rp158
(dp159
g12
S'word: water, index: 28'
p160
sbatp161
Rp162
(dp163
g12
Vprep
p164
sbatp165
Rp166
(dp167
g12
S'word: boat, index: 25'
p168
sbatp169
Rp170
(dp171
g12
Vnsubj
p172
sbatp173
Rp174
(dp175
g12
S'word: is, index: 22'
p176
sbatp177
Rp178
(dp179
g12
Vccomp
p180
sbag0
(g1
g2
(lp181
(lp182
S'word: because, index: 15'
p183
aatp184
Rp185
(dp186
g12
Vmark
p187
sbag0
(g1
g2
(lp188
(lp189
S'word: it, index: 16'
p190
aatp191
Rp192
(dp193
g12
Vnsubj
p194
sbag0
(g1
g2
(lp195
(lp196
S"word: 's, index: 17"
p197
aatp198
Rp199
(dp200
g12
Vcop
p201
sbag0
(g1
g2
(lp202
(lp203
S'word: somewhat, index: 18'
p204
aatp205
Rp206
(dp207
g12
Vadvmod
p208
sbatp209
Rp210
(dp211
g12
S'word: misleading, index: 19'
p212
sbatp213
Rp214
(dp215
g12
Vdep
p216
sbag0
(g1
g2
(lp217
(lp218
S'word: the, index: 10'
p219
aatp220
Rp221
(dp222
g12
Vdet
p223
sbag0
(g1
g2
(lp224
(lp225
S'word: such, index: 13'
p226
aatp227
Rp228
(dp229
g12
Vprep
p230
sbatp231
Rp232
(dp233
g12
S'word: country, index: 11'
p234
sbatp235
Rp236
(dp237
g12
Vprep
p238
sbatp239
Rp240
(dp241
g12
S'word: really, index: 8'
p242
sbatp243
Rp244
(dp245
g12
Vdep
p246
sbag0
(g1
g2
(lp247
g0
(g1
g2
(lp248
g0
(g1
g2
(lp249
g0
(g1
g2
(lp250
g0
(g1
g2
(lp251
g0
(g1
g2
(lp252
g0
(g1
g2
(lp253
(lp254
S'word: up, index: 37'
p255
aatp256
Rp257
(dp258
g12
Vprt
p259
sbag0
(g1
g2
(lp260
(lp261
S'word: it, index: 39'
p262
aatp263
Rp264
(dp265
g12
Vprep
p266
sbag0
(g1
g2
(lp267
g0
(g1
g2
(lp268
g0
(g1
g2
(lp269
(lp270
S'word: that, index: 41'
p271
aatp272
Rp273
(dp274
g12
Vmark
p275
sbag0
(g1
g2
(lp276
g0
(g1
g2
(lp277
g0
(g1
g2
(lp278
g0
(g1
g2
(lp279
g0
(g1
g2
(lp280
(lp281
S'word: an, index: 51'
p282
aatp283
Rp284
(dp285
g12
Vdet
p286
sbag0
(g1
g2
(lp287
(lp288
S'word: urban, index: 52'
p289
aatp290
Rp291
(dp292
g12
Vamod
p293
sbag0
(g1
g2
(lp294
g0
(g1
g2
(lp295
g0
(g1
g2
(lp296
(lp297
S'word: a, index: 56'
p298
aatp299
Rp300
(dp301
g12
Vdet
p302
sbag0
(g1
g2
(lp303
(lp304
S'word: real, index: 57'
p305
aatp306
Rp307
(dp308
g12
Vamod
p309
sbag0
(g1
g2
(lp310
(lp311
S'word: country, index: 58'
p312
aatp313
Rp314
(dp315
g12
Vnn
p316
sbatp317
Rp318
(dp319
g12
S'word: setting, index: 59'
p320
sbatp321
Rp322
(dp323
g12
Vconj
p324
sbatp325
Rp326
(dp327
g12
S'word: setting, index: 53'
p328
sbatp329
Rp330
(dp331
g12
Vprep
p332
sbag0
(g1
g2
(lp333
(lp334
S'word: to, index: 43'
p335
aatp336
Rp337
(dp338
g12
Vaux
p339
sbag0
(g1
g2
(lp340
g318
atp341
Rp342
(dp343
g12
Vprep
p344
sbag0
(g1
g2
(lp345
(lp346
S'word: be, index: 44'
p347
aatp348
Rp349
(dp350
g12
Vcop
p351
sbag0
(g1
g2
(lp352
(lp353
S'word: fairly, index: 45'
p354
aatp355
Rp356
(dp357
g12
Vadvmod
p358
sbag0
(g1
g2
(lp359
(lp360
S'word: more, index: 49'
p361
aatp362
Rp363
(dp364
g12
Vconj
p365
sbatp366
Rp367
(dp368
g12
S'word: private, index: 46'
p369
sbatp370
Rp371
(dp372
g12
Vxcomp
p373
sbag0
(g1
g2
(lp374
(lp375
S'word: more, index: 49'
p376
aatp377
Rp378
(dp379
g12
Vxcomp
p380
sbatp381
Rp382
(dp383
g12
S'word: appears, index: 42'
p384
sbatp385
Rp386
(dp387
g12
Vccomp
p388
sbatp389
Rp390
(dp391
g12
S'word: leading, index: 36'
p392
sbatp393
Rp394
(dp395
g12
Vvmod
p396
sbag0
(g1
g2
(lp397
g0
(g1
g2
(lp398
g0
(g1
g2
(lp399
(lp400
S'word: distance, index: 62'
p401
aatp402
Rp403
(dp404
g12
Vnn
p405
sbatp406
Rp407
(dp408
g12
S'word: setting, index: 63'
p409
sbatp410
Rp411
(dp412
g12
Vconj
p413
sbag0
(g1
g2
(lp414
(lp415
S'word: a, index: 34'
p416
aatp417
Rp418
(dp419
g12
Vdet
p420
sbatp421
Rp422
(dp423
g12
S'word: road, index: 35'
p424
sbatp425
Rp426
(dp427
g12
Vdobj
p428
sbag0
(g1
g2
(lp429
g407
atp430
Rp431
(dp432
g12
Vdobj
p433
sbag0
(g1
g2
(lp434
g0
(g1
g2
(lp435
g0
(g1
g2
(lp436
(lp437
S'word: the, index: 31'
p438
aatp439
Rp440
(dp441
g12
Vdet
p442
sbatp443
Rp444
(dp445
g12
S'word: house, index: 32'
p446
sbatp447
Rp448
(dp449
g12
Vnsubj
p450
sbatp451
Rp452
(dp453
g12
S'word: has, index: 33'
p454
sbatp455
Rp456
(dp457
g12
Vconj
p458
sbag0
(g1
g2
(lp459
(lp460
S'word: I, index: 2'
p461
aatp462
Rp463
(dp464
g12
Vnsubj
p465
sbatp466
Rp467
(dp468
g12
S'word: assuming, index: 4'
p469
sbatp470
Rp471
(dp472
g12
S'id: 1'
p473
sbag0
(g1
g2
(lp474
g0
(g1
g2
(lp475
g0
(g1
g2
(lp476
g0
(g1
g2
(lp477
g0
(g1
g2
(lp478
g0
(g1
g2
(lp479
g0
(g1
g2
(lp480
(lp481
S'word: a, index: 7'
p482
aatp483
Rp484
(dp485
g12
Vdet
p486
sbatp487
Rp488
(dp489
g12
S'word: flag, index: 8'
p490
sbatp491
Rp492
(dp493
g12
Vdep
p494
sbatp495
Rp496
(dp497
g12
S'word: out, index: 9'
p498
sbatp499
Rp500
(dp501
g12
Vadvmod
p502
sbag0
(g1
g2
(lp503
(lp504
S'word: in, index: 10'
p505
aatp506
Rp507
(dp508
g12
Vdep
p509
sbag0
(g1
g2
(lp510
g0
(g1
g2
(lp511
g0
(g1
g2
(lp512
g0
(g1
g2
(lp513
g0
(g1
g2
(lp514
(lp515
S'word: may, index: 24'
p516
aatp517
Rp518
(dp519
g12
Vaux
p520
sbag0
(g1
g2
(lp521
(lp522
S'word: not, index: 26'
p523
aatp524
Rp525
(dp526
g12
Vneg
p527
sbag0
(g1
g2
(lp528
(lp529
S'word: which, index: 15'
p530
aatp531
Rp532
(dp533
g12
Vnsubj
p534
sbatp535
Rp536
(dp537
g12
S'word: be, index: 25'
p538
sbatp539
Rp540
(dp541
g12
Vrcmod
p542
sbag0
(g1
g2
(lp543
(lp544
S'word: the, index: 12'
p545
aatp546
Rp547
(dp548
g12
Vdet
p549
sbag0
(g1
g2
(lp550
g0
(g1
g2
(lp551
g0
(g1
g2
(lp552
g536
atp553
Rp554
(dp555
g12
Vconj
p556
sbag0
(g1
g2
(lp557
(lp558
S'word: which, index: 15'
p559
aatp560
Rp561
(dp562
g12
Vnsubj
p563
sbag0
(g1
g2
(lp564
g0
(g1
g2
(lp565
g0
(g1
g2
(lp566
(lp567
S'word: it, index: 17'
p568
aatp569
Rp570
(dp571
g12
Vnsubj
p572
sbag0
(g1
g2
(lp573
(lp574
S'word: could, index: 18'
p575
aatp576
Rp577
(dp578
g12
Vaux
p579
sbag0
(g1
g2
(lp580
(lp581
S'word: be, index: 19'
p582
aatp583
Rp584
(dp585
g12
Vcop
p586
sbag0
(g1
g2
(lp587
(lp588
S'word: public, index: 20'
p589
aatp590
Rp591
(dp592
g12
Vamod
p593
sbatp594
Rp595
(dp596
g12
S'word: park, index: 21'
p597
sbatp598
Rp599
(dp600
g12
Vccomp
p601
sbatp602
Rp603
(dp604
g12
S'word: means, index: 16'
p605
sbatp606
Rp607
(dp608
g12
Vrcmod
p609
sbatp610
Rp611
(dp612
g12
S'word: yard, index: 13'
p613
sbatp614
Rp615
(dp616
g12
Vprep
p617
sbag0
(g1
g2
(lp618
(lp619
S'word: And, index: 1'
p620
aatp621
Rp622
(dp623
g12
Vcc
p624
sbag0
(g1
g2
(lp625
g0
(g1
g2
(lp626
g0
(g1
g2
(lp627
(lp628
S'word: some, index: 3'
p629
aatp630
Rp631
(dp632
g12
Vdet
p633
sbatp634
Rp635
(dp636
g12
S'word: reason, index: 4'
p637
sbatp638
Rp639
(dp640
g12
Vprep
p641
sbag0
(g1
g2
(lp642
(lp643
S'word: there, index: 5'
p644
aatp645
Rp646
(dp647
g12
Vexpl
p648
sbatp649
Rp650
(dp651
g12
S"word: 's, index: 6"
p652
sbatp653
Rp654
(dp655
g12
S'id: 2'
p656
sbag0
(g1
g2
(lp657
g0
(g1
g2
(lp658
g0
(g1
g2
(lp659
g0
(g1
g2
(lp660
g0
(g1
g2
(lp661
(lp662
S'word: visiting, index: 17'
p663
aatp664
Rp665
(dp666
g12
Vamod
p667
sbatp668
Rp669
(dp670
g12
S'word: people, index: 16'
p671
sbatp672
Rp673
(dp674
g12
Vprep
p675
sbag0
(g1
g2
(lp676
(lp677
S'word: And, index: 1'
p678
aatp679
Rp680
(dp681
g12
Vcc
p682
sbag0
(g1
g2
(lp683
g0
(g1
g2
(lp684
g0
(g1
g2
(lp685
(lp686
S'word: that, index: 2'
p687
aatp688
Rp689
(dp690
g12
Vdet
p691
sbatp692
Rp693
(dp694
g12
S'word: facility, index: 3'
p695
sbatp696
Rp697
(dp698
g12
Vnsubj
p699
sbag0
(g1
g2
(lp700
(lp701
S'word: could, index: 4'
p702
aatp703
Rp704
(dp705
g12
Vaux
p706
sbag0
(g1
g2
(lp707
g0
(g1
g2
(lp708
g0
(g1
g2
(lp709
g0
(g1
g2
(lp710
g0
(g1
g2
(lp711
(lp712
S'word: who, index: 9'
p713
aatp714
Rp715
(dp716
g12
Vnsubj
p717
sbag0
(g1
g2
(lp718
g0
(g1
g2
(lp719
g0
(g1
g2
(lp720
(lp721
S'word: the, index: 11'
p722
aatp723
Rp724
(dp725
g12
Vdet
p726
sbatp727
Rp728
(dp729
g12
S'word: area, index: 12'
p730
sbatp731
Rp732
(dp733
g12
Vdobj
p734
sbatp735
Rp736
(dp737
g12
S'word: maintains, index: 10'
p738
sbatp739
Rp740
(dp741
g12
Vrcmod
p742
sbag0
(g1
g2
(lp743
g669
atp744
Rp745
(dp746
g12
Vconj
p747
sbag0
(g1
g2
(lp748
(lp749
S'word: the, index: 7'
p750
aatp751
Rp752
(dp753
g12
Vdet
p754
sbatp755
Rp756
(dp757
g12
S'word: person, index: 8'
p758
sbatp759
Rp760
(dp761
g12
Vprep
p762
sbatp763
Rp764
(dp765
g12
S'word: belong, index: 5'
p766
sbatp767
Rp768
(dp769
g12
S'id: 3'
p770
sbag0
(g1
g2
(lp771
g0
(g1
g2
(lp772
g0
(g1
g2
(lp773
g0
(g1
g2
(lp774
g0
(g1
g2
(lp775
(lp776
S'word: the, index: 2'
p777
aatp778
Rp779
(dp780
g12
Vdet
p781
sbatp782
Rp783
(dp784
g12
S'word: family, index: 3'
p785
sbatp786
Rp787
(dp788
g12
Vnsubj
p789
sbag0
(g1
g2
(lp790
(lp791
S'word: is, index: 4'
p792
aatp793
Rp794
(dp795
g12
Vaux
p796
sbag0
(g1
g2
(lp797
g0
(g1
g2
(lp798
g0
(g1
g2
(lp799
(lp800
S'word: hopefully, index: 16'
p801
aatp802
Rp803
(dp804
g12
Vadvmod
p805
sbag0
(g1
g2
(lp806
(lp807
S'word: that, index: 17'
p808
aatp809
Rp810
(dp811
g12
Vnsubj
p812
sbag0
(g1
g2
(lp813
(lp814
S"word: 's, index: 18"
p815
aatp816
Rp817
(dp818
g12
Vcop
p819
sbag0
(g1
g2
(lp820
(lp821
S'word: evaon, index: 19'
p822
aatp823
Rp824
(dp825
g12
Vnn
p826
sbag0
(g1
g2
(lp827
g0
(g1
g2
(lp828
g0
(g1
g2
(lp829
(lp830
S'word: else, index: 24'
p831
aatp832
Rp833
(dp834
g12
Vadvmod
p835
sbatp836
Rp837
(dp838
g12
S'word: anything, index: 23'
p839
sbatp840
Rp841
(dp842
g12
Vconj
p843
sbatp844
Rp845
(dp846
g12
S'word: water, index: 20'
p847
sbatp848
Rp849
(dp850
g12
Vconj
p851
sbag0
(g1
g2
(lp852
g0
(g1
g2
(lp853
g0
(g1
g2
(lp854
(lp855
S'word: a, index: 6'
p856
aatp857
Rp858
(dp859
g12
Vdet
p860
sbatp861
Rp862
(dp863
g12
S'word: picnic, index: 7'
p864
sbatp865
Rp866
(dp867
g12
Vdobj
p868
sbag0
(g1
g2
(lp869
g837
atp870
Rp871
(dp872
g12
Vconj
p873
sbag0
(g1
g2
(lp874
g0
(g1
g2
(lp875
g0
(g1
g2
(lp876
g0
(g1
g2
(lp877
g0
(g1
g2
(lp878
(lp879
S'word: a, index: 12'
p880
aatp881
Rp882
(dp883
g12
Vdet
p884
sbatp885
Rp886
(dp887
g12
S'word: drink, index: 13'
p888
sbatp889
Rp890
(dp891
g12
Vdobj
p892
sbag0
(g1
g2
(lp893
(lp894
S'word: she, index: 9'
p895
aatp896
Rp897
(dp898
g12
Vnsubj
p899
sbag0
(g1
g2
(lp900
(lp901
S"word: 's, index: 10"
p902
aatp903
Rp904
(dp905
g12
Vaux
p906
sbatp907
Rp908
(dp909
g12
S'word: pouring, index: 11'
p910
sbatp911
Rp912
(dp913
g12
Vdep
p914
sbatp915
Rp916
(dp917
g12
S'word: enjoying, index: 5'
p918
sbatp919
Rp920
(dp921
g12
S'id: 4'
p922
sbag0
(g1
g2
(lp923
g0
(g1
g2
(lp924
g0
(g1
g2
(lp925
g0
(g1
g2
(lp926
g0
(g1
g2
(lp927
(lp928
S'word: obviously, index: 15'
p929
aatp930
Rp931
(dp932
g12
Vadvmod
p933
sbag0
(g1
g2
(lp934
g0
(g1
g2
(lp935
g0
(g1
g2
(lp936
(lp937
S'word: his, index: 17'
p938
aatp939
Rp940
(dp941
g12
Vposs
p942
sbatp943
Rp944
(dp945
g12
S'word: sandals, index: 18'
p946
sbatp947
Rp948
(dp949
g12
Vdobj
p950
sbag0
(g1
g2
(lp951
(lp952
S'word: off, index: 19'
p953
aatp954
Rp955
(dp956
g12
Vprep
p957
sbag0
(g1
g2
(lp958
(lp959
S'word: dad, index: 14'
p960
aatp961
Rp962
(dp963
g12
Vnsubj
p964
sbatp965
Rp966
(dp967
g12
S'word: has, index: 16'
p968
sbatp969
Rp970
(dp971
g12
Vccomp
p972
sbag0
(g1
g2
(lp973
g0
(g1
g2
(lp974
g0
(g1
g2
(lp975
g966
atp976
Rp977
(dp978
g12
Vconj
p979
sbag0
(g1
g2
(lp980
(lp981
S'word: they, index: 2'
p982
aatp983
Rp984
(dp985
g12
Vnsubj
p986
sbag0
(g1
g2
(lp987
g0
(g1
g2
(lp988
g0
(g1
g2
(lp989
(lp990
S'word: their, index: 4'
p991
aatp992
Rp993
(dp994
g12
Vposs
p995
sbag0
(g1
g2
(lp996
(lp997
S'word: little, index: 5'
p998
aatp999
Rp1000
(dp1001
g12
Vamod
p1002
sbag0
(g1
g2
(lp1003
(lp1004
S'word: portable, index: 6'
p1005
aatp1006
Rp1007
(dp1008
g12
Vamod
p1009
sbatp1010
Rp1011
(dp1012
g12
S'word: radio, index: 7'
p1013
sbatp1014
Rp1015
(dp1016
g12
Vdobj
p1017
sbag0
(g1
g2
(lp1018
g0
(g1
g2
(lp1019
g0
(g1
g2
(lp1020
(lp1021
S'word: their, index: 9'
p1022
aatp1023
Rp1024
(dp1025
g12
Vposs
p1026
sbag0
(g1
g2
(lp1027
(lp1028
S'word: out, index: 11'
p1029
aatp1030
Rp1031
(dp1032
g12
Vadvmod
p1033
sbatp1034
Rp1035
(dp1036
g12
S'word: sandals, index: 10'
p1037
sbatp1038
Rp1039
(dp1040
g12
Vdep
p1041
sbatp1042
Rp1043
(dp1044
g12
S'word: have, index: 3'
p1045
sbatp1046
Rp1047
(dp1048
g12
Vccomp
p1049
sbag0
(g1
g2
(lp1050
(lp1051
S'word: mother, index: 21'
p1052
aatp1053
Rp1054
(dp1055
g12
Vnsubj
p1056
sbag0
(g1
g2
(lp1057
g0
(g1
g2
(lp1058
g0
(g1
g2
(lp1059
g0
(g1
g2
(lp1060
g0
(g1
g2
(lp1061
(lp1062
S'word: tennis, index: 27'
p1063
aatp1064
Rp1065
(dp1066
g12
Vnn
p1067
sbatp1068
Rp1069
(dp1070
g12
S'word: shoes, index: 28'
p1071
sbatp1072
Rp1073
(dp1074
g12
Vconj
p1075
sbatp1076
Rp1077
(dp1078
g12
S'word: flats, index: 24'
p1079
sbatp1080
Rp1081
(dp1082
g12
Vprep
p1083
sbag0
(g1
g2
(lp1084
g1069
atp1085
Rp1086
(dp1087
g12
Vprep
p1088
sbag0
(g1
g2
(lp1089
g0
(g1
g2
(lp1090
g0
(g1
g2
(lp1091
g0
(g1
g2
(lp1092
g0
(g1
g2
(lp1093
(lp1094
S'word: herself, index: 32'
p1095
aatp1096
Rp1097
(dp1098
g12
Vdobj
p1099
sbatp1100
Rp1101
(dp1102
g12
S'word: enjoying, index: 31'
p1103
sbatp1104
Rp1105
(dp1106
g12
Vvmod
p1107
sbatp1108
Rp1109
(dp1110
g12
S'word: shorts, index: 30'
p1111
sbatp1112
Rp1113
(dp1114
g12
Vdobj
p1115
sbatp1116
Rp1117
(dp1118
g12
S'word: has, index: 22'
p1119
sbatp1120
Rp1121
(dp1122
g12
S'id: 5'
p1123
sbag0
(g1
g2
(lp1124
g0
(g1
g2
(lp1125
g0
(g1
g2
(lp1126
g0
(g1
g2
(lp1127
g0
(g1
g2
(lp1128
(lp1129
S'word: the, index: 2'
p1130
aatp1131
Rp1132
(dp1133
g12
Vdet
p1134
sbatp1135
Rp1136
(dp1137
g12
S'word: son, index: 3'
p1138
sbatp1139
Rp1140
(dp1141
g12
Vnsubj
p1142
sbag0
(g1
g2
(lp1143
(lp1144
S'word: is, index: 4'
p1145
aatp1146
Rp1147
(dp1148
g12
Vaux
p1149
sbag0
(g1
g2
(lp1150
g0
(g1
g2
(lp1151
g0
(g1
g2
(lp1152
(lp1153
S'word: his, index: 6'
p1154
aatp1155
Rp1156
(dp1157
g12
Vposs
p1158
sbatp1159
Rp1160
(dp1161
g12
S'word: kite, index: 7'
p1162
sbatp1163
Rp1164
(dp1165
g12
Vdobj
p1166
sbag0
(g1
g2
(lp1167
g0
(g1
g2
(lp1168
g0
(g1
g2
(lp1169
g0
(g1
g2
(lp1170
g0
(g1
g2
(lp1171
g0
(g1
g2
(lp1172
g0
(g1
g2
(lp1173
g0
(g1
g2
(lp1174
g0
(g1
g2
(lp1175
(lp1176
S'word: because, index: 19'
p1177
aatp1178
Rp1179
(dp1180
g12
Vmark
p1181
sbag0
(g1
g2
(lp1182
g0
(g1
g2
(lp1183
g0
(g1
g2
(lp1184
(lp1185
S'word: the, index: 20'
p1186
aatp1187
Rp1188
(dp1189
g12
Vdet
p1190
sbag0
(g1
g2
(lp1191
g0
(g1
g2
(lp1192
g0
(g1
g2
(lp1193
(lp1194
S'word: the, index: 24'
p1195
aatp1196
Rp1197
(dp1198
g12
Vdet
p1199
sbatp1200
Rp1201
(dp1202
g12
S'word: kite, index: 25'
p1203
sbatp1204
Rp1205
(dp1206
g12
Vconj
p1207
sbatp1208
Rp1209
(dp1210
g12
S'word: flag, index: 21'
p1211
sbatp1212
Rp1213
(dp1214
g12
Vnsubj
p1215
sbag0
(g1
g2
(lp1216
g1201
atp1217
Rp1218
(dp1219
g12
Vnsubj
p1220
sbag0
(g1
g2
(lp1221
g0
(g1
g2
(lp1222
g0
(g1
g2
(lp1223
g0
(g1
g2
(lp1224
g0
(g1
g2
(lp1225
(lp1226
S'word: the, index: 32'
p1227
aatp1228
Rp1229
(dp1230
g12
Vdet
p1231
sbag0
(g1
g2
(lp1232
(lp1233
S'word: same, index: 33'
p1234
aatp1235
Rp1236
(dp1237
g12
Vamod
p1238
sbatp1239
Rp1240
(dp1241
g12
S'word: direction, index: 34'
p1242
sbatp1243
Rp1244
(dp1245
g12
Vprep
p1246
sbag0
(g1
g2
(lp1247
(lp1248
S'word: to, index: 28'
p1249
aatp1250
Rp1251
(dp1252
g12
Vaux
p1253
sbag0
(g1
g2
(lp1254
(lp1255
S'word: be, index: 29'
p1256
aatp1257
Rp1258
(dp1259
g12
Vaux
p1260
sbatp1261
Rp1262
(dp1263
g12
S'word: blowing, index: 30'
p1264
sbatp1265
Rp1266
(dp1267
g12
Vxcomp
p1268
sbatp1269
Rp1270
(dp1271
g12
S'word: seem, index: 27'
p1272
sbatp1273
Rp1274
(dp1275
g12
Vadvcl
p1276
sbag0
(g1
g2
(lp1277
(lp1278
S'word: that, index: 12'
p1279
aatp1280
Rp1281
(dp1282
g12
Vmark
p1283
sbag0
(g1
g2
(lp1284
(lp1285
S'word: it, index: 13'
p1286
aatp1287
Rp1288
(dp1289
g12
Vnsubj
p1290
sbag0
(g1
g2
(lp1291
(lp1292
S'word: is, index: 14'
p1293
aatp1294
Rp1295
(dp1296
g12
Vcop
p1297
sbag0
(g1
g2
(lp1298
(lp1299
S'word: obviously, index: 15'
p1300
aatp1301
Rp1302
(dp1303
g12
Vadvmod
p1304
sbag0
(g1
g2
(lp1305
(lp1306
S'word: a, index: 16'
p1307
aatp1308
Rp1309
(dp1310
g12
Vdet
p1311
sbag0
(g1
g2
(lp1312
(lp1313
S'word: good, index: 17'
p1314
aatp1315
Rp1316
(dp1317
g12
Vamod
p1318
sbatp1319
Rp1320
(dp1321
g12
S'word: day, index: 18'
p1322
sbatp1323
Rp1324
(dp1325
g12
Vccomp
p1326
sbag0
(g1
g2
(lp1327
(lp1328
S'word: so, index: 9'
p1329
aatp1330
Rp1331
(dp1332
g12
Vmark
p1333
sbag0
(g1
g2
(lp1334
(lp1335
S'word: that, index: 10'
p1336
aatp1337
Rp1338
(dp1339
g12
Vmark
p1340
sbatp1341
Rp1342
(dp1343
g12
S'word: means, index: 11'
p1344
sbatp1345
Rp1346
(dp1347
g12
Vadvcl
p1348
sbatp1349
Rp1350
(dp1351
g12
S'word: flying, index: 8'
p1352
sbatp1353
Rp1354
(dp1355
g12
Vvmod
p1356
sbag0
(g1
g2
(lp1357
(lp1358
S'word: And, index: 1'
p1359
aatp1360
Rp1361
(dp1362
g12
Vcc
p1363
sbatp1364
Rp1365
(dp1366
g12
S'word: enjoying, index: 5'
p1367
sbatp1368
Rp1369
(dp1370
g12
S'id: 6'
p1371
sbag0
(g1
g2
(lp1372
g0
(g1
g2
(lp1373
g0
(g1
g2
(lp1374
g0
(g1
g2
(lp1375
g0
(g1
g2
(lp1376
(lp1377
S'word: is, index: 21'
p1378
aatp1379
Rp1380
(dp1381
g12
Vcop
p1382
sbag0
(g1
g2
(lp1383
(lp1384
S'word: just, index: 22'
p1385
aatp1386
Rp1387
(dp1388
g12
Vadvmod
p1389
sbag0
(g1
g2
(lp1390
(lp1391
S'word: a, index: 23'
p1392
aatp1393
Rp1394
(dp1395
g12
Vdet
p1396
sbag0
(g1
g2
(lp1397
(lp1398
S'word: hopefully, index: 19'
p1399
aatp1400
Rp1401
(dp1402
g12
Vadvmod
p1403
sbag0
(g1
g2
(lp1404
(lp1405
S'word: he, index: 20'
p1406
aatp1407
Rp1408
(dp1409
g12
Vnsubj
p1410
sbatp1411
Rp1412
(dp1413
g12
S'word: fisherman, index: 24'
p1414
sbatp1415
Rp1416
(dp1417
g12
Vccomp
p1418
sbag0
(g1
g2
(lp1419
(lp1420
S'word: he, index: 26'
p1421
aatp1422
Rp1423
(dp1424
g12
Vnsubj
p1425
sbag0
(g1
g2
(lp1426
(lp1427
S'word: has, index: 27'
p1428
aatp1429
Rp1430
(dp1431
g12
Vaux
p1432
sbag0
(g1
g2
(lp1433
g0
(g1
g2
(lp1434
g0
(g1
g2
(lp1435
g1412
atp1436
Rp1437
(dp1438
g12
Vconj
p1439
sbag0
(g1
g2
(lp1440
(lp1441
S'word: could, index: 10'
p1442
aatp1443
Rp1444
(dp1445
g12
Vaux
p1446
sbag0
(g1
g2
(lp1447
(lp1448
S'word: be, index: 11'
p1449
aatp1450
Rp1451
(dp1452
g12
Vcop
p1453
sbag0
(g1
g2
(lp1454
(lp1455
S'word: the, index: 12'
p1456
aatp1457
Rp1458
(dp1459
g12
Vdet
p1460
sbag0
(g1
g2
(lp1461
g0
(g1
g2
(lp1462
g0
(g1
g2
(lp1463
(lp1464
S'word: there, index: 15'
p1465
aatp1466
Rp1467
(dp1468
g12
Vadvmod
p1469
sbatp1470
Rp1471
(dp1472
g12
S'word: fishing, index: 16'
p1473
sbatp1474
Rp1475
(dp1476
g12
Vprep
p1477
sbag0
(g1
g2
(lp1478
g0
(g1
g2
(lp1479
g0
(g1
g2
(lp1480
g0
(g1
g2
(lp1481
g0
(g1
g2
(lp1482
g0
(g1
g2
(lp1483
g0
(g1
g2
(lp1484
(lp1485
S'word: to, index: 6'
p1486
aatp1487
Rp1488
(dp1489
g12
Vaux
p1490
sbag0
(g1
g2
(lp1491
(lp1492
S'word: he, index: 9'
p1493
aatp1494
Rp1495
(dp1496
g12
Vprep
p1497
sbatp1498
Rp1499
(dp1500
g12
S'word: be, index: 7'
p1501
sbatp1502
Rp1503
(dp1504
g12
Vxcomp
p1505
sbag0
(g1
g2
(lp1506
(lp1507
S'word: who, index: 4'
p1508
aatp1509
Rp1510
(dp1511
g12
Vnsubj
p1512
sbatp1513
Rp1514
(dp1515
g12
S'word: looks, index: 5'
p1516
sbatp1517
Rp1518
(dp1519
g12
Vrcmod
p1520
sbag0
(g1
g2
(lp1521
(lp1522
S'word: another, index: 2'
p1523
aatp1524
Rp1525
(dp1526
g12
Vdet
p1527
sbatp1528
Rp1529
(dp1530
g12
S'word: man, index: 3'
p1531
sbatp1532
Rp1533
(dp1534
g12
Vnsubj
p1535
sbatp1536
Rp1537
(dp1538
g12
S'word: ranger, index: 13'
p1539
sbatp1540
Rp1541
(dp1542
g12
Vccomp
p1543
sbag0
(g1
g2
(lp1544
g0
(g1
g2
(lp1545
g0
(g1
g2
(lp1546
(lp1547
S'word: a, index: 29'
p1548
aatp1549
Rp1550
(dp1551
g12
Vdet
p1552
sbatp1553
Rp1554
(dp1555
g12
S'word: fish, index: 30'
p1556
sbatp1557
Rp1558
(dp1559
g12
Vdobj
p1560
sbatp1561
Rp1562
(dp1563
g12
S'word: caught, index: 28'
p1564
sbatp1565
Rp1566
(dp1567
g12
S'id: 7'
p1568
sbag0
(g1
g2
(lp1569
g0
(g1
g2
(lp1570
g0
(g1
g2
(lp1571
g0
(g1
g2
(lp1572
g0
(g1
g2
(lp1573
(lp1574
S'word: sand, index: 8'
p1575
aatp1576
Rp1577
(dp1578
g12
Vnn
p1579
sbag0
(g1
g2
(lp1580
(lp1581
S'word: a, index: 7'
p1582
aatp1583
Rp1584
(dp1585
g12
Vdet
p1586
sbatp1587
Rp1588
(dp1589
g12
S'word: castle, index: 9'
p1590
sbatp1591
Rp1592
(dp1593
g12
Vdobj
p1594
sbag0
(g1
g2
(lp1595
g0
(g1
g2
(lp1596
g0
(g1
g2
(lp1597
(lp1598
S'word: she, index: 12'
p1599
aatp1600
Rp1601
(dp1602
g12
Vnsubj
p1603
sbag0
(g1
g2
(lp1604
(lp1605
S'word: is, index: 13'
p1606
aatp1607
Rp1608
(dp1609
g12
Vaux
p1610
sbag0
(g1
g2
(lp1611
g0
(g1
g2
(lp1612
g0
(g1
g2
(lp1613
(lp1614
S'word: a, index: 15'
p1615
aatp1616
Rp1617
(dp1618
g12
Vdet
p1619
sbag0
(g1
g2
(lp1620
(lp1621
S'word: good, index: 16'
p1622
aatp1623
Rp1624
(dp1625
g12
Vamod
p1626
sbatp1627
Rp1628
(dp1629
g12
S'word: time, index: 17'
p1630
sbatp1631
Rp1632
(dp1633
g12
Vdobj
p1634
sbatp1635
Rp1636
(dp1637
g12
S'word: having, index: 14'
p1638
sbatp1639
Rp1640
(dp1641
g12
Vconj
p1642
sbag0
(g1
g2
(lp1643
g0
(g1
g2
(lp1644
g0
(g1
g2
(lp1645
(lp1646
S'word: the, index: 2'
p1647
aatp1648
Rp1649
(dp1650
g12
Vdet
p1651
sbag0
(g1
g2
(lp1652
(lp1653
S'word: little, index: 3'
p1654
aatp1655
Rp1656
(dp1657
g12
Vamod
p1658
sbatp1659
Rp1660
(dp1661
g12
S'word: girl, index: 4'
p1662
sbatp1663
Rp1664
(dp1665
g12
Vnsubj
p1666
sbag0
(g1
g2
(lp1667
(lp1668
S'word: is, index: 5'
p1669
aatp1670
Rp1671
(dp1672
g12
Vaux
p1673
sbatp1674
Rp1675
(dp1676
g12
S'word: building, index: 6'
p1677
sbatp1678
Rp1679
(dp1680
g12
S'id: 8'
p1681
sbag0
(g1
g2
(lp1682
g0
(g1
g2
(lp1683
g0
(g1
g2
(lp1684
g0
(g1
g2
(lp1685
g0
(g1
g2
(lp1686
(lp1687
S'word: the, index: 2'
p1688
aatp1689
Rp1690
(dp1691
g12
Vdet
p1692
sbatp1693
Rp1694
(dp1695
g12
S'word: boaters, index: 3'
p1696
sbatp1697
Rp1698
(dp1699
g12
Vnsubj
p1700
sbag0
(g1
g2
(lp1701
(lp1702
S'word: are, index: 4'
p1703
aatp1704
Rp1705
(dp1706
g12
Vaux
p1707
sbag0
(g1
g2
(lp1708
g0
(g1
g2
(lp1709
g0
(g1
g2
(lp1710
g0
(g1
g2
(lp1711
g0
(g1
g2
(lp1712
(lp1713
S'word: to, index: 11'
p1714
aatp1715
Rp1716
(dp1717
g12
Vaux
p1718
sbag0
(g1
g2
(lp1719
(lp1720
S'word: be, index: 12'
p1721
aatp1722
Rp1723
(dp1724
g12
Vaux
p1725
sbag0
(g1
g2
(lp1726
(lp1727
S'word: back, index: 14'
p1728
aatp1729
Rp1730
(dp1731
g12
Vadvmod
p1732
sbag0
(g1
g2
(lp1733
(lp1734
S'word: them, index: 16'
p1735
aatp1736
Rp1737
(dp1738
g12
Vprep
p1739
sbatp1740
Rp1741
(dp1742
g12
S'word: waving, index: 13'
p1743
sbatp1744
Rp1745
(dp1746
g12
Vxcomp
p1747
sbag0
(g1
g2
(lp1748
g0
(g1
g2
(lp1749
g0
(g1
g2
(lp1750
(lp1751
S'word: no, index: 8'
p1752
aatp1753
Rp1754
(dp1755
g12
Vneg
p1756
sbatp1757
Rp1758
(dp1759
g12
S'word: one, index: 9'
p1760
sbatp1761
Rp1762
(dp1763
g12
Vnsubj
p1764
sbatp1765
Rp1766
(dp1767
g12
S'word: seems, index: 10'
p1768
sbatp1769
Rp1770
(dp1771
g12
Vconj
p1772
sbatp1773
Rp1774
(dp1775
g12
S'word: waving, index: 5'
p1776
sbatp1777
Rp1778
(dp1779
g12
S'id: 9'
p1780
sbag0
(g1
g2
(lp1781
g0
(g1
g2
(lp1782
g0
(g1
g2
(lp1783
g0
(g1
g2
(lp1784
g0
(g1
g2
(lp1785
(lp1786
S'word: the, index: 2'
p1787
aatp1788
Rp1789
(dp1790
g12
Vpredet
p1791
sbag0
(g1
g2
(lp1792
(lp1793
S'word: the, index: 3'
p1794
aatp1795
Rp1796
(dp1797
g12
Vdet
p1798
sbatp1799
Rp1800
(dp1801
g12
S'word: sail, index: 4'
p1802
sbatp1803
Rp1804
(dp1805
g12
Vprep
p1806
sbag0
(g1
g2
(lp1807
g0
(g1
g2
(lp1808
g0
(g1
g2
(lp1809
g0
(g1
g2
(lp1810
g0
(g1
g2
(lp1811
(lp1812
S'word: so, index: 9'
p1813
aatp1814
Rp1815
(dp1816
g12
Vadvmod
p1817
sbag0
(g1
g2
(lp1818
(lp1819
S'word: that, index: 10'
p1820
aatp1821
Rp1822
(dp1823
g12
Vnsubj
p1824
sbag0
(g1
g2
(lp1825
(lp1826
S'word: might, index: 11'
p1827
aatp1828
Rp1829
(dp1830
g12
Vaux
p1831
sbag0
(g1
g2
(lp1832
(lp1833
S'word: be, index: 12'
p1834
aatp1835
Rp1836
(dp1837
g12
Vcop
p1838
sbag0
(g1
g2
(lp1839
(lp1840
S'word: a, index: 13'
p1841
aatp1842
Rp1843
(dp1844
g12
Vdet
p1845
sbatp1846
Rp1847
(dp1848
g12
S'word: good, index: 14'
p1849
sbatp1850
Rp1851
(dp1852
g12
Vrcmod
p1853
sbag0
(g1
g2
(lp1854
(lp1855
S'word: four, index: 6'
p1856
aatp1857
Rp1858
(dp1859
g12
Vnum
p1860
sbatp1861
Rp1862
(dp1863
g12
S'word: seventy, index: 7'
p1864
sbatp1865
Rp1866
(dp1867
g12
Vnsubj
p1868
sbatp1869
Rp1870
(dp1871
g12
S'word: says, index: 5'
p1872
sbatp1873
Rp1874
(dp1875
g12
S'id: 10'
p1876
sbatp1877
Rp1878
(dp1879
g12
S'sentences'
p1880
sb.