ccopy_reg
_reconstructor
p0
(cnltk.tree
Tree
p1
c__builtin__
list
p2
(lp3
g0
(g1
g2
(lp4
g0
(g1
g2
(lp5
g0
(g1
g2
(lp6
g0
(g1
g2
(lp7
VMama
p8
atp9
Rp10
(dp11
S'_label'
p12
VNN
p13
sbatp14
Rp15
(dp16
g12
VNP
p17
sbag0
(g1
g2
(lp18
g0
(g1
g2
(lp19
Vwishing
p20
atp21
Rp22
(dp23
g12
VVBG
p24
sbag0
(g1
g2
(lp25
g0
(g1
g2
(lp26
Vdishes
p27
atp28
Rp29
(dp30
g12
VNNS
p31
sbatp32
Rp33
(dp34
g12
VNP
p35
sbatp36
Rp37
(dp38
g12
VVP
p39
sbag0
(g1
g2
(lp40
V.
p41
atp42
Rp43
(dp44
g12
V.
p45
sbatp46
Rp47
(dp48
g12
VNP
p49
sbatp50
Rp51
(dp52
g12
S'id: 0'
p53
sbag0
(g1
g2
(lp54
g0
(g1
g2
(lp55
g0
(g1
g2
(lp56
g0
(g1
g2
(lp57
g0
(g1
g2
(lp58
VThere
p59
atp60
Rp61
(dp62
g12
VEX
p63
sbatp64
Rp65
(dp66
g12
VNP
p67
sbag0
(g1
g2
(lp68
g0
(g1
g2
(lp69
V's
p70
atp71
Rp72
(dp73
g12
VVBZ
p74
sbag0
(g1
g2
(lp75
g0
(g1
g2
(lp76
g0
(g1
g2
(lp77
Va
p78
atp79
Rp80
(dp81
g12
VDT
p82
sbatp83
Rp84
(dp85
g12
VNP
p86
sbag0
(g1
g2
(lp87
g0
(g1
g2
(lp88
V,
p89
atp90
Rp91
(dp92
g12
V,
p93
sbag0
(g1
g2
(lp94
g0
(g1
g2
(lp95
g0
(g1
g2
(lp96
Vthere
p97
atp98
Rp99
(dp100
g12
VEX
p101
sbatp102
Rp103
(dp104
g12
VNP
p105
sbag0
(g1
g2
(lp106
g0
(g1
g2
(lp107
V's
p108
atp109
Rp110
(dp111
g12
VVBZ
p112
sbag0
(g1
g2
(lp113
g0
(g1
g2
(lp114
g0
(g1
g2
(lp115
Va
p116
atp117
Rp118
(dp119
g12
VDT
p120
sbag0
(g1
g2
(lp121
Vkids
p122
atp123
Rp124
(dp125
g12
VNNS
p126
sbatp127
Rp128
(dp129
g12
VNP
p130
sbag0
(g1
g2
(lp131
Vand
p132
atp133
Rp134
(dp135
g12
VCC
p136
sbag0
(g1
g2
(lp137
g0
(g1
g2
(lp138
Va
p139
atp140
Rp141
(dp142
g12
VDT
p143
sbag0
(g1
g2
(lp144
Vbar
p145
atp146
Rp147
(dp148
g12
VNN
p149
sbatp150
Rp151
(dp152
g12
VNP
p153
sbatp154
Rp155
(dp156
g12
VNP
p157
sbatp158
Rp159
(dp160
g12
VVP
p161
sbatp162
Rp163
(dp164
g12
VS
p165
sbag0
(g1
g2
(lp166
V,
p167
atp168
Rp169
(dp170
g12
V,
p171
sbatp172
Rp173
(dp174
g12
VPRN
p175
sbag0
(g1
g2
(lp176
Vand
p177
atp178
Rp179
(dp180
g12
VCC
p181
sbag0
(g1
g2
(lp182
g0
(g1
g2
(lp183
Va
p184
atp185
Rp186
(dp187
g12
VDT
p188
sbag0
(g1
g2
(lp189
Vgirl
p190
atp191
Rp192
(dp193
g12
VNN
p194
sbatp195
Rp196
(dp197
g12
VNP
p198
sbatp199
Rp200
(dp201
g12
VNP
p202
sbatp203
Rp204
(dp205
g12
VVP
p206
sbatp207
Rp208
(dp209
g12
VS
p210
sbag0
(g1
g2
(lp211
V,
p212
atp213
Rp214
(dp215
g12
V,
p216
sbag0
(g1
g2
(lp217
Vand
p218
atp219
Rp220
(dp221
g12
VCC
p222
sbag0
(g1
g2
(lp223
g0
(g1
g2
(lp224
g0
(g1
g2
(lp225
Vtrying
p226
atp227
Rp228
(dp229
g12
VVBG
p230
sbag0
(g1
g2
(lp231
g0
(g1
g2
(lp232
g0
(g1
g2
(lp233
Vto
p234
atp235
Rp236
(dp237
g12
VTO
p238
sbag0
(g1
g2
(lp239
g0
(g1
g2
(lp240
Vsee
p241
atp242
Rp243
(dp244
g12
VVB
p245
sbag0
(g1
g2
(lp246
g0
(g1
g2
(lp247
Vthe
p248
atp249
Rp250
(dp251
g12
VDT
p252
sbag0
(g1
g2
(lp253
Vcookies
p254
atp255
Rp256
(dp257
g12
VNNS
p258
sbatp259
Rp260
(dp261
g12
VNP
p262
sbatp263
Rp264
(dp265
g12
VVP
p266
sbatp267
Rp268
(dp269
g12
VVP
p270
sbatp271
Rp272
(dp273
g12
VS
p274
sbatp275
Rp276
(dp277
g12
VVP
p278
sbatp279
Rp280
(dp281
g12
VS
p282
sbag0
(g1
g2
(lp283
V.
p284
atp285
Rp286
(dp287
g12
V.
p288
sbatp289
Rp290
(dp291
g12
VS
p292
sbatp293
Rp294
(dp295
g12
S'id: 1'
p296
sbag0
(g1
g2
(lp297
g0
(g1
g2
(lp298
g0
(g1
g2
(lp299
VAnd
p300
atp301
Rp302
(dp303
g12
VCC
p304
sbag0
(g1
g2
(lp305
g0
(g1
g2
(lp306
g0
(g1
g2
(lp307
Vthe
p308
atp309
Rp310
(dp311
g12
VDT
p312
sbag0
(g1
g2
(lp313
Vlittle
p314
atp315
Rp316
(dp317
g12
VJJ
p318
sbag0
(g1
g2
(lp319
Vgirl
p320
atp321
Rp322
(dp323
g12
VNN
p324
sbatp325
Rp326
(dp327
g12
VNP
p328
sbag0
(g1
g2
(lp329
g0
(g1
g2
(lp330
g0
(g1
g2
(lp331
g0
(g1
g2
(lp332
Vthe
p333
atp334
Rp335
(dp336
g12
VDT
p337
sbag0
(g1
g2
(lp338
Vtake
p339
atp340
Rp341
(dp342
g12
VNN
p343
sbatp344
Rp345
(dp346
g12
VNP
p347
sbag0
(g1
g2
(lp348
g0
(g1
g2
(lp349
Vin
p350
atp351
Rp352
(dp353
g12
VIN
p354
sbag0
(g1
g2
(lp355
g0
(g1
g2
(lp356
Vthe
p357
atp358
Rp359
(dp360
g12
VDT
p361
sbag0
(g1
g2
(lp362
Vkitchen
p363
atp364
Rp365
(dp366
g12
VNN
p367
sbag0
(g1
g2
(lp368
Vwater
p369
atp370
Rp371
(dp372
g12
VNN
p373
sbag0
(g1
g2
(lp374
Vflowing
p375
atp376
Rp377
(dp378
g12
VVBG
p379
sbag0
(g1
g2
(lp380
Vwater
p381
atp382
Rp383
(dp384
g12
VNN
p385
sbatp386
Rp387
(dp388
g12
VNP
p389
sbatp390
Rp391
(dp392
g12
VPP
p393
sbatp394
Rp395
(dp396
g12
VWHNP
p397
sbag0
(g1
g2
(lp398
g0
(g1
g2
(lp399
g0
(g1
g2
(lp400
Vflowing
p401
atp402
Rp403
(dp404
g12
VVBG
p405
sbag0
(g1
g2
(lp406
g0
(g1
g2
(lp407
Von
p408
atp409
Rp410
(dp411
g12
VIN
p412
sbag0
(g1
g2
(lp413
g0
(g1
g2
(lp414
Vthe
p415
atp416
Rp417
(dp418
g12
VDT
p419
sbag0
(g1
g2
(lp420
Vfloor
p421
atp422
Rp423
(dp424
g12
VNN
p425
sbatp426
Rp427
(dp428
g12
VNP
p429
sbatp430
Rp431
(dp432
g12
VPP
p433
sbatp434
Rp435
(dp436
g12
VVP
p437
sbatp438
Rp439
(dp440
g12
VS
p441
sbatp442
Rp443
(dp444
g12
VSBAR
p445
sbatp446
Rp447
(dp448
g12
VNP
p449
sbag0
(g1
g2
(lp450
V.
p451
atp452
Rp453
(dp454
g12
V.
p455
sbatp456
Rp457
(dp458
g12
VFRAG
p459
sbatp460
Rp461
(dp462
g12
S'id: 2'
p463
sbag0
(g1
g2
(lp464
g0
(g1
g2
(lp465
g0
(g1
g2
(lp466
g0
(g1
g2
(lp467
Vyou
p468
atp469
Rp470
(dp471
g12
VPRP
p472
sbatp473
Rp474
(dp475
g12
VNP
p476
sbag0
(g1
g2
(lp477
g0
(g1
g2
(lp478
Vgot
p479
atp480
Rp481
(dp482
g12
VVBD
p483
sbag0
(g1
g2
(lp484
g0
(g1
g2
(lp485
Va
p486
atp487
Rp488
(dp489
g12
VDT
p490
sbag0
(g1
g2
(lp491
Vnice
p492
atp493
Rp494
(dp495
g12
VJJ
p496
sbag0
(g1
g2
(lp497
Vkitchen
p498
atp499
Rp500
(dp501
g12
VNN
p502
sbatp503
Rp504
(dp505
g12
VNP
p506
sbatp507
Rp508
(dp509
g12
VVP
p510
sbag0
(g1
g2
(lp511
V.
p512
atp513
Rp514
(dp515
g12
V.
p516
sbatp517
Rp518
(dp519
g12
VS
p520
sbatp521
Rp522
(dp523
g12
S'id: 3'
p524
sbag0
(g1
g2
(lp525
g0
(g1
g2
(lp526
g0
(g1
g2
(lp527
g0
(g1
g2
(lp528
g0
(g1
g2
(lp529
g0
(g1
g2
(lp530
VYou
p531
atp532
Rp533
(dp534
g12
VPRP
p535
sbatp536
Rp537
(dp538
g12
VNP
p539
sbag0
(g1
g2
(lp540
g0
(g1
g2
(lp541
Vhave
p542
atp543
Rp544
(dp545
g12
VVBP
p546
sbag0
(g1
g2
(lp547
g0
(g1
g2
(lp548
g0
(g1
g2
(lp549
Vsome
p550
atp551
Rp552
(dp553
g12
VDT
p554
sbag0
(g1
g2
(lp555
Vplates
p556
atp557
Rp558
(dp559
g12
VNNS
p560
sbatp561
Rp562
(dp563
g12
VNP
p564
sbag0
(g1
g2
(lp565
V,
p566
atp567
Rp568
(dp569
g12
V,
p570
sbag0
(g1
g2
(lp571
g0
(g1
g2
(lp572
Vplates
p573
atp574
Rp575
(dp576
g12
VNNS
p577
sbatp578
Rp579
(dp580
g12
VNP
p581
sbatp582
Rp583
(dp584
g12
VNP
p585
sbatp586
Rp587
(dp588
g12
VVP
p589
sbatp590
Rp591
(dp592
g12
VS
p593
sbag0
(g1
g2
(lp594
V,
p595
atp596
Rp597
(dp598
g12
V,
p599
sbag0
(g1
g2
(lp600
Vand
p601
atp602
Rp603
(dp604
g12
VCC
p605
sbag0
(g1
g2
(lp606
g0
(g1
g2
(lp607
g0
(g1
g2
(lp608
g0
(g1
g2
(lp609
Vcups
p610
atp611
Rp612
(dp613
g12
VNNS
p614
sbatp615
Rp616
(dp617
g12
VNP
p618
sbag0
(g1
g2
(lp619
V,
p620
atp621
Rp622
(dp623
g12
V,
p624
sbag0
(g1
g2
(lp625
g0
(g1
g2
(lp626
g0
(g1
g2
(lp627
Vno
p628
atp629
Rp630
(dp631
g12
VDT
p632
sbatp633
Rp634
(dp635
g12
VNP
p636
sbag0
(g1
g2
(lp637
g0
(g1
g2
(lp638
g0
(g1
g2
(lp639
Vwhat
p640
atp641
Rp642
(dp643
g12
VWP
p644
sbatp645
Rp646
(dp647
g12
VWHNP
p648
sbag0
(g1
g2
(lp649
g0
(g1
g2
(lp650
g0
(g1
g2
(lp651
Vis
p652
atp653
Rp654
(dp655
g12
VVBZ
p656
sbatp657
Rp658
(dp659
g12
VVP
p660
sbatp661
Rp662
(dp663
g12
VS
p664
sbatp665
Rp666
(dp667
g12
VSBAR
p668
sbatp669
Rp670
(dp671
g12
VNP
p672
sbag0
(g1
g2
(lp673
V,
p674
atp675
Rp676
(dp677
g12
V,
p678
sbatp679
Rp680
(dp681
g12
VNP
p682
sbag0
(g1
g2
(lp683
g0
(g1
g2
(lp684
Vyeah
p685
atp686
Rp687
(dp688
g12
VVBP
p689
sbag0
(g1
g2
(lp690
g0
(g1
g2
(lp691
g0
(g1
g2
(lp692
g0
(g1
g2
(lp693
Vthat
p694
atp695
Rp696
(dp697
g12
VDT
p698
sbatp699
Rp700
(dp701
g12
VNP
p702
sbag0
(g1
g2
(lp703
g0
(g1
g2
(lp704
V's
p705
atp706
Rp707
(dp708
g12
VVBZ
p709
sbag0
(g1
g2
(lp710
g0
(g1
g2
(lp711
Va
p712
atp713
Rp714
(dp715
g12
VDT
p716
sbag0
(g1
g2
(lp717
Vcup
p718
atp719
Rp720
(dp721
g12
VNN
p722
sbatp723
Rp724
(dp725
g12
VNP
p726
sbatp727
Rp728
(dp729
g12
VVP
p730
sbatp731
Rp732
(dp733
g12
VS
p734
sbatp735
Rp736
(dp737
g12
VSBAR
p738
sbatp739
Rp740
(dp741
g12
VVP
p742
sbatp743
Rp744
(dp745
g12
VS
p746
sbatp747
Rp748
(dp749
g12
VS
p750
sbag0
(g1
g2
(lp751
V,
p752
atp753
Rp754
(dp755
g12
V,
p756
sbag0
(g1
g2
(lp757
g0
(g1
g2
(lp758
VI
p759
atp760
Rp761
(dp762
g12
VPRP
p763
sbatp764
Rp765
(dp766
g12
VNP
p767
sbag0
(g1
g2
(lp768
g0
(g1
g2
(lp769
Vthink
p770
atp771
Rp772
(dp773
g12
VVBP
p774
sbag0
(g1
g2
(lp775
g0
(g1
g2
(lp776
Vso
p777
atp778
Rp779
(dp780
g12
VRB
p781
sbatp782
Rp783
(dp784
g12
VADVP
p785
sbatp786
Rp787
(dp788
g12
VVP
p789
sbag0
(g1
g2
(lp790
V.
p791
atp792
Rp793
(dp794
g12
V.
p795
sbatp796
Rp797
(dp798
g12
VS
p799
sbatp800
Rp801
(dp802
g12
S'id: 4'
p803
sbag0
(g1
g2
(lp804
g0
(g1
g2
(lp805
g0
(g1
g2
(lp806
g0
(g1
g2
(lp807
VI
p808
atp809
Rp810
(dp811
g12
VPRP
p812
sbatp813
Rp814
(dp815
g12
VNP
p816
sbag0
(g1
g2
(lp817
g0
(g1
g2
(lp818
Vdont
p819
atp820
Rp821
(dp822
g12
VVBP
p823
sbag0
(g1
g2
(lp824
g0
(g1
g2
(lp825
g0
(g1
g2
(lp826
Vknow
p827
atp828
Rp829
(dp830
g12
VVB
p831
sbag0
(g1
g2
(lp832
V,
p833
atp834
Rp835
(dp836
g12
V,
p837
sbag0
(g1
g2
(lp838
g0
(g1
g2
(lp839
Vbut
p840
atp841
Rp842
(dp843
g12
VCC
p844
sbag0
(g1
g2
(lp845
g0
(g1
g2
(lp846
Vits
p847
atp848
Rp849
(dp850
g12
VPRP$
p851
sbatp852
Rp853
(dp854
g12
VNP
p855
sbatp856
Rp857
(dp858
g12
VPP
p859
sbag0
(g1
g2
(lp860
V,
p861
atp862
Rp863
(dp864
g12
V,
p865
sbag0
(g1
g2
(lp866
g0
(g1
g2
(lp867
g0
(g1
g2
(lp868
Vlook
p869
atp870
Rp871
(dp872
g12
VVB
p873
sbag0
(g1
g2
(lp874
g0
(g1
g2
(lp875
Vlike
p876
atp877
Rp878
(dp879
g12
VIN
p880
sbag0
(g1
g2
(lp881
g0
(g1
g2
(lp882
Va
p883
atp884
Rp885
(dp886
g12
VDT
p887
sbag0
(g1
g2
(lp888
Vgood
p889
atp890
Rp891
(dp892
g12
VJJ
p893
sbag0
(g1
g2
(lp894
Vday
p895
atp896
Rp897
(dp898
g12
VNN
p899
sbag0
(g1
g2
(lp900
Voutside
p901
atp902
Rp903
(dp904
g12
VIN
p905
sbatp906
Rp907
(dp908
g12
VNP
p909
sbatp910
Rp911
(dp912
g12
VPP
p913
sbatp914
Rp915
(dp916
g12
VVP
p917
sbatp918
Rp919
(dp920
g12
VS
p921
sbatp922
Rp923
(dp924
g12
VVP
p925
sbatp926
Rp927
(dp928
g12
VS
p929
sbatp930
Rp931
(dp932
g12
VVP
p933
sbag0
(g1
g2
(lp934
V.
p935
atp936
Rp937
(dp938
g12
V.
p939
sbatp940
Rp941
(dp942
g12
VS
p943
sbatp944
Rp945
(dp946
g12
S'id: 5'
p947
sbag0
(g1
g2
(lp948
g0
(g1
g2
(lp949
g0
(g1
g2
(lp950
g0
(g1
g2
(lp951
g0
(g1
g2
(lp952
VYou
p953
atp954
Rp955
(dp956
g12
VPRP
p957
sbatp958
Rp959
(dp960
g12
VNP
p961
sbag0
(g1
g2
(lp962
g0
(g1
g2
(lp963
Vgot
p964
atp965
Rp966
(dp967
g12
VVBD
p968
sbag0
(g1
g2
(lp969
g0
(g1
g2
(lp970
Va
p971
atp972
Rp973
(dp974
g12
VDT
p975
sbag0
(g1
g2
(lp976
Vwindow
p977
atp978
Rp979
(dp980
g12
VNN
p981
sbatp982
Rp983
(dp984
g12
VNP
p985
sbatp986
Rp987
(dp988
g12
VVP
p989
sbatp990
Rp991
(dp992
g12
VS
p993
sbag0
(g1
g2
(lp994
V,
p995
atp996
Rp997
(dp998
g12
V,
p999
sbag0
(g1
g2
(lp1000
g0
(g1
g2
(lp1001
Vyour
p1002
atp1003
Rp1004
(dp1005
g12
VPRP$
p1006
sbag0
(g1
g2
(lp1007
Vmama
p1008
atp1009
Rp1010
(dp1011
g12
VNN
p1012
sbatp1013
Rp1014
(dp1015
g12
VNP
p1016
sbag0
(g1
g2
(lp1017
g0
(g1
g2
(lp1018
Vcan
p1019
atp1020
Rp1021
(dp1022
g12
VMD
p1023
sbag0
(g1
g2
(lp1024
g0
(g1
g2
(lp1025
Vsee
p1026
atp1027
Rp1028
(dp1029
g12
VVB
p1030
sbag0
(g1
g2
(lp1031
g0
(g1
g2
(lp1032
Vout
p1033
atp1034
Rp1035
(dp1036
g12
VRP
p1037
sbatp1038
Rp1039
(dp1040
g12
VPRT
p1041
sbag0
(g1
g2
(lp1042
g0
(g1
g2
(lp1043
Vthe
p1044
atp1045
Rp1046
(dp1047
g12
VDT
p1048
sbag0
(g1
g2
(lp1049
Vwindow
p1050
atp1051
Rp1052
(dp1053
g12
VNN
p1054
sbatp1055
Rp1056
(dp1057
g12
VNP
p1058
sbatp1059
Rp1060
(dp1061
g12
VVP
p1062
sbatp1063
Rp1064
(dp1065
g12
VVP
p1066
sbag0
(g1
g2
(lp1067
V.
p1068
atp1069
Rp1070
(dp1071
g12
V.
p1072
sbatp1073
Rp1074
(dp1075
g12
VS
p1076
sbatp1077
Rp1078
(dp1079
g12
S'id: 6'
p1080
sbag0
(g1
g2
(lp1081
g0
(g1
g2
(lp1082
g0
(g1
g2
(lp1083
g0
(g1
g2
(lp1084
VYou
p1085
atp1086
Rp1087
(dp1088
g12
VPRP
p1089
sbatp1090
Rp1091
(dp1092
g12
VNP
p1093
sbag0
(g1
g2
(lp1094
g0
(g1
g2
(lp1095
Vgot
p1096
atp1097
Rp1098
(dp1099
g12
VVBD
p1100
sbag0
(g1
g2
(lp1101
g0
(g1
g2
(lp1102
g0
(g1
g2
(lp1103
Va
p1104
atp1105
Rp1106
(dp1107
g12
VDT
p1108
sbag0
(g1
g2
(lp1109
Vsidewalk
p1110
atp1111
Rp1112
(dp1113
g12
VNN
p1114
sbatp1115
Rp1116
(dp1117
g12
VNP
p1118
sbag0
(g1
g2
(lp1119
V,
p1120
atp1121
Rp1122
(dp1123
g12
V,
p1124
sbag0
(g1
g2
(lp1125
g0
(g1
g2
(lp1126
Va
p1127
atp1128
Rp1129
(dp1130
g12
VDT
p1131
sbag0
(g1
g2
(lp1132
Vwalkway
p1133
atp1134
Rp1135
(dp1136
g12
VNN
p1137
sbatp1138
Rp1139
(dp1140
g12
VNP
p1141
sbag0
(g1
g2
(lp1142
V,
p1143
atp1144
Rp1145
(dp1146
g12
V,
p1147
sbag0
(g1
g2
(lp1148
Vand
p1149
atp1150
Rp1151
(dp1152
g12
VCC
p1153
sbag0
(g1
g2
(lp1154
g0
(g1
g2
(lp1155
Vcurtains
p1156
atp1157
Rp1158
(dp1159
g12
VNNS
p1160
sbatp1161
Rp1162
(dp1163
g12
VNP
p1164
sbatp1165
Rp1166
(dp1167
g12
VNP
p1168
sbag0
(g1
g2
(lp1169
g0
(g1
g2
(lp1170
Vup
p1171
atp1172
Rp1173
(dp1174
g12
VRB
p1175
sbatp1176
Rp1177
(dp1178
g12
VADVP
p1179
sbatp1180
Rp1181
(dp1182
g12
VVP
p1183
sbag0
(g1
g2
(lp1184
V.
p1185
atp1186
Rp1187
(dp1188
g12
V.
p1189
sbatp1190
Rp1191
(dp1192
g12
VS
p1193
sbatp1194
Rp1195
(dp1196
g12
S'id: 7'
p1197
sbag0
(g1
g2
(lp1198
g0
(g1
g2
(lp1199
g0
(g1
g2
(lp1200
VNice
p1201
atp1202
Rp1203
(dp1204
g12
VJJ
p1205
sbag0
(g1
g2
(lp1206
Vkitchen
p1207
atp1208
Rp1209
(dp1210
g12
VNN
p1211
sbag0
(g1
g2
(lp1212
V.
p1213
atp1214
Rp1215
(dp1216
g12
V.
p1217
sbatp1218
Rp1219
(dp1220
g12
VNP
p1221
sbatp1222
Rp1223
(dp1224
g12
S'id: 8'
p1225
sbag0
(g1
g2
(lp1226
g0
(g1
g2
(lp1227
g0
(g1
g2
(lp1228
g0
(g1
g2
(lp1229
VMama
p1230
atp1231
Rp1232
(dp1233
g12
VNN
p1234
sbatp1235
Rp1236
(dp1237
g12
VNP
p1238
sbag0
(g1
g2
(lp1239
g0
(g1
g2
(lp1240
Veating
p1241
atp1242
Rp1243
(dp1244
g12
VNN
p1245
sbatp1246
Rp1247
(dp1248
g12
VNP
p1249
sbag0
(g1
g2
(lp1250
V.
p1251
atp1252
Rp1253
(dp1254
g12
V.
p1255
sbatp1256
Rp1257
(dp1258
g12
VNP
p1259
sbatp1260
Rp1261
(dp1262
g12
S'id: 9'
p1263
sbag0
(g1
g2
(lp1264
g0
(g1
g2
(lp1265
g0
(g1
g2
(lp1266
g0
(g1
g2
(lp1267
VShe
p1268
atp1269
Rp1270
(dp1271
g12
VPRP
p1272
sbatp1273
Rp1274
(dp1275
g12
VNP
p1276
sbag0
(g1
g2
(lp1277
Vnot
p1278
atp1279
Rp1280
(dp1281
g12
VRB
p1282
sbag0
(g1
g2
(lp1283
g0
(g1
g2
(lp1284
Vgot
p1285
atp1286
Rp1287
(dp1288
g12
VVBD
p1289
sbag0
(g1
g2
(lp1290
g0
(g1
g2
(lp1291
Vshoes
p1292
atp1293
Rp1294
(dp1295
g12
VNNS
p1296
sbatp1297
Rp1298
(dp1299
g12
VNP
p1300
sbag0
(g1
g2
(lp1301
g0
(g1
g2
(lp1302
Von
p1303
atp1304
Rp1305
(dp1306
g12
VIN
p1307
sbag0
(g1
g2
(lp1308
g0
(g1
g2
(lp1309
Vthe
p1310
atp1311
Rp1312
(dp1313
g12
VDT
p1314
sbag0
(g1
g2
(lp1315
Vfeet
p1316
atp1317
Rp1318
(dp1319
g12
VNNS
p1320
sbatp1321
Rp1322
(dp1323
g12
VNP
p1324
sbatp1325
Rp1326
(dp1327
g12
VPP
p1328
sbatp1329
Rp1330
(dp1331
g12
VVP
p1332
sbag0
(g1
g2
(lp1333
V.
p1334
atp1335
Rp1336
(dp1337
g12
V.
p1338
sbatp1339
Rp1340
(dp1341
g12
VS
p1342
sbatp1343
Rp1344
(dp1345
g12
S'id: 10'
p1346
sbag0
(g1
g2
(lp1347
g0
(g1
g2
(lp1348
g0
(g1
g2
(lp1349
g0
(g1
g2
(lp1350
VWater
p1351
atp1352
Rp1353
(dp1354
g12
VNN
p1355
sbatp1356
Rp1357
(dp1358
g12
VNP
p1359
sbag0
(g1
g2
(lp1360
V,
p1361
atp1362
Rp1363
(dp1364
g12
V,
p1365
sbag0
(g1
g2
(lp1366
g0
(g1
g2
(lp1367
Vshirt
p1368
atp1369
Rp1370
(dp1371
g12
VNN
p1372
sbatp1373
Rp1374
(dp1375
g12
VNP
p1376
sbag0
(g1
g2
(lp1377
V.
p1378
atp1379
Rp1380
(dp1381
g12
V.
p1382
sbatp1383
Rp1384
(dp1385
g12
VNP
p1386
sbatp1387
Rp1388
(dp1389
g12
S'id: 11'
p1390
sbatp1391
Rp1392
(dp1393
g12
S'sentences'
p1394
sb.