ccopy_reg
_reconstructor
p0
(cnltk.tree
Tree
p1
c__builtin__
list
p2
(lp3
g0
(g1
g2
(lp4
g0
(g1
g2
(lp5
g0
(g1
g2
(lp6
g0
(g1
g2
(lp7
Vwe
p8
atp9
Rp10
(dp11
S'_label'
p12
VPRP
p13
sbatp14
Rp15
(dp16
g12
VNP
p17
sbag0
(g1
g2
(lp18
g0
(g1
g2
(lp19
Vhad
p20
atp21
Rp22
(dp23
g12
VVBD
p24
sbag0
(g1
g2
(lp25
g0
(g1
g2
(lp26
Vthat
p27
atp28
Rp29
(dp30
g12
VIN
p31
sbag0
(g1
g2
(lp32
g0
(g1
g2
(lp33
Vone
p34
atp35
Rp36
(dp37
g12
VCD
p38
sbatp39
Rp40
(dp41
g12
VNP
p42
sbag0
(g1
g2
(lp43
g0
(g1
g2
(lp44
g0
(g1
g2
(lp45
Va
p46
atp47
Rp48
(dp49
g12
VDT
p50
sbag0
(g1
g2
(lp51
Vwhile
p52
atp53
Rp54
(dp55
g12
VNN
p56
sbatp57
Rp58
(dp59
g12
VNP
p60
sbag0
(g1
g2
(lp61
Vago
p62
atp63
Rp64
(dp65
g12
VRB
p66
sbatp67
Rp68
(dp69
g12
VADVP
p70
sbatp71
Rp72
(dp73
g12
VPP
p74
sbatp75
Rp76
(dp77
g12
VVP
p78
sbag0
(g1
g2
(lp79
V.
p80
atp81
Rp82
(dp83
g12
V.
p84
sbatp85
Rp86
(dp87
g12
VS
p88
sbatp89
Rp90
(dp91
g12
S'id: 0'
p92
sbag0
(g1
g2
(lp93
g0
(g1
g2
(lp94
g0
(g1
g2
(lp95
g0
(g1
g2
(lp96
g0
(g1
g2
(lp97
VLet
p98
atp99
Rp100
(dp101
g12
VVB
p102
sbag0
(g1
g2
(lp103
g0
(g1
g2
(lp104
g0
(g1
g2
(lp105
V's
p106
atp107
Rp108
(dp109
g12
VPRP
p110
sbatp111
Rp112
(dp113
g12
VNP
p114
sbag0
(g1
g2
(lp115
g0
(g1
g2
(lp116
Vsee
p117
atp118
Rp119
(dp120
g12
VVB
p121
sbatp122
Rp123
(dp124
g12
VVP
p125
sbatp126
Rp127
(dp128
g12
VS
p129
sbatp130
Rp131
(dp132
g12
VVP
p133
sbatp134
Rp135
(dp136
g12
VS
p137
sbag0
(g1
g2
(lp138
g0
(g1
g2
(lp139
Vwere
p140
atp141
Rp142
(dp143
g12
VVBD
p144
sbag0
(g1
g2
(lp145
g0
(g1
g2
(lp146
Vgoing
p147
atp148
Rp149
(dp150
g12
VVBG
p151
sbag0
(g1
g2
(lp152
g0
(g1
g2
(lp153
Vback
p154
atp155
Rp156
(dp157
g12
VRB
p158
sbatp159
Rp160
(dp161
g12
VADVP
p162
sbag0
(g1
g2
(lp163
g0
(g1
g2
(lp164
Von
p165
atp166
Rp167
(dp168
g12
VIN
p169
sbag0
(g1
g2
(lp170
g0
(g1
g2
(lp171
Vthe
p172
atp173
Rp174
(dp175
g12
VDT
p176
sbag0
(g1
g2
(lp177
Vpicnic
p178
atp179
Rp180
(dp181
g12
VNN
p182
sbatp183
Rp184
(dp185
g12
VNP
p186
sbatp187
Rp188
(dp189
g12
VPP
p190
sbag0
(g1
g2
(lp191
g0
(g1
g2
(lp192
Vagain
p193
atp194
Rp195
(dp196
g12
VRB
p197
sbatp198
Rp199
(dp200
g12
VADVP
p201
sbatp202
Rp203
(dp204
g12
VVP
p205
sbatp206
Rp207
(dp208
g12
VVP
p209
sbag0
(g1
g2
(lp210
V.
p211
atp212
Rp213
(dp214
g12
V.
p215
sbatp216
Rp217
(dp218
g12
VS
p219
sbatp220
Rp221
(dp222
g12
S'id: 1'
p223
sbag0
(g1
g2
(lp224
g0
(g1
g2
(lp225
g0
(g1
g2
(lp226
g0
(g1
g2
(lp227
g0
(g1
g2
(lp228
VDad
p229
atp230
Rp231
(dp232
g12
VNNP
p233
sbag0
(g1
g2
(lp234
V's
p235
atp236
Rp237
(dp238
g12
VPOS
p239
sbatp240
Rp241
(dp242
g12
VNP
p243
sbag0
(g1
g2
(lp244
g0
(g1
g2
(lp245
Vreading
p246
atp247
Rp248
(dp249
g12
VVBG
p250
sbag0
(g1
g2
(lp251
g0
(g1
g2
(lp252
g0
(g1
g2
(lp253
g0
(g1
g2
(lp254
Vhis
p255
atp256
Rp257
(dp258
g12
VPRP$
p259
sbag0
(g1
g2
(lp260
Vbook
p261
atp262
Rp263
(dp264
g12
VNN
p265
sbatp266
Rp267
(dp268
g12
VNP
p269
sbag0
(g1
g2
(lp270
V,
p271
atp272
Rp273
(dp274
g12
V,
p275
sbag0
(g1
g2
(lp276
g0
(g1
g2
(lp277
g0
(g1
g2
(lp278
Vmom
p279
atp280
Rp281
(dp282
g12
VNN
p283
sbatp284
Rp285
(dp286
g12
VNP
p287
sbag0
(g1
g2
(lp288
V's
p289
atp290
Rp291
(dp292
g12
VPOS
p293
sbatp294
Rp295
(dp296
g12
VNP
p297
sbatp298
Rp299
(dp300
g12
VNP
p301
sbag0
(g1
g2
(lp302
g0
(g1
g2
(lp303
Vdrinking
p304
atp305
Rp306
(dp307
g12
VVBG
p308
sbag0
(g1
g2
(lp309
g0
(g1
g2
(lp310
Vsome
p311
atp312
Rp313
(dp314
g12
VDT
p315
sbag0
(g1
g2
(lp316
Vwine
p317
atp318
Rp319
(dp320
g12
VNN
p321
sbatp322
Rp323
(dp324
g12
VNP
p325
sbatp326
Rp327
(dp328
g12
VVP
p329
sbatp330
Rp331
(dp332
g12
VS
p333
sbatp334
Rp335
(dp336
g12
VVP
p337
sbatp338
Rp339
(dp340
g12
VS
p341
sbag0
(g1
g2
(lp342
V,
p343
atp344
Rp345
(dp346
g12
V,
p347
sbag0
(g1
g2
(lp348
g0
(g1
g2
(lp349
Vsounds
p350
atp351
Rp352
(dp353
g12
VVBZ
p354
sbatp355
Rp356
(dp357
g12
VVP
p358
sbag0
(g1
g2
(lp359
g0
(g1
g2
(lp360
g0
(g1
g2
(lp361
Vgood
p362
atp363
Rp364
(dp365
g12
VJJ
p366
sbatp367
Rp368
(dp369
g12
VNP
p370
sbag0
(g1
g2
(lp371
g0
(g1
g2
(lp372
Vto
p373
atp374
Rp375
(dp376
g12
VTO
p377
sbag0
(g1
g2
(lp378
g0
(g1
g2
(lp379
Vme
p380
atp381
Rp382
(dp383
g12
VPRP
p384
sbatp385
Rp386
(dp387
g12
VNP
p388
sbatp389
Rp390
(dp391
g12
VPP
p392
sbatp393
Rp394
(dp395
g12
VNP
p396
sbag0
(g1
g2
(lp397
V.
p398
atp399
Rp400
(dp401
g12
V.
p402
sbatp403
Rp404
(dp405
g12
VSINV
p406
sbatp407
Rp408
(dp409
g12
S'id: 2'
p410
sbag0
(g1
g2
(lp411
g0
(g1
g2
(lp412
g0
(g1
g2
(lp413
g0
(g1
g2
(lp414
VListen
p415
atp416
Rp417
(dp418
g12
VVB
p419
sbag0
(g1
g2
(lp420
g0
(g1
g2
(lp421
Vto
p422
atp423
Rp424
(dp425
g12
VTO
p426
sbag0
(g1
g2
(lp427
g0
(g1
g2
(lp428
Vthe
p429
atp430
Rp431
(dp432
g12
VDT
p433
sbag0
(g1
g2
(lp434
Vradio
p435
atp436
Rp437
(dp438
g12
VNN
p439
sbatp440
Rp441
(dp442
g12
VNP
p443
sbatp444
Rp445
(dp446
g12
VPP
p447
sbatp448
Rp449
(dp450
g12
VVP
p451
sbag0
(g1
g2
(lp452
V.
p453
atp454
Rp455
(dp456
g12
V.
p457
sbatp458
Rp459
(dp460
g12
VS
p461
sbatp462
Rp463
(dp464
g12
S'id: 3'
p465
sbag0
(g1
g2
(lp466
g0
(g1
g2
(lp467
g0
(g1
g2
(lp468
VA
p469
atp470
Rp471
(dp472
g12
VDT
p473
sbag0
(g1
g2
(lp474
Vpretty
p475
atp476
Rp477
(dp478
g12
VJJ
p479
sbag0
(g1
g2
(lp480
Vday
p481
atp482
Rp483
(dp484
g12
VNN
p485
sbag0
(g1
g2
(lp486
V.
p487
atp488
Rp489
(dp490
g12
V.
p491
sbatp492
Rp493
(dp494
g12
VNP
p495
sbatp496
Rp497
(dp498
g12
S'id: 4'
p499
sbag0
(g1
g2
(lp500
g0
(g1
g2
(lp501
g0
(g1
g2
(lp502
g0
(g1
g2
(lp503
VLooks
p504
atp505
Rp506
(dp507
g12
VVBZ
p508
sbag0
(g1
g2
(lp509
g0
(g1
g2
(lp510
Vlike
p511
atp512
Rp513
(dp514
g12
VIN
p515
sbag0
(g1
g2
(lp516
g0
(g1
g2
(lp517
g0
(g1
g2
(lp518
Vthey
p519
atp520
Rp521
(dp522
g12
VPRP
p523
sbatp524
Rp525
(dp526
g12
VNP
p527
sbag0
(g1
g2
(lp528
g0
(g1
g2
(lp529
V're
p530
atp531
Rp532
(dp533
g12
VVBP
p534
sbatp535
Rp536
(dp537
g12
VVP
p538
sbatp539
Rp540
(dp541
g12
VS
p542
sbatp543
Rp544
(dp545
g12
VSBAR
p546
sbatp547
Rp548
(dp549
g12
VVP
p550
sbag0
(g1
g2
(lp551
V.
p552
atp553
Rp554
(dp555
g12
V.
p556
sbatp557
Rp558
(dp559
g12
VS
p560
sbatp561
Rp562
(dp563
g12
S'id: 5'
p564
sbag0
(g1
g2
(lp565
g0
(g1
g2
(lp566
g0
(g1
g2
(lp567
g0
(g1
g2
(lp568
VDont
p569
atp570
Rp571
(dp572
g12
VNNP
p573
sbatp574
Rp575
(dp576
g12
VNP
p577
sbag0
(g1
g2
(lp578
g0
(g1
g2
(lp579
Vknow
p580
atp581
Rp582
(dp583
g12
VVB
p584
sbag0
(g1
g2
(lp585
g0
(g1
g2
(lp586
g0
(g1
g2
(lp587
g0
(g1
g2
(lp588
Vif
p589
atp590
Rp591
(dp592
g12
VIN
p593
sbag0
(g1
g2
(lp594
g0
(g1
g2
(lp595
g0
(g1
g2
(lp596
Vthat
p597
atp598
Rp599
(dp600
g12
VDT
p601
sbatp602
Rp603
(dp604
g12
VNP
p605
sbag0
(g1
g2
(lp606
g0
(g1
g2
(lp607
V's
p608
atp609
Rp610
(dp611
g12
VVBZ
p612
sbag0
(g1
g2
(lp613
g0
(g1
g2
(lp614
g0
(g1
g2
(lp615
Va
p616
atp617
Rp618
(dp619
g12
VDT
p620
sbag0
(g1
g2
(lp621
Vcabin
p622
atp623
Rp624
(dp625
g12
VNN
p626
sbatp627
Rp628
(dp629
g12
VNP
p630
sbag0
(g1
g2
(lp631
Vor
p632
atp633
Rp634
(dp635
g12
VCC
p636
sbag0
(g1
g2
(lp637
g0
(g1
g2
(lp638
Vtheir
p639
atp640
Rp641
(dp642
g12
VPRP$
p643
sbag0
(g1
g2
(lp644
Vhouse
p645
atp646
Rp647
(dp648
g12
VNN
p649
sbatp650
Rp651
(dp652
g12
VNP
p653
sbatp654
Rp655
(dp656
g12
VNP
p657
sbatp658
Rp659
(dp660
g12
VVP
p661
sbatp662
Rp663
(dp664
g12
VS
p665
sbatp666
Rp667
(dp668
g12
VSBAR
p669
sbag0
(g1
g2
(lp670
V,
p671
atp672
Rp673
(dp674
g12
V,
p675
sbag0
(g1
g2
(lp676
g0
(g1
g2
(lp677
Vmust
p678
atp679
Rp680
(dp681
g12
VMD
p682
sbag0
(g1
g2
(lp683
g0
(g1
g2
(lp684
Vbe
p685
atp686
Rp687
(dp688
g12
VVB
p689
sbag0
(g1
g2
(lp690
g0
(g1
g2
(lp691
Vthat
p692
atp693
Rp694
(dp695
g12
VIN
p696
sbatp697
Rp698
(dp699
g12
VADJP
p700
sbatp701
Rp702
(dp703
g12
VVP
p704
sbatp705
Rp706
(dp707
g12
VVP
p708
sbatp709
Rp710
(dp711
g12
VS
p712
sbatp713
Rp714
(dp715
g12
VSBAR
p716
sbatp717
Rp718
(dp719
g12
VVP
p720
sbag0
(g1
g2
(lp721
V.
p722
atp723
Rp724
(dp725
g12
V.
p726
sbatp727
Rp728
(dp729
g12
VS
p730
sbatp731
Rp732
(dp733
g12
S'id: 6'
p734
sbag0
(g1
g2
(lp735
g0
(g1
g2
(lp736
g0
(g1
g2
(lp737
g0
(g1
g2
(lp738
VGot
p739
atp740
Rp741
(dp742
g12
VVBD
p743
sbag0
(g1
g2
(lp744
g0
(g1
g2
(lp745
Va
p746
atp747
Rp748
(dp749
g12
VDT
p750
sbag0
(g1
g2
(lp751
Vflag
p752
atp753
Rp754
(dp755
g12
VNN
p756
sbatp757
Rp758
(dp759
g12
VNP
p760
sbatp761
Rp762
(dp763
g12
VVP
p764
sbag0
(g1
g2
(lp765
V.
p766
atp767
Rp768
(dp769
g12
V.
p770
sbatp771
Rp772
(dp773
g12
VS
p774
sbatp775
Rp776
(dp777
g12
S'id: 7'
p778
sbag0
(g1
g2
(lp779
g0
(g1
g2
(lp780
g0
(g1
g2
(lp781
g0
(g1
g2
(lp782
VBoy
p783
atp784
Rp785
(dp786
g12
VNN
p787
sbag0
(g1
g2
(lp788
g0
(g1
g2
(lp789
g0
(g1
g2
(lp790
V's
p791
atp792
Rp793
(dp794
g12
VPOS
p795
sbatp796
Rp797
(dp798
g12
VNP
p799
sbag0
(g1
g2
(lp800
g0
(g1
g2
(lp801
Vflying
p802
atp803
Rp804
(dp805
g12
VVBG
p806
sbag0
(g1
g2
(lp807
g0
(g1
g2
(lp808
Va
p809
atp810
Rp811
(dp812
g12
VDT
p813
sbag0
(g1
g2
(lp814
Vkite
p815
atp816
Rp817
(dp818
g12
VNN
p819
sbatp820
Rp821
(dp822
g12
VNP
p823
sbatp824
Rp825
(dp826
g12
VVP
p827
sbatp828
Rp829
(dp830
g12
VS
p831
sbatp832
Rp833
(dp834
g12
VVP
p835
sbag0
(g1
g2
(lp836
V.
p837
atp838
Rp839
(dp840
g12
V.
p841
sbatp842
Rp843
(dp844
g12
VS
p845
sbatp846
Rp847
(dp848
g12
S'id: 8'
p849
sbag0
(g1
g2
(lp850
g0
(g1
g2
(lp851
g0
(g1
g2
(lp852
g0
(g1
g2
(lp853
g0
(g1
g2
(lp854
VThe
p855
atp856
Rp857
(dp858
g12
VDT
p859
sbag0
(g1
g2
(lp860
Vdog
p861
atp862
Rp863
(dp864
g12
VNN
p865
sbag0
(g1
g2
(lp866
V's
p867
atp868
Rp869
(dp870
g12
VPOS
p871
sbatp872
Rp873
(dp874
g12
VNP
p875
sbag0
(g1
g2
(lp876
g0
(g1
g2
(lp877
Vchanging
p878
atp879
Rp880
(dp881
g12
VVBG
p882
sbag0
(g1
g2
(lp883
g0
(g1
g2
(lp884
Vthe
p885
atp886
Rp887
(dp888
g12
VDT
p889
sbag0
(g1
g2
(lp890
Vboy
p891
atp892
Rp893
(dp894
g12
VNN
p895
sbatp896
Rp897
(dp898
g12
VNP
p899
sbatp900
Rp901
(dp902
g12
VVP
p903
sbatp904
Rp905
(dp906
g12
VS
p907
sbag0
(g1
g2
(lp908
V,
p909
atp910
Rp911
(dp912
g12
V,
p913
sbag0
(g1
g2
(lp914
g0
(g1
g2
(lp915
Vthe
p916
atp917
Rp918
(dp919
g12
VDT
p920
sbag0
(g1
g2
(lp921
Vdog
p922
atp923
Rp924
(dp925
g12
VNN
p926
sbatp927
Rp928
(dp929
g12
VNP
p930
sbag0
(g1
g2
(lp931
g0
(g1
g2
(lp932
Vis
p933
atp934
Rp935
(dp936
g12
VVBZ
p937
sbag0
(g1
g2
(lp938
g0
(g1
g2
(lp939
Vchanging
p940
atp941
Rp942
(dp943
g12
VVBG
p944
sbag0
(g1
g2
(lp945
g0
(g1
g2
(lp946
Vthe
p947
atp948
Rp949
(dp950
g12
VDT
p951
sbag0
(g1
g2
(lp952
Vboy
p953
atp954
Rp955
(dp956
g12
VNN
p957
sbatp958
Rp959
(dp960
g12
VNP
p961
sbatp962
Rp963
(dp964
g12
VVP
p965
sbatp966
Rp967
(dp968
g12
VVP
p969
sbag0
(g1
g2
(lp970
V.
p971
atp972
Rp973
(dp974
g12
V.
p975
sbatp976
Rp977
(dp978
g12
VS
p979
sbatp980
Rp981
(dp982
g12
S'id: 9'
p983
sbag0
(g1
g2
(lp984
g0
(g1
g2
(lp985
g0
(g1
g2
(lp986
g0
(g1
g2
(lp987
g0
(g1
g2
(lp988
VLooks
p989
atp990
Rp991
(dp992
g12
VVBZ
p993
sbag0
(g1
g2
(lp994
g0
(g1
g2
(lp995
Vlike
p996
atp997
Rp998
(dp999
g12
VIN
p1000
sbag0
(g1
g2
(lp1001
g0
(g1
g2
(lp1002
Vgrandpa
p1003
atp1004
Rp1005
(dp1006
g12
VNN
p1007
sbag0
(g1
g2
(lp1008
V's
p1009
atp1010
Rp1011
(dp1012
g12
VPOS
p1013
sbatp1014
Rp1015
(dp1016
g12
VNP
p1017
sbatp1018
Rp1019
(dp1020
g12
VPP
p1021
sbag0
(g1
g2
(lp1022
g0
(g1
g2
(lp1023
Vover
p1024
atp1025
Rp1026
(dp1027
g12
VIN
p1028
sbag0
(g1
g2
(lp1029
g0
(g1
g2
(lp1030
Vfishing
p1031
atp1032
Rp1033
(dp1034
g12
VNN
p1035
sbatp1036
Rp1037
(dp1038
g12
VNP
p1039
sbatp1040
Rp1041
(dp1042
g12
VPP
p1043
sbatp1044
Rp1045
(dp1046
g12
VVP
p1047
sbatp1048
Rp1049
(dp1050
g12
VS
p1051
sbag0
(g1
g2
(lp1052
V,
p1053
atp1054
Rp1055
(dp1056
g12
V,
p1057
sbag0
(g1
g2
(lp1058
g0
(g1
g2
(lp1059
Vgot
p1060
atp1061
Rp1062
(dp1063
g12
VVBD
p1064
sbag0
(g1
g2
(lp1065
g0
(g1
g2
(lp1066
Vhim
p1067
atp1068
Rp1069
(dp1070
g12
VPRP
p1071
sbatp1072
Rp1073
(dp1074
g12
VNP
p1075
sbatp1076
Rp1077
(dp1078
g12
VVP
p1079
sbag0
(g1
g2
(lp1080
g0
(g1
g2
(lp1081
Va
p1082
atp1083
Rp1084
(dp1085
g12
VDT
p1086
sbag0
(g1
g2
(lp1087
Vbig
p1088
atp1089
Rp1090
(dp1091
g12
VJJ
p1092
sbag0
(g1
g2
(lp1093
Vone
p1094
atp1095
Rp1096
(dp1097
g12
VNN
p1098
sbatp1099
Rp1100
(dp1101
g12
VNP
p1102
sbag0
(g1
g2
(lp1103
V.
p1104
atp1105
Rp1106
(dp1107
g12
V.
p1108
sbatp1109
Rp1110
(dp1111
g12
VSINV
p1112
sbatp1113
Rp1114
(dp1115
g12
S'id: 10'
p1116
sbag0
(g1
g2
(lp1117
g0
(g1
g2
(lp1118
g0
(g1
g2
(lp1119
g0
(g1
g2
(lp1120
g0
(g1
g2
(lp1121
VI
p1122
atp1123
Rp1124
(dp1125
g12
VPRP
p1126
sbatp1127
Rp1128
(dp1129
g12
VNP
p1130
sbag0
(g1
g2
(lp1131
g0
(g1
g2
(lp1132
Vsee
p1133
atp1134
Rp1135
(dp1136
g12
VVBP
p1137
sbag0
(g1
g2
(lp1138
g0
(g1
g2
(lp1139
g0
(g1
g2
(lp1140
g0
(g1
g2
(lp1141
Vsome
p1142
atp1143
Rp1144
(dp1145
g12
VDT
p1146
sbatp1147
Rp1148
(dp1149
g12
VNP
p1150
sbag0
(g1
g2
(lp1151
g0
(g1
g2
(lp1152
Vcould
p1153
atp1154
Rp1155
(dp1156
g12
VMD
p1157
sbag0
(g1
g2
(lp1158
g0
(g1
g2
(lp1159
Vover
p1160
atp1161
Rp1162
(dp1163
g12
VRB
p1164
sbatp1165
Rp1166
(dp1167
g12
VADVP
p1168
sbag0
(g1
g2
(lp1169
g0
(g1
g2
(lp1170
Vin
p1171
atp1172
Rp1173
(dp1174
g12
VIN
p1175
sbag0
(g1
g2
(lp1176
Vthe
p1177
atp1178
Rp1179
(dp1180
g12
VDT
p1181
sbatp1182
Rp1183
(dp1184
g12
VADVP
p1185
sbag0
(g1
g2
(lp1186
V,
p1187
atp1188
Rp1189
(dp1190
g12
V,
p1191
sbag0
(g1
g2
(lp1192
g0
(g1
g2
(lp1193
g0
(g1
g2
(lp1194
Vno
p1195
atp1196
Rp1197
(dp1198
g12
VDT
p1199
sbatp1200
Rp1201
(dp1202
g12
VWHNP
p1203
sbag0
(g1
g2
(lp1204
g0
(g1
g2
(lp1205
g0
(g1
g2
(lp1206
Vthat
p1207
atp1208
Rp1209
(dp1210
g12
VDT
p1211
sbatp1212
Rp1213
(dp1214
g12
VNP
p1215
sbag0
(g1
g2
(lp1216
g0
(g1
g2
(lp1217
V's
p1218
atp1219
Rp1220
(dp1221
g12
VVBZ
p1222
sbag0
(g1
g2
(lp1223
Vnot
p1224
atp1225
Rp1226
(dp1227
g12
VRB
p1228
sbatp1229
Rp1230
(dp1231
g12
VVP
p1232
sbatp1233
Rp1234
(dp1235
g12
VS
p1236
sbatp1237
Rp1238
(dp1239
g12
VSBAR
p1240
sbatp1241
Rp1242
(dp1243
g12
VVP
p1244
sbatp1245
Rp1246
(dp1247
g12
VS
p1248
sbatp1249
Rp1250
(dp1251
g12
VSBAR
p1252
sbatp1253
Rp1254
(dp1255
g12
VVP
p1256
sbatp1257
Rp1258
(dp1259
g12
VS
p1260
sbag0
(g1
g2
(lp1261
V,
p1262
atp1263
Rp1264
(dp1265
g12
V,
p1266
sbag0
(g1
g2
(lp1267
g0
(g1
g2
(lp1268
Vthat
p1269
atp1270
Rp1271
(dp1272
g12
VDT
p1273
sbatp1274
Rp1275
(dp1276
g12
VNP
p1277
sbag0
(g1
g2
(lp1278
g0
(g1
g2
(lp1279
V's
p1280
atp1281
Rp1282
(dp1283
g12
VVBZ
p1284
sbag0
(g1
g2
(lp1285
Vnot
p1286
atp1287
Rp1288
(dp1289
g12
VRB
p1290
sbag0
(g1
g2
(lp1291
g0
(g1
g2
(lp1292
g0
(g1
g2
(lp1293
g0
(g1
g2
(lp1294
Vclouds
p1295
atp1296
Rp1297
(dp1298
g12
VNNS
p1299
sbatp1300
Rp1301
(dp1302
g12
VNP
p1303
sbag0
(g1
g2
(lp1304
V,
p1305
atp1306
Rp1307
(dp1308
g12
V,
p1309
sbag0
(g1
g2
(lp1310
g0
(g1
g2
(lp1311
g0
(g1
g2
(lp1312
Vthat
p1313
atp1314
Rp1315
(dp1316
g12
VDT
p1317
sbatp1318
Rp1319
(dp1320
g12
VWHNP
p1321
sbag0
(g1
g2
(lp1322
g0
(g1
g2
(lp1323
g0
(g1
g2
(lp1324
V's
p1325
atp1326
Rp1327
(dp1328
g12
VVBZ
p1329
sbag0
(g1
g2
(lp1330
g0
(g1
g2
(lp1331
Vtree
p1332
atp1333
Rp1334
(dp1335
g12
VNN
p1336
sbatp1337
Rp1338
(dp1339
g12
VNP
p1340
sbatp1341
Rp1342
(dp1343
g12
VVP
p1344
sbatp1345
Rp1346
(dp1347
g12
VS
p1348
sbatp1349
Rp1350
(dp1351
g12
VSBAR
p1352
sbatp1353
Rp1354
(dp1355
g12
VNP
p1356
sbag0
(g1
g2
(lp1357
V,
p1358
atp1359
Rp1360
(dp1361
g12
V,
p1362
sbag0
(g1
g2
(lp1363
Vor
p1364
atp1365
Rp1366
(dp1367
g12
VCC
p1368
sbag0
(g1
g2
(lp1369
g0
(g1
g2
(lp1370
g0
(g1
g2
(lp1371
Vwoods
p1372
atp1373
Rp1374
(dp1375
g12
VNNS
p1376
sbatp1377
Rp1378
(dp1379
g12
VNP
p1380
sbag0
(g1
g2
(lp1381
V,
p1382
atp1383
Rp1384
(dp1385
g12
V,
p1386
sbag0
(g1
g2
(lp1387
g0
(g1
g2
(lp1388
Vtrees
p1389
atp1390
Rp1391
(dp1392
g12
VNNS
p1393
sbatp1394
Rp1395
(dp1396
g12
VNP
p1397
sbatp1398
Rp1399
(dp1400
g12
VNP
p1401
sbatp1402
Rp1403
(dp1404
g12
VNP
p1405
sbatp1406
Rp1407
(dp1408
g12
VVP
p1409
sbag0
(g1
g2
(lp1410
V.
p1411
atp1412
Rp1413
(dp1414
g12
V.
p1415
sbatp1416
Rp1417
(dp1418
g12
VS
p1419
sbatp1420
Rp1421
(dp1422
g12
S'id: 11'
p1423
sbag0
(g1
g2
(lp1424
g0
(g1
g2
(lp1425
g0
(g1
g2
(lp1426
g0
(g1
g2
(lp1427
VI
p1428
atp1429
Rp1430
(dp1431
g12
VPRP
p1432
sbatp1433
Rp1434
(dp1435
g12
VNP
p1436
sbag0
(g1
g2
(lp1437
g0
(g1
g2
(lp1438
Vsee
p1439
atp1440
Rp1441
(dp1442
g12
VVBP
p1443
sbag0
(g1
g2
(lp1444
g0
(g1
g2
(lp1445
g0
(g1
g2
(lp1446
Vsailboat
p1447
atp1448
Rp1449
(dp1450
g12
VNN
p1451
sbatp1452
Rp1453
(dp1454
g12
VNP
p1455
sbag0
(g1
g2
(lp1456
V,
p1457
atp1458
Rp1459
(dp1460
g12
V,
p1461
sbag0
(g1
g2
(lp1462
g0
(g1
g2
(lp1463
g0
(g1
g2
(lp1464
Vnumber
p1465
atp1466
Rp1467
(dp1468
g12
VNN
p1469
sbatp1470
Rp1471
(dp1472
g12
VNP
p1473
sbag0
(g1
g2
(lp1474
g0
(g1
g2
(lp1475
Vfour
p1476
atp1477
Rp1478
(dp1479
g12
VCD
p1480
sbag0
(g1
g2
(lp1481
Vseventy
p1482
atp1483
Rp1484
(dp1485
g12
VCD
p1486
sbatp1487
Rp1488
(dp1489
g12
VNP
p1490
sbatp1491
Rp1492
(dp1493
g12
VNP
p1494
sbatp1495
Rp1496
(dp1497
g12
VNP
p1498
sbatp1499
Rp1500
(dp1501
g12
VVP
p1502
sbag0
(g1
g2
(lp1503
V.
p1504
atp1505
Rp1506
(dp1507
g12
V.
p1508
sbatp1509
Rp1510
(dp1511
g12
VS
p1512
sbatp1513
Rp1514
(dp1515
g12
S'id: 12'
p1516
sbag0
(g1
g2
(lp1517
g0
(g1
g2
(lp1518
g0
(g1
g2
(lp1519
g0
(g1
g2
(lp1520
g0
(g1
g2
(lp1521
VTwo
p1522
atp1523
Rp1524
(dp1525
g12
VCD
p1526
sbag0
(g1
g2
(lp1527
Vguys
p1528
atp1529
Rp1530
(dp1531
g12
VNNS
p1532
sbatp1533
Rp1534
(dp1535
g12
VNP
p1536
sbag0
(g1
g2
(lp1537
Vand
p1538
atp1539
Rp1540
(dp1541
g12
VCC
p1542
sbag0
(g1
g2
(lp1543
g0
(g1
g2
(lp1544
Vthey
p1545
atp1546
Rp1547
(dp1548
g12
VPRP
p1549
sbatp1550
Rp1551
(dp1552
g12
VNP
p1553
sbatp1554
Rp1555
(dp1556
g12
VNP
p1557
sbag0
(g1
g2
(lp1558
g0
(g1
g2
(lp1559
V're
p1560
atp1561
Rp1562
(dp1563
g12
VVBP
p1564
sbag0
(g1
g2
(lp1565
g0
(g1
g2
(lp1566
Vwaving
p1567
atp1568
Rp1569
(dp1570
g12
VVBG
p1571
sbatp1572
Rp1573
(dp1574
g12
VVP
p1575
sbatp1576
Rp1577
(dp1578
g12
VVP
p1579
sbag0
(g1
g2
(lp1580
V.
p1581
atp1582
Rp1583
(dp1584
g12
V.
p1585
sbatp1586
Rp1587
(dp1588
g12
VS
p1589
sbatp1590
Rp1591
(dp1592
g12
S'id: 13'
p1593
sbag0
(g1
g2
(lp1594
g0
(g1
g2
(lp1595
g0
(g1
g2
(lp1596
g0
(g1
g2
(lp1597
g0
(g1
g2
(lp1598
g0
(g1
g2
(lp1599
g0
(g1
g2
(lp1600
VLittle
p1601
atp1602
Rp1603
(dp1604
g12
VJJ
p1605
sbag0
(g1
g2
(lp1606
Vgirl
p1607
atp1608
Rp1609
(dp1610
g12
VNN
p1611
sbag0
(g1
g2
(lp1612
V's
p1613
atp1614
Rp1615
(dp1616
g12
VPOS
p1617
sbatp1618
Rp1619
(dp1620
g12
VNP
p1621
sbag0
(g1
g2
(lp1622
Vplaying
p1623
atp1624
Rp1625
(dp1626
g12
VNN
p1627
sbatp1628
Rp1629
(dp1630
g12
VNP
p1631
sbag0
(g1
g2
(lp1632
g0
(g1
g2
(lp1633
Vin
p1634
atp1635
Rp1636
(dp1637
g12
VIN
p1638
sbag0
(g1
g2
(lp1639
g0
(g1
g2
(lp1640
g0
(g1
g2
(lp1641
g0
(g1
g2
(lp1642
Vthe
p1643
atp1644
Rp1645
(dp1646
g12
VDT
p1647
sbag0
(g1
g2
(lp1648
Vbeach
p1649
atp1650
Rp1651
(dp1652
g12
VNN
p1653
sbatp1654
Rp1655
(dp1656
g12
VNP
p1657
sbag0
(g1
g2
(lp1658
g0
(g1
g2
(lp1659
Vin
p1660
atp1661
Rp1662
(dp1663
g12
VIN
p1664
sbag0
(g1
g2
(lp1665
g0
(g1
g2
(lp1666
Vthe
p1667
atp1668
Rp1669
(dp1670
g12
VDT
p1671
sbag0
(g1
g2
(lp1672
Vsand
p1673
atp1674
Rp1675
(dp1676
g12
VNN
p1677
sbatp1678
Rp1679
(dp1680
g12
VNP
p1681
sbatp1682
Rp1683
(dp1684
g12
VPP
p1685
sbatp1686
Rp1687
(dp1688
g12
VNP
p1689
sbag0
(g1
g2
(lp1690
V,
p1691
atp1692
Rp1693
(dp1694
g12
V,
p1695
sbag0
(g1
g2
(lp1696
Vand
p1697
atp1698
Rp1699
(dp1700
g12
VCC
p1701
sbag0
(g1
g2
(lp1702
g0
(g1
g2
(lp1703
Vshe
p1704
atp1705
Rp1706
(dp1707
g12
VPRP
p1708
sbatp1709
Rp1710
(dp1711
g12
VNP
p1712
sbatp1713
Rp1714
(dp1715
g12
VNP
p1716
sbatp1717
Rp1718
(dp1719
g12
VPP
p1720
sbatp1721
Rp1722
(dp1723
g12
VNP
p1724
sbag0
(g1
g2
(lp1725
g0
(g1
g2
(lp1726
V's
p1727
atp1728
Rp1729
(dp1730
g12
VVBZ
p1731
sbatp1732
Rp1733
(dp1734
g12
VVP
p1735
sbatp1736
Rp1737
(dp1738
g12
VS
p1739
sbag0
(g1
g2
(lp1740
g0
(g1
g2
(lp1741
Vgot
p1742
atp1743
Rp1744
(dp1745
g12
VVBD
p1746
sbag0
(g1
g2
(lp1747
g0
(g1
g2
(lp1748
g0
(g1
g2
(lp1749
Va
p1750
atp1751
Rp1752
(dp1753
g12
VDT
p1754
sbag0
(g1
g2
(lp1755
Vshovel
p1756
atp1757
Rp1758
(dp1759
g12
VNN
p1760
sbatp1761
Rp1762
(dp1763
g12
VNP
p1764
sbag0
(g1
g2
(lp1765
V,
p1766
atp1767
Rp1768
(dp1769
g12
V,
p1770
sbag0
(g1
g2
(lp1771
Vand
p1772
atp1773
Rp1774
(dp1775
g12
VCC
p1776
sbag0
(g1
g2
(lp1777
g0
(g1
g2
(lp1778
Va
p1779
atp1780
Rp1781
(dp1782
g12
VDT
p1783
sbag0
(g1
g2
(lp1784
Vbucket
p1785
atp1786
Rp1787
(dp1788
g12
VNN
p1789
sbatp1790
Rp1791
(dp1792
g12
VNP
p1793
sbag0
(g1
g2
(lp1794
V,
p1795
atp1796
Rp1797
(dp1798
g12
V,
p1799
sbatp1800
Rp1801
(dp1802
g12
VNP
p1803
sbatp1804
Rp1805
(dp1806
g12
VVP
p1807
sbag0
(g1
g2
(lp1808
g0
(g1
g2
(lp1809
g0
(g1
g2
(lp1810
Vbucket
p1811
atp1812
Rp1813
(dp1814
g12
VNN
p1815
sbatp1816
Rp1817
(dp1818
g12
VNP
p1819
sbag0
(g1
g2
(lp1820
V,
p1821
atp1822
Rp1823
(dp1824
g12
V,
p1825
sbag0
(g1
g2
(lp1826
g0
(g1
g2
(lp1827
Vyeah
p1828
atp1829
Rp1830
(dp1831
g12
VNN
p1832
sbatp1833
Rp1834
(dp1835
g12
VNP
p1836
sbatp1837
Rp1838
(dp1839
g12
VNP
p1840
sbag0
(g1
g2
(lp1841
V.
p1842
atp1843
Rp1844
(dp1845
g12
V.
p1846
sbatp1847
Rp1848
(dp1849
g12
VSINV
p1850
sbatp1851
Rp1852
(dp1853
g12
S'id: 14'
p1854
sbag0
(g1
g2
(lp1855
g0
(g1
g2
(lp1856
g0
(g1
g2
(lp1857
g0
(g1
g2
(lp1858
VThe
p1859
atp1860
Rp1861
(dp1862
g12
VDT
p1863
sbag0
(g1
g2
(lp1864
g0
(g1
g2
(lp1865
Vboy
p1866
atp1867
Rp1868
(dp1869
g12
VNN
p1870
sbag0
(g1
g2
(lp1871
V's
p1872
atp1873
Rp1874
(dp1875
g12
VPOS
p1876
sbatp1877
Rp1878
(dp1879
g12
VNP
p1880
sbatp1881
Rp1882
(dp1883
g12
VNP
p1884
sbag0
(g1
g2
(lp1885
g0
(g1
g2
(lp1886
Vwearing
p1887
atp1888
Rp1889
(dp1890
g12
VVBG
p1891
sbag0
(g1
g2
(lp1892
g0
(g1
g2
(lp1893
Vtennis
p1894
atp1895
Rp1896
(dp1897
g12
VNN
p1898
sbag0
(g1
g2
(lp1899
Vshoes
p1900
atp1901
Rp1902
(dp1903
g12
VNNS
p1904
sbatp1905
Rp1906
(dp1907
g12
VNP
p1908
sbatp1909
Rp1910
(dp1911
g12
VVP
p1912
sbag0
(g1
g2
(lp1913
V.
p1914
atp1915
Rp1916
(dp1917
g12
V.
p1918
sbatp1919
Rp1920
(dp1921
g12
VNP
p1922
sbatp1923
Rp1924
(dp1925
g12
S'id: 15'
p1926
sbag0
(g1
g2
(lp1927
g0
(g1
g2
(lp1928
g0
(g1
g2
(lp1929
g0
(g1
g2
(lp1930
VHouse
p1931
atp1932
Rp1933
(dp1934
g12
VNNP
p1935
sbatp1936
Rp1937
(dp1938
g12
VNP
p1939
sbag0
(g1
g2
(lp1940
g0
(g1
g2
(lp1941
Vis
p1942
atp1943
Rp1944
(dp1945
g12
VVBZ
p1946
sbag0
(g1
g2
(lp1947
g0
(g1
g2
(lp1948
Vwhite
p1949
atp1950
Rp1951
(dp1952
g12
VJJ
p1953
sbatp1954
Rp1955
(dp1956
g12
VADJP
p1957
sbatp1958
Rp1959
(dp1960
g12
VVP
p1961
sbag0
(g1
g2
(lp1962
V.
p1963
atp1964
Rp1965
(dp1966
g12
V.
p1967
sbatp1968
Rp1969
(dp1970
g12
VS
p1971
sbatp1972
Rp1973
(dp1974
g12
S'id: 16'
p1975
sbag0
(g1
g2
(lp1976
g0
(g1
g2
(lp1977
g0
(g1
g2
(lp1978
g0
(g1
g2
(lp1979
g0
(g1
g2
(lp1980
VDad
p1981
atp1982
Rp1983
(dp1984
g12
VNNP
p1985
sbag0
(g1
g2
(lp1986
V's
p1987
atp1988
Rp1989
(dp1990
g12
VPOS
p1991
sbatp1992
Rp1993
(dp1994
g12
VNP
p1995
sbag0
(g1
g2
(lp1996
g0
(g1
g2
(lp1997
Vgetting
p1998
atp1999
Rp2000
(dp2001
g12
VVBG
p2002
sbag0
(g1
g2
(lp2003
g0
(g1
g2
(lp2004
Vold
p2005
atp2006
Rp2007
(dp2008
g12
VJJ
p2009
sbatp2010
Rp2011
(dp2012
g12
VADJP
p2013
sbatp2014
Rp2015
(dp2016
g12
VVP
p2017
sbatp2018
Rp2019
(dp2020
g12
VS
p2021
sbag0
(g1
g2
(lp2022
V,
p2023
atp2024
Rp2025
(dp2026
g12
V,
p2027
sbag0
(g1
g2
(lp2028
g0
(g1
g2
(lp2029
Vhe
p2030
atp2031
Rp2032
(dp2033
g12
VPRP
p2034
sbatp2035
Rp2036
(dp2037
g12
VNP
p2038
sbag0
(g1
g2
(lp2039
g0
(g1
g2
(lp2040
V's
p2041
atp2042
Rp2043
(dp2044
g12
VVBZ
p2045
sbag0
(g1
g2
(lp2046
g0
(g1
g2
(lp2047
Vgot
p2048
atp2049
Rp2050
(dp2051
g12
VVBN
p2052
sbag0
(g1
g2
(lp2053
g0
(g1
g2
(lp2054
Vwhite
p2055
atp2056
Rp2057
(dp2058
g12
VJJ
p2059
sbag0
(g1
g2
(lp2060
Vhair
p2061
atp2062
Rp2063
(dp2064
g12
VNN
p2065
sbatp2066
Rp2067
(dp2068
g12
VNP
p2069
sbag0
(g1
g2
(lp2070
g0
(g1
g2
(lp2071
Vtoo
p2072
atp2073
Rp2074
(dp2075
g12
VRB
p2076
sbatp2077
Rp2078
(dp2079
g12
VADVP
p2080
sbatp2081
Rp2082
(dp2083
g12
VVP
p2084
sbatp2085
Rp2086
(dp2087
g12
VVP
p2088
sbag0
(g1
g2
(lp2089
V.
p2090
atp2091
Rp2092
(dp2093
g12
V.
p2094
sbatp2095
Rp2096
(dp2097
g12
VS
p2098
sbatp2099
Rp2100
(dp2101
g12
S'id: 17'
p2102
sbag0
(g1
g2
(lp2103
g0
(g1
g2
(lp2104
g0
(g1
g2
(lp2105
g0
(g1
g2
(lp2106
VI
p2107
atp2108
Rp2109
(dp2110
g12
VPRP
p2111
sbatp2112
Rp2113
(dp2114
g12
VNP
p2115
sbag0
(g1
g2
(lp2116
g0
(g1
g2
(lp2117
V'm
p2118
atp2119
Rp2120
(dp2121
g12
VVBP
p2122
sbag0
(g1
g2
(lp2123
g0
(g1
g2
(lp2124
Vhaving
p2125
atp2126
Rp2127
(dp2128
g12
VVBG
p2129
sbag0
(g1
g2
(lp2130
g0
(g1
g2
(lp2131
Vfun
p2132
atp2133
Rp2134
(dp2135
g12
VNN
p2136
sbatp2137
Rp2138
(dp2139
g12
VNP
p2140
sbatp2141
Rp2142
(dp2143
g12
VVP
p2144
sbatp2145
Rp2146
(dp2147
g12
VVP
p2148
sbag0
(g1
g2
(lp2149
V.
p2150
atp2151
Rp2152
(dp2153
g12
V.
p2154
sbatp2155
Rp2156
(dp2157
g12
VS
p2158
sbatp2159
Rp2160
(dp2161
g12
S'id: 18'
p2162
sbag0
(g1
g2
(lp2163
g0
(g1
g2
(lp2164
g0
(g1
g2
(lp2165
g0
(g1
g2
(lp2166
VTook
p2167
atp2168
Rp2169
(dp2170
g12
VVBD
p2171
sbag0
(g1
g2
(lp2172
g0
(g1
g2
(lp2173
Vhis
p2174
atp2175
Rp2176
(dp2177
g12
VPRP$
p2178
sbag0
(g1
g2
(lp2179
Vsandals
p2180
atp2181
Rp2182
(dp2183
g12
VNNS
p2184
sbatp2185
Rp2186
(dp2187
g12
VNP
p2188
sbag0
(g1
g2
(lp2189
g0
(g1
g2
(lp2190
Voff
p2191
atp2192
Rp2193
(dp2194
g12
VIN
p2195
sbag0
(g1
g2
(lp2196
g0
(g1
g2
(lp2197
Vhis
p2198
atp2199
Rp2200
(dp2201
g12
VPRP$
p2202
sbag0
(g1
g2
(lp2203
Vhands
p2204
atp2205
Rp2206
(dp2207
g12
VNNS
p2208
sbatp2209
Rp2210
(dp2211
g12
VNP
p2212
sbatp2213
Rp2214
(dp2215
g12
VPP
p2216
sbatp2217
Rp2218
(dp2219
g12
VVP
p2220
sbag0
(g1
g2
(lp2221
V.
p2222
atp2223
Rp2224
(dp2225
g12
V.
p2226
sbatp2227
Rp2228
(dp2229
g12
VS
p2230
sbatp2231
Rp2232
(dp2233
g12
S'id: 19'
p2234
sbag0
(g1
g2
(lp2235
g0
(g1
g2
(lp2236
g0
(g1
g2
(lp2237
g0
(g1
g2
(lp2238
VSitting
p2239
atp2240
Rp2241
(dp2242
g12
VVBG
p2243
sbag0
(g1
g2
(lp2244
g0
(g1
g2
(lp2245
Von
p2246
atp2247
Rp2248
(dp2249
g12
VIN
p2250
sbag0
(g1
g2
(lp2251
g0
(g1
g2
(lp2252
Va
p2253
atp2254
Rp2255
(dp2256
g12
VDT
p2257
sbag0
(g1
g2
(lp2258
Vblanket
p2259
atp2260
Rp2261
(dp2262
g12
VNN
p2263
sbatp2264
Rp2265
(dp2266
g12
VNP
p2267
sbatp2268
Rp2269
(dp2270
g12
VPP
p2271
sbatp2272
Rp2273
(dp2274
g12
VVP
p2275
sbag0
(g1
g2
(lp2276
V.
p2277
atp2278
Rp2279
(dp2280
g12
V.
p2281
sbatp2282
Rp2283
(dp2284
g12
VS
p2285
sbatp2286
Rp2287
(dp2288
g12
S'id: 20'
p2289
sbag0
(g1
g2
(lp2290
g0
(g1
g2
(lp2291
g0
(g1
g2
(lp2292
g0
(g1
g2
(lp2293
VPicnic
p2294
atp2295
Rp2296
(dp2297
g12
VNN
p2298
sbatp2299
Rp2300
(dp2301
g12
VNP
p2302
sbag0
(g1
g2
(lp2303
g0
(g1
g2
(lp2304
Vbasket
p2305
atp2306
Rp2307
(dp2308
g12
VNN
p2309
sbatp2310
Rp2311
(dp2312
g12
VNP
p2313
sbag0
(g1
g2
(lp2314
V.
p2315
atp2316
Rp2317
(dp2318
g12
V.
p2319
sbatp2320
Rp2321
(dp2322
g12
VNP
p2323
sbatp2324
Rp2325
(dp2326
g12
S'id: 21'
p2327
sbag0
(g1
g2
(lp2328
g0
(g1
g2
(lp2329
g0
(g1
g2
(lp2330
g0
(g1
g2
(lp2331
VNo
p2332
atp2333
Rp2334
(dp2335
g12
VDT
p2336
sbag0
(g1
g2
(lp2337
Vfood
p2338
atp2339
Rp2340
(dp2341
g12
VNN
p2342
sbatp2343
Rp2344
(dp2345
g12
VNP
p2346
sbag0
(g1
g2
(lp2347
g0
(g1
g2
(lp2348
Vjust
p2349
atp2350
Rp2351
(dp2352
g12
VRB
p2353
sbag0
(g1
g2
(lp2354
Vwine
p2355
atp2356
Rp2357
(dp2358
g12
VNN
p2359
sbatp2360
Rp2361
(dp2362
g12
VNP
p2363
sbatp2364
Rp2365
(dp2366
g12
VNP
p2367
sbatp2368
Rp2369
(dp2370
g12
S'id: 22'
p2371
sbatp2372
Rp2373
(dp2374
g12
S'sentences'
p2375
sb.