ccopy_reg
_reconstructor
p0
(cnltk.tree
Tree
p1
c__builtin__
list
p2
(lp3
g0
(g1
g2
(lp4
g0
(g1
g2
(lp5
g0
(g1
g2
(lp6
g0
(g1
g2
(lp7
g0
(g1
g2
(lp8
Vok
p9
atp10
Rp11
(dp12
S'_label'
p13
VNN
p14
sbatp15
Rp16
(dp17
g13
VNP
p18
sbag0
(g1
g2
(lp19
g0
(g1
g2
(lp20
Vgot
p21
atp22
Rp23
(dp24
g13
VVBD
p25
sbag0
(g1
g2
(lp26
g0
(g1
g2
(lp27
Va
p28
atp29
Rp30
(dp31
g13
VDT
p32
sbag0
(g1
g2
(lp33
Vhigh
p34
atp35
Rp36
(dp37
g13
VJJ
p38
sbag0
(g1
g2
(lp39
Vwire
p40
atp41
Rp42
(dp43
g13
VNN
p44
sbatp45
Rp46
(dp47
g13
VNP
p48
sbatp49
Rp50
(dp51
g13
VVP
p52
sbatp53
Rp54
(dp55
g13
VS
p56
sbag0
(g1
g2
(lp57
V,
p58
atp59
Rp60
(dp61
g13
V,
p62
sbag0
(g1
g2
(lp63
g0
(g1
g2
(lp64
Vyou
p65
atp66
Rp67
(dp68
g13
VPRP
p69
sbatp70
Rp71
(dp72
g13
VNP
p73
sbag0
(g1
g2
(lp74
g0
(g1
g2
(lp75
Vgot
p76
atp77
Rp78
(dp79
g13
VVBD
p80
sbag0
(g1
g2
(lp81
g0
(g1
g2
(lp82
g0
(g1
g2
(lp83
Va
p84
atp85
Rp86
(dp87
g13
VDT
p88
sbag0
(g1
g2
(lp89
Vman
p90
atp91
Rp92
(dp93
g13
VNN
p94
sbatp95
Rp96
(dp97
g13
VNP
p98
sbag0
(g1
g2
(lp99
g0
(g1
g2
(lp100
Vteaching
p101
atp102
Rp103
(dp104
g13
VVBG
p105
sbag0
(g1
g2
(lp106
g0
(g1
g2
(lp107
Vthe
p108
atp109
Rp110
(dp111
g13
VDT
p112
sbag0
(g1
g2
(lp113
Vlion
p114
atp115
Rp116
(dp117
g13
VNN
p118
sbag0
(g1
g2
(lp119
g0
(g1
g2
(lp120
g0
(g1
g2
(lp121
Vto
p122
atp123
Rp124
(dp125
g13
VTO
p126
sbag0
(g1
g2
(lp127
g0
(g1
g2
(lp128
Vdo
p129
atp130
Rp131
(dp132
g13
VVB
p133
sbag0
(g1
g2
(lp134
g0
(g1
g2
(lp135
g0
(g1
g2
(lp136
Vtricks
p137
atp138
Rp139
(dp140
g13
VNNS
p141
sbatp142
Rp143
(dp144
g13
VNP
p145
sbag0
(g1
g2
(lp146
g0
(g1
g2
(lp147
Vinside
p148
atp149
Rp150
(dp151
g13
VIN
p152
sbag0
(g1
g2
(lp153
g0
(g1
g2
(lp154
Vthe
p155
atp156
Rp157
(dp158
g13
VDT
p159
sbag0
(g1
g2
(lp160
Vcage
p161
atp162
Rp163
(dp164
g13
VNN
p165
sbatp166
Rp167
(dp168
g13
VNP
p169
sbatp170
Rp171
(dp172
g13
VPP
p173
sbatp174
Rp175
(dp176
g13
VNP
p177
sbatp178
Rp179
(dp180
g13
VVP
p181
sbatp182
Rp183
(dp184
g13
VVP
p185
sbatp186
Rp187
(dp188
g13
VS
p189
sbatp190
Rp191
(dp192
g13
VNP
p193
sbatp194
Rp195
(dp196
g13
VVP
p197
sbatp198
Rp199
(dp200
g13
VNP
p201
sbatp202
Rp203
(dp204
g13
VVP
p205
sbag0
(g1
g2
(lp206
V.
p207
atp208
Rp209
(dp210
g13
V.
p211
sbatp212
Rp213
(dp214
g13
VS
p215
sbatp216
Rp217
(dp218
g13
S'id: 0'
p219
sbag0
(g1
g2
(lp220
g0
(g1
g2
(lp221
g0
(g1
g2
(lp222
g0
(g1
g2
(lp223
VYou
p224
atp225
Rp226
(dp227
g13
VPRP
p228
sbatp229
Rp230
(dp231
g13
VNP
p232
sbag0
(g1
g2
(lp233
g0
(g1
g2
(lp234
Vgot
p235
atp236
Rp237
(dp238
g13
VVBD
p239
sbag0
(g1
g2
(lp240
g0
(g1
g2
(lp241
g0
(g1
g2
(lp242
Va
p243
atp244
Rp245
(dp246
g13
VDT
p247
sbag0
(g1
g2
(lp248
Vnumber
p249
atp250
Rp251
(dp252
g13
VNN
p253
sbatp254
Rp255
(dp256
g13
VNP
p257
sbag0
(g1
g2
(lp258
g0
(g1
g2
(lp259
Vof
p260
atp261
Rp262
(dp263
g13
VIN
p264
sbag0
(g1
g2
(lp265
g0
(g1
g2
(lp266
Vpeople
p267
atp268
Rp269
(dp270
g13
VNNS
p271
sbatp272
Rp273
(dp274
g13
VNP
p275
sbatp276
Rp277
(dp278
g13
VPP
p279
sbatp280
Rp281
(dp282
g13
VNP
p283
sbag0
(g1
g2
(lp284
g0
(g1
g2
(lp285
Varound
p286
atp287
Rp288
(dp289
g13
VIN
p290
sbag0
(g1
g2
(lp291
g0
(g1
g2
(lp292
g0
(g1
g2
(lp293
g0
(g1
g2
(lp294
Vlooking
p295
atp296
Rp297
(dp298
g13
VVBG
p299
sbag0
(g1
g2
(lp300
g0
(g1
g2
(lp301
Vat
p302
atp303
Rp304
(dp305
g13
VIN
p306
sbag0
(g1
g2
(lp307
g0
(g1
g2
(lp308
g0
(g1
g2
(lp309
Vthe
p310
atp311
Rp312
(dp313
g13
VDT
p314
sbag0
(g1
g2
(lp315
Vdifferent
p316
atp317
Rp318
(dp319
g13
VJJ
p320
sbag0
(g1
g2
(lp321
Vones
p322
atp323
Rp324
(dp325
g13
VNNS
p326
sbatp327
Rp328
(dp329
g13
VNP
p330
sbag0
(g1
g2
(lp331
g0
(g1
g2
(lp332
Vin
p333
atp334
Rp335
(dp336
g13
VIN
p337
sbag0
(g1
g2
(lp338
g0
(g1
g2
(lp339
g0
(g1
g2
(lp340
Vthe
p341
atp342
Rp343
(dp344
g13
VDT
p345
sbag0
(g1
g2
(lp346
Vring
p347
atp348
Rp349
(dp350
g13
VNN
p351
sbatp352
Rp353
(dp354
g13
VNP
p355
sbag0
(g1
g2
(lp356
V,
p357
atp358
Rp359
(dp360
g13
V,
p361
sbag0
(g1
g2
(lp362
g0
(g1
g2
(lp363
g0
(g1
g2
(lp364
Vwhere
p365
atp366
Rp367
(dp368
g13
VWRB
p369
sbatp370
Rp371
(dp372
g13
VWHADVP
p373
sbag0
(g1
g2
(lp374
g0
(g1
g2
(lp375
g0
(g1
g2
(lp376
Vthe
p377
atp378
Rp379
(dp380
g13
VDT
p381
sbag0
(g1
g2
(lp382
Vgirl
p383
atp384
Rp385
(dp386
g13
VNN
p387
sbatp388
Rp389
(dp390
g13
VNP
p391
sbag0
(g1
g2
(lp392
g0
(g1
g2
(lp393
Vis
p394
atp395
Rp396
(dp397
g13
VVBZ
p398
sbag0
(g1
g2
(lp399
g0
(g1
g2
(lp400
Vriding
p401
atp402
Rp403
(dp404
g13
VVBG
p405
sbag0
(g1
g2
(lp406
g0
(g1
g2
(lp407
Von
p408
atp409
Rp410
(dp411
g13
VIN
p412
sbag0
(g1
g2
(lp413
g0
(g1
g2
(lp414
Vthe
p415
atp416
Rp417
(dp418
g13
VDT
p419
sbag0
(g1
g2
(lp420
Vhorse
p421
atp422
Rp423
(dp424
g13
VNN
p425
sbatp426
Rp427
(dp428
g13
VNP
p429
sbatp430
Rp431
(dp432
g13
VPP
p433
sbatp434
Rp435
(dp436
g13
VVP
p437
sbatp438
Rp439
(dp440
g13
VVP
p441
sbatp442
Rp443
(dp444
g13
VS
p445
sbatp446
Rp447
(dp448
g13
VSBAR
p449
sbatp450
Rp451
(dp452
g13
VNP
p453
sbatp454
Rp455
(dp456
g13
VPP
p457
sbatp458
Rp459
(dp460
g13
VNP
p461
sbatp462
Rp463
(dp464
g13
VPP
p465
sbatp466
Rp467
(dp468
g13
VVP
p469
sbag0
(g1
g2
(lp470
V,
p471
atp472
Rp473
(dp474
g13
V,
p475
sbag0
(g1
g2
(lp476
Vand
p477
atp478
Rp479
(dp480
g13
VCC
p481
sbag0
(g1
g2
(lp482
g0
(g1
g2
(lp483
Vstanding
p484
atp485
Rp486
(dp487
g13
VVBG
p488
sbag0
(g1
g2
(lp489
g0
(g1
g2
(lp490
Vup
p491
atp492
Rp493
(dp494
g13
VRP
p495
sbatp496
Rp497
(dp498
g13
VPRT
p499
sbatp500
Rp501
(dp502
g13
VVP
p503
sbag0
(g1
g2
(lp504
V,
p505
atp506
Rp507
(dp508
g13
V,
p509
sbag0
(g1
g2
(lp510
Vand
p511
atp512
Rp513
(dp514
g13
VCC
p515
sbag0
(g1
g2
(lp516
g0
(g1
g2
(lp517
Vsitting
p518
atp519
Rp520
(dp521
g13
VVBG
p522
sbag0
(g1
g2
(lp523
g0
(g1
g2
(lp524
Vdown
p525
atp526
Rp527
(dp528
g13
VRP
p529
sbatp530
Rp531
(dp532
g13
VPRT
p533
sbag0
(g1
g2
(lp534
V,
p535
atp536
Rp537
(dp538
g13
V,
p539
sbag0
(g1
g2
(lp540
g0
(g1
g2
(lp541
Vthat
p542
atp543
Rp544
(dp545
g13
VIN
p546
sbag0
(g1
g2
(lp547
Vsort
p548
atp549
Rp550
(dp551
g13
VNN
p552
sbag0
(g1
g2
(lp553
g0
(g1
g2
(lp554
Vof
p555
atp556
Rp557
(dp558
g13
VIN
p559
sbag0
(g1
g2
(lp560
g0
(g1
g2
(lp561
Vthing
p562
atp563
Rp564
(dp565
g13
VNN
p566
sbatp567
Rp568
(dp569
g13
VNP
p570
sbatp571
Rp572
(dp573
g13
VPP
p574
sbatp575
Rp576
(dp577
g13
VADVP
p578
sbatp579
Rp580
(dp581
g13
VVP
p582
sbatp583
Rp584
(dp585
g13
VVP
p586
sbatp587
Rp588
(dp589
g13
VS
p590
sbatp591
Rp592
(dp593
g13
VPP
p594
sbatp595
Rp596
(dp597
g13
VVP
p598
sbag0
(g1
g2
(lp599
V.
p600
atp601
Rp602
(dp603
g13
V.
p604
sbatp605
Rp606
(dp607
g13
VS
p608
sbatp609
Rp610
(dp611
g13
S'id: 1'
p612
sbag0
(g1
g2
(lp613
g0
(g1
g2
(lp614
g0
(g1
g2
(lp615
g0
(g1
g2
(lp616
g0
(g1
g2
(lp617
VYou
p618
atp619
Rp620
(dp621
g13
VPRP
p622
sbatp623
Rp624
(dp625
g13
VNP
p626
sbag0
(g1
g2
(lp627
g0
(g1
g2
(lp628
Vgot
p629
atp630
Rp631
(dp632
g13
VVBD
p633
sbag0
(g1
g2
(lp634
g0
(g1
g2
(lp635
g0
(g1
g2
(lp636
Va
p637
atp638
Rp639
(dp640
g13
VDT
p641
sbag0
(g1
g2
(lp642
Vclown
p643
atp644
Rp645
(dp646
g13
VNN
p647
sbatp648
Rp649
(dp650
g13
VNP
p651
sbag0
(g1
g2
(lp652
g0
(g1
g2
(lp653
Vthere
p654
atp655
Rp656
(dp657
g13
VEX
p658
sbatp659
Rp660
(dp661
g13
VNP
p662
sbag0
(g1
g2
(lp663
g0
(g1
g2
(lp664
g0
(g1
g2
(lp665
Vthat
p666
atp667
Rp668
(dp669
g13
VWDT
p670
sbatp671
Rp672
(dp673
g13
VWHNP
p674
sbag0
(g1
g2
(lp675
g0
(g1
g2
(lp676
g0
(g1
g2
(lp677
Vhas
p678
atp679
Rp680
(dp681
g13
VVBZ
p682
sbag0
(g1
g2
(lp683
g0
(g1
g2
(lp684
g0
(g1
g2
(lp685
Vhis
p686
atp687
Rp688
(dp689
g13
VPRP$
p690
sbag0
(g1
g2
(lp691
Vlittle
p692
atp693
Rp694
(dp695
g13
VJJ
p696
sbag0
(g1
g2
(lp697
Vjar
p698
atp699
Rp700
(dp701
g13
VNN
p702
sbatp703
Rp704
(dp705
g13
VNP
p706
sbag0
(g1
g2
(lp707
g0
(g1
g2
(lp708
Vof
p709
atp710
Rp711
(dp712
g13
VIN
p713
sbag0
(g1
g2
(lp714
g0
(g1
g2
(lp715
Vthings
p716
atp717
Rp718
(dp719
g13
VNNS
p720
sbatp721
Rp722
(dp723
g13
VNP
p724
sbatp725
Rp726
(dp727
g13
VPP
p728
sbatp729
Rp730
(dp731
g13
VNP
p732
sbatp733
Rp734
(dp735
g13
VVP
p736
sbatp737
Rp738
(dp739
g13
VS
p740
sbatp741
Rp742
(dp743
g13
VSBAR
p744
sbatp745
Rp746
(dp747
g13
VS
p748
sbatp749
Rp750
(dp751
g13
VVP
p752
sbatp753
Rp754
(dp755
g13
VS
p756
sbag0
(g1
g2
(lp757
V,
p758
atp759
Rp760
(dp761
g13
V,
p762
sbag0
(g1
g2
(lp763
Vand
p764
atp765
Rp766
(dp767
g13
VCC
p768
sbag0
(g1
g2
(lp769
g0
(g1
g2
(lp770
g0
(g1
g2
(lp771
Vhe
p772
atp773
Rp774
(dp775
g13
VPRP
p776
sbatp777
Rp778
(dp779
g13
VNP
p780
sbag0
(g1
g2
(lp781
g0
(g1
g2
(lp782
Vopens
p783
atp784
Rp785
(dp786
g13
VVBZ
p787
sbag0
(g1
g2
(lp788
g0
(g1
g2
(lp789
g0
(g1
g2
(lp790
Vit
p791
atp792
Rp793
(dp794
g13
VPRP
p795
sbatp796
Rp797
(dp798
g13
VNP
p799
sbag0
(g1
g2
(lp800
Vand
p801
atp802
Rp803
(dp804
g13
VCC
p805
sbag0
(g1
g2
(lp806
g0
(g1
g2
(lp807
Vconfetti
p808
atp809
Rp810
(dp811
g13
VNN
p812
sbatp813
Rp814
(dp815
g13
VNP
p816
sbag0
(g1
g2
(lp817
V,
p818
atp819
Rp820
(dp821
g13
V,
p822
sbag0
(g1
g2
(lp823
Vor
p824
atp825
Rp826
(dp827
g13
VCC
p828
sbag0
(g1
g2
(lp829
g0
(g1
g2
(lp830
g0
(g1
g2
(lp831
Vwhatever
p832
atp833
Rp834
(dp835
g13
VWDT
p836
sbatp837
Rp838
(dp839
g13
VWHNP
p840
sbag0
(g1
g2
(lp841
V,
p842
atp843
Rp844
(dp845
g13
V,
p846
sbag0
(g1
g2
(lp847
g0
(g1
g2
(lp848
g0
(g1
g2
(lp849
Vcomes
p850
atp851
Rp852
(dp853
g13
VVBZ
p854
sbag0
(g1
g2
(lp855
g0
(g1
g2
(lp856
Vout
p857
atp858
Rp859
(dp860
g13
VRP
p861
sbatp862
Rp863
(dp864
g13
VPRT
p865
sbatp866
Rp867
(dp868
g13
VVP
p869
sbatp870
Rp871
(dp872
g13
VS
p873
sbatp874
Rp875
(dp876
g13
VSBAR
p877
sbatp878
Rp879
(dp880
g13
VNP
p881
sbatp882
Rp883
(dp884
g13
VVP
p885
sbatp886
Rp887
(dp888
g13
VS
p889
sbag0
(g1
g2
(lp890
V.
p891
atp892
Rp893
(dp894
g13
V.
p895
sbatp896
Rp897
(dp898
g13
VS
p899
sbatp900
Rp901
(dp902
g13
S'id: 2'
p903
sbag0
(g1
g2
(lp904
g0
(g1
g2
(lp905
g0
(g1
g2
(lp906
VAnd
p907
atp908
Rp909
(dp910
g13
VCC
p911
sbag0
(g1
g2
(lp912
g0
(g1
g2
(lp913
Vall
p914
atp915
Rp916
(dp917
g13
VPDT
p918
sbag0
(g1
g2
(lp919
Vthe
p920
atp921
Rp922
(dp923
g13
VDT
p924
sbag0
(g1
g2
(lp925
Vkids
p926
atp927
Rp928
(dp929
g13
VNNS
p930
sbatp931
Rp932
(dp933
g13
VNP
p934
sbag0
(g1
g2
(lp935
g0
(g1
g2
(lp936
Vare
p937
atp938
Rp939
(dp940
g13
VVBP
p941
sbag0
(g1
g2
(lp942
g0
(g1
g2
(lp943
Vwanting
p944
atp945
Rp946
(dp947
g13
VVBG
p948
sbag0
(g1
g2
(lp949
g0
(g1
g2
(lp950
g0
(g1
g2
(lp951
Vto
p952
atp953
Rp954
(dp955
g13
VTO
p956
sbag0
(g1
g2
(lp957
g0
(g1
g2
(lp958
g0
(g1
g2
(lp959
Vsmile
p960
atp961
Rp962
(dp963
g13
VVB
p964
sbatp965
Rp966
(dp967
g13
VVP
p968
sbag0
(g1
g2
(lp969
Vand
p970
atp971
Rp972
(dp973
g13
VCC
p974
sbag0
(g1
g2
(lp975
g0
(g1
g2
(lp976
Vbe
p977
atp978
Rp979
(dp980
g13
VVB
p981
sbag0
(g1
g2
(lp982
g0
(g1
g2
(lp983
Vhappy
p984
atp985
Rp986
(dp987
g13
VJJ
p988
sbag0
(g1
g2
(lp989
g0
(g1
g2
(lp990
Vat
p991
atp992
Rp993
(dp994
g13
VIN
p995
sbag0
(g1
g2
(lp996
g0
(g1
g2
(lp997
Vthe
p998
atp999
Rp1000
(dp1001
g13
VDT
p1002
sbag0
(g1
g2
(lp1003
Vcircus
p1004
atp1005
Rp1006
(dp1007
g13
VNN
p1008
sbatp1009
Rp1010
(dp1011
g13
VNP
p1012
sbatp1013
Rp1014
(dp1015
g13
VPP
p1016
sbatp1017
Rp1018
(dp1019
g13
VADJP
p1020
sbatp1021
Rp1022
(dp1023
g13
VVP
p1024
sbatp1025
Rp1026
(dp1027
g13
VVP
p1028
sbatp1029
Rp1030
(dp1031
g13
VVP
p1032
sbatp1033
Rp1034
(dp1035
g13
VS
p1036
sbatp1037
Rp1038
(dp1039
g13
VVP
p1040
sbatp1041
Rp1042
(dp1043
g13
VVP
p1044
sbag0
(g1
g2
(lp1045
V.
p1046
atp1047
Rp1048
(dp1049
g13
V.
p1050
sbatp1051
Rp1052
(dp1053
g13
VS
p1054
sbatp1055
Rp1056
(dp1057
g13
S'id: 3'
p1058
sbag0
(g1
g2
(lp1059
g0
(g1
g2
(lp1060
g0
(g1
g2
(lp1061
g0
(g1
g2
(lp1062
g0
(g1
g2
(lp1063
g0
(g1
g2
(lp1064
VYou
p1065
atp1066
Rp1067
(dp1068
g13
VPRP
p1069
sbatp1070
Rp1071
(dp1072
g13
VNP
p1073
sbag0
(g1
g2
(lp1074
g0
(g1
g2
(lp1075
Vgot
p1076
atp1077
Rp1078
(dp1079
g13
VVBD
p1080
sbag0
(g1
g2
(lp1081
g0
(g1
g2
(lp1082
Vthe
p1083
atp1084
Rp1085
(dp1086
g13
VDT
p1087
sbag0
(g1
g2
(lp1088
Vguy
p1089
atp1090
Rp1091
(dp1092
g13
VNN
p1093
sbatp1094
Rp1095
(dp1096
g13
VNP
p1097
sbag0
(g1
g2
(lp1098
g0
(g1
g2
(lp1099
g0
(g1
g2
(lp1100
Vhere
p1101
atp1102
Rp1103
(dp1104
g13
VRB
p1105
sbatp1106
Rp1107
(dp1108
g13
VADVP
p1109
sbag0
(g1
g2
(lp1110
Vwith
p1111
atp1112
Rp1113
(dp1114
g13
VIN
p1115
sbag0
(g1
g2
(lp1116
g0
(g1
g2
(lp1117
g0
(g1
g2
(lp1118
Vhis
p1119
atp1120
Rp1121
(dp1122
g13
VPRP$
p1123
sbag0
(g1
g2
(lp1124
Vtools
p1125
atp1126
Rp1127
(dp1128
g13
VNNS
p1129
sbatp1130
Rp1131
(dp1132
g13
VNP
p1133
sbag0
(g1
g2
(lp1134
Vand
p1135
atp1136
Rp1137
(dp1138
g13
VCC
p1139
sbag0
(g1
g2
(lp1140
g0
(g1
g2
(lp1141
Vtop
p1142
atp1143
Rp1144
(dp1145
g13
VJJ
p1146
sbag0
(g1
g2
(lp1147
Vhat
p1148
atp1149
Rp1150
(dp1151
g13
VNN
p1152
sbatp1153
Rp1154
(dp1155
g13
VNP
p1156
sbatp1157
Rp1158
(dp1159
g13
VNP
p1160
sbatp1161
Rp1162
(dp1163
g13
VPP
p1164
sbag0
(g1
g2
(lp1165
g0
(g1
g2
(lp1166
Vinside
p1167
atp1168
Rp1169
(dp1170
g13
VIN
p1171
sbag0
(g1
g2
(lp1172
g0
(g1
g2
(lp1173
Vwith
p1174
atp1175
Rp1176
(dp1177
g13
VIN
p1178
sbag0
(g1
g2
(lp1179
g0
(g1
g2
(lp1180
Vthe
p1181
atp1182
Rp1183
(dp1184
g13
VDT
p1185
sbag0
(g1
g2
(lp1186
Vlion
p1187
atp1188
Rp1189
(dp1190
g13
VNN
p1191
sbatp1192
Rp1193
(dp1194
g13
VNP
p1195
sbatp1196
Rp1197
(dp1198
g13
VPP
p1199
sbatp1200
Rp1201
(dp1202
g13
VPP
p1203
sbatp1204
Rp1205
(dp1206
g13
VVP
p1207
sbatp1208
Rp1209
(dp1210
g13
VS
p1211
sbag0
(g1
g2
(lp1212
V,
p1213
atp1214
Rp1215
(dp1216
g13
V,
p1217
sbag0
(g1
g2
(lp1218
Vand
p1219
atp1220
Rp1221
(dp1222
g13
VCC
p1223
sbag0
(g1
g2
(lp1224
g0
(g1
g2
(lp1225
g0
(g1
g2
(lp1226
VI
p1227
atp1228
Rp1229
(dp1230
g13
VPRP
p1231
sbatp1232
Rp1233
(dp1234
g13
VNP
p1235
sbag0
(g1
g2
(lp1236
g0
(g1
g2
(lp1237
V've
p1238
atp1239
Rp1240
(dp1241
g13
VVBP
p1242
sbag0
(g1
g2
(lp1243
g0
(g1
g2
(lp1244
Vnever
p1245
atp1246
Rp1247
(dp1248
g13
VRB
p1249
sbatp1250
Rp1251
(dp1252
g13
VADVP
p1253
sbag0
(g1
g2
(lp1254
g0
(g1
g2
(lp1255
Vseen
p1256
atp1257
Rp1258
(dp1259
g13
VVBN
p1260
sbag0
(g1
g2
(lp1261
g0
(g1
g2
(lp1262
g0
(g1
g2
(lp1263
Va
p1264
atp1265
Rp1266
(dp1267
g13
VDT
p1268
sbag0
(g1
g2
(lp1269
Vlion
p1270
atp1271
Rp1272
(dp1273
g13
VNN
p1274
sbatp1275
Rp1276
(dp1277
g13
VNP
p1278
sbag0
(g1
g2
(lp1279
g0
(g1
g2
(lp1280
Vsit
p1281
atp1282
Rp1283
(dp1284
g13
VVB
p1285
sbag0
(g1
g2
(lp1286
g0
(g1
g2
(lp1287
Von
p1288
atp1289
Rp1290
(dp1291
g13
VIN
p1292
sbag0
(g1
g2
(lp1293
g0
(g1
g2
(lp1294
g0
(g1
g2
(lp1295
Vhis
p1296
atp1297
Rp1298
(dp1299
g13
VPRP$
p1300
sbag0
(g1
g2
(lp1301
Vcrouch
p1302
atp1303
Rp1304
(dp1305
g13
VNN
p1306
sbatp1307
Rp1308
(dp1309
g13
VNP
p1310
sbag0
(g1
g2
(lp1311
g0
(g1
g2
(lp1312
Vlike
p1313
atp1314
Rp1315
(dp1316
g13
VIN
p1317
sbag0
(g1
g2
(lp1318
g0
(g1
g2
(lp1319
Vthat
p1320
atp1321
Rp1322
(dp1323
g13
VDT
p1324
sbatp1325
Rp1326
(dp1327
g13
VNP
p1328
sbatp1329
Rp1330
(dp1331
g13
VPP
p1332
sbatp1333
Rp1334
(dp1335
g13
VNP
p1336
sbatp1337
Rp1338
(dp1339
g13
VPP
p1340
sbatp1341
Rp1342
(dp1343
g13
VVP
p1344
sbatp1345
Rp1346
(dp1347
g13
VS
p1348
sbatp1349
Rp1350
(dp1351
g13
VVP
p1352
sbatp1353
Rp1354
(dp1355
g13
VVP
p1356
sbatp1357
Rp1358
(dp1359
g13
VS
p1360
sbatp1361
Rp1362
(dp1363
g13
VS
p1364
sbag0
(g1
g2
(lp1365
V,
p1366
atp1367
Rp1368
(dp1369
g13
V,
p1370
sbag0
(g1
g2
(lp1371
g0
(g1
g2
(lp1372
Vthey
p1373
atp1374
Rp1375
(dp1376
g13
VPRP
p1377
sbatp1378
Rp1379
(dp1380
g13
VNP
p1381
sbag0
(g1
g2
(lp1382
g0
(g1
g2
(lp1383
V've
p1384
atp1385
Rp1386
(dp1387
g13
VVBP
p1388
sbag0
(g1
g2
(lp1389
g0
(g1
g2
(lp1390
Valways
p1391
atp1392
Rp1393
(dp1394
g13
VRB
p1395
sbatp1396
Rp1397
(dp1398
g13
VADVP
p1399
sbag0
(g1
g2
(lp1400
g0
(g1
g2
(lp1401
Vhad
p1402
atp1403
Rp1404
(dp1405
g13
VVBN
p1406
sbag0
(g1
g2
(lp1407
g0
(g1
g2
(lp1408
Vthe
p1409
atp1410
Rp1411
(dp1412
g13
VDT
p1413
sbag0
(g1
g2
(lp1414
Vfour
p1415
atp1416
Rp1417
(dp1418
g13
VCD
p1419
sbag0
(g1
g2
(lp1420
Vfeet
p1421
atp1422
Rp1423
(dp1424
g13
VNNS
p1425
sbatp1426
Rp1427
(dp1428
g13
VNP
p1429
sbatp1430
Rp1431
(dp1432
g13
VVP
p1433
sbatp1434
Rp1435
(dp1436
g13
VVP
p1437
sbag0
(g1
g2
(lp1438
V.
p1439
atp1440
Rp1441
(dp1442
g13
V.
p1443
sbatp1444
Rp1445
(dp1446
g13
VS
p1447
sbatp1448
Rp1449
(dp1450
g13
S'id: 4'
p1451
sbag0
(g1
g2
(lp1452
g0
(g1
g2
(lp1453
g0
(g1
g2
(lp1454
g0
(g1
g2
(lp1455
VI
p1456
atp1457
Rp1458
(dp1459
g13
VPRP
p1460
sbatp1461
Rp1462
(dp1463
g13
VNP
p1464
sbag0
(g1
g2
(lp1465
g0
(g1
g2
(lp1466
V've
p1467
atp1468
Rp1469
(dp1470
g13
VVBP
p1471
sbag0
(g1
g2
(lp1472
g0
(g1
g2
(lp1473
Vseen
p1474
atp1475
Rp1476
(dp1477
g13
VVBN
p1478
sbag0
(g1
g2
(lp1479
g0
(g1
g2
(lp1480
Vthem
p1481
atp1482
Rp1483
(dp1484
g13
VPRP
p1485
sbatp1486
Rp1487
(dp1488
g13
VNP
p1489
sbag0
(g1
g2
(lp1490
g0
(g1
g2
(lp1491
g0
(g1
g2
(lp1492
Vwhen
p1493
atp1494
Rp1495
(dp1496
g13
VWRB
p1497
sbatp1498
Rp1499
(dp1500
g13
VWHADVP
p1501
sbag0
(g1
g2
(lp1502
g0
(g1
g2
(lp1503
g0
(g1
g2
(lp1504
Vthey
p1505
atp1506
Rp1507
(dp1508
g13
VPRP
p1509
sbatp1510
Rp1511
(dp1512
g13
VNP
p1513
sbag0
(g1
g2
(lp1514
g0
(g1
g2
(lp1515
V're
p1516
atp1517
Rp1518
(dp1519
g13
VVBP
p1520
sbag0
(g1
g2
(lp1521
g0
(g1
g2
(lp1522
Vlike
p1523
atp1524
Rp1525
(dp1526
g13
VIN
p1527
sbatp1528
Rp1529
(dp1530
g13
VPP
p1531
sbag0
(g1
g2
(lp1532
g0
(g1
g2
(lp1533
Vthat
p1534
atp1535
Rp1536
(dp1537
g13
VIN
p1538
sbag0
(g1
g2
(lp1539
g0
(g1
g2
(lp1540
Vonly
p1541
atp1542
Rp1543
(dp1544
g13
VRB
p1545
sbag0
(g1
g2
(lp1546
Vif
p1547
atp1548
Rp1549
(dp1550
g13
VIN
p1551
sbag0
(g1
g2
(lp1552
g0
(g1
g2
(lp1553
g0
(g1
g2
(lp1554
Vthey
p1555
atp1556
Rp1557
(dp1558
g13
VPRP
p1559
sbatp1560
Rp1561
(dp1562
g13
VNP
p1563
sbag0
(g1
g2
(lp1564
g0
(g1
g2
(lp1565
V're
p1566
atp1567
Rp1568
(dp1569
g13
VVBP
p1570
sbag0
(g1
g2
(lp1571
g0
(g1
g2
(lp1572
Vlooking
p1573
atp1574
Rp1575
(dp1576
g13
VVBG
p1577
sbag0
(g1
g2
(lp1578
g0
(g1
g2
(lp1579
Vto
p1580
atp1581
Rp1582
(dp1583
g13
VTO
p1584
sbag0
(g1
g2
(lp1585
g0
(g1
g2
(lp1586
Vattack
p1587
atp1588
Rp1589
(dp1590
g13
VNN
p1591
sbag0
(g1
g2
(lp1592
Vor
p1593
atp1594
Rp1595
(dp1596
g13
VCC
p1597
sbag0
(g1
g2
(lp1598
Vdefensive
p1599
atp1600
Rp1601
(dp1602
g13
VNN
p1603
sbatp1604
Rp1605
(dp1606
g13
VNP
p1607
sbatp1608
Rp1609
(dp1610
g13
VPP
p1611
sbatp1612
Rp1613
(dp1614
g13
VVP
p1615
sbatp1616
Rp1617
(dp1618
g13
VVP
p1619
sbatp1620
Rp1621
(dp1622
g13
VS
p1623
sbatp1624
Rp1625
(dp1626
g13
VSBAR
p1627
sbatp1628
Rp1629
(dp1630
g13
VSBAR
p1631
sbatp1632
Rp1633
(dp1634
g13
VVP
p1635
sbatp1636
Rp1637
(dp1638
g13
VS
p1639
sbatp1640
Rp1641
(dp1642
g13
VSBAR
p1643
sbatp1644
Rp1645
(dp1646
g13
VVP
p1647
sbatp1648
Rp1649
(dp1650
g13
VVP
p1651
sbag0
(g1
g2
(lp1652
V.
p1653
atp1654
Rp1655
(dp1656
g13
V.
p1657
sbatp1658
Rp1659
(dp1660
g13
VS
p1661
sbatp1662
Rp1663
(dp1664
g13
S'id: 5'
p1665
sbag0
(g1
g2
(lp1666
g0
(g1
g2
(lp1667
g0
(g1
g2
(lp1668
g0
(g1
g2
(lp1669
g0
(g1
g2
(lp1670
VIt
p1671
atp1672
Rp1673
(dp1674
g13
VPRP
p1675
sbatp1676
Rp1677
(dp1678
g13
VNP
p1679
sbag0
(g1
g2
(lp1680
g0
(g1
g2
(lp1681
Vdoes
p1682
atp1683
Rp1684
(dp1685
g13
VVBZ
p1686
sbag0
(g1
g2
(lp1687
Vnot
p1688
atp1689
Rp1690
(dp1691
g13
VRB
p1692
sbag0
(g1
g2
(lp1693
g0
(g1
g2
(lp1694
Vlook
p1695
atp1696
Rp1697
(dp1698
g13
VVB
p1699
sbag0
(g1
g2
(lp1700
g0
(g1
g2
(lp1701
Vlike
p1702
atp1703
Rp1704
(dp1705
g13
VIN
p1706
sbag0
(g1
g2
(lp1707
g0
(g1
g2
(lp1708
g0
(g1
g2
(lp1709
Vit
p1710
atp1711
Rp1712
(dp1713
g13
VPRP
p1714
sbatp1715
Rp1716
(dp1717
g13
VNP
p1718
sbag0
(g1
g2
(lp1719
g0
(g1
g2
(lp1720
V's
p1721
atp1722
Rp1723
(dp1724
g13
VVBZ
p1725
sbag0
(g1
g2
(lp1726
g0
(g1
g2
(lp1727
Vindoors
p1728
atp1729
Rp1730
(dp1731
g13
VRB
p1732
sbatp1733
Rp1734
(dp1735
g13
VADVP
p1736
sbatp1737
Rp1738
(dp1739
g13
VVP
p1740
sbatp1741
Rp1742
(dp1743
g13
VS
p1744
sbatp1745
Rp1746
(dp1747
g13
VSBAR
p1748
sbatp1749
Rp1750
(dp1751
g13
VVP
p1752
sbatp1753
Rp1754
(dp1755
g13
VVP
p1756
sbatp1757
Rp1758
(dp1759
g13
VS
p1760
sbag0
(g1
g2
(lp1761
V,
p1762
atp1763
Rp1764
(dp1765
g13
V,
p1766
sbag0
(g1
g2
(lp1767
g0
(g1
g2
(lp1768
Vit
p1769
atp1770
Rp1771
(dp1772
g13
VPRP
p1773
sbatp1774
Rp1775
(dp1776
g13
VNP
p1777
sbag0
(g1
g2
(lp1778
g0
(g1
g2
(lp1779
V's
p1780
atp1781
Rp1782
(dp1783
g13
VVBZ
p1784
sbag0
(g1
g2
(lp1785
g0
(g1
g2
(lp1786
Voutdoors
p1787
atp1788
Rp1789
(dp1790
g13
VRB
p1791
sbatp1792
Rp1793
(dp1794
g13
VADVP
p1795
sbag0
(g1
g2
(lp1796
g0
(g1
g2
(lp1797
Vhere
p1798
atp1799
Rp1800
(dp1801
g13
VRB
p1802
sbatp1803
Rp1804
(dp1805
g13
VADVP
p1806
sbag0
(g1
g2
(lp1807
g0
(g1
g2
(lp1808
Vwith
p1809
atp1810
Rp1811
(dp1812
g13
VIN
p1813
sbag0
(g1
g2
(lp1814
g0
(g1
g2
(lp1815
g0
(g1
g2
(lp1816
g0
(g1
g2
(lp1817
Vthe
p1818
atp1819
Rp1820
(dp1821
g13
VDT
p1822
sbag0
(g1
g2
(lp1823
Vgrass
p1824
atp1825
Rp1826
(dp1827
g13
VNN
p1828
sbag0
(g1
g2
(lp1829
Vgrowing
p1830
atp1831
Rp1832
(dp1833
g13
VVBG
p1834
sbatp1835
Rp1836
(dp1837
g13
VNP
p1838
sbag0
(g1
g2
(lp1839
Vand
p1840
atp1841
Rp1842
(dp1843
g13
VCC
p1844
sbag0
(g1
g2
(lp1845
g0
(g1
g2
(lp1846
Vthe
p1847
atp1848
Rp1849
(dp1850
g13
VDT
p1851
sbag0
(g1
g2
(lp1852
Vtrees
p1853
atp1854
Rp1855
(dp1856
g13
VNNS
p1857
sbatp1858
Rp1859
(dp1860
g13
VNP
p1861
sbatp1862
Rp1863
(dp1864
g13
VNP
p1865
sbag0
(g1
g2
(lp1866
V,
p1867
atp1868
Rp1869
(dp1870
g13
V,
p1871
sbag0
(g1
g2
(lp1872
Vand
p1873
atp1874
Rp1875
(dp1876
g13
VCC
p1877
sbag0
(g1
g2
(lp1878
g0
(g1
g2
(lp1879
g0
(g1
g2
(lp1880
Veverything
p1881
atp1882
Rp1883
(dp1884
g13
VNN
p1885
sbatp1886
Rp1887
(dp1888
g13
VNP
p1889
sbag0
(g1
g2
(lp1890
g0
(g1
g2
(lp1891
Vin
p1892
atp1893
Rp1894
(dp1895
g13
VIN
p1896
sbag0
(g1
g2
(lp1897
g0
(g1
g2
(lp1898
Vthe
p1899
atp1900
Rp1901
(dp1902
g13
VDT
p1903
sbag0
(g1
g2
(lp1904
Vbackground
p1905
atp1906
Rp1907
(dp1908
g13
VNN
p1909
sbatp1910
Rp1911
(dp1912
g13
VNP
p1913
sbatp1914
Rp1915
(dp1916
g13
VPP
p1917
sbatp1918
Rp1919
(dp1920
g13
VNP
p1921
sbatp1922
Rp1923
(dp1924
g13
VNP
p1925
sbatp1926
Rp1927
(dp1928
g13
VPP
p1929
sbatp1930
Rp1931
(dp1932
g13
VVP
p1933
sbag0
(g1
g2
(lp1934
V.
p1935
atp1936
Rp1937
(dp1938
g13
V.
p1939
sbatp1940
Rp1941
(dp1942
g13
VS
p1943
sbatp1944
Rp1945
(dp1946
g13
S'id: 6'
p1947
sbag0
(g1
g2
(lp1948
g0
(g1
g2
(lp1949
g0
(g1
g2
(lp1950
g0
(g1
g2
(lp1951
g0
(g1
g2
(lp1952
g0
(g1
g2
(lp1953
VThe
p1954
atp1955
Rp1956
(dp1957
g13
VDT
p1958
sbag0
(g1
g2
(lp1959
Vrope
p1960
atp1961
Rp1962
(dp1963
g13
VNN
p1964
sbatp1965
Rp1966
(dp1967
g13
VNP
p1968
sbag0
(g1
g2
(lp1969
g0
(g1
g2
(lp1970
Vthat
p1971
atp1972
Rp1973
(dp1974
g13
VIN
p1975
sbag0
(g1
g2
(lp1976
g0
(g1
g2
(lp1977
g0
(g1
g2
(lp1978
Vthey
p1979
atp1980
Rp1981
(dp1982
g13
VPRP
p1983
sbatp1984
Rp1985
(dp1986
g13
VNP
p1987
sbag0
(g1
g2
(lp1988
g0
(g1
g2
(lp1989
Vare
p1990
atp1991
Rp1992
(dp1993
g13
VVBP
p1994
sbag0
(g1
g2
(lp1995
g0
(g1
g2
(lp1996
Vdoing
p1997
atp1998
Rp1999
(dp2000
g13
VVBG
p2001
sbatp2002
Rp2003
(dp2004
g13
VVP
p2005
sbatp2006
Rp2007
(dp2008
g13
VVP
p2009
sbatp2010
Rp2011
(dp2012
g13
VS
p2013
sbatp2014
Rp2015
(dp2016
g13
VSBAR
p2017
sbatp2018
Rp2019
(dp2020
g13
VNP
p2021
sbag0
(g1
g2
(lp2022
g0
(g1
g2
(lp2023
Vis
p2024
atp2025
Rp2026
(dp2027
g13
VVBZ
p2028
sbag0
(g1
g2
(lp2029
g0
(g1
g2
(lp2030
Vloose
p2031
atp2032
Rp2033
(dp2034
g13
VJJ
p2035
sbatp2036
Rp2037
(dp2038
g13
VADJP
p2039
sbatp2040
Rp2041
(dp2042
g13
VVP
p2043
sbatp2044
Rp2045
(dp2046
g13
VS
p2047
sbag0
(g1
g2
(lp2048
V,
p2049
atp2050
Rp2051
(dp2052
g13
V,
p2053
sbag0
(g1
g2
(lp2054
Vso
p2055
atp2056
Rp2057
(dp2058
g13
VIN
p2059
sbag0
(g1
g2
(lp2060
g0
(g1
g2
(lp2061
g0
(g1
g2
(lp2062
Vit
p2063
atp2064
Rp2065
(dp2066
g13
VPRP
p2067
sbatp2068
Rp2069
(dp2070
g13
VNP
p2071
sbag0
(g1
g2
(lp2072
g0
(g1
g2
(lp2073
V's
p2074
atp2075
Rp2076
(dp2077
g13
VVBZ
p2078
sbag0
(g1
g2
(lp2079
g0
(g1
g2
(lp2080
Vgot
p2081
atp2082
Rp2083
(dp2084
g13
VVBD
p2085
sbag0
(g1
g2
(lp2086
g0
(g1
g2
(lp2087
Va
p2088
atp2089
Rp2090
(dp2091
g13
VDT
p2092
sbag0
(g1
g2
(lp2093
Vsag
p2094
atp2095
Rp2096
(dp2097
g13
VNN
p2098
sbatp2099
Rp2100
(dp2101
g13
VNP
p2102
sbag0
(g1
g2
(lp2103
g0
(g1
g2
(lp2104
g0
(g1
g2
(lp2105
Vto
p2106
atp2107
Rp2108
(dp2109
g13
VTO
p2110
sbag0
(g1
g2
(lp2111
g0
(g1
g2
(lp2112
Vit
p2113
atp2114
Rp2115
(dp2116
g13
VPRP
p2117
sbatp2118
Rp2119
(dp2120
g13
VNP
p2121
sbatp2122
Rp2123
(dp2124
g13
VPP
p2125
sbag0
(g1
g2
(lp2126
V,
p2127
atp2128
Rp2129
(dp2130
g13
V,
p2131
sbag0
(g1
g2
(lp2132
Vrather
p2133
atp2134
Rp2135
(dp2136
g13
VRB
p2137
sbag0
(g1
g2
(lp2138
g0
(g1
g2
(lp2139
Vthan
p2140
atp2141
Rp2142
(dp2143
g13
VIN
p2144
sbag0
(g1
g2
(lp2145
g0
(g1
g2
(lp2146
g0
(g1
g2
(lp2147
Vbeing
p2148
atp2149
Rp2150
(dp2151
g13
VVBG
p2152
sbag0
(g1
g2
(lp2153
g0
(g1
g2
(lp2154
Vpulled
p2155
atp2156
Rp2157
(dp2158
g13
VVBD
p2159
sbag0
(g1
g2
(lp2160
g0
(g1
g2
(lp2161
Vtaught
p2162
atp2163
Rp2164
(dp2165
g13
VVBN
p2166
sbatp2167
Rp2168
(dp2169
g13
VVP
p2170
sbatp2171
Rp2172
(dp2173
g13
VVP
p2174
sbatp2175
Rp2176
(dp2177
g13
VVP
p2178
sbatp2179
Rp2180
(dp2181
g13
VS
p2182
sbatp2183
Rp2184
(dp2185
g13
VPP
p2186
sbatp2187
Rp2188
(dp2189
g13
VPP
p2190
sbatp2191
Rp2192
(dp2193
g13
VVP
p2194
sbatp2195
Rp2196
(dp2197
g13
VVP
p2198
sbatp2199
Rp2200
(dp2201
g13
VS
p2202
sbag0
(g1
g2
(lp2203
V.
p2204
atp2205
Rp2206
(dp2207
g13
V.
p2208
sbatp2209
Rp2210
(dp2211
g13
VS
p2212
sbatp2213
Rp2214
(dp2215
g13
S'id: 7'
p2216
sbag0
(g1
g2
(lp2217
g0
(g1
g2
(lp2218
g0
(g1
g2
(lp2219
g0
(g1
g2
(lp2220
VLittle
p2221
atp2222
Rp2223
(dp2224
g13
VJJ
p2225
sbag0
(g1
g2
(lp2226
Vgirls
p2227
atp2228
Rp2229
(dp2230
g13
VNNS
p2231
sbatp2232
Rp2233
(dp2234
g13
VNP
p2235
sbag0
(g1
g2
(lp2236
g0
(g1
g2
(lp2237
Vgot
p2238
atp2239
Rp2240
(dp2241
g13
VVBD
p2242
sbag0
(g1
g2
(lp2243
g0
(g1
g2
(lp2244
g0
(g1
g2
(lp2245
g0
(g1
g2
(lp2246
Vbows
p2247
atp2248
Rp2249
(dp2250
g13
VNNS
p2251
sbatp2252
Rp2253
(dp2254
g13
VNP
p2255
sbag0
(g1
g2
(lp2256
V,
p2257
atp2258
Rp2259
(dp2260
g13
V,
p2261
sbag0
(g1
g2
(lp2262
g0
(g1
g2
(lp2263
Vribbons
p2264
atp2265
Rp2266
(dp2267
g13
VNNS
p2268
sbatp2269
Rp2270
(dp2271
g13
VNP
p2272
sbag0
(g1
g2
(lp2273
V,
p2274
atp2275
Rp2276
(dp2277
g13
V,
p2278
sbatp2279
Rp2280
(dp2281
g13
VNP
p2282
sbag0
(g1
g2
(lp2283
g0
(g1
g2
(lp2284
Vin
p2285
atp2286
Rp2287
(dp2288
g13
VIN
p2289
sbag0
(g1
g2
(lp2290
g0
(g1
g2
(lp2291
Vher
p2292
atp2293
Rp2294
(dp2295
g13
VPRP$
p2296
sbag0
(g1
g2
(lp2297
Vhair
p2298
atp2299
Rp2300
(dp2301
g13
VNN
p2302
sbatp2303
Rp2304
(dp2305
g13
VNP
p2306
sbatp2307
Rp2308
(dp2309
g13
VPP
p2310
sbatp2311
Rp2312
(dp2313
g13
VNP
p2314
sbatp2315
Rp2316
(dp2317
g13
VVP
p2318
sbag0
(g1
g2
(lp2319
V.
p2320
atp2321
Rp2322
(dp2323
g13
V.
p2324
sbatp2325
Rp2326
(dp2327
g13
VS
p2328
sbatp2329
Rp2330
(dp2331
g13
S'id: 8'
p2332
sbag0
(g1
g2
(lp2333
g0
(g1
g2
(lp2334
g0
(g1
g2
(lp2335
g0
(g1
g2
(lp2336
VOver
p2337
atp2338
Rp2339
(dp2340
g13
VIN
p2341
sbag0
(g1
g2
(lp2342
g0
(g1
g2
(lp2343
Vhere
p2344
atp2345
Rp2346
(dp2347
g13
VRB
p2348
sbatp2349
Rp2350
(dp2351
g13
VNP
p2352
sbatp2353
Rp2354
(dp2355
g13
VPP
p2356
sbag0
(g1
g2
(lp2357
g0
(g1
g2
(lp2358
Vthis
p2359
atp2360
Rp2361
(dp2362
g13
VDT
p2363
sbag0
(g1
g2
(lp2364
Vone
p2365
atp2366
Rp2367
(dp2368
g13
VNN
p2369
sbatp2370
Rp2371
(dp2372
g13
VNP
p2373
sbag0
(g1
g2
(lp2374
g0
(g1
g2
(lp2375
Vhas
p2376
atp2377
Rp2378
(dp2379
g13
VVBZ
p2380
sbag0
(g1
g2
(lp2381
g0
(g1
g2
(lp2382
g0
(g1
g2
(lp2383
Vit
p2384
atp2385
Rp2386
(dp2387
g13
VPRP
p2388
sbatp2389
Rp2390
(dp2391
g13
VNP
p2392
sbag0
(g1
g2
(lp2393
g0
(g1
g2
(lp2394
Vtied
p2395
atp2396
Rp2397
(dp2398
g13
VVBD
p2399
sbag0
(g1
g2
(lp2400
g0
(g1
g2
(lp2401
Vup
p2402
atp2403
Rp2404
(dp2405
g13
VRP
p2406
sbatp2407
Rp2408
(dp2409
g13
VPRT
p2410
sbag0
(g1
g2
(lp2411
g0
(g1
g2
(lp2412
Vin
p2413
atp2414
Rp2415
(dp2416
g13
VIN
p2417
sbag0
(g1
g2
(lp2418
g0
(g1
g2
(lp2419
Va
p2420
atp2421
Rp2422
(dp2423
g13
VDT
p2424
sbag0
(g1
g2
(lp2425
Vlittle
p2426
atp2427
Rp2428
(dp2429
g13
VJJ
p2430
sbag0
(g1
g2
(lp2431
Vbun
p2432
atp2433
Rp2434
(dp2435
g13
VNN
p2436
sbatp2437
Rp2438
(dp2439
g13
VNP
p2440
sbatp2441
Rp2442
(dp2443
g13
VPP
p2444
sbag0
(g1
g2
(lp2445
V,
p2446
atp2447
Rp2448
(dp2449
g13
V,
p2450
sbag0
(g1
g2
(lp2451
g0
(g1
g2
(lp2452
Vback
p2453
atp2454
Rp2455
(dp2456
g13
VRB
p2457
sbag0
(g1
g2
(lp2458
g0
(g1
g2
(lp2459
Von
p2460
atp2461
Rp2462
(dp2463
g13
VIN
p2464
sbag0
(g1
g2
(lp2465
g0
(g1
g2
(lp2466
Vthe
p2467
atp2468
Rp2469
(dp2470
g13
VDT
p2471
sbag0
(g1
g2
(lp2472
Vbackside
p2473
atp2474
Rp2475
(dp2476
g13
VNN
p2477
sbatp2478
Rp2479
(dp2480
g13
VNP
p2481
sbag0
(g1
g2
(lp2482
g0
(g1
g2
(lp2483
Vthere
p2484
atp2485
Rp2486
(dp2487
g13
VRB
p2488
sbatp2489
Rp2490
(dp2491
g13
VADVP
p2492
sbatp2493
Rp2494
(dp2495
g13
VPP
p2496
sbatp2497
Rp2498
(dp2499
g13
VADVP
p2500
sbatp2501
Rp2502
(dp2503
g13
VVP
p2504
sbatp2505
Rp2506
(dp2507
g13
VS
p2508
sbatp2509
Rp2510
(dp2511
g13
VVP
p2512
sbag0
(g1
g2
(lp2513
V.
p2514
atp2515
Rp2516
(dp2517
g13
V.
p2518
sbatp2519
Rp2520
(dp2521
g13
VS
p2522
sbatp2523
Rp2524
(dp2525
g13
S'id: 9'
p2526
sbag0
(g1
g2
(lp2527
g0
(g1
g2
(lp2528
g0
(g1
g2
(lp2529
g0
(g1
g2
(lp2530
VLittle
p2531
atp2532
Rp2533
(dp2534
g13
VJJ
p2535
sbag0
(g1
g2
(lp2536
Vboy
p2537
atp2538
Rp2539
(dp2540
g13
VNN
p2541
sbatp2542
Rp2543
(dp2544
g13
VNP
p2545
sbag0
(g1
g2
(lp2546
g0
(g1
g2
(lp2547
Vis
p2548
atp2549
Rp2550
(dp2551
g13
VVBZ
p2552
sbag0
(g1
g2
(lp2553
g0
(g1
g2
(lp2554
Vtrying
p2555
atp2556
Rp2557
(dp2558
g13
VVBG
p2559
sbag0
(g1
g2
(lp2560
g0
(g1
g2
(lp2561
g0
(g1
g2
(lp2562
Vto
p2563
atp2564
Rp2565
(dp2566
g13
VTO
p2567
sbag0
(g1
g2
(lp2568
g0
(g1
g2
(lp2569
Vdefend
p2570
atp2571
Rp2572
(dp2573
g13
VVB
p2574
sbag0
(g1
g2
(lp2575
g0
(g1
g2
(lp2576
Vhimself
p2577
atp2578
Rp2579
(dp2580
g13
VPRP
p2581
sbatp2582
Rp2583
(dp2584
g13
VNP
p2585
sbag0
(g1
g2
(lp2586
g0
(g1
g2
(lp2587
Vfrom
p2588
atp2589
Rp2590
(dp2591
g13
VIN
p2592
sbag0
(g1
g2
(lp2593
g0
(g1
g2
(lp2594
Vthe
p2595
atp2596
Rp2597
(dp2598
g13
VDT
p2599
sbatp2600
Rp2601
(dp2602
g13
VNP
p2603
sbatp2604
Rp2605
(dp2606
g13
VPP
p2607
sbatp2608
Rp2609
(dp2610
g13
VVP
p2611
sbatp2612
Rp2613
(dp2614
g13
VVP
p2615
sbatp2616
Rp2617
(dp2618
g13
VS
p2619
sbag0
(g1
g2
(lp2620
V,
p2621
atp2622
Rp2623
(dp2624
g13
V,
p2625
sbag0
(g1
g2
(lp2626
g0
(g1
g2
(lp2627
g0
(g1
g2
(lp2628
Vfrom
p2629
atp2630
Rp2631
(dp2632
g13
VIN
p2633
sbag0
(g1
g2
(lp2634
g0
(g1
g2
(lp2635
g0
(g1
g2
(lp2636
Vthe
p2637
atp2638
Rp2639
(dp2640
g13
VDT
p2641
sbatp2642
Rp2643
(dp2644
g13
VNP
p2645
sbag0
(g1
g2
(lp2646
V,
p2647
atp2648
Rp2649
(dp2650
g13
V,
p2651
sbag0
(g1
g2
(lp2652
g0
(g1
g2
(lp2653
Vgraffiti
p2654
atp2655
Rp2656
(dp2657
g13
VNN
p2658
sbag0
(g1
g2
(lp2659
Vstuff
p2660
atp2661
Rp2662
(dp2663
g13
VNN
p2664
sbatp2665
Rp2666
(dp2667
g13
VNP
p2668
sbatp2669
Rp2670
(dp2671
g13
VNP
p2672
sbatp2673
Rp2674
(dp2675
g13
VPP
p2676
sbag0
(g1
g2
(lp2677
V,
p2678
atp2679
Rp2680
(dp2681
g13
V,
p2682
sbag0
(g1
g2
(lp2683
Vor
p2684
atp2685
Rp2686
(dp2687
g13
VCC
p2688
sbag0
(g1
g2
(lp2689
g0
(g1
g2
(lp2690
g0
(g1
g2
(lp2691
Vwhatever
p2692
atp2693
Rp2694
(dp2695
g13
VWDT
p2696
sbatp2697
Rp2698
(dp2699
g13
VWHNP
p2700
sbag0
(g1
g2
(lp2701
g0
(g1
g2
(lp2702
g0
(g1
g2
(lp2703
Vthat
p2704
atp2705
Rp2706
(dp2707
g13
VWDT
p2708
sbatp2709
Rp2710
(dp2711
g13
VNP
p2712
sbag0
(g1
g2
(lp2713
g0
(g1
g2
(lp2714
Vcomes
p2715
atp2716
Rp2717
(dp2718
g13
VVBZ
p2719
sbag0
(g1
g2
(lp2720
g0
(g1
g2
(lp2721
Vout
p2722
atp2723
Rp2724
(dp2725
g13
VRP
p2726
sbatp2727
Rp2728
(dp2729
g13
VPRT
p2730
sbatp2731
Rp2732
(dp2733
g13
VVP
p2734
sbatp2735
Rp2736
(dp2737
g13
VS
p2738
sbatp2739
Rp2740
(dp2741
g13
VSBAR
p2742
sbatp2743
Rp2744
(dp2745
g13
VUCP
p2746
sbatp2747
Rp2748
(dp2749
g13
VVP
p2750
sbatp2751
Rp2752
(dp2753
g13
VVP
p2754
sbag0
(g1
g2
(lp2755
V.
p2756
atp2757
Rp2758
(dp2759
g13
V.
p2760
sbatp2761
Rp2762
(dp2763
g13
VS
p2764
sbatp2765
Rp2766
(dp2767
g13
S'id: 10'
p2768
sbag0
(g1
g2
(lp2769
g0
(g1
g2
(lp2770
g0
(g1
g2
(lp2771
VAnd
p2772
atp2773
Rp2774
(dp2775
g13
VCC
p2776
sbag0
(g1
g2
(lp2777
g0
(g1
g2
(lp2778
Vthe
p2779
atp2780
Rp2781
(dp2782
g13
VDT
p2783
sbag0
(g1
g2
(lp2784
Vwomans
p2785
atp2786
Rp2787
(dp2788
g13
VNNS
p2789
sbatp2790
Rp2791
(dp2792
g13
VNP
p2793
sbag0
(g1
g2
(lp2794
g0
(g1
g2
(lp2795
g0
(g1
g2
(lp2796
Vgot
p2797
atp2798
Rp2799
(dp2800
g13
VVBD
p2801
sbag0
(g1
g2
(lp2802
g0
(g1
g2
(lp2803
g0
(g1
g2
(lp2804
Vwhat
p2805
atp2806
Rp2807
(dp2808
g13
VWP
p2809
sbatp2810
Rp2811
(dp2812
g13
VWHNP
p2813
sbag0
(g1
g2
(lp2814
g0
(g1
g2
(lp2815
g0
(g1
g2
(lp2816
Vmight
p2817
atp2818
Rp2819
(dp2820
g13
VMD
p2821
sbag0
(g1
g2
(lp2822
g0
(g1
g2
(lp2823
Vbe
p2824
atp2825
Rp2826
(dp2827
g13
VVB
p2828
sbag0
(g1
g2
(lp2829
g0
(g1
g2
(lp2830
Vstars
p2831
atp2832
Rp2833
(dp2834
g13
VNNS
p2835
sbatp2836
Rp2837
(dp2838
g13
VNP
p2839
sbatp2840
Rp2841
(dp2842
g13
VVP
p2843
sbatp2844
Rp2845
(dp2846
g13
VVP
p2847
sbatp2848
Rp2849
(dp2850
g13
VS
p2851
sbatp2852
Rp2853
(dp2854
g13
VSBAR
p2855
sbatp2856
Rp2857
(dp2858
g13
VVP
p2859
sbag0
(g1
g2
(lp2860
Vor
p2861
atp2862
Rp2863
(dp2864
g13
VCC
p2865
sbag0
(g1
g2
(lp2866
g0
(g1
g2
(lp2867
Vleaves
p2868
atp2869
Rp2870
(dp2871
g13
VVBZ
p2872
sbag0
(g1
g2
(lp2873
g0
(g1
g2
(lp2874
Von
p2875
atp2876
Rp2877
(dp2878
g13
VIN
p2879
sbag0
(g1
g2
(lp2880
g0
(g1
g2
(lp2881
Vher
p2882
atp2883
Rp2884
(dp2885
g13
VPRP$
p2886
sbag0
(g1
g2
(lp2887
Vblouse
p2888
atp2889
Rp2890
(dp2891
g13
VNN
p2892
sbatp2893
Rp2894
(dp2895
g13
VNP
p2896
sbatp2897
Rp2898
(dp2899
g13
VPP
p2900
sbatp2901
Rp2902
(dp2903
g13
VVP
p2904
sbatp2905
Rp2906
(dp2907
g13
VVP
p2908
sbag0
(g1
g2
(lp2909
V.
p2910
atp2911
Rp2912
(dp2913
g13
V.
p2914
sbatp2915
Rp2916
(dp2917
g13
VS
p2918
sbatp2919
Rp2920
(dp2921
g13
S'id: 11'
p2922
sbag0
(g1
g2
(lp2923
g0
(g1
g2
(lp2924
g0
(g1
g2
(lp2925
VAnd
p2926
atp2927
Rp2928
(dp2929
g13
VCC
p2930
sbag0
(g1
g2
(lp2931
g0
(g1
g2
(lp2932
g0
(g1
g2
(lp2933
Vthis
p2934
atp2935
Rp2936
(dp2937
g13
VDT
p2938
sbag0
(g1
g2
(lp2939
Vguy
p2940
atp2941
Rp2942
(dp2943
g13
VNN
p2944
sbatp2945
Rp2946
(dp2947
g13
VNP
p2948
sbag0
(g1
g2
(lp2949
g0
(g1
g2
(lp2950
Vover
p2951
atp2952
Rp2953
(dp2954
g13
VIN
p2955
sbag0
(g1
g2
(lp2956
g0
(g1
g2
(lp2957
Vhere
p2958
atp2959
Rp2960
(dp2961
g13
VRB
p2962
sbatp2963
Rp2964
(dp2965
g13
VNP
p2966
sbatp2967
Rp2968
(dp2969
g13
VPP
p2970
sbatp2971
Rp2972
(dp2973
g13
VNP
p2974
sbag0
(g1
g2
(lp2975
g0
(g1
g2
(lp2976
Vapparently
p2977
atp2978
Rp2979
(dp2980
g13
VRB
p2981
sbatp2982
Rp2983
(dp2984
g13
VADVP
p2985
sbag0
(g1
g2
(lp2986
g0
(g1
g2
(lp2987
Vis
p2988
atp2989
Rp2990
(dp2991
g13
VVBZ
p2992
sbag0
(g1
g2
(lp2993
g0
(g1
g2
(lp2994
Vwearing
p2995
atp2996
Rp2997
(dp2998
g13
VVBG
p2999
sbag0
(g1
g2
(lp3000
g0
(g1
g2
(lp3001
g0
(g1
g2
(lp3002
Va
p3003
atp3004
Rp3005
(dp3006
g13
VDT
p3007
sbag0
(g1
g2
(lp3008
Vsweater
p3009
atp3010
Rp3011
(dp3012
g13
VNN
p3013
sbatp3014
Rp3015
(dp3016
g13
VNP
p3017
sbag0
(g1
g2
(lp3018
V,
p3019
atp3020
Rp3021
(dp3022
g13
V,
p3023
sbag0
(g1
g2
(lp3024
Vor
p3025
atp3026
Rp3027
(dp3028
g13
VCC
p3029
sbag0
(g1
g2
(lp3030
g0
(g1
g2
(lp3031
g0
(g1
g2
(lp3032
g0
(g1
g2
(lp3033
Va
p3034
atp3035
Rp3036
(dp3037
g13
VDT
p3038
sbag0
(g1
g2
(lp3039
Vthing
p3040
atp3041
Rp3042
(dp3043
g13
VNN
p3044
sbatp3045
Rp3046
(dp3047
g13
VNP
p3048
sbag0
(g1
g2
(lp3049
g0
(g1
g2
(lp3050
Vof
p3051
atp3052
Rp3053
(dp3054
g13
VIN
p3055
sbag0
(g1
g2
(lp3056
g0
(g1
g2
(lp3057
Vathletic
p3058
atp3059
Rp3060
(dp3061
g13
VJJ
p3062
sbag0
(g1
g2
(lp3063
Vshorts
p3064
atp3065
Rp3066
(dp3067
g13
VNNS
p3068
sbatp3069
Rp3070
(dp3071
g13
VNP
p3072
sbatp3073
Rp3074
(dp3075
g13
VPP
p3076
sbatp3077
Rp3078
(dp3079
g13
VNP
p3080
sbag0
(g1
g2
(lp3081
V,
p3082
atp3083
Rp3084
(dp3085
g13
V,
p3086
sbag0
(g1
g2
(lp3087
Vor
p3088
atp3089
Rp3090
(dp3091
g13
VCC
p3092
sbag0
(g1
g2
(lp3093
g0
(g1
g2
(lp3094
Vsomething
p3095
atp3096
Rp3097
(dp3098
g13
VNN
p3099
sbatp3100
Rp3101
(dp3102
g13
VNP
p3103
sbatp3104
Rp3105
(dp3106
g13
VNP
p3107
sbag0
(g1
g2
(lp3108
V,
p3109
atp3110
Rp3111
(dp3112
g13
V,
p3113
sbatp3114
Rp3115
(dp3116
g13
VNP
p3117
sbag0
(g1
g2
(lp3118
g0
(g1
g2
(lp3119
g0
(g1
g2
(lp3120
Vwhere
p3121
atp3122
Rp3123
(dp3124
g13
VWRB
p3125
sbatp3126
Rp3127
(dp3128
g13
VWHADVP
p3129
sbag0
(g1
g2
(lp3130
g0
(g1
g2
(lp3131
g0
(g1
g2
(lp3132
Vit
p3133
atp3134
Rp3135
(dp3136
g13
VPRP
p3137
sbatp3138
Rp3139
(dp3140
g13
VNP
p3141
sbag0
(g1
g2
(lp3142
g0
(g1
g2
(lp3143
Vis
p3144
atp3145
Rp3146
(dp3147
g13
VVBZ
p3148
sbag0
(g1
g2
(lp3149
g0
(g1
g2
(lp3150
Vpulled
p3151
atp3152
Rp3153
(dp3154
g13
VVBN
p3155
sbag0
(g1
g2
(lp3156
g0
(g1
g2
(lp3157
Vin
p3158
atp3159
Rp3160
(dp3161
g13
VRP
p3162
sbatp3163
Rp3164
(dp3165
g13
VPRT
p3166
sbag0
(g1
g2
(lp3167
g0
(g1
g2
(lp3168
Vat
p3169
atp3170
Rp3171
(dp3172
g13
VIN
p3173
sbag0
(g1
g2
(lp3174
g0
(g1
g2
(lp3175
Vthe
p3176
atp3177
Rp3178
(dp3179
g13
VDT
p3180
sbag0
(g1
g2
(lp3181
Vwaist
p3182
atp3183
Rp3184
(dp3185
g13
VNN
p3186
sbatp3187
Rp3188
(dp3189
g13
VNP
p3190
sbatp3191
Rp3192
(dp3193
g13
VPP
p3194
sbatp3195
Rp3196
(dp3197
g13
VVP
p3198
sbatp3199
Rp3200
(dp3201
g13
VVP
p3202
sbatp3203
Rp3204
(dp3205
g13
VS
p3206
sbatp3207
Rp3208
(dp3209
g13
VSBAR
p3210
sbatp3211
Rp3212
(dp3213
g13
VVP
p3214
sbatp3215
Rp3216
(dp3217
g13
VVP
p3218
sbag0
(g1
g2
(lp3219
V.
p3220
atp3221
Rp3222
(dp3223
g13
V.
p3224
sbatp3225
Rp3226
(dp3227
g13
VS
p3228
sbatp3229
Rp3230
(dp3231
g13
S'id: 12'
p3232
sbag0
(g1
g2
(lp3233
g0
(g1
g2
(lp3234
g0
(g1
g2
(lp3235
VAnd
p3236
atp3237
Rp3238
(dp3239
g13
VCC
p3240
sbag0
(g1
g2
(lp3241
g0
(g1
g2
(lp3242
Vthe
p3243
atp3244
Rp3245
(dp3246
g13
VDT
p3247
sbag0
(g1
g2
(lp3248
Vguys
p3249
atp3250
Rp3251
(dp3252
g13
VNNS
p3253
sbatp3254
Rp3255
(dp3256
g13
VNP
p3257
sbag0
(g1
g2
(lp3258
g0
(g1
g2
(lp3259
Vgot
p3260
atp3261
Rp3262
(dp3263
g13
VVBD
p3264
sbatp3265
Rp3266
(dp3267
g13
VVP
p3268
sbatp3269
Rp3270
(dp3271
g13
VS
p3272
sbatp3273
Rp3274
(dp3275
g13
S'id: 13'
p3276
sbatp3277
Rp3278
(dp3279
g13
S'sentences'
p3280
sb.