ccopy_reg
_reconstructor
p0
(cnltk.tree
Tree
p1
c__builtin__
list
p2
(lp3
g0
(g1
g2
(lp4
g0
(g1
g2
(lp5
g0
(g1
g2
(lp6
g0
(g1
g2
(lp7
g0
(g1
g2
(lp8
Vits
p9
atp10
Rp11
(dp12
S'_label'
p13
VPRP$
p14
sbatp15
Rp16
(dp17
g13
VNP
p18
sbag0
(g1
g2
(lp19
g0
(g1
g2
(lp20
Va
p21
atp22
Rp23
(dp24
g13
VDT
p25
sbatp26
Rp27
(dp28
g13
VADVP
p29
sbatp30
Rp31
(dp32
g13
VS
p33
sbag0
(g1
g2
(lp34
V,
p35
atp36
Rp37
(dp38
g13
V,
p39
sbag0
(g1
g2
(lp40
g0
(g1
g2
(lp41
Vit
p42
atp43
Rp44
(dp45
g13
VPRP
p46
sbatp47
Rp48
(dp49
g13
VNP
p50
sbag0
(g1
g2
(lp51
g0
(g1
g2
(lp52
Vis
p53
atp54
Rp55
(dp56
g13
VVBZ
p57
sbag0
(g1
g2
(lp58
g0
(g1
g2
(lp59
Va
p60
atp61
Rp62
(dp63
g13
VDT
p64
sbag0
(g1
g2
(lp65
Vcircus
p66
atp67
Rp68
(dp69
g13
VNN
p70
sbatp71
Rp72
(dp73
g13
VNP
p74
sbatp75
Rp76
(dp77
g13
VVP
p78
sbag0
(g1
g2
(lp79
V.
p80
atp81
Rp82
(dp83
g13
V.
p84
sbatp85
Rp86
(dp87
g13
VS
p88
sbatp89
Rp90
(dp91
g13
S'id: 0'
p92
sbag0
(g1
g2
(lp93
g0
(g1
g2
(lp94
g0
(g1
g2
(lp95
g0
(g1
g2
(lp96
Vits
p97
atp98
Rp99
(dp100
g13
VPRP$
p101
sbag0
(g1
g2
(lp102
g0
(g1
g2
(lp103
g0
(g1
g2
(lp104
Va
p105
atp106
Rp107
(dp108
g13
VDT
p109
sbag0
(g1
g2
(lp110
Vhorse
p111
atp112
Rp113
(dp114
g13
VNN
p115
sbatp116
Rp117
(dp118
g13
VNP
p119
sbag0
(g1
g2
(lp120
V,
p121
atp122
Rp123
(dp124
g13
V,
p125
sbag0
(g1
g2
(lp126
Vand
p127
atp128
Rp129
(dp130
g13
VCC
p131
sbag0
(g1
g2
(lp132
g0
(g1
g2
(lp133
Vits
p134
atp135
Rp136
(dp137
g13
VPRP$
p138
sbag0
(g1
g2
(lp139
Vwoman
p140
atp141
Rp142
(dp143
g13
VNN
p144
sbatp145
Rp146
(dp147
g13
VNP
p148
sbag0
(g1
g2
(lp149
V,
p150
atp151
Rp152
(dp153
g13
V,
p154
sbatp155
Rp156
(dp157
g13
VNP
p158
sbatp159
Rp160
(dp161
g13
VNP
p162
sbag0
(g1
g2
(lp163
g0
(g1
g2
(lp164
Vriding
p165
atp166
Rp167
(dp168
g13
VVBG
p169
sbag0
(g1
g2
(lp170
g0
(g1
g2
(lp171
Va
p172
atp173
Rp174
(dp175
g13
VDT
p176
sbag0
(g1
g2
(lp177
Vhorse
p178
atp179
Rp180
(dp181
g13
VNN
p182
sbatp183
Rp184
(dp185
g13
VNP
p186
sbatp187
Rp188
(dp189
g13
VVP
p190
sbag0
(g1
g2
(lp191
V.
p192
atp193
Rp194
(dp195
g13
V.
p196
sbatp197
Rp198
(dp199
g13
VNP
p200
sbatp201
Rp202
(dp203
g13
S'id: 1'
p204
sbag0
(g1
g2
(lp205
g0
(g1
g2
(lp206
g0
(g1
g2
(lp207
VAnd
p208
atp209
Rp210
(dp211
g13
VCC
p212
sbag0
(g1
g2
(lp213
g0
(g1
g2
(lp214
g0
(g1
g2
(lp215
Va
p216
atp217
Rp218
(dp219
g13
VDT
p220
sbag0
(g1
g2
(lp221
Vclown
p222
atp223
Rp224
(dp225
g13
VNN
p226
sbatp227
Rp228
(dp229
g13
VNP
p230
sbag0
(g1
g2
(lp231
g0
(g1
g2
(lp232
Vis
p233
atp234
Rp235
(dp236
g13
VVBZ
p237
sbag0
(g1
g2
(lp238
g0
(g1
g2
(lp239
Vpopcorn
p240
atp241
Rp242
(dp243
g13
VNN
p244
sbatp245
Rp246
(dp247
g13
VNP
p248
sbatp249
Rp250
(dp251
g13
VVP
p252
sbatp253
Rp254
(dp255
g13
VS
p256
sbag0
(g1
g2
(lp257
V,
p258
atp259
Rp260
(dp261
g13
V,
p262
sbag0
(g1
g2
(lp263
Vand
p264
atp265
Rp266
(dp267
g13
VCC
p268
sbag0
(g1
g2
(lp269
g0
(g1
g2
(lp270
g0
(g1
g2
(lp271
Vlady
p272
atp273
Rp274
(dp275
g13
VNN
p276
sbatp277
Rp278
(dp279
g13
VNP
p280
sbag0
(g1
g2
(lp281
g0
(g1
g2
(lp282
Vholding
p283
atp284
Rp285
(dp286
g13
VVBG
p287
sbag0
(g1
g2
(lp288
g0
(g1
g2
(lp289
Va
p290
atp291
Rp292
(dp293
g13
VDT
p294
sbag0
(g1
g2
(lp295
Vchild
p296
atp297
Rp298
(dp299
g13
VNN
p300
sbatp301
Rp302
(dp303
g13
VNP
p304
sbatp305
Rp306
(dp307
g13
VVP
p308
sbatp309
Rp310
(dp311
g13
VS
p312
sbag0
(g1
g2
(lp313
V.
p314
atp315
Rp316
(dp317
g13
V.
p318
sbatp319
Rp320
(dp321
g13
VS
p322
sbatp323
Rp324
(dp325
g13
S'id: 2'
p326
sbag0
(g1
g2
(lp327
g0
(g1
g2
(lp328
g0
(g1
g2
(lp329
VAnd
p330
atp331
Rp332
(dp333
g13
VCC
p334
sbag0
(g1
g2
(lp335
g0
(g1
g2
(lp336
Vthe
p337
atp338
Rp339
(dp340
g13
VDT
p341
sbag0
(g1
g2
(lp342
Vboy
p343
atp344
Rp345
(dp346
g13
VNN
p347
sbatp348
Rp349
(dp350
g13
VNP
p351
sbag0
(g1
g2
(lp352
g0
(g1
g2
(lp353
Vis
p354
atp355
Rp356
(dp357
g13
VVBZ
p358
sbag0
(g1
g2
(lp359
g0
(g1
g2
(lp360
Vcatching
p361
atp362
Rp363
(dp364
g13
VVBG
p365
sbag0
(g1
g2
(lp366
g0
(g1
g2
(lp367
Vthe
p368
atp369
Rp370
(dp371
g13
VDT
p372
sbag0
(g1
g2
(lp373
Vpopcorn
p374
atp375
Rp376
(dp377
g13
VNN
p378
sbatp379
Rp380
(dp381
g13
VNP
p382
sbatp383
Rp384
(dp385
g13
VVP
p386
sbatp387
Rp388
(dp389
g13
VVP
p390
sbag0
(g1
g2
(lp391
V.
p392
atp393
Rp394
(dp395
g13
V.
p396
sbatp397
Rp398
(dp399
g13
VS
p400
sbatp401
Rp402
(dp403
g13
S'id: 3'
p404
sbag0
(g1
g2
(lp405
g0
(g1
g2
(lp406
g0
(g1
g2
(lp407
g0
(g1
g2
(lp408
g0
(g1
g2
(lp409
VThe
p410
atp411
Rp412
(dp413
g13
VDT
p414
sbag0
(g1
g2
(lp415
g0
(g1
g2
(lp416
g0
(g1
g2
(lp417
Vthe
p418
atp419
Rp420
(dp421
g13
VDT
p422
sbag0
(g1
g2
(lp423
Vthe
p424
atp425
Rp426
(dp427
g13
VDT
p428
sbatp429
Rp430
(dp431
g13
VADVP
p432
sbag0
(g1
g2
(lp433
Vthe
p434
atp435
Rp436
(dp437
g13
VDT
p438
sbatp439
Rp440
(dp441
g13
VADJP
p442
sbag0
(g1
g2
(lp443
Vman
p444
atp445
Rp446
(dp447
g13
VNN
p448
sbatp449
Rp450
(dp451
g13
VNP
p452
sbag0
(g1
g2
(lp453
V,
p454
atp455
Rp456
(dp457
g13
V,
p458
sbag0
(g1
g2
(lp459
Vand
p460
atp461
Rp462
(dp463
g13
VCC
p464
sbag0
(g1
g2
(lp465
g0
(g1
g2
(lp466
Vtwo
p467
atp468
Rp469
(dp470
g13
VCD
p471
sbatp472
Rp473
(dp474
g13
VNP
p475
sbag0
(g1
g2
(lp476
V,
p477
atp478
Rp479
(dp480
g13
V,
p481
sbag0
(g1
g2
(lp482
g0
(g1
g2
(lp483
Va
p484
atp485
Rp486
(dp487
g13
VDT
p488
sbag0
(g1
g2
(lp489
Vlittle
p490
atp491
Rp492
(dp493
g13
VJJ
p494
sbag0
(g1
g2
(lp495
Vgirl
p496
atp497
Rp498
(dp499
g13
VNN
p500
sbatp501
Rp502
(dp503
g13
VNP
p504
sbag0
(g1
g2
(lp505
V,
p506
atp507
Rp508
(dp509
g13
V,
p510
sbatp511
Rp512
(dp513
g13
VNP
p514
sbag0
(g1
g2
(lp515
g0
(g1
g2
(lp516
Vis
p517
atp518
Rp519
(dp520
g13
VVBZ
p521
sbag0
(g1
g2
(lp522
g0
(g1
g2
(lp523
Vlaughing
p524
atp525
Rp526
(dp527
g13
VVBG
p528
sbatp529
Rp530
(dp531
g13
VVP
p532
sbatp533
Rp534
(dp535
g13
VVP
p536
sbag0
(g1
g2
(lp537
V.
p538
atp539
Rp540
(dp541
g13
V.
p542
sbatp543
Rp544
(dp545
g13
VS
p546
sbatp547
Rp548
(dp549
g13
S'id: 4'
p550
sbag0
(g1
g2
(lp551
g0
(g1
g2
(lp552
g0
(g1
g2
(lp553
VThe
p554
atp555
Rp556
(dp557
g13
VDT
p558
sbag0
(g1
g2
(lp559
Vring
p560
atp561
Rp562
(dp563
g13
VNN
p564
sbag0
(g1
g2
(lp565
V.
p566
atp567
Rp568
(dp569
g13
V.
p570
sbatp571
Rp572
(dp573
g13
VNP
p574
sbatp575
Rp576
(dp577
g13
S'id: 5'
p578
sbag0
(g1
g2
(lp579
g0
(g1
g2
(lp580
g0
(g1
g2
(lp581
VThe
p582
atp583
Rp584
(dp585
g13
VDT
p586
sbag0
(g1
g2
(lp587
Vmass
p588
atp589
Rp590
(dp591
g13
VNN
p592
sbag0
(g1
g2
(lp593
V.
p594
atp595
Rp596
(dp597
g13
V.
p598
sbatp599
Rp600
(dp601
g13
VNP
p602
sbatp603
Rp604
(dp605
g13
S'id: 6'
p606
sbag0
(g1
g2
(lp607
g0
(g1
g2
(lp608
g0
(g1
g2
(lp609
g0
(g1
g2
(lp610
VThe
p611
atp612
Rp613
(dp614
g13
VDT
p615
sbag0
(g1
g2
(lp616
Vlion
p617
atp618
Rp619
(dp620
g13
VNN
p621
sbatp622
Rp623
(dp624
g13
VNP
p625
sbag0
(g1
g2
(lp626
V,
p627
atp628
Rp629
(dp630
g13
V,
p631
sbag0
(g1
g2
(lp632
g0
(g1
g2
(lp633
g0
(g1
g2
(lp634
Vis
p635
atp636
Rp637
(dp638
g13
VVBZ
p639
sbag0
(g1
g2
(lp640
g0
(g1
g2
(lp641
Vis
p642
atp643
Rp644
(dp645
g13
VVBZ
p646
sbatp647
Rp648
(dp649
g13
VVP
p650
sbatp651
Rp652
(dp653
g13
VVP
p654
sbatp655
Rp656
(dp657
g13
VS
p658
sbag0
(g1
g2
(lp659
V,
p660
atp661
Rp662
(dp663
g13
V,
p664
sbag0
(g1
g2
(lp665
g0
(g1
g2
(lp666
Va
p667
atp668
Rp669
(dp670
g13
VDT
p671
sbag0
(g1
g2
(lp672
Vlion
p673
atp674
Rp675
(dp676
g13
VNN
p677
sbatp678
Rp679
(dp680
g13
VNP
p681
sbag0
(g1
g2
(lp682
g0
(g1
g2
(lp683
Vis
p684
atp685
Rp686
(dp687
g13
VVBZ
p688
sbag0
(g1
g2
(lp689
g0
(g1
g2
(lp690
Vsitting
p691
atp692
Rp693
(dp694
g13
VVBG
p695
sbag0
(g1
g2
(lp696
g0
(g1
g2
(lp697
Vto
p698
atp699
Rp700
(dp701
g13
VTO
p702
sbag0
(g1
g2
(lp703
g0
(g1
g2
(lp704
Vthe
p705
atp706
Rp707
(dp708
g13
VDT
p709
sbag0
(g1
g2
(lp710
Vring
p711
atp712
Rp713
(dp714
g13
VNN
p715
sbag0
(g1
g2
(lp716
Vmaster
p717
atp718
Rp719
(dp720
g13
VNN
p721
sbatp722
Rp723
(dp724
g13
VNP
p725
sbatp726
Rp727
(dp728
g13
VPP
p729
sbatp730
Rp731
(dp732
g13
VVP
p733
sbatp734
Rp735
(dp736
g13
VVP
p737
sbag0
(g1
g2
(lp738
V.
p739
atp740
Rp741
(dp742
g13
V.
p743
sbatp744
Rp745
(dp746
g13
VS
p747
sbatp748
Rp749
(dp750
g13
S'id: 7'
p751
sbag0
(g1
g2
(lp752
g0
(g1
g2
(lp753
g0
(g1
g2
(lp754
g0
(g1
g2
(lp755
VAnd
p756
atp757
Rp758
(dp759
g13
VCC
p760
sbatp761
Rp762
(dp763
g13
VVP
p764
sbag0
(g1
g2
(lp765
V.
p766
atp767
Rp768
(dp769
g13
V.
p770
sbatp771
Rp772
(dp773
g13
VS
p774
sbatp775
Rp776
(dp777
g13
S'id: 8'
p778
sbag0
(g1
g2
(lp779
g0
(g1
g2
(lp780
g0
(g1
g2
(lp781
g0
(g1
g2
(lp782
g0
(g1
g2
(lp783
VThe
p784
atp785
Rp786
(dp787
g13
VDT
p788
sbatp789
Rp790
(dp791
g13
VWHNP
p792
sbag0
(g1
g2
(lp793
g0
(g1
g2
(lp794
g0
(g1
g2
(lp795
Vriding
p796
atp797
Rp798
(dp799
g13
VVBG
p800
sbatp801
Rp802
(dp803
g13
VVP
p804
sbatp805
Rp806
(dp807
g13
VS
p808
sbatp809
Rp810
(dp811
g13
VSBAR
p812
sbag0
(g1
g2
(lp813
V,
p814
atp815
Rp816
(dp817
g13
V,
p818
sbag0
(g1
g2
(lp819
g0
(g1
g2
(lp820
Va
p821
atp822
Rp823
(dp824
g13
VDT
p825
sbag0
(g1
g2
(lp826
Vtype
p827
atp828
Rp829
(dp830
g13
VNN
p831
sbatp832
Rp833
(dp834
g13
VNP
p835
sbag0
(g1
g2
(lp836
g0
(g1
g2
(lp837
Vwrite
p838
atp839
Rp840
(dp841
g13
VVB
p842
sbatp843
Rp844
(dp845
g13
VVP
p846
sbag0
(g1
g2
(lp847
V.
p848
atp849
Rp850
(dp851
g13
V.
p852
sbatp853
Rp854
(dp855
g13
VS
p856
sbatp857
Rp858
(dp859
g13
S'id: 9'
p860
sbag0
(g1
g2
(lp861
g0
(g1
g2
(lp862
g0
(g1
g2
(lp863
g0
(g1
g2
(lp864
VRiding
p865
atp866
Rp867
(dp868
g13
VVBG
p869
sbag0
(g1
g2
(lp870
g0
(g1
g2
(lp871
Va
p872
atp873
Rp874
(dp875
g13
VDT
p876
sbag0
(g1
g2
(lp877
Vthe
p878
atp879
Rp880
(dp881
g13
VDT
p882
sbag0
(g1
g2
(lp883
Vwalk
p884
atp885
Rp886
(dp887
g13
VNN
p888
sbatp889
Rp890
(dp891
g13
VNP
p892
sbatp893
Rp894
(dp895
g13
VVP
p896
sbag0
(g1
g2
(lp897
V.
p898
atp899
Rp900
(dp901
g13
V.
p902
sbatp903
Rp904
(dp905
g13
VS
p906
sbatp907
Rp908
(dp909
g13
S'id: 10'
p910
sbag0
(g1
g2
(lp911
g0
(g1
g2
(lp912
g0
(g1
g2
(lp913
g0
(g1
g2
(lp914
VThe
p915
atp916
Rp917
(dp918
g13
VDT
p919
sbag0
(g1
g2
(lp920
Vtype
p921
atp922
Rp923
(dp924
g13
VNN
p925
sbatp926
Rp927
(dp928
g13
VNP
p929
sbag0
(g1
g2
(lp930
V,
p931
atp932
Rp933
(dp934
g13
V,
p935
sbag0
(g1
g2
(lp936
g0
(g1
g2
(lp937
Vthe
p938
atp939
Rp940
(dp941
g13
VDT
p942
sbag0
(g1
g2
(lp943
Vtight
p944
atp945
Rp946
(dp947
g13
VJJ
p948
sbag0
(g1
g2
(lp949
Vwire
p950
atp951
Rp952
(dp953
g13
VNN
p954
sbatp955
Rp956
(dp957
g13
VNP
p958
sbag0
(g1
g2
(lp959
V,
p960
atp961
Rp962
(dp963
g13
V,
p964
sbag0
(g1
g2
(lp965
g0
(g1
g2
(lp966
Vbalancing
p967
atp968
Rp969
(dp970
g13
VNN
p971
sbatp972
Rp973
(dp974
g13
VNP
p975
sbag0
(g1
g2
(lp976
V,
p977
atp978
Rp979
(dp980
g13
V,
p981
sbag0
(g1
g2
(lp982
g0
(g1
g2
(lp983
g0
(g1
g2
(lp984
Vthe
p985
atp986
Rp987
(dp988
g13
VDT
p989
sbatp990
Rp991
(dp992
g13
VNP
p993
sbag0
(g1
g2
(lp994
g0
(g1
g2
(lp995
Vbalancing
p996
atp997
Rp998
(dp999
g13
VVBG
p1000
sbag0
(g1
g2
(lp1001
g0
(g1
g2
(lp1002
Vthe
p1003
atp1004
Rp1005
(dp1006
g13
VDT
p1007
sbag0
(g1
g2
(lp1008
Vperson
p1009
atp1010
Rp1011
(dp1012
g13
VNN
p1013
sbatp1014
Rp1015
(dp1016
g13
VNP
p1017
sbatp1018
Rp1019
(dp1020
g13
VVP
p1021
sbatp1022
Rp1023
(dp1024
g13
VS
p1025
sbag0
(g1
g2
(lp1026
V.
p1027
atp1028
Rp1029
(dp1030
g13
V.
p1031
sbatp1032
Rp1033
(dp1034
g13
VNP
p1035
sbatp1036
Rp1037
(dp1038
g13
S'id: 11'
p1039
sbatp1040
Rp1041
(dp1042
g13
S'sentences'
p1043
sb.