ccopy_reg
_reconstructor
p0
(cnltk.tree
Tree
p1
c__builtin__
list
p2
(lp3
g0
(g1
g2
(lp4
g0
(g1
g2
(lp5
g0
(g1
g2
(lp6
(lp7
S'word: bay, index: 1'
p8
aatp9
Rp10
(dp11
S'_label'
p12
Vnsubj
p13
sbatp14
Rp15
(dp16
g12
S'word: died, index: 2'
p17
sbatp18
Rp19
(dp20
g12
S'id: 0'
p21
sbag0
(g1
g2
(lp22
g0
(g1
g2
(lp23
g0
(g1
g2
(lp24
(lp25
S'word: horses, index: 6'
p26
aatp27
Rp28
(dp29
g12
Vconj
p30
sbag0
(g1
g2
(lp31
g0
(g1
g2
(lp32
g0
(g1
g2
(lp33
(lp34
S'word: a, index: 1'
p35
aatp36
Rp37
(dp38
g12
Vdet
p39
sbatp40
Rp41
(dp42
g12
S'word: bay, index: 2'
p43
sbatp44
Rp45
(dp46
g12
Vnsubj
p47
sbatp48
Rp49
(dp50
g12
S'word: died, index: 3'
p51
sbatp52
Rp53
(dp54
g12
S'id: 1'
p55
sbag0
(g1
g2
(lp56
tp57
Rp58
(dp59
g12
S'id: 2'
p60
sbag0
(g1
g2
(lp61
g0
(g1
g2
(lp62
g0
(g1
g2
(lp63
(lp64
S'word: And, index: 1'
p65
aatp66
Rp67
(dp68
g12
Vcc
p69
sbag0
(g1
g2
(lp70
(lp71
S'word: tiger, index: 3'
p72
aatp73
Rp74
(dp75
g12
Vdep
p76
sbatp77
Rp78
(dp79
g12
S'word: my, index: 2'
p80
sbatp81
Rp82
(dp83
g12
S'id: 3'
p84
sbag0
(g1
g2
(lp85
g0
(g1
g2
(lp86
g0
(g1
g2
(lp87
g0
(g1
g2
(lp88
g0
(g1
g2
(lp89
(lp90
S'word: round, index: 2'
p91
aatp92
Rp93
(dp94
g12
Vnn
p95
sbatp96
Rp97
(dp98
g12
S'word: things, index: 3'
p99
sbatp100
Rp101
(dp102
g12
Vdep
p103
sbatp104
Rp105
(dp106
g12
S'word: Ring, index: 1'
p107
sbatp108
Rp109
(dp110
g12
S'id: 4'
p111
sbag0
(g1
g2
(lp112
tp113
Rp114
(dp115
g12
S'id: 5'
p116
sbag0
(g1
g2
(lp117
g0
(g1
g2
(lp118
g0
(g1
g2
(lp119
(lp120
S'word: I, index: 1'
p121
aatp122
Rp123
(dp124
g12
Vnsubj
p125
sbatp126
Rp127
(dp128
g12
S'word: know, index: 2'
p129
sbatp130
Rp131
(dp132
g12
S'id: 6'
p133
sbag0
(g1
g2
(lp134
tp135
Rp136
(dp137
g12
S'id: 7'
p138
sbag0
(g1
g2
(lp139
tp140
Rp141
(dp142
g12
S'id: 8'
p143
sbag0
(g1
g2
(lp144
g0
(g1
g2
(lp145
g0
(g1
g2
(lp146
(lp147
S'word: Yet, index: 1'
p148
aatp149
Rp150
(dp151
g12
Vdep
p152
sbag0
(g1
g2
(lp153
(lp154
S'word: yet, index: 3'
p155
aatp156
Rp157
(dp158
g12
Vdep
p159
sbag0
(g1
g2
(lp160
(lp161
S'word: yet, index: 5'
p162
aatp163
Rp164
(dp165
g12
Vdep
p166
sbatp167
Rp168
(dp169
g12
S'word: yet, index: 7'
p170
sbatp171
Rp172
(dp173
g12
S'id: 9'
p174
sbag0
(g1
g2
(lp175
g0
(g1
g2
(lp176
g0
(g1
g2
(lp177
(lp178
S'word: Jut, index: 1'
p179
aatp180
Rp181
(dp182
g12
Vnn
p183
sbag0
(g1
g2
(lp184
(lp185
S'word: popporn, index: 2'
p186
aatp187
Rp188
(dp189
g12
Vnn
p190
sbag0
(g1
g2
(lp191
(lp192
S'word: tiger, index: 4'
p193
aatp194
Rp195
(dp196
g12
Vdep
p197
sbatp198
Rp199
(dp200
g12
S'word: brids, index: 3'
p201
sbatp202
Rp203
(dp204
g12
S'id: 10'
p205
sbatp206
Rp207
(dp208
g12
S'sentences'
p209
sb.