ccopy_reg
_reconstructor
p0
(cnltk.tree
Tree
p1
c__builtin__
list
p2
(lp3
g0
(g1
g2
(lp4
g0
(g1
g2
(lp5
g0
(g1
g2
(lp6
VMan .
p7
atp8
Rp9
(dp10
S'_label'
p11
S'start: 1'
p12
sbatp13
Rp14
(dp15
g11
S'sent: 3'
p16
sbag0
(g1
g2
(lp17
g0
(g1
g2
(lp18
VMan .
p19
atp20
Rp21
(dp22
g11
S'start: 1'
p23
sbatp24
Rp25
(dp26
g11
S'sent: 15'
p27
sbatp28
Rp29
(dp30
g11
S'id: 2'
p31
sbag0
(g1
g2
(lp32
g0
(g1
g2
(lp33
g0
(g1
g2
(lp34
VArt no .
p35
atp36
Rp37
(dp38
g11
S'start: 1'
p39
sbatp40
Rp41
(dp42
g11
S'sent: 6'
p43
sbag0
(g1
g2
(lp44
g0
(g1
g2
(lp45
VArt no .
p46
atp47
Rp48
(dp49
g11
S'start: 1'
p50
sbatp51
Rp52
(dp53
g11
S'sent: 7'
p54
sbag0
(g1
g2
(lp55
g0
(g1
g2
(lp56
VArt
p57
atp58
Rp59
(dp60
g11
S'start: 1'
p61
sbatp62
Rp63
(dp64
g11
S'sent: 8'
p65
sbag0
(g1
g2
(lp66
g0
(g1
g2
(lp67
VArt no .
p68
atp69
Rp70
(dp71
g11
S'start: 1'
p72
sbatp73
Rp74
(dp75
g11
S'sent: 14'
p76
sbatp77
Rp78
(dp79
g11
S'id: 4'
p80
sbag0
(g1
g2
(lp81
g0
(g1
g2
(lp82
g0
(g1
g2
(lp83
Vno
p84
atp85
Rp86
(dp87
g11
S'start: 2'
p88
sbatp89
Rp90
(dp91
g11
S'sent: 6'
p92
sbag0
(g1
g2
(lp93
g0
(g1
g2
(lp94
Vno
p95
atp96
Rp97
(dp98
g11
S'start: 2'
p99
sbatp100
Rp101
(dp102
g11
S'sent: 7'
p103
sbag0
(g1
g2
(lp104
g0
(g1
g2
(lp105
VNo
p106
atp107
Rp108
(dp109
g11
S'start: 1'
p110
sbatp111
Rp112
(dp113
g11
S'sent: 13'
p114
sbag0
(g1
g2
(lp115
g0
(g1
g2
(lp116
Vno
p117
atp118
Rp119
(dp120
g11
S'start: 2'
p121
sbatp122
Rp123
(dp124
g11
S'sent: 14'
p125
sbatp126
Rp127
(dp128
g11
S'id: 5'
p129
sbatp130
Rp131
(dp132
g11
S'coreferences'
p133
sb.