ccopy_reg
_reconstructor
p0
(cnltk.tree
Tree
p1
c__builtin__
list
p2
(lp3
g0
(g1
g2
(lp4
g0
(g1
g2
(lp5
g0
(g1
g2
(lp6
g0
(g1
g2
(lp7
g0
(g1
g2
(lp8
(lp9
S"word: 's, index: 2"
p10
aatp11
Rp12
(dp13
S'_label'
p14
Vnsubj
p15
sbag0
(g1
g2
(lp16
g0
(g1
g2
(lp17
g0
(g1
g2
(lp18
(lp19
S'word: this, index: 4'
p20
aatp21
Rp22
(dp23
g14
Vnsubj
p24
sbag0
(g1
g2
(lp25
(lp26
S'word: is, index: 5'
p27
aatp28
Rp29
(dp30
g14
Vcop
p31
sbag0
(g1
g2
(lp32
(lp33
S'word: a, index: 6'
p34
aatp35
Rp36
(dp37
g14
Vdet
p38
sbatp39
Rp40
(dp41
g14
S'word: circus, index: 7'
p42
sbatp43
Rp44
(dp45
g14
Vccomp
p46
sbatp47
Rp48
(dp49
g14
S'word: see, index: 3'
p50
sbatp51
Rp52
(dp53
g14
Vccomp
p54
sbatp55
Rp56
(dp57
g14
S'word: let, index: 1'
p58
sbatp59
Rp60
(dp61
g14
S'id: 0'
p62
sbag0
(g1
g2
(lp63
g0
(g1
g2
(lp64
g0
(g1
g2
(lp65
g0
(g1
g2
(lp66
g0
(g1
g2
(lp67
(lp68
S'word: a, index: 3'
p69
aatp70
Rp71
(dp72
g14
Vdet
p73
sbag0
(g1
g2
(lp74
g0
(g1
g2
(lp75
g0
(g1
g2
(lp76
(lp77
S'word: a, index: 6'
p78
aatp79
Rp80
(dp81
g14
Vdet
p82
sbag0
(g1
g2
(lp83
g0
(g1
g2
(lp84
g0
(g1
g2
(lp85
(lp86
S'word: a, index: 9'
p87
aatp88
Rp89
(dp90
g14
Vdet
p91
sbatp92
Rp93
(dp94
g14
S'word: lion, index: 10'
p95
sbatp96
Rp97
(dp98
g14
Vprep
p99
sbatp100
Rp101
(dp102
g14
S'word: cage, index: 7'
p103
sbatp104
Rp105
(dp106
g14
Vprep
p107
sbatp108
Rp109
(dp110
g14
S'word: man, index: 4'
p111
sbatp112
Rp113
(dp114
g14
Vnsubj
p115
sbag0
(g1
g2
(lp116
(lp117
S'word: There, index: 1'
p118
aatp119
Rp120
(dp121
g14
Vexpl
p122
sbatp123
Rp124
(dp125
g14
S'word: is, index: 2'
p126
sbatp127
Rp128
(dp129
g14
S'id: 1'
p130
sbag0
(g1
g2
(lp131
g0
(g1
g2
(lp132
g0
(g1
g2
(lp133
g0
(g1
g2
(lp134
g0
(g1
g2
(lp135
(lp136
S'word: son, index: 8'
p137
aatp138
Rp139
(dp140
g14
Vconj
p141
sbatp142
Rp143
(dp144
g14
S'word: a, index: 6'
p145
sbatp146
Rp147
(dp148
g14
Vnsubj
p149
sbag0
(g1
g2
(lp150
(lp151
S'word: There, index: 1'
p152
aatp153
Rp154
(dp155
g14
Vexpl
p156
sbag0
(g1
g2
(lp157
g0
(g1
g2
(lp158
g0
(g1
g2
(lp159
g143
atp160
Rp161
(dp162
g14
Vconj
p163
sbag0
(g1
g2
(lp164
(lp165
S'word: son, index: 8'
p166
aatp167
Rp168
(dp169
g14
Vconj
p170
sbag0
(g1
g2
(lp171
(lp172
S'word: a, index: 3'
p173
aatp174
Rp175
(dp176
g14
Vdet
p177
sbatp178
Rp179
(dp180
g14
S'word: boy, index: 4'
p181
sbatp182
Rp183
(dp184
g14
Vnsubj
p185
sbatp186
Rp187
(dp188
g14
S"word: 's, index: 2"
p189
sbatp190
Rp191
(dp192
g14
S'id: 2'
p193
sbag0
(g1
g2
(lp194
g0
(g1
g2
(lp195
g0
(g1
g2
(lp196
(lp197
S'word: There, index: 1'
p198
aatp199
Rp200
(dp201
g14
Vexpl
p202
sbag0
(g1
g2
(lp203
g0
(g1
g2
(lp204
g0
(g1
g2
(lp205
(lp206
S'word: a, index: 3'
p207
aatp208
Rp209
(dp210
g14
Vdet
p211
sbag0
(g1
g2
(lp212
g0
(g1
g2
(lp213
g0
(g1
g2
(lp214
(lp215
S'word: son, index: 8'
p216
aatp217
Rp218
(dp219
g14
Vappos
p220
sbatp221
Rp222
(dp223
g14
S'word: daughter, index: 6'
p224
sbatp225
Rp226
(dp227
g14
Vappos
p228
sbatp229
Rp230
(dp231
g14
S'word: woman, index: 4'
p232
sbatp233
Rp234
(dp235
g14
Vnsubj
p236
sbatp237
Rp238
(dp239
g14
S"word: 's, index: 2"
p240
sbatp241
Rp242
(dp243
g14
S'id: 3'
p244
sbag0
(g1
g2
(lp245
g0
(g1
g2
(lp246
g0
(g1
g2
(lp247
(lp248
S'word: There, index: 1'
p249
aatp250
Rp251
(dp252
g14
Vexpl
p253
sbag0
(g1
g2
(lp254
g0
(g1
g2
(lp255
g0
(g1
g2
(lp256
(lp257
S'word: a, index: 3'
p258
aatp259
Rp260
(dp261
g14
Vdet
p262
sbatp263
Rp264
(dp265
g14
S'word: clown, index: 4'
p266
sbatp267
Rp268
(dp269
g14
Vnsubj
p270
sbatp271
Rp272
(dp273
g14
S"word: 's, index: 2"
p274
sbatp275
Rp276
(dp277
g14
S'id: 4'
p278
sbag0
(g1
g2
(lp279
g0
(g1
g2
(lp280
g0
(g1
g2
(lp281
(lp282
S'word: There, index: 1'
p283
aatp284
Rp285
(dp286
g14
Vexpl
p287
sbag0
(g1
g2
(lp288
g0
(g1
g2
(lp289
g0
(g1
g2
(lp290
(lp291
S'word: a, index: 3'
p292
aatp293
Rp294
(dp295
g14
Vdet
p296
sbag0
(g1
g2
(lp297
g0
(g1
g2
(lp298
g0
(g1
g2
(lp299
(lp300
S'word: a, index: 6'
p301
aatp302
Rp303
(dp304
g14
Vdet
p305
sbatp306
Rp307
(dp308
g14
S'word: horse, index: 7'
p309
sbatp310
Rp311
(dp312
g14
Vprep
p313
sbatp314
Rp315
(dp316
g14
S'word: woman, index: 4'
p317
sbatp318
Rp319
(dp320
g14
Vnsubj
p321
sbatp322
Rp323
(dp324
g14
S"word: 's, index: 2"
p325
sbatp326
Rp327
(dp328
g14
S'id: 5'
p329
sbag0
(g1
g2
(lp330
g0
(g1
g2
(lp331
g0
(g1
g2
(lp332
(lp333
S'word: watching, index: 3'
p334
aatp335
Rp336
(dp337
g14
Vvmod
p338
sbag0
(g1
g2
(lp339
(lp340
S'word: Five, index: 1'
p341
aatp342
Rp343
(dp344
g14
Vnum
p345
sbatp346
Rp347
(dp348
g14
S'word: people, index: 2'
p349
sbatp350
Rp351
(dp352
g14
S'id: 6'
p353
sbag0
(g1
g2
(lp354
g0
(g1
g2
(lp355
g0
(g1
g2
(lp356
(lp357
S'word: There, index: 1'
p358
aatp359
Rp360
(dp361
g14
Vexpl
p362
sbag0
(g1
g2
(lp363
g0
(g1
g2
(lp364
g0
(g1
g2
(lp365
g0
(g1
g2
(lp366
g0
(g1
g2
(lp367
g0
(g1
g2
(lp368
g0
(g1
g2
(lp369
(lp370
S'word: the, index: 7'
p371
aatp372
Rp373
(dp374
g14
Vdet
p375
sbatp376
Rp377
(dp378
g14
S'word: wire, index: 8'
p379
sbatp380
Rp381
(dp382
g14
Vprep
p383
sbatp384
Rp385
(dp386
g14
S'word: walking, index: 5'
p387
sbatp388
Rp389
(dp390
g14
Vvmod
p391
sbag0
(g1
g2
(lp392
(lp393
S'word: a, index: 3'
p394
aatp395
Rp396
(dp397
g14
Vdet
p398
sbatp399
Rp400
(dp401
g14
S'word: man, index: 4'
p402
sbatp403
Rp404
(dp405
g14
Vnsubj
p406
sbatp407
Rp408
(dp409
g14
S"word: 's, index: 2"
p410
sbatp411
Rp412
(dp413
g14
S'id: 7'
p414
sbag0
(g1
g2
(lp415
g0
(g1
g2
(lp416
g0
(g1
g2
(lp417
g0
(g1
g2
(lp418
g0
(g1
g2
(lp419
(lp420
S"word: 's, index: 2"
p421
aatp422
Rp423
(dp424
g14
Vnsubj
p425
sbatp426
Rp427
(dp428
g14
S'word: see, index: 3'
p429
sbatp430
Rp431
(dp432
g14
Vccomp
p433
sbatp434
Rp435
(dp436
g14
S'word: Let, index: 1'
p437
sbatp438
Rp439
(dp440
g14
S'id: 8'
p441
sbag0
(g1
g2
(lp442
g0
(g1
g2
(lp443
g0
(g1
g2
(lp444
g0
(g1
g2
(lp445
g0
(g1
g2
(lp446
(lp447
S'word: The, index: 1'
p448
aatp449
Rp450
(dp451
g14
Vdet
p452
sbatp453
Rp454
(dp455
g14
S'word: girl, index: 2'
p456
sbatp457
Rp458
(dp459
g14
Vnsubj
p460
sbag0
(g1
g2
(lp461
(lp462
S'word: is, index: 3'
p463
aatp464
Rp465
(dp466
g14
Vaux
p467
sbatp468
Rp469
(dp470
g14
S'word: laughing, index: 4'
p471
sbatp472
Rp473
(dp474
g14
S'id: 9'
p475
sbag0
(g1
g2
(lp476
g0
(g1
g2
(lp477
g0
(g1
g2
(lp478
g0
(g1
g2
(lp479
g0
(g1
g2
(lp480
(lp481
S"word: 's, index: 2"
p482
aatp483
Rp484
(dp485
g14
Vpossessive
p486
sbatp487
Rp488
(dp489
g14
S'word: Woman, index: 1'
p490
sbatp491
Rp492
(dp493
g14
Vnsubj
p494
sbag0
(g1
g2
(lp495
g0
(g1
g2
(lp496
g0
(g1
g2
(lp497
(lp498
S'word: some, index: 4'
p499
aatp500
Rp501
(dp502
g14
Vdet
p503
sbag0
(g1
g2
(lp504
g0
(g1
g2
(lp505
g0
(g1
g2
(lp506
(lp507
S'word: sparkly, index: 7'
p508
aatp509
Rp510
(dp511
g14
Vamod
p512
sbatp513
Rp514
(dp515
g14
S'word: thing, index: 8'
p516
sbatp517
Rp518
(dp519
g14
Vprep
p520
sbatp521
Rp522
(dp523
g14
S'word: kind, index: 5'
p524
sbatp525
Rp526
(dp527
g14
Vdobj
p528
sbatp529
Rp530
(dp531
g14
S'word: wearing, index: 3'
p532
sbatp533
Rp534
(dp535
g14
S'id: 10'
p536
sbag0
(g1
g2
(lp537
g0
(g1
g2
(lp538
g0
(g1
g2
(lp539
(lp540
S'word: Clown, index: 1'
p541
aatp542
Rp543
(dp544
g14
Vposs
p545
sbag0
(g1
g2
(lp546
g0
(g1
g2
(lp547
g0
(g1
g2
(lp548
g0
(g1
g2
(lp549
g0
(g1
g2
(lp550
(lp551
S'word: guess, index: 5'
p552
aatp553
Rp554
(dp555
g14
Vnn
p556
sbatp557
Rp558
(dp559
g14
S'word: popcorn, index: 6'
p560
sbatp561
Rp562
(dp563
g14
Vdep
p564
sbatp565
Rp566
(dp567
g14
S'word: i, index: 4'
p568
sbatp569
Rp570
(dp571
g14
Vdep
p572
sbatp573
Rp574
(dp575
g14
S'word: spilling, index: 3'
p576
sbatp577
Rp578
(dp579
g14
S'id: 11'
p580
sbag0
(g1
g2
(lp581
g0
(g1
g2
(lp582
g0
(g1
g2
(lp583
g0
(g1
g2
(lp584
g0
(g1
g2
(lp585
(lp586
S'word: a, index: 4'
p587
aatp588
Rp589
(dp590
g14
Vdet
p591
sbatp592
Rp593
(dp594
g14
S'word: hat, index: 5'
p595
sbatp596
Rp597
(dp598
g14
Vdobj
p599
sbag0
(g1
g2
(lp600
(lp601
S'word: He, index: 1'
p602
aatp603
Rp604
(dp605
g14
Vnsubj
p606
sbag0
(g1
g2
(lp607
(lp608
S"word: 's, index: 2"
p609
aatp610
Rp611
(dp612
g14
Vaux
p613
sbatp614
Rp615
(dp616
g14
S'word: wearing, index: 3'
p617
sbatp618
Rp619
(dp620
g14
S'id: 12'
p621
sbag0
(g1
g2
(lp622
g0
(g1
g2
(lp623
g0
(g1
g2
(lp624
g0
(g1
g2
(lp625
g0
(g1
g2
(lp626
(lp627
S'word: a, index: 2'
p628
aatp629
Rp630
(dp631
g14
Vdet
p632
sbatp633
Rp634
(dp635
g14
S'word: tie, index: 3'
p636
sbatp637
Rp638
(dp639
g14
Vdobj
p640
sbatp641
Rp642
(dp643
g14
S'word: Wearing, index: 1'
p644
sbatp645
Rp646
(dp647
g14
S'id: 13'
p648
sbag0
(g1
g2
(lp649
g0
(g1
g2
(lp650
g0
(g1
g2
(lp651
g0
(g1
g2
(lp652
g0
(g1
g2
(lp653
(lp654
S'word: The, index: 1'
p655
aatp656
Rp657
(dp658
g14
Vdet
p659
sbatp660
Rp661
(dp662
g14
S'word: clown, index: 2'
p663
sbatp664
Rp665
(dp666
g14
Vnsubj
p667
sbag0
(g1
g2
(lp668
(lp669
S'word: is, index: 3'
p670
aatp671
Rp672
(dp673
g14
Vaux
p674
sbag0
(g1
g2
(lp675
g0
(g1
g2
(lp676
g0
(g1
g2
(lp677
(lp678
S'word: it, index: 6'
p679
aatp680
Rp681
(dp682
g14
Vnsubj
p683
sbag0
(g1
g2
(lp684
(lp685
S"word: 's, index: 7"
p686
aatp687
Rp688
(dp689
g14
Vcop
p690
sbag0
(g1
g2
(lp691
(lp692
S'word: back, index: 8'
p693
aatp694
Rp695
(dp696
g14
Vadvmod
p697
sbatp698
Rp699
(dp700
g14
S'word: legs, index: 9'
p701
sbatp702
Rp703
(dp704
g14
Vprepc
p705
sbatp706
Rp707
(dp708
g14
S'word: setting, index: 4'
p709
sbatp710
Rp711
(dp712
g14
S'id: 14'
p713
sbag0
(g1
g2
(lp714
g0
(g1
g2
(lp715
g0
(g1
g2
(lp716
(lp717
S'word: The, index: 1'
p718
aatp719
Rp720
(dp721
g14
Vdet
p722
sbag0
(g1
g2
(lp723
g0
(g1
g2
(lp724
g0
(g1
g2
(lp725
g0
(g1
g2
(lp726
g0
(g1
g2
(lp727
(lp728
S'word: a, index: 4'
p729
aatp730
Rp731
(dp732
g14
Vdet
p733
sbatp734
Rp735
(dp736
g14
S'word: hat, index: 5'
p737
sbatp738
Rp739
(dp740
g14
Vdobj
p741
sbatp742
Rp743
(dp744
g14
S'word: wearing, index: 3'
p745
sbatp746
Rp747
(dp748
g14
Vdep
p749
sbatp750
Rp751
(dp752
g14
S'word: man, index: 2'
p753
sbatp754
Rp755
(dp756
g14
S'id: 15'
p757
sbatp758
Rp759
(dp760
g14
S'sentences'
p761
sb.