ccopy_reg
_reconstructor
p0
(cnltk.tree
Tree
p1
c__builtin__
list
p2
(lp3
g0
(g1
g2
(lp4
g0
(g1
g2
(lp5
g0
(g1
g2
(lp6
Vthe
p7
atp8
Rp9
(dp10
S'_label'
p11
S'start: 1'
p12
sbatp13
Rp14
(dp15
g11
S'sent: 1'
p16
sbag0
(g1
g2
(lp17
g0
(g1
g2
(lp18
Vtheir
p19
atp20
Rp21
(dp22
g11
S'start: 3'
p23
sbatp24
Rp25
(dp26
g11
S'sent: 1'
p27
sbatp28
Rp29
(dp30
g11
S'id: 1'
p31
sbag0
(g1
g2
(lp32
g0
(g1
g2
(lp33
g0
(g1
g2
(lp34
Va clown
p35
atp36
Rp37
(dp38
g11
S'start: 3'
p39
sbatp40
Rp41
(dp42
g11
S'sent: 3'
p43
sbag0
(g1
g2
(lp44
g0
(g1
g2
(lp45
Vthe clown
p46
atp47
Rp48
(dp49
g11
S'start: 15'
p50
sbatp51
Rp52
(dp53
g11
S'sent: 4'
p54
sbag0
(g1
g2
(lp55
g0
(g1
g2
(lp56
Vthe clown
p57
atp58
Rp59
(dp60
g11
S'start: 21'
p61
sbatp62
Rp63
(dp64
g11
S'sent: 5'
p65
sbatp66
Rp67
(dp68
g11
S'id: 10'
p69
sbag0
(g1
g2
(lp70
g0
(g1
g2
(lp71
g0
(g1
g2
(lp72
Vthe lion 's
p73
atp74
Rp75
(dp76
g11
S'start: 29'
p77
sbatp78
Rp79
(dp80
g11
S'sent: 3'
p81
sbag0
(g1
g2
(lp82
g0
(g1
g2
(lp83
Vthe lion
p84
atp85
Rp86
(dp87
g11
S'start: 36'
p88
sbatp89
Rp90
(dp91
g11
S'sent: 3'
p92
sbatp93
Rp94
(dp95
g11
S'id: 18'
p96
sbag0
(g1
g2
(lp97
g0
(g1
g2
(lp98
g0
(g1
g2
(lp99
VThe little girl
p100
atp101
Rp102
(dp103
g11
S'start: 1'
p104
sbatp105
Rp106
(dp107
g11
S'sent: 4'
p108
sbag0
(g1
g2
(lp109
g0
(g1
g2
(lp110
Vher
p111
atp112
Rp113
(dp114
g11
S'start: 6'
p115
sbatp116
Rp117
(dp118
g11
S'sent: 4'
p119
sbag0
(g1
g2
(lp120
g0
(g1
g2
(lp121
Vher
p122
atp123
Rp124
(dp125
g11
S'start: 9'
p126
sbatp127
Rp128
(dp129
g11
S'sent: 4'
p130
sbag0
(g1
g2
(lp131
g0
(g1
g2
(lp132
Vthe little girl
p133
atp134
Rp135
(dp136
g11
S'start: 5'
p137
sbatp138
Rp139
(dp140
g11
S'sent: 7'
p141
sbatp142
Rp143
(dp144
g11
S'id: 21'
p145
sbag0
(g1
g2
(lp146
g0
(g1
g2
(lp147
g0
(g1
g2
(lp148
VThe other people in the crowd , that you can see in the distance
p149
atp150
Rp151
(dp152
g11
S'start: 1'
p153
sbatp154
Rp155
(dp156
g11
S'sent: 6'
p157
sbag0
(g1
g2
(lp158
g0
(g1
g2
(lp159
Vtheir
p160
atp161
Rp162
(dp163
g11
S'start: 8'
p164
sbatp165
Rp166
(dp167
g11
S'sent: 8'
p168
sbatp169
Rp170
(dp171
g11
S'id: 30'
p172
sbag0
(g1
g2
(lp173
g0
(g1
g2
(lp174
g0
(g1
g2
(lp175
Vthe distance
p176
atp177
Rp178
(dp179
g11
S'start: 13'
p180
sbatp181
Rp182
(dp183
g11
S'sent: 6'
p184
sbag0
(g1
g2
(lp185
g0
(g1
g2
(lp186
Vwhich
p187
atp188
Rp189
(dp190
g11
S'start: 26'
p191
sbatp192
Rp193
(dp194
g11
S'sent: 6'
p195
sbatp196
Rp197
(dp198
g11
S'id: 33'
p199
sbag0
(g1
g2
(lp200
g0
(g1
g2
(lp201
g0
(g1
g2
(lp202
VThe mom
p203
atp204
Rp205
(dp206
g11
S'start: 1'
p207
sbatp208
Rp209
(dp210
g11
S'sent: 7'
p211
sbag0
(g1
g2
(lp212
g0
(g1
g2
(lp213
Vshe
p214
atp215
Rp216
(dp217
g11
S'start: 10'
p218
sbatp219
Rp220
(dp221
g11
S'sent: 7'
p222
sbatp223
Rp224
(dp225
g11
S'id: 40'
p226
sbatp227
Rp228
(dp229
g11
S'coreferences'
p230
sb.