ccopy_reg
_reconstructor
p0
(cnltk.tree
Tree
p1
c__builtin__
list
p2
(lp3
g0
(g1
g2
(lp4
g0
(g1
g2
(lp5
g0
(g1
g2
(lp6
g0
(g1
g2
(lp7
g0
(g1
g2
(lp8
g0
(g1
g2
(lp9
Vok
p10
atp11
Rp12
(dp13
S'_label'
p14
VNN
p15
sbatp16
Rp17
(dp18
g14
VNP
p19
sbag0
(g1
g2
(lp20
g0
(g1
g2
(lp21
Vthis
p22
atp23
Rp24
(dp25
g14
VDT
p26
sbatp27
Rp28
(dp29
g14
VNP
p30
sbatp31
Rp32
(dp33
g14
VNP
p34
sbag0
(g1
g2
(lp35
g0
(g1
g2
(lp36
Vis
p37
atp38
Rp39
(dp40
g14
VVBZ
p41
sbag0
(g1
g2
(lp42
g0
(g1
g2
(lp43
Va
p44
atp45
Rp46
(dp47
g14
VDT
p48
sbag0
(g1
g2
(lp49
Vcircus
p50
atp51
Rp52
(dp53
g14
VNN
p54
sbag0
(g1
g2
(lp55
Vpicture
p56
atp57
Rp58
(dp59
g14
VNN
p60
sbatp61
Rp62
(dp63
g14
VNP
p64
sbatp65
Rp66
(dp67
g14
VVP
p68
sbatp69
Rp70
(dp71
g14
VS
p72
sbag0
(g1
g2
(lp73
V,
p74
atp75
Rp76
(dp77
g14
V,
p78
sbag0
(g1
g2
(lp79
Vand
p80
atp81
Rp82
(dp83
g14
VCC
p84
sbag0
(g1
g2
(lp85
g0
(g1
g2
(lp86
g0
(g1
g2
(lp87
Vthere
p88
atp89
Rp90
(dp91
g14
VEX
p92
sbatp93
Rp94
(dp95
g14
VNP
p96
sbag0
(g1
g2
(lp97
g0
(g1
g2
(lp98
Vis
p99
atp100
Rp101
(dp102
g14
VVBZ
p103
sbag0
(g1
g2
(lp104
g0
(g1
g2
(lp105
g0
(g1
g2
(lp106
Va
p107
atp108
Rp109
(dp110
g14
VDT
p111
sbag0
(g1
g2
(lp112
Vguy
p113
atp114
Rp115
(dp116
g14
VNN
p117
sbatp118
Rp119
(dp120
g14
VNP
p121
sbag0
(g1
g2
(lp122
g0
(g1
g2
(lp123
Vwalking
p124
atp125
Rp126
(dp127
g14
VVBG
p128
sbag0
(g1
g2
(lp129
g0
(g1
g2
(lp130
Vthe
p131
atp132
Rp133
(dp134
g14
VDT
p135
sbag0
(g1
g2
(lp136
Vtight
p137
atp138
Rp139
(dp140
g14
VJJ
p141
sbag0
(g1
g2
(lp142
Vrope
p143
atp144
Rp145
(dp146
g14
VNN
p147
sbatp148
Rp149
(dp150
g14
VNP
p151
sbatp152
Rp153
(dp154
g14
VVP
p155
sbatp156
Rp157
(dp158
g14
VNP
p159
sbatp160
Rp161
(dp162
g14
VVP
p163
sbatp164
Rp165
(dp166
g14
VS
p167
sbag0
(g1
g2
(lp168
V.
p169
atp170
Rp171
(dp172
g14
V.
p173
sbatp174
Rp175
(dp176
g14
VS
p177
sbatp178
Rp179
(dp180
g14
S'id: 0'
p181
sbag0
(g1
g2
(lp182
g0
(g1
g2
(lp183
g0
(g1
g2
(lp184
g0
(g1
g2
(lp185
VHe
p186
atp187
Rp188
(dp189
g14
VPRP
p190
sbatp191
Rp192
(dp193
g14
VNP
p194
sbag0
(g1
g2
(lp195
g0
(g1
g2
(lp196
Vhas
p197
atp198
Rp199
(dp200
g14
VVBZ
p201
sbag0
(g1
g2
(lp202
g0
(g1
g2
(lp203
g0
(g1
g2
(lp204
Vthe
p205
atp206
Rp207
(dp208
g14
VDT
p209
sbag0
(g1
g2
(lp210
Vbalance
p211
atp212
Rp213
(dp214
g14
VNN
p215
sbag0
(g1
g2
(lp216
Vbar
p217
atp218
Rp219
(dp220
g14
VNN
p221
sbatp222
Rp223
(dp224
g14
VNP
p225
sbag0
(g1
g2
(lp226
g0
(g1
g2
(lp227
Vwith
p228
atp229
Rp230
(dp231
g14
VIN
p232
sbag0
(g1
g2
(lp233
g0
(g1
g2
(lp234
Vhim
p235
atp236
Rp237
(dp238
g14
VPRP
p239
sbatp240
Rp241
(dp242
g14
VNP
p243
sbatp244
Rp245
(dp246
g14
VPP
p247
sbatp248
Rp249
(dp250
g14
VNP
p251
sbatp252
Rp253
(dp254
g14
VVP
p255
sbag0
(g1
g2
(lp256
V.
p257
atp258
Rp259
(dp260
g14
V.
p261
sbatp262
Rp263
(dp264
g14
VS
p265
sbatp266
Rp267
(dp268
g14
S'id: 1'
p269
sbag0
(g1
g2
(lp270
g0
(g1
g2
(lp271
g0
(g1
g2
(lp272
g0
(g1
g2
(lp273
g0
(g1
g2
(lp274
VThere
p275
atp276
Rp277
(dp278
g14
VEX
p279
sbatp280
Rp281
(dp282
g14
VNP
p283
sbag0
(g1
g2
(lp284
g0
(g1
g2
(lp285
Vare
p286
atp287
Rp288
(dp289
g14
VVBP
p290
sbag0
(g1
g2
(lp291
g0
(g1
g2
(lp292
g0
(g1
g2
(lp293
Vpeople
p294
atp295
Rp296
(dp297
g14
VNNS
p298
sbatp299
Rp300
(dp301
g14
VNP
p302
sbag0
(g1
g2
(lp303
V,
p304
atp305
Rp306
(dp307
g14
V,
p308
sbag0
(g1
g2
(lp309
g0
(g1
g2
(lp310
Vone
p311
atp312
Rp313
(dp314
g14
VCD
p315
sbatp316
Rp317
(dp318
g14
VNP
p319
sbag0
(g1
g2
(lp320
V,
p321
atp322
Rp323
(dp324
g14
V,
p325
sbag0
(g1
g2
(lp326
g0
(g1
g2
(lp327
Vtwo
p328
atp329
Rp330
(dp331
g14
VCD
p332
sbatp333
Rp334
(dp335
g14
VNP
p336
sbag0
(g1
g2
(lp337
V,
p338
atp339
Rp340
(dp341
g14
V,
p342
sbag0
(g1
g2
(lp343
g0
(g1
g2
(lp344
Vthree
p345
atp346
Rp347
(dp348
g14
VCD
p349
sbatp350
Rp351
(dp352
g14
VNP
p353
sbag0
(g1
g2
(lp354
V,
p355
atp356
Rp357
(dp358
g14
V,
p359
sbag0
(g1
g2
(lp360
g0
(g1
g2
(lp361
Vfour
p362
atp363
Rp364
(dp365
g14
VCD
p366
sbatp367
Rp368
(dp369
g14
VNP
p370
sbag0
(g1
g2
(lp371
V,
p372
atp373
Rp374
(dp375
g14
V,
p376
sbag0
(g1
g2
(lp377
g0
(g1
g2
(lp378
Vfive
p379
atp380
Rp381
(dp382
g14
VCD
p383
sbatp384
Rp385
(dp386
g14
VNP
p387
sbatp388
Rp389
(dp390
g14
VNP
p391
sbatp392
Rp393
(dp394
g14
VVP
p395
sbatp396
Rp397
(dp398
g14
VS
p399
sbag0
(g1
g2
(lp400
V,
p401
atp402
Rp403
(dp404
g14
V,
p405
sbag0
(g1
g2
(lp406
g0
(g1
g2
(lp407
Vsix
p408
atp409
Rp410
(dp411
g14
VCD
p412
sbag0
(g1
g2
(lp413
Vpeople
p414
atp415
Rp416
(dp417
g14
VNNS
p418
sbatp419
Rp420
(dp421
g14
VNP
p422
sbag0
(g1
g2
(lp423
g0
(g1
g2
(lp424
Vlook
p425
atp426
Rp427
(dp428
g14
VVBP
p429
sbag0
(g1
g2
(lp430
g0
(g1
g2
(lp431
Vlike
p432
atp433
Rp434
(dp435
g14
VIN
p436
sbag0
(g1
g2
(lp437
g0
(g1
g2
(lp438
g0
(g1
g2
(lp439
Vsitting
p440
atp441
Rp442
(dp443
g14
VVBG
p444
sbag0
(g1
g2
(lp445
g0
(g1
g2
(lp446
Von
p447
atp448
Rp449
(dp450
g14
VIN
p451
sbag0
(g1
g2
(lp452
g0
(g1
g2
(lp453
g0
(g1
g2
(lp454
Va
p455
atp456
Rp457
(dp458
g14
VDT
p459
sbag0
(g1
g2
(lp460
Vbench
p461
atp462
Rp463
(dp464
g14
VNN
p465
sbatp466
Rp467
(dp468
g14
VNP
p469
sbag0
(g1
g2
(lp470
g0
(g1
g2
(lp471
Vwatching
p472
atp473
Rp474
(dp475
g14
VVBG
p476
sbag0
(g1
g2
(lp477
g0
(g1
g2
(lp478
Vhim
p479
atp480
Rp481
(dp482
g14
VPRP
p483
sbatp484
Rp485
(dp486
g14
VNP
p487
sbatp488
Rp489
(dp490
g14
VVP
p491
sbatp492
Rp493
(dp494
g14
VNP
p495
sbatp496
Rp497
(dp498
g14
VPP
p499
sbatp500
Rp501
(dp502
g14
VVP
p503
sbatp504
Rp505
(dp506
g14
VS
p507
sbatp508
Rp509
(dp510
g14
VPP
p511
sbatp512
Rp513
(dp514
g14
VVP
p515
sbag0
(g1
g2
(lp516
V.
p517
atp518
Rp519
(dp520
g14
V.
p521
sbatp522
Rp523
(dp524
g14
VS
p525
sbatp526
Rp527
(dp528
g14
S'id: 2'
p529
sbag0
(g1
g2
(lp530
g0
(g1
g2
(lp531
g0
(g1
g2
(lp532
g0
(g1
g2
(lp533
g0
(g1
g2
(lp534
VThere
p535
atp536
Rp537
(dp538
g14
VEX
p539
sbatp540
Rp541
(dp542
g14
VNP
p543
sbag0
(g1
g2
(lp544
g0
(g1
g2
(lp545
Vis
p546
atp547
Rp548
(dp549
g14
VVBZ
p550
sbag0
(g1
g2
(lp551
g0
(g1
g2
(lp552
g0
(g1
g2
(lp553
Va
p554
atp555
Rp556
(dp557
g14
VDT
p558
sbag0
(g1
g2
(lp559
Vring
p560
atp561
Rp562
(dp563
g14
VNN
p564
sbatp565
Rp566
(dp567
g14
VNP
p568
sbag0
(g1
g2
(lp569
g0
(g1
g2
(lp570
Vwith
p571
atp572
Rp573
(dp574
g14
VIN
p575
sbag0
(g1
g2
(lp576
g0
(g1
g2
(lp577
Va
p578
atp579
Rp580
(dp581
g14
VDT
p582
sbag0
(g1
g2
(lp583
Vhorse
p584
atp585
Rp586
(dp587
g14
VNN
p588
sbatp589
Rp590
(dp591
g14
VNP
p592
sbatp593
Rp594
(dp595
g14
VPP
p596
sbatp597
Rp598
(dp599
g14
VNP
p600
sbatp601
Rp602
(dp603
g14
VVP
p604
sbatp605
Rp606
(dp607
g14
VS
p608
sbag0
(g1
g2
(lp609
V,
p610
atp611
Rp612
(dp613
g14
V,
p614
sbag0
(g1
g2
(lp615
Vand
p616
atp617
Rp618
(dp619
g14
VCC
p620
sbag0
(g1
g2
(lp621
g0
(g1
g2
(lp622
g0
(g1
g2
(lp623
g0
(g1
g2
(lp624
Va
p625
atp626
Rp627
(dp628
g14
VDT
p629
sbag0
(g1
g2
(lp630
Vlady
p631
atp632
Rp633
(dp634
g14
VNN
p635
sbatp636
Rp637
(dp638
g14
VNP
p639
sbag0
(g1
g2
(lp640
g0
(g1
g2
(lp641
Vis
p642
atp643
Rp644
(dp645
g14
VVBZ
p646
sbag0
(g1
g2
(lp647
g0
(g1
g2
(lp648
Vriding
p649
atp650
Rp651
(dp652
g14
VVBG
p653
sbag0
(g1
g2
(lp654
g0
(g1
g2
(lp655
Vbareback
p656
atp657
Rp658
(dp659
g14
VNN
p660
sbatp661
Rp662
(dp663
g14
VNP
p664
sbag0
(g1
g2
(lp665
g0
(g1
g2
(lp666
Von
p667
atp668
Rp669
(dp670
g14
VIN
p671
sbag0
(g1
g2
(lp672
g0
(g1
g2
(lp673
Vthe
p674
atp675
Rp676
(dp677
g14
VDT
p678
sbag0
(g1
g2
(lp679
Vhorse
p680
atp681
Rp682
(dp683
g14
VNN
p684
sbatp685
Rp686
(dp687
g14
VNP
p688
sbatp689
Rp690
(dp691
g14
VPP
p692
sbatp693
Rp694
(dp695
g14
VVP
p696
sbatp697
Rp698
(dp699
g14
VVP
p700
sbatp701
Rp702
(dp703
g14
VS
p704
sbag0
(g1
g2
(lp705
V,
p706
atp707
Rp708
(dp709
g14
V,
p710
sbag0
(g1
g2
(lp711
Vand
p712
atp713
Rp714
(dp715
g14
VCC
p716
sbag0
(g1
g2
(lp717
g0
(g1
g2
(lp718
g0
(g1
g2
(lp719
Vhe
p720
atp721
Rp722
(dp723
g14
VPRP
p724
sbatp725
Rp726
(dp727
g14
VNP
p728
sbag0
(g1
g2
(lp729
g0
(g1
g2
(lp730
V's
p731
atp732
Rp733
(dp734
g14
VVBZ
p735
sbag0
(g1
g2
(lp736
g0
(g1
g2
(lp737
Vgoing
p738
atp739
Rp740
(dp741
g14
VVBG
p742
sbag0
(g1
g2
(lp743
g0
(g1
g2
(lp744
Varound
p745
atp746
Rp747
(dp748
g14
VIN
p749
sbag0
(g1
g2
(lp750
g0
(g1
g2
(lp751
g0
(g1
g2
(lp752
Vthe
p753
atp754
Rp755
(dp756
g14
VDT
p757
sbag0
(g1
g2
(lp758
Vcircle
p759
atp760
Rp761
(dp762
g14
VNN
p763
sbatp764
Rp765
(dp766
g14
VNP
p767
sbag0
(g1
g2
(lp768
g0
(g1
g2
(lp769
Vof
p770
atp771
Rp772
(dp773
g14
VIN
p774
sbag0
(g1
g2
(lp775
g0
(g1
g2
(lp776
Vthe
p777
atp778
Rp779
(dp780
g14
VDT
p781
sbag0
(g1
g2
(lp782
Vring
p783
atp784
Rp785
(dp786
g14
VNN
p787
sbatp788
Rp789
(dp790
g14
VNP
p791
sbatp792
Rp793
(dp794
g14
VPP
p795
sbatp796
Rp797
(dp798
g14
VNP
p799
sbatp800
Rp801
(dp802
g14
VPP
p803
sbatp804
Rp805
(dp806
g14
VVP
p807
sbatp808
Rp809
(dp810
g14
VVP
p811
sbatp812
Rp813
(dp814
g14
VS
p815
sbatp816
Rp817
(dp818
g14
VS
p819
sbag0
(g1
g2
(lp820
V.
p821
atp822
Rp823
(dp824
g14
V.
p825
sbatp826
Rp827
(dp828
g14
VS
p829
sbatp830
Rp831
(dp832
g14
S'id: 3'
p833
sbag0
(g1
g2
(lp834
g0
(g1
g2
(lp835
g0
(g1
g2
(lp836
VAnd
p837
atp838
Rp839
(dp840
g14
VCC
p841
sbag0
(g1
g2
(lp842
g0
(g1
g2
(lp843
g0
(g1
g2
(lp844
Vthere
p845
atp846
Rp847
(dp848
g14
VEX
p849
sbatp850
Rp851
(dp852
g14
VNP
p853
sbag0
(g1
g2
(lp854
g0
(g1
g2
(lp855
Vare
p856
atp857
Rp858
(dp859
g14
VVBP
p860
sbag0
(g1
g2
(lp861
g0
(g1
g2
(lp862
g0
(g1
g2
(lp863
Vsome
p864
atp865
Rp866
(dp867
g14
VDT
p868
sbag0
(g1
g2
(lp869
Vchildren
p870
atp871
Rp872
(dp873
g14
VNNS
p874
sbatp875
Rp876
(dp877
g14
VNP
p878
sbag0
(g1
g2
(lp879
g0
(g1
g2
(lp880
Vwatching
p881
atp882
Rp883
(dp884
g14
VVBG
p885
sbag0
(g1
g2
(lp886
g0
(g1
g2
(lp887
Va
p888
atp889
Rp890
(dp891
g14
VDT
p892
sbag0
(g1
g2
(lp893
Vclown
p894
atp895
Rp896
(dp897
g14
VNN
p898
sbatp899
Rp900
(dp901
g14
VNP
p902
sbatp903
Rp904
(dp905
g14
VVP
p906
sbatp907
Rp908
(dp909
g14
VNP
p910
sbatp911
Rp912
(dp913
g14
VVP
p914
sbatp915
Rp916
(dp917
g14
VS
p918
sbag0
(g1
g2
(lp919
V,
p920
atp921
Rp922
(dp923
g14
V,
p924
sbag0
(g1
g2
(lp925
Vand
p926
atp927
Rp928
(dp929
g14
VCC
p930
sbag0
(g1
g2
(lp931
g0
(g1
g2
(lp932
g0
(g1
g2
(lp933
Vthe
p934
atp935
Rp936
(dp937
g14
VDT
p938
sbag0
(g1
g2
(lp939
Vclown
p940
atp941
Rp942
(dp943
g14
VNN
p944
sbatp945
Rp946
(dp947
g14
VNP
p948
sbag0
(g1
g2
(lp949
g0
(g1
g2
(lp950
Vis
p951
atp952
Rp953
(dp954
g14
VVBZ
p955
sbag0
(g1
g2
(lp956
g0
(g1
g2
(lp957
Vthrowing
p958
atp959
Rp960
(dp961
g14
VVBG
p962
sbag0
(g1
g2
(lp963
g0
(g1
g2
(lp964
g0
(g1
g2
(lp965
Vsomething
p966
atp967
Rp968
(dp969
g14
VNN
p970
sbatp971
Rp972
(dp973
g14
VNP
p974
sbag0
(g1
g2
(lp975
g0
(g1
g2
(lp976
Von
p977
atp978
Rp979
(dp980
g14
VIN
p981
sbag0
(g1
g2
(lp982
g0
(g1
g2
(lp983
Vthem
p984
atp985
Rp986
(dp987
g14
VPRP
p988
sbatp989
Rp990
(dp991
g14
VNP
p992
sbatp993
Rp994
(dp995
g14
VPP
p996
sbag0
(g1
g2
(lp997
g0
(g1
g2
(lp998
g0
(g1
g2
(lp999
Vthat
p1000
atp1001
Rp1002
(dp1003
g14
VIN
p1004
sbatp1005
Rp1006
(dp1007
g14
VWHNP
p1008
sbag0
(g1
g2
(lp1009
g0
(g1
g2
(lp1010
g0
(g1
g2
(lp1011
Vlooks
p1012
atp1013
Rp1014
(dp1015
g14
VVBZ
p1016
sbag0
(g1
g2
(lp1017
g0
(g1
g2
(lp1018
Vlike
p1019
atp1020
Rp1021
(dp1022
g14
VIN
p1023
sbag0
(g1
g2
(lp1024
g0
(g1
g2
(lp1025
g0
(g1
g2
(lp1026
Vit
p1027
atp1028
Rp1029
(dp1030
g14
VPRP
p1031
sbatp1032
Rp1033
(dp1034
g14
VNP
p1035
sbag0
(g1
g2
(lp1036
g0
(g1
g2
(lp1037
Vmight
p1038
atp1039
Rp1040
(dp1041
g14
VMD
p1042
sbag0
(g1
g2
(lp1043
g0
(g1
g2
(lp1044
Vbe
p1045
atp1046
Rp1047
(dp1048
g14
VVB
p1049
sbag0
(g1
g2
(lp1050
g0
(g1
g2
(lp1051
Vpaper
p1052
atp1053
Rp1054
(dp1055
g14
VNN
p1056
sbatp1057
Rp1058
(dp1059
g14
VNP
p1060
sbatp1061
Rp1062
(dp1063
g14
VVP
p1064
sbatp1065
Rp1066
(dp1067
g14
VVP
p1068
sbatp1069
Rp1070
(dp1071
g14
VS
p1072
sbatp1073
Rp1074
(dp1075
g14
VSBAR
p1076
sbatp1077
Rp1078
(dp1079
g14
VVP
p1080
sbatp1081
Rp1082
(dp1083
g14
VS
p1084
sbatp1085
Rp1086
(dp1087
g14
VSBAR
p1088
sbatp1089
Rp1090
(dp1091
g14
VNP
p1092
sbatp1093
Rp1094
(dp1095
g14
VVP
p1096
sbatp1097
Rp1098
(dp1099
g14
VVP
p1100
sbatp1101
Rp1102
(dp1103
g14
VS
p1104
sbag0
(g1
g2
(lp1105
V.
p1106
atp1107
Rp1108
(dp1109
g14
V.
p1110
sbatp1111
Rp1112
(dp1113
g14
VS
p1114
sbatp1115
Rp1116
(dp1117
g14
S'id: 4'
p1118
sbag0
(g1
g2
(lp1119
g0
(g1
g2
(lp1120
g0
(g1
g2
(lp1121
g0
(g1
g2
(lp1122
g0
(g1
g2
(lp1123
VThe
p1124
atp1125
Rp1126
(dp1127
g14
VDT
p1128
sbag0
(g1
g2
(lp1129
Vlittle
p1130
atp1131
Rp1132
(dp1133
g14
VJJ
p1134
sbag0
(g1
g2
(lp1135
Vgirl
p1136
atp1137
Rp1138
(dp1139
g14
VNN
p1140
sbatp1141
Rp1142
(dp1143
g14
VNP
p1144
sbag0
(g1
g2
(lp1145
g0
(g1
g2
(lp1146
Vis
p1147
atp1148
Rp1149
(dp1150
g14
VVBZ
p1151
sbag0
(g1
g2
(lp1152
g0
(g1
g2
(lp1153
Vsmiling
p1154
atp1155
Rp1156
(dp1157
g14
VVBG
p1158
sbatp1159
Rp1160
(dp1161
g14
VVP
p1162
sbatp1163
Rp1164
(dp1165
g14
VVP
p1166
sbatp1167
Rp1168
(dp1169
g14
VS
p1170
sbag0
(g1
g2
(lp1171
V,
p1172
atp1173
Rp1174
(dp1175
g14
V,
p1176
sbag0
(g1
g2
(lp1177
Vand
p1178
atp1179
Rp1180
(dp1181
g14
VCC
p1182
sbag0
(g1
g2
(lp1183
g0
(g1
g2
(lp1184
g0
(g1
g2
(lp1185
Vthe
p1186
atp1187
Rp1188
(dp1189
g14
VDT
p1190
sbag0
(g1
g2
(lp1191
Vlittle
p1192
atp1193
Rp1194
(dp1195
g14
VJJ
p1196
sbag0
(g1
g2
(lp1197
Vboy
p1198
atp1199
Rp1200
(dp1201
g14
VNN
p1202
sbatp1203
Rp1204
(dp1205
g14
VNP
p1206
sbag0
(g1
g2
(lp1207
g0
(g1
g2
(lp1208
Vis
p1209
atp1210
Rp1211
(dp1212
g14
VVBZ
p1213
sbag0
(g1
g2
(lp1214
g0
(g1
g2
(lp1215
Vthrowing
p1216
atp1217
Rp1218
(dp1219
g14
VVBG
p1220
sbag0
(g1
g2
(lp1221
g0
(g1
g2
(lp1222
Vhis
p1223
atp1224
Rp1225
(dp1226
g14
VPRP$
p1227
sbag0
(g1
g2
(lp1228
Vhands
p1229
atp1230
Rp1231
(dp1232
g14
VNNS
p1233
sbatp1234
Rp1235
(dp1236
g14
VNP
p1237
sbag0
(g1
g2
(lp1238
g0
(g1
g2
(lp1239
Vup
p1240
atp1241
Rp1242
(dp1243
g14
VRP
p1244
sbag0
(g1
g2
(lp1245
g0
(g1
g2
(lp1246
g0
(g1
g2
(lp1247
Vthinking
p1248
atp1249
Rp1250
(dp1251
g14
VVBG
p1252
sbag0
(g1
g2
(lp1253
g0
(g1
g2
(lp1254
g0
(g1
g2
(lp1255
g0
(g1
g2
(lp1256
Vit
p1257
atp1258
Rp1259
(dp1260
g14
VPRP
p1261
sbatp1262
Rp1263
(dp1264
g14
VNP
p1265
sbag0
(g1
g2
(lp1266
g0
(g1
g2
(lp1267
V's
p1268
atp1269
Rp1270
(dp1271
g14
VVBZ
p1272
sbag0
(g1
g2
(lp1273
g0
(g1
g2
(lp1274
Vprobably
p1275
atp1276
Rp1277
(dp1278
g14
VRB
p1279
sbatp1280
Rp1281
(dp1282
g14
VADVP
p1283
sbag0
(g1
g2
(lp1284
g0
(g1
g2
(lp1285
Vwater
p1286
atp1287
Rp1288
(dp1289
g14
VNN
p1290
sbatp1291
Rp1292
(dp1293
g14
VNP
p1294
sbatp1295
Rp1296
(dp1297
g14
VVP
p1298
sbatp1299
Rp1300
(dp1301
g14
VS
p1302
sbatp1303
Rp1304
(dp1305
g14
VSBAR
p1306
sbatp1307
Rp1308
(dp1309
g14
VVP
p1310
sbatp1311
Rp1312
(dp1313
g14
VS
p1314
sbatp1315
Rp1316
(dp1317
g14
VPP
p1318
sbatp1319
Rp1320
(dp1321
g14
VVP
p1322
sbatp1323
Rp1324
(dp1325
g14
VVP
p1326
sbatp1327
Rp1328
(dp1329
g14
VS
p1330
sbag0
(g1
g2
(lp1331
V.
p1332
atp1333
Rp1334
(dp1335
g14
V.
p1336
sbatp1337
Rp1338
(dp1339
g14
VS
p1340
sbatp1341
Rp1342
(dp1343
g14
S'id: 5'
p1344
sbag0
(g1
g2
(lp1345
g0
(g1
g2
(lp1346
g0
(g1
g2
(lp1347
g0
(g1
g2
(lp1348
VInside
p1349
atp1350
Rp1351
(dp1352
g14
VIN
p1353
sbatp1354
Rp1355
(dp1356
g14
VPP
p1357
sbag0
(g1
g2
(lp1358
V,
p1359
atp1360
Rp1361
(dp1362
g14
V,
p1363
sbag0
(g1
g2
(lp1364
g0
(g1
g2
(lp1365
g0
(g1
g2
(lp1366
g0
(g1
g2
(lp1367
Vthe
p1368
atp1369
Rp1370
(dp1371
g14
VDT
p1372
sbatp1373
Rp1374
(dp1375
g14
VNP
p1376
sbag0
(g1
g2
(lp1377
V,
p1378
atp1379
Rp1380
(dp1381
g14
V,
p1382
sbag0
(g1
g2
(lp1383
g0
(g1
g2
(lp1384
Vanother
p1385
atp1386
Rp1387
(dp1388
g14
VDT
p1389
sbag0
(g1
g2
(lp1390
Vring
p1391
atp1392
Rp1393
(dp1394
g14
VNN
p1395
sbatp1396
Rp1397
(dp1398
g14
VNP
p1399
sbatp1400
Rp1401
(dp1402
g14
VNP
p1403
sbag0
(g1
g2
(lp1404
g0
(g1
g2
(lp1405
Vis
p1406
atp1407
Rp1408
(dp1409
g14
VVBZ
p1410
sbag0
(g1
g2
(lp1411
g0
(g1
g2
(lp1412
g0
(g1
g2
(lp1413
Vthe
p1414
atp1415
Rp1416
(dp1417
g14
VDT
p1418
sbag0
(g1
g2
(lp1419
Vman
p1420
atp1421
Rp1422
(dp1423
g14
VNN
p1424
sbatp1425
Rp1426
(dp1427
g14
VNP
p1428
sbag0
(g1
g2
(lp1429
g0
(g1
g2
(lp1430
Vdoing
p1431
atp1432
Rp1433
(dp1434
g14
VVBG
p1435
sbag0
(g1
g2
(lp1436
g0
(g1
g2
(lp1437
g0
(g1
g2
(lp1438
Vthe
p1439
atp1440
Rp1441
(dp1442
g14
VDT
p1443
sbag0
(g1
g2
(lp1444
Vlion
p1445
atp1446
Rp1447
(dp1448
g14
VNN
p1449
sbatp1450
Rp1451
(dp1452
g14
VNP
p1453
sbag0
(g1
g2
(lp1454
g0
(g1
g2
(lp1455
Vtaming
p1456
atp1457
Rp1458
(dp1459
g14
VVBG
p1460
sbatp1461
Rp1462
(dp1463
g14
VVP
p1464
sbatp1465
Rp1466
(dp1467
g14
VNP
p1468
sbatp1469
Rp1470
(dp1471
g14
VVP
p1472
sbatp1473
Rp1474
(dp1475
g14
VNP
p1476
sbatp1477
Rp1478
(dp1479
g14
VVP
p1480
sbatp1481
Rp1482
(dp1483
g14
VS
p1484
sbag0
(g1
g2
(lp1485
V,
p1486
atp1487
Rp1488
(dp1489
g14
V,
p1490
sbag0
(g1
g2
(lp1491
Vand
p1492
atp1493
Rp1494
(dp1495
g14
VCC
p1496
sbag0
(g1
g2
(lp1497
g0
(g1
g2
(lp1498
g0
(g1
g2
(lp1499
Vhe
p1500
atp1501
Rp1502
(dp1503
g14
VPRP
p1504
sbatp1505
Rp1506
(dp1507
g14
VNP
p1508
sbag0
(g1
g2
(lp1509
g0
(g1
g2
(lp1510
Vhas
p1511
atp1512
Rp1513
(dp1514
g14
VVBZ
p1515
sbag0
(g1
g2
(lp1516
g0
(g1
g2
(lp1517
g0
(g1
g2
(lp1518
Vthe
p1519
atp1520
Rp1521
(dp1522
g14
VDT
p1523
sbag0
(g1
g2
(lp1524
Vlion
p1525
atp1526
Rp1527
(dp1528
g14
VNN
p1529
sbatp1530
Rp1531
(dp1532
g14
VNP
p1533
sbag0
(g1
g2
(lp1534
g0
(g1
g2
(lp1535
g0
(g1
g2
(lp1536
Vsitting
p1537
atp1538
Rp1539
(dp1540
g14
VVBG
p1541
sbag0
(g1
g2
(lp1542
g0
(g1
g2
(lp1543
Vup
p1544
atp1545
Rp1546
(dp1547
g14
VRP
p1548
sbatp1549
Rp1550
(dp1551
g14
VPRT
p1552
sbatp1553
Rp1554
(dp1555
g14
VVP
p1556
sbag0
(g1
g2
(lp1557
Vand
p1558
atp1559
Rp1560
(dp1561
g14
VCC
p1562
sbag0
(g1
g2
(lp1563
g0
(g1
g2
(lp1564
g0
(g1
g2
(lp1565
Vpossibly
p1566
atp1567
Rp1568
(dp1569
g14
VRB
p1570
sbatp1571
Rp1572
(dp1573
g14
VADVP
p1574
sbag0
(g1
g2
(lp1575
Vwaving
p1576
atp1577
Rp1578
(dp1579
g14
VVBG
p1580
sbatp1581
Rp1582
(dp1583
g14
VVP
p1584
sbatp1585
Rp1586
(dp1587
g14
VVP
p1588
sbatp1589
Rp1590
(dp1591
g14
VNP
p1592
sbatp1593
Rp1594
(dp1595
g14
VVP
p1596
sbatp1597
Rp1598
(dp1599
g14
VS
p1600
sbag0
(g1
g2
(lp1601
V.
p1602
atp1603
Rp1604
(dp1605
g14
V.
p1606
sbatp1607
Rp1608
(dp1609
g14
VS
p1610
sbatp1611
Rp1612
(dp1613
g14
S'id: 6'
p1614
sbag0
(g1
g2
(lp1615
g0
(g1
g2
(lp1616
g0
(g1
g2
(lp1617
VAnd
p1618
atp1619
Rp1620
(dp1621
g14
VCC
p1622
sbag0
(g1
g2
(lp1623
g0
(g1
g2
(lp1624
Vthere
p1625
atp1626
Rp1627
(dp1628
g14
VEX
p1629
sbatp1630
Rp1631
(dp1632
g14
VNP
p1633
sbag0
(g1
g2
(lp1634
g0
(g1
g2
(lp1635
V's
p1636
atp1637
Rp1638
(dp1639
g14
VVBZ
p1640
sbag0
(g1
g2
(lp1641
g0
(g1
g2
(lp1642
g0
(g1
g2
(lp1643
Va
p1644
atp1645
Rp1646
(dp1647
g14
VDT
p1648
sbag0
(g1
g2
(lp1649
Vlittle
p1650
atp1651
Rp1652
(dp1653
g14
VJJ
p1654
sbag0
(g1
g2
(lp1655
Vgirl
p1656
atp1657
Rp1658
(dp1659
g14
VNN
p1660
sbatp1661
Rp1662
(dp1663
g14
VNP
p1664
sbag0
(g1
g2
(lp1665
Vand
p1666
atp1667
Rp1668
(dp1669
g14
VCC
p1670
sbag0
(g1
g2
(lp1671
g0
(g1
g2
(lp1672
g0
(g1
g2
(lp1673
Vher
p1674
atp1675
Rp1676
(dp1677
g14
VPRP$
p1678
sbag0
(g1
g2
(lp1679
Vdad
p1680
atp1681
Rp1682
(dp1683
g14
VNN
p1684
sbatp1685
Rp1686
(dp1687
g14
VNP
p1688
sbag0
(g1
g2
(lp1689
g0
(g1
g2
(lp1690
Vlooking
p1691
atp1692
Rp1693
(dp1694
g14
VVBG
p1695
sbag0
(g1
g2
(lp1696
g0
(g1
g2
(lp1697
Von
p1698
atp1699
Rp1700
(dp1701
g14
VIN
p1702
sbag0
(g1
g2
(lp1703
g0
(g1
g2
(lp1704
Vat
p1705
atp1706
Rp1707
(dp1708
g14
VIN
p1709
sbatp1710
Rp1711
(dp1712
g14
VPP
p1713
sbatp1714
Rp1715
(dp1716
g14
VPP
p1717
sbatp1718
Rp1719
(dp1720
g14
VVP
p1721
sbatp1722
Rp1723
(dp1724
g14
VNP
p1725
sbag0
(g1
g2
(lp1726
V,
p1727
atp1728
Rp1729
(dp1730
g14
V,
p1731
sbag0
(g1
g2
(lp1732
g0
(g1
g2
(lp1733
g0
(g1
g2
(lp1734
g0
(g1
g2
(lp1735
Vlooks
p1736
atp1737
Rp1738
(dp1739
g14
VVBZ
p1740
sbag0
(g1
g2
(lp1741
g0
(g1
g2
(lp1742
Vlike
p1743
atp1744
Rp1745
(dp1746
g14
VIN
p1747
sbag0
(g1
g2
(lp1748
g0
(g1
g2
(lp1749
Veverything
p1750
atp1751
Rp1752
(dp1753
g14
VNN
p1754
sbatp1755
Rp1756
(dp1757
g14
VNP
p1758
sbatp1759
Rp1760
(dp1761
g14
VPP
p1762
sbatp1763
Rp1764
(dp1765
g14
VVP
p1766
sbatp1767
Rp1768
(dp1769
g14
VS
p1770
sbatp1771
Rp1772
(dp1773
g14
VSBAR
p1774
sbatp1775
Rp1776
(dp1777
g14
VNP
p1778
sbatp1779
Rp1780
(dp1781
g14
VVP
p1782
sbag0
(g1
g2
(lp1783
V.
p1784
atp1785
Rp1786
(dp1787
g14
V.
p1788
sbatp1789
Rp1790
(dp1791
g14
VS
p1792
sbatp1793
Rp1794
(dp1795
g14
S'id: 7'
p1796
sbag0
(g1
g2
(lp1797
g0
(g1
g2
(lp1798
g0
(g1
g2
(lp1799
VAnd
p1800
atp1801
Rp1802
(dp1803
g14
VCC
p1804
sbag0
(g1
g2
(lp1805
g0
(g1
g2
(lp1806
Vthe
p1807
atp1808
Rp1809
(dp1810
g14
VDT
p1811
sbag0
(g1
g2
(lp1812
Vwhole
p1813
atp1814
Rp1815
(dp1816
g14
VJJ
p1817
sbag0
(g1
g2
(lp1818
Vcircus
p1819
atp1820
Rp1821
(dp1822
g14
VNN
p1823
sbatp1824
Rp1825
(dp1826
g14
VNP
p1827
sbag0
(g1
g2
(lp1828
g0
(g1
g2
(lp1829
Vseems
p1830
atp1831
Rp1832
(dp1833
g14
VVBZ
p1834
sbag0
(g1
g2
(lp1835
g0
(g1
g2
(lp1836
g0
(g1
g2
(lp1837
Vto
p1838
atp1839
Rp1840
(dp1841
g14
VTO
p1842
sbag0
(g1
g2
(lp1843
g0
(g1
g2
(lp1844
Vbe
p1845
atp1846
Rp1847
(dp1848
g14
VVB
p1849
sbag0
(g1
g2
(lp1850
g0
(g1
g2
(lp1851
Voutside
p1852
atp1853
Rp1854
(dp1855
g14
VJJ
p1856
sbatp1857
Rp1858
(dp1859
g14
VADVP
p1860
sbag0
(g1
g2
(lp1861
V,
p1862
atp1863
Rp1864
(dp1865
g14
V,
p1866
sbag0
(g1
g2
(lp1867
g0
(g1
g2
(lp1868
Vnot
p1869
atp1870
Rp1871
(dp1872
g14
VRB
p1873
sbag0
(g1
g2
(lp1874
g0
(g1
g2
(lp1875
Vinside
p1876
atp1877
Rp1878
(dp1879
g14
VIN
p1880
sbag0
(g1
g2
(lp1881
g0
(g1
g2
(lp1882
Va
p1883
atp1884
Rp1885
(dp1886
g14
VDT
p1887
sbag0
(g1
g2
(lp1888
Vtent
p1889
atp1890
Rp1891
(dp1892
g14
VNN
p1893
sbatp1894
Rp1895
(dp1896
g14
VNP
p1897
sbatp1898
Rp1899
(dp1900
g14
VPP
p1901
sbatp1902
Rp1903
(dp1904
g14
VADVP
p1905
sbatp1906
Rp1907
(dp1908
g14
VVP
p1909
sbatp1910
Rp1911
(dp1912
g14
VVP
p1913
sbatp1914
Rp1915
(dp1916
g14
VS
p1917
sbatp1918
Rp1919
(dp1920
g14
VVP
p1921
sbatp1922
Rp1923
(dp1924
g14
VS
p1925
sbatp1926
Rp1927
(dp1928
g14
S'id: 8'
p1929
sbatp1930
Rp1931
(dp1932
g14
S'sentences'
p1933
sb.