ccopy_reg
_reconstructor
p0
(cnltk.tree
Tree
p1
c__builtin__
list
p2
(lp3
g0
(g1
g2
(lp4
g0
(g1
g2
(lp5
g0
(g1
g2
(lp6
VThat
p7
atp8
Rp9
(dp10
S'_label'
p11
S'start: 1'
p12
sbatp13
Rp14
(dp15
g11
S'sent: 2'
p16
sbag0
(g1
g2
(lp17
g0
(g1
g2
(lp18
Vman , or way big waiting
p19
atp20
Rp21
(dp22
g11
S'start: 3'
p23
sbatp24
Rp25
(dp26
g11
S'sent: 2'
p27
sbatp28
Rp29
(dp30
g11
S'id: 1'
p31
sbag0
(g1
g2
(lp32
g0
(g1
g2
(lp33
g0
(g1
g2
(lp34
Vthe
p35
atp36
Rp37
(dp38
g11
S'start: 5'
p39
sbatp40
Rp41
(dp42
g11
S'sent: 3'
p43
sbag0
(g1
g2
(lp44
g0
(g1
g2
(lp45
Vthe
p46
atp47
Rp48
(dp49
g11
S'start: 4'
p50
sbatp51
Rp52
(dp53
g11
S'sent: 9'
p54
sbag0
(g1
g2
(lp55
g0
(g1
g2
(lp56
Vhor , or the
p57
atp58
Rp59
(dp60
g11
S'start: 9'
p61
sbatp62
Rp63
(dp64
g11
S'sent: 9'
p65
sbag0
(g1
g2
(lp66
g0
(g1
g2
(lp67
Vthe
p68
atp69
Rp70
(dp71
g11
S'start: 12'
p72
sbatp73
Rp74
(dp75
g11
S'sent: 9'
p76
sbatp77
Rp78
(dp79
g11
S'id: 5'
p80
sbag0
(g1
g2
(lp81
g0
(g1
g2
(lp82
g0
(g1
g2
(lp83
Va man
p84
atp85
Rp86
(dp87
g11
S'start: 1'
p88
sbatp89
Rp90
(dp91
g11
S'sent: 4'
p92
sbag0
(g1
g2
(lp93
g0
(g1
g2
(lp94
Va man
p95
atp96
Rp97
(dp98
g11
S'start: 2'
p99
sbatp100
Rp101
(dp102
g11
S'sent: 10'
p103
sbatp104
Rp105
(dp106
g11
S'id: 6'
p107
sbag0
(g1
g2
(lp108
g0
(g1
g2
(lp109
g0
(g1
g2
(lp110
Vthe man
p111
atp112
Rp113
(dp114
g11
S'start: 2'
p115
sbatp116
Rp117
(dp118
g11
S'sent: 5'
p119
sbag0
(g1
g2
(lp120
g0
(g1
g2
(lp121
Vthe arm 's louw
p122
atp123
Rp124
(dp125
g11
S'start: 5'
p126
sbatp127
Rp128
(dp129
g11
S'sent: 5'
p130
sbag0
(g1
g2
(lp131
g0
(g1
g2
(lp132
Vthe man
p133
atp134
Rp135
(dp136
g11
S'start: 6'
p137
sbatp138
Rp139
(dp140
g11
S'sent: 9'
p141
sbatp142
Rp143
(dp144
g11
S'id: 8'
p145
sbag0
(g1
g2
(lp146
g0
(g1
g2
(lp147
g0
(g1
g2
(lp148
Vthe arm 's
p149
atp150
Rp151
(dp152
g11
S'start: 5'
p153
sbatp154
Rp155
(dp156
g11
S'sent: 5'
p157
sbag0
(g1
g2
(lp158
g0
(g1
g2
(lp159
VThe arm 's
p160
atp161
Rp162
(dp163
g11
S'start: 1'
p164
sbatp165
Rp166
(dp167
g11
S'sent: 8'
p168
sbatp169
Rp170
(dp171
g11
S'id: 10'
p172
sbag0
(g1
g2
(lp173
g0
(g1
g2
(lp174
g0
(g1
g2
(lp175
Vgirl , and girl ans , one the yard
p176
atp177
Rp178
(dp179
g11
S'start: 5'
p180
sbatp181
Rp182
(dp183
g11
S'sent: 6'
p184
sbag0
(g1
g2
(lp185
g0
(g1
g2
(lp186
Vthey
p187
atp188
Rp189
(dp190
g11
S'start: 2'
p191
sbatp192
Rp193
(dp194
g11
S'sent: 9'
p195
sbatp196
Rp197
(dp198
g11
S'id: 12'
p199
sbag0
(g1
g2
(lp200
g0
(g1
g2
(lp201
g0
(g1
g2
(lp202
Vthe yard
p203
atp204
Rp205
(dp206
g11
S'start: 12'
p207
sbatp208
Rp209
(dp210
g11
S'sent: 6'
p211
sbag0
(g1
g2
(lp212
g0
(g1
g2
(lp213
Vthe yard
p214
atp215
Rp216
(dp217
g11
S'start: 18'
p218
sbatp219
Rp220
(dp221
g11
S'sent: 9'
p222
sbag0
(g1
g2
(lp223
g0
(g1
g2
(lp224
Vthe yard
p225
atp226
Rp227
(dp228
g11
S'start: 11'
p229
sbatp230
Rp231
(dp232
g11
S'sent: 10'
p233
sbatp234
Rp235
(dp236
g11
S'id: 16'
p237
sbatp238
Rp239
(dp240
g11
S'coreferences'
p241
sb.