ccopy_reg
_reconstructor
p0
(cnltk.tree
Tree
p1
c__builtin__
list
p2
(lp3
g0
(g1
g2
(lp4
g0
(g1
g2
(lp5
g0
(g1
g2
(lp6
Vwe
p7
atp8
Rp9
(dp10
S'_label'
p11
S'start: 1'
p12
sbatp13
Rp14
(dp15
g11
S'sent: 1'
p16
sbag0
(g1
g2
(lp17
g0
(g1
g2
(lp18
Vwe
p19
atp20
Rp21
(dp22
g11
S'start: 12'
p23
sbatp24
Rp25
(dp26
g11
S'sent: 1'
p27
sbatp28
Rp29
(dp30
g11
S'id: 2'
p31
sbag0
(g1
g2
(lp32
g0
(g1
g2
(lp33
g0
(g1
g2
(lp34
Vmom and dad , and two boy , their son and daughter , and dog on a picnic
p35
atp36
Rp37
(dp38
g11
S'start: 17'
p39
sbatp40
Rp41
(dp42
g11
S'sent: 1'
p43
sbag0
(g1
g2
(lp44
g0
(g1
g2
(lp45
Vmom and dad
p46
atp47
Rp48
(dp49
g11
S'start: 17'
p50
sbatp51
Rp52
(dp53
g11
S'sent: 1'
p54
sbag0
(g1
g2
(lp55
g0
(g1
g2
(lp56
Vtheir son and daughter
p57
atp58
Rp59
(dp60
g11
S'start: 25'
p61
sbatp62
Rp63
(dp64
g11
S'sent: 1'
p65
sbag0
(g1
g2
(lp66
g0
(g1
g2
(lp67
Vtheir
p68
atp69
Rp70
(dp71
g11
S'start: 25'
p72
sbatp73
Rp74
(dp75
g11
S'sent: 1'
p76
sbag0
(g1
g2
(lp77
g0
(g1
g2
(lp78
VMom and dad
p79
atp80
Rp81
(dp82
g11
S'start: 1'
p83
sbatp84
Rp85
(dp86
g11
S'sent: 2'
p87
sbag0
(g1
g2
(lp88
g0
(g1
g2
(lp89
Vthem
p90
atp91
Rp92
(dp93
g11
S'start: 30'
p94
sbatp95
Rp96
(dp97
g11
S'sent: 5'
p98
sbag0
(g1
g2
(lp99
g0
(g1
g2
(lp100
Vtheir son
p101
atp102
Rp103
(dp104
g11
S'start: 7'
p105
sbatp106
Rp107
(dp108
g11
S'sent: 7'
p109
sbatp110
Rp111
(dp112
g11
S'id: 8'
p113
sbag0
(g1
g2
(lp114
g0
(g1
g2
(lp115
g0
(g1
g2
(lp116
Vthe beach blanket
p117
atp118
Rp119
(dp120
g11
S'start: 7'
p121
sbatp122
Rp123
(dp124
g11
S'sent: 2'
p125
sbag0
(g1
g2
(lp126
g0
(g1
g2
(lp127
Vthe blanket
p128
atp129
Rp130
(dp131
g11
S'start: 12'
p132
sbatp133
Rp134
(dp135
g11
S'sent: 4'
p136
sbag0
(g1
g2
(lp137
g0
(g1
g2
(lp138
Vthe blanket
p139
atp140
Rp141
(dp142
g11
S'start: 13'
p143
sbatp144
Rp145
(dp146
g11
S'sent: 8'
p147
sbatp148
Rp149
(dp150
g11
S'id: 16'
p151
sbag0
(g1
g2
(lp152
g0
(g1
g2
(lp153
g0
(g1
g2
(lp154
VDad 's cloght
p155
atp156
Rp157
(dp158
g11
S'start: 1'
p159
sbatp160
Rp161
(dp162
g11
S'sent: 3'
p163
sbag0
(g1
g2
(lp164
g0
(g1
g2
(lp165
Vhis
p166
atp167
Rp168
(dp169
g11
S'start: 4'
p170
sbatp171
Rp172
(dp173
g11
S'sent: 3'
p174
sbag0
(g1
g2
(lp175
g0
(g1
g2
(lp176
Vhe
p177
atp178
Rp179
(dp180
g11
S'start: 9'
p181
sbatp182
Rp183
(dp184
g11
S'sent: 3'
p185
sbag0
(g1
g2
(lp186
g0
(g1
g2
(lp187
Vhe
p188
atp189
Rp190
(dp191
g11
S'start: 19'
p192
sbatp193
Rp194
(dp195
g11
S'sent: 3'
p196
sbag0
(g1
g2
(lp197
g0
(g1
g2
(lp198
Vhe
p199
atp200
Rp201
(dp202
g11
S'start: 24'
p203
sbatp204
Rp205
(dp206
g11
S'sent: 3'
p207
sbag0
(g1
g2
(lp208
g0
(g1
g2
(lp209
Vhis
p210
atp211
Rp212
(dp213
g11
S'start: 27'
p214
sbatp215
Rp216
(dp217
g11
S'sent: 3'
p218
sbag0
(g1
g2
(lp219
g0
(g1
g2
(lp220
VHis
p221
atp222
Rp223
(dp224
g11
S'start: 1'
p225
sbatp226
Rp227
(dp228
g11
S'sent: 4'
p229
sbag0
(g1
g2
(lp230
g0
(g1
g2
(lp231
Vhis
p232
atp233
Rp234
(dp235
g11
S'start: 7'
p236
sbatp237
Rp238
(dp239
g11
S'sent: 4'
p240
sbag0
(g1
g2
(lp241
g0
(g1
g2
(lp242
Vhim
p243
atp244
Rp245
(dp246
g11
S'start: 10'
p247
sbatp248
Rp249
(dp250
g11
S'sent: 5'
p251
sbag0
(g1
g2
(lp252
g0
(g1
g2
(lp253
Vhe
p254
atp255
Rp256
(dp257
g11
S'start: 17'
p258
sbatp259
Rp260
(dp261
g11
S'sent: 7'
p262
sbag0
(g1
g2
(lp263
g0
(g1
g2
(lp264
Vhim
p265
atp266
Rp267
(dp268
g11
S'start: 26'
p269
sbatp270
Rp271
(dp272
g11
S'sent: 7'
p273
sbatp274
Rp275
(dp276
g11
S'id: 18'
p277
sbag0
(g1
g2
(lp278
g0
(g1
g2
(lp279
g0
(g1
g2
(lp280
Va book
p281
atp282
Rp283
(dp284
g11
S'start: 12'
p285
sbatp286
Rp287
(dp288
g11
S'sent: 3'
p289
sbag0
(g1
g2
(lp290
g0
(g1
g2
(lp291
Vit
p292
atp293
Rp294
(dp295
g11
S'start: 16'
p296
sbatp297
Rp298
(dp299
g11
S'sent: 3'
p300
sbatp301
Rp302
(dp303
g11
S'id: 23'
p304
sbag0
(g1
g2
(lp305
g0
(g1
g2
(lp306
g0
(g1
g2
(lp307
VHis sandals
p308
atp309
Rp310
(dp311
g11
S'start: 1'
p312
sbatp313
Rp314
(dp315
g11
S'sent: 4'
p316
sbag0
(g1
g2
(lp317
g0
(g1
g2
(lp318
Vthat
p319
atp320
Rp321
(dp322
g11
S'start: 4'
p323
sbatp324
Rp325
(dp326
g11
S'sent: 5'
p327
sbatp328
Rp329
(dp330
g11
S'id: 30'
p331
sbag0
(g1
g2
(lp332
g0
(g1
g2
(lp333
g0
(g1
g2
(lp334
Vfront of that
p335
atp336
Rp337
(dp338
g11
S'start: 2'
p339
sbatp340
Rp341
(dp342
g11
S'sent: 5'
p343
sbag0
(g1
g2
(lp344
g0
(g1
g2
(lp345
Vfront of him
p346
atp347
Rp348
(dp349
g11
S'start: 8'
p350
sbatp351
Rp352
(dp353
g11
S'sent: 5'
p354
sbag0
(g1
g2
(lp355
g0
(g1
g2
(lp356
V's
p357
atp358
Rp359
(dp360
g11
S'start: 2'
p361
sbatp362
Rp363
(dp364
g11
S'sent: 6'
p365
sbatp366
Rp367
(dp368
g11
S'id: 35'
p369
sbag0
(g1
g2
(lp370
g0
(g1
g2
(lp371
g0
(g1
g2
(lp372
Vshe
p373
atp374
Rp375
(dp376
g11
S'start: 18'
p377
sbatp378
Rp379
(dp380
g11
S'sent: 5'
p381
sbag0
(g1
g2
(lp382
g0
(g1
g2
(lp383
Vshe
p384
atp385
Rp386
(dp387
g11
S'start: 33'
p388
sbatp389
Rp390
(dp391
g11
S'sent: 5'
p392
sbatp393
Rp394
(dp395
g11
S'id: 39'
p396
sbag0
(g1
g2
(lp397
g0
(g1
g2
(lp398
g0
(g1
g2
(lp399
Vthe
p400
atp401
Rp402
(dp403
g11
S'start: 5'
p404
sbatp405
Rp406
(dp407
g11
S'sent: 7'
p408
sbag0
(g1
g2
(lp409
g0
(g1
g2
(lp410
Vtheir
p411
atp412
Rp413
(dp414
g11
S'start: 7'
p415
sbatp416
Rp417
(dp418
g11
S'sent: 7'
p419
sbatp420
Rp421
(dp422
g11
S'id: 47'
p423
sbag0
(g1
g2
(lp424
g0
(g1
g2
(lp425
g0
(g1
g2
(lp426
Vthe a , behind the blanket
p427
atp428
Rp429
(dp430
g11
S'start: 9'
p431
sbatp432
Rp433
(dp434
g11
S'sent: 8'
p435
sbag0
(g1
g2
(lp436
g0
(g1
g2
(lp437
Vtheir
p438
atp439
Rp440
(dp441
g11
S'start: 17'
p442
sbatp443
Rp444
(dp445
g11
S'sent: 8'
p446
sbatp447
Rp448
(dp449
g11
S'id: 55'
p450
sbag0
(g1
g2
(lp451
g0
(g1
g2
(lp452
g0
(g1
g2
(lp453
Vthe a
p454
atp455
Rp456
(dp457
g11
S'start: 9'
p458
sbatp459
Rp460
(dp461
g11
S'sent: 8'
p462
sbag0
(g1
g2
(lp463
g0
(g1
g2
(lp464
Vtheir daughter , in the sand , building a sandcastle
p465
atp466
Rp467
(dp468
g11
S'start: 17'
p469
sbatp470
Rp471
(dp472
g11
S'sent: 8'
p473
sbag0
(g1
g2
(lp474
g0
(g1
g2
(lp475
Vtheir daughter
p476
atp477
Rp478
(dp479
g11
S'start: 17'
p480
sbatp481
Rp482
(dp483
g11
S'sent: 8'
p484
sbag0
(g1
g2
(lp485
g0
(g1
g2
(lp486
Vshe
p487
atp488
Rp489
(dp490
g11
S'start: 2'
p491
sbatp492
Rp493
(dp494
g11
S'sent: 9'
p495
sbag0
(g1
g2
(lp496
g0
(g1
g2
(lp497
Vher
p498
atp499
Rp500
(dp501
g11
S'start: 11'
p502
sbatp503
Rp504
(dp505
g11
S'sent: 9'
p506
sbag0
(g1
g2
(lp507
g0
(g1
g2
(lp508
Va
p509
atp510
Rp511
(dp512
g11
S'start: 5'
p513
sbatp514
Rp515
(dp516
g11
S'sent: 13'
p517
sbatp518
Rp519
(dp520
g11
S'id: 56'
p521
sbag0
(g1
g2
(lp522
g0
(g1
g2
(lp523
g0
(g1
g2
(lp524
Va sandcastle
p525
atp526
Rp527
(dp528
g11
S'start: 25'
p529
sbatp530
Rp531
(dp532
g11
S'sent: 8'
p533
sbag0
(g1
g2
(lp534
g0
(g1
g2
(lp535
Vthe sandcastle
p536
atp537
Rp538
(dp539
g11
S'start: 13'
p540
sbatp541
Rp542
(dp543
g11
S'sent: 9'
p544
sbatp545
Rp546
(dp547
g11
S'id: 62'
p548
sbag0
(g1
g2
(lp549
g0
(g1
g2
(lp550
g0
(g1
g2
(lp551
Vthe girl
p552
atp553
Rp554
(dp555
g11
S'start: 5'
p556
sbatp557
Rp558
(dp559
g11
S'sent: 10'
p560
sbag0
(g1
g2
(lp561
g0
(g1
g2
(lp562
Vthe girl
p563
atp564
Rp565
(dp566
g11
S'start: 4'
p567
sbatp568
Rp569
(dp570
g11
S'sent: 11'
p571
sbatp572
Rp573
(dp574
g11
S'id: 71'
p575
sbag0
(g1
g2
(lp576
g0
(g1
g2
(lp577
g0
(g1
g2
(lp578
Va sailboat
p579
atp580
Rp581
(dp582
g11
S'start: 16'
p583
sbatp584
Rp585
(dp586
g11
S'sent: 10'
p587
sbag0
(g1
g2
(lp588
g0
(g1
g2
(lp589
Vnumber four seventy
p590
atp591
Rp592
(dp593
g11
S'start: 19'
p594
sbatp595
Rp596
(dp597
g11
S'sent: 10'
p598
sbatp599
Rp600
(dp601
g11
S'id: 75'
p602
sbag0
(g1
g2
(lp603
g0
(g1
g2
(lp604
g0
(g1
g2
(lp605
Va dock
p606
atp607
Rp608
(dp609
g11
S'start: 8'
p610
sbatp611
Rp612
(dp613
g11
S'sent: 11'
p614
sbag0
(g1
g2
(lp615
g0
(g1
g2
(lp616
Vthat dock
p617
atp618
Rp619
(dp620
g11
S'start: 7'
p621
sbatp622
Rp623
(dp624
g11
S'sent: 12'
p625
sbatp626
Rp627
(dp628
g11
S'id: 82'
p629
sbag0
(g1
g2
(lp630
g0
(g1
g2
(lp631
g0
(g1
g2
(lp632
Va man on that dock
p633
atp634
Rp635
(dp636
g11
S'start: 4'
p637
sbatp638
Rp639
(dp640
g11
S'sent: 12'
p641
sbag0
(g1
g2
(lp642
g0
(g1
g2
(lp643
Vhe
p644
atp645
Rp646
(dp647
g11
S'start: 15'
p648
sbatp649
Rp650
(dp651
g11
S'sent: 12'
p652
sbag0
(g1
g2
(lp653
g0
(g1
g2
(lp654
Vhe
p655
atp656
Rp657
(dp658
g11
S'start: 22'
p659
sbatp660
Rp661
(dp662
g11
S'sent: 12'
p663
sbag0
(g1
g2
(lp664
g0
(g1
g2
(lp665
Vhe
p666
atp667
Rp668
(dp669
g11
S'start: 2'
p670
sbatp671
Rp672
(dp673
g11
S'sent: 13'
p674
sbatp675
Rp676
(dp677
g11
S'id: 83'
p678
sbatp679
Rp680
(dp681
g11
S'coreferences'
p682
sb.