ccopy_reg
_reconstructor
p0
(cnltk.tree
Tree
p1
c__builtin__
list
p2
(lp3
g0
(g1
g2
(lp4
g0
(g1
g2
(lp5
g0
(g1
g2
(lp6
VThe boy
p7
atp8
Rp9
(dp10
S'_label'
p11
S'start: 1'
p12
sbatp13
Rp14
(dp15
g11
S'sent: 1'
p16
sbag0
(g1
g2
(lp17
g0
(g1
g2
(lp18
Vthe boy 's
p19
atp20
Rp21
(dp22
g11
S'start: 4'
p23
sbatp24
Rp25
(dp26
g11
S'sent: 1'
p27
sbag0
(g1
g2
(lp28
g0
(g1
g2
(lp29
Vhe
p30
atp31
Rp32
(dp33
g11
S'start: 15'
p34
sbatp35
Rp36
(dp37
g11
S'sent: 1'
p38
sbag0
(g1
g2
(lp39
g0
(g1
g2
(lp40
Vhe
p41
atp42
Rp43
(dp44
g11
S'start: 17'
p45
sbatp46
Rp47
(dp48
g11
S'sent: 1'
p49
sbag0
(g1
g2
(lp50
g0
(g1
g2
(lp51
Vhe
p52
atp53
Rp54
(dp55
g11
S'start: 19'
p56
sbatp57
Rp58
(dp59
g11
S'sent: 1'
p60
sbag0
(g1
g2
(lp61
g0
(g1
g2
(lp62
Vhe
p63
atp64
Rp65
(dp66
g11
S'start: 31'
p67
sbatp68
Rp69
(dp70
g11
S'sent: 1'
p71
sbag0
(g1
g2
(lp72
g0
(g1
g2
(lp73
Vhim , him
p74
atp75
Rp76
(dp77
g11
S'start: 6'
p78
sbatp79
Rp80
(dp81
g11
S'sent: 2'
p82
sbag0
(g1
g2
(lp83
g0
(g1
g2
(lp84
Vhim
p85
atp86
Rp87
(dp88
g11
S'start: 6'
p89
sbatp90
Rp91
(dp92
g11
S'sent: 2'
p93
sbag0
(g1
g2
(lp94
g0
(g1
g2
(lp95
Vhim
p96
atp97
Rp98
(dp99
g11
S'start: 8'
p100
sbatp101
Rp102
(dp103
g11
S'sent: 2'
p104
sbag0
(g1
g2
(lp105
g0
(g1
g2
(lp106
Vthe boy
p107
atp108
Rp109
(dp110
g11
S'start: 20'
p111
sbatp112
Rp113
(dp114
g11
S'sent: 12'
p115
sbatp116
Rp117
(dp118
g11
S'id: 4'
p119
sbag0
(g1
g2
(lp120
g0
(g1
g2
(lp121
g0
(g1
g2
(lp122
Vthe boy 's raiding the cooking jar
p123
atp124
Rp125
(dp126
g11
S'start: 4'
p127
sbatp128
Rp129
(dp130
g11
S'sent: 1'
p131
sbag0
(g1
g2
(lp132
g0
(g1
g2
(lp133
Vit
p134
atp135
Rp136
(dp137
g11
S'start: 33'
p138
sbatp139
Rp140
(dp141
g11
S'sent: 1'
p142
sbag0
(g1
g2
(lp143
g0
(g1
g2
(lp144
Vit
p145
atp146
Rp147
(dp148
g11
S'start: 35'
p149
sbatp150
Rp151
(dp152
g11
S'sent: 1'
p153
sbatp154
Rp155
(dp156
g11
S'id: 5'
p157
sbag0
(g1
g2
(lp158
g0
(g1
g2
(lp159
g0
(g1
g2
(lp160
Va stool
p161
atp162
Rp163
(dp164
g11
S'start: 23'
p165
sbatp166
Rp167
(dp168
g11
S'sent: 1'
p169
sbag0
(g1
g2
(lp170
g0
(g1
g2
(lp171
Va stool
p172
atp173
Rp174
(dp175
g11
S'start: 27'
p176
sbatp177
Rp178
(dp179
g11
S'sent: 1'
p180
sbatp181
Rp182
(dp183
g11
S'id: 11'
p184
sbag0
(g1
g2
(lp185
g0
(g1
g2
(lp186
g0
(g1
g2
(lp187
Vthe girl
p188
atp189
Rp190
(dp191
g11
S'start: 2'
p192
sbatp193
Rp194
(dp195
g11
S'sent: 2'
p196
sbag0
(g1
g2
(lp197
g0
(g1
g2
(lp198
Vshe
p199
atp200
Rp201
(dp202
g11
S'start: 15'
p203
sbatp204
Rp205
(dp206
g11
S'sent: 2'
p207
sbag0
(g1
g2
(lp208
g0
(g1
g2
(lp209
Vthe girl
p210
atp211
Rp212
(dp213
g11
S'start: 3'
p214
sbatp215
Rp216
(dp217
g11
S'sent: 12'
p218
sbag0
(g1
g2
(lp219
g0
(g1
g2
(lp220
Vthe girl
p221
atp222
Rp223
(dp224
g11
S'start: 10'
p225
sbatp226
Rp227
(dp228
g11
S'sent: 12'
p229
sbag0
(g1
g2
(lp230
g0
(g1
g2
(lp231
Vthe girl
p232
atp233
Rp234
(dp235
g11
S'start: 3'
p236
sbatp237
Rp238
(dp239
g11
S'sent: 13'
p240
sbag0
(g1
g2
(lp241
g0
(g1
g2
(lp242
Vno I
p243
atp244
Rp245
(dp246
g11
S'start: 9'
p247
sbatp248
Rp249
(dp250
g11
S'sent: 13'
p251
sbatp252
Rp253
(dp254
g11
S'id: 17'
p255
sbag0
(g1
g2
(lp256
g0
(g1
g2
(lp257
g0
(g1
g2
(lp258
VOk
p259
atp260
Rp261
(dp262
g11
S'start: 1'
p263
sbatp264
Rp265
(dp266
g11
S'sent: 3'
p267
sbag0
(g1
g2
(lp268
g0
(g1
g2
(lp269
Vthe sink 's overflowing
p270
atp271
Rp272
(dp273
g11
S'start: 9'
p274
sbatp275
Rp276
(dp277
g11
S'sent: 3'
p278
sbag0
(g1
g2
(lp279
g0
(g1
g2
(lp280
Vthe sink 's overflowing
p281
atp282
Rp283
(dp284
g11
S'start: 14'
p285
sbatp286
Rp287
(dp288
g11
S'sent: 3'
p289
sbag0
(g1
g2
(lp290
g0
(g1
g2
(lp291
VOk
p292
atp293
Rp294
(dp295
g11
S'start: 1'
p296
sbatp297
Rp298
(dp299
g11
S'sent: 4'
p300
sbag0
(g1
g2
(lp301
g0
(g1
g2
(lp302
VOk
p303
atp304
Rp305
(dp306
g11
S'start: 1'
p307
sbatp308
Rp309
(dp310
g11
S'sent: 13'
p311
sbag0
(g1
g2
(lp312
g0
(g1
g2
(lp313
Vit
p314
atp315
Rp316
(dp317
g11
S'start: 15'
p318
sbatp319
Rp320
(dp321
g11
S'sent: 13'
p322
sbatp323
Rp324
(dp325
g11
S'id: 29'
p326
sbag0
(g1
g2
(lp327
g0
(g1
g2
(lp328
g0
(g1
g2
(lp329
Vthe curtians
p330
atp331
Rp332
(dp333
g11
S'start: 4'
p334
sbatp335
Rp336
(dp337
g11
S'sent: 4'
p338
sbag0
(g1
g2
(lp339
g0
(g1
g2
(lp340
Vthey
p341
atp342
Rp343
(dp344
g11
S'start: 10'
p345
sbatp346
Rp347
(dp348
g11
S'sent: 4'
p349
sbatp350
Rp351
(dp352
g11
S'id: 33'
p353
sbag0
(g1
g2
(lp354
g0
(g1
g2
(lp355
g0
(g1
g2
(lp356
VNo
p357
atp358
Rp359
(dp360
g11
S'start: 1'
p361
sbatp362
Rp363
(dp364
g11
S'sent: 8'
p365
sbag0
(g1
g2
(lp366
g0
(g1
g2
(lp367
VThe cookie jar , no .
p368
atp369
Rp370
(dp371
g11
S'start: 1'
p372
sbatp373
Rp374
(dp375
g11
S'sent: 9'
p376
sbag0
(g1
g2
(lp377
g0
(g1
g2
(lp378
VThe cookie jar
p379
atp380
Rp381
(dp382
g11
S'start: 1'
p383
sbatp384
Rp385
(dp386
g11
S'sent: 9'
p387
sbag0
(g1
g2
(lp388
g0
(g1
g2
(lp389
Vno
p390
atp391
Rp392
(dp393
g11
S'start: 5'
p394
sbatp395
Rp396
(dp397
g11
S'sent: 9'
p398
sbag0
(g1
g2
(lp399
g0
(g1
g2
(lp400
VThe cookie jar
p401
atp402
Rp403
(dp404
g11
S'start: 1'
p405
sbatp406
Rp407
(dp408
g11
S'sent: 10'
p409
sbag0
(g1
g2
(lp410
g0
(g1
g2
(lp411
Vit
p412
atp413
Rp414
(dp415
g11
S'start: 10'
p416
sbatp417
Rp418
(dp419
g11
S'sent: 10'
p420
sbag0
(g1
g2
(lp421
g0
(g1
g2
(lp422
Vthe cookie jar
p423
atp424
Rp425
(dp426
g11
S'start: 13'
p427
sbatp428
Rp429
(dp430
g11
S'sent: 10'
p431
sbag0
(g1
g2
(lp432
g0
(g1
g2
(lp433
Vit
p434
atp435
Rp436
(dp437
g11
S'start: 17'
p438
sbatp439
Rp440
(dp441
g11
S'sent: 10'
p442
sbatp443
Rp444
(dp445
g11
S'id: 36'
p446
sbag0
(g1
g2
(lp447
g0
(g1
g2
(lp448
g0
(g1
g2
(lp449
Va skirt
p450
atp451
Rp452
(dp453
g11
S'start: 7'
p454
sbatp455
Rp456
(dp457
g11
S'sent: 12'
p458
sbag0
(g1
g2
(lp459
g0
(g1
g2
(lp460
Va
p461
atp462
Rp463
(dp464
g11
S'start: 24'
p465
sbatp466
Rp467
(dp468
g11
S'sent: 12'
p469
sbag0
(g1
g2
(lp470
g0
(g1
g2
(lp471
Va
p472
atp473
Rp474
(dp475
g11
S'start: 29'
p476
sbatp477
Rp478
(dp479
g11
S'sent: 12'
p480
sbag0
(g1
g2
(lp481
g0
(g1
g2
(lp482
Va
p483
atp484
Rp485
(dp486
g11
S'start: 35'
p487
sbatp488
Rp489
(dp490
g11
S'sent: 12'
p491
sbatp492
Rp493
(dp494
g11
S'id: 53'
p495
sbag0
(g1
g2
(lp496
g0
(g1
g2
(lp497
g0
(g1
g2
(lp498
Va , a shirt and a
p499
atp500
Rp501
(dp502
g11
S'start: 24'
p503
sbatp504
Rp505
(dp506
g11
S'sent: 12'
p507
sbag0
(g1
g2
(lp508
g0
(g1
g2
(lp509
Va , and a , two shoes
p510
atp511
Rp512
(dp513
g11
S'start: 32'
p514
sbatp515
Rp516
(dp517
g11
S'sent: 12'
p518
sbatp519
Rp520
(dp521
g11
S'id: 58'
p522
sbatp523
Rp524
(dp525
g11
S'coreferences'
p526
sb.