ccopy_reg
_reconstructor
p0
(cnltk.tree
Tree
p1
c__builtin__
list
p2
(lp3
g0
(g1
g2
(lp4
g0
(g1
g2
(lp5
g0
(g1
g2
(lp6
(lp7
S'word: there, index: 1'
p8
aatp9
Rp10
(dp11
S'_label'
p12
Vexpl
p13
sbag0
(g1
g2
(lp14
g0
(g1
g2
(lp15
g0
(g1
g2
(lp16
(lp17
S'word: a, index: 3'
p18
aatp19
Rp20
(dp21
g12
Vdet
p22
sbag0
(g1
g2
(lp23
g0
(g1
g2
(lp24
g0
(g1
g2
(lp25
g0
(g1
g2
(lp26
g0
(g1
g2
(lp27
(lp28
S'word: a, index: 6'
p29
aatp30
Rp31
(dp32
g12
Vdet
p33
sbatp34
Rp35
(dp36
g12
S'word: kite, index: 7'
p37
sbatp38
Rp39
(dp40
g12
Vdobj
p41
sbag0
(g1
g2
(lp42
g0
(g1
g2
(lp43
g0
(g1
g2
(lp44
(lp45
S'word: a, index: 9'
p46
aatp47
Rp48
(dp49
g12
Vdet
p50
sbatp51
Rp52
(dp53
g12
S'word: dog, index: 10'
p54
sbatp55
Rp56
(dp57
g12
Vprep
p58
sbatp59
Rp60
(dp61
g12
S'word: flying, index: 5'
p62
sbatp63
Rp64
(dp65
g12
Vvmod
p66
sbatp67
Rp68
(dp69
g12
S'word: boy, index: 4'
p70
sbatp71
Rp72
(dp73
g12
Vnsubj
p74
sbatp75
Rp76
(dp77
g12
S"word: 's, index: 2"
p78
sbatp79
Rp80
(dp81
g12
S'id: 0'
p82
sbag0
(g1
g2
(lp83
g0
(g1
g2
(lp84
g0
(g1
g2
(lp85
g0
(g1
g2
(lp86
g0
(g1
g2
(lp87
(lp88
S'word: a, index: 3'
p89
aatp90
Rp91
(dp92
g12
Vdet
p93
sbag0
(g1
g2
(lp94
(lp95
S'word: man, index: 4'
p96
aatp97
Rp98
(dp99
g12
Vnn
p100
sbag0
(g1
g2
(lp101
g0
(g1
g2
(lp102
g0
(g1
g2
(lp103
(lp104
S'word: his, index: 7'
p105
aatp106
Rp107
(dp108
g12
Vposs
p109
sbatp110
Rp111
(dp112
g12
S'word: shoes, index: 8'
p113
sbatp114
Rp115
(dp116
g12
Vprep
p117
sbatp118
Rp119
(dp120
g12
S'word: reading, index: 5'
p121
sbatp122
Rp123
(dp124
g12
Vnsubj
p125
sbag0
(g1
g2
(lp126
(lp127
S'word: off, index: 9'
p128
aatp129
Rp130
(dp131
g12
Vadvmod
p132
sbag0
(g1
g2
(lp133
(lp134
S'word: There, index: 1'
p135
aatp136
Rp137
(dp138
g12
Vexpl
p139
sbatp140
Rp141
(dp142
g12
S"word: 's, index: 2"
p143
sbatp144
Rp145
(dp146
g12
S'id: 1'
p147
sbag0
(g1
g2
(lp148
g0
(g1
g2
(lp149
g0
(g1
g2
(lp150
(lp151
S'word: There, index: 1'
p152
aatp153
Rp154
(dp155
g12
Vexpl
p156
sbag0
(g1
g2
(lp157
g0
(g1
g2
(lp158
g0
(g1
g2
(lp159
(lp160
S'word: a, index: 3'
p161
aatp162
Rp163
(dp164
g12
Vdet
p165
sbag0
(g1
g2
(lp166
g0
(g1
g2
(lp167
g0
(g1
g2
(lp168
g0
(g1
g2
(lp169
g0
(g1
g2
(lp170
(lp171
S'word: a, index: 6'
p172
aatp173
Rp174
(dp175
g12
Vdet
p176
sbatp177
Rp178
(dp179
g12
S'word: drink, index: 7'
p180
sbatp181
Rp182
(dp183
g12
Vdobj
p184
sbag0
(g1
g2
(lp185
g0
(g1
g2
(lp186
g0
(g1
g2
(lp187
g0
(g1
g2
(lp188
g0
(g1
g2
(lp189
(lp190
S'word: the, index: 11'
p191
aatp192
Rp193
(dp194
g12
Vdet
p195
sbatp196
Rp197
(dp198
g12
S'word: radio, index: 12'
p199
sbatp200
Rp201
(dp202
g12
Vprep
p203
sbatp204
Rp205
(dp206
g12
S'word: listening, index: 9'
p207
sbatp208
Rp209
(dp210
g12
Vvmod
p211
sbatp212
Rp213
(dp214
g12
S'word: pouring, index: 5'
p215
sbatp216
Rp217
(dp218
g12
Vvmod
p219
sbatp220
Rp221
(dp222
g12
S'word: woman, index: 4'
p223
sbatp224
Rp225
(dp226
g12
Vnsubj
p227
sbatp228
Rp229
(dp230
g12
S"word: 's, index: 2"
p231
sbatp232
Rp233
(dp234
g12
S'id: 2'
p235
sbag0
(g1
g2
(lp236
g0
(g1
g2
(lp237
g0
(g1
g2
(lp238
(lp239
S'word: There, index: 1'
p240
aatp241
Rp242
(dp243
g12
Vexpl
p244
sbag0
(g1
g2
(lp245
g0
(g1
g2
(lp246
g0
(g1
g2
(lp247
(lp248
S'word: a, index: 3'
p249
aatp250
Rp251
(dp252
g12
Vdet
p253
sbag0
(g1
g2
(lp254
g0
(g1
g2
(lp255
g0
(g1
g2
(lp256
g0
(g1
g2
(lp257
g0
(g1
g2
(lp258
(lp259
S'word: a, index: 6'
p260
aatp261
Rp262
(dp263
g12
Vdet
p264
sbatp265
Rp266
(dp267
g12
S'word: sandcastle, index: 7'
p268
sbatp269
Rp270
(dp271
g12
Vdobj
p272
sbatp273
Rp274
(dp275
g12
S'word: making, index: 5'
p276
sbatp277
Rp278
(dp279
g12
Vvmod
p280
sbatp281
Rp282
(dp283
g12
S'word: girl, index: 4'
p284
sbatp285
Rp286
(dp287
g12
Vnsubj
p288
sbatp289
Rp290
(dp291
g12
S"word: 's, index: 2"
p292
sbatp293
Rp294
(dp295
g12
S'id: 3'
p296
sbag0
(g1
g2
(lp297
g0
(g1
g2
(lp298
g0
(g1
g2
(lp299
(lp300
S'word: There, index: 1'
p301
aatp302
Rp303
(dp304
g12
Vexpl
p305
sbag0
(g1
g2
(lp306
g0
(g1
g2
(lp307
g0
(g1
g2
(lp308
(lp309
S'word: a, index: 3'
p310
aatp311
Rp312
(dp313
g12
Vdet
p314
sbag0
(g1
g2
(lp315
(lp316
S'word: man, index: 4'
p317
aatp318
Rp319
(dp320
g12
Vnn
p321
sbatp322
Rp323
(dp324
g12
S'word: fishing, index: 5'
p325
sbatp326
Rp327
(dp328
g12
Vnsubj
p329
sbatp330
Rp331
(dp332
g12
S"word: 's, index: 2"
p333
sbatp334
Rp335
(dp336
g12
S'id: 4'
p337
sbag0
(g1
g2
(lp338
g0
(g1
g2
(lp339
g0
(g1
g2
(lp340
(lp341
S'word: There, index: 1'
p342
aatp343
Rp344
(dp345
g12
Vexpl
p346
sbag0
(g1
g2
(lp347
g0
(g1
g2
(lp348
g0
(g1
g2
(lp349
(lp350
S'word: two, index: 3'
p351
aatp352
Rp353
(dp354
g12
Vnum
p355
sbag0
(g1
g2
(lp356
g0
(g1
g2
(lp357
g0
(g1
g2
(lp358
(lp359
S'word: a, index: 6'
p360
aatp361
Rp362
(dp363
g12
Vdet
p364
sbatp365
Rp366
(dp367
g12
S'word: boat, index: 7'
p368
sbatp369
Rp370
(dp371
g12
Vprep
p372
sbatp373
Rp374
(dp375
g12
S'word: people, index: 4'
p376
sbatp377
Rp378
(dp379
g12
Vnsubj
p380
sbatp381
Rp382
(dp383
g12
S"word: 's, index: 2"
p384
sbatp385
Rp386
(dp387
g12
S'id: 5'
p388
sbag0
(g1
g2
(lp389
g0
(g1
g2
(lp390
g0
(g1
g2
(lp391
g0
(g1
g2
(lp392
g0
(g1
g2
(lp393
(lp394
S'word: a, index: 3'
p395
aatp396
Rp397
(dp398
g12
Vdet
p399
sbatp400
Rp401
(dp402
g12
S'word: flag, index: 4'
p403
sbatp404
Rp405
(dp406
g12
Vnsubj
p407
sbag0
(g1
g2
(lp408
(lp409
S'word: There, index: 1'
p410
aatp411
Rp412
(dp413
g12
Vexpl
p414
sbatp415
Rp416
(dp417
g12
S"word: 's, index: 2"
p418
sbatp419
Rp420
(dp421
g12
S'id: 6'
p422
sbag0
(g1
g2
(lp423
g0
(g1
g2
(lp424
g0
(g1
g2
(lp425
g0
(g1
g2
(lp426
g0
(g1
g2
(lp427
(lp428
S'word: a, index: 12'
p429
aatp430
Rp431
(dp432
g12
Vdet
p433
sbatp434
Rp435
(dp436
g12
S'word: tree, index: 13'
p437
sbatp438
Rp439
(dp440
g12
Vprep
p441
sbag0
(g1
g2
(lp442
(lp443
S'word: There, index: 1'
p444
aatp445
Rp446
(dp447
g12
Vexpl
p448
sbag0
(g1
g2
(lp449
g0
(g1
g2
(lp450
g0
(g1
g2
(lp451
g0
(g1
g2
(lp452
g0
(g1
g2
(lp453
(lp454
S'word: a, index: 8'
p455
aatp456
Rp457
(dp458
g12
Vdet
p459
sbatp460
Rp461
(dp462
g12
S'word: house, index: 9'
p463
sbatp464
Rp465
(dp466
g12
Vprep
p467
sbag0
(g1
g2
(lp468
(lp469
S'word: a, index: 3'
p470
aatp471
Rp472
(dp473
g12
Vdet
p474
sbatp475
Rp476
(dp477
g12
S'word: car, index: 4'
p478
sbatp479
Rp480
(dp481
g12
Vnsubj
p482
sbatp483
Rp484
(dp485
g12
S"word: 's, index: 2"
p486
sbatp487
Rp488
(dp489
g12
S'id: 7'
p490
sbag0
(g1
g2
(lp491
g0
(g1
g2
(lp492
g0
(g1
g2
(lp493
(lp494
S'word: The, index: 1'
p495
aatp496
Rp497
(dp498
g12
Vdet
p499
sbag0
(g1
g2
(lp500
(lp501
S'word: man, index: 4'
p502
aatp503
Rp504
(dp505
g12
Vconj
p506
sbag0
(g1
g2
(lp507
g0
(g1
g2
(lp508
g0
(g1
g2
(lp509
(lp510
S'word: a, index: 6'
p511
aatp512
Rp513
(dp514
g12
Vdet
p515
sbatp516
Rp517
(dp518
g12
S'word: blanket, index: 7'
p519
sbatp520
Rp521
(dp522
g12
Vprep
p523
sbatp524
Rp525
(dp526
g12
S'word: woman, index: 2'
p527
sbatp528
Rp529
(dp530
g12
S'id: 8'
p531
sbag0
(g1
g2
(lp532
g0
(g1
g2
(lp533
g0
(g1
g2
(lp534
g0
(g1
g2
(lp535
g0
(g1
g2
(lp536
(lp537
S'word: She, index: 1'
p538
aatp539
Rp540
(dp541
g12
Vnsubj
p542
sbag0
(g1
g2
(lp543
(lp544
S'word: shorts, index: 4'
p545
aatp546
Rp547
(dp548
g12
Vprep
p549
sbatp550
Rp551
(dp552
g12
S"word: 's, index: 2"
p553
sbatp554
Rp555
(dp556
g12
Vccomp
p557
sbag0
(g1
g2
(lp558
(lp559
S'word: he, index: 6'
p560
aatp561
Rp562
(dp563
g12
Vnsubj
p564
sbag0
(g1
g2
(lp565
g0
(g1
g2
(lp566
g0
(g1
g2
(lp567
(lp568
S'word: long, index: 9'
p569
aatp570
Rp571
(dp572
g12
Vamod
p573
sbatp574
Rp575
(dp576
g12
S'word: pants, index: 10'
p577
sbatp578
Rp579
(dp580
g12
Vprep
p581
sbatp582
Rp583
(dp584
g12
S"word: 's, index: 7"
p585
sbatp586
Rp587
(dp588
g12
S'id: 9'
p589
sbag0
(g1
g2
(lp590
g0
(g1
g2
(lp591
g0
(g1
g2
(lp592
g0
(g1
g2
(lp593
g0
(g1
g2
(lp594
(lp595
S'word: Man, index: 1'
p596
aatp597
Rp598
(dp599
g12
Vnn
p600
sbatp601
Rp602
(dp603
g12
S'word: fishing, index: 2'
p604
sbatp605
Rp606
(dp607
g12
Vnsubj
p608
sbag0
(g1
g2
(lp609
(lp610
S'word: has, index: 3'
p611
aatp612
Rp613
(dp614
g12
Vaux
p615
sbag0
(g1
g2
(lp616
g0
(g1
g2
(lp617
g0
(g1
g2
(lp618
(lp619
S'word: a, index: 5'
p620
aatp621
Rp622
(dp623
g12
Vdet
p624
sbatp625
Rp626
(dp627
g12
S'word: fish, index: 6'
p628
sbatp629
Rp630
(dp631
g12
Vdobj
p632
sbatp633
Rp634
(dp635
g12
S'word: caught, index: 4'
p636
sbatp637
Rp638
(dp639
g12
S'id: 10'
p640
sbag0
(g1
g2
(lp641
g0
(g1
g2
(lp642
g0
(g1
g2
(lp643
(lp644
S'word: There, index: 1'
p645
aatp646
Rp647
(dp648
g12
Vexpl
p649
sbag0
(g1
g2
(lp650
(lp651
S'word: bushes, index: 3'
p652
aatp653
Rp654
(dp655
g12
Vnsubj
p656
sbag0
(g1
g2
(lp657
(lp658
S'word: around, index: 4'
p659
aatp660
Rp661
(dp662
g12
Vadvmod
p663
sbatp664
Rp665
(dp666
g12
S"word: 's, index: 2"
p667
sbatp668
Rp669
(dp670
g12
S'id: 11'
p671
sbag0
(g1
g2
(lp672
g0
(g1
g2
(lp673
g0
(g1
g2
(lp674
g0
(g1
g2
(lp675
g0
(g1
g2
(lp676
g0
(g1
g2
(lp677
g0
(g1
g2
(lp678
(lp679
S'word: the, index: 6'
p680
aatp681
Rp682
(dp683
g12
Vdet
p684
sbatp685
Rp686
(dp687
g12
S'word: blanket, index: 7'
p688
sbatp689
Rp690
(dp691
g12
Vprep
p692
sbag0
(g1
g2
(lp693
(lp694
S'word: a, index: 3'
p695
aatp696
Rp697
(dp698
g12
Vdet
p699
sbatp700
Rp701
(dp702
g12
S'word: radio, index: 4'
p703
sbatp704
Rp705
(dp706
g12
Vnsubj
p707
sbag0
(g1
g2
(lp708
(lp709
S'word: There, index: 1'
p710
aatp711
Rp712
(dp713
g12
Vexpl
p714
sbatp715
Rp716
(dp717
g12
S"word: 's, index: 2"
p718
sbatp719
Rp720
(dp721
g12
S'id: 12'
p722
sbag0
(g1
g2
(lp723
g0
(g1
g2
(lp724
g0
(g1
g2
(lp725
(lp726
S'word: front, index: 3'
p727
aatp728
Rp729
(dp730
g12
Vprep
p731
sbag0
(g1
g2
(lp732
g0
(g1
g2
(lp733
g0
(g1
g2
(lp734
(lp735
S'word: the, index: 5'
p736
aatp737
Rp738
(dp739
g12
Vdet
p740
sbatp741
Rp742
(dp743
g12
S'word: house, index: 6'
p744
sbatp745
Rp746
(dp747
g12
Vprep
p748
sbatp749
Rp750
(dp751
g12
S'word: Bushes, index: 1'
p752
sbatp753
Rp754
(dp755
g12
S'id: 13'
p756
sbag0
(g1
g2
(lp757
g0
(g1
g2
(lp758
g0
(g1
g2
(lp759
(lp760
S'word: There, index: 1'
p761
aatp762
Rp763
(dp764
g12
Vexpl
p765
sbag0
(g1
g2
(lp766
g0
(g1
g2
(lp767
g0
(g1
g2
(lp768
(lp769
S'word: two, index: 3'
p770
aatp771
Rp772
(dp773
g12
Vnum
p774
sbag0
(g1
g2
(lp775
g0
(g1
g2
(lp776
g0
(g1
g2
(lp777
(lp778
S'word: a, index: 6'
p779
aatp780
Rp781
(dp782
g12
Vdet
p783
sbatp784
Rp785
(dp786
g12
S'word: door, index: 7'
p787
sbatp788
Rp789
(dp790
g12
Vappos
p791
sbatp792
Rp793
(dp794
g12
S'word: windows, index: 4'
p795
sbatp796
Rp797
(dp798
g12
Vnsubj
p799
sbatp800
Rp801
(dp802
g12
S"word: 's, index: 2"
p803
sbatp804
Rp805
(dp806
g12
S'id: 14'
p807
sbag0
(g1
g2
(lp808
g0
(g1
g2
(lp809
g0
(g1
g2
(lp810
g0
(g1
g2
(lp811
g0
(g1
g2
(lp812
(lp813
S'word: shorts, index: 3'
p814
aatp815
Rp816
(dp817
g12
Vdobj
p818
sbatp819
Rp820
(dp821
g12
S'word: wearing, index: 2'
p822
sbatp823
Rp824
(dp825
g12
Vvmod
p826
sbatp827
Rp828
(dp829
g12
S'word: Boys, index: 1'
p830
sbatp831
Rp832
(dp833
g12
S'id: 15'
p834
sbag0
(g1
g2
(lp835
g0
(g1
g2
(lp836
g0
(g1
g2
(lp837
(lp838
S'word: There, index: 1'
p839
aatp840
Rp841
(dp842
g12
Vexpl
p843
sbag0
(g1
g2
(lp844
g0
(g1
g2
(lp845
g0
(g1
g2
(lp846
(lp847
S'word: a, index: 3'
p848
aatp849
Rp850
(dp851
g12
Vdet
p852
sbag0
(g1
g2
(lp853
g0
(g1
g2
(lp854
g0
(g1
g2
(lp855
(lp856
S'word: the, index: 6'
p857
aatp858
Rp859
(dp860
g12
Vdet
p861
sbatp862
Rp863
(dp864
g12
S'word: kite, index: 7'
p865
sbatp866
Rp867
(dp868
g12
Vprep
p869
sbatp870
Rp871
(dp872
g12
S'word: tail, index: 4'
p873
sbatp874
Rp875
(dp876
g12
Vnsubj
p877
sbatp878
Rp879
(dp880
g12
S"word: 's, index: 2"
p881
sbatp882
Rp883
(dp884
g12
S'id: 16'
p885
sbag0
(g1
g2
(lp886
g0
(g1
g2
(lp887
g0
(g1
g2
(lp888
g0
(g1
g2
(lp889
g0
(g1
g2
(lp890
(lp891
S'word: The, index: 1'
p892
aatp893
Rp894
(dp895
g12
Vdet
p896
sbatp897
Rp898
(dp899
g12
S'word: boat, index: 2'
p900
sbatp901
Rp902
(dp903
g12
Vnsubj
p904
sbatp905
Rp906
(dp907
g12
S'word: is, index: 3'
p908
sbatp909
Rp910
(dp911
g12
S'id: 17'
p912
sbatp913
Rp914
(dp915
g12
S'sentences'
p916
sb.