ccopy_reg
_reconstructor
p0
(cnltk.tree
Tree
p1
c__builtin__
list
p2
(lp3
g0
(g1
g2
(lp4
g0
(g1
g2
(lp5
g0
(g1
g2
(lp6
g0
(g1
g2
(lp7
Vwell
p8
atp9
Rp10
(dp11
S'_label'
p12
VRB
p13
sbatp14
Rp15
(dp16
g12
VADVP
p17
sbag0
(g1
g2
(lp18
V.
p19
atp20
Rp21
(dp22
g12
V.
p23
sbatp24
Rp25
(dp26
g12
VFRAG
p27
sbatp28
Rp29
(dp30
g12
S'id: 0'
p31
sbag0
(g1
g2
(lp32
g0
(g1
g2
(lp33
g0
(g1
g2
(lp34
g0
(g1
g2
(lp35
VTotally
p36
atp37
Rp38
(dp39
g12
VRB
p40
sbatp41
Rp42
(dp43
g12
VADVP
p44
sbag0
(g1
g2
(lp45
V,
p46
atp47
Rp48
(dp49
g12
V,
p50
sbag0
(g1
g2
(lp51
g0
(g1
g2
(lp52
g0
(g1
g2
(lp53
Vlion
p54
atp55
Rp56
(dp57
g12
VNN
p58
sbatp59
Rp60
(dp61
g12
VNP
p62
sbag0
(g1
g2
(lp63
V,
p64
atp65
Rp66
(dp67
g12
V,
p68
sbag0
(g1
g2
(lp69
Vand
p70
atp71
Rp72
(dp73
g12
VCC
p74
sbag0
(g1
g2
(lp75
g0
(g1
g2
(lp76
Vthe
p77
atp78
Rp79
(dp80
g12
VDT
p81
sbag0
(g1
g2
(lp82
Vman
p83
atp84
Rp85
(dp86
g12
VNN
p87
sbatp88
Rp89
(dp90
g12
VNP
p91
sbatp92
Rp93
(dp94
g12
VNP
p95
sbag0
(g1
g2
(lp96
g0
(g1
g2
(lp97
Vis
p98
atp99
Rp100
(dp101
g12
VVBZ
p102
sbatp103
Rp104
(dp105
g12
VVP
p106
sbag0
(g1
g2
(lp107
V.
p108
atp109
Rp110
(dp111
g12
V.
p112
sbatp113
Rp114
(dp115
g12
VS
p116
sbatp117
Rp118
(dp119
g12
S'id: 1'
p120
sbag0
(g1
g2
(lp121
g0
(g1
g2
(lp122
g0
(g1
g2
(lp123
g0
(g1
g2
(lp124
VThe
p125
atp126
Rp127
(dp128
g12
VDT
p129
sbag0
(g1
g2
(lp130
Vman
p131
atp132
Rp133
(dp134
g12
VNN
p135
sbatp136
Rp137
(dp138
g12
VNP
p139
sbag0
(g1
g2
(lp140
g0
(g1
g2
(lp141
Vis
p142
atp143
Rp144
(dp145
g12
VVBZ
p146
sbag0
(g1
g2
(lp147
g0
(g1
g2
(lp148
Vthe
p149
atp150
Rp151
(dp152
g12
VDT
p153
sbag0
(g1
g2
(lp154
Vbleeding
p155
atp156
Rp157
(dp158
g12
VNN
p159
sbatp160
Rp161
(dp162
g12
VNP
p163
sbatp164
Rp165
(dp166
g12
VVP
p167
sbag0
(g1
g2
(lp168
V.
p169
atp170
Rp171
(dp172
g12
V.
p173
sbatp174
Rp175
(dp176
g12
VS
p177
sbatp178
Rp179
(dp180
g12
S'id: 2'
p181
sbag0
(g1
g2
(lp182
g0
(g1
g2
(lp183
g0
(g1
g2
(lp184
g0
(g1
g2
(lp185
g0
(g1
g2
(lp186
VIt
p187
atp188
Rp189
(dp190
g12
VPRP
p191
sbatp192
Rp193
(dp194
g12
VNP
p195
sbag0
(g1
g2
(lp196
g0
(g1
g2
(lp197
Vso
p198
atp199
Rp200
(dp201
g12
VRB
p202
sbatp203
Rp204
(dp205
g12
VADVP
p206
sbatp207
Rp208
(dp209
g12
VS
p210
sbag0
(g1
g2
(lp211
V,
p212
atp213
Rp214
(dp215
g12
V,
p216
sbag0
(g1
g2
(lp217
g0
(g1
g2
(lp218
g0
(g1
g2
(lp219
Vcorp
p220
atp221
Rp222
(dp223
g12
VNN
p224
sbatp225
Rp226
(dp227
g12
VNP
p228
sbag0
(g1
g2
(lp229
V,
p230
atp231
Rp232
(dp233
g12
V,
p234
sbag0
(g1
g2
(lp235
g0
(g1
g2
(lp236
g0
(g1
g2
(lp237
Vcor
p238
atp239
Rp240
(dp241
g12
VNN
p242
sbatp243
Rp244
(dp245
g12
VNP
p246
sbag0
(g1
g2
(lp247
V,
p248
atp249
Rp250
(dp251
g12
V,
p252
sbag0
(g1
g2
(lp253
g0
(g1
g2
(lp254
Vthe
p255
atp256
Rp257
(dp258
g12
VDT
p259
sbag0
(g1
g2
(lp260
Vman
p261
atp262
Rp263
(dp264
g12
VNN
p265
sbatp266
Rp267
(dp268
g12
VNP
p269
sbatp270
Rp271
(dp272
g12
VNP
p273
sbatp274
Rp275
(dp276
g12
VNP
p277
sbag0
(g1
g2
(lp278
g0
(g1
g2
(lp279
Vcrawls
p280
atp281
Rp282
(dp283
g12
VVBZ
p284
sbag0
(g1
g2
(lp285
g0
(g1
g2
(lp286
Vspee
p287
atp288
Rp289
(dp290
g12
VIN
p291
sbag0
(g1
g2
(lp292
g0
(g1
g2
(lp293
Vthe
p294
atp295
Rp296
(dp297
g12
VDT
p298
sbag0
(g1
g2
(lp299
Vbigit
p300
atp301
Rp302
(dp303
g12
VNN
p304
sbatp305
Rp306
(dp307
g12
VNP
p308
sbatp309
Rp310
(dp311
g12
VPP
p312
sbatp313
Rp314
(dp315
g12
VVP
p316
sbag0
(g1
g2
(lp317
V.
p318
atp319
Rp320
(dp321
g12
V.
p322
sbatp323
Rp324
(dp325
g12
VS
p326
sbatp327
Rp328
(dp329
g12
S'id: 3'
p330
sbag0
(g1
g2
(lp331
g0
(g1
g2
(lp332
g0
(g1
g2
(lp333
g0
(g1
g2
(lp334
g0
(g1
g2
(lp335
VI
p336
atp337
Rp338
(dp339
g12
VPRP
p340
sbatp341
Rp342
(dp343
g12
VNP
p344
sbag0
(g1
g2
(lp345
g0
(g1
g2
(lp346
Vsaw
p347
atp348
Rp349
(dp350
g12
VVBD
p351
sbag0
(g1
g2
(lp352
g0
(g1
g2
(lp353
Va
p354
atp355
Rp356
(dp357
g12
VDT
p358
sbag0
(g1
g2
(lp359
Vman
p360
atp361
Rp362
(dp363
g12
VNN
p364
sbag0
(g1
g2
(lp365
Vand
p366
atp367
Rp368
(dp369
g12
VCC
p370
sbag0
(g1
g2
(lp371
Vgirl
p372
atp373
Rp374
(dp375
g12
VNN
p376
sbatp377
Rp378
(dp379
g12
VNP
p380
sbatp381
Rp382
(dp383
g12
VVP
p384
sbatp385
Rp386
(dp387
g12
VS
p388
sbag0
(g1
g2
(lp389
V,
p390
atp391
Rp392
(dp393
g12
V,
p394
sbag0
(g1
g2
(lp395
Vand
p396
atp397
Rp398
(dp399
g12
VCC
p400
sbag0
(g1
g2
(lp401
g0
(g1
g2
(lp402
g0
(g1
g2
(lp403
Vthe
p404
atp405
Rp406
(dp407
g12
VDT
p408
sbag0
(g1
g2
(lp409
Vman
p410
atp411
Rp412
(dp413
g12
VNN
p414
sbatp415
Rp416
(dp417
g12
VNP
p418
sbag0
(g1
g2
(lp419
g0
(g1
g2
(lp420
Vis
p421
atp422
Rp423
(dp424
g12
VVBZ
p425
sbag0
(g1
g2
(lp426
g0
(g1
g2
(lp427
g0
(g1
g2
(lp428
Vthere
p429
atp430
Rp431
(dp432
g12
VEX
p433
sbatp434
Rp435
(dp436
g12
VNP
p437
sbag0
(g1
g2
(lp438
g0
(g1
g2
(lp439
Vdrinking
p440
atp441
Rp442
(dp443
g12
VVBG
p444
sbag0
(g1
g2
(lp445
g0
(g1
g2
(lp446
Vhornt
p447
atp448
Rp449
(dp450
g12
VNN
p451
sbatp452
Rp453
(dp454
g12
VNP
p455
sbatp456
Rp457
(dp458
g12
VVP
p459
sbatp460
Rp461
(dp462
g12
VS
p463
sbatp464
Rp465
(dp466
g12
VVP
p467
sbatp468
Rp469
(dp470
g12
VS
p471
sbag0
(g1
g2
(lp472
V.
p473
atp474
Rp475
(dp476
g12
V.
p477
sbatp478
Rp479
(dp480
g12
VS
p481
sbatp482
Rp483
(dp484
g12
S'id: 4'
p485
sbag0
(g1
g2
(lp486
g0
(g1
g2
(lp487
g0
(g1
g2
(lp488
VAnd
p489
atp490
Rp491
(dp492
g12
VCC
p493
sbag0
(g1
g2
(lp494
g0
(g1
g2
(lp495
VI
p496
atp497
Rp498
(dp499
g12
VPRP
p500
sbatp501
Rp502
(dp503
g12
VNP
p504
sbag0
(g1
g2
(lp505
g0
(g1
g2
(lp506
Vthaw
p507
atp508
Rp509
(dp510
g12
VNN
p511
sbag0
(g1
g2
(lp512
g0
(g1
g2
(lp513
g0
(g1
g2
(lp514
g0
(g1
g2
(lp515
g0
(g1
g2
(lp516
Vman
p517
atp518
Rp519
(dp520
g12
VNN
p521
sbag0
(g1
g2
(lp522
Vand
p523
atp524
Rp525
(dp526
g12
VCC
p527
sbag0
(g1
g2
(lp528
Vgirl
p529
atp530
Rp531
(dp532
g12
VNN
p533
sbatp534
Rp535
(dp536
g12
VNP
p537
sbag0
(g1
g2
(lp538
Vand
p539
atp540
Rp541
(dp542
g12
VCC
p543
sbag0
(g1
g2
(lp544
g0
(g1
g2
(lp545
Va
p546
atp547
Rp548
(dp549
g12
VDT
p550
sbag0
(g1
g2
(lp551
Vblack
p552
atp553
Rp554
(dp555
g12
VJJ
p556
sbag0
(g1
g2
(lp557
V,
p558
atp559
Rp560
(dp561
g12
V,
p562
sbag0
(g1
g2
(lp563
Vtherry
p564
atp565
Rp566
(dp567
g12
VJJ
p568
sbag0
(g1
g2
(lp569
Vberry
p570
atp571
Rp572
(dp573
g12
VNN
p574
sbag0
(g1
g2
(lp575
Vgary
p576
atp577
Rp578
(dp579
g12
VNN
p580
sbatp581
Rp582
(dp583
g12
VNP
p584
sbatp585
Rp586
(dp587
g12
VNP
p588
sbag0
(g1
g2
(lp589
g0
(g1
g2
(lp590
Vis
p591
atp592
Rp593
(dp594
g12
VVBZ
p595
sbag0
(g1
g2
(lp596
g0
(g1
g2
(lp597
Vgood
p598
atp599
Rp600
(dp601
g12
VJJ
p602
sbatp603
Rp604
(dp605
g12
VADJP
p606
sbatp607
Rp608
(dp609
g12
VVP
p610
sbatp611
Rp612
(dp613
g12
VS
p614
sbatp615
Rp616
(dp617
g12
VSBAR
p618
sbatp619
Rp620
(dp621
g12
VVP
p622
sbag0
(g1
g2
(lp623
V.
p624
atp625
Rp626
(dp627
g12
V.
p628
sbatp629
Rp630
(dp631
g12
VS
p632
sbatp633
Rp634
(dp635
g12
S'id: 5'
p636
sbag0
(g1
g2
(lp637
g0
(g1
g2
(lp638
g0
(g1
g2
(lp639
VAnd
p640
atp641
Rp642
(dp643
g12
VCC
p644
sbag0
(g1
g2
(lp645
g0
(g1
g2
(lp646
Vman
p647
atp648
Rp649
(dp650
g12
VNN
p651
sbatp652
Rp653
(dp654
g12
VNP
p655
sbag0
(g1
g2
(lp656
g0
(g1
g2
(lp657
Vis
p658
atp659
Rp660
(dp661
g12
VVBZ
p662
sbag0
(g1
g2
(lp663
g0
(g1
g2
(lp664
Vdrinking
p665
atp666
Rp667
(dp668
g12
VVBG
p669
sbag0
(g1
g2
(lp670
g0
(g1
g2
(lp671
Vthe
p672
atp673
Rp674
(dp675
g12
VDT
p676
sbag0
(g1
g2
(lp677
Vshowder
p678
atp679
Rp680
(dp681
g12
VNN
p682
sbatp683
Rp684
(dp685
g12
VNP
p686
sbatp687
Rp688
(dp689
g12
VVP
p690
sbatp691
Rp692
(dp693
g12
VVP
p694
sbag0
(g1
g2
(lp695
V.
p696
atp697
Rp698
(dp699
g12
V.
p700
sbatp701
Rp702
(dp703
g12
VS
p704
sbatp705
Rp706
(dp707
g12
S'id: 6'
p708
sbag0
(g1
g2
(lp709
g0
(g1
g2
(lp710
g0
(g1
g2
(lp711
g0
(g1
g2
(lp712
g0
(g1
g2
(lp713
VClown
p714
atp715
Rp716
(dp717
g12
VNNP
p718
sbatp719
Rp720
(dp721
g12
VNP
p722
sbag0
(g1
g2
(lp723
Vand
p724
atp725
Rp726
(dp727
g12
VCC
p728
sbag0
(g1
g2
(lp729
g0
(g1
g2
(lp730
Vsomebody
p731
atp732
Rp733
(dp734
g12
VNN
p735
sbatp736
Rp737
(dp738
g12
VNP
p739
sbatp740
Rp741
(dp742
g12
VNP
p743
sbag0
(g1
g2
(lp744
g0
(g1
g2
(lp745
Vis
p746
atp747
Rp748
(dp749
g12
VVBZ
p750
sbag0
(g1
g2
(lp751
g0
(g1
g2
(lp752
Vdrinking
p753
atp754
Rp755
(dp756
g12
VVBG
p757
sbatp758
Rp759
(dp760
g12
VVP
p761
sbatp762
Rp763
(dp764
g12
VVP
p765
sbag0
(g1
g2
(lp766
V.
p767
atp768
Rp769
(dp770
g12
V.
p771
sbatp772
Rp773
(dp774
g12
VS
p775
sbatp776
Rp777
(dp778
g12
S'id: 7'
p779
sbag0
(g1
g2
(lp780
g0
(g1
g2
(lp781
g0
(g1
g2
(lp782
g0
(g1
g2
(lp783
VThey
p784
atp785
Rp786
(dp787
g12
VPRP
p788
sbatp789
Rp790
(dp791
g12
VNP
p792
sbag0
(g1
g2
(lp793
V,
p794
atp795
Rp796
(dp797
g12
V,
p798
sbag0
(g1
g2
(lp799
g0
(g1
g2
(lp800
g0
(g1
g2
(lp801
Vman
p802
atp803
Rp804
(dp805
g12
VNN
p806
sbatp807
Rp808
(dp809
g12
VNP
p810
sbag0
(g1
g2
(lp811
V,
p812
atp813
Rp814
(dp815
g12
V,
p816
sbag0
(g1
g2
(lp817
g0
(g1
g2
(lp818
Vgirl
p819
atp820
Rp821
(dp822
g12
VNN
p823
sbatp824
Rp825
(dp826
g12
VNP
p827
sbag0
(g1
g2
(lp828
V,
p829
atp830
Rp831
(dp832
g12
V,
p833
sbag0
(g1
g2
(lp834
g0
(g1
g2
(lp835
Vboy
p836
atp837
Rp838
(dp839
g12
VNN
p840
sbatp841
Rp842
(dp843
g12
VNP
p844
sbag0
(g1
g2
(lp845
V,
p846
atp847
Rp848
(dp849
g12
V,
p850
sbag0
(g1
g2
(lp851
g0
(g1
g2
(lp852
Vthe
p853
atp854
Rp855
(dp856
g12
VDT
p857
sbag0
(g1
g2
(lp858
Vgirl
p859
atp860
Rp861
(dp862
g12
VNN
p863
sbatp864
Rp865
(dp866
g12
VNP
p867
sbag0
(g1
g2
(lp868
Vand
p869
atp870
Rp871
(dp872
g12
VCC
p873
sbag0
(g1
g2
(lp874
g0
(g1
g2
(lp875
Vanother
p876
atp877
Rp878
(dp879
g12
VDT
p880
sbag0
(g1
g2
(lp881
Vone
p882
atp883
Rp884
(dp885
g12
VCD
p886
sbatp887
Rp888
(dp889
g12
VNP
p890
sbatp891
Rp892
(dp893
g12
VNP
p894
sbag0
(g1
g2
(lp895
g0
(g1
g2
(lp896
Vis
p897
atp898
Rp899
(dp900
g12
VVBZ
p901
sbag0
(g1
g2
(lp902
g0
(g1
g2
(lp903
Vlaughing
p904
atp905
Rp906
(dp907
g12
VVBG
p908
sbag0
(g1
g2
(lp909
V,
p910
atp911
Rp912
(dp913
g12
V,
p914
sbag0
(g1
g2
(lp915
g0
(g1
g2
(lp916
Vbut
p917
atp918
Rp919
(dp920
g12
VCC
p921
sbatp922
Rp923
(dp924
g12
VADVP
p925
sbatp926
Rp927
(dp928
g12
VVP
p929
sbatp930
Rp931
(dp932
g12
VVP
p933
sbatp934
Rp935
(dp936
g12
VS
p937
sbatp938
Rp939
(dp940
g12
S'id: 8'
p941
sbatp942
Rp943
(dp944
g12
S'sentences'
p945
sb.