ccopy_reg
_reconstructor
p0
(cnltk.tree
Tree
p1
c__builtin__
list
p2
(lp3
g0
(g1
g2
(lp4
g0
(g1
g2
(lp5
g0
(g1
g2
(lp6
(lp7
S'word: All, index: 1'
p8
aatp9
Rp10
(dp11
S'_label'
p12
Vdet
p13
sbatp14
Rp15
(dp16
g12
S'word: right, index: 2'
p17
sbatp18
Rp19
(dp20
g12
S'id: 0'
p21
sbag0
(g1
g2
(lp22
g0
(g1
g2
(lp23
g0
(g1
g2
(lp24
g0
(g1
g2
(lp25
g0
(g1
g2
(lp26
g0
(g1
g2
(lp27
g0
(g1
g2
(lp28
(lp29
S'word: the, index: 20'
p30
aatp31
Rp32
(dp33
g12
Vdet
p34
sbag0
(g1
g2
(lp35
(lp36
S'word: flow, index: 23'
p37
aatp38
Rp39
(dp40
g12
Vprep
p41
sbatp42
Rp43
(dp44
g12
S'word: sink, index: 21'
p45
sbatp46
Rp47
(dp48
g12
Vdobj
p49
sbag0
(g1
g2
(lp50
g0
(g1
g2
(lp51
g0
(g1
g2
(lp52
(lp53
S'word: she, index: 36'
p54
aatp55
Rp56
(dp57
g12
Vnsubj
p58
sbag0
(g1
g2
(lp59
(lp60
S'word: does, index: 37'
p61
aatp62
Rp63
(dp64
g12
Vaux
p65
sbag0
(g1
g2
(lp66
(lp67
S"word: n't, index: 38"
p68
aatp69
Rp70
(dp71
g12
Vneg
p72
sbag0
(g1
g2
(lp73
g0
(g1
g2
(lp74
g0
(g1
g2
(lp75
(lp76
S'word: to, index: 40'
p77
aatp78
Rp79
(dp80
g12
Vaux
p81
sbag0
(g1
g2
(lp82
(lp83
S'word: be, index: 41'
p84
aatp85
Rp86
(dp87
g12
Vcop
p88
sbag0
(g1
g2
(lp89
(lp90
S'word: too, index: 42'
p91
aatp92
Rp93
(dp94
g12
Vadvmod
p95
sbatp96
Rp97
(dp98
g12
S'word: concerned, index: 43'
p99
sbatp100
Rp101
(dp102
g12
Vxcomp
p103
sbatp104
Rp105
(dp106
g12
S'word: seem, index: 39'
p107
sbatp108
Rp109
(dp110
g12
Vconj
p111
sbag0
(g1
g2
(lp112
g0
(g1
g2
(lp113
g0
(g1
g2
(lp114
g105
atp115
Rp116
(dp117
g12
Vconj
p118
sbag0
(g1
g2
(lp119
(lp120
S'word: it, index: 26'
p121
aatp122
Rp123
(dp124
g12
Vnsubj
p125
sbag0
(g1
g2
(lp126
(lp127
S"word: 's, index: 27"
p128
aatp129
Rp130
(dp131
g12
Vaux
p132
sbag0
(g1
g2
(lp133
g0
(g1
g2
(lp134
g0
(g1
g2
(lp135
g0
(g1
g2
(lp136
g0
(g1
g2
(lp137
(lp138
S'word: her, index: 29'
p139
aatp140
Rp141
(dp142
g12
Vposs
p143
sbag0
(g1
g2
(lp144
(lp145
S'word: nice, index: 30'
p146
aatp147
Rp148
(dp149
g12
Vamod
p150
sbatp151
Rp152
(dp153
g12
S'word: shoes, index: 31'
p154
sbatp155
Rp156
(dp157
g12
Vnsubj
p158
sbag0
(g1
g2
(lp159
(lp160
S'word: all, index: 32'
p161
aatp162
Rp163
(dp164
g12
Vdet
p165
sbatp166
Rp167
(dp168
g12
S'word: wet, index: 33'
p169
sbatp170
Rp171
(dp172
g12
Vxcomp
p173
sbatp174
Rp175
(dp176
g12
S'word: getting, index: 28'
p177
sbatp178
Rp179
(dp180
g12
Vconj
p181
sbag0
(g1
g2
(lp182
(lp183
S'word: she, index: 17'
p184
aatp185
Rp186
(dp187
g12
Vnsubj
p188
sbag0
(g1
g2
(lp189
(lp190
S'word: is, index: 18'
p191
aatp192
Rp193
(dp194
g12
Vaux
p195
sbatp196
Rp197
(dp198
g12
S'word: letting, index: 19'
p199
sbatp200
Rp201
(dp202
g12
Vconj
p203
sbag0
(g1
g2
(lp204
g0
(g1
g2
(lp205
g0
(g1
g2
(lp206
(lp207
S'word: a, index: 3'
p208
aatp209
Rp210
(dp211
g12
Vdet
p212
sbag0
(g1
g2
(lp213
(lp214
S'word: nice, index: 4'
p215
aatp216
Rp217
(dp218
g12
Vamod
p219
sbag0
(g1
g2
(lp220
g0
(g1
g2
(lp221
g0
(g1
g2
(lp222
g0
(g1
g2
(lp223
g0
(g1
g2
(lp224
(lp225
S'word: nineteen, index: 6'
p226
aatp227
Rp228
(dp229
g12
Vnum
p230
sbatp231
Rp232
(dp233
g12
S'word: fifties, index: 7'
p234
sbatp235
Rp236
(dp237
g12
Vdep
p238
sbatp239
Rp240
(dp241
g12
S'word: little, index: 5'
p242
sbatp243
Rp244
(dp245
g12
Vamod
p246
sbag0
(g1
g2
(lp247
(lp248
S'word: house, index: 8'
p249
aatp250
Rp251
(dp252
g12
Vnn
p253
sbag0
(g1
g2
(lp254
g0
(g1
g2
(lp255
g0
(g1
g2
(lp256
g0
(g1
g2
(lp257
g0
(g1
g2
(lp258
g0
(g1
g2
(lp259
g0
(g1
g2
(lp260
(lp261
S'word: the, index: 13'
p262
aatp263
Rp264
(dp265
g12
Vdet
p266
sbatp267
Rp268
(dp269
g12
S'word: sink, index: 14'
p270
sbatp271
Rp272
(dp273
g12
Vprep
p274
sbatp275
Rp276
(dp277
g12
S'word: dishes, index: 11'
p278
sbatp279
Rp280
(dp281
g12
Vdobj
p282
sbatp283
Rp284
(dp285
g12
S'word: doing, index: 10'
p286
sbatp287
Rp288
(dp289
g12
Vvmod
p290
sbatp291
Rp292
(dp293
g12
S'word: wife, index: 9'
p294
sbatp295
Rp296
(dp297
g12
Vdobj
p298
sbag0
(g1
g2
(lp299
g175
atp300
Rp301
(dp302
g12
Vconj
p303
sbag0
(g1
g2
(lp304
(lp305
S'word: We, index: 1'
p306
aatp307
Rp308
(dp309
g12
Vnsubj
p310
sbatp311
Rp312
(dp313
g12
S'word: have, index: 2'
p314
sbatp315
Rp316
(dp317
g12
S'id: 1'
p318
sbag0
(g1
g2
(lp319
g0
(g1
g2
(lp320
g0
(g1
g2
(lp321
g0
(g1
g2
(lp322
g0
(g1
g2
(lp323
(lp324
S'word: off, index: 23'
p325
aatp326
Rp327
(dp328
g12
Vprt
p329
sbag0
(g1
g2
(lp330
g0
(g1
g2
(lp331
g0
(g1
g2
(lp332
(lp333
S'word: the, index: 24'
p334
aatp335
Rp336
(dp337
g12
Vdet
p338
sbatp339
Rp340
(dp341
g12
S'word: stool, index: 25'
p342
sbatp343
Rp344
(dp345
g12
Vdobj
p346
sbag0
(g1
g2
(lp347
(lp348
S'word: to, index: 21'
p349
aatp350
Rp351
(dp352
g12
Vaux
p353
sbatp354
Rp355
(dp356
g12
S'word: fall, index: 22'
p357
sbatp358
Rp359
(dp360
g12
Vxcomp
p361
sbag0
(g1
g2
(lp362
g0
(g1
g2
(lp363
g0
(g1
g2
(lp364
(lp365
S'word: are, index: 6'
p366
aatp367
Rp368
(dp369
g12
Vaux
p370
sbag0
(g1
g2
(lp371
(lp372
S'word: cookies, index: 8'
p373
aatp374
Rp375
(dp376
g12
Vdobj
p377
sbag0
(g1
g2
(lp378
g0
(g1
g2
(lp379
g0
(g1
g2
(lp380
(lp381
S'word: the, index: 11'
p382
aatp383
Rp384
(dp385
g12
Vdet
p386
sbag0
(g1
g2
(lp387
(lp388
S'word: cookie, index: 12'
p389
aatp390
Rp391
(dp392
g12
Vnn
p393
sbatp394
Rp395
(dp396
g12
S'word: jar, index: 13'
p397
sbatp398
Rp399
(dp400
g12
Vprep
p401
sbag0
(g1
g2
(lp402
(lp403
S'word: While, index: 1'
p404
aatp405
Rp406
(dp407
g12
Vmark
p408
sbag0
(g1
g2
(lp409
g0
(g1
g2
(lp410
g0
(g1
g2
(lp411
(lp412
S'word: her, index: 2'
p413
aatp414
Rp415
(dp416
g12
Vposs
p417
sbag0
(g1
g2
(lp418
(lp419
S'word: daughter, index: 5'
p420
aatp421
Rp422
(dp423
g12
Vconj
p424
sbatp425
Rp426
(dp427
g12
S'word: son, index: 3'
p428
sbatp429
Rp430
(dp431
g12
Vnsubj
p432
sbag0
(g1
g2
(lp433
(lp434
S'word: daughter, index: 5'
p435
aatp436
Rp437
(dp438
g12
Vnsubj
p439
sbatp440
Rp441
(dp442
g12
S'word: getting, index: 7'
p443
sbatp444
Rp445
(dp446
g12
Vadvcl
p447
sbag0
(g1
g2
(lp448
(lp449
S'word: but, index: 15'
p450
aatp451
Rp452
(dp453
g12
Vcc
p454
sbag0
(g1
g2
(lp455
g0
(g1
g2
(lp456
g0
(g1
g2
(lp457
(lp458
S'word: the, index: 16'
p459
aatp460
Rp461
(dp462
g12
Vdet
p463
sbatp464
Rp465
(dp466
g12
S'word: son, index: 17'
p467
sbatp468
Rp469
(dp470
g12
Vnsubj
p471
sbag0
(g1
g2
(lp472
(lp473
S'word: is, index: 18'
p474
aatp475
Rp476
(dp477
g12
Vcop
p478
sbag0
(g1
g2
(lp479
(lp480
S'word: about, index: 19'
p481
aatp482
Rp483
(dp484
g12
Vdep
p485
sbatp486
Rp487
(dp488
g12
S'word: ready, index: 20'
p489
sbatp490
Rp491
(dp492
g12
S'id: 2'
p493
sbag0
(g1
g2
(lp494
g0
(g1
g2
(lp495
g0
(g1
g2
(lp496
g0
(g1
g2
(lp497
g0
(g1
g2
(lp498
(lp499
S'word: it, index: 10'
p500
aatp501
Rp502
(dp503
g12
Vnsubj
p504
sbag0
(g1
g2
(lp505
g0
(g1
g2
(lp506
g0
(g1
g2
(lp507
(lp508
S'word: like, index: 12'
p509
aatp510
Rp511
(dp512
g12
Vmark
p513
sbag0
(g1
g2
(lp514
(lp515
S'word: it, index: 13'
p516
aatp517
Rp518
(dp519
g12
Vnsubj
p520
sbag0
(g1
g2
(lp521
(lp522
S"word: 's, index: 14"
p523
aatp524
Rp525
(dp526
g12
Vcop
p527
sbag0
(g1
g2
(lp528
(lp529
S'word: a, index: 15'
p530
aatp531
Rp532
(dp533
g12
Vdet
p534
sbag0
(g1
g2
(lp535
(lp536
S'word: nice, index: 16'
p537
aatp538
Rp539
(dp540
g12
Vamod
p541
sbag0
(g1
g2
(lp542
(lp543
S'word: outside, index: 18'
p544
aatp545
Rp546
(dp547
g12
Vadvmod
p548
sbatp549
Rp550
(dp551
g12
S'word: day, index: 17'
p552
sbatp553
Rp554
(dp555
g12
Vadvcl
p556
sbatp557
Rp558
(dp559
g12
S'word: looks, index: 11'
p560
sbatp561
Rp562
(dp563
g12
Vconj
p564
sbag0
(g1
g2
(lp565
g0
(g1
g2
(lp566
g0
(g1
g2
(lp567
(lp568
S'word: the, index: 2'
p569
aatp570
Rp571
(dp572
g12
Vdet
p573
sbatp574
Rp575
(dp576
g12
S'word: window, index: 3'
p577
sbatp578
Rp579
(dp580
g12
Vnsubj
p581
sbag0
(g1
g2
(lp582
g0
(g1
g2
(lp583
g0
(g1
g2
(lp584
(lp585
S'word: to, index: 5'
p586
aatp587
Rp588
(dp589
g12
Vaux
p590
sbag0
(g1
g2
(lp591
(lp592
S'word: be, index: 6'
p593
aatp594
Rp595
(dp596
g12
Vcop
p597
sbatp598
Rp599
(dp600
g12
S'word: open, index: 7'
p601
sbatp602
Rp603
(dp604
g12
Vxcomp
p605
sbatp606
Rp607
(dp608
g12
S'word: appears, index: 4'
p609
sbatp610
Rp611
(dp612
g12
S'id: 3'
p613
sbag0
(g1
g2
(lp614
g0
(g1
g2
(lp615
g0
(g1
g2
(lp616
g0
(g1
g2
(lp617
g0
(g1
g2
(lp618
(lp619
S'word: The, index: 1'
p620
aatp621
Rp622
(dp623
g12
Vdet
p624
sbatp625
Rp626
(dp627
g12
S'word: girl, index: 2'
p628
sbatp629
Rp630
(dp631
g12
Vnsubj
p632
sbag0
(g1
g2
(lp633
(lp634
S'word: is, index: 3'
p635
aatp636
Rp637
(dp638
g12
Vaux
p639
sbag0
(g1
g2
(lp640
g0
(g1
g2
(lp641
g0
(g1
g2
(lp642
(lp643
S'word: a, index: 5'
p644
aatp645
Rp646
(dp647
g12
Vdet
p648
sbag0
(g1
g2
(lp649
g0
(g1
g2
(lp650
g0
(g1
g2
(lp651
(lp652
S'word: her, index: 10'
p653
aatp654
Rp655
(dp656
g12
Vposs
p657
sbatp658
Rp659
(dp660
g12
S'word: mother, index: 11'
p661
sbatp662
Rp663
(dp664
g12
Vprep
p665
sbatp666
Rp667
(dp668
g12
S'word: dress, index: 6'
p669
sbatp670
Rp671
(dp672
g12
Vdobj
p673
sbatp674
Rp675
(dp676
g12
S'word: wearing, index: 4'
p677
sbatp678
Rp679
(dp680
g12
S'id: 4'
p681
sbag0
(g1
g2
(lp682
g0
(g1
g2
(lp683
g0
(g1
g2
(lp684
(lp685
S'word: leave, index: 15'
p686
aatp687
Rp688
(dp689
g12
Vprep
p690
sbag0
(g1
g2
(lp691
g0
(g1
g2
(lp692
g0
(g1
g2
(lp693
(lp694
S'word: beaver, index: 18'
p695
aatp696
Rp697
(dp698
g12
Vprep
p699
sbatp700
Rp701
(dp702
g12
S'word: it, index: 16'
p703
sbatp704
Rp705
(dp706
g12
Vnsubj
p707
sbag0
(g1
g2
(lp708
g0
(g1
g2
(lp709
g0
(g1
g2
(lp710
g0
(g1
g2
(lp711
g0
(g1
g2
(lp712
(lp713
S'word: The, index: 1'
p714
aatp715
Rp716
(dp717
g12
Vdet
p718
sbatp719
Rp720
(dp721
g12
S'word: boy, index: 2'
p722
sbatp723
Rp724
(dp725
g12
Vnsubj
p726
sbag0
(g1
g2
(lp727
(lp728
S'word: is, index: 3'
p729
aatp730
Rp731
(dp732
g12
Vaux
p733
sbag0
(g1
g2
(lp734
g0
(g1
g2
(lp735
g0
(g1
g2
(lp736
(lp737
S'word: a, index: 5'
p738
aatp739
Rp740
(dp741
g12
Vdet
p742
sbag0
(g1
g2
(lp743
(lp744
S'word: nice, index: 6'
p745
aatp746
Rp747
(dp748
g12
Vamod
p749
sbag0
(g1
g2
(lp750
(lp751
S'word: little, index: 7'
p752
aatp753
Rp754
(dp755
g12
Vamod
p756
sbatp757
Rp758
(dp759
g12
S'word: shorts, index: 8'
p760
sbatp761
Rp762
(dp763
g12
Vdobj
p764
sbatp765
Rp766
(dp767
g12
S'word: wearing, index: 4'
p768
sbatp769
Rp770
(dp771
g12
Vccomp
p772
sbag0
(g1
g2
(lp773
g0
(g1
g2
(lp774
g0
(g1
g2
(lp775
(lp776
S'word: stuff, index: 13'
p777
aatp778
Rp779
(dp780
g12
Vprep
p781
sbatp782
Rp783
(dp784
g12
S'word: me, index: 11'
p785
sbatp786
Rp787
(dp788
g12
Vdobj
p789
sbatp790
Rp791
(dp792
g12
S'word: reminds, index: 10'
p793
sbatp794
Rp795
(dp796
g12
S'id: 5'
p797
sbag0
(g1
g2
(lp798
g0
(g1
g2
(lp799
g0
(g1
g2
(lp800
g0
(g1
g2
(lp801
g0
(g1
g2
(lp802
g0
(g1
g2
(lp803
g0
(g1
g2
(lp804
(lp805
S'word: the, index: 17'
p806
aatp807
Rp808
(dp809
g12
Vdet
p810
sbatp811
Rp812
(dp813
g12
S'word: lawns, index: 18'
p814
sbatp815
Rp816
(dp817
g12
Vnsubj
p818
sbag0
(g1
g2
(lp819
g0
(g1
g2
(lp820
g0
(g1
g2
(lp821
(lp822
S'word: to, index: 20'
p823
aatp824
Rp825
(dp826
g12
Vaux
p827
sbatp828
Rp829
(dp830
g12
S'word: be, index: 21'
p831
sbatp832
Rp833
(dp834
g12
Vxcomp
p835
sbag0
(g1
g2
(lp836
g0
(g1
g2
(lp837
g0
(g1
g2
(lp838
(lp839
S'word: neatly, index: 23'
p840
aatp841
Rp842
(dp843
g12
Vadvmod
p844
sbatp845
Rp846
(dp847
g12
S'word: kept, index: 24'
p848
sbatp849
Rp850
(dp851
g12
Vdep
p852
sbatp853
Rp854
(dp855
g12
S'word: appear, index: 19'
p856
sbatp857
Rp858
(dp859
g12
Vconj
p860
sbag0
(g1
g2
(lp861
g0
(g1
g2
(lp862
g0
(g1
g2
(lp863
(lp864
S'word: in, index: 3'
p865
aatp866
Rp867
(dp868
g12
Vmark
p869
sbag0
(g1
g2
(lp870
g0
(g1
g2
(lp871
g0
(g1
g2
(lp872
(lp873
S'word: a, index: 4'
p874
aatp875
Rp876
(dp877
g12
Vdet
p878
sbatp879
Rp880
(dp881
g12
S'word: tree, index: 5'
p882
sbatp883
Rp884
(dp885
g12
Vnsubj
p886
sbag0
(g1
g2
(lp887
(lp888
S'word: neighborhood, index: 7'
p889
aatp890
Rp891
(dp892
g12
Vdobj
p893
sbatp894
Rp895
(dp896
g12
S'word: lined, index: 6'
p897
sbatp898
Rp899
(dp900
g12
Vadvcl
p901
sbag0
(g1
g2
(lp902
g0
(g1
g2
(lp903
g0
(g1
g2
(lp904
g854
atp905
Rp906
(dp907
g12
Vconj
p908
sbag0
(g1
g2
(lp909
g0
(g1
g2
(lp910
g0
(g1
g2
(lp911
(lp912
S'word: the, index: 10'
p913
aatp914
Rp915
(dp916
g12
Vdet
p917
sbatp918
Rp919
(dp920
g12
S'word: houses, index: 11'
p921
sbatp922
Rp923
(dp924
g12
Vnsubj
p925
sbag0
(g1
g2
(lp926
g0
(g1
g2
(lp927
g0
(g1
g2
(lp928
(lp929
S'word: to, index: 13'
p930
aatp931
Rp932
(dp933
g12
Vaux
p934
sbatp935
Rp936
(dp937
g12
S'word: be, index: 14'
p938
sbatp939
Rp940
(dp941
g12
Vxcomp
p942
sbatp943
Rp944
(dp945
g12
S'word: appear, index: 12'
p946
sbatp947
Rp948
(dp949
g12
Vconj
p950
sbag0
(g1
g2
(lp951
(lp952
S'word: They, index: 1'
p953
aatp954
Rp955
(dp956
g12
Vnsubj
p957
sbatp958
Rp959
(dp960
g12
S'word: live, index: 2'
p961
sbatp962
Rp963
(dp964
g12
S'id: 6'
p965
sbag0
(g1
g2
(lp966
g0
(g1
g2
(lp967
g0
(g1
g2
(lp968
g0
(g1
g2
(lp969
g0
(g1
g2
(lp970
(lp971
S'word: fully, index: 5'
p972
aatp973
Rp974
(dp975
g12
Vadvmod
p976
sbag0
(g1
g2
(lp977
(lp978
S'word: to, index: 3'
p979
aatp980
Rp981
(dp982
g12
Vaux
p983
sbag0
(g1
g2
(lp984
(lp985
S'word: be, index: 4'
p986
aatp987
Rp988
(dp989
g12
Vcop
p990
sbatp991
Rp992
(dp993
g12
S'word: mature, index: 6'
p994
sbatp995
Rp996
(dp997
g12
Vxcomp
p998
sbag0
(g1
g2
(lp999
(lp1000
S'word: Trees, index: 1'
p1001
aatp1002
Rp1003
(dp1004
g12
Vnsubj
p1005
sbatp1006
Rp1007
(dp1008
g12
S'word: appear, index: 2'
p1009
sbatp1010
Rp1011
(dp1012
g12
S'id: 7'
p1013
sbag0
(g1
g2
(lp1014
g0
(g1
g2
(lp1015
g0
(g1
g2
(lp1016
g0
(g1
g2
(lp1017
g0
(g1
g2
(lp1018
(lp1019
S'word: nor, index: 14'
p1020
aatp1021
Rp1022
(dp1023
g12
Vnsubj
p1024
sbag0
(g1
g2
(lp1025
g0
(g1
g2
(lp1026
g0
(g1
g2
(lp1027
(lp1028
S'word: they, index: 16'
p1029
aatp1030
Rp1031
(dp1032
g12
Vnsubj
p1033
sbag0
(g1
g2
(lp1034
g0
(g1
g2
(lp1035
g0
(g1
g2
(lp1036
(lp1037
S'word: a, index: 18'
p1038
aatp1039
Rp1040
(dp1041
g12
Vdet
p1042
sbatp1043
Rp1044
(dp1045
g12
S'word: stove, index: 19'
p1046
sbatp1047
Rp1048
(dp1049
g12
Vdobj
p1050
sbatp1051
Rp1052
(dp1053
g12
S'word: have, index: 17'
p1054
sbatp1055
Rp1056
(dp1057
g12
Vccomp
p1058
sbatp1059
Rp1060
(dp1061
g12
S'word: do, index: 15'
p1062
sbatp1063
Rp1064
(dp1065
g12
Vconj
p1066
sbag0
(g1
g2
(lp1067
(lp1068
S'word: They, index: 1'
p1069
aatp1070
Rp1071
(dp1072
g12
Vnsubj
p1073
sbag0
(g1
g2
(lp1074
(lp1075
S'word: do, index: 2'
p1076
aatp1077
Rp1078
(dp1079
g12
Vaux
p1080
sbag0
(g1
g2
(lp1081
(lp1082
S"word: n't, index: 3"
p1083
aatp1084
Rp1085
(dp1086
g12
Vneg
p1087
sbag0
(g1
g2
(lp1088
g0
(g1
g2
(lp1089
g0
(g1
g2
(lp1090
g0
(g1
g2
(lp1091
g0
(g1
g2
(lp1092
g0
(g1
g2
(lp1093
g0
(g1
g2
(lp1094
(lp1095
S'word: the, index: 10'
p1096
aatp1097
Rp1098
(dp1099
g12
Vdet
p1100
sbatp1101
Rp1102
(dp1103
g12
S'word: kitchen, index: 11'
p1104
sbatp1105
Rp1106
(dp1107
g12
Vprep
p1108
sbatp1109
Rp1110
(dp1111
g12
S'word: appliances, index: 8'
p1112
sbatp1113
Rp1114
(dp1115
g12
Vprep
p1116
sbag0
(g1
g2
(lp1117
(lp1118
S'word: a, index: 5'
p1119
aatp1120
Rp1121
(dp1122
g12
Vdet
p1123
sbatp1124
Rp1125
(dp1126
g12
S'word: lot, index: 6'
p1127
sbatp1128
Rp1129
(dp1130
g12
Vdobj
p1131
sbatp1132
Rp1133
(dp1134
g12
S'word: have, index: 4'
p1135
sbatp1136
Rp1137
(dp1138
g12
S'id: 8'
p1139
sbatp1140
Rp1141
(dp1142
g12
S'sentences'
p1143
sb.