ccopy_reg
_reconstructor
p0
(cnltk.tree
Tree
p1
c__builtin__
list
p2
(lp3
g0
(g1
g2
(lp4
g0
(g1
g2
(lp5
g0
(g1
g2
(lp6
(lp7
S'word: okay, index: 1'
p8
aatp9
Rp10
(dp11
S'_label'
p12
Vdep
p13
sbag0
(g1
g2
(lp14
(lp15
S'word: I, index: 2'
p16
aatp17
Rp18
(dp19
g12
Vnsubj
p20
sbag0
(g1
g2
(lp21
g0
(g1
g2
(lp22
g0
(g1
g2
(lp23
g0
(g1
g2
(lp24
g0
(g1
g2
(lp25
(lp26
S'word: a, index: 5'
p27
aatp28
Rp29
(dp30
g12
Vdet
p31
sbag0
(g1
g2
(lp32
(lp33
S'word: boy, index: 6'
p34
aatp35
Rp36
(dp37
g12
Vnn
p38
sbatp39
Rp40
(dp41
g12
S'word: flyin, index: 7'
p42
sbatp43
Rp44
(dp45
g12
Vdep
p46
sbag0
(g1
g2
(lp47
(lp48
S'word: a, index: 9'
p49
aatp50
Rp51
(dp52
g12
Vdet
p53
sbag0
(g1
g2
(lp54
g0
(g1
g2
(lp55
g0
(g1
g2
(lp56
(lp57
S'word: with, index: 17'
p58
aatp59
Rp60
(dp61
g12
Vprepc
p62
sbag0
(g1
g2
(lp63
(lp64
S'word: him, index: 18'
p65
aatp66
Rp67
(dp68
g12
Vpobj
p69
sbag0
(g1
g2
(lp70
(lp71
S'word: a, index: 12'
p72
aatp73
Rp74
(dp75
g12
Vdet
p76
sbag0
(g1
g2
(lp77
(lp78
S'word: dog, index: 13'
p79
aatp80
Rp81
(dp82
g12
Vnn
p83
sbatp84
Rp85
(dp86
g12
S'word: runnin, index: 14'
p87
sbatp88
Rp89
(dp90
g12
Vparataxis
p91
sbatp92
Rp93
(dp94
g12
S'word: kite, index: 10'
p95
sbatp96
Rp97
(dp98
g12
Vdep
p99
sbatp100
Rp101
(dp102
g12
S'word: see, index: 3'
p103
sbatp104
Rp105
(dp106
g12
S'id: 0'
p107
sbag0
(g1
g2
(lp108
g0
(g1
g2
(lp109
g0
(g1
g2
(lp110
g0
(g1
g2
(lp111
g0
(g1
g2
(lp112
(lp113
S'word: there, index: 5'
p114
aatp115
Rp116
(dp117
g12
Vprep
p118
sbatp119
Rp120
(dp121
g12
S'word: somebody, index: 3'
p122
sbatp123
Rp124
(dp125
g12
Vdobj
p126
sbag0
(g1
g2
(lp127
(lp128
S'word: fishing, index: 6'
p129
aatp130
Rp131
(dp132
g12
Vprep
p133
sbag0
(g1
g2
(lp134
(lp135
S'word: i, index: 1'
p136
aatp137
Rp138
(dp139
g12
Vdep
p140
sbatp141
Rp142
(dp143
g12
S'word: see, index: 2'
p144
sbatp145
Rp146
(dp147
g12
S'id: 1'
p148
sbag0
(g1
g2
(lp149
g0
(g1
g2
(lp150
g0
(g1
g2
(lp151
(lp152
S'word: there, index: 1'
p153
aatp154
Rp155
(dp156
g12
Vexpl
p157
sbag0
(g1
g2
(lp158
g0
(g1
g2
(lp159
g0
(g1
g2
(lp160
(lp161
S'word: a, index: 3'
p162
aatp163
Rp164
(dp165
g12
Vdet
p166
sbag0
(g1
g2
(lp167
g0
(g1
g2
(lp168
g0
(g1
g2
(lp169
g0
(g1
g2
(lp170
g0
(g1
g2
(lp171
(lp172
S'word: a, index: 7'
p173
aatp174
Rp175
(dp176
g12
Vdet
p177
sbatp178
Rp179
(dp180
g12
S'word: sandcastle, index: 8'
p181
sbatp182
Rp183
(dp184
g12
Vprep
p185
sbatp186
Rp187
(dp188
g12
S'word: making, index: 5'
p189
sbatp190
Rp191
(dp192
g12
Vvmod
p193
sbatp194
Rp195
(dp196
g12
S'word: child, index: 4'
p197
sbatp198
Rp199
(dp200
g12
Vnsubj
p201
sbatp202
Rp203
(dp204
g12
S"word: 's, index: 2"
p205
sbatp206
Rp207
(dp208
g12
S'id: 2'
p209
sbag0
(g1
g2
(lp210
g0
(g1
g2
(lp211
g0
(g1
g2
(lp212
(lp213
S'word: and, index: 1'
p214
aatp215
Rp216
(dp217
g12
Vcc
p218
sbag0
(g1
g2
(lp219
(lp220
S'word: there, index: 2'
p221
aatp222
Rp223
(dp224
g12
Vadvmod
p225
sbag0
(g1
g2
(lp226
g0
(g1
g2
(lp227
g0
(g1
g2
(lp228
g0
(g1
g2
(lp229
g0
(g1
g2
(lp230
(lp231
S'word: the, index: 10'
p232
aatp233
Rp234
(dp235
g12
Vdet
p236
sbatp237
Rp238
(dp239
g12
S'word: water, index: 11'
p240
sbatp241
Rp242
(dp243
g12
Vprep
p244
sbag0
(g1
g2
(lp245
(lp246
S'word: a, index: 6'
p247
aatp248
Rp249
(dp250
g12
Vdet
p251
sbag0
(g1
g2
(lp252
(lp253
S'word: out, index: 8'
p254
aatp255
Rp256
(dp257
g12
Vdep
p258
sbatp259
Rp260
(dp261
g12
S'word: sailboat, index: 7'
p262
sbatp263
Rp264
(dp265
g12
Vprep
p266
sbatp267
Rp268
(dp269
g12
S'word: looks, index: 4'
p270
sbatp271
Rp272
(dp273
g12
S'id: 3'
p274
sbag0
(g1
g2
(lp275
g0
(g1
g2
(lp276
g0
(g1
g2
(lp277
(lp278
S'word: they, index: 17'
p279
aatp280
Rp281
(dp282
g12
Vnsubj
p283
sbag0
(g1
g2
(lp284
(lp285
S"word: 've, index: 18"
p286
aatp287
Rp288
(dp289
g12
Vaux
p290
sbag0
(g1
g2
(lp291
g0
(g1
g2
(lp292
g0
(g1
g2
(lp293
(lp294
S'word: and, index: 1'
p295
aatp296
Rp297
(dp298
g12
Vcc
p299
sbag0
(g1
g2
(lp300
(lp301
S'word: then, index: 2'
p302
aatp303
Rp304
(dp305
g12
Vadvmod
p306
sbag0
(g1
g2
(lp307
(lp308
S'word: it, index: 3'
p309
aatp310
Rp311
(dp312
g12
Vnsubj
p313
sbag0
(g1
g2
(lp314
g0
(g1
g2
(lp315
g0
(g1
g2
(lp316
(lp317
S'word: a, index: 6'
p318
aatp319
Rp320
(dp321
g12
Vdet
p322
sbag0
(g1
g2
(lp323
(lp324
S'word: woman, index: 9'
p325
aatp326
Rp327
(dp328
g12
Vconj
p329
sbag0
(g1
g2
(lp330
g0
(g1
g2
(lp331
g0
(g1
g2
(lp332
g0
(g1
g2
(lp333
g0
(g1
g2
(lp334
(lp335
S'word: piclick, index: 12'
p336
aatp337
Rp338
(dp339
g12
Vnn
p340
sbag0
(g1
g2
(lp341
(lp342
S'word: picnic, index: 14'
p343
aatp344
Rp345
(dp346
g12
Vdep
p347
sbag0
(g1
g2
(lp348
(lp349
S'word: a, index: 11'
p350
aatp351
Rp352
(dp353
g12
Vdet
p354
sbatp355
Rp356
(dp357
g12
S'word: lunch, index: 15'
p358
sbatp359
Rp360
(dp361
g12
Vdobj
p362
sbatp363
Rp364
(dp365
g12
S'word: having, index: 10'
p366
sbatp367
Rp368
(dp369
g12
Vvmod
p370
sbatp371
Rp372
(dp373
g12
S'word: man, index: 7'
p374
sbatp375
Rp376
(dp377
g12
Vprep
p378
sbag0
(g1
g2
(lp379
(lp380
S'word: woman, index: 9'
p381
aatp382
Rp383
(dp384
g12
Vprep
p385
sbatp386
Rp387
(dp388
g12
S'word: looks, index: 4'
p389
sbatp390
Rp391
(dp392
g12
Vccomp
p393
sbag0
(g1
g2
(lp394
g0
(g1
g2
(lp395
g0
(g1
g2
(lp396
(lp397
S'word: a, index: 20'
p398
aatp399
Rp400
(dp401
g12
Vdet
p402
sbatp403
Rp404
(dp405
g12
S'word: radio, index: 21'
p406
sbatp407
Rp408
(dp409
g12
Vdobj
p410
sbag0
(g1
g2
(lp411
(lp412
S'word: there, index: 22'
p413
aatp414
Rp415
(dp416
g12
Vadvmod
p417
sbatp418
Rp419
(dp420
g12
S'word: got, index: 19'
p421
sbatp422
Rp423
(dp424
g12
S'id: 4'
p425
sbag0
(g1
g2
(lp426
g0
(g1
g2
(lp427
g0
(g1
g2
(lp428
(lp429
S'word: and, index: 1'
p430
aatp431
Rp432
(dp433
g12
Vcc
p434
sbag0
(g1
g2
(lp435
(lp436
S'word: then, index: 2'
p437
aatp438
Rp439
(dp440
g12
Vadvmod
p441
sbag0
(g1
g2
(lp442
(lp443
S'word: there, index: 3'
p444
aatp445
Rp446
(dp447
g12
Vexpl
p448
sbag0
(g1
g2
(lp449
g0
(g1
g2
(lp450
g0
(g1
g2
(lp451
(lp452
S'word: the, index: 5'
p453
aatp454
Rp455
(dp456
g12
Vdet
p457
sbag0
(g1
g2
(lp458
g0
(g1
g2
(lp459
g0
(g1
g2
(lp460
(lp461
S'word: the, index: 8'
p462
aatp463
Rp464
(dp465
g12
Vdet
p466
sbag0
(g1
g2
(lp467
g0
(g1
g2
(lp468
g0
(g1
g2
(lp469
g0
(g1
g2
(lp470
g0
(g1
g2
(lp471
g0
(g1
g2
(lp472
g0
(g1
g2
(lp473
(lp474
S'word: the, index: 16'
p475
aatp476
Rp477
(dp478
g12
Vdet
p479
sbatp480
Rp481
(dp482
g12
S'word: yard, index: 17'
p483
sbatp484
Rp485
(dp486
g12
Vprep
p487
sbag0
(g1
g2
(lp488
(lp489
S'word: the, index: 13'
p490
aatp491
Rp492
(dp493
g12
Vdet
p494
sbatp495
Rp496
(dp497
g12
S'word: car, index: 14'
p498
sbatp499
Rp500
(dp501
g12
Vappos
p502
sbatp503
Rp504
(dp505
g12
S'word: front, index: 11'
p506
sbatp507
Rp508
(dp509
g12
Vprep
p510
sbatp511
Rp512
(dp513
g12
S'word: tree, index: 9'
p514
sbatp515
Rp516
(dp517
g12
Vprep
p518
sbatp519
Rp520
(dp521
g12
S'word: house, index: 6'
p522
sbatp523
Rp524
(dp525
g12
Vnsubj
p526
sbatp527
Rp528
(dp529
g12
S"word: 's, index: 4"
p530
sbatp531
Rp532
(dp533
g12
S'id: 5'
p534
sbag0
(g1
g2
(lp535
g0
(g1
g2
(lp536
g0
(g1
g2
(lp537
(lp538
S"word: 's, index: 2"
p539
aatp540
Rp541
(dp542
g12
Vcop
p543
sbag0
(g1
g2
(lp544
(lp545
S'word: that, index: 1'
p546
aatp547
Rp548
(dp549
g12
Vnsubj
p550
sbatp551
Rp552
(dp553
g12
S'word: it, index: 3'
p554
sbatp555
Rp556
(dp557
g12
S'id: 6'
p558
sbatp559
Rp560
(dp561
g12
S'sentences'
p562
sb.