ccopy_reg
_reconstructor
p0
(cnltk.tree
Tree
p1
c__builtin__
list
p2
(lp3
g0
(g1
g2
(lp4
g0
(g1
g2
(lp5
g0
(g1
g2
(lp6
Va boy flyin '
p7
atp8
Rp9
(dp10
S'_label'
p11
S'start: 5'
p12
sbatp13
Rp14
(dp15
g11
S'sent: 1'
p16
sbag0
(g1
g2
(lp17
g0
(g1
g2
(lp18
Vhim
p19
atp20
Rp21
(dp22
g11
S'start: 18'
p23
sbatp24
Rp25
(dp26
g11
S'sent: 1'
p27
sbatp28
Rp29
(dp30
g11
S'id: 2'
p31
sbag0
(g1
g2
(lp32
g0
(g1
g2
(lp33
g0
(g1
g2
(lp34
Va sailboat out in the water
p35
atp36
Rp37
(dp38
g11
S'start: 6'
p39
sbatp40
Rp41
(dp42
g11
S'sent: 4'
p43
sbag0
(g1
g2
(lp44
g0
(g1
g2
(lp45
Vit
p46
atp47
Rp48
(dp49
g11
S'start: 3'
p50
sbatp51
Rp52
(dp53
g11
S'sent: 5'
p54
sbatp55
Rp56
(dp57
g11
S'id: 9'
p58
sbag0
(g1
g2
(lp59
g0
(g1
g2
(lp60
g0
(g1
g2
(lp61
Va man and woman having a piclick , picnic lunch
p62
atp63
Rp64
(dp65
g11
S'start: 6'
p66
sbatp67
Rp68
(dp69
g11
S'sent: 5'
p70
sbag0
(g1
g2
(lp71
g0
(g1
g2
(lp72
Vthey
p73
atp74
Rp75
(dp76
g11
S'start: 17'
p77
sbatp78
Rp79
(dp80
g11
S'sent: 5'
p81
sbatp82
Rp83
(dp84
g11
S'id: 12'
p85
sbag0
(g1
g2
(lp86
g0
(g1
g2
(lp87
g0
(g1
g2
(lp88
Vthe house with the tree in front , the car in the yard
p89
atp90
Rp91
(dp92
g11
S'start: 5'
p93
sbatp94
Rp95
(dp96
g11
S'sent: 6'
p97
sbag0
(g1
g2
(lp98
g0
(g1
g2
(lp99
Vthat
p100
atp101
Rp102
(dp103
g11
S'start: 1'
p104
sbatp105
Rp106
(dp107
g11
S'sent: 7'
p108
sbag0
(g1
g2
(lp109
g0
(g1
g2
(lp110
Vit
p111
atp112
Rp113
(dp114
g11
S'start: 3'
p115
sbatp116
Rp117
(dp118
g11
S'sent: 7'
p119
sbatp120
Rp121
(dp122
g11
S'id: 16'
p123
sbatp124
Rp125
(dp126
g11
S'coreferences'
p127
sb.