ccopy_reg
_reconstructor
p0
(cnltk.tree
Tree
p1
c__builtin__
list
p2
(lp3
g0
(g1
g2
(lp4
g0
(g1
g2
(lp5
g0
(g1
g2
(lp6
g0
(g1
g2
(lp7
Vokay
p8
atp9
Rp10
(dp11
S'_label'
p12
VJJ
p13
sbatp14
Rp15
(dp16
g12
VADJP
p17
sbag0
(g1
g2
(lp18
g0
(g1
g2
(lp19
Vit
p20
atp21
Rp22
(dp23
g12
VPRP
p24
sbatp25
Rp26
(dp27
g12
VNP
p28
sbag0
(g1
g2
(lp29
g0
(g1
g2
(lp30
V's
p31
atp32
Rp33
(dp34
g12
VVBZ
p35
sbag0
(g1
g2
(lp36
g0
(g1
g2
(lp37
Va
p38
atp39
Rp40
(dp41
g12
VDT
p42
sbag0
(g1
g2
(lp43
Vfamily
p44
atp45
Rp46
(dp47
g12
VNN
p48
sbag0
(g1
g2
(lp49
Vpicnic
p50
atp51
Rp52
(dp53
g12
VNN
p54
sbatp55
Rp56
(dp57
g12
VNP
p58
sbatp59
Rp60
(dp61
g12
VVP
p62
sbag0
(g1
g2
(lp63
V.
p64
atp65
Rp66
(dp67
g12
V.
p68
sbatp69
Rp70
(dp71
g12
VS
p72
sbatp73
Rp74
(dp75
g12
S'id: 0'
p76
sbag0
(g1
g2
(lp77
g0
(g1
g2
(lp78
g0
(g1
g2
(lp79
g0
(g1
g2
(lp80
Vthere
p81
atp82
Rp83
(dp84
g12
VEX
p85
sbatp86
Rp87
(dp88
g12
VNP
p89
sbag0
(g1
g2
(lp90
g0
(g1
g2
(lp91
V's
p92
atp93
Rp94
(dp95
g12
VVBZ
p96
sbag0
(g1
g2
(lp97
V,
p98
atp99
Rp100
(dp101
g12
V,
p102
sbag0
(g1
g2
(lp103
g0
(g1
g2
(lp104
g0
(g1
g2
(lp105
Vson
p106
atp107
Rp108
(dp109
g12
VNN
p110
sbatp111
Rp112
(dp113
g12
VNP
p114
sbag0
(g1
g2
(lp115
g0
(g1
g2
(lp116
Vflying
p117
atp118
Rp119
(dp120
g12
VVBG
p121
sbag0
(g1
g2
(lp122
g0
(g1
g2
(lp123
Va
p124
atp125
Rp126
(dp127
g12
VDT
p128
sbag0
(g1
g2
(lp129
Vkite
p130
atp131
Rp132
(dp133
g12
VNN
p134
sbatp135
Rp136
(dp137
g12
VNP
p138
sbatp139
Rp140
(dp141
g12
VVP
p142
sbatp143
Rp144
(dp145
g12
VS
p146
sbatp147
Rp148
(dp149
g12
VVP
p150
sbag0
(g1
g2
(lp151
V.
p152
atp153
Rp154
(dp155
g12
V.
p156
sbatp157
Rp158
(dp159
g12
VS
p160
sbatp161
Rp162
(dp163
g12
S'id: 1'
p164
sbag0
(g1
g2
(lp165
g0
(g1
g2
(lp166
g0
(g1
g2
(lp167
g0
(g1
g2
(lp168
Va
p169
atp170
Rp171
(dp172
g12
VDT
p173
sbag0
(g1
g2
(lp174
Vsailboat
p175
atp176
Rp177
(dp178
g12
VNN
p179
sbatp180
Rp181
(dp182
g12
VNP
p183
sbag0
(g1
g2
(lp184
g0
(g1
g2
(lp185
Von
p186
atp187
Rp188
(dp189
g12
VIN
p190
sbag0
(g1
g2
(lp191
g0
(g1
g2
(lp192
Vthe
p193
atp194
Rp195
(dp196
g12
VDT
p197
sbag0
(g1
g2
(lp198
Vwater
p199
atp200
Rp201
(dp202
g12
VNN
p203
sbatp204
Rp205
(dp206
g12
VNP
p207
sbatp208
Rp209
(dp210
g12
VPP
p211
sbag0
(g1
g2
(lp212
V.
p213
atp214
Rp215
(dp216
g12
V.
p217
sbatp218
Rp219
(dp220
g12
VNP
p221
sbatp222
Rp223
(dp224
g12
S'id: 2'
p225
sbag0
(g1
g2
(lp226
g0
(g1
g2
(lp227
g0
(g1
g2
(lp228
g0
(g1
g2
(lp229
g0
(g1
g2
(lp230
Va
p231
atp232
Rp233
(dp234
g12
VDT
p235
sbag0
(g1
g2
(lp236
Vgirl
p237
atp238
Rp239
(dp240
g12
VNN
p241
sbag0
(g1
g2
(lp242
Vplaying
p243
atp244
Rp245
(dp246
g12
VNN
p247
sbatp248
Rp249
(dp250
g12
VNP
p251
sbag0
(g1
g2
(lp252
g0
(g1
g2
(lp253
Vin
p254
atp255
Rp256
(dp257
g12
VIN
p258
sbag0
(g1
g2
(lp259
g0
(g1
g2
(lp260
Vthe
p261
atp262
Rp263
(dp264
g12
VDT
p265
sbag0
(g1
g2
(lp266
Vsand
p267
atp268
Rp269
(dp270
g12
VNN
p271
sbatp272
Rp273
(dp274
g12
VNP
p275
sbatp276
Rp277
(dp278
g12
VPP
p279
sbatp280
Rp281
(dp282
g12
VNP
p283
sbag0
(g1
g2
(lp284
V,
p285
atp286
Rp287
(dp288
g12
V,
p289
sbag0
(g1
g2
(lp290
g0
(g1
g2
(lp291
Vbuilding
p292
atp293
Rp294
(dp295
g12
VVBG
p296
sbag0
(g1
g2
(lp297
g0
(g1
g2
(lp298
Va
p299
atp300
Rp301
(dp302
g12
VDT
p303
sbag0
(g1
g2
(lp304
Vsand
p305
atp306
Rp307
(dp308
g12
VNN
p309
sbag0
(g1
g2
(lp310
Vcastle
p311
atp312
Rp313
(dp314
g12
VNN
p315
sbatp316
Rp317
(dp318
g12
VNP
p319
sbatp320
Rp321
(dp322
g12
VVP
p323
sbag0
(g1
g2
(lp324
V.
p325
atp326
Rp327
(dp328
g12
V.
p329
sbatp330
Rp331
(dp332
g12
VS
p333
sbatp334
Rp335
(dp336
g12
S'id: 3'
p337
sbag0
(g1
g2
(lp338
g0
(g1
g2
(lp339
g0
(g1
g2
(lp340
g0
(g1
g2
(lp341
VThere
p342
atp343
Rp344
(dp345
g12
VEX
p346
sbatp347
Rp348
(dp349
g12
VNP
p350
sbag0
(g1
g2
(lp351
g0
(g1
g2
(lp352
V's
p353
atp354
Rp355
(dp356
g12
VVBZ
p357
sbag0
(g1
g2
(lp358
g0
(g1
g2
(lp359
g0
(g1
g2
(lp360
Va
p361
atp362
Rp363
(dp364
g12
VDT
p365
sbag0
(g1
g2
(lp366
Vfellow
p367
atp368
Rp369
(dp370
g12
VJJ
p371
sbag0
(g1
g2
(lp372
Vfishing
p373
atp374
Rp375
(dp376
g12
VNN
p377
sbatp378
Rp379
(dp380
g12
VNP
p381
sbag0
(g1
g2
(lp382
V,
p383
atp384
Rp385
(dp386
g12
V,
p387
sbag0
(g1
g2
(lp388
g0
(g1
g2
(lp389
g0
(g1
g2
(lp390
g0
(g1
g2
(lp391
Vhas
p392
atp393
Rp394
(dp395
g12
VVBZ
p396
sbag0
(g1
g2
(lp397
g0
(g1
g2
(lp398
g0
(g1
g2
(lp399
Va
p400
atp401
Rp402
(dp403
g12
VDT
p404
sbag0
(g1
g2
(lp405
Vfish
p406
atp407
Rp408
(dp409
g12
VNN
p410
sbatp411
Rp412
(dp413
g12
VNP
p414
sbag0
(g1
g2
(lp415
g0
(g1
g2
(lp416
Von
p417
atp418
Rp419
(dp420
g12
VIN
p421
sbag0
(g1
g2
(lp422
g0
(g1
g2
(lp423
g0
(g1
g2
(lp424
Vthe
p425
atp426
Rp427
(dp428
g12
VDT
p429
sbag0
(g1
g2
(lp430
Vline
p431
atp432
Rp433
(dp434
g12
VNN
p435
sbatp436
Rp437
(dp438
g12
VNP
p439
sbag0
(g1
g2
(lp440
g0
(g1
g2
(lp441
Vfrom
p442
atp443
Rp444
(dp445
g12
VIN
p446
sbag0
(g1
g2
(lp447
g0
(g1
g2
(lp448
g0
(g1
g2
(lp449
Va
p450
atp451
Rp452
(dp453
g12
VDT
p454
sbatp455
Rp456
(dp457
g12
VNP
p458
sbag0
(g1
g2
(lp459
V,
p460
atp461
Rp462
(dp463
g12
V,
p464
sbag0
(g1
g2
(lp465
g0
(g1
g2
(lp466
Vpier
p467
atp468
Rp469
(dp470
g12
VNN
p471
sbatp472
Rp473
(dp474
g12
VNP
p475
sbatp476
Rp477
(dp478
g12
VNP
p479
sbatp480
Rp481
(dp482
g12
VPP
p483
sbatp484
Rp485
(dp486
g12
VNP
p487
sbatp488
Rp489
(dp490
g12
VPP
p491
sbatp492
Rp493
(dp494
g12
VNP
p495
sbatp496
Rp497
(dp498
g12
VVP
p499
sbatp500
Rp501
(dp502
g12
VS
p503
sbatp504
Rp505
(dp506
g12
VSBAR
p507
sbatp508
Rp509
(dp510
g12
VNP
p511
sbatp512
Rp513
(dp514
g12
VVP
p515
sbag0
(g1
g2
(lp516
V.
p517
atp518
Rp519
(dp520
g12
V.
p521
sbatp522
Rp523
(dp524
g12
VS
p525
sbatp526
Rp527
(dp528
g12
S'id: 4'
p529
sbag0
(g1
g2
(lp530
g0
(g1
g2
(lp531
g0
(g1
g2
(lp532
g0
(g1
g2
(lp533
VThere
p534
atp535
Rp536
(dp537
g12
VEX
p538
sbatp539
Rp540
(dp541
g12
VNP
p542
sbag0
(g1
g2
(lp543
g0
(g1
g2
(lp544
V's
p545
atp546
Rp547
(dp548
g12
VVBZ
p549
sbag0
(g1
g2
(lp550
g0
(g1
g2
(lp551
g0
(g1
g2
(lp552
Va
p553
atp554
Rp555
(dp556
g12
VDT
p557
sbag0
(g1
g2
(lp558
Vflagpole
p559
atp560
Rp561
(dp562
g12
VNN
p563
sbatp564
Rp565
(dp566
g12
VNP
p567
sbag0
(g1
g2
(lp568
g0
(g1
g2
(lp569
Vwith
p570
atp571
Rp572
(dp573
g12
VIN
p574
sbag0
(g1
g2
(lp575
g0
(g1
g2
(lp576
Va
p577
atp578
Rp579
(dp580
g12
VDT
p581
sbag0
(g1
g2
(lp582
Vflag
p583
atp584
Rp585
(dp586
g12
VNN
p587
sbatp588
Rp589
(dp590
g12
VNP
p591
sbatp592
Rp593
(dp594
g12
VPP
p595
sbatp596
Rp597
(dp598
g12
VNP
p599
sbatp600
Rp601
(dp602
g12
VVP
p603
sbag0
(g1
g2
(lp604
V.
p605
atp606
Rp607
(dp608
g12
V.
p609
sbatp610
Rp611
(dp612
g12
VS
p613
sbatp614
Rp615
(dp616
g12
S'id: 5'
p617
sbag0
(g1
g2
(lp618
g0
(g1
g2
(lp619
g0
(g1
g2
(lp620
g0
(g1
g2
(lp621
g0
(g1
g2
(lp622
VA
p623
atp624
Rp625
(dp626
g12
VDT
p627
sbag0
(g1
g2
(lp628
Vhouse
p629
atp630
Rp631
(dp632
g12
VNN
p633
sbatp634
Rp635
(dp636
g12
VNP
p637
sbag0
(g1
g2
(lp638
g0
(g1
g2
(lp639
Vwith
p640
atp641
Rp642
(dp643
g12
VIN
p644
sbag0
(g1
g2
(lp645
g0
(g1
g2
(lp646
g0
(g1
g2
(lp647
Va
p648
atp649
Rp650
(dp651
g12
VDT
p652
sbag0
(g1
g2
(lp653
Vcar
p654
atp655
Rp656
(dp657
g12
VNN
p658
sbatp659
Rp660
(dp661
g12
VNP
p662
sbag0
(g1
g2
(lp663
g0
(g1
g2
(lp664
Vin
p665
atp666
Rp667
(dp668
g12
VIN
p669
sbag0
(g1
g2
(lp670
g0
(g1
g2
(lp671
g0
(g1
g2
(lp672
Vthe
p673
atp674
Rp675
(dp676
g12
VDT
p677
sbatp678
Rp679
(dp680
g12
VNP
p681
sbag0
(g1
g2
(lp682
V,
p683
atp684
Rp685
(dp686
g12
V,
p687
sbag0
(g1
g2
(lp688
g0
(g1
g2
(lp689
Vgarage
p690
atp691
Rp692
(dp693
g12
VNN
p694
sbatp695
Rp696
(dp697
g12
VNP
p698
sbag0
(g1
g2
(lp699
V,
p700
atp701
Rp702
(dp703
g12
V,
p704
sbag0
(g1
g2
(lp705
Vor
p706
atp707
Rp708
(dp709
g12
VCC
p710
sbag0
(g1
g2
(lp711
g0
(g1
g2
(lp712
Vhalf
p713
atp714
Rp715
(dp716
g12
VNN
p717
sbatp718
Rp719
(dp720
g12
VNP
p721
sbatp722
Rp723
(dp724
g12
VNP
p725
sbatp726
Rp727
(dp728
g12
VPP
p729
sbatp730
Rp731
(dp732
g12
VNP
p733
sbatp734
Rp735
(dp736
g12
VPP
p737
sbatp738
Rp739
(dp740
g12
VNP
p741
sbag0
(g1
g2
(lp742
V,
p743
atp744
Rp745
(dp746
g12
V,
p747
sbag0
(g1
g2
(lp748
g0
(g1
g2
(lp749
Vgoing
p750
atp751
Rp752
(dp753
g12
VVBG
p754
sbag0
(g1
g2
(lp755
g0
(g1
g2
(lp756
Vinto
p757
atp758
Rp759
(dp760
g12
VIN
p761
sbag0
(g1
g2
(lp762
g0
(g1
g2
(lp763
Vthe
p764
atp765
Rp766
(dp767
g12
VDT
p768
sbag0
(g1
g2
(lp769
Vgarage
p770
atp771
Rp772
(dp773
g12
VNN
p774
sbatp775
Rp776
(dp777
g12
VNP
p778
sbatp779
Rp780
(dp781
g12
VPP
p782
sbatp783
Rp784
(dp785
g12
VVP
p786
sbag0
(g1
g2
(lp787
V.
p788
atp789
Rp790
(dp791
g12
V.
p792
sbatp793
Rp794
(dp795
g12
VS
p796
sbatp797
Rp798
(dp799
g12
S'id: 6'
p800
sbag0
(g1
g2
(lp801
g0
(g1
g2
(lp802
g0
(g1
g2
(lp803
g0
(g1
g2
(lp804
VA
p805
atp806
Rp807
(dp808
g12
VDT
p809
sbag0
(g1
g2
(lp810
Vtree
p811
atp812
Rp813
(dp814
g12
VNN
p815
sbatp816
Rp817
(dp818
g12
VNP
p819
sbag0
(g1
g2
(lp820
g0
(g1
g2
(lp821
Vin
p822
atp823
Rp824
(dp825
g12
VIN
p826
sbag0
(g1
g2
(lp827
g0
(g1
g2
(lp828
Vthe
p829
atp830
Rp831
(dp832
g12
VDT
p833
sbag0
(g1
g2
(lp834
Vfront
p835
atp836
Rp837
(dp838
g12
VNN
p839
sbatp840
Rp841
(dp842
g12
VNP
p843
sbatp844
Rp845
(dp846
g12
VPP
p847
sbag0
(g1
g2
(lp848
V.
p849
atp850
Rp851
(dp852
g12
V.
p853
sbatp854
Rp855
(dp856
g12
VNP
p857
sbatp858
Rp859
(dp860
g12
S'id: 7'
p861
sbag0
(g1
g2
(lp862
g0
(g1
g2
(lp863
g0
(g1
g2
(lp864
g0
(g1
g2
(lp865
g0
(g1
g2
(lp866
VMom
p867
atp868
Rp869
(dp870
g12
VNN
p871
sbag0
(g1
g2
(lp872
Vand
p873
atp874
Rp875
(dp876
g12
VCC
p877
sbag0
(g1
g2
(lp878
Vdad
p879
atp880
Rp881
(dp882
g12
VNN
p883
sbatp884
Rp885
(dp886
g12
VNP
p887
sbag0
(g1
g2
(lp888
V,
p889
atp890
Rp891
(dp892
g12
V,
p893
sbag0
(g1
g2
(lp894
g0
(g1
g2
(lp895
g0
(g1
g2
(lp896
Vdad
p897
atp898
Rp899
(dp900
g12
VNN
p901
sbatp902
Rp903
(dp904
g12
VNP
p905
sbag0
(g1
g2
(lp906
V's
p907
atp908
Rp909
(dp910
g12
VPOS
p911
sbatp912
Rp913
(dp914
g12
VNP
p915
sbatp916
Rp917
(dp918
g12
VNP
p919
sbag0
(g1
g2
(lp920
g0
(g1
g2
(lp921
g0
(g1
g2
(lp922
g0
(g1
g2
(lp923
g0
(g1
g2
(lp924
Venjoying
p925
atp926
Rp927
(dp928
g12
VVBG
p929
sbag0
(g1
g2
(lp930
g0
(g1
g2
(lp931
Va
p932
atp933
Rp934
(dp935
g12
VDT
p936
sbag0
(g1
g2
(lp937
Vbook
p938
atp939
Rp940
(dp941
g12
VNN
p942
sbatp943
Rp944
(dp945
g12
VNP
p946
sbatp947
Rp948
(dp949
g12
VVP
p950
sbatp951
Rp952
(dp953
g12
VS
p954
sbag0
(g1
g2
(lp955
V,
p956
atp957
Rp958
(dp959
g12
V,
p960
sbag0
(g1
g2
(lp961
g0
(g1
g2
(lp962
Vgot
p963
atp964
Rp965
(dp966
g12
VVBD
p967
sbag0
(g1
g2
(lp968
g0
(g1
g2
(lp969
Vhis
p970
atp971
Rp972
(dp973
g12
VPRP$
p974
sbag0
(g1
g2
(lp975
Vshoes
p976
atp977
Rp978
(dp979
g12
VNNS
p980
sbatp981
Rp982
(dp983
g12
VNP
p984
sbag0
(g1
g2
(lp985
g0
(g1
g2
(lp986
Voff
p987
atp988
Rp989
(dp990
g12
VRP
p991
sbatp992
Rp993
(dp994
g12
VPRT
p995
sbatp996
Rp997
(dp998
g12
VVP
p999
sbatp1000
Rp1001
(dp1002
g12
VVP
p1003
sbag0
(g1
g2
(lp1004
V,
p1005
atp1006
Rp1007
(dp1008
g12
V,
p1009
sbag0
(g1
g2
(lp1010
g0
(g1
g2
(lp1011
g0
(g1
g2
(lp1012
Vhis
p1013
atp1014
Rp1015
(dp1016
g12
VPRP$
p1017
sbag0
(g1
g2
(lp1018
Vsandals
p1019
atp1020
Rp1021
(dp1022
g12
VNNS
p1023
sbatp1024
Rp1025
(dp1026
g12
VNP
p1027
sbag0
(g1
g2
(lp1028
g0
(g1
g2
(lp1029
Voff
p1030
atp1031
Rp1032
(dp1033
g12
VRP
p1034
sbatp1035
Rp1036
(dp1037
g12
VPP
p1038
sbatp1039
Rp1040
(dp1041
g12
VVP
p1042
sbatp1043
Rp1044
(dp1045
g12
VVP
p1046
sbag0
(g1
g2
(lp1047
V.
p1048
atp1049
Rp1050
(dp1051
g12
V.
p1052
sbatp1053
Rp1054
(dp1055
g12
VS
p1056
sbatp1057
Rp1058
(dp1059
g12
S'id: 8'
p1060
sbag0
(g1
g2
(lp1061
g0
(g1
g2
(lp1062
g0
(g1
g2
(lp1063
g0
(g1
g2
(lp1064
g0
(g1
g2
(lp1065
Vmom
p1066
atp1067
Rp1068
(dp1069
g12
VNN
p1070
sbatp1071
Rp1072
(dp1073
g12
VNP
p1074
sbag0
(g1
g2
(lp1075
g0
(g1
g2
(lp1076
Vis
p1077
atp1078
Rp1079
(dp1080
g12
VVBZ
p1081
sbag0
(g1
g2
(lp1082
g0
(g1
g2
(lp1083
Vpouring
p1084
atp1085
Rp1086
(dp1087
g12
VVBG
p1088
sbatp1089
Rp1090
(dp1091
g12
VVP
p1092
sbatp1093
Rp1094
(dp1095
g12
VVP
p1096
sbatp1097
Rp1098
(dp1099
g12
VS
p1100
sbag0
(g1
g2
(lp1101
V,
p1102
atp1103
Rp1104
(dp1105
g12
V,
p1106
sbag0
(g1
g2
(lp1107
g0
(g1
g2
(lp1108
Vwe
p1109
atp1110
Rp1111
(dp1112
g12
VPRP
p1113
sbatp1114
Rp1115
(dp1116
g12
VNP
p1117
sbag0
(g1
g2
(lp1118
g0
(g1
g2
(lp1119
V'll
p1120
atp1121
Rp1122
(dp1123
g12
VMD
p1124
sbag0
(g1
g2
(lp1125
g0
(g1
g2
(lp1126
Vsay
p1127
atp1128
Rp1129
(dp1130
g12
VVB
p1131
sbag0
(g1
g2
(lp1132
g0
(g1
g2
(lp1133
Vwine
p1134
atp1135
Rp1136
(dp1137
g12
VNN
p1138
sbatp1139
Rp1140
(dp1141
g12
VNP
p1142
sbatp1143
Rp1144
(dp1145
g12
VVP
p1146
sbatp1147
Rp1148
(dp1149
g12
VVP
p1150
sbag0
(g1
g2
(lp1151
V.
p1152
atp1153
Rp1154
(dp1155
g12
V.
p1156
sbatp1157
Rp1158
(dp1159
g12
VS
p1160
sbatp1161
Rp1162
(dp1163
g12
S'id: 9'
p1164
sbag0
(g1
g2
(lp1165
g0
(g1
g2
(lp1166
g0
(g1
g2
(lp1167
g0
(g1
g2
(lp1168
Vpicnic
p1169
atp1170
Rp1171
(dp1172
g12
VNN
p1173
sbag0
(g1
g2
(lp1174
Vbasket
p1175
atp1176
Rp1177
(dp1178
g12
VNN
p1179
sbatp1180
Rp1181
(dp1182
g12
VNP
p1183
sbag0
(g1
g2
(lp1184
V,
p1185
atp1186
Rp1187
(dp1188
g12
V,
p1189
sbag0
(g1
g2
(lp1190
g0
(g1
g2
(lp1191
Vshe
p1192
atp1193
Rp1194
(dp1195
g12
VPRP
p1196
sbatp1197
Rp1198
(dp1199
g12
VNP
p1200
sbag0
(g1
g2
(lp1201
g0
(g1
g2
(lp1202
V's
p1203
atp1204
Rp1205
(dp1206
g12
VVBZ
p1207
sbag0
(g1
g2
(lp1208
g0
(g1
g2
(lp1209
Vgot
p1210
atp1211
Rp1212
(dp1213
g12
VVBD
p1214
sbag0
(g1
g2
(lp1215
g0
(g1
g2
(lp1216
Vsome
p1217
atp1218
Rp1219
(dp1220
g12
VDT
p1221
sbag0
(g1
g2
(lp1222
Vmusic
p1223
atp1224
Rp1225
(dp1226
g12
VNN
p1227
sbag0
(g1
g2
(lp1228
Vplaying
p1229
atp1230
Rp1231
(dp1232
g12
VNN
p1233
sbatp1234
Rp1235
(dp1236
g12
VNP
p1237
sbag0
(g1
g2
(lp1238
g0
(g1
g2
(lp1239
Von
p1240
atp1241
Rp1242
(dp1243
g12
VIN
p1244
sbag0
(g1
g2
(lp1245
g0
(g1
g2
(lp1246
Vthe
p1247
atp1248
Rp1249
(dp1250
g12
VDT
p1251
sbag0
(g1
g2
(lp1252
Vradio
p1253
atp1254
Rp1255
(dp1256
g12
VNN
p1257
sbatp1258
Rp1259
(dp1260
g12
VNP
p1261
sbatp1262
Rp1263
(dp1264
g12
VPP
p1265
sbatp1266
Rp1267
(dp1268
g12
VVP
p1269
sbatp1270
Rp1271
(dp1272
g12
VVP
p1273
sbag0
(g1
g2
(lp1274
V.
p1275
atp1276
Rp1277
(dp1278
g12
V.
p1279
sbatp1280
Rp1281
(dp1282
g12
VS
p1283
sbatp1284
Rp1285
(dp1286
g12
S'id: 10'
p1287
sbag0
(g1
g2
(lp1288
g0
(g1
g2
(lp1289
g0
(g1
g2
(lp1290
Vand
p1291
atp1292
Rp1293
(dp1294
g12
VCC
p1295
sbag0
(g1
g2
(lp1296
g0
(g1
g2
(lp1297
g0
(g1
g2
(lp1298
Vthey
p1299
atp1300
Rp1301
(dp1302
g12
VPRP
p1303
sbatp1304
Rp1305
(dp1306
g12
VNP
p1307
sbag0
(g1
g2
(lp1308
g0
(g1
g2
(lp1309
g0
(g1
g2
(lp1310
g0
(g1
g2
(lp1311
Vhaving
p1312
atp1313
Rp1314
(dp1315
g12
VVBG
p1316
sbag0
(g1
g2
(lp1317
g0
(g1
g2
(lp1318
g0
(g1
g2
(lp1319
Vjust
p1320
atp1321
Rp1322
(dp1323
g12
VRB
p1324
sbag0
(g1
g2
(lp1325
Va
p1326
atp1327
Rp1328
(dp1329
g12
VDT
p1330
sbag0
(g1
g2
(lp1331
Vnice
p1332
atp1333
Rp1334
(dp1335
g12
VJJ
p1336
sbag0
(g1
g2
(lp1337
Vfun
p1338
atp1339
Rp1340
(dp1341
g12
VNN
p1342
sbag0
(g1
g2
(lp1343
Vfamily
p1344
atp1345
Rp1346
(dp1347
g12
VNN
p1348
sbag0
(g1
g2
(lp1349
Vouting
p1350
atp1351
Rp1352
(dp1353
g12
VNN
p1354
sbatp1355
Rp1356
(dp1357
g12
VNP
p1358
sbag0
(g1
g2
(lp1359
V,
p1360
atp1361
Rp1362
(dp1363
g12
V,
p1364
sbag0
(g1
g2
(lp1365
g0
(g1
g2
(lp1366
Von
p1367
atp1368
Rp1369
(dp1370
g12
VIN
p1371
sbag0
(g1
g2
(lp1372
g0
(g1
g2
(lp1373
Va
p1374
atp1375
Rp1376
(dp1377
g12
VDT
p1378
sbag0
(g1
g2
(lp1379
Vpretty
p1380
atp1381
Rp1382
(dp1383
g12
VJJ
p1384
sbag0
(g1
g2
(lp1385
Vday
p1386
atp1387
Rp1388
(dp1389
g12
VNN
p1390
sbatp1391
Rp1392
(dp1393
g12
VNP
p1394
sbatp1395
Rp1396
(dp1397
g12
VPP
p1398
sbatp1399
Rp1400
(dp1401
g12
VNP
p1402
sbatp1403
Rp1404
(dp1405
g12
VVP
p1406
sbatp1407
Rp1408
(dp1409
g12
VS
p1410
sbatp1411
Rp1412
(dp1413
g12
VSBAR
p1414
sbag0
(g1
g2
(lp1415
V.
p1416
atp1417
Rp1418
(dp1419
g12
V.
p1420
sbatp1421
Rp1422
(dp1423
g12
VNP
p1424
sbatp1425
Rp1426
(dp1427
g12
VFRAG
p1428
sbatp1429
Rp1430
(dp1431
g12
S'id: 11'
p1432
sbatp1433
Rp1434
(dp1435
g12
S'sentences'
p1436
sb.