ccopy_reg
_reconstructor
p0
(cnltk.tree
Tree
p1
c__builtin__
list
p2
(lp3
g0
(g1
g2
(lp4
g0
(g1
g2
(lp5
g0
(g1
g2
(lp6
Vthis
p7
atp8
Rp9
(dp10
S'_label'
p11
S'start: 1'
p12
sbatp13
Rp14
(dp15
g11
S'sent: 1'
p16
sbag0
(g1
g2
(lp17
g0
(g1
g2
(lp18
Va circus with a clown
p19
atp20
Rp21
(dp22
g11
S'start: 3'
p23
sbatp24
Rp25
(dp26
g11
S'sent: 1'
p27
sbatp28
Rp29
(dp30
g11
S'id: 1'
p31
sbag0
(g1
g2
(lp32
g0
(g1
g2
(lp33
g0
(g1
g2
(lp34
Va clown
p35
atp36
Rp37
(dp38
g11
S'start: 6'
p39
sbatp40
Rp41
(dp42
g11
S'sent: 1'
p43
sbag0
(g1
g2
(lp44
g0
(g1
g2
(lp45
Vthe clown
p46
atp47
Rp48
(dp49
g11
S'start: 15'
p50
sbatp51
Rp52
(dp53
g11
S'sent: 7'
p54
sbag0
(g1
g2
(lp55
g0
(g1
g2
(lp56
Vthe clown
p57
atp58
Rp59
(dp60
g11
S'start: 17'
p61
sbatp62
Rp63
(dp64
g11
S'sent: 8'
p65
sbatp66
Rp67
(dp68
g11
S'id: 3'
p69
sbag0
(g1
g2
(lp70
g0
(g1
g2
(lp71
g0
(g1
g2
(lp72
Va lady on a horse in the ring .
p73
atp74
Rp75
(dp76
g11
S'start: 1'
p77
sbatp78
Rp79
(dp80
g11
S'sent: 5'
p81
sbag0
(g1
g2
(lp82
g0
(g1
g2
(lp83
Vher
p84
atp85
Rp86
(dp87
g11
S'start: 3'
p88
sbatp89
Rp90
(dp91
g11
S'sent: 6'
p92
sbatp93
Rp94
(dp95
g11
S'id: 12'
p96
sbag0
(g1
g2
(lp97
g0
(g1
g2
(lp98
g0
(g1
g2
(lp99
Vthe left
p100
atp101
Rp102
(dp103
g11
S'start: 13'
p104
sbatp105
Rp106
(dp107
g11
S'sent: 8'
p108
sbag0
(g1
g2
(lp109
g0
(g1
g2
(lp110
Vthe left
p111
atp112
Rp113
(dp114
g11
S'start: 4'
p115
sbatp116
Rp117
(dp118
g11
S'sent: 10'
p119
sbatp120
Rp121
(dp122
g11
S'id: 22'
p123
sbag0
(g1
g2
(lp124
g0
(g1
g2
(lp125
g0
(g1
g2
(lp126
Vthe guy on the left
p127
atp128
Rp129
(dp130
g11
S'start: 1'
p131
sbatp132
Rp133
(dp134
g11
S'sent: 10'
p135
sbag0
(g1
g2
(lp136
g0
(g1
g2
(lp137
Vhis
p138
atp139
Rp140
(dp141
g11
S'start: 13'
p142
sbatp143
Rp144
(dp145
g11
S'sent: 10'
p146
sbatp147
Rp148
(dp149
g11
S'id: 24'
p150
sbag0
(g1
g2
(lp151
g0
(g1
g2
(lp152
g0
(g1
g2
(lp153
Vi
p154
atp155
Rp156
(dp157
g11
S'start: 9'
p158
sbatp159
Rp160
(dp161
g11
S'sent: 10'
p162
sbag0
(g1
g2
(lp163
g0
(g1
g2
(lp164
Vi
p165
atp166
Rp167
(dp168
g11
S'start: 1'
p169
sbatp170
Rp171
(dp172
g11
S'sent: 11'
p173
sbatp174
Rp175
(dp176
g11
S'id: 26'
p177
sbatp178
Rp179
(dp180
g11
S'coreferences'
p181
sb.