ccopy_reg
_reconstructor
p0
(cnltk.tree
Tree
p1
c__builtin__
list
p2
(lp3
g0
(g1
g2
(lp4
g0
(g1
g2
(lp5
g0
(g1
g2
(lp6
g0
(g1
g2
(lp7
Vthis
p8
atp9
Rp10
(dp11
S'_label'
p12
VDT
p13
sbatp14
Rp15
(dp16
g12
VNP
p17
sbag0
(g1
g2
(lp18
g0
(g1
g2
(lp19
Vis
p20
atp21
Rp22
(dp23
g12
VVBZ
p24
sbag0
(g1
g2
(lp25
g0
(g1
g2
(lp26
g0
(g1
g2
(lp27
Va
p28
atp29
Rp30
(dp31
g12
VDT
p32
sbag0
(g1
g2
(lp33
Vcircus
p34
atp35
Rp36
(dp37
g12
VNN
p38
sbatp39
Rp40
(dp41
g12
VNP
p42
sbag0
(g1
g2
(lp43
g0
(g1
g2
(lp44
Vwith
p45
atp46
Rp47
(dp48
g12
VIN
p49
sbag0
(g1
g2
(lp50
g0
(g1
g2
(lp51
Va
p52
atp53
Rp54
(dp55
g12
VDT
p56
sbag0
(g1
g2
(lp57
Vclown
p58
atp59
Rp60
(dp61
g12
VNN
p62
sbatp63
Rp64
(dp65
g12
VNP
p66
sbatp67
Rp68
(dp69
g12
VPP
p70
sbatp71
Rp72
(dp73
g12
VNP
p74
sbatp75
Rp76
(dp77
g12
VVP
p78
sbag0
(g1
g2
(lp79
V.
p80
atp81
Rp82
(dp83
g12
V.
p84
sbatp85
Rp86
(dp87
g12
VS
p88
sbatp89
Rp90
(dp91
g12
S'id: 0'
p92
sbag0
(g1
g2
(lp93
g0
(g1
g2
(lp94
g0
(g1
g2
(lp95
g0
(g1
g2
(lp96
Vgot
p97
atp98
Rp99
(dp100
g12
VVBD
p101
sbag0
(g1
g2
(lp102
g0
(g1
g2
(lp103
Va
p104
atp105
Rp106
(dp107
g12
VDT
p108
sbag0
(g1
g2
(lp109
g0
(g1
g2
(lp110
V,
p111
atp112
Rp113
(dp114
g12
V,
p115
sbag0
(g1
g2
(lp116
g0
(g1
g2
(lp117
g0
(g1
g2
(lp118
Vlion
p119
atp120
Rp121
(dp122
g12
VNN
p123
sbatp124
Rp125
(dp126
g12
VNP
p127
sbag0
(g1
g2
(lp128
g0
(g1
g2
(lp129
Vwith
p130
atp131
Rp132
(dp133
g12
VIN
p134
sbag0
(g1
g2
(lp135
g0
(g1
g2
(lp136
g0
(g1
g2
(lp137
Vthe
p138
atp139
Rp140
(dp141
g12
VDT
p142
sbatp143
Rp144
(dp145
g12
VNP
p146
sbag0
(g1
g2
(lp147
g0
(g1
g2
(lp148
Vin
p149
atp150
Rp151
(dp152
g12
VIN
p153
sbag0
(g1
g2
(lp154
g0
(g1
g2
(lp155
Vthe
p156
atp157
Rp158
(dp159
g12
VDT
p160
sbatp161
Rp162
(dp163
g12
VNP
p164
sbatp165
Rp166
(dp167
g12
VPP
p168
sbatp169
Rp170
(dp171
g12
VNP
p172
sbatp173
Rp174
(dp175
g12
VPP
p176
sbatp177
Rp178
(dp179
g12
VNP
p180
sbag0
(g1
g2
(lp181
V,
p182
atp183
Rp184
(dp185
g12
V,
p186
sbatp187
Rp188
(dp189
g12
VPRN
p190
sbatp191
Rp192
(dp193
g12
VNP
p194
sbag0
(g1
g2
(lp195
g0
(g1
g2
(lp196
Vin
p197
atp198
Rp199
(dp200
g12
VIN
p201
sbag0
(g1
g2
(lp202
g0
(g1
g2
(lp203
Vwith
p204
atp205
Rp206
(dp207
g12
VIN
p208
sbag0
(g1
g2
(lp209
g0
(g1
g2
(lp210
Vthe
p211
atp212
Rp213
(dp214
g12
VDT
p215
sbag0
(g1
g2
(lp216
Vtrainer
p217
atp218
Rp219
(dp220
g12
VNN
p221
sbatp222
Rp223
(dp224
g12
VNP
p225
sbatp226
Rp227
(dp228
g12
VPP
p229
sbatp230
Rp231
(dp232
g12
VPP
p233
sbatp234
Rp235
(dp236
g12
VVP
p237
sbag0
(g1
g2
(lp238
V.
p239
atp240
Rp241
(dp242
g12
V.
p243
sbatp244
Rp245
(dp246
g12
VS
p247
sbatp248
Rp249
(dp250
g12
S'id: 1'
p251
sbag0
(g1
g2
(lp252
g0
(g1
g2
(lp253
g0
(g1
g2
(lp254
g0
(g1
g2
(lp255
Vtightrope
p256
atp257
Rp258
(dp259
g12
VNN
p260
sbatp261
Rp262
(dp263
g12
VNP
p264
sbag0
(g1
g2
(lp265
g0
(g1
g2
(lp266
Vwalker
p267
atp268
Rp269
(dp270
g12
VNN
p271
sbatp272
Rp273
(dp274
g12
VNP
p275
sbag0
(g1
g2
(lp276
V.
p277
atp278
Rp279
(dp280
g12
V.
p281
sbatp282
Rp283
(dp284
g12
VNP
p285
sbatp286
Rp287
(dp288
g12
S'id: 2'
p289
sbag0
(g1
g2
(lp290
g0
(g1
g2
(lp291
g0
(g1
g2
(lp292
g0
(g1
g2
(lp293
g0
(g1
g2
(lp294
Vpeople
p295
atp296
Rp297
(dp298
g12
VNNS
p299
sbatp300
Rp301
(dp302
g12
VNP
p303
sbag0
(g1
g2
(lp304
g0
(g1
g2
(lp305
Vin
p306
atp307
Rp308
(dp309
g12
VIN
p310
sbag0
(g1
g2
(lp311
g0
(g1
g2
(lp312
Vthe
p313
atp314
Rp315
(dp316
g12
VDT
p317
sbag0
(g1
g2
(lp318
Vpark
p319
atp320
Rp321
(dp322
g12
VNN
p323
sbatp324
Rp325
(dp326
g12
VNP
p327
sbatp328
Rp329
(dp330
g12
VPP
p331
sbatp332
Rp333
(dp334
g12
VNP
p335
sbag0
(g1
g2
(lp336
g0
(g1
g2
(lp337
Vlooking
p338
atp339
Rp340
(dp341
g12
VVBG
p342
sbag0
(g1
g2
(lp343
g0
(g1
g2
(lp344
Von
p345
atp346
Rp347
(dp348
g12
VIN
p349
sbatp350
Rp351
(dp352
g12
VPP
p353
sbatp354
Rp355
(dp356
g12
VVP
p357
sbag0
(g1
g2
(lp358
V.
p359
atp360
Rp361
(dp362
g12
V.
p363
sbatp364
Rp365
(dp366
g12
VNP
p367
sbatp368
Rp369
(dp370
g12
S'id: 3'
p371
sbag0
(g1
g2
(lp372
g0
(g1
g2
(lp373
g0
(g1
g2
(lp374
g0
(g1
g2
(lp375
Va
p376
atp377
Rp378
(dp379
g12
VDT
p380
sbag0
(g1
g2
(lp381
Vlady
p382
atp383
Rp384
(dp385
g12
VNN
p386
sbatp387
Rp388
(dp389
g12
VNP
p390
sbag0
(g1
g2
(lp391
g0
(g1
g2
(lp392
Von
p393
atp394
Rp395
(dp396
g12
VIN
p397
sbag0
(g1
g2
(lp398
g0
(g1
g2
(lp399
Va
p400
atp401
Rp402
(dp403
g12
VDT
p404
sbag0
(g1
g2
(lp405
Vhorse
p406
atp407
Rp408
(dp409
g12
VNN
p410
sbatp411
Rp412
(dp413
g12
VNP
p414
sbatp415
Rp416
(dp417
g12
VPP
p418
sbag0
(g1
g2
(lp419
g0
(g1
g2
(lp420
Vin
p421
atp422
Rp423
(dp424
g12
VIN
p425
sbag0
(g1
g2
(lp426
g0
(g1
g2
(lp427
Vthe
p428
atp429
Rp430
(dp431
g12
VDT
p432
sbag0
(g1
g2
(lp433
Vring
p434
atp435
Rp436
(dp437
g12
VNN
p438
sbatp439
Rp440
(dp441
g12
VNP
p442
sbatp443
Rp444
(dp445
g12
VPP
p446
sbag0
(g1
g2
(lp447
V.
p448
atp449
Rp450
(dp451
g12
V.
p452
sbatp453
Rp454
(dp455
g12
VNP
p456
sbatp457
Rp458
(dp459
g12
S'id: 4'
p460
sbag0
(g1
g2
(lp461
g0
(g1
g2
(lp462
g0
(g1
g2
(lp463
g0
(g1
g2
(lp464
Vlady
p465
atp466
Rp467
(dp468
g12
VNN
p469
sbatp470
Rp471
(dp472
g12
VNP
p473
sbag0
(g1
g2
(lp474
g0
(g1
g2
(lp475
Vwith
p476
atp477
Rp478
(dp479
g12
VIN
p480
sbag0
(g1
g2
(lp481
g0
(g1
g2
(lp482
Vher
p483
atp484
Rp485
(dp486
g12
VPRP$
p487
sbag0
(g1
g2
(lp488
Vbaby
p489
atp490
Rp491
(dp492
g12
VNN
p493
sbag0
(g1
g2
(lp494
Vand
p495
atp496
Rp497
(dp498
g12
VCC
p499
sbag0
(g1
g2
(lp500
Vchild
p501
atp502
Rp503
(dp504
g12
VNN
p505
sbatp506
Rp507
(dp508
g12
VNP
p509
sbatp510
Rp511
(dp512
g12
VPP
p513
sbag0
(g1
g2
(lp514
V.
p515
atp516
Rp517
(dp518
g12
V.
p519
sbatp520
Rp521
(dp522
g12
VNP
p523
sbatp524
Rp525
(dp526
g12
S'id: 5'
p527
sbag0
(g1
g2
(lp528
g0
(g1
g2
(lp529
g0
(g1
g2
(lp530
g0
(g1
g2
(lp531
VLooks
p532
atp533
Rp534
(dp535
g12
VVBZ
p536
sbag0
(g1
g2
(lp537
g0
(g1
g2
(lp538
Vlike
p539
atp540
Rp541
(dp542
g12
VIN
p543
sbag0
(g1
g2
(lp544
g0
(g1
g2
(lp545
g0
(g1
g2
(lp546
Vthe
p547
atp548
Rp549
(dp550
g12
VDT
p551
sbag0
(g1
g2
(lp552
Vpopcorn
p553
atp554
Rp555
(dp556
g12
VNN
p557
sbatp558
Rp559
(dp560
g12
VNP
p561
sbag0
(g1
g2
(lp562
g0
(g1
g2
(lp563
Vis
p564
atp565
Rp566
(dp567
g12
VVBZ
p568
sbag0
(g1
g2
(lp569
g0
(g1
g2
(lp570
Vbeing
p571
atp572
Rp573
(dp574
g12
VVBG
p575
sbag0
(g1
g2
(lp576
g0
(g1
g2
(lp577
g0
(g1
g2
(lp578
Vthrown
p579
atp580
Rp581
(dp582
g12
VVBN
p583
sbag0
(g1
g2
(lp584
g0
(g1
g2
(lp585
Vout
p586
atp587
Rp588
(dp589
g12
VRP
p590
sbatp591
Rp592
(dp593
g12
VPRT
p594
sbatp595
Rp596
(dp597
g12
VVP
p598
sbag0
(g1
g2
(lp599
Vor
p600
atp601
Rp602
(dp603
g12
VCC
p604
sbag0
(g1
g2
(lp605
g0
(g1
g2
(lp606
g0
(g1
g2
(lp607
Vcandy
p608
atp609
Rp610
(dp611
g12
VNN
p612
sbag0
(g1
g2
(lp613
g0
(g1
g2
(lp614
Vto
p615
atp616
Rp617
(dp618
g12
VTO
p619
sbag0
(g1
g2
(lp620
g0
(g1
g2
(lp621
Vthe
p622
atp623
Rp624
(dp625
g12
VDT
p626
sbag0
(g1
g2
(lp627
Vkid
p628
atp629
Rp630
(dp631
g12
VNN
p632
sbatp633
Rp634
(dp635
g12
VNP
p636
sbatp637
Rp638
(dp639
g12
VPP
p640
sbatp641
Rp642
(dp643
g12
VADJP
p644
sbag0
(g1
g2
(lp645
g0
(g1
g2
(lp646
Vfrom
p647
atp648
Rp649
(dp650
g12
VIN
p651
sbag0
(g1
g2
(lp652
g0
(g1
g2
(lp653
Vthe
p654
atp655
Rp656
(dp657
g12
VDT
p658
sbag0
(g1
g2
(lp659
Vclown
p660
atp661
Rp662
(dp663
g12
VNN
p664
sbatp665
Rp666
(dp667
g12
VNP
p668
sbatp669
Rp670
(dp671
g12
VPP
p672
sbatp673
Rp674
(dp675
g12
VVP
p676
sbatp677
Rp678
(dp679
g12
VVP
p680
sbatp681
Rp682
(dp683
g12
VVP
p684
sbatp685
Rp686
(dp687
g12
VVP
p688
sbatp689
Rp690
(dp691
g12
VS
p692
sbatp693
Rp694
(dp695
g12
VSBAR
p696
sbatp697
Rp698
(dp699
g12
VVP
p700
sbag0
(g1
g2
(lp701
V.
p702
atp703
Rp704
(dp705
g12
V.
p706
sbatp707
Rp708
(dp709
g12
VS
p710
sbatp711
Rp712
(dp713
g12
S'id: 6'
p714
sbag0
(g1
g2
(lp715
g0
(g1
g2
(lp716
g0
(g1
g2
(lp717
Vand
p718
atp719
Rp720
(dp721
g12
VCC
p722
sbag0
(g1
g2
(lp723
g0
(g1
g2
(lp724
Vthere
p725
atp726
Rp727
(dp728
g12
VEX
p729
sbatp730
Rp731
(dp732
g12
VNP
p733
sbag0
(g1
g2
(lp734
g0
(g1
g2
(lp735
V's
p736
atp737
Rp738
(dp739
g12
VVBZ
p740
sbag0
(g1
g2
(lp741
g0
(g1
g2
(lp742
g0
(g1
g2
(lp743
Va
p744
atp745
Rp746
(dp747
g12
VDT
p748
sbag0
(g1
g2
(lp749
Vlittle
p750
atp751
Rp752
(dp753
g12
VJJ
p754
sbag0
(g1
g2
(lp755
Vgirl
p756
atp757
Rp758
(dp759
g12
VNN
p760
sbatp761
Rp762
(dp763
g12
VNP
p764
sbag0
(g1
g2
(lp765
g0
(g1
g2
(lp766
g0
(g1
g2
(lp767
Vwho
p768
atp769
Rp770
(dp771
g12
VWP
p772
sbatp773
Rp774
(dp775
g12
VWHNP
p776
sbag0
(g1
g2
(lp777
g0
(g1
g2
(lp778
g0
(g1
g2
(lp779
V's
p780
atp781
Rp782
(dp783
g12
VVBZ
p784
sbag0
(g1
g2
(lp785
g0
(g1
g2
(lp786
Vlookin
p787
atp788
Rp789
(dp790
g12
VVBG
p791
sbag0
(g1
g2
(lp792
V'
p793
atp794
Rp795
(dp796
g12
V''
p797
sbag0
(g1
g2
(lp798
g0
(g1
g2
(lp799
Von
p800
atp801
Rp802
(dp803
g12
VIN
p804
sbag0
(g1
g2
(lp805
g0
(g1
g2
(lp806
Vfrom
p807
atp808
Rp809
(dp810
g12
VIN
p811
sbag0
(g1
g2
(lp812
g0
(g1
g2
(lp813
Vthe
p814
atp815
Rp816
(dp817
g12
VDT
p818
sbag0
(g1
g2
(lp819
Vleft
p820
atp821
Rp822
(dp823
g12
VJJ
p824
sbatp825
Rp826
(dp827
g12
VNP
p828
sbatp829
Rp830
(dp831
g12
VPP
p832
sbatp833
Rp834
(dp835
g12
VPP
p836
sbag0
(g1
g2
(lp837
g0
(g1
g2
(lp838
g0
(g1
g2
(lp839
Vpointing
p840
atp841
Rp842
(dp843
g12
VVBG
p844
sbag0
(g1
g2
(lp845
g0
(g1
g2
(lp846
Vat
p847
atp848
Rp849
(dp850
g12
VIN
p851
sbag0
(g1
g2
(lp852
g0
(g1
g2
(lp853
Vthe
p854
atp855
Rp856
(dp857
g12
VDT
p858
sbag0
(g1
g2
(lp859
Vclown
p860
atp861
Rp862
(dp863
g12
VNN
p864
sbatp865
Rp866
(dp867
g12
VNP
p868
sbatp869
Rp870
(dp871
g12
VPP
p872
sbatp873
Rp874
(dp875
g12
VVP
p876
sbatp877
Rp878
(dp879
g12
VS
p880
sbatp881
Rp882
(dp883
g12
VVP
p884
sbatp885
Rp886
(dp887
g12
VVP
p888
sbatp889
Rp890
(dp891
g12
VS
p892
sbatp893
Rp894
(dp895
g12
VSBAR
p896
sbatp897
Rp898
(dp899
g12
VNP
p900
sbatp901
Rp902
(dp903
g12
VVP
p904
sbag0
(g1
g2
(lp905
V.
p906
atp907
Rp908
(dp909
g12
V.
p910
sbatp911
Rp912
(dp913
g12
VS
p914
sbatp915
Rp916
(dp917
g12
S'id: 7'
p918
sbag0
(g1
g2
(lp919
g0
(g1
g2
(lp920
g0
(g1
g2
(lp921
g0
(g1
g2
(lp922
g0
(g1
g2
(lp923
Vand
p924
atp925
Rp926
(dp927
g12
VCC
p928
sbatp929
Rp930
(dp931
g12
VADVP
p932
sbatp933
Rp934
(dp935
g12
VVP
p936
sbag0
(g1
g2
(lp937
V.
p938
atp939
Rp940
(dp941
g12
V.
p942
sbatp943
Rp944
(dp945
g12
VS
p946
sbatp947
Rp948
(dp949
g12
S'id: 8'
p950
sbag0
(g1
g2
(lp951
g0
(g1
g2
(lp952
g0
(g1
g2
(lp953
g0
(g1
g2
(lp954
g0
(g1
g2
(lp955
g0
(g1
g2
(lp956
Vthe
p957
atp958
Rp959
(dp960
g12
VDT
p961
sbag0
(g1
g2
(lp962
Vguy
p963
atp964
Rp965
(dp966
g12
VNN
p967
sbatp968
Rp969
(dp970
g12
VNP
p971
sbag0
(g1
g2
(lp972
g0
(g1
g2
(lp973
Von
p974
atp975
Rp976
(dp977
g12
VIN
p978
sbag0
(g1
g2
(lp979
g0
(g1
g2
(lp980
Vthe
p981
atp982
Rp983
(dp984
g12
VDT
p985
sbag0
(g1
g2
(lp986
Vleft
p987
atp988
Rp989
(dp990
g12
VNN
p991
sbatp992
Rp993
(dp994
g12
VNP
p995
sbatp996
Rp997
(dp998
g12
VPP
p999
sbatp1000
Rp1001
(dp1002
g12
VNP
p1003
sbag0
(g1
g2
(lp1004
g0
(g1
g2
(lp1005
Vis
p1006
atp1007
Rp1008
(dp1009
g12
VVBZ
p1010
sbag0
(g1
g2
(lp1011
g0
(g1
g2
(lp1012
Vblack
p1013
atp1014
Rp1015
(dp1016
g12
VJJ
p1017
sbatp1018
Rp1019
(dp1020
g12
VADJP
p1021
sbatp1022
Rp1023
(dp1024
g12
VVP
p1025
sbatp1026
Rp1027
(dp1028
g12
VS
p1029
sbag0
(g1
g2
(lp1030
V,
p1031
atp1032
Rp1033
(dp1034
g12
V,
p1035
sbag0
(g1
g2
(lp1036
g0
(g1
g2
(lp1037
Vi
p1038
atp1039
Rp1040
(dp1041
g12
VFW
p1042
sbatp1043
Rp1044
(dp1045
g12
VNP
p1046
sbag0
(g1
g2
(lp1047
g0
(g1
g2
(lp1048
Vthink
p1049
atp1050
Rp1051
(dp1052
g12
VVBP
p1053
sbag0
(g1
g2
(lp1054
g0
(g1
g2
(lp1055
Vbecause
p1056
atp1057
Rp1058
(dp1059
g12
VIN
p1060
sbag0
(g1
g2
(lp1061
g0
(g1
g2
(lp1062
Vof
p1063
atp1064
Rp1065
(dp1066
g12
VIN
p1067
sbag0
(g1
g2
(lp1068
g0
(g1
g2
(lp1069
Vhis
p1070
atp1071
Rp1072
(dp1073
g12
VPRP$
p1074
sbag0
(g1
g2
(lp1075
Vhair
p1076
atp1077
Rp1078
(dp1079
g12
VNN
p1080
sbatp1081
Rp1082
(dp1083
g12
VNP
p1084
sbatp1085
Rp1086
(dp1087
g12
VPP
p1088
sbatp1089
Rp1090
(dp1091
g12
VPP
p1092
sbatp1093
Rp1094
(dp1095
g12
VVP
p1096
sbag0
(g1
g2
(lp1097
V.
p1098
atp1099
Rp1100
(dp1101
g12
V.
p1102
sbatp1103
Rp1104
(dp1105
g12
VS
p1106
sbatp1107
Rp1108
(dp1109
g12
S'id: 9'
p1110
sbag0
(g1
g2
(lp1111
g0
(g1
g2
(lp1112
g0
(g1
g2
(lp1113
g0
(g1
g2
(lp1114
Vi
p1115
atp1116
Rp1117
(dp1118
g12
VLS
p1119
sbatp1120
Rp1121
(dp1122
g12
VNP
p1123
sbag0
(g1
g2
(lp1124
g0
(g1
g2
(lp1125
Vdo
p1126
atp1127
Rp1128
(dp1129
g12
VVBP
p1130
sbag0
(g1
g2
(lp1131
Vn't
p1132
atp1133
Rp1134
(dp1135
g12
VRB
p1136
sbag0
(g1
g2
(lp1137
g0
(g1
g2
(lp1138
Vsee
p1139
atp1140
Rp1141
(dp1142
g12
VVB
p1143
sbag0
(g1
g2
(lp1144
g0
(g1
g2
(lp1145
g0
(g1
g2
(lp1146
Vmuch
p1147
atp1148
Rp1149
(dp1150
g12
VJJ
p1151
sbatp1152
Rp1153
(dp1154
g12
VNP
p1155
sbag0
(g1
g2
(lp1156
g0
(g1
g2
(lp1157
Velse
p1158
atp1159
Rp1160
(dp1161
g12
VRB
p1162
sbatp1163
Rp1164
(dp1165
g12
VADJP
p1166
sbatp1167
Rp1168
(dp1169
g12
VS
p1170
sbatp1171
Rp1172
(dp1173
g12
VVP
p1174
sbatp1175
Rp1176
(dp1177
g12
VVP
p1178
sbag0
(g1
g2
(lp1179
V.
p1180
atp1181
Rp1182
(dp1183
g12
V.
p1184
sbatp1185
Rp1186
(dp1187
g12
VS
p1188
sbatp1189
Rp1190
(dp1191
g12
S'id: 10'
p1192
sbatp1193
Rp1194
(dp1195
g12
S'sentences'
p1196
sb.