ccopy_reg
_reconstructor
p0
(cnltk.tree
Tree
p1
c__builtin__
list
p2
(lp3
g0
(g1
g2
(lp4
g0
(g1
g2
(lp5
g0
(g1
g2
(lp6
g0
(g1
g2
(lp7
g0
(g1
g2
(lp8
(lp9
S'word: i, index: 2'
p10
aatp11
Rp12
(dp13
S'_label'
p14
Vnsubj
p15
sbag0
(g1
g2
(lp16
g0
(g1
g2
(lp17
g0
(g1
g2
(lp18
(lp19
S'word: a, index: 4'
p20
aatp21
Rp22
(dp23
g14
Vdet
p24
sbag0
(g1
g2
(lp25
(lp26
S'word: sail, index: 5'
p27
aatp28
Rp29
(dp30
g14
Vnn
p31
sbag0
(g1
g2
(lp32
g0
(g1
g2
(lp33
g0
(g1
g2
(lp34
(lp35
S'word: some, index: 8'
p36
aatp37
Rp38
(dp39
g14
Vdet
p40
sbag0
(g1
g2
(lp41
(lp42
S'word: it, index: 11'
p43
aatp44
Rp45
(dp46
g14
Vprep
p47
sbatp48
Rp49
(dp50
g14
S'word: people, index: 9'
p51
sbatp52
Rp53
(dp54
g14
Vprep
p55
sbatp56
Rp57
(dp58
g14
S'word: boat, index: 6'
p59
sbatp60
Rp61
(dp62
g14
Vdobj
p63
sbag0
(g1
g2
(lp64
(lp65
S'word: out, index: 12'
p66
aatp67
Rp68
(dp69
g14
Vadvmod
p70
sbag0
(g1
g2
(lp71
g0
(g1
g2
(lp72
g0
(g1
g2
(lp73
g0
(g1
g2
(lp74
g0
(g1
g2
(lp75
(lp76
S'word: the, index: 17'
p77
aatp78
Rp79
(dp80
g14
Vdet
p81
sbatp82
Rp83
(dp84
g14
S'word: lake, index: 18'
p85
sbatp86
Rp87
(dp88
g14
Vprep
p89
sbag0
(g1
g2
(lp90
(lp91
S'word: the, index: 14'
p92
aatp93
Rp94
(dp95
g14
Vdet
p96
sbatp97
Rp98
(dp99
g14
S'word: middle, index: 15'
p100
sbatp101
Rp102
(dp103
g14
Vprep
p104
sbatp105
Rp106
(dp107
g14
S'word: see, index: 3'
p108
sbatp109
Rp110
(dp111
g14
Vccomp
p112
sbatp113
Rp114
(dp115
g14
S'word: okay, index: 1'
p116
sbatp117
Rp118
(dp119
g14
S'id: 0'
p120
sbag0
(g1
g2
(lp121
g0
(g1
g2
(lp122
g0
(g1
g2
(lp123
g0
(g1
g2
(lp124
g0
(g1
g2
(lp125
(lp126
S'word: a, index: 18'
p127
aatp128
Rp129
(dp130
g14
Vdet
p131
sbatp132
Rp133
(dp134
g14
S'word: bucket, index: 19'
p135
sbatp136
Rp137
(dp138
g14
Vdobj
p139
sbag0
(g1
g2
(lp140
(lp141
S'word: she, index: 13'
p142
aatp143
Rp144
(dp145
g14
Vnsubj
p146
sbag0
(g1
g2
(lp147
g0
(g1
g2
(lp148
g0
(g1
g2
(lp149
g133
atp150
Rp151
(dp152
g14
Vconj
p153
sbag0
(g1
g2
(lp154
(lp155
S'word: a, index: 15'
p156
aatp157
Rp158
(dp159
g14
Vdet
p160
sbatp161
Rp162
(dp163
g14
S'word: shovel, index: 16'
p164
sbatp165
Rp166
(dp167
g14
Vdobj
p168
sbag0
(g1
g2
(lp169
g0
(g1
g2
(lp170
g0
(g1
g2
(lp171
g0
(g1
g2
(lp172
g0
(g1
g2
(lp173
(lp174
S'word: a, index: 3'
p175
aatp176
Rp177
(dp178
g14
Vdet
p179
sbag0
(g1
g2
(lp180
g0
(g1
g2
(lp181
g0
(g1
g2
(lp182
g0
(g1
g2
(lp183
g0
(g1
g2
(lp184
(lp185
S'word: the, index: 7'
p186
aatp187
Rp188
(dp189
g14
Vdet
p190
sbag0
(g1
g2
(lp191
g0
(g1
g2
(lp192
g0
(g1
g2
(lp193
g0
(g1
g2
(lp194
g0
(g1
g2
(lp195
(lp196
S'word: a, index: 10'
p197
aatp198
Rp199
(dp200
g14
Vdet
p201
sbatp202
Rp203
(dp204
g14
S'word: sandcastle, index: 11'
p205
sbatp206
Rp207
(dp208
g14
Vdobj
p209
sbatp210
Rp211
(dp212
g14
S'word: building, index: 9'
p213
sbatp214
Rp215
(dp216
g14
Vvmod
p217
sbatp218
Rp219
(dp220
g14
S'word: lake, index: 8'
p221
sbatp222
Rp223
(dp224
g14
Vprep
p225
sbatp226
Rp227
(dp228
g14
S'word: sitting, index: 5'
p229
sbatp230
Rp231
(dp232
g14
Vvmod
p233
sbatp234
Rp235
(dp236
g14
S'word: girl, index: 4'
p237
sbatp238
Rp239
(dp240
g14
Vnsubj
p241
sbag0
(g1
g2
(lp242
(lp243
S'word: there, index: 1'
p244
aatp245
Rp246
(dp247
g14
Vexpl
p248
sbatp249
Rp250
(dp251
g14
S"word: 's, index: 2"
p252
sbatp253
Rp254
(dp255
g14
Vccomp
p256
sbatp257
Rp258
(dp259
g14
S'word: has, index: 14'
p260
sbatp261
Rp262
(dp263
g14
S'id: 1'
p264
sbag0
(g1
g2
(lp265
g0
(g1
g2
(lp266
g0
(g1
g2
(lp267
g0
(g1
g2
(lp268
g0
(g1
g2
(lp269
g0
(g1
g2
(lp270
g0
(g1
g2
(lp271
g0
(g1
g2
(lp272
g0
(g1
g2
(lp273
(lp274
S'word: his, index: 25'
p275
aatp276
Rp277
(dp278
g14
Vposs
p279
sbag0
(g1
g2
(lp280
g0
(g1
g2
(lp281
g0
(g1
g2
(lp282
(lp283
S'word: which, index: 27'
p284
aatp285
Rp286
(dp287
g14
Vnsubj
p288
sbag0
(g1
g2
(lp289
g0
(g1
g2
(lp290
g0
(g1
g2
(lp291
(lp292
S'word: a, index: 29'
p293
aatp294
Rp295
(dp296
g14
Vdet
p297
sbag0
(g1
g2
(lp298
(lp299
S'word: fluffy, index: 30'
p300
aatp301
Rp302
(dp303
g14
Vamod
p304
sbag0
(g1
g2
(lp305
(lp306
S'word: it, index: 33'
p307
aatp308
Rp309
(dp310
g14
Vprep
p311
sbatp312
Rp313
(dp314
g14
S'word: tail, index: 31'
p315
sbatp316
Rp317
(dp318
g14
Vdobj
p319
sbatp320
Rp321
(dp322
g14
S'word: has, index: 28'
p323
sbatp324
Rp325
(dp326
g14
Vrcmod
p327
sbatp328
Rp329
(dp330
g14
S'word: kite, index: 26'
p331
sbatp332
Rp333
(dp334
g14
Vprep
p335
sbag0
(g1
g2
(lp336
g0
(g1
g2
(lp337
g0
(g1
g2
(lp338
(lp339
S'word: the, index: 16'
p340
aatp341
Rp342
(dp343
g14
Vdet
p344
sbag0
(g1
g2
(lp345
g0
(g1
g2
(lp346
g0
(g1
g2
(lp347
g0
(g1
g2
(lp348
g0
(g1
g2
(lp349
(lp350
S'word: his, index: 21'
p351
aatp352
Rp353
(dp354
g14
Vposs
p355
sbatp356
Rp357
(dp358
g14
S'word: hand, index: 22'
p359
sbatp360
Rp361
(dp362
g14
Vprep
p363
sbatp364
Rp365
(dp366
g14
S'word: string, index: 19'
p367
sbatp368
Rp369
(dp370
g14
Vprep
p371
sbatp372
Rp373
(dp374
g14
S'word: ball, index: 17'
p375
sbatp376
Rp377
(dp378
g14
Vnsubj
p379
sbatp380
Rp381
(dp382
g14
S'word: hooked, index: 23'
p383
sbatp384
Rp385
(dp386
g14
Vdep
p387
sbag0
(g1
g2
(lp388
(lp389
S'word: he, index: 12'
p390
aatp391
Rp392
(dp393
g14
Vnsubjpass
p394
sbag0
(g1
g2
(lp395
(lp396
S"word: 's, index: 13"
p397
aatp398
Rp399
(dp400
g14
Vauxpass
p401
sbag0
(g1
g2
(lp402
(lp403
S'word: his, index: 15'
p404
aatp405
Rp406
(dp407
g14
Vdobj
p408
sbatp409
Rp410
(dp411
g14
S'word: got, index: 14'
p412
sbatp413
Rp414
(dp415
g14
Vconj
p416
sbag0
(g1
g2
(lp417
(lp418
S'word: there, index: 1'
p419
aatp420
Rp421
(dp422
g14
Vexpl
p423
sbag0
(g1
g2
(lp424
g0
(g1
g2
(lp425
g0
(g1
g2
(lp426
(lp427
S'word: a, index: 3'
p428
aatp429
Rp430
(dp431
g14
Vdet
p432
sbag0
(g1
g2
(lp433
g0
(g1
g2
(lp434
g0
(g1
g2
(lp435
g0
(g1
g2
(lp436
g0
(g1
g2
(lp437
g0
(g1
g2
(lp438
g0
(g1
g2
(lp439
g0
(g1
g2
(lp440
g0
(g1
g2
(lp441
(lp442
S'word: a, index: 9'
p443
aatp444
Rp445
(dp446
g14
Vdet
p447
sbatp448
Rp449
(dp450
g14
S'word: kite, index: 10'
p451
sbatp452
Rp453
(dp454
g14
Vdobj
p455
sbatp456
Rp457
(dp458
g14
S'word: flying, index: 8'
p459
sbatp460
Rp461
(dp462
g14
Vvmod
p463
sbatp464
Rp465
(dp466
g14
S'word: shorts, index: 7'
p467
sbatp468
Rp469
(dp470
g14
Vprep
p471
sbatp472
Rp473
(dp474
g14
S'word: dressed, index: 5'
p475
sbatp476
Rp477
(dp478
g14
Vvmod
p479
sbatp480
Rp481
(dp482
g14
S'word: boy, index: 4'
p483
sbatp484
Rp485
(dp486
g14
Vnsubj
p487
sbag0
(g1
g2
(lp488
g0
(g1
g2
(lp489
g0
(g1
g2
(lp490
g0
(g1
g2
(lp491
g0
(g1
g2
(lp492
g0
(g1
g2
(lp493
g0
(g1
g2
(lp494
(lp495
S'word: along, index: 40'
p496
aatp497
Rp498
(dp499
g14
Vadvmod
p500
sbag0
(g1
g2
(lp501
(lp502
S'word: him, index: 42'
p503
aatp504
Rp505
(dp506
g14
Vprep
p507
sbatp508
Rp509
(dp510
g14
S'word: running, index: 39'
p511
sbatp512
Rp513
(dp514
g14
Vvmod
p515
sbag0
(g1
g2
(lp516
(lp517
S'word: a, index: 37'
p518
aatp519
Rp520
(dp521
g14
Vdet
p522
sbatp523
Rp524
(dp525
g14
S'word: dog, index: 38'
p526
sbatp527
Rp528
(dp529
g14
Vnsubj
p530
sbag0
(g1
g2
(lp531
(lp532
S'word: there, index: 35'
p533
aatp534
Rp535
(dp536
g14
Vexpl
p537
sbatp538
Rp539
(dp540
g14
S"word: 's, index: 36"
p541
sbatp542
Rp543
(dp544
g14
Vconj
p545
sbatp546
Rp547
(dp548
g14
S"word: 's, index: 2"
p549
sbatp550
Rp551
(dp552
g14
S'id: 2'
p553
sbag0
(g1
g2
(lp554
g0
(g1
g2
(lp555
g0
(g1
g2
(lp556
(lp557
S'word: there, index: 1'
p558
aatp559
Rp560
(dp561
g14
Vexpl
p562
sbag0
(g1
g2
(lp563
g0
(g1
g2
(lp564
g0
(g1
g2
(lp565
(lp566
S'word: a, index: 3'
p567
aatp568
Rp569
(dp570
g14
Vdet
p571
sbag0
(g1
g2
(lp572
g0
(g1
g2
(lp573
g0
(g1
g2
(lp574
(lp575
S'word: a, index: 6'
p576
aatp577
Rp578
(dp579
g14
Vdet
p580
sbag0
(g1
g2
(lp581
(lp582
S'word: pier, index: 7'
p583
aatp584
Rp585
(dp586
g14
Vnn
p587
sbatp588
Rp589
(dp590
g14
S'word: fishin, index: 8'
p591
sbatp592
Rp593
(dp594
g14
Vprep
p595
sbatp596
Rp597
(dp598
g14
S'word: man, index: 4'
p599
sbatp600
Rp601
(dp602
g14
Vnsubj
p603
sbatp604
Rp605
(dp606
g14
S"word: 's, index: 2"
p607
sbatp608
Rp609
(dp610
g14
S'id: 3'
p611
sbag0
(g1
g2
(lp612
g0
(g1
g2
(lp613
g0
(g1
g2
(lp614
(lp615
S'word: He, index: 1'
p616
aatp617
Rp618
(dp619
g14
Vnsubjpass
p620
sbag0
(g1
g2
(lp621
(lp622
S"word: 's, index: 2"
p623
aatp624
Rp625
(dp626
g14
Vauxpass
p627
sbag0
(g1
g2
(lp628
(lp629
S'word: already, index: 3'
p630
aatp631
Rp632
(dp633
g14
Vadvmod
p634
sbag0
(g1
g2
(lp635
g0
(g1
g2
(lp636
g0
(g1
g2
(lp637
(lp638
S'word: a, index: 5'
p639
aatp640
Rp641
(dp642
g14
Vdet
p643
sbag0
(g1
g2
(lp644
g0
(g1
g2
(lp645
g0
(g1
g2
(lp646
(lp647
S'word: his, index: 8'
p648
aatp649
Rp650
(dp651
g14
Vposs
p652
sbatp653
Rp654
(dp655
g14
S'word: line, index: 9'
p656
sbatp657
Rp658
(dp659
g14
Vprep
p660
sbatp661
Rp662
(dp663
g14
S'word: fish, index: 6'
p664
sbatp665
Rp666
(dp667
g14
Vdobj
p668
sbag0
(g1
g2
(lp669
g0
(g1
g2
(lp670
g0
(g1
g2
(lp671
(lp672
S'word: it, index: 12'
p673
aatp674
Rp675
(dp676
g14
Vdobj
p677
sbag0
(g1
g2
(lp678
(lp679
S'word: in, index: 13'
p680
aatp681
Rp682
(dp683
g14
Vprep
p684
sbag0
(g1
g2
(lp685
(lp686
S'word: He, index: 1'
p687
aatp688
Rp689
(dp690
g14
Vnsubjpass
p691
sbatp692
Rp693
(dp694
g14
S'word: bringing, index: 11'
p695
sbatp696
Rp697
(dp698
g14
Vconj
p699
sbatp700
Rp701
(dp702
g14
S'word: caught, index: 4'
p703
sbatp704
Rp705
(dp706
g14
S'id: 4'
p707
sbag0
(g1
g2
(lp708
g0
(g1
g2
(lp709
g0
(g1
g2
(lp710
(lp711
S'word: there, index: 1'
p712
aatp713
Rp714
(dp715
g14
Vexpl
p716
sbag0
(g1
g2
(lp717
g0
(g1
g2
(lp718
g0
(g1
g2
(lp719
(lp720
S'word: a, index: 3'
p721
aatp722
Rp723
(dp724
g14
Vdet
p725
sbag0
(g1
g2
(lp726
g0
(g1
g2
(lp727
g0
(g1
g2
(lp728
(lp729
S'word: a, index: 6'
p730
aatp731
Rp732
(dp733
g14
Vdet
p734
sbag0
(g1
g2
(lp735
(lp736
S'word: front, index: 9'
p737
aatp738
Rp739
(dp740
g14
Vprep
p741
sbatp742
Rp743
(dp744
g14
S'word: car, index: 7'
p745
sbatp746
Rp747
(dp748
g14
Vprep
p749
sbatp750
Rp751
(dp752
g14
S'word: house, index: 4'
p753
sbatp754
Rp755
(dp756
g14
Vnsubj
p757
sbag0
(g1
g2
(lp758
g0
(g1
g2
(lp759
g0
(g1
g2
(lp760
g0
(g1
g2
(lp761
g0
(g1
g2
(lp762
(lp763
S'word: it, index: 16'
p764
aatp765
Rp766
(dp767
g14
Vnsubj
p768
sbag0
(g1
g2
(lp769
g0
(g1
g2
(lp770
g0
(g1
g2
(lp771
(lp772
S'word: shrubbery, index: 20'
p773
aatp774
Rp775
(dp776
g14
Vconj
p777
sbatp778
Rp779
(dp780
g14
S'word: windows, index: 18'
p781
sbatp782
Rp783
(dp784
g14
Vdobj
p785
sbag0
(g1
g2
(lp786
(lp787
S'word: shrubbery, index: 20'
p788
aatp789
Rp790
(dp791
g14
Vdobj
p792
sbatp793
Rp794
(dp795
g14
S'word: has, index: 17'
p796
sbatp797
Rp798
(dp799
g14
Vparataxis
p800
sbag0
(g1
g2
(lp801
(lp802
S'word: there, index: 22'
p803
aatp804
Rp805
(dp806
g14
Vexpl
p807
sbag0
(g1
g2
(lp808
g0
(g1
g2
(lp809
g0
(g1
g2
(lp810
(lp811
S'word: a, index: 24'
p812
aatp813
Rp814
(dp815
g14
Vdet
p816
sbag0
(g1
g2
(lp817
g0
(g1
g2
(lp818
g0
(g1
g2
(lp819
(lp820
S'word: a, index: 27'
p821
aatp822
Rp823
(dp824
g14
Vdet
p825
sbag0
(g1
g2
(lp826
(lp827
S'word: it, index: 30'
p828
aatp829
Rp830
(dp831
g14
Vprep
p832
sbatp833
Rp834
(dp835
g14
S'word: flag, index: 28'
p836
sbatp837
Rp838
(dp839
g14
Vprep
p840
sbatp841
Rp842
(dp843
g14
S'word: flagpole, index: 25'
p844
sbatp845
Rp846
(dp847
g14
Vnsubj
p848
sbag0
(g1
g2
(lp849
g0
(g1
g2
(lp850
g0
(g1
g2
(lp851
(lp852
S'word: a, index: 12'
p853
aatp854
Rp855
(dp856
g14
Vdet
p857
sbag0
(g1
g2
(lp858
(lp859
S'word: big, index: 13'
p860
aatp861
Rp862
(dp863
g14
Vamod
p864
sbatp865
Rp866
(dp867
g14
S'word: tree, index: 14'
p868
sbatp869
Rp870
(dp871
g14
Vnsubj
p872
sbatp873
Rp874
(dp875
g14
S"word: 's, index: 23"
p876
sbatp877
Rp878
(dp879
g14
Vconj
p880
sbatp881
Rp882
(dp883
g14
S"word: 's, index: 2"
p884
sbatp885
Rp886
(dp887
g14
S'id: 5'
p888
sbag0
(g1
g2
(lp889
g0
(g1
g2
(lp890
g0
(g1
g2
(lp891
g0
(g1
g2
(lp892
g0
(g1
g2
(lp893
(lp894
S'word: the, index: 3'
p895
aatp896
Rp897
(dp898
g14
Vdet
p899
sbag0
(g1
g2
(lp900
g0
(g1
g2
(lp901
g0
(g1
g2
(lp902
(lp903
S'word: the, index: 6'
p904
aatp905
Rp906
(dp907
g14
Vdet
p908
sbatp909
Rp910
(dp911
g14
S'word: picture, index: 7'
p912
sbatp913
Rp914
(dp915
g14
Vprep
p916
sbatp917
Rp918
(dp919
g14
S'word: forefront, index: 4'
p920
sbatp921
Rp922
(dp923
g14
Vprep
p924
sbag0
(g1
g2
(lp925
g0
(g1
g2
(lp926
g0
(g1
g2
(lp927
(lp928
S'word: a, index: 22'
p929
aatp930
Rp931
(dp932
g14
Vdet
p933
sbatp934
Rp935
(dp936
g14
S'word: picnic, index: 23'
p937
sbatp938
Rp939
(dp940
g14
Vnsubj
p941
sbag0
(g1
g2
(lp942
(lp943
S'word: there, index: 8'
p944
aatp945
Rp946
(dp947
g14
Vexpl
p948
sbag0
(g1
g2
(lp949
g0
(g1
g2
(lp950
g0
(g1
g2
(lp951
g935
atp952
Rp953
(dp954
g14
Vconj
p955
sbag0
(g1
g2
(lp956
(lp957
S'word: a, index: 10'
p958
aatp959
Rp960
(dp961
g14
Vdep
p962
sbag0
(g1
g2
(lp963
g0
(g1
g2
(lp964
g0
(g1
g2
(lp965
g0
(g1
g2
(lp966
g0
(g1
g2
(lp967
(lp968
S'word: a, index: 18'
p969
aatp970
Rp971
(dp972
g14
Vdet
p973
sbag0
(g1
g2
(lp974
(lp975
S'word: blanket, index: 19'
p976
aatp977
Rp978
(dp979
g14
Vnn
p980
sbatp981
Rp982
(dp983
g14
S'word: havin, index: 20'
p984
sbatp985
Rp986
(dp987
g14
Vprep
p988
sbag0
(g1
g2
(lp989
(lp990
S'word: a, index: 13'
p991
aatp992
Rp993
(dp994
g14
Vdet
p995
sbag0
(g1
g2
(lp996
(lp997
S'word: woman, index: 14'
p998
aatp999
Rp1000
(dp1001
g14
Vnn
p1002
sbatp1003
Rp1004
(dp1005
g14
S'word: sittin, index: 15'
p1006
sbatp1007
Rp1008
(dp1009
g14
Vconj
p1010
sbatp1011
Rp1012
(dp1013
g14
S'word: man, index: 11'
p1014
sbatp1015
Rp1016
(dp1017
g14
Vnsubj
p1018
sbag0
(g1
g2
(lp1019
g1004
atp1020
Rp1021
(dp1022
g14
Vnsubj
p1023
sbag0
(g1
g2
(lp1024
(lp1025
S'word: and, index: 1'
p1026
aatp1027
Rp1028
(dp1029
g14
Vcc
p1030
sbatp1031
Rp1032
(dp1033
g14
S"word: 's, index: 9"
p1034
sbatp1035
Rp1036
(dp1037
g14
S'id: 6'
p1038
sbag0
(g1
g2
(lp1039
g0
(g1
g2
(lp1040
g0
(g1
g2
(lp1041
g0
(g1
g2
(lp1042
g0
(g1
g2
(lp1043
g0
(g1
g2
(lp1044
g0
(g1
g2
(lp1045
(lp1046
S'word: the, index: 8'
p1047
aatp1048
Rp1049
(dp1050
g14
Vdet
p1051
sbatp1052
Rp1053
(dp1054
g14
S'word: music, index: 9'
p1055
sbatp1056
Rp1057
(dp1058
g14
Vprep
p1059
sbatp1060
Rp1061
(dp1062
g14
S'word: listening, index: 6'
p1063
sbatp1064
Rp1065
(dp1066
g14
Vvmod
p1067
sbag0
(g1
g2
(lp1068
(lp1069
S'word: they, index: 1'
p1070
aatp1071
Rp1072
(dp1073
g14
Vnsubj
p1074
sbag0
(g1
g2
(lp1075
g0
(g1
g2
(lp1076
g0
(g1
g2
(lp1077
(lp1078
S'word: a, index: 3'
p1079
aatp1080
Rp1081
(dp1082
g14
Vdet
p1083
sbatp1084
Rp1085
(dp1086
g14
S'word: radio, index: 4'
p1087
sbatp1088
Rp1089
(dp1090
g14
Vdobj
p1091
sbatp1092
Rp1093
(dp1094
g14
S'word: have, index: 2'
p1095
sbatp1096
Rp1097
(dp1098
g14
S'id: 7'
p1099
sbag0
(g1
g2
(lp1100
g0
(g1
g2
(lp1101
g0
(g1
g2
(lp1102
(lp1103
S"word: 're, index: 16"
p1104
aatp1105
Rp1106
(dp1107
g14
Vaux
p1108
sbag0
(g1
g2
(lp1109
(lp1110
S'word: she, index: 1'
p1111
aatp1112
Rp1113
(dp1114
g14
Vnsubj
p1115
sbag0
(g1
g2
(lp1116
(lp1117
S'word: him, index: 19'
p1118
aatp1119
Rp1120
(dp1121
g14
Vprep
p1122
sbag0
(g1
g2
(lp1123
g0
(g1
g2
(lp1124
g0
(g1
g2
(lp1125
g0
(g1
g2
(lp1126
g0
(g1
g2
(lp1127
(lp1128
S'word: his, index: 7'
p1129
aatp1130
Rp1131
(dp1132
g14
Vposs
p1133
sbatp1134
Rp1135
(dp1136
g14
S'word: shoes, index: 8'
p1137
sbatp1138
Rp1139
(dp1140
g14
Vdobj
p1141
sbag0
(g1
g2
(lp1142
g0
(g1
g2
(lp1143
g0
(g1
g2
(lp1144
(lp1145
S'word: they, index: 10'
p1146
aatp1147
Rp1148
(dp1149
g14
Vnsubj
p1150
sbag0
(g1
g2
(lp1151
(lp1152
S'word: are, index: 11'
p1153
aatp1154
Rp1155
(dp1156
g14
Vaux
p1157
sbag0
(g1
g2
(lp1158
g0
(g1
g2
(lp1159
g0
(g1
g2
(lp1160
(lp1161
S'word: the, index: 14'
p1162
aatp1163
Rp1164
(dp1165
g14
Vdet
p1166
sbatp1167
Rp1168
(dp1169
g14
S'word: they, index: 15'
p1170
sbatp1171
Rp1172
(dp1173
g14
Vprep
p1174
sbatp1175
Rp1176
(dp1177
g14
S'word: sitting, index: 12'
p1178
sbatp1179
Rp1180
(dp1181
g14
Vprepc
p1182
sbag0
(g1
g2
(lp1183
(lp1184
S'word: well, index: 2'
p1185
aatp1186
Rp1187
(dp1188
g14
Vadvmod
p1189
sbag0
(g1
g2
(lp1190
(lp1191
S'word: he, index: 3'
p1192
aatp1193
Rp1194
(dp1195
g14
Vnsubj
p1196
sbag0
(g1
g2
(lp1197
(lp1198
S'word: does, index: 4'
p1199
aatp1200
Rp1201
(dp1202
g14
Vaux
p1203
sbag0
(g1
g2
(lp1204
(lp1205
S"word: n't, index: 5"
p1206
aatp1207
Rp1208
(dp1209
g14
Vneg
p1210
sbatp1211
Rp1212
(dp1213
g14
S'word: have, index: 6'
p1214
sbatp1215
Rp1216
(dp1217
g14
Vdep
p1218
sbag0
(g1
g2
(lp1219
g0
(g1
g2
(lp1220
g0
(g1
g2
(lp1221
(lp1222
S'word: the, index: 21'
p1223
aatp1224
Rp1225
(dp1226
g14
Vdet
p1227
sbatp1228
Rp1229
(dp1230
g14
S'word: blanket, index: 22'
p1231
sbatp1232
Rp1233
(dp1234
g14
Vprep
p1235
sbatp1236
Rp1237
(dp1238
g14
S'word: sitting, index: 17'
p1239
sbatp1240
Rp1241
(dp1242
g14
S'id: 8'
p1243
sbag0
(g1
g2
(lp1244
g0
(g1
g2
(lp1245
g0
(g1
g2
(lp1246
(lp1247
S'word: he, index: 1'
p1248
aatp1249
Rp1250
(dp1251
g14
Vnsubjpass
p1252
sbag0
(g1
g2
(lp1253
(lp1254
S"word: 's, index: 2"
p1255
aatp1256
Rp1257
(dp1258
g14
Vauxpass
p1259
sbag0
(g1
g2
(lp1260
g0
(g1
g2
(lp1261
g0
(g1
g2
(lp1262
g0
(g1
g2
(lp1263
g0
(g1
g2
(lp1264
(lp1265
S'word: his, index: 4'
p1266
aatp1267
Rp1268
(dp1269
g14
Vposs
p1270
sbatp1271
Rp1272
(dp1273
g14
S'word: legs, index: 5'
p1274
sbatp1275
Rp1276
(dp1277
g14
Vnsubj
p1278
sbag0
(g1
g2
(lp1279
g0
(g1
g2
(lp1280
g0
(g1
g2
(lp1281
g0
(g1
g2
(lp1282
g0
(g1
g2
(lp1283
(lp1284
S'word: a, index: 8'
p1285
aatp1286
Rp1287
(dp1288
g14
Vdet
p1289
sbatp1290
Rp1291
(dp1292
g14
S'word: book, index: 9'
p1293
sbatp1294
Rp1295
(dp1296
g14
Vdobj
p1297
sbatp1298
Rp1299
(dp1300
g14
S'word: reading, index: 7'
p1301
sbatp1302
Rp1303
(dp1304
g14
Vxcomp
p1305
sbatp1306
Rp1307
(dp1308
g14
S'word: crossed, index: 6'
p1309
sbatp1310
Rp1311
(dp1312
g14
Vccomp
p1313
sbatp1314
Rp1315
(dp1316
g14
S'word: got, index: 3'
p1317
sbatp1318
Rp1319
(dp1320
g14
S'id: 9'
p1321
sbag0
(g1
g2
(lp1322
g0
(g1
g2
(lp1323
g0
(g1
g2
(lp1324
g0
(g1
g2
(lp1325
g0
(g1
g2
(lp1326
(lp1327
S'word: a, index: 2'
p1328
aatp1329
Rp1330
(dp1331
g14
Vdet
p1332
sbag0
(g1
g2
(lp1333
(lp1334
S'word: glasses, index: 5'
p1335
aatp1336
Rp1337
(dp1338
g14
Vprep
p1339
sbatp1340
Rp1341
(dp1342
g14
S'word: pair, index: 3'
p1343
sbatp1344
Rp1345
(dp1346
g14
Vdobj
p1347
sbatp1348
Rp1349
(dp1350
g14
S'word: has, index: 1'
p1351
sbatp1352
Rp1353
(dp1354
g14
S'id: 10'
p1355
sbag0
(g1
g2
(lp1356
g0
(g1
g2
(lp1357
g0
(g1
g2
(lp1358
(lp1359
S'word: lady, index: 1'
p1360
aatp1361
Rp1362
(dp1363
g14
Vnsubj
p1364
sbag0
(g1
g2
(lp1365
g0
(g1
g2
(lp1366
g0
(g1
g2
(lp1367
(lp1368
S'word: her, index: 3'
p1369
aatp1370
Rp1371
(dp1372
g14
Vposs
p1373
sbag0
(g1
g2
(lp1374
g0
(g1
g2
(lp1375
g0
(g1
g2
(lp1376
(lp1377
S'word: back, index: 6'
p1378
aatp1379
Rp1380
(dp1381
g14
Vadvmod
p1382
sbag0
(g1
g2
(lp1383
g0
(g1
g2
(lp1384
g0
(g1
g2
(lp1385
(lp1386
S'word: a, index: 8'
p1387
aatp1388
Rp1389
(dp1390
g14
Vdet
p1391
sbatp1392
Rp1393
(dp1394
g14
S'word: ponytail, index: 9'
p1395
sbatp1396
Rp1397
(dp1398
g14
Vprep
p1399
sbatp1400
Rp1401
(dp1402
g14
S'word: pulled, index: 5'
p1403
sbatp1404
Rp1405
(dp1406
g14
Vrcmod
p1407
sbatp1408
Rp1409
(dp1410
g14
S'word: hair, index: 4'
p1411
sbatp1412
Rp1413
(dp1414
g14
Vdobj
p1415
sbag0
(g1
g2
(lp1416
g0
(g1
g2
(lp1417
g0
(g1
g2
(lp1418
g0
(g1
g2
(lp1419
g0
(g1
g2
(lp1420
(lp1421
S'word: a, index: 18'
p1422
aatp1423
Rp1424
(dp1425
g14
Vdet
p1426
sbag0
(g1
g2
(lp1427
g0
(g1
g2
(lp1428
g0
(g1
g2
(lp1429
(lp1430
S'word: the, index: 21'
p1431
aatp1432
Rp1433
(dp1434
g14
Vdet
p1435
sbag0
(g1
g2
(lp1436
(lp1437
S'word: picnic, index: 22'
p1438
aatp1439
Rp1440
(dp1441
g14
Vnn
p1442
sbatp1443
Rp1444
(dp1445
g14
S'word: basket, index: 23'
p1446
sbatp1447
Rp1448
(dp1449
g14
Vprep
p1450
sbatp1451
Rp1452
(dp1453
g14
S'word: cup, index: 19'
p1454
sbatp1455
Rp1456
(dp1457
g14
Vprep
p1458
sbag0
(g1
g2
(lp1459
(lp1460
S'word: she, index: 11'
p1461
aatp1462
Rp1463
(dp1464
g14
Vnsubj
p1465
sbag0
(g1
g2
(lp1466
(lp1467
S"word: 's, index: 12"
p1468
aatp1469
Rp1470
(dp1471
g14
Vcop
p1472
sbag0
(g1
g2
(lp1473
g0
(g1
g2
(lp1474
g0
(g1
g2
(lp1475
(lp1476
S'word: a, index: 15'
p1477
aatp1478
Rp1479
(dp1480
g14
Vdet
p1481
sbatp1482
Rp1483
(dp1484
g14
S'word: drink, index: 16'
p1485
sbatp1486
Rp1487
(dp1488
g14
Vnpadvmod
p1489
sbatp1490
Rp1491
(dp1492
g14
S'word: pourin, index: 13'
p1493
sbatp1494
Rp1495
(dp1496
g14
Vconj
p1497
sbatp1498
Rp1499
(dp1500
g14
S'word: has, index: 2'
p1501
sbatp1502
Rp1503
(dp1504
g14
S'id: 11'
p1505
sbag0
(g1
g2
(lp1506
g0
(g1
g2
(lp1507
g0
(g1
g2
(lp1508
g0
(g1
g2
(lp1509
g0
(g1
g2
(lp1510
(lp1511
S'word: about, index: 4'
p1512
aatp1513
Rp1514
(dp1515
g14
Vmark
p1516
sbag0
(g1
g2
(lp1517
(lp1518
S'word: that, index: 5'
p1519
aatp1520
Rp1521
(dp1522
g14
Vnsubj
p1523
sbag0
(g1
g2
(lp1524
(lp1525
S'word: it, index: 8'
p1526
aatp1527
Rp1528
(dp1529
g14
Vprep
p1530
sbatp1531
Rp1532
(dp1533
g14
S"word: 's, index: 6"
p1534
sbatp1535
Rp1536
(dp1537
g14
Vadvcl
p1538
sbag0
(g1
g2
(lp1539
(lp1540
S'word: okay, index: 1'
p1541
aatp1542
Rp1543
(dp1544
g14
Vdep
p1545
sbag0
(g1
g2
(lp1546
(lp1547
S'word: that, index: 2'
p1548
aatp1549
Rp1550
(dp1551
g14
Vnsubj
p1552
sbatp1553
Rp1554
(dp1555
g14
S"word: 's, index: 3"
p1556
sbatp1557
Rp1558
(dp1559
g14
S'id: 12'
p1560
sbatp1561
Rp1562
(dp1563
g14
S'sentences'
p1564
sb.