ccopy_reg
_reconstructor
p0
(cnltk.tree
Tree
p1
c__builtin__
list
p2
(lp3
g0
(g1
g2
(lp4
g0
(g1
g2
(lp5
g0
(g1
g2
(lp6
(lp7
S'word: well, index: 1'
p8
aatp9
Rp10
(dp11
S'_label'
p12
Vdiscourse
p13
sbag0
(g1
g2
(lp14
g0
(g1
g2
(lp15
g0
(g1
g2
(lp16
(lp17
S"word: 's, index: 3"
p18
aatp19
Rp20
(dp21
g12
Vnsubj
p22
sbatp23
Rp24
(dp25
g12
S'word: see, index: 4'
p26
sbatp27
Rp28
(dp29
g12
Vccomp
p30
sbatp31
Rp32
(dp33
g12
S'word: let, index: 2'
p34
sbatp35
Rp36
(dp37
g12
S'id: 0'
p38
sbag0
(g1
g2
(lp39
g0
(g1
g2
(lp40
g0
(g1
g2
(lp41
g0
(g1
g2
(lp42
g0
(g1
g2
(lp43
(lp44
S'word: a, index: 3'
p45
aatp46
Rp47
(dp48
g12
Vdet
p49
sbatp50
Rp51
(dp52
g12
S'word: clown, index: 4'
p53
sbatp54
Rp55
(dp56
g12
Vdobj
p57
sbag0
(g1
g2
(lp58
(lp59
S'word: i, index: 1'
p60
aatp61
Rp62
(dp63
g12
Vdep
p64
sbatp65
Rp66
(dp67
g12
S'word: see, index: 2'
p68
sbatp69
Rp70
(dp71
g12
S'id: 1'
p72
sbag0
(g1
g2
(lp73
g0
(g1
g2
(lp74
g0
(g1
g2
(lp75
g0
(g1
g2
(lp76
g0
(g1
g2
(lp77
(lp78
S'word: a, index: 7'
p79
aatp80
Rp81
(dp82
g12
Vdet
p83
sbatp84
Rp85
(dp86
g12
S'word: lion, index: 8'
p87
sbatp88
Rp89
(dp90
g12
Vprep
p91
sbag0
(g1
g2
(lp92
(lp93
S'word: i, index: 1'
p94
aatp95
Rp96
(dp97
g12
Vdep
p98
sbag0
(g1
g2
(lp99
g0
(g1
g2
(lp100
g0
(g1
g2
(lp101
(lp102
S'word: a, index: 3'
p103
aatp104
Rp105
(dp106
g12
Vdobj
p107
sbatp108
Rp109
(dp110
g12
S'word: see, index: 2'
p111
sbatp112
Rp113
(dp114
g12
Vccomp
p115
sbatp116
Rp117
(dp118
g12
S'word: looks, index: 5'
p119
sbatp120
Rp121
(dp122
g12
S'id: 2'
p123
sbag0
(g1
g2
(lp124
g0
(g1
g2
(lp125
g0
(g1
g2
(lp126
(lp127
S'word: a, index: 1'
p128
aatp129
Rp130
(dp131
g12
Vdet
p132
sbag0
(g1
g2
(lp133
g0
(g1
g2
(lp134
g0
(g1
g2
(lp135
(lp136
S'word: around, index: 5'
p137
aatp138
Rp139
(dp140
g12
Vdep
p141
sbag0
(g1
g2
(lp142
g0
(g1
g2
(lp143
g0
(g1
g2
(lp144
(lp145
S'word: it, index: 12'
p146
aatp147
Rp148
(dp149
g12
Vprep
p150
sbag0
(g1
g2
(lp151
(lp152
S'word: a, index: 7'
p153
aatp154
Rp155
(dp156
g12
Vdet
p157
sbatp158
Rp159
(dp160
g12
S'word: woman, index: 8'
p161
sbatp162
Rp163
(dp164
g12
Vprep
p165
sbatp166
Rp167
(dp168
g12
S'word: walkin, index: 3'
p169
sbatp170
Rp171
(dp172
g12
Vvmod
p173
sbatp174
Rp175
(dp176
g12
S'word: horse, index: 2'
p177
sbatp178
Rp179
(dp180
g12
S'id: 3'
p181
sbag0
(g1
g2
(lp182
g0
(g1
g2
(lp183
g0
(g1
g2
(lp184
(lp185
S'word: there, index: 1'
p186
aatp187
Rp188
(dp189
g12
Vexpl
p190
sbag0
(g1
g2
(lp191
(lp192
S'word: children, index: 3'
p193
aatp194
Rp195
(dp196
g12
Vnsubj
p197
sbatp198
Rp199
(dp200
g12
S"word: 's, index: 2"
p201
sbatp202
Rp203
(dp204
g12
S'id: 4'
p205
sbag0
(g1
g2
(lp206
g0
(g1
g2
(lp207
g0
(g1
g2
(lp208
(lp209
S'word: there, index: 1'
p210
aatp211
Rp212
(dp213
g12
Vexpl
p214
sbag0
(g1
g2
(lp215
g0
(g1
g2
(lp216
g0
(g1
g2
(lp217
(lp218
S'word: a, index: 3'
p219
aatp220
Rp221
(dp222
g12
Vdet
p223
sbag0
(g1
g2
(lp224
(lp225
S'word: there, index: 6'
p226
aatp227
Rp228
(dp229
g12
Vprep
p230
sbag0
(g1
g2
(lp231
g0
(g1
g2
(lp232
g0
(g1
g2
(lp233
(lp234
S'word: the, index: 8'
p235
aatp236
Rp237
(dp238
g12
Vdet
p239
sbatp240
Rp241
(dp242
g12
S'word: lion, index: 9'
p243
sbatp244
Rp245
(dp246
g12
Vprep
p247
sbatp248
Rp249
(dp250
g12
S'word: trainer, index: 4'
p251
sbatp252
Rp253
(dp254
g12
Vnsubj
p255
sbatp256
Rp257
(dp258
g12
S"word: 's, index: 2"
p259
sbatp260
Rp261
(dp262
g12
S'id: 5'
p263
sbag0
(g1
g2
(lp264
g0
(g1
g2
(lp265
g0
(g1
g2
(lp266
(lp267
S'word: it, index: 2'
p268
aatp269
Rp270
(dp271
g12
Vnsubj
p272
sbag0
(g1
g2
(lp273
g0
(g1
g2
(lp274
g0
(g1
g2
(lp275
(lp276
S'word: like, index: 4'
p277
aatp278
Rp279
(dp280
g12
Vmark
p281
sbag0
(g1
g2
(lp282
g0
(g1
g2
(lp283
g0
(g1
g2
(lp284
(lp285
S'word: the, index: 5'
p286
aatp287
Rp288
(dp289
g12
Vdet
p290
sbatp291
Rp292
(dp293
g12
S'word: clown, index: 6'
p294
sbatp295
Rp296
(dp297
g12
Vnsubj
p298
sbag0
(g1
g2
(lp299
(lp300
S'word: is, index: 7'
p301
aatp302
Rp303
(dp304
g12
Vaux
p305
sbag0
(g1
g2
(lp306
(lp307
S'word: maybe, index: 8'
p308
aatp309
Rp310
(dp311
g12
Vadvmod
p312
sbatp313
Rp314
(dp315
g12
S'word: throwin, index: 9'
p316
sbatp317
Rp318
(dp319
g12
Vadvcl
p320
sbag0
(g1
g2
(lp321
g0
(g1
g2
(lp322
g0
(g1
g2
(lp323
g0
(g1
g2
(lp324
g0
(g1
g2
(lp325
g0
(g1
g2
(lp326
g0
(g1
g2
(lp327
(lp328
S'word: the, index: 14'
p329
aatp330
Rp331
(dp332
g12
Vdet
p333
sbatp334
Rp335
(dp336
g12
S'word: kids, index: 15'
p337
sbatp338
Rp339
(dp340
g12
Vpobj
p341
sbatp342
Rp343
(dp344
g12
S'word: to, index: 13'
p345
sbatp346
Rp347
(dp348
g12
Vdep
p349
sbatp350
Rp351
(dp352
g12
S'word: popcorn, index: 12'
p353
sbatp354
Rp355
(dp356
g12
Vparataxis
p357
sbag0
(g1
g2
(lp358
(lp359
S'word: and, index: 1'
p360
aatp361
Rp362
(dp363
g12
Vcc
p364
sbatp365
Rp366
(dp367
g12
S'word: looks, index: 3'
p368
sbatp369
Rp370
(dp371
g12
S'id: 6'
p372
sbag0
(g1
g2
(lp373
g0
(g1
g2
(lp374
g0
(g1
g2
(lp375
(lp376
S'word: and, index: 1'
p377
aatp378
Rp379
(dp380
g12
Vcc
p381
sbag0
(g1
g2
(lp382
(lp383
S'word: there, index: 2'
p384
aatp385
Rp386
(dp387
g12
Vexpl
p388
sbag0
(g1
g2
(lp389
g0
(g1
g2
(lp390
g0
(g1
g2
(lp391
g0
(g1
g2
(lp392
g0
(g1
g2
(lp393
(lp394
S'word: a, index: 6'
p395
aatp396
Rp397
(dp398
g12
Vdet
p399
sbag0
(g1
g2
(lp400
(lp401
S'word: tightrope, index: 7'
p402
aatp403
Rp404
(dp405
g12
Vnn
p406
sbatp407
Rp408
(dp409
g12
S'word: walking, index: 8'
p410
sbatp411
Rp412
(dp413
g12
Vprep
p414
sbatp415
Rp416
(dp417
g12
S'word: somebody, index: 4'
p418
sbatp419
Rp420
(dp421
g12
Vnsubj
p422
sbatp423
Rp424
(dp425
g12
S"word: 's, index: 3"
p426
sbatp427
Rp428
(dp429
g12
S'id: 7'
p430
sbag0
(g1
g2
(lp431
g0
(g1
g2
(lp432
g0
(g1
g2
(lp433
(lp434
S'word: that, index: 1'
p435
aatp436
Rp437
(dp438
g12
Vnsubj
p439
sbag0
(g1
g2
(lp440
(lp441
S"word: 's, index: 2"
p442
aatp443
Rp444
(dp445
g12
Vcop
p446
sbatp447
Rp448
(dp449
g12
S'word: it, index: 3'
p450
sbatp451
Rp452
(dp453
g12
S'id: 8'
p454
sbatp455
Rp456
(dp457
g12
S'sentences'
p458
sb.