ccopy_reg
_reconstructor
p0
(cnltk.tree
Tree
p1
c__builtin__
list
p2
(lp3
g0
(g1
g2
(lp4
g0
(g1
g2
(lp5
g0
(g1
g2
(lp6
Vthat
p7
atp8
Rp9
(dp10
S'_label'
p11
S'start: 1'
p12
sbatp13
Rp14
(dp15
g11
S'sent: 1'
p16
sbag0
(g1
g2
(lp17
g0
(g1
g2
(lp18
Va circus
p19
atp20
Rp21
(dp22
g11
S'start: 3'
p23
sbatp24
Rp25
(dp26
g11
S'sent: 1'
p27
sbatp28
Rp29
(dp30
g11
S'id: 1'
p31
sbag0
(g1
g2
(lp32
g0
(g1
g2
(lp33
g0
(g1
g2
(lp34
Vhis
p35
atp36
Rp37
(dp38
g11
S'start: 8'
p39
sbatp40
Rp41
(dp42
g11
S'sent: 2'
p43
sbag0
(g1
g2
(lp44
g0
(g1
g2
(lp45
Vhis
p46
atp47
Rp48
(dp49
g11
S'start: 11'
p50
sbatp51
Rp52
(dp53
g11
S'sent: 2'
p54
sbag0
(g1
g2
(lp55
g0
(g1
g2
(lp56
Vhim
p57
atp58
Rp59
(dp60
g11
S'start: 15'
p61
sbatp62
Rp63
(dp64
g11
S'sent: 2'
p65
sbatp66
Rp67
(dp68
g11
S'id: 6'
p69
sbag0
(g1
g2
(lp70
g0
(g1
g2
(lp71
g0
(g1
g2
(lp72
Vi
p73
atp74
Rp75
(dp76
g11
S'start: 16'
p77
sbatp78
Rp79
(dp80
g11
S'sent: 6'
p81
sbag0
(g1
g2
(lp82
g0
(g1
g2
(lp83
Vi
p84
atp85
Rp86
(dp87
g11
S'start: 1'
p88
sbatp89
Rp90
(dp91
g11
S'sent: 8'
p92
sbag0
(g1
g2
(lp93
g0
(g1
g2
(lp94
Vthat
p95
atp96
Rp97
(dp98
g11
S'start: 1'
p99
sbatp100
Rp101
(dp102
g11
S'sent: 9'
p103
sbag0
(g1
g2
(lp104
g0
(g1
g2
(lp105
Vi
p106
atp107
Rp108
(dp109
g11
S'start: 4'
p110
sbatp111
Rp112
(dp113
g11
S'sent: 9'
p114
sbatp115
Rp116
(dp117
g11
S'id: 18'
p118
sbag0
(g1
g2
(lp119
g0
(g1
g2
(lp120
g0
(g1
g2
(lp121
Vthe clown
p122
atp123
Rp124
(dp125
g11
S'start: 18'
p126
sbatp127
Rp128
(dp129
g11
S'sent: 6'
p130
sbag0
(g1
g2
(lp131
g0
(g1
g2
(lp132
Vthe clown
p133
atp134
Rp135
(dp136
g11
S'start: 1'
p137
sbatp138
Rp139
(dp140
g11
S'sent: 7'
p141
sbag0
(g1
g2
(lp142
g0
(g1
g2
(lp143
Vhe
p144
atp145
Rp146
(dp147
g11
S'start: 11'
p148
sbatp149
Rp150
(dp151
g11
S'sent: 8'
p152
sbatp153
Rp154
(dp155
g11
S'id: 19'
p156
sbag0
(g1
g2
(lp157
g0
(g1
g2
(lp158
g0
(g1
g2
(lp159
Vthrowin ' something on the , little boy
p160
atp161
Rp162
(dp163
g11
S'start: 4'
p164
sbatp165
Rp166
(dp167
g11
S'sent: 7'
p168
sbag0
(g1
g2
(lp169
g0
(g1
g2
(lp170
Vit
p171
atp172
Rp173
(dp174
g11
S'start: 6'
p175
sbatp176
Rp177
(dp178
g11
S'sent: 8'
p179
sbag0
(g1
g2
(lp180
g0
(g1
g2
(lp181
Vit
p182
atp183
Rp184
(dp185
g11
S'start: 19'
p186
sbatp187
Rp188
(dp189
g11
S'sent: 8'
p190
sbatp191
Rp192
(dp193
g11
S'id: 21'
p194
sbag0
(g1
g2
(lp195
g0
(g1
g2
(lp196
g0
(g1
g2
(lp197
Vshieldin '
p198
atp199
Rp200
(dp201
g11
S'start: 15'
p202
sbatp203
Rp204
(dp205
g11
S'sent: 8'
p206
sbag0
(g1
g2
(lp207
g0
(g1
g2
(lp208
Vhimself
p209
atp210
Rp211
(dp212
g11
S'start: 17'
p213
sbatp214
Rp215
(dp216
g11
S'sent: 8'
p217
sbatp218
Rp219
(dp220
g11
S'id: 27'
p221
sbatp222
Rp223
(dp224
g11
S'coreferences'
p225
sb.