ccopy_reg
_reconstructor
p0
(cnltk.tree
Tree
p1
c__builtin__
list
p2
(lp3
g0
(g1
g2
(lp4
g0
(g1
g2
(lp5
g0
(g1
g2
(lp6
g0
(g1
g2
(lp7
g0
(g1
g2
(lp8
Vlooks
p9
atp10
Rp11
(dp12
S'_label'
p13
VNNS
p14
sbatp15
Rp16
(dp17
g13
VNP
p18
sbag0
(g1
g2
(lp19
g0
(g1
g2
(lp20
Vlike
p21
atp22
Rp23
(dp24
g13
VIN
p25
sbag0
(g1
g2
(lp26
g0
(g1
g2
(lp27
Vwe
p28
atp29
Rp30
(dp31
g13
VPRP
p32
sbatp33
Rp34
(dp35
g13
VNP
p36
sbatp37
Rp38
(dp39
g13
VPP
p40
sbatp41
Rp42
(dp43
g13
VNP
p44
sbag0
(g1
g2
(lp45
g0
(g1
g2
(lp46
V're
p47
atp48
Rp49
(dp50
g13
VVBP
p51
sbag0
(g1
g2
(lp52
g0
(g1
g2
(lp53
Von
p54
atp55
Rp56
(dp57
g13
VIN
p58
sbag0
(g1
g2
(lp59
g0
(g1
g2
(lp60
Va
p61
atp62
Rp63
(dp64
g13
VDT
p65
sbag0
(g1
g2
(lp66
Vpicnic
p67
atp68
Rp69
(dp70
g13
VNN
p71
sbatp72
Rp73
(dp74
g13
VNP
p75
sbatp76
Rp77
(dp78
g13
VPP
p79
sbag0
(g1
g2
(lp80
g0
(g1
g2
(lp81
Vdown
p82
atp83
Rp84
(dp85
g13
VRP
p86
sbag0
(g1
g2
(lp87
g0
(g1
g2
(lp88
Vby
p89
atp90
Rp91
(dp92
g13
VIN
p93
sbag0
(g1
g2
(lp94
g0
(g1
g2
(lp95
Vthe
p96
atp97
Rp98
(dp99
g13
VDT
p100
sbag0
(g1
g2
(lp101
Vlake
p102
atp103
Rp104
(dp105
g13
VNN
p106
sbatp107
Rp108
(dp109
g13
VNP
p110
sbatp111
Rp112
(dp113
g13
VPP
p114
sbatp115
Rp116
(dp117
g13
VADVP
p118
sbatp119
Rp120
(dp121
g13
VVP
p122
sbag0
(g1
g2
(lp123
V.
p124
atp125
Rp126
(dp127
g13
V.
p128
sbatp129
Rp130
(dp131
g13
VS
p132
sbatp133
Rp134
(dp135
g13
S'id: 0'
p136
sbag0
(g1
g2
(lp137
g0
(g1
g2
(lp138
g0
(g1
g2
(lp139
Vand
p140
atp141
Rp142
(dp143
g13
VCC
p144
sbag0
(g1
g2
(lp145
g0
(g1
g2
(lp146
Vmom
p147
atp148
Rp149
(dp150
g13
VNN
p151
sbatp152
Rp153
(dp154
g13
VNP
p155
sbag0
(g1
g2
(lp156
g0
(g1
g2
(lp157
Vis
p158
atp159
Rp160
(dp161
g13
VVBZ
p162
sbag0
(g1
g2
(lp163
g0
(g1
g2
(lp164
Vpouring
p165
atp166
Rp167
(dp168
g13
VVBG
p169
sbag0
(g1
g2
(lp170
g0
(g1
g2
(lp171
g0
(g1
g2
(lp172
Va
p173
atp174
Rp175
(dp176
g13
VDT
p177
sbag0
(g1
g2
(lp178
Vglass
p179
atp180
Rp181
(dp182
g13
VNN
p183
sbatp184
Rp185
(dp186
g13
VNP
p187
sbag0
(g1
g2
(lp188
g0
(g1
g2
(lp189
Vof
p190
atp191
Rp192
(dp193
g13
VIN
p194
sbag0
(g1
g2
(lp195
g0
(g1
g2
(lp196
Vwine
p197
atp198
Rp199
(dp200
g13
VNN
p201
sbatp202
Rp203
(dp204
g13
VNP
p205
sbatp206
Rp207
(dp208
g13
VPP
p209
sbatp210
Rp211
(dp212
g13
VNP
p213
sbatp214
Rp215
(dp216
g13
VVP
p217
sbatp218
Rp219
(dp220
g13
VVP
p221
sbag0
(g1
g2
(lp222
V.
p223
atp224
Rp225
(dp226
g13
V.
p227
sbatp228
Rp229
(dp230
g13
VS
p231
sbatp232
Rp233
(dp234
g13
S'id: 1'
p235
sbag0
(g1
g2
(lp236
g0
(g1
g2
(lp237
g0
(g1
g2
(lp238
Vand
p239
atp240
Rp241
(dp242
g13
VCC
p243
sbag0
(g1
g2
(lp244
g0
(g1
g2
(lp245
Vhas
p246
atp247
Rp248
(dp249
g13
VVBZ
p250
sbag0
(g1
g2
(lp251
g0
(g1
g2
(lp252
Va
p253
atp254
Rp255
(dp256
g13
VDT
p257
sbag0
(g1
g2
(lp258
Vnice
p259
atp260
Rp261
(dp262
g13
VJJ
p263
sbag0
(g1
g2
(lp264
Vpicnic
p265
atp266
Rp267
(dp268
g13
VNN
p269
sbag0
(g1
g2
(lp270
Vbasket
p271
atp272
Rp273
(dp274
g13
VNN
p275
sbatp276
Rp277
(dp278
g13
VNP
p279
sbag0
(g1
g2
(lp280
g0
(g1
g2
(lp281
Vthere
p282
atp283
Rp284
(dp285
g13
VRB
p286
sbatp287
Rp288
(dp289
g13
VADVP
p290
sbatp291
Rp292
(dp293
g13
VVP
p294
sbag0
(g1
g2
(lp295
V.
p296
atp297
Rp298
(dp299
g13
V.
p300
sbatp301
Rp302
(dp303
g13
VS
p304
sbatp305
Rp306
(dp307
g13
S'id: 2'
p308
sbag0
(g1
g2
(lp309
g0
(g1
g2
(lp310
g0
(g1
g2
(lp311
Vand
p312
atp313
Rp314
(dp315
g13
VCC
p316
sbag0
(g1
g2
(lp317
g0
(g1
g2
(lp318
Vthe
p319
atp320
Rp321
(dp322
g13
VDT
p323
sbag0
(g1
g2
(lp324
Vboom
p325
atp326
Rp327
(dp328
g13
VNN
p329
sbag0
(g1
g2
(lp330
Vbox
p331
atp332
Rp333
(dp334
g13
VNN
p335
sbatp336
Rp337
(dp338
g13
VNP
p339
sbag0
(g1
g2
(lp340
g0
(g1
g2
(lp341
Vis
p342
atp343
Rp344
(dp345
g13
VVBZ
p346
sbag0
(g1
g2
(lp347
g0
(g1
g2
(lp348
Vplaying
p349
atp350
Rp351
(dp352
g13
VVBG
p353
sbag0
(g1
g2
(lp354
g0
(g1
g2
(lp355
Vsome
p356
atp357
Rp358
(dp359
g13
VDT
p360
sbag0
(g1
g2
(lp361
Vmusic
p362
atp363
Rp364
(dp365
g13
VNN
p366
sbatp367
Rp368
(dp369
g13
VNP
p370
sbag0
(g1
g2
(lp371
g0
(g1
g2
(lp372
Vwhile
p373
atp374
Rp375
(dp376
g13
VIN
p377
sbag0
(g1
g2
(lp378
g0
(g1
g2
(lp379
g0
(g1
g2
(lp380
Vdad
p381
atp382
Rp383
(dp384
g13
VNN
p385
sbatp386
Rp387
(dp388
g13
VNP
p389
sbag0
(g1
g2
(lp390
g0
(g1
g2
(lp391
Vis
p392
atp393
Rp394
(dp395
g13
VVBZ
p396
sbag0
(g1
g2
(lp397
g0
(g1
g2
(lp398
Vreading
p399
atp400
Rp401
(dp402
g13
VVBG
p403
sbatp404
Rp405
(dp406
g13
VVP
p407
sbatp408
Rp409
(dp410
g13
VVP
p411
sbatp412
Rp413
(dp414
g13
VS
p415
sbatp416
Rp417
(dp418
g13
VSBAR
p419
sbatp420
Rp421
(dp422
g13
VVP
p423
sbatp424
Rp425
(dp426
g13
VVP
p427
sbag0
(g1
g2
(lp428
V.
p429
atp430
Rp431
(dp432
g13
V.
p433
sbatp434
Rp435
(dp436
g13
VS
p437
sbatp438
Rp439
(dp440
g13
S'id: 3'
p441
sbag0
(g1
g2
(lp442
g0
(g1
g2
(lp443
g0
(g1
g2
(lp444
Vand
p445
atp446
Rp447
(dp448
g13
VCC
p449
sbag0
(g1
g2
(lp450
g0
(g1
g2
(lp451
Vthe
p452
atp453
Rp454
(dp455
g13
VDT
p456
sbag0
(g1
g2
(lp457
Vboy
p458
atp459
Rp460
(dp461
g13
VNN
p462
sbatp463
Rp464
(dp465
g13
VNP
p466
sbag0
(g1
g2
(lp467
g0
(g1
g2
(lp468
Vis
p469
atp470
Rp471
(dp472
g13
VVBZ
p473
sbag0
(g1
g2
(lp474
g0
(g1
g2
(lp475
V,
p476
atp477
Rp478
(dp479
g13
V,
p480
sbag0
(g1
g2
(lp481
g0
(g1
g2
(lp482
g0
(g1
g2
(lp483
Vflying
p484
atp485
Rp486
(dp487
g13
VVBG
p488
sbag0
(g1
g2
(lp489
g0
(g1
g2
(lp490
Va
p491
atp492
Rp493
(dp494
g13
VDT
p495
sbag0
(g1
g2
(lp496
Vkite
p497
atp498
Rp499
(dp500
g13
VNN
p501
sbatp502
Rp503
(dp504
g13
VNP
p505
sbag0
(g1
g2
(lp506
g0
(g1
g2
(lp507
Vwhile
p508
atp509
Rp510
(dp511
g13
VIN
p512
sbag0
(g1
g2
(lp513
g0
(g1
g2
(lp514
g0
(g1
g2
(lp515
Vhis
p516
atp517
Rp518
(dp519
g13
VPRP$
p520
sbag0
(g1
g2
(lp521
Vdog
p522
atp523
Rp524
(dp525
g13
VNN
p526
sbatp527
Rp528
(dp529
g13
VNP
p530
sbag0
(g1
g2
(lp531
g0
(g1
g2
(lp532
Vis
p533
atp534
Rp535
(dp536
g13
VVBZ
p537
sbag0
(g1
g2
(lp538
g0
(g1
g2
(lp539
Vchasing
p540
atp541
Rp542
(dp543
g13
VVBG
p544
sbag0
(g1
g2
(lp545
g0
(g1
g2
(lp546
Vhim
p547
atp548
Rp549
(dp550
g13
VPRP
p551
sbatp552
Rp553
(dp554
g13
VNP
p555
sbatp556
Rp557
(dp558
g13
VVP
p559
sbatp560
Rp561
(dp562
g13
VVP
p563
sbatp564
Rp565
(dp566
g13
VS
p567
sbatp568
Rp569
(dp570
g13
VSBAR
p571
sbatp572
Rp573
(dp574
g13
VVP
p575
sbatp576
Rp577
(dp578
g13
VS
p579
sbatp580
Rp581
(dp582
g13
VVP
p583
sbatp584
Rp585
(dp586
g13
VVP
p587
sbag0
(g1
g2
(lp588
V.
p589
atp590
Rp591
(dp592
g13
V.
p593
sbatp594
Rp595
(dp596
g13
VS
p597
sbatp598
Rp599
(dp600
g13
S'id: 4'
p601
sbag0
(g1
g2
(lp602
g0
(g1
g2
(lp603
g0
(g1
g2
(lp604
g0
(g1
g2
(lp605
Vthere
p606
atp607
Rp608
(dp609
g13
VEX
p610
sbatp611
Rp612
(dp613
g13
VNP
p614
sbag0
(g1
g2
(lp615
g0
(g1
g2
(lp616
V's
p617
atp618
Rp619
(dp620
g13
VVBZ
p621
sbag0
(g1
g2
(lp622
g0
(g1
g2
(lp623
g0
(g1
g2
(lp624
Va
p625
atp626
Rp627
(dp628
g13
VDT
p629
sbag0
(g1
g2
(lp630
Vman
p631
atp632
Rp633
(dp634
g13
VNN
p635
sbatp636
Rp637
(dp638
g13
VNP
p639
sbag0
(g1
g2
(lp640
g0
(g1
g2
(lp641
Von
p642
atp643
Rp644
(dp645
g13
VIN
p646
sbag0
(g1
g2
(lp647
g0
(g1
g2
(lp648
g0
(g1
g2
(lp649
Va
p650
atp651
Rp652
(dp653
g13
VDT
p654
sbag0
(g1
g2
(lp655
Vpier
p656
atp657
Rp658
(dp659
g13
VNN
p660
sbatp661
Rp662
(dp663
g13
VNP
p664
sbag0
(g1
g2
(lp665
g0
(g1
g2
(lp666
g0
(g1
g2
(lp667
Vwho
p668
atp669
Rp670
(dp671
g13
VWP
p672
sbatp673
Rp674
(dp675
g13
VWHNP
p676
sbag0
(g1
g2
(lp677
g0
(g1
g2
(lp678
g0
(g1
g2
(lp679
Vcaught
p680
atp681
Rp682
(dp683
g13
VVBD
p684
sbag0
(g1
g2
(lp685
g0
(g1
g2
(lp686
Va
p687
atp688
Rp689
(dp690
g13
VDT
p691
sbag0
(g1
g2
(lp692
Vfish
p693
atp694
Rp695
(dp696
g13
VNN
p697
sbatp698
Rp699
(dp700
g13
VNP
p701
sbatp702
Rp703
(dp704
g13
VVP
p705
sbatp706
Rp707
(dp708
g13
VS
p709
sbatp710
Rp711
(dp712
g13
VSBAR
p713
sbatp714
Rp715
(dp716
g13
VNP
p717
sbatp718
Rp719
(dp720
g13
VPP
p721
sbatp722
Rp723
(dp724
g13
VNP
p725
sbatp726
Rp727
(dp728
g13
VVP
p729
sbag0
(g1
g2
(lp730
V.
p731
atp732
Rp733
(dp734
g13
V.
p735
sbatp736
Rp737
(dp738
g13
VS
p739
sbatp740
Rp741
(dp742
g13
S'id: 5'
p743
sbag0
(g1
g2
(lp744
g0
(g1
g2
(lp745
g0
(g1
g2
(lp746
Vand
p747
atp748
Rp749
(dp750
g13
VCC
p751
sbag0
(g1
g2
(lp752
g0
(g1
g2
(lp753
Vthere
p754
atp755
Rp756
(dp757
g13
VEX
p758
sbatp759
Rp760
(dp761
g13
VNP
p762
sbag0
(g1
g2
(lp763
g0
(g1
g2
(lp764
V's
p765
atp766
Rp767
(dp768
g13
VVBZ
p769
sbag0
(g1
g2
(lp770
g0
(g1
g2
(lp771
g0
(g1
g2
(lp772
Vanother
p773
atp774
Rp775
(dp776
g13
VDT
p777
sbag0
(g1
g2
(lp778
Vgirl
p779
atp780
Rp781
(dp782
g13
VNN
p783
sbatp784
Rp785
(dp786
g13
VNP
p787
sbag0
(g1
g2
(lp788
g0
(g1
g2
(lp789
g0
(g1
g2
(lp790
Vwho
p791
atp792
Rp793
(dp794
g13
VWP
p795
sbatp796
Rp797
(dp798
g13
VWHNP
p799
sbag0
(g1
g2
(lp800
g0
(g1
g2
(lp801
g0
(g1
g2
(lp802
V's
p803
atp804
Rp805
(dp806
g13
VVBZ
p807
sbag0
(g1
g2
(lp808
g0
(g1
g2
(lp809
Vin
p810
atp811
Rp812
(dp813
g13
VIN
p814
sbag0
(g1
g2
(lp815
g0
(g1
g2
(lp816
g0
(g1
g2
(lp817
Vthe
p818
atp819
Rp820
(dp821
g13
VDT
p822
sbag0
(g1
g2
(lp823
Vbeach
p824
atp825
Rp826
(dp827
g13
VNN
p828
sbatp829
Rp830
(dp831
g13
VNP
p832
sbag0
(g1
g2
(lp833
g0
(g1
g2
(lp834
g0
(g1
g2
(lp835
Vwho
p836
atp837
Rp838
(dp839
g13
VWP
p840
sbatp841
Rp842
(dp843
g13
VWHNP
p844
sbag0
(g1
g2
(lp845
g0
(g1
g2
(lp846
g0
(g1
g2
(lp847
V's
p848
atp849
Rp850
(dp851
g13
VVBZ
p852
sbag0
(g1
g2
(lp853
g0
(g1
g2
(lp854
Vmaking
p855
atp856
Rp857
(dp858
g13
VVBG
p859
sbag0
(g1
g2
(lp860
g0
(g1
g2
(lp861
Vsand
p862
atp863
Rp864
(dp865
g13
VNN
p866
sbag0
(g1
g2
(lp867
Vcastles
p868
atp869
Rp870
(dp871
g13
VNNS
p872
sbatp873
Rp874
(dp875
g13
VNP
p876
sbatp877
Rp878
(dp879
g13
VVP
p880
sbatp881
Rp882
(dp883
g13
VVP
p884
sbatp885
Rp886
(dp887
g13
VS
p888
sbatp889
Rp890
(dp891
g13
VSBAR
p892
sbatp893
Rp894
(dp895
g13
VNP
p896
sbatp897
Rp898
(dp899
g13
VPP
p900
sbatp901
Rp902
(dp903
g13
VVP
p904
sbatp905
Rp906
(dp907
g13
VS
p908
sbatp909
Rp910
(dp911
g13
VSBAR
p912
sbatp913
Rp914
(dp915
g13
VNP
p916
sbatp917
Rp918
(dp919
g13
VVP
p920
sbag0
(g1
g2
(lp921
V.
p922
atp923
Rp924
(dp925
g13
V.
p926
sbatp927
Rp928
(dp929
g13
VS
p930
sbatp931
Rp932
(dp933
g13
S'id: 6'
p934
sbag0
(g1
g2
(lp935
g0
(g1
g2
(lp936
g0
(g1
g2
(lp937
Vand
p938
atp939
Rp940
(dp941
g13
VCC
p942
sbag0
(g1
g2
(lp943
g0
(g1
g2
(lp944
g0
(g1
g2
(lp945
Vway
p946
atp947
Rp948
(dp949
g13
VNN
p950
sbag0
(g1
g2
(lp951
Vout
p952
atp953
Rp954
(dp955
g13
VIN
p956
sbatp957
Rp958
(dp959
g13
VADVP
p960
sbag0
(g1
g2
(lp961
g0
(g1
g2
(lp962
Vin
p963
atp964
Rp965
(dp966
g13
VIN
p967
sbag0
(g1
g2
(lp968
g0
(g1
g2
(lp969
g0
(g1
g2
(lp970
g0
(g1
g2
(lp971
Vthe
p972
atp973
Rp974
(dp975
g13
VDT
p976
sbag0
(g1
g2
(lp977
Vmiddle
p978
atp979
Rp980
(dp981
g13
VNN
p982
sbatp983
Rp984
(dp985
g13
VNP
p986
sbag0
(g1
g2
(lp987
g0
(g1
g2
(lp988
Vof
p989
atp990
Rp991
(dp992
g13
VIN
p993
sbag0
(g1
g2
(lp994
g0
(g1
g2
(lp995
Vthe
p996
atp997
Rp998
(dp999
g13
VDT
p1000
sbag0
(g1
g2
(lp1001
Vlake
p1002
atp1003
Rp1004
(dp1005
g13
VNN
p1006
sbatp1007
Rp1008
(dp1009
g13
VNP
p1010
sbatp1011
Rp1012
(dp1013
g13
VPP
p1014
sbatp1015
Rp1016
(dp1017
g13
VNP
p1018
sbag0
(g1
g2
(lp1019
g0
(g1
g2
(lp1020
Vis
p1021
atp1022
Rp1023
(dp1024
g13
VVBZ
p1025
sbag0
(g1
g2
(lp1026
g0
(g1
g2
(lp1027
g0
(g1
g2
(lp1028
Va
p1029
atp1030
Rp1031
(dp1032
g13
VDT
p1033
sbag0
(g1
g2
(lp1034
Vboat
p1035
atp1036
Rp1037
(dp1038
g13
VNN
p1039
sbatp1040
Rp1041
(dp1042
g13
VNP
p1043
sbag0
(g1
g2
(lp1044
g0
(g1
g2
(lp1045
g0
(g1
g2
(lp1046
Vthat
p1047
atp1048
Rp1049
(dp1050
g13
VWDT
p1051
sbatp1052
Rp1053
(dp1054
g13
VWHNP
p1055
sbag0
(g1
g2
(lp1056
g0
(g1
g2
(lp1057
g0
(g1
g2
(lp1058
V's
p1059
atp1060
Rp1061
(dp1062
g13
VVBZ
p1063
sbag0
(g1
g2
(lp1064
g0
(g1
g2
(lp1065
V,
p1066
atp1067
Rp1068
(dp1069
g13
V,
p1070
sbag0
(g1
g2
(lp1071
g0
(g1
g2
(lp1072
g0
(g1
g2
(lp1073
Vsailing
p1074
atp1075
Rp1076
(dp1077
g13
VVBG
p1078
sbag0
(g1
g2
(lp1079
g0
(g1
g2
(lp1080
Vdown
p1081
atp1082
Rp1083
(dp1084
g13
VRP
p1085
sbatp1086
Rp1087
(dp1088
g13
VPRT
p1089
sbag0
(g1
g2
(lp1090
g0
(g1
g2
(lp1091
Vthe
p1092
atp1093
Rp1094
(dp1095
g13
VDT
p1096
sbag0
(g1
g2
(lp1097
Vlake
p1098
atp1099
Rp1100
(dp1101
g13
VNN
p1102
sbatp1103
Rp1104
(dp1105
g13
VNP
p1106
sbatp1107
Rp1108
(dp1109
g13
VVP
p1110
sbatp1111
Rp1112
(dp1113
g13
VS
p1114
sbatp1115
Rp1116
(dp1117
g13
VVP
p1118
sbatp1119
Rp1120
(dp1121
g13
VVP
p1122
sbatp1123
Rp1124
(dp1125
g13
VS
p1126
sbatp1127
Rp1128
(dp1129
g13
VSBAR
p1130
sbatp1131
Rp1132
(dp1133
g13
VNP
p1134
sbatp1135
Rp1136
(dp1137
g13
VVP
p1138
sbatp1139
Rp1140
(dp1141
g13
VS
p1142
sbatp1143
Rp1144
(dp1145
g13
VSBAR
p1146
sbag0
(g1
g2
(lp1147
V.
p1148
atp1149
Rp1150
(dp1151
g13
V.
p1152
sbatp1153
Rp1154
(dp1155
g13
VADVP
p1156
sbatp1157
Rp1158
(dp1159
g13
VFRAG
p1160
sbatp1161
Rp1162
(dp1163
g13
S'id: 7'
p1164
sbatp1165
Rp1166
(dp1167
g13
S'sentences'
p1168
sb.