ccopy_reg
_reconstructor
p0
(cnltk.tree
Tree
p1
c__builtin__
list
p2
(lp3
g0
(g1
g2
(lp4
g0
(g1
g2
(lp5
g0
(g1
g2
(lp6
g0
(g1
g2
(lp7
Vokay
p8
atp9
Rp10
(dp11
S'_label'
p12
VJJ
p13
sbatp14
Rp15
(dp16
g12
VADJP
p17
sbag0
(g1
g2
(lp18
g0
(g1
g2
(lp19
Vit
p20
atp21
Rp22
(dp23
g12
VPRP
p24
sbatp25
Rp26
(dp27
g12
VNP
p28
sbag0
(g1
g2
(lp29
g0
(g1
g2
(lp30
V's
p31
atp32
Rp33
(dp34
g12
VVBZ
p35
sbag0
(g1
g2
(lp36
g0
(g1
g2
(lp37
Va
p38
atp39
Rp40
(dp41
g12
VDT
p42
sbag0
(g1
g2
(lp43
Vcircus
p44
atp45
Rp46
(dp47
g12
VNN
p48
sbatp49
Rp50
(dp51
g12
VNP
p52
sbatp53
Rp54
(dp55
g12
VVP
p56
sbag0
(g1
g2
(lp57
V.
p58
atp59
Rp60
(dp61
g12
V.
p62
sbatp63
Rp64
(dp65
g12
VS
p66
sbatp67
Rp68
(dp69
g12
S'id: 0'
p70
sbag0
(g1
g2
(lp71
g0
(g1
g2
(lp72
g0
(g1
g2
(lp73
g0
(g1
g2
(lp74
Vthere
p75
atp76
Rp77
(dp78
g12
VRB
p79
sbatp80
Rp81
(dp82
g12
VADVP
p83
sbag0
(g1
g2
(lp84
g0
(g1
g2
(lp85
Vclowns
p86
atp87
Rp88
(dp89
g12
VNNS
p90
sbatp91
Rp92
(dp93
g12
VNP
p94
sbag0
(g1
g2
(lp95
V,
p96
atp97
Rp98
(dp99
g12
V,
p100
sbag0
(g1
g2
(lp101
g0
(g1
g2
(lp102
g0
(g1
g2
(lp103
Vlooks
p104
atp105
Rp106
(dp107
g12
VVBZ
p108
sbag0
(g1
g2
(lp109
g0
(g1
g2
(lp110
Vlike
p111
atp112
Rp113
(dp114
g12
VIN
p115
sbag0
(g1
g2
(lp116
g0
(g1
g2
(lp117
g0
(g1
g2
(lp118
Vthrowing
p119
atp120
Rp121
(dp122
g12
VVBG
p123
sbatp124
Rp125
(dp126
g12
VVP
p127
sbatp128
Rp129
(dp130
g12
VS
p131
sbatp132
Rp133
(dp134
g12
VPP
p135
sbatp136
Rp137
(dp138
g12
VVP
p139
sbatp140
Rp141
(dp142
g12
VS
p143
sbag0
(g1
g2
(lp144
V,
p145
atp146
Rp147
(dp148
g12
V,
p149
sbag0
(g1
g2
(lp150
g0
(g1
g2
(lp151
Vi
p152
atp153
Rp154
(dp155
g12
VFW
p156
sbatp157
Rp158
(dp159
g12
VNP
p160
sbag0
(g1
g2
(lp161
g0
(g1
g2
(lp162
Vdo
p163
atp164
Rp165
(dp166
g12
VVBP
p167
sbag0
(g1
g2
(lp168
Vn't
p169
atp170
Rp171
(dp172
g12
VRB
p173
sbag0
(g1
g2
(lp174
g0
(g1
g2
(lp175
Vknow
p176
atp177
Rp178
(dp179
g12
VVB
p180
sbag0
(g1
g2
(lp181
g0
(g1
g2
(lp182
Vif
p183
atp184
Rp185
(dp186
g12
VIN
p187
sbag0
(g1
g2
(lp188
g0
(g1
g2
(lp189
g0
(g1
g2
(lp190
Vit
p191
atp192
Rp193
(dp194
g12
VPRP
p195
sbatp196
Rp197
(dp198
g12
VNP
p199
sbag0
(g1
g2
(lp200
g0
(g1
g2
(lp201
V's
p202
atp203
Rp204
(dp205
g12
VVBZ
p206
sbag0
(g1
g2
(lp207
g0
(g1
g2
(lp208
Vconfetti
p209
atp210
Rp211
(dp212
g12
VNN
p213
sbag0
(g1
g2
(lp214
Vor
p215
atp216
Rp217
(dp218
g12
VCC
p219
sbag0
(g1
g2
(lp220
Vpopcorn
p221
atp222
Rp223
(dp224
g12
VNN
p225
sbatp226
Rp227
(dp228
g12
VNP
p229
sbatp230
Rp231
(dp232
g12
VVP
p233
sbatp234
Rp235
(dp236
g12
VS
p237
sbatp238
Rp239
(dp240
g12
VSBAR
p241
sbatp242
Rp243
(dp244
g12
VVP
p245
sbatp246
Rp247
(dp248
g12
VVP
p249
sbag0
(g1
g2
(lp250
V.
p251
atp252
Rp253
(dp254
g12
V.
p255
sbatp256
Rp257
(dp258
g12
VS
p259
sbatp260
Rp261
(dp262
g12
S'id: 1'
p263
sbag0
(g1
g2
(lp264
g0
(g1
g2
(lp265
g0
(g1
g2
(lp266
g0
(g1
g2
(lp267
Va
p268
atp269
Rp270
(dp271
g12
VDT
p272
sbag0
(g1
g2
(lp273
Vmama
p274
atp275
Rp276
(dp277
g12
VNN
p278
sbatp279
Rp280
(dp281
g12
VNP
p282
sbag0
(g1
g2
(lp283
g0
(g1
g2
(lp284
Vholding
p285
atp286
Rp287
(dp288
g12
VVBG
p289
sbag0
(g1
g2
(lp290
g0
(g1
g2
(lp291
Vher
p292
atp293
Rp294
(dp295
g12
VPRP$
p296
sbag0
(g1
g2
(lp297
Vlittle
p298
atp299
Rp300
(dp301
g12
VJJ
p302
sbag0
(g1
g2
(lp303
Vgirl
p304
atp305
Rp306
(dp307
g12
VNN
p308
sbatp309
Rp310
(dp311
g12
VNP
p312
sbatp313
Rp314
(dp315
g12
VVP
p316
sbag0
(g1
g2
(lp317
V.
p318
atp319
Rp320
(dp321
g12
V.
p322
sbatp323
Rp324
(dp325
g12
VNP
p326
sbatp327
Rp328
(dp329
g12
S'id: 2'
p330
sbag0
(g1
g2
(lp331
g0
(g1
g2
(lp332
g0
(g1
g2
(lp333
g0
(g1
g2
(lp334
Va
p335
atp336
Rp337
(dp338
g12
VDT
p339
sbag0
(g1
g2
(lp340
Vhorse
p341
atp342
Rp343
(dp344
g12
VNN
p345
sbatp346
Rp347
(dp348
g12
VNP
p349
sbag0
(g1
g2
(lp350
g0
(g1
g2
(lp351
Vprancing
p352
atp353
Rp354
(dp355
g12
VVBG
p356
sbag0
(g1
g2
(lp357
g0
(g1
g2
(lp358
Vwith
p359
atp360
Rp361
(dp362
g12
VIN
p363
sbag0
(g1
g2
(lp364
g0
(g1
g2
(lp365
Va
p366
atp367
Rp368
(dp369
g12
VDT
p370
sbag0
(g1
g2
(lp371
g0
(g1
g2
(lp372
g0
(g1
g2
(lp373
V,
p374
atp375
Rp376
(dp377
g12
V,
p378
sbag0
(g1
g2
(lp379
Vtrapeze
p380
atp381
Rp382
(dp383
g12
VJJ
p384
sbag0
(g1
g2
(lp385
Vartist
p386
atp387
Rp388
(dp389
g12
VNN
p390
sbatp391
Rp392
(dp393
g12
VNP
p394
sbag0
(g1
g2
(lp395
g0
(g1
g2
(lp396
Vwalking
p397
atp398
Rp399
(dp400
g12
VVBG
p401
sbag0
(g1
g2
(lp402
g0
(g1
g2
(lp403
Von
p404
atp405
Rp406
(dp407
g12
VIN
p408
sbag0
(g1
g2
(lp409
g0
(g1
g2
(lp410
Va
p411
atp412
Rp413
(dp414
g12
VDT
p415
sbag0
(g1
g2
(lp416
Vtightrope
p417
atp418
Rp419
(dp420
g12
VNN
p421
sbatp422
Rp423
(dp424
g12
VNP
p425
sbatp426
Rp427
(dp428
g12
VPP
p429
sbatp430
Rp431
(dp432
g12
VVP
p433
sbatp434
Rp435
(dp436
g12
VNP
p437
sbag0
(g1
g2
(lp438
V,
p439
atp440
Rp441
(dp442
g12
V,
p443
sbag0
(g1
g2
(lp444
g0
(g1
g2
(lp445
g0
(g1
g2
(lp446
Vpeople
p447
atp448
Rp449
(dp450
g12
VNNS
p451
sbatp452
Rp453
(dp454
g12
VNP
p455
sbag0
(g1
g2
(lp456
g0
(g1
g2
(lp457
Vin
p458
atp459
Rp460
(dp461
g12
VIN
p462
sbag0
(g1
g2
(lp463
g0
(g1
g2
(lp464
g0
(g1
g2
(lp465
Vthe
p466
atp467
Rp468
(dp469
g12
VDT
p470
sbag0
(g1
g2
(lp471
Vbackground
p472
atp473
Rp474
(dp475
g12
VNN
p476
sbatp477
Rp478
(dp479
g12
VNP
p480
sbag0
(g1
g2
(lp481
V,
p482
atp483
Rp484
(dp485
g12
V,
p486
sbag0
(g1
g2
(lp487
g0
(g1
g2
(lp488
Va
p489
atp490
Rp491
(dp492
g12
VDT
p493
sbag0
(g1
g2
(lp494
Vlion
p495
atp496
Rp497
(dp498
g12
VNN
p499
sbatp500
Rp501
(dp502
g12
VNP
p503
sbag0
(g1
g2
(lp504
V,
p505
atp506
Rp507
(dp508
g12
V,
p509
sbag0
(g1
g2
(lp510
g0
(g1
g2
(lp511
Vthe
p512
atp513
Rp514
(dp515
g12
VDT
p516
sbag0
(g1
g2
(lp517
Vlion
p518
atp519
Rp520
(dp521
g12
VNN
p522
sbag0
(g1
g2
(lp523
Vtamer
p524
atp525
Rp526
(dp527
g12
VJJR
p528
sbatp529
Rp530
(dp531
g12
VNP
p532
sbag0
(g1
g2
(lp533
V,
p534
atp535
Rp536
(dp537
g12
V,
p538
sbag0
(g1
g2
(lp539
g0
(g1
g2
(lp540
g0
(g1
g2
(lp541
Va
p542
atp543
Rp544
(dp545
g12
VDT
p546
sbag0
(g1
g2
(lp547
Vman
p548
atp549
Rp550
(dp551
g12
VNN
p552
sbatp553
Rp554
(dp555
g12
VNP
p556
sbag0
(g1
g2
(lp557
g0
(g1
g2
(lp558
Vwith
p559
atp560
Rp561
(dp562
g12
VIN
p563
sbag0
(g1
g2
(lp564
g0
(g1
g2
(lp565
Vhis
p566
atp567
Rp568
(dp569
g12
VPRP$
p570
sbag0
(g1
g2
(lp571
Vdaughter
p572
atp573
Rp574
(dp575
g12
VNN
p576
sbatp577
Rp578
(dp579
g12
VNP
p580
sbatp581
Rp582
(dp583
g12
VPP
p584
sbatp585
Rp586
(dp587
g12
VNP
p588
sbag0
(g1
g2
(lp589
V,
p590
atp591
Rp592
(dp593
g12
V,
p594
sbag0
(g1
g2
(lp595
Vand
p596
atp597
Rp598
(dp599
g12
VCC
p600
sbag0
(g1
g2
(lp601
g0
(g1
g2
(lp602
Va
p603
atp604
Rp605
(dp606
g12
VDT
p607
sbag0
(g1
g2
(lp608
Vpretty
p609
atp610
Rp611
(dp612
g12
VJJ
p613
sbag0
(g1
g2
(lp614
Vday
p615
atp616
Rp617
(dp618
g12
VNN
p619
sbatp620
Rp621
(dp622
g12
VNP
p623
sbatp624
Rp625
(dp626
g12
VNP
p627
sbatp628
Rp629
(dp630
g12
VPP
p631
sbatp632
Rp633
(dp634
g12
VNP
p635
sbatp636
Rp637
(dp638
g12
VNP
p639
sbatp640
Rp641
(dp642
g12
VPP
p643
sbatp644
Rp645
(dp646
g12
VVP
p647
sbag0
(g1
g2
(lp648
V.
p649
atp650
Rp651
(dp652
g12
V.
p653
sbatp654
Rp655
(dp656
g12
VNP
p657
sbatp658
Rp659
(dp660
g12
S'id: 3'
p661
sbag0
(g1
g2
(lp662
g0
(g1
g2
(lp663
g0
(g1
g2
(lp664
g0
(g1
g2
(lp665
VThat
p666
atp667
Rp668
(dp669
g12
VDT
p670
sbatp671
Rp672
(dp673
g12
VNP
p674
sbag0
(g1
g2
(lp675
g0
(g1
g2
(lp676
V's
p677
atp678
Rp679
(dp680
g12
VVBZ
p681
sbag0
(g1
g2
(lp682
g0
(g1
g2
(lp683
Vit
p684
atp685
Rp686
(dp687
g12
VPRP
p688
sbatp689
Rp690
(dp691
g12
VNP
p692
sbatp693
Rp694
(dp695
g12
VVP
p696
sbag0
(g1
g2
(lp697
V.
p698
atp699
Rp700
(dp701
g12
V.
p702
sbatp703
Rp704
(dp705
g12
VS
p706
sbatp707
Rp708
(dp709
g12
S'id: 4'
p710
sbatp711
Rp712
(dp713
g12
S'sentences'
p714
sb.