ccopy_reg
_reconstructor
p0
(cnltk.tree
Tree
p1
c__builtin__
list
p2
(lp3
g0
(g1
g2
(lp4
g0
(g1
g2
(lp5
g0
(g1
g2
(lp6
g0
(g1
g2
(lp7
Vokay
p8
atp9
Rp10
(dp11
S'_label'
p12
VJJ
p13
sbag0
(g1
g2
(lp14
g0
(g1
g2
(lp15
g0
(g1
g2
(lp16
g0
(g1
g2
(lp17
Vi
p18
atp19
Rp20
(dp21
g12
VFW
p22
sbatp23
Rp24
(dp25
g12
VNP
p26
sbag0
(g1
g2
(lp27
g0
(g1
g2
(lp28
Vsee
p29
atp30
Rp31
(dp32
g12
VVB
p33
sbag0
(g1
g2
(lp34
g0
(g1
g2
(lp35
Va
p36
atp37
Rp38
(dp39
g12
VDT
p40
sbag0
(g1
g2
(lp41
Vlion
p42
atp43
Rp44
(dp45
g12
VNN
p46
sbatp47
Rp48
(dp49
g12
VNP
p50
sbatp51
Rp52
(dp53
g12
VVP
p54
sbatp55
Rp56
(dp57
g12
VS
p58
sbatp59
Rp60
(dp61
g12
VSBAR
p62
sbatp63
Rp64
(dp65
g12
VADJP
p66
sbag0
(g1
g2
(lp67
V.
p68
atp69
Rp70
(dp71
g12
V.
p72
sbatp73
Rp74
(dp75
g12
VS
p76
sbatp77
Rp78
(dp79
g12
S'id: 0'
p80
sbag0
(g1
g2
(lp81
g0
(g1
g2
(lp82
g0
(g1
g2
(lp83
Vi
p84
atp85
Rp86
(dp87
g12
VLS
p88
sbag0
(g1
g2
(lp89
g0
(g1
g2
(lp90
Vsee
p91
atp92
Rp93
(dp94
g12
VVB
p95
sbag0
(g1
g2
(lp96
g0
(g1
g2
(lp97
Va
p98
atp99
Rp100
(dp101
g12
VDT
p102
sbag0
(g1
g2
(lp103
Vlion
p104
atp105
Rp106
(dp107
g12
VNN
p108
sbatp109
Rp110
(dp111
g12
VNP
p112
sbatp113
Rp114
(dp115
g12
VVP
p116
sbag0
(g1
g2
(lp117
V.
p118
atp119
Rp120
(dp121
g12
V.
p122
sbatp123
Rp124
(dp125
g12
VS
p126
sbatp127
Rp128
(dp129
g12
S'id: 1'
p130
sbag0
(g1
g2
(lp131
g0
(g1
g2
(lp132
g0
(g1
g2
(lp133
Vi
p134
atp135
Rp136
(dp137
g12
VLS
p138
sbag0
(g1
g2
(lp139
g0
(g1
g2
(lp140
Vsee
p141
atp142
Rp143
(dp144
g12
VVB
p145
sbag0
(g1
g2
(lp146
g0
(g1
g2
(lp147
Va
p148
atp149
Rp150
(dp151
g12
VDT
p152
sbag0
(g1
g2
(lp153
Vtightrope
p154
atp155
Rp156
(dp157
g12
VNN
p158
sbag0
(g1
g2
(lp159
Vwalker
p160
atp161
Rp162
(dp163
g12
VNN
p164
sbatp165
Rp166
(dp167
g12
VNP
p168
sbatp169
Rp170
(dp171
g12
VVP
p172
sbag0
(g1
g2
(lp173
V.
p174
atp175
Rp176
(dp177
g12
V.
p178
sbatp179
Rp180
(dp181
g12
VS
p182
sbatp183
Rp184
(dp185
g12
S'id: 2'
p186
sbag0
(g1
g2
(lp187
g0
(g1
g2
(lp188
g0
(g1
g2
(lp189
Vi
p190
atp191
Rp192
(dp193
g12
VLS
p194
sbag0
(g1
g2
(lp195
g0
(g1
g2
(lp196
Vsee
p197
atp198
Rp199
(dp200
g12
VVB
p201
sbag0
(g1
g2
(lp202
g0
(g1
g2
(lp203
Va
p204
atp205
Rp206
(dp207
g12
VDT
p208
sbag0
(g1
g2
(lp209
Vhorse
p210
atp211
Rp212
(dp213
g12
VNN
p214
sbatp215
Rp216
(dp217
g12
VNP
p218
sbatp219
Rp220
(dp221
g12
VVP
p222
sbag0
(g1
g2
(lp223
V.
p224
atp225
Rp226
(dp227
g12
V.
p228
sbatp229
Rp230
(dp231
g12
VS
p232
sbatp233
Rp234
(dp235
g12
S'id: 3'
p236
sbag0
(g1
g2
(lp237
g0
(g1
g2
(lp238
g0
(g1
g2
(lp239
Va
p240
atp241
Rp242
(dp243
g12
VDT
p244
sbag0
(g1
g2
(lp245
Vclown
p246
atp247
Rp248
(dp249
g12
VNN
p250
sbag0
(g1
g2
(lp251
V.
p252
atp253
Rp254
(dp255
g12
V.
p256
sbatp257
Rp258
(dp259
g12
VNP
p260
sbatp261
Rp262
(dp263
g12
S'id: 4'
p264
sbag0
(g1
g2
(lp265
g0
(g1
g2
(lp266
g0
(g1
g2
(lp267
g0
(g1
g2
(lp268
Vsome
p269
atp270
Rp271
(dp272
g12
VDT
p273
sbatp274
Rp275
(dp276
g12
VNP
p277
sbag0
(g1
g2
(lp278
g0
(g1
g2
(lp279
g0
(g1
g2
(lp280
Vchildren
p281
atp282
Rp283
(dp284
g12
VNNS
p285
sbatp286
Rp287
(dp288
g12
VNP
p289
sbag0
(g1
g2
(lp290
Vand
p291
atp292
Rp293
(dp294
g12
VCC
p295
sbag0
(g1
g2
(lp296
g0
(g1
g2
(lp297
Vtheir
p298
atp299
Rp300
(dp301
g12
VPRP$
p302
sbag0
(g1
g2
(lp303
Vparents
p304
atp305
Rp306
(dp307
g12
VNNS
p308
sbatp309
Rp310
(dp311
g12
VNP
p312
sbatp313
Rp314
(dp315
g12
VNP
p316
sbag0
(g1
g2
(lp317
V.
p318
atp319
Rp320
(dp321
g12
V.
p322
sbatp323
Rp324
(dp325
g12
VNP
p326
sbatp327
Rp328
(dp329
g12
S'id: 5'
p330
sbag0
(g1
g2
(lp331
g0
(g1
g2
(lp332
g0
(g1
g2
(lp333
g0
(g1
g2
(lp334
Vring
p335
atp336
Rp337
(dp338
g12
VNN
p339
sbatp340
Rp341
(dp342
g12
VNP
p343
sbag0
(g1
g2
(lp344
g0
(g1
g2
(lp345
Vmaster
p346
atp347
Rp348
(dp349
g12
VNN
p350
sbatp351
Rp352
(dp353
g12
VNP
p354
sbag0
(g1
g2
(lp355
V.
p356
atp357
Rp358
(dp359
g12
V.
p360
sbatp361
Rp362
(dp363
g12
VNP
p364
sbatp365
Rp366
(dp367
g12
S'id: 6'
p368
sbag0
(g1
g2
(lp369
g0
(g1
g2
(lp370
g0
(g1
g2
(lp371
g0
(g1
g2
(lp372
g0
(g1
g2
(lp373
Vlet
p374
atp375
Rp376
(dp377
g12
VVB
p378
sbag0
(g1
g2
(lp379
g0
(g1
g2
(lp380
g0
(g1
g2
(lp381
V's
p382
atp383
Rp384
(dp385
g12
VPOS
p386
sbatp387
Rp388
(dp389
g12
VNP
p390
sbag0
(g1
g2
(lp391
g0
(g1
g2
(lp392
Vsee
p393
atp394
Rp395
(dp396
g12
VVB
p397
sbatp398
Rp399
(dp400
g12
VVP
p401
sbatp402
Rp403
(dp404
g12
VS
p405
sbatp406
Rp407
(dp408
g12
VVP
p409
sbatp410
Rp411
(dp412
g12
VS
p413
sbag0
(g1
g2
(lp414
Vand
p415
atp416
Rp417
(dp418
g12
VCC
p419
sbag0
(g1
g2
(lp420
g0
(g1
g2
(lp421
g0
(g1
g2
(lp422
Vthe
p423
atp424
Rp425
(dp426
g12
VDT
p427
sbag0
(g1
g2
(lp428
Vlady
p429
atp430
Rp431
(dp432
g12
VNN
p433
sbatp434
Rp435
(dp436
g12
VNP
p437
sbag0
(g1
g2
(lp438
g0
(g1
g2
(lp439
Vriding
p440
atp441
Rp442
(dp443
g12
VVBG
p444
sbag0
(g1
g2
(lp445
g0
(g1
g2
(lp446
Vthe
p447
atp448
Rp449
(dp450
g12
VDT
p451
sbag0
(g1
g2
(lp452
Vhorse
p453
atp454
Rp455
(dp456
g12
VNN
p457
sbatp458
Rp459
(dp460
g12
VNP
p461
sbatp462
Rp463
(dp464
g12
VVP
p465
sbatp466
Rp467
(dp468
g12
VS
p469
sbag0
(g1
g2
(lp470
V.
p471
atp472
Rp473
(dp474
g12
V.
p475
sbatp476
Rp477
(dp478
g12
VS
p479
sbatp480
Rp481
(dp482
g12
S'id: 7'
p483
sbag0
(g1
g2
(lp484
g0
(g1
g2
(lp485
g0
(g1
g2
(lp486
Vand
p487
atp488
Rp489
(dp490
g12
VCC
p491
sbag0
(g1
g2
(lp492
g0
(g1
g2
(lp493
g0
(g1
g2
(lp494
Va
p495
atp496
Rp497
(dp498
g12
VDT
p499
sbag0
(g1
g2
(lp500
Vring
p501
atp502
Rp503
(dp504
g12
VNN
p505
sbatp506
Rp507
(dp508
g12
VNP
p509
sbag0
(g1
g2
(lp510
g0
(g1
g2
(lp511
Vwith
p512
atp513
Rp514
(dp515
g12
VIN
p516
sbag0
(g1
g2
(lp517
g0
(g1
g2
(lp518
Vsome
p519
atp520
Rp521
(dp522
g12
VDT
p523
sbag0
(g1
g2
(lp524
Vstars
p525
atp526
Rp527
(dp528
g12
VNNS
p529
sbatp530
Rp531
(dp532
g12
VNP
p533
sbatp534
Rp535
(dp536
g12
VPP
p537
sbag0
(g1
g2
(lp538
g0
(g1
g2
(lp539
Von
p540
atp541
Rp542
(dp543
g12
VIN
p544
sbag0
(g1
g2
(lp545
g0
(g1
g2
(lp546
Vit
p547
atp548
Rp549
(dp550
g12
VPRP
p551
sbatp552
Rp553
(dp554
g12
VNP
p555
sbatp556
Rp557
(dp558
g12
VPP
p559
sbatp560
Rp561
(dp562
g12
VNP
p563
sbag0
(g1
g2
(lp564
V.
p565
atp566
Rp567
(dp568
g12
V.
p569
sbatp570
Rp571
(dp572
g12
VFRAG
p573
sbatp574
Rp575
(dp576
g12
S'id: 8'
p577
sbag0
(g1
g2
(lp578
g0
(g1
g2
(lp579
g0
(g1
g2
(lp580
g0
(g1
g2
(lp581
g0
(g1
g2
(lp582
g0
(g1
g2
(lp583
Vlooks
p584
atp585
Rp586
(dp587
g12
VNNS
p588
sbatp589
Rp590
(dp591
g12
VNP
p592
sbag0
(g1
g2
(lp593
g0
(g1
g2
(lp594
Vlike
p595
atp596
Rp597
(dp598
g12
VIN
p599
sbag0
(g1
g2
(lp600
g0
(g1
g2
(lp601
Vpopcorn
p602
atp603
Rp604
(dp605
g12
VNN
p606
sbatp607
Rp608
(dp609
g12
VNP
p610
sbatp611
Rp612
(dp613
g12
VPP
p614
sbatp615
Rp616
(dp617
g12
VNP
p618
sbag0
(g1
g2
(lp619
Vand
p620
atp621
Rp622
(dp623
g12
VCC
p624
sbag0
(g1
g2
(lp625
g0
(g1
g2
(lp626
g0
(g1
g2
(lp627
Va
p628
atp629
Rp630
(dp631
g12
VDT
p632
sbag0
(g1
g2
(lp633
Vbucket
p634
atp635
Rp636
(dp637
g12
VNN
p638
sbatp639
Rp640
(dp641
g12
VNP
p642
sbag0
(g1
g2
(lp643
g0
(g1
g2
(lp644
Vof
p645
atp646
Rp647
(dp648
g12
VIN
p649
sbag0
(g1
g2
(lp650
g0
(g1
g2
(lp651
Vwater
p652
atp653
Rp654
(dp655
g12
VNN
p656
sbag0
(g1
g2
(lp657
Vor
p658
atp659
Rp660
(dp661
g12
VCC
p662
sbag0
(g1
g2
(lp663
Vsomething
p664
atp665
Rp666
(dp667
g12
VNN
p668
sbatp669
Rp670
(dp671
g12
VNP
p672
sbatp673
Rp674
(dp675
g12
VPP
p676
sbag0
(g1
g2
(lp677
V,
p678
atp679
Rp680
(dp681
g12
V,
p682
sbag0
(g1
g2
(lp683
Vi
p684
atp685
Rp686
(dp687
g12
VFW
p688
sbatp689
Rp690
(dp691
g12
VNP
p692
sbatp693
Rp694
(dp695
g12
VNP
p696
sbag0
(g1
g2
(lp697
g0
(g1
g2
(lp698
V'm
p699
atp700
Rp701
(dp702
g12
VVBP
p703
sbag0
(g1
g2
(lp704
Vnot
p705
atp706
Rp707
(dp708
g12
VRB
p709
sbag0
(g1
g2
(lp710
g0
(g1
g2
(lp711
Vsure
p712
atp713
Rp714
(dp715
g12
VJJ
p716
sbag0
(g1
g2
(lp717
g0
(g1
g2
(lp718
g0
(g1
g2
(lp719
Vwhat
p720
atp721
Rp722
(dp723
g12
VWP
p724
sbatp725
Rp726
(dp727
g12
VWHNP
p728
sbag0
(g1
g2
(lp729
g0
(g1
g2
(lp730
g0
(g1
g2
(lp731
Vhe
p732
atp733
Rp734
(dp735
g12
VPRP
p736
sbatp737
Rp738
(dp739
g12
VNP
p740
sbag0
(g1
g2
(lp741
g0
(g1
g2
(lp742
V's
p743
atp744
Rp745
(dp746
g12
VVBZ
p747
sbag0
(g1
g2
(lp748
g0
(g1
g2
(lp749
Vthrowing
p750
atp751
Rp752
(dp753
g12
VVBG
p754
sbag0
(g1
g2
(lp755
g0
(g1
g2
(lp756
Vat
p757
atp758
Rp759
(dp760
g12
VIN
p761
sbag0
(g1
g2
(lp762
g0
(g1
g2
(lp763
Vthe
p764
atp765
Rp766
(dp767
g12
VDT
p768
sbag0
(g1
g2
(lp769
Vchild
p770
atp771
Rp772
(dp773
g12
VNN
p774
sbatp775
Rp776
(dp777
g12
VNP
p778
sbatp779
Rp780
(dp781
g12
VPP
p782
sbatp783
Rp784
(dp785
g12
VVP
p786
sbatp787
Rp788
(dp789
g12
VVP
p790
sbatp791
Rp792
(dp793
g12
VS
p794
sbatp795
Rp796
(dp797
g12
VSBAR
p798
sbatp799
Rp800
(dp801
g12
VADJP
p802
sbatp803
Rp804
(dp805
g12
VVP
p806
sbag0
(g1
g2
(lp807
V.
p808
atp809
Rp810
(dp811
g12
V.
p812
sbatp813
Rp814
(dp815
g12
VS
p816
sbatp817
Rp818
(dp819
g12
S'id: 9'
p820
sbag0
(g1
g2
(lp821
g0
(g1
g2
(lp822
g0
(g1
g2
(lp823
g0
(g1
g2
(lp824
g0
(g1
g2
(lp825
Vthe
p826
atp827
Rp828
(dp829
g12
VDT
p830
sbag0
(g1
g2
(lp831
Vtie
p832
atp833
Rp834
(dp835
g12
VNN
p836
sbatp837
Rp838
(dp839
g12
VNP
p840
sbag0
(g1
g2
(lp841
g0
(g1
g2
(lp842
Von
p843
atp844
Rp845
(dp846
g12
VIN
p847
sbag0
(g1
g2
(lp848
g0
(g1
g2
(lp849
Vthe
p850
atp851
Rp852
(dp853
g12
VDT
p854
sbag0
(g1
g2
(lp855
Vclown
p856
atp857
Rp858
(dp859
g12
VNN
p860
sbatp861
Rp862
(dp863
g12
VNP
p864
sbatp865
Rp866
(dp867
g12
VPP
p868
sbatp869
Rp870
(dp871
g12
VNP
p872
sbag0
(g1
g2
(lp873
g0
(g1
g2
(lp874
Vhas
p875
atp876
Rp877
(dp878
g12
VVBZ
p879
sbag0
(g1
g2
(lp880
g0
(g1
g2
(lp881
g0
(g1
g2
(lp882
Vflowers
p883
atp884
Rp885
(dp886
g12
VNNS
p887
sbatp888
Rp889
(dp890
g12
VNP
p891
sbag0
(g1
g2
(lp892
g0
(g1
g2
(lp893
Von
p894
atp895
Rp896
(dp897
g12
VIN
p898
sbag0
(g1
g2
(lp899
g0
(g1
g2
(lp900
Vit
p901
atp902
Rp903
(dp904
g12
VPRP
p905
sbatp906
Rp907
(dp908
g12
VNP
p909
sbatp910
Rp911
(dp912
g12
VPP
p913
sbatp914
Rp915
(dp916
g12
VNP
p917
sbatp918
Rp919
(dp920
g12
VVP
p921
sbag0
(g1
g2
(lp922
V.
p923
atp924
Rp925
(dp926
g12
V.
p927
sbatp928
Rp929
(dp930
g12
VS
p931
sbatp932
Rp933
(dp934
g12
S'id: 10'
p935
sbag0
(g1
g2
(lp936
g0
(g1
g2
(lp937
g0
(g1
g2
(lp938
g0
(g1
g2
(lp939
Vokay
p940
atp941
Rp942
(dp943
g12
VJJ
p944
sbatp945
Rp946
(dp947
g12
VADJP
p948
sbag0
(g1
g2
(lp949
V.
p950
atp951
Rp952
(dp953
g12
V.
p954
sbatp955
Rp956
(dp957
g12
VFRAG
p958
sbatp959
Rp960
(dp961
g12
S'id: 11'
p962
sbag0
(g1
g2
(lp963
g0
(g1
g2
(lp964
g0
(g1
g2
(lp965
g0
(g1
g2
(lp966
Vsome
p967
atp968
Rp969
(dp970
g12
VDT
p971
sbag0
(g1
g2
(lp972
Vclouds
p973
atp974
Rp975
(dp976
g12
VNNS
p977
sbatp978
Rp979
(dp980
g12
VNP
p981
sbag0
(g1
g2
(lp982
g0
(g1
g2
(lp983
Vin
p984
atp985
Rp986
(dp987
g12
VIN
p988
sbag0
(g1
g2
(lp989
g0
(g1
g2
(lp990
Vthe
p991
atp992
Rp993
(dp994
g12
VDT
p995
sbag0
(g1
g2
(lp996
Vsky
p997
atp998
Rp999
(dp1000
g12
VNN
p1001
sbatp1002
Rp1003
(dp1004
g12
VNP
p1005
sbatp1006
Rp1007
(dp1008
g12
VPP
p1009
sbag0
(g1
g2
(lp1010
V.
p1011
atp1012
Rp1013
(dp1014
g12
V.
p1015
sbatp1016
Rp1017
(dp1018
g12
VNP
p1019
sbatp1020
Rp1021
(dp1022
g12
S'id: 12'
p1023
sbag0
(g1
g2
(lp1024
g0
(g1
g2
(lp1025
g0
(g1
g2
(lp1026
g0
(g1
g2
(lp1027
Vokay
p1028
atp1029
Rp1030
(dp1031
g12
VJJ
p1032
sbatp1033
Rp1034
(dp1035
g12
VADJP
p1036
sbag0
(g1
g2
(lp1037
V.
p1038
atp1039
Rp1040
(dp1041
g12
V.
p1042
sbatp1043
Rp1044
(dp1045
g12
VFRAG
p1046
sbatp1047
Rp1048
(dp1049
g12
S'id: 13'
p1050
sbag0
(g1
g2
(lp1051
g0
(g1
g2
(lp1052
g0
(g1
g2
(lp1053
g0
(g1
g2
(lp1054
Vthat
p1055
atp1056
Rp1057
(dp1058
g12
VDT
p1059
sbatp1060
Rp1061
(dp1062
g12
VNP
p1063
sbag0
(g1
g2
(lp1064
g0
(g1
g2
(lp1065
V's
p1066
atp1067
Rp1068
(dp1069
g12
VVBZ
p1070
sbag0
(g1
g2
(lp1071
g0
(g1
g2
(lp1072
g0
(g1
g2
(lp1073
Vthat
p1074
atp1075
Rp1076
(dp1077
g12
VDT
p1078
sbatp1079
Rp1080
(dp1081
g12
VWHNP
p1082
sbag0
(g1
g2
(lp1083
g0
(g1
g2
(lp1084
g0
(g1
g2
(lp1085
V's
p1086
atp1087
Rp1088
(dp1089
g12
VVBZ
p1090
sbag0
(g1
g2
(lp1091
g0
(g1
g2
(lp1092
g0
(g1
g2
(lp1093
Vall
p1094
atp1095
Rp1096
(dp1097
g12
VDT
p1098
sbatp1099
Rp1100
(dp1101
g12
VNP
p1102
sbag0
(g1
g2
(lp1103
g0
(g1
g2
(lp1104
g0
(g1
g2
(lp1105
g0
(g1
g2
(lp1106
VI
p1107
atp1108
Rp1109
(dp1110
g12
VPRP
p1111
sbatp1112
Rp1113
(dp1114
g12
VNP
p1115
sbag0
(g1
g2
(lp1116
g0
(g1
g2
(lp1117
Vgot
p1118
atp1119
Rp1120
(dp1121
g12
VVBD
p1122
sbag0
(g1
g2
(lp1123
g0
(g1
g2
(lp1124
g0
(g1
g2
(lp1125
Vto
p1126
atp1127
Rp1128
(dp1129
g12
VTO
p1130
sbag0
(g1
g2
(lp1131
g0
(g1
g2
(lp1132
Vsay
p1133
atp1134
Rp1135
(dp1136
g12
VVB
p1137
sbatp1138
Rp1139
(dp1140
g12
VVP
p1141
sbatp1142
Rp1143
(dp1144
g12
VVP
p1145
sbatp1146
Rp1147
(dp1148
g12
VS
p1149
sbatp1150
Rp1151
(dp1152
g12
VVP
p1153
sbatp1154
Rp1155
(dp1156
g12
VS
p1157
sbatp1158
Rp1159
(dp1160
g12
VSBAR
p1161
sbatp1162
Rp1163
(dp1164
g12
VNP
p1165
sbatp1166
Rp1167
(dp1168
g12
VVP
p1169
sbatp1170
Rp1171
(dp1172
g12
VS
p1173
sbatp1174
Rp1175
(dp1176
g12
VSBAR
p1177
sbatp1178
Rp1179
(dp1180
g12
VVP
p1181
sbag0
(g1
g2
(lp1182
V.
p1183
atp1184
Rp1185
(dp1186
g12
V.
p1187
sbatp1188
Rp1189
(dp1190
g12
VS
p1191
sbatp1192
Rp1193
(dp1194
g12
S'id: 14'
p1195
sbatp1196
Rp1197
(dp1198
g12
S'sentences'
p1199
sb.