ccopy_reg
_reconstructor
p0
(cnltk.tree
Tree
p1
c__builtin__
list
p2
(lp3
g0
(g1
g2
(lp4
g0
(g1
g2
(lp5
g0
(g1
g2
(lp6
(lp7
S'word: and, index: 1'
p8
aatp9
Rp10
(dp11
S'_label'
p12
Vcc
p13
sbag0
(g1
g2
(lp14
(lp15
S'word: this, index: 2'
p16
aatp17
Rp18
(dp19
g12
Vnsubj
p20
sbag0
(g1
g2
(lp21
(lp22
S'word: is, index: 3'
p23
aatp24
Rp25
(dp26
g12
Vcop
p27
sbag0
(g1
g2
(lp28
(lp29
S'word: a, index: 4'
p30
aatp31
Rp32
(dp33
g12
Vdet
p34
sbag0
(g1
g2
(lp35
(lp36
S'word: park, index: 5'
p37
aatp38
Rp39
(dp40
g12
Vnn
p41
sbatp42
Rp43
(dp44
g12
S'word: scene, index: 6'
p45
sbatp46
Rp47
(dp48
g12
S'id: 0'
p49
sbag0
(g1
g2
(lp50
g0
(g1
g2
(lp51
g0
(g1
g2
(lp52
g0
(g1
g2
(lp53
g0
(g1
g2
(lp54
(lp55
S'word: the, index: 3'
p56
aatp57
Rp58
(dp59
g12
Vdet
p60
sbag0
(g1
g2
(lp61
(lp62
S"word: 's, index: 5"
p63
aatp64
Rp65
(dp66
g12
Vpossessive
p67
sbag0
(g1
g2
(lp68
(lp69
S'word: pouring, index: 6'
p70
aatp71
Rp72
(dp73
g12
Vamod
p74
sbag0
(g1
g2
(lp75
(lp76
S'word: soda, index: 8'
p77
aatp78
Rp79
(dp80
g12
Vappos
p81
sbag0
(g1
g2
(lp82
(lp83
S'word: i, index: 9'
p84
aatp85
Rp86
(dp87
g12
Vdep
p88
sbatp89
Rp90
(dp91
g12
S'word: woman, index: 4'
p92
sbatp93
Rp94
(dp95
g12
Vnsubj
p96
sbag0
(g1
g2
(lp97
g0
(g1
g2
(lp98
g0
(g1
g2
(lp99
(lp100
S'word: the, index: 12'
p101
aatp102
Rp103
(dp104
g12
Vdet
p105
sbag0
(g1
g2
(lp106
(lp107
S'word: bottle, index: 15'
p108
aatp109
Rp110
(dp111
g12
Vappos
p112
sbatp113
Rp114
(dp115
g12
S'word: soda, index: 13'
p116
sbatp117
Rp118
(dp119
g12
Vprep
p120
sbag0
(g1
g2
(lp121
(lp122
S'word: and, index: 1'
p123
aatp124
Rp125
(dp126
g12
Vcc
p127
sbag0
(g1
g2
(lp128
(lp129
S'word: so, index: 2'
p130
aatp131
Rp132
(dp133
g12
Vmark
p134
sbatp135
Rp136
(dp137
g12
S'word: guess, index: 10'
p138
sbatp139
Rp140
(dp141
g12
S'id: 1'
p142
sbag0
(g1
g2
(lp143
g0
(g1
g2
(lp144
g0
(g1
g2
(lp145
g0
(g1
g2
(lp146
g0
(g1
g2
(lp147
(lp148
S'word: a, index: 6'
p149
aatp150
Rp151
(dp152
g12
Vdet
p153
sbatp154
Rp155
(dp156
g12
S'word: book, index: 7'
p157
sbatp158
Rp159
(dp160
g12
Vdobj
p161
sbag0
(g1
g2
(lp162
g0
(g1
g2
(lp163
g0
(g1
g2
(lp164
g0
(g1
g2
(lp165
g0
(g1
g2
(lp166
(lp167
S'word: bare, index: 10'
p168
aatp169
Rp170
(dp171
g12
Vamod
p172
sbatp173
Rp174
(dp175
g12
S'word: feet, index: 11'
p176
sbatp177
Rp178
(dp179
g12
Vpobj
p180
sbatp181
Rp182
(dp183
g12
S'word: in, index: 9'
p184
sbatp185
Rp186
(dp187
g12
Vparataxis
p188
sbag0
(g1
g2
(lp189
(lp190
S'word: and, index: 1'
p191
aatp192
Rp193
(dp194
g12
Vcc
p195
sbag0
(g1
g2
(lp196
g0
(g1
g2
(lp197
g0
(g1
g2
(lp198
(lp199
S'word: the, index: 2'
p200
aatp201
Rp202
(dp203
g12
Vdet
p204
sbag0
(g1
g2
(lp205
(lp206
S"word: 's, index: 4"
p207
aatp208
Rp209
(dp210
g12
Vpossessive
p211
sbatp212
Rp213
(dp214
g12
S'word: gentleman, index: 3'
p215
sbatp216
Rp217
(dp218
g12
Vnsubj
p219
sbatp220
Rp221
(dp222
g12
S'word: reading, index: 5'
p223
sbatp224
Rp225
(dp226
g12
S'id: 2'
p227
sbag0
(g1
g2
(lp228
g0
(g1
g2
(lp229
g0
(g1
g2
(lp230
(lp231
S'word: there, index: 9'
p232
aatp233
Rp234
(dp235
g12
Vadvmod
p236
sbag0
(g1
g2
(lp237
(lp238
S'word: and, index: 1'
p239
aatp240
Rp241
(dp242
g12
Vcc
p243
sbag0
(g1
g2
(lp244
(lp245
S'word: there, index: 2'
p246
aatp247
Rp248
(dp249
g12
Vexpl
p250
sbag0
(g1
g2
(lp251
g0
(g1
g2
(lp252
g0
(g1
g2
(lp253
(lp254
S'word: radio, index: 6'
p255
aatp256
Rp257
(dp258
g12
Vconj
p259
sbag0
(g1
g2
(lp260
(lp261
S'word: something, index: 8'
p262
aatp263
Rp264
(dp265
g12
Vconj
p266
sbatp267
Rp268
(dp269
g12
S'word: a, index: 4'
p270
sbatp271
Rp272
(dp273
g12
Vnsubj
p274
sbag0
(g1
g2
(lp275
(lp276
S'word: radio, index: 6'
p277
aatp278
Rp279
(dp280
g12
Vnsubj
p281
sbag0
(g1
g2
(lp282
(lp283
S'word: something, index: 8'
p284
aatp285
Rp286
(dp287
g12
Vnsubj
p288
sbatp289
Rp290
(dp291
g12
S"word: 's, index: 3"
p292
sbatp293
Rp294
(dp295
g12
S'id: 3'
p296
sbag0
(g1
g2
(lp297
g0
(g1
g2
(lp298
g0
(g1
g2
(lp299
(lp300
S'word: here, index: 45'
p301
aatp302
Rp303
(dp304
g12
Vadvmod
p305
sbag0
(g1
g2
(lp306
(lp307
S'word: is, index: 46'
p308
aatp309
Rp310
(dp311
g12
Vaux
p312
sbag0
(g1
g2
(lp313
(lp314
S'word: and, index: 1'
p315
aatp316
Rp317
(dp318
g12
Vcc
p319
sbag0
(g1
g2
(lp320
g0
(g1
g2
(lp321
g0
(g1
g2
(lp322
(lp323
S'word: a, index: 48'
p324
aatp325
Rp326
(dp327
g12
Vdet
p328
sbatp329
Rp330
(dp331
g12
S'word: sandcastle, index: 49'
p332
sbatp333
Rp334
(dp335
g12
Vdobj
p336
sbag0
(g1
g2
(lp337
g0
(g1
g2
(lp338
g0
(g1
g2
(lp339
g0
(g1
g2
(lp340
g0
(g1
g2
(lp341
(lp342
S'word: him, index: 15'
p343
aatp344
Rp345
(dp346
g12
Vprep
p347
sbag0
(g1
g2
(lp348
g0
(g1
g2
(lp349
g0
(g1
g2
(lp350
(lp351
S'word: the, index: 10'
p352
aatp353
Rp354
(dp355
g12
Vdet
p356
sbatp357
Rp358
(dp359
g12
S'word: dog, index: 11'
p360
sbatp361
Rp362
(dp363
g12
Vposs
p364
sbatp365
Rp366
(dp367
g12
S'word: chasing, index: 13'
p368
sbatp369
Rp370
(dp371
g12
Vdep
p372
sbag0
(g1
g2
(lp373
(lp374
S'word: the, index: 2'
p375
aatp376
Rp377
(dp378
g12
Vdet
p379
sbag0
(g1
g2
(lp380
(lp381
S'word: little, index: 3'
p382
aatp383
Rp384
(dp385
g12
Vamod
p386
sbag0
(g1
g2
(lp387
g0
(g1
g2
(lp388
g0
(g1
g2
(lp389
(lp390
S'word: the, index: 18'
p391
aatp392
Rp393
(dp394
g12
Vdet
p395
sbag0
(g1
g2
(lp396
g0
(g1
g2
(lp397
g0
(g1
g2
(lp398
(lp399
S'word: the, index: 21'
p400
aatp401
Rp402
(dp403
g12
Vdet
p404
sbag0
(g1
g2
(lp405
g0
(g1
g2
(lp406
g0
(g1
g2
(lp407
g0
(g1
g2
(lp408
g0
(g1
g2
(lp409
(lp410
S'word: some, index: 30'
p411
aatp412
Rp413
(dp414
g12
Vdet
p415
sbag0
(g1
g2
(lp416
(lp417
S'word: people, index: 31'
p418
aatp419
Rp420
(dp421
g12
Vnn
p422
sbag0
(g1
g2
(lp423
g0
(g1
g2
(lp424
g0
(g1
g2
(lp425
(lp426
S'word: the, index: 34'
p427
aatp428
Rp429
(dp430
g12
Vdet
p431
sbag0
(g1
g2
(lp432
(lp433
S'word: sail, index: 35'
p434
aatp435
Rp436
(dp437
g12
Vnn
p438
sbatp439
Rp440
(dp441
g12
S'word: boat, index: 36'
p442
sbatp443
Rp444
(dp445
g12
Vprep
p446
sbatp447
Rp448
(dp449
g12
S'word: sailing, index: 32'
p450
sbatp451
Rp452
(dp453
g12
Vdobj
p454
sbag0
(g1
g2
(lp455
(lp456
S'word: who, index: 23'
p457
aatp458
Rp459
(dp460
g12
Vnsubj
p461
sbag0
(g1
g2
(lp462
(lp463
S'word: just, index: 24'
p464
aatp465
Rp466
(dp467
g12
Vadvmod
p468
sbag0
(g1
g2
(lp469
g0
(g1
g2
(lp470
g0
(g1
g2
(lp471
g448
atp472
Rp473
(dp474
g12
Vconj
p475
sbag0
(g1
g2
(lp476
(lp477
S'word: a, index: 26'
p478
aatp479
Rp480
(dp481
g12
Vdet
p482
sbatp483
Rp484
(dp485
g12
S'word: fish, index: 27'
p486
sbatp487
Rp488
(dp489
g12
Vdobj
p490
sbatp491
Rp492
(dp493
g12
S'word: caught, index: 25'
p494
sbatp495
Rp496
(dp497
g12
Vrcmod
p498
sbatp499
Rp500
(dp501
g12
S'word: back, index: 22'
p502
sbatp503
Rp504
(dp505
g12
Vprep
p506
sbatp507
Rp508
(dp509
g12
S'word: gentleman, index: 19'
p510
sbatp511
Rp512
(dp513
g12
Vdep
p514
sbag0
(g1
g2
(lp515
(lp516
S"word: 's, index: 5"
p517
aatp518
Rp519
(dp520
g12
Vpossessive
p521
sbag0
(g1
g2
(lp522
(lp523
S'word: flying, index: 6'
p524
aatp525
Rp526
(dp527
g12
Vamod
p528
sbag0
(g1
g2
(lp529
g0
(g1
g2
(lp530
g0
(g1
g2
(lp531
g366
atp532
Rp533
(dp534
g12
Vconj
p535
sbag0
(g1
g2
(lp536
g508
atp537
Rp538
(dp539
g12
Vconj
p540
sbag0
(g1
g2
(lp541
(lp542
S'word: a, index: 7'
p543
aatp544
Rp545
(dp546
g12
Vdet
p547
sbatp548
Rp549
(dp550
g12
S'word: kite, index: 8'
p551
sbatp552
Rp553
(dp554
g12
Vdep
p555
sbag0
(g1
g2
(lp556
g0
(g1
g2
(lp557
g0
(g1
g2
(lp558
g0
(g1
g2
(lp559
g0
(g1
g2
(lp560
(lp561
S'word: the, index: 43'
p562
aatp563
Rp564
(dp565
g12
Vdet
p566
sbatp567
Rp568
(dp569
g12
S'word: foreground, index: 44'
p570
sbatp571
Rp572
(dp573
g12
Vprep
p574
sbag0
(g1
g2
(lp575
(lp576
S'word: the, index: 39'
p577
aatp578
Rp579
(dp580
g12
Vdet
p581
sbag0
(g1
g2
(lp582
(lp583
S'word: little, index: 40'
p584
aatp585
Rp586
(dp587
g12
Vamod
p588
sbatp589
Rp590
(dp591
g12
S'word: girl, index: 41'
p592
sbatp593
Rp594
(dp595
g12
Vconj
p596
sbatp597
Rp598
(dp599
g12
S'word: boy, index: 4'
p600
sbatp601
Rp602
(dp603
g12
Vnsubj
p604
sbag0
(g1
g2
(lp605
g590
atp606
Rp607
(dp608
g12
Vnsubj
p609
sbatp610
Rp611
(dp612
g12
S'word: building, index: 47'
p613
sbatp614
Rp615
(dp616
g12
S'id: 4'
p617
sbag0
(g1
g2
(lp618
g0
(g1
g2
(lp619
g0
(g1
g2
(lp620
(lp621
S'word: and, index: 1'
p622
aatp623
Rp624
(dp625
g12
Vcc
p626
sbag0
(g1
g2
(lp627
g0
(g1
g2
(lp628
g0
(g1
g2
(lp629
(lp630
S'word: the, index: 3'
p631
aatp632
Rp633
(dp634
g12
Vdet
p635
sbatp636
Rp637
(dp638
g12
S'word: back, index: 4'
p639
sbatp640
Rp641
(dp642
g12
Vprep
p643
sbag0
(g1
g2
(lp644
g0
(g1
g2
(lp645
g0
(g1
g2
(lp646
(lp647
S'word: a, index: 6'
p648
aatp649
Rp650
(dp651
g12
Vdet
p652
sbag0
(g1
g2
(lp653
g0
(g1
g2
(lp654
g0
(g1
g2
(lp655
(lp656
S'word: a, index: 9'
p657
aatp658
Rp659
(dp660
g12
Vdet
p661
sbag0
(g1
g2
(lp662
g0
(g1
g2
(lp663
g0
(g1
g2
(lp664
g0
(g1
g2
(lp665
g0
(g1
g2
(lp666
(lp667
S'word: the, index: 15'
p668
aatp669
Rp670
(dp671
g12
Vdet
p672
sbatp673
Rp674
(dp675
g12
S'word: garage, index: 16'
p676
sbatp677
Rp678
(dp679
g12
Vprep
p680
sbatp681
Rp682
(dp683
g12
S'word: parked, index: 11'
p684
sbatp685
Rp686
(dp687
g12
Vvmod
p688
sbatp689
Rp690
(dp691
g12
S'word: car, index: 10'
p692
sbatp693
Rp694
(dp695
g12
Vprep
p696
sbatp697
Rp698
(dp699
g12
S'word: house, index: 7'
p700
sbatp701
Rp702
(dp703
g12
Vnsubj
p704
sbatp705
Rp706
(dp707
g12
S'word: is, index: 5'
p708
sbatp709
Rp710
(dp711
g12
S'id: 5'
p712
sbatp713
Rp714
(dp715
g12
S'sentences'
p716
sb.