ccopy_reg
_reconstructor
p0
(cnltk.tree
Tree
p1
c__builtin__
list
p2
(lp3
g0
(g1
g2
(lp4
g0
(g1
g2
(lp5
g0
(g1
g2
(lp6
g0
(g1
g2
(lp7
Vwell
p8
atp9
Rp10
(dp11
S'_label'
p12
VRB
p13
sbatp14
Rp15
(dp16
g12
VADVP
p17
sbag0
(g1
g2
(lp18
g0
(g1
g2
(lp19
Vthis
p20
atp21
Rp22
(dp23
g12
VDT
p24
sbatp25
Rp26
(dp27
g12
VNP
p28
sbag0
(g1
g2
(lp29
g0
(g1
g2
(lp30
Vis
p31
atp32
Rp33
(dp34
g12
VVBZ
p35
sbag0
(g1
g2
(lp36
g0
(g1
g2
(lp37
g0
(g1
g2
(lp38
Va
p39
atp40
Rp41
(dp42
g12
VDT
p43
sbatp44
Rp45
(dp46
g12
VNP
p47
sbag0
(g1
g2
(lp48
V,
p49
atp50
Rp51
(dp52
g12
V,
p53
sbag0
(g1
g2
(lp54
g0
(g1
g2
(lp55
g0
(g1
g2
(lp56
g0
(g1
g2
(lp57
Vlooks
p58
atp59
Rp60
(dp61
g12
VVBZ
p62
sbag0
(g1
g2
(lp63
g0
(g1
g2
(lp64
Vlike
p65
atp66
Rp67
(dp68
g12
VIN
p69
sbag0
(g1
g2
(lp70
g0
(g1
g2
(lp71
Va
p72
atp73
Rp74
(dp75
g12
VDT
p76
sbag0
(g1
g2
(lp77
Vcircus
p78
atp79
Rp80
(dp81
g12
VNN
p82
sbag0
(g1
g2
(lp83
Vvenue
p84
atp85
Rp86
(dp87
g12
VNN
p88
sbatp89
Rp90
(dp91
g12
VNP
p92
sbatp93
Rp94
(dp95
g12
VPP
p96
sbatp97
Rp98
(dp99
g12
VVP
p100
sbatp101
Rp102
(dp103
g12
VS
p104
sbatp105
Rp106
(dp107
g12
VSBAR
p108
sbatp109
Rp110
(dp111
g12
VNP
p112
sbatp113
Rp114
(dp115
g12
VVP
p116
sbag0
(g1
g2
(lp117
V.
p118
atp119
Rp120
(dp121
g12
V.
p122
sbatp123
Rp124
(dp125
g12
VS
p126
sbatp127
Rp128
(dp129
g12
S'id: 0'
p130
sbag0
(g1
g2
(lp131
g0
(g1
g2
(lp132
g0
(g1
g2
(lp133
g0
(g1
g2
(lp134
Vwe
p135
atp136
Rp137
(dp138
g12
VPRP
p139
sbatp140
Rp141
(dp142
g12
VNP
p143
sbag0
(g1
g2
(lp144
g0
(g1
g2
(lp145
Vhave
p146
atp147
Rp148
(dp149
g12
VVBP
p150
sbag0
(g1
g2
(lp151
g0
(g1
g2
(lp152
g0
(g1
g2
(lp153
Vright
p154
atp155
Rp156
(dp157
g12
VRB
p158
sbag0
(g1
g2
(lp159
g0
(g1
g2
(lp160
Vin
p161
atp162
Rp163
(dp164
g12
VIN
p165
sbag0
(g1
g2
(lp166
g0
(g1
g2
(lp167
Vthe
p168
atp169
Rp170
(dp171
g12
VDT
p172
sbag0
(g1
g2
(lp173
Vfront
p174
atp175
Rp176
(dp177
g12
VNN
p178
sbatp179
Rp180
(dp181
g12
VNP
p182
sbatp183
Rp184
(dp185
g12
VPP
p186
sbatp187
Rp188
(dp189
g12
VADVP
p190
sbag0
(g1
g2
(lp191
g0
(g1
g2
(lp192
Va
p193
atp194
Rp195
(dp196
g12
VDT
p197
sbag0
(g1
g2
(lp198
Vclown
p199
atp200
Rp201
(dp202
g12
VNN
p203
sbatp204
Rp205
(dp206
g12
VNP
p207
sbag0
(g1
g2
(lp208
g0
(g1
g2
(lp209
g0
(g1
g2
(lp210
Vwho
p211
atp212
Rp213
(dp214
g12
VWP
p215
sbatp216
Rp217
(dp218
g12
VWHNP
p219
sbag0
(g1
g2
(lp220
g0
(g1
g2
(lp221
g0
(g1
g2
(lp222
Vis
p223
atp224
Rp225
(dp226
g12
VVBZ
p227
sbatp228
Rp229
(dp230
g12
VVP
p231
sbatp232
Rp233
(dp234
g12
VS
p235
sbatp236
Rp237
(dp238
g12
VSBAR
p239
sbatp240
Rp241
(dp242
g12
VNP
p243
sbag0
(g1
g2
(lp244
V,
p245
atp246
Rp247
(dp248
g12
V,
p249
sbag0
(g1
g2
(lp250
g0
(g1
g2
(lp251
g0
(g1
g2
(lp252
Vpassing
p253
atp254
Rp255
(dp256
g12
VVBG
p257
sbag0
(g1
g2
(lp258
g0
(g1
g2
(lp259
Vout
p260
atp261
Rp262
(dp263
g12
VRP
p264
sbatp265
Rp266
(dp267
g12
VPRT
p268
sbag0
(g1
g2
(lp269
g0
(g1
g2
(lp270
Vpopcorn
p271
atp272
Rp273
(dp274
g12
VNN
p275
sbatp276
Rp277
(dp278
g12
VNP
p279
sbag0
(g1
g2
(lp280
g0
(g1
g2
(lp281
Vby
p282
atp283
Rp284
(dp285
g12
VIN
p286
sbag0
(g1
g2
(lp287
g0
(g1
g2
(lp288
Vhis
p289
atp290
Rp291
(dp292
g12
VPRP$
p293
sbatp294
Rp295
(dp296
g12
VNP
p297
sbatp298
Rp299
(dp300
g12
VPP
p301
sbag0
(g1
g2
(lp302
g0
(g1
g2
(lp303
Vthrough
p304
atp305
Rp306
(dp307
g12
VIN
p308
sbag0
(g1
g2
(lp309
g0
(g1
g2
(lp310
Vhis
p311
atp312
Rp313
(dp314
g12
VPRP$
p315
sbag0
(g1
g2
(lp316
Vbucket
p317
atp318
Rp319
(dp320
g12
VNN
p321
sbatp322
Rp323
(dp324
g12
VNP
p325
sbatp326
Rp327
(dp328
g12
VPP
p329
sbag0
(g1
g2
(lp330
V,
p331
atp332
Rp333
(dp334
g12
V,
p335
sbag0
(g1
g2
(lp336
g0
(g1
g2
(lp337
g0
(g1
g2
(lp338
Vprobably
p339
atp340
Rp341
(dp342
g12
VRB
p343
sbatp344
Rp345
(dp346
g12
VADVP
p347
sbag0
(g1
g2
(lp348
g0
(g1
g2
(lp349
Vejecting
p350
atp351
Rp352
(dp353
g12
VVBG
p354
sbag0
(g1
g2
(lp355
g0
(g1
g2
(lp356
Vit
p357
atp358
Rp359
(dp360
g12
VPRP
p361
sbatp362
Rp363
(dp364
g12
VNP
p365
sbag0
(g1
g2
(lp366
g0
(g1
g2
(lp367
Vout
p368
atp369
Rp370
(dp371
g12
VIN
p372
sbatp373
Rp374
(dp375
g12
VPRT
p376
sbag0
(g1
g2
(lp377
g0
(g1
g2
(lp378
Vof
p379
atp380
Rp381
(dp382
g12
VIN
p383
sbag0
(g1
g2
(lp384
g0
(g1
g2
(lp385
Vthe
p386
atp387
Rp388
(dp389
g12
VDT
p390
sbag0
(g1
g2
(lp391
Vbucket
p392
atp393
Rp394
(dp395
g12
VNN
p396
sbatp397
Rp398
(dp399
g12
VNP
p400
sbatp401
Rp402
(dp403
g12
VPP
p404
sbatp405
Rp406
(dp407
g12
VVP
p408
sbatp409
Rp410
(dp411
g12
VS
p412
sbatp413
Rp414
(dp415
g12
VVP
p416
sbatp417
Rp418
(dp419
g12
VS
p420
sbatp421
Rp422
(dp423
g12
VVP
p424
sbag0
(g1
g2
(lp425
V.
p426
atp427
Rp428
(dp429
g12
V.
p430
sbatp431
Rp432
(dp433
g12
VS
p434
sbatp435
Rp436
(dp437
g12
S'id: 1'
p438
sbag0
(g1
g2
(lp439
g0
(g1
g2
(lp440
g0
(g1
g2
(lp441
g0
(g1
g2
(lp442
g0
(g1
g2
(lp443
Vbehind
p444
atp445
Rp446
(dp447
g12
VIN
p448
sbag0
(g1
g2
(lp449
g0
(g1
g2
(lp450
Vhim
p451
atp452
Rp453
(dp454
g12
VPRP
p455
sbatp456
Rp457
(dp458
g12
VNP
p459
sbatp460
Rp461
(dp462
g12
VPP
p463
sbag0
(g1
g2
(lp464
g0
(g1
g2
(lp465
Vwe
p466
atp467
Rp468
(dp469
g12
VPRP
p470
sbatp471
Rp472
(dp473
g12
VNP
p474
sbag0
(g1
g2
(lp475
g0
(g1
g2
(lp476
Vhave
p477
atp478
Rp479
(dp480
g12
VVBP
p481
sbag0
(g1
g2
(lp482
g0
(g1
g2
(lp483
g0
(g1
g2
(lp484
g0
(g1
g2
(lp485
Va
p486
atp487
Rp488
(dp489
g12
VDT
p490
sbag0
(g1
g2
(lp491
Vlion
p492
atp493
Rp494
(dp495
g12
VNN
p496
sbatp497
Rp498
(dp499
g12
VNP
p500
sbag0
(g1
g2
(lp501
g0
(g1
g2
(lp502
Vsitting
p503
atp504
Rp505
(dp506
g12
VVBG
p507
sbag0
(g1
g2
(lp508
g0
(g1
g2
(lp509
Von
p510
atp511
Rp512
(dp513
g12
VIN
p514
sbag0
(g1
g2
(lp515
g0
(g1
g2
(lp516
g0
(g1
g2
(lp517
Va
p518
atp519
Rp520
(dp521
g12
VDT
p522
sbag0
(g1
g2
(lp523
Vlarge
p524
atp525
Rp526
(dp527
g12
VJJ
p528
sbag0
(g1
g2
(lp529
Vround
p530
atp531
Rp532
(dp533
g12
VNN
p534
sbag0
(g1
g2
(lp535
Vobject
p536
atp537
Rp538
(dp539
g12
VNN
p540
sbatp541
Rp542
(dp543
g12
VNP
p544
sbag0
(g1
g2
(lp545
g0
(g1
g2
(lp546
Vwith
p547
atp548
Rp549
(dp550
g12
VIN
p551
sbag0
(g1
g2
(lp552
g0
(g1
g2
(lp553
Va
p554
atp555
Rp556
(dp557
g12
VDT
p558
sbag0
(g1
g2
(lp559
Vlion
p560
atp561
Rp562
(dp563
g12
VNN
p564
sbatp565
Rp566
(dp567
g12
VNP
p568
sbatp569
Rp570
(dp571
g12
VPP
p572
sbatp573
Rp574
(dp575
g12
VNP
p576
sbatp577
Rp578
(dp579
g12
VPP
p580
sbatp581
Rp582
(dp583
g12
VVP
p584
sbatp585
Rp586
(dp587
g12
VNP
p588
sbag0
(g1
g2
(lp589
g0
(g1
g2
(lp590
Vtamer
p591
atp592
Rp593
(dp594
g12
VJJR
p595
sbatp596
Rp597
(dp598
g12
VADJP
p599
sbatp600
Rp601
(dp602
g12
VS
p603
sbatp604
Rp605
(dp606
g12
VVP
p607
sbatp608
Rp609
(dp610
g12
VS
p611
sbag0
(g1
g2
(lp612
V,
p613
atp614
Rp615
(dp616
g12
V,
p617
sbag0
(g1
g2
(lp618
Vand
p619
atp620
Rp621
(dp622
g12
VCC
p623
sbag0
(g1
g2
(lp624
g0
(g1
g2
(lp625
g0
(g1
g2
(lp626
Vthey
p627
atp628
Rp629
(dp630
g12
VPRP
p631
sbatp632
Rp633
(dp634
g12
VNP
p635
sbag0
(g1
g2
(lp636
g0
(g1
g2
(lp637
V're
p638
atp639
Rp640
(dp641
g12
VVBP
p642
sbag0
(g1
g2
(lp643
g0
(g1
g2
(lp644
Vin
p645
atp646
Rp647
(dp648
g12
VIN
p649
sbag0
(g1
g2
(lp650
g0
(g1
g2
(lp651
Va
p652
atp653
Rp654
(dp655
g12
VDT
p656
sbag0
(g1
g2
(lp657
Vcage
p658
atp659
Rp660
(dp661
g12
VNN
p662
sbatp663
Rp664
(dp665
g12
VNP
p666
sbatp667
Rp668
(dp669
g12
VPP
p670
sbag0
(g1
g2
(lp671
V,
p672
atp673
Rp674
(dp675
g12
V,
p676
sbag0
(g1
g2
(lp677
g0
(g1
g2
(lp678
Vas
p679
atp680
Rp681
(dp682
g12
VIN
p683
sbag0
(g1
g2
(lp684
g0
(g1
g2
(lp685
g0
(g1
g2
(lp686
Vit
p687
atp688
Rp689
(dp690
g12
VPRP
p691
sbatp692
Rp693
(dp694
g12
VNP
p695
sbag0
(g1
g2
(lp696
g0
(g1
g2
(lp697
Vwere
p698
atp699
Rp700
(dp701
g12
VVBD
p702
sbatp703
Rp704
(dp705
g12
VVP
p706
sbatp707
Rp708
(dp709
g12
VS
p710
sbatp711
Rp712
(dp713
g12
VSBAR
p714
sbatp715
Rp716
(dp717
g12
VVP
p718
sbatp719
Rp720
(dp721
g12
VS
p722
sbag0
(g1
g2
(lp723
V.
p724
atp725
Rp726
(dp727
g12
V.
p728
sbatp729
Rp730
(dp731
g12
VS
p732
sbatp733
Rp734
(dp735
g12
S'id: 2'
p736
sbag0
(g1
g2
(lp737
g0
(g1
g2
(lp738
g0
(g1
g2
(lp739
g0
(g1
g2
(lp740
Vin
p741
atp742
Rp743
(dp744
g12
VIN
p745
sbag0
(g1
g2
(lp746
g0
(g1
g2
(lp747
Vfront
p748
atp749
Rp750
(dp751
g12
VNN
p752
sbatp753
Rp754
(dp755
g12
VNP
p756
sbatp757
Rp758
(dp759
g12
VPP
p760
sbag0
(g1
g2
(lp761
V,
p762
atp763
Rp764
(dp765
g12
V,
p766
sbag0
(g1
g2
(lp767
g0
(g1
g2
(lp768
g0
(g1
g2
(lp769
Vnext
p770
atp771
Rp772
(dp773
g12
VJJ
p774
sbag0
(g1
g2
(lp775
Vto
p776
atp777
Rp778
(dp779
g12
VTO
p780
sbag0
(g1
g2
(lp781
g0
(g1
g2
(lp782
g0
(g1
g2
(lp783
Vthe
p784
atp785
Rp786
(dp787
g12
VDT
p788
sbag0
(g1
g2
(lp789
Vclown
p790
atp791
Rp792
(dp793
g12
VNN
p794
sbatp795
Rp796
(dp797
g12
VNP
p798
sbag0
(g1
g2
(lp799
V,
p800
atp801
Rp802
(dp803
g12
V,
p804
sbag0
(g1
g2
(lp805
g0
(g1
g2
(lp806
g0
(g1
g2
(lp807
Vwho
p808
atp809
Rp810
(dp811
g12
VWP
p812
sbatp813
Rp814
(dp815
g12
VWHNP
p816
sbag0
(g1
g2
(lp817
g0
(g1
g2
(lp818
g0
(g1
g2
(lp819
V's
p820
atp821
Rp822
(dp823
g12
VVBZ
p824
sbag0
(g1
g2
(lp825
g0
(g1
g2
(lp826
Vin
p827
atp828
Rp829
(dp830
g12
VIN
p831
sbag0
(g1
g2
(lp832
g0
(g1
g2
(lp833
g0
(g1
g2
(lp834
Vfront
p835
atp836
Rp837
(dp838
g12
VNN
p839
sbatp840
Rp841
(dp842
g12
VNP
p843
sbag0
(g1
g2
(lp844
g0
(g1
g2
(lp845
Vof
p846
atp847
Rp848
(dp849
g12
VIN
p850
sbag0
(g1
g2
(lp851
g0
(g1
g2
(lp852
Vthe
p853
atp854
Rp855
(dp856
g12
VDT
p857
sbag0
(g1
g2
(lp858
Vlion
p859
atp860
Rp861
(dp862
g12
VNN
p863
sbatp864
Rp865
(dp866
g12
VNP
p867
sbatp868
Rp869
(dp870
g12
VPP
p871
sbatp872
Rp873
(dp874
g12
VNP
p875
sbatp876
Rp877
(dp878
g12
VPP
p879
sbatp880
Rp881
(dp882
g12
VVP
p883
sbatp884
Rp885
(dp886
g12
VS
p887
sbatp888
Rp889
(dp890
g12
VSBAR
p891
sbatp892
Rp893
(dp894
g12
VNP
p895
sbatp896
Rp897
(dp898
g12
VPP
p899
sbag0
(g1
g2
(lp900
V,
p901
atp902
Rp903
(dp904
g12
V,
p905
sbag0
(g1
g2
(lp906
g0
(g1
g2
(lp907
Vwe
p908
atp909
Rp910
(dp911
g12
VPRP
p912
sbatp913
Rp914
(dp915
g12
VNP
p916
sbag0
(g1
g2
(lp917
g0
(g1
g2
(lp918
Vhave
p919
atp920
Rp921
(dp922
g12
VVBP
p923
sbag0
(g1
g2
(lp924
g0
(g1
g2
(lp925
g0
(g1
g2
(lp926
Va
p927
atp928
Rp929
(dp930
g12
VDT
p931
sbag0
(g1
g2
(lp932
Vgentleman
p933
atp934
Rp935
(dp936
g12
VNN
p937
sbatp938
Rp939
(dp940
g12
VNP
p941
sbag0
(g1
g2
(lp942
Vand
p943
atp944
Rp945
(dp946
g12
VCC
p947
sbag0
(g1
g2
(lp948
g0
(g1
g2
(lp949
Vhis
p950
atp951
Rp952
(dp953
g12
VPRP$
p954
sbag0
(g1
g2
(lp955
Vdaughter
p956
atp957
Rp958
(dp959
g12
VNN
p960
sbatp961
Rp962
(dp963
g12
VNP
p964
sbatp965
Rp966
(dp967
g12
VNP
p968
sbatp969
Rp970
(dp971
g12
VVP
p972
sbatp973
Rp974
(dp975
g12
VS
p976
sbag0
(g1
g2
(lp977
V,
p978
atp979
Rp980
(dp981
g12
V,
p982
sbag0
(g1
g2
(lp983
g0
(g1
g2
(lp984
g0
(g1
g2
(lp985
Vthe
p986
atp987
Rp988
(dp989
g12
VDT
p990
sbag0
(g1
g2
(lp991
Vdaughter
p992
atp993
Rp994
(dp995
g12
VNN
p996
sbatp997
Rp998
(dp999
g12
VNP
p1000
sbag0
(g1
g2
(lp1001
g0
(g1
g2
(lp1002
Vis
p1003
atp1004
Rp1005
(dp1006
g12
VVBZ
p1007
sbag0
(g1
g2
(lp1008
g0
(g1
g2
(lp1009
Vpointing
p1010
atp1011
Rp1012
(dp1013
g12
VVBG
p1014
sbag0
(g1
g2
(lp1015
g0
(g1
g2
(lp1016
Vto
p1017
atp1018
Rp1019
(dp1020
g12
VTO
p1021
sbag0
(g1
g2
(lp1022
g0
(g1
g2
(lp1023
Vthe
p1024
atp1025
Rp1026
(dp1027
g12
VDT
p1028
sbag0
(g1
g2
(lp1029
Vclown
p1030
atp1031
Rp1032
(dp1033
g12
VNN
p1034
sbatp1035
Rp1036
(dp1037
g12
VNP
p1038
sbatp1039
Rp1040
(dp1041
g12
VPP
p1042
sbag0
(g1
g2
(lp1043
V,
p1044
atp1045
Rp1046
(dp1047
g12
V,
p1048
sbag0
(g1
g2
(lp1049
g0
(g1
g2
(lp1050
Vto
p1051
atp1052
Rp1053
(dp1054
g12
VTO
p1055
sbatp1056
Rp1057
(dp1058
g12
VPP
p1059
sbatp1060
Rp1061
(dp1062
g12
VVP
p1063
sbatp1064
Rp1065
(dp1066
g12
VVP
p1067
sbatp1068
Rp1069
(dp1070
g12
VS
p1071
sbag0
(g1
g2
(lp1072
Vand
p1073
atp1074
Rp1075
(dp1076
g12
VCC
p1077
sbag0
(g1
g2
(lp1078
g0
(g1
g2
(lp1079
g0
(g1
g2
(lp1080
Vthat
p1081
atp1082
Rp1083
(dp1084
g12
VDT
p1085
sbatp1086
Rp1087
(dp1088
g12
VNP
p1089
sbag0
(g1
g2
(lp1090
g0
(g1
g2
(lp1091
Vwould
p1092
atp1093
Rp1094
(dp1095
g12
VMD
p1096
sbag0
(g1
g2
(lp1097
g0
(g1
g2
(lp1098
Vbe
p1099
atp1100
Rp1101
(dp1102
g12
VVB
p1103
sbag0
(g1
g2
(lp1104
g0
(g1
g2
(lp1105
Vto
p1106
atp1107
Rp1108
(dp1109
g12
VTO
p1110
sbag0
(g1
g2
(lp1111
g0
(g1
g2
(lp1112
g0
(g1
g2
(lp1113
Vthe
p1114
atp1115
Rp1116
(dp1117
g12
VDT
p1118
sbag0
(g1
g2
(lp1119
Vleft
p1120
atp1121
Rp1122
(dp1123
g12
VNN
p1124
sbatp1125
Rp1126
(dp1127
g12
VNP
p1128
sbag0
(g1
g2
(lp1129
g0
(g1
g2
(lp1130
Vof
p1131
atp1132
Rp1133
(dp1134
g12
VIN
p1135
sbag0
(g1
g2
(lp1136
g0
(g1
g2
(lp1137
g0
(g1
g2
(lp1138
Vthe
p1139
atp1140
Rp1141
(dp1142
g12
VDT
p1143
sbag0
(g1
g2
(lp1144
Vpicture
p1145
atp1146
Rp1147
(dp1148
g12
VNN
p1149
sbatp1150
Rp1151
(dp1152
g12
VNP
p1153
sbag0
(g1
g2
(lp1154
g0
(g1
g2
(lp1155
Vbut
p1156
atp1157
Rp1158
(dp1159
g12
VCC
p1160
sbag0
(g1
g2
(lp1161
g0
(g1
g2
(lp1162
g0
(g1
g2
(lp1163
Vthe
p1164
atp1165
Rp1166
(dp1167
g12
VDT
p1168
sbag0
(g1
g2
(lp1169
Vright
p1170
atp1171
Rp1172
(dp1173
g12
VNN
p1174
sbatp1175
Rp1176
(dp1177
g12
VNP
p1178
sbag0
(g1
g2
(lp1179
g0
(g1
g2
(lp1180
Vof
p1181
atp1182
Rp1183
(dp1184
g12
VIN
p1185
sbag0
(g1
g2
(lp1186
g0
(g1
g2
(lp1187
Vthe
p1188
atp1189
Rp1190
(dp1191
g12
VDT
p1192
sbag0
(g1
g2
(lp1193
Vclown
p1194
atp1195
Rp1196
(dp1197
g12
VNN
p1198
sbatp1199
Rp1200
(dp1201
g12
VNP
p1202
sbatp1203
Rp1204
(dp1205
g12
VPP
p1206
sbatp1207
Rp1208
(dp1209
g12
VNP
p1210
sbatp1211
Rp1212
(dp1213
g12
VPP
p1214
sbatp1215
Rp1216
(dp1217
g12
VNP
p1218
sbatp1219
Rp1220
(dp1221
g12
VPP
p1222
sbatp1223
Rp1224
(dp1225
g12
VNP
p1226
sbatp1227
Rp1228
(dp1229
g12
VPP
p1230
sbatp1231
Rp1232
(dp1233
g12
VVP
p1234
sbatp1235
Rp1236
(dp1237
g12
VVP
p1238
sbatp1239
Rp1240
(dp1241
g12
VS
p1242
sbag0
(g1
g2
(lp1243
V.
p1244
atp1245
Rp1246
(dp1247
g12
V.
p1248
sbatp1249
Rp1250
(dp1251
g12
VS
p1252
sbatp1253
Rp1254
(dp1255
g12
S'id: 3'
p1256
sbag0
(g1
g2
(lp1257
g0
(g1
g2
(lp1258
g0
(g1
g2
(lp1259
g0
(g1
g2
(lp1260
Vto
p1261
atp1262
Rp1263
(dp1264
g12
VTO
p1265
sbag0
(g1
g2
(lp1266
g0
(g1
g2
(lp1267
g0
(g1
g2
(lp1268
Vthe
p1269
atp1270
Rp1271
(dp1272
g12
VDT
p1273
sbag0
(g1
g2
(lp1274
Vleft
p1275
atp1276
Rp1277
(dp1278
g12
VNN
p1279
sbatp1280
Rp1281
(dp1282
g12
VNP
p1283
sbag0
(g1
g2
(lp1284
g0
(g1
g2
(lp1285
Vof
p1286
atp1287
Rp1288
(dp1289
g12
VIN
p1290
sbag0
(g1
g2
(lp1291
g0
(g1
g2
(lp1292
Vthe
p1293
atp1294
Rp1295
(dp1296
g12
VDT
p1297
sbag0
(g1
g2
(lp1298
Vclown
p1299
atp1300
Rp1301
(dp1302
g12
VNN
p1303
sbatp1304
Rp1305
(dp1306
g12
VNP
p1307
sbatp1308
Rp1309
(dp1310
g12
VPP
p1311
sbag0
(g1
g2
(lp1312
V,
p1313
atp1314
Rp1315
(dp1316
g12
V,
p1317
sbag0
(g1
g2
(lp1318
g0
(g1
g2
(lp1319
Vin
p1320
atp1321
Rp1322
(dp1323
g12
VIN
p1324
sbag0
(g1
g2
(lp1325
g0
(g1
g2
(lp1326
g0
(g1
g2
(lp1327
Vthe
p1328
atp1329
Rp1330
(dp1331
g12
VDT
p1332
sbag0
(g1
g2
(lp1333
Vright
p1334
atp1335
Rp1336
(dp1337
g12
VNN
p1338
sbatp1339
Rp1340
(dp1341
g12
VNP
p1342
sbag0
(g1
g2
(lp1343
g0
(g1
g2
(lp1344
Vof
p1345
atp1346
Rp1347
(dp1348
g12
VIN
p1349
sbag0
(g1
g2
(lp1350
g0
(g1
g2
(lp1351
g0
(g1
g2
(lp1352
Vthe
p1353
atp1354
Rp1355
(dp1356
g12
VDT
p1357
sbag0
(g1
g2
(lp1358
Vpicture
p1359
atp1360
Rp1361
(dp1362
g12
VNN
p1363
sbatp1364
Rp1365
(dp1366
g12
VNP
p1367
sbag0
(g1
g2
(lp1368
g0
(g1
g2
(lp1369
g0
(g1
g2
(lp1370
g0
(g1
g2
(lp1371
Vis
p1372
atp1373
Rp1374
(dp1375
g12
VVBZ
p1376
sbag0
(g1
g2
(lp1377
g0
(g1
g2
(lp1378
Va
p1379
atp1380
Rp1381
(dp1382
g12
VDT
p1383
sbag0
(g1
g2
(lp1384
Vmom
p1385
atp1386
Rp1387
(dp1388
g12
VNN
p1389
sbatp1390
Rp1391
(dp1392
g12
VNP
p1393
sbatp1394
Rp1395
(dp1396
g12
VVP
p1397
sbatp1398
Rp1399
(dp1400
g12
VS
p1401
sbatp1402
Rp1403
(dp1404
g12
VSBAR
p1405
sbatp1406
Rp1407
(dp1408
g12
VNP
p1409
sbatp1410
Rp1411
(dp1412
g12
VPP
p1413
sbatp1414
Rp1415
(dp1416
g12
VNP
p1417
sbatp1418
Rp1419
(dp1420
g12
VPP
p1421
sbatp1422
Rp1423
(dp1424
g12
VNP
p1425
sbatp1426
Rp1427
(dp1428
g12
VPP
p1429
sbag0
(g1
g2
(lp1430
V,
p1431
atp1432
Rp1433
(dp1434
g12
V,
p1435
sbag0
(g1
g2
(lp1436
g0
(g1
g2
(lp1437
g0
(g1
g2
(lp1438
Vcarrying
p1439
atp1440
Rp1441
(dp1442
g12
VVBG
p1443
sbag0
(g1
g2
(lp1444
g0
(g1
g2
(lp1445
g0
(g1
g2
(lp1446
g0
(g1
g2
(lp1447
Va
p1448
atp1449
Rp1450
(dp1451
g12
VDT
p1452
sbag0
(g1
g2
(lp1453
Vyoung
p1454
atp1455
Rp1456
(dp1457
g12
VJJ
p1458
sbag0
(g1
g2
(lp1459
Vchild
p1460
atp1461
Rp1462
(dp1463
g12
VNN
p1464
sbatp1465
Rp1466
(dp1467
g12
VNP
p1468
sbag0
(g1
g2
(lp1469
g0
(g1
g2
(lp1470
g0
(g1
g2
(lp1471
Vthat
p1472
atp1473
Rp1474
(dp1475
g12
VWDT
p1476
sbatp1477
Rp1478
(dp1479
g12
VWHNP
p1480
sbag0
(g1
g2
(lp1481
g0
(g1
g2
(lp1482
g0
(g1
g2
(lp1483
Vlooks
p1484
atp1485
Rp1486
(dp1487
g12
VVBZ
p1488
sbag0
(g1
g2
(lp1489
g0
(g1
g2
(lp1490
Vlike
p1491
atp1492
Rp1493
(dp1494
g12
VIN
p1495
sbag0
(g1
g2
(lp1496
g0
(g1
g2
(lp1497
g0
(g1
g2
(lp1498
Va
p1499
atp1500
Rp1501
(dp1502
g12
VDT
p1503
sbag0
(g1
g2
(lp1504
Vgirl
p1505
atp1506
Rp1507
(dp1508
g12
VNN
p1509
sbatp1510
Rp1511
(dp1512
g12
VNP
p1513
sbag0
(g1
g2
(lp1514
g0
(g1
g2
(lp1515
Vwith
p1516
atp1517
Rp1518
(dp1519
g12
VIN
p1520
sbag0
(g1
g2
(lp1521
g0
(g1
g2
(lp1522
Va
p1523
atp1524
Rp1525
(dp1526
g12
VDT
p1527
sbag0
(g1
g2
(lp1528
Vponytail
p1529
atp1530
Rp1531
(dp1532
g12
VNN
p1533
sbatp1534
Rp1535
(dp1536
g12
VNP
p1537
sbatp1538
Rp1539
(dp1540
g12
VPP
p1541
sbatp1542
Rp1543
(dp1544
g12
VNP
p1545
sbatp1546
Rp1547
(dp1548
g12
VPP
p1549
sbatp1550
Rp1551
(dp1552
g12
VVP
p1553
sbatp1554
Rp1555
(dp1556
g12
VS
p1557
sbatp1558
Rp1559
(dp1560
g12
VSBAR
p1561
sbatp1562
Rp1563
(dp1564
g12
VNP
p1565
sbag0
(g1
g2
(lp1566
V,
p1567
atp1568
Rp1569
(dp1570
g12
V,
p1571
sbag0
(g1
g2
(lp1572
Vand
p1573
atp1574
Rp1575
(dp1576
g12
VCC
p1577
sbag0
(g1
g2
(lp1578
g0
(g1
g2
(lp1579
g0
(g1
g2
(lp1580
Vher
p1581
atp1582
Rp1583
(dp1584
g12
VPRP$
p1585
sbag0
(g1
g2
(lp1586
Vbrother
p1587
atp1588
Rp1589
(dp1590
g12
VNN
p1591
sbatp1592
Rp1593
(dp1594
g12
VNP
p1595
sbag0
(g1
g2
(lp1596
g0
(g1
g2
(lp1597
g0
(g1
g2
(lp1598
Vwho
p1599
atp1600
Rp1601
(dp1602
g12
VWP
p1603
sbatp1604
Rp1605
(dp1606
g12
VWHNP
p1607
sbag0
(g1
g2
(lp1608
g0
(g1
g2
(lp1609
g0
(g1
g2
(lp1610
Vis
p1611
atp1612
Rp1613
(dp1614
g12
VVBZ
p1615
sbatp1616
Rp1617
(dp1618
g12
VVP
p1619
sbatp1620
Rp1621
(dp1622
g12
VS
p1623
sbatp1624
Rp1625
(dp1626
g12
VSBAR
p1627
sbatp1628
Rp1629
(dp1630
g12
VNP
p1631
sbatp1632
Rp1633
(dp1634
g12
VNP
p1635
sbatp1636
Rp1637
(dp1638
g12
VVP
p1639
sbatp1640
Rp1641
(dp1642
g12
VS
p1643
sbag0
(g1
g2
(lp1644
g0
(g1
g2
(lp1645
Vgot
p1646
atp1647
Rp1648
(dp1649
g12
VVBD
p1650
sbag0
(g1
g2
(lp1651
g0
(g1
g2
(lp1652
Vhis
p1653
atp1654
Rp1655
(dp1656
g12
VPRP$
p1657
sbag0
(g1
g2
(lp1658
Vhands
p1659
atp1660
Rp1661
(dp1662
g12
VNNS
p1663
sbatp1664
Rp1665
(dp1666
g12
VNP
p1667
sbag0
(g1
g2
(lp1668
g0
(g1
g2
(lp1669
Vup
p1670
atp1671
Rp1672
(dp1673
g12
VRP
p1674
sbatp1675
Rp1676
(dp1677
g12
VPRT
p1678
sbag0
(g1
g2
(lp1679
g0
(g1
g2
(lp1680
g0
(g1
g2
(lp1681
Vgrabbing
p1682
atp1683
Rp1684
(dp1685
g12
VVBG
p1686
sbag0
(g1
g2
(lp1687
g0
(g1
g2
(lp1688
g0
(g1
g2
(lp1689
Vthe
p1690
atp1691
Rp1692
(dp1693
g12
VDT
p1694
sbag0
(g1
g2
(lp1695
Vpopcorn
p1696
atp1697
Rp1698
(dp1699
g12
VNN
p1700
sbatp1701
Rp1702
(dp1703
g12
VNP
p1704
sbag0
(g1
g2
(lp1705
g0
(g1
g2
(lp1706
g0
(g1
g2
(lp1707
Vthat
p1708
atp1709
Rp1710
(dp1711
g12
VWDT
p1712
sbatp1713
Rp1714
(dp1715
g12
VWHNP
p1716
sbag0
(g1
g2
(lp1717
g0
(g1
g2
(lp1718
g0
(g1
g2
(lp1719
V's
p1720
atp1721
Rp1722
(dp1723
g12
VVBZ
p1724
sbag0
(g1
g2
(lp1725
g0
(g1
g2
(lp1726
Vcoming
p1727
atp1728
Rp1729
(dp1730
g12
VVBG
p1731
sbag0
(g1
g2
(lp1732
g0
(g1
g2
(lp1733
Vout
p1734
atp1735
Rp1736
(dp1737
g12
VRB
p1738
sbatp1739
Rp1740
(dp1741
g12
VADVP
p1742
sbatp1743
Rp1744
(dp1745
g12
VVP
p1746
sbatp1747
Rp1748
(dp1749
g12
VVP
p1750
sbatp1751
Rp1752
(dp1753
g12
VS
p1754
sbatp1755
Rp1756
(dp1757
g12
VSBAR
p1758
sbatp1759
Rp1760
(dp1761
g12
VNP
p1762
sbatp1763
Rp1764
(dp1765
g12
VVP
p1766
sbatp1767
Rp1768
(dp1769
g12
VS
p1770
sbag0
(g1
g2
(lp1771
g0
(g1
g2
(lp1772
Vof
p1773
atp1774
Rp1775
(dp1776
g12
VIN
p1777
sbag0
(g1
g2
(lp1778
g0
(g1
g2
(lp1779
Vthe
p1780
atp1781
Rp1782
(dp1783
g12
VDT
p1784
sbag0
(g1
g2
(lp1785
Vbucket
p1786
atp1787
Rp1788
(dp1789
g12
VNN
p1790
sbatp1791
Rp1792
(dp1793
g12
VNP
p1794
sbatp1795
Rp1796
(dp1797
g12
VPP
p1798
sbatp1799
Rp1800
(dp1801
g12
VVP
p1802
sbag0
(g1
g2
(lp1803
V.
p1804
atp1805
Rp1806
(dp1807
g12
V.
p1808
sbatp1809
Rp1810
(dp1811
g12
VS
p1812
sbatp1813
Rp1814
(dp1815
g12
S'id: 4'
p1816
sbag0
(g1
g2
(lp1817
g0
(g1
g2
(lp1818
g0
(g1
g2
(lp1819
g0
(g1
g2
(lp1820
g0
(g1
g2
(lp1821
g0
(g1
g2
(lp1822
Vbehind
p1823
atp1824
Rp1825
(dp1826
g12
VIN
p1827
sbag0
(g1
g2
(lp1828
g0
(g1
g2
(lp1829
Vthem
p1830
atp1831
Rp1832
(dp1833
g12
VPRP
p1834
sbatp1835
Rp1836
(dp1837
g12
VNP
p1838
sbatp1839
Rp1840
(dp1841
g12
VPP
p1842
sbag0
(g1
g2
(lp1843
Vand
p1844
atp1845
Rp1846
(dp1847
g12
VCC
p1848
sbag0
(g1
g2
(lp1849
g0
(g1
g2
(lp1850
Voff
p1851
atp1852
Rp1853
(dp1854
g12
VIN
p1855
sbag0
(g1
g2
(lp1856
g0
(g1
g2
(lp1857
Vto
p1858
atp1859
Rp1860
(dp1861
g12
VTO
p1862
sbag0
(g1
g2
(lp1863
g0
(g1
g2
(lp1864
g0
(g1
g2
(lp1865
Vthe
p1866
atp1867
Rp1868
(dp1869
g12
VDT
p1870
sbag0
(g1
g2
(lp1871
Vright
p1872
atp1873
Rp1874
(dp1875
g12
VNN
p1876
sbatp1877
Rp1878
(dp1879
g12
VNP
p1880
sbag0
(g1
g2
(lp1881
g0
(g1
g2
(lp1882
Vof
p1883
atp1884
Rp1885
(dp1886
g12
VIN
p1887
sbag0
(g1
g2
(lp1888
g0
(g1
g2
(lp1889
g0
(g1
g2
(lp1890
Vthe
p1891
atp1892
Rp1893
(dp1894
g12
VDT
p1895
sbag0
(g1
g2
(lp1896
Vcage
p1897
atp1898
Rp1899
(dp1900
g12
VNN
p1901
sbatp1902
Rp1903
(dp1904
g12
VNP
p1905
sbag0
(g1
g2
(lp1906
g0
(g1
g2
(lp1907
Vwith
p1908
atp1909
Rp1910
(dp1911
g12
VIN
p1912
sbag0
(g1
g2
(lp1913
g0
(g1
g2
(lp1914
Vthe
p1915
atp1916
Rp1917
(dp1918
g12
VDT
p1919
sbag0
(g1
g2
(lp1920
Vlion
p1921
atp1922
Rp1923
(dp1924
g12
VNN
p1925
sbatp1926
Rp1927
(dp1928
g12
VNP
p1929
sbatp1930
Rp1931
(dp1932
g12
VPP
p1933
sbatp1934
Rp1935
(dp1936
g12
VNP
p1937
sbatp1938
Rp1939
(dp1940
g12
VPP
p1941
sbatp1942
Rp1943
(dp1944
g12
VNP
p1945
sbatp1946
Rp1947
(dp1948
g12
VPP
p1949
sbatp1950
Rp1951
(dp1952
g12
VADVP
p1953
sbag0
(g1
g2
(lp1954
g0
(g1
g2
(lp1955
Vin
p1956
atp1957
Rp1958
(dp1959
g12
VIN
p1960
sbag0
(g1
g2
(lp1961
g0
(g1
g2
(lp1962
g0
(g1
g2
(lp1963
Vit
p1964
atp1965
Rp1966
(dp1967
g12
VPRP
p1968
sbatp1969
Rp1970
(dp1971
g12
VNP
p1972
sbag0
(g1
g2
(lp1973
g0
(g1
g2
(lp1974
Vis
p1975
atp1976
Rp1977
(dp1978
g12
VVBZ
p1979
sbag0
(g1
g2
(lp1980
g0
(g1
g2
(lp1981
Va
p1982
atp1983
Rp1984
(dp1985
g12
VDT
p1986
sbag0
(g1
g2
(lp1987
Vround
p1988
atp1989
Rp1990
(dp1991
g12
VJJ
p1992
sbag0
(g1
g2
(lp1993
Vcircle
p1994
atp1995
Rp1996
(dp1997
g12
VNN
p1998
sbatp1999
Rp2000
(dp2001
g12
VNP
p2002
sbatp2003
Rp2004
(dp2005
g12
VVP
p2006
sbatp2007
Rp2008
(dp2009
g12
VS
p2010
sbatp2011
Rp2012
(dp2013
g12
VSBAR
p2014
sbatp2015
Rp2016
(dp2017
g12
VUCP
p2018
sbatp2019
Rp2020
(dp2021
g12
VS
p2022
sbag0
(g1
g2
(lp2023
Vand
p2024
atp2025
Rp2026
(dp2027
g12
VCC
p2028
sbag0
(g1
g2
(lp2029
g0
(g1
g2
(lp2030
g0
(g1
g2
(lp2031
Vthere
p2032
atp2033
Rp2034
(dp2035
g12
VEX
p2036
sbatp2037
Rp2038
(dp2039
g12
VNP
p2040
sbag0
(g1
g2
(lp2041
g0
(g1
g2
(lp2042
Vis
p2043
atp2044
Rp2045
(dp2046
g12
VVBZ
p2047
sbag0
(g1
g2
(lp2048
g0
(g1
g2
(lp2049
g0
(g1
g2
(lp2050
Va
p2051
atp2052
Rp2053
(dp2054
g12
VDT
p2055
sbag0
(g1
g2
(lp2056
Vhorse
p2057
atp2058
Rp2059
(dp2060
g12
VNN
p2061
sbatp2062
Rp2063
(dp2064
g12
VNP
p2065
sbag0
(g1
g2
(lp2066
g0
(g1
g2
(lp2067
Vin
p2068
atp2069
Rp2070
(dp2071
g12
VIN
p2072
sbag0
(g1
g2
(lp2073
g0
(g1
g2
(lp2074
Vit
p2075
atp2076
Rp2077
(dp2078
g12
VPRP
p2079
sbatp2080
Rp2081
(dp2082
g12
VNP
p2083
sbatp2084
Rp2085
(dp2086
g12
VPP
p2087
sbatp2088
Rp2089
(dp2090
g12
VNP
p2091
sbag0
(g1
g2
(lp2092
V,
p2093
atp2094
Rp2095
(dp2096
g12
V,
p2097
sbag0
(g1
g2
(lp2098
g0
(g1
g2
(lp2099
Vwith
p2100
atp2101
Rp2102
(dp2103
g12
VIN
p2104
sbag0
(g1
g2
(lp2105
g0
(g1
g2
(lp2106
g0
(g1
g2
(lp2107
g0
(g1
g2
(lp2108
Va
p2109
atp2110
Rp2111
(dp2112
g12
VDT
p2113
sbag0
(g1
g2
(lp2114
Vlot
p2115
atp2116
Rp2117
(dp2118
g12
VNN
p2119
sbatp2120
Rp2121
(dp2122
g12
VNP
p2123
sbag0
(g1
g2
(lp2124
g0
(g1
g2
(lp2125
Vof
p2126
atp2127
Rp2128
(dp2129
g12
VIN
p2130
sbag0
(g1
g2
(lp2131
g0
(g1
g2
(lp2132
g0
(g1
g2
(lp2133
Vstuff
p2134
atp2135
Rp2136
(dp2137
g12
VNN
p2138
sbatp2139
Rp2140
(dp2141
g12
VNP
p2142
sbag0
(g1
g2
(lp2143
g0
(g1
g2
(lp2144
Von
p2145
atp2146
Rp2147
(dp2148
g12
VIN
p2149
sbag0
(g1
g2
(lp2150
g0
(g1
g2
(lp2151
g0
(g1
g2
(lp2152
Vthe
p2153
atp2154
Rp2155
(dp2156
g12
VDT
p2157
sbag0
(g1
g2
(lp2158
Vhorse
p2159
atp2160
Rp2161
(dp2162
g12
VNN
p2163
sbatp2164
Rp2165
(dp2166
g12
VNP
p2167
sbag0
(g1
g2
(lp2168
Vand
p2169
atp2170
Rp2171
(dp2172
g12
VCC
p2173
sbag0
(g1
g2
(lp2174
g0
(g1
g2
(lp2175
Va
p2176
atp2177
Rp2178
(dp2179
g12
VDT
p2180
sbag0
(g1
g2
(lp2181
Vthing
p2182
atp2183
Rp2184
(dp2185
g12
VNN
p2186
sbatp2187
Rp2188
(dp2189
g12
VNP
p2190
sbatp2191
Rp2192
(dp2193
g12
VNP
p2194
sbatp2195
Rp2196
(dp2197
g12
VPP
p2198
sbatp2199
Rp2200
(dp2201
g12
VNP
p2202
sbatp2203
Rp2204
(dp2205
g12
VPP
p2206
sbatp2207
Rp2208
(dp2209
g12
VNP
p2210
sbag0
(g1
g2
(lp2211
g0
(g1
g2
(lp2212
Vcoming
p2213
atp2214
Rp2215
(dp2216
g12
VVBG
p2217
sbag0
(g1
g2
(lp2218
g0
(g1
g2
(lp2219
Voff
p2220
atp2221
Rp2222
(dp2223
g12
VRP
p2224
sbatp2225
Rp2226
(dp2227
g12
VPRT
p2228
sbag0
(g1
g2
(lp2229
g0
(g1
g2
(lp2230
g0
(g1
g2
(lp2231
Vhis
p2232
atp2233
Rp2234
(dp2235
g12
VPRP$
p2236
sbag0
(g1
g2
(lp2237
Vhead
p2238
atp2239
Rp2240
(dp2241
g12
VNN
p2242
sbatp2243
Rp2244
(dp2245
g12
VNP
p2246
sbag0
(g1
g2
(lp2247
g0
(g1
g2
(lp2248
Vlike
p2249
atp2250
Rp2251
(dp2252
g12
VIN
p2253
sbag0
(g1
g2
(lp2254
g0
(g1
g2
(lp2255
Va
p2256
atp2257
Rp2258
(dp2259
g12
VDT
p2260
sbag0
(g1
g2
(lp2261
g0
(g1
g2
(lp2262
V,
p2263
atp2264
Rp2265
(dp2266
g12
V,
p2267
sbag0
(g1
g2
(lp2268
g0
(g1
g2
(lp2269
Vlike
p2270
atp2271
Rp2272
(dp2273
g12
VIN
p2274
sbag0
(g1
g2
(lp2275
g0
(g1
g2
(lp2276
g0
(g1
g2
(lp2277
Va
p2278
atp2279
Rp2280
(dp2281
g12
VDT
p2282
sbatp2283
Rp2284
(dp2285
g12
VNP
p2286
sbag0
(g1
g2
(lp2287
V,
p2288
atp2289
Rp2290
(dp2291
g12
V,
p2292
sbag0
(g1
g2
(lp2293
g0
(g1
g2
(lp2294
Vi
p2295
atp2296
Rp2297
(dp2298
g12
VFW
p2299
sbag0
(g1
g2
(lp2300
Vwan
p2301
atp2302
Rp2303
(dp2304
g12
VFW
p2305
sbatp2306
Rp2307
(dp2308
g12
VNP
p2309
sbatp2310
Rp2311
(dp2312
g12
VNP
p2313
sbatp2314
Rp2315
(dp2316
g12
VPP
p2317
sbatp2318
Rp2319
(dp2320
g12
VPRN
p2321
sbatp2322
Rp2323
(dp2324
g12
VNP
p2325
sbatp2326
Rp2327
(dp2328
g12
VPP
p2329
sbatp2330
Rp2331
(dp2332
g12
VNP
p2333
sbag0
(g1
g2
(lp2334
g0
(g1
g2
(lp2335
g0
(g1
g2
(lp2336
Vna
p2337
atp2338
Rp2339
(dp2340
g12
VTO
p2341
sbag0
(g1
g2
(lp2342
g0
(g1
g2
(lp2343
Vsay
p2344
atp2345
Rp2346
(dp2347
g12
VVB
p2348
sbag0
(g1
g2
(lp2349
g0
(g1
g2
(lp2350
Vfeathers
p2351
atp2352
Rp2353
(dp2354
g12
VNNS
p2355
sbag0
(g1
g2
(lp2356
Vor
p2357
atp2358
Rp2359
(dp2360
g12
VCC
p2361
sbag0
(g1
g2
(lp2362
Vsomething
p2363
atp2364
Rp2365
(dp2366
g12
VNN
p2367
sbatp2368
Rp2369
(dp2370
g12
VNP
p2371
sbatp2372
Rp2373
(dp2374
g12
VVP
p2375
sbatp2376
Rp2377
(dp2378
g12
VVP
p2379
sbatp2380
Rp2381
(dp2382
g12
VS
p2383
sbatp2384
Rp2385
(dp2386
g12
VVP
p2387
sbatp2388
Rp2389
(dp2390
g12
VS
p2391
sbatp2392
Rp2393
(dp2394
g12
VPP
p2395
sbatp2396
Rp2397
(dp2398
g12
VVP
p2399
sbatp2400
Rp2401
(dp2402
g12
VS
p2403
sbag0
(g1
g2
(lp2404
V.
p2405
atp2406
Rp2407
(dp2408
g12
V.
p2409
sbatp2410
Rp2411
(dp2412
g12
VS
p2413
sbatp2414
Rp2415
(dp2416
g12
S'id: 5'
p2417
sbag0
(g1
g2
(lp2418
g0
(g1
g2
(lp2419
g0
(g1
g2
(lp2420
Vand
p2421
atp2422
Rp2423
(dp2424
g12
VCC
p2425
sbag0
(g1
g2
(lp2426
g0
(g1
g2
(lp2427
Von
p2428
atp2429
Rp2430
(dp2431
g12
VIN
p2432
sbag0
(g1
g2
(lp2433
g0
(g1
g2
(lp2434
g0
(g1
g2
(lp2435
g0
(g1
g2
(lp2436
Vhim
p2437
atp2438
Rp2439
(dp2440
g12
VPRP
p2441
sbatp2442
Rp2443
(dp2444
g12
VNP
p2445
sbag0
(g1
g2
(lp2446
g0
(g1
g2
(lp2447
Vis
p2448
atp2449
Rp2450
(dp2451
g12
VVBZ
p2452
sbag0
(g1
g2
(lp2453
g0
(g1
g2
(lp2454
g0
(g1
g2
(lp2455
Va
p2456
atp2457
Rp2458
(dp2459
g12
VDT
p2460
sbag0
(g1
g2
(lp2461
Vyoung
p2462
atp2463
Rp2464
(dp2465
g12
VJJ
p2466
sbag0
(g1
g2
(lp2467
Vlady
p2468
atp2469
Rp2470
(dp2471
g12
VNN
p2472
sbatp2473
Rp2474
(dp2475
g12
VNP
p2476
sbag0
(g1
g2
(lp2477
g0
(g1
g2
(lp2478
g0
(g1
g2
(lp2479
Vwho
p2480
atp2481
Rp2482
(dp2483
g12
VWP
p2484
sbatp2485
Rp2486
(dp2487
g12
VWHNP
p2488
sbag0
(g1
g2
(lp2489
g0
(g1
g2
(lp2490
g0
(g1
g2
(lp2491
Vlooks
p2492
atp2493
Rp2494
(dp2495
g12
VVBZ
p2496
sbag0
(g1
g2
(lp2497
g0
(g1
g2
(lp2498
Vlike
p2499
atp2500
Rp2501
(dp2502
g12
VIN
p2503
sbag0
(g1
g2
(lp2504
g0
(g1
g2
(lp2505
g0
(g1
g2
(lp2506
Va
p2507
atp2508
Rp2509
(dp2510
g12
VDT
p2511
sbag0
(g1
g2
(lp2512
Vballerina
p2513
atp2514
Rp2515
(dp2516
g12
VNN
p2517
sbatp2518
Rp2519
(dp2520
g12
VNP
p2521
sbag0
(g1
g2
(lp2522
g0
(g1
g2
(lp2523
Vwith
p2524
atp2525
Rp2526
(dp2527
g12
VIN
p2528
sbag0
(g1
g2
(lp2529
g0
(g1
g2
(lp2530
Va
p2531
atp2532
Rp2533
(dp2534
g12
VDT
p2535
sbag0
(g1
g2
(lp2536
Vfluflu
p2537
atp2538
Rp2539
(dp2540
g12
VNN
p2541
sbatp2542
Rp2543
(dp2544
g12
VNP
p2545
sbatp2546
Rp2547
(dp2548
g12
VPP
p2549
sbatp2550
Rp2551
(dp2552
g12
VNP
p2553
sbatp2554
Rp2555
(dp2556
g12
VPP
p2557
sbag0
(g1
g2
(lp2558
g0
(g1
g2
(lp2559
Von
p2560
atp2561
Rp2562
(dp2563
g12
VIN
p2564
sbatp2565
Rp2566
(dp2567
g12
VPP
p2568
sbatp2569
Rp2570
(dp2571
g12
VVP
p2572
sbatp2573
Rp2574
(dp2575
g12
VS
p2576
sbatp2577
Rp2578
(dp2579
g12
VSBAR
p2580
sbatp2581
Rp2582
(dp2583
g12
VNP
p2584
sbatp2585
Rp2586
(dp2587
g12
VVP
p2588
sbatp2589
Rp2590
(dp2591
g12
VS
p2592
sbag0
(g1
g2
(lp2593
Vand
p2594
atp2595
Rp2596
(dp2597
g12
VCC
p2598
sbag0
(g1
g2
(lp2599
g0
(g1
g2
(lp2600
g0
(g1
g2
(lp2601
Vshe
p2602
atp2603
Rp2604
(dp2605
g12
VPRP
p2606
sbatp2607
Rp2608
(dp2609
g12
VNP
p2610
sbag0
(g1
g2
(lp2611
g0
(g1
g2
(lp2612
V's
p2613
atp2614
Rp2615
(dp2616
g12
VVBZ
p2617
sbatp2618
Rp2619
(dp2620
g12
VVP
p2621
sbatp2622
Rp2623
(dp2624
g12
VS
p2625
sbatp2626
Rp2627
(dp2628
g12
VS
p2629
sbatp2630
Rp2631
(dp2632
g12
VPP
p2633
sbag0
(g1
g2
(lp2634
g0
(g1
g2
(lp2635
Vgot
p2636
atp2637
Rp2638
(dp2639
g12
VVBD
p2640
sbag0
(g1
g2
(lp2641
g0
(g1
g2
(lp2642
g0
(g1
g2
(lp2643
g0
(g1
g2
(lp2644
Vher
p2645
atp2646
Rp2647
(dp2648
g12
VPRP$
p2649
sbag0
(g1
g2
(lp2650
Varms
p2651
atp2652
Rp2653
(dp2654
g12
VNNS
p2655
sbatp2656
Rp2657
(dp2658
g12
VNP
p2659
sbag0
(g1
g2
(lp2660
g0
(g1
g2
(lp2661
Vstretched
p2662
atp2663
Rp2664
(dp2665
g12
VVBN
p2666
sbag0
(g1
g2
(lp2667
g0
(g1
g2
(lp2668
Vout
p2669
atp2670
Rp2671
(dp2672
g12
VRP
p2673
sbatp2674
Rp2675
(dp2676
g12
VPRT
p2677
sbag0
(g1
g2
(lp2678
g0
(g1
g2
(lp2679
Vstraight
p2680
atp2681
Rp2682
(dp2683
g12
VRB
p2684
sbatp2685
Rp2686
(dp2687
g12
VADVP
p2688
sbatp2689
Rp2690
(dp2691
g12
VVP
p2692
sbatp2693
Rp2694
(dp2695
g12
VNP
p2696
sbag0
(g1
g2
(lp2697
Vand
p2698
atp2699
Rp2700
(dp2701
g12
VCC
p2702
sbag0
(g1
g2
(lp2703
g0
(g1
g2
(lp2704
g0
(g1
g2
(lp2705
Vher
p2706
atp2707
Rp2708
(dp2709
g12
VPRP$
p2710
sbag0
(g1
g2
(lp2711
Vknees
p2712
atp2713
Rp2714
(dp2715
g12
VNNS
p2716
sbatp2717
Rp2718
(dp2719
g12
VNP
p2720
sbag0
(g1
g2
(lp2721
g0
(g1
g2
(lp2722
Vbent
p2723
atp2724
Rp2725
(dp2726
g12
VJJ
p2727
sbag0
(g1
g2
(lp2728
g0
(g1
g2
(lp2729
g0
(g1
g2
(lp2730
Vriding
p2731
atp2732
Rp2733
(dp2734
g12
VVBG
p2735
sbag0
(g1
g2
(lp2736
g0
(g1
g2
(lp2737
g0
(g1
g2
(lp2738
Vthe
p2739
atp2740
Rp2741
(dp2742
g12
VDT
p2743
sbag0
(g1
g2
(lp2744
Vhorse
p2745
atp2746
Rp2747
(dp2748
g12
VNN
p2749
sbatp2750
Rp2751
(dp2752
g12
VNP
p2753
sbag0
(g1
g2
(lp2754
V,
p2755
atp2756
Rp2757
(dp2758
g12
V,
p2759
sbag0
(g1
g2
(lp2760
g0
(g1
g2
(lp2761
g0
(g1
g2
(lp2762
Vwho
p2763
atp2764
Rp2765
(dp2766
g12
VWP
p2767
sbatp2768
Rp2769
(dp2770
g12
VWHNP
p2771
sbag0
(g1
g2
(lp2772
g0
(g1
g2
(lp2773
g0
(g1
g2
(lp2774
V's
p2775
atp2776
Rp2777
(dp2778
g12
VVBZ
p2779
sbag0
(g1
g2
(lp2780
g0
(g1
g2
(lp2781
Vprancing
p2782
atp2783
Rp2784
(dp2785
g12
VVBG
p2786
sbag0
(g1
g2
(lp2787
g0
(g1
g2
(lp2788
Vwith
p2789
atp2790
Rp2791
(dp2792
g12
VIN
p2793
sbag0
(g1
g2
(lp2794
g0
(g1
g2
(lp2795
Vhis
p2796
atp2797
Rp2798
(dp2799
g12
VPRP$
p2800
sbag0
(g1
g2
(lp2801
Vtail
p2802
atp2803
Rp2804
(dp2805
g12
VNN
p2806
sbatp2807
Rp2808
(dp2809
g12
VNP
p2810
sbatp2811
Rp2812
(dp2813
g12
VPP
p2814
sbag0
(g1
g2
(lp2815
g0
(g1
g2
(lp2816
Vup
p2817
atp2818
Rp2819
(dp2820
g12
VRP
p2821
sbatp2822
Rp2823
(dp2824
g12
VADVP
p2825
sbatp2826
Rp2827
(dp2828
g12
VVP
p2829
sbatp2830
Rp2831
(dp2832
g12
VVP
p2833
sbatp2834
Rp2835
(dp2836
g12
VS
p2837
sbatp2838
Rp2839
(dp2840
g12
VSBAR
p2841
sbatp2842
Rp2843
(dp2844
g12
VNP
p2845
sbatp2846
Rp2847
(dp2848
g12
VVP
p2849
sbatp2850
Rp2851
(dp2852
g12
VS
p2853
sbatp2854
Rp2855
(dp2856
g12
VADJP
p2857
sbatp2858
Rp2859
(dp2860
g12
VNP
p2861
sbatp2862
Rp2863
(dp2864
g12
VNP
p2865
sbatp2866
Rp2867
(dp2868
g12
VVP
p2869
sbag0
(g1
g2
(lp2870
V.
p2871
atp2872
Rp2873
(dp2874
g12
V.
p2875
sbatp2876
Rp2877
(dp2878
g12
VS
p2879
sbatp2880
Rp2881
(dp2882
g12
S'id: 6'
p2883
sbag0
(g1
g2
(lp2884
g0
(g1
g2
(lp2885
g0
(g1
g2
(lp2886
Vand
p2887
atp2888
Rp2889
(dp2890
g12
VCC
p2891
sbag0
(g1
g2
(lp2892
g0
(g1
g2
(lp2893
Vthere
p2894
atp2895
Rp2896
(dp2897
g12
VEX
p2898
sbatp2899
Rp2900
(dp2901
g12
VNP
p2902
sbag0
(g1
g2
(lp2903
g0
(g1
g2
(lp2904
V's
p2905
atp2906
Rp2907
(dp2908
g12
VVBZ
p2909
sbag0
(g1
g2
(lp2910
g0
(g1
g2
(lp2911
g0
(g1
g2
(lp2912
Va
p2913
atp2914
Rp2915
(dp2916
g12
VDT
p2917
sbatp2918
Rp2919
(dp2920
g12
VNP
p2921
sbag0
(g1
g2
(lp2922
V,
p2923
atp2924
Rp2925
(dp2926
g12
V,
p2927
sbag0
(g1
g2
(lp2928
g0
(g1
g2
(lp2929
g0
(g1
g2
(lp2930
Vone
p2931
atp2932
Rp2933
(dp2934
g12
VCD
p2935
sbag0
(g1
g2
(lp2936
Vtwo
p2937
atp2938
Rp2939
(dp2940
g12
VCD
p2941
sbatp2942
Rp2943
(dp2944
g12
VNP
p2945
sbag0
(g1
g2
(lp2946
g0
(g1
g2
(lp2947
g0
(g1
g2
(lp2948
g0
(g1
g2
(lp2949
Vthree
p2950
atp2951
Rp2952
(dp2953
g12
VCD
p2954
sbag0
(g1
g2
(lp2955
Vfour
p2956
atp2957
Rp2958
(dp2959
g12
VCD
p2960
sbatp2961
Rp2962
(dp2963
g12
VQP
p2964
sbatp2965
Rp2966
(dp2967
g12
VNP
p2968
sbag0
(g1
g2
(lp2969
g0
(g1
g2
(lp2970
Vfive
p2971
atp2972
Rp2973
(dp2974
g12
VCD
p2975
sbag0
(g1
g2
(lp2976
Vsix
p2977
atp2978
Rp2979
(dp2980
g12
VCD
p2981
sbag0
(g1
g2
(lp2982
Vpeople
p2983
atp2984
Rp2985
(dp2986
g12
VNNS
p2987
sbatp2988
Rp2989
(dp2990
g12
VNP
p2991
sbatp2992
Rp2993
(dp2994
g12
VNP
p2995
sbatp2996
Rp2997
(dp2998
g12
VNP
p2999
sbag0
(g1
g2
(lp3000
V,
p3001
atp3002
Rp3003
(dp3004
g12
V,
p3005
sbag0
(g1
g2
(lp3006
g0
(g1
g2
(lp3007
Vfive
p3008
atp3009
Rp3010
(dp3011
g12
VCD
p3012
sbatp3013
Rp3014
(dp3015
g12
VNP
p3016
sbag0
(g1
g2
(lp3017
Vor
p3018
atp3019
Rp3020
(dp3021
g12
VCC
p3022
sbag0
(g1
g2
(lp3023
g0
(g1
g2
(lp3024
g0
(g1
g2
(lp3025
Vsix
p3026
atp3027
Rp3028
(dp3029
g12
VCD
p3030
sbag0
(g1
g2
(lp3031
Vpeople
p3032
atp3033
Rp3034
(dp3035
g12
VNNS
p3036
sbatp3037
Rp3038
(dp3039
g12
VNP
p3040
sbag0
(g1
g2
(lp3041
g0
(g1
g2
(lp3042
Vsitting
p3043
atp3044
Rp3045
(dp3046
g12
VVBG
p3047
sbag0
(g1
g2
(lp3048
V,
p3049
atp3050
Rp3051
(dp3052
g12
V,
p3053
sbag0
(g1
g2
(lp3054
g0
(g1
g2
(lp3055
Von
p3056
atp3057
Rp3058
(dp3059
g12
VIN
p3060
sbag0
(g1
g2
(lp3061
g0
(g1
g2
(lp3062
g0
(g1
g2
(lp3063
Va
p3064
atp3065
Rp3066
(dp3067
g12
VDT
p3068
sbag0
(g1
g2
(lp3069
Vbench
p3070
atp3071
Rp3072
(dp3073
g12
VNN
p3074
sbatp3075
Rp3076
(dp3077
g12
VNP
p3078
sbag0
(g1
g2
(lp3079
g0
(g1
g2
(lp3080
Von
p3081
atp3082
Rp3083
(dp3084
g12
VIN
p3085
sbag0
(g1
g2
(lp3086
g0
(g1
g2
(lp3087
g0
(g1
g2
(lp3088
Vthe
p3089
atp3090
Rp3091
(dp3092
g12
VDT
p3093
sbag0
(g1
g2
(lp3094
Vfar
p3095
atp3096
Rp3097
(dp3098
g12
VJJ
p3099
sbag0
(g1
g2
(lp3100
Vside
p3101
atp3102
Rp3103
(dp3104
g12
VNN
p3105
sbatp3106
Rp3107
(dp3108
g12
VNP
p3109
sbag0
(g1
g2
(lp3110
g0
(g1
g2
(lp3111
Vof
p3112
atp3113
Rp3114
(dp3115
g12
VIN
p3116
sbag0
(g1
g2
(lp3117
g0
(g1
g2
(lp3118
Vthe
p3119
atp3120
Rp3121
(dp3122
g12
VDT
p3123
sbag0
(g1
g2
(lp3124
Vthe
p3125
atp3126
Rp3127
(dp3128
g12
VDT
p3129
sbag0
(g1
g2
(lp3130
Vring
p3131
atp3132
Rp3133
(dp3134
g12
VNN
p3135
sbatp3136
Rp3137
(dp3138
g12
VNP
p3139
sbatp3140
Rp3141
(dp3142
g12
VPP
p3143
sbatp3144
Rp3145
(dp3146
g12
VNP
p3147
sbatp3148
Rp3149
(dp3150
g12
VPP
p3151
sbatp3152
Rp3153
(dp3154
g12
VNP
p3155
sbatp3156
Rp3157
(dp3158
g12
VPP
p3159
sbag0
(g1
g2
(lp3160
V,
p3161
atp3162
Rp3163
(dp3164
g12
V,
p3165
sbag0
(g1
g2
(lp3166
g0
(g1
g2
(lp3167
Vthat
p3168
atp3169
Rp3170
(dp3171
g12
VIN
p3172
sbag0
(g1
g2
(lp3173
g0
(g1
g2
(lp3174
g0
(g1
g2
(lp3175
Vthey
p3176
atp3177
Rp3178
(dp3179
g12
VPRP
p3180
sbatp3181
Rp3182
(dp3183
g12
VNP
p3184
sbag0
(g1
g2
(lp3185
g0
(g1
g2
(lp3186
V're
p3187
atp3188
Rp3189
(dp3190
g12
VVBP
p3191
sbag0
(g1
g2
(lp3192
g0
(g1
g2
(lp3193
Vgoing
p3194
atp3195
Rp3196
(dp3197
g12
VVBG
p3198
sbag0
(g1
g2
(lp3199
g0
(g1
g2
(lp3200
Varound
p3201
atp3202
Rp3203
(dp3204
g12
VRP
p3205
sbatp3206
Rp3207
(dp3208
g12
VPRT
p3209
sbag0
(g1
g2
(lp3210
g0
(g1
g2
(lp3211
Vwith
p3212
atp3213
Rp3214
(dp3215
g12
VIN
p3216
sbag0
(g1
g2
(lp3217
g0
(g1
g2
(lp3218
Vthe
p3219
atp3220
Rp3221
(dp3222
g12
VDT
p3223
sbag0
(g1
g2
(lp3224
Vthe
p3225
atp3226
Rp3227
(dp3228
g12
VDT
p3229
sbag0
(g1
g2
(lp3230
Vlady
p3231
atp3232
Rp3233
(dp3234
g12
VNN
p3235
sbatp3236
Rp3237
(dp3238
g12
VNP
p3239
sbatp3240
Rp3241
(dp3242
g12
VPP
p3243
sbag0
(g1
g2
(lp3244
g0
(g1
g2
(lp3245
Von
p3246
atp3247
Rp3248
(dp3249
g12
VIN
p3250
sbag0
(g1
g2
(lp3251
g0
(g1
g2
(lp3252
Vthe
p3253
atp3254
Rp3255
(dp3256
g12
VDT
p3257
sbag0
(g1
g2
(lp3258
Vhorse
p3259
atp3260
Rp3261
(dp3262
g12
VNN
p3263
sbatp3264
Rp3265
(dp3266
g12
VNP
p3267
sbatp3268
Rp3269
(dp3270
g12
VPP
p3271
sbatp3272
Rp3273
(dp3274
g12
VVP
p3275
sbatp3276
Rp3277
(dp3278
g12
VVP
p3279
sbatp3280
Rp3281
(dp3282
g12
VS
p3283
sbatp3284
Rp3285
(dp3286
g12
VSBAR
p3287
sbatp3288
Rp3289
(dp3290
g12
VVP
p3291
sbatp3292
Rp3293
(dp3294
g12
VNP
p3295
sbatp3296
Rp3297
(dp3298
g12
VNP
p3299
sbatp3300
Rp3301
(dp3302
g12
VVP
p3303
sbag0
(g1
g2
(lp3304
V.
p3305
atp3306
Rp3307
(dp3308
g12
V.
p3309
sbatp3310
Rp3311
(dp3312
g12
VS
p3313
sbatp3314
Rp3315
(dp3316
g12
S'id: 7'
p3317
sbag0
(g1
g2
(lp3318
g0
(g1
g2
(lp3319
g0
(g1
g2
(lp3320
Vand
p3321
atp3322
Rp3323
(dp3324
g12
VCC
p3325
sbag0
(g1
g2
(lp3326
g0
(g1
g2
(lp3327
Vit
p3328
atp3329
Rp3330
(dp3331
g12
VPRP
p3332
sbatp3333
Rp3334
(dp3335
g12
VNP
p3336
sbag0
(g1
g2
(lp3337
g0
(g1
g2
(lp3338
Vlooks
p3339
atp3340
Rp3341
(dp3342
g12
VVBZ
p3343
sbag0
(g1
g2
(lp3344
g0
(g1
g2
(lp3345
Vlike
p3346
atp3347
Rp3348
(dp3349
g12
VIN
p3350
sbag0
(g1
g2
(lp3351
g0
(g1
g2
(lp3352
g0
(g1
g2
(lp3353
Vit
p3354
atp3355
Rp3356
(dp3357
g12
VPRP
p3358
sbatp3359
Rp3360
(dp3361
g12
VNP
p3362
sbag0
(g1
g2
(lp3363
g0
(g1
g2
(lp3364
V's
p3365
atp3366
Rp3367
(dp3368
g12
VVBZ
p3369
sbag0
(g1
g2
(lp3370
g0
(g1
g2
(lp3371
g0
(g1
g2
(lp3372
Va
p3373
atp3374
Rp3375
(dp3376
g12
VDT
p3377
sbag0
(g1
g2
(lp3378
Vfamily
p3379
atp3380
Rp3381
(dp3382
g12
VNN
p3383
sbatp3384
Rp3385
(dp3386
g12
VNP
p3387
sbag0
(g1
g2
(lp3388
g0
(g1
g2
(lp3389
Vin
p3390
atp3391
Rp3392
(dp3393
g12
VIN
p3394
sbag0
(g1
g2
(lp3395
g0
(g1
g2
(lp3396
Vdescending
p3397
atp3398
Rp3399
(dp3400
g12
VVBG
p3401
sbag0
(g1
g2
(lp3402
Vorder
p3403
atp3404
Rp3405
(dp3406
g12
VNN
p3407
sbatp3408
Rp3409
(dp3410
g12
VNP
p3411
sbatp3412
Rp3413
(dp3414
g12
VPP
p3415
sbatp3416
Rp3417
(dp3418
g12
VNP
p3419
sbatp3420
Rp3421
(dp3422
g12
VVP
p3423
sbatp3424
Rp3425
(dp3426
g12
VS
p3427
sbatp3428
Rp3429
(dp3430
g12
VSBAR
p3431
sbatp3432
Rp3433
(dp3434
g12
VVP
p3435
sbag0
(g1
g2
(lp3436
V.
p3437
atp3438
Rp3439
(dp3440
g12
V.
p3441
sbatp3442
Rp3443
(dp3444
g12
VS
p3445
sbatp3446
Rp3447
(dp3448
g12
S'id: 8'
p3449
sbag0
(g1
g2
(lp3450
g0
(g1
g2
(lp3451
g0
(g1
g2
(lp3452
Vand
p3453
atp3454
Rp3455
(dp3456
g12
VCC
p3457
sbag0
(g1
g2
(lp3458
g0
(g1
g2
(lp3459
Vthey
p3460
atp3461
Rp3462
(dp3463
g12
VPRP
p3464
sbatp3465
Rp3466
(dp3467
g12
VNP
p3468
sbag0
(g1
g2
(lp3469
g0
(g1
g2
(lp3470
V're
p3471
atp3472
Rp3473
(dp3474
g12
VVBP
p3475
sbag0
(g1
g2
(lp3476
g0
(g1
g2
(lp3477
Vin
p3478
atp3479
Rp3480
(dp3481
g12
VIN
p3482
sbag0
(g1
g2
(lp3483
g0
(g1
g2
(lp3484
Vblack
p3485
atp3486
Rp3487
(dp3488
g12
VJJ
p3489
sbatp3490
Rp3491
(dp3492
g12
VNP
p3493
sbatp3494
Rp3495
(dp3496
g12
VPP
p3497
sbag0
(g1
g2
(lp3498
g0
(g1
g2
(lp3499
Vso
p3500
atp3501
Rp3502
(dp3503
g12
VIN
p3504
sbag0
(g1
g2
(lp3505
g0
(g1
g2
(lp3506
g0
(g1
g2
(lp3507
Vyou
p3508
atp3509
Rp3510
(dp3511
g12
VPRP
p3512
sbatp3513
Rp3514
(dp3515
g12
VNP
p3516
sbag0
(g1
g2
(lp3517
g0
(g1
g2
(lp3518
Vdo
p3519
atp3520
Rp3521
(dp3522
g12
VVBP
p3523
sbag0
(g1
g2
(lp3524
Vn't
p3525
atp3526
Rp3527
(dp3528
g12
VRB
p3529
sbag0
(g1
g2
(lp3530
g0
(g1
g2
(lp3531
Vsee
p3532
atp3533
Rp3534
(dp3535
g12
VVB
p3536
sbag0
(g1
g2
(lp3537
g0
(g1
g2
(lp3538
Vany
p3539
atp3540
Rp3541
(dp3542
g12
VDT
p3543
sbag0
(g1
g2
(lp3544
Vfaces
p3545
atp3546
Rp3547
(dp3548
g12
VNNS
p3549
sbatp3550
Rp3551
(dp3552
g12
VNP
p3553
sbatp3554
Rp3555
(dp3556
g12
VVP
p3557
sbatp3558
Rp3559
(dp3560
g12
VVP
p3561
sbatp3562
Rp3563
(dp3564
g12
VS
p3565
sbatp3566
Rp3567
(dp3568
g12
VSBAR
p3569
sbatp3570
Rp3571
(dp3572
g12
VVP
p3573
sbag0
(g1
g2
(lp3574
V.
p3575
atp3576
Rp3577
(dp3578
g12
V.
p3579
sbatp3580
Rp3581
(dp3582
g12
VS
p3583
sbatp3584
Rp3585
(dp3586
g12
S'id: 9'
p3587
sbag0
(g1
g2
(lp3588
g0
(g1
g2
(lp3589
g0
(g1
g2
(lp3590
Vand
p3591
atp3592
Rp3593
(dp3594
g12
VCC
p3595
sbag0
(g1
g2
(lp3596
g0
(g1
g2
(lp3597
Vabove
p3598
atp3599
Rp3600
(dp3601
g12
VIN
p3602
sbag0
(g1
g2
(lp3603
Vall
p3604
atp3605
Rp3606
(dp3607
g12
VDT
p3608
sbatp3609
Rp3610
(dp3611
g12
VADVP
p3612
sbag0
(g1
g2
(lp3613
g0
(g1
g2
(lp3614
Vof
p3615
atp3616
Rp3617
(dp3618
g12
VIN
p3619
sbag0
(g1
g2
(lp3620
g0
(g1
g2
(lp3621
Vthe
p3622
atp3623
Rp3624
(dp3625
g12
VDT
p3626
sbatp3627
Rp3628
(dp3629
g12
VNP
p3630
sbatp3631
Rp3632
(dp3633
g12
VPP
p3634
sbag0
(g1
g2
(lp3635
g0
(g1
g2
(lp3636
Vis
p3637
atp3638
Rp3639
(dp3640
g12
VVBZ
p3641
sbatp3642
Rp3643
(dp3644
g12
VVP
p3645
sbag0
(g1
g2
(lp3646
g0
(g1
g2
(lp3647
Va
p3648
atp3649
Rp3650
(dp3651
g12
VDT
p3652
sbag0
(g1
g2
(lp3653
Vgentleman
p3654
atp3655
Rp3656
(dp3657
g12
VNN
p3658
sbag0
(g1
g2
(lp3659
g0
(g1
g2
(lp3660
g0
(g1
g2
(lp3661
Vwho
p3662
atp3663
Rp3664
(dp3665
g12
VWP
p3666
sbatp3667
Rp3668
(dp3669
g12
VWHNP
p3670
sbag0
(g1
g2
(lp3671
g0
(g1
g2
(lp3672
g0
(g1
g2
(lp3673
Vis
p3674
atp3675
Rp3676
(dp3677
g12
VVBZ
p3678
sbag0
(g1
g2
(lp3679
g0
(g1
g2
(lp3680
g0
(g1
g2
(lp3681
Va
p3682
atp3683
Rp3684
(dp3685
g12
VDT
p3686
sbatp3687
Rp3688
(dp3689
g12
VNP
p3690
sbag0
(g1
g2
(lp3691
V,
p3692
atp3693
Rp3694
(dp3695
g12
V,
p3696
sbag0
(g1
g2
(lp3697
g0
(g1
g2
(lp3698
Vtightrope
p3699
atp3700
Rp3701
(dp3702
g12
VNN
p3703
sbag0
(g1
g2
(lp3704
Vwalker
p3705
atp3706
Rp3707
(dp3708
g12
VNN
p3709
sbatp3710
Rp3711
(dp3712
g12
VNP
p3713
sbatp3714
Rp3715
(dp3716
g12
VNP
p3717
sbatp3718
Rp3719
(dp3720
g12
VVP
p3721
sbatp3722
Rp3723
(dp3724
g12
VS
p3725
sbatp3726
Rp3727
(dp3728
g12
VSBAR
p3729
sbatp3730
Rp3731
(dp3732
g12
VNP
p3733
sbag0
(g1
g2
(lp3734
V.
p3735
atp3736
Rp3737
(dp3738
g12
V.
p3739
sbatp3740
Rp3741
(dp3742
g12
VSINV
p3743
sbatp3744
Rp3745
(dp3746
g12
S'id: 10'
p3747
sbatp3748
Rp3749
(dp3750
g12
S'sentences'
p3751
sb.