ccopy_reg
_reconstructor
p0
(cnltk.tree
Tree
p1
c__builtin__
list
p2
(lp3
g0
(g1
g2
(lp4
g0
(g1
g2
(lp5
g0
(g1
g2
(lp6
Vi
p7
atp8
Rp9
(dp10
S'_label'
p11
VLS
p12
sbag0
(g1
g2
(lp13
g0
(g1
g2
(lp14
Vsee
p15
atp16
Rp17
(dp18
g11
VVB
p19
sbag0
(g1
g2
(lp20
g0
(g1
g2
(lp21
g0
(g1
g2
(lp22
Va
p23
atp24
Rp25
(dp26
g11
VDT
p27
sbag0
(g1
g2
(lp28
Vsink
p29
atp30
Rp31
(dp32
g11
VNN
p33
sbatp34
Rp35
(dp36
g11
VNP
p37
sbag0
(g1
g2
(lp38
g0
(g1
g2
(lp39
Vrunning
p40
atp41
Rp42
(dp43
g11
VVBG
p44
sbag0
(g1
g2
(lp45
g0
(g1
g2
(lp46
Vover
p47
atp48
Rp49
(dp50
g11
VRB
p51
sbatp52
Rp53
(dp54
g11
VADVP
p55
sbag0
(g1
g2
(lp56
V,
p57
atp58
Rp59
(dp60
g11
V,
p61
sbag0
(g1
g2
(lp62
g0
(g1
g2
(lp63
g0
(g1
g2
(lp64
Voverflowing
p65
atp66
Rp67
(dp68
g11
VVBG
p69
sbatp70
Rp71
(dp72
g11
VVP
p73
sbatp74
Rp75
(dp76
g11
VS
p77
sbatp78
Rp79
(dp80
g11
VVP
p81
sbatp82
Rp83
(dp84
g11
VNP
p85
sbatp86
Rp87
(dp88
g11
VVP
p89
sbag0
(g1
g2
(lp90
V.
p91
atp92
Rp93
(dp94
g11
V.
p95
sbatp96
Rp97
(dp98
g11
VS
p99
sbatp100
Rp101
(dp102
g11
S'id: 0'
p103
sbag0
(g1
g2
(lp104
g0
(g1
g2
(lp105
g0
(g1
g2
(lp106
Vi
p107
atp108
Rp109
(dp110
g11
VLS
p111
sbag0
(g1
g2
(lp112
g0
(g1
g2
(lp113
Vsee
p114
atp115
Rp116
(dp117
g11
VVB
p118
sbag0
(g1
g2
(lp119
g0
(g1
g2
(lp120
g0
(g1
g2
(lp121
Va
p122
atp123
Rp124
(dp125
g11
VDT
p126
sbag0
(g1
g2
(lp127
Vwoman
p128
atp129
Rp130
(dp131
g11
VNN
p132
sbatp133
Rp134
(dp135
g11
VNP
p136
sbag0
(g1
g2
(lp137
g0
(g1
g2
(lp138
Vwiping
p139
atp140
Rp141
(dp142
g11
VVBG
p143
sbag0
(g1
g2
(lp144
g0
(g1
g2
(lp145
g0
(g1
g2
(lp146
Va
p147
atp148
Rp149
(dp150
g11
VDT
p151
sbag0
(g1
g2
(lp152
Vplate
p153
atp154
Rp155
(dp156
g11
VNN
p157
sbatp158
Rp159
(dp160
g11
VNP
p161
sbag0
(g1
g2
(lp162
V,
p163
atp164
Rp165
(dp166
g11
V,
p167
sbag0
(g1
g2
(lp168
g0
(g1
g2
(lp169
g0
(g1
g2
(lp170
Vfront
p171
atp172
Rp173
(dp174
g11
VNN
p175
sbatp176
Rp177
(dp178
g11
VNP
p179
sbag0
(g1
g2
(lp180
g0
(g1
g2
(lp181
Vof
p182
atp183
Rp184
(dp185
g11
VIN
p186
sbag0
(g1
g2
(lp187
g0
(g1
g2
(lp188
Vthe
p189
atp190
Rp191
(dp192
g11
VDT
p193
sbag0
(g1
g2
(lp194
Vsink
p195
atp196
Rp197
(dp198
g11
VNN
p199
sbatp200
Rp201
(dp202
g11
VNP
p203
sbatp204
Rp205
(dp206
g11
VPP
p207
sbatp208
Rp209
(dp210
g11
VNP
p211
sbatp212
Rp213
(dp214
g11
VNP
p215
sbag0
(g1
g2
(lp216
g0
(g1
g2
(lp217
Vthat
p218
atp219
Rp220
(dp221
g11
VIN
p222
sbag0
(g1
g2
(lp223
g0
(g1
g2
(lp224
g0
(g1
g2
(lp225
Vthe
p226
atp227
Rp228
(dp229
g11
VDT
p230
sbag0
(g1
g2
(lp231
Vwater
p232
atp233
Rp234
(dp235
g11
VNN
p236
sbatp237
Rp238
(dp239
g11
VNP
p240
sbag0
(g1
g2
(lp241
g0
(g1
g2
(lp242
Vis
p243
atp244
Rp245
(dp246
g11
VVBZ
p247
sbag0
(g1
g2
(lp248
g0
(g1
g2
(lp249
Von
p250
atp251
Rp252
(dp253
g11
VIN
p254
sbag0
(g1
g2
(lp255
g0
(g1
g2
(lp256
Vthe
p257
atp258
Rp259
(dp260
g11
VDT
p261
sbag0
(g1
g2
(lp262
Vfloor
p263
atp264
Rp265
(dp266
g11
VNN
p267
sbatp268
Rp269
(dp270
g11
VNP
p271
sbatp272
Rp273
(dp274
g11
VPP
p275
sbatp276
Rp277
(dp278
g11
VVP
p279
sbatp280
Rp281
(dp282
g11
VS
p283
sbatp284
Rp285
(dp286
g11
VSBAR
p287
sbatp288
Rp289
(dp290
g11
VVP
p291
sbatp292
Rp293
(dp294
g11
VNP
p295
sbatp296
Rp297
(dp298
g11
VVP
p299
sbag0
(g1
g2
(lp300
V.
p301
atp302
Rp303
(dp304
g11
V.
p305
sbatp306
Rp307
(dp308
g11
VS
p309
sbatp310
Rp311
(dp312
g11
S'id: 1'
p313
sbag0
(g1
g2
(lp314
g0
(g1
g2
(lp315
g0
(g1
g2
(lp316
g0
(g1
g2
(lp317
g0
(g1
g2
(lp318
Vi
p319
atp320
Rp321
(dp322
g11
VLS
p323
sbag0
(g1
g2
(lp324
g0
(g1
g2
(lp325
Vsee
p326
atp327
Rp328
(dp329
g11
VVB
p330
sbag0
(g1
g2
(lp331
g0
(g1
g2
(lp332
g0
(g1
g2
(lp333
g0
(g1
g2
(lp334
Va
p335
atp336
Rp337
(dp338
g11
VDT
p339
sbag0
(g1
g2
(lp340
Vchild
p341
atp342
Rp343
(dp344
g11
VNN
p345
sbatp346
Rp347
(dp348
g11
VNP
p349
sbag0
(g1
g2
(lp350
g0
(g1
g2
(lp351
Von
p352
atp353
Rp354
(dp355
g11
VIN
p356
sbag0
(g1
g2
(lp357
g0
(g1
g2
(lp358
Va
p359
atp360
Rp361
(dp362
g11
VDT
p363
sbag0
(g1
g2
(lp364
Vstool
p365
atp366
Rp367
(dp368
g11
VNN
p369
sbag0
(g1
g2
(lp370
Vbout
p371
atp372
Rp373
(dp374
g11
VNN
p375
sbatp376
Rp377
(dp378
g11
VNP
p379
sbatp380
Rp381
(dp382
g11
VPP
p383
sbatp384
Rp385
(dp386
g11
VNP
p387
sbag0
(g1
g2
(lp388
g0
(g1
g2
(lp389
Vready
p390
atp391
Rp392
(dp393
g11
VJJ
p394
sbag0
(g1
g2
(lp395
g0
(g1
g2
(lp396
g0
(g1
g2
(lp397
Vto
p398
atp399
Rp400
(dp401
g11
VTO
p402
sbag0
(g1
g2
(lp403
g0
(g1
g2
(lp404
Vfall
p405
atp406
Rp407
(dp408
g11
VVB
p409
sbatp410
Rp411
(dp412
g11
VVP
p413
sbatp414
Rp415
(dp416
g11
VVP
p417
sbatp418
Rp419
(dp420
g11
VS
p421
sbatp422
Rp423
(dp424
g11
VADJP
p425
sbatp426
Rp427
(dp428
g11
VS
p429
sbatp430
Rp431
(dp432
g11
VVP
p433
sbatp434
Rp435
(dp436
g11
VVP
p437
sbatp438
Rp439
(dp440
g11
VS
p441
sbag0
(g1
g2
(lp442
V,
p443
atp444
Rp445
(dp446
g11
V,
p447
sbag0
(g1
g2
(lp448
g0
(g1
g2
(lp449
Vhe
p450
atp451
Rp452
(dp453
g11
VPRP
p454
sbatp455
Rp456
(dp457
g11
VNP
p458
sbag0
(g1
g2
(lp459
g0
(g1
g2
(lp460
V's
p461
atp462
Rp463
(dp464
g11
VVBZ
p465
sbag0
(g1
g2
(lp466
g0
(g1
g2
(lp467
Vin
p468
atp469
Rp470
(dp471
g11
VIN
p472
sbag0
(g1
g2
(lp473
g0
(g1
g2
(lp474
Vthe
p475
atp476
Rp477
(dp478
g11
VDT
p479
sbag0
(g1
g2
(lp480
Vcookie
p481
atp482
Rp483
(dp484
g11
VNN
p485
sbag0
(g1
g2
(lp486
Vjar
p487
atp488
Rp489
(dp490
g11
VNN
p491
sbatp492
Rp493
(dp494
g11
VNP
p495
sbatp496
Rp497
(dp498
g11
VPP
p499
sbatp500
Rp501
(dp502
g11
VVP
p503
sbag0
(g1
g2
(lp504
V.
p505
atp506
Rp507
(dp508
g11
V.
p509
sbatp510
Rp511
(dp512
g11
VS
p513
sbatp514
Rp515
(dp516
g11
S'id: 2'
p517
sbag0
(g1
g2
(lp518
g0
(g1
g2
(lp519
g0
(g1
g2
(lp520
g0
(g1
g2
(lp521
Vhe
p522
atp523
Rp524
(dp525
g11
VPRP
p526
sbatp527
Rp528
(dp529
g11
VNP
p530
sbag0
(g1
g2
(lp531
g0
(g1
g2
(lp532
Vmay
p533
atp534
Rp535
(dp536
g11
VMD
p537
sbag0
(g1
g2
(lp538
g0
(g1
g2
(lp539
Vbring
p540
atp541
Rp542
(dp543
g11
VVB
p544
sbag0
(g1
g2
(lp545
g0
(g1
g2
(lp546
Vthe
p547
atp548
Rp549
(dp550
g11
VDT
p551
sbag0
(g1
g2
(lp552
Vcookie
p553
atp554
Rp555
(dp556
g11
VNN
p557
sbag0
(g1
g2
(lp558
Vjar
p559
atp560
Rp561
(dp562
g11
VNN
p563
sbatp564
Rp565
(dp566
g11
VNP
p567
sbag0
(g1
g2
(lp568
g0
(g1
g2
(lp569
Vout
p570
atp571
Rp572
(dp573
g11
VIN
p574
sbag0
(g1
g2
(lp575
g0
(g1
g2
(lp576
Vwith
p577
atp578
Rp579
(dp580
g11
VIN
p581
sbag0
(g1
g2
(lp582
g0
(g1
g2
(lp583
Vhim
p584
atp585
Rp586
(dp587
g11
VPRP
p588
sbatp589
Rp590
(dp591
g11
VNP
p592
sbatp593
Rp594
(dp595
g11
VPP
p596
sbatp597
Rp598
(dp599
g11
VADVP
p600
sbag0
(g1
g2
(lp601
g0
(g1
g2
(lp602
g0
(g1
g2
(lp603
Vwhen
p604
atp605
Rp606
(dp607
g11
VWRB
p608
sbatp609
Rp610
(dp611
g11
VWHADVP
p612
sbag0
(g1
g2
(lp613
g0
(g1
g2
(lp614
g0
(g1
g2
(lp615
Vhe
p616
atp617
Rp618
(dp619
g11
VPRP
p620
sbatp621
Rp622
(dp623
g11
VNP
p624
sbag0
(g1
g2
(lp625
g0
(g1
g2
(lp626
Vfalls
p627
atp628
Rp629
(dp630
g11
VVBZ
p631
sbatp632
Rp633
(dp634
g11
VVP
p635
sbatp636
Rp637
(dp638
g11
VS
p639
sbatp640
Rp641
(dp642
g11
VSBAR
p643
sbatp644
Rp645
(dp646
g11
VVP
p647
sbatp648
Rp649
(dp650
g11
VVP
p651
sbag0
(g1
g2
(lp652
V.
p653
atp654
Rp655
(dp656
g11
V.
p657
sbatp658
Rp659
(dp660
g11
VS
p661
sbatp662
Rp663
(dp664
g11
S'id: 3'
p665
sbag0
(g1
g2
(lp666
g0
(g1
g2
(lp667
g0
(g1
g2
(lp668
Vand
p669
atp670
Rp671
(dp672
g11
VCC
p673
sbag0
(g1
g2
(lp674
g0
(g1
g2
(lp675
Vthen
p676
atp677
Rp678
(dp679
g11
VRB
p680
sbatp681
Rp682
(dp683
g11
VADVP
p684
sbag0
(g1
g2
(lp685
g0
(g1
g2
(lp686
Vit
p687
atp688
Rp689
(dp690
g11
VPRP
p691
sbatp692
Rp693
(dp694
g11
VNP
p695
sbag0
(g1
g2
(lp696
g0
(g1
g2
(lp697
Vlooks
p698
atp699
Rp700
(dp701
g11
VVBZ
p702
sbag0
(g1
g2
(lp703
g0
(g1
g2
(lp704
Vlike
p705
atp706
Rp707
(dp708
g11
VIN
p709
sbag0
(g1
g2
(lp710
g0
(g1
g2
(lp711
g0
(g1
g2
(lp712
Vmaybe
p713
atp714
Rp715
(dp716
g11
VRB
p717
sbag0
(g1
g2
(lp718
g0
(g1
g2
(lp719
Vthe
p720
atp721
Rp722
(dp723
g11
VDT
p724
sbag0
(g1
g2
(lp725
Vsister
p726
atp727
Rp728
(dp729
g11
VNN
p730
sbag0
(g1
g2
(lp731
Vstanding
p732
atp733
Rp734
(dp735
g11
VNN
p736
sbatp737
Rp738
(dp739
g11
VNP
p740
sbag0
(g1
g2
(lp741
g0
(g1
g2
(lp742
Vthere
p743
atp744
Rp745
(dp746
g11
VRB
p747
sbatp748
Rp749
(dp750
g11
VADVP
p751
sbatp752
Rp753
(dp754
g11
VNP
p755
sbag0
(g1
g2
(lp756
V,
p757
atp758
Rp759
(dp760
g11
V,
p761
sbag0
(g1
g2
(lp762
g0
(g1
g2
(lp763
Vwaiting
p764
atp765
Rp766
(dp767
g11
VVBG
p768
sbag0
(g1
g2
(lp769
g0
(g1
g2
(lp770
Vfor
p771
atp772
Rp773
(dp774
g11
VIN
p775
sbag0
(g1
g2
(lp776
g0
(g1
g2
(lp777
Vhim
p778
atp779
Rp780
(dp781
g11
VPRP
p782
sbatp783
Rp784
(dp785
g11
VNP
p786
sbatp787
Rp788
(dp789
g11
VPP
p790
sbag0
(g1
g2
(lp791
g0
(g1
g2
(lp792
g0
(g1
g2
(lp793
Vto
p794
atp795
Rp796
(dp797
g11
VTO
p798
sbag0
(g1
g2
(lp799
g0
(g1
g2
(lp800
Vhand
p801
atp802
Rp803
(dp804
g11
VVB
p805
sbag0
(g1
g2
(lp806
g0
(g1
g2
(lp807
Vthe
p808
atp809
Rp810
(dp811
g11
VDT
p812
sbag0
(g1
g2
(lp813
Vcookie
p814
atp815
Rp816
(dp817
g11
VNN
p818
sbatp819
Rp820
(dp821
g11
VNP
p822
sbag0
(g1
g2
(lp823
g0
(g1
g2
(lp824
Vdown
p825
atp826
Rp827
(dp828
g11
VRB
p829
sbatp830
Rp831
(dp832
g11
VADVP
p833
sbatp834
Rp835
(dp836
g11
VVP
p837
sbatp838
Rp839
(dp840
g11
VVP
p841
sbatp842
Rp843
(dp844
g11
VS
p845
sbatp846
Rp847
(dp848
g11
VVP
p849
sbatp850
Rp851
(dp852
g11
VNP
p853
sbatp854
Rp855
(dp856
g11
VPP
p857
sbatp858
Rp859
(dp860
g11
VVP
p861
sbag0
(g1
g2
(lp862
V.
p863
atp864
Rp865
(dp866
g11
V.
p867
sbatp868
Rp869
(dp870
g11
VS
p871
sbatp872
Rp873
(dp874
g11
S'id: 4'
p875
sbag0
(g1
g2
(lp876
g0
(g1
g2
(lp877
g0
(g1
g2
(lp878
Vand
p879
atp880
Rp881
(dp882
g11
VCC
p883
sbag0
(g1
g2
(lp884
g0
(g1
g2
(lp885
VI
p886
atp887
Rp888
(dp889
g11
VPRP
p890
sbatp891
Rp892
(dp893
g11
VNP
p894
sbag0
(g1
g2
(lp895
g0
(g1
g2
(lp896
Vguess
p897
atp898
Rp899
(dp900
g11
VVBP
p901
sbag0
(g1
g2
(lp902
g0
(g1
g2
(lp903
g0
(g1
g2
(lp904
g0
(g1
g2
(lp905
Vthat
p906
atp907
Rp908
(dp909
g11
VDT
p910
sbatp911
Rp912
(dp913
g11
VNP
p914
sbag0
(g1
g2
(lp915
g0
(g1
g2
(lp916
V's
p917
atp918
Rp919
(dp920
g11
VVBZ
p921
sbag0
(g1
g2
(lp922
g0
(g1
g2
(lp923
Vabout
p924
atp925
Rp926
(dp927
g11
VIN
p928
sbag0
(g1
g2
(lp929
g0
(g1
g2
(lp930
Vit
p931
atp932
Rp933
(dp934
g11
VPRP
p935
sbatp936
Rp937
(dp938
g11
VNP
p939
sbatp940
Rp941
(dp942
g11
VPP
p943
sbatp944
Rp945
(dp946
g11
VVP
p947
sbatp948
Rp949
(dp950
g11
VS
p951
sbatp952
Rp953
(dp954
g11
VSBAR
p955
sbatp956
Rp957
(dp958
g11
VVP
p959
sbag0
(g1
g2
(lp960
V.
p961
atp962
Rp963
(dp964
g11
V.
p965
sbatp966
Rp967
(dp968
g11
VS
p969
sbatp970
Rp971
(dp972
g11
S'id: 5'
p973
sbatp974
Rp975
(dp976
g11
S'sentences'
p977
sb.