ccopy_reg
_reconstructor
p0
(cnltk.tree
Tree
p1
c__builtin__
list
p2
(lp3
g0
(g1
g2
(lp4
g0
(g1
g2
(lp5
g0
(g1
g2
(lp6
Vand
p7
atp8
Rp9
(dp10
S'_label'
p11
VCC
p12
sbag0
(g1
g2
(lp13
g0
(g1
g2
(lp14
Vthis
p15
atp16
Rp17
(dp18
g11
VDT
p19
sbatp20
Rp21
(dp22
g11
VNP
p23
sbag0
(g1
g2
(lp24
g0
(g1
g2
(lp25
Vis
p26
atp27
Rp28
(dp29
g11
VVBZ
p30
sbag0
(g1
g2
(lp31
g0
(g1
g2
(lp32
Va
p33
atp34
Rp35
(dp36
g11
VDT
p37
sbag0
(g1
g2
(lp38
Vpark
p39
atp40
Rp41
(dp42
g11
VNN
p43
sbag0
(g1
g2
(lp44
Vscene
p45
atp46
Rp47
(dp48
g11
VNN
p49
sbatp50
Rp51
(dp52
g11
VNP
p53
sbatp54
Rp55
(dp56
g11
VVP
p57
sbag0
(g1
g2
(lp58
V.
p59
atp60
Rp61
(dp62
g11
V.
p63
sbatp64
Rp65
(dp66
g11
VS
p67
sbatp68
Rp69
(dp70
g11
S'id: 0'
p71
sbag0
(g1
g2
(lp72
g0
(g1
g2
(lp73
g0
(g1
g2
(lp74
Vand
p75
atp76
Rp77
(dp78
g11
VCC
p79
sbag0
(g1
g2
(lp80
g0
(g1
g2
(lp81
Vso
p82
atp83
Rp84
(dp85
g11
VIN
p86
sbag0
(g1
g2
(lp87
g0
(g1
g2
(lp88
g0
(g1
g2
(lp89
g0
(g1
g2
(lp90
g0
(g1
g2
(lp91
g0
(g1
g2
(lp92
Vthe
p93
atp94
Rp95
(dp96
g11
VDT
p97
sbag0
(g1
g2
(lp98
Vwoman
p99
atp100
Rp101
(dp102
g11
VNN
p103
sbag0
(g1
g2
(lp104
V's
p105
atp106
Rp107
(dp108
g11
VPOS
p109
sbatp110
Rp111
(dp112
g11
VNP
p113
sbag0
(g1
g2
(lp114
Vpouring
p115
atp116
Rp117
(dp118
g11
VVBG
p119
sbatp120
Rp121
(dp122
g11
VNP
p123
sbag0
(g1
g2
(lp124
V,
p125
atp126
Rp127
(dp128
g11
V,
p129
sbag0
(g1
g2
(lp130
g0
(g1
g2
(lp131
Vsoda
p132
atp133
Rp134
(dp135
g11
VNN
p136
sbatp137
Rp138
(dp139
g11
VNP
p140
sbatp141
Rp142
(dp143
g11
VNP
p144
sbag0
(g1
g2
(lp145
g0
(g1
g2
(lp146
Vi
p147
atp148
Rp149
(dp150
g11
VFW
p151
sbatp152
Rp153
(dp154
g11
VNP
p155
sbatp156
Rp157
(dp158
g11
VNP
p159
sbag0
(g1
g2
(lp160
g0
(g1
g2
(lp161
Vguess
p162
atp163
Rp164
(dp165
g11
VNN
p166
sbag0
(g1
g2
(lp167
g0
(g1
g2
(lp168
Vfrom
p169
atp170
Rp171
(dp172
g11
VIN
p173
sbag0
(g1
g2
(lp174
g0
(g1
g2
(lp175
g0
(g1
g2
(lp176
Vthe
p177
atp178
Rp179
(dp180
g11
VDT
p181
sbag0
(g1
g2
(lp182
Vsoda
p183
atp184
Rp185
(dp186
g11
VNN
p187
sbatp188
Rp189
(dp190
g11
VNP
p191
sbag0
(g1
g2
(lp192
V,
p193
atp194
Rp195
(dp196
g11
V,
p197
sbag0
(g1
g2
(lp198
g0
(g1
g2
(lp199
Vbottle
p200
atp201
Rp202
(dp203
g11
VNN
p204
sbatp205
Rp206
(dp207
g11
VNP
p208
sbatp209
Rp210
(dp211
g11
VNP
p212
sbatp213
Rp214
(dp215
g11
VPP
p216
sbatp217
Rp218
(dp219
g11
VVP
p220
sbatp221
Rp222
(dp223
g11
VS
p224
sbatp225
Rp226
(dp227
g11
VSBAR
p228
sbag0
(g1
g2
(lp229
V.
p230
atp231
Rp232
(dp233
g11
V.
p234
sbatp235
Rp236
(dp237
g11
VFRAG
p238
sbatp239
Rp240
(dp241
g11
S'id: 1'
p242
sbag0
(g1
g2
(lp243
g0
(g1
g2
(lp244
g0
(g1
g2
(lp245
Vand
p246
atp247
Rp248
(dp249
g11
VCC
p250
sbag0
(g1
g2
(lp251
g0
(g1
g2
(lp252
g0
(g1
g2
(lp253
Vthe
p254
atp255
Rp256
(dp257
g11
VDT
p258
sbag0
(g1
g2
(lp259
Vgentleman
p260
atp261
Rp262
(dp263
g11
VNN
p264
sbag0
(g1
g2
(lp265
V's
p266
atp267
Rp268
(dp269
g11
VPOS
p270
sbatp271
Rp272
(dp273
g11
VNP
p274
sbag0
(g1
g2
(lp275
g0
(g1
g2
(lp276
Vreading
p277
atp278
Rp279
(dp280
g11
VVBG
p281
sbag0
(g1
g2
(lp282
g0
(g1
g2
(lp283
Va
p284
atp285
Rp286
(dp287
g11
VDT
p288
sbag0
(g1
g2
(lp289
Vbook
p290
atp291
Rp292
(dp293
g11
VNN
p294
sbatp295
Rp296
(dp297
g11
VNP
p298
sbatp299
Rp300
(dp301
g11
VVP
p302
sbatp303
Rp304
(dp305
g11
VS
p306
sbag0
(g1
g2
(lp307
V,
p308
atp309
Rp310
(dp311
g11
V,
p312
sbag0
(g1
g2
(lp313
g0
(g1
g2
(lp314
g0
(g1
g2
(lp315
Vin
p316
atp317
Rp318
(dp319
g11
VIN
p320
sbag0
(g1
g2
(lp321
g0
(g1
g2
(lp322
Vbare
p323
atp324
Rp325
(dp326
g11
VJJ
p327
sbag0
(g1
g2
(lp328
Vfeet
p329
atp330
Rp331
(dp332
g11
VNNS
p333
sbatp334
Rp335
(dp336
g11
VNP
p337
sbatp338
Rp339
(dp340
g11
VPP
p341
sbatp342
Rp343
(dp344
g11
VS
p345
sbag0
(g1
g2
(lp346
V.
p347
atp348
Rp349
(dp350
g11
V.
p351
sbatp352
Rp353
(dp354
g11
VS
p355
sbatp356
Rp357
(dp358
g11
S'id: 2'
p359
sbag0
(g1
g2
(lp360
g0
(g1
g2
(lp361
g0
(g1
g2
(lp362
Vand
p363
atp364
Rp365
(dp366
g11
VCC
p367
sbag0
(g1
g2
(lp368
g0
(g1
g2
(lp369
Vthere
p370
atp371
Rp372
(dp373
g11
VEX
p374
sbatp375
Rp376
(dp377
g11
VNP
p378
sbag0
(g1
g2
(lp379
g0
(g1
g2
(lp380
V's
p381
atp382
Rp383
(dp384
g11
VVBZ
p385
sbag0
(g1
g2
(lp386
g0
(g1
g2
(lp387
g0
(g1
g2
(lp388
Va
p389
atp390
Rp391
(dp392
g11
VDT
p393
sbatp394
Rp395
(dp396
g11
VNP
p397
sbag0
(g1
g2
(lp398
V,
p399
atp400
Rp401
(dp402
g11
V,
p403
sbag0
(g1
g2
(lp404
g0
(g1
g2
(lp405
Vradio
p406
atp407
Rp408
(dp409
g11
VNN
p410
sbatp411
Rp412
(dp413
g11
VNP
p414
sbag0
(g1
g2
(lp415
Vor
p416
atp417
Rp418
(dp419
g11
VCC
p420
sbag0
(g1
g2
(lp421
g0
(g1
g2
(lp422
Vsomething
p423
atp424
Rp425
(dp426
g11
VNN
p427
sbatp428
Rp429
(dp430
g11
VNP
p431
sbatp432
Rp433
(dp434
g11
VNP
p435
sbag0
(g1
g2
(lp436
g0
(g1
g2
(lp437
Vthere
p438
atp439
Rp440
(dp441
g11
VRB
p442
sbatp443
Rp444
(dp445
g11
VADVP
p446
sbatp447
Rp448
(dp449
g11
VVP
p450
sbag0
(g1
g2
(lp451
V.
p452
atp453
Rp454
(dp455
g11
V.
p456
sbatp457
Rp458
(dp459
g11
VS
p460
sbatp461
Rp462
(dp463
g11
S'id: 3'
p464
sbag0
(g1
g2
(lp465
g0
(g1
g2
(lp466
g0
(g1
g2
(lp467
Vand
p468
atp469
Rp470
(dp471
g11
VCC
p472
sbag0
(g1
g2
(lp473
g0
(g1
g2
(lp474
g0
(g1
g2
(lp475
g0
(g1
g2
(lp476
g0
(g1
g2
(lp477
Vthe
p478
atp479
Rp480
(dp481
g11
VDT
p482
sbag0
(g1
g2
(lp483
Vlittle
p484
atp485
Rp486
(dp487
g11
VJJ
p488
sbag0
(g1
g2
(lp489
Vboy
p490
atp491
Rp492
(dp493
g11
VNN
p494
sbatp495
Rp496
(dp497
g11
VNP
p498
sbag0
(g1
g2
(lp499
V's
p500
atp501
Rp502
(dp503
g11
VPOS
p504
sbag0
(g1
g2
(lp505
Vflying
p506
atp507
Rp508
(dp509
g11
VVBG
p510
sbatp511
Rp512
(dp513
g11
VNP
p514
sbag0
(g1
g2
(lp515
g0
(g1
g2
(lp516
g0
(g1
g2
(lp517
Va
p518
atp519
Rp520
(dp521
g11
VDT
p522
sbag0
(g1
g2
(lp523
Vkite
p524
atp525
Rp526
(dp527
g11
VNN
p528
sbatp529
Rp530
(dp531
g11
VNP
p532
sbag0
(g1
g2
(lp533
V,
p534
atp535
Rp536
(dp537
g11
V,
p538
sbag0
(g1
g2
(lp539
g0
(g1
g2
(lp540
g0
(g1
g2
(lp541
g0
(g1
g2
(lp542
Vthe
p543
atp544
Rp545
(dp546
g11
VDT
p547
sbag0
(g1
g2
(lp548
Vdog
p549
atp550
Rp551
(dp552
g11
VNN
p553
sbag0
(g1
g2
(lp554
V's
p555
atp556
Rp557
(dp558
g11
VPOS
p559
sbatp560
Rp561
(dp562
g11
VNP
p563
sbag0
(g1
g2
(lp564
Vchasing
p565
atp566
Rp567
(dp568
g11
VNN
p569
sbatp570
Rp571
(dp572
g11
VNP
p573
sbag0
(g1
g2
(lp574
g0
(g1
g2
(lp575
Vafter
p576
atp577
Rp578
(dp579
g11
VIN
p580
sbag0
(g1
g2
(lp581
g0
(g1
g2
(lp582
Vhim
p583
atp584
Rp585
(dp586
g11
VPRP
p587
sbatp588
Rp589
(dp590
g11
VNP
p591
sbatp592
Rp593
(dp594
g11
VPP
p595
sbatp596
Rp597
(dp598
g11
VNP
p599
sbag0
(g1
g2
(lp600
V,
p601
atp602
Rp603
(dp604
g11
V,
p605
sbag0
(g1
g2
(lp606
Vand
p607
atp608
Rp609
(dp610
g11
VCC
p611
sbag0
(g1
g2
(lp612
g0
(g1
g2
(lp613
g0
(g1
g2
(lp614
Vthe
p615
atp616
Rp617
(dp618
g11
VDT
p619
sbag0
(g1
g2
(lp620
Vgentleman
p621
atp622
Rp623
(dp624
g11
VNN
p625
sbatp626
Rp627
(dp628
g11
VNP
p629
sbag0
(g1
g2
(lp630
g0
(g1
g2
(lp631
Vin
p632
atp633
Rp634
(dp635
g11
VIN
p636
sbag0
(g1
g2
(lp637
g0
(g1
g2
(lp638
g0
(g1
g2
(lp639
Vthe
p640
atp641
Rp642
(dp643
g11
VDT
p644
sbag0
(g1
g2
(lp645
Vback
p646
atp647
Rp648
(dp649
g11
VNN
p650
sbatp651
Rp652
(dp653
g11
VNP
p654
sbag0
(g1
g2
(lp655
g0
(g1
g2
(lp656
g0
(g1
g2
(lp657
Vwho
p658
atp659
Rp660
(dp661
g11
VWP
p662
sbatp663
Rp664
(dp665
g11
VWHNP
p666
sbag0
(g1
g2
(lp667
g0
(g1
g2
(lp668
g0
(g1
g2
(lp669
Vjust
p670
atp671
Rp672
(dp673
g11
VRB
p674
sbatp675
Rp676
(dp677
g11
VADVP
p678
sbag0
(g1
g2
(lp679
g0
(g1
g2
(lp680
Vcaught
p681
atp682
Rp683
(dp684
g11
VVBD
p685
sbag0
(g1
g2
(lp686
g0
(g1
g2
(lp687
g0
(g1
g2
(lp688
Va
p689
atp690
Rp691
(dp692
g11
VDT
p693
sbag0
(g1
g2
(lp694
Vfish
p695
atp696
Rp697
(dp698
g11
VNN
p699
sbatp700
Rp701
(dp702
g11
VNP
p703
sbag0
(g1
g2
(lp704
V,
p705
atp706
Rp707
(dp708
g11
V,
p709
sbag0
(g1
g2
(lp710
Vand
p711
atp712
Rp713
(dp714
g11
VCC
p715
sbag0
(g1
g2
(lp716
g0
(g1
g2
(lp717
g0
(g1
g2
(lp718
Vsome
p719
atp720
Rp721
(dp722
g11
VDT
p723
sbag0
(g1
g2
(lp724
Vpeople
p725
atp726
Rp727
(dp728
g11
VNNS
p729
sbag0
(g1
g2
(lp730
Vsailing
p731
atp732
Rp733
(dp734
g11
VNN
p735
sbatp736
Rp737
(dp738
g11
VNP
p739
sbag0
(g1
g2
(lp740
g0
(g1
g2
(lp741
Von
p742
atp743
Rp744
(dp745
g11
VIN
p746
sbag0
(g1
g2
(lp747
g0
(g1
g2
(lp748
Vthe
p749
atp750
Rp751
(dp752
g11
VDT
p753
sbag0
(g1
g2
(lp754
Vsail
p755
atp756
Rp757
(dp758
g11
VNN
p759
sbag0
(g1
g2
(lp760
Vboat
p761
atp762
Rp763
(dp764
g11
VNN
p765
sbatp766
Rp767
(dp768
g11
VNP
p769
sbatp770
Rp771
(dp772
g11
VPP
p773
sbatp774
Rp775
(dp776
g11
VNP
p777
sbag0
(g1
g2
(lp778
V,
p779
atp780
Rp781
(dp782
g11
V,
p783
sbatp784
Rp785
(dp786
g11
VNP
p787
sbatp788
Rp789
(dp790
g11
VVP
p791
sbatp792
Rp793
(dp794
g11
VS
p795
sbatp796
Rp797
(dp798
g11
VSBAR
p799
sbatp800
Rp801
(dp802
g11
VNP
p803
sbatp804
Rp805
(dp806
g11
VPP
p807
sbatp808
Rp809
(dp810
g11
VNP
p811
sbatp812
Rp813
(dp814
g11
VNP
p815
sbatp816
Rp817
(dp818
g11
VNP
p819
sbag0
(g1
g2
(lp820
Vand
p821
atp822
Rp823
(dp824
g11
VCC
p825
sbag0
(g1
g2
(lp826
g0
(g1
g2
(lp827
g0
(g1
g2
(lp828
Vthe
p829
atp830
Rp831
(dp832
g11
VDT
p833
sbag0
(g1
g2
(lp834
Vlittle
p835
atp836
Rp837
(dp838
g11
VJJ
p839
sbag0
(g1
g2
(lp840
Vgirl
p841
atp842
Rp843
(dp844
g11
VNN
p845
sbatp846
Rp847
(dp848
g11
VNP
p849
sbag0
(g1
g2
(lp850
g0
(g1
g2
(lp851
Vin
p852
atp853
Rp854
(dp855
g11
VIN
p856
sbag0
(g1
g2
(lp857
g0
(g1
g2
(lp858
Vthe
p859
atp860
Rp861
(dp862
g11
VDT
p863
sbag0
(g1
g2
(lp864
Vforeground
p865
atp866
Rp867
(dp868
g11
VNN
p869
sbatp870
Rp871
(dp872
g11
VNP
p873
sbatp874
Rp875
(dp876
g11
VPP
p877
sbatp878
Rp879
(dp880
g11
VNP
p881
sbatp882
Rp883
(dp884
g11
VNP
p885
sbag0
(g1
g2
(lp886
g0
(g1
g2
(lp887
Vhere
p888
atp889
Rp890
(dp891
g11
VRB
p892
sbatp893
Rp894
(dp895
g11
VADVP
p896
sbag0
(g1
g2
(lp897
g0
(g1
g2
(lp898
Vis
p899
atp900
Rp901
(dp902
g11
VVBZ
p903
sbag0
(g1
g2
(lp904
g0
(g1
g2
(lp905
Vbuilding
p906
atp907
Rp908
(dp909
g11
VVBG
p910
sbag0
(g1
g2
(lp911
g0
(g1
g2
(lp912
Va
p913
atp914
Rp915
(dp916
g11
VDT
p917
sbag0
(g1
g2
(lp918
Vsandcastle
p919
atp920
Rp921
(dp922
g11
VNN
p923
sbatp924
Rp925
(dp926
g11
VNP
p927
sbatp928
Rp929
(dp930
g11
VVP
p931
sbatp932
Rp933
(dp934
g11
VVP
p935
sbag0
(g1
g2
(lp936
V.
p937
atp938
Rp939
(dp940
g11
V.
p941
sbatp942
Rp943
(dp944
g11
VS
p945
sbatp946
Rp947
(dp948
g11
S'id: 4'
p949
sbag0
(g1
g2
(lp950
g0
(g1
g2
(lp951
g0
(g1
g2
(lp952
Vand
p953
atp954
Rp955
(dp956
g11
VCC
p957
sbag0
(g1
g2
(lp958
g0
(g1
g2
(lp959
Vin
p960
atp961
Rp962
(dp963
g11
VIN
p964
sbag0
(g1
g2
(lp965
g0
(g1
g2
(lp966
Vthe
p967
atp968
Rp969
(dp970
g11
VDT
p971
sbag0
(g1
g2
(lp972
Vback
p973
atp974
Rp975
(dp976
g11
VNN
p977
sbatp978
Rp979
(dp980
g11
VNP
p981
sbatp982
Rp983
(dp984
g11
VPP
p985
sbag0
(g1
g2
(lp986
g0
(g1
g2
(lp987
Vis
p988
atp989
Rp990
(dp991
g11
VVBZ
p992
sbatp993
Rp994
(dp995
g11
VVP
p996
sbag0
(g1
g2
(lp997
g0
(g1
g2
(lp998
g0
(g1
g2
(lp999
Va
p1000
atp1001
Rp1002
(dp1003
g11
VDT
p1004
sbag0
(g1
g2
(lp1005
Vhouse
p1006
atp1007
Rp1008
(dp1009
g11
VNN
p1010
sbatp1011
Rp1012
(dp1013
g11
VNP
p1014
sbag0
(g1
g2
(lp1015
g0
(g1
g2
(lp1016
Vwith
p1017
atp1018
Rp1019
(dp1020
g11
VIN
p1021
sbag0
(g1
g2
(lp1022
g0
(g1
g2
(lp1023
g0
(g1
g2
(lp1024
Va
p1025
atp1026
Rp1027
(dp1028
g11
VDT
p1029
sbag0
(g1
g2
(lp1030
Vcar
p1031
atp1032
Rp1033
(dp1034
g11
VNN
p1035
sbatp1036
Rp1037
(dp1038
g11
VNP
p1039
sbag0
(g1
g2
(lp1040
g0
(g1
g2
(lp1041
Vparked
p1042
atp1043
Rp1044
(dp1045
g11
VVBN
p1046
sbag0
(g1
g2
(lp1047
g0
(g1
g2
(lp1048
Vin
p1049
atp1050
Rp1051
(dp1052
g11
VIN
p1053
sbag0
(g1
g2
(lp1054
g0
(g1
g2
(lp1055
g0
(g1
g2
(lp1056
Vfront
p1057
atp1058
Rp1059
(dp1060
g11
VNN
p1061
sbatp1062
Rp1063
(dp1064
g11
VNP
p1065
sbag0
(g1
g2
(lp1066
g0
(g1
g2
(lp1067
Vof
p1068
atp1069
Rp1070
(dp1071
g11
VIN
p1072
sbag0
(g1
g2
(lp1073
g0
(g1
g2
(lp1074
Vthe
p1075
atp1076
Rp1077
(dp1078
g11
VDT
p1079
sbag0
(g1
g2
(lp1080
Vgarage
p1081
atp1082
Rp1083
(dp1084
g11
VNN
p1085
sbatp1086
Rp1087
(dp1088
g11
VNP
p1089
sbatp1090
Rp1091
(dp1092
g11
VPP
p1093
sbatp1094
Rp1095
(dp1096
g11
VNP
p1097
sbatp1098
Rp1099
(dp1100
g11
VPP
p1101
sbatp1102
Rp1103
(dp1104
g11
VVP
p1105
sbatp1106
Rp1107
(dp1108
g11
VNP
p1109
sbatp1110
Rp1111
(dp1112
g11
VPP
p1113
sbatp1114
Rp1115
(dp1116
g11
VNP
p1117
sbag0
(g1
g2
(lp1118
V.
p1119
atp1120
Rp1121
(dp1122
g11
V.
p1123
sbatp1124
Rp1125
(dp1126
g11
VSINV
p1127
sbatp1128
Rp1129
(dp1130
g11
S'id: 5'
p1131
sbatp1132
Rp1133
(dp1134
g11
S'sentences'
p1135
sb.