ccopy_reg
_reconstructor
p0
(cnltk.tree
Tree
p1
c__builtin__
list
p2
(lp3
g0
(g1
g2
(lp4
g0
(g1
g2
(lp5
g0
(g1
g2
(lp6
Va sink running over , overflowing
p7
atp8
Rp9
(dp10
S'_label'
p11
S'start: 3'
p12
sbatp13
Rp14
(dp15
g11
S'sent: 1'
p16
sbag0
(g1
g2
(lp17
g0
(g1
g2
(lp18
Vthe sink
p19
atp20
Rp21
(dp22
g11
S'start: 11'
p23
sbatp24
Rp25
(dp26
g11
S'sent: 2'
p27
sbatp28
Rp29
(dp30
g11
S'id: 1'
p31
sbag0
(g1
g2
(lp32
g0
(g1
g2
(lp33
g0
(g1
g2
(lp34
Va plate
p35
atp36
Rp37
(dp38
g11
S'start: 6'
p39
sbatp40
Rp41
(dp42
g11
S'sent: 2'
p43
sbag0
(g1
g2
(lp44
g0
(g1
g2
(lp45
Vfront of the sink
p46
atp47
Rp48
(dp49
g11
S'start: 9'
p50
sbatp51
Rp52
(dp53
g11
S'sent: 2'
p54
sbatp55
Rp56
(dp57
g11
S'id: 4'
p58
sbag0
(g1
g2
(lp59
g0
(g1
g2
(lp60
g0
(g1
g2
(lp61
Va child on a stool bout
p62
atp63
Rp64
(dp65
g11
S'start: 3'
p66
sbatp67
Rp68
(dp69
g11
S'sent: 3'
p70
sbag0
(g1
g2
(lp71
g0
(g1
g2
(lp72
Vhe
p73
atp74
Rp75
(dp76
g11
S'start: 13'
p77
sbatp78
Rp79
(dp80
g11
S'sent: 3'
p81
sbag0
(g1
g2
(lp82
g0
(g1
g2
(lp83
Vhe
p84
atp85
Rp86
(dp87
g11
S'start: 1'
p88
sbatp89
Rp90
(dp91
g11
S'sent: 4'
p92
sbag0
(g1
g2
(lp93
g0
(g1
g2
(lp94
Vhim
p95
atp96
Rp97
(dp98
g11
S'start: 9'
p99
sbatp100
Rp101
(dp102
g11
S'sent: 4'
p103
sbag0
(g1
g2
(lp104
g0
(g1
g2
(lp105
Vhe
p106
atp107
Rp108
(dp109
g11
S'start: 11'
p110
sbatp111
Rp112
(dp113
g11
S'sent: 4'
p114
sbag0
(g1
g2
(lp115
g0
(g1
g2
(lp116
Vhim
p117
atp118
Rp119
(dp120
g11
S'start: 14'
p121
sbatp122
Rp123
(dp124
g11
S'sent: 5'
p125
sbatp126
Rp127
(dp128
g11
S'id: 9'
p129
sbag0
(g1
g2
(lp130
g0
(g1
g2
(lp131
g0
(g1
g2
(lp132
Vthe cookie jar
p133
atp134
Rp135
(dp136
g11
S'start: 16'
p137
sbatp138
Rp139
(dp140
g11
S'sent: 3'
p141
sbag0
(g1
g2
(lp142
g0
(g1
g2
(lp143
Vthe cookie jar
p144
atp145
Rp146
(dp147
g11
S'start: 4'
p148
sbatp149
Rp150
(dp151
g11
S'sent: 4'
p152
sbag0
(g1
g2
(lp153
g0
(g1
g2
(lp154
Vit
p155
atp156
Rp157
(dp158
g11
S'start: 3'
p159
sbatp160
Rp161
(dp162
g11
S'sent: 5'
p163
sbag0
(g1
g2
(lp164
g0
(g1
g2
(lp165
Vit
p166
atp167
Rp168
(dp169
g11
S'start: 7'
p170
sbatp171
Rp172
(dp173
g11
S'sent: 6'
p174
sbatp175
Rp176
(dp177
g11
S'id: 12'
p178
sbag0
(g1
g2
(lp179
g0
(g1
g2
(lp180
g0
(g1
g2
(lp181
VI
p182
atp183
Rp184
(dp185
g11
S'start: 2'
p186
sbatp187
Rp188
(dp189
g11
S'sent: 6'
p190
sbag0
(g1
g2
(lp191
g0
(g1
g2
(lp192
Vthat
p193
atp194
Rp195
(dp196
g11
S'start: 4'
p197
sbatp198
Rp199
(dp200
g11
S'sent: 6'
p201
sbatp202
Rp203
(dp204
g11
S'id: 22'
p205
sbatp206
Rp207
(dp208
g11
S'coreferences'
p209
sb.