ccopy_reg
_reconstructor
p0
(cnltk.tree
Tree
p1
c__builtin__
list
p2
(lp3
g0
(g1
g2
(lp4
g0
(g1
g2
(lp5
g0
(g1
g2
(lp6
(lp7
S'word: okay, index: 1'
p8
aatp9
Rp10
(dp11
S'_label'
p12
Vdep
p13
sbag0
(g1
g2
(lp14
g0
(g1
g2
(lp15
g0
(g1
g2
(lp16
(lp17
S'word: some, index: 19'
p18
aatp19
Rp20
(dp21
g12
Vdet
p22
sbag0
(g1
g2
(lp23
g0
(g1
g2
(lp24
g0
(g1
g2
(lp25
(lp26
S'word: some, index: 22'
p27
aatp28
Rp29
(dp30
g12
Vdet
p31
sbag0
(g1
g2
(lp32
(lp33
S'word: little, index: 23'
p34
aatp35
Rp36
(dp37
g12
Vamod
p38
sbatp39
Rp40
(dp41
g12
S'word: kids, index: 24'
p42
sbatp43
Rp44
(dp45
g12
Vprep
p46
sbatp47
Rp48
(dp49
g12
S'word: popcorn, index: 20'
p50
sbatp51
Rp52
(dp53
g12
Vnsubj
p54
sbag0
(g1
g2
(lp55
g0
(g1
g2
(lp56
g0
(g1
g2
(lp57
(lp58
S'word: so, index: 3'
p59
aatp60
Rp61
(dp62
g12
Vadvmod
p63
sbag0
(g1
g2
(lp64
(lp65
S'word: we, index: 5'
p66
aatp67
Rp68
(dp69
g12
Vnsubj
p70
sbag0
(g1
g2
(lp71
g0
(g1
g2
(lp72
g0
(g1
g2
(lp73
(lp74
S'word: a, index: 8'
p75
aatp76
Rp77
(dp78
g12
Vdet
p79
sbatp80
Rp81
(dp82
g12
S'word: circus, index: 9'
p83
sbatp84
Rp85
(dp86
g12
Vprep
p87
sbag0
(g1
g2
(lp88
g0
(g1
g2
(lp89
g0
(g1
g2
(lp90
(lp91
S'word: i, index: 12'
p92
aatp93
Rp94
(dp95
g12
Vnsubj
p96
sbag0
(g1
g2
(lp97
g0
(g1
g2
(lp98
g0
(g1
g2
(lp99
(lp100
S'word: who, index: 16'
p101
aatp102
Rp103
(dp104
g12
Vrcmod
p105
sbag0
(g1
g2
(lp106
(lp107
S'word: a, index: 14'
p108
aatp109
Rp110
(dp111
g12
Vdet
p112
sbatp113
Rp114
(dp115
g12
S'word: clown, index: 15'
p116
sbatp117
Rp118
(dp119
g12
Vdobj
p120
sbatp121
Rp122
(dp123
g12
S'word: see, index: 13'
p124
sbatp125
Rp126
(dp127
g12
Vconj
p128
sbatp129
Rp130
(dp131
g12
S"word: 're, index: 6"
p132
sbatp133
Rp134
(dp135
g12
Vparataxis
p136
sbag0
(g1
g2
(lp137
g122
atp138
Rp139
(dp140
g12
Vparataxis
p141
sbatp142
Rp143
(dp144
g12
S'word: threw, index: 18'
p145
sbatp146
Rp147
(dp148
g12
S'id: 0'
p149
sbag0
(g1
g2
(lp150
g0
(g1
g2
(lp151
g0
(g1
g2
(lp152
g0
(g1
g2
(lp153
g0
(g1
g2
(lp154
(lp155
S'word: lion, index: 3'
p156
aatp157
Rp158
(dp159
g12
Vdep
p160
sbag0
(g1
g2
(lp161
g0
(g1
g2
(lp162
g0
(g1
g2
(lp163
(lp164
S'word: the, index: 6'
p165
aatp166
Rp167
(dp168
g12
Vdet
p169
sbatp170
Rp171
(dp172
g12
S'word: cage, index: 7'
p173
sbatp174
Rp175
(dp176
g12
Vprep
p177
sbag0
(g1
g2
(lp178
(lp179
S'word: a, index: 2'
p180
aatp181
Rp182
(dp183
g12
Vdet
p184
sbatp185
Rp186
(dp187
g12
S'word: tamer, index: 4'
p188
sbatp189
Rp190
(dp191
g12
Vnsubj
p192
sbag0
(g1
g2
(lp193
g0
(g1
g2
(lp194
g0
(g1
g2
(lp195
(lp196
S'word: the, index: 10'
p197
aatp198
Rp199
(dp200
g12
Vdet
p201
sbag0
(g1
g2
(lp202
g0
(g1
g2
(lp203
g0
(g1
g2
(lp204
(lp205
S'word: up, index: 13'
p206
aatp207
Rp208
(dp209
g12
Vprt
p210
sbag0
(g1
g2
(lp211
g0
(g1
g2
(lp212
g0
(g1
g2
(lp213
(lp214
S'word: the, index: 15'
p215
aatp216
Rp217
(dp218
g12
Vdet
p219
sbatp220
Rp221
(dp222
g12
S'word: stool, index: 16'
p223
sbatp224
Rp225
(dp226
g12
Vprep
p227
sbatp228
Rp229
(dp230
g12
S'word: standing, index: 12'
p231
sbatp232
Rp233
(dp234
g12
Vvmod
p235
sbatp236
Rp237
(dp238
g12
S'word: lion, index: 11'
p239
sbatp240
Rp241
(dp242
g12
Vdobj
p243
sbag0
(g1
g2
(lp244
(lp245
S'word: and, index: 1'
p246
aatp247
Rp248
(dp249
g12
Vcc
p250
sbatp251
Rp252
(dp253
g12
S'word: has, index: 9'
p254
sbatp255
Rp256
(dp257
g12
S'id: 1'
p258
sbag0
(g1
g2
(lp259
g0
(g1
g2
(lp260
g0
(g1
g2
(lp261
g0
(g1
g2
(lp262
g0
(g1
g2
(lp263
(lp264
S'word: a, index: 13'
p265
aatp266
Rp267
(dp268
g12
Vdet
p269
sbatp270
Rp271
(dp272
g12
S'word: woman, index: 14'
p273
sbatp274
Rp275
(dp276
g12
Vnsubj
p277
sbag0
(g1
g2
(lp278
g0
(g1
g2
(lp279
g0
(g1
g2
(lp280
(lp281
S'word: a, index: 17'
p282
aatp283
Rp284
(dp285
g12
Vdep
p286
sbatp287
Rp288
(dp289
g12
S'word: on, index: 16'
p290
sbatp291
Rp292
(dp293
g12
Vadvmod
p294
sbag0
(g1
g2
(lp295
(lp296
S'word: and, index: 1'
p297
aatp298
Rp299
(dp300
g12
Vcc
p301
sbag0
(g1
g2
(lp302
(lp303
S'word: there, index: 2'
p304
aatp305
Rp306
(dp307
g12
Vexpl
p308
sbag0
(g1
g2
(lp309
g0
(g1
g2
(lp310
g0
(g1
g2
(lp311
g0
(g1
g2
(lp312
g0
(g1
g2
(lp313
(lp314
S'word: a, index: 21'
p315
aatp316
Rp317
(dp318
g12
Vdet
p319
sbatp320
Rp321
(dp322
g12
S'word: horse, index: 22'
p323
sbatp324
Rp325
(dp326
g12
Vprep
p327
sbatp328
Rp329
(dp330
g12
S'word: top, index: 19'
p331
sbatp332
Rp333
(dp334
g12
Vnsubj
p335
sbag0
(g1
g2
(lp336
g0
(g1
g2
(lp337
g0
(g1
g2
(lp338
g0
(g1
g2
(lp339
g0
(g1
g2
(lp340
(lp341
S'word: tightrope, index: 7'
p342
aatp343
Rp344
(dp345
g12
Vnn
p346
sbatp347
Rp348
(dp349
g12
S'word: walker, index: 8'
p350
sbatp351
Rp352
(dp353
g12
Vappos
p354
sbag0
(g1
g2
(lp355
g0
(g1
g2
(lp356
g0
(g1
g2
(lp357
(lp358
S'word: across, index: 11'
p359
aatp360
Rp361
(dp362
g12
Vadvmod
p363
sbatp364
Rp365
(dp366
g12
S'word: going, index: 10'
p367
sbatp368
Rp369
(dp370
g12
Vvmod
p371
sbag0
(g1
g2
(lp372
g271
atp373
Rp374
(dp375
g12
Vconj
p376
sbag0
(g1
g2
(lp377
(lp378
S'word: a, index: 4'
p379
aatp380
Rp381
(dp382
g12
Vdet
p383
sbatp384
Rp385
(dp386
g12
S'word: tightraw, index: 5'
p387
sbatp388
Rp389
(dp390
g12
Vnsubj
p391
sbatp392
Rp393
(dp394
g12
S"word: 's, index: 3"
p395
sbatp396
Rp397
(dp398
g12
S'id: 2'
p399
sbag0
(g1
g2
(lp400
g0
(g1
g2
(lp401
g0
(g1
g2
(lp402
(lp403
S'word: i, index: 1'
p404
aatp405
Rp406
(dp407
g12
Vnsubj
p408
sbag0
(g1
g2
(lp409
(lp410
S"word: 'm, index: 2"
p411
aatp412
Rp413
(dp414
g12
Vaux
p415
sbag0
(g1
g2
(lp416
g0
(g1
g2
(lp417
g0
(g1
g2
(lp418
g0
(g1
g2
(lp419
g0
(g1
g2
(lp420
(lp421
S'word: i, index: 9'
p422
aatp423
Rp424
(dp425
g12
Vnsubj
p426
sbag0
(g1
g2
(lp427
g0
(g1
g2
(lp428
g0
(g1
g2
(lp429
(lp430
S'word: else, index: 8'
p431
aatp432
Rp433
(dp434
g12
Vadvmod
p435
sbatp436
Rp437
(dp438
g12
S'word: what, index: 7'
p439
sbatp440
Rp441
(dp442
g12
Vprep
p443
sbatp444
Rp445
(dp446
g12
S'word: see, index: 10'
p447
sbatp448
Rp449
(dp450
g12
Vccomp
p451
sbag0
(g1
g2
(lp452
(lp453
S'word: to, index: 4'
p454
aatp455
Rp456
(dp457
g12
Vaux
p458
sbatp459
Rp460
(dp461
g12
S'word: think, index: 5'
p462
sbatp463
Rp464
(dp465
g12
Vxcomp
p466
sbatp467
Rp468
(dp469
g12
S'word: trying, index: 3'
p470
sbatp471
Rp472
(dp473
g12
S'id: 3'
p474
sbag0
(g1
g2
(lp475
g0
(g1
g2
(lp476
g0
(g1
g2
(lp477
g0
(g1
g2
(lp478
g0
(g1
g2
(lp479
(lp480
S'word: little, index: 1'
p481
aatp482
Rp483
(dp484
g12
Vamod
p485
sbatp486
Rp487
(dp488
g12
S'word: girl, index: 2'
p489
sbatp490
Rp491
(dp492
g12
Vnsubj
p493
sbag0
(g1
g2
(lp494
(lp495
S'word: is, index: 3'
p496
aatp497
Rp498
(dp499
g12
Vaux
p500
sbag0
(g1
g2
(lp501
g0
(g1
g2
(lp502
g0
(g1
g2
(lp503
(lp504
S'word: the, index: 6'
p505
aatp506
Rp507
(dp508
g12
Vdet
p509
sbatp510
Rp511
(dp512
g12
S'word: clown, index: 7'
p513
sbatp514
Rp515
(dp516
g12
Vprep
p517
sbatp518
Rp519
(dp520
g12
S'word: pointing, index: 4'
p521
sbatp522
Rp523
(dp524
g12
S'id: 4'
p525
sbatp526
Rp527
(dp528
g12
S'sentences'
p529
sb.