ccopy_reg
_reconstructor
p0
(cnltk.tree
Tree
p1
c__builtin__
list
p2
(lp3
g0
(g1
g2
(lp4
g0
(g1
g2
(lp5
g0
(g1
g2
(lp6
Va girl sitting beside the lake building a sandcastle
p7
atp8
Rp9
(dp10
S'_label'
p11
S'start: 3'
p12
sbatp13
Rp14
(dp15
g11
S'sent: 2'
p16
sbag0
(g1
g2
(lp17
g0
(g1
g2
(lp18
Vshe
p19
atp20
Rp21
(dp22
g11
S'start: 13'
p23
sbatp24
Rp25
(dp26
g11
S'sent: 2'
p27
sbatp28
Rp29
(dp30
g11
S'id: 7'
p31
sbag0
(g1
g2
(lp32
g0
(g1
g2
(lp33
g0
(g1
g2
(lp34
Va boy dressed in shorts flying a kite
p35
atp36
Rp37
(dp38
g11
S'start: 3'
p39
sbatp40
Rp41
(dp42
g11
S'sent: 3'
p43
sbag0
(g1
g2
(lp44
g0
(g1
g2
(lp45
Vhe
p46
atp47
Rp48
(dp49
g11
S'start: 12'
p50
sbatp51
Rp52
(dp53
g11
S'sent: 3'
p54
sbag0
(g1
g2
(lp55
g0
(g1
g2
(lp56
Vhis
p57
atp58
Rp59
(dp60
g11
S'start: 15'
p61
sbatp62
Rp63
(dp64
g11
S'sent: 3'
p65
sbag0
(g1
g2
(lp66
g0
(g1
g2
(lp67
Vhis
p68
atp69
Rp70
(dp71
g11
S'start: 21'
p72
sbatp73
Rp74
(dp75
g11
S'sent: 3'
p76
sbag0
(g1
g2
(lp77
g0
(g1
g2
(lp78
Vhis
p79
atp80
Rp81
(dp82
g11
S'start: 25'
p83
sbatp84
Rp85
(dp86
g11
S'sent: 3'
p87
sbag0
(g1
g2
(lp88
g0
(g1
g2
(lp89
Vhim
p90
atp91
Rp92
(dp93
g11
S'start: 42'
p94
sbatp95
Rp96
(dp97
g11
S'sent: 3'
p98
sbatp99
Rp100
(dp101
g11
S'id: 14'
p102
sbag0
(g1
g2
(lp103
g0
(g1
g2
(lp104
g0
(g1
g2
(lp105
Vthe ball of string in his hand
p106
atp107
Rp108
(dp109
g11
S'start: 16'
p110
sbatp111
Rp112
(dp113
g11
S'sent: 3'
p114
sbag0
(g1
g2
(lp115
g0
(g1
g2
(lp116
Vit
p117
atp118
Rp119
(dp120
g11
S'start: 33'
p121
sbatp122
Rp123
(dp124
g11
S'sent: 3'
p125
sbatp126
Rp127
(dp128
g11
S'id: 19'
p129
sbag0
(g1
g2
(lp130
g0
(g1
g2
(lp131
g0
(g1
g2
(lp132
Va man on a pier fishin '
p133
atp134
Rp135
(dp136
g11
S'start: 3'
p137
sbatp138
Rp139
(dp140
g11
S'sent: 4'
p141
sbag0
(g1
g2
(lp142
g0
(g1
g2
(lp143
VHe
p144
atp145
Rp146
(dp147
g11
S'start: 1'
p148
sbatp149
Rp150
(dp151
g11
S'sent: 5'
p152
sbag0
(g1
g2
(lp153
g0
(g1
g2
(lp154
Vhis
p155
atp156
Rp157
(dp158
g11
S'start: 8'
p159
sbatp160
Rp161
(dp162
g11
S'sent: 5'
p163
sbatp164
Rp165
(dp166
g11
S'id: 29'
p167
sbag0
(g1
g2
(lp168
g0
(g1
g2
(lp169
g0
(g1
g2
(lp170
Va fish on his line
p171
atp172
Rp173
(dp174
g11
S'start: 5'
p175
sbatp176
Rp177
(dp178
g11
S'sent: 5'
p179
sbag0
(g1
g2
(lp180
g0
(g1
g2
(lp181
Vit
p182
atp183
Rp184
(dp185
g11
S'start: 12'
p186
sbatp187
Rp188
(dp189
g11
S'sent: 5'
p190
sbatp191
Rp192
(dp193
g11
S'id: 32'
p194
sbag0
(g1
g2
(lp195
g0
(g1
g2
(lp196
g0
(g1
g2
(lp197
Va big tree
p198
atp199
Rp200
(dp201
g11
S'start: 12'
p202
sbatp203
Rp204
(dp205
g11
S'sent: 6'
p206
sbag0
(g1
g2
(lp207
g0
(g1
g2
(lp208
Vit
p209
atp210
Rp211
(dp212
g11
S'start: 16'
p213
sbatp214
Rp215
(dp216
g11
S'sent: 6'
p217
sbag0
(g1
g2
(lp218
g0
(g1
g2
(lp219
Va flagpole with a flag on it
p220
atp221
Rp222
(dp223
g11
S'start: 24'
p224
sbatp225
Rp226
(dp227
g11
S'sent: 6'
p228
sbag0
(g1
g2
(lp229
g0
(g1
g2
(lp230
Vit
p231
atp232
Rp233
(dp234
g11
S'start: 30'
p235
sbatp236
Rp237
(dp238
g11
S'sent: 6'
p239
sbatp240
Rp241
(dp242
g11
S'id: 38'
p243
sbag0
(g1
g2
(lp244
g0
(g1
g2
(lp245
g0
(g1
g2
(lp246
Va man and a woman sittin ' on a blanket havin ' a picnic
p247
atp248
Rp249
(dp250
g11
S'start: 10'
p251
sbatp252
Rp253
(dp254
g11
S'sent: 7'
p255
sbag0
(g1
g2
(lp256
g0
(g1
g2
(lp257
Vthey
p258
atp259
Rp260
(dp261
g11
S'start: 1'
p262
sbatp263
Rp264
(dp265
g11
S'sent: 8'
p266
sbag0
(g1
g2
(lp267
g0
(g1
g2
(lp268
Vthey
p269
atp270
Rp271
(dp272
g11
S'start: 10'
p273
sbatp274
Rp275
(dp276
g11
S'sent: 9'
p277
sbag0
(g1
g2
(lp278
g0
(g1
g2
(lp279
Vthe they
p280
atp281
Rp282
(dp283
g11
S'start: 14'
p284
sbatp285
Rp286
(dp287
g11
S'sent: 9'
p288
sbatp289
Rp290
(dp291
g11
S'id: 46'
p292
sbag0
(g1
g2
(lp293
g0
(g1
g2
(lp294
g0
(g1
g2
(lp295
Va woman sittin ' on a blanket havin
p296
atp297
Rp298
(dp299
g11
S'start: 13'
p300
sbatp301
Rp302
(dp303
g11
S'sent: 7'
p304
sbag0
(g1
g2
(lp305
g0
(g1
g2
(lp306
Vshe
p307
atp308
Rp309
(dp310
g11
S'start: 1'
p311
sbatp312
Rp313
(dp314
g11
S'sent: 9'
p315
sbag0
(g1
g2
(lp316
g0
(g1
g2
(lp317
Vher
p318
atp319
Rp320
(dp321
g11
S'start: 3'
p322
sbatp323
Rp324
(dp325
g11
S'sent: 12'
p326
sbag0
(g1
g2
(lp327
g0
(g1
g2
(lp328
Vshe
p329
atp330
Rp331
(dp332
g11
S'start: 11'
p333
sbatp334
Rp335
(dp336
g11
S'sent: 12'
p337
sbatp338
Rp339
(dp340
g11
S'id: 47'
p341
sbag0
(g1
g2
(lp342
g0
(g1
g2
(lp343
g0
(g1
g2
(lp344
Va blanket havin
p345
atp346
Rp347
(dp348
g11
S'start: 18'
p349
sbatp350
Rp351
(dp352
g11
S'sent: 7'
p353
sbag0
(g1
g2
(lp354
g0
(g1
g2
(lp355
Vhe
p356
atp357
Rp358
(dp359
g11
S'start: 3'
p360
sbatp361
Rp362
(dp363
g11
S'sent: 9'
p364
sbag0
(g1
g2
(lp365
g0
(g1
g2
(lp366
Vhis
p367
atp368
Rp369
(dp370
g11
S'start: 7'
p371
sbatp372
Rp373
(dp374
g11
S'sent: 9'
p375
sbag0
(g1
g2
(lp376
g0
(g1
g2
(lp377
Vhim
p378
atp379
Rp380
(dp381
g11
S'start: 19'
p382
sbatp383
Rp384
(dp385
g11
S'sent: 9'
p386
sbag0
(g1
g2
(lp387
g0
(g1
g2
(lp388
Vhe
p389
atp390
Rp391
(dp392
g11
S'start: 1'
p393
sbatp394
Rp395
(dp396
g11
S'sent: 10'
p397
sbag0
(g1
g2
(lp398
g0
(g1
g2
(lp399
Vhis
p400
atp401
Rp402
(dp403
g11
S'start: 4'
p404
sbatp405
Rp406
(dp407
g11
S'sent: 10'
p408
sbatp409
Rp410
(dp411
g11
S'id: 48'
p412
sbag0
(g1
g2
(lp413
g0
(g1
g2
(lp414
g0
(g1
g2
(lp415
Vher hair pulled back in a ponytail
p416
atp417
Rp418
(dp419
g11
S'start: 3'
p420
sbatp421
Rp422
(dp423
g11
S'sent: 12'
p424
sbag0
(g1
g2
(lp425
g0
(g1
g2
(lp426
Vthat
p427
atp428
Rp429
(dp430
g11
S'start: 2'
p431
sbatp432
Rp433
(dp434
g11
S'sent: 13'
p435
sbag0
(g1
g2
(lp436
g0
(g1
g2
(lp437
Vthat
p438
atp439
Rp440
(dp441
g11
S'start: 5'
p442
sbatp443
Rp444
(dp445
g11
S'sent: 13'
p446
sbag0
(g1
g2
(lp447
g0
(g1
g2
(lp448
Vit
p449
atp450
Rp451
(dp452
g11
S'start: 8'
p453
sbatp454
Rp455
(dp456
g11
S'sent: 13'
p457
sbatp458
Rp459
(dp460
g11
S'id: 67'
p461
sbatp462
Rp463
(dp464
g11
S'coreferences'
p465
sb.