ccopy_reg
_reconstructor
p0
(cnltk.tree
Tree
p1
c__builtin__
list
p2
(lp3
g0
(g1
g2
(lp4
g0
(g1
g2
(lp5
g0
(g1
g2
(lp6
g0
(g1
g2
(lp7
g0
(g1
g2
(lp8
(lp9
S'word: i, index: 2'
p10
aatp11
Rp12
(dp13
S'_label'
p14
Vnsubj
p15
sbag0
(g1
g2
(lp16
g0
(g1
g2
(lp17
g0
(g1
g2
(lp18
(lp19
S'word: a, index: 4'
p20
aatp21
Rp22
(dp23
g14
Vdet
p24
sbatp25
Rp26
(dp27
g14
S'word: lion, index: 5'
p28
sbatp29
Rp30
(dp31
g14
Vdobj
p32
sbatp33
Rp34
(dp35
g14
S'word: see, index: 3'
p36
sbatp37
Rp38
(dp39
g14
Vccomp
p40
sbatp41
Rp42
(dp43
g14
S'word: okay, index: 1'
p44
sbatp45
Rp46
(dp47
g14
S'id: 0'
p48
sbag0
(g1
g2
(lp49
g0
(g1
g2
(lp50
g0
(g1
g2
(lp51
g0
(g1
g2
(lp52
g0
(g1
g2
(lp53
(lp54
S'word: a, index: 3'
p55
aatp56
Rp57
(dp58
g14
Vdet
p59
sbatp60
Rp61
(dp62
g14
S'word: lion, index: 4'
p63
sbatp64
Rp65
(dp66
g14
Vdobj
p67
sbag0
(g1
g2
(lp68
(lp69
S'word: i, index: 1'
p70
aatp71
Rp72
(dp73
g14
Vdep
p74
sbatp75
Rp76
(dp77
g14
S'word: see, index: 2'
p78
sbatp79
Rp80
(dp81
g14
S'id: 1'
p82
sbag0
(g1
g2
(lp83
g0
(g1
g2
(lp84
g0
(g1
g2
(lp85
(lp86
S'word: i, index: 1'
p87
aatp88
Rp89
(dp90
g14
Vdep
p91
sbag0
(g1
g2
(lp92
g0
(g1
g2
(lp93
g0
(g1
g2
(lp94
(lp95
S'word: a, index: 3'
p96
aatp97
Rp98
(dp99
g14
Vdet
p100
sbag0
(g1
g2
(lp101
(lp102
S'word: tightrope, index: 4'
p103
aatp104
Rp105
(dp106
g14
Vnn
p107
sbatp108
Rp109
(dp110
g14
S'word: walker, index: 5'
p111
sbatp112
Rp113
(dp114
g14
Vdobj
p115
sbatp116
Rp117
(dp118
g14
S'word: see, index: 2'
p119
sbatp120
Rp121
(dp122
g14
S'id: 2'
p123
sbag0
(g1
g2
(lp124
g0
(g1
g2
(lp125
g0
(g1
g2
(lp126
(lp127
S'word: i, index: 1'
p128
aatp129
Rp130
(dp131
g14
Vdep
p132
sbag0
(g1
g2
(lp133
g0
(g1
g2
(lp134
g0
(g1
g2
(lp135
(lp136
S'word: a, index: 3'
p137
aatp138
Rp139
(dp140
g14
Vdet
p141
sbatp142
Rp143
(dp144
g14
S'word: horse, index: 4'
p145
sbatp146
Rp147
(dp148
g14
Vdobj
p149
sbatp150
Rp151
(dp152
g14
S'word: see, index: 2'
p153
sbatp154
Rp155
(dp156
g14
S'id: 3'
p157
sbag0
(g1
g2
(lp158
g0
(g1
g2
(lp159
g0
(g1
g2
(lp160
(lp161
S'word: a, index: 1'
p162
aatp163
Rp164
(dp165
g14
Vdet
p166
sbatp167
Rp168
(dp169
g14
S'word: clown, index: 2'
p170
sbatp171
Rp172
(dp173
g14
S'id: 4'
p174
sbag0
(g1
g2
(lp175
g0
(g1
g2
(lp176
g0
(g1
g2
(lp177
g0
(g1
g2
(lp178
g0
(g1
g2
(lp179
g0
(g1
g2
(lp180
g0
(g1
g2
(lp181
(lp182
S'word: their, index: 4'
p183
aatp184
Rp185
(dp186
g14
Vposs
p187
sbatp188
Rp189
(dp190
g14
S'word: parents, index: 5'
p191
sbatp192
Rp193
(dp194
g14
Vconj
p195
sbatp196
Rp197
(dp198
g14
S'word: children, index: 2'
p199
sbatp200
Rp201
(dp202
g14
Vdep
p203
sbag0
(g1
g2
(lp204
g189
atp205
Rp206
(dp207
g14
Vdep
p208
sbatp209
Rp210
(dp211
g14
S'word: some, index: 1'
p212
sbatp213
Rp214
(dp215
g14
S'id: 5'
p216
sbag0
(g1
g2
(lp217
g0
(g1
g2
(lp218
g0
(g1
g2
(lp219
(lp220
S'word: master, index: 2'
p221
aatp222
Rp223
(dp224
g14
Vdep
p225
sbatp226
Rp227
(dp228
g14
S'word: ring, index: 1'
p229
sbatp230
Rp231
(dp232
g14
S'id: 6'
p233
sbag0
(g1
g2
(lp234
g0
(g1
g2
(lp235
g0
(g1
g2
(lp236
g0
(g1
g2
(lp237
g0
(g1
g2
(lp238
g0
(g1
g2
(lp239
g0
(g1
g2
(lp240
(lp241
S'word: the, index: 5'
p242
aatp243
Rp244
(dp245
g14
Vdet
p246
sbatp247
Rp248
(dp249
g14
S'word: lady, index: 6'
p250
sbatp251
Rp252
(dp253
g14
Vnsubj
p254
sbag0
(g1
g2
(lp255
g0
(g1
g2
(lp256
g0
(g1
g2
(lp257
(lp258
S'word: the, index: 8'
p259
aatp260
Rp261
(dp262
g14
Vdet
p263
sbatp264
Rp265
(dp266
g14
S'word: horse, index: 9'
p267
sbatp268
Rp269
(dp270
g14
Vdobj
p271
sbatp272
Rp273
(dp274
g14
S'word: riding, index: 7'
p275
sbatp276
Rp277
(dp278
g14
Vconj
p279
sbag0
(g1
g2
(lp280
g0
(g1
g2
(lp281
g0
(g1
g2
(lp282
(lp283
S"word: 's, index: 2"
p284
aatp285
Rp286
(dp287
g14
Vnsubj
p288
sbatp289
Rp290
(dp291
g14
S'word: see, index: 3'
p292
sbatp293
Rp294
(dp295
g14
Vccomp
p296
sbatp297
Rp298
(dp299
g14
S'word: let, index: 1'
p300
sbatp301
Rp302
(dp303
g14
S'id: 7'
p304
sbag0
(g1
g2
(lp305
g0
(g1
g2
(lp306
g0
(g1
g2
(lp307
(lp308
S'word: it, index: 8'
p309
aatp310
Rp311
(dp312
g14
Vprep
p313
sbag0
(g1
g2
(lp314
(lp315
S'word: and, index: 1'
p316
aatp317
Rp318
(dp319
g14
Vcc
p320
sbag0
(g1
g2
(lp321
(lp322
S'word: a, index: 2'
p323
aatp324
Rp325
(dp326
g14
Vdet
p327
sbag0
(g1
g2
(lp328
g0
(g1
g2
(lp329
g0
(g1
g2
(lp330
(lp331
S'word: some, index: 5'
p332
aatp333
Rp334
(dp335
g14
Vdet
p336
sbatp337
Rp338
(dp339
g14
S'word: stars, index: 6'
p340
sbatp341
Rp342
(dp343
g14
Vprep
p344
sbatp345
Rp346
(dp347
g14
S'word: ring, index: 3'
p348
sbatp349
Rp350
(dp351
g14
S'id: 8'
p352
sbag0
(g1
g2
(lp353
g0
(g1
g2
(lp354
g0
(g1
g2
(lp355
(lp356
S"word: 'm, index: 13"
p357
aatp358
Rp359
(dp360
g14
Vcop
p361
sbag0
(g1
g2
(lp362
(lp363
S'word: not, index: 14'
p364
aatp365
Rp366
(dp367
g14
Vneg
p368
sbag0
(g1
g2
(lp369
g0
(g1
g2
(lp370
g0
(g1
g2
(lp371
(lp372
S'word: popcorn, index: 3'
p373
aatp374
Rp375
(dp376
g14
Vprep
p377
sbag0
(g1
g2
(lp378
g0
(g1
g2
(lp379
g0
(g1
g2
(lp380
(lp381
S'word: i, index: 12'
p382
aatp383
Rp384
(dp385
g14
Vdep
p386
sbag0
(g1
g2
(lp387
(lp388
S'word: a, index: 5'
p389
aatp390
Rp391
(dp392
g14
Vdet
p393
sbag0
(g1
g2
(lp394
g0
(g1
g2
(lp395
g0
(g1
g2
(lp396
(lp397
S'word: something, index: 10'
p398
aatp399
Rp400
(dp401
g14
Vconj
p402
sbatp403
Rp404
(dp405
g14
S'word: water, index: 8'
p406
sbatp407
Rp408
(dp409
g14
Vprep
p410
sbag0
(g1
g2
(lp411
(lp412
S'word: something, index: 10'
p413
aatp414
Rp415
(dp416
g14
Vprep
p417
sbatp418
Rp419
(dp420
g14
S'word: bucket, index: 6'
p421
sbatp422
Rp423
(dp424
g14
Vconj
p425
sbatp426
Rp427
(dp428
g14
S'word: looks, index: 1'
p429
sbatp430
Rp431
(dp432
g14
Vnsubj
p433
sbag0
(g1
g2
(lp434
g0
(g1
g2
(lp435
g0
(g1
g2
(lp436
(lp437
S'word: what, index: 16'
p438
aatp439
Rp440
(dp441
g14
Vdobj
p442
sbag0
(g1
g2
(lp443
(lp444
S'word: he, index: 17'
p445
aatp446
Rp447
(dp448
g14
Vnsubj
p449
sbag0
(g1
g2
(lp450
(lp451
S"word: 's, index: 18"
p452
aatp453
Rp454
(dp455
g14
Vaux
p456
sbag0
(g1
g2
(lp457
g0
(g1
g2
(lp458
g0
(g1
g2
(lp459
(lp460
S'word: the, index: 21'
p461
aatp462
Rp463
(dp464
g14
Vdet
p465
sbatp466
Rp467
(dp468
g14
S'word: child, index: 22'
p469
sbatp470
Rp471
(dp472
g14
Vprep
p473
sbatp474
Rp475
(dp476
g14
S'word: throwing, index: 19'
p477
sbatp478
Rp479
(dp480
g14
Vccomp
p481
sbag0
(g1
g2
(lp482
g419
atp483
Rp484
(dp485
g14
Vnsubj
p486
sbatp487
Rp488
(dp489
g14
S'word: sure, index: 15'
p490
sbatp491
Rp492
(dp493
g14
S'id: 9'
p494
sbag0
(g1
g2
(lp495
g0
(g1
g2
(lp496
g0
(g1
g2
(lp497
g0
(g1
g2
(lp498
g0
(g1
g2
(lp499
(lp500
S'word: the, index: 1'
p501
aatp502
Rp503
(dp504
g14
Vdet
p505
sbag0
(g1
g2
(lp506
g0
(g1
g2
(lp507
g0
(g1
g2
(lp508
(lp509
S'word: the, index: 4'
p510
aatp511
Rp512
(dp513
g14
Vdet
p514
sbatp515
Rp516
(dp517
g14
S'word: clown, index: 5'
p518
sbatp519
Rp520
(dp521
g14
Vprep
p522
sbatp523
Rp524
(dp525
g14
S'word: tie, index: 2'
p526
sbatp527
Rp528
(dp529
g14
Vnsubj
p530
sbag0
(g1
g2
(lp531
g0
(g1
g2
(lp532
g0
(g1
g2
(lp533
(lp534
S'word: it, index: 9'
p535
aatp536
Rp537
(dp538
g14
Vprep
p539
sbatp540
Rp541
(dp542
g14
S'word: flowers, index: 7'
p543
sbatp544
Rp545
(dp546
g14
Vdobj
p547
sbatp548
Rp549
(dp550
g14
S'word: has, index: 6'
p551
sbatp552
Rp553
(dp554
g14
S'id: 10'
p555
sbag0
(g1
g2
(lp556
tp557
Rp558
(dp559
g14
S'id: 11'
p560
sbag0
(g1
g2
(lp561
g0
(g1
g2
(lp562
g0
(g1
g2
(lp563
g0
(g1
g2
(lp564
g0
(g1
g2
(lp565
(lp566
S'word: the, index: 4'
p567
aatp568
Rp569
(dp570
g14
Vdet
p571
sbatp572
Rp573
(dp574
g14
S'word: sky, index: 5'
p575
sbatp576
Rp577
(dp578
g14
Vprep
p579
sbag0
(g1
g2
(lp580
(lp581
S'word: some, index: 1'
p582
aatp583
Rp584
(dp585
g14
Vdet
p586
sbatp587
Rp588
(dp589
g14
S'word: clouds, index: 2'
p590
sbatp591
Rp592
(dp593
g14
S'id: 12'
p594
sbag0
(g1
g2
(lp595
tp596
Rp597
(dp598
g14
S'id: 13'
p599
sbag0
(g1
g2
(lp600
g0
(g1
g2
(lp601
g0
(g1
g2
(lp602
(lp603
S'word: that, index: 1'
p604
aatp605
Rp606
(dp607
g14
Vnsubj
p608
sbag0
(g1
g2
(lp609
g0
(g1
g2
(lp610
g0
(g1
g2
(lp611
(lp612
S'word: that, index: 3'
p613
aatp614
Rp615
(dp616
g14
Vnsubj
p617
sbag0
(g1
g2
(lp618
(lp619
S"word: 's, index: 4"
p620
aatp621
Rp622
(dp623
g14
Vcop
p624
sbag0
(g1
g2
(lp625
g0
(g1
g2
(lp626
g0
(g1
g2
(lp627
(lp628
S'word: I, index: 6'
p629
aatp630
Rp631
(dp632
g14
Vnsubj
p633
sbag0
(g1
g2
(lp634
g0
(g1
g2
(lp635
g0
(g1
g2
(lp636
(lp637
S'word: to, index: 8'
p638
aatp639
Rp640
(dp641
g14
Vaux
p642
sbatp643
Rp644
(dp645
g14
S'word: say, index: 9'
p646
sbatp647
Rp648
(dp649
g14
Vxcomp
p650
sbatp651
Rp652
(dp653
g14
S'word: got, index: 7'
p654
sbatp655
Rp656
(dp657
g14
Vrcmod
p658
sbatp659
Rp660
(dp661
g14
S'word: all, index: 5'
p662
sbatp663
Rp664
(dp665
g14
Vccomp
p666
sbatp667
Rp668
(dp669
g14
S"word: 's, index: 2"
p670
sbatp671
Rp672
(dp673
g14
S'id: 14'
p674
sbatp675
Rp676
(dp677
g14
S'sentences'
p678
sb.