ccopy_reg
_reconstructor
p0
(cnltk.tree
Tree
p1
c__builtin__
list
p2
(lp3
g0
(g1
g2
(lp4
g0
(g1
g2
(lp5
g0
(g1
g2
(lp6
g0
(g1
g2
(lp7
VOkay
p8
atp9
Rp10
(dp11
S'_label'
p12
VUH
p13
sbatp14
Rp15
(dp16
g12
VINTJ
p17
sbag0
(g1
g2
(lp18
Vi
p19
atp20
Rp21
(dp22
g12
VFW
p23
sbag0
(g1
g2
(lp24
g0
(g1
g2
(lp25
Vsee
p26
atp27
Rp28
(dp29
g12
VVB
p30
sbag0
(g1
g2
(lp31
g0
(g1
g2
(lp32
g0
(g1
g2
(lp33
Va
p34
atp35
Rp36
(dp37
g12
VDT
p38
sbatp39
Rp40
(dp41
g12
VNP
p42
sbag0
(g1
g2
(lp43
V,
p44
atp45
Rp46
(dp47
g12
V,
p48
sbag0
(g1
g2
(lp49
g0
(g1
g2
(lp50
Vgentleman
p51
atp52
Rp53
(dp54
g12
VNN
p55
sbatp56
Rp57
(dp58
g12
VNP
p59
sbatp60
Rp61
(dp62
g12
VNP
p63
sbag0
(g1
g2
(lp64
g0
(g1
g2
(lp65
Vtight
p66
atp67
Rp68
(dp69
g12
VRB
p70
sbatp71
Rp72
(dp73
g12
VADVP
p74
sbag0
(g1
g2
(lp75
V,
p76
atp77
Rp78
(dp79
g12
V,
p80
sbag0
(g1
g2
(lp81
g0
(g1
g2
(lp82
Von
p83
atp84
Rp85
(dp86
g12
VIN
p87
sbag0
(g1
g2
(lp88
g0
(g1
g2
(lp89
g0
(g1
g2
(lp90
Vtightrope
p91
atp92
Rp93
(dp94
g12
VNN
p95
sbatp96
Rp97
(dp98
g12
VNP
p99
sbag0
(g1
g2
(lp100
V,
p101
atp102
Rp103
(dp104
g12
V,
p105
sbag0
(g1
g2
(lp106
g0
(g1
g2
(lp107
Vwalking
p108
atp109
Rp110
(dp111
g12
VVBG
p112
sbag0
(g1
g2
(lp113
g0
(g1
g2
(lp114
Vacross
p115
atp116
Rp117
(dp118
g12
VIN
p119
sbag0
(g1
g2
(lp120
g0
(g1
g2
(lp121
Va
p122
atp123
Rp124
(dp125
g12
VDT
p126
sbag0
(g1
g2
(lp127
Vtightrope
p128
atp129
Rp130
(dp131
g12
VNN
p132
sbatp133
Rp134
(dp135
g12
VNP
p136
sbatp137
Rp138
(dp139
g12
VPP
p140
sbatp141
Rp142
(dp143
g12
VVP
p144
sbatp145
Rp146
(dp147
g12
VNP
p148
sbatp149
Rp150
(dp151
g12
VPP
p152
sbatp153
Rp154
(dp155
g12
VVP
p156
sbag0
(g1
g2
(lp157
V.
p158
atp159
Rp160
(dp161
g12
V.
p162
sbatp163
Rp164
(dp165
g12
VS
p166
sbatp167
Rp168
(dp169
g12
S'id: 0'
p170
sbag0
(g1
g2
(lp171
g0
(g1
g2
(lp172
g0
(g1
g2
(lp173
Vand
p174
atp175
Rp176
(dp177
g12
VCC
p178
sbag0
(g1
g2
(lp179
g0
(g1
g2
(lp180
g0
(g1
g2
(lp181
Va
p182
atp183
Rp184
(dp185
g12
VDT
p186
sbag0
(g1
g2
(lp187
Vyoung
p188
atp189
Rp190
(dp191
g12
VJJ
p192
sbag0
(g1
g2
(lp193
Vlady
p194
atp195
Rp196
(dp197
g12
VNN
p198
sbatp199
Rp200
(dp201
g12
VNP
p202
sbag0
(g1
g2
(lp203
g0
(g1
g2
(lp204
g0
(g1
g2
(lp205
Vwho
p206
atp207
Rp208
(dp209
g12
VWP
p210
sbatp211
Rp212
(dp213
g12
VWHNP
p214
sbag0
(g1
g2
(lp215
g0
(g1
g2
(lp216
g0
(g1
g2
(lp217
Vis
p218
atp219
Rp220
(dp221
g12
VVBZ
p222
sbag0
(g1
g2
(lp223
g0
(g1
g2
(lp224
V,
p225
atp226
Rp227
(dp228
g12
V,
p229
sbag0
(g1
g2
(lp230
g0
(g1
g2
(lp231
g0
(g1
g2
(lp232
Vbalancing
p233
atp234
Rp235
(dp236
g12
VVBG
p237
sbag0
(g1
g2
(lp238
g0
(g1
g2
(lp239
Von
p240
atp241
Rp242
(dp243
g12
VIN
p244
sbag0
(g1
g2
(lp245
g0
(g1
g2
(lp246
Va
p247
atp248
Rp249
(dp250
g12
VDT
p251
sbag0
(g1
g2
(lp252
Vhorse
p253
atp254
Rp255
(dp256
g12
VNN
p257
sbatp258
Rp259
(dp260
g12
VNP
p261
sbatp262
Rp263
(dp264
g12
VPP
p265
sbag0
(g1
g2
(lp266
g0
(g1
g2
(lp267
Vwithin
p268
atp269
Rp270
(dp271
g12
VIN
p272
sbag0
(g1
g2
(lp273
g0
(g1
g2
(lp274
Vthe
p275
atp276
Rp277
(dp278
g12
VDT
p279
sbag0
(g1
g2
(lp280
Vring
p281
atp282
Rp283
(dp284
g12
VNN
p285
sbatp286
Rp287
(dp288
g12
VNP
p289
sbatp290
Rp291
(dp292
g12
VPP
p293
sbag0
(g1
g2
(lp294
g0
(g1
g2
(lp295
Vthere
p296
atp297
Rp298
(dp299
g12
VRB
p300
sbatp301
Rp302
(dp303
g12
VADVP
p304
sbatp305
Rp306
(dp307
g12
VVP
p308
sbatp309
Rp310
(dp311
g12
VS
p312
sbatp313
Rp314
(dp315
g12
VVP
p316
sbatp317
Rp318
(dp319
g12
VVP
p320
sbatp321
Rp322
(dp323
g12
VS
p324
sbatp325
Rp326
(dp327
g12
VSBAR
p328
sbatp329
Rp330
(dp331
g12
VNP
p332
sbag0
(g1
g2
(lp333
V.
p334
atp335
Rp336
(dp337
g12
V.
p338
sbatp339
Rp340
(dp341
g12
VFRAG
p342
sbatp343
Rp344
(dp345
g12
S'id: 1'
p346
sbag0
(g1
g2
(lp347
g0
(g1
g2
(lp348
g0
(g1
g2
(lp349
Vand
p350
atp351
Rp352
(dp353
g12
VCC
p354
sbag0
(g1
g2
(lp355
g0
(g1
g2
(lp356
g0
(g1
g2
(lp357
Vsome
p358
atp359
Rp360
(dp361
g12
VDT
p362
sbag0
(g1
g2
(lp363
Vpeople
p364
atp365
Rp366
(dp367
g12
VNNS
p368
sbatp369
Rp370
(dp371
g12
VNP
p372
sbag0
(g1
g2
(lp373
g0
(g1
g2
(lp374
g0
(g1
g2
(lp375
Vthat
p376
atp377
Rp378
(dp379
g12
VWDT
p380
sbatp381
Rp382
(dp383
g12
VWHNP
p384
sbag0
(g1
g2
(lp385
g0
(g1
g2
(lp386
g0
(g1
g2
(lp387
Vare
p388
atp389
Rp390
(dp391
g12
VVBP
p392
sbag0
(g1
g2
(lp393
g0
(g1
g2
(lp394
Vobserving
p395
atp396
Rp397
(dp398
g12
VVBG
p399
sbag0
(g1
g2
(lp400
g0
(g1
g2
(lp401
Vher
p402
atp403
Rp404
(dp405
g12
VPRP$
p406
sbatp407
Rp408
(dp409
g12
VNP
p410
sbag0
(g1
g2
(lp411
g0
(g1
g2
(lp412
Vfrom
p413
atp414
Rp415
(dp416
g12
VIN
p417
sbag0
(g1
g2
(lp418
g0
(g1
g2
(lp419
Vbehind
p420
atp421
Rp422
(dp423
g12
VIN
p424
sbag0
(g1
g2
(lp425
g0
(g1
g2
(lp426
Vthe
p427
atp428
Rp429
(dp430
g12
VDT
p431
sbag0
(g1
g2
(lp432
Vring
p433
atp434
Rp435
(dp436
g12
VNN
p437
sbatp438
Rp439
(dp440
g12
VNP
p441
sbatp442
Rp443
(dp444
g12
VPP
p445
sbatp446
Rp447
(dp448
g12
VPP
p449
sbatp450
Rp451
(dp452
g12
VVP
p453
sbatp454
Rp455
(dp456
g12
VVP
p457
sbatp458
Rp459
(dp460
g12
VS
p461
sbatp462
Rp463
(dp464
g12
VSBAR
p465
sbatp466
Rp467
(dp468
g12
VNP
p469
sbag0
(g1
g2
(lp470
V.
p471
atp472
Rp473
(dp474
g12
V.
p475
sbatp476
Rp477
(dp478
g12
VFRAG
p479
sbatp480
Rp481
(dp482
g12
S'id: 2'
p483
sbag0
(g1
g2
(lp484
g0
(g1
g2
(lp485
g0
(g1
g2
(lp486
g0
(g1
g2
(lp487
g0
(g1
g2
(lp488
Vand
p489
atp490
Rp491
(dp492
g12
VCC
p493
sbag0
(g1
g2
(lp494
g0
(g1
g2
(lp495
g0
(g1
g2
(lp496
Vthen
p497
atp498
Rp499
(dp500
g12
VRB
p501
sbatp502
Rp503
(dp504
g12
VADVP
p505
sbag0
(g1
g2
(lp506
Vwithin
p507
atp508
Rp509
(dp510
g12
VIN
p511
sbag0
(g1
g2
(lp512
g0
(g1
g2
(lp513
Vthe
p514
atp515
Rp516
(dp517
g12
VDT
p518
sbag0
(g1
g2
(lp519
Vcage
p520
atp521
Rp522
(dp523
g12
VNN
p524
sbatp525
Rp526
(dp527
g12
VNP
p528
sbatp529
Rp530
(dp531
g12
VPP
p532
sbatp533
Rp534
(dp535
g12
VPRN
p536
sbag0
(g1
g2
(lp537
g0
(g1
g2
(lp538
g0
(g1
g2
(lp539
Vi
p540
atp541
Rp542
(dp543
g12
VFW
p544
sbatp545
Rp546
(dp547
g12
VNP
p548
sbag0
(g1
g2
(lp549
g0
(g1
g2
(lp550
Vsee
p551
atp552
Rp553
(dp554
g12
VVB
p555
sbag0
(g1
g2
(lp556
g0
(g1
g2
(lp557
Va
p558
atp559
Rp560
(dp561
g12
VDT
p562
sbag0
(g1
g2
(lp563
Vguy
p564
atp565
Rp566
(dp567
g12
VNN
p568
sbatp569
Rp570
(dp571
g12
VNP
p572
sbatp573
Rp574
(dp575
g12
VVP
p576
sbatp577
Rp578
(dp579
g12
VS
p580
sbatp581
Rp582
(dp583
g12
VSBAR
p584
sbag0
(g1
g2
(lp585
V,
p586
atp587
Rp588
(dp589
g12
V,
p590
sbag0
(g1
g2
(lp591
g0
(g1
g2
(lp592
g0
(g1
g2
(lp593
g0
(g1
g2
(lp594
Va
p595
atp596
Rp597
(dp598
g12
VDT
p599
sbag0
(g1
g2
(lp600
Vlion
p601
atp602
Rp603
(dp604
g12
VNN
p605
sbatp606
Rp607
(dp608
g12
VNP
p609
sbag0
(g1
g2
(lp610
Vtamer
p611
atp612
Rp613
(dp614
g12
VJJR
p615
sbatp616
Rp617
(dp618
g12
VADJP
p619
sbatp620
Rp621
(dp622
g12
VS
p623
sbag0
(g1
g2
(lp624
g0
(g1
g2
(lp625
Vthat
p626
atp627
Rp628
(dp629
g12
VDT
p630
sbatp631
Rp632
(dp633
g12
VNP
p634
sbag0
(g1
g2
(lp635
g0
(g1
g2
(lp636
V's
p637
atp638
Rp639
(dp640
g12
VVBZ
p641
sbag0
(g1
g2
(lp642
g0
(g1
g2
(lp643
Vgetting
p644
atp645
Rp646
(dp647
g12
VVBG
p648
sbag0
(g1
g2
(lp649
g0
(g1
g2
(lp650
Vthe
p651
atp652
Rp653
(dp654
g12
VDT
p655
sbag0
(g1
g2
(lp656
Vlion
p657
atp658
Rp659
(dp660
g12
VNN
p661
sbag0
(g1
g2
(lp662
g0
(g1
g2
(lp663
g0
(g1
g2
(lp664
Vto
p665
atp666
Rp667
(dp668
g12
VTO
p669
sbag0
(g1
g2
(lp670
g0
(g1
g2
(lp671
Vstand
p672
atp673
Rp674
(dp675
g12
VVB
p676
sbag0
(g1
g2
(lp677
g0
(g1
g2
(lp678
Vup
p679
atp680
Rp681
(dp682
g12
VRP
p683
sbatp684
Rp685
(dp686
g12
VPRT
p687
sbag0
(g1
g2
(lp688
g0
(g1
g2
(lp689
Von
p690
atp691
Rp692
(dp693
g12
VIN
p694
sbag0
(g1
g2
(lp695
g0
(g1
g2
(lp696
Vhis
p697
atp698
Rp699
(dp700
g12
VPRP$
p701
sbag0
(g1
g2
(lp702
Vhind
p703
atp704
Rp705
(dp706
g12
VJJ
p707
sbag0
(g1
g2
(lp708
Vlegs
p709
atp710
Rp711
(dp712
g12
VNNS
p713
sbatp714
Rp715
(dp716
g12
VNP
p717
sbatp718
Rp719
(dp720
g12
VPP
p721
sbatp722
Rp723
(dp724
g12
VVP
p725
sbatp726
Rp727
(dp728
g12
VVP
p729
sbatp730
Rp731
(dp732
g12
VS
p733
sbatp734
Rp735
(dp736
g12
VNP
p737
sbatp738
Rp739
(dp740
g12
VVP
p741
sbatp742
Rp743
(dp744
g12
VVP
p745
sbag0
(g1
g2
(lp746
V.
p747
atp748
Rp749
(dp750
g12
V.
p751
sbatp752
Rp753
(dp754
g12
VS
p755
sbatp756
Rp757
(dp758
g12
S'id: 3'
p759
sbag0
(g1
g2
(lp760
g0
(g1
g2
(lp761
g0
(g1
g2
(lp762
g0
(g1
g2
(lp763
g0
(g1
g2
(lp764
Vthen
p765
atp766
Rp767
(dp768
g12
VRB
p769
sbatp770
Rp771
(dp772
g12
VADVP
p773
sbag0
(g1
g2
(lp774
g0
(g1
g2
(lp775
VI
p776
atp777
Rp778
(dp779
g12
VPRP
p780
sbatp781
Rp782
(dp783
g12
VNP
p784
sbag0
(g1
g2
(lp785
g0
(g1
g2
(lp786
Vsee
p787
atp788
Rp789
(dp790
g12
VVBP
p791
sbag0
(g1
g2
(lp792
g0
(g1
g2
(lp793
g0
(g1
g2
(lp794
Vwhat
p795
atp796
Rp797
(dp798
g12
VWP
p799
sbatp800
Rp801
(dp802
g12
VWHNP
p803
sbag0
(g1
g2
(lp804
g0
(g1
g2
(lp805
g0
(g1
g2
(lp806
Vlooks
p807
atp808
Rp809
(dp810
g12
VVBZ
p811
sbag0
(g1
g2
(lp812
g0
(g1
g2
(lp813
Vlike
p814
atp815
Rp816
(dp817
g12
VIN
p818
sbag0
(g1
g2
(lp819
g0
(g1
g2
(lp820
g0
(g1
g2
(lp821
Va
p822
atp823
Rp824
(dp825
g12
VDT
p826
sbag0
(g1
g2
(lp827
Vdad
p828
atp829
Rp830
(dp831
g12
VNN
p832
sbatp833
Rp834
(dp835
g12
VNP
p836
sbag0
(g1
g2
(lp837
Vand
p838
atp839
Rp840
(dp841
g12
VCC
p842
sbag0
(g1
g2
(lp843
g0
(g1
g2
(lp844
g0
(g1
g2
(lp845
Vhis
p846
atp847
Rp848
(dp849
g12
VPRP$
p850
sbag0
(g1
g2
(lp851
Vdaughter
p852
atp853
Rp854
(dp855
g12
VNN
p856
sbatp857
Rp858
(dp859
g12
VNP
p860
sbag0
(g1
g2
(lp861
Vand
p862
atp863
Rp864
(dp865
g12
VCC
p866
sbag0
(g1
g2
(lp867
g0
(g1
g2
(lp868
Vthe
p869
atp870
Rp871
(dp872
g12
VDT
p873
sbag0
(g1
g2
(lp874
Vdaughter
p875
atp876
Rp877
(dp878
g12
VNN
p879
sbag0
(g1
g2
(lp880
V's
p881
atp882
Rp883
(dp884
g12
VPOS
p885
sbatp886
Rp887
(dp888
g12
VNP
p889
sbatp890
Rp891
(dp892
g12
VNP
p893
sbatp894
Rp895
(dp896
g12
VNP
p897
sbatp898
Rp899
(dp900
g12
VPP
p901
sbag0
(g1
g2
(lp902
g0
(g1
g2
(lp903
g0
(g1
g2
(lp904
Vpointing
p905
atp906
Rp907
(dp908
g12
VVBG
p909
sbag0
(g1
g2
(lp910
g0
(g1
g2
(lp911
Vat
p912
atp913
Rp914
(dp915
g12
VIN
p916
sbag0
(g1
g2
(lp917
g0
(g1
g2
(lp918
Vthe
p919
atp920
Rp921
(dp922
g12
VDT
p923
sbag0
(g1
g2
(lp924
Vclown
p925
atp926
Rp927
(dp928
g12
VNN
p929
sbatp930
Rp931
(dp932
g12
VNP
p933
sbatp934
Rp935
(dp936
g12
VPP
p937
sbatp938
Rp939
(dp940
g12
VVP
p941
sbatp942
Rp943
(dp944
g12
VS
p945
sbatp946
Rp947
(dp948
g12
VVP
p949
sbatp950
Rp951
(dp952
g12
VS
p953
sbatp954
Rp955
(dp956
g12
VSBAR
p957
sbatp958
Rp959
(dp960
g12
VVP
p961
sbatp962
Rp963
(dp964
g12
VS
p965
sbag0
(g1
g2
(lp966
V,
p967
atp968
Rp969
(dp970
g12
V,
p971
sbag0
(g1
g2
(lp972
Vand
p973
atp974
Rp975
(dp976
g12
VCC
p977
sbag0
(g1
g2
(lp978
g0
(g1
g2
(lp979
g0
(g1
g2
(lp980
Vthe
p981
atp982
Rp983
(dp984
g12
VDT
p985
sbag0
(g1
g2
(lp986
Vclown
p987
atp988
Rp989
(dp990
g12
VNN
p991
sbatp992
Rp993
(dp994
g12
VNP
p995
sbag0
(g1
g2
(lp996
g0
(g1
g2
(lp997
Vis
p998
atp999
Rp1000
(dp1001
g12
VVBZ
p1002
sbag0
(g1
g2
(lp1003
V,
p1004
atp1005
Rp1006
(dp1007
g12
V,
p1008
sbag0
(g1
g2
(lp1009
g0
(g1
g2
(lp1010
g0
(g1
g2
(lp1011
g0
(g1
g2
(lp1012
g0
(g1
g2
(lp1013
Vspilling
p1014
atp1015
Rp1016
(dp1017
g12
VNN
p1018
sbatp1019
Rp1020
(dp1021
g12
VNP
p1022
sbag0
(g1
g2
(lp1023
V,
p1024
atp1025
Rp1026
(dp1027
g12
V,
p1028
sbag0
(g1
g2
(lp1029
g0
(g1
g2
(lp1030
g0
(g1
g2
(lp1031
Vsomething
p1032
atp1033
Rp1034
(dp1035
g12
VNN
p1036
sbatp1037
Rp1038
(dp1039
g12
VNP
p1040
sbag0
(g1
g2
(lp1041
V,
p1042
atp1043
Rp1044
(dp1045
g12
V,
p1046
sbag0
(g1
g2
(lp1047
g0
(g1
g2
(lp1048
Vi
p1049
atp1050
Rp1051
(dp1052
g12
VFW
p1053
sbatp1054
Rp1055
(dp1056
g12
VNP
p1057
sbatp1058
Rp1059
(dp1060
g12
VNP
p1061
sbatp1062
Rp1063
(dp1064
g12
VNP
p1065
sbag0
(g1
g2
(lp1066
g0
(g1
g2
(lp1067
Vdo
p1068
atp1069
Rp1070
(dp1071
g12
VVBP
p1072
sbag0
(g1
g2
(lp1073
Vn't
p1074
atp1075
Rp1076
(dp1077
g12
VRB
p1078
sbag0
(g1
g2
(lp1079
g0
(g1
g2
(lp1080
Vknow
p1081
atp1082
Rp1083
(dp1084
g12
VVB
p1085
sbag0
(g1
g2
(lp1086
g0
(g1
g2
(lp1087
V,
p1088
atp1089
Rp1090
(dp1091
g12
V,
p1092
sbag0
(g1
g2
(lp1093
g0
(g1
g2
(lp1094
g0
(g1
g2
(lp1095
Vcoins
p1096
atp1097
Rp1098
(dp1099
g12
VNNS
p1100
sbatp1101
Rp1102
(dp1103
g12
VNP
p1104
sbag0
(g1
g2
(lp1105
V,
p1106
atp1107
Rp1108
(dp1109
g12
V,
p1110
sbag0
(g1
g2
(lp1111
g0
(g1
g2
(lp1112
Vi
p1113
atp1114
Rp1115
(dp1116
g12
VFW
p1117
sbatp1118
Rp1119
(dp1120
g12
VNP
p1121
sbag0
(g1
g2
(lp1122
g0
(g1
g2
(lp1123
Vdo
p1124
atp1125
Rp1126
(dp1127
g12
VVBP
p1128
sbag0
(g1
g2
(lp1129
Vn't
p1130
atp1131
Rp1132
(dp1133
g12
VRB
p1134
sbag0
(g1
g2
(lp1135
g0
(g1
g2
(lp1136
Vknow
p1137
atp1138
Rp1139
(dp1140
g12
VVB
p1141
sbag0
(g1
g2
(lp1142
g0
(g1
g2
(lp1143
Vwhat
p1144
atp1145
Rp1146
(dp1147
g12
VWP
p1148
sbatp1149
Rp1150
(dp1151
g12
VNP
p1152
sbatp1153
Rp1154
(dp1155
g12
VVP
p1156
sbatp1157
Rp1158
(dp1159
g12
VVP
p1160
sbatp1161
Rp1162
(dp1163
g12
VS
p1164
sbag0
(g1
g2
(lp1165
V,
p1166
atp1167
Rp1168
(dp1169
g12
V,
p1170
sbatp1171
Rp1172
(dp1173
g12
VPRN
p1174
sbag0
(g1
g2
(lp1175
g0
(g1
g2
(lp1176
Vspilling
p1177
atp1178
Rp1179
(dp1180
g12
VNN
p1181
sbag0
(g1
g2
(lp1182
Vsomething
p1183
atp1184
Rp1185
(dp1186
g12
VNN
p1187
sbatp1188
Rp1189
(dp1190
g12
VNP
p1191
sbag0
(g1
g2
(lp1192
g0
(g1
g2
(lp1193
Vtowards
p1194
atp1195
Rp1196
(dp1197
g12
VIN
p1198
sbag0
(g1
g2
(lp1199
g0
(g1
g2
(lp1200
g0
(g1
g2
(lp1201
Vthe
p1202
atp1203
Rp1204
(dp1205
g12
VDT
p1206
sbag0
(g1
g2
(lp1207
Vlittle
p1208
atp1209
Rp1210
(dp1211
g12
VJJ
p1212
sbag0
(g1
g2
(lp1213
Vboy
p1214
atp1215
Rp1216
(dp1217
g12
VNN
p1218
sbatp1219
Rp1220
(dp1221
g12
VNP
p1222
sbag0
(g1
g2
(lp1223
g0
(g1
g2
(lp1224
g0
(g1
g2
(lp1225
Vwho
p1226
atp1227
Rp1228
(dp1229
g12
VWP
p1230
sbatp1231
Rp1232
(dp1233
g12
VWHNP
p1234
sbag0
(g1
g2
(lp1235
g0
(g1
g2
(lp1236
g0
(g1
g2
(lp1237
V's
p1238
atp1239
Rp1240
(dp1241
g12
VVBZ
p1242
sbag0
(g1
g2
(lp1243
g0
(g1
g2
(lp1244
Vwith
p1245
atp1246
Rp1247
(dp1248
g12
VIN
p1249
sbag0
(g1
g2
(lp1250
g0
(g1
g2
(lp1251
g0
(g1
g2
(lp1252
g0
(g1
g2
(lp1253
Vhis
p1254
atp1255
Rp1256
(dp1257
g12
VPRP$
p1258
sbag0
(g1
g2
(lp1259
Vmother
p1260
atp1261
Rp1262
(dp1263
g12
VNN
p1264
sbatp1265
Rp1266
(dp1267
g12
VNP
p1268
sbag0
(g1
g2
(lp1269
Vand
p1270
atp1271
Rp1272
(dp1273
g12
VCC
p1274
sbag0
(g1
g2
(lp1275
g0
(g1
g2
(lp1276
Vmother
p1277
atp1278
Rp1279
(dp1280
g12
VNN
p1281
sbag0
(g1
g2
(lp1282
V's
p1283
atp1284
Rp1285
(dp1286
g12
VPOS
p1287
sbatp1288
Rp1289
(dp1290
g12
VNP
p1291
sbatp1292
Rp1293
(dp1294
g12
VNP
p1295
sbag0
(g1
g2
(lp1296
g0
(g1
g2
(lp1297
Vholding
p1298
atp1299
Rp1300
(dp1301
g12
VVBG
p1302
sbag0
(g1
g2
(lp1303
g0
(g1
g2
(lp1304
Vthe
p1305
atp1306
Rp1307
(dp1308
g12
VDT
p1309
sbag0
(g1
g2
(lp1310
Vlittle
p1311
atp1312
Rp1313
(dp1314
g12
VJJ
p1315
sbag0
(g1
g2
(lp1316
Vgirl
p1317
atp1318
Rp1319
(dp1320
g12
VNN
p1321
sbatp1322
Rp1323
(dp1324
g12
VNP
p1325
sbatp1326
Rp1327
(dp1328
g12
VVP
p1329
sbatp1330
Rp1331
(dp1332
g12
VS
p1333
sbatp1334
Rp1335
(dp1336
g12
VPP
p1337
sbatp1338
Rp1339
(dp1340
g12
VVP
p1341
sbatp1342
Rp1343
(dp1344
g12
VS
p1345
sbatp1346
Rp1347
(dp1348
g12
VSBAR
p1349
sbatp1350
Rp1351
(dp1352
g12
VNP
p1353
sbatp1354
Rp1355
(dp1356
g12
VPP
p1357
sbatp1358
Rp1359
(dp1360
g12
VVP
p1361
sbatp1362
Rp1363
(dp1364
g12
VVP
p1365
sbatp1366
Rp1367
(dp1368
g12
VS
p1369
sbatp1370
Rp1371
(dp1372
g12
VSBAR
p1373
sbatp1374
Rp1375
(dp1376
g12
VVP
p1377
sbatp1378
Rp1379
(dp1380
g12
VS
p1381
sbag0
(g1
g2
(lp1382
V.
p1383
atp1384
Rp1385
(dp1386
g12
V.
p1387
sbatp1388
Rp1389
(dp1390
g12
VS
p1391
sbatp1392
Rp1393
(dp1394
g12
S'id: 4'
p1395
sbatp1396
Rp1397
(dp1398
g12
S'sentences'
p1399
sb.