ccopy_reg
_reconstructor
p0
(cnltk.tree
Tree
p1
c__builtin__
list
p2
(lp3
g0
(g1
g2
(lp4
g0
(g1
g2
(lp5
g0
(g1
g2
(lp6
g0
(g1
g2
(lp7
g0
(g1
g2
(lp8
g0
(g1
g2
(lp9
Vokay
p10
atp11
Rp12
(dp13
S'_label'
p14
VJJ
p15
sbatp16
Rp17
(dp18
g14
VADJP
p19
sbatp20
Rp21
(dp22
g14
VS
p23
sbag0
(g1
g2
(lp24
V,
p25
atp26
Rp27
(dp28
g14
V,
p29
sbag0
(g1
g2
(lp30
g0
(g1
g2
(lp31
Vthere
p32
atp33
Rp34
(dp35
g14
VEX
p36
sbatp37
Rp38
(dp39
g14
VNP
p40
sbag0
(g1
g2
(lp41
g0
(g1
g2
(lp42
Vis
p43
atp44
Rp45
(dp46
g14
VVBZ
p47
sbag0
(g1
g2
(lp48
g0
(g1
g2
(lp49
g0
(g1
g2
(lp50
Va
p51
atp52
Rp53
(dp54
g14
VDT
p55
sbag0
(g1
g2
(lp56
Vman
p57
atp58
Rp59
(dp60
g14
VNN
p61
sbatp62
Rp63
(dp64
g14
VNP
p65
sbag0
(g1
g2
(lp66
g0
(g1
g2
(lp67
Vin
p68
atp69
Rp70
(dp71
g14
VIN
p72
sbag0
(g1
g2
(lp73
g0
(g1
g2
(lp74
g0
(g1
g2
(lp75
Va
p76
atp77
Rp78
(dp79
g14
VDT
p80
sbag0
(g1
g2
(lp81
Vcage
p82
atp83
Rp84
(dp85
g14
VNN
p86
sbatp87
Rp88
(dp89
g14
VNP
p90
sbag0
(g1
g2
(lp91
g0
(g1
g2
(lp92
Vwith
p93
atp94
Rp95
(dp96
g14
VIN
p97
sbag0
(g1
g2
(lp98
g0
(g1
g2
(lp99
Va
p100
atp101
Rp102
(dp103
g14
VDT
p104
sbag0
(g1
g2
(lp105
Vlion
p106
atp107
Rp108
(dp109
g14
VNN
p110
sbatp111
Rp112
(dp113
g14
VNP
p114
sbatp115
Rp116
(dp117
g14
VPP
p118
sbatp119
Rp120
(dp121
g14
VNP
p122
sbatp123
Rp124
(dp125
g14
VPP
p126
sbatp127
Rp128
(dp129
g14
VNP
p130
sbatp131
Rp132
(dp133
g14
VVP
p134
sbatp135
Rp136
(dp137
g14
VS
p138
sbag0
(g1
g2
(lp139
Vand
p140
atp141
Rp142
(dp143
g14
VCC
p144
sbag0
(g1
g2
(lp145
g0
(g1
g2
(lp146
g0
(g1
g2
(lp147
Vhe
p148
atp149
Rp150
(dp151
g14
VPRP
p152
sbatp153
Rp154
(dp155
g14
VNP
p156
sbag0
(g1
g2
(lp157
g0
(g1
g2
(lp158
Vseems
p159
atp160
Rp161
(dp162
g14
VVBZ
p163
sbag0
(g1
g2
(lp164
g0
(g1
g2
(lp165
g0
(g1
g2
(lp166
Vto
p167
atp168
Rp169
(dp170
g14
VTO
p171
sbag0
(g1
g2
(lp172
g0
(g1
g2
(lp173
Vbe
p174
atp175
Rp176
(dp177
g14
VVB
p178
sbag0
(g1
g2
(lp179
g0
(g1
g2
(lp180
g0
(g1
g2
(lp181
Vtraining
p182
atp183
Rp184
(dp185
g14
VVBG
p186
sbag0
(g1
g2
(lp187
g0
(g1
g2
(lp188
Vthe
p189
atp190
Rp191
(dp192
g14
VDT
p193
sbag0
(g1
g2
(lp194
Vlion
p195
atp196
Rp197
(dp198
g14
VNN
p199
sbatp200
Rp201
(dp202
g14
VNP
p203
sbatp204
Rp205
(dp206
g14
VVP
p207
sbag0
(g1
g2
(lp208
Vor
p209
atp210
Rp211
(dp212
g14
VCC
p213
sbag0
(g1
g2
(lp214
g0
(g1
g2
(lp215
Vtaming
p216
atp217
Rp218
(dp219
g14
VVBG
p220
sbag0
(g1
g2
(lp221
g0
(g1
g2
(lp222
Vthe
p223
atp224
Rp225
(dp226
g14
VDT
p227
sbag0
(g1
g2
(lp228
Vlion
p229
atp230
Rp231
(dp232
g14
VNN
p233
sbatp234
Rp235
(dp236
g14
VNP
p237
sbag0
(g1
g2
(lp238
g0
(g1
g2
(lp239
g0
(g1
g2
(lp240
Vi
p241
atp242
Rp243
(dp244
g14
VFW
p245
sbatp246
Rp247
(dp248
g14
VNP
p249
sbag0
(g1
g2
(lp250
g0
(g1
g2
(lp251
Vguess
p252
atp253
Rp254
(dp255
g14
VNN
p256
sbatp257
Rp258
(dp259
g14
VNP
p260
sbatp261
Rp262
(dp263
g14
VNP-TMP
p264
sbatp265
Rp266
(dp267
g14
VVP
p268
sbatp269
Rp270
(dp271
g14
VVP
p272
sbatp273
Rp274
(dp275
g14
VVP
p276
sbatp277
Rp278
(dp279
g14
VVP
p280
sbatp281
Rp282
(dp283
g14
VS
p284
sbatp285
Rp286
(dp287
g14
VVP
p288
sbatp289
Rp290
(dp291
g14
VS
p292
sbag0
(g1
g2
(lp293
V.
p294
atp295
Rp296
(dp297
g14
V.
p298
sbatp299
Rp300
(dp301
g14
VS
p302
sbatp303
Rp304
(dp305
g14
S'id: 0'
p306
sbag0
(g1
g2
(lp307
g0
(g1
g2
(lp308
g0
(g1
g2
(lp309
g0
(g1
g2
(lp310
g0
(g1
g2
(lp311
Vin
p312
atp313
Rp314
(dp315
g14
VIN
p316
sbag0
(g1
g2
(lp317
g0
(g1
g2
(lp318
Vthe
p319
atp320
Rp321
(dp322
g14
VDT
p323
sbag0
(g1
g2
(lp324
Vforeground
p325
atp326
Rp327
(dp328
g14
VNN
p329
sbatp330
Rp331
(dp332
g14
VNP
p333
sbatp334
Rp335
(dp336
g14
VPP
p337
sbag0
(g1
g2
(lp338
g0
(g1
g2
(lp339
Vthere
p340
atp341
Rp342
(dp343
g14
VEX
p344
sbatp345
Rp346
(dp347
g14
VNP
p348
sbag0
(g1
g2
(lp349
g0
(g1
g2
(lp350
V's
p351
atp352
Rp353
(dp354
g14
VVBZ
p355
sbag0
(g1
g2
(lp356
g0
(g1
g2
(lp357
Va
p358
atp359
Rp360
(dp361
g14
VDT
p362
sbag0
(g1
g2
(lp363
Vclown
p364
atp365
Rp366
(dp367
g14
VNN
p368
sbatp369
Rp370
(dp371
g14
VNP
p372
sbatp373
Rp374
(dp375
g14
VVP
p376
sbatp377
Rp378
(dp379
g14
VS
p380
sbag0
(g1
g2
(lp381
Vand
p382
atp383
Rp384
(dp385
g14
VCC
p386
sbag0
(g1
g2
(lp387
g0
(g1
g2
(lp388
g0
(g1
g2
(lp389
Vhe
p390
atp391
Rp392
(dp393
g14
VPRP
p394
sbatp395
Rp396
(dp397
g14
VNP
p398
sbag0
(g1
g2
(lp399
g0
(g1
g2
(lp400
Vis
p401
atp402
Rp403
(dp404
g14
VVBZ
p405
sbag0
(g1
g2
(lp406
g0
(g1
g2
(lp407
Vthrowing
p408
atp409
Rp410
(dp411
g14
VVBG
p412
sbag0
(g1
g2
(lp413
g0
(g1
g2
(lp414
Vthings
p415
atp416
Rp417
(dp418
g14
VNNS
p419
sbatp420
Rp421
(dp422
g14
VNP
p423
sbag0
(g1
g2
(lp424
g0
(g1
g2
(lp425
Vout
p426
atp427
Rp428
(dp429
g14
VIN
p430
sbatp431
Rp432
(dp433
g14
VPRT
p434
sbag0
(g1
g2
(lp435
g0
(g1
g2
(lp436
Vof
p437
atp438
Rp439
(dp440
g14
VIN
p441
sbag0
(g1
g2
(lp442
g0
(g1
g2
(lp443
Va
p444
atp445
Rp446
(dp447
g14
VDT
p448
sbag0
(g1
g2
(lp449
Vbucket
p450
atp451
Rp452
(dp453
g14
VNN
p454
sbatp455
Rp456
(dp457
g14
VNP
p458
sbatp459
Rp460
(dp461
g14
VPP
p462
sbag0
(g1
g2
(lp463
V,
p464
atp465
Rp466
(dp467
g14
V,
p468
sbag0
(g1
g2
(lp469
g0
(g1
g2
(lp470
Vto
p471
atp472
Rp473
(dp474
g14
VTO
p475
sbag0
(g1
g2
(lp476
g0
(g1
g2
(lp477
g0
(g1
g2
(lp478
Vthree
p479
atp480
Rp481
(dp482
g14
VCD
p483
sbag0
(g1
g2
(lp484
Vpeople
p485
atp486
Rp487
(dp488
g14
VNNS
p489
sbatp490
Rp491
(dp492
g14
VNP
p493
sbag0
(g1
g2
(lp494
g0
(g1
g2
(lp495
g0
(g1
g2
(lp496
Vwhich
p497
atp498
Rp499
(dp500
g14
VWDT
p501
sbatp502
Rp503
(dp504
g14
VWHNP
p505
sbag0
(g1
g2
(lp506
g0
(g1
g2
(lp507
g0
(g1
g2
(lp508
Vis
p509
atp510
Rp511
(dp512
g14
VVBZ
p513
sbag0
(g1
g2
(lp514
g0
(g1
g2
(lp515
g0
(g1
g2
(lp516
Va
p517
atp518
Rp519
(dp520
g14
VDT
p521
sbag0
(g1
g2
(lp522
Vmother
p523
atp524
Rp525
(dp526
g14
VNN
p527
sbatp528
Rp529
(dp530
g14
VNP
p531
sbag0
(g1
g2
(lp532
Vand
p533
atp534
Rp535
(dp536
g14
VCC
p537
sbag0
(g1
g2
(lp538
g0
(g1
g2
(lp539
Vtwo
p540
atp541
Rp542
(dp543
g14
VCD
p544
sbag0
(g1
g2
(lp545
Vkids
p546
atp547
Rp548
(dp549
g14
VNNS
p550
sbatp551
Rp552
(dp553
g14
VNP
p554
sbatp555
Rp556
(dp557
g14
VNP
p558
sbatp559
Rp560
(dp561
g14
VVP
p562
sbatp563
Rp564
(dp565
g14
VS
p566
sbatp567
Rp568
(dp569
g14
VSBAR
p570
sbatp571
Rp572
(dp573
g14
VNP
p574
sbatp575
Rp576
(dp577
g14
VPP
p578
sbatp579
Rp580
(dp581
g14
VVP
p582
sbatp583
Rp584
(dp585
g14
VVP
p586
sbatp587
Rp588
(dp589
g14
VS
p590
sbag0
(g1
g2
(lp591
V.
p592
atp593
Rp594
(dp595
g14
V.
p596
sbatp597
Rp598
(dp599
g14
VS
p600
sbatp601
Rp602
(dp603
g14
S'id: 1'
p604
sbag0
(g1
g2
(lp605
g0
(g1
g2
(lp606
g0
(g1
g2
(lp607
g0
(g1
g2
(lp608
Vshe
p609
atp610
Rp611
(dp612
g14
VPRP
p613
sbatp614
Rp615
(dp616
g14
VNP
p617
sbag0
(g1
g2
(lp618
g0
(g1
g2
(lp619
V's
p620
atp621
Rp622
(dp623
g14
VVBZ
p624
sbag0
(g1
g2
(lp625
g0
(g1
g2
(lp626
Vholding
p627
atp628
Rp629
(dp630
g14
VVBG
p631
sbag0
(g1
g2
(lp632
g0
(g1
g2
(lp633
g0
(g1
g2
(lp634
Vthe
p635
atp636
Rp637
(dp638
g14
VDT
p639
sbag0
(g1
g2
(lp640
Vyounger
p641
atp642
Rp643
(dp644
g14
VJJR
p645
sbag0
(g1
g2
(lp646
Vchild
p647
atp648
Rp649
(dp650
g14
VNN
p651
sbatp652
Rp653
(dp654
g14
VNP
p655
sbag0
(g1
g2
(lp656
V,
p657
atp658
Rp659
(dp660
g14
V,
p661
sbag0
(g1
g2
(lp662
g0
(g1
g2
(lp663
g0
(g1
g2
(lp664
Vwhich
p665
atp666
Rp667
(dp668
g14
VWDT
p669
sbatp670
Rp671
(dp672
g14
VWHNP
p673
sbag0
(g1
g2
(lp674
g0
(g1
g2
(lp675
g0
(g1
g2
(lp676
Vlooks
p677
atp678
Rp679
(dp680
g14
VVBZ
p681
sbag0
(g1
g2
(lp682
g0
(g1
g2
(lp683
Vlike
p684
atp685
Rp686
(dp687
g14
VIN
p688
sbag0
(g1
g2
(lp689
g0
(g1
g2
(lp690
g0
(g1
g2
(lp691
Va
p692
atp693
Rp694
(dp695
g14
VDT
p696
sbag0
(g1
g2
(lp697
Vgirl
p698
atp699
Rp700
(dp701
g14
VNN
p702
sbatp703
Rp704
(dp705
g14
VNP
p706
sbag0
(g1
g2
(lp707
Vand
p708
atp709
Rp710
(dp711
g14
VCC
p712
sbag0
(g1
g2
(lp713
g0
(g1
g2
(lp714
g0
(g1
g2
(lp715
Vthe
p716
atp717
Rp718
(dp719
g14
VDT
p720
sbag0
(g1
g2
(lp721
Volder
p722
atp723
Rp724
(dp725
g14
VJJR
p726
sbag0
(g1
g2
(lp727
Vchild
p728
atp729
Rp730
(dp731
g14
VNN
p732
sbag0
(g1
g2
(lp733
V's
p734
atp735
Rp736
(dp737
g14
VPOS
p738
sbatp739
Rp740
(dp741
g14
VNP
p742
sbag0
(g1
g2
(lp743
g0
(g1
g2
(lp744
Va
p745
atp746
Rp747
(dp748
g14
VDT
p749
sbag0
(g1
g2
(lp750
Vboy
p751
atp752
Rp753
(dp754
g14
VNN
p755
sbatp756
Rp757
(dp758
g14
VNP
p759
sbatp760
Rp761
(dp762
g14
VNP
p763
sbatp764
Rp765
(dp766
g14
VNP
p767
sbatp768
Rp769
(dp770
g14
VPP
p771
sbatp772
Rp773
(dp774
g14
VVP
p775
sbatp776
Rp777
(dp778
g14
VS
p779
sbatp780
Rp781
(dp782
g14
VSBAR
p783
sbatp784
Rp785
(dp786
g14
VNP
p787
sbatp788
Rp789
(dp790
g14
VVP
p791
sbatp792
Rp793
(dp794
g14
VVP
p795
sbag0
(g1
g2
(lp796
V.
p797
atp798
Rp799
(dp800
g14
V.
p801
sbatp802
Rp803
(dp804
g14
VS
p805
sbatp806
Rp807
(dp808
g14
S'id: 2'
p809
sbag0
(g1
g2
(lp810
g0
(g1
g2
(lp811
g0
(g1
g2
(lp812
g0
(g1
g2
(lp813
g0
(g1
g2
(lp814
g0
(g1
g2
(lp815
Vthere
p816
atp817
Rp818
(dp819
g14
VEX
p820
sbatp821
Rp822
(dp823
g14
VNP
p824
sbag0
(g1
g2
(lp825
g0
(g1
g2
(lp826
V's
p827
atp828
Rp829
(dp830
g14
VVBZ
p831
sbag0
(g1
g2
(lp832
g0
(g1
g2
(lp833
g0
(g1
g2
(lp834
Vanother
p835
atp836
Rp837
(dp838
g14
VDT
p839
sbag0
(g1
g2
(lp840
Vcouple
p841
atp842
Rp843
(dp844
g14
VNN
p845
sbatp846
Rp847
(dp848
g14
VNP
p849
sbag0
(g1
g2
(lp850
g0
(g1
g2
(lp851
Vin
p852
atp853
Rp854
(dp855
g14
VIN
p856
sbag0
(g1
g2
(lp857
g0
(g1
g2
(lp858
g0
(g1
g2
(lp859
Vthe
p860
atp861
Rp862
(dp863
g14
VDT
p864
sbag0
(g1
g2
(lp865
Vforeground
p866
atp867
Rp868
(dp869
g14
VNN
p870
sbatp871
Rp872
(dp873
g14
VNP
p874
sbag0
(g1
g2
(lp875
V,
p876
atp877
Rp878
(dp879
g14
V,
p880
sbag0
(g1
g2
(lp881
g0
(g1
g2
(lp882
Vmaybe
p883
atp884
Rp885
(dp886
g14
VRB
p887
sbag0
(g1
g2
(lp888
Vafrican
p889
atp890
Rp891
(dp892
g14
VJJ
p893
sbag0
(g1
g2
(lp894
Vamerican
p895
atp896
Rp897
(dp898
g14
VNN
p899
sbatp900
Rp901
(dp902
g14
VNP
p903
sbag0
(g1
g2
(lp904
V,
p905
atp906
Rp907
(dp908
g14
V,
p909
sbag0
(g1
g2
(lp910
g0
(g1
g2
(lp911
Va
p912
atp913
Rp914
(dp915
g14
VDT
p916
sbag0
(g1
g2
(lp917
Vfather
p918
atp919
Rp920
(dp921
g14
VNN
p922
sbatp923
Rp924
(dp925
g14
VNP
p926
sbag0
(g1
g2
(lp927
Vand
p928
atp929
Rp930
(dp931
g14
VCC
p932
sbag0
(g1
g2
(lp933
g0
(g1
g2
(lp934
Vdaughter
p935
atp936
Rp937
(dp938
g14
VNN
p939
sbatp940
Rp941
(dp942
g14
VNP
p943
sbatp944
Rp945
(dp946
g14
VNP
p947
sbatp948
Rp949
(dp950
g14
VPP
p951
sbatp952
Rp953
(dp954
g14
VNP
p955
sbatp956
Rp957
(dp958
g14
VVP
p959
sbatp960
Rp961
(dp962
g14
VS
p963
sbag0
(g1
g2
(lp964
Vand
p965
atp966
Rp967
(dp968
g14
VCC
p969
sbag0
(g1
g2
(lp970
g0
(g1
g2
(lp971
g0
(g1
g2
(lp972
Vthey
p973
atp974
Rp975
(dp976
g14
VPRP
p977
sbatp978
Rp979
(dp980
g14
VNP
p981
sbag0
(g1
g2
(lp982
g0
(g1
g2
(lp983
V're
p984
atp985
Rp986
(dp987
g14
VVBP
p988
sbag0
(g1
g2
(lp989
g0
(g1
g2
(lp990
Vpointing
p991
atp992
Rp993
(dp994
g14
VVBG
p995
sbatp996
Rp997
(dp998
g14
VVP
p999
sbatp1000
Rp1001
(dp1002
g14
VVP
p1003
sbatp1004
Rp1005
(dp1006
g14
VS
p1007
sbatp1008
Rp1009
(dp1010
g14
VS
p1011
sbag0
(g1
g2
(lp1012
V,
p1013
atp1014
Rp1015
(dp1016
g14
V,
p1017
sbag0
(g1
g2
(lp1018
g0
(g1
g2
(lp1019
Vthe
p1020
atp1021
Rp1022
(dp1023
g14
VDT
p1024
sbag0
(g1
g2
(lp1025
Vgirl
p1026
atp1027
Rp1028
(dp1029
g14
VNN
p1030
sbatp1031
Rp1032
(dp1033
g14
VNP
p1034
sbag0
(g1
g2
(lp1035
g0
(g1
g2
(lp1036
Vis
p1037
atp1038
Rp1039
(dp1040
g14
VVBZ
p1041
sbag0
(g1
g2
(lp1042
g0
(g1
g2
(lp1043
Vpointing
p1044
atp1045
Rp1046
(dp1047
g14
VVBG
p1048
sbag0
(g1
g2
(lp1049
g0
(g1
g2
(lp1050
Vat
p1051
atp1052
Rp1053
(dp1054
g14
VIN
p1055
sbag0
(g1
g2
(lp1056
g0
(g1
g2
(lp1057
Vthe
p1058
atp1059
Rp1060
(dp1061
g14
VDT
p1062
sbag0
(g1
g2
(lp1063
Vclown
p1064
atp1065
Rp1066
(dp1067
g14
VNN
p1068
sbatp1069
Rp1070
(dp1071
g14
VNP
p1072
sbatp1073
Rp1074
(dp1075
g14
VPP
p1076
sbatp1077
Rp1078
(dp1079
g14
VVP
p1080
sbatp1081
Rp1082
(dp1083
g14
VVP
p1084
sbag0
(g1
g2
(lp1085
V.
p1086
atp1087
Rp1088
(dp1089
g14
V.
p1090
sbatp1091
Rp1092
(dp1093
g14
VS
p1094
sbatp1095
Rp1096
(dp1097
g14
S'id: 3'
p1098
sbag0
(g1
g2
(lp1099
g0
(g1
g2
(lp1100
g0
(g1
g2
(lp1101
g0
(g1
g2
(lp1102
Vin
p1103
atp1104
Rp1105
(dp1106
g14
VIN
p1107
sbag0
(g1
g2
(lp1108
g0
(g1
g2
(lp1109
Vthe
p1110
atp1111
Rp1112
(dp1113
g14
VDT
p1114
sbag0
(g1
g2
(lp1115
Vbackground
p1116
atp1117
Rp1118
(dp1119
g14
VNN
p1120
sbatp1121
Rp1122
(dp1123
g14
VNP
p1124
sbatp1125
Rp1126
(dp1127
g14
VPP
p1128
sbag0
(g1
g2
(lp1129
g0
(g1
g2
(lp1130
Vwe
p1131
atp1132
Rp1133
(dp1134
g14
VPRP
p1135
sbatp1136
Rp1137
(dp1138
g14
VNP
p1139
sbag0
(g1
g2
(lp1140
g0
(g1
g2
(lp1141
Vhave
p1142
atp1143
Rp1144
(dp1145
g14
VVBP
p1146
sbag0
(g1
g2
(lp1147
g0
(g1
g2
(lp1148
g0
(g1
g2
(lp1149
Va
p1150
atp1151
Rp1152
(dp1153
g14
VDT
p1154
sbag0
(g1
g2
(lp1155
Vwoman
p1156
atp1157
Rp1158
(dp1159
g14
VNN
p1160
sbatp1161
Rp1162
(dp1163
g14
VNP
p1164
sbag0
(g1
g2
(lp1165
g0
(g1
g2
(lp1166
Vperforming
p1167
atp1168
Rp1169
(dp1170
g14
VVBG
p1171
sbag0
(g1
g2
(lp1172
g0
(g1
g2
(lp1173
Von
p1174
atp1175
Rp1176
(dp1177
g14
VIN
p1178
sbag0
(g1
g2
(lp1179
g0
(g1
g2
(lp1180
Vhorseback
p1181
atp1182
Rp1183
(dp1184
g14
VNN
p1185
sbatp1186
Rp1187
(dp1188
g14
VNP
p1189
sbatp1190
Rp1191
(dp1192
g14
VPP
p1193
sbatp1194
Rp1195
(dp1196
g14
VVP
p1197
sbatp1198
Rp1199
(dp1200
g14
VNP
p1201
sbatp1202
Rp1203
(dp1204
g14
VVP
p1205
sbag0
(g1
g2
(lp1206
V.
p1207
atp1208
Rp1209
(dp1210
g14
V.
p1211
sbatp1212
Rp1213
(dp1214
g14
VS
p1215
sbatp1216
Rp1217
(dp1218
g14
S'id: 4'
p1219
sbag0
(g1
g2
(lp1220
g0
(g1
g2
(lp1221
g0
(g1
g2
(lp1222
g0
(g1
g2
(lp1223
g0
(g1
g2
(lp1224
Vshe
p1225
atp1226
Rp1227
(dp1228
g14
VPRP
p1229
sbatp1230
Rp1231
(dp1232
g14
VNP
p1233
sbag0
(g1
g2
(lp1234
g0
(g1
g2
(lp1235
Vis
p1236
atp1237
Rp1238
(dp1239
g14
VVBZ
p1240
sbag0
(g1
g2
(lp1241
g0
(g1
g2
(lp1242
Vwearing
p1243
atp1244
Rp1245
(dp1246
g14
VVBG
p1247
sbag0
(g1
g2
(lp1248
g0
(g1
g2
(lp1249
g0
(g1
g2
(lp1250
Vsome
p1251
atp1252
Rp1253
(dp1254
g14
VDT
p1255
sbag0
(g1
g2
(lp1256
Vsort
p1257
atp1258
Rp1259
(dp1260
g14
VNN
p1261
sbatp1262
Rp1263
(dp1264
g14
VNP
p1265
sbag0
(g1
g2
(lp1266
g0
(g1
g2
(lp1267
Vof
p1268
atp1269
Rp1270
(dp1271
g14
VIN
p1272
sbag0
(g1
g2
(lp1273
g0
(g1
g2
(lp1274
Vtutu
p1275
atp1276
Rp1277
(dp1278
g14
VNN
p1279
sbatp1280
Rp1281
(dp1282
g14
VNP
p1283
sbatp1284
Rp1285
(dp1286
g14
VPP
p1287
sbatp1288
Rp1289
(dp1290
g14
VNP
p1291
sbatp1292
Rp1293
(dp1294
g14
VVP
p1295
sbatp1296
Rp1297
(dp1298
g14
VVP
p1299
sbatp1300
Rp1301
(dp1302
g14
VS
p1303
sbag0
(g1
g2
(lp1304
Vand
p1305
atp1306
Rp1307
(dp1308
g14
VCC
p1309
sbag0
(g1
g2
(lp1310
g0
(g1
g2
(lp1311
g0
(g1
g2
(lp1312
Vshe
p1313
atp1314
Rp1315
(dp1316
g14
VPRP
p1317
sbatp1318
Rp1319
(dp1320
g14
VNP
p1321
sbag0
(g1
g2
(lp1322
g0
(g1
g2
(lp1323
Vseems
p1324
atp1325
Rp1326
(dp1327
g14
VVBZ
p1328
sbag0
(g1
g2
(lp1329
g0
(g1
g2
(lp1330
g0
(g1
g2
(lp1331
Vto
p1332
atp1333
Rp1334
(dp1335
g14
VTO
p1336
sbag0
(g1
g2
(lp1337
g0
(g1
g2
(lp1338
Vbe
p1339
atp1340
Rp1341
(dp1342
g14
VVB
p1343
sbag0
(g1
g2
(lp1344
g0
(g1
g2
(lp1345
Vkneeling
p1346
atp1347
Rp1348
(dp1349
g14
VVBG
p1350
sbag0
(g1
g2
(lp1351
g0
(g1
g2
(lp1352
Von
p1353
atp1354
Rp1355
(dp1356
g14
VIN
p1357
sbag0
(g1
g2
(lp1358
g0
(g1
g2
(lp1359
g0
(g1
g2
(lp1360
Vthe
p1361
atp1362
Rp1363
(dp1364
g14
VDT
p1365
sbag0
(g1
g2
(lp1366
Vback
p1367
atp1368
Rp1369
(dp1370
g14
VNN
p1371
sbatp1372
Rp1373
(dp1374
g14
VNP
p1375
sbag0
(g1
g2
(lp1376
g0
(g1
g2
(lp1377
Vof
p1378
atp1379
Rp1380
(dp1381
g14
VIN
p1382
sbag0
(g1
g2
(lp1383
g0
(g1
g2
(lp1384
Vthe
p1385
atp1386
Rp1387
(dp1388
g14
VDT
p1389
sbag0
(g1
g2
(lp1390
Vhorse
p1391
atp1392
Rp1393
(dp1394
g14
VNN
p1395
sbatp1396
Rp1397
(dp1398
g14
VNP
p1399
sbatp1400
Rp1401
(dp1402
g14
VPP
p1403
sbatp1404
Rp1405
(dp1406
g14
VNP
p1407
sbatp1408
Rp1409
(dp1410
g14
VPP
p1411
sbatp1412
Rp1413
(dp1414
g14
VVP
p1415
sbatp1416
Rp1417
(dp1418
g14
VVP
p1419
sbatp1420
Rp1421
(dp1422
g14
VVP
p1423
sbatp1424
Rp1425
(dp1426
g14
VS
p1427
sbatp1428
Rp1429
(dp1430
g14
VVP
p1431
sbatp1432
Rp1433
(dp1434
g14
VS
p1435
sbag0
(g1
g2
(lp1436
V.
p1437
atp1438
Rp1439
(dp1440
g14
V.
p1441
sbatp1442
Rp1443
(dp1444
g14
VS
p1445
sbatp1446
Rp1447
(dp1448
g14
S'id: 5'
p1449
sbag0
(g1
g2
(lp1450
g0
(g1
g2
(lp1451
g0
(g1
g2
(lp1452
g0
(g1
g2
(lp1453
Vthere
p1454
atp1455
Rp1456
(dp1457
g14
VEX
p1458
sbatp1459
Rp1460
(dp1461
g14
VNP
p1462
sbag0
(g1
g2
(lp1463
g0
(g1
g2
(lp1464
Vis
p1465
atp1466
Rp1467
(dp1468
g14
VVBZ
p1469
sbag0
(g1
g2
(lp1470
g0
(g1
g2
(lp1471
g0
(g1
g2
(lp1472
Van
p1473
atp1474
Rp1475
(dp1476
g14
VDT
p1477
sbag0
(g1
g2
(lp1478
Vaudience
p1479
atp1480
Rp1481
(dp1482
g14
VNN
p1483
sbatp1484
Rp1485
(dp1486
g14
VNP
p1487
sbag0
(g1
g2
(lp1488
g0
(g1
g2
(lp1489
Vof
p1490
atp1491
Rp1492
(dp1493
g14
VIN
p1494
sbag0
(g1
g2
(lp1495
g0
(g1
g2
(lp1496
g0
(g1
g2
(lp1497
Vfive
p1498
atp1499
Rp1500
(dp1501
g14
VCD
p1502
sbag0
(g1
g2
(lp1503
Vpeople
p1504
atp1505
Rp1506
(dp1507
g14
VNNS
p1508
sbatp1509
Rp1510
(dp1511
g14
VNP
p1512
sbag0
(g1
g2
(lp1513
g0
(g1
g2
(lp1514
Vwatching
p1515
atp1516
Rp1517
(dp1518
g14
VVBG
p1519
sbag0
(g1
g2
(lp1520
g0
(g1
g2
(lp1521
Vher
p1522
atp1523
Rp1524
(dp1525
g14
VPRP
p1526
sbatp1527
Rp1528
(dp1529
g14
VNP
p1530
sbatp1531
Rp1532
(dp1533
g14
VVP
p1534
sbatp1535
Rp1536
(dp1537
g14
VNP
p1538
sbatp1539
Rp1540
(dp1541
g14
VPP
p1542
sbatp1543
Rp1544
(dp1545
g14
VNP
p1546
sbatp1547
Rp1548
(dp1549
g14
VVP
p1550
sbag0
(g1
g2
(lp1551
V.
p1552
atp1553
Rp1554
(dp1555
g14
V.
p1556
sbatp1557
Rp1558
(dp1559
g14
VS
p1560
sbatp1561
Rp1562
(dp1563
g14
S'id: 6'
p1564
sbag0
(g1
g2
(lp1565
g0
(g1
g2
(lp1566
g0
(g1
g2
(lp1567
g0
(g1
g2
(lp1568
Vwe
p1569
atp1570
Rp1571
(dp1572
g14
VPRP
p1573
sbatp1574
Rp1575
(dp1576
g14
VNP
p1577
sbag0
(g1
g2
(lp1578
g0
(g1
g2
(lp1579
Vca
p1580
atp1581
Rp1582
(dp1583
g14
VMD
p1584
sbag0
(g1
g2
(lp1585
Vn't
p1586
atp1587
Rp1588
(dp1589
g14
VRB
p1590
sbag0
(g1
g2
(lp1591
g0
(g1
g2
(lp1592
Vsee
p1593
atp1594
Rp1595
(dp1596
g14
VVB
p1597
sbag0
(g1
g2
(lp1598
g0
(g1
g2
(lp1599
Vthem
p1600
atp1601
Rp1602
(dp1603
g14
VPRP
p1604
sbatp1605
Rp1606
(dp1607
g14
VNP
p1608
sbag0
(g1
g2
(lp1609
g0
(g1
g2
(lp1610
g0
(g1
g2
(lp1611
Vvery
p1612
atp1613
Rp1614
(dp1615
g14
VRB
p1616
sbag0
(g1
g2
(lp1617
Vwell
p1618
atp1619
Rp1620
(dp1621
g14
VRB
p1622
sbatp1623
Rp1624
(dp1625
g14
VADVP
p1626
sbag0
(g1
g2
(lp1627
g0
(g1
g2
(lp1628
Vbecause
p1629
atp1630
Rp1631
(dp1632
g14
VIN
p1633
sbag0
(g1
g2
(lp1634
g0
(g1
g2
(lp1635
g0
(g1
g2
(lp1636
Vthey
p1637
atp1638
Rp1639
(dp1640
g14
VPRP
p1641
sbatp1642
Rp1643
(dp1644
g14
VNP
p1645
sbag0
(g1
g2
(lp1646
g0
(g1
g2
(lp1647
V're
p1648
atp1649
Rp1650
(dp1651
g14
VVBP
p1652
sbag0
(g1
g2
(lp1653
g0
(g1
g2
(lp1654
Vin
p1655
atp1656
Rp1657
(dp1658
g14
VIN
p1659
sbag0
(g1
g2
(lp1660
g0
(g1
g2
(lp1661
Vshadow
p1662
atp1663
Rp1664
(dp1665
g14
VNN
p1666
sbatp1667
Rp1668
(dp1669
g14
VNP
p1670
sbatp1671
Rp1672
(dp1673
g14
VPP
p1674
sbatp1675
Rp1676
(dp1677
g14
VVP
p1678
sbatp1679
Rp1680
(dp1681
g14
VS
p1682
sbatp1683
Rp1684
(dp1685
g14
VSBAR
p1686
sbatp1687
Rp1688
(dp1689
g14
VADVP
p1690
sbatp1691
Rp1692
(dp1693
g14
VVP
p1694
sbatp1695
Rp1696
(dp1697
g14
VVP
p1698
sbag0
(g1
g2
(lp1699
V.
p1700
atp1701
Rp1702
(dp1703
g14
V.
p1704
sbatp1705
Rp1706
(dp1707
g14
VS
p1708
sbatp1709
Rp1710
(dp1711
g14
S'id: 7'
p1712
sbag0
(g1
g2
(lp1713
g0
(g1
g2
(lp1714
g0
(g1
g2
(lp1715
g0
(g1
g2
(lp1716
g0
(g1
g2
(lp1717
g0
(g1
g2
(lp1718
Voverhead
p1719
atp1720
Rp1721
(dp1722
g14
VRB
p1723
sbatp1724
Rp1725
(dp1726
g14
VADVP
p1727
sbag0
(g1
g2
(lp1728
g0
(g1
g2
(lp1729
Vwe
p1730
atp1731
Rp1732
(dp1733
g14
VPRP
p1734
sbatp1735
Rp1736
(dp1737
g14
VNP
p1738
sbag0
(g1
g2
(lp1739
g0
(g1
g2
(lp1740
Vhave
p1741
atp1742
Rp1743
(dp1744
g14
VVBP
p1745
sbag0
(g1
g2
(lp1746
g0
(g1
g2
(lp1747
Va
p1748
atp1749
Rp1750
(dp1751
g14
VDT
p1752
sbag0
(g1
g2
(lp1753
Vtightrope
p1754
atp1755
Rp1756
(dp1757
g14
VNN
p1758
sbag0
(g1
g2
(lp1759
Vwalker
p1760
atp1761
Rp1762
(dp1763
g14
VNN
p1764
sbatp1765
Rp1766
(dp1767
g14
VNP
p1768
sbatp1769
Rp1770
(dp1771
g14
VVP
p1772
sbatp1773
Rp1774
(dp1775
g14
VS
p1776
sbag0
(g1
g2
(lp1777
Vand
p1778
atp1779
Rp1780
(dp1781
g14
VCC
p1782
sbag0
(g1
g2
(lp1783
g0
(g1
g2
(lp1784
g0
(g1
g2
(lp1785
g0
(g1
g2
(lp1786
Vhe
p1787
atp1788
Rp1789
(dp1790
g14
VPRP
p1791
sbatp1792
Rp1793
(dp1794
g14
VNP
p1795
sbag0
(g1
g2
(lp1796
g0
(g1
g2
(lp1797
Vis
p1798
atp1799
Rp1800
(dp1801
g14
VVBZ
p1802
sbag0
(g1
g2
(lp1803
g0
(g1
g2
(lp1804
Vdressed
p1805
atp1806
Rp1807
(dp1808
g14
VVBN
p1809
sbag0
(g1
g2
(lp1810
g0
(g1
g2
(lp1811
Vin
p1812
atp1813
Rp1814
(dp1815
g14
VIN
p1816
sbag0
(g1
g2
(lp1817
g0
(g1
g2
(lp1818
Vall
p1819
atp1820
Rp1821
(dp1822
g14
VDT
p1823
sbag0
(g1
g2
(lp1824
Vblack
p1825
atp1826
Rp1827
(dp1828
g14
VJJ
p1829
sbatp1830
Rp1831
(dp1832
g14
VNP
p1833
sbatp1834
Rp1835
(dp1836
g14
VPP
p1837
sbatp1838
Rp1839
(dp1840
g14
VVP
p1841
sbatp1842
Rp1843
(dp1844
g14
VVP
p1845
sbatp1846
Rp1847
(dp1848
g14
VS
p1849
sbag0
(g1
g2
(lp1850
Vand
p1851
atp1852
Rp1853
(dp1854
g14
VCC
p1855
sbag0
(g1
g2
(lp1856
g0
(g1
g2
(lp1857
g0
(g1
g2
(lp1858
Vhe
p1859
atp1860
Rp1861
(dp1862
g14
VPRP
p1863
sbatp1864
Rp1865
(dp1866
g14
VNP
p1867
sbag0
(g1
g2
(lp1868
g0
(g1
g2
(lp1869
Vis
p1870
atp1871
Rp1872
(dp1873
g14
VVBZ
p1874
sbag0
(g1
g2
(lp1875
g0
(g1
g2
(lp1876
Vcarrying
p1877
atp1878
Rp1879
(dp1880
g14
VVBG
p1881
sbag0
(g1
g2
(lp1882
g0
(g1
g2
(lp1883
Va
p1884
atp1885
Rp1886
(dp1887
g14
VDT
p1888
sbag0
(g1
g2
(lp1889
Vbalancing
p1890
atp1891
Rp1892
(dp1893
g14
VVBG
p1894
sbag0
(g1
g2
(lp1895
Vbar
p1896
atp1897
Rp1898
(dp1899
g14
VNN
p1900
sbatp1901
Rp1902
(dp1903
g14
VNP
p1904
sbatp1905
Rp1906
(dp1907
g14
VVP
p1908
sbatp1909
Rp1910
(dp1911
g14
VVP
p1912
sbatp1913
Rp1914
(dp1915
g14
VS
p1916
sbatp1917
Rp1918
(dp1919
g14
VS
p1920
sbatp1921
Rp1922
(dp1923
g14
VS
p1924
sbag0
(g1
g2
(lp1925
V,
p1926
atp1927
Rp1928
(dp1929
g14
V,
p1930
sbag0
(g1
g2
(lp1931
g0
(g1
g2
(lp1932
Vi
p1933
atp1934
Rp1935
(dp1936
g14
VFW
p1937
sbatp1938
Rp1939
(dp1940
g14
VNP
p1941
sbag0
(g1
g2
(lp1942
g0
(g1
g2
(lp1943
Vdo
p1944
atp1945
Rp1946
(dp1947
g14
VVBP
p1948
sbag0
(g1
g2
(lp1949
Vn't
p1950
atp1951
Rp1952
(dp1953
g14
VRB
p1954
sbag0
(g1
g2
(lp1955
g0
(g1
g2
(lp1956
Vknow
p1957
atp1958
Rp1959
(dp1960
g14
VVB
p1961
sbag0
(g1
g2
(lp1962
g0
(g1
g2
(lp1963
g0
(g1
g2
(lp1964
Vwhat
p1965
atp1966
Rp1967
(dp1968
g14
VWP
p1969
sbatp1970
Rp1971
(dp1972
g14
VWHNP
p1973
sbag0
(g1
g2
(lp1974
g0
(g1
g2
(lp1975
g0
(g1
g2
(lp1976
Vyou
p1977
atp1978
Rp1979
(dp1980
g14
VPRP
p1981
sbatp1982
Rp1983
(dp1984
g14
VNP
p1985
sbag0
(g1
g2
(lp1986
g0
(g1
g2
(lp1987
Vcall
p1988
atp1989
Rp1990
(dp1991
g14
VVBP
p1992
sbag0
(g1
g2
(lp1993
g0
(g1
g2
(lp1994
Vthat
p1995
atp1996
Rp1997
(dp1998
g14
VIN
p1999
sbatp2000
Rp2001
(dp2002
g14
VADVP
p2003
sbatp2004
Rp2005
(dp2006
g14
VVP
p2007
sbatp2008
Rp2009
(dp2010
g14
VS
p2011
sbatp2012
Rp2013
(dp2014
g14
VSBAR
p2015
sbatp2016
Rp2017
(dp2018
g14
VVP
p2019
sbatp2020
Rp2021
(dp2022
g14
VVP
p2023
sbag0
(g1
g2
(lp2024
V.
p2025
atp2026
Rp2027
(dp2028
g14
V.
p2029
sbatp2030
Rp2031
(dp2032
g14
VS
p2033
sbatp2034
Rp2035
(dp2036
g14
S'id: 8'
p2037
sbag0
(g1
g2
(lp2038
g0
(g1
g2
(lp2039
g0
(g1
g2
(lp2040
g0
(g1
g2
(lp2041
g0
(g1
g2
(lp2042
Vback
p2043
atp2044
Rp2045
(dp2046
g14
VRB
p2047
sbag0
(g1
g2
(lp2048
g0
(g1
g2
(lp2049
Vto
p2050
atp2051
Rp2052
(dp2053
g14
VTO
p2054
sbag0
(g1
g2
(lp2055
g0
(g1
g2
(lp2056
g0
(g1
g2
(lp2057
Vthe
p2058
atp2059
Rp2060
(dp2061
g14
VDT
p2062
sbag0
(g1
g2
(lp2063
Vlion
p2064
atp2065
Rp2066
(dp2067
g14
VNN
p2068
sbatp2069
Rp2070
(dp2071
g14
VNP
p2072
sbag0
(g1
g2
(lp2073
g0
(g1
g2
(lp2074
Vin
p2075
atp2076
Rp2077
(dp2078
g14
VIN
p2079
sbag0
(g1
g2
(lp2080
g0
(g1
g2
(lp2081
Vthe
p2082
atp2083
Rp2084
(dp2085
g14
VDT
p2086
sbag0
(g1
g2
(lp2087
Vcage
p2088
atp2089
Rp2090
(dp2091
g14
VNN
p2092
sbatp2093
Rp2094
(dp2095
g14
VNP
p2096
sbatp2097
Rp2098
(dp2099
g14
VPP
p2100
sbatp2101
Rp2102
(dp2103
g14
VNP
p2104
sbatp2105
Rp2106
(dp2107
g14
VPP
p2108
sbatp2109
Rp2110
(dp2111
g14
VADVP
p2112
sbag0
(g1
g2
(lp2113
Vthe
p2114
atp2115
Rp2116
(dp2117
g14
VDT
p2118
sbag0
(g1
g2
(lp2119
Vlion
p2120
atp2121
Rp2122
(dp2123
g14
VNN
p2124
sbatp2125
Rp2126
(dp2127
g14
VNP
p2128
sbag0
(g1
g2
(lp2129
g0
(g1
g2
(lp2130
g0
(g1
g2
(lp2131
g0
(g1
g2
(lp2132
g0
(g1
g2
(lp2133
Vtamer
p2134
atp2135
Rp2136
(dp2137
g14
VJJR
p2138
sbatp2139
Rp2140
(dp2141
g14
VNP
p2142
sbag0
(g1
g2
(lp2143
V's
p2144
atp2145
Rp2146
(dp2147
g14
VPOS
p2148
sbag0
(g1
g2
(lp2149
Vwearing
p2150
atp2151
Rp2152
(dp2153
g14
VVBG
p2154
sbatp2155
Rp2156
(dp2157
g14
VNP
p2158
sbag0
(g1
g2
(lp2159
V,
p2160
atp2161
Rp2162
(dp2163
g14
V,
p2164
sbag0
(g1
g2
(lp2165
g0
(g1
g2
(lp2166
Va
p2167
atp2168
Rp2169
(dp2170
g14
VDT
p2171
sbag0
(g1
g2
(lp2172
Vdress
p2173
atp2174
Rp2175
(dp2176
g14
VNN
p2177
sbag0
(g1
g2
(lp2178
Vcoat
p2179
atp2180
Rp2181
(dp2182
g14
VNN
p2183
sbatp2184
Rp2185
(dp2186
g14
VNP
p2187
sbatp2188
Rp2189
(dp2190
g14
VNP
p2191
sbag0
(g1
g2
(lp2192
g0
(g1
g2
(lp2193
Vwith
p2194
atp2195
Rp2196
(dp2197
g14
VIN
p2198
sbag0
(g1
g2
(lp2199
g0
(g1
g2
(lp2200
g0
(g1
g2
(lp2201
Vtails
p2202
atp2203
Rp2204
(dp2205
g14
VNNS
p2206
sbatp2207
Rp2208
(dp2209
g14
VNP
p2210
sbag0
(g1
g2
(lp2211
Vand
p2212
atp2213
Rp2214
(dp2215
g14
VCC
p2216
sbag0
(g1
g2
(lp2217
g0
(g1
g2
(lp2218
Va
p2219
atp2220
Rp2221
(dp2222
g14
VDT
p2223
sbag0
(g1
g2
(lp2224
Vtop
p2225
atp2226
Rp2227
(dp2228
g14
VJJ
p2229
sbag0
(g1
g2
(lp2230
Vhat
p2231
atp2232
Rp2233
(dp2234
g14
VNN
p2235
sbatp2236
Rp2237
(dp2238
g14
VNP
p2239
sbatp2240
Rp2241
(dp2242
g14
VNP
p2243
sbatp2244
Rp2245
(dp2246
g14
VPP
p2247
sbatp2248
Rp2249
(dp2250
g14
VNP
p2251
sbag0
(g1
g2
(lp2252
V.
p2253
atp2254
Rp2255
(dp2256
g14
V.
p2257
sbatp2258
Rp2259
(dp2260
g14
VNP
p2261
sbatp2262
Rp2263
(dp2264
g14
S'id: 9'
p2265
sbag0
(g1
g2
(lp2266
g0
(g1
g2
(lp2267
g0
(g1
g2
(lp2268
Vand
p2269
atp2270
Rp2271
(dp2272
g14
VCC
p2273
sbag0
(g1
g2
(lp2274
g0
(g1
g2
(lp2275
Vthere
p2276
atp2277
Rp2278
(dp2279
g14
VEX
p2280
sbatp2281
Rp2282
(dp2283
g14
VNP
p2284
sbag0
(g1
g2
(lp2285
g0
(g1
g2
(lp2286
Vseems
p2287
atp2288
Rp2289
(dp2290
g14
VVBZ
p2291
sbag0
(g1
g2
(lp2292
g0
(g1
g2
(lp2293
g0
(g1
g2
(lp2294
Vto
p2295
atp2296
Rp2297
(dp2298
g14
VTO
p2299
sbag0
(g1
g2
(lp2300
g0
(g1
g2
(lp2301
Vbe
p2302
atp2303
Rp2304
(dp2305
g14
VVB
p2306
sbag0
(g1
g2
(lp2307
g0
(g1
g2
(lp2308
g0
(g1
g2
(lp2309
Vsome
p2310
atp2311
Rp2312
(dp2313
g14
VDT
p2314
sbag0
(g1
g2
(lp2315
Vtrees
p2316
atp2317
Rp2318
(dp2319
g14
VNNS
p2320
sbatp2321
Rp2322
(dp2323
g14
VNP
p2324
sbag0
(g1
g2
(lp2325
g0
(g1
g2
(lp2326
Vin
p2327
atp2328
Rp2329
(dp2330
g14
VIN
p2331
sbag0
(g1
g2
(lp2332
g0
(g1
g2
(lp2333
g0
(g1
g2
(lp2334
Vthe
p2335
atp2336
Rp2337
(dp2338
g14
VDT
p2339
sbag0
(g1
g2
(lp2340
Vbackground
p2341
atp2342
Rp2343
(dp2344
g14
VNN
p2345
sbatp2346
Rp2347
(dp2348
g14
VNP
p2349
sbag0
(g1
g2
(lp2350
Vand
p2351
atp2352
Rp2353
(dp2354
g14
VCC
p2355
sbag0
(g1
g2
(lp2356
g0
(g1
g2
(lp2357
Vthe
p2358
atp2359
Rp2360
(dp2361
g14
VDT
p2362
sbag0
(g1
g2
(lp2363
Vterrain
p2364
atp2365
Rp2366
(dp2367
g14
VNN
p2368
sbag0
(g1
g2
(lp2369
Vslopes
p2370
atp2371
Rp2372
(dp2373
g14
VNNS
p2374
sbatp2375
Rp2376
(dp2377
g14
VNP
p2378
sbatp2379
Rp2380
(dp2381
g14
VNP
p2382
sbatp2383
Rp2384
(dp2385
g14
VPP
p2386
sbatp2387
Rp2388
(dp2389
g14
VNP
p2390
sbag0
(g1
g2
(lp2391
g0
(g1
g2
(lp2392
Vfrom
p2393
atp2394
Rp2395
(dp2396
g14
VIN
p2397
sbag0
(g1
g2
(lp2398
g0
(g1
g2
(lp2399
g0
(g1
g2
(lp2400
Vthe
p2401
atp2402
Rp2403
(dp2404
g14
VDT
p2405
sbag0
(g1
g2
(lp2406
Vright
p2407
atp2408
Rp2409
(dp2410
g14
VNN
p2411
sbatp2412
Rp2413
(dp2414
g14
VNP
p2415
sbag0
(g1
g2
(lp2416
g0
(g1
g2
(lp2417
Vto
p2418
atp2419
Rp2420
(dp2421
g14
VTO
p2422
sbag0
(g1
g2
(lp2423
g0
(g1
g2
(lp2424
Vthe
p2425
atp2426
Rp2427
(dp2428
g14
VDT
p2429
sbag0
(g1
g2
(lp2430
Vleft
p2431
atp2432
Rp2433
(dp2434
g14
VNN
p2435
sbatp2436
Rp2437
(dp2438
g14
VNP
p2439
sbatp2440
Rp2441
(dp2442
g14
VPP
p2443
sbatp2444
Rp2445
(dp2446
g14
VNP
p2447
sbatp2448
Rp2449
(dp2450
g14
VPP
p2451
sbatp2452
Rp2453
(dp2454
g14
VVP
p2455
sbatp2456
Rp2457
(dp2458
g14
VVP
p2459
sbatp2460
Rp2461
(dp2462
g14
VS
p2463
sbatp2464
Rp2465
(dp2466
g14
VVP
p2467
sbag0
(g1
g2
(lp2468
V.
p2469
atp2470
Rp2471
(dp2472
g14
V.
p2473
sbatp2474
Rp2475
(dp2476
g14
VS
p2477
sbatp2478
Rp2479
(dp2480
g14
S'id: 10'
p2481
sbatp2482
Rp2483
(dp2484
g14
S'sentences'
p2485
sb.