ccopy_reg
_reconstructor
p0
(cnltk.tree
Tree
p1
c__builtin__
list
p2
(lp3
g0
(g1
g2
(lp4
g0
(g1
g2
(lp5
g0
(g1
g2
(lp6
g0
(g1
g2
(lp7
g0
(g1
g2
(lp8
g0
(g1
g2
(lp9
Vokay
p10
atp11
Rp12
(dp13
S'_label'
p14
VJJ
p15
sbatp16
Rp17
(dp18
g14
VADJP
p19
sbatp20
Rp21
(dp22
g14
VS
p23
sbag0
(g1
g2
(lp24
V,
p25
atp26
Rp27
(dp28
g14
V,
p29
sbag0
(g1
g2
(lp30
g0
(g1
g2
(lp31
Vthis
p32
atp33
Rp34
(dp35
g14
VDT
p36
sbatp37
Rp38
(dp39
g14
VNP
p40
sbag0
(g1
g2
(lp41
g0
(g1
g2
(lp42
Vis
p43
atp44
Rp45
(dp46
g14
VVBZ
p47
sbag0
(g1
g2
(lp48
V,
p49
atp50
Rp51
(dp52
g14
V,
p53
sbag0
(g1
g2
(lp54
g0
(g1
g2
(lp55
g0
(g1
g2
(lp56
Va
p57
atp58
Rp59
(dp60
g14
VDT
p61
sbag0
(g1
g2
(lp62
Vcouple
p63
atp64
Rp65
(dp66
g14
VNN
p67
sbatp68
Rp69
(dp70
g14
VNP
p71
sbag0
(g1
g2
(lp72
g0
(g1
g2
(lp73
Vhaving
p74
atp75
Rp76
(dp77
g14
VVBG
p78
sbag0
(g1
g2
(lp79
g0
(g1
g2
(lp80
Va
p81
atp82
Rp83
(dp84
g14
VDT
p85
sbag0
(g1
g2
(lp86
Vpicnic
p87
atp88
Rp89
(dp90
g14
VNN
p91
sbatp92
Rp93
(dp94
g14
VNP
p95
sbatp96
Rp97
(dp98
g14
VVP
p99
sbatp100
Rp101
(dp102
g14
VS
p103
sbatp104
Rp105
(dp106
g14
VVP
p107
sbatp108
Rp109
(dp110
g14
VS
p111
sbag0
(g1
g2
(lp112
V,
p113
atp114
Rp115
(dp116
g14
V,
p117
sbag0
(g1
g2
(lp118
Vand
p119
atp120
Rp121
(dp122
g14
VCC
p123
sbag0
(g1
g2
(lp124
g0
(g1
g2
(lp125
g0
(g1
g2
(lp126
Vthere
p127
atp128
Rp129
(dp130
g14
VEX
p131
sbatp132
Rp133
(dp134
g14
VNP
p135
sbag0
(g1
g2
(lp136
g0
(g1
g2
(lp137
V's
p138
atp139
Rp140
(dp141
g14
VVBZ
p142
sbag0
(g1
g2
(lp143
g0
(g1
g2
(lp144
g0
(g1
g2
(lp145
Va
p146
atp147
Rp148
(dp149
g14
VDT
p150
sbag0
(g1
g2
(lp151
Vlot
p152
atp153
Rp154
(dp155
g14
VNN
p156
sbatp157
Rp158
(dp159
g14
VNP
p160
sbag0
(g1
g2
(lp161
g0
(g1
g2
(lp162
Vgoing
p163
atp164
Rp165
(dp166
g14
VVBG
p167
sbag0
(g1
g2
(lp168
g0
(g1
g2
(lp169
Von
p170
atp171
Rp172
(dp173
g14
VIN
p174
sbatp175
Rp176
(dp177
g14
VPP
p178
sbatp179
Rp180
(dp181
g14
VVP
p182
sbatp183
Rp184
(dp185
g14
VNP
p186
sbatp187
Rp188
(dp189
g14
VVP
p190
sbatp191
Rp192
(dp193
g14
VS
p194
sbag0
(g1
g2
(lp195
V.
p196
atp197
Rp198
(dp199
g14
V.
p200
sbatp201
Rp202
(dp203
g14
VS
p204
sbatp205
Rp206
(dp207
g14
S'id: 0'
p208
sbag0
(g1
g2
(lp209
g0
(g1
g2
(lp210
g0
(g1
g2
(lp211
g0
(g1
g2
(lp212
Vthey
p213
atp214
Rp215
(dp216
g14
VPRP
p217
sbatp218
Rp219
(dp220
g14
VNP
p221
sbag0
(g1
g2
(lp222
g0
(g1
g2
(lp223
V're
p224
atp225
Rp226
(dp227
g14
VVBP
p228
sbatp229
Rp230
(dp231
g14
VVP
p232
sbag0
(g1
g2
(lp233
V,
p234
atp235
Rp236
(dp237
g14
V,
p238
sbag0
(g1
g2
(lp239
g0
(g1
g2
(lp240
g0
(g1
g2
(lp241
Vbeside
p242
atp243
Rp244
(dp245
g14
VIN
p246
sbag0
(g1
g2
(lp247
g0
(g1
g2
(lp248
Vthe
p249
atp250
Rp251
(dp252
g14
VDT
p253
sbag0
(g1
g2
(lp254
Vlake
p255
atp256
Rp257
(dp258
g14
VNN
p259
sbatp260
Rp261
(dp262
g14
VNP
p263
sbatp264
Rp265
(dp266
g14
VPP
p267
sbatp268
Rp269
(dp270
g14
VX
p271
sbag0
(g1
g2
(lp272
V.
p273
atp274
Rp275
(dp276
g14
V.
p277
sbatp278
Rp279
(dp280
g14
VS
p281
sbatp282
Rp283
(dp284
g14
S'id: 1'
p285
sbag0
(g1
g2
(lp286
g0
(g1
g2
(lp287
g0
(g1
g2
(lp288
g0
(g1
g2
(lp289
Von
p290
atp291
Rp292
(dp293
g14
VIN
p294
sbag0
(g1
g2
(lp295
g0
(g1
g2
(lp296
Vthe
p297
atp298
Rp299
(dp300
g14
VDT
p301
sbag0
(g1
g2
(lp302
Vlake
p303
atp304
Rp305
(dp306
g14
VNN
p307
sbatp308
Rp309
(dp310
g14
VNP
p311
sbatp312
Rp313
(dp314
g14
VPP
p315
sbag0
(g1
g2
(lp316
g0
(g1
g2
(lp317
Vwe
p318
atp319
Rp320
(dp321
g14
VPRP
p322
sbatp323
Rp324
(dp325
g14
VNP
p326
sbag0
(g1
g2
(lp327
g0
(g1
g2
(lp328
Vhave
p329
atp330
Rp331
(dp332
g14
VVBP
p333
sbag0
(g1
g2
(lp334
g0
(g1
g2
(lp335
Va
p336
atp337
Rp338
(dp339
g14
VDT
p340
sbag0
(g1
g2
(lp341
Vsail
p342
atp343
Rp344
(dp345
g14
VNN
p346
sbag0
(g1
g2
(lp347
Vboat
p348
atp349
Rp350
(dp351
g14
VNN
p352
sbatp353
Rp354
(dp355
g14
VNP
p356
sbatp357
Rp358
(dp359
g14
VVP
p360
sbag0
(g1
g2
(lp361
V.
p362
atp363
Rp364
(dp365
g14
V.
p366
sbatp367
Rp368
(dp369
g14
VS
p370
sbatp371
Rp372
(dp373
g14
S'id: 2'
p374
sbag0
(g1
g2
(lp375
g0
(g1
g2
(lp376
g0
(g1
g2
(lp377
g0
(g1
g2
(lp378
Vthe
p379
atp380
Rp381
(dp382
g14
VDT
p383
sbag0
(g1
g2
(lp384
Vsail
p385
atp386
Rp387
(dp388
g14
VNN
p389
sbag0
(g1
g2
(lp390
Vboat
p391
atp392
Rp393
(dp394
g14
VNN
p395
sbatp396
Rp397
(dp398
g14
VNP
p399
sbag0
(g1
g2
(lp400
g0
(g1
g2
(lp401
Vhas
p402
atp403
Rp404
(dp405
g14
VVBZ
p406
sbag0
(g1
g2
(lp407
g0
(g1
g2
(lp408
Vthe
p409
atp410
Rp411
(dp412
g14
VDT
p413
sbag0
(g1
g2
(lp414
Vnumber
p415
atp416
Rp417
(dp418
g14
VNN
p419
sbag0
(g1
g2
(lp420
Vfour
p421
atp422
Rp423
(dp424
g14
VCD
p425
sbatp426
Rp427
(dp428
g14
VNP
p429
sbag0
(g1
g2
(lp430
g0
(g1
g2
(lp431
g0
(g1
g2
(lp432
Vseven
p433
atp434
Rp435
(dp436
g14
VCD
p437
sbag0
(g1
g2
(lp438
Vzero
p439
atp440
Rp441
(dp442
g14
VCD
p443
sbatp444
Rp445
(dp446
g14
VNP
p447
sbag0
(g1
g2
(lp448
Von
p449
atp450
Rp451
(dp452
g14
VIN
p453
sbag0
(g1
g2
(lp454
g0
(g1
g2
(lp455
Vthe
p456
atp457
Rp458
(dp459
g14
VDT
p460
sbag0
(g1
g2
(lp461
Vsails
p462
atp463
Rp464
(dp465
g14
VNNS
p466
sbatp467
Rp468
(dp469
g14
VNP
p470
sbatp471
Rp472
(dp473
g14
VPP
p474
sbatp475
Rp476
(dp477
g14
VVP
p478
sbag0
(g1
g2
(lp479
V.
p480
atp481
Rp482
(dp483
g14
V.
p484
sbatp485
Rp486
(dp487
g14
VS
p488
sbatp489
Rp490
(dp491
g14
S'id: 3'
p492
sbag0
(g1
g2
(lp493
g0
(g1
g2
(lp494
g0
(g1
g2
(lp495
g0
(g1
g2
(lp496
Vthere
p497
atp498
Rp499
(dp500
g14
VEX
p501
sbatp502
Rp503
(dp504
g14
VNP
p505
sbag0
(g1
g2
(lp506
g0
(g1
g2
(lp507
V's
p508
atp509
Rp510
(dp511
g14
VVBZ
p512
sbag0
(g1
g2
(lp513
g0
(g1
g2
(lp514
g0
(g1
g2
(lp515
Vtwo
p516
atp517
Rp518
(dp519
g14
VCD
p520
sbag0
(g1
g2
(lp521
Vpeople
p522
atp523
Rp524
(dp525
g14
VNNS
p526
sbatp527
Rp528
(dp529
g14
VNP
p530
sbag0
(g1
g2
(lp531
g0
(g1
g2
(lp532
Von
p533
atp534
Rp535
(dp536
g14
VIN
p537
sbag0
(g1
g2
(lp538
g0
(g1
g2
(lp539
Vthe
p540
atp541
Rp542
(dp543
g14
VDT
p544
sbag0
(g1
g2
(lp545
Vboat
p546
atp547
Rp548
(dp549
g14
VNN
p550
sbatp551
Rp552
(dp553
g14
VNP
p554
sbatp555
Rp556
(dp557
g14
VPP
p558
sbatp559
Rp560
(dp561
g14
VNP
p562
sbatp563
Rp564
(dp565
g14
VVP
p566
sbag0
(g1
g2
(lp567
V.
p568
atp569
Rp570
(dp571
g14
V.
p572
sbatp573
Rp574
(dp575
g14
VS
p576
sbatp577
Rp578
(dp579
g14
S'id: 4'
p580
sbag0
(g1
g2
(lp581
g0
(g1
g2
(lp582
g0
(g1
g2
(lp583
g0
(g1
g2
(lp584
g0
(g1
g2
(lp585
Vthere
p586
atp587
Rp588
(dp589
g14
VEX
p590
sbatp591
Rp592
(dp593
g14
VNP
p594
sbag0
(g1
g2
(lp595
g0
(g1
g2
(lp596
V's
p597
atp598
Rp599
(dp600
g14
VVBZ
p601
sbag0
(g1
g2
(lp602
g0
(g1
g2
(lp603
Valso
p604
atp605
Rp606
(dp607
g14
VRB
p608
sbatp609
Rp610
(dp611
g14
VADVP
p612
sbag0
(g1
g2
(lp613
g0
(g1
g2
(lp614
Va
p615
atp616
Rp617
(dp618
g14
VDT
p619
sbag0
(g1
g2
(lp620
Vsmall
p621
atp622
Rp623
(dp624
g14
VJJ
p625
sbag0
(g1
g2
(lp626
Vpier
p627
atp628
Rp629
(dp630
g14
VNN
p631
sbatp632
Rp633
(dp634
g14
VNP
p635
sbatp636
Rp637
(dp638
g14
VVP
p639
sbatp640
Rp641
(dp642
g14
VS
p643
sbag0
(g1
g2
(lp644
V,
p645
atp646
Rp647
(dp648
g14
V,
p649
sbag0
(g1
g2
(lp650
g0
(g1
g2
(lp651
g0
(g1
g2
(lp652
g0
(g1
g2
(lp653
Vgoing
p654
atp655
Rp656
(dp657
g14
VVBG
p658
sbag0
(g1
g2
(lp659
g0
(g1
g2
(lp660
Vout
p661
atp662
Rp663
(dp664
g14
VRP
p665
sbatp666
Rp667
(dp668
g14
VPRT
p669
sbag0
(g1
g2
(lp670
g0
(g1
g2
(lp671
g0
(g1
g2
(lp672
Vinto
p673
atp674
Rp675
(dp676
g14
VIN
p677
sbag0
(g1
g2
(lp678
g0
(g1
g2
(lp679
Vthe
p680
atp681
Rp682
(dp683
g14
VDT
p684
sbag0
(g1
g2
(lp685
Vwater
p686
atp687
Rp688
(dp689
g14
VNN
p690
sbatp691
Rp692
(dp693
g14
VNP
p694
sbatp695
Rp696
(dp697
g14
VPP
p698
sbag0
(g1
g2
(lp699
Vand
p700
atp701
Rp702
(dp703
g14
VCC
p704
sbag0
(g1
g2
(lp705
g0
(g1
g2
(lp706
Von
p707
atp708
Rp709
(dp710
g14
VIN
p711
sbag0
(g1
g2
(lp712
g0
(g1
g2
(lp713
Vthe
p714
atp715
Rp716
(dp717
g14
VDT
p718
sbag0
(g1
g2
(lp719
Vpier
p720
atp721
Rp722
(dp723
g14
VNN
p724
sbatp725
Rp726
(dp727
g14
VNP
p728
sbatp729
Rp730
(dp731
g14
VPP
p732
sbatp733
Rp734
(dp735
g14
VPP
p736
sbatp737
Rp738
(dp739
g14
VVP
p740
sbatp741
Rp742
(dp743
g14
VS
p744
sbag0
(g1
g2
(lp745
g0
(g1
g2
(lp746
Vis
p747
atp748
Rp749
(dp750
g14
VVBZ
p751
sbag0
(g1
g2
(lp752
g0
(g1
g2
(lp753
Va
p754
atp755
Rp756
(dp757
g14
VDT
p758
sbag0
(g1
g2
(lp759
Vman
p760
atp761
Rp762
(dp763
g14
VNN
p764
sbag0
(g1
g2
(lp765
Vfishing
p766
atp767
Rp768
(dp769
g14
VNN
p770
sbatp771
Rp772
(dp773
g14
VNP
p774
sbatp775
Rp776
(dp777
g14
VVP
p778
sbatp779
Rp780
(dp781
g14
VS
p782
sbag0
(g1
g2
(lp783
V,
p784
atp785
Rp786
(dp787
g14
V,
p788
sbag0
(g1
g2
(lp789
g0
(g1
g2
(lp790
g0
(g1
g2
(lp791
Vin
p792
atp793
Rp794
(dp795
g14
VIN
p796
sbag0
(g1
g2
(lp797
g0
(g1
g2
(lp798
Vfact
p799
atp800
Rp801
(dp802
g14
VNN
p803
sbatp804
Rp805
(dp806
g14
VNP
p807
sbatp808
Rp809
(dp810
g14
VPP
p811
sbag0
(g1
g2
(lp812
g0
(g1
g2
(lp813
Vhe
p814
atp815
Rp816
(dp817
g14
VPRP
p818
sbatp819
Rp820
(dp821
g14
VNP
p822
sbag0
(g1
g2
(lp823
g0
(g1
g2
(lp824
V's
p825
atp826
Rp827
(dp828
g14
VVBZ
p829
sbag0
(g1
g2
(lp830
g0
(g1
g2
(lp831
Vcatching
p832
atp833
Rp834
(dp835
g14
VVBG
p836
sbag0
(g1
g2
(lp837
g0
(g1
g2
(lp838
Va
p839
atp840
Rp841
(dp842
g14
VDT
p843
sbag0
(g1
g2
(lp844
Vfish
p845
atp846
Rp847
(dp848
g14
VNN
p849
sbatp850
Rp851
(dp852
g14
VNP
p853
sbatp854
Rp855
(dp856
g14
VVP
p857
sbatp858
Rp859
(dp860
g14
VVP
p861
sbatp862
Rp863
(dp864
g14
VS
p865
sbag0
(g1
g2
(lp866
V,
p867
atp868
Rp869
(dp870
g14
V,
p871
sbag0
(g1
g2
(lp872
Vand
p873
atp874
Rp875
(dp876
g14
VCC
p877
sbag0
(g1
g2
(lp878
g0
(g1
g2
(lp879
g0
(g1
g2
(lp880
Vhe
p881
atp882
Rp883
(dp884
g14
VPRP
p885
sbatp886
Rp887
(dp888
g14
VNP
p889
sbag0
(g1
g2
(lp890
g0
(g1
g2
(lp891
V's
p892
atp893
Rp894
(dp895
g14
VVBZ
p896
sbag0
(g1
g2
(lp897
g0
(g1
g2
(lp898
Vwearing
p899
atp900
Rp901
(dp902
g14
VVBG
p903
sbag0
(g1
g2
(lp904
g0
(g1
g2
(lp905
g0
(g1
g2
(lp906
Vone
p907
atp908
Rp909
(dp910
g14
VCD
p911
sbatp912
Rp913
(dp914
g14
VNP
p915
sbag0
(g1
g2
(lp916
g0
(g1
g2
(lp917
Vof
p918
atp919
Rp920
(dp921
g14
VIN
p922
sbag0
(g1
g2
(lp923
g0
(g1
g2
(lp924
Vthose
p925
atp926
Rp927
(dp928
g14
VDT
p929
sbag0
(g1
g2
(lp930
Vsafari
p931
atp932
Rp933
(dp934
g14
VJJ
p935
sbag0
(g1
g2
(lp936
Vhats
p937
atp938
Rp939
(dp940
g14
VNNS
p941
sbatp942
Rp943
(dp944
g14
VNP
p945
sbatp946
Rp947
(dp948
g14
VPP
p949
sbatp950
Rp951
(dp952
g14
VNP
p953
sbatp954
Rp955
(dp956
g14
VVP
p957
sbatp958
Rp959
(dp960
g14
VVP
p961
sbatp962
Rp963
(dp964
g14
VS
p965
sbag0
(g1
g2
(lp966
V.
p967
atp968
Rp969
(dp970
g14
V.
p971
sbatp972
Rp973
(dp974
g14
VS
p975
sbatp976
Rp977
(dp978
g14
S'id: 5'
p979
sbag0
(g1
g2
(lp980
g0
(g1
g2
(lp981
g0
(g1
g2
(lp982
g0
(g1
g2
(lp983
Von
p984
atp985
Rp986
(dp987
g14
VIN
p988
sbag0
(g1
g2
(lp989
g0
(g1
g2
(lp990
g0
(g1
g2
(lp991
Vthe
p992
atp993
Rp994
(dp995
g14
VDT
p996
sbag0
(g1
g2
(lp997
Vbeach
p998
atp999
Rp1000
(dp1001
g14
VNN
p1002
sbatp1003
Rp1004
(dp1005
g14
VNP
p1006
sbag0
(g1
g2
(lp1007
g0
(g1
g2
(lp1008
Vof
p1009
atp1010
Rp1011
(dp1012
g14
VIN
p1013
sbag0
(g1
g2
(lp1014
g0
(g1
g2
(lp1015
Vthe
p1016
atp1017
Rp1018
(dp1019
g14
VDT
p1020
sbag0
(g1
g2
(lp1021
Vlake
p1022
atp1023
Rp1024
(dp1025
g14
VNN
p1026
sbatp1027
Rp1028
(dp1029
g14
VNP
p1030
sbatp1031
Rp1032
(dp1033
g14
VPP
p1034
sbatp1035
Rp1036
(dp1037
g14
VNP
p1038
sbatp1039
Rp1040
(dp1041
g14
VPP
p1042
sbag0
(g1
g2
(lp1043
g0
(g1
g2
(lp1044
Vis
p1045
atp1046
Rp1047
(dp1048
g14
VVBZ
p1049
sbatp1050
Rp1051
(dp1052
g14
VVP
p1053
sbag0
(g1
g2
(lp1054
g0
(g1
g2
(lp1055
Va
p1056
atp1057
Rp1058
(dp1059
g14
VDT
p1060
sbag0
(g1
g2
(lp1061
Vgirl
p1062
atp1063
Rp1064
(dp1065
g14
VNN
p1066
sbag0
(g1
g2
(lp1067
g0
(g1
g2
(lp1068
g0
(g1
g2
(lp1069
Vwho
p1070
atp1071
Rp1072
(dp1073
g14
VWP
p1074
sbatp1075
Rp1076
(dp1077
g14
VWHNP
p1078
sbag0
(g1
g2
(lp1079
g0
(g1
g2
(lp1080
g0
(g1
g2
(lp1081
V's
p1082
atp1083
Rp1084
(dp1085
g14
VVBZ
p1086
sbag0
(g1
g2
(lp1087
g0
(g1
g2
(lp1088
Vmaking
p1089
atp1090
Rp1091
(dp1092
g14
VVBG
p1093
sbag0
(g1
g2
(lp1094
g0
(g1
g2
(lp1095
Va
p1096
atp1097
Rp1098
(dp1099
g14
VDT
p1100
sbag0
(g1
g2
(lp1101
Vsand
p1102
atp1103
Rp1104
(dp1105
g14
VNN
p1106
sbag0
(g1
g2
(lp1107
Vcastle
p1108
atp1109
Rp1110
(dp1111
g14
VNN
p1112
sbatp1113
Rp1114
(dp1115
g14
VNP
p1116
sbatp1117
Rp1118
(dp1119
g14
VVP
p1120
sbatp1121
Rp1122
(dp1123
g14
VVP
p1124
sbatp1125
Rp1126
(dp1127
g14
VS
p1128
sbatp1129
Rp1130
(dp1131
g14
VSBAR
p1132
sbatp1133
Rp1134
(dp1135
g14
VNP
p1136
sbag0
(g1
g2
(lp1137
V.
p1138
atp1139
Rp1140
(dp1141
g14
V.
p1142
sbatp1143
Rp1144
(dp1145
g14
VSINV
p1146
sbatp1147
Rp1148
(dp1149
g14
S'id: 6'
p1150
sbag0
(g1
g2
(lp1151
g0
(g1
g2
(lp1152
g0
(g1
g2
(lp1153
g0
(g1
g2
(lp1154
Vshe
p1155
atp1156
Rp1157
(dp1158
g14
VPRP
p1159
sbatp1160
Rp1161
(dp1162
g14
VNP
p1163
sbag0
(g1
g2
(lp1164
g0
(g1
g2
(lp1165
Valso
p1166
atp1167
Rp1168
(dp1169
g14
VRB
p1170
sbatp1171
Rp1172
(dp1173
g14
VADVP
p1174
sbag0
(g1
g2
(lp1175
g0
(g1
g2
(lp1176
Vhas
p1177
atp1178
Rp1179
(dp1180
g14
VVBZ
p1181
sbag0
(g1
g2
(lp1182
g0
(g1
g2
(lp1183
g0
(g1
g2
(lp1184
Va
p1185
atp1186
Rp1187
(dp1188
g14
VDT
p1189
sbag0
(g1
g2
(lp1190
Vshovel
p1191
atp1192
Rp1193
(dp1194
g14
VNN
p1195
sbatp1196
Rp1197
(dp1198
g14
VNP
p1199
sbag0
(g1
g2
(lp1200
Vand
p1201
atp1202
Rp1203
(dp1204
g14
VCC
p1205
sbag0
(g1
g2
(lp1206
g0
(g1
g2
(lp1207
Va
p1208
atp1209
Rp1210
(dp1211
g14
VDT
p1212
sbag0
(g1
g2
(lp1213
Vpail
p1214
atp1215
Rp1216
(dp1217
g14
VNN
p1218
sbatp1219
Rp1220
(dp1221
g14
VNP
p1222
sbatp1223
Rp1224
(dp1225
g14
VNP
p1226
sbatp1227
Rp1228
(dp1229
g14
VVP
p1230
sbag0
(g1
g2
(lp1231
V.
p1232
atp1233
Rp1234
(dp1235
g14
V.
p1236
sbatp1237
Rp1238
(dp1239
g14
VS
p1240
sbatp1241
Rp1242
(dp1243
g14
S'id: 7'
p1244
sbag0
(g1
g2
(lp1245
g0
(g1
g2
(lp1246
g0
(g1
g2
(lp1247
g0
(g1
g2
(lp1248
Vwe
p1249
atp1250
Rp1251
(dp1252
g14
VPRP
p1253
sbatp1254
Rp1255
(dp1256
g14
VNP
p1257
sbag0
(g1
g2
(lp1258
g0
(g1
g2
(lp1259
Valso
p1260
atp1261
Rp1262
(dp1263
g14
VRB
p1264
sbatp1265
Rp1266
(dp1267
g14
VADVP
p1268
sbag0
(g1
g2
(lp1269
g0
(g1
g2
(lp1270
Vhave
p1271
atp1272
Rp1273
(dp1274
g14
VVBP
p1275
sbag0
(g1
g2
(lp1276
g0
(g1
g2
(lp1277
g0
(g1
g2
(lp1278
Va
p1279
atp1280
Rp1281
(dp1282
g14
VDT
p1283
sbag0
(g1
g2
(lp1284
Vboy
p1285
atp1286
Rp1287
(dp1288
g14
VNN
p1289
sbatp1290
Rp1291
(dp1292
g14
VNP
p1293
sbag0
(g1
g2
(lp1294
g0
(g1
g2
(lp1295
Vflying
p1296
atp1297
Rp1298
(dp1299
g14
VVBG
p1300
sbag0
(g1
g2
(lp1301
g0
(g1
g2
(lp1302
Va
p1303
atp1304
Rp1305
(dp1306
g14
VDT
p1307
sbag0
(g1
g2
(lp1308
Vkite
p1309
atp1310
Rp1311
(dp1312
g14
VNN
p1313
sbatp1314
Rp1315
(dp1316
g14
VNP
p1317
sbatp1318
Rp1319
(dp1320
g14
VVP
p1321
sbatp1322
Rp1323
(dp1324
g14
VNP
p1325
sbag0
(g1
g2
(lp1326
V,
p1327
atp1328
Rp1329
(dp1330
g14
V,
p1331
sbag0
(g1
g2
(lp1332
g0
(g1
g2
(lp1333
g0
(g1
g2
(lp1334
Vrunning
p1335
atp1336
Rp1337
(dp1338
g14
VVBG
p1339
sbag0
(g1
g2
(lp1340
g0
(g1
g2
(lp1341
Vby
p1342
atp1343
Rp1344
(dp1345
g14
VIN
p1346
sbag0
(g1
g2
(lp1347
g0
(g1
g2
(lp1348
Vwith
p1349
atp1350
Rp1351
(dp1352
g14
VIN
p1353
sbag0
(g1
g2
(lp1354
g0
(g1
g2
(lp1355
Vhis
p1356
atp1357
Rp1358
(dp1359
g14
VPRP$
p1360
sbag0
(g1
g2
(lp1361
Vdog
p1362
atp1363
Rp1364
(dp1365
g14
VNN
p1366
sbatp1367
Rp1368
(dp1369
g14
VNP
p1370
sbatp1371
Rp1372
(dp1373
g14
VPP
p1374
sbatp1375
Rp1376
(dp1377
g14
VPP
p1378
sbatp1379
Rp1380
(dp1381
g14
VVP
p1382
sbatp1383
Rp1384
(dp1385
g14
VS
p1386
sbatp1387
Rp1388
(dp1389
g14
VVP
p1390
sbag0
(g1
g2
(lp1391
V.
p1392
atp1393
Rp1394
(dp1395
g14
V.
p1396
sbatp1397
Rp1398
(dp1399
g14
VS
p1400
sbatp1401
Rp1402
(dp1403
g14
S'id: 8'
p1404
sbag0
(g1
g2
(lp1405
g0
(g1
g2
(lp1406
g0
(g1
g2
(lp1407
Vand
p1408
atp1409
Rp1410
(dp1411
g14
VCC
p1412
sbag0
(g1
g2
(lp1413
g0
(g1
g2
(lp1414
V,
p1415
atp1416
Rp1417
(dp1418
g14
V,
p1419
sbag0
(g1
g2
(lp1420
g0
(g1
g2
(lp1421
g0
(g1
g2
(lp1422
Vthere
p1423
atp1424
Rp1425
(dp1426
g14
VEX
p1427
sbatp1428
Rp1429
(dp1430
g14
VNP
p1431
sbag0
(g1
g2
(lp1432
g0
(g1
g2
(lp1433
V's
p1434
atp1435
Rp1436
(dp1437
g14
VVBZ
p1438
sbag0
(g1
g2
(lp1439
g0
(g1
g2
(lp1440
Va
p1441
atp1442
Rp1443
(dp1444
g14
VDT
p1445
sbag0
(g1
g2
(lp1446
Vhouse
p1447
atp1448
Rp1449
(dp1450
g14
VNN
p1451
sbatp1452
Rp1453
(dp1454
g14
VNP
p1455
sbag0
(g1
g2
(lp1456
g0
(g1
g2
(lp1457
Vby
p1458
atp1459
Rp1460
(dp1461
g14
VIN
p1462
sbag0
(g1
g2
(lp1463
g0
(g1
g2
(lp1464
Vthe
p1465
atp1466
Rp1467
(dp1468
g14
VDT
p1469
sbag0
(g1
g2
(lp1470
Vlake
p1471
atp1472
Rp1473
(dp1474
g14
VNN
p1475
sbatp1476
Rp1477
(dp1478
g14
VNP
p1479
sbatp1480
Rp1481
(dp1482
g14
VPP
p1483
sbag0
(g1
g2
(lp1484
g0
(g1
g2
(lp1485
Valso
p1486
atp1487
Rp1488
(dp1489
g14
VRB
p1490
sbatp1491
Rp1492
(dp1493
g14
VADVP
p1494
sbatp1495
Rp1496
(dp1497
g14
VVP
p1498
sbatp1499
Rp1500
(dp1501
g14
VS
p1502
sbag0
(g1
g2
(lp1503
V,
p1504
atp1505
Rp1506
(dp1507
g14
V,
p1508
sbatp1509
Rp1510
(dp1511
g14
VPRN
p1512
sbag0
(g1
g2
(lp1513
g0
(g1
g2
(lp1514
Vthere
p1515
atp1516
Rp1517
(dp1518
g14
VEX
p1519
sbatp1520
Rp1521
(dp1522
g14
VNP
p1523
sbag0
(g1
g2
(lp1524
g0
(g1
g2
(lp1525
V's
p1526
atp1527
Rp1528
(dp1529
g14
VVBZ
p1530
sbag0
(g1
g2
(lp1531
g0
(g1
g2
(lp1532
g0
(g1
g2
(lp1533
Vone
p1534
atp1535
Rp1536
(dp1537
g14
VCD
p1538
sbag0
(g1
g2
(lp1539
Vcar
p1540
atp1541
Rp1542
(dp1543
g14
VNN
p1544
sbatp1545
Rp1546
(dp1547
g14
VNP
p1548
sbag0
(g1
g2
(lp1549
g0
(g1
g2
(lp1550
Vin
p1551
atp1552
Rp1553
(dp1554
g14
VIN
p1555
sbag0
(g1
g2
(lp1556
g0
(g1
g2
(lp1557
Vthe
p1558
atp1559
Rp1560
(dp1561
g14
VDT
p1562
sbag0
(g1
g2
(lp1563
Vdriveway
p1564
atp1565
Rp1566
(dp1567
g14
VNN
p1568
sbatp1569
Rp1570
(dp1571
g14
VNP
p1572
sbatp1573
Rp1574
(dp1575
g14
VPP
p1576
sbatp1577
Rp1578
(dp1579
g14
VNP
p1580
sbatp1581
Rp1582
(dp1583
g14
VVP
p1584
sbag0
(g1
g2
(lp1585
V.
p1586
atp1587
Rp1588
(dp1589
g14
V.
p1590
sbatp1591
Rp1592
(dp1593
g14
VS
p1594
sbatp1595
Rp1596
(dp1597
g14
S'id: 9'
p1598
sbag0
(g1
g2
(lp1599
g0
(g1
g2
(lp1600
g0
(g1
g2
(lp1601
g0
(g1
g2
(lp1602
Vthey
p1603
atp1604
Rp1605
(dp1606
g14
VPRP
p1607
sbatp1608
Rp1609
(dp1610
g14
VNP
p1611
sbag0
(g1
g2
(lp1612
g0
(g1
g2
(lp1613
Valso
p1614
atp1615
Rp1616
(dp1617
g14
VRB
p1618
sbatp1619
Rp1620
(dp1621
g14
VADVP
p1622
sbag0
(g1
g2
(lp1623
g0
(g1
g2
(lp1624
Vhave
p1625
atp1626
Rp1627
(dp1628
g14
VVBP
p1629
sbag0
(g1
g2
(lp1630
g0
(g1
g2
(lp1631
Va
p1632
atp1633
Rp1634
(dp1635
g14
VDT
p1636
sbag0
(g1
g2
(lp1637
Vflagpole
p1638
atp1639
Rp1640
(dp1641
g14
VNN
p1642
sbatp1643
Rp1644
(dp1645
g14
VNP
p1646
sbag0
(g1
g2
(lp1647
V,
p1648
atp1649
Rp1650
(dp1651
g14
V,
p1652
sbag0
(g1
g2
(lp1653
g0
(g1
g2
(lp1654
Vwith
p1655
atp1656
Rp1657
(dp1658
g14
VIN
p1659
sbag0
(g1
g2
(lp1660
g0
(g1
g2
(lp1661
g0
(g1
g2
(lp1662
Va
p1663
atp1664
Rp1665
(dp1666
g14
VDT
p1667
sbag0
(g1
g2
(lp1668
Vflag
p1669
atp1670
Rp1671
(dp1672
g14
VNN
p1673
sbatp1674
Rp1675
(dp1676
g14
VNP
p1677
sbag0
(g1
g2
(lp1678
g0
(g1
g2
(lp1679
Vflapping
p1680
atp1681
Rp1682
(dp1683
g14
VVBG
p1684
sbag0
(g1
g2
(lp1685
g0
(g1
g2
(lp1686
Vin
p1687
atp1688
Rp1689
(dp1690
g14
VIN
p1691
sbag0
(g1
g2
(lp1692
g0
(g1
g2
(lp1693
Vthe
p1694
atp1695
Rp1696
(dp1697
g14
VDT
p1698
sbag0
(g1
g2
(lp1699
Vwind
p1700
atp1701
Rp1702
(dp1703
g14
VNN
p1704
sbatp1705
Rp1706
(dp1707
g14
VNP
p1708
sbatp1709
Rp1710
(dp1711
g14
VPP
p1712
sbatp1713
Rp1714
(dp1715
g14
VVP
p1716
sbatp1717
Rp1718
(dp1719
g14
VNP
p1720
sbatp1721
Rp1722
(dp1723
g14
VPP
p1724
sbatp1725
Rp1726
(dp1727
g14
VVP
p1728
sbag0
(g1
g2
(lp1729
V.
p1730
atp1731
Rp1732
(dp1733
g14
V.
p1734
sbatp1735
Rp1736
(dp1737
g14
VS
p1738
sbatp1739
Rp1740
(dp1741
g14
S'id: 10'
p1742
sbag0
(g1
g2
(lp1743
g0
(g1
g2
(lp1744
g0
(g1
g2
(lp1745
g0
(g1
g2
(lp1746
Vback
p1747
atp1748
Rp1749
(dp1750
g14
VRB
p1751
sbag0
(g1
g2
(lp1752
g0
(g1
g2
(lp1753
Vto
p1754
atp1755
Rp1756
(dp1757
g14
VTO
p1758
sbag0
(g1
g2
(lp1759
g0
(g1
g2
(lp1760
Vour
p1761
atp1762
Rp1763
(dp1764
g14
VPRP$
p1765
sbag0
(g1
g2
(lp1766
Vpicnic
p1767
atp1768
Rp1769
(dp1770
g14
VNN
p1771
sbatp1772
Rp1773
(dp1774
g14
VNP
p1775
sbatp1776
Rp1777
(dp1778
g14
VPP
p1779
sbatp1780
Rp1781
(dp1782
g14
VADVP
p1783
sbag0
(g1
g2
(lp1784
V,
p1785
atp1786
Rp1787
(dp1788
g14
V,
p1789
sbag0
(g1
g2
(lp1790
g0
(g1
g2
(lp1791
Vwe
p1792
atp1793
Rp1794
(dp1795
g14
VPRP
p1796
sbatp1797
Rp1798
(dp1799
g14
VNP
p1800
sbag0
(g1
g2
(lp1801
g0
(g1
g2
(lp1802
Vhave
p1803
atp1804
Rp1805
(dp1806
g14
VVBP
p1807
sbag0
(g1
g2
(lp1808
g0
(g1
g2
(lp1809
Va
p1810
atp1811
Rp1812
(dp1813
g14
VDT
p1814
sbag0
(g1
g2
(lp1815
Vcouple
p1816
atp1817
Rp1818
(dp1819
g14
VNN
p1820
sbatp1821
Rp1822
(dp1823
g14
VNP
p1824
sbatp1825
Rp1826
(dp1827
g14
VVP
p1828
sbag0
(g1
g2
(lp1829
V.
p1830
atp1831
Rp1832
(dp1833
g14
V.
p1834
sbatp1835
Rp1836
(dp1837
g14
VS
p1838
sbatp1839
Rp1840
(dp1841
g14
S'id: 11'
p1842
sbag0
(g1
g2
(lp1843
g0
(g1
g2
(lp1844
g0
(g1
g2
(lp1845
g0
(g1
g2
(lp1846
g0
(g1
g2
(lp1847
Vshe
p1848
atp1849
Rp1850
(dp1851
g14
VPRP
p1852
sbatp1853
Rp1854
(dp1855
g14
VNP
p1856
sbag0
(g1
g2
(lp1857
g0
(g1
g2
(lp1858
Vseems
p1859
atp1860
Rp1861
(dp1862
g14
VVBZ
p1863
sbag0
(g1
g2
(lp1864
g0
(g1
g2
(lp1865
g0
(g1
g2
(lp1866
Vto
p1867
atp1868
Rp1869
(dp1870
g14
VTO
p1871
sbag0
(g1
g2
(lp1872
g0
(g1
g2
(lp1873
Vbe
p1874
atp1875
Rp1876
(dp1877
g14
VVB
p1878
sbag0
(g1
g2
(lp1879
g0
(g1
g2
(lp1880
Vpouring
p1881
atp1882
Rp1883
(dp1884
g14
VVBG
p1885
sbag0
(g1
g2
(lp1886
g0
(g1
g2
(lp1887
Va
p1888
atp1889
Rp1890
(dp1891
g14
VDT
p1892
sbag0
(g1
g2
(lp1893
Vbeverage
p1894
atp1895
Rp1896
(dp1897
g14
VNN
p1898
sbatp1899
Rp1900
(dp1901
g14
VNP
p1902
sbatp1903
Rp1904
(dp1905
g14
VVP
p1906
sbatp1907
Rp1908
(dp1909
g14
VVP
p1910
sbatp1911
Rp1912
(dp1913
g14
VVP
p1914
sbatp1915
Rp1916
(dp1917
g14
VS
p1918
sbatp1919
Rp1920
(dp1921
g14
VVP
p1922
sbatp1923
Rp1924
(dp1925
g14
VS
p1926
sbag0
(g1
g2
(lp1927
g0
(g1
g2
(lp1928
V,
p1929
atp1930
Rp1931
(dp1932
g14
V,
p1933
sbag0
(g1
g2
(lp1934
g0
(g1
g2
(lp1935
g0
(g1
g2
(lp1936
Vthe
p1937
atp1938
Rp1939
(dp1940
g14
VDT
p1941
sbag0
(g1
g2
(lp1942
Vbottle
p1943
atp1944
Rp1945
(dp1946
g14
VNN
p1947
sbatp1948
Rp1949
(dp1950
g14
VNP
p1951
sbag0
(g1
g2
(lp1952
g0
(g1
g2
(lp1953
Vlooks
p1954
atp1955
Rp1956
(dp1957
g14
VVBZ
p1958
sbag0
(g1
g2
(lp1959
g0
(g1
g2
(lp1960
Vlike
p1961
atp1962
Rp1963
(dp1964
g14
VIN
p1965
sbag0
(g1
g2
(lp1966
g0
(g1
g2
(lp1967
Va
p1968
atp1969
Rp1970
(dp1971
g14
VDT
p1972
sbag0
(g1
g2
(lp1973
Vwine
p1974
atp1975
Rp1976
(dp1977
g14
VNN
p1978
sbag0
(g1
g2
(lp1979
Vbottle
p1980
atp1981
Rp1982
(dp1983
g14
VNN
p1984
sbatp1985
Rp1986
(dp1987
g14
VNP
p1988
sbatp1989
Rp1990
(dp1991
g14
VPP
p1992
sbatp1993
Rp1994
(dp1995
g14
VVP
p1996
sbatp1997
Rp1998
(dp1999
g14
VS
p2000
sbatp2001
Rp2002
(dp2003
g14
VPRN
p2004
sbag0
(g1
g2
(lp2005
Vbut
p2006
atp2007
Rp2008
(dp2009
g14
VCC
p2010
sbag0
(g1
g2
(lp2011
g0
(g1
g2
(lp2012
g0
(g1
g2
(lp2013
Vit
p2014
atp2015
Rp2016
(dp2017
g14
VPRP
p2018
sbatp2019
Rp2020
(dp2021
g14
VNP
p2022
sbag0
(g1
g2
(lp2023
g0
(g1
g2
(lp2024
Vlooks
p2025
atp2026
Rp2027
(dp2028
g14
VVBZ
p2029
sbag0
(g1
g2
(lp2030
g0
(g1
g2
(lp2031
Vlike
p2032
atp2033
Rp2034
(dp2035
g14
VIN
p2036
sbag0
(g1
g2
(lp2037
g0
(g1
g2
(lp2038
Va
p2039
atp2040
Rp2041
(dp2042
g14
VDT
p2043
sbag0
(g1
g2
(lp2044
Vdrinking
p2045
atp2046
Rp2047
(dp2048
g14
VNN
p2049
sbag0
(g1
g2
(lp2050
Vglass
p2051
atp2052
Rp2053
(dp2054
g14
VNN
p2055
sbatp2056
Rp2057
(dp2058
g14
VNP
p2059
sbatp2060
Rp2061
(dp2062
g14
VPP
p2063
sbag0
(g1
g2
(lp2064
g0
(g1
g2
(lp2065
Vnot
p2066
atp2067
Rp2068
(dp2069
g14
VRB
p2070
sbag0
(g1
g2
(lp2071
g0
(g1
g2
(lp2072
Va
p2073
atp2074
Rp2075
(dp2076
g14
VDT
p2077
sbag0
(g1
g2
(lp2078
Vwine
p2079
atp2080
Rp2081
(dp2082
g14
VNN
p2083
sbag0
(g1
g2
(lp2084
Vglass
p2085
atp2086
Rp2087
(dp2088
g14
VNN
p2089
sbatp2090
Rp2091
(dp2092
g14
VNP
p2093
sbatp2094
Rp2095
(dp2096
g14
VPP
p2097
sbatp2098
Rp2099
(dp2100
g14
VVP
p2101
sbatp2102
Rp2103
(dp2104
g14
VS
p2105
sbag0
(g1
g2
(lp2106
V.
p2107
atp2108
Rp2109
(dp2110
g14
V.
p2111
sbatp2112
Rp2113
(dp2114
g14
VS
p2115
sbatp2116
Rp2117
(dp2118
g14
S'id: 12'
p2119
sbag0
(g1
g2
(lp2120
g0
(g1
g2
(lp2121
g0
(g1
g2
(lp2122
g0
(g1
g2
(lp2123
VThey
p2124
atp2125
Rp2126
(dp2127
g14
VPRP
p2128
sbatp2129
Rp2130
(dp2131
g14
VNP
p2132
sbag0
(g1
g2
(lp2133
g0
(g1
g2
(lp2134
g0
(g1
g2
(lp2135
Vhave
p2136
atp2137
Rp2138
(dp2139
g14
VVBP
p2140
sbatp2141
Rp2142
(dp2143
g14
VVP
p2144
sbag0
(g1
g2
(lp2145
V,
p2146
atp2147
Rp2148
(dp2149
g14
V,
p2150
sbag0
(g1
g2
(lp2151
g0
(g1
g2
(lp2152
g0
(g1
g2
(lp2153
Va
p2154
atp2155
Rp2156
(dp2157
g14
VDT
p2158
sbag0
(g1
g2
(lp2159
Vsmall
p2160
atp2161
Rp2162
(dp2163
g14
VJJ
p2164
sbag0
(g1
g2
(lp2165
V,
p2166
atp2167
Rp2168
(dp2169
g14
V,
p2170
sbag0
(g1
g2
(lp2171
Vboom
p2172
atp2173
Rp2174
(dp2175
g14
VNN
p2176
sbag0
(g1
g2
(lp2177
Vbox
p2178
atp2179
Rp2180
(dp2181
g14
VNN
p2182
sbatp2183
Rp2184
(dp2185
g14
VNP
p2186
sbag0
(g1
g2
(lp2187
g0
(g1
g2
(lp2188
Vso
p2189
atp2190
Rp2191
(dp2192
g14
VIN
p2193
sbag0
(g1
g2
(lp2194
g0
(g1
g2
(lp2195
g0
(g1
g2
(lp2196
Vthey
p2197
atp2198
Rp2199
(dp2200
g14
VPRP
p2201
sbatp2202
Rp2203
(dp2204
g14
VNP
p2205
sbag0
(g1
g2
(lp2206
g0
(g1
g2
(lp2207
V're
p2208
atp2209
Rp2210
(dp2211
g14
VVBP
p2212
sbag0
(g1
g2
(lp2213
g0
(g1
g2
(lp2214
Vprobably
p2215
atp2216
Rp2217
(dp2218
g14
VRB
p2219
sbatp2220
Rp2221
(dp2222
g14
VADVP
p2223
sbag0
(g1
g2
(lp2224
g0
(g1
g2
(lp2225
Vlistening
p2226
atp2227
Rp2228
(dp2229
g14
VVBG
p2230
sbag0
(g1
g2
(lp2231
g0
(g1
g2
(lp2232
Vto
p2233
atp2234
Rp2235
(dp2236
g14
VTO
p2237
sbag0
(g1
g2
(lp2238
g0
(g1
g2
(lp2239
Vmusic
p2240
atp2241
Rp2242
(dp2243
g14
VNN
p2244
sbatp2245
Rp2246
(dp2247
g14
VNP
p2248
sbatp2249
Rp2250
(dp2251
g14
VPP
p2252
sbatp2253
Rp2254
(dp2255
g14
VVP
p2256
sbatp2257
Rp2258
(dp2259
g14
VVP
p2260
sbatp2261
Rp2262
(dp2263
g14
VS
p2264
sbatp2265
Rp2266
(dp2267
g14
VSBAR
p2268
sbatp2269
Rp2270
(dp2271
g14
VNP
p2272
sbatp2273
Rp2274
(dp2275
g14
VVP
p2276
sbag0
(g1
g2
(lp2277
V.
p2278
atp2279
Rp2280
(dp2281
g14
V.
p2282
sbatp2283
Rp2284
(dp2285
g14
VS
p2286
sbatp2287
Rp2288
(dp2289
g14
S'id: 13'
p2290
sbag0
(g1
g2
(lp2291
g0
(g1
g2
(lp2292
g0
(g1
g2
(lp2293
g0
(g1
g2
(lp2294
g0
(g1
g2
(lp2295
Vthe
p2296
atp2297
Rp2298
(dp2299
g14
VDT
p2300
sbag0
(g1
g2
(lp2301
Vman
p2302
atp2303
Rp2304
(dp2305
g14
VNN
p2306
sbatp2307
Rp2308
(dp2309
g14
VNP
p2310
sbag0
(g1
g2
(lp2311
g0
(g1
g2
(lp2312
Vhas
p2313
atp2314
Rp2315
(dp2316
g14
VVBZ
p2317
sbag0
(g1
g2
(lp2318
g0
(g1
g2
(lp2319
Vtaken
p2320
atp2321
Rp2322
(dp2323
g14
VVBN
p2324
sbag0
(g1
g2
(lp2325
g0
(g1
g2
(lp2326
Vhis
p2327
atp2328
Rp2329
(dp2330
g14
VPRP$
p2331
sbag0
(g1
g2
(lp2332
Vsandals
p2333
atp2334
Rp2335
(dp2336
g14
VNNS
p2337
sbatp2338
Rp2339
(dp2340
g14
VNP
p2341
sbag0
(g1
g2
(lp2342
g0
(g1
g2
(lp2343
Voff
p2344
atp2345
Rp2346
(dp2347
g14
VRB
p2348
sbatp2349
Rp2350
(dp2351
g14
VADVP
p2352
sbatp2353
Rp2354
(dp2355
g14
VVP
p2356
sbatp2357
Rp2358
(dp2359
g14
VVP
p2360
sbatp2361
Rp2362
(dp2363
g14
VS
p2364
sbag0
(g1
g2
(lp2365
Vand
p2366
atp2367
Rp2368
(dp2369
g14
VCC
p2370
sbag0
(g1
g2
(lp2371
g0
(g1
g2
(lp2372
g0
(g1
g2
(lp2373
Vhe
p2374
atp2375
Rp2376
(dp2377
g14
VPRP
p2378
sbatp2379
Rp2380
(dp2381
g14
VNP
p2382
sbag0
(g1
g2
(lp2383
g0
(g1
g2
(lp2384
V's
p2385
atp2386
Rp2387
(dp2388
g14
VVBZ
p2389
sbag0
(g1
g2
(lp2390
g0
(g1
g2
(lp2391
g0
(g1
g2
(lp2392
Vsitting
p2393
atp2394
Rp2395
(dp2396
g14
VVBG
p2397
sbag0
(g1
g2
(lp2398
g0
(g1
g2
(lp2399
Von
p2400
atp2401
Rp2402
(dp2403
g14
VIN
p2404
sbag0
(g1
g2
(lp2405
g0
(g1
g2
(lp2406
Vthe
p2407
atp2408
Rp2409
(dp2410
g14
VDT
p2411
sbag0
(g1
g2
(lp2412
Vblanket
p2413
atp2414
Rp2415
(dp2416
g14
VNN
p2417
sbatp2418
Rp2419
(dp2420
g14
VNP
p2421
sbatp2422
Rp2423
(dp2424
g14
VPP
p2425
sbatp2426
Rp2427
(dp2428
g14
VVP
p2429
sbag0
(g1
g2
(lp2430
Vand
p2431
atp2432
Rp2433
(dp2434
g14
VCC
p2435
sbag0
(g1
g2
(lp2436
g0
(g1
g2
(lp2437
Vreading
p2438
atp2439
Rp2440
(dp2441
g14
VVBG
p2442
sbag0
(g1
g2
(lp2443
g0
(g1
g2
(lp2444
Va
p2445
atp2446
Rp2447
(dp2448
g14
VDT
p2449
sbag0
(g1
g2
(lp2450
Vbook
p2451
atp2452
Rp2453
(dp2454
g14
VNN
p2455
sbatp2456
Rp2457
(dp2458
g14
VNP
p2459
sbatp2460
Rp2461
(dp2462
g14
VVP
p2463
sbatp2464
Rp2465
(dp2466
g14
VVP
p2467
sbatp2468
Rp2469
(dp2470
g14
VVP
p2471
sbatp2472
Rp2473
(dp2474
g14
VS
p2475
sbag0
(g1
g2
(lp2476
V.
p2477
atp2478
Rp2479
(dp2480
g14
V.
p2481
sbatp2482
Rp2483
(dp2484
g14
VS
p2485
sbatp2486
Rp2487
(dp2488
g14
S'id: 14'
p2489
sbag0
(g1
g2
(lp2490
g0
(g1
g2
(lp2491
g0
(g1
g2
(lp2492
Vand
p2493
atp2494
Rp2495
(dp2496
g14
VCC
p2497
sbag0
(g1
g2
(lp2498
g0
(g1
g2
(lp2499
Vthey
p2500
atp2501
Rp2502
(dp2503
g14
VPRP
p2504
sbatp2505
Rp2506
(dp2507
g14
VNP
p2508
sbag0
(g1
g2
(lp2509
g0
(g1
g2
(lp2510
Valso
p2511
atp2512
Rp2513
(dp2514
g14
VRB
p2515
sbatp2516
Rp2517
(dp2518
g14
VADVP
p2519
sbag0
(g1
g2
(lp2520
g0
(g1
g2
(lp2521
Vhave
p2522
atp2523
Rp2524
(dp2525
g14
VVBP
p2526
sbag0
(g1
g2
(lp2527
g0
(g1
g2
(lp2528
Va
p2529
atp2530
Rp2531
(dp2532
g14
VDT
p2533
sbag0
(g1
g2
(lp2534
Vpicnic
p2535
atp2536
Rp2537
(dp2538
g14
VNN
p2539
sbag0
(g1
g2
(lp2540
Vbasket
p2541
atp2542
Rp2543
(dp2544
g14
VNN
p2545
sbatp2546
Rp2547
(dp2548
g14
VNP
p2549
sbatp2550
Rp2551
(dp2552
g14
VVP
p2553
sbag0
(g1
g2
(lp2554
V.
p2555
atp2556
Rp2557
(dp2558
g14
V.
p2559
sbatp2560
Rp2561
(dp2562
g14
VS
p2563
sbatp2564
Rp2565
(dp2566
g14
S'id: 15'
p2567
sbag0
(g1
g2
(lp2568
g0
(g1
g2
(lp2569
g0
(g1
g2
(lp2570
Vand
p2571
atp2572
Rp2573
(dp2574
g14
VCC
p2575
sbag0
(g1
g2
(lp2576
g0
(g1
g2
(lp2577
Vthat
p2578
atp2579
Rp2580
(dp2581
g14
VDT
p2582
sbatp2583
Rp2584
(dp2585
g14
VNP
p2586
sbag0
(g1
g2
(lp2587
g0
(g1
g2
(lp2588
V's
p2589
atp2590
Rp2591
(dp2592
g14
VVBZ
p2593
sbag0
(g1
g2
(lp2594
g0
(g1
g2
(lp2595
Vabout
p2596
atp2597
Rp2598
(dp2599
g14
VIN
p2600
sbag0
(g1
g2
(lp2601
g0
(g1
g2
(lp2602
g0
(g1
g2
(lp2603
Vall
p2604
atp2605
Rp2606
(dp2607
g14
VDT
p2608
sbag0
(g1
g2
(lp2609
Vi
p2610
atp2611
Rp2612
(dp2613
g14
VFW
p2614
sbatp2615
Rp2616
(dp2617
g14
VNP
p2618
sbag0
(g1
g2
(lp2619
g0
(g1
g2
(lp2620
Vsee
p2621
atp2622
Rp2623
(dp2624
g14
VVB
p2625
sbatp2626
Rp2627
(dp2628
g14
VVP
p2629
sbatp2630
Rp2631
(dp2632
g14
VS
p2633
sbatp2634
Rp2635
(dp2636
g14
VSBAR
p2637
sbatp2638
Rp2639
(dp2640
g14
VVP
p2641
sbag0
(g1
g2
(lp2642
V.
p2643
atp2644
Rp2645
(dp2646
g14
V.
p2647
sbatp2648
Rp2649
(dp2650
g14
VS
p2651
sbatp2652
Rp2653
(dp2654
g14
S'id: 16'
p2655
sbatp2656
Rp2657
(dp2658
g14
S'sentences'
p2659
sb.