ccopy_reg
_reconstructor
p0
(cnltk.tree
Tree
p1
c__builtin__
list
p2
(lp3
g0
(g1
g2
(lp4
g0
(g1
g2
(lp5
g0
(g1
g2
(lp6
Voh picnic scene
p7
atp8
Rp9
(dp10
S'_label'
p11
S'start: 1'
p12
sbatp13
Rp14
(dp15
g11
S'sent: 1'
p16
sbag0
(g1
g2
(lp17
g0
(g1
g2
(lp18
Vthis
p19
atp20
Rp21
(dp22
g11
S'start: 1'
p23
sbatp24
Rp25
(dp26
g11
S'sent: 2'
p27
sbag0
(g1
g2
(lp28
g0
(g1
g2
(lp29
Va picnic scene
p30
atp31
Rp32
(dp33
g11
S'start: 3'
p34
sbatp35
Rp36
(dp37
g11
S'sent: 2'
p38
sbag0
(g1
g2
(lp39
g0
(g1
g2
(lp40
Vit
p41
atp42
Rp43
(dp44
g11
S'start: 10'
p45
sbatp46
Rp47
(dp48
g11
S'sent: 3'
p49
sbatp50
Rp51
(dp52
g11
S'id: 1'
p53
sbag0
(g1
g2
(lp54
g0
(g1
g2
(lp55
g0
(g1
g2
(lp56
Vthe little boy with his kite , runnin ' it .
p57
atp58
Rp59
(dp60
g11
S'start: 1'
p61
sbatp62
Rp63
(dp64
g11
S'sent: 3'
p65
sbag0
(g1
g2
(lp66
g0
(g1
g2
(lp67
Vhis
p68
atp69
Rp70
(dp71
g11
S'start: 1'
p72
sbatp73
Rp74
(dp75
g11
S'sent: 4'
p76
sbatp77
Rp78
(dp79
g11
S'id: 4'
p80
sbag0
(g1
g2
(lp81
g0
(g1
g2
(lp82
g0
(g1
g2
(lp83
Vhis kite
p84
atp85
Rp86
(dp87
g11
S'start: 5'
p88
sbatp89
Rp90
(dp91
g11
S'sent: 3'
p92
sbag0
(g1
g2
(lp93
g0
(g1
g2
(lp94
Vthe kite 's
p95
atp96
Rp97
(dp98
g11
S'start: 8'
p99
sbatp100
Rp101
(dp102
g11
S'sent: 14'
p103
sbatp104
Rp105
(dp106
g11
S'id: 5'
p107
sbag0
(g1
g2
(lp108
g0
(g1
g2
(lp109
g0
(g1
g2
(lp110
Vhis dog
p111
atp112
Rp113
(dp114
g11
S'start: 1'
p115
sbatp116
Rp117
(dp118
g11
S'sent: 4'
p119
sbag0
(g1
g2
(lp120
g0
(g1
g2
(lp121
Vhim
p122
atp123
Rp124
(dp125
g11
S'start: 7'
p126
sbatp127
Rp128
(dp129
g11
S'sent: 4'
p130
sbag0
(g1
g2
(lp131
g0
(g1
g2
(lp132
Vthe dog
p133
atp134
Rp135
(dp136
g11
S'start: 4'
p137
sbatp138
Rp139
(dp140
g11
S'sent: 12'
p141
sbatp142
Rp143
(dp144
g11
S'id: 9'
p145
sbag0
(g1
g2
(lp146
g0
(g1
g2
(lp147
g0
(g1
g2
(lp148
Vthe mama
p149
atp150
Rp151
(dp152
g11
S'start: 2'
p153
sbatp154
Rp155
(dp156
g11
S'sent: 7'
p157
sbag0
(g1
g2
(lp158
g0
(g1
g2
(lp159
Vfixin '
p160
atp161
Rp162
(dp163
g11
S'start: 8'
p164
sbatp165
Rp166
(dp167
g11
S'sent: 7'
p168
sbatp169
Rp170
(dp171
g11
S'id: 18'
p172
sbag0
(g1
g2
(lp173
g0
(g1
g2
(lp174
g0
(g1
g2
(lp175
Vflyin '
p176
atp177
Rp178
(dp179
g11
S'start: 2'
p180
sbatp181
Rp182
(dp183
g11
S'sent: 11'
p184
sbag0
(g1
g2
(lp185
g0
(g1
g2
(lp186
Va boat sailin '
p187
atp188
Rp189
(dp190
g11
S'start: 5'
p191
sbatp192
Rp193
(dp194
g11
S'sent: 11'
p195
sbag0
(g1
g2
(lp196
g0
(g1
g2
(lp197
Vsailin '
p198
atp199
Rp200
(dp201
g11
S'start: 17'
p202
sbatp203
Rp204
(dp205
g11
S'sent: 11'
p206
sbatp207
Rp208
(dp209
g11
S'id: 34'
p210
sbag0
(g1
g2
(lp211
g0
(g1
g2
(lp212
g0
(g1
g2
(lp213
Veverybody 's
p214
atp215
Rp216
(dp217
g11
S'start: 20'
p218
sbatp219
Rp220
(dp221
g11
S'sent: 11'
p222
sbag0
(g1
g2
(lp223
g0
(g1
g2
(lp224
Vthat
p225
atp226
Rp227
(dp228
g11
S'start: 24'
p229
sbatp230
Rp231
(dp232
g11
S'sent: 11'
p233
sbatp234
Rp235
(dp236
g11
S'id: 40'
p237
sbag0
(g1
g2
(lp238
g0
(g1
g2
(lp239
g0
(g1
g2
(lp240
Vincludin '
p241
atp242
Rp243
(dp244
g11
S'start: 1'
p245
sbatp246
Rp247
(dp248
g11
S'sent: 12'
p249
sbag0
(g1
g2
(lp250
g0
(g1
g2
(lp251
Vshe
p252
atp253
Rp254
(dp255
g11
S'start: 1'
p256
sbatp257
Rp258
(dp259
g11
S'sent: 13'
p260
sbatp261
Rp262
(dp263
g11
S'id: 43'
p264
sbag0
(g1
g2
(lp265
g0
(g1
g2
(lp266
g0
(g1
g2
(lp267
Vmusic playing from a music box
p268
atp269
Rp270
(dp271
g11
S'start: 4'
p272
sbatp273
Rp274
(dp275
g11
S'sent: 13'
p276
sbag0
(g1
g2
(lp277
g0
(g1
g2
(lp278
Vit
p279
atp280
Rp281
(dp282
g11
S'start: 1'
p283
sbatp284
Rp285
(dp286
g11
S'sent: 14'
p287
sbag0
(g1
g2
(lp288
g0
(g1
g2
(lp289
Va fairly windy day
p290
atp291
Rp292
(dp293
g11
S'start: 3'
p294
sbatp295
Rp296
(dp297
g11
S'sent: 14'
p298
sbag0
(g1
g2
(lp299
g0
(g1
g2
(lp300
Vthat
p301
atp302
Rp303
(dp304
g11
S'start: 4'
p305
sbatp306
Rp307
(dp308
g11
S'sent: 15'
p309
sbag0
(g1
g2
(lp310
g0
(g1
g2
(lp311
Vit
p312
atp313
Rp314
(dp315
g11
S'start: 6'
p316
sbatp317
Rp318
(dp319
g11
S'sent: 15'
p320
sbatp321
Rp322
(dp323
g11
S'id: 46'
p324
sbag0
(g1
g2
(lp325
g0
(g1
g2
(lp326
g0
(g1
g2
(lp327
VI
p328
atp329
Rp330
(dp331
g11
S'start: 2'
p332
sbatp333
Rp334
(dp335
g11
S'sent: 15'
p336
sbag0
(g1
g2
(lp337
g0
(g1
g2
(lp338
Vthat
p339
atp340
Rp341
(dp342
g11
S'start: 3'
p343
sbatp344
Rp345
(dp346
g11
S'sent: 16'
p347
sbatp348
Rp349
(dp350
g11
S'id: 52'
p351
sbatp352
Rp353
(dp354
g11
S'coreferences'
p355
sb.