ccopy_reg
_reconstructor
p0
(cnltk.tree
Tree
p1
c__builtin__
list
p2
(lp3
g0
(g1
g2
(lp4
g0
(g1
g2
(lp5
g0
(g1
g2
(lp6
VI
p7
atp8
Rp9
(dp10
S'_label'
p11
S'start: 2'
p12
sbatp13
Rp14
(dp15
g11
S'sent: 1'
p16
sbag0
(g1
g2
(lp17
g0
(g1
g2
(lp18
VI
p19
atp20
Rp21
(dp22
g11
S'start: 11'
p23
sbatp24
Rp25
(dp26
g11
S'sent: 4'
p27
sbatp28
Rp29
(dp30
g11
S'id: 1'
p31
sbag0
(g1
g2
(lp32
g0
(g1
g2
(lp33
g0
(g1
g2
(lp34
Va girl
p35
atp36
Rp37
(dp38
g11
S'start: 7'
p39
sbatp40
Rp41
(dp42
g11
S'sent: 1'
p43
sbag0
(g1
g2
(lp44
g0
(g1
g2
(lp45
Vthe girl
p46
atp47
Rp48
(dp49
g11
S'start: 7'
p50
sbatp51
Rp52
(dp53
g11
S'sent: 10'
p54
sbatp55
Rp56
(dp57
g11
S'id: 4'
p58
sbag0
(g1
g2
(lp59
g0
(g1
g2
(lp60
g0
(g1
g2
(lp61
Vthe boy 's on a ladder
p62
atp63
Rp64
(dp65
g11
S'start: 1'
p66
sbatp67
Rp68
(dp69
g11
S'sent: 2'
p70
sbag0
(g1
g2
(lp71
g0
(g1
g2
(lp72
Vhe
p73
atp74
Rp75
(dp76
g11
S'start: 18'
p77
sbatp78
Rp79
(dp80
g11
S'sent: 2'
p81
sbag0
(g1
g2
(lp82
g0
(g1
g2
(lp83
Vhe
p84
atp85
Rp86
(dp87
g11
S'start: 27'
p88
sbatp89
Rp90
(dp91
g11
S'sent: 2'
p92
sbag0
(g1
g2
(lp93
g0
(g1
g2
(lp94
Vhis
p95
atp96
Rp97
(dp98
g11
S'start: 1'
p99
sbatp100
Rp101
(dp102
g11
S'sent: 3'
p103
sbag0
(g1
g2
(lp104
g0
(g1
g2
(lp105
Vthe boy
p106
atp107
Rp108
(dp109
g11
S'start: 1'
p110
sbatp111
Rp112
(dp113
g11
S'sent: 10'
p114
sbatp115
Rp116
(dp117
g11
S'id: 5'
p118
sbag0
(g1
g2
(lp119
g0
(g1
g2
(lp120
g0
(g1
g2
(lp121
Va ladder
p122
atp123
Rp124
(dp125
g11
S'start: 5'
p126
sbatp127
Rp128
(dp129
g11
S'sent: 2'
p130
sbag0
(g1
g2
(lp131
g0
(g1
g2
(lp132
Vit
p133
atp134
Rp135
(dp136
g11
S'start: 13'
p137
sbatp138
Rp139
(dp140
g11
S'sent: 2'
p141
sbatp142
Rp143
(dp144
g11
S'id: 6'
p145
sbag0
(g1
g2
(lp146
g0
(g1
g2
(lp147
g0
(g1
g2
(lp148
Vhis mother
p149
atp150
Rp151
(dp152
g11
S'start: 1'
p153
sbatp154
Rp155
(dp156
g11
S'sent: 3'
p157
sbag0
(g1
g2
(lp158
g0
(g1
g2
(lp159
Vshe
p160
atp161
Rp162
(dp163
g11
S'start: 12'
p164
sbatp165
Rp166
(dp167
g11
S'sent: 3'
p168
sbag0
(g1
g2
(lp169
g0
(g1
g2
(lp170
Vshe
p171
atp172
Rp173
(dp174
g11
S'start: 26'
p175
sbatp176
Rp177
(dp178
g11
S'sent: 3'
p179
sbag0
(g1
g2
(lp180
g0
(g1
g2
(lp181
Vthe mother
p182
atp183
Rp184
(dp185
g11
S'start: 1'
p186
sbatp187
Rp188
(dp189
g11
S'sent: 12'
p190
sbag0
(g1
g2
(lp191
g0
(g1
g2
(lp192
Vher
p193
atp194
Rp195
(dp196
g11
S'start: 12'
p197
sbatp198
Rp199
(dp200
g11
S'sent: 12'
p201
sbatp202
Rp203
(dp204
g11
S'id: 15'
p205
sbag0
(g1
g2
(lp206
g0
(g1
g2
(lp207
g0
(g1
g2
(lp208
Vthe sink
p209
atp210
Rp211
(dp212
g11
S'start: 20'
p213
sbatp214
Rp215
(dp216
g11
S'sent: 3'
p217
sbag0
(g1
g2
(lp218
g0
(g1
g2
(lp219
Voverflowin '
p220
atp221
Rp222
(dp223
g11
S'start: 23'
p224
sbatp225
Rp226
(dp227
g11
S'sent: 3'
p228
sbatp229
Rp230
(dp231
g11
S'id: 21'
p232
sbag0
(g1
g2
(lp233
g0
(g1
g2
(lp234
g0
(g1
g2
(lp235
Vshorts
p236
atp237
Rp238
(dp239
g11
S'start: 5'
p240
sbatp241
Rp242
(dp243
g11
S'sent: 10'
p244
sbag0
(g1
g2
(lp245
g0
(g1
g2
(lp246
Vthat
p247
atp248
Rp249
(dp250
g11
S'start: 1'
p251
sbatp252
Rp253
(dp254
g11
S'sent: 11'
p255
sbatp256
Rp257
(dp258
g11
S'id: 38'
p259
sbag0
(g1
g2
(lp260
g0
(g1
g2
(lp261
g0
(g1
g2
(lp262
Von an apron , a drying cloth in her hand or dish cloth so
p263
atp264
Rp265
(dp266
g11
S'start: 4'
p267
sbatp268
Rp269
(dp270
g11
S'sent: 12'
p271
sbag0
(g1
g2
(lp272
g0
(g1
g2
(lp273
Vit
p274
atp275
Rp276
(dp277
g11
S'start: 1'
p278
sbatp279
Rp280
(dp281
g11
S'sent: 13'
p282
sbag0
(g1
g2
(lp283
g0
(g1
g2
(lp284
Va little disaster area
p285
atp286
Rp287
(dp288
g11
S'start: 3'
p289
sbatp290
Rp291
(dp292
g11
S'sent: 13'
p293
sbatp294
Rp295
(dp296
g11
S'id: 43'
p297
sbag0
(g1
g2
(lp298
g0
(g1
g2
(lp299
g0
(g1
g2
(lp300
Van apron
p301
atp302
Rp303
(dp304
g11
S'start: 5'
p305
sbatp306
Rp307
(dp308
g11
S'sent: 12'
p309
sbag0
(g1
g2
(lp310
g0
(g1
g2
(lp311
Va drying cloth in her hand or dish cloth so
p312
atp313
Rp314
(dp315
g11
S'start: 8'
p316
sbatp317
Rp318
(dp319
g11
S'sent: 12'
p320
sbag0
(g1
g2
(lp321
g0
(g1
g2
(lp322
Vher hand or dish cloth so
p323
atp324
Rp325
(dp326
g11
S'start: 12'
p327
sbatp328
Rp329
(dp330
g11
S'sent: 12'
p331
sbatp332
Rp333
(dp334
g11
S'id: 45'
p335
sbatp336
Rp337
(dp338
g11
S'coreferences'
p339
sb.