ccopy_reg
_reconstructor
p0
(cnltk.tree
Tree
p1
c__builtin__
list
p2
(lp3
g0
(g1
g2
(lp4
g0
(g1
g2
(lp5
g0
(g1
g2
(lp6
(lp7
S'word: this, index: 1'
p8
aatp9
Rp10
(dp11
S'_label'
p12
Vnsubj
p13
sbag0
(g1
g2
(lp14
(lp15
S'word: is, index: 2'
p16
aatp17
Rp18
(dp19
g12
Vcop
p20
sbag0
(g1
g2
(lp21
(lp22
S'word: a, index: 3'
p23
aatp24
Rp25
(dp26
g12
Vdet
p27
sbag0
(g1
g2
(lp28
g0
(g1
g2
(lp29
g0
(g1
g2
(lp30
(lp31
S'word: a, index: 6'
p32
aatp33
Rp34
(dp35
g12
Vdet
p36
sbatp37
Rp38
(dp39
g12
S'word: clown, index: 7'
p40
sbatp41
Rp42
(dp43
g12
Vprep
p44
sbatp45
Rp46
(dp47
g12
S'word: circus, index: 4'
p48
sbatp49
Rp50
(dp51
g12
S'id: 0'
p52
sbag0
(g1
g2
(lp53
g0
(g1
g2
(lp54
g0
(g1
g2
(lp55
g0
(g1
g2
(lp56
g0
(g1
g2
(lp57
g0
(g1
g2
(lp58
g0
(g1
g2
(lp59
(lp60
S'word: the, index: 8'
p61
aatp62
Rp63
(dp64
g12
Vprep
p65
sbatp66
Rp67
(dp68
g12
S'word: the, index: 6'
p69
sbatp70
Rp71
(dp72
g12
Vprep
p73
sbag0
(g1
g2
(lp74
(lp75
S'word: a, index: 2'
p76
aatp77
Rp78
(dp79
g12
Vdet
p80
sbatp81
Rp82
(dp83
g12
S'word: lion, index: 4'
p84
sbatp85
Rp86
(dp87
g12
Vdobj
p88
sbag0
(g1
g2
(lp89
g0
(g1
g2
(lp90
g0
(g1
g2
(lp91
g0
(g1
g2
(lp92
g0
(g1
g2
(lp93
g0
(g1
g2
(lp94
g0
(g1
g2
(lp95
(lp96
S'word: the, index: 12'
p97
aatp98
Rp99
(dp100
g12
Vdet
p101
sbatp102
Rp103
(dp104
g12
S'word: trainer, index: 13'
p105
sbatp106
Rp107
(dp108
g12
Vpobj
p109
sbatp110
Rp111
(dp112
g12
S'word: with, index: 11'
p113
sbatp114
Rp115
(dp116
g12
Vpcomp
p117
sbatp118
Rp119
(dp120
g12
S'word: in, index: 10'
p121
sbatp122
Rp123
(dp124
g12
Vprep
p125
sbatp126
Rp127
(dp128
g12
S'word: got, index: 1'
p129
sbatp130
Rp131
(dp132
g12
S'id: 1'
p133
sbag0
(g1
g2
(lp134
g0
(g1
g2
(lp135
g0
(g1
g2
(lp136
(lp137
S'word: walker, index: 2'
p138
aatp139
Rp140
(dp141
g12
Vdep
p142
sbatp143
Rp144
(dp145
g12
S'word: tightrope, index: 1'
p146
sbatp147
Rp148
(dp149
g12
S'id: 2'
p150
sbag0
(g1
g2
(lp151
g0
(g1
g2
(lp152
g0
(g1
g2
(lp153
g0
(g1
g2
(lp154
g0
(g1
g2
(lp155
(lp156
S'word: the, index: 3'
p157
aatp158
Rp159
(dp160
g12
Vdet
p161
sbatp162
Rp163
(dp164
g12
S'word: park, index: 4'
p165
sbatp166
Rp167
(dp168
g12
Vprep
p169
sbag0
(g1
g2
(lp170
g0
(g1
g2
(lp171
g0
(g1
g2
(lp172
(lp173
S'word: on, index: 6'
p174
aatp175
Rp176
(dp177
g12
Vprep
p178
sbatp179
Rp180
(dp181
g12
S'word: looking, index: 5'
p182
sbatp183
Rp184
(dp185
g12
Vvmod
p186
sbatp187
Rp188
(dp189
g12
S'word: people, index: 1'
p190
sbatp191
Rp192
(dp193
g12
S'id: 3'
p194
sbag0
(g1
g2
(lp195
g0
(g1
g2
(lp196
g0
(g1
g2
(lp197
(lp198
S'word: a, index: 1'
p199
aatp200
Rp201
(dp202
g12
Vdet
p203
sbag0
(g1
g2
(lp204
g0
(g1
g2
(lp205
g0
(g1
g2
(lp206
(lp207
S'word: a, index: 4'
p208
aatp209
Rp210
(dp211
g12
Vdet
p212
sbatp213
Rp214
(dp215
g12
S'word: horse, index: 5'
p216
sbatp217
Rp218
(dp219
g12
Vprep
p220
sbag0
(g1
g2
(lp221
g0
(g1
g2
(lp222
g0
(g1
g2
(lp223
(lp224
S'word: the, index: 7'
p225
aatp226
Rp227
(dp228
g12
Vdet
p229
sbatp230
Rp231
(dp232
g12
S'word: ring, index: 8'
p233
sbatp234
Rp235
(dp236
g12
Vprep
p237
sbatp238
Rp239
(dp240
g12
S'word: lady, index: 2'
p241
sbatp242
Rp243
(dp244
g12
S'id: 4'
p245
sbag0
(g1
g2
(lp246
g0
(g1
g2
(lp247
g0
(g1
g2
(lp248
g0
(g1
g2
(lp249
g0
(g1
g2
(lp250
(lp251
S'word: her, index: 3'
p252
aatp253
Rp254
(dp255
g12
Vposs
p256
sbag0
(g1
g2
(lp257
(lp258
S'word: child, index: 6'
p259
aatp260
Rp261
(dp262
g12
Vconj
p263
sbatp264
Rp265
(dp266
g12
S'word: baby, index: 4'
p267
sbatp268
Rp269
(dp270
g12
Vprep
p271
sbag0
(g1
g2
(lp272
(lp273
S'word: child, index: 6'
p274
aatp275
Rp276
(dp277
g12
Vprep
p278
sbatp279
Rp280
(dp281
g12
S'word: lady, index: 1'
p282
sbatp283
Rp284
(dp285
g12
S'id: 5'
p286
sbag0
(g1
g2
(lp287
g0
(g1
g2
(lp288
g0
(g1
g2
(lp289
g0
(g1
g2
(lp290
g0
(g1
g2
(lp291
(lp292
S'word: like, index: 2'
p293
aatp294
Rp295
(dp296
g12
Vmark
p297
sbag0
(g1
g2
(lp298
g0
(g1
g2
(lp299
g0
(g1
g2
(lp300
(lp301
S'word: the, index: 3'
p302
aatp303
Rp304
(dp305
g12
Vdet
p306
sbatp307
Rp308
(dp309
g12
S'word: popcorn, index: 4'
p310
sbatp311
Rp312
(dp313
g12
Vnsubjpass
p314
sbag0
(g1
g2
(lp315
(lp316
S'word: is, index: 5'
p317
aatp318
Rp319
(dp320
g12
Vaux
p321
sbag0
(g1
g2
(lp322
(lp323
S'word: being, index: 6'
p324
aatp325
Rp326
(dp327
g12
Vauxpass
p328
sbag0
(g1
g2
(lp329
(lp330
S'word: out, index: 8'
p331
aatp332
Rp333
(dp334
g12
Vprt
p335
sbag0
(g1
g2
(lp336
g0
(g1
g2
(lp337
g0
(g1
g2
(lp338
g0
(g1
g2
(lp339
g0
(g1
g2
(lp340
(lp341
S'word: the, index: 12'
p342
aatp343
Rp344
(dp345
g12
Vdet
p346
sbatp347
Rp348
(dp349
g12
S'word: kid, index: 13'
p350
sbatp351
Rp352
(dp353
g12
Vprep
p354
sbag0
(g1
g2
(lp355
g0
(g1
g2
(lp356
g0
(g1
g2
(lp357
(lp358
S'word: the, index: 15'
p359
aatp360
Rp361
(dp362
g12
Vdet
p363
sbatp364
Rp365
(dp366
g12
S'word: clown, index: 16'
p367
sbatp368
Rp369
(dp370
g12
Vprep
p371
sbatp372
Rp373
(dp374
g12
S'word: candy, index: 10'
p375
sbatp376
Rp377
(dp378
g12
Vconj
p379
sbatp380
Rp381
(dp382
g12
S'word: thrown, index: 7'
p383
sbatp384
Rp385
(dp386
g12
Vadvcl
p387
sbag0
(g1
g2
(lp388
g373
atp389
Rp390
(dp391
g12
Vadvcl
p392
sbatp393
Rp394
(dp395
g12
S'word: Looks, index: 1'
p396
sbatp397
Rp398
(dp399
g12
S'id: 6'
p400
sbag0
(g1
g2
(lp401
g0
(g1
g2
(lp402
g0
(g1
g2
(lp403
g0
(g1
g2
(lp404
g0
(g1
g2
(lp405
(lp406
S'word: little, index: 5'
p407
aatp408
Rp409
(dp410
g12
Vamod
p411
sbag0
(g1
g2
(lp412
g0
(g1
g2
(lp413
g0
(g1
g2
(lp414
(lp415
S'word: who, index: 7'
p416
aatp417
Rp418
(dp419
g12
Vnsubj
p420
sbag0
(g1
g2
(lp421
(lp422
S"word: 's, index: 8"
p423
aatp424
Rp425
(dp426
g12
Vaux
p427
sbag0
(g1
g2
(lp428
g0
(g1
g2
(lp429
g0
(g1
g2
(lp430
g0
(g1
g2
(lp431
g0
(g1
g2
(lp432
g0
(g1
g2
(lp433
g0
(g1
g2
(lp434
(lp435
S'word: the, index: 13'
p436
aatp437
Rp438
(dp439
g12
Vdet
p440
sbatp441
Rp442
(dp443
g12
S'word: left, index: 14'
p444
sbatp445
Rp446
(dp447
g12
Vpobj
p448
sbatp449
Rp450
(dp451
g12
S'word: from, index: 12'
p452
sbatp453
Rp454
(dp455
g12
Vpcomp
p456
sbatp457
Rp458
(dp459
g12
S'word: on, index: 11'
p460
sbatp461
Rp462
(dp463
g12
Vprep
p464
sbag0
(g1
g2
(lp465
g0
(g1
g2
(lp466
g0
(g1
g2
(lp467
g0
(g1
g2
(lp468
g0
(g1
g2
(lp469
(lp470
S'word: the, index: 17'
p471
aatp472
Rp473
(dp474
g12
Vdet
p475
sbatp476
Rp477
(dp478
g12
S'word: clown, index: 18'
p479
sbatp480
Rp481
(dp482
g12
Vprep
p483
sbatp484
Rp485
(dp486
g12
S'word: pointing, index: 15'
p487
sbatp488
Rp489
(dp490
g12
Vvmod
p491
sbatp492
Rp493
(dp494
g12
S'word: lookin, index: 9'
p495
sbatp496
Rp497
(dp498
g12
Vrcmod
p499
sbag0
(g1
g2
(lp500
(lp501
S'word: a, index: 4'
p502
aatp503
Rp504
(dp505
g12
Vdet
p506
sbatp507
Rp508
(dp509
g12
S'word: girl, index: 6'
p510
sbatp511
Rp512
(dp513
g12
Vnsubj
p514
sbag0
(g1
g2
(lp515
(lp516
S'word: and, index: 1'
p517
aatp518
Rp519
(dp520
g12
Vcc
p521
sbag0
(g1
g2
(lp522
(lp523
S'word: there, index: 2'
p524
aatp525
Rp526
(dp527
g12
Vexpl
p528
sbatp529
Rp530
(dp531
g12
S"word: 's, index: 3"
p532
sbatp533
Rp534
(dp535
g12
S'id: 7'
p536
sbag0
(g1
g2
(lp537
tp538
Rp539
(dp540
g12
S'id: 8'
p541
sbag0
(g1
g2
(lp542
g0
(g1
g2
(lp543
g0
(g1
g2
(lp544
(lp545
S'word: of, index: 12'
p546
aatp547
Rp548
(dp549
g12
Vprepc
p550
sbag0
(g1
g2
(lp551
g0
(g1
g2
(lp552
g0
(g1
g2
(lp553
(lp554
S'word: his, index: 13'
p555
aatp556
Rp557
(dp558
g12
Vposs
p559
sbatp560
Rp561
(dp562
g12
S'word: hair, index: 14'
p563
sbatp564
Rp565
(dp566
g12
Vpobj
p567
sbag0
(g1
g2
(lp568
g0
(g1
g2
(lp569
g0
(g1
g2
(lp570
g0
(g1
g2
(lp571
g0
(g1
g2
(lp572
(lp573
S'word: the, index: 1'
p574
aatp575
Rp576
(dp577
g12
Vdet
p578
sbag0
(g1
g2
(lp579
g0
(g1
g2
(lp580
g0
(g1
g2
(lp581
(lp582
S'word: the, index: 4'
p583
aatp584
Rp585
(dp586
g12
Vdet
p587
sbatp588
Rp589
(dp590
g12
S'word: left, index: 5'
p591
sbatp592
Rp593
(dp594
g12
Vprep
p595
sbatp596
Rp597
(dp598
g12
S'word: guy, index: 2'
p599
sbatp600
Rp601
(dp602
g12
Vnsubj
p603
sbag0
(g1
g2
(lp604
(lp605
S'word: is, index: 6'
p606
aatp607
Rp608
(dp609
g12
Vcop
p610
sbatp611
Rp612
(dp613
g12
S'word: black, index: 7'
p614
sbatp615
Rp616
(dp617
g12
Vccomp
p618
sbag0
(g1
g2
(lp619
(lp620
S'word: i, index: 9'
p621
aatp622
Rp623
(dp624
g12
Vnsubj
p625
sbatp626
Rp627
(dp628
g12
S'word: think, index: 10'
p629
sbatp630
Rp631
(dp632
g12
S'id: 9'
p633
sbag0
(g1
g2
(lp634
g0
(g1
g2
(lp635
g0
(g1
g2
(lp636
(lp637
S'word: i, index: 1'
p638
aatp639
Rp640
(dp641
g12
Vnsubj
p642
sbag0
(g1
g2
(lp643
(lp644
S'word: do, index: 2'
p645
aatp646
Rp647
(dp648
g12
Vaux
p649
sbag0
(g1
g2
(lp650
(lp651
S"word: n't, index: 3"
p652
aatp653
Rp654
(dp655
g12
Vneg
p656
sbag0
(g1
g2
(lp657
g0
(g1
g2
(lp658
g0
(g1
g2
(lp659
(lp660
S'word: much, index: 5'
p661
aatp662
Rp663
(dp664
g12
Vnsubj
p665
sbatp666
Rp667
(dp668
g12
S'word: else, index: 6'
p669
sbatp670
Rp671
(dp672
g12
Vxcomp
p673
sbatp674
Rp675
(dp676
g12
S'word: see, index: 4'
p677
sbatp678
Rp679
(dp680
g12
S'id: 10'
p681
sbatp682
Rp683
(dp684
g12
S'sentences'
p685
sb.