ccopy_reg
_reconstructor
p0
(cnltk.tree
Tree
p1
c__builtin__
list
p2
(lp3
g0
(g1
g2
(lp4
g0
(g1
g2
(lp5
g0
(g1
g2
(lp6
Valright , this
p7
atp8
Rp9
(dp10
S'_label'
p11
S'start: 1'
p12
sbatp13
Rp14
(dp15
g11
S'sent: 1'
p16
sbag0
(g1
g2
(lp17
g0
(g1
g2
(lp18
Va picture i 've seen before
p19
atp20
Rp21
(dp22
g11
S'start: 5'
p23
sbatp24
Rp25
(dp26
g11
S'sent: 1'
p27
sbatp28
Rp29
(dp30
g11
S'id: 1'
p31
sbag0
(g1
g2
(lp32
g0
(g1
g2
(lp33
g0
(g1
g2
(lp34
Vi
p35
atp36
Rp37
(dp38
g11
S'start: 7'
p39
sbatp40
Rp41
(dp42
g11
S'sent: 1'
p43
sbag0
(g1
g2
(lp44
g0
(g1
g2
(lp45
Vi
p46
atp47
Rp48
(dp49
g11
S'start: 8'
p50
sbatp51
Rp52
(dp53
g11
S'sent: 9'
p54
sbag0
(g1
g2
(lp55
g0
(g1
g2
(lp56
VI
p57
atp58
Rp59
(dp60
g11
S'start: 5'
p61
sbatp62
Rp63
(dp64
g11
S'sent: 15'
p65
sbatp66
Rp67
(dp68
g11
S'id: 4'
p69
sbag0
(g1
g2
(lp70
g0
(g1
g2
(lp71
g0
(g1
g2
(lp72
Vthe kitchen
p73
atp74
Rp75
(dp76
g11
S'start: 2'
p77
sbatp78
Rp79
(dp80
g11
S'sent: 2'
p81
sbag0
(g1
g2
(lp82
g0
(g1
g2
(lp83
Vthe kitchen
p84
atp85
Rp86
(dp87
g11
S'start: 7'
p88
sbatp89
Rp90
(dp91
g11
S'sent: 7'
p92
sbatp93
Rp94
(dp95
g11
S'id: 5'
p96
sbag0
(g1
g2
(lp97
g0
(g1
g2
(lp98
g0
(g1
g2
(lp99
Va plate
p100
atp101
Rp102
(dp103
g11
S'start: 4'
p104
sbatp105
Rp106
(dp107
g11
S'sent: 3'
p108
sbag0
(g1
g2
(lp109
g0
(g1
g2
(lp110
Va plate
p111
atp112
Rp113
(dp114
g11
S'start: 7'
p115
sbatp116
Rp117
(dp118
g11
S'sent: 6'
p119
sbatp120
Rp121
(dp122
g11
S'id: 6'
p123
sbag0
(g1
g2
(lp124
g0
(g1
g2
(lp125
g0
(g1
g2
(lp126
Vshe
p127
atp128
Rp129
(dp130
g11
S'start: 2'
p131
sbatp132
Rp133
(dp134
g11
S'sent: 4'
p135
sbag0
(g1
g2
(lp136
g0
(g1
g2
(lp137
Vshe
p138
atp139
Rp140
(dp141
g11
S'start: 6'
p142
sbatp143
Rp144
(dp145
g11
S'sent: 4'
p146
sbag0
(g1
g2
(lp147
g0
(g1
g2
(lp148
Vshe
p149
atp150
Rp151
(dp152
g11
S'start: 24'
p153
sbatp154
Rp155
(dp156
g11
S'sent: 4'
p157
sbatp158
Rp159
(dp160
g11
S'id: 7'
p161
sbag0
(g1
g2
(lp162
g0
(g1
g2
(lp163
g0
(g1
g2
(lp164
Vthe floor
p165
atp166
Rp167
(dp168
g11
S'start: 19'
p169
sbatp170
Rp171
(dp172
g11
S'sent: 4'
p173
sbag0
(g1
g2
(lp174
g0
(g1
g2
(lp175
Vthe floor
p176
atp177
Rp178
(dp179
g11
S'start: 6'
p180
sbatp181
Rp182
(dp183
g11
S'sent: 10'
p184
sbag0
(g1
g2
(lp185
g0
(g1
g2
(lp186
Vthe floor
p187
atp188
Rp189
(dp190
g11
S'start: 11'
p191
sbatp192
Rp193
(dp194
g11
S'sent: 10'
p195
sbatp196
Rp197
(dp198
g11
S'id: 11'
p199
sbag0
(g1
g2
(lp200
g0
(g1
g2
(lp201
g0
(g1
g2
(lp202
Vthe window
p203
atp204
Rp205
(dp206
g11
S'start: 2'
p207
sbatp208
Rp209
(dp210
g11
S'sent: 5'
p211
sbag0
(g1
g2
(lp212
g0
(g1
g2
(lp213
Vthe window
p214
atp215
Rp216
(dp217
g11
S'start: 2'
p218
sbatp219
Rp220
(dp221
g11
S'sent: 12'
p222
sbatp223
Rp224
(dp225
g11
S'id: 13'
p226
sbag0
(g1
g2
(lp227
g0
(g1
g2
(lp228
g0
(g1
g2
(lp229
Vtwo
p230
atp231
Rp232
(dp233
g11
S'start: 11'
p234
sbatp235
Rp236
(dp237
g11
S'sent: 6'
p238
sbag0
(g1
g2
(lp239
g0
(g1
g2
(lp240
Vtwo
p241
atp242
Rp243
(dp244
g11
S'start: 12'
p245
sbatp246
Rp247
(dp248
g11
S'sent: 7'
p249
sbatp250
Rp251
(dp252
g11
S'id: 21'
p253
sbag0
(g1
g2
(lp254
g0
(g1
g2
(lp255
g0
(g1
g2
(lp256
Vthe boy
p257
atp258
Rp259
(dp260
g11
S'start: 1'
p261
sbatp262
Rp263
(dp264
g11
S'sent: 8'
p265
sbag0
(g1
g2
(lp266
g0
(g1
g2
(lp267
Vhe
p268
atp269
Rp270
(dp271
g11
S'start: 2'
p272
sbatp273
Rp274
(dp275
g11
S'sent: 9'
p276
sbag0
(g1
g2
(lp277
g0
(g1
g2
(lp278
Vhis
p279
atp280
Rp281
(dp282
g11
S'start: 10'
p283
sbatp284
Rp285
(dp286
g11
S'sent: 9'
p287
sbag0
(g1
g2
(lp288
g0
(g1
g2
(lp289
Vhe
p290
atp291
Rp292
(dp293
g11
S'start: 14'
p294
sbatp295
Rp296
(dp297
g11
S'sent: 9'
p298
sbag0
(g1
g2
(lp299
g0
(g1
g2
(lp300
Vhis
p301
atp302
Rp303
(dp304
g11
S'start: 17'
p305
sbatp306
Rp307
(dp308
g11
S'sent: 9'
p309
sbag0
(g1
g2
(lp310
g0
(g1
g2
(lp311
Vhis
p312
atp313
Rp314
(dp315
g11
S'start: 1'
p316
sbatp317
Rp318
(dp319
g11
S'sent: 10'
p320
sbag0
(g1
g2
(lp321
g0
(g1
g2
(lp322
Vthe boy 's
p323
atp324
Rp325
(dp326
g11
S'start: 12'
p327
sbatp328
Rp329
(dp330
g11
S'sent: 14'
p331
sbag0
(g1
g2
(lp332
g0
(g1
g2
(lp333
Vhis
p334
atp335
Rp336
(dp337
g11
S'start: 23'
p338
sbatp339
Rp340
(dp341
g11
S'sent: 14'
p342
sbatp343
Rp344
(dp345
g11
S'id: 31'
p346
sbag0
(g1
g2
(lp347
g0
(g1
g2
(lp348
g0
(g1
g2
(lp349
Va stool trying to reach the cookies in the cookie jar
p350
atp351
Rp352
(dp353
g11
S'start: 6'
p354
sbatp355
Rp356
(dp357
g11
S'sent: 8'
p358
sbag0
(g1
g2
(lp359
g0
(g1
g2
(lp360
Vthe stool
p361
atp362
Rp363
(dp364
g11
S'start: 20'
p365
sbatp366
Rp367
(dp368
g11
S'sent: 9'
p369
sbatp370
Rp371
(dp372
g11
S'id: 32'
p373
sbag0
(g1
g2
(lp374
g0
(g1
g2
(lp375
g0
(g1
g2
(lp376
Vhis sister
p377
atp378
Rp379
(dp380
g11
S'start: 1'
p381
sbatp382
Rp383
(dp384
g11
S'sent: 10'
p385
sbag0
(g1
g2
(lp386
g0
(g1
g2
(lp387
Vshe
p388
atp389
Rp390
(dp391
g11
S'start: 1'
p392
sbatp393
Rp394
(dp395
g11
S'sent: 11'
p396
sbag0
(g1
g2
(lp397
g0
(g1
g2
(lp398
Vher
p399
atp400
Rp401
(dp402
g11
S'start: 10'
p403
sbatp404
Rp405
(dp406
g11
S'sent: 11'
p407
sbag0
(g1
g2
(lp408
g0
(g1
g2
(lp409
Vshe
p410
atp411
Rp412
(dp413
g11
S'start: 13'
p414
sbatp415
Rp416
(dp417
g11
S'sent: 11'
p418
sbag0
(g1
g2
(lp419
g0
(g1
g2
(lp420
Vshe
p421
atp422
Rp423
(dp424
g11
S'start: 17'
p425
sbatp426
Rp427
(dp428
g11
S'sent: 11'
p429
sbag0
(g1
g2
(lp430
g0
(g1
g2
(lp431
Vher
p432
atp433
Rp434
(dp435
g11
S'start: 21'
p436
sbatp437
Rp438
(dp439
g11
S'sent: 11'
p440
sbag0
(g1
g2
(lp441
g0
(g1
g2
(lp442
Vher
p443
atp444
Rp445
(dp446
g11
S'start: 10'
p447
sbatp448
Rp449
(dp450
g11
S'sent: 13'
p451
sbag0
(g1
g2
(lp452
g0
(g1
g2
(lp453
Vhis sister
p454
atp455
Rp456
(dp457
g11
S'start: 23'
p458
sbatp459
Rp460
(dp461
g11
S'sent: 14'
p462
sbatp463
Rp464
(dp465
g11
S'id: 45'
p466
sbag0
(g1
g2
(lp467
g0
(g1
g2
(lp468
g0
(g1
g2
(lp469
Vher brother
p470
atp471
Rp472
(dp473
g11
S'start: 10'
p474
sbatp475
Rp476
(dp477
g11
S'sent: 11'
p478
sbag0
(g1
g2
(lp479
g0
(g1
g2
(lp480
Vher brother
p481
atp482
Rp483
(dp484
g11
S'start: 21'
p485
sbatp486
Rp487
(dp488
g11
S'sent: 11'
p489
sbatp490
Rp491
(dp492
g11
S'id: 51'
p493
sbag0
(g1
g2
(lp494
g0
(g1
g2
(lp495
g0
(g1
g2
(lp496
Va half apron over her dress
p497
atp498
Rp499
(dp500
g11
S'start: 6'
p501
sbatp502
Rp503
(dp504
g11
S'sent: 13'
p505
sbag0
(g1
g2
(lp506
g0
(g1
g2
(lp507
Vit
p508
atp509
Rp510
(dp511
g11
S'start: 1'
p512
sbatp513
Rp514
(dp515
g11
S'sent: 14'
p516
sbag0
(g1
g2
(lp517
g0
(g1
g2
(lp518
Vthat
p519
atp520
Rp521
(dp522
g11
S'start: 2'
p523
sbatp524
Rp525
(dp526
g11
S'sent: 15'
p527
sbatp528
Rp529
(dp530
g11
S'id: 60'
p531
sbatp532
Rp533
(dp534
g11
S'coreferences'
p535
sb.