ccopy_reg
_reconstructor
p0
(cnltk.tree
Tree
p1
c__builtin__
list
p2
(lp3
g0
(g1
g2
(lp4
g0
(g1
g2
(lp5
g0
(g1
g2
(lp6
(lp7
S'word: we, index: 1'
p8
aatp9
Rp10
(dp11
S'_label'
p12
Vnsubj
p13
sbag0
(g1
g2
(lp14
g0
(g1
g2
(lp15
g0
(g1
g2
(lp16
(lp17
S'word: the, index: 4'
p18
aatp19
Rp20
(dp21
g12
Vdet
p22
sbatp23
Rp24
(dp25
g12
S'word: kitchen, index: 5'
p26
sbatp27
Rp28
(dp29
g12
Vprep
p30
sbatp31
Rp32
(dp33
g12
S"word: 're, index: 2"
p34
sbatp35
Rp36
(dp37
g12
S'id: 0'
p38
sbag0
(g1
g2
(lp39
g0
(g1
g2
(lp40
g0
(g1
g2
(lp41
(lp42
S'word: mom, index: 3'
p43
aatp44
Rp45
(dp46
g12
Vnsubj
p47
sbag0
(g1
g2
(lp48
(lp49
S'word: is, index: 4'
p50
aatp51
Rp52
(dp53
g12
Vaux
p54
sbag0
(g1
g2
(lp55
(lp56
S'word: dishes, index: 6'
p57
aatp58
Rp59
(dp60
g12
Vdobj
p61
sbag0
(g1
g2
(lp62
g0
(g1
g2
(lp63
g0
(g1
g2
(lp64
g0
(g1
g2
(lp65
g0
(g1
g2
(lp66
(lp67
S'word: she, index: 20'
p68
aatp69
Rp70
(dp71
g12
Vnsubj
p72
sbag0
(g1
g2
(lp73
(lp74
S"word: 's, index: 21"
p75
aatp76
Rp77
(dp78
g12
Vaux
p79
sbag0
(g1
g2
(lp80
(lp81
S'word: not, index: 22'
p82
aatp83
Rp84
(dp85
g12
Vneg
p86
sbag0
(g1
g2
(lp87
g0
(g1
g2
(lp88
g0
(g1
g2
(lp89
g0
(g1
g2
(lp90
g0
(g1
g2
(lp91
g0
(g1
g2
(lp92
g0
(g1
g2
(lp93
(lp94
S'word: who, index: 36'
p95
aatp96
Rp97
(dp98
g12
Vnsubj
p99
sbag0
(g1
g2
(lp100
(lp101
S'word: is, index: 37'
p102
aatp103
Rp104
(dp105
g12
Vaux
p106
sbag0
(g1
g2
(lp107
g0
(g1
g2
(lp108
g0
(g1
g2
(lp109
(lp110
S'word: the, index: 40'
p111
aatp112
Rp113
(dp114
g12
Vdet
p115
sbatp116
Rp117
(dp118
g12
S'word: stool, index: 41'
p119
sbatp120
Rp121
(dp122
g12
Vprep
p123
sbatp124
Rp125
(dp126
g12
S'word: standing, index: 38'
p127
sbatp128
Rp129
(dp130
g12
Vrcmod
p131
sbag0
(g1
g2
(lp132
(lp133
S'word: the, index: 34'
p134
aatp135
Rp136
(dp137
g12
Vdet
p138
sbatp139
Rp140
(dp141
g12
S'word: boy, index: 35'
p142
sbatp143
Rp144
(dp145
g12
Vnsubj
p146
sbag0
(g1
g2
(lp147
(lp148
S'word: is, index: 42'
p149
aatp150
Rp151
(dp152
g12
Vaux
p153
sbag0
(g1
g2
(lp154
g0
(g1
g2
(lp155
g0
(g1
g2
(lp156
(lp157
S'word: to, index: 44'
p158
aatp159
Rp160
(dp161
g12
Vaux
p162
sbag0
(g1
g2
(lp163
g0
(g1
g2
(lp164
g0
(g1
g2
(lp165
(lp166
S'word: his, index: 46'
p167
aatp168
Rp169
(dp170
g12
Vposs
p171
sbatp172
Rp173
(dp174
g12
S'word: neck, index: 47'
p175
sbatp176
Rp177
(dp178
g12
Vdobj
p179
sbag0
(g1
g2
(lp180
g0
(g1
g2
(lp181
g0
(g1
g2
(lp182
(lp183
S"word: 's, index: 51"
p184
aatp185
Rp186
(dp187
g12
Vpossessive
p188
sbag0
(g1
g2
(lp189
g0
(g1
g2
(lp190
g0
(g1
g2
(lp191
g0
(g1
g2
(lp192
g0
(g1
g2
(lp193
(lp194
S'word: na, index: 53'
p195
aatp196
Rp197
(dp198
g12
Vaux
p199
sbatp200
Rp201
(dp202
g12
S'word: fall, index: 54'
p203
sbatp204
Rp205
(dp206
g12
Vxcomp
p207
sbatp208
Rp209
(dp210
g12
S'word: gon, index: 52'
p211
sbatp212
Rp213
(dp214
g12
Vvmod
p215
sbag0
(g1
g2
(lp216
(lp217
S'word: the, index: 49'
p218
aatp219
Rp220
(dp221
g12
Vdet
p222
sbatp223
Rp224
(dp225
g12
S'word: stool, index: 50'
p226
sbatp227
Rp228
(dp229
g12
Vprep
p230
sbatp231
Rp232
(dp233
g12
S'word: break, index: 45'
p234
sbatp235
Rp236
(dp237
g12
Vxcomp
p238
sbatp239
Rp240
(dp241
g12
S'word: about, index: 43'
p242
sbatp243
Rp244
(dp245
g12
Vconj
p246
sbag0
(g1
g2
(lp247
g0
(g1
g2
(lp248
g0
(g1
g2
(lp249
(lp250
S'word: that, index: 24'
p251
aatp252
Rp253
(dp254
g12
Vmark
p255
sbag0
(g1
g2
(lp256
g0
(g1
g2
(lp257
g0
(g1
g2
(lp258
(lp259
S'word: the, index: 25'
p260
aatp261
Rp262
(dp263
g12
Vdet
p264
sbatp265
Rp266
(dp267
g12
S'word: kids, index: 26'
p268
sbatp269
Rp270
(dp271
g12
Vnsubj
p272
sbag0
(g1
g2
(lp273
(lp274
S'word: are, index: 27'
p275
aatp276
Rp277
(dp278
g12
Vcop
p279
sbag0
(g1
g2
(lp280
g0
(g1
g2
(lp281
g0
(g1
g2
(lp282
(lp283
S'word: the, index: 29'
p284
aatp285
Rp286
(dp287
g12
Vdet
p288
sbag0
(g1
g2
(lp289
(lp290
S'word: cookie, index: 30'
p291
aatp292
Rp293
(dp294
g12
Vnn
p295
sbatp296
Rp297
(dp298
g12
S'word: jar, index: 31'
p299
sbatp300
Rp301
(dp302
g12
Vdep
p303
sbatp304
Rp305
(dp306
g12
S'word: raiding, index: 28'
p307
sbatp308
Rp309
(dp310
g12
Vccomp
p311
sbatp312
Rp313
(dp314
g12
S'word: noticing, index: 23'
p315
sbatp316
Rp317
(dp318
g12
Vdep
p319
sbag0
(g1
g2
(lp320
(lp321
S'word: it, index: 8'
p322
aatp323
Rp324
(dp325
g12
Vnsubj
p326
sbag0
(g1
g2
(lp327
g0
(g1
g2
(lp328
g0
(g1
g2
(lp329
g313
atp330
Rp331
(dp332
g12
Vconj
p333
sbag0
(g1
g2
(lp334
g240
atp335
Rp336
(dp337
g12
Vconj
p338
sbag0
(g1
g2
(lp339
g0
(g1
g2
(lp340
g0
(g1
g2
(lp341
(lp342
S'word: the, index: 11'
p343
aatp344
Rp345
(dp346
g12
Vdet
p347
sbatp348
Rp349
(dp350
g12
S'word: sink, index: 12'
p351
sbatp352
Rp353
(dp354
g12
Vprep
p355
sbag0
(g1
g2
(lp356
(lp357
S'word: it, index: 13'
p358
aatp359
Rp360
(dp361
g12
Vnsubj
p362
sbag0
(g1
g2
(lp363
g0
(g1
g2
(lp364
g0
(g1
g2
(lp365
(lp366
S'word: it, index: 16'
p367
aatp368
Rp369
(dp370
g12
Vnsubj
p371
sbag0
(g1
g2
(lp372
(lp373
S'word: is, index: 17'
p374
aatp375
Rp376
(dp377
g12
Vaux
p378
sbatp379
Rp380
(dp381
g12
S'word: overflowing, index: 18'
p382
sbatp383
Rp384
(dp385
g12
Vconj
p386
sbatp387
Rp388
(dp389
g12
S'word: clogged, index: 14'
p390
sbatp391
Rp392
(dp393
g12
Vdep
p394
sbag0
(g1
g2
(lp395
g380
atp396
Rp397
(dp398
g12
Vdep
p399
sbatp400
Rp401
(dp402
g12
S'word: looks, index: 9'
p403
sbatp404
Rp405
(dp406
g12
Vconj
p407
sbag0
(g1
g2
(lp408
(lp409
S'word: and, index: 1'
p410
aatp411
Rp412
(dp413
g12
Vadvmod
p414
sbatp415
Rp416
(dp417
g12
S'word: doing, index: 5'
p418
sbatp419
Rp420
(dp421
g12
S'id: 1'
p422
sbatp423
Rp424
(dp425
g12
S'sentences'
p426
sb.