ccopy_reg
_reconstructor
p0
(cnltk.tree
Tree
p1
c__builtin__
list
p2
(lp3
g0
(g1
g2
(lp4
g0
(g1
g2
(lp5
g0
(g1
g2
(lp6
g0
(g1
g2
(lp7
Vthis
p8
atp9
Rp10
(dp11
S'_label'
p12
VDT
p13
sbatp14
Rp15
(dp16
g12
VNP
p17
sbag0
(g1
g2
(lp18
g0
(g1
g2
(lp19
Vis
p20
atp21
Rp22
(dp23
g12
VVBZ
p24
sbag0
(g1
g2
(lp25
g0
(g1
g2
(lp26
g0
(g1
g2
(lp27
Va
p28
atp29
Rp30
(dp31
g12
VDT
p32
sbag0
(g1
g2
(lp33
g0
(g1
g2
(lp34
V,
p35
atp36
Rp37
(dp38
g12
V,
p39
sbag0
(g1
g2
(lp40
g0
(g1
g2
(lp41
Vwow
p42
atp43
Rp44
(dp45
g12
VNN
p46
sbatp47
Rp48
(dp49
g12
VNP
p50
sbag0
(g1
g2
(lp51
V,
p52
atp53
Rp54
(dp55
g12
V,
p56
sbatp57
Rp58
(dp59
g12
VPRN
p60
sbatp61
Rp62
(dp63
g12
VADJP
p64
sbag0
(g1
g2
(lp65
Vkitchen
p66
atp67
Rp68
(dp69
g12
VNN
p70
sbag0
(g1
g2
(lp71
Vscene
p72
atp73
Rp74
(dp75
g12
VNN
p76
sbatp77
Rp78
(dp79
g12
VNP
p80
sbatp81
Rp82
(dp83
g12
VVP
p84
sbag0
(g1
g2
(lp85
V.
p86
atp87
Rp88
(dp89
g12
V.
p90
sbatp91
Rp92
(dp93
g12
VS
p94
sbatp95
Rp96
(dp97
g12
S'id: 0'
p98
sbag0
(g1
g2
(lp99
g0
(g1
g2
(lp100
g0
(g1
g2
(lp101
g0
(g1
g2
(lp102
g0
(g1
g2
(lp103
g0
(g1
g2
(lp104
Vyou
p105
atp106
Rp107
(dp108
g12
VPRP
p109
sbatp110
Rp111
(dp112
g12
VNP
p113
sbag0
(g1
g2
(lp114
g0
(g1
g2
(lp115
Vhave
p116
atp117
Rp118
(dp119
g12
VVBP
p120
sbag0
(g1
g2
(lp121
g0
(g1
g2
(lp122
Vmom
p123
atp124
Rp125
(dp126
g12
VNN
p127
sbag0
(g1
g2
(lp128
Vstanding
p129
atp130
Rp131
(dp132
g12
VNN
p133
sbatp134
Rp135
(dp136
g12
VNP
p137
sbag0
(g1
g2
(lp138
g0
(g1
g2
(lp139
Vat
p140
atp141
Rp142
(dp143
g12
VIN
p144
sbag0
(g1
g2
(lp145
g0
(g1
g2
(lp146
g0
(g1
g2
(lp147
Vthe
p148
atp149
Rp150
(dp151
g12
VDT
p152
sbag0
(g1
g2
(lp153
Vkitchen
p154
atp155
Rp156
(dp157
g12
VNN
p158
sbag0
(g1
g2
(lp159
Vsink
p160
atp161
Rp162
(dp163
g12
VNN
p164
sbatp165
Rp166
(dp167
g12
VNP
p168
sbag0
(g1
g2
(lp169
g0
(g1
g2
(lp170
Vin
p171
atp172
Rp173
(dp174
g12
VIN
p175
sbag0
(g1
g2
(lp176
g0
(g1
g2
(lp177
g0
(g1
g2
(lp178
Vfront
p179
atp180
Rp181
(dp182
g12
VNN
p183
sbatp184
Rp185
(dp186
g12
VNP
p187
sbag0
(g1
g2
(lp188
g0
(g1
g2
(lp189
Vof
p190
atp191
Rp192
(dp193
g12
VIN
p194
sbag0
(g1
g2
(lp195
g0
(g1
g2
(lp196
g0
(g1
g2
(lp197
Va
p198
atp199
Rp200
(dp201
g12
VDT
p202
sbag0
(g1
g2
(lp203
g0
(g1
g2
(lp204
Vvery
p205
atp206
Rp207
(dp208
g12
VRB
p209
sbag0
(g1
g2
(lp210
Vlarge
p211
atp212
Rp213
(dp214
g12
VJJ
p215
sbatp216
Rp217
(dp218
g12
VADJP
p219
sbag0
(g1
g2
(lp220
Vwindow
p221
atp222
Rp223
(dp224
g12
VNN
p225
sbatp226
Rp227
(dp228
g12
VNP
p229
sbag0
(g1
g2
(lp230
g0
(g1
g2
(lp231
Vwith
p232
atp233
Rp234
(dp235
g12
VIN
p236
sbag0
(g1
g2
(lp237
g0
(g1
g2
(lp238
Vcurtains
p239
atp240
Rp241
(dp242
g12
VNNS
p243
sbatp244
Rp245
(dp246
g12
VNP
p247
sbatp248
Rp249
(dp250
g12
VPP
p251
sbatp252
Rp253
(dp254
g12
VNP
p255
sbatp256
Rp257
(dp258
g12
VPP
p259
sbatp260
Rp261
(dp262
g12
VNP
p263
sbatp264
Rp265
(dp266
g12
VPP
p267
sbatp268
Rp269
(dp270
g12
VNP
p271
sbatp272
Rp273
(dp274
g12
VPP
p275
sbag0
(g1
g2
(lp276
V,
p277
atp278
Rp279
(dp280
g12
V,
p281
sbag0
(g1
g2
(lp282
g0
(g1
g2
(lp283
g0
(g1
g2
(lp284
Vwiping
p285
atp286
Rp287
(dp288
g12
VVBG
p289
sbag0
(g1
g2
(lp290
g0
(g1
g2
(lp291
Vsome
p292
atp293
Rp294
(dp295
g12
VDT
p296
sbag0
(g1
g2
(lp297
Vdishes
p298
atp299
Rp300
(dp301
g12
VNNS
p302
sbatp303
Rp304
(dp305
g12
VNP
p306
sbatp307
Rp308
(dp309
g12
VVP
p310
sbatp311
Rp312
(dp313
g12
VS
p314
sbatp315
Rp316
(dp317
g12
VVP
p318
sbatp319
Rp320
(dp321
g12
VS
p322
sbag0
(g1
g2
(lp323
Vand
p324
atp325
Rp326
(dp327
g12
VCC
p328
sbag0
(g1
g2
(lp329
g0
(g1
g2
(lp330
g0
(g1
g2
(lp331
Vthe
p332
atp333
Rp334
(dp335
g12
VDT
p336
sbag0
(g1
g2
(lp337
Vsink
p338
atp339
Rp340
(dp341
g12
VNN
p342
sbatp343
Rp344
(dp345
g12
VNP
p346
sbag0
(g1
g2
(lp347
g0
(g1
g2
(lp348
Vis
p349
atp350
Rp351
(dp352
g12
VVBZ
p353
sbag0
(g1
g2
(lp354
g0
(g1
g2
(lp355
Vrunning
p356
atp357
Rp358
(dp359
g12
VVBG
p360
sbag0
(g1
g2
(lp361
g0
(g1
g2
(lp362
Vover
p363
atp364
Rp365
(dp366
g12
VRP
p367
sbatp368
Rp369
(dp370
g12
VPRT
p371
sbag0
(g1
g2
(lp372
g0
(g1
g2
(lp373
Vapparently
p374
atp375
Rp376
(dp377
g12
VRB
p378
sbatp379
Rp380
(dp381
g12
VADVP
p382
sbatp383
Rp384
(dp385
g12
VVP
p386
sbatp387
Rp388
(dp389
g12
VVP
p390
sbatp391
Rp392
(dp393
g12
VS
p394
sbatp395
Rp396
(dp397
g12
VS
p398
sbag0
(g1
g2
(lp399
g0
(g1
g2
(lp400
Vshe
p401
atp402
Rp403
(dp404
g12
VPRP
p405
sbatp406
Rp407
(dp408
g12
VNP
p409
sbag0
(g1
g2
(lp410
g0
(g1
g2
(lp411
Vhas
p412
atp413
Rp414
(dp415
g12
VVBZ
p416
sbag0
(g1
g2
(lp417
Vnot
p418
atp419
Rp420
(dp421
g12
VRB
p422
sbag0
(g1
g2
(lp423
g0
(g1
g2
(lp424
Vlooked
p425
atp426
Rp427
(dp428
g12
VVBN
p429
sbag0
(g1
g2
(lp430
g0
(g1
g2
(lp431
g0
(g1
g2
(lp432
Vto
p433
atp434
Rp435
(dp436
g12
VTO
p437
sbag0
(g1
g2
(lp438
g0
(g1
g2
(lp439
Vnotice
p440
atp441
Rp442
(dp443
g12
VVB
p444
sbag0
(g1
g2
(lp445
g0
(g1
g2
(lp446
Vthat
p447
atp448
Rp449
(dp450
g12
VIN
p451
sbag0
(g1
g2
(lp452
g0
(g1
g2
(lp453
g0
(g1
g2
(lp454
Vthere
p455
atp456
Rp457
(dp458
g12
VEX
p459
sbatp460
Rp461
(dp462
g12
VNP
p463
sbag0
(g1
g2
(lp464
g0
(g1
g2
(lp465
V's
p466
atp467
Rp468
(dp469
g12
VVBZ
p470
sbag0
(g1
g2
(lp471
g0
(g1
g2
(lp472
g0
(g1
g2
(lp473
Vwater
p474
atp475
Rp476
(dp477
g12
VNN
p478
sbatp479
Rp480
(dp481
g12
VNP
p482
sbag0
(g1
g2
(lp483
g0
(g1
g2
(lp484
g0
(g1
g2
(lp485
Vall
p486
atp487
Rp488
(dp489
g12
VDT
p490
sbatp491
Rp492
(dp493
g12
VADVP
p494
sbag0
(g1
g2
(lp495
Vover
p496
atp497
Rp498
(dp499
g12
VIN
p500
sbag0
(g1
g2
(lp501
g0
(g1
g2
(lp502
Vthe
p503
atp504
Rp505
(dp506
g12
VDT
p507
sbag0
(g1
g2
(lp508
Vfloor
p509
atp510
Rp511
(dp512
g12
VNN
p513
sbatp514
Rp515
(dp516
g12
VNP
p517
sbatp518
Rp519
(dp520
g12
VPP
p521
sbatp522
Rp523
(dp524
g12
VNP
p525
sbatp526
Rp527
(dp528
g12
VVP
p529
sbatp530
Rp531
(dp532
g12
VS
p533
sbatp534
Rp535
(dp536
g12
VSBAR
p537
sbatp538
Rp539
(dp540
g12
VVP
p541
sbatp542
Rp543
(dp544
g12
VVP
p545
sbatp546
Rp547
(dp548
g12
VS
p549
sbatp550
Rp551
(dp552
g12
VVP
p553
sbatp554
Rp555
(dp556
g12
VVP
p557
sbag0
(g1
g2
(lp558
V.
p559
atp560
Rp561
(dp562
g12
V.
p563
sbatp564
Rp565
(dp566
g12
VS
p567
sbatp568
Rp569
(dp570
g12
S'id: 1'
p571
sbag0
(g1
g2
(lp572
g0
(g1
g2
(lp573
g0
(g1
g2
(lp574
Vand
p575
atp576
Rp577
(dp578
g12
VCC
p579
sbag0
(g1
g2
(lp580
g0
(g1
g2
(lp581
Vit
p582
atp583
Rp584
(dp585
g12
VPRP
p586
sbatp587
Rp588
(dp589
g12
VNP
p590
sbag0
(g1
g2
(lp591
g0
(g1
g2
(lp592
V's
p593
atp594
Rp595
(dp596
g12
VVBZ
p597
sbag0
(g1
g2
(lp598
g0
(g1
g2
(lp599
Vjust
p600
atp601
Rp602
(dp603
g12
VRB
p604
sbatp605
Rp606
(dp607
g12
VADVP
p608
sbag0
(g1
g2
(lp609
g0
(g1
g2
(lp610
Vcascading
p611
atp612
Rp613
(dp614
g12
VVBG
p615
sbag0
(g1
g2
(lp616
g0
(g1
g2
(lp617
Vout
p618
atp619
Rp620
(dp621
g12
VIN
p622
sbatp623
Rp624
(dp625
g12
VPRT
p626
sbag0
(g1
g2
(lp627
g0
(g1
g2
(lp628
Vof
p629
atp630
Rp631
(dp632
g12
VIN
p633
sbag0
(g1
g2
(lp634
g0
(g1
g2
(lp635
Vthe
p636
atp637
Rp638
(dp639
g12
VDT
p640
sbag0
(g1
g2
(lp641
Vsink
p642
atp643
Rp644
(dp645
g12
VNN
p646
sbatp647
Rp648
(dp649
g12
VNP
p650
sbatp651
Rp652
(dp653
g12
VPP
p654
sbag0
(g1
g2
(lp655
g0
(g1
g2
(lp656
Vso
p657
atp658
Rp659
(dp660
g12
VIN
p661
sbag0
(g1
g2
(lp662
g0
(g1
g2
(lp663
g0
(g1
g2
(lp664
VI
p665
atp666
Rp667
(dp668
g12
VPRP
p669
sbatp670
Rp671
(dp672
g12
VNP
p673
sbag0
(g1
g2
(lp674
g0
(g1
g2
(lp675
Vdo
p676
atp677
Rp678
(dp679
g12
VVBP
p680
sbag0
(g1
g2
(lp681
Vn't
p682
atp683
Rp684
(dp685
g12
VRB
p686
sbag0
(g1
g2
(lp687
g0
(g1
g2
(lp688
Vknow
p689
atp690
Rp691
(dp692
g12
VVB
p693
sbag0
(g1
g2
(lp694
g0
(g1
g2
(lp695
g0
(g1
g2
(lp696
Vwhy
p697
atp698
Rp699
(dp700
g12
VWRB
p701
sbatp702
Rp703
(dp704
g12
VWHADVP
p705
sbag0
(g1
g2
(lp706
g0
(g1
g2
(lp707
g0
(g1
g2
(lp708
Vshe
p709
atp710
Rp711
(dp712
g12
VPRP
p713
sbatp714
Rp715
(dp716
g12
VNP
p717
sbag0
(g1
g2
(lp718
g0
(g1
g2
(lp719
Vca
p720
atp721
Rp722
(dp723
g12
VMD
p724
sbag0
(g1
g2
(lp725
Vn't
p726
atp727
Rp728
(dp729
g12
VRB
p730
sbag0
(g1
g2
(lp731
g0
(g1
g2
(lp732
Vsee
p733
atp734
Rp735
(dp736
g12
VVB
p737
sbag0
(g1
g2
(lp738
g0
(g1
g2
(lp739
Vthat
p740
atp741
Rp742
(dp743
g12
VDT
p744
sbatp745
Rp746
(dp747
g12
VNP
p748
sbatp749
Rp750
(dp751
g12
VVP
p752
sbatp753
Rp754
(dp755
g12
VVP
p756
sbatp757
Rp758
(dp759
g12
VS
p760
sbatp761
Rp762
(dp763
g12
VSBAR
p764
sbatp765
Rp766
(dp767
g12
VVP
p768
sbatp769
Rp770
(dp771
g12
VVP
p772
sbatp773
Rp774
(dp775
g12
VS
p776
sbatp777
Rp778
(dp779
g12
VSBAR
p780
sbatp781
Rp782
(dp783
g12
VVP
p784
sbatp785
Rp786
(dp787
g12
VVP
p788
sbag0
(g1
g2
(lp789
V.
p790
atp791
Rp792
(dp793
g12
V.
p794
sbatp795
Rp796
(dp797
g12
VS
p798
sbatp799
Rp800
(dp801
g12
S'id: 2'
p802
sbag0
(g1
g2
(lp803
g0
(g1
g2
(lp804
g0
(g1
g2
(lp805
g0
(g1
g2
(lp806
Vbehind
p807
atp808
Rp809
(dp810
g12
VIN
p811
sbag0
(g1
g2
(lp812
g0
(g1
g2
(lp813
Vher
p814
atp815
Rp816
(dp817
g12
VPRP$
p818
sbag0
(g1
g2
(lp819
g0
(g1
g2
(lp820
g0
(g1
g2
(lp821
Vit
p822
atp823
Rp824
(dp825
g12
VPRP
p826
sbatp827
Rp828
(dp829
g12
VNP
p830
sbag0
(g1
g2
(lp831
V,
p832
atp833
Rp834
(dp835
g12
V,
p836
sbag0
(g1
g2
(lp837
g0
(g1
g2
(lp838
Vtwo
p839
atp840
Rp841
(dp842
g12
VCD
p843
sbag0
(g1
g2
(lp844
Vchildren
p845
atp846
Rp847
(dp848
g12
VNNS
p849
sbatp850
Rp851
(dp852
g12
VNP
p853
sbatp854
Rp855
(dp856
g12
VNP
p857
sbatp858
Rp859
(dp860
g12
VNP
p861
sbatp862
Rp863
(dp864
g12
VPP
p865
sbag0
(g1
g2
(lp866
V,
p867
atp868
Rp869
(dp870
g12
V,
p871
sbag0
(g1
g2
(lp872
g0
(g1
g2
(lp873
g0
(g1
g2
(lp874
g0
(g1
g2
(lp875
Vone
p876
atp877
Rp878
(dp879
g12
VCD
p880
sbatp881
Rp882
(dp883
g12
VNP
p884
sbag0
(g1
g2
(lp885
Vup
p886
atp887
Rp888
(dp889
g12
VRP
p890
sbatp891
Rp892
(dp893
g12
VADVP
p894
sbag0
(g1
g2
(lp895
Von
p896
atp897
Rp898
(dp899
g12
VIN
p900
sbag0
(g1
g2
(lp901
g0
(g1
g2
(lp902
Va
p903
atp904
Rp905
(dp906
g12
VDT
p907
sbag0
(g1
g2
(lp908
Vthree
p909
atp910
Rp911
(dp912
g12
VCD
p913
sbag0
(g1
g2
(lp914
Vlegged
p915
atp916
Rp917
(dp918
g12
VJJ
p919
sbag0
(g1
g2
(lp920
Vstool
p921
atp922
Rp923
(dp924
g12
VNN
p925
sbatp926
Rp927
(dp928
g12
VNP
p929
sbatp930
Rp931
(dp932
g12
VPP
p933
sbag0
(g1
g2
(lp934
V,
p935
atp936
Rp937
(dp938
g12
V,
p939
sbag0
(g1
g2
(lp940
g0
(g1
g2
(lp941
g0
(g1
g2
(lp942
Vthe
p943
atp944
Rp945
(dp946
g12
VDT
p947
sbag0
(g1
g2
(lp948
Vyoung
p949
atp950
Rp951
(dp952
g12
VJJ
p953
sbag0
(g1
g2
(lp954
Vboy
p955
atp956
Rp957
(dp958
g12
VNN
p959
sbatp960
Rp961
(dp962
g12
VNP
p963
sbag0
(g1
g2
(lp964
V,
p965
atp966
Rp967
(dp968
g12
V,
p969
sbag0
(g1
g2
(lp970
g0
(g1
g2
(lp971
g0
(g1
g2
(lp972
Vwho
p973
atp974
Rp975
(dp976
g12
VWP
p977
sbatp978
Rp979
(dp980
g12
VWHNP
p981
sbag0
(g1
g2
(lp982
g0
(g1
g2
(lp983
g0
(g1
g2
(lp984
V's
p985
atp986
Rp987
(dp988
g12
VVBZ
p989
sbag0
(g1
g2
(lp990
g0
(g1
g2
(lp991
Vtaking
p992
atp993
Rp994
(dp995
g12
VVBG
p996
sbag0
(g1
g2
(lp997
g0
(g1
g2
(lp998
g0
(g1
g2
(lp999
Vcookies
p1000
atp1001
Rp1002
(dp1003
g12
VNNS
p1004
sbatp1005
Rp1006
(dp1007
g12
VNP
p1008
sbag0
(g1
g2
(lp1009
g0
(g1
g2
(lp1010
Vout
p1011
atp1012
Rp1013
(dp1014
g12
VIN
p1015
sbag0
(g1
g2
(lp1016
g0
(g1
g2
(lp1017
Vof
p1018
atp1019
Rp1020
(dp1021
g12
VIN
p1022
sbag0
(g1
g2
(lp1023
g0
(g1
g2
(lp1024
Vthe
p1025
atp1026
Rp1027
(dp1028
g12
VDT
p1029
sbag0
(g1
g2
(lp1030
Vcookie
p1031
atp1032
Rp1033
(dp1034
g12
VNN
p1035
sbag0
(g1
g2
(lp1036
Vjar
p1037
atp1038
Rp1039
(dp1040
g12
VNN
p1041
sbatp1042
Rp1043
(dp1044
g12
VNP
p1045
sbatp1046
Rp1047
(dp1048
g12
VPP
p1049
sbatp1050
Rp1051
(dp1052
g12
VADVP
p1053
sbag0
(g1
g2
(lp1054
g0
(g1
g2
(lp1055
g0
(g1
g2
(lp1056
Vwhich
p1057
atp1058
Rp1059
(dp1060
g12
VWDT
p1061
sbatp1062
Rp1063
(dp1064
g12
VWHNP
p1065
sbatp1066
Rp1067
(dp1068
g12
VSBAR
p1069
sbatp1070
Rp1071
(dp1072
g12
VNP
p1073
sbatp1074
Rp1075
(dp1076
g12
VVP
p1077
sbatp1078
Rp1079
(dp1080
g12
VVP
p1081
sbatp1082
Rp1083
(dp1084
g12
VS
p1085
sbatp1086
Rp1087
(dp1088
g12
VSBAR
p1089
sbatp1090
Rp1091
(dp1092
g12
VNP
p1093
sbag0
(g1
g2
(lp1094
g0
(g1
g2
(lp1095
Vis
p1096
atp1097
Rp1098
(dp1099
g12
VVBZ
p1100
sbag0
(g1
g2
(lp1101
g0
(g1
g2
(lp1102
Von
p1103
atp1104
Rp1105
(dp1106
g12
VIN
p1107
sbag0
(g1
g2
(lp1108
g0
(g1
g2
(lp1109
g0
(g1
g2
(lp1110
Vthe
p1111
atp1112
Rp1113
(dp1114
g12
VDT
p1115
sbag0
(g1
g2
(lp1116
Vtop
p1117
atp1118
Rp1119
(dp1120
g12
VJJ
p1121
sbag0
(g1
g2
(lp1122
Vshelf
p1123
atp1124
Rp1125
(dp1126
g12
VNN
p1127
sbatp1128
Rp1129
(dp1130
g12
VNP
p1131
sbag0
(g1
g2
(lp1132
g0
(g1
g2
(lp1133
Vof
p1134
atp1135
Rp1136
(dp1137
g12
VIN
p1138
sbag0
(g1
g2
(lp1139
g0
(g1
g2
(lp1140
Vthe
p1141
atp1142
Rp1143
(dp1144
g12
VDT
p1145
sbag0
(g1
g2
(lp1146
Vtop
p1147
atp1148
Rp1149
(dp1150
g12
VJJ
p1151
sbag0
(g1
g2
(lp1152
Vcupboards
p1153
atp1154
Rp1155
(dp1156
g12
VNNS
p1157
sbatp1158
Rp1159
(dp1160
g12
VNP
p1161
sbatp1162
Rp1163
(dp1164
g12
VPP
p1165
sbatp1166
Rp1167
(dp1168
g12
VNP
p1169
sbatp1170
Rp1171
(dp1172
g12
VPP
p1173
sbatp1174
Rp1175
(dp1176
g12
VVP
p1177
sbag0
(g1
g2
(lp1178
V.
p1179
atp1180
Rp1181
(dp1182
g12
V.
p1183
sbatp1184
Rp1185
(dp1186
g12
VS
p1187
sbatp1188
Rp1189
(dp1190
g12
S'id: 3'
p1191
sbag0
(g1
g2
(lp1192
g0
(g1
g2
(lp1193
g0
(g1
g2
(lp1194
Vand
p1195
atp1196
Rp1197
(dp1198
g12
VCC
p1199
sbag0
(g1
g2
(lp1200
g0
(g1
g2
(lp1201
V,
p1202
atp1203
Rp1204
(dp1205
g12
V,
p1206
sbag0
(g1
g2
(lp1207
g0
(g1
g2
(lp1208
g0
(g1
g2
(lp1209
Vthe
p1210
atp1211
Rp1212
(dp1213
g12
VDT
p1214
sbag0
(g1
g2
(lp1215
Vstool
p1216
atp1217
Rp1218
(dp1219
g12
VNN
p1220
sbatp1221
Rp1222
(dp1223
g12
VNP
p1224
sbag0
(g1
g2
(lp1225
g0
(g1
g2
(lp1226
Vis
p1227
atp1228
Rp1229
(dp1230
g12
VVBZ
p1231
sbag0
(g1
g2
(lp1232
g0
(g1
g2
(lp1233
Von
p1234
atp1235
Rp1236
(dp1237
g12
VIN
p1238
sbag0
(g1
g2
(lp1239
g0
(g1
g2
(lp1240
Vtwo
p1241
atp1242
Rp1243
(dp1244
g12
VCD
p1245
sbag0
(g1
g2
(lp1246
Vlegs
p1247
atp1248
Rp1249
(dp1250
g12
VNNS
p1251
sbatp1252
Rp1253
(dp1254
g12
VNP
p1255
sbatp1256
Rp1257
(dp1258
g12
VPP
p1259
sbag0
(g1
g2
(lp1260
g0
(g1
g2
(lp1261
Vso
p1262
atp1263
Rp1264
(dp1265
g12
VIN
p1266
sbag0
(g1
g2
(lp1267
g0
(g1
g2
(lp1268
g0
(g1
g2
(lp1269
Vit
p1270
atp1271
Rp1272
(dp1273
g12
VPRP
p1274
sbatp1275
Rp1276
(dp1277
g12
VNP
p1278
sbag0
(g1
g2
(lp1279
g0
(g1
g2
(lp1280
V's
p1281
atp1282
Rp1283
(dp1284
g12
VVBZ
p1285
sbag0
(g1
g2
(lp1286
g0
(g1
g2
(lp1287
Vteetering
p1288
atp1289
Rp1290
(dp1291
g12
VVBG
p1292
sbatp1293
Rp1294
(dp1295
g12
VVP
p1296
sbatp1297
Rp1298
(dp1299
g12
VVP
p1300
sbatp1301
Rp1302
(dp1303
g12
VS
p1304
sbatp1305
Rp1306
(dp1307
g12
VSBAR
p1308
sbatp1309
Rp1310
(dp1311
g12
VVP
p1312
sbatp1313
Rp1314
(dp1315
g12
VS
p1316
sbag0
(g1
g2
(lp1317
V,
p1318
atp1319
Rp1320
(dp1321
g12
V,
p1322
sbatp1323
Rp1324
(dp1325
g12
VPRN
p1326
sbag0
(g1
g2
(lp1327
g0
(g1
g2
(lp1328
Vhe
p1329
atp1330
Rp1331
(dp1332
g12
VPRP
p1333
sbatp1334
Rp1335
(dp1336
g12
VNP
p1337
sbag0
(g1
g2
(lp1338
g0
(g1
g2
(lp1339
V's
p1340
atp1341
Rp1342
(dp1343
g12
VVBZ
p1344
sbag0
(g1
g2
(lp1345
g0
(g1
g2
(lp1346
Vgoing
p1347
atp1348
Rp1349
(dp1350
g12
VVBG
p1351
sbag0
(g1
g2
(lp1352
g0
(g1
g2
(lp1353
g0
(g1
g2
(lp1354
Vto
p1355
atp1356
Rp1357
(dp1358
g12
VTO
p1359
sbag0
(g1
g2
(lp1360
g0
(g1
g2
(lp1361
Vfall
p1362
atp1363
Rp1364
(dp1365
g12
VVB
p1366
sbatp1367
Rp1368
(dp1369
g12
VVP
p1370
sbatp1371
Rp1372
(dp1373
g12
VVP
p1374
sbatp1375
Rp1376
(dp1377
g12
VS
p1378
sbatp1379
Rp1380
(dp1381
g12
VVP
p1382
sbatp1383
Rp1384
(dp1385
g12
VVP
p1386
sbag0
(g1
g2
(lp1387
V.
p1388
atp1389
Rp1390
(dp1391
g12
V.
p1392
sbatp1393
Rp1394
(dp1395
g12
VS
p1396
sbatp1397
Rp1398
(dp1399
g12
S'id: 4'
p1400
sbag0
(g1
g2
(lp1401
g0
(g1
g2
(lp1402
g0
(g1
g2
(lp1403
g0
(g1
g2
(lp1404
Vnext
p1405
atp1406
Rp1407
(dp1408
g12
VIN
p1409
sbag0
(g1
g2
(lp1410
g0
(g1
g2
(lp1411
Vto
p1412
atp1413
Rp1414
(dp1415
g12
VTO
p1416
sbag0
(g1
g2
(lp1417
g0
(g1
g2
(lp1418
Vhim
p1419
atp1420
Rp1421
(dp1422
g12
VPRP
p1423
sbatp1424
Rp1425
(dp1426
g12
VNP
p1427
sbatp1428
Rp1429
(dp1430
g12
VPP
p1431
sbatp1432
Rp1433
(dp1434
g12
VADVP
p1435
sbag0
(g1
g2
(lp1436
g0
(g1
g2
(lp1437
Vis
p1438
atp1439
Rp1440
(dp1441
g12
VVBZ
p1442
sbatp1443
Rp1444
(dp1445
g12
VVP
p1446
sbag0
(g1
g2
(lp1447
g0
(g1
g2
(lp1448
g0
(g1
g2
(lp1449
Vhis
p1450
atp1451
Rp1452
(dp1453
g12
VPRP$
p1454
sbag0
(g1
g2
(lp1455
Vsister
p1456
atp1457
Rp1458
(dp1459
g12
VNN
p1460
sbatp1461
Rp1462
(dp1463
g12
VNP
p1464
sbag0
(g1
g2
(lp1465
g0
(g1
g2
(lp1466
g0
(g1
g2
(lp1467
Vwho
p1468
atp1469
Rp1470
(dp1471
g12
VWP
p1472
sbatp1473
Rp1474
(dp1475
g12
VWHNP
p1476
sbag0
(g1
g2
(lp1477
g0
(g1
g2
(lp1478
g0
(g1
g2
(lp1479
V's
p1480
atp1481
Rp1482
(dp1483
g12
VVBZ
p1484
sbag0
(g1
g2
(lp1485
g0
(g1
g2
(lp1486
Vgot
p1487
atp1488
Rp1489
(dp1490
g12
VVBD
p1491
sbag0
(g1
g2
(lp1492
g0
(g1
g2
(lp1493
Vher
p1494
atp1495
Rp1496
(dp1497
g12
VPRP$
p1498
sbag0
(g1
g2
(lp1499
Vhand
p1500
atp1501
Rp1502
(dp1503
g12
VNN
p1504
sbatp1505
Rp1506
(dp1507
g12
VNP
p1508
sbag0
(g1
g2
(lp1509
g0
(g1
g2
(lp1510
Vup
p1511
atp1512
Rp1513
(dp1514
g12
VRP
p1515
sbag0
(g1
g2
(lp1516
g0
(g1
g2
(lp1517
g0
(g1
g2
(lp1518
Vwaiting
p1519
atp1520
Rp1521
(dp1522
g12
VVBG
p1523
sbag0
(g1
g2
(lp1524
g0
(g1
g2
(lp1525
Vfor
p1526
atp1527
Rp1528
(dp1529
g12
VIN
p1530
sbag0
(g1
g2
(lp1531
g0
(g1
g2
(lp1532
Vthe
p1533
atp1534
Rp1535
(dp1536
g12
VDT
p1537
sbag0
(g1
g2
(lp1538
Vcookies
p1539
atp1540
Rp1541
(dp1542
g12
VNNS
p1543
sbatp1544
Rp1545
(dp1546
g12
VNP
p1547
sbatp1548
Rp1549
(dp1550
g12
VPP
p1551
sbag0
(g1
g2
(lp1552
g0
(g1
g2
(lp1553
g0
(g1
g2
(lp1554
Vto
p1555
atp1556
Rp1557
(dp1558
g12
VTO
p1559
sbag0
(g1
g2
(lp1560
g0
(g1
g2
(lp1561
Vbe
p1562
atp1563
Rp1564
(dp1565
g12
VVB
p1566
sbag0
(g1
g2
(lp1567
g0
(g1
g2
(lp1568
Vhanded
p1569
atp1570
Rp1571
(dp1572
g12
VVBN
p1573
sbag0
(g1
g2
(lp1574
g0
(g1
g2
(lp1575
Vdown
p1576
atp1577
Rp1578
(dp1579
g12
VRP
p1580
sbatp1581
Rp1582
(dp1583
g12
VPRT
p1584
sbatp1585
Rp1586
(dp1587
g12
VVP
p1588
sbatp1589
Rp1590
(dp1591
g12
VVP
p1592
sbatp1593
Rp1594
(dp1595
g12
VVP
p1596
sbatp1597
Rp1598
(dp1599
g12
VS
p1600
sbatp1601
Rp1602
(dp1603
g12
VVP
p1604
sbatp1605
Rp1606
(dp1607
g12
VS
p1608
sbatp1609
Rp1610
(dp1611
g12
VPP
p1612
sbatp1613
Rp1614
(dp1615
g12
VVP
p1616
sbatp1617
Rp1618
(dp1619
g12
VVP
p1620
sbatp1621
Rp1622
(dp1623
g12
VS
p1624
sbatp1625
Rp1626
(dp1627
g12
VSBAR
p1628
sbatp1629
Rp1630
(dp1631
g12
VNP
p1632
sbag0
(g1
g2
(lp1633
V.
p1634
atp1635
Rp1636
(dp1637
g12
V.
p1638
sbatp1639
Rp1640
(dp1641
g12
VSINV
p1642
sbatp1643
Rp1644
(dp1645
g12
S'id: 5'
p1646
sbag0
(g1
g2
(lp1647
g0
(g1
g2
(lp1648
g0
(g1
g2
(lp1649
g0
(g1
g2
(lp1650
Vit
p1651
atp1652
Rp1653
(dp1654
g12
VPRP
p1655
sbatp1656
Rp1657
(dp1658
g12
VNP
p1659
sbag0
(g1
g2
(lp1660
g0
(g1
g2
(lp1661
V's
p1662
atp1663
Rp1664
(dp1665
g12
VVBZ
p1666
sbag0
(g1
g2
(lp1667
V,
p1668
atp1669
Rp1670
(dp1671
g12
V,
p1672
sbag0
(g1
g2
(lp1673
g0
(g1
g2
(lp1674
Voutside
p1675
atp1676
Rp1677
(dp1678
g12
VIN
p1679
sbag0
(g1
g2
(lp1680
g0
(g1
g2
(lp1681
Vthe
p1682
atp1683
Rp1684
(dp1685
g12
VDT
p1686
sbag0
(g1
g2
(lp1687
Vwindow
p1688
atp1689
Rp1690
(dp1691
g12
VNN
p1692
sbatp1693
Rp1694
(dp1695
g12
VNP
p1696
sbatp1697
Rp1698
(dp1699
g12
VPP
p1700
sbag0
(g1
g2
(lp1701
g0
(g1
g2
(lp1702
g0
(g1
g2
(lp1703
g0
(g1
g2
(lp1704
Vit
p1705
atp1706
Rp1707
(dp1708
g12
VPRP
p1709
sbatp1710
Rp1711
(dp1712
g12
VNP
p1713
sbag0
(g1
g2
(lp1714
g0
(g1
g2
(lp1715
Vlooks
p1716
atp1717
Rp1718
(dp1719
g12
VVBZ
p1720
sbag0
(g1
g2
(lp1721
g0
(g1
g2
(lp1722
g0
(g1
g2
(lp1723
Va
p1724
atp1725
Rp1726
(dp1727
g12
VDT
p1728
sbag0
(g1
g2
(lp1729
Vpicture
p1730
atp1731
Rp1732
(dp1733
g12
VNN
p1734
sbatp1735
Rp1736
(dp1737
g12
VNP
p1738
sbag0
(g1
g2
(lp1739
g0
(g1
g2
(lp1740
Vof
p1741
atp1742
Rp1743
(dp1744
g12
VIN
p1745
sbag0
(g1
g2
(lp1746
g0
(g1
g2
(lp1747
g0
(g1
g2
(lp1748
Vthe
p1749
atp1750
Rp1751
(dp1752
g12
VDT
p1753
sbag0
(g1
g2
(lp1754
Voutside
p1755
atp1756
Rp1757
(dp1758
g12
VNN
p1759
sbatp1760
Rp1761
(dp1762
g12
VNP
p1763
sbag0
(g1
g2
(lp1764
g0
(g1
g2
(lp1765
Vof
p1766
atp1767
Rp1768
(dp1769
g12
VIN
p1770
sbag0
(g1
g2
(lp1771
g0
(g1
g2
(lp1772
Vtheir
p1773
atp1774
Rp1775
(dp1776
g12
VPRP$
p1777
sbag0
(g1
g2
(lp1778
Vhouse
p1779
atp1780
Rp1781
(dp1782
g12
VNN
p1783
sbatp1784
Rp1785
(dp1786
g12
VNP
p1787
sbatp1788
Rp1789
(dp1790
g12
VPP
p1791
sbatp1792
Rp1793
(dp1794
g12
VNP
p1795
sbatp1796
Rp1797
(dp1798
g12
VPP
p1799
sbatp1800
Rp1801
(dp1802
g12
VNP
p1803
sbatp1804
Rp1805
(dp1806
g12
VVP
p1807
sbatp1808
Rp1809
(dp1810
g12
VS
p1811
sbatp1812
Rp1813
(dp1814
g12
VSBAR
p1815
sbatp1816
Rp1817
(dp1818
g12
VVP
p1819
sbag0
(g1
g2
(lp1820
V.
p1821
atp1822
Rp1823
(dp1824
g12
V.
p1825
sbatp1826
Rp1827
(dp1828
g12
VS
p1829
sbatp1830
Rp1831
(dp1832
g12
S'id: 6'
p1833
sbag0
(g1
g2
(lp1834
g0
(g1
g2
(lp1835
g0
(g1
g2
(lp1836
g0
(g1
g2
(lp1837
g0
(g1
g2
(lp1838
Vyou
p1839
atp1840
Rp1841
(dp1842
g12
VPRP
p1843
sbatp1844
Rp1845
(dp1846
g12
VNP
p1847
sbag0
(g1
g2
(lp1848
g0
(g1
g2
(lp1849
Vsee
p1850
atp1851
Rp1852
(dp1853
g12
VVBP
p1854
sbatp1855
Rp1856
(dp1857
g12
VVP
p1858
sbatp1859
Rp1860
(dp1861
g12
VS
p1862
sbag0
(g1
g2
(lp1863
V,
p1864
atp1865
Rp1866
(dp1867
g12
V,
p1868
sbag0
(g1
g2
(lp1869
g0
(g1
g2
(lp1870
Vlet
p1871
atp1872
Rp1873
(dp1874
g12
VVBP
p1875
sbag0
(g1
g2
(lp1876
g0
(g1
g2
(lp1877
g0
(g1
g2
(lp1878
g0
(g1
g2
(lp1879
V's
p1880
atp1881
Rp1882
(dp1883
g12
VPOS
p1884
sbatp1885
Rp1886
(dp1887
g12
VNP
p1888
sbag0
(g1
g2
(lp1889
g0
(g1
g2
(lp1890
g0
(g1
g2
(lp1891
Vsay
p1892
atp1893
Rp1894
(dp1895
g12
VVBP
p1896
sbag0
(g1
g2
(lp1897
g0
(g1
g2
(lp1898
g0
(g1
g2
(lp1899
Vthe
p1900
atp1901
Rp1902
(dp1903
g12
VDT
p1904
sbag0
(g1
g2
(lp1905
Vgarage
p1906
atp1907
Rp1908
(dp1909
g12
VNN
p1910
sbatp1911
Rp1912
(dp1913
g12
VNP
p1914
sbag0
(g1
g2
(lp1915
Vand
p1916
atp1917
Rp1918
(dp1919
g12
VCC
p1920
sbag0
(g1
g2
(lp1921
g0
(g1
g2
(lp1922
Va
p1923
atp1924
Rp1925
(dp1926
g12
VDT
p1927
sbag0
(g1
g2
(lp1928
Vsidewalk
p1929
atp1930
Rp1931
(dp1932
g12
VNN
p1933
sbatp1934
Rp1935
(dp1936
g12
VNP
p1937
sbatp1938
Rp1939
(dp1940
g12
VNP
p1941
sbatp1942
Rp1943
(dp1944
g12
VVP
p1945
sbag0
(g1
g2
(lp1946
Vand
p1947
atp1948
Rp1949
(dp1950
g12
VCC
p1951
sbag0
(g1
g2
(lp1952
V,
p1953
atp1954
Rp1955
(dp1956
g12
V,
p1957
sbag0
(g1
g2
(lp1958
g0
(g1
g2
(lp1959
Vsome
p1960
atp1961
Rp1962
(dp1963
g12
VDT
p1964
sbag0
(g1
g2
(lp1965
Vgrass
p1966
atp1967
Rp1968
(dp1969
g12
VNN
p1970
sbatp1971
Rp1972
(dp1973
g12
VNP
p1974
sbatp1975
Rp1976
(dp1977
g12
VVP
p1978
sbatp1979
Rp1980
(dp1981
g12
VS
p1982
sbatp1983
Rp1984
(dp1985
g12
VSBAR
p1986
sbatp1987
Rp1988
(dp1989
g12
VVP
p1990
sbag0
(g1
g2
(lp1991
V,
p1992
atp1993
Rp1994
(dp1995
g12
V,
p1996
sbag0
(g1
g2
(lp1997
Vand
p1998
atp1999
Rp2000
(dp2001
g12
VCC
p2002
sbag0
(g1
g2
(lp2003
g0
(g1
g2
(lp2004
g0
(g1
g2
(lp2005
Vthat
p2006
atp2007
Rp2008
(dp2009
g12
VDT
p2010
sbatp2011
Rp2012
(dp2013
g12
VNP
p2014
sbag0
(g1
g2
(lp2015
g0
(g1
g2
(lp2016
V's
p2017
atp2018
Rp2019
(dp2020
g12
VVBZ
p2021
sbag0
(g1
g2
(lp2022
g0
(g1
g2
(lp2023
Vthat
p2024
atp2025
Rp2026
(dp2027
g12
VDT
p2028
sbatp2029
Rp2030
(dp2031
g12
VNP
p2032
sbatp2033
Rp2034
(dp2035
g12
VVP
p2036
sbatp2037
Rp2038
(dp2039
g12
VS
p2040
sbag0
(g1
g2
(lp2041
V.
p2042
atp2043
Rp2044
(dp2045
g12
V.
p2046
sbatp2047
Rp2048
(dp2049
g12
VS
p2050
sbatp2051
Rp2052
(dp2053
g12
S'id: 7'
p2054
sbatp2055
Rp2056
(dp2057
g12
S'sentences'
p2058
sb.