ccopy_reg
_reconstructor
p0
(cnltk.tree
Tree
p1
c__builtin__
list
p2
(lp3
g0
(g1
g2
(lp4
g0
(g1
g2
(lp5
g0
(g1
g2
(lp6
(lp7
S'word: oh, index: 1'
p8
aatp9
Rp10
(dp11
S'_label'
p12
Vdiscourse
p13
sbag0
(g1
g2
(lp14
(lp15
S'word: picnic, index: 2'
p16
aatp17
Rp18
(dp19
g12
Vnn
p20
sbatp21
Rp22
(dp23
g12
S'word: scene, index: 3'
p24
sbatp25
Rp26
(dp27
g12
S'id: 0'
p28
sbag0
(g1
g2
(lp29
g0
(g1
g2
(lp30
g0
(g1
g2
(lp31
(lp32
S'word: a, index: 3'
p33
aatp34
Rp35
(dp36
g12
Vdet
p37
sbag0
(g1
g2
(lp38
(lp39
S'word: picnic, index: 4'
p40
aatp41
Rp42
(dp43
g12
Vnn
p44
sbag0
(g1
g2
(lp45
(lp46
S'word: this, index: 1'
p47
aatp48
Rp49
(dp50
g12
Vnsubj
p51
sbag0
(g1
g2
(lp52
(lp53
S'word: is, index: 2'
p54
aatp55
Rp56
(dp57
g12
Vcop
p58
sbatp59
Rp60
(dp61
g12
S'word: scene, index: 5'
p62
sbatp63
Rp64
(dp65
g12
S'id: 1'
p66
sbag0
(g1
g2
(lp67
g0
(g1
g2
(lp68
g0
(g1
g2
(lp69
g0
(g1
g2
(lp70
g0
(g1
g2
(lp71
(lp72
S'word: his, index: 5'
p73
aatp74
Rp75
(dp76
g12
Vposs
p77
sbatp78
Rp79
(dp80
g12
S'word: kite, index: 6'
p81
sbatp82
Rp83
(dp84
g12
Vprep
p85
sbag0
(g1
g2
(lp86
g0
(g1
g2
(lp87
g0
(g1
g2
(lp88
(lp89
S'word: it, index: 10'
p90
aatp91
Rp92
(dp93
g12
Vdep
p94
sbatp95
Rp96
(dp97
g12
S'word: runnin, index: 8'
p98
sbatp99
Rp100
(dp101
g12
Vappos
p102
sbag0
(g1
g2
(lp103
(lp104
S'word: the, index: 1'
p105
aatp106
Rp107
(dp108
g12
Vdet
p109
sbag0
(g1
g2
(lp110
(lp111
S'word: little, index: 2'
p112
aatp113
Rp114
(dp115
g12
Vamod
p116
sbatp117
Rp118
(dp119
g12
S'word: boy, index: 3'
p120
sbatp121
Rp122
(dp123
g12
S'id: 2'
p124
sbag0
(g1
g2
(lp125
g0
(g1
g2
(lp126
g0
(g1
g2
(lp127
g0
(g1
g2
(lp128
g0
(g1
g2
(lp129
(lp130
S'word: his, index: 1'
p131
aatp132
Rp133
(dp134
g12
Vposs
p135
sbatp136
Rp137
(dp138
g12
S'word: dog, index: 2'
p139
sbatp140
Rp141
(dp142
g12
Vnsubj
p143
sbag0
(g1
g2
(lp144
(lp145
S'word: is, index: 3'
p146
aatp147
Rp148
(dp149
g12
Vcop
p150
sbag0
(g1
g2
(lp151
(lp152
S'word: him, index: 7'
p153
aatp154
Rp155
(dp156
g12
Vprep
p157
sbatp158
Rp159
(dp160
g12
S'word: chasin, index: 4'
p161
sbatp162
Rp163
(dp164
g12
S'id: 3'
p165
sbag0
(g1
g2
(lp166
g0
(g1
g2
(lp167
g0
(g1
g2
(lp168
g0
(g1
g2
(lp169
g0
(g1
g2
(lp170
(lp171
S'word: a, index: 11'
p172
aatp173
Rp174
(dp175
g12
Vdet
p176
sbatp177
Rp178
(dp179
g12
S'word: fish, index: 12'
p180
sbatp181
Rp182
(dp183
g12
Vdobj
p184
sbag0
(g1
g2
(lp185
g0
(g1
g2
(lp186
g0
(g1
g2
(lp187
(lp188
S'word: everything, index: 14'
p189
aatp190
Rp191
(dp192
g12
Vdep
p193
sbatp194
Rp195
(dp196
g12
S'word: good, index: 15'
p197
sbatp198
Rp199
(dp200
g12
Vparataxis
p201
sbag0
(g1
g2
(lp202
(lp203
S'word: and, index: 1'
p204
aatp205
Rp206
(dp207
g12
Vcc
p208
sbag0
(g1
g2
(lp209
g0
(g1
g2
(lp210
g0
(g1
g2
(lp211
(lp212
S'word: the, index: 3'
p213
aatp214
Rp215
(dp216
g12
Vdet
p217
sbag0
(g1
g2
(lp218
g0
(g1
g2
(lp219
g0
(g1
g2
(lp220
(lp221
S'word: the, index: 6'
p222
aatp223
Rp224
(dp225
g12
Vdet
p226
sbag0
(g1
g2
(lp227
(lp228
S'word: dock, index: 7'
p229
aatp230
Rp231
(dp232
g12
Vnn
p233
sbatp234
Rp235
(dp236
g12
S'word: fishing, index: 8'
p237
sbatp238
Rp239
(dp240
g12
Vprep
p241
sbatp242
Rp243
(dp244
g12
S'word: man, index: 4'
p245
sbatp246
Rp247
(dp248
g12
Vnsubj
p249
sbag0
(g1
g2
(lp250
(lp251
S'word: just, index: 9'
p252
aatp253
Rp254
(dp255
g12
Vadvmod
p256
sbatp257
Rp258
(dp259
g12
S'word: caught, index: 10'
p260
sbatp261
Rp262
(dp263
g12
S'id: 4'
p264
sbag0
(g1
g2
(lp265
g0
(g1
g2
(lp266
g0
(g1
g2
(lp267
g0
(g1
g2
(lp268
g0
(g1
g2
(lp269
(lp270
S'word: little, index: 1'
p271
aatp272
Rp273
(dp274
g12
Vamod
p275
sbatp276
Rp277
(dp278
g12
S'word: girl, index: 2'
p279
sbatp280
Rp281
(dp282
g12
Vnsubj
p283
sbag0
(g1
g2
(lp284
g0
(g1
g2
(lp285
g0
(g1
g2
(lp286
(lp287
S'word: the, index: 5'
p288
aatp289
Rp290
(dp291
g12
Vdet
p292
sbag0
(g1
g2
(lp293
(lp294
S'word: beach, index: 6'
p295
aatp296
Rp297
(dp298
g12
Vnn
p299
sbag0
(g1
g2
(lp300
g0
(g1
g2
(lp301
g0
(g1
g2
(lp302
(lp303
S'word: a, index: 9'
p304
aatp305
Rp306
(dp307
g12
Vdet
p308
sbatp309
Rp310
(dp311
g12
S'word: sandcastle, index: 10'
p312
sbatp313
Rp314
(dp315
g12
Vdep
p316
sbatp317
Rp318
(dp319
g12
S'word: buildin, index: 7'
p320
sbatp321
Rp322
(dp323
g12
Vprep
p324
sbatp325
Rp326
(dp327
g12
S'word: is, index: 3'
p328
sbatp329
Rp330
(dp331
g12
S'id: 5'
p332
sbag0
(g1
g2
(lp333
g0
(g1
g2
(lp334
g0
(g1
g2
(lp335
g0
(g1
g2
(lp336
g0
(g1
g2
(lp337
(lp338
S'word: the, index: 2'
p339
aatp340
Rp341
(dp342
g12
Vdet
p343
sbag0
(g1
g2
(lp344
g0
(g1
g2
(lp345
g0
(g1
g2
(lp346
(lp347
S'word: the, index: 5'
p348
aatp349
Rp350
(dp351
g12
Vdet
p352
sbatp353
Rp354
(dp355
g12
S'word: daddy, index: 6'
p356
sbatp357
Rp358
(dp359
g12
Vconj
p360
sbatp361
Rp362
(dp363
g12
S'word: mama, index: 3'
p364
sbatp365
Rp366
(dp367
g12
Vnsubj
p368
sbag0
(g1
g2
(lp369
g354
atp370
Rp371
(dp372
g12
Vnsubj
p373
sbag0
(g1
g2
(lp374
(lp375
S'word: are, index: 7'
p376
aatp377
Rp378
(dp379
g12
Vcop
p380
sbag0
(g1
g2
(lp381
g0
(g1
g2
(lp382
g0
(g1
g2
(lp383
(lp384
S'word: a, index: 10'
p385
aatp386
Rp387
(dp388
g12
Vdet
p389
sbatp390
Rp391
(dp392
g12
S'word: picnic, index: 11'
p393
sbatp394
Rp395
(dp396
g12
Vdep
p397
sbag0
(g1
g2
(lp398
(lp399
S'word: and, index: 1'
p400
aatp401
Rp402
(dp403
g12
Vcc
p404
sbatp405
Rp406
(dp407
g12
S'word: fixin, index: 8'
p408
sbatp409
Rp410
(dp411
g12
S'id: 6'
p412
sbag0
(g1
g2
(lp413
g0
(g1
g2
(lp414
g0
(g1
g2
(lp415
g0
(g1
g2
(lp416
g0
(g1
g2
(lp417
(lp418
S"word: 's, index: 9"
p419
aatp420
Rp421
(dp422
g12
Vpossessive
p423
sbag0
(g1
g2
(lp424
g0
(g1
g2
(lp425
g0
(g1
g2
(lp426
g0
(g1
g2
(lp427
g0
(g1
g2
(lp428
(lp429
S'word: a, index: 12'
p430
aatp431
Rp432
(dp433
g12
Vdet
p434
sbatp435
Rp436
(dp437
g12
S'word: book, index: 13'
p438
sbatp439
Rp440
(dp441
g12
Vdep
p442
sbatp443
Rp444
(dp445
g12
S'word: readin, index: 10'
p446
sbatp447
Rp448
(dp449
g12
Vdep
p450
sbatp451
Rp452
(dp453
g12
S'word: daddy, index: 8'
p454
sbatp455
Rp456
(dp457
g12
Vappos
p458
sbag0
(g1
g2
(lp459
(lp460
S"word: 's, index: 2"
p461
aatp462
Rp463
(dp464
g12
Vpossessive
p465
sbag0
(g1
g2
(lp466
g0
(g1
g2
(lp467
g0
(g1
g2
(lp468
g0
(g1
g2
(lp469
g0
(g1
g2
(lp470
(lp471
S'word: a, index: 5'
p472
aatp473
Rp474
(dp475
g12
Vdet
p476
sbatp477
Rp478
(dp479
g12
S'word: drink, index: 6'
p480
sbatp481
Rp482
(dp483
g12
Vdep
p484
sbatp485
Rp486
(dp487
g12
S'word: pourin, index: 3'
p488
sbatp489
Rp490
(dp491
g12
Vdep
p492
sbatp493
Rp494
(dp495
g12
S'word: mama, index: 1'
p496
sbatp497
Rp498
(dp499
g12
S'id: 7'
p500
sbag0
(g1
g2
(lp501
g0
(g1
g2
(lp502
g0
(g1
g2
(lp503
g0
(g1
g2
(lp504
g0
(g1
g2
(lp505
(lp506
S'word: the, index: 2'
p507
aatp508
Rp509
(dp510
g12
Vdet
p511
sbatp512
Rp513
(dp514
g12
S'word: car, index: 3'
p515
sbatp516
Rp517
(dp518
g12
Vdobj
p519
sbag0
(g1
g2
(lp520
g0
(g1
g2
(lp521
g0
(g1
g2
(lp522
(lp523
S'word: the, index: 5'
p524
aatp525
Rp526
(dp527
g12
Vdet
p528
sbatp529
Rp530
(dp531
g12
S'word: driveway, index: 6'
p532
sbatp533
Rp534
(dp535
g12
Vprep
p536
sbatp537
Rp538
(dp539
g12
S'word: got, index: 1'
p540
sbatp541
Rp542
(dp543
g12
S'id: 8'
p544
sbag0
(g1
g2
(lp545
g0
(g1
g2
(lp546
g0
(g1
g2
(lp547
(lp548
S'word: house, index: 1'
p549
aatp550
Rp551
(dp552
g12
Vnsubj
p553
sbag0
(g1
g2
(lp554
g0
(g1
g2
(lp555
g0
(g1
g2
(lp556
(lp557
S'word: right, index: 3'
p558
aatp559
Rp560
(dp561
g12
Vadvmod
p562
sbatp563
Rp564
(dp565
g12
S'word: there, index: 4'
p566
sbatp567
Rp568
(dp569
g12
Vadvmod
p570
sbag0
(g1
g2
(lp571
g0
(g1
g2
(lp572
g0
(g1
g2
(lp573
(lp574
S'word: the, index: 6'
p575
aatp576
Rp577
(dp578
g12
Vdet
p579
sbatp580
Rp581
(dp582
g12
S'word: beach, index: 7'
p583
sbatp584
Rp585
(dp586
g12
Vprep
p587
sbatp588
Rp589
(dp590
g12
S'word: is, index: 2'
p591
sbatp592
Rp593
(dp594
g12
S'id: 9'
p595
sbag0
(g1
g2
(lp596
g0
(g1
g2
(lp597
g0
(g1
g2
(lp598
(lp599
S'word: flag, index: 1'
p600
aatp601
Rp602
(dp603
g12
Vnsubj
p604
sbag0
(g1
g2
(lp605
g0
(g1
g2
(lp606
g0
(g1
g2
(lp607
(lp608
S'word: a, index: 5'
p609
aatp610
Rp611
(dp612
g12
Vdet
p613
sbag0
(g1
g2
(lp614
(lp615
S'word: boat, index: 6'
p616
aatp617
Rp618
(dp619
g12
Vnn
p620
sbatp621
Rp622
(dp623
g12
S'word: sailin, index: 7'
p624
sbatp625
Rp626
(dp627
g12
Vappos
p628
sbag0
(g1
g2
(lp629
g0
(g1
g2
(lp630
g0
(g1
g2
(lp631
(lp632
S'word: everybody, index: 20'
p633
aatp634
Rp635
(dp636
g12
Vposs
p637
sbag0
(g1
g2
(lp638
g0
(g1
g2
(lp639
g0
(g1
g2
(lp640
(lp641
S'word: that, index: 24'
p642
aatp643
Rp644
(dp645
g12
Vprep
p646
sbatp647
Rp648
(dp649
g12
S'word: happy, index: 22'
p650
sbatp651
Rp652
(dp653
g12
Vamod
p654
sbatp655
Rp656
(dp657
g12
S'word: picture, index: 25'
p658
sbatp659
Rp660
(dp661
g12
Vdobj
p662
sbag0
(g1
g2
(lp663
g0
(g1
g2
(lp664
g0
(g1
g2
(lp665
g0
(g1
g2
(lp666
g0
(g1
g2
(lp667
g0
(g1
g2
(lp668
g0
(g1
g2
(lp669
g0
(g1
g2
(lp670
g0
(g1
g2
(lp671
(lp672
S'word: that, index: 15'
p673
aatp674
Rp675
(dp676
g12
Vnsubj
p677
sbag0
(g1
g2
(lp678
(lp679
S"word: 's, index: 16"
p680
aatp681
Rp682
(dp683
g12
Vcop
p684
sbatp685
Rp686
(dp687
g12
S'word: sailin, index: 17'
p688
sbatp689
Rp690
(dp691
g12
Vrcmod
p692
sbag0
(g1
g2
(lp693
(lp694
S'word: the, index: 13'
p695
aatp696
Rp697
(dp698
g12
Vdet
p699
sbatp700
Rp701
(dp702
g12
S'word: boat, index: 14'
p703
sbatp704
Rp705
(dp706
g12
Vprep
p707
sbatp708
Rp709
(dp710
g12
S'word: waving, index: 11'
p711
sbatp712
Rp713
(dp714
g12
Vvmod
p715
sbatp716
Rp717
(dp718
g12
S'word: people, index: 10'
p719
sbatp720
Rp721
(dp722
g12
Vappos
p723
sbatp724
Rp725
(dp726
g12
S'word: flyin, index: 2'
p727
sbatp728
Rp729
(dp730
g12
S'id: 10'
p731
sbag0
(g1
g2
(lp732
g0
(g1
g2
(lp733
g0
(g1
g2
(lp734
(lp735
S'word: includin, index: 1'
p736
aatp737
Rp738
(dp739
g12
Vposs
p740
sbag0
(g1
g2
(lp741
g0
(g1
g2
(lp742
g0
(g1
g2
(lp743
(lp744
S'word: the, index: 4'
p745
aatp746
Rp747
(dp748
g12
Vdet
p749
sbatp750
Rp751
(dp752
g12
S'word: dog, index: 5'
p753
sbatp754
Rp755
(dp756
g12
Vdep
p757
sbatp758
Rp759
(dp760
g12
S'word: rover, index: 3'
p761
sbatp762
Rp763
(dp764
g12
S'id: 11'
p765
sbag0
(g1
g2
(lp766
g0
(g1
g2
(lp767
g0
(g1
g2
(lp768
g0
(g1
g2
(lp769
g0
(g1
g2
(lp770
(lp771
S'word: music, index: 4'
p772
aatp773
Rp774
(dp775
g12
Vnn
p776
sbag0
(g1
g2
(lp777
g0
(g1
g2
(lp778
g0
(g1
g2
(lp779
(lp780
S'word: a, index: 7'
p781
aatp782
Rp783
(dp784
g12
Vdet
p785
sbag0
(g1
g2
(lp786
(lp787
S'word: music, index: 8'
p788
aatp789
Rp790
(dp791
g12
Vnn
p792
sbatp793
Rp794
(dp795
g12
S'word: box, index: 9'
p796
sbatp797
Rp798
(dp799
g12
Vprep
p800
sbatp801
Rp802
(dp803
g12
S'word: playing, index: 5'
p804
sbatp805
Rp806
(dp807
g12
Vdobj
p808
sbag0
(g1
g2
(lp809
(lp810
S'word: she, index: 1'
p811
aatp812
Rp813
(dp814
g12
Vnsubj
p815
sbag0
(g1
g2
(lp816
(lp817
S'word: must, index: 2'
p818
aatp819
Rp820
(dp821
g12
Vaux
p822
sbatp823
Rp824
(dp825
g12
S'word: have, index: 3'
p826
sbatp827
Rp828
(dp829
g12
S'id: 12'
p830
sbag0
(g1
g2
(lp831
g0
(g1
g2
(lp832
g0
(g1
g2
(lp833
g0
(g1
g2
(lp834
g0
(g1
g2
(lp835
(lp836
S'word: because, index: 7'
p837
aatp838
Rp839
(dp840
g12
Vmark
p841
sbag0
(g1
g2
(lp842
g0
(g1
g2
(lp843
g0
(g1
g2
(lp844
(lp845
S'word: the, index: 8'
p846
aatp847
Rp848
(dp849
g12
Vdet
p850
sbag0
(g1
g2
(lp851
(lp852
S"word: 's, index: 10"
p853
aatp854
Rp855
(dp856
g12
Vpossessive
p857
sbatp858
Rp859
(dp860
g12
S'word: kite, index: 9'
p861
sbatp862
Rp863
(dp864
g12
Vnsubj
p865
sbag0
(g1
g2
(lp866
g0
(g1
g2
(lp867
g0
(g1
g2
(lp868
(lp869
S'word: a, index: 12'
p870
aatp871
Rp872
(dp873
g12
Vdet
p874
sbag0
(g1
g2
(lp875
(lp876
S'word: long, index: 13'
p877
aatp878
Rp879
(dp880
g12
Vamod
p881
sbatp882
Rp883
(dp884
g12
S'word: tail, index: 14'
p885
sbatp886
Rp887
(dp888
g12
Vdobj
p889
sbatp890
Rp891
(dp892
g12
S'word: got, index: 11'
p893
sbatp894
Rp895
(dp896
g12
Vadvcl
p897
sbag0
(g1
g2
(lp898
(lp899
S'word: it, index: 1'
p900
aatp901
Rp902
(dp903
g12
Vnsubj
p904
sbag0
(g1
g2
(lp905
(lp906
S"word: 's, index: 2"
p907
aatp908
Rp909
(dp910
g12
Vcop
p911
sbag0
(g1
g2
(lp912
(lp913
S'word: a, index: 3'
p914
aatp915
Rp916
(dp917
g12
Vdet
p918
sbag0
(g1
g2
(lp919
g0
(g1
g2
(lp920
g0
(g1
g2
(lp921
(lp922
S'word: fairly, index: 4'
p923
aatp924
Rp925
(dp926
g12
Vadvmod
p927
sbatp928
Rp929
(dp930
g12
S'word: windy, index: 5'
p931
sbatp932
Rp933
(dp934
g12
Vamod
p935
sbatp936
Rp937
(dp938
g12
S'word: day, index: 6'
p939
sbatp940
Rp941
(dp942
g12
S'id: 13'
p943
sbag0
(g1
g2
(lp944
g0
(g1
g2
(lp945
g0
(g1
g2
(lp946
(lp947
S'word: and, index: 1'
p948
aatp949
Rp950
(dp951
g12
Vcc
p952
sbag0
(g1
g2
(lp953
(lp954
S'word: I, index: 2'
p955
aatp956
Rp957
(dp958
g12
Vnsubj
p959
sbag0
(g1
g2
(lp960
g0
(g1
g2
(lp961
g0
(g1
g2
(lp962
(lp963
S'word: that, index: 4'
p964
aatp965
Rp966
(dp967
g12
Vnsubj
p968
sbag0
(g1
g2
(lp969
(lp970
S"word: 's, index: 5"
p971
aatp972
Rp973
(dp974
g12
Vcop
p975
sbatp976
Rp977
(dp978
g12
S'word: it, index: 6'
p979
sbatp980
Rp981
(dp982
g12
Vccomp
p983
sbatp984
Rp985
(dp986
g12
S'word: think, index: 3'
p987
sbatp988
Rp989
(dp990
g12
S'id: 14'
p991
sbag0
(g1
g2
(lp992
g0
(g1
g2
(lp993
g0
(g1
g2
(lp994
(lp995
S'word: kay, index: 2'
p996
aatp997
Rp998
(dp999
g12
Vnsubj
p1000
sbag0
(g1
g2
(lp1001
(lp1002
S'word: that, index: 3'
p1003
aatp1004
Rp1005
(dp1006
g12
Vnsubj
p1007
sbag0
(g1
g2
(lp1008
(lp1009
S"word: 's, index: 4"
p1010
aatp1011
Rp1012
(dp1013
g12
Vcop
p1014
sbatp1015
Rp1016
(dp1017
g12
S'word: all, index: 5'
p1018
sbatp1019
Rp1020
(dp1021
g12
S'id: 15'
p1022
sbatp1023
Rp1024
(dp1025
g12
S'sentences'
p1026
sb.