ccopy_reg
_reconstructor
p0
(cnltk.tree
Tree
p1
c__builtin__
list
p2
(lp3
g0
(g1
g2
(lp4
g0
(g1
g2
(lp5
g0
(g1
g2
(lp6
(lp7
S'word: well, index: 1'
p8
aatp9
Rp10
(dp11
S'_label'
p12
Vadvmod
p13
sbag0
(g1
g2
(lp14
(lp15
S'word: this, index: 2'
p16
aatp17
Rp18
(dp19
g12
Vnsubj
p20
sbag0
(g1
g2
(lp21
(lp22
S'word: is, index: 3'
p23
aatp24
Rp25
(dp26
g12
Vcop
p27
sbag0
(g1
g2
(lp28
g0
(g1
g2
(lp29
g0
(g1
g2
(lp30
g0
(g1
g2
(lp31
g0
(g1
g2
(lp32
(lp33
S'word: a, index: 8'
p34
aatp35
Rp36
(dp37
g12
Vdet
p38
sbag0
(g1
g2
(lp39
(lp40
S'word: circus, index: 9'
p41
aatp42
Rp43
(dp44
g12
Vnn
p45
sbatp46
Rp47
(dp48
g12
S'word: venue, index: 10'
p49
sbatp50
Rp51
(dp52
g12
Vprep
p53
sbatp54
Rp55
(dp56
g12
S'word: looks, index: 6'
p57
sbatp58
Rp59
(dp60
g12
Vrcmod
p61
sbatp62
Rp63
(dp64
g12
S'word: a, index: 4'
p65
sbatp66
Rp67
(dp68
g12
S'id: 0'
p69
sbag0
(g1
g2
(lp70
g0
(g1
g2
(lp71
g0
(g1
g2
(lp72
g0
(g1
g2
(lp73
g0
(g1
g2
(lp74
g0
(g1
g2
(lp75
g0
(g1
g2
(lp76
g0
(g1
g2
(lp77
g0
(g1
g2
(lp78
(lp79
S'word: the, index: 5'
p80
aatp81
Rp82
(dp83
g12
Vdet
p84
sbatp85
Rp86
(dp87
g12
S'word: front, index: 6'
p88
sbatp89
Rp90
(dp91
g12
Vprep
p92
sbatp93
Rp94
(dp95
g12
S'word: right, index: 3'
p96
sbatp97
Rp98
(dp99
g12
Vadvmod
p100
sbag0
(g1
g2
(lp101
(lp102
S'word: a, index: 7'
p103
aatp104
Rp105
(dp106
g12
Vdet
p107
sbag0
(g1
g2
(lp108
g0
(g1
g2
(lp109
g0
(g1
g2
(lp110
(lp111
S'word: who, index: 9'
p112
aatp113
Rp114
(dp115
g12
Vnsubj
p116
sbatp117
Rp118
(dp119
g12
S'word: is, index: 10'
p120
sbatp121
Rp122
(dp123
g12
Vrcmod
p124
sbatp125
Rp126
(dp127
g12
S'word: clown, index: 8'
p128
sbatp129
Rp130
(dp131
g12
Vdobj
p132
sbag0
(g1
g2
(lp133
g0
(g1
g2
(lp134
g0
(g1
g2
(lp135
g0
(g1
g2
(lp136
g0
(g1
g2
(lp137
(lp138
S'word: his, index: 18'
p139
aatp140
Rp141
(dp142
g12
Vposs
p143
sbatp144
Rp145
(dp146
g12
S'word: bucket, index: 19'
p147
sbatp148
Rp149
(dp150
g12
Vprep
p151
sbag0
(g1
g2
(lp152
g0
(g1
g2
(lp153
g0
(g1
g2
(lp154
(lp155
S'word: probably, index: 21'
p156
aatp157
Rp158
(dp159
g12
Vadvmod
p160
sbag0
(g1
g2
(lp161
(lp162
S'word: it, index: 23'
p163
aatp164
Rp165
(dp166
g12
Vdobj
p167
sbag0
(g1
g2
(lp168
g0
(g1
g2
(lp169
g0
(g1
g2
(lp170
(lp171
S'word: the, index: 26'
p172
aatp173
Rp174
(dp175
g12
Vdet
p176
sbatp177
Rp178
(dp179
g12
S'word: bucket, index: 27'
p180
sbatp181
Rp182
(dp183
g12
Vprep
p184
sbatp185
Rp186
(dp187
g12
S'word: ejecting, index: 22'
p188
sbatp189
Rp190
(dp191
g12
Vvmod
p192
sbag0
(g1
g2
(lp193
(lp194
S'word: out, index: 13'
p195
aatp196
Rp197
(dp198
g12
Vprt
p199
sbag0
(g1
g2
(lp200
(lp201
S'word: popcorn, index: 14'
p202
aatp203
Rp204
(dp205
g12
Vdobj
p206
sbag0
(g1
g2
(lp207
(lp208
S'word: his, index: 16'
p209
aatp210
Rp211
(dp212
g12
Vagent
p213
sbatp214
Rp215
(dp216
g12
S'word: passing, index: 12'
p217
sbatp218
Rp219
(dp220
g12
Vvmod
p221
sbag0
(g1
g2
(lp222
(lp223
S'word: we, index: 1'
p224
aatp225
Rp226
(dp227
g12
Vnsubj
p228
sbatp229
Rp230
(dp231
g12
S'word: have, index: 2'
p232
sbatp233
Rp234
(dp235
g12
S'id: 1'
p236
sbag0
(g1
g2
(lp237
g0
(g1
g2
(lp238
g0
(g1
g2
(lp239
g0
(g1
g2
(lp240
g0
(g1
g2
(lp241
g0
(g1
g2
(lp242
g0
(g1
g2
(lp243
g0
(g1
g2
(lp244
g0
(g1
g2
(lp245
g0
(g1
g2
(lp246
g0
(g1
g2
(lp247
(lp248
S'word: a, index: 9'
p249
aatp250
Rp251
(dp252
g12
Vdet
p253
sbag0
(g1
g2
(lp254
(lp255
S'word: large, index: 10'
p256
aatp257
Rp258
(dp259
g12
Vamod
p260
sbag0
(g1
g2
(lp261
(lp262
S'word: round, index: 11'
p263
aatp264
Rp265
(dp266
g12
Vnn
p267
sbag0
(g1
g2
(lp268
g0
(g1
g2
(lp269
g0
(g1
g2
(lp270
(lp271
S'word: a, index: 14'
p272
aatp273
Rp274
(dp275
g12
Vdet
p276
sbatp277
Rp278
(dp279
g12
S'word: lion, index: 15'
p280
sbatp281
Rp282
(dp283
g12
Vprep
p284
sbatp285
Rp286
(dp287
g12
S'word: object, index: 12'
p288
sbatp289
Rp290
(dp291
g12
Vprep
p292
sbatp293
Rp294
(dp295
g12
S'word: sitting, index: 7'
p296
sbatp297
Rp298
(dp299
g12
Vvmod
p300
sbag0
(g1
g2
(lp301
(lp302
S'word: a, index: 5'
p303
aatp304
Rp305
(dp306
g12
Vdet
p307
sbatp308
Rp309
(dp310
g12
S'word: lion, index: 6'
p311
sbatp312
Rp313
(dp314
g12
Vnsubj
p315
sbatp316
Rp317
(dp318
g12
S'word: tamer, index: 16'
p319
sbatp320
Rp321
(dp322
g12
Vxcomp
p323
sbag0
(g1
g2
(lp324
(lp325
S'word: him, index: 2'
p326
aatp327
Rp328
(dp329
g12
Vprep
p330
sbag0
(g1
g2
(lp331
(lp332
S'word: we, index: 3'
p333
aatp334
Rp335
(dp336
g12
Vnsubj
p337
sbag0
(g1
g2
(lp338
g0
(g1
g2
(lp339
g0
(g1
g2
(lp340
g0
(g1
g2
(lp341
g0
(g1
g2
(lp342
(lp343
S'word: a, index: 22'
p344
aatp345
Rp346
(dp347
g12
Vdet
p348
sbatp349
Rp350
(dp351
g12
S'word: cage, index: 23'
p352
sbatp353
Rp354
(dp355
g12
Vprep
p356
sbag0
(g1
g2
(lp357
g0
(g1
g2
(lp358
g0
(g1
g2
(lp359
(lp360
S'word: as, index: 25'
p361
aatp362
Rp363
(dp364
g12
Vmark
p365
sbag0
(g1
g2
(lp366
(lp367
S'word: it, index: 26'
p368
aatp369
Rp370
(dp371
g12
Vnsubj
p372
sbatp373
Rp374
(dp375
g12
S'word: were, index: 27'
p376
sbatp377
Rp378
(dp379
g12
Vadvcl
p380
sbag0
(g1
g2
(lp381
(lp382
S'word: they, index: 19'
p383
aatp384
Rp385
(dp386
g12
Vnsubj
p387
sbatp388
Rp389
(dp390
g12
S"word: 're, index: 20"
p391
sbatp392
Rp393
(dp394
g12
Vconj
p395
sbatp396
Rp397
(dp398
g12
S'word: have, index: 4'
p399
sbatp400
Rp401
(dp402
g12
S'id: 2'
p403
sbag0
(g1
g2
(lp404
g0
(g1
g2
(lp405
g0
(g1
g2
(lp406
g0
(g1
g2
(lp407
g0
(g1
g2
(lp408
g0
(g1
g2
(lp409
g0
(g1
g2
(lp410
(lp411
S'word: the, index: 25'
p412
aatp413
Rp414
(dp415
g12
Vdet
p416
sbatp417
Rp418
(dp419
g12
S'word: daughter, index: 26'
p420
sbatp421
Rp422
(dp423
g12
Vnsubj
p424
sbag0
(g1
g2
(lp425
(lp426
S'word: is, index: 27'
p427
aatp428
Rp429
(dp430
g12
Vaux
p431
sbag0
(g1
g2
(lp432
g0
(g1
g2
(lp433
g0
(g1
g2
(lp434
(lp435
S'word: the, index: 30'
p436
aatp437
Rp438
(dp439
g12
Vdet
p440
sbatp441
Rp442
(dp443
g12
S'word: clown, index: 31'
p444
sbatp445
Rp446
(dp447
g12
Vprep
p448
sbag0
(g1
g2
(lp449
(lp450
S'word: to, index: 33'
p451
aatp452
Rp453
(dp454
g12
Vprep
p455
sbatp456
Rp457
(dp458
g12
S'word: pointing, index: 28'
p459
sbatp460
Rp461
(dp462
g12
Vconj
p463
sbag0
(g1
g2
(lp464
(lp465
S'word: we, index: 17'
p466
aatp467
Rp468
(dp469
g12
Vnsubj
p470
sbag0
(g1
g2
(lp471
(lp472
S'word: front, index: 2'
p473
aatp474
Rp475
(dp476
g12
Vprep
p477
sbag0
(g1
g2
(lp478
g0
(g1
g2
(lp479
g0
(g1
g2
(lp480
(lp481
S'word: a, index: 19'
p482
aatp483
Rp484
(dp485
g12
Vdet
p486
sbag0
(g1
g2
(lp487
g0
(g1
g2
(lp488
g0
(g1
g2
(lp489
(lp490
S'word: his, index: 22'
p491
aatp492
Rp493
(dp494
g12
Vposs
p495
sbatp496
Rp497
(dp498
g12
S'word: daughter, index: 23'
p499
sbatp500
Rp501
(dp502
g12
Vconj
p503
sbatp504
Rp505
(dp506
g12
S'word: gentleman, index: 20'
p507
sbatp508
Rp509
(dp510
g12
Vdobj
p511
sbag0
(g1
g2
(lp512
g0
(g1
g2
(lp513
g0
(g1
g2
(lp514
(lp515
S'word: that, index: 35'
p516
aatp517
Rp518
(dp519
g12
Vnsubj
p520
sbag0
(g1
g2
(lp521
(lp522
S'word: would, index: 36'
p523
aatp524
Rp525
(dp526
g12
Vaux
p527
sbag0
(g1
g2
(lp528
g0
(g1
g2
(lp529
g0
(g1
g2
(lp530
g0
(g1
g2
(lp531
g0
(g1
g2
(lp532
(lp533
S'word: the, index: 42'
p534
aatp535
Rp536
(dp537
g12
Vdet
p538
sbag0
(g1
g2
(lp539
g0
(g1
g2
(lp540
g0
(g1
g2
(lp541
g0
(g1
g2
(lp542
g0
(g1
g2
(lp543
(lp544
S'word: the, index: 45'
p545
aatp546
Rp547
(dp548
g12
Vdet
p549
sbag0
(g1
g2
(lp550
g0
(g1
g2
(lp551
g0
(g1
g2
(lp552
(lp553
S'word: the, index: 48'
p554
aatp555
Rp556
(dp557
g12
Vdet
p558
sbatp559
Rp560
(dp561
g12
S'word: clown, index: 49'
p562
sbatp563
Rp564
(dp565
g12
Vprep
p566
sbatp567
Rp568
(dp569
g12
S'word: right, index: 46'
p570
sbatp571
Rp572
(dp573
g12
Vpobj
p574
sbatp575
Rp576
(dp577
g12
S'word: but, index: 44'
p578
sbatp579
Rp580
(dp581
g12
Vprep
p582
sbatp583
Rp584
(dp585
g12
S'word: picture, index: 43'
p586
sbatp587
Rp588
(dp589
g12
Vprep
p590
sbag0
(g1
g2
(lp591
(lp592
S'word: the, index: 39'
p593
aatp594
Rp595
(dp596
g12
Vdet
p597
sbatp598
Rp599
(dp600
g12
S'word: left, index: 40'
p601
sbatp602
Rp603
(dp604
g12
Vprep
p605
sbatp606
Rp607
(dp608
g12
S'word: be, index: 37'
p609
sbatp610
Rp611
(dp612
g12
Vconj
p613
sbag0
(g1
g2
(lp614
g0
(g1
g2
(lp615
g0
(g1
g2
(lp616
g0
(g1
g2
(lp617
g0
(g1
g2
(lp618
(lp619
S'word: who, index: 9'
p620
aatp621
Rp622
(dp623
g12
Vnsubj
p624
sbag0
(g1
g2
(lp625
g0
(g1
g2
(lp626
g0
(g1
g2
(lp627
(lp628
S'word: the, index: 14'
p629
aatp630
Rp631
(dp632
g12
Vdet
p633
sbatp634
Rp635
(dp636
g12
S'word: lion, index: 15'
p637
sbatp638
Rp639
(dp640
g12
Vprep
p641
sbatp642
Rp643
(dp644
g12
S"word: 's, index: 10"
p645
sbatp646
Rp647
(dp648
g12
Vrcmod
p649
sbag0
(g1
g2
(lp650
(lp651
S'word: the, index: 6'
p652
aatp653
Rp654
(dp655
g12
Vdet
p656
sbatp657
Rp658
(dp659
g12
S'word: clown, index: 7'
p660
sbatp661
Rp662
(dp663
g12
Vprep
p664
sbag0
(g1
g2
(lp665
g497
atp666
Rp667
(dp668
g12
Vdobj
p669
sbatp670
Rp671
(dp672
g12
S'word: have, index: 18'
p673
sbatp674
Rp675
(dp676
g12
S'id: 3'
p677
sbag0
(g1
g2
(lp678
g0
(g1
g2
(lp679
g0
(g1
g2
(lp680
g0
(g1
g2
(lp681
g0
(g1
g2
(lp682
(lp683
S'word: the, index: 48'
p684
aatp685
Rp686
(dp687
g12
Vdet
p688
sbatp689
Rp690
(dp691
g12
S'word: bucket, index: 49'
p692
sbatp693
Rp694
(dp695
g12
Vprep
p696
sbag0
(g1
g2
(lp697
g0
(g1
g2
(lp698
g0
(g1
g2
(lp699
g0
(g1
g2
(lp700
g0
(g1
g2
(lp701
g0
(g1
g2
(lp702
g0
(g1
g2
(lp703
(lp704
S'word: her, index: 32'
p705
aatp706
Rp707
(dp708
g12
Vposs
p709
sbag0
(g1
g2
(lp710
g0
(g1
g2
(lp711
g0
(g1
g2
(lp712
(lp713
S'word: who, index: 34'
p714
aatp715
Rp716
(dp717
g12
Vnsubj
p718
sbatp719
Rp720
(dp721
g12
S'word: is, index: 35'
p722
sbatp723
Rp724
(dp725
g12
Vrcmod
p726
sbatp727
Rp728
(dp729
g12
S'word: brother, index: 33'
p730
sbatp731
Rp732
(dp733
g12
Vconj
p734
sbag0
(g1
g2
(lp735
(lp736
S'word: a, index: 19'
p737
aatp738
Rp739
(dp740
g12
Vdet
p741
sbag0
(g1
g2
(lp742
(lp743
S'word: young, index: 20'
p744
aatp745
Rp746
(dp747
g12
Vamod
p748
sbag0
(g1
g2
(lp749
g0
(g1
g2
(lp750
g0
(g1
g2
(lp751
(lp752
S'word: that, index: 22'
p753
aatp754
Rp755
(dp756
g12
Vnsubj
p757
sbag0
(g1
g2
(lp758
g0
(g1
g2
(lp759
g0
(g1
g2
(lp760
g0
(g1
g2
(lp761
g0
(g1
g2
(lp762
(lp763
S'word: a, index: 28'
p764
aatp765
Rp766
(dp767
g12
Vdet
p768
sbatp769
Rp770
(dp771
g12
S'word: ponytail, index: 29'
p772
sbatp773
Rp774
(dp775
g12
Vprep
p776
sbag0
(g1
g2
(lp777
(lp778
S'word: a, index: 25'
p779
aatp780
Rp781
(dp782
g12
Vdet
p783
sbatp784
Rp785
(dp786
g12
S'word: girl, index: 26'
p787
sbatp788
Rp789
(dp790
g12
Vprep
p791
sbatp792
Rp793
(dp794
g12
S'word: looks, index: 23'
p795
sbatp796
Rp797
(dp798
g12
Vrcmod
p799
sbatp800
Rp801
(dp802
g12
S'word: child, index: 21'
p803
sbatp804
Rp805
(dp806
g12
Vdobj
p807
sbatp808
Rp809
(dp810
g12
S'word: carrying, index: 18'
p811
sbatp812
Rp813
(dp814
g12
Vcsubj
p815
sbag0
(g1
g2
(lp816
g0
(g1
g2
(lp817
g0
(g1
g2
(lp818
(lp819
S'word: the, index: 2'
p820
aatp821
Rp822
(dp823
g12
Vdet
p824
sbag0
(g1
g2
(lp825
g0
(g1
g2
(lp826
g0
(g1
g2
(lp827
(lp828
S'word: the, index: 5'
p829
aatp830
Rp831
(dp832
g12
Vdet
p833
sbatp834
Rp835
(dp836
g12
S'word: clown, index: 6'
p837
sbatp838
Rp839
(dp840
g12
Vprep
p841
sbag0
(g1
g2
(lp842
g0
(g1
g2
(lp843
g0
(g1
g2
(lp844
g0
(g1
g2
(lp845
g0
(g1
g2
(lp846
(lp847
S'word: the, index: 12'
p848
aatp849
Rp850
(dp851
g12
Vdet
p852
sbag0
(g1
g2
(lp853
g0
(g1
g2
(lp854
g0
(g1
g2
(lp855
(lp856
S'word: is, index: 14'
p857
aatp858
Rp859
(dp860
g12
Vcop
p861
sbag0
(g1
g2
(lp862
(lp863
S'word: a, index: 15'
p864
aatp865
Rp866
(dp867
g12
Vdet
p868
sbatp869
Rp870
(dp871
g12
S'word: mom, index: 16'
p872
sbatp873
Rp874
(dp875
g12
Vrcmod
p876
sbatp877
Rp878
(dp879
g12
S'word: picture, index: 13'
p880
sbatp881
Rp882
(dp883
g12
Vprep
p884
sbag0
(g1
g2
(lp885
(lp886
S'word: the, index: 9'
p887
aatp888
Rp889
(dp890
g12
Vdet
p891
sbatp892
Rp893
(dp894
g12
S'word: right, index: 10'
p895
sbatp896
Rp897
(dp898
g12
Vprep
p899
sbatp900
Rp901
(dp902
g12
S'word: left, index: 3'
p903
sbatp904
Rp905
(dp906
g12
Vprep
p907
sbag0
(g1
g2
(lp908
g0
(g1
g2
(lp909
g0
(g1
g2
(lp910
(lp911
S'word: his, index: 37'
p912
aatp913
Rp914
(dp915
g12
Vposs
p916
sbatp917
Rp918
(dp919
g12
S'word: hands, index: 38'
p920
sbatp921
Rp922
(dp923
g12
Vdobj
p924
sbag0
(g1
g2
(lp925
(lp926
S'word: up, index: 39'
p927
aatp928
Rp929
(dp930
g12
Vprt
p931
sbag0
(g1
g2
(lp932
g0
(g1
g2
(lp933
g0
(g1
g2
(lp934
g0
(g1
g2
(lp935
g0
(g1
g2
(lp936
g0
(g1
g2
(lp937
g0
(g1
g2
(lp938
(lp939
S"word: 's, index: 44"
p940
aatp941
Rp942
(dp943
g12
Vaux
p944
sbag0
(g1
g2
(lp945
(lp946
S'word: out, index: 46'
p947
aatp948
Rp949
(dp950
g12
Vadvmod
p951
sbag0
(g1
g2
(lp952
(lp953
S'word: that, index: 43'
p954
aatp955
Rp956
(dp957
g12
Vnsubj
p958
sbatp959
Rp960
(dp961
g12
S'word: coming, index: 45'
p962
sbatp963
Rp964
(dp965
g12
Vrcmod
p966
sbag0
(g1
g2
(lp967
(lp968
S'word: the, index: 41'
p969
aatp970
Rp971
(dp972
g12
Vdet
p973
sbatp974
Rp975
(dp976
g12
S'word: popcorn, index: 42'
p977
sbatp978
Rp979
(dp980
g12
Vdobj
p981
sbatp982
Rp983
(dp984
g12
S'word: grabbing, index: 40'
p985
sbatp986
Rp987
(dp988
g12
Vxcomp
p989
sbatp990
Rp991
(dp992
g12
S'word: got, index: 36'
p993
sbatp994
Rp995
(dp996
g12
S'id: 4'
p997
sbag0
(g1
g2
(lp998
g0
(g1
g2
(lp999
g0
(g1
g2
(lp1000
(lp1001
S'word: them, index: 2'
p1002
aatp1003
Rp1004
(dp1005
g12
Vpobj
p1006
sbag0
(g1
g2
(lp1007
g0
(g1
g2
(lp1008
g0
(g1
g2
(lp1009
(lp1010
S'word: it, index: 15'
p1011
aatp1012
Rp1013
(dp1014
g12
Vnsubj
p1015
sbag0
(g1
g2
(lp1016
(lp1017
S'word: is, index: 16'
p1018
aatp1019
Rp1020
(dp1021
g12
Vcop
p1022
sbag0
(g1
g2
(lp1023
(lp1024
S'word: a, index: 17'
p1025
aatp1026
Rp1027
(dp1028
g12
Vdet
p1029
sbag0
(g1
g2
(lp1030
(lp1031
S'word: round, index: 18'
p1032
aatp1033
Rp1034
(dp1035
g12
Vamod
p1036
sbag0
(g1
g2
(lp1037
(lp1038
S'word: in, index: 14'
p1039
aatp1040
Rp1041
(dp1042
g12
Vmark
p1043
sbatp1044
Rp1045
(dp1046
g12
S'word: circle, index: 19'
p1047
sbatp1048
Rp1049
(dp1050
g12
Vconj
p1051
sbag0
(g1
g2
(lp1052
g0
(g1
g2
(lp1053
g0
(g1
g2
(lp1054
g0
(g1
g2
(lp1055
g0
(g1
g2
(lp1056
(lp1057
S'word: the, index: 6'
p1058
aatp1059
Rp1060
(dp1061
g12
Vdet
p1062
sbag0
(g1
g2
(lp1063
g0
(g1
g2
(lp1064
g0
(g1
g2
(lp1065
(lp1066
S'word: the, index: 9'
p1067
aatp1068
Rp1069
(dp1070
g12
Vdet
p1071
sbag0
(g1
g2
(lp1072
g0
(g1
g2
(lp1073
g0
(g1
g2
(lp1074
(lp1075
S'word: the, index: 12'
p1076
aatp1077
Rp1078
(dp1079
g12
Vdet
p1080
sbatp1081
Rp1082
(dp1083
g12
S'word: lion, index: 13'
p1084
sbatp1085
Rp1086
(dp1087
g12
Vprep
p1088
sbatp1089
Rp1090
(dp1091
g12
S'word: cage, index: 10'
p1092
sbatp1093
Rp1094
(dp1095
g12
Vprep
p1096
sbatp1097
Rp1098
(dp1099
g12
S'word: right, index: 7'
p1100
sbatp1101
Rp1102
(dp1103
g12
Vprep
p1104
sbatp1105
Rp1106
(dp1107
g12
S'word: off, index: 4'
p1108
sbatp1109
Rp1110
(dp1111
g12
Vconj
p1112
sbag0
(g1
g2
(lp1113
g0
(g1
g2
(lp1114
g0
(g1
g2
(lp1115
(lp1116
S'word: there, index: 21'
p1117
aatp1118
Rp1119
(dp1120
g12
Vexpl
p1121
sbag0
(g1
g2
(lp1122
g0
(g1
g2
(lp1123
g0
(g1
g2
(lp1124
g0
(g1
g2
(lp1125
g0
(g1
g2
(lp1126
(lp1127
S'word: na, index: 51'
p1128
aatp1129
Rp1130
(dp1131
g12
Vaux
p1132
sbag0
(g1
g2
(lp1133
g0
(g1
g2
(lp1134
g0
(g1
g2
(lp1135
(lp1136
S'word: something, index: 55'
p1137
aatp1138
Rp1139
(dp1140
g12
Vconj
p1141
sbatp1142
Rp1143
(dp1144
g12
S'word: feathers, index: 53'
p1145
sbatp1146
Rp1147
(dp1148
g12
Vdobj
p1149
sbag0
(g1
g2
(lp1150
(lp1151
S'word: something, index: 55'
p1152
aatp1153
Rp1154
(dp1155
g12
Vdobj
p1156
sbatp1157
Rp1158
(dp1159
g12
S'word: say, index: 52'
p1160
sbatp1161
Rp1162
(dp1163
g12
Vvmod
p1164
sbag0
(g1
g2
(lp1165
(lp1166
S'word: off, index: 40'
p1167
aatp1168
Rp1169
(dp1170
g12
Vprt
p1171
sbag0
(g1
g2
(lp1172
g0
(g1
g2
(lp1173
g0
(g1
g2
(lp1174
(lp1175
S'word: his, index: 41'
p1176
aatp1177
Rp1178
(dp1179
g12
Vposs
p1180
sbag0
(g1
g2
(lp1181
g0
(g1
g2
(lp1182
g0
(g1
g2
(lp1183
g0
(g1
g2
(lp1184
g0
(g1
g2
(lp1185
g0
(g1
g2
(lp1186
g0
(g1
g2
(lp1187
g0
(g1
g2
(lp1188
g0
(g1
g2
(lp1189
(lp1190
S'word: i, index: 49'
p1191
aatp1192
Rp1193
(dp1194
g12
Vnn
p1195
sbatp1196
Rp1197
(dp1198
g12
S'word: wan, index: 50'
p1199
sbatp1200
Rp1201
(dp1202
g12
Vappos
p1203
sbatp1204
Rp1205
(dp1206
g12
S'word: a, index: 47'
p1207
sbatp1208
Rp1209
(dp1210
g12
Vpobj
p1211
sbag0
(g1
g2
(lp1212
(lp1213
S'word: a, index: 44'
p1214
aatp1215
Rp1216
(dp1217
g12
Vdet
p1218
sbatp1219
Rp1220
(dp1221
g12
S'word: like, index: 46'
p1222
sbatp1223
Rp1224
(dp1225
g12
Vpobj
p1226
sbatp1227
Rp1228
(dp1229
g12
S'word: like, index: 43'
p1230
sbatp1231
Rp1232
(dp1233
g12
Vprep
p1234
sbatp1235
Rp1236
(dp1237
g12
S'word: head, index: 42'
p1238
sbatp1239
Rp1240
(dp1241
g12
Vdobj
p1242
sbag0
(g1
g2
(lp1243
g0
(g1
g2
(lp1244
g0
(g1
g2
(lp1245
g0
(g1
g2
(lp1246
g0
(g1
g2
(lp1247
g0
(g1
g2
(lp1248
g0
(g1
g2
(lp1249
(lp1250
S'word: the, index: 34'
p1251
aatp1252
Rp1253
(dp1254
g12
Vdet
p1255
sbag0
(g1
g2
(lp1256
g0
(g1
g2
(lp1257
g0
(g1
g2
(lp1258
(lp1259
S'word: a, index: 37'
p1260
aatp1261
Rp1262
(dp1263
g12
Vdet
p1264
sbatp1265
Rp1266
(dp1267
g12
S'word: thing, index: 38'
p1268
sbatp1269
Rp1270
(dp1271
g12
Vconj
p1272
sbatp1273
Rp1274
(dp1275
g12
S'word: horse, index: 35'
p1276
sbatp1277
Rp1278
(dp1279
g12
Vprep
p1280
sbag0
(g1
g2
(lp1281
g1266
atp1282
Rp1283
(dp1284
g12
Vprep
p1285
sbatp1286
Rp1287
(dp1288
g12
S'word: stuff, index: 32'
p1289
sbatp1290
Rp1291
(dp1292
g12
Vprep
p1293
sbag0
(g1
g2
(lp1294
(lp1295
S'word: a, index: 29'
p1296
aatp1297
Rp1298
(dp1299
g12
Vdet
p1300
sbatp1301
Rp1302
(dp1303
g12
S'word: lot, index: 30'
p1304
sbatp1305
Rp1306
(dp1307
g12
Vnsubj
p1308
sbatp1309
Rp1310
(dp1311
g12
S'word: coming, index: 39'
p1312
sbatp1313
Rp1314
(dp1315
g12
Vprepc
p1316
sbag0
(g1
g2
(lp1317
g0
(g1
g2
(lp1318
g0
(g1
g2
(lp1319
(lp1320
S'word: a, index: 23'
p1321
aatp1322
Rp1323
(dp1324
g12
Vdet
p1325
sbag0
(g1
g2
(lp1326
(lp1327
S'word: it, index: 26'
p1328
aatp1329
Rp1330
(dp1331
g12
Vprep
p1332
sbatp1333
Rp1334
(dp1335
g12
S'word: horse, index: 24'
p1336
sbatp1337
Rp1338
(dp1339
g12
Vnsubj
p1340
sbatp1341
Rp1342
(dp1343
g12
S'word: is, index: 22'
p1344
sbatp1345
Rp1346
(dp1347
g12
Vconj
p1348
sbatp1349
Rp1350
(dp1351
g12
S'word: behind, index: 1'
p1352
sbatp1353
Rp1354
(dp1355
g12
S'id: 5'
p1356
sbag0
(g1
g2
(lp1357
g0
(g1
g2
(lp1358
g0
(g1
g2
(lp1359
g0
(g1
g2
(lp1360
g0
(g1
g2
(lp1361
(lp1362
S'word: she, index: 18'
p1363
aatp1364
Rp1365
(dp1366
g12
Vnsubj
p1367
sbatp1368
Rp1369
(dp1370
g12
S"word: 's, index: 19"
p1371
sbatp1372
Rp1373
(dp1374
g12
Vprepc
p1375
sbag0
(g1
g2
(lp1376
g0
(g1
g2
(lp1377
g0
(g1
g2
(lp1378
(lp1379
S'word: her, index: 21'
p1380
aatp1381
Rp1382
(dp1383
g12
Vposs
p1384
sbag0
(g1
g2
(lp1385
g0
(g1
g2
(lp1386
g0
(g1
g2
(lp1387
(lp1388
S'word: out, index: 24'
p1389
aatp1390
Rp1391
(dp1392
g12
Vprt
p1393
sbag0
(g1
g2
(lp1394
(lp1395
S'word: straight, index: 25'
p1396
aatp1397
Rp1398
(dp1399
g12
Vadvmod
p1400
sbatp1401
Rp1402
(dp1403
g12
S'word: stretched, index: 23'
p1404
sbatp1405
Rp1406
(dp1407
g12
Vvmod
p1408
sbag0
(g1
g2
(lp1409
g0
(g1
g2
(lp1410
g0
(g1
g2
(lp1411
(lp1412
S'word: her, index: 27'
p1413
aatp1414
Rp1415
(dp1416
g12
Vposs
p1417
sbag0
(g1
g2
(lp1418
g0
(g1
g2
(lp1419
g0
(g1
g2
(lp1420
g0
(g1
g2
(lp1421
g0
(g1
g2
(lp1422
g0
(g1
g2
(lp1423
g0
(g1
g2
(lp1424
g0
(g1
g2
(lp1425
g0
(g1
g2
(lp1426
(lp1427
S'word: who, index: 34'
p1428
aatp1429
Rp1430
(dp1431
g12
Vnsubj
p1432
sbag0
(g1
g2
(lp1433
(lp1434
S"word: 's, index: 35"
p1435
aatp1436
Rp1437
(dp1438
g12
Vaux
p1439
sbag0
(g1
g2
(lp1440
g0
(g1
g2
(lp1441
g0
(g1
g2
(lp1442
(lp1443
S'word: his, index: 38'
p1444
aatp1445
Rp1446
(dp1447
g12
Vposs
p1448
sbatp1449
Rp1450
(dp1451
g12
S'word: tail, index: 39'
p1452
sbatp1453
Rp1454
(dp1455
g12
Vprep
p1456
sbag0
(g1
g2
(lp1457
(lp1458
S'word: up, index: 40'
p1459
aatp1460
Rp1461
(dp1462
g12
Vadvmod
p1463
sbatp1464
Rp1465
(dp1466
g12
S'word: prancing, index: 36'
p1467
sbatp1468
Rp1469
(dp1470
g12
Vrcmod
p1471
sbag0
(g1
g2
(lp1472
(lp1473
S'word: the, index: 31'
p1474
aatp1475
Rp1476
(dp1477
g12
Vdet
p1478
sbatp1479
Rp1480
(dp1481
g12
S'word: horse, index: 32'
p1482
sbatp1483
Rp1484
(dp1485
g12
Vdobj
p1486
sbatp1487
Rp1488
(dp1489
g12
S'word: riding, index: 30'
p1490
sbatp1491
Rp1492
(dp1493
g12
Vdep
p1494
sbatp1495
Rp1496
(dp1497
g12
S'word: bent, index: 29'
p1498
sbatp1499
Rp1500
(dp1501
g12
Vamod
p1502
sbatp1503
Rp1504
(dp1505
g12
S'word: knees, index: 28'
p1506
sbatp1507
Rp1508
(dp1509
g12
Vconj
p1510
sbatp1511
Rp1512
(dp1513
g12
S'word: arms, index: 22'
p1514
sbatp1515
Rp1516
(dp1517
g12
Vdobj
p1518
sbag0
(g1
g2
(lp1519
g0
(g1
g2
(lp1520
g0
(g1
g2
(lp1521
(lp1522
S'word: him, index: 3'
p1523
aatp1524
Rp1525
(dp1526
g12
Vnsubj
p1527
sbag0
(g1
g2
(lp1528
g1369
atp1529
Rp1530
(dp1531
g12
Vconj
p1532
sbag0
(g1
g2
(lp1533
(lp1534
S'word: is, index: 4'
p1535
aatp1536
Rp1537
(dp1538
g12
Vcop
p1539
sbag0
(g1
g2
(lp1540
(lp1541
S'word: a, index: 5'
p1542
aatp1543
Rp1544
(dp1545
g12
Vdet
p1546
sbag0
(g1
g2
(lp1547
(lp1548
S'word: young, index: 6'
p1549
aatp1550
Rp1551
(dp1552
g12
Vamod
p1553
sbag0
(g1
g2
(lp1554
g0
(g1
g2
(lp1555
g0
(g1
g2
(lp1556
(lp1557
S'word: who, index: 8'
p1558
aatp1559
Rp1560
(dp1561
g12
Vnsubj
p1562
sbag0
(g1
g2
(lp1563
g0
(g1
g2
(lp1564
g0
(g1
g2
(lp1565
(lp1566
S'word: a, index: 11'
p1567
aatp1568
Rp1569
(dp1570
g12
Vdet
p1571
sbag0
(g1
g2
(lp1572
g0
(g1
g2
(lp1573
g0
(g1
g2
(lp1574
(lp1575
S'word: a, index: 14'
p1576
aatp1577
Rp1578
(dp1579
g12
Vdet
p1580
sbatp1581
Rp1582
(dp1583
g12
S'word: fluflu, index: 15'
p1584
sbatp1585
Rp1586
(dp1587
g12
Vprep
p1588
sbatp1589
Rp1590
(dp1591
g12
S'word: ballerina, index: 12'
p1592
sbatp1593
Rp1594
(dp1595
g12
Vprep
p1596
sbag0
(g1
g2
(lp1597
(lp1598
S'word: on, index: 16'
p1599
aatp1600
Rp1601
(dp1602
g12
Vprep
p1603
sbatp1604
Rp1605
(dp1606
g12
S'word: looks, index: 9'
p1607
sbatp1608
Rp1609
(dp1610
g12
Vrcmod
p1611
sbatp1612
Rp1613
(dp1614
g12
S'word: lady, index: 7'
p1615
sbatp1616
Rp1617
(dp1618
g12
Vprepc
p1619
sbag0
(g1
g2
(lp1620
g1504
atp1621
Rp1622
(dp1623
g12
Vdobj
p1624
sbag0
(g1
g2
(lp1625
(lp1626
S'word: and, index: 1'
p1627
aatp1628
Rp1629
(dp1630
g12
Vcc
p1631
sbatp1632
Rp1633
(dp1634
g12
S'word: got, index: 20'
p1635
sbatp1636
Rp1637
(dp1638
g12
S'id: 6'
p1639
sbag0
(g1
g2
(lp1640
g0
(g1
g2
(lp1641
g0
(g1
g2
(lp1642
g0
(g1
g2
(lp1643
g0
(g1
g2
(lp1644
(lp1645
S'word: one, index: 6'
p1646
aatp1647
Rp1648
(dp1649
g12
Vnum
p1650
sbag0
(g1
g2
(lp1651
g0
(g1
g2
(lp1652
g0
(g1
g2
(lp1653
(lp1654
S'word: three, index: 8'
p1655
aatp1656
Rp1657
(dp1658
g12
Vnumber
p1659
sbag0
(g1
g2
(lp1660
g0
(g1
g2
(lp1661
g0
(g1
g2
(lp1662
(lp1663
S'word: five, index: 10'
p1664
aatp1665
Rp1666
(dp1667
g12
Vnum
p1668
sbag0
(g1
g2
(lp1669
(lp1670
S'word: six, index: 11'
p1671
aatp1672
Rp1673
(dp1674
g12
Vnum
p1675
sbatp1676
Rp1677
(dp1678
g12
S'word: people, index: 12'
p1679
sbatp1680
Rp1681
(dp1682
g12
Vdep
p1683
sbatp1684
Rp1685
(dp1686
g12
S'word: four, index: 9'
p1687
sbatp1688
Rp1689
(dp1690
g12
Vdep
p1691
sbatp1692
Rp1693
(dp1694
g12
S'word: two, index: 7'
p1695
sbatp1696
Rp1697
(dp1698
g12
Vnsubj
p1699
sbag0
(g1
g2
(lp1700
(lp1701
S'word: five, index: 14'
p1702
aatp1703
Rp1704
(dp1705
g12
Vnsubj
p1706
sbag0
(g1
g2
(lp1707
(lp1708
S'word: and, index: 1'
p1709
aatp1710
Rp1711
(dp1712
g12
Vcc
p1713
sbag0
(g1
g2
(lp1714
g0
(g1
g2
(lp1715
g0
(g1
g2
(lp1716
(lp1717
S'word: six, index: 16'
p1718
aatp1719
Rp1720
(dp1721
g12
Vnum
p1722
sbag0
(g1
g2
(lp1723
g0
(g1
g2
(lp1724
g0
(g1
g2
(lp1725
g0
(g1
g2
(lp1726
g0
(g1
g2
(lp1727
(lp1728
S'word: a, index: 21'
p1729
aatp1730
Rp1731
(dp1732
g12
Vdet
p1733
sbag0
(g1
g2
(lp1734
g0
(g1
g2
(lp1735
g0
(g1
g2
(lp1736
(lp1737
S'word: the, index: 24'
p1738
aatp1739
Rp1740
(dp1741
g12
Vdet
p1742
sbag0
(g1
g2
(lp1743
(lp1744
S'word: far, index: 25'
p1745
aatp1746
Rp1747
(dp1748
g12
Vamod
p1749
sbag0
(g1
g2
(lp1750
g0
(g1
g2
(lp1751
g0
(g1
g2
(lp1752
(lp1753
S'word: the, index: 28'
p1754
aatp1755
Rp1756
(dp1757
g12
Vpredet
p1758
sbag0
(g1
g2
(lp1759
(lp1760
S'word: the, index: 29'
p1761
aatp1762
Rp1763
(dp1764
g12
Vdet
p1765
sbatp1766
Rp1767
(dp1768
g12
S'word: ring, index: 30'
p1769
sbatp1770
Rp1771
(dp1772
g12
Vprep
p1773
sbatp1774
Rp1775
(dp1776
g12
S'word: side, index: 26'
p1777
sbatp1778
Rp1779
(dp1780
g12
Vprep
p1781
sbatp1782
Rp1783
(dp1784
g12
S'word: bench, index: 22'
p1785
sbatp1786
Rp1787
(dp1788
g12
Vprep
p1789
sbag0
(g1
g2
(lp1790
g0
(g1
g2
(lp1791
g0
(g1
g2
(lp1792
g0
(g1
g2
(lp1793
g0
(g1
g2
(lp1794
(lp1795
S'word: the, index: 38'
p1796
aatp1797
Rp1798
(dp1799
g12
Vpredet
p1800
sbag0
(g1
g2
(lp1801
(lp1802
S'word: the, index: 39'
p1803
aatp1804
Rp1805
(dp1806
g12
Vdet
p1807
sbatp1808
Rp1809
(dp1810
g12
S'word: lady, index: 40'
p1811
sbatp1812
Rp1813
(dp1814
g12
Vprep
p1815
sbag0
(g1
g2
(lp1816
g0
(g1
g2
(lp1817
g0
(g1
g2
(lp1818
(lp1819
S'word: the, index: 42'
p1820
aatp1821
Rp1822
(dp1823
g12
Vdet
p1824
sbatp1825
Rp1826
(dp1827
g12
S'word: horse, index: 43'
p1828
sbatp1829
Rp1830
(dp1831
g12
Vprep
p1832
sbag0
(g1
g2
(lp1833
(lp1834
S'word: that, index: 32'
p1835
aatp1836
Rp1837
(dp1838
g12
Vmark
p1839
sbag0
(g1
g2
(lp1840
(lp1841
S'word: they, index: 33'
p1842
aatp1843
Rp1844
(dp1845
g12
Vnsubj
p1846
sbag0
(g1
g2
(lp1847
(lp1848
S"word: 're, index: 34"
p1849
aatp1850
Rp1851
(dp1852
g12
Vaux
p1853
sbag0
(g1
g2
(lp1854
(lp1855
S'word: around, index: 36'
p1856
aatp1857
Rp1858
(dp1859
g12
Vprt
p1860
sbatp1861
Rp1862
(dp1863
g12
S'word: going, index: 35'
p1864
sbatp1865
Rp1866
(dp1867
g12
Vccomp
p1868
sbatp1869
Rp1870
(dp1871
g12
S'word: sitting, index: 18'
p1872
sbatp1873
Rp1874
(dp1875
g12
Vvmod
p1876
sbatp1877
Rp1878
(dp1879
g12
S'word: people, index: 17'
p1880
sbatp1881
Rp1882
(dp1883
g12
Vnsubj
p1884
sbag0
(g1
g2
(lp1885
(lp1886
S'word: there, index: 2'
p1887
aatp1888
Rp1889
(dp1890
g12
Vexpl
p1891
sbag0
(g1
g2
(lp1892
g0
(g1
g2
(lp1893
g0
(g1
g2
(lp1894
g1693
atp1895
Rp1896
(dp1897
g12
Vconj
p1898
sbag0
(g1
g2
(lp1899
(lp1900
S'word: five, index: 14'
p1901
aatp1902
Rp1903
(dp1904
g12
Vconj
p1905
sbag0
(g1
g2
(lp1906
g1878
atp1907
Rp1908
(dp1909
g12
Vconj
p1910
sbatp1911
Rp1912
(dp1913
g12
S'word: a, index: 4'
p1914
sbatp1915
Rp1916
(dp1917
g12
Vnsubj
p1918
sbatp1919
Rp1920
(dp1921
g12
S"word: 's, index: 3"
p1922
sbatp1923
Rp1924
(dp1925
g12
S'id: 7'
p1926
sbag0
(g1
g2
(lp1927
g0
(g1
g2
(lp1928
g0
(g1
g2
(lp1929
g0
(g1
g2
(lp1930
g0
(g1
g2
(lp1931
g0
(g1
g2
(lp1932
g0
(g1
g2
(lp1933
(lp1934
S'word: descending, index: 10'
p1935
aatp1936
Rp1937
(dp1938
g12
Vamod
p1939
sbatp1940
Rp1941
(dp1942
g12
S'word: order, index: 11'
p1943
sbatp1944
Rp1945
(dp1946
g12
Vprep
p1947
sbag0
(g1
g2
(lp1948
(lp1949
S'word: like, index: 4'
p1950
aatp1951
Rp1952
(dp1953
g12
Vmark
p1954
sbag0
(g1
g2
(lp1955
(lp1956
S'word: it, index: 5'
p1957
aatp1958
Rp1959
(dp1960
g12
Vnsubj
p1961
sbag0
(g1
g2
(lp1962
(lp1963
S"word: 's, index: 6"
p1964
aatp1965
Rp1966
(dp1967
g12
Vcop
p1968
sbag0
(g1
g2
(lp1969
(lp1970
S'word: a, index: 7'
p1971
aatp1972
Rp1973
(dp1974
g12
Vdet
p1975
sbatp1976
Rp1977
(dp1978
g12
S'word: family, index: 8'
p1979
sbatp1980
Rp1981
(dp1982
g12
Vadvcl
p1983
sbag0
(g1
g2
(lp1984
(lp1985
S'word: and, index: 1'
p1986
aatp1987
Rp1988
(dp1989
g12
Vcc
p1990
sbag0
(g1
g2
(lp1991
(lp1992
S'word: it, index: 2'
p1993
aatp1994
Rp1995
(dp1996
g12
Vnsubj
p1997
sbatp1998
Rp1999
(dp2000
g12
S'word: looks, index: 3'
p2001
sbatp2002
Rp2003
(dp2004
g12
S'id: 8'
p2005
sbag0
(g1
g2
(lp2006
g0
(g1
g2
(lp2007
g0
(g1
g2
(lp2008
(lp2009
S'word: and, index: 1'
p2010
aatp2011
Rp2012
(dp2013
g12
Vcc
p2014
sbag0
(g1
g2
(lp2015
(lp2016
S'word: they, index: 2'
p2017
aatp2018
Rp2019
(dp2020
g12
Vnsubj
p2021
sbag0
(g1
g2
(lp2022
(lp2023
S'word: black, index: 5'
p2024
aatp2025
Rp2026
(dp2027
g12
Vprep
p2028
sbag0
(g1
g2
(lp2029
g0
(g1
g2
(lp2030
g0
(g1
g2
(lp2031
g0
(g1
g2
(lp2032
g0
(g1
g2
(lp2033
(lp2034
S'word: any, index: 11'
p2035
aatp2036
Rp2037
(dp2038
g12
Vdet
p2039
sbatp2040
Rp2041
(dp2042
g12
S'word: faces, index: 12'
p2043
sbatp2044
Rp2045
(dp2046
g12
Vdobj
p2047
sbag0
(g1
g2
(lp2048
(lp2049
S'word: so, index: 6'
p2050
aatp2051
Rp2052
(dp2053
g12
Vmark
p2054
sbag0
(g1
g2
(lp2055
(lp2056
S'word: you, index: 7'
p2057
aatp2058
Rp2059
(dp2060
g12
Vnsubj
p2061
sbag0
(g1
g2
(lp2062
(lp2063
S'word: do, index: 8'
p2064
aatp2065
Rp2066
(dp2067
g12
Vaux
p2068
sbag0
(g1
g2
(lp2069
(lp2070
S"word: n't, index: 9"
p2071
aatp2072
Rp2073
(dp2074
g12
Vneg
p2075
sbatp2076
Rp2077
(dp2078
g12
S'word: see, index: 10'
p2079
sbatp2080
Rp2081
(dp2082
g12
Vadvcl
p2083
sbatp2084
Rp2085
(dp2086
g12
S"word: 're, index: 3"
p2087
sbatp2088
Rp2089
(dp2090
g12
S'id: 9'
p2091
sbag0
(g1
g2
(lp2092
g0
(g1
g2
(lp2093
g0
(g1
g2
(lp2094
(lp2095
S'word: and, index: 1'
p2096
aatp2097
Rp2098
(dp2099
g12
Vcc
p2100
sbag0
(g1
g2
(lp2101
g0
(g1
g2
(lp2102
g0
(g1
g2
(lp2103
(lp2104
S'word: all, index: 3'
p2105
aatp2106
Rp2107
(dp2108
g12
Vdep
p2109
sbatp2110
Rp2111
(dp2112
g12
S'word: above, index: 2'
p2113
sbatp2114
Rp2115
(dp2116
g12
Vadvmod
p2117
sbag0
(g1
g2
(lp2118
(lp2119
S'word: the, index: 5'
p2120
aatp2121
Rp2122
(dp2123
g12
Vprep
p2124
sbag0
(g1
g2
(lp2125
g0
(g1
g2
(lp2126
g0
(g1
g2
(lp2127
(lp2128
S'word: a, index: 7'
p2129
aatp2130
Rp2131
(dp2132
g12
Vdet
p2133
sbag0
(g1
g2
(lp2134
g0
(g1
g2
(lp2135
g0
(g1
g2
(lp2136
g0
(g1
g2
(lp2137
g0
(g1
g2
(lp2138
(lp2139
S'word: tightrope, index: 13'
p2140
aatp2141
Rp2142
(dp2143
g12
Vnn
p2144
sbatp2145
Rp2146
(dp2147
g12
S'word: walker, index: 14'
p2148
sbatp2149
Rp2150
(dp2151
g12
Vappos
p2152
sbag0
(g1
g2
(lp2153
(lp2154
S'word: who, index: 9'
p2155
aatp2156
Rp2157
(dp2158
g12
Vnsubj
p2159
sbag0
(g1
g2
(lp2160
(lp2161
S'word: is, index: 10'
p2162
aatp2163
Rp2164
(dp2165
g12
Vcop
p2166
sbatp2167
Rp2168
(dp2169
g12
S'word: a, index: 11'
p2170
sbatp2171
Rp2172
(dp2173
g12
Vccomp
p2174
sbatp2175
Rp2176
(dp2177
g12
S'word: gentleman, index: 8'
p2178
sbatp2179
Rp2180
(dp2181
g12
Vnsubj
p2182
sbatp2183
Rp2184
(dp2185
g12
S'word: is, index: 6'
p2186
sbatp2187
Rp2188
(dp2189
g12
S'id: 10'
p2190
sbatp2191
Rp2192
(dp2193
g12
S'sentences'
p2194
sb.