ccopy_reg
_reconstructor
p0
(cnltk.tree
Tree
p1
c__builtin__
list
p2
(lp3
g0
(g1
g2
(lp4
g0
(g1
g2
(lp5
g0
(g1
g2
(lp6
g0
(g1
g2
(lp7
Vokay
p8
atp9
Rp10
(dp11
S'_label'
p12
VJJ
p13
sbag0
(g1
g2
(lp14
g0
(g1
g2
(lp15
g0
(g1
g2
(lp16
g0
(g1
g2
(lp17
Vi
p18
atp19
Rp20
(dp21
g12
VFW
p22
sbatp23
Rp24
(dp25
g12
VNP
p26
sbag0
(g1
g2
(lp27
g0
(g1
g2
(lp28
Vsee
p29
atp30
Rp31
(dp32
g12
VVB
p33
sbag0
(g1
g2
(lp34
g0
(g1
g2
(lp35
g0
(g1
g2
(lp36
Va
p37
atp38
Rp39
(dp40
g12
VDT
p41
sbag0
(g1
g2
(lp42
Vsail
p43
atp44
Rp45
(dp46
g12
VNN
p47
sbag0
(g1
g2
(lp48
Vboat
p49
atp50
Rp51
(dp52
g12
VNN
p53
sbatp54
Rp55
(dp56
g12
VNP
p57
sbag0
(g1
g2
(lp58
g0
(g1
g2
(lp59
Vwith
p60
atp61
Rp62
(dp63
g12
VIN
p64
sbag0
(g1
g2
(lp65
g0
(g1
g2
(lp66
g0
(g1
g2
(lp67
Vsome
p68
atp69
Rp70
(dp71
g12
VDT
p72
sbag0
(g1
g2
(lp73
Vpeople
p74
atp75
Rp76
(dp77
g12
VNNS
p78
sbatp79
Rp80
(dp81
g12
VNP
p82
sbag0
(g1
g2
(lp83
g0
(g1
g2
(lp84
Vin
p85
atp86
Rp87
(dp88
g12
VIN
p89
sbag0
(g1
g2
(lp90
g0
(g1
g2
(lp91
Vit
p92
atp93
Rp94
(dp95
g12
VPRP
p96
sbatp97
Rp98
(dp99
g12
VNP
p100
sbatp101
Rp102
(dp103
g12
VPP
p104
sbatp105
Rp106
(dp107
g12
VNP
p108
sbatp109
Rp110
(dp111
g12
VPP
p112
sbatp113
Rp114
(dp115
g12
VNP
p116
sbag0
(g1
g2
(lp117
g0
(g1
g2
(lp118
Vout
p119
atp120
Rp121
(dp122
g12
VRP
p123
sbatp124
Rp125
(dp126
g12
VADVP
p127
sbag0
(g1
g2
(lp128
g0
(g1
g2
(lp129
Vin
p130
atp131
Rp132
(dp133
g12
VIN
p134
sbag0
(g1
g2
(lp135
g0
(g1
g2
(lp136
g0
(g1
g2
(lp137
Vthe
p138
atp139
Rp140
(dp141
g12
VDT
p142
sbag0
(g1
g2
(lp143
Vmiddle
p144
atp145
Rp146
(dp147
g12
VNN
p148
sbatp149
Rp150
(dp151
g12
VNP
p152
sbag0
(g1
g2
(lp153
g0
(g1
g2
(lp154
Vof
p155
atp156
Rp157
(dp158
g12
VIN
p159
sbag0
(g1
g2
(lp160
g0
(g1
g2
(lp161
Vthe
p162
atp163
Rp164
(dp165
g12
VDT
p166
sbag0
(g1
g2
(lp167
Vlake
p168
atp169
Rp170
(dp171
g12
VNN
p172
sbatp173
Rp174
(dp175
g12
VNP
p176
sbatp177
Rp178
(dp179
g12
VPP
p180
sbatp181
Rp182
(dp183
g12
VNP
p184
sbatp185
Rp186
(dp187
g12
VPP
p188
sbatp189
Rp190
(dp191
g12
VVP
p192
sbatp193
Rp194
(dp195
g12
VS
p196
sbatp197
Rp198
(dp199
g12
VSBAR
p200
sbatp201
Rp202
(dp203
g12
VADJP
p204
sbag0
(g1
g2
(lp205
V.
p206
atp207
Rp208
(dp209
g12
V.
p210
sbatp211
Rp212
(dp213
g12
VS
p214
sbatp215
Rp216
(dp217
g12
S'id: 0'
p218
sbag0
(g1
g2
(lp219
g0
(g1
g2
(lp220
g0
(g1
g2
(lp221
g0
(g1
g2
(lp222
g0
(g1
g2
(lp223
Vthere
p224
atp225
Rp226
(dp227
g12
VEX
p228
sbatp229
Rp230
(dp231
g12
VNP
p232
sbag0
(g1
g2
(lp233
g0
(g1
g2
(lp234
V's
p235
atp236
Rp237
(dp238
g12
VVBZ
p239
sbag0
(g1
g2
(lp240
g0
(g1
g2
(lp241
g0
(g1
g2
(lp242
Va
p243
atp244
Rp245
(dp246
g12
VDT
p247
sbag0
(g1
g2
(lp248
Vgirl
p249
atp250
Rp251
(dp252
g12
VNN
p253
sbatp254
Rp255
(dp256
g12
VNP
p257
sbag0
(g1
g2
(lp258
g0
(g1
g2
(lp259
Vsitting
p260
atp261
Rp262
(dp263
g12
VVBG
p264
sbag0
(g1
g2
(lp265
g0
(g1
g2
(lp266
Vbeside
p267
atp268
Rp269
(dp270
g12
VIN
p271
sbag0
(g1
g2
(lp272
g0
(g1
g2
(lp273
g0
(g1
g2
(lp274
Vthe
p275
atp276
Rp277
(dp278
g12
VDT
p279
sbag0
(g1
g2
(lp280
Vlake
p281
atp282
Rp283
(dp284
g12
VNN
p285
sbatp286
Rp287
(dp288
g12
VNP
p289
sbag0
(g1
g2
(lp290
g0
(g1
g2
(lp291
Vbuilding
p292
atp293
Rp294
(dp295
g12
VVBG
p296
sbag0
(g1
g2
(lp297
g0
(g1
g2
(lp298
Va
p299
atp300
Rp301
(dp302
g12
VDT
p303
sbag0
(g1
g2
(lp304
Vsandcastle
p305
atp306
Rp307
(dp308
g12
VNN
p309
sbatp310
Rp311
(dp312
g12
VNP
p313
sbatp314
Rp315
(dp316
g12
VVP
p317
sbatp318
Rp319
(dp320
g12
VNP
p321
sbatp322
Rp323
(dp324
g12
VPP
p325
sbatp326
Rp327
(dp328
g12
VVP
p329
sbatp330
Rp331
(dp332
g12
VNP
p333
sbatp334
Rp335
(dp336
g12
VVP
p337
sbatp338
Rp339
(dp340
g12
VS
p341
sbag0
(g1
g2
(lp342
V,
p343
atp344
Rp345
(dp346
g12
V,
p347
sbag0
(g1
g2
(lp348
g0
(g1
g2
(lp349
Vshe
p350
atp351
Rp352
(dp353
g12
VPRP
p354
sbatp355
Rp356
(dp357
g12
VNP
p358
sbag0
(g1
g2
(lp359
g0
(g1
g2
(lp360
Vhas
p361
atp362
Rp363
(dp364
g12
VVBZ
p365
sbag0
(g1
g2
(lp366
g0
(g1
g2
(lp367
g0
(g1
g2
(lp368
Va
p369
atp370
Rp371
(dp372
g12
VDT
p373
sbag0
(g1
g2
(lp374
Vshovel
p375
atp376
Rp377
(dp378
g12
VNN
p379
sbatp380
Rp381
(dp382
g12
VNP
p383
sbag0
(g1
g2
(lp384
Vand
p385
atp386
Rp387
(dp388
g12
VCC
p389
sbag0
(g1
g2
(lp390
g0
(g1
g2
(lp391
Va
p392
atp393
Rp394
(dp395
g12
VDT
p396
sbag0
(g1
g2
(lp397
Vbucket
p398
atp399
Rp400
(dp401
g12
VNN
p402
sbatp403
Rp404
(dp405
g12
VNP
p406
sbatp407
Rp408
(dp409
g12
VNP
p410
sbatp411
Rp412
(dp413
g12
VVP
p414
sbag0
(g1
g2
(lp415
V.
p416
atp417
Rp418
(dp419
g12
V.
p420
sbatp421
Rp422
(dp423
g12
VS
p424
sbatp425
Rp426
(dp427
g12
S'id: 1'
p428
sbag0
(g1
g2
(lp429
g0
(g1
g2
(lp430
g0
(g1
g2
(lp431
g0
(g1
g2
(lp432
g0
(g1
g2
(lp433
Vthere
p434
atp435
Rp436
(dp437
g12
VEX
p438
sbatp439
Rp440
(dp441
g12
VNP
p442
sbag0
(g1
g2
(lp443
g0
(g1
g2
(lp444
V's
p445
atp446
Rp447
(dp448
g12
VVBZ
p449
sbag0
(g1
g2
(lp450
g0
(g1
g2
(lp451
g0
(g1
g2
(lp452
Va
p453
atp454
Rp455
(dp456
g12
VDT
p457
sbag0
(g1
g2
(lp458
Vboy
p459
atp460
Rp461
(dp462
g12
VNN
p463
sbatp464
Rp465
(dp466
g12
VNP
p467
sbag0
(g1
g2
(lp468
g0
(g1
g2
(lp469
Vdressed
p470
atp471
Rp472
(dp473
g12
VVBN
p474
sbag0
(g1
g2
(lp475
g0
(g1
g2
(lp476
Vin
p477
atp478
Rp479
(dp480
g12
VIN
p481
sbag0
(g1
g2
(lp482
g0
(g1
g2
(lp483
g0
(g1
g2
(lp484
Vshorts
p485
atp486
Rp487
(dp488
g12
VNNS
p489
sbatp490
Rp491
(dp492
g12
VNP
p493
sbag0
(g1
g2
(lp494
g0
(g1
g2
(lp495
Vflying
p496
atp497
Rp498
(dp499
g12
VVBG
p500
sbag0
(g1
g2
(lp501
g0
(g1
g2
(lp502
Va
p503
atp504
Rp505
(dp506
g12
VDT
p507
sbag0
(g1
g2
(lp508
Vkite
p509
atp510
Rp511
(dp512
g12
VNN
p513
sbatp514
Rp515
(dp516
g12
VNP
p517
sbatp518
Rp519
(dp520
g12
VVP
p521
sbatp522
Rp523
(dp524
g12
VNP
p525
sbatp526
Rp527
(dp528
g12
VPP
p529
sbatp530
Rp531
(dp532
g12
VVP
p533
sbatp534
Rp535
(dp536
g12
VNP
p537
sbatp538
Rp539
(dp540
g12
VVP
p541
sbatp542
Rp543
(dp544
g12
VS
p545
sbag0
(g1
g2
(lp546
V,
p547
atp548
Rp549
(dp550
g12
V,
p551
sbag0
(g1
g2
(lp552
g0
(g1
g2
(lp553
g0
(g1
g2
(lp554
Vhe
p555
atp556
Rp557
(dp558
g12
VPRP
p559
sbatp560
Rp561
(dp562
g12
VNP
p563
sbag0
(g1
g2
(lp564
g0
(g1
g2
(lp565
V's
p566
atp567
Rp568
(dp569
g12
VVBZ
p570
sbag0
(g1
g2
(lp571
g0
(g1
g2
(lp572
Vgot
p573
atp574
Rp575
(dp576
g12
VVBD
p577
sbag0
(g1
g2
(lp578
g0
(g1
g2
(lp579
Vhis
p580
atp581
Rp582
(dp583
g12
VPRP$
p584
sbatp585
Rp586
(dp587
g12
VNP
p588
sbag0
(g1
g2
(lp589
g0
(g1
g2
(lp590
g0
(g1
g2
(lp591
g0
(g1
g2
(lp592
g0
(g1
g2
(lp593
Vthe
p594
atp595
Rp596
(dp597
g12
VDT
p598
sbag0
(g1
g2
(lp599
Vball
p600
atp601
Rp602
(dp603
g12
VNN
p604
sbatp605
Rp606
(dp607
g12
VNP
p608
sbag0
(g1
g2
(lp609
g0
(g1
g2
(lp610
Vof
p611
atp612
Rp613
(dp614
g12
VIN
p615
sbag0
(g1
g2
(lp616
g0
(g1
g2
(lp617
g0
(g1
g2
(lp618
Vstring
p619
atp620
Rp621
(dp622
g12
VNN
p623
sbatp624
Rp625
(dp626
g12
VNP
p627
sbag0
(g1
g2
(lp628
g0
(g1
g2
(lp629
Vin
p630
atp631
Rp632
(dp633
g12
VIN
p634
sbag0
(g1
g2
(lp635
g0
(g1
g2
(lp636
Vhis
p637
atp638
Rp639
(dp640
g12
VPRP$
p641
sbag0
(g1
g2
(lp642
Vhand
p643
atp644
Rp645
(dp646
g12
VNN
p647
sbatp648
Rp649
(dp650
g12
VNP
p651
sbatp652
Rp653
(dp654
g12
VPP
p655
sbatp656
Rp657
(dp658
g12
VNP
p659
sbatp660
Rp661
(dp662
g12
VPP
p663
sbatp664
Rp665
(dp666
g12
VNP
p667
sbag0
(g1
g2
(lp668
g0
(g1
g2
(lp669
Vhooked
p670
atp671
Rp672
(dp673
g12
VVBD
p674
sbag0
(g1
g2
(lp675
g0
(g1
g2
(lp676
Vto
p677
atp678
Rp679
(dp680
g12
VTO
p681
sbag0
(g1
g2
(lp682
g0
(g1
g2
(lp683
g0
(g1
g2
(lp684
Vhis
p685
atp686
Rp687
(dp688
g12
VPRP$
p689
sbag0
(g1
g2
(lp690
Vkite
p691
atp692
Rp693
(dp694
g12
VNN
p695
sbatp696
Rp697
(dp698
g12
VNP
p699
sbag0
(g1
g2
(lp700
g0
(g1
g2
(lp701
g0
(g1
g2
(lp702
Vwhich
p703
atp704
Rp705
(dp706
g12
VWDT
p707
sbatp708
Rp709
(dp710
g12
VWHNP
p711
sbag0
(g1
g2
(lp712
g0
(g1
g2
(lp713
g0
(g1
g2
(lp714
Vhas
p715
atp716
Rp717
(dp718
g12
VVBZ
p719
sbag0
(g1
g2
(lp720
g0
(g1
g2
(lp721
g0
(g1
g2
(lp722
Va
p723
atp724
Rp725
(dp726
g12
VDT
p727
sbag0
(g1
g2
(lp728
Vfluffy
p729
atp730
Rp731
(dp732
g12
VJJ
p733
sbag0
(g1
g2
(lp734
Vtail
p735
atp736
Rp737
(dp738
g12
VNN
p739
sbatp740
Rp741
(dp742
g12
VNP
p743
sbag0
(g1
g2
(lp744
g0
(g1
g2
(lp745
Von
p746
atp747
Rp748
(dp749
g12
VIN
p750
sbag0
(g1
g2
(lp751
g0
(g1
g2
(lp752
Vit
p753
atp754
Rp755
(dp756
g12
VPRP
p757
sbatp758
Rp759
(dp760
g12
VNP
p761
sbatp762
Rp763
(dp764
g12
VPP
p765
sbatp766
Rp767
(dp768
g12
VNP
p769
sbatp770
Rp771
(dp772
g12
VVP
p773
sbatp774
Rp775
(dp776
g12
VS
p777
sbatp778
Rp779
(dp780
g12
VSBAR
p781
sbatp782
Rp783
(dp784
g12
VNP
p785
sbatp786
Rp787
(dp788
g12
VPP
p789
sbatp790
Rp791
(dp792
g12
VVP
p793
sbatp794
Rp795
(dp796
g12
VS
p797
sbatp798
Rp799
(dp800
g12
VSBAR
p801
sbatp802
Rp803
(dp804
g12
VVP
p805
sbatp806
Rp807
(dp808
g12
VVP
p809
sbatp810
Rp811
(dp812
g12
VS
p813
sbag0
(g1
g2
(lp814
Vand
p815
atp816
Rp817
(dp818
g12
VCC
p819
sbag0
(g1
g2
(lp820
g0
(g1
g2
(lp821
g0
(g1
g2
(lp822
Vthere
p823
atp824
Rp825
(dp826
g12
VEX
p827
sbatp828
Rp829
(dp830
g12
VNP
p831
sbag0
(g1
g2
(lp832
g0
(g1
g2
(lp833
V's
p834
atp835
Rp836
(dp837
g12
VVBZ
p838
sbag0
(g1
g2
(lp839
g0
(g1
g2
(lp840
g0
(g1
g2
(lp841
Va
p842
atp843
Rp844
(dp845
g12
VDT
p846
sbag0
(g1
g2
(lp847
Vdog
p848
atp849
Rp850
(dp851
g12
VNN
p852
sbatp853
Rp854
(dp855
g12
VNP
p856
sbag0
(g1
g2
(lp857
g0
(g1
g2
(lp858
Vrunning
p859
atp860
Rp861
(dp862
g12
VVBG
p863
sbag0
(g1
g2
(lp864
g0
(g1
g2
(lp865
Valong
p866
atp867
Rp868
(dp869
g12
VIN
p870
sbatp871
Rp872
(dp873
g12
VADVP
p874
sbag0
(g1
g2
(lp875
g0
(g1
g2
(lp876
Vbeside
p877
atp878
Rp879
(dp880
g12
VIN
p881
sbag0
(g1
g2
(lp882
g0
(g1
g2
(lp883
Vhim
p884
atp885
Rp886
(dp887
g12
VPRP
p888
sbatp889
Rp890
(dp891
g12
VNP
p892
sbatp893
Rp894
(dp895
g12
VPP
p896
sbatp897
Rp898
(dp899
g12
VVP
p900
sbatp901
Rp902
(dp903
g12
VNP
p904
sbatp905
Rp906
(dp907
g12
VVP
p908
sbatp909
Rp910
(dp911
g12
VS
p912
sbag0
(g1
g2
(lp913
V.
p914
atp915
Rp916
(dp917
g12
V.
p918
sbatp919
Rp920
(dp921
g12
VS
p922
sbatp923
Rp924
(dp925
g12
S'id: 2'
p926
sbag0
(g1
g2
(lp927
g0
(g1
g2
(lp928
g0
(g1
g2
(lp929
g0
(g1
g2
(lp930
Vthere
p931
atp932
Rp933
(dp934
g12
VEX
p935
sbatp936
Rp937
(dp938
g12
VNP
p939
sbag0
(g1
g2
(lp940
g0
(g1
g2
(lp941
V's
p942
atp943
Rp944
(dp945
g12
VVBZ
p946
sbag0
(g1
g2
(lp947
g0
(g1
g2
(lp948
g0
(g1
g2
(lp949
Va
p950
atp951
Rp952
(dp953
g12
VDT
p954
sbag0
(g1
g2
(lp955
Vman
p956
atp957
Rp958
(dp959
g12
VNN
p960
sbatp961
Rp962
(dp963
g12
VNP
p964
sbag0
(g1
g2
(lp965
g0
(g1
g2
(lp966
Von
p967
atp968
Rp969
(dp970
g12
VIN
p971
sbag0
(g1
g2
(lp972
g0
(g1
g2
(lp973
Va
p974
atp975
Rp976
(dp977
g12
VDT
p978
sbag0
(g1
g2
(lp979
Vpier
p980
atp981
Rp982
(dp983
g12
VNN
p984
sbag0
(g1
g2
(lp985
Vfishin
p986
atp987
Rp988
(dp989
g12
VNN
p990
sbag0
(g1
g2
(lp991
V'
p992
atp993
Rp994
(dp995
g12
V''
p996
sbatp997
Rp998
(dp999
g12
VNP
p1000
sbatp1001
Rp1002
(dp1003
g12
VPP
p1004
sbatp1005
Rp1006
(dp1007
g12
VNP
p1008
sbatp1009
Rp1010
(dp1011
g12
VVP
p1012
sbag0
(g1
g2
(lp1013
V.
p1014
atp1015
Rp1016
(dp1017
g12
V.
p1018
sbatp1019
Rp1020
(dp1021
g12
VS
p1022
sbatp1023
Rp1024
(dp1025
g12
S'id: 3'
p1026
sbag0
(g1
g2
(lp1027
g0
(g1
g2
(lp1028
g0
(g1
g2
(lp1029
g0
(g1
g2
(lp1030
VHe
p1031
atp1032
Rp1033
(dp1034
g12
VPRP
p1035
sbatp1036
Rp1037
(dp1038
g12
VNP
p1039
sbag0
(g1
g2
(lp1040
g0
(g1
g2
(lp1041
V's
p1042
atp1043
Rp1044
(dp1045
g12
VVBZ
p1046
sbag0
(g1
g2
(lp1047
g0
(g1
g2
(lp1048
Valready
p1049
atp1050
Rp1051
(dp1052
g12
VRB
p1053
sbatp1054
Rp1055
(dp1056
g12
VADVP
p1057
sbag0
(g1
g2
(lp1058
g0
(g1
g2
(lp1059
g0
(g1
g2
(lp1060
Vcaught
p1061
atp1062
Rp1063
(dp1064
g12
VVBN
p1065
sbag0
(g1
g2
(lp1066
g0
(g1
g2
(lp1067
g0
(g1
g2
(lp1068
Va
p1069
atp1070
Rp1071
(dp1072
g12
VDT
p1073
sbag0
(g1
g2
(lp1074
Vfish
p1075
atp1076
Rp1077
(dp1078
g12
VNN
p1079
sbatp1080
Rp1081
(dp1082
g12
VNP
p1083
sbag0
(g1
g2
(lp1084
g0
(g1
g2
(lp1085
Von
p1086
atp1087
Rp1088
(dp1089
g12
VIN
p1090
sbag0
(g1
g2
(lp1091
g0
(g1
g2
(lp1092
Vhis
p1093
atp1094
Rp1095
(dp1096
g12
VPRP$
p1097
sbag0
(g1
g2
(lp1098
Vline
p1099
atp1100
Rp1101
(dp1102
g12
VNN
p1103
sbatp1104
Rp1105
(dp1106
g12
VNP
p1107
sbatp1108
Rp1109
(dp1110
g12
VPP
p1111
sbatp1112
Rp1113
(dp1114
g12
VNP
p1115
sbatp1116
Rp1117
(dp1118
g12
VVP
p1119
sbag0
(g1
g2
(lp1120
Vand
p1121
atp1122
Rp1123
(dp1124
g12
VCC
p1125
sbag0
(g1
g2
(lp1126
g0
(g1
g2
(lp1127
Vbringing
p1128
atp1129
Rp1130
(dp1131
g12
VVBG
p1132
sbag0
(g1
g2
(lp1133
g0
(g1
g2
(lp1134
Vit
p1135
atp1136
Rp1137
(dp1138
g12
VPRP
p1139
sbatp1140
Rp1141
(dp1142
g12
VNP
p1143
sbag0
(g1
g2
(lp1144
g0
(g1
g2
(lp1145
Vin
p1146
atp1147
Rp1148
(dp1149
g12
VIN
p1150
sbatp1151
Rp1152
(dp1153
g12
VPP
p1154
sbatp1155
Rp1156
(dp1157
g12
VVP
p1158
sbatp1159
Rp1160
(dp1161
g12
VVP
p1162
sbatp1163
Rp1164
(dp1165
g12
VVP
p1166
sbag0
(g1
g2
(lp1167
V.
p1168
atp1169
Rp1170
(dp1171
g12
V.
p1172
sbatp1173
Rp1174
(dp1175
g12
VS
p1176
sbatp1177
Rp1178
(dp1179
g12
S'id: 4'
p1180
sbag0
(g1
g2
(lp1181
g0
(g1
g2
(lp1182
g0
(g1
g2
(lp1183
g0
(g1
g2
(lp1184
g0
(g1
g2
(lp1185
Vthere
p1186
atp1187
Rp1188
(dp1189
g12
VEX
p1190
sbatp1191
Rp1192
(dp1193
g12
VNP
p1194
sbag0
(g1
g2
(lp1195
g0
(g1
g2
(lp1196
V's
p1197
atp1198
Rp1199
(dp1200
g12
VVBZ
p1201
sbag0
(g1
g2
(lp1202
g0
(g1
g2
(lp1203
g0
(g1
g2
(lp1204
Va
p1205
atp1206
Rp1207
(dp1208
g12
VDT
p1209
sbag0
(g1
g2
(lp1210
Vhouse
p1211
atp1212
Rp1213
(dp1214
g12
VNN
p1215
sbatp1216
Rp1217
(dp1218
g12
VNP
p1219
sbag0
(g1
g2
(lp1220
g0
(g1
g2
(lp1221
Vwith
p1222
atp1223
Rp1224
(dp1225
g12
VIN
p1226
sbag0
(g1
g2
(lp1227
g0
(g1
g2
(lp1228
g0
(g1
g2
(lp1229
Va
p1230
atp1231
Rp1232
(dp1233
g12
VDT
p1234
sbag0
(g1
g2
(lp1235
Vcar
p1236
atp1237
Rp1238
(dp1239
g12
VNN
p1240
sbatp1241
Rp1242
(dp1243
g12
VNP
p1244
sbag0
(g1
g2
(lp1245
g0
(g1
g2
(lp1246
Vin
p1247
atp1248
Rp1249
(dp1250
g12
VIN
p1251
sbag0
(g1
g2
(lp1252
g0
(g1
g2
(lp1253
Vfront
p1254
atp1255
Rp1256
(dp1257
g12
VNN
p1258
sbatp1259
Rp1260
(dp1261
g12
VNP
p1262
sbatp1263
Rp1264
(dp1265
g12
VPP
p1266
sbatp1267
Rp1268
(dp1269
g12
VNP
p1270
sbatp1271
Rp1272
(dp1273
g12
VPP
p1274
sbatp1275
Rp1276
(dp1277
g12
VNP
p1278
sbatp1279
Rp1280
(dp1281
g12
VVP
p1282
sbatp1283
Rp1284
(dp1285
g12
VS
p1286
sbag0
(g1
g2
(lp1287
V,
p1288
atp1289
Rp1290
(dp1291
g12
V,
p1292
sbag0
(g1
g2
(lp1293
Vand
p1294
atp1295
Rp1296
(dp1297
g12
VCC
p1298
sbag0
(g1
g2
(lp1299
g0
(g1
g2
(lp1300
g0
(g1
g2
(lp1301
Va
p1302
atp1303
Rp1304
(dp1305
g12
VDT
p1306
sbag0
(g1
g2
(lp1307
Vbig
p1308
atp1309
Rp1310
(dp1311
g12
VJJ
p1312
sbag0
(g1
g2
(lp1313
Vtree
p1314
atp1315
Rp1316
(dp1317
g12
VNN
p1318
sbatp1319
Rp1320
(dp1321
g12
VNP
p1322
sbag0
(g1
g2
(lp1323
g0
(g1
g2
(lp1324
V,
p1325
atp1326
Rp1327
(dp1328
g12
V,
p1329
sbag0
(g1
g2
(lp1330
g0
(g1
g2
(lp1331
g0
(g1
g2
(lp1332
Vit
p1333
atp1334
Rp1335
(dp1336
g12
VPRP
p1337
sbatp1338
Rp1339
(dp1340
g12
VNP
p1341
sbag0
(g1
g2
(lp1342
g0
(g1
g2
(lp1343
Vhas
p1344
atp1345
Rp1346
(dp1347
g12
VVBZ
p1348
sbag0
(g1
g2
(lp1349
g0
(g1
g2
(lp1350
Vwindows
p1351
atp1352
Rp1353
(dp1354
g12
VNNS
p1355
sbag0
(g1
g2
(lp1356
Vand
p1357
atp1358
Rp1359
(dp1360
g12
VCC
p1361
sbag0
(g1
g2
(lp1362
Vshrubbery
p1363
atp1364
Rp1365
(dp1366
g12
VNN
p1367
sbatp1368
Rp1369
(dp1370
g12
VNP
p1371
sbatp1372
Rp1373
(dp1374
g12
VVP
p1375
sbatp1376
Rp1377
(dp1378
g12
VS
p1379
sbag0
(g1
g2
(lp1380
V,
p1381
atp1382
Rp1383
(dp1384
g12
V,
p1385
sbatp1386
Rp1387
(dp1388
g12
VPRN
p1389
sbag0
(g1
g2
(lp1390
g0
(g1
g2
(lp1391
Vthere
p1392
atp1393
Rp1394
(dp1395
g12
VEX
p1396
sbatp1397
Rp1398
(dp1399
g12
VNP
p1400
sbag0
(g1
g2
(lp1401
g0
(g1
g2
(lp1402
V's
p1403
atp1404
Rp1405
(dp1406
g12
VVBZ
p1407
sbag0
(g1
g2
(lp1408
g0
(g1
g2
(lp1409
g0
(g1
g2
(lp1410
Va
p1411
atp1412
Rp1413
(dp1414
g12
VDT
p1415
sbag0
(g1
g2
(lp1416
Vflagpole
p1417
atp1418
Rp1419
(dp1420
g12
VNN
p1421
sbatp1422
Rp1423
(dp1424
g12
VNP
p1425
sbag0
(g1
g2
(lp1426
g0
(g1
g2
(lp1427
Vwith
p1428
atp1429
Rp1430
(dp1431
g12
VIN
p1432
sbag0
(g1
g2
(lp1433
g0
(g1
g2
(lp1434
g0
(g1
g2
(lp1435
Va
p1436
atp1437
Rp1438
(dp1439
g12
VDT
p1440
sbag0
(g1
g2
(lp1441
Vflag
p1442
atp1443
Rp1444
(dp1445
g12
VNN
p1446
sbatp1447
Rp1448
(dp1449
g12
VNP
p1450
sbag0
(g1
g2
(lp1451
g0
(g1
g2
(lp1452
Von
p1453
atp1454
Rp1455
(dp1456
g12
VIN
p1457
sbag0
(g1
g2
(lp1458
g0
(g1
g2
(lp1459
Vit
p1460
atp1461
Rp1462
(dp1463
g12
VPRP
p1464
sbatp1465
Rp1466
(dp1467
g12
VNP
p1468
sbatp1469
Rp1470
(dp1471
g12
VPP
p1472
sbatp1473
Rp1474
(dp1475
g12
VNP
p1476
sbatp1477
Rp1478
(dp1479
g12
VPP
p1480
sbatp1481
Rp1482
(dp1483
g12
VNP
p1484
sbatp1485
Rp1486
(dp1487
g12
VVP
p1488
sbatp1489
Rp1490
(dp1491
g12
VS
p1492
sbag0
(g1
g2
(lp1493
V.
p1494
atp1495
Rp1496
(dp1497
g12
V.
p1498
sbatp1499
Rp1500
(dp1501
g12
VS
p1502
sbatp1503
Rp1504
(dp1505
g12
S'id: 5'
p1506
sbag0
(g1
g2
(lp1507
g0
(g1
g2
(lp1508
g0
(g1
g2
(lp1509
Vand
p1510
atp1511
Rp1512
(dp1513
g12
VCC
p1514
sbag0
(g1
g2
(lp1515
g0
(g1
g2
(lp1516
Vin
p1517
atp1518
Rp1519
(dp1520
g12
VIN
p1521
sbag0
(g1
g2
(lp1522
g0
(g1
g2
(lp1523
g0
(g1
g2
(lp1524
Vthe
p1525
atp1526
Rp1527
(dp1528
g12
VDT
p1529
sbag0
(g1
g2
(lp1530
Vforefront
p1531
atp1532
Rp1533
(dp1534
g12
VNN
p1535
sbatp1536
Rp1537
(dp1538
g12
VNP
p1539
sbag0
(g1
g2
(lp1540
g0
(g1
g2
(lp1541
Vof
p1542
atp1543
Rp1544
(dp1545
g12
VIN
p1546
sbag0
(g1
g2
(lp1547
g0
(g1
g2
(lp1548
Vthe
p1549
atp1550
Rp1551
(dp1552
g12
VDT
p1553
sbag0
(g1
g2
(lp1554
Vpicture
p1555
atp1556
Rp1557
(dp1558
g12
VNN
p1559
sbatp1560
Rp1561
(dp1562
g12
VNP
p1563
sbatp1564
Rp1565
(dp1566
g12
VPP
p1567
sbatp1568
Rp1569
(dp1570
g12
VNP
p1571
sbatp1572
Rp1573
(dp1574
g12
VPP
p1575
sbag0
(g1
g2
(lp1576
g0
(g1
g2
(lp1577
Vthere
p1578
atp1579
Rp1580
(dp1581
g12
VEX
p1582
sbatp1583
Rp1584
(dp1585
g12
VNP
p1586
sbag0
(g1
g2
(lp1587
g0
(g1
g2
(lp1588
V's
p1589
atp1590
Rp1591
(dp1592
g12
VVBZ
p1593
sbag0
(g1
g2
(lp1594
g0
(g1
g2
(lp1595
Va
p1596
atp1597
Rp1598
(dp1599
g12
VDT
p1600
sbag0
(g1
g2
(lp1601
g0
(g1
g2
(lp1602
Vman
p1603
atp1604
Rp1605
(dp1606
g12
VNN
p1607
sbatp1608
Rp1609
(dp1610
g12
VNP
p1611
sbag0
(g1
g2
(lp1612
Vand
p1613
atp1614
Rp1615
(dp1616
g12
VCC
p1617
sbag0
(g1
g2
(lp1618
g0
(g1
g2
(lp1619
g0
(g1
g2
(lp1620
Va
p1621
atp1622
Rp1623
(dp1624
g12
VDT
p1625
sbag0
(g1
g2
(lp1626
Vwoman
p1627
atp1628
Rp1629
(dp1630
g12
VNN
p1631
sbag0
(g1
g2
(lp1632
Vsittin
p1633
atp1634
Rp1635
(dp1636
g12
VNN
p1637
sbag0
(g1
g2
(lp1638
V'
p1639
atp1640
Rp1641
(dp1642
g12
V''
p1643
sbatp1644
Rp1645
(dp1646
g12
VNP
p1647
sbag0
(g1
g2
(lp1648
g0
(g1
g2
(lp1649
Von
p1650
atp1651
Rp1652
(dp1653
g12
VIN
p1654
sbag0
(g1
g2
(lp1655
g0
(g1
g2
(lp1656
Va
p1657
atp1658
Rp1659
(dp1660
g12
VDT
p1661
sbag0
(g1
g2
(lp1662
Vblanket
p1663
atp1664
Rp1665
(dp1666
g12
VNN
p1667
sbag0
(g1
g2
(lp1668
Vhavin
p1669
atp1670
Rp1671
(dp1672
g12
VNN
p1673
sbatp1674
Rp1675
(dp1676
g12
VNP
p1677
sbatp1678
Rp1679
(dp1680
g12
VPP
p1681
sbatp1682
Rp1683
(dp1684
g12
VNP
p1685
sbag0
(g1
g2
(lp1686
V'
p1687
atp1688
Rp1689
(dp1690
g12
V''
p1691
sbag0
(g1
g2
(lp1692
g0
(g1
g2
(lp1693
Va
p1694
atp1695
Rp1696
(dp1697
g12
VDT
p1698
sbag0
(g1
g2
(lp1699
Vpicnic
p1700
atp1701
Rp1702
(dp1703
g12
VNN
p1704
sbatp1705
Rp1706
(dp1707
g12
VNP
p1708
sbatp1709
Rp1710
(dp1711
g12
VNP
p1712
sbatp1713
Rp1714
(dp1715
g12
VVP
p1716
sbag0
(g1
g2
(lp1717
V.
p1718
atp1719
Rp1720
(dp1721
g12
V.
p1722
sbatp1723
Rp1724
(dp1725
g12
VS
p1726
sbatp1727
Rp1728
(dp1729
g12
S'id: 6'
p1730
sbag0
(g1
g2
(lp1731
g0
(g1
g2
(lp1732
g0
(g1
g2
(lp1733
g0
(g1
g2
(lp1734
Vthey
p1735
atp1736
Rp1737
(dp1738
g12
VPRP
p1739
sbatp1740
Rp1741
(dp1742
g12
VNP
p1743
sbag0
(g1
g2
(lp1744
g0
(g1
g2
(lp1745
Vhave
p1746
atp1747
Rp1748
(dp1749
g12
VVBP
p1750
sbag0
(g1
g2
(lp1751
g0
(g1
g2
(lp1752
Va
p1753
atp1754
Rp1755
(dp1756
g12
VDT
p1757
sbag0
(g1
g2
(lp1758
Vradio
p1759
atp1760
Rp1761
(dp1762
g12
VNN
p1763
sbatp1764
Rp1765
(dp1766
g12
VNP
p1767
sbag0
(g1
g2
(lp1768
V,
p1769
atp1770
Rp1771
(dp1772
g12
V,
p1773
sbag0
(g1
g2
(lp1774
g0
(g1
g2
(lp1775
g0
(g1
g2
(lp1776
Vlistening
p1777
atp1778
Rp1779
(dp1780
g12
VVBG
p1781
sbag0
(g1
g2
(lp1782
g0
(g1
g2
(lp1783
Vto
p1784
atp1785
Rp1786
(dp1787
g12
VTO
p1788
sbag0
(g1
g2
(lp1789
g0
(g1
g2
(lp1790
Vthe
p1791
atp1792
Rp1793
(dp1794
g12
VDT
p1795
sbag0
(g1
g2
(lp1796
Vmusic
p1797
atp1798
Rp1799
(dp1800
g12
VNN
p1801
sbatp1802
Rp1803
(dp1804
g12
VNP
p1805
sbatp1806
Rp1807
(dp1808
g12
VPP
p1809
sbatp1810
Rp1811
(dp1812
g12
VVP
p1813
sbatp1814
Rp1815
(dp1816
g12
VS
p1817
sbatp1818
Rp1819
(dp1820
g12
VVP
p1821
sbag0
(g1
g2
(lp1822
V.
p1823
atp1824
Rp1825
(dp1826
g12
V.
p1827
sbatp1828
Rp1829
(dp1830
g12
VS
p1831
sbatp1832
Rp1833
(dp1834
g12
S'id: 7'
p1835
sbag0
(g1
g2
(lp1836
g0
(g1
g2
(lp1837
g0
(g1
g2
(lp1838
g0
(g1
g2
(lp1839
Vshe
p1840
atp1841
Rp1842
(dp1843
g12
VPRP
p1844
sbatp1845
Rp1846
(dp1847
g12
VNP
p1848
sbag0
(g1
g2
(lp1849
g0
(g1
g2
(lp1850
g0
(g1
g2
(lp1851
Vwell
p1852
atp1853
Rp1854
(dp1855
g12
VRB
p1856
sbatp1857
Rp1858
(dp1859
g12
VADVP
p1860
sbag0
(g1
g2
(lp1861
g0
(g1
g2
(lp1862
g0
(g1
g2
(lp1863
Vhe
p1864
atp1865
Rp1866
(dp1867
g12
VPRP
p1868
sbatp1869
Rp1870
(dp1871
g12
VNP
p1872
sbag0
(g1
g2
(lp1873
g0
(g1
g2
(lp1874
Vdoes
p1875
atp1876
Rp1877
(dp1878
g12
VVBZ
p1879
sbag0
(g1
g2
(lp1880
Vn't
p1881
atp1882
Rp1883
(dp1884
g12
VRB
p1885
sbag0
(g1
g2
(lp1886
g0
(g1
g2
(lp1887
Vhave
p1888
atp1889
Rp1890
(dp1891
g12
VVB
p1892
sbag0
(g1
g2
(lp1893
g0
(g1
g2
(lp1894
Vhis
p1895
atp1896
Rp1897
(dp1898
g12
VPRP$
p1899
sbag0
(g1
g2
(lp1900
Vshoes
p1901
atp1902
Rp1903
(dp1904
g12
VNNS
p1905
sbatp1906
Rp1907
(dp1908
g12
VNP
p1909
sbag0
(g1
g2
(lp1910
g0
(g1
g2
(lp1911
Von
p1912
atp1913
Rp1914
(dp1915
g12
VIN
p1916
sbag0
(g1
g2
(lp1917
g0
(g1
g2
(lp1918
g0
(g1
g2
(lp1919
Vthey
p1920
atp1921
Rp1922
(dp1923
g12
VPRP
p1924
sbatp1925
Rp1926
(dp1927
g12
VNP
p1928
sbag0
(g1
g2
(lp1929
g0
(g1
g2
(lp1930
Vare
p1931
atp1932
Rp1933
(dp1934
g12
VVBP
p1935
sbag0
(g1
g2
(lp1936
g0
(g1
g2
(lp1937
Vsitting
p1938
atp1939
Rp1940
(dp1941
g12
VVBG
p1942
sbag0
(g1
g2
(lp1943
g0
(g1
g2
(lp1944
Von
p1945
atp1946
Rp1947
(dp1948
g12
VIN
p1949
sbag0
(g1
g2
(lp1950
g0
(g1
g2
(lp1951
Vthe
p1952
atp1953
Rp1954
(dp1955
g12
VDT
p1956
sbag0
(g1
g2
(lp1957
Vthey
p1958
atp1959
Rp1960
(dp1961
g12
VPRP
p1962
sbatp1963
Rp1964
(dp1965
g12
VNP
p1966
sbatp1967
Rp1968
(dp1969
g12
VPP
p1970
sbatp1971
Rp1972
(dp1973
g12
VVP
p1974
sbatp1975
Rp1976
(dp1977
g12
VVP
p1978
sbatp1979
Rp1980
(dp1981
g12
VS
p1982
sbatp1983
Rp1984
(dp1985
g12
VPP
p1986
sbatp1987
Rp1988
(dp1989
g12
VVP
p1990
sbatp1991
Rp1992
(dp1993
g12
VVP
p1994
sbatp1995
Rp1996
(dp1997
g12
VS
p1998
sbatp1999
Rp2000
(dp2001
g12
VSBAR
p2002
sbag0
(g1
g2
(lp2003
g0
(g1
g2
(lp2004
V're
p2005
atp2006
Rp2007
(dp2008
g12
VVBP
p2009
sbag0
(g1
g2
(lp2010
g0
(g1
g2
(lp2011
Vsitting
p2012
atp2013
Rp2014
(dp2015
g12
VVBG
p2016
sbag0
(g1
g2
(lp2017
g0
(g1
g2
(lp2018
Vbeside
p2019
atp2020
Rp2021
(dp2022
g12
VIN
p2023
sbag0
(g1
g2
(lp2024
g0
(g1
g2
(lp2025
Vhim
p2026
atp2027
Rp2028
(dp2029
g12
VPRP
p2030
sbatp2031
Rp2032
(dp2033
g12
VNP
p2034
sbatp2035
Rp2036
(dp2037
g12
VPP
p2038
sbag0
(g1
g2
(lp2039
g0
(g1
g2
(lp2040
Von
p2041
atp2042
Rp2043
(dp2044
g12
VIN
p2045
sbag0
(g1
g2
(lp2046
g0
(g1
g2
(lp2047
Vthe
p2048
atp2049
Rp2050
(dp2051
g12
VDT
p2052
sbag0
(g1
g2
(lp2053
Vblanket
p2054
atp2055
Rp2056
(dp2057
g12
VNN
p2058
sbatp2059
Rp2060
(dp2061
g12
VNP
p2062
sbatp2063
Rp2064
(dp2065
g12
VPP
p2066
sbatp2067
Rp2068
(dp2069
g12
VVP
p2070
sbatp2071
Rp2072
(dp2073
g12
VVP
p2074
sbag0
(g1
g2
(lp2075
V.
p2076
atp2077
Rp2078
(dp2079
g12
V.
p2080
sbatp2081
Rp2082
(dp2083
g12
VS
p2084
sbatp2085
Rp2086
(dp2087
g12
S'id: 8'
p2088
sbag0
(g1
g2
(lp2089
g0
(g1
g2
(lp2090
g0
(g1
g2
(lp2091
g0
(g1
g2
(lp2092
Vhe
p2093
atp2094
Rp2095
(dp2096
g12
VPRP
p2097
sbatp2098
Rp2099
(dp2100
g12
VNP
p2101
sbag0
(g1
g2
(lp2102
g0
(g1
g2
(lp2103
V's
p2104
atp2105
Rp2106
(dp2107
g12
VVBZ
p2108
sbag0
(g1
g2
(lp2109
g0
(g1
g2
(lp2110
Vgot
p2111
atp2112
Rp2113
(dp2114
g12
VVBD
p2115
sbag0
(g1
g2
(lp2116
g0
(g1
g2
(lp2117
g0
(g1
g2
(lp2118
g0
(g1
g2
(lp2119
Vhis
p2120
atp2121
Rp2122
(dp2123
g12
VPRP$
p2124
sbag0
(g1
g2
(lp2125
Vlegs
p2126
atp2127
Rp2128
(dp2129
g12
VNNS
p2130
sbatp2131
Rp2132
(dp2133
g12
VNP
p2134
sbag0
(g1
g2
(lp2135
g0
(g1
g2
(lp2136
Vcrossed
p2137
atp2138
Rp2139
(dp2140
g12
VVBD
p2141
sbag0
(g1
g2
(lp2142
g0
(g1
g2
(lp2143
g0
(g1
g2
(lp2144
Vreading
p2145
atp2146
Rp2147
(dp2148
g12
VVBG
p2149
sbag0
(g1
g2
(lp2150
g0
(g1
g2
(lp2151
Va
p2152
atp2153
Rp2154
(dp2155
g12
VDT
p2156
sbag0
(g1
g2
(lp2157
Vbook
p2158
atp2159
Rp2160
(dp2161
g12
VNN
p2162
sbatp2163
Rp2164
(dp2165
g12
VNP
p2166
sbatp2167
Rp2168
(dp2169
g12
VVP
p2170
sbatp2171
Rp2172
(dp2173
g12
VS
p2174
sbatp2175
Rp2176
(dp2177
g12
VVP
p2178
sbatp2179
Rp2180
(dp2181
g12
VS
p2182
sbatp2183
Rp2184
(dp2185
g12
VSBAR
p2186
sbatp2187
Rp2188
(dp2189
g12
VVP
p2190
sbatp2191
Rp2192
(dp2193
g12
VVP
p2194
sbag0
(g1
g2
(lp2195
V.
p2196
atp2197
Rp2198
(dp2199
g12
V.
p2200
sbatp2201
Rp2202
(dp2203
g12
VS
p2204
sbatp2205
Rp2206
(dp2207
g12
S'id: 9'
p2208
sbag0
(g1
g2
(lp2209
g0
(g1
g2
(lp2210
g0
(g1
g2
(lp2211
g0
(g1
g2
(lp2212
Vhas
p2213
atp2214
Rp2215
(dp2216
g12
VVBZ
p2217
sbag0
(g1
g2
(lp2218
g0
(g1
g2
(lp2219
g0
(g1
g2
(lp2220
Va
p2221
atp2222
Rp2223
(dp2224
g12
VDT
p2225
sbag0
(g1
g2
(lp2226
Vpair
p2227
atp2228
Rp2229
(dp2230
g12
VNN
p2231
sbatp2232
Rp2233
(dp2234
g12
VNP
p2235
sbag0
(g1
g2
(lp2236
g0
(g1
g2
(lp2237
Vof
p2238
atp2239
Rp2240
(dp2241
g12
VIN
p2242
sbag0
(g1
g2
(lp2243
g0
(g1
g2
(lp2244
Vglasses
p2245
atp2246
Rp2247
(dp2248
g12
VNNS
p2249
sbatp2250
Rp2251
(dp2252
g12
VNP
p2253
sbatp2254
Rp2255
(dp2256
g12
VPP
p2257
sbatp2258
Rp2259
(dp2260
g12
VNP
p2261
sbatp2262
Rp2263
(dp2264
g12
VVP
p2265
sbag0
(g1
g2
(lp2266
V.
p2267
atp2268
Rp2269
(dp2270
g12
V.
p2271
sbatp2272
Rp2273
(dp2274
g12
VS
p2275
sbatp2276
Rp2277
(dp2278
g12
S'id: 10'
p2279
sbag0
(g1
g2
(lp2280
g0
(g1
g2
(lp2281
g0
(g1
g2
(lp2282
g0
(g1
g2
(lp2283
g0
(g1
g2
(lp2284
Vlady
p2285
atp2286
Rp2287
(dp2288
g12
VNN
p2289
sbatp2290
Rp2291
(dp2292
g12
VNP
p2293
sbag0
(g1
g2
(lp2294
g0
(g1
g2
(lp2295
Vhas
p2296
atp2297
Rp2298
(dp2299
g12
VVBZ
p2300
sbag0
(g1
g2
(lp2301
g0
(g1
g2
(lp2302
g0
(g1
g2
(lp2303
Vher
p2304
atp2305
Rp2306
(dp2307
g12
VPRP$
p2308
sbag0
(g1
g2
(lp2309
Vhair
p2310
atp2311
Rp2312
(dp2313
g12
VNN
p2314
sbatp2315
Rp2316
(dp2317
g12
VNP
p2318
sbag0
(g1
g2
(lp2319
g0
(g1
g2
(lp2320
g0
(g1
g2
(lp2321
g0
(g1
g2
(lp2322
Vpulled
p2323
atp2324
Rp2325
(dp2326
g12
VVBD
p2327
sbag0
(g1
g2
(lp2328
g0
(g1
g2
(lp2329
Vback
p2330
atp2331
Rp2332
(dp2333
g12
VRB
p2334
sbatp2335
Rp2336
(dp2337
g12
VADVP
p2338
sbag0
(g1
g2
(lp2339
g0
(g1
g2
(lp2340
Vin
p2341
atp2342
Rp2343
(dp2344
g12
VIN
p2345
sbag0
(g1
g2
(lp2346
g0
(g1
g2
(lp2347
Va
p2348
atp2349
Rp2350
(dp2351
g12
VDT
p2352
sbag0
(g1
g2
(lp2353
Vponytail
p2354
atp2355
Rp2356
(dp2357
g12
VNN
p2358
sbatp2359
Rp2360
(dp2361
g12
VNP
p2362
sbatp2363
Rp2364
(dp2365
g12
VPP
p2366
sbatp2367
Rp2368
(dp2369
g12
VVP
p2370
sbatp2371
Rp2372
(dp2373
g12
VS
p2374
sbatp2375
Rp2376
(dp2377
g12
VSBAR
p2378
sbatp2379
Rp2380
(dp2381
g12
VNP
p2382
sbatp2383
Rp2384
(dp2385
g12
VVP
p2386
sbatp2387
Rp2388
(dp2389
g12
VS
p2390
sbag0
(g1
g2
(lp2391
Vand
p2392
atp2393
Rp2394
(dp2395
g12
VCC
p2396
sbag0
(g1
g2
(lp2397
g0
(g1
g2
(lp2398
g0
(g1
g2
(lp2399
Vshe
p2400
atp2401
Rp2402
(dp2403
g12
VPRP
p2404
sbatp2405
Rp2406
(dp2407
g12
VNP
p2408
sbag0
(g1
g2
(lp2409
g0
(g1
g2
(lp2410
V's
p2411
atp2412
Rp2413
(dp2414
g12
VVBZ
p2415
sbag0
(g1
g2
(lp2416
g0
(g1
g2
(lp2417
Vpourin
p2418
atp2419
Rp2420
(dp2421
g12
VNN
p2422
sbatp2423
Rp2424
(dp2425
g12
VNP
p2426
sbag0
(g1
g2
(lp2427
V'
p2428
atp2429
Rp2430
(dp2431
g12
V''
p2432
sbag0
(g1
g2
(lp2433
g0
(g1
g2
(lp2434
g0
(g1
g2
(lp2435
Va
p2436
atp2437
Rp2438
(dp2439
g12
VDT
p2440
sbag0
(g1
g2
(lp2441
Vdrink
p2442
atp2443
Rp2444
(dp2445
g12
VNN
p2446
sbatp2447
Rp2448
(dp2449
g12
VNP
p2450
sbag0
(g1
g2
(lp2451
Vin
p2452
atp2453
Rp2454
(dp2455
g12
VIN
p2456
sbag0
(g1
g2
(lp2457
g0
(g1
g2
(lp2458
g0
(g1
g2
(lp2459
Va
p2460
atp2461
Rp2462
(dp2463
g12
VDT
p2464
sbag0
(g1
g2
(lp2465
Vcup
p2466
atp2467
Rp2468
(dp2469
g12
VNN
p2470
sbatp2471
Rp2472
(dp2473
g12
VNP
p2474
sbag0
(g1
g2
(lp2475
g0
(g1
g2
(lp2476
Vover
p2477
atp2478
Rp2479
(dp2480
g12
VIN
p2481
sbag0
(g1
g2
(lp2482
g0
(g1
g2
(lp2483
Vthe
p2484
atp2485
Rp2486
(dp2487
g12
VDT
p2488
sbag0
(g1
g2
(lp2489
Vpicnic
p2490
atp2491
Rp2492
(dp2493
g12
VNN
p2494
sbag0
(g1
g2
(lp2495
Vbasket
p2496
atp2497
Rp2498
(dp2499
g12
VNN
p2500
sbatp2501
Rp2502
(dp2503
g12
VNP
p2504
sbatp2505
Rp2506
(dp2507
g12
VPP
p2508
sbatp2509
Rp2510
(dp2511
g12
VNP
p2512
sbatp2513
Rp2514
(dp2515
g12
VPP
p2516
sbatp2517
Rp2518
(dp2519
g12
VVP
p2520
sbatp2521
Rp2522
(dp2523
g12
VS
p2524
sbag0
(g1
g2
(lp2525
V.
p2526
atp2527
Rp2528
(dp2529
g12
V.
p2530
sbatp2531
Rp2532
(dp2533
g12
VS
p2534
sbatp2535
Rp2536
(dp2537
g12
S'id: 11'
p2538
sbag0
(g1
g2
(lp2539
g0
(g1
g2
(lp2540
g0
(g1
g2
(lp2541
g0
(g1
g2
(lp2542
Vokay
p2543
atp2544
Rp2545
(dp2546
g12
VJJ
p2547
sbatp2548
Rp2549
(dp2550
g12
VADJP
p2551
sbag0
(g1
g2
(lp2552
g0
(g1
g2
(lp2553
Vthat
p2554
atp2555
Rp2556
(dp2557
g12
VDT
p2558
sbatp2559
Rp2560
(dp2561
g12
VNP
p2562
sbag0
(g1
g2
(lp2563
g0
(g1
g2
(lp2564
V's
p2565
atp2566
Rp2567
(dp2568
g12
VVBZ
p2569
sbag0
(g1
g2
(lp2570
g0
(g1
g2
(lp2571
Vabout
p2572
atp2573
Rp2574
(dp2575
g12
VIN
p2576
sbag0
(g1
g2
(lp2577
g0
(g1
g2
(lp2578
g0
(g1
g2
(lp2579
Vthat
p2580
atp2581
Rp2582
(dp2583
g12
VDT
p2584
sbatp2585
Rp2586
(dp2587
g12
VNP
p2588
sbag0
(g1
g2
(lp2589
g0
(g1
g2
(lp2590
V's
p2591
atp2592
Rp2593
(dp2594
g12
VVBZ
p2595
sbag0
(g1
g2
(lp2596
g0
(g1
g2
(lp2597
Vabout
p2598
atp2599
Rp2600
(dp2601
g12
VIN
p2602
sbag0
(g1
g2
(lp2603
g0
(g1
g2
(lp2604
Vit
p2605
atp2606
Rp2607
(dp2608
g12
VPRP
p2609
sbatp2610
Rp2611
(dp2612
g12
VNP
p2613
sbatp2614
Rp2615
(dp2616
g12
VPP
p2617
sbatp2618
Rp2619
(dp2620
g12
VVP
p2621
sbatp2622
Rp2623
(dp2624
g12
VS
p2625
sbatp2626
Rp2627
(dp2628
g12
VSBAR
p2629
sbatp2630
Rp2631
(dp2632
g12
VVP
p2633
sbag0
(g1
g2
(lp2634
V.
p2635
atp2636
Rp2637
(dp2638
g12
V.
p2639
sbatp2640
Rp2641
(dp2642
g12
VS
p2643
sbatp2644
Rp2645
(dp2646
g12
S'id: 12'
p2647
sbatp2648
Rp2649
(dp2650
g12
S'sentences'
p2651
sb.