ccopy_reg
_reconstructor
p0
(cnltk.tree
Tree
p1
c__builtin__
list
p2
(lp3
g0
(g1
g2
(lp4
g0
(g1
g2
(lp5
g0
(g1
g2
(lp6
Vthe lake
p7
atp8
Rp9
(dp10
S'_label'
p11
S'start: 7'
p12
sbatp13
Rp14
(dp15
g11
S'sent: 3'
p16
sbag0
(g1
g2
(lp17
g0
(g1
g2
(lp18
Vthe lake
p19
atp20
Rp21
(dp22
g11
S'start: 6'
p23
sbatp24
Rp25
(dp26
g11
S'sent: 8'
p27
sbatp28
Rp29
(dp30
g11
S'id: 9'
p31
sbag0
(g1
g2
(lp32
g0
(g1
g2
(lp33
g0
(g1
g2
(lp34
Va little boy flying a kite
p35
atp36
Rp37
(dp38
g11
S'start: 3'
p39
sbatp40
Rp41
(dp42
g11
S'sent: 4'
p43
sbag0
(g1
g2
(lp44
g0
(g1
g2
(lp45
Vhis
p46
atp47
Rp48
(dp49
g11
S'start: 10'
p50
sbatp51
Rp52
(dp53
g11
S'sent: 4'
p54
sbag0
(g1
g2
(lp55
g0
(g1
g2
(lp56
Vhim
p57
atp58
Rp59
(dp60
g11
S'start: 14'
p61
sbatp62
Rp63
(dp64
g11
S'sent: 4'
p65
sbag0
(g1
g2
(lp66
g0
(g1
g2
(lp67
Vhe
p68
atp69
Rp70
(dp71
g11
S'start: 10'
p72
sbatp73
Rp74
(dp75
g11
S'sent: 6'
p76
sbag0
(g1
g2
(lp77
g0
(g1
g2
(lp78
Vthe boy
p79
atp80
Rp81
(dp82
g11
S'start: 11'
p83
sbatp84
Rp85
(dp86
g11
S'sent: 7'
p87
sbatp88
Rp89
(dp90
g11
S'id: 10'
p91
sbag0
(g1
g2
(lp92
g0
(g1
g2
(lp93
g0
(g1
g2
(lp94
Vhis dog
p95
atp96
Rp97
(dp98
g11
S'start: 10'
p99
sbatp100
Rp101
(dp102
g11
S'sent: 4'
p103
sbag0
(g1
g2
(lp104
g0
(g1
g2
(lp105
Vher
p106
atp107
Rp108
(dp109
g11
S'start: 21'
p110
sbatp111
Rp112
(dp113
g11
S'sent: 7'
p114
sbatp115
Rp116
(dp117
g11
S'id: 12'
p118
sbag0
(g1
g2
(lp119
g0
(g1
g2
(lp120
g0
(g1
g2
(lp121
Vthe
p122
atp123
Rp124
(dp125
g11
S'start: 4'
p126
sbatp127
Rp128
(dp129
g11
S'sent: 7'
p130
sbag0
(g1
g2
(lp131
g0
(g1
g2
(lp132
Vthe , mom and dad on the , picnic blanket
p133
atp134
Rp135
(dp136
g11
S'start: 3'
p137
sbatp138
Rp139
(dp140
g11
S'sent: 13'
p141
sbag0
(g1
g2
(lp142
g0
(g1
g2
(lp143
Vthe
p144
atp145
Rp146
(dp147
g11
S'start: 3'
p148
sbatp149
Rp150
(dp151
g11
S'sent: 13'
p152
sbag0
(g1
g2
(lp153
g0
(g1
g2
(lp154
Vmom and dad on the , picnic blanket
p155
atp156
Rp157
(dp158
g11
S'start: 5'
p159
sbatp160
Rp161
(dp162
g11
S'sent: 13'
p163
sbag0
(g1
g2
(lp164
g0
(g1
g2
(lp165
Vthe , picnic blanket
p166
atp167
Rp168
(dp169
g11
S'start: 9'
p170
sbatp171
Rp172
(dp173
g11
S'sent: 13'
p174
sbag0
(g1
g2
(lp175
g0
(g1
g2
(lp176
Vthe
p177
atp178
Rp179
(dp180
g11
S'start: 9'
p181
sbatp182
Rp183
(dp184
g11
S'sent: 13'
p185
sbag0
(g1
g2
(lp186
g0
(g1
g2
(lp187
Vthat
p188
atp189
Rp190
(dp191
g11
S'start: 1'
p192
sbatp193
Rp194
(dp195
g11
S'sent: 15'
p196
sbatp197
Rp198
(dp199
g11
S'id: 25'
p200
sbag0
(g1
g2
(lp201
g0
(g1
g2
(lp202
g0
(g1
g2
(lp203
Vmy , my right of the boy
p204
atp205
Rp206
(dp207
g11
S'start: 6'
p208
sbatp209
Rp210
(dp211
g11
S'sent: 7'
p212
sbag0
(g1
g2
(lp213
g0
(g1
g2
(lp214
Vmy
p215
atp216
Rp217
(dp218
g11
S'start: 6'
p219
sbatp220
Rp221
(dp222
g11
S'sent: 7'
p223
sbag0
(g1
g2
(lp224
g0
(g1
g2
(lp225
Vmy
p226
atp227
Rp228
(dp229
g11
S'start: 8'
p230
sbatp231
Rp232
(dp233
g11
S'sent: 7'
p234
sbag0
(g1
g2
(lp235
g0
(g1
g2
(lp236
Vher , toys
p237
atp238
Rp239
(dp240
g11
S'start: 21'
p241
sbatp242
Rp243
(dp244
g11
S'sent: 7'
p245
sbag0
(g1
g2
(lp246
g0
(g1
g2
(lp247
VI
p248
atp249
Rp250
(dp251
g11
S'start: 5'
p252
sbatp253
Rp254
(dp255
g11
S'sent: 15'
p256
sbatp257
Rp258
(dp259
g11
S'id: 26'
p260
sbag0
(g1
g2
(lp261
g0
(g1
g2
(lp262
g0
(g1
g2
(lp263
V's
p264
atp265
Rp266
(dp267
g11
S'start: 2'
p268
sbatp269
Rp270
(dp271
g11
S'sent: 9'
p272
sbag0
(g1
g2
(lp273
g0
(g1
g2
(lp274
V's
p275
atp276
Rp277
(dp278
g11
S'start: 17'
p279
sbatp280
Rp281
(dp282
g11
S'sent: 12'
p283
sbag0
(g1
g2
(lp284
g0
(g1
g2
(lp285
Vhe
p286
atp287
Rp288
(dp289
g11
S'start: 14'
p290
sbatp291
Rp292
(dp293
g11
S'sent: 13'
p294
sbag0
(g1
g2
(lp295
g0
(g1
g2
(lp296
Vhis
p297
atp298
Rp299
(dp300
g11
S'start: 17'
p301
sbatp302
Rp303
(dp304
g11
S'sent: 13'
p305
sbag0
(g1
g2
(lp306
g0
(g1
g2
(lp307
Vhis
p308
atp309
Rp310
(dp311
g11
S'start: 21'
p312
sbatp313
Rp314
(dp315
g11
S'sent: 13'
p316
sbag0
(g1
g2
(lp317
g0
(g1
g2
(lp318
V's
p319
atp320
Rp321
(dp322
g11
S'start: 2'
p323
sbatp324
Rp325
(dp326
g11
S'sent: 14'
p327
sbatp328
Rp329
(dp330
g11
S'id: 37'
p331
sbag0
(g1
g2
(lp332
g0
(g1
g2
(lp333
g0
(g1
g2
(lp334
Va house with a car on the driveway
p335
atp336
Rp337
(dp338
g11
S'start: 6'
p339
sbatp340
Rp341
(dp342
g11
S'sent: 10'
p343
sbag0
(g1
g2
(lp344
g0
(g1
g2
(lp345
Vthe house
p346
atp347
Rp348
(dp349
g11
S'start: 12'
p350
sbatp351
Rp352
(dp353
g11
S'sent: 11'
p354
sbatp355
Rp356
(dp357
g11
S'id: 39'
p358
sbatp359
Rp360
(dp361
g11
S'coreferences'
p362
sb.