ccopy_reg
_reconstructor
p0
(cnltk.tree
Tree
p1
c__builtin__
list
p2
(lp3
g0
(g1
g2
(lp4
tp5
Rp6
(dp7
S'_label'
p8
S'id: 0'
p9
sbag0
(g1
g2
(lp10
g0
(g1
g2
(lp11
g0
(g1
g2
(lp12
g0
(g1
g2
(lp13
g0
(g1
g2
(lp14
g0
(g1
g2
(lp15
g0
(g1
g2
(lp16
(lp17
S'word: a, index: 5'
p18
aatp19
Rp20
(dp21
g8
Vdet
p22
sbatp23
Rp24
(dp25
g8
S'word: family, index: 6'
p26
sbatp27
Rp28
(dp29
g8
Vconj
p30
sbag0
(g1
g2
(lp31
g0
(g1
g2
(lp32
g0
(g1
g2
(lp33
(lp34
S'word: their, index: 8'
p35
aatp36
Rp37
(dp38
g8
Vposs
p39
sbatp40
Rp41
(dp42
g8
S'word: kitchen, index: 9'
p43
sbatp44
Rp45
(dp46
g8
Vconj
p47
sbatp48
Rp49
(dp50
g8
S'word: a, index: 3'
p51
sbatp52
Rp53
(dp54
g8
Vdobj
p55
sbag0
(g1
g2
(lp56
g24
atp57
Rp58
(dp59
g8
Vdobj
p60
sbag0
(g1
g2
(lp61
g41
atp62
Rp63
(dp64
g8
Vdobj
p65
sbag0
(g1
g2
(lp66
(lp67
S'word: i, index: 1'
p68
aatp69
Rp70
(dp71
g8
Vdep
p72
sbatp73
Rp74
(dp75
g8
S'word: see, index: 2'
p76
sbatp77
Rp78
(dp79
g8
S'id: 1'
p80
sbag0
(g1
g2
(lp81
g0
(g1
g2
(lp82
g0
(g1
g2
(lp83
g0
(g1
g2
(lp84
g0
(g1
g2
(lp85
g0
(g1
g2
(lp86
g0
(g1
g2
(lp87
(lp88
S'word: her, index: 9'
p89
aatp90
Rp91
(dp92
g8
Vposs
p93
sbatp94
Rp95
(dp96
g8
S'word: sink, index: 10'
p97
sbatp98
Rp99
(dp100
g8
Vnsubj
p101
sbag0
(g1
g2
(lp102
(lp103
S'word: is, index: 11'
p104
aatp105
Rp106
(dp107
g8
Vaux
p108
sbatp109
Rp110
(dp111
g8
S'word: overflowing, index: 12'
p112
sbatp113
Rp114
(dp115
g8
Vparataxis
p116
sbag0
(g1
g2
(lp117
(lp118
S'word: she, index: 14'
p119
aatp120
Rp121
(dp122
g8
Vnsubj
p123
sbag0
(g1
g2
(lp124
g0
(g1
g2
(lp125
g0
(g1
g2
(lp126
(lp127
S'word: her, index: 7'
p128
aatp129
Rp130
(dp131
g8
Vprep
p132
sbag0
(g1
g2
(lp133
(lp134
S'word: mom, index: 1'
p135
aatp136
Rp137
(dp138
g8
Vnsubj
p139
sbag0
(g1
g2
(lp140
(lp141
S'word: is, index: 2'
p142
aatp143
Rp144
(dp145
g8
Vaux
p146
sbag0
(g1
g2
(lp147
g0
(g1
g2
(lp148
g0
(g1
g2
(lp149
(lp150
S'word: the, index: 4'
p151
aatp152
Rp153
(dp154
g8
Vdet
p155
sbatp156
Rp157
(dp158
g8
S'word: dishes, index: 5'
p159
sbatp160
Rp161
(dp162
g8
Vdobj
p163
sbatp164
Rp165
(dp166
g8
S'word: doing, index: 3'
p167
sbatp168
Rp169
(dp170
g8
Vccomp
p171
sbag0
(g1
g2
(lp172
g0
(g1
g2
(lp173
g0
(g1
g2
(lp174
g0
(g1
g2
(lp175
g0
(g1
g2
(lp176
(lp177
S'word: the, index: 17'
p178
aatp179
Rp180
(dp181
g8
Vdet
p182
sbatp183
Rp184
(dp185
g8
S'word: water, index: 18'
p186
sbatp187
Rp188
(dp189
g8
Vnsubj
p190
sbatp191
Rp192
(dp193
g8
S'word: run, index: 19'
p194
sbatp195
Rp196
(dp197
g8
Vccomp
p198
sbatp199
Rp200
(dp201
g8
S'word: let, index: 16'
p202
sbatp203
Rp204
(dp205
g8
S'id: 2'
p206
sbag0
(g1
g2
(lp207
g0
(g1
g2
(lp208
g0
(g1
g2
(lp209
g0
(g1
g2
(lp210
g0
(g1
g2
(lp211
(lp212
S'word: like, index: 25'
p213
aatp214
Rp215
(dp216
g8
Vmark
p217
sbag0
(g1
g2
(lp218
(lp219
S'word: he, index: 26'
p220
aatp221
Rp222
(dp223
g8
Vnsubj
p224
sbag0
(g1
g2
(lp225
(lp226
S'word: might, index: 27'
p227
aatp228
Rp229
(dp230
g8
Vaux
p231
sbag0
(g1
g2
(lp232
g0
(g1
g2
(lp233
g0
(g1
g2
(lp234
(lp235
S'word: a, index: 29'
p236
aatp237
Rp238
(dp239
g8
Vdet
p240
sbag0
(g1
g2
(lp241
(lp242
S'word: little, index: 30'
p243
aatp244
Rp245
(dp246
g8
Vamod
p247
sbatp248
Rp249
(dp250
g8
S'word: accident, index: 31'
p251
sbatp252
Rp253
(dp254
g8
Vdobj
p255
sbatp256
Rp257
(dp258
g8
S'word: have, index: 28'
p259
sbatp260
Rp261
(dp262
g8
Vadvcl
p263
sbag0
(g1
g2
(lp264
(lp265
S'word: he, index: 14'
p266
aatp267
Rp268
(dp269
g8
Vnsubj
p270
sbag0
(g1
g2
(lp271
(lp272
S"word: 's, index: 15"
p273
aatp274
Rp275
(dp276
g8
Vaux
p277
sbag0
(g1
g2
(lp278
g0
(g1
g2
(lp279
g0
(g1
g2
(lp280
(lp281
S'word: to, index: 17'
p282
aatp283
Rp284
(dp285
g8
Vaux
p286
sbag0
(g1
g2
(lp287
g0
(g1
g2
(lp288
g0
(g1
g2
(lp289
(lp290
S'word: the, index: 20'
p291
aatp292
Rp293
(dp294
g8
Vdet
p295
sbag0
(g1
g2
(lp296
(lp297
S'word: cookie, index: 21'
p298
aatp299
Rp300
(dp301
g8
Vnn
p302
sbatp303
Rp304
(dp305
g8
S'word: jar, index: 22'
p306
sbatp307
Rp308
(dp309
g8
Vprep
p310
sbatp311
Rp312
(dp313
g8
S'word: get, index: 18'
p314
sbatp315
Rp316
(dp317
g8
Vxcomp
p318
sbag0
(g1
g2
(lp319
g0
(g1
g2
(lp320
g0
(g1
g2
(lp321
g0
(g1
g2
(lp322
g0
(g1
g2
(lp323
g0
(g1
g2
(lp324
g0
(g1
g2
(lp325
(lp326
S'word: which, index: 10'
p327
aatp328
Rp329
(dp330
g8
Vnsubj
p331
sbag0
(g1
g2
(lp332
(lp333
S'word: is, index: 11'
p334
aatp335
Rp336
(dp337
g8
Vaux
p338
sbatp339
Rp340
(dp341
g8
S'word: tipping, index: 12'
p342
sbatp343
Rp344
(dp345
g8
Vrcmod
p346
sbag0
(g1
g2
(lp347
(lp348
S'word: a, index: 8'
p349
aatp350
Rp351
(dp352
g8
Vdet
p353
sbatp354
Rp355
(dp356
g8
S'word: stool, index: 9'
p357
sbatp358
Rp359
(dp360
g8
Vprep
p361
sbag0
(g1
g2
(lp362
g0
(g1
g2
(lp363
g0
(g1
g2
(lp364
(lp365
S'word: the, index: 1'
p366
aatp367
Rp368
(dp369
g8
Vdet
p370
sbag0
(g1
g2
(lp371
(lp372
S'word: little, index: 2'
p373
aatp374
Rp375
(dp376
g8
Vamod
p377
sbatp378
Rp379
(dp380
g8
S'word: boy, index: 3'
p381
sbatp382
Rp383
(dp384
g8
Vnsubj
p385
sbatp386
Rp387
(dp388
g8
S'word: is, index: 4'
p389
sbatp390
Rp391
(dp392
g8
Vccomp
p393
sbag0
(g1
g2
(lp394
(lp395
S'word: looks, index: 24'
p396
aatp397
Rp398
(dp399
g8
Vdep
p400
sbatp401
Rp402
(dp403
g8
S'word: trying, index: 16'
p404
sbatp405
Rp406
(dp407
g8
S'id: 3'
p408
sbag0
(g1
g2
(lp409
g0
(g1
g2
(lp410
g0
(g1
g2
(lp411
(lp412
S'word: and, index: 1'
p413
aatp414
Rp415
(dp416
g8
Vcc
p417
sbag0
(g1
g2
(lp418
(lp419
S'word: sister, index: 2'
p420
aatp421
Rp422
(dp423
g8
Vnsubj
p424
sbag0
(g1
g2
(lp425
(lp426
S'word: is, index: 3'
p427
aatp428
Rp429
(dp430
g8
Vaux
p431
sbag0
(g1
g2
(lp432
g0
(g1
g2
(lp433
g0
(g1
g2
(lp434
(lp435
S'word: to, index: 5'
p436
aatp437
Rp438
(dp439
g8
Vaux
p440
sbag0
(g1
g2
(lp441
g0
(g1
g2
(lp442
g0
(g1
g2
(lp443
(lp444
S'word: a, index: 7'
p445
aatp446
Rp447
(dp448
g8
Vdet
p449
sbatp450
Rp451
(dp452
g8
S'word: cookie, index: 8'
p453
sbatp454
Rp455
(dp456
g8
Vdobj
p457
sbatp458
Rp459
(dp460
g8
S'word: get, index: 6'
p461
sbatp462
Rp463
(dp464
g8
Vxcomp
p465
sbatp466
Rp467
(dp468
g8
S'word: waiting, index: 4'
p469
sbatp470
Rp471
(dp472
g8
S'id: 4'
p473
sbag0
(g1
g2
(lp474
g0
(g1
g2
(lp475
g0
(g1
g2
(lp476
(lp477
S'word: i, index: 2'
p478
aatp479
Rp480
(dp481
g8
Vprep
p482
sbag0
(g1
g2
(lp483
(lp484
S'word: can, index: 3'
p485
aatp486
Rp487
(dp488
g8
Vaux
p489
sbag0
(g1
g2
(lp490
g0
(g1
g2
(lp491
g0
(g1
g2
(lp492
(lp493
S'word: there, index: 19'
p494
aatp495
Rp496
(dp497
g8
Vexpl
p498
sbag0
(g1
g2
(lp499
g0
(g1
g2
(lp500
g0
(g1
g2
(lp501
(lp502
S'word: bushes, index: 23'
p503
aatp504
Rp505
(dp506
g8
Vconj
p507
sbatp508
Rp509
(dp510
g8
S'word: trees, index: 21'
p511
sbatp512
Rp513
(dp514
g8
Vnsubj
p515
sbag0
(g1
g2
(lp516
(lp517
S'word: bushes, index: 23'
p518
aatp519
Rp520
(dp521
g8
Vnsubj
p522
sbatp523
Rp524
(dp525
g8
S"word: 's, index: 20"
p526
sbatp527
Rp528
(dp529
g8
Vconj
p530
sbag0
(g1
g2
(lp531
g0
(g1
g2
(lp532
g0
(g1
g2
(lp533
(lp534
S'word: their, index: 5'
p535
aatp536
Rp537
(dp538
g8
Vposs
p539
sbag0
(g1
g2
(lp540
g0
(g1
g2
(lp541
g0
(g1
g2
(lp542
g0
(g1
g2
(lp543
g0
(g1
g2
(lp544
g0
(g1
g2
(lp545
g0
(g1
g2
(lp546
(lp547
S'word: their, index: 15'
p548
aatp549
Rp550
(dp551
g8
Vposs
p552
sbatp553
Rp554
(dp555
g8
S'word: house, index: 16'
p556
sbatp557
Rp558
(dp559
g8
Vprep
p560
sbag0
(g1
g2
(lp561
g0
(g1
g2
(lp562
g0
(g1
g2
(lp563
g554
atp564
Rp565
(dp566
g8
Vconj
p567
sbag0
(g1
g2
(lp568
(lp569
S'word: another, index: 12'
p570
aatp571
Rp572
(dp573
g8
Vdet
p574
sbatp575
Rp576
(dp577
g8
S'word: house, index: 13'
p578
sbatp579
Rp580
(dp581
g8
Vprep
p582
sbatp583
Rp584
(dp585
g8
S'word: part, index: 10'
p586
sbatp587
Rp588
(dp589
g8
Vpobj
p590
sbatp591
Rp592
(dp593
g8
S'word: either, index: 9'
p594
sbatp595
Rp596
(dp597
g8
Vconj
p598
sbatp599
Rp600
(dp601
g8
S'word: garden, index: 6'
p602
sbatp603
Rp604
(dp605
g8
Vdobj
p606
sbag0
(g1
g2
(lp607
g592
atp608
Rp609
(dp610
g8
Vdobj
p611
sbatp612
Rp613
(dp614
g8
S'word: see, index: 4'
p615
sbatp616
Rp617
(dp618
g8
S'id: 5'
p619
sbag0
(g1
g2
(lp620
g0
(g1
g2
(lp621
g0
(g1
g2
(lp622
(lp623
S'word: there, index: 2'
p624
aatp625
Rp626
(dp627
g8
Vexpl
p628
sbag0
(g1
g2
(lp629
g0
(g1
g2
(lp630
g0
(g1
g2
(lp631
(lp632
S'word: some, index: 5'
p633
aatp634
Rp635
(dp636
g8
Vdet
p637
sbag0
(g1
g2
(lp638
g0
(g1
g2
(lp639
g0
(g1
g2
(lp640
(lp641
S'word: the, index: 8'
p642
aatp643
Rp644
(dp645
g8
Vdet
p646
sbatp647
Rp648
(dp649
g8
S'word: counter, index: 9'
p650
sbatp651
Rp652
(dp653
g8
Vprep
p654
sbatp655
Rp656
(dp657
g8
S'word: dishes, index: 6'
p658
sbatp659
Rp660
(dp661
g8
Vdobj
p662
sbag0
(g1
g2
(lp663
(lp664
S'word: and, index: 1'
p665
aatp666
Rp667
(dp668
g8
Vcc
p669
sbatp670
Rp671
(dp672
g8
S'word: are, index: 3'
p673
sbatp674
Rp675
(dp676
g8
S'id: 6'
p677
sbag0
(g1
g2
(lp678
g0
(g1
g2
(lp679
g0
(g1
g2
(lp680
g0
(g1
g2
(lp681
g0
(g1
g2
(lp682
g0
(g1
g2
(lp683
g0
(g1
g2
(lp684
g0
(g1
g2
(lp685
g0
(g1
g2
(lp686
(lp687
S'word: curtains, index: 9'
p688
aatp689
Rp690
(dp691
g8
Vconj
p692
sbag0
(g1
g2
(lp693
(lp694
S'word: and, index: 10'
p695
aatp696
Rp697
(dp698
g8
Vadvmod
p699
sbatp700
Rp701
(dp702
g8
S'word: cabinets, index: 7'
p703
sbatp704
Rp705
(dp706
g8
Vnsubj
p707
sbag0
(g1
g2
(lp708
(lp709
S'word: curtains, index: 9'
p710
aatp711
Rp712
(dp713
g8
Vnsubj
p714
sbag0
(g1
g2
(lp715
(lp716
S'word: there, index: 4'
p717
aatp718
Rp719
(dp720
g8
Vexpl
p721
sbatp722
Rp723
(dp724
g8
S"word: 's, index: 5"
p725
sbatp726
Rp727
(dp728
g8
Vccomp
p729
sbag0
(g1
g2
(lp730
(lp731
S"word: 's, index: 2"
p732
aatp733
Rp734
(dp735
g8
Vnsubj
p736
sbatp737
Rp738
(dp739
g8
S'word: see, index: 3'
p740
sbatp741
Rp742
(dp743
g8
Vccomp
p744
sbatp745
Rp746
(dp747
g8
S'word: let, index: 1'
p748
sbatp749
Rp750
(dp751
g8
S'id: 7'
p752
sbag0
(g1
g2
(lp753
g0
(g1
g2
(lp754
g0
(g1
g2
(lp755
g0
(g1
g2
(lp756
g0
(g1
g2
(lp757
g0
(g1
g2
(lp758
g0
(g1
g2
(lp759
(lp760
S'word: the, index: 9'
p761
aatp762
Rp763
(dp764
g8
Vdet
p765
sbatp766
Rp767
(dp768
g8
S'word: stool, index: 10'
p769
sbatp770
Rp771
(dp772
g8
Vprep
p773
sbag0
(g1
g2
(lp774
(lp775
S'word: that, index: 2'
p776
aatp777
Rp778
(dp779
g8
Vdobj
p780
sbag0
(g1
g2
(lp781
g0
(g1
g2
(lp782
g0
(g1
g2
(lp783
(lp784
S'word: little, index: 3'
p785
aatp786
Rp787
(dp788
g8
Vamod
p789
sbatp790
Rp791
(dp792
g8
S'word: kid, index: 4'
p793
sbatp794
Rp795
(dp796
g8
Vnsubj
p797
sbag0
(g1
g2
(lp798
(lp799
S'word: would, index: 5'
p800
aatp801
Rp802
(dp803
g8
Vaux
p804
sbag0
(g1
g2
(lp805
(lp806
S'word: down, index: 7'
p807
aatp808
Rp809
(dp810
g8
Vadvmod
p811
sbatp812
Rp813
(dp814
g8
S'word: get, index: 6'
p815
sbatp816
Rp817
(dp818
g8
Vccomp
p819
sbatp820
Rp821
(dp822
g8
S'word: wish, index: 1'
p823
sbatp824
Rp825
(dp826
g8
S'id: 8'
p827
sbag0
(g1
g2
(lp828
g0
(g1
g2
(lp829
g0
(g1
g2
(lp830
g0
(g1
g2
(lp831
g0
(g1
g2
(lp832
(lp833
S"word: 's, index: 3"
p834
aatp835
Rp836
(dp837
g8
Vnsubj
p838
sbatp839
Rp840
(dp841
g8
S'word: wearing, index: 11'
p842
sbatp843
Rp844
(dp845
g8
Vrcmod
p846
sbag0
(g1
g2
(lp847
(lp848
S'word: and, index: 1'
p849
aatp850
Rp851
(dp852
g8
Vcc
p853
sbag0
(g1
g2
(lp854
g0
(g1
g2
(lp855
g0
(g1
g2
(lp856
g840
atp857
Rp858
(dp859
g8
Vconj
p860
sbag0
(g1
g2
(lp861
g0
(g1
g2
(lp862
g0
(g1
g2
(lp863
g0
(g1
g2
(lp864
g0
(g1
g2
(lp865
g0
(g1
g2
(lp866
g0
(g1
g2
(lp867
(lp868
S'word: the, index: 15'
p869
aatp870
Rp871
(dp872
g8
Vdet
p873
sbatp874
Rp875
(dp876
g8
S'word: children, index: 16'
p877
sbatp878
Rp879
(dp880
g8
Vconj
p881
sbatp882
Rp883
(dp884
g8
S'word: shoes, index: 13'
p885
sbatp886
Rp887
(dp888
g8
Vnsubj
p889
sbag0
(g1
g2
(lp890
g875
atp891
Rp892
(dp893
g8
Vnsubj
p894
sbag0
(g1
g2
(lp895
(lp896
S'word: shoes, index: 18'
p897
aatp898
Rp899
(dp900
g8
Vdobj
p901
sbatp902
Rp903
(dp904
g8
S'word: have, index: 17'
p905
sbatp906
Rp907
(dp908
g8
Vccomp
p909
sbag0
(g1
g2
(lp910
(lp911
S"word: 's, index: 3"
p912
aatp913
Rp914
(dp915
g8
Vnsubj
p916
sbag0
(g1
g2
(lp917
g0
(g1
g2
(lp918
g0
(g1
g2
(lp919
(lp920
S'word: an, index: 5'
p921
aatp922
Rp923
(dp924
g8
Vdet
p925
sbag0
(g1
g2
(lp926
g0
(g1
g2
(lp927
g0
(g1
g2
(lp928
(lp929
S'word: her, index: 8'
p930
aatp931
Rp932
(dp933
g8
Vposs
p934
sbatp935
Rp936
(dp937
g8
S'word: dress, index: 9'
p938
sbatp939
Rp940
(dp941
g8
Vprep
p942
sbatp943
Rp944
(dp945
g8
S'word: apron, index: 6'
p946
sbatp947
Rp948
(dp949
g8
Vdobj
p950
sbag0
(g1
g2
(lp951
g0
(g1
g2
(lp952
g0
(g1
g2
(lp953
g0
(g1
g2
(lp954
g0
(g1
g2
(lp955
(lp956
S'word: a, index: 27'
p957
aatp958
Rp959
(dp960
g8
Vdet
p961
sbatp962
Rp963
(dp964
g8
S'word: skirt, index: 28'
p965
sbatp966
Rp967
(dp968
g8
Vdobj
p969
sbag0
(g1
g2
(lp970
g0
(g1
g2
(lp971
g0
(g1
g2
(lp972
g0
(g1
g2
(lp973
g0
(g1
g2
(lp974
(lp975
S'word: little, index: 23'
p976
aatp977
Rp978
(dp979
g8
Vamod
p980
sbatp981
Rp982
(dp983
g8
S'word: girl, index: 24'
p984
sbatp985
Rp986
(dp987
g8
Vconj
p988
sbatp989
Rp990
(dp991
g8
S'word: socks, index: 21'
p992
sbatp993
Rp994
(dp995
g8
Vnsubj
p996
sbag0
(g1
g2
(lp997
g982
atp998
Rp999
(dp1000
g8
Vnsubj
p1001
sbatp1002
Rp1003
(dp1004
g8
S'word: wearing, index: 26'
p1005
sbatp1006
Rp1007
(dp1008
g8
Vconj
p1009
sbatp1010
Rp1011
(dp1012
g8
S'word: wearing, index: 4'
p1013
sbatp1014
Rp1015
(dp1016
g8
Vrcmod
p1017
sbag0
(g1
g2
(lp1018
g1003
atp1019
Rp1020
(dp1021
g8
Vrcmod
p1022
sbatp1023
Rp1024
(dp1025
g8
S'word: mama, index: 2'
p1026
sbatp1027
Rp1028
(dp1029
g8
S'id: 9'
p1030
sbatp1031
Rp1032
(dp1033
g8
S'sentences'
p1034
sb.