ccopy_reg
_reconstructor
p0
(cnltk.tree
Tree
p1
c__builtin__
list
p2
(lp3
g0
(g1
g2
(lp4
g0
(g1
g2
(lp5
g0
(g1
g2
(lp6
g0
(g1
g2
(lp7
g0
(g1
g2
(lp8
Vwe
p9
atp10
Rp11
(dp12
S'_label'
p13
VPRP
p14
sbatp15
Rp16
(dp17
g13
VNP
p18
sbag0
(g1
g2
(lp19
g0
(g1
g2
(lp20
Vhave
p21
atp22
Rp23
(dp24
g13
VVBP
p25
sbag0
(g1
g2
(lp26
g0
(g1
g2
(lp27
g0
(g1
g2
(lp28
Va
p29
atp30
Rp31
(dp32
g13
VDT
p33
sbag0
(g1
g2
(lp34
Vfamily
p35
atp36
Rp37
(dp38
g13
VNN
p39
sbatp40
Rp41
(dp42
g13
VNP
p43
sbag0
(g1
g2
(lp44
g0
(g1
g2
(lp45
Von
p46
atp47
Rp48
(dp49
g13
VIN
p50
sbag0
(g1
g2
(lp51
g0
(g1
g2
(lp52
Va
p53
atp54
Rp55
(dp56
g13
VDT
p57
sbag0
(g1
g2
(lp58
Vpicnic
p59
atp60
Rp61
(dp62
g13
VNN
p63
sbatp64
Rp65
(dp66
g13
VNP
p67
sbatp68
Rp69
(dp70
g13
VPP
p71
sbatp72
Rp73
(dp74
g13
VNP
p75
sbatp76
Rp77
(dp78
g13
VVP
p79
sbatp80
Rp81
(dp82
g13
VS
p83
sbag0
(g1
g2
(lp84
V,
p85
atp86
Rp87
(dp88
g13
V,
p89
sbag0
(g1
g2
(lp90
Vand
p91
atp92
Rp93
(dp94
g13
VCC
p95
sbag0
(g1
g2
(lp96
g0
(g1
g2
(lp97
g0
(g1
g2
(lp98
Vit
p99
atp100
Rp101
(dp102
g13
VPRP
p103
sbatp104
Rp105
(dp106
g13
VNP
p107
sbag0
(g1
g2
(lp108
g0
(g1
g2
(lp109
Vlooks
p110
atp111
Rp112
(dp113
g13
VVBZ
p114
sbag0
(g1
g2
(lp115
g0
(g1
g2
(lp116
Vlike
p117
atp118
Rp119
(dp120
g13
VIN
p121
sbag0
(g1
g2
(lp122
g0
(g1
g2
(lp123
g0
(g1
g2
(lp124
g0
(g1
g2
(lp125
Vthey
p126
atp127
Rp128
(dp129
g13
VPRP
p130
sbatp131
Rp132
(dp133
g13
VNP
p134
sbag0
(g1
g2
(lp135
g0
(g1
g2
(lp136
V're
p137
atp138
Rp139
(dp140
g13
VVBP
p141
sbag0
(g1
g2
(lp142
g0
(g1
g2
(lp143
Vat
p144
atp145
Rp146
(dp147
g13
VIN
p148
sbag0
(g1
g2
(lp149
g0
(g1
g2
(lp150
Va
p151
atp152
Rp153
(dp154
g13
VDT
p155
sbag0
(g1
g2
(lp156
Vlake
p157
atp158
Rp159
(dp160
g13
VNN
p161
sbatp162
Rp163
(dp164
g13
VNP
p165
sbatp166
Rp167
(dp168
g13
VPP
p169
sbatp170
Rp171
(dp172
g13
VVP
p173
sbatp174
Rp175
(dp176
g13
VS
p177
sbag0
(g1
g2
(lp178
Vand
p179
atp180
Rp181
(dp182
g13
VCC
p183
sbag0
(g1
g2
(lp184
g0
(g1
g2
(lp185
g0
(g1
g2
(lp186
Vmaybe
p187
atp188
Rp189
(dp190
g13
VRB
p191
sbag0
(g1
g2
(lp192
g0
(g1
g2
(lp193
Vthey
p194
atp195
Rp196
(dp197
g13
VPRP
p198
sbatp199
Rp200
(dp201
g13
VNP
p202
sbatp203
Rp204
(dp205
g13
VFRAG
p206
sbag0
(g1
g2
(lp207
g0
(g1
g2
(lp208
Vit
p209
atp210
Rp211
(dp212
g13
VPRP
p213
sbatp214
Rp215
(dp216
g13
VNP
p217
sbag0
(g1
g2
(lp218
g0
(g1
g2
(lp219
V's
p220
atp221
Rp222
(dp223
g13
VVBZ
p224
sbag0
(g1
g2
(lp225
g0
(g1
g2
(lp226
Va
p227
atp228
Rp229
(dp230
g13
VDT
p231
sbag0
(g1
g2
(lp232
Vcottage
p233
atp234
Rp235
(dp236
g13
VNN
p237
sbatp238
Rp239
(dp240
g13
VNP
p241
sbag0
(g1
g2
(lp242
g0
(g1
g2
(lp243
Vthat
p244
atp245
Rp246
(dp247
g13
VIN
p248
sbag0
(g1
g2
(lp249
g0
(g1
g2
(lp250
g0
(g1
g2
(lp251
Vthey
p252
atp253
Rp254
(dp255
g13
VPRP
p256
sbatp257
Rp258
(dp259
g13
VNP
p260
sbag0
(g1
g2
(lp261
g0
(g1
g2
(lp262
Vown
p263
atp264
Rp265
(dp266
g13
VVBP
p267
sbag0
(g1
g2
(lp268
g0
(g1
g2
(lp269
V,
p270
atp271
Rp272
(dp273
g13
V,
p274
sbag0
(g1
g2
(lp275
g0
(g1
g2
(lp276
g0
(g1
g2
(lp277
VI
p278
atp279
Rp280
(dp281
g13
VPRP
p282
sbatp283
Rp284
(dp285
g13
VNP
p286
sbag0
(g1
g2
(lp287
g0
(g1
g2
(lp288
Vdo
p289
atp290
Rp291
(dp292
g13
VVBP
p293
sbag0
(g1
g2
(lp294
Vn't
p295
atp296
Rp297
(dp298
g13
VRB
p299
sbag0
(g1
g2
(lp300
g0
(g1
g2
(lp301
Vknow
p302
atp303
Rp304
(dp305
g13
VVB
p306
sbatp307
Rp308
(dp309
g13
VVP
p310
sbatp311
Rp312
(dp313
g13
VVP
p314
sbatp315
Rp316
(dp317
g13
VS
p318
sbag0
(g1
g2
(lp319
V,
p320
atp321
Rp322
(dp323
g13
V,
p324
sbatp325
Rp326
(dp327
g13
VPRN
p328
sbag0
(g1
g2
(lp329
g0
(g1
g2
(lp330
Vacross
p331
atp332
Rp333
(dp334
g13
VIN
p335
sbag0
(g1
g2
(lp336
g0
(g1
g2
(lp337
Vthe
p338
atp339
Rp340
(dp341
g13
VDT
p342
sbag0
(g1
g2
(lp343
Vlittle
p344
atp345
Rp346
(dp347
g13
VJJ
p348
sbag0
(g1
g2
(lp349
Vdriveway
p350
atp351
Rp352
(dp353
g13
VNN
p354
sbatp355
Rp356
(dp357
g13
VNP
p358
sbatp359
Rp360
(dp361
g13
VPP
p362
sbag0
(g1
g2
(lp363
g0
(g1
g2
(lp364
Vfrom
p365
atp366
Rp367
(dp368
g13
VIN
p369
sbag0
(g1
g2
(lp370
g0
(g1
g2
(lp371
Va
p372
atp373
Rp374
(dp375
g13
VDT
p376
sbag0
(g1
g2
(lp377
Vlake
p378
atp379
Rp380
(dp381
g13
VNN
p382
sbatp383
Rp384
(dp385
g13
VNP
p386
sbatp387
Rp388
(dp389
g13
VPP
p390
sbatp391
Rp392
(dp393
g13
VVP
p394
sbatp395
Rp396
(dp397
g13
VS
p398
sbatp399
Rp400
(dp401
g13
VSBAR
p402
sbatp403
Rp404
(dp405
g13
VVP
p406
sbatp407
Rp408
(dp409
g13
VS
p410
sbatp411
Rp412
(dp413
g13
VS
p414
sbatp415
Rp416
(dp417
g13
VSBAR
p418
sbatp419
Rp420
(dp421
g13
VVP
p422
sbatp423
Rp424
(dp425
g13
VS
p426
sbag0
(g1
g2
(lp427
V.
p428
atp429
Rp430
(dp431
g13
V.
p432
sbatp433
Rp434
(dp435
g13
VS
p436
sbatp437
Rp438
(dp439
g13
S'id: 0'
p440
sbag0
(g1
g2
(lp441
g0
(g1
g2
(lp442
g0
(g1
g2
(lp443
Vand
p444
atp445
Rp446
(dp447
g13
VCC
p448
sbag0
(g1
g2
(lp449
g0
(g1
g2
(lp450
Von
p451
atp452
Rp453
(dp454
g13
VIN
p455
sbag0
(g1
g2
(lp456
g0
(g1
g2
(lp457
Vthe
p458
atp459
Rp460
(dp461
g13
VDT
p462
sbag0
(g1
g2
(lp463
Vlake
p464
atp465
Rp466
(dp467
g13
VNN
p468
sbatp469
Rp470
(dp471
g13
VNP
p472
sbatp473
Rp474
(dp475
g13
VPP
p476
sbag0
(g1
g2
(lp477
V,
p478
atp479
Rp480
(dp481
g13
V,
p482
sbag0
(g1
g2
(lp483
g0
(g1
g2
(lp484
Vthe
p485
atp486
Rp487
(dp488
g13
VDT
p489
sbag0
(g1
g2
(lp490
Vfamily
p491
atp492
Rp493
(dp494
g13
VNN
p495
sbatp496
Rp497
(dp498
g13
VNP
p499
sbag0
(g1
g2
(lp500
g0
(g1
g2
(lp501
Vis
p502
atp503
Rp504
(dp505
g13
VVBZ
p506
sbag0
(g1
g2
(lp507
g0
(g1
g2
(lp508
Vsitting
p509
atp510
Rp511
(dp512
g13
VVBG
p513
sbag0
(g1
g2
(lp514
g0
(g1
g2
(lp515
Von
p516
atp517
Rp518
(dp519
g13
VIN
p520
sbag0
(g1
g2
(lp521
Va
p522
atp523
Rp524
(dp525
g13
VDT
p526
sbatp527
Rp528
(dp529
g13
VADVP
p530
sbag0
(g1
g2
(lp531
V,
p532
atp533
Rp534
(dp535
g13
V,
p536
sbag0
(g1
g2
(lp537
g0
(g1
g2
(lp538
g0
(g1
g2
(lp539
Vlet
p540
atp541
Rp542
(dp543
g13
VVB
p544
sbag0
(g1
g2
(lp545
g0
(g1
g2
(lp546
g0
(g1
g2
(lp547
V's
p548
atp549
Rp550
(dp551
g13
VPOS
p552
sbatp553
Rp554
(dp555
g13
VNP
p556
sbag0
(g1
g2
(lp557
g0
(g1
g2
(lp558
Vsay
p559
atp560
Rp561
(dp562
g13
VVB
p563
sbag0
(g1
g2
(lp564
g0
(g1
g2
(lp565
g0
(g1
g2
(lp566
g0
(g1
g2
(lp567
g0
(g1
g2
(lp568
Va
p569
atp570
Rp571
(dp572
g13
VDT
p573
sbag0
(g1
g2
(lp574
Vlong
p575
atp576
Rp577
(dp578
g13
VJJ
p579
sbag0
(g1
g2
(lp580
Vrug
p581
atp582
Rp583
(dp584
g13
VNN
p585
sbatp586
Rp587
(dp588
g13
VNP
p589
sbag0
(g1
g2
(lp590
Vor
p591
atp592
Rp593
(dp594
g13
VCC
p595
sbag0
(g1
g2
(lp596
g0
(g1
g2
(lp597
Va
p598
atp599
Rp600
(dp601
g13
VDT
p602
sbag0
(g1
g2
(lp603
Vbig
p604
atp605
Rp606
(dp607
g13
VJJ
p608
sbag0
(g1
g2
(lp609
Vbeach
p610
atp611
Rp612
(dp613
g13
VNN
p614
sbag0
(g1
g2
(lp615
Vtowel
p616
atp617
Rp618
(dp619
g13
VNN
p620
sbag0
(g1
g2
(lp621
Vand
p622
atp623
Rp624
(dp625
g13
VCC
p626
sbag0
(g1
g2
(lp627
Vmom
p628
atp629
Rp630
(dp631
g13
VNN
p632
sbatp633
Rp634
(dp635
g13
VNP
p636
sbatp637
Rp638
(dp639
g13
VNP
p640
sbag0
(g1
g2
(lp641
g0
(g1
g2
(lp642
Vis
p643
atp644
Rp645
(dp646
g13
VVBZ
p647
sbag0
(g1
g2
(lp648
g0
(g1
g2
(lp649
Vpouring
p650
atp651
Rp652
(dp653
g13
VVBG
p654
sbag0
(g1
g2
(lp655
g0
(g1
g2
(lp656
Vsomething
p657
atp658
Rp659
(dp660
g13
VNN
p661
sbatp662
Rp663
(dp664
g13
VNP
p665
sbag0
(g1
g2
(lp666
g0
(g1
g2
(lp667
Vinto
p668
atp669
Rp670
(dp671
g13
VIN
p672
sbag0
(g1
g2
(lp673
g0
(g1
g2
(lp674
Va
p675
atp676
Rp677
(dp678
g13
VDT
p679
sbag0
(g1
g2
(lp680
Vglass
p681
atp682
Rp683
(dp684
g13
VNN
p685
sbatp686
Rp687
(dp688
g13
VNP
p689
sbatp690
Rp691
(dp692
g13
VPP
p693
sbatp694
Rp695
(dp696
g13
VVP
p697
sbatp698
Rp699
(dp700
g13
VVP
p701
sbatp702
Rp703
(dp704
g13
VS
p705
sbag0
(g1
g2
(lp706
V,
p707
atp708
Rp709
(dp710
g13
V,
p711
sbag0
(g1
g2
(lp712
g0
(g1
g2
(lp713
Vnow
p714
atp715
Rp716
(dp717
g13
VRB
p718
sbatp719
Rp720
(dp721
g13
VADVP
p722
sbag0
(g1
g2
(lp723
g0
(g1
g2
(lp724
g0
(g1
g2
(lp725
Vit
p726
atp727
Rp728
(dp729
g13
VPRP
p730
sbatp731
Rp732
(dp733
g13
VNP
p734
sbag0
(g1
g2
(lp735
g0
(g1
g2
(lp736
Vlooks
p737
atp738
Rp739
(dp740
g13
VVBZ
p741
sbag0
(g1
g2
(lp742
g0
(g1
g2
(lp743
Vlike
p744
atp745
Rp746
(dp747
g13
VIN
p748
sbag0
(g1
g2
(lp749
g0
(g1
g2
(lp750
Va
p751
atp752
Rp753
(dp754
g13
VDT
p755
sbag0
(g1
g2
(lp756
Vwine
p757
atp758
Rp759
(dp760
g13
VNN
p761
sbag0
(g1
g2
(lp762
Vbottle
p763
atp764
Rp765
(dp766
g13
VNN
p767
sbatp768
Rp769
(dp770
g13
VNP
p771
sbatp772
Rp773
(dp774
g13
VPP
p775
sbatp776
Rp777
(dp778
g13
VVP
p779
sbatp780
Rp781
(dp782
g13
VS
p783
sbag0
(g1
g2
(lp784
Vbut
p785
atp786
Rp787
(dp788
g13
VCC
p789
sbag0
(g1
g2
(lp790
g0
(g1
g2
(lp791
g0
(g1
g2
(lp792
Vi
p793
atp794
Rp795
(dp796
g13
VFW
p797
sbatp798
Rp799
(dp800
g13
VNP
p801
sbag0
(g1
g2
(lp802
g0
(g1
g2
(lp803
Vdo
p804
atp805
Rp806
(dp807
g13
VVBP
p808
sbag0
(g1
g2
(lp809
Vn't
p810
atp811
Rp812
(dp813
g13
VRB
p814
sbag0
(g1
g2
(lp815
g0
(g1
g2
(lp816
Vknow
p817
atp818
Rp819
(dp820
g13
VVB
p821
sbag0
(g1
g2
(lp822
g0
(g1
g2
(lp823
Vabout
p824
atp825
Rp826
(dp827
g13
VIN
p828
sbag0
(g1
g2
(lp829
g0
(g1
g2
(lp830
Vthat
p831
atp832
Rp833
(dp834
g13
VDT
p835
sbatp836
Rp837
(dp838
g13
VNP
p839
sbatp840
Rp841
(dp842
g13
VPP
p843
sbatp844
Rp845
(dp846
g13
VVP
p847
sbatp848
Rp849
(dp850
g13
VVP
p851
sbatp852
Rp853
(dp854
g13
VS
p855
sbatp856
Rp857
(dp858
g13
VS
p859
sbatp860
Rp861
(dp862
g13
VVP
p863
sbatp864
Rp865
(dp866
g13
VS
p867
sbatp868
Rp869
(dp870
g13
VVP
p871
sbatp872
Rp873
(dp874
g13
VS
p875
sbatp876
Rp877
(dp878
g13
VVP
p879
sbatp880
Rp881
(dp882
g13
VVP
p883
sbag0
(g1
g2
(lp884
V.
p885
atp886
Rp887
(dp888
g13
V.
p889
sbatp890
Rp891
(dp892
g13
VS
p893
sbatp894
Rp895
(dp896
g13
S'id: 1'
p897
sbag0
(g1
g2
(lp898
g0
(g1
g2
(lp899
g0
(g1
g2
(lp900
g0
(g1
g2
(lp901
Vand
p902
atp903
Rp904
(dp905
g13
VCC
p906
sbag0
(g1
g2
(lp907
g0
(g1
g2
(lp908
Vthe
p909
atp910
Rp911
(dp912
g13
VDT
p913
sbag0
(g1
g2
(lp914
Vdad
p915
atp916
Rp917
(dp918
g13
VNN
p919
sbatp920
Rp921
(dp922
g13
VNP
p923
sbag0
(g1
g2
(lp924
g0
(g1
g2
(lp925
Vis
p926
atp927
Rp928
(dp929
g13
VVBZ
p930
sbatp931
Rp932
(dp933
g13
VVP
p934
sbatp935
Rp936
(dp937
g13
VS
p938
sbag0
(g1
g2
(lp939
V,
p940
atp941
Rp942
(dp943
g13
V,
p944
sbag0
(g1
g2
(lp945
Vand
p946
atp947
Rp948
(dp949
g13
VCC
p950
sbag0
(g1
g2
(lp951
g0
(g1
g2
(lp952
g0
(g1
g2
(lp953
Vshe
p954
atp955
Rp956
(dp957
g13
VPRP
p958
sbatp959
Rp960
(dp961
g13
VNP
p962
sbag0
(g1
g2
(lp963
g0
(g1
g2
(lp964
V's
p965
atp966
Rp967
(dp968
g13
VVBZ
p969
sbag0
(g1
g2
(lp970
g0
(g1
g2
(lp971
Vgot
p972
atp973
Rp974
(dp975
g13
VVBD
p976
sbag0
(g1
g2
(lp977
g0
(g1
g2
(lp978
Vthe
p979
atp980
Rp981
(dp982
g13
VDT
p983
sbag0
(g1
g2
(lp984
Vpicnic
p985
atp986
Rp987
(dp988
g13
VNN
p989
sbag0
(g1
g2
(lp990
Vbasket
p991
atp992
Rp993
(dp994
g13
VNN
p995
sbatp996
Rp997
(dp998
g13
VNP
p999
sbag0
(g1
g2
(lp1000
g0
(g1
g2
(lp1001
Vunder
p1002
atp1003
Rp1004
(dp1005
g13
VIN
p1006
sbag0
(g1
g2
(lp1007
g0
(g1
g2
(lp1008
g0
(g1
g2
(lp1009
Vthe
p1010
atp1011
Rp1012
(dp1013
g13
VDT
p1014
sbag0
(g1
g2
(lp1015
Vwine
p1016
atp1017
Rp1018
(dp1019
g13
VNN
p1020
sbatp1021
Rp1022
(dp1023
g13
VNP
p1024
sbag0
(g1
g2
(lp1025
V,
p1026
atp1027
Rp1028
(dp1029
g13
V,
p1030
sbag0
(g1
g2
(lp1031
Vor
p1032
atp1033
Rp1034
(dp1035
g13
VCC
p1036
sbag0
(g1
g2
(lp1037
g0
(g1
g2
(lp1038
Vthe
p1039
atp1040
Rp1041
(dp1042
g13
VDT
p1043
sbag0
(g1
g2
(lp1044
Vglass
p1045
atp1046
Rp1047
(dp1048
g13
VNN
p1049
sbatp1050
Rp1051
(dp1052
g13
VNP
p1053
sbag0
(g1
g2
(lp1054
Vand
p1055
atp1056
Rp1057
(dp1058
g13
VCC
p1059
sbag0
(g1
g2
(lp1060
g0
(g1
g2
(lp1061
Vthe
p1062
atp1063
Rp1064
(dp1065
g13
VDT
p1066
sbag0
(g1
g2
(lp1067
Vbottle
p1068
atp1069
Rp1070
(dp1071
g13
VNN
p1072
sbatp1073
Rp1074
(dp1075
g13
VNP
p1076
sbatp1077
Rp1078
(dp1079
g13
VNP
p1080
sbatp1081
Rp1082
(dp1083
g13
VPP
p1084
sbag0
(g1
g2
(lp1085
g0
(g1
g2
(lp1086
Vthat
p1087
atp1088
Rp1089
(dp1090
g13
VIN
p1091
sbag0
(g1
g2
(lp1092
g0
(g1
g2
(lp1093
g0
(g1
g2
(lp1094
Vshe
p1095
atp1096
Rp1097
(dp1098
g13
VPRP
p1099
sbatp1100
Rp1101
(dp1102
g13
VNP
p1103
sbag0
(g1
g2
(lp1104
g0
(g1
g2
(lp1105
V's
p1106
atp1107
Rp1108
(dp1109
g13
VVBZ
p1110
sbag0
(g1
g2
(lp1111
g0
(g1
g2
(lp1112
Vpouring
p1113
atp1114
Rp1115
(dp1116
g13
VVBG
p1117
sbag0
(g1
g2
(lp1118
g0
(g1
g2
(lp1119
Vfrom
p1120
atp1121
Rp1122
(dp1123
g13
VIN
p1124
sbatp1125
Rp1126
(dp1127
g13
VPP
p1128
sbatp1129
Rp1130
(dp1131
g13
VVP
p1132
sbatp1133
Rp1134
(dp1135
g13
VVP
p1136
sbatp1137
Rp1138
(dp1139
g13
VS
p1140
sbatp1141
Rp1142
(dp1143
g13
VSBAR
p1144
sbatp1145
Rp1146
(dp1147
g13
VVP
p1148
sbatp1149
Rp1150
(dp1151
g13
VVP
p1152
sbatp1153
Rp1154
(dp1155
g13
VS
p1156
sbag0
(g1
g2
(lp1157
V.
p1158
atp1159
Rp1160
(dp1161
g13
V.
p1162
sbatp1163
Rp1164
(dp1165
g13
VS
p1166
sbatp1167
Rp1168
(dp1169
g13
S'id: 2'
p1170
sbag0
(g1
g2
(lp1171
g0
(g1
g2
(lp1172
g0
(g1
g2
(lp1173
g0
(g1
g2
(lp1174
g0
(g1
g2
(lp1175
g0
(g1
g2
(lp1176
Vdad
p1177
atp1178
Rp1179
(dp1180
g13
VNN
p1181
sbatp1182
Rp1183
(dp1184
g13
VNP
p1185
sbag0
(g1
g2
(lp1186
g0
(g1
g2
(lp1187
Vis
p1188
atp1189
Rp1190
(dp1191
g13
VVBZ
p1192
sbag0
(g1
g2
(lp1193
g0
(g1
g2
(lp1194
Vsitting
p1195
atp1196
Rp1197
(dp1198
g13
VVBG
p1199
sbag0
(g1
g2
(lp1200
g0
(g1
g2
(lp1201
Von
p1202
atp1203
Rp1204
(dp1205
g13
VIN
p1206
sbag0
(g1
g2
(lp1207
g0
(g1
g2
(lp1208
g0
(g1
g2
(lp1209
Vthe
p1210
atp1211
Rp1212
(dp1213
g13
VDT
p1214
sbag0
(g1
g2
(lp1215
Vother
p1216
atp1217
Rp1218
(dp1219
g13
VJJ
p1220
sbag0
(g1
g2
(lp1221
Vside
p1222
atp1223
Rp1224
(dp1225
g13
VNN
p1226
sbatp1227
Rp1228
(dp1229
g13
VNP
p1230
sbag0
(g1
g2
(lp1231
g0
(g1
g2
(lp1232
Vof
p1233
atp1234
Rp1235
(dp1236
g13
VIN
p1237
sbag0
(g1
g2
(lp1238
g0
(g1
g2
(lp1239
Vthe
p1240
atp1241
Rp1242
(dp1243
g13
VDT
p1244
sbag0
(g1
g2
(lp1245
Vbasket
p1246
atp1247
Rp1248
(dp1249
g13
VNN
p1250
sbatp1251
Rp1252
(dp1253
g13
VNP
p1254
sbatp1255
Rp1256
(dp1257
g13
VPP
p1258
sbatp1259
Rp1260
(dp1261
g13
VNP
p1262
sbatp1263
Rp1264
(dp1265
g13
VPP
p1266
sbatp1267
Rp1268
(dp1269
g13
VVP
p1270
sbatp1271
Rp1272
(dp1273
g13
VVP
p1274
sbatp1275
Rp1276
(dp1277
g13
VS
p1278
sbag0
(g1
g2
(lp1279
Vand
p1280
atp1281
Rp1282
(dp1283
g13
VCC
p1284
sbag0
(g1
g2
(lp1285
g0
(g1
g2
(lp1286
g0
(g1
g2
(lp1287
Vhe
p1288
atp1289
Rp1290
(dp1291
g13
VPRP
p1292
sbatp1293
Rp1294
(dp1295
g13
VNP
p1296
sbag0
(g1
g2
(lp1297
g0
(g1
g2
(lp1298
V's
p1299
atp1300
Rp1301
(dp1302
g13
VVBZ
p1303
sbag0
(g1
g2
(lp1304
g0
(g1
g2
(lp1305
Vreading
p1306
atp1307
Rp1308
(dp1309
g13
VVBG
p1310
sbag0
(g1
g2
(lp1311
g0
(g1
g2
(lp1312
Va
p1313
atp1314
Rp1315
(dp1316
g13
VDT
p1317
sbag0
(g1
g2
(lp1318
Vbook
p1319
atp1320
Rp1321
(dp1322
g13
VNN
p1323
sbatp1324
Rp1325
(dp1326
g13
VNP
p1327
sbatp1328
Rp1329
(dp1330
g13
VVP
p1331
sbatp1332
Rp1333
(dp1334
g13
VVP
p1335
sbatp1336
Rp1337
(dp1338
g13
VS
p1339
sbatp1340
Rp1341
(dp1342
g13
VS
p1343
sbag0
(g1
g2
(lp1344
V,
p1345
atp1346
Rp1347
(dp1348
g13
V,
p1349
sbag0
(g1
g2
(lp1350
g0
(g1
g2
(lp1351
Vhe
p1352
atp1353
Rp1354
(dp1355
g13
VPRP
p1356
sbatp1357
Rp1358
(dp1359
g13
VNP
p1360
sbag0
(g1
g2
(lp1361
g0
(g1
g2
(lp1362
V's
p1363
atp1364
Rp1365
(dp1366
g13
VVBZ
p1367
sbag0
(g1
g2
(lp1368
g0
(g1
g2
(lp1369
Vgot
p1370
atp1371
Rp1372
(dp1373
g13
VVBN
p1374
sbag0
(g1
g2
(lp1375
g0
(g1
g2
(lp1376
Vglasses
p1377
atp1378
Rp1379
(dp1380
g13
VNNS
p1381
sbatp1382
Rp1383
(dp1384
g13
VNP
p1385
sbag0
(g1
g2
(lp1386
g0
(g1
g2
(lp1387
Von
p1388
atp1389
Rp1390
(dp1391
g13
VIN
p1392
sbatp1393
Rp1394
(dp1395
g13
VPP
p1396
sbatp1397
Rp1398
(dp1399
g13
VVP
p1400
sbatp1401
Rp1402
(dp1403
g13
VVP
p1404
sbag0
(g1
g2
(lp1405
V.
p1406
atp1407
Rp1408
(dp1409
g13
V.
p1410
sbatp1411
Rp1412
(dp1413
g13
VS
p1414
sbatp1415
Rp1416
(dp1417
g13
S'id: 3'
p1418
sbag0
(g1
g2
(lp1419
g0
(g1
g2
(lp1420
g0
(g1
g2
(lp1421
g0
(g1
g2
(lp1422
Vhis
p1423
atp1424
Rp1425
(dp1426
g13
VPRP$
p1427
sbag0
(g1
g2
(lp1428
Vshoes
p1429
atp1430
Rp1431
(dp1432
g13
VNNS
p1433
sbatp1434
Rp1435
(dp1436
g13
VNP
p1437
sbag0
(g1
g2
(lp1438
g0
(g1
g2
(lp1439
Vare
p1440
atp1441
Rp1442
(dp1443
g13
VVBP
p1444
sbag0
(g1
g2
(lp1445
g0
(g1
g2
(lp1446
Voff
p1447
atp1448
Rp1449
(dp1450
g13
VRB
p1451
sbatp1452
Rp1453
(dp1454
g13
VADVP
p1455
sbag0
(g1
g2
(lp1456
g0
(g1
g2
(lp1457
Vto
p1458
atp1459
Rp1460
(dp1461
g13
VTO
p1462
sbag0
(g1
g2
(lp1463
g0
(g1
g2
(lp1464
Vthe
p1465
atp1466
Rp1467
(dp1468
g13
VDT
p1469
sbag0
(g1
g2
(lp1470
Vside
p1471
atp1472
Rp1473
(dp1474
g13
VNN
p1475
sbatp1476
Rp1477
(dp1478
g13
VNP
p1479
sbatp1480
Rp1481
(dp1482
g13
VPP
p1483
sbatp1484
Rp1485
(dp1486
g13
VVP
p1487
sbag0
(g1
g2
(lp1488
V.
p1489
atp1490
Rp1491
(dp1492
g13
V.
p1493
sbatp1494
Rp1495
(dp1496
g13
VS
p1497
sbatp1498
Rp1499
(dp1500
g13
S'id: 4'
p1501
sbag0
(g1
g2
(lp1502
g0
(g1
g2
(lp1503
g0
(g1
g2
(lp1504
g0
(g1
g2
(lp1505
Vto
p1506
atp1507
Rp1508
(dp1509
g13
VTO
p1510
sbag0
(g1
g2
(lp1511
g0
(g1
g2
(lp1512
g0
(g1
g2
(lp1513
Vthe
p1514
atp1515
Rp1516
(dp1517
g13
VDT
p1518
sbag0
(g1
g2
(lp1519
Vside
p1520
atp1521
Rp1522
(dp1523
g13
VNN
p1524
sbatp1525
Rp1526
(dp1527
g13
VNP
p1528
sbag0
(g1
g2
(lp1529
g0
(g1
g2
(lp1530
Vof
p1531
atp1532
Rp1533
(dp1534
g13
VIN
p1535
sbag0
(g1
g2
(lp1536
g0
(g1
g2
(lp1537
Vmom
p1538
atp1539
Rp1540
(dp1541
g13
VNN
p1542
sbatp1543
Rp1544
(dp1545
g13
VNP
p1546
sbatp1547
Rp1548
(dp1549
g13
VPP
p1550
sbatp1551
Rp1552
(dp1553
g13
VNP
p1554
sbatp1555
Rp1556
(dp1557
g13
VPP
p1558
sbag0
(g1
g2
(lp1559
g0
(g1
g2
(lp1560
Vis
p1561
atp1562
Rp1563
(dp1564
g13
VVBZ
p1565
sbatp1566
Rp1567
(dp1568
g13
VVP
p1569
sbag0
(g1
g2
(lp1570
g0
(g1
g2
(lp1571
g0
(g1
g2
(lp1572
Va
p1573
atp1574
Rp1575
(dp1576
g13
VDT
p1577
sbag0
(g1
g2
(lp1578
Va
p1579
atp1580
Rp1581
(dp1582
g13
VDT
p1583
sbag0
(g1
g2
(lp1584
Vradio
p1585
atp1586
Rp1587
(dp1588
g13
VNN
p1589
sbatp1590
Rp1591
(dp1592
g13
VNP
p1593
sbag0
(g1
g2
(lp1594
g0
(g1
g2
(lp1595
Vthat
p1596
atp1597
Rp1598
(dp1599
g13
VIN
p1600
sbag0
(g1
g2
(lp1601
g0
(g1
g2
(lp1602
g0
(g1
g2
(lp1603
Vthey
p1604
atp1605
Rp1606
(dp1607
g13
VPRP
p1608
sbatp1609
Rp1610
(dp1611
g13
VNP
p1612
sbag0
(g1
g2
(lp1613
g0
(g1
g2
(lp1614
V're
p1615
atp1616
Rp1617
(dp1618
g13
VVBP
p1619
sbag0
(g1
g2
(lp1620
g0
(g1
g2
(lp1621
Vplaying
p1622
atp1623
Rp1624
(dp1625
g13
VVBG
p1626
sbatp1627
Rp1628
(dp1629
g13
VVP
p1630
sbatp1631
Rp1632
(dp1633
g13
VVP
p1634
sbatp1635
Rp1636
(dp1637
g13
VS
p1638
sbatp1639
Rp1640
(dp1641
g13
VSBAR
p1642
sbatp1643
Rp1644
(dp1645
g13
VNP
p1646
sbag0
(g1
g2
(lp1647
V.
p1648
atp1649
Rp1650
(dp1651
g13
V.
p1652
sbatp1653
Rp1654
(dp1655
g13
VSINV
p1656
sbatp1657
Rp1658
(dp1659
g13
S'id: 5'
p1660
sbag0
(g1
g2
(lp1661
g0
(g1
g2
(lp1662
g0
(g1
g2
(lp1663
g0
(g1
g2
(lp1664
g0
(g1
g2
(lp1665
VBehind
p1666
atp1667
Rp1668
(dp1669
g13
VIN
p1670
sbag0
(g1
g2
(lp1671
g0
(g1
g2
(lp1672
Vthem
p1673
atp1674
Rp1675
(dp1676
g13
VPRP
p1677
sbatp1678
Rp1679
(dp1680
g13
VNP
p1681
sbatp1682
Rp1683
(dp1684
g13
VPP
p1685
sbag0
(g1
g2
(lp1686
g0
(g1
g2
(lp1687
g0
(g1
g2
(lp1688
Vbut
p1689
atp1690
Rp1691
(dp1692
g13
VCC
p1693
sbatp1694
Rp1695
(dp1696
g13
VADVP
p1697
sbag0
(g1
g2
(lp1698
V,
p1699
atp1700
Rp1701
(dp1702
g13
V,
p1703
sbag0
(g1
g2
(lp1704
g0
(g1
g2
(lp1705
g0
(g1
g2
(lp1706
g0
(g1
g2
(lp1707
Vand
p1708
atp1709
Rp1710
(dp1711
g13
VCC
p1712
sbag0
(g1
g2
(lp1713
Vclose
p1714
atp1715
Rp1716
(dp1717
g13
VRB
p1718
sbatp1719
Rp1720
(dp1721
g13
VQP
p1722
sbatp1723
Rp1724
(dp1725
g13
VNP
p1726
sbag0
(g1
g2
(lp1727
g0
(g1
g2
(lp1728
Vto
p1729
atp1730
Rp1731
(dp1732
g13
VTO
p1733
sbag0
(g1
g2
(lp1734
g0
(g1
g2
(lp1735
Vthe
p1736
atp1737
Rp1738
(dp1739
g13
VDT
p1740
sbag0
(g1
g2
(lp1741
Vwater
p1742
atp1743
Rp1744
(dp1745
g13
VNN
p1746
sbatp1747
Rp1748
(dp1749
g13
VNP
p1750
sbatp1751
Rp1752
(dp1753
g13
VPP
p1754
sbatp1755
Rp1756
(dp1757
g13
VNP
p1758
sbag0
(g1
g2
(lp1759
g0
(g1
g2
(lp1760
Vis
p1761
atp1762
Rp1763
(dp1764
g13
VVBZ
p1765
sbag0
(g1
g2
(lp1766
g0
(g1
g2
(lp1767
g0
(g1
g2
(lp1768
Va
p1769
atp1770
Rp1771
(dp1772
g13
VDT
p1773
sbag0
(g1
g2
(lp1774
Vyoung
p1775
atp1776
Rp1777
(dp1778
g13
VJJ
p1779
sbag0
(g1
g2
(lp1780
Vboy
p1781
atp1782
Rp1783
(dp1784
g13
VNN
p1785
sbatp1786
Rp1787
(dp1788
g13
VNP
p1789
sbag0
(g1
g2
(lp1790
g0
(g1
g2
(lp1791
g0
(g1
g2
(lp1792
Vwho
p1793
atp1794
Rp1795
(dp1796
g13
VWP
p1797
sbatp1798
Rp1799
(dp1800
g13
VWHNP
p1801
sbag0
(g1
g2
(lp1802
g0
(g1
g2
(lp1803
g0
(g1
g2
(lp1804
V's
p1805
atp1806
Rp1807
(dp1808
g13
VVBZ
p1809
sbag0
(g1
g2
(lp1810
g0
(g1
g2
(lp1811
Vgot
p1812
atp1813
Rp1814
(dp1815
g13
VVBD
p1816
sbag0
(g1
g2
(lp1817
g0
(g1
g2
(lp1818
Va
p1819
atp1820
Rp1821
(dp1822
g13
VDT
p1823
sbag0
(g1
g2
(lp1824
g0
(g1
g2
(lp1825
V,
p1826
atp1827
Rp1828
(dp1829
g13
V,
p1830
sbag0
(g1
g2
(lp1831
g0
(g1
g2
(lp1832
Va
p1833
atp1834
Rp1835
(dp1836
g13
VDT
p1837
sbag0
(g1
g2
(lp1838
Vkite
p1839
atp1840
Rp1841
(dp1842
g13
VNN
p1843
sbatp1844
Rp1845
(dp1846
g13
VNP
p1847
sbag0
(g1
g2
(lp1848
V,
p1849
atp1850
Rp1851
(dp1852
g13
V,
p1853
sbatp1854
Rp1855
(dp1856
g13
VPRN
p1857
sbatp1858
Rp1859
(dp1860
g13
VNP
p1861
sbatp1862
Rp1863
(dp1864
g13
VVP
p1865
sbatp1866
Rp1867
(dp1868
g13
VVP
p1869
sbatp1870
Rp1871
(dp1872
g13
VS
p1873
sbatp1874
Rp1875
(dp1876
g13
VSBAR
p1877
sbatp1878
Rp1879
(dp1880
g13
VNP
p1881
sbatp1882
Rp1883
(dp1884
g13
VVP
p1885
sbatp1886
Rp1887
(dp1888
g13
VS
p1889
sbag0
(g1
g2
(lp1890
Vand
p1891
atp1892
Rp1893
(dp1894
g13
VCC
p1895
sbag0
(g1
g2
(lp1896
g0
(g1
g2
(lp1897
g0
(g1
g2
(lp1898
Vhe
p1899
atp1900
Rp1901
(dp1902
g13
VPRP
p1903
sbatp1904
Rp1905
(dp1906
g13
VNP
p1907
sbag0
(g1
g2
(lp1908
g0
(g1
g2
(lp1909
V's
p1910
atp1911
Rp1912
(dp1913
g13
VVBZ
p1914
sbag0
(g1
g2
(lp1915
g0
(g1
g2
(lp1916
Vrunning
p1917
atp1918
Rp1919
(dp1920
g13
VVBG
p1921
sbag0
(g1
g2
(lp1922
g0
(g1
g2
(lp1923
Vwith
p1924
atp1925
Rp1926
(dp1927
g13
VIN
p1928
sbag0
(g1
g2
(lp1929
g0
(g1
g2
(lp1930
g0
(g1
g2
(lp1931
Vthe
p1932
atp1933
Rp1934
(dp1935
g13
VDT
p1936
sbag0
(g1
g2
(lp1937
Vkite
p1938
atp1939
Rp1940
(dp1941
g13
VNN
p1942
sbag0
(g1
g2
(lp1943
g0
(g1
g2
(lp1944
Vup
p1945
atp1946
Rp1947
(dp1948
g13
VRP
p1949
sbatp1950
Rp1951
(dp1952
g13
VPRT
p1953
sbatp1954
Rp1955
(dp1956
g13
VNP
p1957
sbag0
(g1
g2
(lp1958
g0
(g1
g2
(lp1959
Vin
p1960
atp1961
Rp1962
(dp1963
g13
VIN
p1964
sbag0
(g1
g2
(lp1965
g0
(g1
g2
(lp1966
Vthe
p1967
atp1968
Rp1969
(dp1970
g13
VDT
p1971
sbag0
(g1
g2
(lp1972
Vair
p1973
atp1974
Rp1975
(dp1976
g13
VNN
p1977
sbatp1978
Rp1979
(dp1980
g13
VNP
p1981
sbatp1982
Rp1983
(dp1984
g13
VPP
p1985
sbatp1986
Rp1987
(dp1988
g13
VNP
p1989
sbatp1990
Rp1991
(dp1992
g13
VPP
p1993
sbatp1994
Rp1995
(dp1996
g13
VVP
p1997
sbatp1998
Rp1999
(dp2000
g13
VVP
p2001
sbatp2002
Rp2003
(dp2004
g13
VS
p2005
sbatp2006
Rp2007
(dp2008
g13
VS
p2009
sbag0
(g1
g2
(lp2010
Vand
p2011
atp2012
Rp2013
(dp2014
g13
VCC
p2015
sbag0
(g1
g2
(lp2016
g0
(g1
g2
(lp2017
g0
(g1
g2
(lp2018
Vhis
p2019
atp2020
Rp2021
(dp2022
g13
VPRP$
p2023
sbag0
(g1
g2
(lp2024
Vdog
p2025
atp2026
Rp2027
(dp2028
g13
VNN
p2029
sbatp2030
Rp2031
(dp2032
g13
VNP
p2033
sbag0
(g1
g2
(lp2034
g0
(g1
g2
(lp2035
Vis
p2036
atp2037
Rp2038
(dp2039
g13
VVBZ
p2040
sbag0
(g1
g2
(lp2041
g0
(g1
g2
(lp2042
Vchasing
p2043
atp2044
Rp2045
(dp2046
g13
VVBG
p2047
sbag0
(g1
g2
(lp2048
g0
(g1
g2
(lp2049
Vhim
p2050
atp2051
Rp2052
(dp2053
g13
VPRP
p2054
sbatp2055
Rp2056
(dp2057
g13
VNP
p2058
sbatp2059
Rp2060
(dp2061
g13
VVP
p2062
sbatp2063
Rp2064
(dp2065
g13
VVP
p2066
sbatp2067
Rp2068
(dp2069
g13
VS
p2070
sbag0
(g1
g2
(lp2071
V.
p2072
atp2073
Rp2074
(dp2075
g13
V.
p2076
sbatp2077
Rp2078
(dp2079
g13
VS
p2080
sbatp2081
Rp2082
(dp2083
g13
S'id: 6'
p2084
sbag0
(g1
g2
(lp2085
g0
(g1
g2
(lp2086
g0
(g1
g2
(lp2087
g0
(g1
g2
(lp2088
g0
(g1
g2
(lp2089
Vnext
p2090
atp2091
Rp2092
(dp2093
g13
VIN
p2094
sbag0
(g1
g2
(lp2095
g0
(g1
g2
(lp2096
Vto
p2097
atp2098
Rp2099
(dp2100
g13
VTO
p2101
sbatp2102
Rp2103
(dp2104
g13
VPP
p2105
sbatp2106
Rp2107
(dp2108
g13
VADVP
p2109
sbag0
(g1
g2
(lp2110
g0
(g1
g2
(lp2111
g0
(g1
g2
(lp2112
Vhim
p2113
atp2114
Rp2115
(dp2116
g13
VPRP
p2117
sbatp2118
Rp2119
(dp2120
g13
VNP
p2121
sbag0
(g1
g2
(lp2122
g0
(g1
g2
(lp2123
Vis
p2124
atp2125
Rp2126
(dp2127
g13
VVBZ
p2128
sbag0
(g1
g2
(lp2129
g0
(g1
g2
(lp2130
Vactually
p2131
atp2132
Rp2133
(dp2134
g13
VRB
p2135
sbatp2136
Rp2137
(dp2138
g13
VADVP
p2139
sbatp2140
Rp2141
(dp2142
g13
VVP
p2143
sbatp2144
Rp2145
(dp2146
g13
VS
p2147
sbatp2148
Rp2149
(dp2150
g13
VSBAR
p2151
sbag0
(g1
g2
(lp2152
V,
p2153
atp2154
Rp2155
(dp2156
g13
V,
p2157
sbag0
(g1
g2
(lp2158
g0
(g1
g2
(lp2159
Vit
p2160
atp2161
Rp2162
(dp2163
g13
VPRP
p2164
sbatp2165
Rp2166
(dp2167
g13
VNP
p2168
sbag0
(g1
g2
(lp2169
g0
(g1
g2
(lp2170
Vlooks
p2171
atp2172
Rp2173
(dp2174
g13
VVBZ
p2175
sbag0
(g1
g2
(lp2176
g0
(g1
g2
(lp2177
g0
(g1
g2
(lp2178
Vlike
p2179
atp2180
Rp2181
(dp2182
g13
VIN
p2183
sbatp2184
Rp2185
(dp2186
g13
VPP
p2187
sbag0
(g1
g2
(lp2188
V,
p2189
atp2190
Rp2191
(dp2192
g13
V,
p2193
sbatp2194
Rp2195
(dp2196
g13
VPRN
p2197
sbag0
(g1
g2
(lp2198
g0
(g1
g2
(lp2199
Vsome
p2200
atp2201
Rp2202
(dp2203
g13
VDT
p2204
sbag0
(g1
g2
(lp2205
Vsand
p2206
atp2207
Rp2208
(dp2209
g13
VNN
p2210
sbatp2211
Rp2212
(dp2213
g13
VNP
p2214
sbatp2215
Rp2216
(dp2217
g13
VVP
p2218
sbag0
(g1
g2
(lp2219
V.
p2220
atp2221
Rp2222
(dp2223
g13
V.
p2224
sbatp2225
Rp2226
(dp2227
g13
VS
p2228
sbatp2229
Rp2230
(dp2231
g13
S'id: 7'
p2232
sbag0
(g1
g2
(lp2233
g0
(g1
g2
(lp2234
g0
(g1
g2
(lp2235
g0
(g1
g2
(lp2236
Vand
p2237
atp2238
Rp2239
(dp2240
g13
VCC
p2241
sbag0
(g1
g2
(lp2242
g0
(g1
g2
(lp2243
Vit
p2244
atp2245
Rp2246
(dp2247
g13
VPRP
p2248
sbatp2249
Rp2250
(dp2251
g13
VNP
p2252
sbag0
(g1
g2
(lp2253
g0
(g1
g2
(lp2254
Vlooks
p2255
atp2256
Rp2257
(dp2258
g13
VVBZ
p2259
sbag0
(g1
g2
(lp2260
g0
(g1
g2
(lp2261
Vlike
p2262
atp2263
Rp2264
(dp2265
g13
VIN
p2266
sbag0
(g1
g2
(lp2267
g0
(g1
g2
(lp2268
g0
(g1
g2
(lp2269
Vthere
p2270
atp2271
Rp2272
(dp2273
g13
VEX
p2274
sbatp2275
Rp2276
(dp2277
g13
VNP
p2278
sbag0
(g1
g2
(lp2279
g0
(g1
g2
(lp2280
V's
p2281
atp2282
Rp2283
(dp2284
g13
VVBZ
p2285
sbag0
(g1
g2
(lp2286
g0
(g1
g2
(lp2287
g0
(g1
g2
(lp2288
Va
p2289
atp2290
Rp2291
(dp2292
g13
VDT
p2293
sbag0
(g1
g2
(lp2294
Vyoung
p2295
atp2296
Rp2297
(dp2298
g13
VJJ
p2299
sbag0
(g1
g2
(lp2300
Vgirl
p2301
atp2302
Rp2303
(dp2304
g13
VNN
p2305
sbatp2306
Rp2307
(dp2308
g13
VNP
p2309
sbag0
(g1
g2
(lp2310
g0
(g1
g2
(lp2311
g0
(g1
g2
(lp2312
Vwho
p2313
atp2314
Rp2315
(dp2316
g13
VWP
p2317
sbatp2318
Rp2319
(dp2320
g13
VWHNP
p2321
sbag0
(g1
g2
(lp2322
g0
(g1
g2
(lp2323
g0
(g1
g2
(lp2324
Vis
p2325
atp2326
Rp2327
(dp2328
g13
VVBZ
p2329
sbag0
(g1
g2
(lp2330
g0
(g1
g2
(lp2331
Vmaking
p2332
atp2333
Rp2334
(dp2335
g13
VVBG
p2336
sbatp2337
Rp2338
(dp2339
g13
VVP
p2340
sbatp2341
Rp2342
(dp2343
g13
VVP
p2344
sbatp2345
Rp2346
(dp2347
g13
VS
p2348
sbatp2349
Rp2350
(dp2351
g13
VSBAR
p2352
sbatp2353
Rp2354
(dp2355
g13
VNP
p2356
sbatp2357
Rp2358
(dp2359
g13
VVP
p2360
sbatp2361
Rp2362
(dp2363
g13
VS
p2364
sbatp2365
Rp2366
(dp2367
g13
VSBAR
p2368
sbatp2369
Rp2370
(dp2371
g13
VVP
p2372
sbatp2373
Rp2374
(dp2375
g13
VS
p2376
sbag0
(g1
g2
(lp2377
V,
p2378
atp2379
Rp2380
(dp2381
g13
V,
p2382
sbag0
(g1
g2
(lp2383
g0
(g1
g2
(lp2384
g0
(g1
g2
(lp2385
Vshe
p2386
atp2387
Rp2388
(dp2389
g13
VPRP
p2390
sbatp2391
Rp2392
(dp2393
g13
VNP
p2394
sbag0
(g1
g2
(lp2395
g0
(g1
g2
(lp2396
V's
p2397
atp2398
Rp2399
(dp2400
g13
VVBZ
p2401
sbag0
(g1
g2
(lp2402
g0
(g1
g2
(lp2403
Vgot
p2404
atp2405
Rp2406
(dp2407
g13
VVBD
p2408
sbag0
(g1
g2
(lp2409
g0
(g1
g2
(lp2410
g0
(g1
g2
(lp2411
Va
p2412
atp2413
Rp2414
(dp2415
g13
VDT
p2416
sbag0
(g1
g2
(lp2417
Vbucket
p2418
atp2419
Rp2420
(dp2421
g13
VNN
p2422
sbatp2423
Rp2424
(dp2425
g13
VNP
p2426
sbag0
(g1
g2
(lp2427
g0
(g1
g2
(lp2428
Vfull
p2429
atp2430
Rp2431
(dp2432
g13
VJJ
p2433
sbag0
(g1
g2
(lp2434
Vof
p2435
atp2436
Rp2437
(dp2438
g13
VIN
p2439
sbag0
(g1
g2
(lp2440
g0
(g1
g2
(lp2441
Vsand
p2442
atp2443
Rp2444
(dp2445
g13
VNN
p2446
sbatp2447
Rp2448
(dp2449
g13
VNP
p2450
sbatp2451
Rp2452
(dp2453
g13
VPP
p2454
sbatp2455
Rp2456
(dp2457
g13
VNP
p2458
sbatp2459
Rp2460
(dp2461
g13
VVP
p2462
sbatp2463
Rp2464
(dp2465
g13
VVP
p2466
sbatp2467
Rp2468
(dp2469
g13
VS
p2470
sbag0
(g1
g2
(lp2471
Vand
p2472
atp2473
Rp2474
(dp2475
g13
VCC
p2476
sbag0
(g1
g2
(lp2477
g0
(g1
g2
(lp2478
g0
(g1
g2
(lp2479
Vshe
p2480
atp2481
Rp2482
(dp2483
g13
VPRP
p2484
sbatp2485
Rp2486
(dp2487
g13
VNP
p2488
sbag0
(g1
g2
(lp2489
g0
(g1
g2
(lp2490
V's
p2491
atp2492
Rp2493
(dp2494
g13
VVBZ
p2495
sbag0
(g1
g2
(lp2496
g0
(g1
g2
(lp2497
Vmaking
p2498
atp2499
Rp2500
(dp2501
g13
VVBG
p2502
sbag0
(g1
g2
(lp2503
g0
(g1
g2
(lp2504
Va
p2505
atp2506
Rp2507
(dp2508
g13
VDT
p2509
sbag0
(g1
g2
(lp2510
Vsandcastle
p2511
atp2512
Rp2513
(dp2514
g13
VNN
p2515
sbatp2516
Rp2517
(dp2518
g13
VNP
p2519
sbatp2520
Rp2521
(dp2522
g13
VVP
p2523
sbatp2524
Rp2525
(dp2526
g13
VVP
p2527
sbatp2528
Rp2529
(dp2530
g13
VS
p2531
sbag0
(g1
g2
(lp2532
V.
p2533
atp2534
Rp2535
(dp2536
g13
V.
p2537
sbatp2538
Rp2539
(dp2540
g13
VS
p2541
sbatp2542
Rp2543
(dp2544
g13
S'id: 8'
p2545
sbag0
(g1
g2
(lp2546
g0
(g1
g2
(lp2547
g0
(g1
g2
(lp2548
Vand
p2549
atp2550
Rp2551
(dp2552
g13
VCC
p2553
sbag0
(g1
g2
(lp2554
g0
(g1
g2
(lp2555
Vshe
p2556
atp2557
Rp2558
(dp2559
g13
VPRP
p2560
sbatp2561
Rp2562
(dp2563
g13
VNP
p2564
sbag0
(g1
g2
(lp2565
g0
(g1
g2
(lp2566
V's
p2567
atp2568
Rp2569
(dp2570
g13
VVBZ
p2571
sbag0
(g1
g2
(lp2572
g0
(g1
g2
(lp2573
Vgot
p2574
atp2575
Rp2576
(dp2577
g13
VVBD
p2578
sbag0
(g1
g2
(lp2579
g0
(g1
g2
(lp2580
g0
(g1
g2
(lp2581
g0
(g1
g2
(lp2582
g0
(g1
g2
(lp2583
Va
p2584
atp2585
Rp2586
(dp2587
g13
VDT
p2588
sbag0
(g1
g2
(lp2589
Vlittle
p2590
atp2591
Rp2592
(dp2593
g13
VJJ
p2594
sbag0
(g1
g2
(lp2595
Vshovel
p2596
atp2597
Rp2598
(dp2599
g13
VNN
p2600
sbatp2601
Rp2602
(dp2603
g13
VNP
p2604
sbag0
(g1
g2
(lp2605
V,
p2606
atp2607
Rp2608
(dp2609
g13
V,
p2610
sbag0
(g1
g2
(lp2611
g0
(g1
g2
(lp2612
Vgot
p2613
atp2614
Rp2615
(dp2616
g13
VVBD
p2617
sbag0
(g1
g2
(lp2618
g0
(g1
g2
(lp2619
Va
p2620
atp2621
Rp2622
(dp2623
g13
VDT
p2624
sbag0
(g1
g2
(lp2625
Vponytail
p2626
atp2627
Rp2628
(dp2629
g13
VNN
p2630
sbatp2631
Rp2632
(dp2633
g13
VNP
p2634
sbatp2635
Rp2636
(dp2637
g13
VVP
p2638
sbag0
(g1
g2
(lp2639
V,
p2640
atp2641
Rp2642
(dp2643
g13
V,
p2644
sbatp2645
Rp2646
(dp2647
g13
VNP
p2648
sbag0
(g1
g2
(lp2649
g0
(g1
g2
(lp2650
Vgot
p2651
atp2652
Rp2653
(dp2654
g13
VVBD
p2655
sbag0
(g1
g2
(lp2656
g0
(g1
g2
(lp2657
g0
(g1
g2
(lp2658
g0
(g1
g2
(lp2659
g0
(g1
g2
(lp2660
Vher
p2661
atp2662
Rp2663
(dp2664
g13
VPRP$
p2665
sbag0
(g1
g2
(lp2666
Vbathing
p2667
atp2668
Rp2669
(dp2670
g13
VNN
p2671
sbag0
(g1
g2
(lp2672
Vsuit
p2673
atp2674
Rp2675
(dp2676
g13
VNN
p2677
sbatp2678
Rp2679
(dp2680
g13
VNP
p2681
sbag0
(g1
g2
(lp2682
g0
(g1
g2
(lp2683
Von
p2684
atp2685
Rp2686
(dp2687
g13
VIN
p2688
sbag0
(g1
g2
(lp2689
g0
(g1
g2
(lp2690
Vi
p2691
atp2692
Rp2693
(dp2694
g13
VFW
p2695
sbatp2696
Rp2697
(dp2698
g13
VNP
p2699
sbatp2700
Rp2701
(dp2702
g13
VPP
p2703
sbatp2704
Rp2705
(dp2706
g13
VNP
p2707
sbag0
(g1
g2
(lp2708
g0
(g1
g2
(lp2709
Vthink
p2710
atp2711
Rp2712
(dp2713
g13
VVBP
p2714
sbatp2715
Rp2716
(dp2717
g13
VVP
p2718
sbatp2719
Rp2720
(dp2721
g13
VS
p2722
sbatp2723
Rp2724
(dp2725
g13
VSBAR
p2726
sbatp2727
Rp2728
(dp2729
g13
VVP
p2730
sbatp2731
Rp2732
(dp2733
g13
VS
p2734
sbatp2735
Rp2736
(dp2737
g13
VSBAR
p2738
sbatp2739
Rp2740
(dp2741
g13
VVP
p2742
sbatp2743
Rp2744
(dp2745
g13
VVP
p2746
sbag0
(g1
g2
(lp2747
V.
p2748
atp2749
Rp2750
(dp2751
g13
V.
p2752
sbatp2753
Rp2754
(dp2755
g13
VS
p2756
sbatp2757
Rp2758
(dp2759
g13
S'id: 9'
p2760
sbag0
(g1
g2
(lp2761
g0
(g1
g2
(lp2762
g0
(g1
g2
(lp2763
Vand
p2764
atp2765
Rp2766
(dp2767
g13
VCC
p2768
sbag0
(g1
g2
(lp2769
g0
(g1
g2
(lp2770
g0
(g1
g2
(lp2771
Vthen
p2772
atp2773
Rp2774
(dp2775
g13
VRB
p2776
sbatp2777
Rp2778
(dp2779
g13
VADVP
p2780
sbag0
(g1
g2
(lp2781
g0
(g1
g2
(lp2782
g0
(g1
g2
(lp2783
g0
(g1
g2
(lp2784
Vjust
p2785
atp2786
Rp2787
(dp2788
g13
VRB
p2789
sbag0
(g1
g2
(lp2790
Vup
p2791
atp2792
Rp2793
(dp2794
g13
VIN
p2795
sbag0
(g1
g2
(lp2796
Va
p2797
atp2798
Rp2799
(dp2800
g13
VDT
p2801
sbatp2802
Rp2803
(dp2804
g13
VQP
p2805
sbag0
(g1
g2
(lp2806
Vways
p2807
atp2808
Rp2809
(dp2810
g13
VNNS
p2811
sbatp2812
Rp2813
(dp2814
g13
VNP
p2815
sbag0
(g1
g2
(lp2816
g0
(g1
g2
(lp2817
Vfrom
p2818
atp2819
Rp2820
(dp2821
g13
VIN
p2822
sbag0
(g1
g2
(lp2823
g0
(g1
g2
(lp2824
Vher
p2825
atp2826
Rp2827
(dp2828
g13
VPRP$
p2829
sbatp2830
Rp2831
(dp2832
g13
VNP
p2833
sbatp2834
Rp2835
(dp2836
g13
VPP
p2837
sbatp2838
Rp2839
(dp2840
g13
VNP
p2841
sbag0
(g1
g2
(lp2842
g0
(g1
g2
(lp2843
Vis
p2844
atp2845
Rp2846
(dp2847
g13
VVBZ
p2848
sbag0
(g1
g2
(lp2849
g0
(g1
g2
(lp2850
Va
p2851
atp2852
Rp2853
(dp2854
g13
VDT
p2855
sbag0
(g1
g2
(lp2856
Vdock
p2857
atp2858
Rp2859
(dp2860
g13
VNN
p2861
sbatp2862
Rp2863
(dp2864
g13
VNP
p2865
sbatp2866
Rp2867
(dp2868
g13
VVP
p2869
sbatp2870
Rp2871
(dp2872
g13
VS
p2873
sbag0
(g1
g2
(lp2874
Vand
p2875
atp2876
Rp2877
(dp2878
g13
VCC
p2879
sbag0
(g1
g2
(lp2880
g0
(g1
g2
(lp2881
g0
(g1
g2
(lp2882
Vthere
p2883
atp2884
Rp2885
(dp2886
g13
VEX
p2887
sbatp2888
Rp2889
(dp2890
g13
VNP
p2891
sbag0
(g1
g2
(lp2892
g0
(g1
g2
(lp2893
V's
p2894
atp2895
Rp2896
(dp2897
g13
VVBZ
p2898
sbag0
(g1
g2
(lp2899
g0
(g1
g2
(lp2900
g0
(g1
g2
(lp2901
Va
p2902
atp2903
Rp2904
(dp2905
g13
VDT
p2906
sbag0
(g1
g2
(lp2907
Vfisherman
p2908
atp2909
Rp2910
(dp2911
g13
VNN
p2912
sbatp2913
Rp2914
(dp2915
g13
VNP
p2916
sbag0
(g1
g2
(lp2917
g0
(g1
g2
(lp2918
Von
p2919
atp2920
Rp2921
(dp2922
g13
VIN
p2923
sbag0
(g1
g2
(lp2924
g0
(g1
g2
(lp2925
g0
(g1
g2
(lp2926
Vthe
p2927
atp2928
Rp2929
(dp2930
g13
VDT
p2931
sbag0
(g1
g2
(lp2932
Vdock
p2933
atp2934
Rp2935
(dp2936
g13
VNN
p2937
sbatp2938
Rp2939
(dp2940
g13
VNP
p2941
sbag0
(g1
g2
(lp2942
g0
(g1
g2
(lp2943
Vwith
p2944
atp2945
Rp2946
(dp2947
g13
VIN
p2948
sbag0
(g1
g2
(lp2949
g0
(g1
g2
(lp2950
g0
(g1
g2
(lp2951
Va
p2952
atp2953
Rp2954
(dp2955
g13
VDT
p2956
sbag0
(g1
g2
(lp2957
Vfish
p2958
atp2959
Rp2960
(dp2961
g13
VNN
p2962
sbatp2963
Rp2964
(dp2965
g13
VNP
p2966
sbag0
(g1
g2
(lp2967
g0
(g1
g2
(lp2968
Von
p2969
atp2970
Rp2971
(dp2972
g13
VIN
p2973
sbag0
(g1
g2
(lp2974
g0
(g1
g2
(lp2975
g0
(g1
g2
(lp2976
Vthe
p2977
atp2978
Rp2979
(dp2980
g13
VDT
p2981
sbag0
(g1
g2
(lp2982
Vend
p2983
atp2984
Rp2985
(dp2986
g13
VNN
p2987
sbatp2988
Rp2989
(dp2990
g13
VNP
p2991
sbag0
(g1
g2
(lp2992
g0
(g1
g2
(lp2993
Vof
p2994
atp2995
Rp2996
(dp2997
g13
VIN
p2998
sbag0
(g1
g2
(lp2999
g0
(g1
g2
(lp3000
Vthe
p3001
atp3002
Rp3003
(dp3004
g13
VDT
p3005
sbag0
(g1
g2
(lp3006
Vline
p3007
atp3008
Rp3009
(dp3010
g13
VNN
p3011
sbatp3012
Rp3013
(dp3014
g13
VNP
p3015
sbatp3016
Rp3017
(dp3018
g13
VPP
p3019
sbatp3020
Rp3021
(dp3022
g13
VNP
p3023
sbatp3024
Rp3025
(dp3026
g13
VPP
p3027
sbatp3028
Rp3029
(dp3030
g13
VNP
p3031
sbatp3032
Rp3033
(dp3034
g13
VPP
p3035
sbatp3036
Rp3037
(dp3038
g13
VNP
p3039
sbatp3040
Rp3041
(dp3042
g13
VPP
p3043
sbatp3044
Rp3045
(dp3046
g13
VNP
p3047
sbatp3048
Rp3049
(dp3050
g13
VVP
p3051
sbatp3052
Rp3053
(dp3054
g13
VS
p3055
sbag0
(g1
g2
(lp3056
V.
p3057
atp3058
Rp3059
(dp3060
g13
V.
p3061
sbatp3062
Rp3063
(dp3064
g13
VS
p3065
sbatp3066
Rp3067
(dp3068
g13
S'id: 10'
p3069
sbag0
(g1
g2
(lp3070
g0
(g1
g2
(lp3071
g0
(g1
g2
(lp3072
Vand
p3073
atp3074
Rp3075
(dp3076
g13
VCC
p3077
sbag0
(g1
g2
(lp3078
g0
(g1
g2
(lp3079
Vout
p3080
atp3081
Rp3082
(dp3083
g13
VRB
p3084
sbatp3085
Rp3086
(dp3087
g13
VADVP
p3088
sbag0
(g1
g2
(lp3089
g0
(g1
g2
(lp3090
Von
p3091
atp3092
Rp3093
(dp3094
g13
VIN
p3095
sbag0
(g1
g2
(lp3096
g0
(g1
g2
(lp3097
g0
(g1
g2
(lp3098
Vthe
p3099
atp3100
Rp3101
(dp3102
g13
VDT
p3103
sbag0
(g1
g2
(lp3104
Vpond
p3105
atp3106
Rp3107
(dp3108
g13
VNN
p3109
sbatp3110
Rp3111
(dp3112
g13
VNP
p3113
sbag0
(g1
g2
(lp3114
Vor
p3115
atp3116
Rp3117
(dp3118
g13
VCC
p3119
sbag0
(g1
g2
(lp3120
g0
(g1
g2
(lp3121
Vthe
p3122
atp3123
Rp3124
(dp3125
g13
VDT
p3126
sbag0
(g1
g2
(lp3127
Vlake
p3128
atp3129
Rp3130
(dp3131
g13
VNN
p3132
sbatp3133
Rp3134
(dp3135
g13
VNP
p3136
sbatp3137
Rp3138
(dp3139
g13
VNP
p3140
sbatp3141
Rp3142
(dp3143
g13
VPP
p3144
sbag0
(g1
g2
(lp3145
g0
(g1
g2
(lp3146
Vis
p3147
atp3148
Rp3149
(dp3150
g13
VVBZ
p3151
sbag0
(g1
g2
(lp3152
g0
(g1
g2
(lp3153
g0
(g1
g2
(lp3154
Va
p3155
atp3156
Rp3157
(dp3158
g13
VDT
p3159
sbag0
(g1
g2
(lp3160
Vsailboat
p3161
atp3162
Rp3163
(dp3164
g13
VNN
p3165
sbatp3166
Rp3167
(dp3168
g13
VNP
p3169
sbag0
(g1
g2
(lp3170
g0
(g1
g2
(lp3171
Vwith
p3172
atp3173
Rp3174
(dp3175
g13
VIN
p3176
sbag0
(g1
g2
(lp3177
g0
(g1
g2
(lp3178
g0
(g1
g2
(lp3179
Vtwo
p3180
atp3181
Rp3182
(dp3183
g13
VCD
p3184
sbag0
(g1
g2
(lp3185
Vpeople
p3186
atp3187
Rp3188
(dp3189
g13
VNNS
p3190
sbatp3191
Rp3192
(dp3193
g13
VNP
p3194
sbag0
(g1
g2
(lp3195
g0
(g1
g2
(lp3196
Vin
p3197
atp3198
Rp3199
(dp3200
g13
VIN
p3201
sbag0
(g1
g2
(lp3202
g0
(g1
g2
(lp3203
Vit
p3204
atp3205
Rp3206
(dp3207
g13
VPRP
p3208
sbatp3209
Rp3210
(dp3211
g13
VNP
p3212
sbatp3213
Rp3214
(dp3215
g13
VPP
p3216
sbatp3217
Rp3218
(dp3219
g13
VNP
p3220
sbatp3221
Rp3222
(dp3223
g13
VPP
p3224
sbatp3225
Rp3226
(dp3227
g13
VNP
p3228
sbatp3229
Rp3230
(dp3231
g13
VVP
p3232
sbag0
(g1
g2
(lp3233
V.
p3234
atp3235
Rp3236
(dp3237
g13
V.
p3238
sbatp3239
Rp3240
(dp3241
g13
VS
p3242
sbatp3243
Rp3244
(dp3245
g13
S'id: 11'
p3246
sbag0
(g1
g2
(lp3247
g0
(g1
g2
(lp3248
g0
(g1
g2
(lp3249
g0
(g1
g2
(lp3250
Vand
p3251
atp3252
Rp3253
(dp3254
g13
VCC
p3255
sbag0
(g1
g2
(lp3256
g0
(g1
g2
(lp3257
Vthere
p3258
atp3259
Rp3260
(dp3261
g13
VEX
p3262
sbatp3263
Rp3264
(dp3265
g13
VNP
p3266
sbag0
(g1
g2
(lp3267
g0
(g1
g2
(lp3268
Vare
p3269
atp3270
Rp3271
(dp3272
g13
VVBP
p3273
sbag0
(g1
g2
(lp3274
g0
(g1
g2
(lp3275
g0
(g1
g2
(lp3276
Vtrees
p3277
atp3278
Rp3279
(dp3280
g13
VNNS
p3281
sbatp3282
Rp3283
(dp3284
g13
VNP
p3285
sbag0
(g1
g2
(lp3286
g0
(g1
g2
(lp3287
Vin
p3288
atp3289
Rp3290
(dp3291
g13
VIN
p3292
sbag0
(g1
g2
(lp3293
g0
(g1
g2
(lp3294
Vthe
p3295
atp3296
Rp3297
(dp3298
g13
VDT
p3299
sbag0
(g1
g2
(lp3300
Vbackground
p3301
atp3302
Rp3303
(dp3304
g13
VNN
p3305
sbatp3306
Rp3307
(dp3308
g13
VNP
p3309
sbatp3310
Rp3311
(dp3312
g13
VPP
p3313
sbatp3314
Rp3315
(dp3316
g13
VNP
p3317
sbatp3318
Rp3319
(dp3320
g13
VVP
p3321
sbatp3322
Rp3323
(dp3324
g13
VS
p3325
sbag0
(g1
g2
(lp3326
V,
p3327
atp3328
Rp3329
(dp3330
g13
V,
p3331
sbag0
(g1
g2
(lp3332
Vand
p3333
atp3334
Rp3335
(dp3336
g13
VCC
p3337
sbag0
(g1
g2
(lp3338
g0
(g1
g2
(lp3339
g0
(g1
g2
(lp3340
Vit
p3341
atp3342
Rp3343
(dp3344
g13
VPRP
p3345
sbatp3346
Rp3347
(dp3348
g13
VNP
p3349
sbag0
(g1
g2
(lp3350
g0
(g1
g2
(lp3351
V's
p3352
atp3353
Rp3354
(dp3355
g13
VVBZ
p3356
sbag0
(g1
g2
(lp3357
g0
(g1
g2
(lp3358
Vjust
p3359
atp3360
Rp3361
(dp3362
g13
VRB
p3363
sbatp3364
Rp3365
(dp3366
g13
VADVP
p3367
sbag0
(g1
g2
(lp3368
g0
(g1
g2
(lp3369
Va
p3370
atp3371
Rp3372
(dp3373
g13
VDT
p3374
sbag0
(g1
g2
(lp3375
g0
(g1
g2
(lp3376
Vreally
p3377
atp3378
Rp3379
(dp3380
g13
VRB
p3381
sbag0
(g1
g2
(lp3382
Vnice
p3383
atp3384
Rp3385
(dp3386
g13
VJJ
p3387
sbatp3388
Rp3389
(dp3390
g13
VADJP
p3391
sbag0
(g1
g2
(lp3392
Vidyllic
p3393
atp3394
Rp3395
(dp3396
g13
VJJ
p3397
sbag0
(g1
g2
(lp3398
Vscene
p3399
atp3400
Rp3401
(dp3402
g13
VNN
p3403
sbatp3404
Rp3405
(dp3406
g13
VNP
p3407
sbatp3408
Rp3409
(dp3410
g13
VVP
p3411
sbatp3412
Rp3413
(dp3414
g13
VS
p3415
sbag0
(g1
g2
(lp3416
V.
p3417
atp3418
Rp3419
(dp3420
g13
V.
p3421
sbatp3422
Rp3423
(dp3424
g13
VS
p3425
sbatp3426
Rp3427
(dp3428
g13
S'id: 12'
p3429
sbag0
(g1
g2
(lp3430
g0
(g1
g2
(lp3431
g0
(g1
g2
(lp3432
Vthe
p3433
atp3434
Rp3435
(dp3436
g13
VDT
p3437
sbag0
(g1
g2
(lp3438
Vend
p3439
atp3440
Rp3441
(dp3442
g13
VNN
p3443
sbag0
(g1
g2
(lp3444
V.
p3445
atp3446
Rp3447
(dp3448
g13
V.
p3449
sbatp3450
Rp3451
(dp3452
g13
VNP
p3453
sbatp3454
Rp3455
(dp3456
g13
S'id: 13'
p3457
sbatp3458
Rp3459
(dp3460
g13
S'sentences'
p3461
sb.