ccopy_reg
_reconstructor
p0
(cnltk.tree
Tree
p1
c__builtin__
list
p2
(lp3
g0
(g1
g2
(lp4
g0
(g1
g2
(lp5
g0
(g1
g2
(lp6
Vi see a little boy stealing cookies from the cookie jar , although , the , he 's starting to , the stool 's
p7
atp8
Rp9
(dp10
S'_label'
p11
S'start: 3'
p12
sbatp13
Rp14
(dp15
g11
S'sent: 1'
p16
sbag0
(g1
g2
(lp17
g0
(g1
g2
(lp18
Vhe
p19
atp20
Rp21
(dp22
g11
S'start: 32'
p23
sbatp24
Rp25
(dp26
g11
S'sent: 1'
p27
sbatp28
Rp29
(dp30
g11
S'id: 3'
p31
sbag0
(g1
g2
(lp32
g0
(g1
g2
(lp33
g0
(g1
g2
(lp34
Vcookies
p35
atp36
Rp37
(dp38
g11
S'start: 9'
p39
sbatp40
Rp41
(dp42
g11
S'sent: 1'
p43
sbag0
(g1
g2
(lp44
g0
(g1
g2
(lp45
Vcookies
p46
atp47
Rp48
(dp49
g11
S'start: 21'
p50
sbatp51
Rp52
(dp53
g11
S'sent: 2'
p54
sbatp55
Rp56
(dp57
g11
S'id: 6'
p58
sbag0
(g1
g2
(lp59
g0
(g1
g2
(lp60
g0
(g1
g2
(lp61
Vthe
p62
atp63
Rp64
(dp65
g11
S'start: 17'
p66
sbatp67
Rp68
(dp69
g11
S'sent: 1'
p70
sbag0
(g1
g2
(lp71
g0
(g1
g2
(lp72
Vthey
p73
atp74
Rp75
(dp76
g11
S'start: 18'
p77
sbatp78
Rp79
(dp80
g11
S'sent: 2'
p81
sbatp82
Rp83
(dp84
g11
S'id: 8'
p85
sbag0
(g1
g2
(lp86
g0
(g1
g2
(lp87
g0
(g1
g2
(lp88
Vthe little girl
p89
atp90
Rp91
(dp92
g11
S'start: 2'
p93
sbatp94
Rp95
(dp96
g11
S'sent: 2'
p97
sbag0
(g1
g2
(lp98
g0
(g1
g2
(lp99
Vshe
p100
atp101
Rp102
(dp103
g11
S'start: 7'
p104
sbatp105
Rp106
(dp107
g11
S'sent: 2'
p108
sbatp109
Rp110
(dp111
g11
S'id: 12'
p112
sbag0
(g1
g2
(lp113
g0
(g1
g2
(lp114
g0
(g1
g2
(lp115
Vthe sink
p116
atp117
Rp118
(dp119
g11
S'start: 8'
p120
sbatp121
Rp122
(dp123
g11
S'sent: 3'
p124
sbag0
(g1
g2
(lp125
g0
(g1
g2
(lp126
Vthe sink , the water 's , spilling
p127
atp128
Rp129
(dp130
g11
S'start: 11'
p131
sbatp132
Rp133
(dp134
g11
S'sent: 3'
p135
sbag0
(g1
g2
(lp136
g0
(g1
g2
(lp137
Vthe sink
p138
atp139
Rp140
(dp141
g11
S'start: 11'
p142
sbatp143
Rp144
(dp145
g11
S'sent: 3'
p146
sbag0
(g1
g2
(lp147
g0
(g1
g2
(lp148
Vthe water 's
p149
atp150
Rp151
(dp152
g11
S'start: 14'
p153
sbatp154
Rp155
(dp156
g11
S'sent: 3'
p157
sbag0
(g1
g2
(lp158
g0
(g1
g2
(lp159
Vthe sink
p160
atp161
Rp162
(dp163
g11
S'start: 21'
p164
sbatp165
Rp166
(dp167
g11
S'sent: 3'
p168
sbatp169
Rp170
(dp171
g11
S'id: 19'
p172
sbatp173
Rp174
(dp175
g11
S'coreferences'
p176
sb.