ccopy_reg
_reconstructor
p0
(cnltk.tree
Tree
p1
c__builtin__
list
p2
(lp3
g0
(g1
g2
(lp4
g0
(g1
g2
(lp5
g0
(g1
g2
(lp6
Vthis
p7
atp8
Rp9
(dp10
S'_label'
p11
S'start: 2'
p12
sbatp13
Rp14
(dp15
g11
S'sent: 1'
p16
sbag0
(g1
g2
(lp17
g0
(g1
g2
(lp18
Va , looks like a circus venue
p19
atp20
Rp21
(dp22
g11
S'start: 4'
p23
sbatp24
Rp25
(dp26
g11
S'sent: 1'
p27
sbag0
(g1
g2
(lp28
g0
(g1
g2
(lp29
Va
p30
atp31
Rp32
(dp33
g11
S'start: 4'
p34
sbatp35
Rp36
(dp37
g11
S'sent: 1'
p38
sbag0
(g1
g2
(lp39
g0
(g1
g2
(lp40
Vthey
p41
atp42
Rp43
(dp44
g11
S'start: 19'
p45
sbatp46
Rp47
(dp48
g11
S'sent: 3'
p49
sbag0
(g1
g2
(lp50
g0
(g1
g2
(lp51
Va , i wan
p52
atp53
Rp54
(dp55
g11
S'start: 47'
p56
sbatp57
Rp58
(dp59
g11
S'sent: 6'
p60
sbatp61
Rp62
(dp63
g11
S'id: 1'
p64
sbag0
(g1
g2
(lp65
g0
(g1
g2
(lp66
g0
(g1
g2
(lp67
Vwe
p68
atp69
Rp70
(dp71
g11
S'start: 1'
p72
sbatp73
Rp74
(dp75
g11
S'sent: 2'
p76
sbag0
(g1
g2
(lp77
g0
(g1
g2
(lp78
Vwe
p79
atp80
Rp81
(dp82
g11
S'start: 3'
p83
sbatp84
Rp85
(dp86
g11
S'sent: 3'
p87
sbag0
(g1
g2
(lp88
g0
(g1
g2
(lp89
Vwe
p90
atp91
Rp92
(dp93
g11
S'start: 17'
p94
sbatp95
Rp96
(dp97
g11
S'sent: 4'
p98
sbatp99
Rp100
(dp101
g11
S'id: 5'
p102
sbag0
(g1
g2
(lp103
g0
(g1
g2
(lp104
g0
(g1
g2
(lp105
Vright in the front a clown who is
p106
atp107
Rp108
(dp109
g11
S'start: 3'
p110
sbatp111
Rp112
(dp113
g11
S'sent: 2'
p114
sbag0
(g1
g2
(lp115
g0
(g1
g2
(lp116
Vhis
p117
atp118
Rp119
(dp120
g11
S'start: 16'
p121
sbatp122
Rp123
(dp124
g11
S'sent: 2'
p125
sbag0
(g1
g2
(lp126
g0
(g1
g2
(lp127
Vhis
p128
atp129
Rp130
(dp131
g11
S'start: 18'
p132
sbatp133
Rp134
(dp135
g11
S'sent: 2'
p136
sbag0
(g1
g2
(lp137
g0
(g1
g2
(lp138
Vhim
p139
atp140
Rp141
(dp142
g11
S'start: 2'
p143
sbatp144
Rp145
(dp146
g11
S'sent: 3'
p147
sbatp148
Rp149
(dp150
g11
S'id: 6'
p151
sbag0
(g1
g2
(lp152
g0
(g1
g2
(lp153
g0
(g1
g2
(lp154
Vhis bucket
p155
atp156
Rp157
(dp158
g11
S'start: 18'
p159
sbatp160
Rp161
(dp162
g11
S'sent: 2'
p163
sbag0
(g1
g2
(lp164
g0
(g1
g2
(lp165
Vit
p166
atp167
Rp168
(dp169
g11
S'start: 23'
p170
sbatp171
Rp172
(dp173
g11
S'sent: 2'
p174
sbag0
(g1
g2
(lp175
g0
(g1
g2
(lp176
Vthe bucket
p177
atp178
Rp179
(dp180
g11
S'start: 26'
p181
sbatp182
Rp183
(dp184
g11
S'sent: 2'
p185
sbag0
(g1
g2
(lp186
g0
(g1
g2
(lp187
Vthe bucket
p188
atp189
Rp190
(dp191
g11
S'start: 48'
p192
sbatp193
Rp194
(dp195
g11
S'sent: 5'
p196
sbatp197
Rp198
(dp199
g11
S'id: 9'
p200
sbag0
(g1
g2
(lp201
g0
(g1
g2
(lp202
g0
(g1
g2
(lp203
Va lion sitting on a large round object with a lion
p204
atp205
Rp206
(dp207
g11
S'start: 5'
p208
sbatp209
Rp210
(dp211
g11
S'sent: 3'
p212
sbag0
(g1
g2
(lp213
g0
(g1
g2
(lp214
Vit
p215
atp216
Rp217
(dp218
g11
S'start: 26'
p219
sbatp220
Rp221
(dp222
g11
S'sent: 3'
p223
sbag0
(g1
g2
(lp224
g0
(g1
g2
(lp225
Vthe lion
p226
atp227
Rp228
(dp229
g11
S'start: 14'
p230
sbatp231
Rp232
(dp233
g11
S'sent: 4'
p234
sbag0
(g1
g2
(lp235
g0
(g1
g2
(lp236
Vthe lion
p237
atp238
Rp239
(dp240
g11
S'start: 12'
p241
sbatp242
Rp243
(dp244
g11
S'sent: 6'
p245
sbatp246
Rp247
(dp248
g11
S'id: 15'
p249
sbag0
(g1
g2
(lp250
g0
(g1
g2
(lp251
g0
(g1
g2
(lp252
Vthe clown , who 's in front of the lion
p253
atp254
Rp255
(dp256
g11
S'start: 6'
p257
sbatp258
Rp259
(dp260
g11
S'sent: 4'
p261
sbag0
(g1
g2
(lp262
g0
(g1
g2
(lp263
Vthe clown
p264
atp265
Rp266
(dp267
g11
S'start: 6'
p268
sbatp269
Rp270
(dp271
g11
S'sent: 4'
p272
sbag0
(g1
g2
(lp273
g0
(g1
g2
(lp274
Vhis
p275
atp276
Rp277
(dp278
g11
S'start: 22'
p279
sbatp280
Rp281
(dp282
g11
S'sent: 4'
p283
sbag0
(g1
g2
(lp284
g0
(g1
g2
(lp285
Vthe clown
p286
atp287
Rp288
(dp289
g11
S'start: 30'
p290
sbatp291
Rp292
(dp293
g11
S'sent: 4'
p294
sbag0
(g1
g2
(lp295
g0
(g1
g2
(lp296
Vthe clown
p297
atp298
Rp299
(dp300
g11
S'start: 48'
p301
sbatp302
Rp303
(dp304
g11
S'sent: 4'
p305
sbag0
(g1
g2
(lp306
g0
(g1
g2
(lp307
Vthe clown
p308
atp309
Rp310
(dp311
g11
S'start: 5'
p312
sbatp313
Rp314
(dp315
g11
S'sent: 5'
p316
sbag0
(g1
g2
(lp317
g0
(g1
g2
(lp318
Vhis
p319
atp320
Rp321
(dp322
g11
S'start: 37'
p323
sbatp324
Rp325
(dp326
g11
S'sent: 5'
p327
sbag0
(g1
g2
(lp328
g0
(g1
g2
(lp329
Vhis
p330
atp331
Rp332
(dp333
g11
S'start: 41'
p334
sbatp335
Rp336
(dp337
g11
S'sent: 6'
p338
sbag0
(g1
g2
(lp339
g0
(g1
g2
(lp340
Vhim
p341
atp342
Rp343
(dp344
g11
S'start: 3'
p345
sbatp346
Rp347
(dp348
g11
S'sent: 7'
p349
sbag0
(g1
g2
(lp350
g0
(g1
g2
(lp351
Vhis
p352
atp353
Rp354
(dp355
g11
S'start: 38'
p356
sbatp357
Rp358
(dp359
g11
S'sent: 7'
p360
sbatp361
Rp362
(dp363
g11
S'id: 21'
p364
sbag0
(g1
g2
(lp365
g0
(g1
g2
(lp366
g0
(g1
g2
(lp367
Va gentleman and his daughter
p368
atp369
Rp370
(dp371
g11
S'start: 19'
p372
sbatp373
Rp374
(dp375
g11
S'sent: 4'
p376
sbag0
(g1
g2
(lp377
g0
(g1
g2
(lp378
Vthat
p379
atp380
Rp381
(dp382
g11
S'start: 35'
p383
sbatp384
Rp385
(dp386
g11
S'sent: 4'
p387
sbatp388
Rp389
(dp390
g11
S'id: 26'
p391
sbag0
(g1
g2
(lp392
g0
(g1
g2
(lp393
g0
(g1
g2
(lp394
Vhis daughter
p395
atp396
Rp397
(dp398
g11
S'start: 22'
p399
sbatp400
Rp401
(dp402
g11
S'sent: 4'
p403
sbag0
(g1
g2
(lp404
g0
(g1
g2
(lp405
Vthe daughter
p406
atp407
Rp408
(dp409
g11
S'start: 25'
p410
sbatp411
Rp412
(dp413
g11
S'sent: 4'
p414
sbatp415
Rp416
(dp417
g11
S'id: 28'
p418
sbag0
(g1
g2
(lp419
g0
(g1
g2
(lp420
g0
(g1
g2
(lp421
Va young child that looks like a girl with a ponytail , and her brother who is
p422
atp423
Rp424
(dp425
g11
S'start: 19'
p426
sbatp427
Rp428
(dp429
g11
S'sent: 5'
p430
sbag0
(g1
g2
(lp431
g0
(g1
g2
(lp432
Vthem
p433
atp434
Rp435
(dp436
g11
S'start: 2'
p437
sbatp438
Rp439
(dp440
g11
S'sent: 6'
p441
sbatp442
Rp443
(dp444
g11
S'id: 43'
p445
sbag0
(g1
g2
(lp446
g0
(g1
g2
(lp447
g0
(g1
g2
(lp448
Va young child that looks like a girl with a ponytail
p449
atp450
Rp451
(dp452
g11
S'start: 19'
p453
sbatp454
Rp455
(dp456
g11
S'sent: 5'
p457
sbag0
(g1
g2
(lp458
g0
(g1
g2
(lp459
Vher
p460
atp461
Rp462
(dp463
g11
S'start: 32'
p464
sbatp465
Rp466
(dp467
g11
S'sent: 5'
p468
sbatp469
Rp470
(dp471
g11
S'id: 44'
p472
sbag0
(g1
g2
(lp473
g0
(g1
g2
(lp474
g0
(g1
g2
(lp475
Vthe right of the cage with the lion
p476
atp477
Rp478
(dp479
g11
S'start: 6'
p480
sbatp481
Rp482
(dp483
g11
S'sent: 6'
p484
sbag0
(g1
g2
(lp485
g0
(g1
g2
(lp486
Vit
p487
atp488
Rp489
(dp490
g11
S'start: 15'
p491
sbatp492
Rp493
(dp494
g11
S'sent: 6'
p495
sbag0
(g1
g2
(lp496
g0
(g1
g2
(lp497
Va round circle
p498
atp499
Rp500
(dp501
g11
S'start: 17'
p502
sbatp503
Rp504
(dp505
g11
S'sent: 6'
p506
sbag0
(g1
g2
(lp507
g0
(g1
g2
(lp508
Vit
p509
atp510
Rp511
(dp512
g11
S'start: 26'
p513
sbatp514
Rp515
(dp516
g11
S'sent: 6'
p517
sbatp518
Rp519
(dp520
g11
S'id: 54'
p521
sbag0
(g1
g2
(lp522
g0
(g1
g2
(lp523
g0
(g1
g2
(lp524
Va horse in it
p525
atp526
Rp527
(dp528
g11
S'start: 23'
p529
sbatp530
Rp531
(dp532
g11
S'sent: 6'
p533
sbag0
(g1
g2
(lp534
g0
(g1
g2
(lp535
Va
p536
atp537
Rp538
(dp539
g11
S'start: 47'
p540
sbatp541
Rp542
(dp543
g11
S'sent: 6'
p544
sbag0
(g1
g2
(lp545
g0
(g1
g2
(lp546
Vi wan
p547
atp548
Rp549
(dp550
g11
S'start: 49'
p551
sbatp552
Rp553
(dp554
g11
S'sent: 6'
p555
sbag0
(g1
g2
(lp556
g0
(g1
g2
(lp557
Va
p558
atp559
Rp560
(dp561
g11
S'start: 4'
p562
sbatp563
Rp564
(dp565
g11
S'sent: 8'
p566
sbag0
(g1
g2
(lp567
g0
(g1
g2
(lp568
Va , tightrope walker
p569
atp570
Rp571
(dp572
g11
S'start: 11'
p573
sbatp574
Rp575
(dp576
g11
S'sent: 11'
p577
sbatp578
Rp579
(dp580
g11
S'id: 59'
p581
sbag0
(g1
g2
(lp582
g0
(g1
g2
(lp583
g0
(g1
g2
(lp584
Vthe horse
p585
atp586
Rp587
(dp588
g11
S'start: 34'
p589
sbatp590
Rp591
(dp592
g11
S'sent: 6'
p593
sbag0
(g1
g2
(lp594
g0
(g1
g2
(lp595
Vthe horse , who 's prancing with his tail up
p596
atp597
Rp598
(dp599
g11
S'start: 31'
p600
sbatp601
Rp602
(dp603
g11
S'sent: 7'
p604
sbag0
(g1
g2
(lp605
g0
(g1
g2
(lp606
Vthe horse
p607
atp608
Rp609
(dp610
g11
S'start: 31'
p611
sbatp612
Rp613
(dp614
g11
S'sent: 7'
p615
sbag0
(g1
g2
(lp616
g0
(g1
g2
(lp617
Vthe horse
p618
atp619
Rp620
(dp621
g11
S'start: 42'
p622
sbatp623
Rp624
(dp625
g11
S'sent: 8'
p626
sbatp627
Rp628
(dp629
g11
S'id: 64'
p630
sbag0
(g1
g2
(lp631
g0
(g1
g2
(lp632
g0
(g1
g2
(lp633
Va young lady who looks like a ballerina with a fluflu on
p634
atp635
Rp636
(dp637
g11
S'start: 5'
p638
sbatp639
Rp640
(dp641
g11
S'sent: 7'
p642
sbag0
(g1
g2
(lp643
g0
(g1
g2
(lp644
Vshe
p645
atp646
Rp647
(dp648
g11
S'start: 18'
p649
sbatp650
Rp651
(dp652
g11
S'sent: 7'
p653
sbag0
(g1
g2
(lp654
g0
(g1
g2
(lp655
Vher
p656
atp657
Rp658
(dp659
g11
S'start: 21'
p660
sbatp661
Rp662
(dp663
g11
S'sent: 7'
p664
sbag0
(g1
g2
(lp665
g0
(g1
g2
(lp666
Vher
p667
atp668
Rp669
(dp670
g11
S'start: 27'
p671
sbatp672
Rp673
(dp674
g11
S'sent: 7'
p675
sbag0
(g1
g2
(lp676
g0
(g1
g2
(lp677
Vthe the lady
p678
atp679
Rp680
(dp681
g11
S'start: 38'
p682
sbatp683
Rp684
(dp685
g11
S'sent: 8'
p686
sbatp687
Rp688
(dp689
g11
S'id: 74'
p690
sbag0
(g1
g2
(lp691
g0
(g1
g2
(lp692
g0
(g1
g2
(lp693
Va , one two three four five six people , five or six people sitting , on a bench on the far side of the the ring , that they 're going around with the the lady on the horse
p694
atp695
Rp696
(dp697
g11
S'start: 4'
p698
sbatp699
Rp700
(dp701
g11
S'sent: 8'
p702
sbag0
(g1
g2
(lp703
g0
(g1
g2
(lp704
Vthey
p705
atp706
Rp707
(dp708
g11
S'start: 2'
p709
sbatp710
Rp711
(dp712
g11
S'sent: 10'
p713
sbatp714
Rp715
(dp716
g11
S'id: 89'
p717
sbag0
(g1
g2
(lp718
g0
(g1
g2
(lp719
g0
(g1
g2
(lp720
Vone two three four five six people
p721
atp722
Rp723
(dp724
g11
S'start: 6'
p725
sbatp726
Rp727
(dp728
g11
S'sent: 8'
p729
sbag0
(g1
g2
(lp730
g0
(g1
g2
(lp731
Vit
p732
atp733
Rp734
(dp735
g11
S'start: 2'
p736
sbatp737
Rp738
(dp739
g11
S'sent: 9'
p740
sbag0
(g1
g2
(lp741
g0
(g1
g2
(lp742
Vit
p743
atp744
Rp745
(dp746
g11
S'start: 5'
p747
sbatp748
Rp749
(dp750
g11
S'sent: 9'
p751
sbatp752
Rp753
(dp754
g11
S'id: 91'
p755
sbag0
(g1
g2
(lp756
g0
(g1
g2
(lp757
g0
(g1
g2
(lp758
Vfive six people
p759
atp760
Rp761
(dp762
g11
S'start: 10'
p763
sbatp764
Rp765
(dp766
g11
S'sent: 8'
p767
sbag0
(g1
g2
(lp768
g0
(g1
g2
(lp769
Vthey
p770
atp771
Rp772
(dp773
g11
S'start: 33'
p774
sbatp775
Rp776
(dp777
g11
S'sent: 8'
p778
sbatp779
Rp780
(dp781
g11
S'id: 93'
p782
sbag0
(g1
g2
(lp783
g0
(g1
g2
(lp784
g0
(g1
g2
(lp785
Va
p786
atp787
Rp788
(dp789
g11
S'start: 11'
p790
sbatp791
Rp792
(dp793
g11
S'sent: 11'
p794
sbag0
(g1
g2
(lp795
g0
(g1
g2
(lp796
Vtightrope walker
p797
atp798
Rp799
(dp800
g11
S'start: 13'
p801
sbatp802
Rp803
(dp804
g11
S'sent: 11'
p805
sbatp806
Rp807
(dp808
g11
S'id: 110'
p809
sbatp810
Rp811
(dp812
g11
S'coreferences'
p813
sb.