ccopy_reg
_reconstructor
p0
(cnltk.tree
Tree
p1
c__builtin__
list
p2
(lp3
g0
(g1
g2
(lp4
g0
(g1
g2
(lp5
g0
(g1
g2
(lp6
(lp7
S'word: oh, index: 1'
p8
aatp9
Rp10
(dp11
S'_label'
p12
Vdiscourse
p13
sbatp14
Rp15
(dp16
g12
S'word: picnic, index: 3'
p17
sbatp18
Rp19
(dp20
g12
S'id: 0'
p21
sbag0
(g1
g2
(lp22
g0
(g1
g2
(lp23
g0
(g1
g2
(lp24
(lp25
S'word: is, index: 3'
p26
aatp27
Rp28
(dp29
g12
Vaux
p30
sbag0
(g1
g2
(lp31
g0
(g1
g2
(lp32
g0
(g1
g2
(lp33
(lp34
S'word: the, index: 6'
p35
aatp36
Rp37
(dp38
g12
Vdet
p39
sbatp40
Rp41
(dp42
g12
S'word: book, index: 7'
p43
sbatp44
Rp45
(dp46
g12
Vprep
p47
sbag0
(g1
g2
(lp48
g0
(g1
g2
(lp49
g0
(g1
g2
(lp50
(lp51
S'word: a, index: 1'
p52
aatp53
Rp54
(dp55
g12
Vdet
p56
sbatp57
Rp58
(dp59
g12
S'word: guy, index: 2'
p60
sbatp61
Rp62
(dp63
g12
Vnsubj
p64
sbatp65
Rp66
(dp67
g12
S'word: reading, index: 4'
p68
sbatp69
Rp70
(dp71
g12
S'id: 1'
p72
sbag0
(g1
g2
(lp73
g0
(g1
g2
(lp74
g0
(g1
g2
(lp75
g0
(g1
g2
(lp76
g0
(g1
g2
(lp77
(lp78
S'word: a, index: 7'
p79
aatp80
Rp81
(dp82
g12
Vdet
p83
sbag0
(g1
g2
(lp84
(lp85
S'word: wine, index: 10'
p86
aatp87
Rp88
(dp89
g12
Vprep
p90
sbatp91
Rp92
(dp93
g12
S'word: glass, index: 8'
p94
sbatp95
Rp96
(dp97
g12
Vdep
p98
sbag0
(g1
g2
(lp99
(lp100
S'word: and, index: 1'
p101
aatp102
Rp103
(dp104
g12
Vcc
p105
sbag0
(g1
g2
(lp106
g0
(g1
g2
(lp107
g0
(g1
g2
(lp108
(lp109
S'word: the, index: 2'
p110
aatp111
Rp112
(dp113
g12
Vdet
p114
sbatp115
Rp116
(dp117
g12
S'word: lady, index: 3'
p118
sbatp119
Rp120
(dp121
g12
Vnsubj
p122
sbag0
(g1
g2
(lp123
(lp124
S'word: is, index: 4'
p125
aatp126
Rp127
(dp128
g12
Vcop
p129
sbatp130
Rp131
(dp132
g12
S'word: pourin, index: 5'
p133
sbatp134
Rp135
(dp136
g12
S'id: 2'
p137
sbag0
(g1
g2
(lp138
g0
(g1
g2
(lp139
g0
(g1
g2
(lp140
(lp141
S'word: they, index: 1'
p142
aatp143
Rp144
(dp145
g12
Vnsubj
p146
sbag0
(g1
g2
(lp147
g0
(g1
g2
(lp148
g0
(g1
g2
(lp149
(lp150
S'word: their, index: 3'
p151
aatp152
Rp153
(dp154
g12
Vposs
p155
sbatp156
Rp157
(dp158
g12
S'word: radio, index: 4'
p159
sbatp160
Rp161
(dp162
g12
Vdobj
p163
sbag0
(g1
g2
(lp164
(lp165
S'word: on, index: 5'
p166
aatp167
Rp168
(dp169
g12
Vprep
p170
sbatp171
Rp172
(dp173
g12
S'word: have, index: 2'
p174
sbatp175
Rp176
(dp177
g12
S'id: 3'
p178
sbag0
(g1
g2
(lp179
g0
(g1
g2
(lp180
g0
(g1
g2
(lp181
(lp182
S'word: and, index: 1'
p183
aatp184
Rp185
(dp186
g12
Vcc
p187
sbag0
(g1
g2
(lp188
(lp189
S'word: it, index: 2'
p190
aatp191
Rp192
(dp193
g12
Vnsubj
p194
sbag0
(g1
g2
(lp195
g0
(g1
g2
(lp196
g0
(g1
g2
(lp197
g0
(g1
g2
(lp198
g0
(g1
g2
(lp199
(lp200
S'word: someone, index: 13'
p201
aatp202
Rp203
(dp204
g12
Vposs
p205
sbag0
(g1
g2
(lp206
(lp207
S'word: fishin, index: 15'
p208
aatp209
Rp210
(dp211
g12
Vnn
p212
sbag0
(g1
g2
(lp213
g0
(g1
g2
(lp214
g0
(g1
g2
(lp215
g0
(g1
g2
(lp216
g0
(g1
g2
(lp217
(lp218
S'word: his, index: 29'
p219
aatp220
Rp221
(dp222
g12
Vposs
p223
sbatp224
Rp225
(dp226
g12
S'word: dog, index: 30'
p227
sbatp228
Rp229
(dp230
g12
Vposs
p231
sbag0
(g1
g2
(lp232
g0
(g1
g2
(lp233
g0
(g1
g2
(lp234
(lp235
S'word: him, index: 35'
p236
aatp237
Rp238
(dp239
g12
Vpobj
p240
sbatp241
Rp242
(dp243
g12
S'word: with, index: 34'
p244
sbatp245
Rp246
(dp247
g12
Vconj
p248
sbag0
(g1
g2
(lp249
g0
(g1
g2
(lp250
g0
(g1
g2
(lp251
g0
(g1
g2
(lp252
g0
(g1
g2
(lp253
g0
(g1
g2
(lp254
g0
(g1
g2
(lp255
g0
(g1
g2
(lp256
g0
(g1
g2
(lp257
(lp258
S'word: sand, index: 44'
p259
aatp260
Rp261
(dp262
g12
Vnn
p263
sbag0
(g1
g2
(lp264
(lp265
S'word: the, index: 42'
p266
aatp267
Rp268
(dp269
g12
Vdet
p270
sbag0
(g1
g2
(lp271
(lp272
S'word: beach, index: 43'
p273
aatp274
Rp275
(dp276
g12
Vnn
p277
sbatp278
Rp279
(dp280
g12
S'word: buildin, index: 45'
p281
sbatp282
Rp283
(dp284
g12
Vprep
p285
sbatp286
Rp287
(dp288
g12
S'word: over, index: 40'
p289
sbatp290
Rp291
(dp292
g12
Vadvmod
p293
sbatp294
Rp295
(dp296
g12
S'word: a, index: 47'
p297
sbatp298
Rp299
(dp300
g12
Vdep
p301
sbag0
(g1
g2
(lp302
(lp303
S'word: little, index: 38'
p304
aatp305
Rp306
(dp307
g12
Vamod
p308
sbatp309
Rp310
(dp311
g12
S'word: girl, index: 39'
p312
sbatp313
Rp314
(dp315
g12
Vconj
p316
sbatp317
Rp318
(dp319
g12
S'word: runnin, index: 32'
p320
sbatp321
Rp322
(dp323
g12
Vprep
p324
sbag0
(g1
g2
(lp325
g0
(g1
g2
(lp326
g0
(g1
g2
(lp327
(lp328
S'word: little, index: 18'
p329
aatp330
Rp331
(dp332
g12
Vamod
p333
sbag0
(g1
g2
(lp334
(lp335
S'word: boy, index: 19'
p336
aatp337
Rp338
(dp339
g12
Vnn
p340
sbatp341
Rp342
(dp343
g12
S'word: playin, index: 20'
p344
sbatp345
Rp346
(dp347
g12
Vdep
p348
sbag0
(g1
g2
(lp349
g0
(g1
g2
(lp350
g0
(g1
g2
(lp351
g318
atp352
Rp353
(dp354
g12
Vconj
p355
sbag0
(g1
g2
(lp356
g242
atp357
Rp358
(dp359
g12
Vconj
p360
sbag0
(g1
g2
(lp361
(lp362
S'word: a, index: 23'
p363
aatp364
Rp365
(dp366
g12
Vdet
p367
sbag0
(g1
g2
(lp368
g310
atp369
Rp370
(dp371
g12
Vconj
p372
sbag0
(g1
g2
(lp373
(lp374
S'word: runnin, index: 26'
p375
aatp376
Rp377
(dp378
g12
Vconj
p379
sbatp380
Rp381
(dp382
g12
S'word: kite, index: 24'
p383
sbatp384
Rp385
(dp386
g12
Vprep
p387
sbag0
(g1
g2
(lp388
(lp389
S'word: runnin, index: 26'
p390
aatp391
Rp392
(dp393
g12
Vprep
p394
sbatp395
Rp396
(dp397
g12
S'word: castle, index: 49'
p398
sbatp399
Rp400
(dp401
g12
Vappos
p402
sbag0
(g1
g2
(lp403
(lp404
S'word: like, index: 4'
p405
aatp406
Rp407
(dp408
g12
Vmark
p409
sbag0
(g1
g2
(lp410
(lp411
S'word: it, index: 5'
p412
aatp413
Rp414
(dp415
g12
Vnsubj
p416
sbag0
(g1
g2
(lp417
(lp418
S"word: 's, index: 6"
p419
aatp420
Rp421
(dp422
g12
Vcop
p423
sbag0
(g1
g2
(lp424
(lp425
S'word: just, index: 7'
p426
aatp427
Rp428
(dp429
g12
Vadvmod
p430
sbag0
(g1
g2
(lp431
(lp432
S'word: a, index: 8'
p433
aatp434
Rp435
(dp436
g12
Vdet
p437
sbag0
(g1
g2
(lp438
(lp439
S'word: pond, index: 11'
p440
aatp441
Rp442
(dp443
g12
Vconj
p444
sbatp445
Rp446
(dp447
g12
S'word: lake, index: 9'
p448
sbatp449
Rp450
(dp451
g12
Vadvcl
p452
sbag0
(g1
g2
(lp453
(lp454
S'word: pond, index: 11'
p455
aatp456
Rp457
(dp458
g12
Vadvcl
p459
sbatp460
Rp461
(dp462
g12
S'word: looks, index: 3'
p463
sbatp464
Rp465
(dp466
g12
S'id: 4'
p467
sbag0
(g1
g2
(lp468
g0
(g1
g2
(lp469
g0
(g1
g2
(lp470
(lp471
S'word: there, index: 1'
p472
aatp473
Rp474
(dp475
g12
Vexpl
p476
sbag0
(g1
g2
(lp477
g0
(g1
g2
(lp478
g0
(g1
g2
(lp479
(lp480
S'word: a, index: 3'
p481
aatp482
Rp483
(dp484
g12
Vdet
p485
sbag0
(g1
g2
(lp486
(lp487
S'word: out, index: 5'
p488
aatp489
Rp490
(dp491
g12
Vdep
p492
sbag0
(g1
g2
(lp493
g0
(g1
g2
(lp494
g0
(g1
g2
(lp495
(lp496
S'word: the, index: 7'
p497
aatp498
Rp499
(dp500
g12
Vdet
p501
sbatp502
Rp503
(dp504
g12
S'word: pond, index: 8'
p505
sbatp506
Rp507
(dp508
g12
Vprep
p509
sbatp510
Rp511
(dp512
g12
S'word: sailboat, index: 4'
p513
sbatp514
Rp515
(dp516
g12
Vnsubj
p517
sbatp518
Rp519
(dp520
g12
S"word: 's, index: 2"
p521
sbatp522
Rp523
(dp524
g12
S'id: 5'
p525
sbag0
(g1
g2
(lp526
g0
(g1
g2
(lp527
g0
(g1
g2
(lp528
(lp529
S'word: it, index: 2'
p530
aatp531
Rp532
(dp533
g12
Vprep
p534
sbag0
(g1
g2
(lp535
g0
(g1
g2
(lp536
g0
(g1
g2
(lp537
(lp538
S'word: two, index: 4'
p539
aatp540
Rp541
(dp542
g12
Vnum
p543
sbag0
(g1
g2
(lp544
g0
(g1
g2
(lp545
g0
(g1
g2
(lp546
(lp547
S'word: the, index: 7'
p548
aatp549
Rp550
(dp551
g12
Vdet
p552
sbag0
(g1
g2
(lp553
(lp554
S'word: sail, index: 8'
p555
aatp556
Rp557
(dp558
g12
Vnn
p559
sbatp560
Rp561
(dp562
g12
S'word: boat, index: 9'
p563
sbatp564
Rp565
(dp566
g12
Vprep
p567
sbatp568
Rp569
(dp570
g12
S'word: people, index: 5'
p571
sbatp572
Rp573
(dp574
g12
Vnsubj
p575
sbatp576
Rp577
(dp578
g12
S'word: appears, index: 3'
p579
sbatp580
Rp581
(dp582
g12
S'id: 6'
p583
sbag0
(g1
g2
(lp584
g0
(g1
g2
(lp585
g0
(g1
g2
(lp586
g0
(g1
g2
(lp587
g0
(g1
g2
(lp588
(lp589
S'word: because, index: 6'
p590
aatp591
Rp592
(dp593
g12
Vmark
p594
sbag0
(g1
g2
(lp595
g0
(g1
g2
(lp596
g0
(g1
g2
(lp597
(lp598
S'word: the, index: 7'
p599
aatp600
Rp601
(dp602
g12
Vdet
p603
sbatp604
Rp605
(dp606
g12
S'word: flag, index: 8'
p607
sbatp608
Rp609
(dp610
g12
Vnsubj
p611
sbag0
(g1
g2
(lp612
(lp613
S'word: is, index: 9'
p614
aatp615
Rp616
(dp617
g12
Vaux
p618
sbag0
(g1
g2
(lp619
(lp620
S'word: out, index: 11'
p621
aatp622
Rp623
(dp624
g12
Vprt
p625
sbatp626
Rp627
(dp628
g12
S'word: flying, index: 10'
p629
sbatp630
Rp631
(dp632
g12
Vadvcl
p633
sbag0
(g1
g2
(lp634
(lp635
S'word: oh, index: 1'
p636
aatp637
Rp638
(dp639
g12
Vdiscourse
p640
sbag0
(g1
g2
(lp641
(lp642
S'word: it, index: 2'
p643
aatp644
Rp645
(dp646
g12
Vnsubj
p647
sbag0
(g1
g2
(lp648
(lp649
S'word: is, index: 3'
p650
aatp651
Rp652
(dp653
g12
Vcop
p654
sbag0
(g1
g2
(lp655
(lp656
S'word: windy, index: 4'
p657
aatp658
Rp659
(dp660
g12
Vamod
p661
sbatp662
Rp663
(dp664
g12
S'word: day, index: 5'
p665
sbatp666
Rp667
(dp668
g12
S'id: 7'
p669
sbag0
(g1
g2
(lp670
tp671
Rp672
(dp673
g12
S'id: 8'
p674
sbag0
(g1
g2
(lp675
g0
(g1
g2
(lp676
g0
(g1
g2
(lp677
(lp678
S'word: but, index: 1'
p679
aatp680
Rp681
(dp682
g12
Vcc
p683
sbag0
(g1
g2
(lp684
(lp685
S'word: there, index: 2'
p686
aatp687
Rp688
(dp689
g12
Vexpl
p690
sbag0
(g1
g2
(lp691
g0
(g1
g2
(lp692
g0
(g1
g2
(lp693
(lp694
S'word: a, index: 4'
p695
aatp696
Rp697
(dp698
g12
Vdet
p699
sbag0
(g1
g2
(lp700
g0
(g1
g2
(lp701
g0
(g1
g2
(lp702
g0
(g1
g2
(lp703
g0
(g1
g2
(lp704
(lp705
S'word: this, index: 10'
p706
aatp707
Rp708
(dp709
g12
Vdet
p710
sbatp711
Rp712
(dp713
g12
S'word: place, index: 11'
p714
sbatp715
Rp716
(dp717
g12
Vprep
p718
sbag0
(g1
g2
(lp719
(lp720
S'word: the, index: 7'
p721
aatp722
Rp723
(dp724
g12
Vdet
p725
sbatp726
Rp727
(dp728
g12
S'word: street, index: 8'
p729
sbatp730
Rp731
(dp732
g12
Vprep
p733
sbatp734
Rp735
(dp736
g12
S'word: house, index: 5'
p737
sbatp738
Rp739
(dp740
g12
Vnsubj
p741
sbatp742
Rp743
(dp744
g12
S"word: 's, index: 3"
p745
sbatp746
Rp747
(dp748
g12
S'id: 9'
p749
sbag0
(g1
g2
(lp750
g0
(g1
g2
(lp751
g0
(g1
g2
(lp752
g0
(g1
g2
(lp753
g0
(g1
g2
(lp754
(lp755
S'word: their, index: 15'
p756
aatp757
Rp758
(dp759
g12
Vposs
p760
sbatp761
Rp762
(dp763
g12
S'word: place, index: 16'
p764
sbatp765
Rp766
(dp767
g12
Vdobj
p768
sbag0
(g1
g2
(lp769
g0
(g1
g2
(lp770
g0
(g1
g2
(lp771
(lp772
S'word: so, index: 1'
p773
aatp774
Rp775
(dp776
g12
Vdep
p777
sbag0
(g1
g2
(lp778
(lp779
S'word: I, index: 2'
p780
aatp781
Rp782
(dp783
g12
Vnsubj
p784
sbag0
(g1
g2
(lp785
(lp786
S'word: do, index: 3'
p787
aatp788
Rp789
(dp790
g12
Vaux
p791
sbag0
(g1
g2
(lp792
(lp793
S"word: n't, index: 4"
p794
aatp795
Rp796
(dp797
g12
Vneg
p798
sbatp799
Rp800
(dp801
g12
S'word: know, index: 5'
p802
sbatp803
Rp804
(dp805
g12
Vccomp
p806
sbag0
(g1
g2
(lp807
(lp808
S'word: this, index: 7'
p809
aatp810
Rp811
(dp812
g12
Vnsubj
p813
sbag0
(g1
g2
(lp814
(lp815
S'word: must, index: 8'
p816
aatp817
Rp818
(dp819
g12
Vaux
p820
sbag0
(g1
g2
(lp821
g0
(g1
g2
(lp822
g0
(g1
g2
(lp823
g762
atp824
Rp825
(dp826
g12
Vconj
p827
sbag0
(g1
g2
(lp828
(lp829
S'word: a, index: 11'
p830
aatp831
Rp832
(dp833
g12
Vdet
p834
sbag0
(g1
g2
(lp835
(lp836
S'word: private, index: 12'
p837
aatp838
Rp839
(dp840
g12
Vamod
p841
sbatp842
Rp843
(dp844
g12
S'word: pond, index: 13'
p845
sbatp846
Rp847
(dp848
g12
Vdobj
p849
sbatp850
Rp851
(dp852
g12
S'word: be, index: 9'
p853
sbatp854
Rp855
(dp856
g12
S'id: 10'
p857
sbag0
(g1
g2
(lp858
g0
(g1
g2
(lp859
g0
(g1
g2
(lp860
g0
(g1
g2
(lp861
g0
(g1
g2
(lp862
g0
(g1
g2
(lp863
g0
(g1
g2
(lp864
(lp865
S'word: a, index: 3'
p866
aatp867
Rp868
(dp869
g12
Vdet
p870
sbatp871
Rp872
(dp873
g12
S'word: house, index: 4'
p874
sbatp875
Rp876
(dp877
g12
Vnsubj
p878
sbag0
(g1
g2
(lp879
(lp880
S'word: should, index: 5'
p881
aatp882
Rp883
(dp884
g12
Vaux
p885
sbag0
(g1
g2
(lp886
(lp887
S"word: n't, index: 6"
p888
aatp889
Rp890
(dp891
g12
Vneg
p892
sbag0
(g1
g2
(lp893
g0
(g1
g2
(lp894
g0
(g1
g2
(lp895
(lp896
S'word: so, index: 18'
p897
aatp898
Rp899
(dp900
g12
Vmark
p901
sbag0
(g1
g2
(lp902
(lp903
S'word: that, index: 19'
p904
aatp905
Rp906
(dp907
g12
Vnsubj
p908
sbag0
(g1
g2
(lp909
(lp910
S"word: 's, index: 20"
p911
aatp912
Rp913
(dp914
g12
Vcop
p915
sbag0
(g1
g2
(lp916
(lp917
S'word: very, index: 21'
p918
aatp919
Rp920
(dp921
g12
Vadvmod
p922
sbatp923
Rp924
(dp925
g12
S'word: interesting, index: 22'
p926
sbatp927
Rp928
(dp929
g12
Vadvcl
p930
sbag0
(g1
g2
(lp931
g0
(g1
g2
(lp932
g0
(g1
g2
(lp933
(lp934
S'word: a, index: 9'
p935
aatp936
Rp937
(dp938
g12
Vdet
p939
sbag0
(g1
g2
(lp940
(lp941
S'word: public, index: 10'
p942
aatp943
Rp944
(dp945
g12
Vamod
p946
sbag0
(g1
g2
(lp947
g0
(g1
g2
(lp948
g0
(g1
g2
(lp949
g0
(g1
g2
(lp950
g0
(g1
g2
(lp951
(lp952
S'word: recreation, index: 15'
p953
aatp954
Rp955
(dp956
g12
Vconj
p957
sbatp958
Rp959
(dp960
g12
S'word: lake, index: 13'
p961
sbatp962
Rp963
(dp964
g12
Vnn
p965
sbag0
(g1
g2
(lp966
(lp967
S'word: recreation, index: 15'
p968
aatp969
Rp970
(dp971
g12
Vnn
p972
sbatp973
Rp974
(dp975
g12
S'word: area, index: 16'
p976
sbatp977
Rp978
(dp979
g12
Vconj
p980
sbatp981
Rp982
(dp983
g12
S'word: pond, index: 11'
p984
sbatp985
Rp986
(dp987
g12
Vprep
p988
sbag0
(g1
g2
(lp989
g974
atp990
Rp991
(dp992
g12
Vprep
p993
sbatp994
Rp995
(dp996
g12
S'word: be, index: 7'
p997
sbatp998
Rp999
(dp1000
g12
Vccomp
p1001
sbatp1002
Rp1003
(dp1004
g12
S'word: cause, index: 2'
p1005
sbatp1006
Rp1007
(dp1008
g12
S'id: 11'
p1009
sbag0
(g1
g2
(lp1010
g0
(g1
g2
(lp1011
g0
(g1
g2
(lp1012
g0
(g1
g2
(lp1013
g0
(g1
g2
(lp1014
(lp1015
S'word: a, index: 3'
p1016
aatp1017
Rp1018
(dp1019
g12
Vdep
p1020
sbatp1021
Rp1022
(dp1023
g12
S'word: pretty, index: 4'
p1024
sbatp1025
Rp1026
(dp1027
g12
Vadvmod
p1028
sbag0
(g1
g2
(lp1029
(lp1030
S'word: that, index: 1'
p1031
aatp1032
Rp1033
(dp1034
g12
Vnsubj
p1035
sbag0
(g1
g2
(lp1036
(lp1037
S"word: 's, index: 2"
p1038
aatp1039
Rp1040
(dp1041
g12
Vcop
p1042
sbatp1043
Rp1044
(dp1045
g12
S'word: house, index: 5'
p1046
sbatp1047
Rp1048
(dp1049
g12
S'id: 12'
p1050
sbag0
(g1
g2
(lp1051
g0
(g1
g2
(lp1052
g0
(g1
g2
(lp1053
g0
(g1
g2
(lp1054
g0
(g1
g2
(lp1055
(lp1056
S'word: that, index: 7'
p1057
aatp1058
Rp1059
(dp1060
g12
Vdobj
p1061
sbag0
(g1
g2
(lp1062
(lp1063
S'word: tree, index: 8'
p1064
aatp1065
Rp1066
(dp1067
g12
Vnsubj
p1068
sbag0
(g1
g2
(lp1069
(lp1070
S'word: is, index: 9'
p1071
aatp1072
Rp1073
(dp1074
g12
Vcop
p1075
sbag0
(g1
g2
(lp1076
(lp1077
S'word: probably, index: 10'
p1078
aatp1079
Rp1080
(dp1081
g12
Vadvmod
p1082
sbag0
(g1
g2
(lp1083
(lp1084
S'word: pretty, index: 11'
p1085
aatp1086
Rp1087
(dp1088
g12
Vadvmod
p1089
sbag0
(g1
g2
(lp1090
g0
(g1
g2
(lp1091
g0
(g1
g2
(lp1092
(lp1093
S'word: to, index: 14'
p1094
aatp1095
Rp1096
(dp1097
g12
Vaux
p1098
sbag0
(g1
g2
(lp1099
(lp1100
S'word: be, index: 15'
p1101
aatp1102
Rp1103
(dp1104
g12
Vcop
p1105
sbag0
(g1
g2
(lp1106
(lp1107
S'word: that, index: 16'
p1108
aatp1109
Rp1110
(dp1111
g12
Vdep
p1112
sbatp1113
Rp1114
(dp1115
g12
S'word: big, index: 17'
p1116
sbatp1117
Rp1118
(dp1119
g12
Vxcomp
p1120
sbatp1121
Rp1122
(dp1123
g12
S'word: old, index: 12'
p1124
sbatp1125
Rp1126
(dp1127
g12
Vrcmod
p1128
sbag0
(g1
g2
(lp1129
(lp1130
S'word: that, index: 1'
p1131
aatp1132
Rp1133
(dp1134
g12
Vnsubj
p1135
sbag0
(g1
g2
(lp1136
(lp1137
S"word: 's, index: 2"
p1138
aatp1139
Rp1140
(dp1141
g12
Vcop
p1142
sbag0
(g1
g2
(lp1143
(lp1144
S'word: a, index: 3'
p1145
aatp1146
Rp1147
(dp1148
g12
Vdet
p1149
sbag0
(g1
g2
(lp1150
(lp1151
S'word: big, index: 4'
p1152
aatp1153
Rp1154
(dp1155
g12
Vamod
p1156
sbatp1157
Rp1158
(dp1159
g12
S'word: tree, index: 5'
p1160
sbatp1161
Rp1162
(dp1163
g12
S'id: 13'
p1164
sbag0
(g1
g2
(lp1165
g0
(g1
g2
(lp1166
g0
(g1
g2
(lp1167
g0
(g1
g2
(lp1168
g0
(g1
g2
(lp1169
g0
(g1
g2
(lp1170
g0
(g1
g2
(lp1171
g0
(g1
g2
(lp1172
g0
(g1
g2
(lp1173
(lp1174
S'word: the, index: 13'
p1175
aatp1176
Rp1177
(dp1178
g12
Vdet
p1179
sbag0
(g1
g2
(lp1180
(lp1181
S'word: front, index: 14'
p1182
aatp1183
Rp1184
(dp1185
g12
Vamod
p1186
sbatp1187
Rp1188
(dp1189
g12
S'word: door, index: 15'
p1190
sbatp1191
Rp1192
(dp1193
g12
Vprep
p1194
sbag0
(g1
g2
(lp1195
(lp1196
S'word: i, index: 17'
p1197
aatp1198
Rp1199
(dp1200
g12
Vappos
p1201
sbag0
(g1
g2
(lp1202
(lp1203
S'word: a, index: 6'
p1204
aatp1205
Rp1206
(dp1207
g12
Vdet
p1208
sbag0
(g1
g2
(lp1209
(lp1210
S'word: little, index: 7'
p1211
aatp1212
Rp1213
(dp1214
g12
Vamod
p1215
sbag0
(g1
g2
(lp1216
(lp1217
S'word: christmas, index: 9'
p1218
aatp1219
Rp1220
(dp1221
g12
Vamod
p1222
sbatp1223
Rp1224
(dp1225
g12
S'word: trees, index: 10'
p1226
sbatp1227
Rp1228
(dp1229
g12
Vnsubj
p1230
sbag0
(g1
g2
(lp1231
(lp1232
S'word: it, index: 28'
p1233
aatp1234
Rp1235
(dp1236
g12
Vdobj
p1237
sbatp1238
Rp1239
(dp1240
g12
S'word: decorate, index: 27'
p1241
sbatp1242
Rp1243
(dp1244
g12
Vccomp
p1245
sbag0
(g1
g2
(lp1246
g0
(g1
g2
(lp1247
g0
(g1
g2
(lp1248
(lp1249
S'word: they, index: 3'
p1250
aatp1251
Rp1252
(dp1253
g12
Vprep
p1254
sbatp1255
Rp1256
(dp1257
g12
S'word: looks, index: 1'
p1258
sbatp1259
Rp1260
(dp1261
g12
Vnsubj
p1262
sbag0
(g1
g2
(lp1263
g0
(g1
g2
(lp1264
g0
(g1
g2
(lp1265
g1224
atp1266
Rp1267
(dp1268
g12
Vnsubj
p1269
sbag0
(g1
g2
(lp1270
g1239
atp1271
Rp1272
(dp1273
g12
Vconj
p1274
sbag0
(g1
g2
(lp1275
g0
(g1
g2
(lp1276
g0
(g1
g2
(lp1277
(lp1278
S'word: they, index: 19'
p1279
aatp1280
Rp1281
(dp1282
g12
Vnsubj
p1283
sbag0
(g1
g2
(lp1284
g0
(g1
g2
(lp1285
g0
(g1
g2
(lp1286
(lp1287
S'word: it, index: 23'
p1288
aatp1289
Rp1290
(dp1291
g12
Vprep
p1292
sbatp1293
Rp1294
(dp1295
g12
S'word: lights, index: 21'
p1296
sbatp1297
Rp1298
(dp1299
g12
Vdobj
p1300
sbag0
(g1
g2
(lp1301
(lp1302
S'word: christmas, index: 25'
p1303
aatp1304
Rp1305
(dp1306
g12
Vprep
p1307
sbatp1308
Rp1309
(dp1310
g12
S'word: put, index: 20'
p1311
sbatp1312
Rp1313
(dp1314
g12
Vccomp
p1315
sbatp1316
Rp1317
(dp1318
g12
S'word: bet, index: 18'
p1319
sbatp1320
Rp1321
(dp1322
g12
Vccomp
p1323
sbag0
(g1
g2
(lp1324
(lp1325
S"word: 've, index: 4"
p1326
aatp1327
Rp1328
(dp1329
g12
Vaux
p1330
sbatp1331
Rp1332
(dp1333
g12
S'word: got, index: 5'
p1334
sbatp1335
Rp1336
(dp1337
g12
S'id: 14'
p1338
sbag0
(g1
g2
(lp1339
g0
(g1
g2
(lp1340
g0
(g1
g2
(lp1341
(lp1342
S'word: and, index: 1'
p1343
aatp1344
Rp1345
(dp1346
g12
Vcc
p1347
sbag0
(g1
g2
(lp1348
g0
(g1
g2
(lp1349
g0
(g1
g2
(lp1350
g0
(g1
g2
(lp1351
g0
(g1
g2
(lp1352
g0
(g1
g2
(lp1353
g0
(g1
g2
(lp1354
(lp1355
S'word: stuff, index: 31'
p1356
aatp1357
Rp1358
(dp1359
g12
Vprep
p1360
sbag0
(g1
g2
(lp1361
(lp1362
S'word: because, index: 25'
p1363
aatp1364
Rp1365
(dp1366
g12
Vmark
p1367
sbag0
(g1
g2
(lp1368
g0
(g1
g2
(lp1369
g0
(g1
g2
(lp1370
(lp1371
S'word: the, index: 26'
p1372
aatp1373
Rp1374
(dp1375
g12
Vdet
p1376
sbatp1377
Rp1378
(dp1379
g12
S'word: garage, index: 27'
p1380
sbatp1381
Rp1382
(dp1383
g12
Vnsubj
p1384
sbag0
(g1
g2
(lp1385
(lp1386
S'word: is, index: 28'
p1387
aatp1388
Rp1389
(dp1390
g12
Vcop
p1391
sbatp1392
Rp1393
(dp1394
g12
S'word: full, index: 29'
p1395
sbatp1396
Rp1397
(dp1398
g12
Vadvcl
p1399
sbag0
(g1
g2
(lp1400
(lp1401
S'word: it, index: 18'
p1402
aatp1403
Rp1404
(dp1405
g12
Vnsubj
p1406
sbag0
(g1
g2
(lp1407
(lp1408
S'word: ca, index: 19'
p1409
aatp1410
Rp1411
(dp1412
g12
Vaux
p1413
sbag0
(g1
g2
(lp1414
(lp1415
S"word: n't, index: 20"
p1416
aatp1417
Rp1418
(dp1419
g12
Vneg
p1420
sbag0
(g1
g2
(lp1421
g0
(g1
g2
(lp1422
g0
(g1
g2
(lp1423
(lp1424
S'word: the, index: 23'
p1425
aatp1426
Rp1427
(dp1428
g12
Vdet
p1429
sbatp1430
Rp1431
(dp1432
g12
S'word: garage, index: 24'
p1433
sbatp1434
Rp1435
(dp1436
g12
Vprep
p1437
sbatp1438
Rp1439
(dp1440
g12
S'word: go, index: 21'
p1441
sbatp1442
Rp1443
(dp1444
g12
Vccomp
p1445
sbatp1446
Rp1447
(dp1448
g12
S'word: bet, index: 17'
p1449
sbatp1450
Rp1451
(dp1452
g12
Vccomp
p1453
sbag0
(g1
g2
(lp1454
(lp1455
S'word: i, index: 2'
p1456
aatp1457
Rp1458
(dp1459
g12
Vnsubj
p1460
sbag0
(g1
g2
(lp1461
(lp1462
S'word: just, index: 3'
p1463
aatp1464
Rp1465
(dp1466
g12
Vadvmod
p1467
sbag0
(g1
g2
(lp1468
g0
(g1
g2
(lp1469
g0
(g1
g2
(lp1470
g0
(g1
g2
(lp1471
g0
(g1
g2
(lp1472
(lp1473
S'word: i, index: 16'
p1474
aatp1475
Rp1476
(dp1477
g12
Vdep
p1478
sbag0
(g1
g2
(lp1479
(lp1480
S'word: the, index: 11'
p1481
aatp1482
Rp1483
(dp1484
g12
Vdet
p1485
sbag0
(g1
g2
(lp1486
(lp1487
S'word: front, index: 12'
p1488
aatp1489
Rp1490
(dp1491
g12
Vnn
p1492
sbatp1493
Rp1494
(dp1495
g12
S'word: driveway, index: 14'
p1496
sbatp1497
Rp1498
(dp1499
g12
Vprep
p1500
sbag0
(g1
g2
(lp1501
(lp1502
S'word: that, index: 6'
p1503
aatp1504
Rp1505
(dp1506
g12
Vdet
p1507
sbag0
(g1
g2
(lp1508
(lp1509
S'word: car, index: 7'
p1510
aatp1511
Rp1512
(dp1513
g12
Vnn
p1514
sbatp1515
Rp1516
(dp1517
g12
S'word: sittin, index: 8'
p1518
sbatp1519
Rp1520
(dp1521
g12
Vprep
p1522
sbatp1523
Rp1524
(dp1525
g12
S'word: wonder, index: 4'
p1526
sbatp1527
Rp1528
(dp1529
g12
S'id: 15'
p1530
sbatp1531
Rp1532
(dp1533
g12
S'sentences'
p1534
sb.