ccopy_reg
_reconstructor
p0
(cnltk.tree
Tree
p1
c__builtin__
list
p2
(lp3
g0
(g1
g2
(lp4
g0
(g1
g2
(lp5
g0
(g1
g2
(lp6
(lp7
S'word: alright, index: 1'
p8
aatp9
Rp10
(dp11
S'_label'
p12
Vnsubj
p13
sbag0
(g1
g2
(lp14
g0
(g1
g2
(lp15
g0
(g1
g2
(lp16
(lp17
S'word: now, index: 3'
p18
aatp19
Rp20
(dp21
g12
Vadvmod
p22
sbatp23
Rp24
(dp25
g12
S'word: we, index: 4'
p26
sbatp27
Rp28
(dp29
g12
Vnsubj
p30
sbag0
(g1
g2
(lp31
g0
(g1
g2
(lp32
g0
(g1
g2
(lp33
(lp34
S'word: the, index: 7'
p35
aatp36
Rp37
(dp38
g12
Vdet
p39
sbag0
(g1
g2
(lp40
g0
(g1
g2
(lp41
g0
(g1
g2
(lp42
(lp43
S'word: the, index: 10'
p44
aatp45
Rp46
(dp47
g12
Vdet
p48
sbatp49
Rp50
(dp51
g12
S'word: mama, index: 11'
p52
sbatp53
Rp54
(dp55
g12
Vprep
p56
sbatp57
Rp58
(dp59
g12
S'word: kitchen, index: 8'
p60
sbatp61
Rp62
(dp63
g12
Vprep
p64
sbag0
(g1
g2
(lp65
g0
(g1
g2
(lp66
g0
(g1
g2
(lp67
g0
(g1
g2
(lp68
g0
(g1
g2
(lp69
(lp70
S'word: because, index: 16'
p71
aatp72
Rp73
(dp74
g12
Vmark
p75
sbag0
(g1
g2
(lp76
(lp77
S'word: she, index: 17'
p78
aatp79
Rp80
(dp81
g12
Vnsubj
p82
sbag0
(g1
g2
(lp83
(lp84
S'word: is, index: 18'
p85
aatp86
Rp87
(dp88
g12
Vcop
p89
sbag0
(g1
g2
(lp90
g0
(g1
g2
(lp91
g0
(g1
g2
(lp92
(lp93
S'word: the, index: 21'
p94
aatp95
Rp96
(dp97
g12
Vdet
p98
sbag0
(g1
g2
(lp99
g0
(g1
g2
(lp100
g0
(g1
g2
(lp101
(lp102
S'word: the, index: 24'
p103
aatp104
Rp105
(dp106
g12
Vdet
p107
sbag0
(g1
g2
(lp108
g0
(g1
g2
(lp109
g0
(g1
g2
(lp110
g0
(g1
g2
(lp111
g0
(g1
g2
(lp112
(lp113
S'word: the, index: 28'
p114
aatp115
Rp116
(dp117
g12
Vdet
p118
sbatp119
Rp120
(dp121
g12
S'word: floor, index: 29'
p122
sbatp123
Rp124
(dp125
g12
Vprep
p126
sbatp127
Rp128
(dp129
g12
S'word: overflowing, index: 26'
p130
sbatp131
Rp132
(dp133
g12
Vvmod
p134
sbatp135
Rp136
(dp137
g12
S'word: sink, index: 25'
p138
sbatp139
Rp140
(dp141
g12
Vprep
p142
sbatp143
Rp144
(dp145
g12
S'word: dishes, index: 22'
p146
sbatp147
Rp148
(dp149
g12
Vdep
p150
sbatp151
Rp152
(dp153
g12
S'word: washin, index: 19'
p154
sbatp155
Rp156
(dp157
g12
Vadvcl
p158
sbag0
(g1
g2
(lp159
(lp160
S'word: she, index: 13'
p161
aatp162
Rp163
(dp164
g12
Vnsubj
p165
sbag0
(g1
g2
(lp166
(lp167
S'word: is, index: 14'
p168
aatp169
Rp170
(dp171
g12
Vcop
p172
sbatp173
Rp174
(dp175
g12
S'word: frustrated, index: 15'
p176
sbatp177
Rp178
(dp179
g12
Vconj
p180
sbatp181
Rp182
(dp183
g12
S"word: 're, index: 5"
p184
sbatp185
Rp186
(dp187
g12
S'id: 0'
p188
sbag0
(g1
g2
(lp189
g0
(g1
g2
(lp190
g0
(g1
g2
(lp191
g0
(g1
g2
(lp192
g0
(g1
g2
(lp193
(lp194
S'word: her, index: 5'
p195
aatp196
Rp197
(dp198
g12
Vnsubj
p199
sbag0
(g1
g2
(lp200
(lp201
S'word: probably, index: 6'
p202
aatp203
Rp204
(dp205
g12
Vadvmod
p206
sbag0
(g1
g2
(lp207
(lp208
S'word: cookies, index: 8'
p209
aatp210
Rp211
(dp212
g12
Vdobj
p213
sbag0
(g1
g2
(lp214
g0
(g1
g2
(lp215
g0
(g1
g2
(lp216
(lp217
S'word: the, index: 11'
p218
aatp219
Rp220
(dp221
g12
Vdet
p222
sbag0
(g1
g2
(lp223
(lp224
S'word: cookie, index: 12'
p225
aatp226
Rp227
(dp228
g12
Vnn
p229
sbatp230
Rp231
(dp232
g12
S'word: jar, index: 13'
p233
sbatp234
Rp235
(dp236
g12
Vprep
p237
sbatp238
Rp239
(dp240
g12
S'word: stealing, index: 7'
p241
sbatp242
Rp243
(dp244
g12
Vprepc
p245
sbag0
(g1
g2
(lp246
g0
(g1
g2
(lp247
g0
(g1
g2
(lp248
(lp249
S'word: her, index: 1'
p250
aatp251
Rp252
(dp253
g12
Vposs
p254
sbatp255
Rp256
(dp257
g12
S'word: kids, index: 2'
p258
sbatp259
Rp260
(dp261
g12
Vnsubj
p262
sbatp263
Rp264
(dp265
g12
S'word: are, index: 3'
p266
sbatp267
Rp268
(dp269
g12
S'id: 1'
p270
sbag0
(g1
g2
(lp271
g0
(g1
g2
(lp272
g0
(g1
g2
(lp273
(lp274
S'word: over, index: 6'
p275
aatp276
Rp277
(dp278
g12
Vprt
p279
sbag0
(g1
g2
(lp280
g0
(g1
g2
(lp281
g0
(g1
g2
(lp282
(lp283
S'word: the, index: 8'
p284
aatp285
Rp286
(dp287
g12
Vdet
p288
sbag0
(g1
g2
(lp289
(lp290
S'word: little, index: 9'
p291
aatp292
Rp293
(dp294
g12
Vamod
p295
sbag0
(g1
g2
(lp296
(lp297
S"word: 's, index: 11"
p298
aatp299
Rp300
(dp301
g12
Vpossessive
p302
sbag0
(g1
g2
(lp303
g0
(g1
g2
(lp304
g0
(g1
g2
(lp305
(lp306
S'word: getting, index: 12'
p307
aatp308
Rp309
(dp310
g12
Vdep
p311
sbatp312
Rp313
(dp314
g12
S'word: ready, index: 13'
p315
sbatp316
Rp317
(dp318
g12
Vvmod
p319
sbatp320
Rp321
(dp322
g12
S'word: boy, index: 10'
p323
sbatp324
Rp325
(dp326
g12
Vdobj
p327
sbag0
(g1
g2
(lp328
g0
(g1
g2
(lp329
g0
(g1
g2
(lp330
(lp331
S'word: to, index: 14'
p332
aatp333
Rp334
(dp335
g12
Vaux
p336
sbag0
(g1
g2
(lp337
g0
(g1
g2
(lp338
g0
(g1
g2
(lp339
(lp340
S'word: an, index: 16'
p341
aatp342
Rp343
(dp344
g12
Vdet
p345
sbag0
(g1
g2
(lp346
g0
(g1
g2
(lp347
g0
(g1
g2
(lp348
(lp349
S'word: it, index: 22'
p350
aatp351
Rp352
(dp353
g12
Vprep
p354
sbag0
(g1
g2
(lp355
(lp356
S'word: which, index: 18'
p357
aatp358
Rp359
(dp360
g12
Vnsubj
p361
sbag0
(g1
g2
(lp362
(lp363
S'word: will, index: 19'
p364
aatp365
Rp366
(dp367
g12
Vaux
p368
sbatp369
Rp370
(dp371
g12
S'word: add, index: 20'
p372
sbatp373
Rp374
(dp375
g12
Vrcmod
p376
sbatp377
Rp378
(dp379
g12
S'word: accident, index: 17'
p380
sbatp381
Rp382
(dp383
g12
Vdobj
p384
sbatp385
Rp386
(dp387
g12
S'word: have, index: 15'
p388
sbatp389
Rp390
(dp391
g12
Vxcomp
p392
sbag0
(g1
g2
(lp393
(lp394
S'word: and, index: 1'
p395
aatp396
Rp397
(dp398
g12
Vcc
p399
sbag0
(g1
g2
(lp400
g0
(g1
g2
(lp401
g0
(g1
g2
(lp402
(lp403
S'word: the, index: 2'
p404
aatp405
Rp406
(dp407
g12
Vdet
p408
sbatp409
Rp410
(dp411
g12
S'word: stool, index: 3'
p412
sbatp413
Rp414
(dp415
g12
Vnsubj
p416
sbag0
(g1
g2
(lp417
(lp418
S'word: is, index: 4'
p419
aatp420
Rp421
(dp422
g12
Vaux
p423
sbatp424
Rp425
(dp426
g12
S'word: turning, index: 5'
p427
sbatp428
Rp429
(dp430
g12
S'id: 2'
p431
sbag0
(g1
g2
(lp432
tp433
Rp434
(dp435
g12
S'id: 3'
p436
sbag0
(g1
g2
(lp437
g0
(g1
g2
(lp438
g0
(g1
g2
(lp439
g0
(g1
g2
(lp440
g0
(g1
g2
(lp441
g0
(g1
g2
(lp442
g0
(g1
g2
(lp443
(lp444
S'word: the, index: 15'
p445
aatp446
Rp447
(dp448
g12
Vdet
p449
sbatp450
Rp451
(dp452
g12
S'word: cookies, index: 16'
p453
sbatp454
Rp455
(dp456
g12
Vprep
p457
sbatp458
Rp459
(dp460
g12
S'word: one, index: 13'
p461
sbatp462
Rp463
(dp464
g12
Vdep
p465
sbag0
(g1
g2
(lp466
(lp467
S'word: the, index: 1'
p468
aatp469
Rp470
(dp471
g12
Vdet
p472
sbag0
(g1
g2
(lp473
(lp474
S'word: little, index: 2'
p475
aatp476
Rp477
(dp478
g12
Vamod
p479
sbag0
(g1
g2
(lp480
(lp481
S'word: girl, index: 3'
p482
aatp483
Rp484
(dp485
g12
Vposs
p486
sbag0
(g1
g2
(lp487
g0
(g1
g2
(lp488
g0
(g1
g2
(lp489
g0
(g1
g2
(lp490
g0
(g1
g2
(lp491
(lp492
S'word: she, index: 9'
p493
aatp494
Rp495
(dp496
g12
Vdobj
p497
sbatp498
Rp499
(dp500
g12
S'word: cause, index: 8'
p501
sbatp502
Rp503
(dp504
g12
Vcsubj
p505
sbag0
(g1
g2
(lp506
(lp507
S"word: 's, index: 10"
p508
aatp509
Rp510
(dp511
g12
Vcop
p512
sbatp513
Rp514
(dp515
g12
S'word: wantin, index: 11'
p516
sbatp517
Rp518
(dp519
g12
Vdep
p520
sbatp521
Rp522
(dp523
g12
S'word: participatin, index: 5'
p524
sbatp525
Rp526
(dp527
g12
S'id: 4'
p528
sbag0
(g1
g2
(lp529
g0
(g1
g2
(lp530
g0
(g1
g2
(lp531
g0
(g1
g2
(lp532
g0
(g1
g2
(lp533
g0
(g1
g2
(lp534
g0
(g1
g2
(lp535
(lp536
S'word: like, index: 2'
p537
aatp538
Rp539
(dp540
g12
Vmark
p541
sbag0
(g1
g2
(lp542
(lp543
S'word: she, index: 3'
p544
aatp545
Rp546
(dp547
g12
Vnsubj
p548
sbag0
(g1
g2
(lp549
(lp550
S'word: might, index: 4'
p551
aatp552
Rp553
(dp554
g12
Vaux
p555
sbag0
(g1
g2
(lp556
(lp557
S'word: be, index: 5'
p558
aatp559
Rp560
(dp561
g12
Vcop
p562
sbatp563
Rp564
(dp565
g12
S'word: cryin, index: 6'
p566
sbatp567
Rp568
(dp569
g12
Vdep
p570
sbatp571
Rp572
(dp573
g12
S'word: looks, index: 1'
p574
sbatp575
Rp576
(dp577
g12
Vnsubj
p578
sbag0
(g1
g2
(lp579
(lp580
S'word: could, index: 9'
p581
aatp582
Rp583
(dp584
g12
Vaux
p585
sbag0
(g1
g2
(lp586
g0
(g1
g2
(lp587
g0
(g1
g2
(lp588
g0
(g1
g2
(lp589
g0
(g1
g2
(lp590
g0
(g1
g2
(lp591
g0
(g1
g2
(lp592
(lp593
S'word: that, index: 16'
p594
aatp595
Rp596
(dp597
g12
Vdet
p598
sbatp599
Rp600
(dp601
g12
S'word: picture, index: 17'
p602
sbatp603
Rp604
(dp605
g12
Vprep
p606
sbag0
(g1
g2
(lp607
(lp608
S'word: to, index: 13'
p609
aatp610
Rp611
(dp612
g12
Vaux
p613
sbatp614
Rp615
(dp616
g12
S'word: tell, index: 14'
p617
sbatp618
Rp619
(dp620
g12
Vxcomp
p621
sbatp622
Rp623
(dp624
g12
S'word: hard, index: 12'
p625
sbatp626
Rp627
(dp628
g12
Vacomp
p629
sbatp630
Rp631
(dp632
g12
S'word: be, index: 10'
p633
sbatp634
Rp635
(dp636
g12
S'id: 5'
p637
sbag0
(g1
g2
(lp638
g0
(g1
g2
(lp639
g0
(g1
g2
(lp640
(lp641
S"word: 's, index: 2"
p642
aatp643
Rp644
(dp645
g12
Vcop
p646
sbag0
(g1
g2
(lp647
(lp648
S'word: that, index: 1'
p649
aatp650
Rp651
(dp652
g12
Vnsubj
p653
sbatp654
Rp655
(dp656
g12
S'word: all, index: 3'
p657
sbatp658
Rp659
(dp660
g12
S'id: 6'
p661
sbatp662
Rp663
(dp664
g12
S'sentences'
p665
sb.