ccopy_reg
_reconstructor
p0
(cnltk.tree
Tree
p1
c__builtin__
list
p2
(lp3
g0
(g1
g2
(lp4
g0
(g1
g2
(lp5
g0
(g1
g2
(lp6
g0
(g1
g2
(lp7
g0
(g1
g2
(lp8
Valright
p9
atp10
Rp11
(dp12
S'_label'
p13
VNN
p14
sbatp15
Rp16
(dp17
g13
VNP
p18
sbag0
(g1
g2
(lp19
V,
p20
atp21
Rp22
(dp23
g13
V,
p24
sbag0
(g1
g2
(lp25
g0
(g1
g2
(lp26
g0
(g1
g2
(lp27
g0
(g1
g2
(lp28
Vi
p29
atp30
Rp31
(dp32
g13
VFW
p33
sbatp34
Rp35
(dp36
g13
VNP
p37
sbag0
(g1
g2
(lp38
g0
(g1
g2
(lp39
g0
(g1
g2
(lp40
g0
(g1
g2
(lp41
Vsee
p42
atp43
Rp44
(dp45
g13
VVB
p46
sbag0
(g1
g2
(lp47
g0
(g1
g2
(lp48
g0
(g1
g2
(lp49
g0
(g1
g2
(lp50
Va
p51
atp52
Rp53
(dp54
g13
VDT
p55
sbag0
(g1
g2
(lp56
Vlittle
p57
atp58
Rp59
(dp60
g13
VJJ
p61
sbag0
(g1
g2
(lp62
Vboy
p63
atp64
Rp65
(dp66
g13
VNN
p67
sbatp68
Rp69
(dp70
g13
VNP
p71
sbag0
(g1
g2
(lp72
g0
(g1
g2
(lp73
Vstealing
p74
atp75
Rp76
(dp77
g13
VVBG
p78
sbag0
(g1
g2
(lp79
g0
(g1
g2
(lp80
Vcookies
p81
atp82
Rp83
(dp84
g13
VNNS
p85
sbatp86
Rp87
(dp88
g13
VNP
p89
sbag0
(g1
g2
(lp90
g0
(g1
g2
(lp91
Vfrom
p92
atp93
Rp94
(dp95
g13
VIN
p96
sbag0
(g1
g2
(lp97
g0
(g1
g2
(lp98
Vthe
p99
atp100
Rp101
(dp102
g13
VDT
p103
sbag0
(g1
g2
(lp104
Vcookie
p105
atp106
Rp107
(dp108
g13
VNN
p109
sbag0
(g1
g2
(lp110
Vjar
p111
atp112
Rp113
(dp114
g13
VNN
p115
sbatp116
Rp117
(dp118
g13
VNP
p119
sbatp120
Rp121
(dp122
g13
VPP
p123
sbag0
(g1
g2
(lp124
V,
p125
atp126
Rp127
(dp128
g13
V,
p129
sbag0
(g1
g2
(lp130
g0
(g1
g2
(lp131
Valthough
p132
atp133
Rp134
(dp135
g13
VIN
p136
sbag0
(g1
g2
(lp137
g0
(g1
g2
(lp138
g0
(g1
g2
(lp139
V,
p140
atp141
Rp142
(dp143
g13
V,
p144
sbag0
(g1
g2
(lp145
g0
(g1
g2
(lp146
Vthe
p147
atp148
Rp149
(dp150
g13
VDT
p151
sbatp152
Rp153
(dp154
g13
VNP
p155
sbatp156
Rp157
(dp158
g13
VFRAG
p159
sbag0
(g1
g2
(lp160
V,
p161
atp162
Rp163
(dp164
g13
V,
p165
sbag0
(g1
g2
(lp166
g0
(g1
g2
(lp167
Vhe
p168
atp169
Rp170
(dp171
g13
VPRP
p172
sbatp173
Rp174
(dp175
g13
VNP
p176
sbag0
(g1
g2
(lp177
g0
(g1
g2
(lp178
V's
p179
atp180
Rp181
(dp182
g13
VVBZ
p183
sbag0
(g1
g2
(lp184
g0
(g1
g2
(lp185
Vstarting
p186
atp187
Rp188
(dp189
g13
VVBG
p190
sbag0
(g1
g2
(lp191
g0
(g1
g2
(lp192
Vto
p193
atp194
Rp195
(dp196
g13
VTO
p197
sbatp198
Rp199
(dp200
g13
VPP
p201
sbatp202
Rp203
(dp204
g13
VVP
p205
sbatp206
Rp207
(dp208
g13
VVP
p209
sbatp210
Rp211
(dp212
g13
VS
p213
sbatp214
Rp215
(dp216
g13
VSBAR
p217
sbatp218
Rp219
(dp220
g13
VVP
p221
sbatp222
Rp223
(dp224
g13
VNP
p225
sbag0
(g1
g2
(lp226
V,
p227
atp228
Rp229
(dp230
g13
V,
p231
sbag0
(g1
g2
(lp232
g0
(g1
g2
(lp233
Vthe
p234
atp235
Rp236
(dp237
g13
VDT
p238
sbag0
(g1
g2
(lp239
Vstool
p240
atp241
Rp242
(dp243
g13
VNN
p244
sbag0
(g1
g2
(lp245
V's
p246
atp247
Rp248
(dp249
g13
VPOS
p250
sbatp251
Rp252
(dp253
g13
VNP
p254
sbatp255
Rp256
(dp257
g13
VNP
p258
sbatp259
Rp260
(dp261
g13
VVP
p262
sbatp263
Rp264
(dp265
g13
VS
p266
sbatp267
Rp268
(dp269
g13
VSBAR
p270
sbatp271
Rp272
(dp273
g13
VNP
p274
sbag0
(g1
g2
(lp275
g0
(g1
g2
(lp276
Vstarting
p277
atp278
Rp279
(dp280
g13
VVBG
p281
sbag0
(g1
g2
(lp282
g0
(g1
g2
(lp283
g0
(g1
g2
(lp284
Vto
p285
atp286
Rp287
(dp288
g13
VTO
p289
sbag0
(g1
g2
(lp290
g0
(g1
g2
(lp291
Vtilt
p292
atp293
Rp294
(dp295
g13
VVB
p296
sbag0
(g1
g2
(lp297
g0
(g1
g2
(lp298
Vover
p299
atp300
Rp301
(dp302
g13
VRP
p303
sbatp304
Rp305
(dp306
g13
VPRT
p307
sbag0
(g1
g2
(lp308
g0
(g1
g2
(lp309
Vso
p310
atp311
Rp312
(dp313
g13
VRB
p314
sbag0
(g1
g2
(lp315
g0
(g1
g2
(lp316
g0
(g1
g2
(lp317
Vhe
p318
atp319
Rp320
(dp321
g13
VPRP
p322
sbatp323
Rp324
(dp325
g13
VNP
p326
sbag0
(g1
g2
(lp327
g0
(g1
g2
(lp328
V's
p329
atp330
Rp331
(dp332
g13
VVBZ
p333
sbag0
(g1
g2
(lp334
g0
(g1
g2
(lp335
Vgon
p336
atp337
Rp338
(dp339
g13
VVBG
p340
sbag0
(g1
g2
(lp341
g0
(g1
g2
(lp342
g0
(g1
g2
(lp343
Vna
p344
atp345
Rp346
(dp347
g13
VTO
p348
sbag0
(g1
g2
(lp349
g0
(g1
g2
(lp350
Vfall
p351
atp352
Rp353
(dp354
g13
VVB
p355
sbatp356
Rp357
(dp358
g13
VVP
p359
sbatp360
Rp361
(dp362
g13
VVP
p363
sbatp364
Rp365
(dp366
g13
VS
p367
sbatp368
Rp369
(dp370
g13
VVP
p371
sbatp372
Rp373
(dp374
g13
VVP
p375
sbatp376
Rp377
(dp378
g13
VS
p379
sbatp380
Rp381
(dp382
g13
VSBAR
p383
sbatp384
Rp385
(dp386
g13
VVP
p387
sbatp388
Rp389
(dp390
g13
VVP
p391
sbatp392
Rp393
(dp394
g13
VS
p395
sbatp396
Rp397
(dp398
g13
VVP
p399
sbatp400
Rp401
(dp402
g13
VNP
p403
sbag0
(g1
g2
(lp404
V,
p405
atp406
Rp407
(dp408
g13
V,
p409
sbatp410
Rp411
(dp412
g13
VNP
p413
sbag0
(g1
g2
(lp414
g0
(g1
g2
(lp415
Vlooks
p416
atp417
Rp418
(dp419
g13
VVBZ
p420
sbag0
(g1
g2
(lp421
g0
(g1
g2
(lp422
Vlike
p423
atp424
Rp425
(dp426
g13
VIN
p427
sbatp428
Rp429
(dp430
g13
VPP
p431
sbatp432
Rp433
(dp434
g13
VVP
p435
sbag0
(g1
g2
(lp436
V.
p437
atp438
Rp439
(dp440
g13
V.
p441
sbatp442
Rp443
(dp444
g13
VS
p445
sbatp446
Rp447
(dp448
g13
S'id: 0'
p449
sbag0
(g1
g2
(lp450
g0
(g1
g2
(lp451
g0
(g1
g2
(lp452
Vand
p453
atp454
Rp455
(dp456
g13
VCC
p457
sbag0
(g1
g2
(lp458
g0
(g1
g2
(lp459
Vthe
p460
atp461
Rp462
(dp463
g13
VDT
p464
sbag0
(g1
g2
(lp465
Vlittle
p466
atp467
Rp468
(dp469
g13
VJJ
p470
sbag0
(g1
g2
(lp471
Vgirl
p472
atp473
Rp474
(dp475
g13
VNN
p476
sbatp477
Rp478
(dp479
g13
VNP
p480
sbag0
(g1
g2
(lp481
g0
(g1
g2
(lp482
Vlooks
p483
atp484
Rp485
(dp486
g13
VVBZ
p487
sbag0
(g1
g2
(lp488
g0
(g1
g2
(lp489
Vlike
p490
atp491
Rp492
(dp493
g13
VIN
p494
sbag0
(g1
g2
(lp495
g0
(g1
g2
(lp496
g0
(g1
g2
(lp497
Vshe
p498
atp499
Rp500
(dp501
g13
VPRP
p502
sbatp503
Rp504
(dp505
g13
VNP
p506
sbag0
(g1
g2
(lp507
g0
(g1
g2
(lp508
V's
p509
atp510
Rp511
(dp512
g13
VVBZ
p513
sbag0
(g1
g2
(lp514
g0
(g1
g2
(lp515
Vsaying
p516
atp517
Rp518
(dp519
g13
VVBG
p520
sbag0
(g1
g2
(lp521
g0
(g1
g2
(lp522
Vshh
p523
atp524
Rp525
(dp526
g13
VRB
p527
sbatp528
Rp529
(dp530
g13
VADVP
p531
sbag0
(g1
g2
(lp532
V,
p533
atp534
Rp535
(dp536
g13
V,
p537
sbag0
(g1
g2
(lp538
g0
(g1
g2
(lp539
Vas
p540
atp541
Rp542
(dp543
g13
VIN
p544
sbag0
(g1
g2
(lp545
Vin
p546
atp547
Rp548
(dp549
g13
VIN
p550
sbag0
(g1
g2
(lp551
g0
(g1
g2
(lp552
g0
(g1
g2
(lp553
Vdo
p554
atp555
Rp556
(dp557
g13
VVBP
p558
sbag0
(g1
g2
(lp559
Vn't
p560
atp561
Rp562
(dp563
g13
VRB
p564
sbag0
(g1
g2
(lp565
g0
(g1
g2
(lp566
Vtell
p567
atp568
Rp569
(dp570
g13
VVB
p571
sbag0
(g1
g2
(lp572
g0
(g1
g2
(lp573
Vthat
p574
atp575
Rp576
(dp577
g13
VIN
p578
sbag0
(g1
g2
(lp579
g0
(g1
g2
(lp580
g0
(g1
g2
(lp581
Vthey
p582
atp583
Rp584
(dp585
g13
VPRP
p586
sbatp587
Rp588
(dp589
g13
VNP
p590
sbag0
(g1
g2
(lp591
g0
(g1
g2
(lp592
V're
p593
atp594
Rp595
(dp596
g13
VVBP
p597
sbag0
(g1
g2
(lp598
g0
(g1
g2
(lp599
Vstealing
p600
atp601
Rp602
(dp603
g13
VVBG
p604
sbag0
(g1
g2
(lp605
g0
(g1
g2
(lp606
Vcookies
p607
atp608
Rp609
(dp610
g13
VNNS
p611
sbatp612
Rp613
(dp614
g13
VNP
p615
sbatp616
Rp617
(dp618
g13
VVP
p619
sbatp620
Rp621
(dp622
g13
VVP
p623
sbatp624
Rp625
(dp626
g13
VS
p627
sbatp628
Rp629
(dp630
g13
VSBAR
p631
sbatp632
Rp633
(dp634
g13
VVP
p635
sbatp636
Rp637
(dp638
g13
VVP
p639
sbatp640
Rp641
(dp642
g13
VS
p643
sbatp644
Rp645
(dp646
g13
VSBAR
p647
sbatp648
Rp649
(dp650
g13
VVP
p651
sbatp652
Rp653
(dp654
g13
VVP
p655
sbatp656
Rp657
(dp658
g13
VS
p659
sbatp660
Rp661
(dp662
g13
VSBAR
p663
sbatp664
Rp665
(dp666
g13
VVP
p667
sbag0
(g1
g2
(lp668
V.
p669
atp670
Rp671
(dp672
g13
V.
p673
sbatp674
Rp675
(dp676
g13
VS
p677
sbatp678
Rp679
(dp680
g13
S'id: 1'
p681
sbag0
(g1
g2
(lp682
g0
(g1
g2
(lp683
g0
(g1
g2
(lp684
Vand
p685
atp686
Rp687
(dp688
g13
VCC
p689
sbag0
(g1
g2
(lp690
g0
(g1
g2
(lp691
Vthe
p692
atp693
Rp694
(dp695
g13
VDT
p696
sbag0
(g1
g2
(lp697
Vmom
p698
atp699
Rp700
(dp701
g13
VNN
p702
sbag0
(g1
g2
(lp703
g0
(g1
g2
(lp704
g0
(g1
g2
(lp705
g0
(g1
g2
(lp706
Vis
p707
atp708
Rp709
(dp710
g13
VVBZ
p711
sbag0
(g1
g2
(lp712
g0
(g1
g2
(lp713
Vwashing
p714
atp715
Rp716
(dp717
g13
VVBG
p718
sbag0
(g1
g2
(lp719
g0
(g1
g2
(lp720
Vdishes
p721
atp722
Rp723
(dp724
g13
VNNS
p725
sbatp726
Rp727
(dp728
g13
VNP
p729
sbag0
(g1
g2
(lp730
g0
(g1
g2
(lp731
Vat
p732
atp733
Rp734
(dp735
g13
VIN
p736
sbag0
(g1
g2
(lp737
g0
(g1
g2
(lp738
g0
(g1
g2
(lp739
Vthe
p740
atp741
Rp742
(dp743
g13
VDT
p744
sbag0
(g1
g2
(lp745
Vsink
p746
atp747
Rp748
(dp749
g13
VNN
p750
sbatp751
Rp752
(dp753
g13
VNP
p754
sbag0
(g1
g2
(lp755
g0
(g1
g2
(lp756
Vbut
p757
atp758
Rp759
(dp760
g13
VCC
p761
sbag0
(g1
g2
(lp762
g0
(g1
g2
(lp763
g0
(g1
g2
(lp764
Vthe
p765
atp766
Rp767
(dp768
g13
VDT
p769
sbag0
(g1
g2
(lp770
Vsink
p771
atp772
Rp773
(dp774
g13
VNN
p775
sbatp776
Rp777
(dp778
g13
VNP
p779
sbag0
(g1
g2
(lp780
V,
p781
atp782
Rp783
(dp784
g13
V,
p785
sbag0
(g1
g2
(lp786
g0
(g1
g2
(lp787
Vthe
p788
atp789
Rp790
(dp791
g13
VDT
p792
sbag0
(g1
g2
(lp793
Vwater
p794
atp795
Rp796
(dp797
g13
VNN
p798
sbag0
(g1
g2
(lp799
V's
p800
atp801
Rp802
(dp803
g13
VPOS
p804
sbatp805
Rp806
(dp807
g13
VNP
p808
sbag0
(g1
g2
(lp809
V,
p810
atp811
Rp812
(dp813
g13
V,
p814
sbag0
(g1
g2
(lp815
g0
(g1
g2
(lp816
Vspilling
p817
atp818
Rp819
(dp820
g13
VNN
p821
sbatp822
Rp823
(dp824
g13
VNP
p825
sbatp826
Rp827
(dp828
g13
VNP
p829
sbatp830
Rp831
(dp832
g13
VPP
p833
sbatp834
Rp835
(dp836
g13
VNP
p837
sbatp838
Rp839
(dp840
g13
VPP
p841
sbag0
(g1
g2
(lp842
g0
(g1
g2
(lp843
Vout
p844
atp845
Rp846
(dp847
g13
VIN
p848
sbag0
(g1
g2
(lp849
g0
(g1
g2
(lp850
Vover
p851
atp852
Rp853
(dp854
g13
VIN
p855
sbag0
(g1
g2
(lp856
g0
(g1
g2
(lp857
Vthe
p858
atp859
Rp860
(dp861
g13
VDT
p862
sbag0
(g1
g2
(lp863
Vsink
p864
atp865
Rp866
(dp867
g13
VNN
p868
sbatp869
Rp870
(dp871
g13
VNP
p872
sbatp873
Rp874
(dp875
g13
VPP
p876
sbatp877
Rp878
(dp879
g13
VADVP
p880
sbatp881
Rp882
(dp883
g13
VVP
p884
sbatp885
Rp886
(dp887
g13
VVP
p888
sbatp889
Rp890
(dp891
g13
VS
p892
sbatp893
Rp894
(dp895
g13
VSBAR
p896
sbatp897
Rp898
(dp899
g13
VNP
p900
sbatp901
Rp902
(dp903
g13
VFRAG
p904
sbatp905
Rp906
(dp907
g13
S'id: 2'
p908
sbatp909
Rp910
(dp911
g13
S'sentences'
p912
sb.