ccopy_reg
_reconstructor
p0
(cnltk.tree
Tree
p1
c__builtin__
list
p2
(lp3
g0
(g1
g2
(lp4
g0
(g1
g2
(lp5
g0
(g1
g2
(lp6
(lp7
S'word: okay, index: 1'
p8
aatp9
Rp10
(dp11
S'_label'
p12
Vdep
p13
sbag0
(g1
g2
(lp14
(lp15
S'word: it, index: 2'
p16
aatp17
Rp18
(dp19
g12
Vnsubj
p20
sbag0
(g1
g2
(lp21
(lp22
S"word: 's, index: 3"
p23
aatp24
Rp25
(dp26
g12
Vcop
p27
sbag0
(g1
g2
(lp28
(lp29
S'word: a, index: 4'
p30
aatp31
Rp32
(dp33
g12
Vdet
p34
sbatp35
Rp36
(dp37
g12
S'word: circus, index: 5'
p38
sbatp39
Rp40
(dp41
g12
S'id: 0'
p42
sbag0
(g1
g2
(lp43
g0
(g1
g2
(lp44
g0
(g1
g2
(lp45
g0
(g1
g2
(lp46
g0
(g1
g2
(lp47
(lp48
S'word: throwing, index: 6'
p49
aatp50
Rp51
(dp52
g12
Vprepc
p53
sbatp54
Rp55
(dp56
g12
S'word: looks, index: 4'
p57
sbatp58
Rp59
(dp60
g12
Vccomp
p61
sbag0
(g1
g2
(lp62
(lp63
S'word: i, index: 8'
p64
aatp65
Rp66
(dp67
g12
Vnsubj
p68
sbag0
(g1
g2
(lp69
(lp70
S'word: do, index: 9'
p71
aatp72
Rp73
(dp74
g12
Vaux
p75
sbag0
(g1
g2
(lp76
(lp77
S"word: n't, index: 10"
p78
aatp79
Rp80
(dp81
g12
Vneg
p82
sbag0
(g1
g2
(lp83
g0
(g1
g2
(lp84
g0
(g1
g2
(lp85
(lp86
S'word: if, index: 12'
p87
aatp88
Rp89
(dp90
g12
Vmark
p91
sbag0
(g1
g2
(lp92
(lp93
S'word: it, index: 13'
p94
aatp95
Rp96
(dp97
g12
Vnsubj
p98
sbag0
(g1
g2
(lp99
(lp100
S"word: 's, index: 14"
p101
aatp102
Rp103
(dp104
g12
Vcop
p105
sbag0
(g1
g2
(lp106
(lp107
S'word: popcorn, index: 17'
p108
aatp109
Rp110
(dp111
g12
Vconj
p112
sbatp113
Rp114
(dp115
g12
S'word: confetti, index: 15'
p116
sbatp117
Rp118
(dp119
g12
Vadvcl
p120
sbag0
(g1
g2
(lp121
(lp122
S'word: there, index: 1'
p123
aatp124
Rp125
(dp126
g12
Vadvmod
p127
sbag0
(g1
g2
(lp128
(lp129
S'word: popcorn, index: 17'
p130
aatp131
Rp132
(dp133
g12
Vadvcl
p134
sbag0
(g1
g2
(lp135
(lp136
S'word: clowns, index: 2'
p137
aatp138
Rp139
(dp140
g12
Vnsubj
p141
sbatp142
Rp143
(dp144
g12
S'word: know, index: 11'
p145
sbatp146
Rp147
(dp148
g12
S'id: 1'
p149
sbag0
(g1
g2
(lp150
g0
(g1
g2
(lp151
g0
(g1
g2
(lp152
(lp153
S'word: a, index: 1'
p154
aatp155
Rp156
(dp157
g12
Vdet
p158
sbag0
(g1
g2
(lp159
g0
(g1
g2
(lp160
g0
(g1
g2
(lp161
g0
(g1
g2
(lp162
g0
(g1
g2
(lp163
(lp164
S'word: her, index: 4'
p165
aatp166
Rp167
(dp168
g12
Vposs
p169
sbag0
(g1
g2
(lp170
(lp171
S'word: little, index: 5'
p172
aatp173
Rp174
(dp175
g12
Vamod
p176
sbatp177
Rp178
(dp179
g12
S'word: girl, index: 6'
p180
sbatp181
Rp182
(dp183
g12
Vdobj
p184
sbatp185
Rp186
(dp187
g12
S'word: holding, index: 3'
p188
sbatp189
Rp190
(dp191
g12
Vvmod
p192
sbatp193
Rp194
(dp195
g12
S'word: mama, index: 2'
p196
sbatp197
Rp198
(dp199
g12
S'id: 2'
p200
sbag0
(g1
g2
(lp201
g0
(g1
g2
(lp202
g0
(g1
g2
(lp203
(lp204
S'word: a, index: 1'
p205
aatp206
Rp207
(dp208
g12
Vdet
p209
sbag0
(g1
g2
(lp210
g0
(g1
g2
(lp211
g0
(g1
g2
(lp212
g0
(g1
g2
(lp213
g0
(g1
g2
(lp214
g0
(g1
g2
(lp215
g0
(g1
g2
(lp216
g0
(g1
g2
(lp217
g0
(g1
g2
(lp218
(lp219
S'word: a, index: 11'
p220
aatp221
Rp222
(dp223
g12
Vdet
p224
sbatp225
Rp226
(dp227
g12
S'word: tightrope, index: 12'
p228
sbatp229
Rp230
(dp231
g12
Vprep
p232
sbatp233
Rp234
(dp235
g12
S'word: walking, index: 9'
p236
sbatp237
Rp238
(dp239
g12
Vvmod
p240
sbag0
(g1
g2
(lp241
g0
(g1
g2
(lp242
g0
(g1
g2
(lp243
g0
(g1
g2
(lp244
g0
(g1
g2
(lp245
(lp246
S'word: a, index: 26'
p247
aatp248
Rp249
(dp250
g12
Vdet
p251
sbag0
(g1
g2
(lp252
g0
(g1
g2
(lp253
g0
(g1
g2
(lp254
(lp255
S'word: his, index: 29'
p256
aatp257
Rp258
(dp259
g12
Vposs
p260
sbatp261
Rp262
(dp263
g12
S'word: daughter, index: 30'
p264
sbatp265
Rp266
(dp267
g12
Vprep
p268
sbatp269
Rp270
(dp271
g12
S'word: man, index: 27'
p272
sbatp273
Rp274
(dp275
g12
Vprep
p276
sbag0
(g1
g2
(lp277
g0
(g1
g2
(lp278
g0
(g1
g2
(lp279
g270
atp280
Rp281
(dp282
g12
Vconj
p283
sbag0
(g1
g2
(lp284
(lp285
S'word: the, index: 16'
p286
aatp287
Rp288
(dp289
g12
Vdet
p290
sbag0
(g1
g2
(lp291
g0
(g1
g2
(lp292
g0
(g1
g2
(lp293
(lp294
S'word: a, index: 33'
p295
aatp296
Rp297
(dp298
g12
Vdet
p299
sbag0
(g1
g2
(lp300
(lp301
S'word: pretty, index: 34'
p302
aatp303
Rp304
(dp305
g12
Vamod
p306
sbatp307
Rp308
(dp309
g12
S'word: day, index: 35'
p310
sbatp311
Rp312
(dp313
g12
Vconj
p314
sbag0
(g1
g2
(lp315
g0
(g1
g2
(lp316
g0
(g1
g2
(lp317
(lp318
S'word: a, index: 19'
p319
aatp320
Rp321
(dp322
g12
Vdet
p323
sbatp324
Rp325
(dp326
g12
S'word: lion, index: 20'
p327
sbatp328
Rp329
(dp330
g12
Vconj
p331
sbag0
(g1
g2
(lp332
g0
(g1
g2
(lp333
g0
(g1
g2
(lp334
(lp335
S'word: the, index: 22'
p336
aatp337
Rp338
(dp339
g12
Vdet
p340
sbag0
(g1
g2
(lp341
(lp342
S'word: lion, index: 23'
p343
aatp344
Rp345
(dp346
g12
Vdep
p347
sbatp348
Rp349
(dp350
g12
S'word: tamer, index: 24'
p351
sbatp352
Rp353
(dp354
g12
Vconj
p355
sbatp356
Rp357
(dp358
g12
S'word: background, index: 17'
p359
sbatp360
Rp361
(dp362
g12
Vprep
p363
sbag0
(g1
g2
(lp364
g308
atp365
Rp366
(dp367
g12
Vprep
p368
sbag0
(g1
g2
(lp369
g325
atp370
Rp371
(dp372
g12
Vprep
p373
sbag0
(g1
g2
(lp374
g349
atp375
Rp376
(dp377
g12
Vprep
p378
sbatp379
Rp380
(dp381
g12
S'word: people, index: 14'
p382
sbatp383
Rp384
(dp385
g12
Vappos
p386
sbag0
(g1
g2
(lp387
(lp388
S'word: a, index: 5'
p389
aatp390
Rp391
(dp392
g12
Vdet
p393
sbag0
(g1
g2
(lp394
(lp395
S'word: trapeze, index: 7'
p396
aatp397
Rp398
(dp399
g12
Vamod
p400
sbatp401
Rp402
(dp403
g12
S'word: artist, index: 8'
p404
sbatp405
Rp406
(dp407
g12
Vprep
p408
sbatp409
Rp410
(dp411
g12
S'word: prancing, index: 3'
p412
sbatp413
Rp414
(dp415
g12
Vvmod
p416
sbatp417
Rp418
(dp419
g12
S'word: horse, index: 2'
p420
sbatp421
Rp422
(dp423
g12
S'id: 3'
p424
sbag0
(g1
g2
(lp425
g0
(g1
g2
(lp426
g0
(g1
g2
(lp427
(lp428
S'word: That, index: 1'
p429
aatp430
Rp431
(dp432
g12
Vnsubj
p433
sbag0
(g1
g2
(lp434
(lp435
S"word: 's, index: 2"
p436
aatp437
Rp438
(dp439
g12
Vcop
p440
sbatp441
Rp442
(dp443
g12
S'word: it, index: 3'
p444
sbatp445
Rp446
(dp447
g12
S'id: 4'
p448
sbatp449
Rp450
(dp451
g12
S'sentences'
p452
sb.