ccopy_reg
_reconstructor
p0
(cnltk.tree
Tree
p1
c__builtin__
list
p2
(lp3
g0
(g1
g2
(lp4
g0
(g1
g2
(lp5
g0
(g1
g2
(lp6
(lp7
S'word: Okay, index: 1'
p8
aatp9
Rp10
(dp11
S'_label'
p12
Vdiscourse
p13
sbag0
(g1
g2
(lp14
(lp15
S'word: i, index: 2'
p16
aatp17
Rp18
(dp19
g12
Vdep
p20
sbag0
(g1
g2
(lp21
g0
(g1
g2
(lp22
g0
(g1
g2
(lp23
(lp24
S'word: gentleman, index: 6'
p25
aatp26
Rp27
(dp28
g12
Vappos
p29
sbatp30
Rp31
(dp32
g12
S'word: a, index: 4'
p33
sbatp34
Rp35
(dp36
g12
Vdobj
p37
sbag0
(g1
g2
(lp38
(lp39
S'word: tight, index: 7'
p40
aatp41
Rp42
(dp43
g12
Vadvmod
p44
sbag0
(g1
g2
(lp45
g0
(g1
g2
(lp46
g0
(g1
g2
(lp47
g0
(g1
g2
(lp48
g0
(g1
g2
(lp49
g0
(g1
g2
(lp50
g0
(g1
g2
(lp51
(lp52
S'word: a, index: 14'
p53
aatp54
Rp55
(dp56
g12
Vdet
p57
sbatp58
Rp59
(dp60
g12
S'word: tightrope, index: 15'
p61
sbatp62
Rp63
(dp64
g12
Vprep
p65
sbatp66
Rp67
(dp68
g12
S'word: walking, index: 12'
p69
sbatp70
Rp71
(dp72
g12
Vvmod
p73
sbatp74
Rp75
(dp76
g12
S'word: tightrope, index: 10'
p77
sbatp78
Rp79
(dp80
g12
Vprep
p81
sbatp82
Rp83
(dp84
g12
S'word: see, index: 3'
p85
sbatp86
Rp87
(dp88
g12
S'id: 0'
p89
sbag0
(g1
g2
(lp90
g0
(g1
g2
(lp91
g0
(g1
g2
(lp92
(lp93
S'word: young, index: 3'
p94
aatp95
Rp96
(dp97
g12
Vamod
p98
sbag0
(g1
g2
(lp99
g0
(g1
g2
(lp100
g0
(g1
g2
(lp101
(lp102
S'word: who, index: 5'
p103
aatp104
Rp105
(dp106
g12
Vnsubj
p107
sbag0
(g1
g2
(lp108
(lp109
S'word: is, index: 6'
p110
aatp111
Rp112
(dp113
g12
Vaux
p114
sbag0
(g1
g2
(lp115
g0
(g1
g2
(lp116
g0
(g1
g2
(lp117
(lp118
S'word: a, index: 10'
p119
aatp120
Rp121
(dp122
g12
Vdet
p123
sbatp124
Rp125
(dp126
g12
S'word: horse, index: 11'
p127
sbatp128
Rp129
(dp130
g12
Vprep
p131
sbag0
(g1
g2
(lp132
g0
(g1
g2
(lp133
g0
(g1
g2
(lp134
(lp135
S'word: the, index: 13'
p136
aatp137
Rp138
(dp139
g12
Vdet
p140
sbatp141
Rp142
(dp143
g12
S'word: ring, index: 14'
p144
sbatp145
Rp146
(dp147
g12
Vprep
p148
sbag0
(g1
g2
(lp149
(lp150
S'word: there, index: 15'
p151
aatp152
Rp153
(dp154
g12
Vadvmod
p155
sbatp156
Rp157
(dp158
g12
S'word: balancing, index: 8'
p159
sbatp160
Rp161
(dp162
g12
Vrcmod
p163
sbag0
(g1
g2
(lp164
(lp165
S'word: and, index: 1'
p166
aatp167
Rp168
(dp169
g12
Vcc
p170
sbag0
(g1
g2
(lp171
(lp172
S'word: a, index: 2'
p173
aatp174
Rp175
(dp176
g12
Vdet
p177
sbatp178
Rp179
(dp180
g12
S'word: lady, index: 4'
p181
sbatp182
Rp183
(dp184
g12
S'id: 1'
p185
sbag0
(g1
g2
(lp186
g0
(g1
g2
(lp187
g0
(g1
g2
(lp188
g0
(g1
g2
(lp189
g0
(g1
g2
(lp190
(lp191
S'word: her, index: 7'
p192
aatp193
Rp194
(dp195
g12
Vdobj
p196
sbag0
(g1
g2
(lp197
g0
(g1
g2
(lp198
g0
(g1
g2
(lp199
g0
(g1
g2
(lp200
g0
(g1
g2
(lp201
g0
(g1
g2
(lp202
g0
(g1
g2
(lp203
(lp204
S'word: the, index: 10'
p205
aatp206
Rp207
(dp208
g12
Vdet
p209
sbatp210
Rp211
(dp212
g12
S'word: ring, index: 11'
p213
sbatp214
Rp215
(dp216
g12
Vpobj
p217
sbatp218
Rp219
(dp220
g12
S'word: behind, index: 9'
p221
sbatp222
Rp223
(dp224
g12
Vpcomp
p225
sbatp226
Rp227
(dp228
g12
S'word: from, index: 8'
p229
sbatp230
Rp231
(dp232
g12
Vprep
p233
sbag0
(g1
g2
(lp234
(lp235
S'word: that, index: 4'
p236
aatp237
Rp238
(dp239
g12
Vnsubj
p240
sbag0
(g1
g2
(lp241
(lp242
S'word: are, index: 5'
p243
aatp244
Rp245
(dp246
g12
Vaux
p247
sbatp248
Rp249
(dp250
g12
S'word: observing, index: 6'
p251
sbatp252
Rp253
(dp254
g12
Vrcmod
p255
sbag0
(g1
g2
(lp256
(lp257
S'word: and, index: 1'
p258
aatp259
Rp260
(dp261
g12
Vcc
p262
sbag0
(g1
g2
(lp263
(lp264
S'word: some, index: 2'
p265
aatp266
Rp267
(dp268
g12
Vdet
p269
sbatp270
Rp271
(dp272
g12
S'word: people, index: 3'
p273
sbatp274
Rp275
(dp276
g12
S'id: 2'
p277
sbag0
(g1
g2
(lp278
g0
(g1
g2
(lp279
g0
(g1
g2
(lp280
g0
(g1
g2
(lp281
g0
(g1
g2
(lp282
g0
(g1
g2
(lp283
g0
(g1
g2
(lp284
(lp285
S'word: a, index: 11'
p286
aatp287
Rp288
(dp289
g12
Vdet
p290
sbatp291
Rp292
(dp293
g12
S'word: lion, index: 12'
p294
sbatp295
Rp296
(dp297
g12
Vnpadvmod
p298
sbatp299
Rp300
(dp301
g12
S'word: tamer, index: 13'
p302
sbatp303
Rp304
(dp305
g12
Vdep
p306
sbag0
(g1
g2
(lp307
(lp308
S'word: that, index: 14'
p309
aatp310
Rp311
(dp312
g12
Vnsubj
p313
sbag0
(g1
g2
(lp314
(lp315
S"word: 's, index: 15"
p316
aatp317
Rp318
(dp319
g12
Vaux
p320
sbag0
(g1
g2
(lp321
g0
(g1
g2
(lp322
g0
(g1
g2
(lp323
(lp324
S'word: the, index: 17'
p325
aatp326
Rp327
(dp328
g12
Vdet
p329
sbag0
(g1
g2
(lp330
g0
(g1
g2
(lp331
g0
(g1
g2
(lp332
g0
(g1
g2
(lp333
g0
(g1
g2
(lp334
(lp335
S'word: his, index: 23'
p336
aatp337
Rp338
(dp339
g12
Vposs
p340
sbag0
(g1
g2
(lp341
(lp342
S'word: hind, index: 24'
p343
aatp344
Rp345
(dp346
g12
Vamod
p347
sbatp348
Rp349
(dp350
g12
S'word: legs, index: 25'
p351
sbatp352
Rp353
(dp354
g12
Vprep
p355
sbag0
(g1
g2
(lp356
(lp357
S'word: to, index: 19'
p358
aatp359
Rp360
(dp361
g12
Vaux
p362
sbag0
(g1
g2
(lp363
(lp364
S'word: up, index: 21'
p365
aatp366
Rp367
(dp368
g12
Vprt
p369
sbatp370
Rp371
(dp372
g12
S'word: stand, index: 20'
p373
sbatp374
Rp375
(dp376
g12
Vvmod
p377
sbatp378
Rp379
(dp380
g12
S'word: lion, index: 18'
p381
sbatp382
Rp383
(dp384
g12
Vdobj
p385
sbag0
(g1
g2
(lp386
g0
(g1
g2
(lp387
g0
(g1
g2
(lp388
g0
(g1
g2
(lp389
g0
(g1
g2
(lp390
(lp391
S'word: a, index: 8'
p392
aatp393
Rp394
(dp395
g12
Vdet
p396
sbatp397
Rp398
(dp399
g12
S'word: guy, index: 9'
p400
sbatp401
Rp402
(dp403
g12
Vdobj
p404
sbag0
(g1
g2
(lp405
g0
(g1
g2
(lp406
g0
(g1
g2
(lp407
(lp408
S'word: and, index: 1'
p409
aatp410
Rp411
(dp412
g12
Vcc
p413
sbag0
(g1
g2
(lp414
(lp415
S'word: then, index: 2'
p416
aatp417
Rp418
(dp419
g12
Vadvmod
p420
sbag0
(g1
g2
(lp421
g0
(g1
g2
(lp422
g0
(g1
g2
(lp423
(lp424
S'word: the, index: 4'
p425
aatp426
Rp427
(dp428
g12
Vdet
p429
sbatp430
Rp431
(dp432
g12
S'word: cage, index: 5'
p433
sbatp434
Rp435
(dp436
g12
Vpobj
p437
sbatp438
Rp439
(dp440
g12
S'word: within, index: 3'
p441
sbatp442
Rp443
(dp444
g12
Vdep
p445
sbag0
(g1
g2
(lp446
(lp447
S'word: i, index: 6'
p448
aatp449
Rp450
(dp451
g12
Vnsubj
p452
sbatp453
Rp454
(dp455
g12
S'word: see, index: 7'
p456
sbatp457
Rp458
(dp459
g12
Vadvcl
p460
sbatp461
Rp462
(dp463
g12
S'word: getting, index: 16'
p464
sbatp465
Rp466
(dp467
g12
S'id: 3'
p468
sbag0
(g1
g2
(lp469
g0
(g1
g2
(lp470
g0
(g1
g2
(lp471
(lp472
S'word: then, index: 1'
p473
aatp474
Rp475
(dp476
g12
Vadvmod
p477
sbag0
(g1
g2
(lp478
(lp479
S'word: I, index: 2'
p480
aatp481
Rp482
(dp483
g12
Vnsubj
p484
sbag0
(g1
g2
(lp485
g0
(g1
g2
(lp486
g0
(g1
g2
(lp487
g0
(g1
g2
(lp488
g0
(g1
g2
(lp489
g0
(g1
g2
(lp490
g0
(g1
g2
(lp491
(lp492
S'word: the, index: 18'
p493
aatp494
Rp495
(dp496
g12
Vdet
p497
sbatp498
Rp499
(dp500
g12
S'word: clown, index: 19'
p501
sbatp502
Rp503
(dp504
g12
Vprep
p505
sbatp506
Rp507
(dp508
g12
S'word: pointing, index: 16'
p509
sbatp510
Rp511
(dp512
g12
Vxcomp
p513
sbag0
(g1
g2
(lp514
(lp515
S'word: what, index: 4'
p516
aatp517
Rp518
(dp519
g12
Vnsubj
p520
sbag0
(g1
g2
(lp521
g0
(g1
g2
(lp522
g0
(g1
g2
(lp523
g0
(g1
g2
(lp524
g0
(g1
g2
(lp525
(lp526
S'word: the, index: 13'
p527
aatp528
Rp529
(dp530
g12
Vdet
p531
sbatp532
Rp533
(dp534
g12
S'word: daughter, index: 14'
p535
sbatp536
Rp537
(dp538
g12
Vconj
p539
sbag0
(g1
g2
(lp540
(lp541
S'word: a, index: 7'
p542
aatp543
Rp544
(dp545
g12
Vdet
p546
sbag0
(g1
g2
(lp547
g0
(g1
g2
(lp548
g0
(g1
g2
(lp549
g533
atp550
Rp551
(dp552
g12
Vconj
p553
sbag0
(g1
g2
(lp554
(lp555
S'word: his, index: 10'
p556
aatp557
Rp558
(dp559
g12
Vposs
p560
sbatp561
Rp562
(dp563
g12
S'word: daughter, index: 11'
p564
sbatp565
Rp566
(dp567
g12
Vconj
p568
sbatp569
Rp570
(dp571
g12
S'word: dad, index: 8'
p572
sbatp573
Rp574
(dp575
g12
Vprep
p576
sbag0
(g1
g2
(lp577
g562
atp578
Rp579
(dp580
g12
Vprep
p581
sbatp582
Rp583
(dp584
g12
S'word: looks, index: 5'
p585
sbatp586
Rp587
(dp588
g12
Vccomp
p589
sbag0
(g1
g2
(lp590
g0
(g1
g2
(lp591
g0
(g1
g2
(lp592
g0
(g1
g2
(lp593
g0
(g1
g2
(lp594
g0
(g1
g2
(lp595
g0
(g1
g2
(lp596
(lp597
S'word: spilling, index: 43'
p598
aatp599
Rp600
(dp601
g12
Vnn
p602
sbatp603
Rp604
(dp605
g12
S'word: something, index: 44'
p606
sbatp607
Rp608
(dp609
g12
Vdobj
p610
sbag0
(g1
g2
(lp611
(lp612
S'word: do, index: 31'
p613
aatp614
Rp615
(dp616
g12
Vaux
p617
sbag0
(g1
g2
(lp618
(lp619
S"word: n't, index: 32"
p620
aatp621
Rp622
(dp623
g12
Vneg
p624
sbag0
(g1
g2
(lp625
g0
(g1
g2
(lp626
g0
(g1
g2
(lp627
(lp628
S'word: the, index: 46'
p629
aatp630
Rp631
(dp632
g12
Vdet
p633
sbag0
(g1
g2
(lp634
(lp635
S'word: little, index: 47'
p636
aatp637
Rp638
(dp639
g12
Vamod
p640
sbag0
(g1
g2
(lp641
g0
(g1
g2
(lp642
g0
(g1
g2
(lp643
(lp644
S'word: who, index: 49'
p645
aatp646
Rp647
(dp648
g12
Vnsubj
p649
sbag0
(g1
g2
(lp650
g0
(g1
g2
(lp651
g0
(g1
g2
(lp652
g0
(g1
g2
(lp653
g0
(g1
g2
(lp654
(lp655
S'word: the, index: 58'
p656
aatp657
Rp658
(dp659
g12
Vdet
p660
sbag0
(g1
g2
(lp661
(lp662
S'word: little, index: 59'
p663
aatp664
Rp665
(dp666
g12
Vamod
p667
sbatp668
Rp669
(dp670
g12
S'word: girl, index: 60'
p671
sbatp672
Rp673
(dp674
g12
Vdobj
p675
sbag0
(g1
g2
(lp676
g0
(g1
g2
(lp677
g0
(g1
g2
(lp678
(lp679
S'word: his, index: 52'
p680
aatp681
Rp682
(dp683
g12
Vposs
p684
sbag0
(g1
g2
(lp685
(lp686
S'word: mother, index: 55'
p687
aatp688
Rp689
(dp690
g12
Vconj
p691
sbatp692
Rp693
(dp694
g12
S'word: mother, index: 53'
p695
sbatp696
Rp697
(dp698
g12
Vnsubj
p699
sbag0
(g1
g2
(lp700
(lp701
S'word: mother, index: 55'
p702
aatp703
Rp704
(dp705
g12
Vnsubj
p706
sbatp707
Rp708
(dp709
g12
S'word: holding, index: 57'
p710
sbatp711
Rp712
(dp713
g12
Vprepc
p714
sbatp715
Rp716
(dp717
g12
S"word: 's, index: 50"
p718
sbatp719
Rp720
(dp721
g12
Vrcmod
p722
sbatp723
Rp724
(dp725
g12
S'word: boy, index: 48'
p726
sbatp727
Rp728
(dp729
g12
Vprep
p730
sbag0
(g1
g2
(lp731
g0
(g1
g2
(lp732
g0
(g1
g2
(lp733
(lp734
S'word: coins, index: 35'
p735
aatp736
Rp737
(dp738
g12
Vnsubj
p739
sbag0
(g1
g2
(lp740
(lp741
S'word: i, index: 37'
p742
aatp743
Rp744
(dp745
g12
Vnsubj
p746
sbag0
(g1
g2
(lp747
(lp748
S'word: do, index: 38'
p749
aatp750
Rp751
(dp752
g12
Vaux
p753
sbag0
(g1
g2
(lp754
(lp755
S"word: n't, index: 39"
p756
aatp757
Rp758
(dp759
g12
Vneg
p760
sbag0
(g1
g2
(lp761
(lp762
S'word: what, index: 41'
p763
aatp764
Rp765
(dp766
g12
Vdobj
p767
sbatp768
Rp769
(dp770
g12
S'word: know, index: 40'
p771
sbatp772
Rp773
(dp774
g12
Vparataxis
p775
sbag0
(g1
g2
(lp776
g0
(g1
g2
(lp777
g0
(g1
g2
(lp778
g0
(g1
g2
(lp779
g0
(g1
g2
(lp780
(lp781
S'word: i, index: 30'
p782
aatp783
Rp784
(dp785
g12
Vappos
p786
sbatp787
Rp788
(dp789
g12
S'word: something, index: 28'
p790
sbatp791
Rp792
(dp793
g12
Vappos
p794
sbatp795
Rp796
(dp797
g12
S'word: spilling, index: 26'
p798
sbatp799
Rp800
(dp801
g12
Vnsubj
p802
sbatp803
Rp804
(dp805
g12
S'word: know, index: 33'
p806
sbatp807
Rp808
(dp809
g12
Vccomp
p810
sbag0
(g1
g2
(lp811
g0
(g1
g2
(lp812
g0
(g1
g2
(lp813
(lp814
S'word: the, index: 22'
p815
aatp816
Rp817
(dp818
g12
Vdet
p819
sbatp820
Rp821
(dp822
g12
S'word: clown, index: 23'
p823
sbatp824
Rp825
(dp826
g12
Vnsubj
p827
sbatp828
Rp829
(dp830
g12
S'word: is, index: 24'
p831
sbatp832
Rp833
(dp834
g12
Vconj
p835
sbatp836
Rp837
(dp838
g12
S'word: see, index: 3'
p839
sbatp840
Rp841
(dp842
g12
S'id: 4'
p843
sbatp844
Rp845
(dp846
g12
S'sentences'
p847
sb.