ccopy_reg
_reconstructor
p0
(cnltk.tree
Tree
p1
c__builtin__
list
p2
(lp3
g0
(g1
g2
(lp4
g0
(g1
g2
(lp5
g0
(g1
g2
(lp6
Voh
p7
atp8
Rp9
(dp10
S'_label'
p11
VUH
p12
sbag0
(g1
g2
(lp13
V.
p14
atp15
Rp16
(dp17
g11
V.
p18
sbatp19
Rp20
(dp21
g11
VINTJ
p22
sbatp23
Rp24
(dp25
g11
S'id: 0'
p26
sbag0
(g1
g2
(lp27
g0
(g1
g2
(lp28
g0
(g1
g2
(lp29
g0
(g1
g2
(lp30
g0
(g1
g2
(lp31
Vmother
p32
atp33
Rp34
(dp35
g11
VNN
p36
sbatp37
Rp38
(dp39
g11
VNP
p40
sbag0
(g1
g2
(lp41
g0
(g1
g2
(lp42
Vis
p43
atp44
Rp45
(dp46
g11
VVBZ
p47
sbag0
(g1
g2
(lp48
g0
(g1
g2
(lp49
g0
(g1
g2
(lp50
Vdoin
p51
atp52
Rp53
(dp54
g11
VNN
p55
sbatp56
Rp57
(dp58
g11
VNP
p59
sbag0
(g1
g2
(lp60
V'
p61
atp62
Rp63
(dp64
g11
V''
p65
sbag0
(g1
g2
(lp66
g0
(g1
g2
(lp67
g0
(g1
g2
(lp68
g0
(g1
g2
(lp69
g0
(g1
g2
(lp70
Vthe
p71
atp72
Rp73
(dp74
g11
VDT
p75
sbag0
(g1
g2
(lp76
Vdishes
p77
atp78
Rp79
(dp80
g11
VNNS
p81
sbatp82
Rp83
(dp84
g11
VNP
p85
sbag0
(g1
g2
(lp86
V,
p87
atp88
Rp89
(dp90
g11
V,
p91
sbag0
(g1
g2
(lp92
g0
(g1
g2
(lp93
g0
(g1
g2
(lp94
Vthe
p95
atp96
Rp97
(dp98
g11
VDT
p99
sbag0
(g1
g2
(lp100
Vsink
p101
atp102
Rp103
(dp104
g11
VNN
p105
sbatp106
Rp107
(dp108
g11
VNP
p109
sbag0
(g1
g2
(lp110
V's
p111
atp112
Rp113
(dp114
g11
VPOS
p115
sbatp116
Rp117
(dp118
g11
VNP
p119
sbatp120
Rp121
(dp122
g11
VNP
p123
sbag0
(g1
g2
(lp124
g0
(g1
g2
(lp125
Voverflowed
p126
atp127
Rp128
(dp129
g11
VVBN
p130
sbatp131
Rp132
(dp133
g11
VVP
p134
sbatp135
Rp136
(dp137
g11
VS
p138
sbatp139
Rp140
(dp141
g11
VSBAR
p142
sbag0
(g1
g2
(lp143
V,
p144
atp145
Rp146
(dp147
g11
V,
p148
sbag0
(g1
g2
(lp149
Vand
p150
atp151
Rp152
(dp153
g11
VCC
p154
sbag0
(g1
g2
(lp155
g0
(g1
g2
(lp156
g0
(g1
g2
(lp157
g0
(g1
g2
(lp158
Vthe
p159
atp160
Rp161
(dp162
g11
VDT
p163
sbag0
(g1
g2
(lp164
Vlittle
p165
atp166
Rp167
(dp168
g11
VJJ
p169
sbag0
(g1
g2
(lp170
Vboy
p171
atp172
Rp173
(dp174
g11
VNN
p175
sbag0
(g1
g2
(lp176
V's
p177
atp178
Rp179
(dp180
g11
VPOS
p181
sbatp182
Rp183
(dp184
g11
VNP
p185
sbag0
(g1
g2
(lp186
g0
(g1
g2
(lp187
Von
p188
atp189
Rp190
(dp191
g11
VIN
p192
sbag0
(g1
g2
(lp193
g0
(g1
g2
(lp194
Va
p195
atp196
Rp197
(dp198
g11
VDT
p199
sbag0
(g1
g2
(lp200
Vstool
p201
atp202
Rp203
(dp204
g11
VNN
p205
sbatp206
Rp207
(dp208
g11
VNP
p209
sbatp210
Rp211
(dp212
g11
VPP
p213
sbatp214
Rp215
(dp216
g11
VNP
p217
sbag0
(g1
g2
(lp218
g0
(g1
g2
(lp219
Vgoing
p220
atp221
Rp222
(dp223
g11
VVBG
p224
sbag0
(g1
g2
(lp225
g0
(g1
g2
(lp226
Vin
p227
atp228
Rp229
(dp230
g11
VIN
p231
sbag0
(g1
g2
(lp232
g0
(g1
g2
(lp233
Vthe
p234
atp235
Rp236
(dp237
g11
VDT
p238
sbag0
(g1
g2
(lp239
Vcabinet
p240
atp241
Rp242
(dp243
g11
VNN
p244
sbag0
(g1
g2
(lp245
Vjar
p246
atp247
Rp248
(dp249
g11
VNN
p250
sbatp251
Rp252
(dp253
g11
VNP
p254
sbatp255
Rp256
(dp257
g11
VPP
p258
sbag0
(g1
g2
(lp259
g0
(g1
g2
(lp260
g0
(g1
g2
(lp261
Vto
p262
atp263
Rp264
(dp265
g11
VTO
p266
sbag0
(g1
g2
(lp267
g0
(g1
g2
(lp268
Vget
p269
atp270
Rp271
(dp272
g11
VVB
p273
sbag0
(g1
g2
(lp274
g0
(g1
g2
(lp275
Vcookies
p276
atp277
Rp278
(dp279
g11
VNNS
p280
sbatp281
Rp282
(dp283
g11
VNP
p284
sbatp285
Rp286
(dp287
g11
VVP
p288
sbatp289
Rp290
(dp291
g11
VVP
p292
sbatp293
Rp294
(dp295
g11
VS
p296
sbatp297
Rp298
(dp299
g11
VVP
p300
sbatp301
Rp302
(dp303
g11
VNP
p304
sbatp305
Rp306
(dp307
g11
VNP
p308
sbatp309
Rp310
(dp311
g11
VVP
p312
sbatp313
Rp314
(dp315
g11
VS
p316
sbag0
(g1
g2
(lp317
Vand
p318
atp319
Rp320
(dp321
g11
VCC
p322
sbag0
(g1
g2
(lp323
g0
(g1
g2
(lp324
g0
(g1
g2
(lp325
Vhe
p326
atp327
Rp328
(dp329
g11
VPRP
p330
sbatp331
Rp332
(dp333
g11
VNP
p334
sbag0
(g1
g2
(lp335
g0
(g1
g2
(lp336
Vis
p337
atp338
Rp339
(dp340
g11
VVBZ
p341
sbag0
(g1
g2
(lp342
g0
(g1
g2
(lp343
Vabout
p344
atp345
Rp346
(dp347
g11
VIN
p348
sbag0
(g1
g2
(lp349
g0
(g1
g2
(lp350
g0
(g1
g2
(lp351
Vto
p352
atp353
Rp354
(dp355
g11
VTO
p356
sbag0
(g1
g2
(lp357
g0
(g1
g2
(lp358
Vfall
p359
atp360
Rp361
(dp362
g11
VVB
p363
sbag0
(g1
g2
(lp364
g0
(g1
g2
(lp365
Vover
p366
atp367
Rp368
(dp369
g11
VRP
p370
sbatp371
Rp372
(dp373
g11
VPRT
p374
sbatp375
Rp376
(dp377
g11
VVP
p378
sbatp379
Rp380
(dp381
g11
VVP
p382
sbatp383
Rp384
(dp385
g11
VS
p386
sbatp387
Rp388
(dp389
g11
VVP
p390
sbatp391
Rp392
(dp393
g11
VVP
p394
sbatp395
Rp396
(dp397
g11
VS
p398
sbag0
(g1
g2
(lp399
V.
p400
atp401
Rp402
(dp403
g11
V.
p404
sbatp405
Rp406
(dp407
g11
VS
p408
sbatp409
Rp410
(dp411
g11
S'id: 1'
p412
sbag0
(g1
g2
(lp413
g0
(g1
g2
(lp414
g0
(g1
g2
(lp415
g0
(g1
g2
(lp416
Vand
p417
atp418
Rp419
(dp420
g11
VCC
p421
sbag0
(g1
g2
(lp422
g0
(g1
g2
(lp423
Vthe
p424
atp425
Rp426
(dp427
g11
VDT
p428
sbag0
(g1
g2
(lp429
Vlittle
p430
atp431
Rp432
(dp433
g11
VJJ
p434
sbag0
(g1
g2
(lp435
Vgirl
p436
atp437
Rp438
(dp439
g11
VNN
p440
sbatp441
Rp442
(dp443
g11
VNP
p444
sbag0
(g1
g2
(lp445
g0
(g1
g2
(lp446
Vis
p447
atp448
Rp449
(dp450
g11
VVBZ
p451
sbag0
(g1
g2
(lp452
g0
(g1
g2
(lp453
Vreaching
p454
atp455
Rp456
(dp457
g11
VVBG
p458
sbag0
(g1
g2
(lp459
g0
(g1
g2
(lp460
Vfor
p461
atp462
Rp463
(dp464
g11
VIN
p465
sbag0
(g1
g2
(lp466
g0
(g1
g2
(lp467
Vthe
p468
atp469
Rp470
(dp471
g11
VDT
p472
sbag0
(g1
g2
(lp473
Vcookie
p474
atp475
Rp476
(dp477
g11
VNN
p478
sbatp479
Rp480
(dp481
g11
VNP
p482
sbatp483
Rp484
(dp485
g11
VPP
p486
sbatp487
Rp488
(dp489
g11
VVP
p490
sbatp491
Rp492
(dp493
g11
VVP
p494
sbatp495
Rp496
(dp497
g11
VS
p498
sbag0
(g1
g2
(lp499
V,
p500
atp501
Rp502
(dp503
g11
V,
p504
sbag0
(g1
g2
(lp505
g0
(g1
g2
(lp506
Vi
p507
atp508
Rp509
(dp510
g11
VFW
p511
sbatp512
Rp513
(dp514
g11
VNP
p515
sbag0
(g1
g2
(lp516
g0
(g1
g2
(lp517
Vdo
p518
atp519
Rp520
(dp521
g11
VVBP
p522
sbag0
(g1
g2
(lp523
Vn't
p524
atp525
Rp526
(dp527
g11
VRB
p528
sbag0
(g1
g2
(lp529
g0
(g1
g2
(lp530
Vknow
p531
atp532
Rp533
(dp534
g11
VVB
p535
sbag0
(g1
g2
(lp536
g0
(g1
g2
(lp537
Vif
p538
atp539
Rp540
(dp541
g11
VIN
p542
sbag0
(g1
g2
(lp543
g0
(g1
g2
(lp544
g0
(g1
g2
(lp545
Vshe
p546
atp547
Rp548
(dp549
g11
VPRP
p550
sbatp551
Rp552
(dp553
g11
VNP
p554
sbag0
(g1
g2
(lp555
g0
(g1
g2
(lp556
V's
p557
atp558
Rp559
(dp560
g11
VVBZ
p561
sbag0
(g1
g2
(lp562
g0
(g1
g2
(lp563
Vgon
p564
atp565
Rp566
(dp567
g11
VVBG
p568
sbag0
(g1
g2
(lp569
g0
(g1
g2
(lp570
g0
(g1
g2
(lp571
Vna
p572
atp573
Rp574
(dp575
g11
VTO
p576
sbag0
(g1
g2
(lp577
g0
(g1
g2
(lp578
Vget
p579
atp580
Rp581
(dp582
g11
VVB
p583
sbag0
(g1
g2
(lp584
g0
(g1
g2
(lp585
Vit
p586
atp587
Rp588
(dp589
g11
VPRP
p590
sbatp591
Rp592
(dp593
g11
VNP
p594
sbatp595
Rp596
(dp597
g11
VVP
p598
sbatp599
Rp600
(dp601
g11
VVP
p602
sbatp603
Rp604
(dp605
g11
VS
p606
sbatp607
Rp608
(dp609
g11
VVP
p610
sbatp611
Rp612
(dp613
g11
VVP
p614
sbatp615
Rp616
(dp617
g11
VS
p618
sbag0
(g1
g2
(lp619
Vor
p620
atp621
Rp622
(dp623
g11
VCC
p624
sbag0
(g1
g2
(lp625
Vnot
p626
atp627
Rp628
(dp629
g11
VRB
p630
sbatp631
Rp632
(dp633
g11
VSBAR
p634
sbatp635
Rp636
(dp637
g11
VVP
p638
sbatp639
Rp640
(dp641
g11
VVP
p642
sbag0
(g1
g2
(lp643
V.
p644
atp645
Rp646
(dp647
g11
V.
p648
sbatp649
Rp650
(dp651
g11
VS
p652
sbatp653
Rp654
(dp655
g11
S'id: 2'
p656
sbag0
(g1
g2
(lp657
g0
(g1
g2
(lp658
g0
(g1
g2
(lp659
Vand
p660
atp661
Rp662
(dp663
g11
VCC
p664
sbag0
(g1
g2
(lp665
g0
(g1
g2
(lp666
g0
(g1
g2
(lp667
Vwhat
p668
atp669
Rp670
(dp671
g11
VWP
p672
sbatp673
Rp674
(dp675
g11
VWHNP
p676
sbag0
(g1
g2
(lp677
g0
(g1
g2
(lp678
g0
(g1
g2
(lp679
Vis
p680
atp681
Rp682
(dp683
g11
VVBZ
p684
sbag0
(g1
g2
(lp685
g0
(g1
g2
(lp686
g0
(g1
g2
(lp687
Vmother
p688
atp689
Rp690
(dp691
g11
VNN
p692
sbatp693
Rp694
(dp695
g11
VNP
p696
sbag0
(g1
g2
(lp697
g0
(g1
g2
(lp698
Vgon
p699
atp700
Rp701
(dp702
g11
VVBG
p703
sbag0
(g1
g2
(lp704
g0
(g1
g2
(lp705
g0
(g1
g2
(lp706
Vna
p707
atp708
Rp709
(dp710
g11
VTO
p711
sbag0
(g1
g2
(lp712
g0
(g1
g2
(lp713
Vdo
p714
atp715
Rp716
(dp717
g11
VVB
p718
sbatp719
Rp720
(dp721
g11
VVP
p722
sbatp723
Rp724
(dp725
g11
VVP
p726
sbatp727
Rp728
(dp729
g11
VS
p730
sbatp731
Rp732
(dp733
g11
VVP
p734
sbatp735
Rp736
(dp737
g11
VNP
p738
sbatp739
Rp740
(dp741
g11
VVP
p742
sbatp743
Rp744
(dp745
g11
VS
p746
sbatp747
Rp748
(dp749
g11
VSBAR
p750
sbag0
(g1
g2
(lp751
V,
p752
atp753
Rp754
(dp755
g11
V,
p756
sbag0
(g1
g2
(lp757
g0
(g1
g2
(lp758
Vshe
p759
atp760
Rp761
(dp762
g11
VPRP
p763
sbatp764
Rp765
(dp766
g11
VNP
p767
sbag0
(g1
g2
(lp768
g0
(g1
g2
(lp769
Vbetter
p770
atp771
Rp772
(dp773
g11
VJJR
p774
sbatp775
Rp776
(dp777
g11
VADVP
p778
sbag0
(g1
g2
(lp779
g0
(g1
g2
(lp780
Vcall
p781
atp782
Rp783
(dp784
g11
VVB
p785
sbag0
(g1
g2
(lp786
g0
(g1
g2
(lp787
Va
p788
atp789
Rp790
(dp791
g11
VDT
p792
sbag0
(g1
g2
(lp793
Vplumber
p794
atp795
Rp796
(dp797
g11
VNN
p798
sbatp799
Rp800
(dp801
g11
VNP
p802
sbatp803
Rp804
(dp805
g11
VVP
p806
sbag0
(g1
g2
(lp807
V.
p808
atp809
Rp810
(dp811
g11
V.
p812
sbatp813
Rp814
(dp815
g11
VS
p816
sbatp817
Rp818
(dp819
g11
S'id: 3'
p820
sbag0
(g1
g2
(lp821
g0
(g1
g2
(lp822
g0
(g1
g2
(lp823
g0
(g1
g2
(lp824
g0
(g1
g2
(lp825
Vlooks
p826
atp827
Rp828
(dp829
g11
VNNS
p830
sbatp831
Rp832
(dp833
g11
VNP
p834
sbag0
(g1
g2
(lp835
g0
(g1
g2
(lp836
Vlike
p837
atp838
Rp839
(dp840
g11
VIN
p841
sbag0
(g1
g2
(lp842
g0
(g1
g2
(lp843
Vshe
p844
atp845
Rp846
(dp847
g11
VPRP
p848
sbatp849
Rp850
(dp851
g11
VNP
p852
sbatp853
Rp854
(dp855
g11
VPP
p856
sbatp857
Rp858
(dp859
g11
VNP
p860
sbag0
(g1
g2
(lp861
g0
(g1
g2
(lp862
V's
p863
atp864
Rp865
(dp866
g11
VVBZ
p867
sbag0
(g1
g2
(lp868
g0
(g1
g2
(lp869
Vgot
p870
atp871
Rp872
(dp873
g11
VVBD
p874
sbag0
(g1
g2
(lp875
g0
(g1
g2
(lp876
Va
p877
atp878
Rp879
(dp880
g11
VDT
p881
sbag0
(g1
g2
(lp882
Vproblem
p883
atp884
Rp885
(dp886
g11
VNN
p887
sbatp888
Rp889
(dp890
g11
VNP
p891
sbag0
(g1
g2
(lp892
g0
(g1
g2
(lp893
Vthere
p894
atp895
Rp896
(dp897
g11
VRB
p898
sbatp899
Rp900
(dp901
g11
VADVP
p902
sbatp903
Rp904
(dp905
g11
VVP
p906
sbatp907
Rp908
(dp909
g11
VVP
p910
sbag0
(g1
g2
(lp911
V.
p912
atp913
Rp914
(dp915
g11
V.
p916
sbatp917
Rp918
(dp919
g11
VS
p920
sbatp921
Rp922
(dp923
g11
S'id: 4'
p924
sbag0
(g1
g2
(lp925
g0
(g1
g2
(lp926
g0
(g1
g2
(lp927
g0
(g1
g2
(lp928
g0
(g1
g2
(lp929
Voh
p930
atp931
Rp932
(dp933
g11
VUH
p934
sbatp935
Rp936
(dp937
g11
VINTJ
p938
sbag0
(g1
g2
(lp939
g0
(g1
g2
(lp940
Vmy
p941
atp942
Rp943
(dp944
g11
VPRP$
p945
sbatp946
Rp947
(dp948
g11
VNP
p949
sbag0
(g1
g2
(lp950
g0
(g1
g2
(lp951
g0
(g1
g2
(lp952
Vthis
p953
atp954
Rp955
(dp956
g11
VDT
p957
sbatp958
Rp959
(dp960
g11
VADVP
p961
sbag0
(g1
g2
(lp962
Vcould
p963
atp964
Rp965
(dp966
g11
VMD
p967
sbag0
(g1
g2
(lp968
g0
(g1
g2
(lp969
Vbe
p970
atp971
Rp972
(dp973
g11
VVB
p974
sbag0
(g1
g2
(lp975
g0
(g1
g2
(lp976
Vdisastrous
p977
atp978
Rp979
(dp980
g11
VJJ
p981
sbatp982
Rp983
(dp984
g11
VADJP
p985
sbatp986
Rp987
(dp988
g11
VVP
p989
sbatp990
Rp991
(dp992
g11
VVP
p993
sbatp994
Rp995
(dp996
g11
VS
p997
sbag0
(g1
g2
(lp998
V.
p999
atp1000
Rp1001
(dp1002
g11
V.
p1003
sbatp1004
Rp1005
(dp1006
g11
VS
p1007
sbatp1008
Rp1009
(dp1010
g11
S'id: 5'
p1011
sbag0
(g1
g2
(lp1012
g0
(g1
g2
(lp1013
g0
(g1
g2
(lp1014
g0
(g1
g2
(lp1015
Vshe
p1016
atp1017
Rp1018
(dp1019
g11
VPRP
p1020
sbatp1021
Rp1022
(dp1023
g11
VNP
p1024
sbag0
(g1
g2
(lp1025
g0
(g1
g2
(lp1026
V'll
p1027
atp1028
Rp1029
(dp1030
g11
VMD
p1031
sbag0
(g1
g2
(lp1032
g0
(g1
g2
(lp1033
Vnever
p1034
atp1035
Rp1036
(dp1037
g11
VRB
p1038
sbatp1039
Rp1040
(dp1041
g11
VADVP
p1042
sbag0
(g1
g2
(lp1043
g0
(g1
g2
(lp1044
Vdry
p1045
atp1046
Rp1047
(dp1048
g11
VVB
p1049
sbag0
(g1
g2
(lp1050
g0
(g1
g2
(lp1051
Vthat
p1052
atp1053
Rp1054
(dp1055
g11
VDT
p1056
sbag0
(g1
g2
(lp1057
Vdish
p1058
atp1059
Rp1060
(dp1061
g11
VNN
p1062
sbatp1063
Rp1064
(dp1065
g11
VNP
p1066
sbatp1067
Rp1068
(dp1069
g11
VVP
p1070
sbatp1071
Rp1072
(dp1073
g11
VVP
p1074
sbag0
(g1
g2
(lp1075
V.
p1076
atp1077
Rp1078
(dp1079
g11
V.
p1080
sbatp1081
Rp1082
(dp1083
g11
VS
p1084
sbatp1085
Rp1086
(dp1087
g11
S'id: 6'
p1088
sbag0
(g1
g2
(lp1089
g0
(g1
g2
(lp1090
g0
(g1
g2
(lp1091
g0
(g1
g2
(lp1092
Vbecause
p1093
atp1094
Rp1095
(dp1096
g11
VIN
p1097
sbag0
(g1
g2
(lp1098
Vif
p1099
atp1100
Rp1101
(dp1102
g11
VIN
p1103
sbag0
(g1
g2
(lp1104
g0
(g1
g2
(lp1105
g0
(g1
g2
(lp1106
Vthat
p1107
atp1108
Rp1109
(dp1110
g11
VDT
p1111
sbag0
(g1
g2
(lp1112
Vlittle
p1113
atp1114
Rp1115
(dp1116
g11
VJJ
p1117
sbag0
(g1
g2
(lp1118
Vboy
p1119
atp1120
Rp1121
(dp1122
g11
VNN
p1123
sbatp1124
Rp1125
(dp1126
g11
VNP
p1127
sbag0
(g1
g2
(lp1128
g0
(g1
g2
(lp1129
Vfalls
p1130
atp1131
Rp1132
(dp1133
g11
VVBZ
p1134
sbatp1135
Rp1136
(dp1137
g11
VVP
p1138
sbatp1139
Rp1140
(dp1141
g11
VS
p1142
sbatp1143
Rp1144
(dp1145
g11
VSBAR
p1146
sbag0
(g1
g2
(lp1147
g0
(g1
g2
(lp1148
Vit
p1149
atp1150
Rp1151
(dp1152
g11
VPRP
p1153
sbatp1154
Rp1155
(dp1156
g11
VNP
p1157
sbag0
(g1
g2
(lp1158
g0
(g1
g2
(lp1159
Vcould
p1160
atp1161
Rp1162
(dp1163
g11
VMD
p1164
sbag0
(g1
g2
(lp1165
g0
(g1
g2
(lp1166
Vbe
p1167
atp1168
Rp1169
(dp1170
g11
VVB
p1171
sbag0
(g1
g2
(lp1172
g0
(g1
g2
(lp1173
Vbad
p1174
atp1175
Rp1176
(dp1177
g11
VJJ
p1178
sbatp1179
Rp1180
(dp1181
g11
VADJP
p1182
sbatp1183
Rp1184
(dp1185
g11
VVP
p1186
sbatp1187
Rp1188
(dp1189
g11
VVP
p1190
sbag0
(g1
g2
(lp1191
V.
p1192
atp1193
Rp1194
(dp1195
g11
V.
p1196
sbatp1197
Rp1198
(dp1199
g11
VS
p1200
sbatp1201
Rp1202
(dp1203
g11
S'id: 7'
p1204
sbag0
(g1
g2
(lp1205
g0
(g1
g2
(lp1206
g0
(g1
g2
(lp1207
g0
(g1
g2
(lp1208
g0
(g1
g2
(lp1209
Vhis
p1210
atp1211
Rp1212
(dp1213
g11
VPRP$
p1214
sbag0
(g1
g2
(lp1215
Vhead
p1216
atp1217
Rp1218
(dp1219
g11
VNN
p1220
sbatp1221
Rp1222
(dp1223
g11
VNP
p1224
sbag0
(g1
g2
(lp1225
g0
(g1
g2
(lp1226
Vcould
p1227
atp1228
Rp1229
(dp1230
g11
VMD
p1231
sbag0
(g1
g2
(lp1232
g0
(g1
g2
(lp1233
Vhit
p1234
atp1235
Rp1236
(dp1237
g11
VVB
p1238
sbag0
(g1
g2
(lp1239
g0
(g1
g2
(lp1240
Vthat
p1241
atp1242
Rp1243
(dp1244
g11
VIN
p1245
sbag0
(g1
g2
(lp1246
Vcounter
p1247
atp1248
Rp1249
(dp1250
g11
VRB
p1251
sbatp1252
Rp1253
(dp1254
g11
VADVP
p1255
sbatp1256
Rp1257
(dp1258
g11
VVP
p1259
sbatp1260
Rp1261
(dp1262
g11
VVP
p1263
sbatp1264
Rp1265
(dp1266
g11
VS
p1267
sbag0
(g1
g2
(lp1268
V,
p1269
atp1270
Rp1271
(dp1272
g11
V,
p1273
sbag0
(g1
g2
(lp1274
Vor
p1275
atp1276
Rp1277
(dp1278
g11
VCC
p1279
sbag0
(g1
g2
(lp1280
g0
(g1
g2
(lp1281
g0
(g1
g2
(lp1282
g0
(g1
g2
(lp1283
Vthe
p1284
atp1285
Rp1286
(dp1287
g11
VDT
p1288
sbag0
(g1
g2
(lp1289
Vfloor
p1290
atp1291
Rp1292
(dp1293
g11
VNN
p1294
sbatp1295
Rp1296
(dp1297
g11
VNP
p1298
sbag0
(g1
g2
(lp1299
Vand
p1300
atp1301
Rp1302
(dp1303
g11
VCC
p1304
sbag0
(g1
g2
(lp1305
g0
(g1
g2
(lp1306
Vi
p1307
atp1308
Rp1309
(dp1310
g11
VFW
p1311
sbatp1312
Rp1313
(dp1314
g11
VNP
p1315
sbatp1316
Rp1317
(dp1318
g11
VNP
p1319
sbag0
(g1
g2
(lp1320
g0
(g1
g2
(lp1321
Vbet
p1322
atp1323
Rp1324
(dp1325
g11
VVB
p1326
sbag0
(g1
g2
(lp1327
g0
(g1
g2
(lp1328
g0
(g1
g2
(lp1329
g0
(g1
g2
(lp1330
Vit
p1331
atp1332
Rp1333
(dp1334
g11
VPRP
p1335
sbatp1336
Rp1337
(dp1338
g11
VNP
p1339
sbag0
(g1
g2
(lp1340
g0
(g1
g2
(lp1341
V's
p1342
atp1343
Rp1344
(dp1345
g11
VVBZ
p1346
sbag0
(g1
g2
(lp1347
g0
(g1
g2
(lp1348
g0
(g1
g2
(lp1349
Vhard
p1350
atp1351
Rp1352
(dp1353
g11
VJJ
p1354
sbag0
(g1
g2
(lp1355
Vhard
p1356
atp1357
Rp1358
(dp1359
g11
VJJ
p1360
sbatp1361
Rp1362
(dp1363
g11
VADJP
p1364
sbag0
(g1
g2
(lp1365
Vfloor
p1366
atp1367
Rp1368
(dp1369
g11
VNN
p1370
sbatp1371
Rp1372
(dp1373
g11
VNP
p1374
sbatp1375
Rp1376
(dp1377
g11
VVP
p1378
sbatp1379
Rp1380
(dp1381
g11
VS
p1382
sbatp1383
Rp1384
(dp1385
g11
VSBAR
p1386
sbatp1387
Rp1388
(dp1389
g11
VVP
p1390
sbatp1391
Rp1392
(dp1393
g11
VS
p1394
sbag0
(g1
g2
(lp1395
V.
p1396
atp1397
Rp1398
(dp1399
g11
V.
p1400
sbatp1401
Rp1402
(dp1403
g11
VS
p1404
sbatp1405
Rp1406
(dp1407
g11
S'id: 8'
p1408
sbag0
(g1
g2
(lp1409
g0
(g1
g2
(lp1410
g0
(g1
g2
(lp1411
g0
(g1
g2
(lp1412
g0
(g1
g2
(lp1413
Voh
p1414
atp1415
Rp1416
(dp1417
g11
VUH
p1418
sbatp1419
Rp1420
(dp1421
g11
VINTJ
p1422
sbag0
(g1
g2
(lp1423
g0
(g1
g2
(lp1424
Vthey
p1425
atp1426
Rp1427
(dp1428
g11
VPRP
p1429
sbatp1430
Rp1431
(dp1432
g11
VNP
p1433
sbag0
(g1
g2
(lp1434
g0
(g1
g2
(lp1435
V've
p1436
atp1437
Rp1438
(dp1439
g11
VVBP
p1440
sbag0
(g1
g2
(lp1441
g0
(g1
g2
(lp1442
Vbeen
p1443
atp1444
Rp1445
(dp1446
g11
VVBN
p1447
sbag0
(g1
g2
(lp1448
g0
(g1
g2
(lp1449
Vin
p1450
atp1451
Rp1452
(dp1453
g11
VIN
p1454
sbag0
(g1
g2
(lp1455
g0
(g1
g2
(lp1456
Vanother
p1457
atp1458
Rp1459
(dp1460
g11
VDT
p1461
sbag0
(g1
g2
(lp1462
Vcabinet
p1463
atp1464
Rp1465
(dp1466
g11
VNN
p1467
sbatp1468
Rp1469
(dp1470
g11
VNP
p1471
sbatp1472
Rp1473
(dp1474
g11
VPP
p1475
sbag0
(g1
g2
(lp1476
g0
(g1
g2
(lp1477
Vtoo
p1478
atp1479
Rp1480
(dp1481
g11
VRB
p1482
sbatp1483
Rp1484
(dp1485
g11
VADVP
p1486
sbatp1487
Rp1488
(dp1489
g11
VVP
p1490
sbatp1491
Rp1492
(dp1493
g11
VVP
p1494
sbatp1495
Rp1496
(dp1497
g11
VS
p1498
sbag0
(g1
g2
(lp1499
V,
p1500
atp1501
Rp1502
(dp1503
g11
V,
p1504
sbag0
(g1
g2
(lp1505
g0
(g1
g2
(lp1506
g0
(g1
g2
(lp1507
g0
(g1
g2
(lp1508
Vcabinet
p1509
atp1510
Rp1511
(dp1512
g11
VNN
p1513
sbag0
(g1
g2
(lp1514
V's
p1515
atp1516
Rp1517
(dp1518
g11
VPOS
p1519
sbatp1520
Rp1521
(dp1522
g11
VNP
p1523
sbag0
(g1
g2
(lp1524
Vdoor
p1525
atp1526
Rp1527
(dp1528
g11
VNN
p1529
sbatp1530
Rp1531
(dp1532
g11
VNP
p1533
sbag0
(g1
g2
(lp1534
g0
(g1
g2
(lp1535
Vis
p1536
atp1537
Rp1538
(dp1539
g11
VVBZ
p1540
sbag0
(g1
g2
(lp1541
g0
(g1
g2
(lp1542
Vopen
p1543
atp1544
Rp1545
(dp1546
g11
VJJ
p1547
sbatp1548
Rp1549
(dp1550
g11
VADJP
p1551
sbatp1552
Rp1553
(dp1554
g11
VVP
p1555
sbatp1556
Rp1557
(dp1558
g11
VS
p1559
sbag0
(g1
g2
(lp1560
V,
p1561
atp1562
Rp1563
(dp1564
g11
V,
p1565
sbag0
(g1
g2
(lp1566
g0
(g1
g2
(lp1567
g0
(g1
g2
(lp1568
Vmaybe
p1569
atp1570
Rp1571
(dp1572
g11
VRB
p1573
sbatp1574
Rp1575
(dp1576
g11
VADVP
p1577
sbag0
(g1
g2
(lp1578
g0
(g1
g2
(lp1579
Vthat
p1580
atp1581
Rp1582
(dp1583
g11
VDT
p1584
sbatp1585
Rp1586
(dp1587
g11
VNP
p1588
sbag0
(g1
g2
(lp1589
g0
(g1
g2
(lp1590
V's
p1591
atp1592
Rp1593
(dp1594
g11
VVBZ
p1595
sbag0
(g1
g2
(lp1596
g0
(g1
g2
(lp1597
g0
(g1
g2
(lp1598
Vwhere
p1599
atp1600
Rp1601
(dp1602
g11
VWRB
p1603
sbatp1604
Rp1605
(dp1606
g11
VWHADVP
p1607
sbag0
(g1
g2
(lp1608
g0
(g1
g2
(lp1609
g0
(g1
g2
(lp1610
Vmama
p1611
atp1612
Rp1613
(dp1614
g11
VNN
p1615
sbatp1616
Rp1617
(dp1618
g11
VNP
p1619
sbag0
(g1
g2
(lp1620
g0
(g1
g2
(lp1621
Vputs
p1622
atp1623
Rp1624
(dp1625
g11
VVBZ
p1626
sbag0
(g1
g2
(lp1627
g0
(g1
g2
(lp1628
Vthe
p1629
atp1630
Rp1631
(dp1632
g11
VDT
p1633
sbag0
(g1
g2
(lp1634
Vplates
p1635
atp1636
Rp1637
(dp1638
g11
VNNS
p1639
sbatp1640
Rp1641
(dp1642
g11
VNP
p1643
sbatp1644
Rp1645
(dp1646
g11
VVP
p1647
sbatp1648
Rp1649
(dp1650
g11
VS
p1651
sbatp1652
Rp1653
(dp1654
g11
VSBAR
p1655
sbatp1656
Rp1657
(dp1658
g11
VVP
p1659
sbatp1660
Rp1661
(dp1662
g11
VS
p1663
sbag0
(g1
g2
(lp1664
V.
p1665
atp1666
Rp1667
(dp1668
g11
V.
p1669
sbatp1670
Rp1671
(dp1672
g11
VS
p1673
sbatp1674
Rp1675
(dp1676
g11
S'id: 9'
p1677
sbag0
(g1
g2
(lp1678
g0
(g1
g2
(lp1679
g0
(g1
g2
(lp1680
g0
(g1
g2
(lp1681
VMaybe
p1682
atp1683
Rp1684
(dp1685
g11
VRB
p1686
sbatp1687
Rp1688
(dp1689
g11
VADVP
p1690
sbag0
(g1
g2
(lp1691
g0
(g1
g2
(lp1692
Vthat
p1693
atp1694
Rp1695
(dp1696
g11
VDT
p1697
sbatp1698
Rp1699
(dp1700
g11
VNP
p1701
sbag0
(g1
g2
(lp1702
g0
(g1
g2
(lp1703
V's
p1704
atp1705
Rp1706
(dp1707
g11
VVBZ
p1708
sbag0
(g1
g2
(lp1709
Vnot
p1710
atp1711
Rp1712
(dp1713
g11
VRB
p1714
sbag0
(g1
g2
(lp1715
g0
(g1
g2
(lp1716
g0
(g1
g2
(lp1717
Vthe
p1718
atp1719
Rp1720
(dp1721
g11
VDT
p1722
sbag0
(g1
g2
(lp1723
Vcookie
p1724
atp1725
Rp1726
(dp1727
g11
VNN
p1728
sbag0
(g1
g2
(lp1729
Vcab
p1730
atp1731
Rp1732
(dp1733
g11
VNN
p1734
sbatp1735
Rp1736
(dp1737
g11
VNP
p1738
sbag0
(g1
g2
(lp1739
V,
p1740
atp1741
Rp1742
(dp1743
g11
V,
p1744
sbag0
(g1
g2
(lp1745
Vand
p1746
atp1747
Rp1748
(dp1749
g11
VCC
p1750
sbag0
(g1
g2
(lp1751
g0
(g1
g2
(lp1752
Vthe
p1753
atp1754
Rp1755
(dp1756
g11
VDT
p1757
sbag0
(g1
g2
(lp1758
Vsnack
p1759
atp1760
Rp1761
(dp1762
g11
VNN
p1763
sbag0
(g1
g2
(lp1764
Vcabinet
p1765
atp1766
Rp1767
(dp1768
g11
VNN
p1769
sbatp1770
Rp1771
(dp1772
g11
VNP
p1773
sbatp1774
Rp1775
(dp1776
g11
VNP
p1777
sbatp1778
Rp1779
(dp1780
g11
VVP
p1781
sbag0
(g1
g2
(lp1782
V.
p1783
atp1784
Rp1785
(dp1786
g11
V.
p1787
sbatp1788
Rp1789
(dp1790
g11
VS
p1791
sbatp1792
Rp1793
(dp1794
g11
S'id: 10'
p1795
sbag0
(g1
g2
(lp1796
g0
(g1
g2
(lp1797
g0
(g1
g2
(lp1798
Vgoodness
p1799
atp1800
Rp1801
(dp1802
g11
VNN
p1803
sbag0
(g1
g2
(lp1804
V.
p1805
atp1806
Rp1807
(dp1808
g11
V.
p1809
sbatp1810
Rp1811
(dp1812
g11
VNP
p1813
sbatp1814
Rp1815
(dp1816
g11
S'id: 11'
p1817
sbag0
(g1
g2
(lp1818
g0
(g1
g2
(lp1819
g0
(g1
g2
(lp1820
g0
(g1
g2
(lp1821
g0
(g1
g2
(lp1822
Vlooks
p1823
atp1824
Rp1825
(dp1826
g11
VNNS
p1827
sbatp1828
Rp1829
(dp1830
g11
VNP
p1831
sbag0
(g1
g2
(lp1832
g0
(g1
g2
(lp1833
Vlike
p1834
atp1835
Rp1836
(dp1837
g11
VIN
p1838
sbag0
(g1
g2
(lp1839
g0
(g1
g2
(lp1840
Vthey
p1841
atp1842
Rp1843
(dp1844
g11
VPRP
p1845
sbatp1846
Rp1847
(dp1848
g11
VNP
p1849
sbatp1850
Rp1851
(dp1852
g11
VPP
p1853
sbatp1854
Rp1855
(dp1856
g11
VNP
p1857
sbag0
(g1
g2
(lp1858
g0
(g1
g2
(lp1859
V've
p1860
atp1861
Rp1862
(dp1863
g11
VVBP
p1864
sbag0
(g1
g2
(lp1865
g0
(g1
g2
(lp1866
Valmost
p1867
atp1868
Rp1869
(dp1870
g11
VRB
p1871
sbatp1872
Rp1873
(dp1874
g11
VADVP
p1875
sbag0
(g1
g2
(lp1876
g0
(g1
g2
(lp1877
Vgot
p1878
atp1879
Rp1880
(dp1881
g11
VVBN
p1882
sbag0
(g1
g2
(lp1883
g0
(g1
g2
(lp1884
Vsnow
p1885
atp1886
Rp1887
(dp1888
g11
VNN
p1889
sbatp1890
Rp1891
(dp1892
g11
VNP
p1893
sbag0
(g1
g2
(lp1894
g0
(g1
g2
(lp1895
Vout
p1896
atp1897
Rp1898
(dp1899
g11
VIN
p1900
sbag0
(g1
g2
(lp1901
g0
(g1
g2
(lp1902
Vthere
p1903
atp1904
Rp1905
(dp1906
g11
VRB
p1907
sbatp1908
Rp1909
(dp1910
g11
VNP
p1911
sbatp1912
Rp1913
(dp1914
g11
VPP
p1915
sbag0
(g1
g2
(lp1916
g0
(g1
g2
(lp1917
Von
p1918
atp1919
Rp1920
(dp1921
g11
VIN
p1922
sbag0
(g1
g2
(lp1923
g0
(g1
g2
(lp1924
Vthe
p1925
atp1926
Rp1927
(dp1928
g11
VDT
p1929
sbag0
(g1
g2
(lp1930
Vground
p1931
atp1932
Rp1933
(dp1934
g11
VNN
p1935
sbatp1936
Rp1937
(dp1938
g11
VNP
p1939
sbatp1940
Rp1941
(dp1942
g11
VPP
p1943
sbatp1944
Rp1945
(dp1946
g11
VVP
p1947
sbatp1948
Rp1949
(dp1950
g11
VVP
p1951
sbag0
(g1
g2
(lp1952
V.
p1953
atp1954
Rp1955
(dp1956
g11
V.
p1957
sbatp1958
Rp1959
(dp1960
g11
VS
p1961
sbatp1962
Rp1963
(dp1964
g11
S'id: 12'
p1965
sbag0
(g1
g2
(lp1966
g0
(g1
g2
(lp1967
g0
(g1
g2
(lp1968
g0
(g1
g2
(lp1969
Vthe
p1970
atp1971
Rp1972
(dp1973
g11
VDT
p1974
sbag0
(g1
g2
(lp1975
Vbushes
p1976
atp1977
Rp1978
(dp1979
g11
VNNS
p1980
sbatp1981
Rp1982
(dp1983
g11
VNP
p1984
sbag0
(g1
g2
(lp1985
g0
(g1
g2
(lp1986
Vjust
p1987
atp1988
Rp1989
(dp1990
g11
VRB
p1991
sbatp1992
Rp1993
(dp1994
g11
VADVP
p1995
sbag0
(g1
g2
(lp1996
g0
(g1
g2
(lp1997
Vlook
p1998
atp1999
Rp2000
(dp2001
g11
VVBP
p2002
sbag0
(g1
g2
(lp2003
g0
(g1
g2
(lp2004
Vlike
p2005
atp2006
Rp2007
(dp2008
g11
VIN
p2009
sbag0
(g1
g2
(lp2010
g0
(g1
g2
(lp2011
g0
(g1
g2
(lp2012
Vthey
p2013
atp2014
Rp2015
(dp2016
g11
VPRP
p2017
sbatp2018
Rp2019
(dp2020
g11
VNP
p2021
sbag0
(g1
g2
(lp2022
g0
(g1
g2
(lp2023
V're
p2024
atp2025
Rp2026
(dp2027
g11
VVBP
p2028
sbag0
(g1
g2
(lp2029
g0
(g1
g2
(lp2030
Vcovered
p2031
atp2032
Rp2033
(dp2034
g11
VVBN
p2035
sbag0
(g1
g2
(lp2036
g0
(g1
g2
(lp2037
Vwith
p2038
atp2039
Rp2040
(dp2041
g11
VIN
p2042
sbag0
(g1
g2
(lp2043
g0
(g1
g2
(lp2044
Vsnow
p2045
atp2046
Rp2047
(dp2048
g11
VNN
p2049
sbatp2050
Rp2051
(dp2052
g11
VNP
p2053
sbatp2054
Rp2055
(dp2056
g11
VPP
p2057
sbatp2058
Rp2059
(dp2060
g11
VVP
p2061
sbatp2062
Rp2063
(dp2064
g11
VVP
p2065
sbatp2066
Rp2067
(dp2068
g11
VS
p2069
sbatp2070
Rp2071
(dp2072
g11
VSBAR
p2073
sbatp2074
Rp2075
(dp2076
g11
VVP
p2077
sbag0
(g1
g2
(lp2078
V.
p2079
atp2080
Rp2081
(dp2082
g11
V.
p2083
sbatp2084
Rp2085
(dp2086
g11
VS
p2087
sbatp2088
Rp2089
(dp2090
g11
S'id: 13'
p2091
sbag0
(g1
g2
(lp2092
g0
(g1
g2
(lp2093
g0
(g1
g2
(lp2094
Vbut
p2095
atp2096
Rp2097
(dp2098
g11
VCC
p2099
sbag0
(g1
g2
(lp2100
g0
(g1
g2
(lp2101
Vthe
p2102
atp2103
Rp2104
(dp2105
g11
VDT
p2106
sbag0
(g1
g2
(lp2107
Vwindow
p2108
atp2109
Rp2110
(dp2111
g11
VNN
p2112
sbatp2113
Rp2114
(dp2115
g11
VNP
p2116
sbag0
(g1
g2
(lp2117
g0
(g1
g2
(lp2118
Vlooks
p2119
atp2120
Rp2121
(dp2122
g11
VVBZ
p2123
sbag0
(g1
g2
(lp2124
g0
(g1
g2
(lp2125
Vlike
p2126
atp2127
Rp2128
(dp2129
g11
VIN
p2130
sbag0
(g1
g2
(lp2131
g0
(g1
g2
(lp2132
g0
(g1
g2
(lp2133
Vit
p2134
atp2135
Rp2136
(dp2137
g11
VPRP
p2138
sbatp2139
Rp2140
(dp2141
g11
VNP
p2142
sbag0
(g1
g2
(lp2143
g0
(g1
g2
(lp2144
V's
p2145
atp2146
Rp2147
(dp2148
g11
VVBZ
p2149
sbag0
(g1
g2
(lp2150
g0
(g1
g2
(lp2151
Vup
p2152
atp2153
Rp2154
(dp2155
g11
VRB
p2156
sbatp2157
Rp2158
(dp2159
g11
VADVP
p2160
sbatp2161
Rp2162
(dp2163
g11
VVP
p2164
sbatp2165
Rp2166
(dp2167
g11
VS
p2168
sbatp2169
Rp2170
(dp2171
g11
VSBAR
p2172
sbatp2173
Rp2174
(dp2175
g11
VVP
p2176
sbag0
(g1
g2
(lp2177
V.
p2178
atp2179
Rp2180
(dp2181
g11
V.
p2182
sbatp2183
Rp2184
(dp2185
g11
VS
p2186
sbatp2187
Rp2188
(dp2189
g11
S'id: 14'
p2190
sbag0
(g1
g2
(lp2191
g0
(g1
g2
(lp2192
g0
(g1
g2
(lp2193
g0
(g1
g2
(lp2194
g0
(g1
g2
(lp2195
Voh
p2196
atp2197
Rp2198
(dp2199
g11
VUH
p2200
sbatp2201
Rp2202
(dp2203
g11
VNP
p2204
sbag0
(g1
g2
(lp2205
g0
(g1
g2
(lp2206
g0
(g1
g2
(lp2207
Vmy
p2208
atp2209
Rp2210
(dp2211
g11
VPRP$
p2212
sbag0
(g1
g2
(lp2213
g0
(g1
g2
(lp2214
Vmother
p2215
atp2216
Rp2217
(dp2218
g11
VNN
p2219
sbag0
(g1
g2
(lp2220
V's
p2221
atp2222
Rp2223
(dp2224
g11
VPOS
p2225
sbatp2226
Rp2227
(dp2228
g11
VNP
p2229
sbag0
(g1
g2
(lp2230
Vstandin
p2231
atp2232
Rp2233
(dp2234
g11
VNN
p2235
sbag0
(g1
g2
(lp2236
V'
p2237
atp2238
Rp2239
(dp2240
g11
V''
p2241
sbatp2242
Rp2243
(dp2244
g11
VNP
p2245
sbag0
(g1
g2
(lp2246
g0
(g1
g2
(lp2247
Vin
p2248
atp2249
Rp2250
(dp2251
g11
VIN
p2252
sbag0
(g1
g2
(lp2253
g0
(g1
g2
(lp2254
Vwater
p2255
atp2256
Rp2257
(dp2258
g11
VNN
p2259
sbatp2260
Rp2261
(dp2262
g11
VNP
p2263
sbag0
(g1
g2
(lp2264
g0
(g1
g2
(lp2265
Vnow
p2266
atp2267
Rp2268
(dp2269
g11
VRB
p2270
sbatp2271
Rp2272
(dp2273
g11
VADVP
p2274
sbatp2275
Rp2276
(dp2277
g11
VPP
p2278
sbatp2279
Rp2280
(dp2281
g11
VPP
p2282
sbatp2283
Rp2284
(dp2285
g11
VPP
p2286
sbag0
(g1
g2
(lp2287
V.
p2288
atp2289
Rp2290
(dp2291
g11
V.
p2292
sbatp2293
Rp2294
(dp2295
g11
VFRAG
p2296
sbatp2297
Rp2298
(dp2299
g11
S'id: 15'
p2300
sbag0
(g1
g2
(lp2301
g0
(g1
g2
(lp2302
g0
(g1
g2
(lp2303
g0
(g1
g2
(lp2304
Vthat
p2305
atp2306
Rp2307
(dp2308
g11
VDT
p2309
sbatp2310
Rp2311
(dp2312
g11
VNP
p2313
sbag0
(g1
g2
(lp2314
g0
(g1
g2
(lp2315
V's
p2316
atp2317
Rp2318
(dp2319
g11
VVBZ
p2320
sbag0
(g1
g2
(lp2321
Vnot
p2322
atp2323
Rp2324
(dp2325
g11
VRB
p2326
sbag0
(g1
g2
(lp2327
g0
(g1
g2
(lp2328
Vgood
p2329
atp2330
Rp2331
(dp2332
g11
VJJ
p2333
sbatp2334
Rp2335
(dp2336
g11
VADJP
p2337
sbatp2338
Rp2339
(dp2340
g11
VVP
p2341
sbag0
(g1
g2
(lp2342
V.
p2343
atp2344
Rp2345
(dp2346
g11
V.
p2347
sbatp2348
Rp2349
(dp2350
g11
VS
p2351
sbatp2352
Rp2353
(dp2354
g11
S'id: 16'
p2355
sbag0
(g1
g2
(lp2356
g0
(g1
g2
(lp2357
g0
(g1
g2
(lp2358
g0
(g1
g2
(lp2359
g0
(g1
g2
(lp2360
Vthey
p2361
atp2362
Rp2363
(dp2364
g11
VPRP
p2365
sbatp2366
Rp2367
(dp2368
g11
VNP
p2369
sbag0
(g1
g2
(lp2370
g0
(g1
g2
(lp2371
Vgon
p2372
atp2373
Rp2374
(dp2375
g11
VVBP
p2376
sbatp2377
Rp2378
(dp2379
g11
VVP
p2380
sbatp2381
Rp2382
(dp2383
g11
VS
p2384
sbag0
(g1
g2
(lp2385
V'
p2386
atp2387
Rp2388
(dp2389
g11
V''
p2390
sbag0
(g1
g2
(lp2391
g0
(g1
g2
(lp2392
Vhave
p2393
atp2394
Rp2395
(dp2396
g11
VVBP
p2397
sbag0
(g1
g2
(lp2398
g0
(g1
g2
(lp2399
g0
(g1
g2
(lp2400
Vall
p2401
atp2402
Rp2403
(dp2404
g11
VDT
p2405
sbag0
(g1
g2
(lp2406
Vkinds
p2407
atp2408
Rp2409
(dp2410
g11
VNNS
p2411
sbatp2412
Rp2413
(dp2414
g11
VNP
p2415
sbag0
(g1
g2
(lp2416
g0
(g1
g2
(lp2417
Vof
p2418
atp2419
Rp2420
(dp2421
g11
VIN
p2422
sbag0
(g1
g2
(lp2423
g0
(g1
g2
(lp2424
g0
(g1
g2
(lp2425
Vaccidents
p2426
atp2427
Rp2428
(dp2429
g11
VNNS
p2430
sbatp2431
Rp2432
(dp2433
g11
VNP
p2434
sbag0
(g1
g2
(lp2435
g0
(g1
g2
(lp2436
Vin
p2437
atp2438
Rp2439
(dp2440
g11
VIN
p2441
sbag0
(g1
g2
(lp2442
g0
(g1
g2
(lp2443
Vthat
p2444
atp2445
Rp2446
(dp2447
g11
VDT
p2448
sbag0
(g1
g2
(lp2449
Vkitchen
p2450
atp2451
Rp2452
(dp2453
g11
VNN
p2454
sbatp2455
Rp2456
(dp2457
g11
VNP
p2458
sbatp2459
Rp2460
(dp2461
g11
VPP
p2462
sbatp2463
Rp2464
(dp2465
g11
VNP
p2466
sbatp2467
Rp2468
(dp2469
g11
VPP
p2470
sbatp2471
Rp2472
(dp2473
g11
VNP
p2474
sbatp2475
Rp2476
(dp2477
g11
VVP
p2478
sbag0
(g1
g2
(lp2479
V.
p2480
atp2481
Rp2482
(dp2483
g11
V.
p2484
sbatp2485
Rp2486
(dp2487
g11
VS
p2488
sbatp2489
Rp2490
(dp2491
g11
S'id: 17'
p2492
sbag0
(g1
g2
(lp2493
g0
(g1
g2
(lp2494
g0
(g1
g2
(lp2495
g0
(g1
g2
(lp2496
Vit
p2497
atp2498
Rp2499
(dp2500
g11
VPRP
p2501
sbatp2502
Rp2503
(dp2504
g11
VNP
p2505
sbag0
(g1
g2
(lp2506
g0
(g1
g2
(lp2507
Vlooks
p2508
atp2509
Rp2510
(dp2511
g11
VVBZ
p2512
sbag0
(g1
g2
(lp2513
g0
(g1
g2
(lp2514
Vlike
p2515
atp2516
Rp2517
(dp2518
g11
VIN
p2519
sbatp2520
Rp2521
(dp2522
g11
VPP
p2523
sbatp2524
Rp2525
(dp2526
g11
VVP
p2527
sbag0
(g1
g2
(lp2528
V.
p2529
atp2530
Rp2531
(dp2532
g11
V.
p2533
sbatp2534
Rp2535
(dp2536
g11
VS
p2537
sbatp2538
Rp2539
(dp2540
g11
S'id: 18'
p2541
sbatp2542
Rp2543
(dp2544
g11
S'sentences'
p2545
sb.