ccopy_reg
_reconstructor
p0
(cnltk.tree
Tree
p1
c__builtin__
list
p2
(lp3
g0
(g1
g2
(lp4
g0
(g1
g2
(lp5
g0
(g1
g2
(lp6
(lp7
S'word: okay, index: 1'
p8
aatp9
Rp10
(dp11
S'_label'
p12
Vccomp
p13
sbag0
(g1
g2
(lp14
(lp15
S'word: there, index: 3'
p16
aatp17
Rp18
(dp19
g12
Vexpl
p20
sbag0
(g1
g2
(lp21
g0
(g1
g2
(lp22
g0
(g1
g2
(lp23
(lp24
S'word: a, index: 5'
p25
aatp26
Rp27
(dp28
g12
Vdet
p29
sbag0
(g1
g2
(lp30
g0
(g1
g2
(lp31
g0
(g1
g2
(lp32
(lp33
S'word: a, index: 8'
p34
aatp35
Rp36
(dp37
g12
Vdet
p38
sbag0
(g1
g2
(lp39
g0
(g1
g2
(lp40
g0
(g1
g2
(lp41
(lp42
S'word: a, index: 11'
p43
aatp44
Rp45
(dp46
g12
Vdet
p47
sbatp48
Rp49
(dp50
g12
S'word: lion, index: 12'
p51
sbatp52
Rp53
(dp54
g12
Vprep
p55
sbatp56
Rp57
(dp58
g12
S'word: cage, index: 9'
p59
sbatp60
Rp61
(dp62
g12
Vprep
p63
sbatp64
Rp65
(dp66
g12
S'word: man, index: 6'
p67
sbatp68
Rp69
(dp70
g12
Vnsubj
p71
sbag0
(g1
g2
(lp72
g0
(g1
g2
(lp73
g0
(g1
g2
(lp74
g0
(g1
g2
(lp75
g0
(g1
g2
(lp76
(lp77
S'word: to, index: 16'
p78
aatp79
Rp80
(dp81
g12
Vaux
p82
sbag0
(g1
g2
(lp83
(lp84
S'word: be, index: 17'
p85
aatp86
Rp87
(dp88
g12
Vaux
p89
sbag0
(g1
g2
(lp90
g0
(g1
g2
(lp91
g0
(g1
g2
(lp92
(lp93
S'word: the, index: 19'
p94
aatp95
Rp96
(dp97
g12
Vdet
p98
sbatp99
Rp100
(dp101
g12
S'word: lion, index: 20'
p102
sbatp103
Rp104
(dp105
g12
Vdobj
p106
sbag0
(g1
g2
(lp107
g0
(g1
g2
(lp108
g0
(g1
g2
(lp109
g0
(g1
g2
(lp110
g0
(g1
g2
(lp111
(lp112
S'word: the, index: 23'
p113
aatp114
Rp115
(dp116
g12
Vdet
p117
sbatp118
Rp119
(dp120
g12
S'word: lion, index: 24'
p121
sbatp122
Rp123
(dp124
g12
Vdobj
p125
sbag0
(g1
g2
(lp126
g0
(g1
g2
(lp127
g0
(g1
g2
(lp128
(lp129
S'word: guess, index: 26'
p130
aatp131
Rp132
(dp133
g12
Vdep
p134
sbatp135
Rp136
(dp137
g12
S'word: i, index: 25'
p138
sbatp139
Rp140
(dp141
g12
Vtmod
p142
sbatp143
Rp144
(dp145
g12
S'word: taming, index: 22'
p146
sbatp147
Rp148
(dp149
g12
Vconj
p150
sbatp151
Rp152
(dp153
g12
S'word: training, index: 18'
p154
sbatp155
Rp156
(dp157
g12
Vxcomp
p158
sbag0
(g1
g2
(lp159
g144
atp160
Rp161
(dp162
g12
Vxcomp
p163
sbag0
(g1
g2
(lp164
(lp165
S'word: he, index: 14'
p166
aatp167
Rp168
(dp169
g12
Vnsubj
p170
sbatp171
Rp172
(dp173
g12
S'word: seems, index: 15'
p174
sbatp175
Rp176
(dp177
g12
Vconj
p178
sbatp179
Rp180
(dp181
g12
S'word: is, index: 4'
p182
sbatp183
Rp184
(dp185
g12
S'id: 0'
p186
sbag0
(g1
g2
(lp187
g0
(g1
g2
(lp188
g0
(g1
g2
(lp189
g0
(g1
g2
(lp190
g0
(g1
g2
(lp191
(lp192
S'word: the, index: 2'
p193
aatp194
Rp195
(dp196
g12
Vdet
p197
sbatp198
Rp199
(dp200
g12
S'word: foreground, index: 3'
p201
sbatp202
Rp203
(dp204
g12
Vprep
p205
sbag0
(g1
g2
(lp206
(lp207
S'word: there, index: 4'
p208
aatp209
Rp210
(dp211
g12
Vexpl
p212
sbag0
(g1
g2
(lp213
g0
(g1
g2
(lp214
g0
(g1
g2
(lp215
(lp216
S'word: a, index: 6'
p217
aatp218
Rp219
(dp220
g12
Vdet
p221
sbatp222
Rp223
(dp224
g12
S'word: clown, index: 7'
p225
sbatp226
Rp227
(dp228
g12
Vnsubj
p229
sbag0
(g1
g2
(lp230
g0
(g1
g2
(lp231
g0
(g1
g2
(lp232
g0
(g1
g2
(lp233
g0
(g1
g2
(lp234
(lp235
S'word: three, index: 19'
p236
aatp237
Rp238
(dp239
g12
Vnum
p240
sbag0
(g1
g2
(lp241
g0
(g1
g2
(lp242
g0
(g1
g2
(lp243
(lp244
S'word: which, index: 21'
p245
aatp246
Rp247
(dp248
g12
Vnsubj
p249
sbag0
(g1
g2
(lp250
(lp251
S'word: is, index: 22'
p252
aatp253
Rp254
(dp255
g12
Vcop
p256
sbag0
(g1
g2
(lp257
(lp258
S'word: a, index: 23'
p259
aatp260
Rp261
(dp262
g12
Vdet
p263
sbag0
(g1
g2
(lp264
g0
(g1
g2
(lp265
g0
(g1
g2
(lp266
(lp267
S'word: two, index: 26'
p268
aatp269
Rp270
(dp271
g12
Vnum
p272
sbatp273
Rp274
(dp275
g12
S'word: kids, index: 27'
p276
sbatp277
Rp278
(dp279
g12
Vconj
p280
sbatp281
Rp282
(dp283
g12
S'word: mother, index: 24'
p284
sbatp285
Rp286
(dp287
g12
Vrcmod
p288
sbag0
(g1
g2
(lp289
g274
atp290
Rp291
(dp292
g12
Vrcmod
p293
sbatp294
Rp295
(dp296
g12
S'word: people, index: 20'
p297
sbatp298
Rp299
(dp300
g12
Vprep
p301
sbag0
(g1
g2
(lp302
(lp303
S'word: he, index: 9'
p304
aatp305
Rp306
(dp307
g12
Vnsubj
p308
sbag0
(g1
g2
(lp309
(lp310
S'word: is, index: 10'
p311
aatp312
Rp313
(dp314
g12
Vaux
p315
sbag0
(g1
g2
(lp316
(lp317
S'word: things, index: 12'
p318
aatp319
Rp320
(dp321
g12
Vdobj
p322
sbag0
(g1
g2
(lp323
g0
(g1
g2
(lp324
g0
(g1
g2
(lp325
(lp326
S'word: a, index: 15'
p327
aatp328
Rp329
(dp330
g12
Vdet
p331
sbatp332
Rp333
(dp334
g12
S'word: bucket, index: 16'
p335
sbatp336
Rp337
(dp338
g12
Vprep
p339
sbatp340
Rp341
(dp342
g12
S'word: throwing, index: 11'
p343
sbatp344
Rp345
(dp346
g12
Vconj
p347
sbatp348
Rp349
(dp350
g12
S"word: 's, index: 5"
p351
sbatp352
Rp353
(dp354
g12
S'id: 1'
p355
sbag0
(g1
g2
(lp356
g0
(g1
g2
(lp357
g0
(g1
g2
(lp358
g0
(g1
g2
(lp359
g0
(g1
g2
(lp360
g0
(g1
g2
(lp361
g0
(g1
g2
(lp362
(lp363
S'word: which, index: 8'
p364
aatp365
Rp366
(dp367
g12
Vnsubj
p368
sbag0
(g1
g2
(lp369
g0
(g1
g2
(lp370
g0
(g1
g2
(lp371
(lp372
S'word: a, index: 11'
p373
aatp374
Rp375
(dp376
g12
Vdet
p377
sbag0
(g1
g2
(lp378
g0
(g1
g2
(lp379
g0
(g1
g2
(lp380
(lp381
S'word: the, index: 14'
p382
aatp383
Rp384
(dp385
g12
Vdet
p386
sbag0
(g1
g2
(lp387
(lp388
S'word: older, index: 15'
p389
aatp390
Rp391
(dp392
g12
Vamod
p393
sbag0
(g1
g2
(lp394
g0
(g1
g2
(lp395
g0
(g1
g2
(lp396
(lp397
S'word: a, index: 18'
p398
aatp399
Rp400
(dp401
g12
Vdet
p402
sbatp403
Rp404
(dp405
g12
S'word: boy, index: 19'
p406
sbatp407
Rp408
(dp409
g12
Vdep
p410
sbatp411
Rp412
(dp413
g12
S'word: child, index: 16'
p414
sbatp415
Rp416
(dp417
g12
Vconj
p418
sbatp419
Rp420
(dp421
g12
S'word: girl, index: 12'
p422
sbatp423
Rp424
(dp425
g12
Vprep
p426
sbag0
(g1
g2
(lp427
g412
atp428
Rp429
(dp430
g12
Vprep
p431
sbatp432
Rp433
(dp434
g12
S'word: looks, index: 9'
p435
sbatp436
Rp437
(dp438
g12
Vrcmod
p439
sbag0
(g1
g2
(lp440
(lp441
S'word: the, index: 4'
p442
aatp443
Rp444
(dp445
g12
Vdet
p446
sbag0
(g1
g2
(lp447
(lp448
S'word: younger, index: 5'
p449
aatp450
Rp451
(dp452
g12
Vamod
p453
sbatp454
Rp455
(dp456
g12
S'word: child, index: 6'
p457
sbatp458
Rp459
(dp460
g12
Vdobj
p461
sbag0
(g1
g2
(lp462
(lp463
S'word: she, index: 1'
p464
aatp465
Rp466
(dp467
g12
Vnsubj
p468
sbag0
(g1
g2
(lp469
(lp470
S"word: 's, index: 2"
p471
aatp472
Rp473
(dp474
g12
Vaux
p475
sbatp476
Rp477
(dp478
g12
S'word: holding, index: 3'
p479
sbatp480
Rp481
(dp482
g12
S'id: 2'
p483
sbag0
(g1
g2
(lp484
g0
(g1
g2
(lp485
g0
(g1
g2
(lp486
g0
(g1
g2
(lp487
g0
(g1
g2
(lp488
(lp489
S'word: the, index: 27'
p490
aatp491
Rp492
(dp493
g12
Vdet
p494
sbatp495
Rp496
(dp497
g12
S'word: clown, index: 28'
p498
sbatp499
Rp500
(dp501
g12
Vprep
p502
sbag0
(g1
g2
(lp503
g0
(g1
g2
(lp504
g0
(g1
g2
(lp505
(lp506
S'word: there, index: 1'
p507
aatp508
Rp509
(dp510
g12
Vexpl
p511
sbag0
(g1
g2
(lp512
g0
(g1
g2
(lp513
g0
(g1
g2
(lp514
g0
(g1
g2
(lp515
g0
(g1
g2
(lp516
(lp517
S'word: maybe, index: 9'
p518
aatp519
Rp520
(dp521
g12
Vadvmod
p522
sbag0
(g1
g2
(lp523
(lp524
S'word: african, index: 10'
p525
aatp526
Rp527
(dp528
g12
Vamod
p529
sbatp530
Rp531
(dp532
g12
S'word: american, index: 11'
p533
sbatp534
Rp535
(dp536
g12
Vprep
p537
sbag0
(g1
g2
(lp538
g0
(g1
g2
(lp539
g0
(g1
g2
(lp540
(lp541
S'word: a, index: 13'
p542
aatp543
Rp544
(dp545
g12
Vdet
p546
sbatp547
Rp548
(dp549
g12
S'word: father, index: 14'
p550
sbatp551
Rp552
(dp553
g12
Vprep
p554
sbag0
(g1
g2
(lp555
(lp556
S'word: daughter, index: 16'
p557
aatp558
Rp559
(dp560
g12
Vprep
p561
sbag0
(g1
g2
(lp562
(lp563
S'word: another, index: 3'
p564
aatp565
Rp566
(dp567
g12
Vdet
p568
sbag0
(g1
g2
(lp569
g0
(g1
g2
(lp570
g0
(g1
g2
(lp571
g531
atp572
Rp573
(dp574
g12
Vconj
p575
sbag0
(g1
g2
(lp576
g548
atp577
Rp578
(dp579
g12
Vconj
p580
sbag0
(g1
g2
(lp581
(lp582
S'word: daughter, index: 16'
p583
aatp584
Rp585
(dp586
g12
Vconj
p587
sbag0
(g1
g2
(lp588
(lp589
S'word: the, index: 6'
p590
aatp591
Rp592
(dp593
g12
Vdet
p594
sbatp595
Rp596
(dp597
g12
S'word: foreground, index: 7'
p598
sbatp599
Rp600
(dp601
g12
Vprep
p602
sbatp603
Rp604
(dp605
g12
S'word: couple, index: 4'
p606
sbatp607
Rp608
(dp609
g12
Vnsubj
p610
sbag0
(g1
g2
(lp611
g0
(g1
g2
(lp612
g0
(g1
g2
(lp613
(lp614
S'word: they, index: 18'
p615
aatp616
Rp617
(dp618
g12
Vnsubj
p619
sbag0
(g1
g2
(lp620
(lp621
S"word: 're, index: 19"
p622
aatp623
Rp624
(dp625
g12
Vaux
p626
sbatp627
Rp628
(dp629
g12
S'word: pointing, index: 20'
p630
sbatp631
Rp632
(dp633
g12
Vconj
p634
sbatp635
Rp636
(dp637
g12
S"word: 's, index: 2"
p638
sbatp639
Rp640
(dp641
g12
Vccomp
p642
sbag0
(g1
g2
(lp643
g628
atp644
Rp645
(dp646
g12
Vccomp
p647
sbag0
(g1
g2
(lp648
g0
(g1
g2
(lp649
g0
(g1
g2
(lp650
(lp651
S'word: the, index: 22'
p652
aatp653
Rp654
(dp655
g12
Vdet
p656
sbatp657
Rp658
(dp659
g12
S'word: girl, index: 23'
p660
sbatp661
Rp662
(dp663
g12
Vnsubj
p664
sbag0
(g1
g2
(lp665
(lp666
S'word: is, index: 24'
p667
aatp668
Rp669
(dp670
g12
Vaux
p671
sbatp672
Rp673
(dp674
g12
S'word: pointing, index: 25'
p675
sbatp676
Rp677
(dp678
g12
S'id: 3'
p679
sbag0
(g1
g2
(lp680
g0
(g1
g2
(lp681
g0
(g1
g2
(lp682
g0
(g1
g2
(lp683
g0
(g1
g2
(lp684
(lp685
S'word: the, index: 2'
p686
aatp687
Rp688
(dp689
g12
Vdet
p690
sbatp691
Rp692
(dp693
g12
S'word: background, index: 3'
p694
sbatp695
Rp696
(dp697
g12
Vprep
p698
sbag0
(g1
g2
(lp699
(lp700
S'word: we, index: 4'
p701
aatp702
Rp703
(dp704
g12
Vnsubj
p705
sbag0
(g1
g2
(lp706
g0
(g1
g2
(lp707
g0
(g1
g2
(lp708
(lp709
S'word: a, index: 6'
p710
aatp711
Rp712
(dp713
g12
Vdet
p714
sbag0
(g1
g2
(lp715
g0
(g1
g2
(lp716
g0
(g1
g2
(lp717
(lp718
S'word: horseback, index: 10'
p719
aatp720
Rp721
(dp722
g12
Vprep
p723
sbatp724
Rp725
(dp726
g12
S'word: performing, index: 8'
p727
sbatp728
Rp729
(dp730
g12
Vvmod
p731
sbatp732
Rp733
(dp734
g12
S'word: woman, index: 7'
p735
sbatp736
Rp737
(dp738
g12
Vdobj
p739
sbatp740
Rp741
(dp742
g12
S'word: have, index: 5'
p743
sbatp744
Rp745
(dp746
g12
S'id: 4'
p747
sbag0
(g1
g2
(lp748
g0
(g1
g2
(lp749
g0
(g1
g2
(lp750
(lp751
S'word: she, index: 1'
p752
aatp753
Rp754
(dp755
g12
Vnsubj
p756
sbag0
(g1
g2
(lp757
(lp758
S'word: is, index: 2'
p759
aatp760
Rp761
(dp762
g12
Vaux
p763
sbag0
(g1
g2
(lp764
g0
(g1
g2
(lp765
g0
(g1
g2
(lp766
(lp767
S'word: some, index: 4'
p768
aatp769
Rp770
(dp771
g12
Vdet
p772
sbag0
(g1
g2
(lp773
(lp774
S'word: tutu, index: 7'
p775
aatp776
Rp777
(dp778
g12
Vprep
p779
sbatp780
Rp781
(dp782
g12
S'word: sort, index: 5'
p783
sbatp784
Rp785
(dp786
g12
Vdobj
p787
sbag0
(g1
g2
(lp788
g0
(g1
g2
(lp789
g0
(g1
g2
(lp790
(lp791
S'word: she, index: 9'
p792
aatp793
Rp794
(dp795
g12
Vnsubj
p796
sbag0
(g1
g2
(lp797
g0
(g1
g2
(lp798
g0
(g1
g2
(lp799
g0
(g1
g2
(lp800
g0
(g1
g2
(lp801
(lp802
S'word: the, index: 15'
p803
aatp804
Rp805
(dp806
g12
Vdet
p807
sbag0
(g1
g2
(lp808
g0
(g1
g2
(lp809
g0
(g1
g2
(lp810
(lp811
S'word: the, index: 18'
p812
aatp813
Rp814
(dp815
g12
Vdet
p816
sbatp817
Rp818
(dp819
g12
S'word: horse, index: 19'
p820
sbatp821
Rp822
(dp823
g12
Vprep
p824
sbatp825
Rp826
(dp827
g12
S'word: back, index: 16'
p828
sbatp829
Rp830
(dp831
g12
Vprep
p832
sbag0
(g1
g2
(lp833
(lp834
S'word: to, index: 11'
p835
aatp836
Rp837
(dp838
g12
Vaux
p839
sbag0
(g1
g2
(lp840
(lp841
S'word: be, index: 12'
p842
aatp843
Rp844
(dp845
g12
Vaux
p846
sbatp847
Rp848
(dp849
g12
S'word: kneeling, index: 13'
p850
sbatp851
Rp852
(dp853
g12
Vxcomp
p854
sbatp855
Rp856
(dp857
g12
S'word: seems, index: 10'
p858
sbatp859
Rp860
(dp861
g12
Vconj
p862
sbatp863
Rp864
(dp865
g12
S'word: wearing, index: 3'
p866
sbatp867
Rp868
(dp869
g12
S'id: 5'
p870
sbag0
(g1
g2
(lp871
g0
(g1
g2
(lp872
g0
(g1
g2
(lp873
g0
(g1
g2
(lp874
g0
(g1
g2
(lp875
(lp876
S'word: an, index: 3'
p877
aatp878
Rp879
(dp880
g12
Vdet
p881
sbag0
(g1
g2
(lp882
g0
(g1
g2
(lp883
g0
(g1
g2
(lp884
(lp885
S'word: five, index: 6'
p886
aatp887
Rp888
(dp889
g12
Vnum
p890
sbag0
(g1
g2
(lp891
g0
(g1
g2
(lp892
g0
(g1
g2
(lp893
(lp894
S'word: her, index: 9'
p895
aatp896
Rp897
(dp898
g12
Vdobj
p899
sbatp900
Rp901
(dp902
g12
S'word: watching, index: 8'
p903
sbatp904
Rp905
(dp906
g12
Vvmod
p907
sbatp908
Rp909
(dp910
g12
S'word: people, index: 7'
p911
sbatp912
Rp913
(dp914
g12
Vprep
p915
sbatp916
Rp917
(dp918
g12
S'word: audience, index: 4'
p919
sbatp920
Rp921
(dp922
g12
Vnsubj
p923
sbag0
(g1
g2
(lp924
(lp925
S'word: there, index: 1'
p926
aatp927
Rp928
(dp929
g12
Vexpl
p930
sbatp931
Rp932
(dp933
g12
S'word: is, index: 2'
p934
sbatp935
Rp936
(dp937
g12
S'id: 6'
p938
sbag0
(g1
g2
(lp939
g0
(g1
g2
(lp940
g0
(g1
g2
(lp941
(lp942
S'word: them, index: 5'
p943
aatp944
Rp945
(dp946
g12
Vdobj
p947
sbag0
(g1
g2
(lp948
g0
(g1
g2
(lp949
g0
(g1
g2
(lp950
(lp951
S'word: very, index: 6'
p952
aatp953
Rp954
(dp955
g12
Vadvmod
p956
sbag0
(g1
g2
(lp957
g0
(g1
g2
(lp958
g0
(g1
g2
(lp959
(lp960
S'word: because, index: 8'
p961
aatp962
Rp963
(dp964
g12
Vmark
p965
sbag0
(g1
g2
(lp966
(lp967
S'word: they, index: 9'
p968
aatp969
Rp970
(dp971
g12
Vnsubj
p972
sbag0
(g1
g2
(lp973
(lp974
S'word: shadow, index: 12'
p975
aatp976
Rp977
(dp978
g12
Vprep
p979
sbatp980
Rp981
(dp982
g12
S"word: 're, index: 10"
p983
sbatp984
Rp985
(dp986
g12
Vadvcl
p987
sbatp988
Rp989
(dp990
g12
S'word: well, index: 7'
p991
sbatp992
Rp993
(dp994
g12
Vadvmod
p995
sbag0
(g1
g2
(lp996
(lp997
S'word: we, index: 1'
p998
aatp999
Rp1000
(dp1001
g12
Vnsubj
p1002
sbag0
(g1
g2
(lp1003
(lp1004
S'word: ca, index: 2'
p1005
aatp1006
Rp1007
(dp1008
g12
Vaux
p1009
sbag0
(g1
g2
(lp1010
(lp1011
S"word: n't, index: 3"
p1012
aatp1013
Rp1014
(dp1015
g12
Vneg
p1016
sbatp1017
Rp1018
(dp1019
g12
S'word: see, index: 4'
p1020
sbatp1021
Rp1022
(dp1023
g12
S'id: 7'
p1024
sbag0
(g1
g2
(lp1025
g0
(g1
g2
(lp1026
g0
(g1
g2
(lp1027
(lp1028
S"word: n't, index: 24"
p1029
aatp1030
Rp1031
(dp1032
g12
Vneg
p1033
sbag0
(g1
g2
(lp1034
g0
(g1
g2
(lp1035
g0
(g1
g2
(lp1036
(lp1037
S'word: he, index: 8'
p1038
aatp1039
Rp1040
(dp1041
g12
Vnsubjpass
p1042
sbag0
(g1
g2
(lp1043
(lp1044
S'word: is, index: 9'
p1045
aatp1046
Rp1047
(dp1048
g12
Vauxpass
p1049
sbag0
(g1
g2
(lp1050
g0
(g1
g2
(lp1051
g0
(g1
g2
(lp1052
(lp1053
S'word: all, index: 12'
p1054
aatp1055
Rp1056
(dp1057
g12
Vdet
p1058
sbatp1059
Rp1060
(dp1061
g12
S'word: black, index: 13'
p1062
sbatp1063
Rp1064
(dp1065
g12
Vprep
p1066
sbag0
(g1
g2
(lp1067
g0
(g1
g2
(lp1068
g0
(g1
g2
(lp1069
(lp1070
S'word: he, index: 15'
p1071
aatp1072
Rp1073
(dp1074
g12
Vnsubj
p1075
sbag0
(g1
g2
(lp1076
(lp1077
S'word: is, index: 16'
p1078
aatp1079
Rp1080
(dp1081
g12
Vaux
p1082
sbag0
(g1
g2
(lp1083
g0
(g1
g2
(lp1084
g0
(g1
g2
(lp1085
(lp1086
S'word: a, index: 18'
p1087
aatp1088
Rp1089
(dp1090
g12
Vdet
p1091
sbag0
(g1
g2
(lp1092
(lp1093
S'word: balancing, index: 19'
p1094
aatp1095
Rp1096
(dp1097
g12
Vamod
p1098
sbatp1099
Rp1100
(dp1101
g12
S'word: bar, index: 20'
p1102
sbatp1103
Rp1104
(dp1105
g12
Vdobj
p1106
sbatp1107
Rp1108
(dp1109
g12
S'word: carrying, index: 17'
p1110
sbatp1111
Rp1112
(dp1113
g12
Vconj
p1114
sbatp1115
Rp1116
(dp1117
g12
S'word: dressed, index: 10'
p1118
sbatp1119
Rp1120
(dp1121
g12
Vccomp
p1122
sbag0
(g1
g2
(lp1123
g0
(g1
g2
(lp1124
g0
(g1
g2
(lp1125
(lp1126
S'word: what, index: 26'
p1127
aatp1128
Rp1129
(dp1130
g12
Vdobj
p1131
sbag0
(g1
g2
(lp1132
(lp1133
S'word: you, index: 27'
p1134
aatp1135
Rp1136
(dp1137
g12
Vnsubj
p1138
sbag0
(g1
g2
(lp1139
(lp1140
S'word: that, index: 29'
p1141
aatp1142
Rp1143
(dp1144
g12
Vadvmod
p1145
sbatp1146
Rp1147
(dp1148
g12
S'word: call, index: 28'
p1149
sbatp1150
Rp1151
(dp1152
g12
Vccomp
p1153
sbag0
(g1
g2
(lp1154
g0
(g1
g2
(lp1155
g0
(g1
g2
(lp1156
g1116
atp1157
Rp1158
(dp1159
g12
Vconj
p1160
sbag0
(g1
g2
(lp1161
(lp1162
S'word: overhead, index: 1'
p1163
aatp1164
Rp1165
(dp1166
g12
Vadvmod
p1167
sbag0
(g1
g2
(lp1168
g1108
atp1169
Rp1170
(dp1171
g12
Vconj
p1172
sbag0
(g1
g2
(lp1173
(lp1174
S'word: we, index: 2'
p1175
aatp1176
Rp1177
(dp1178
g12
Vnsubj
p1179
sbag0
(g1
g2
(lp1180
g0
(g1
g2
(lp1181
g0
(g1
g2
(lp1182
(lp1183
S'word: a, index: 4'
p1184
aatp1185
Rp1186
(dp1187
g12
Vdet
p1188
sbag0
(g1
g2
(lp1189
(lp1190
S'word: tightrope, index: 5'
p1191
aatp1192
Rp1193
(dp1194
g12
Vnn
p1195
sbatp1196
Rp1197
(dp1198
g12
S'word: walker, index: 6'
p1199
sbatp1200
Rp1201
(dp1202
g12
Vdobj
p1203
sbatp1204
Rp1205
(dp1206
g12
S'word: have, index: 3'
p1207
sbatp1208
Rp1209
(dp1210
g12
Vccomp
p1211
sbag0
(g1
g2
(lp1212
(lp1213
S'word: i, index: 22'
p1214
aatp1215
Rp1216
(dp1217
g12
Vnsubj
p1218
sbag0
(g1
g2
(lp1219
(lp1220
S'word: do, index: 23'
p1221
aatp1222
Rp1223
(dp1224
g12
Vaux
p1225
sbatp1226
Rp1227
(dp1228
g12
S'word: know, index: 25'
p1229
sbatp1230
Rp1231
(dp1232
g12
S'id: 8'
p1233
sbag0
(g1
g2
(lp1234
g0
(g1
g2
(lp1235
g0
(g1
g2
(lp1236
g0
(g1
g2
(lp1237
g0
(g1
g2
(lp1238
g0
(g1
g2
(lp1239
g0
(g1
g2
(lp1240
(lp1241
S'word: the, index: 3'
p1242
aatp1243
Rp1244
(dp1245
g12
Vdet
p1246
sbag0
(g1
g2
(lp1247
g0
(g1
g2
(lp1248
g0
(g1
g2
(lp1249
(lp1250
S'word: the, index: 6'
p1251
aatp1252
Rp1253
(dp1254
g12
Vdet
p1255
sbatp1256
Rp1257
(dp1258
g12
S'word: cage, index: 7'
p1259
sbatp1260
Rp1261
(dp1262
g12
Vprep
p1263
sbatp1264
Rp1265
(dp1266
g12
S'word: lion, index: 4'
p1267
sbatp1268
Rp1269
(dp1270
g12
Vprep
p1271
sbatp1272
Rp1273
(dp1274
g12
S'word: back, index: 1'
p1275
sbatp1276
Rp1277
(dp1278
g12
Vadvmod
p1279
sbag0
(g1
g2
(lp1280
(lp1281
S'word: the, index: 8'
p1282
aatp1283
Rp1284
(dp1285
g12
Vdet
p1286
sbag0
(g1
g2
(lp1287
g0
(g1
g2
(lp1288
g0
(g1
g2
(lp1289
(lp1290
S"word: 's, index: 11"
p1291
aatp1292
Rp1293
(dp1294
g12
Vpossessive
p1295
sbag0
(g1
g2
(lp1296
(lp1297
S'word: wearing, index: 12'
p1298
aatp1299
Rp1300
(dp1301
g12
Vamod
p1302
sbag0
(g1
g2
(lp1303
g0
(g1
g2
(lp1304
g0
(g1
g2
(lp1305
(lp1306
S'word: a, index: 14'
p1307
aatp1308
Rp1309
(dp1310
g12
Vdet
p1311
sbag0
(g1
g2
(lp1312
(lp1313
S'word: dress, index: 15'
p1314
aatp1315
Rp1316
(dp1317
g12
Vnn
p1318
sbatp1319
Rp1320
(dp1321
g12
S'word: coat, index: 16'
p1322
sbatp1323
Rp1324
(dp1325
g12
Vappos
p1326
sbag0
(g1
g2
(lp1327
g0
(g1
g2
(lp1328
g0
(g1
g2
(lp1329
g0
(g1
g2
(lp1330
g0
(g1
g2
(lp1331
(lp1332
S'word: a, index: 20'
p1333
aatp1334
Rp1335
(dp1336
g12
Vdet
p1337
sbag0
(g1
g2
(lp1338
(lp1339
S'word: top, index: 21'
p1340
aatp1341
Rp1342
(dp1343
g12
Vamod
p1344
sbatp1345
Rp1346
(dp1347
g12
S'word: hat, index: 22'
p1348
sbatp1349
Rp1350
(dp1351
g12
Vconj
p1352
sbatp1353
Rp1354
(dp1355
g12
S'word: tails, index: 18'
p1356
sbatp1357
Rp1358
(dp1359
g12
Vprep
p1360
sbag0
(g1
g2
(lp1361
g1346
atp1362
Rp1363
(dp1364
g12
Vprep
p1365
sbatp1366
Rp1367
(dp1368
g12
S'word: tamer, index: 10'
p1369
sbatp1370
Rp1371
(dp1372
g12
Vdep
p1373
sbatp1374
Rp1375
(dp1376
g12
S'word: lion, index: 9'
p1377
sbatp1378
Rp1379
(dp1380
g12
S'id: 9'
p1381
sbag0
(g1
g2
(lp1382
g0
(g1
g2
(lp1383
g0
(g1
g2
(lp1384
(lp1385
S'word: and, index: 1'
p1386
aatp1387
Rp1388
(dp1389
g12
Vcc
p1390
sbag0
(g1
g2
(lp1391
(lp1392
S'word: there, index: 2'
p1393
aatp1394
Rp1395
(dp1396
g12
Vexpl
p1397
sbag0
(g1
g2
(lp1398
g0
(g1
g2
(lp1399
g0
(g1
g2
(lp1400
g0
(g1
g2
(lp1401
g0
(g1
g2
(lp1402
(lp1403
S'word: the, index: 12'
p1404
aatp1405
Rp1406
(dp1407
g12
Vdet
p1408
sbag0
(g1
g2
(lp1409
(lp1410
S'word: terrain, index: 13'
p1411
aatp1412
Rp1413
(dp1414
g12
Vnn
p1415
sbatp1416
Rp1417
(dp1418
g12
S'word: slopes, index: 14'
p1419
sbatp1420
Rp1421
(dp1422
g12
Vprep
p1423
sbag0
(g1
g2
(lp1424
g0
(g1
g2
(lp1425
g0
(g1
g2
(lp1426
(lp1427
S'word: the, index: 16'
p1428
aatp1429
Rp1430
(dp1431
g12
Vdet
p1432
sbag0
(g1
g2
(lp1433
g0
(g1
g2
(lp1434
g0
(g1
g2
(lp1435
(lp1436
S'word: the, index: 19'
p1437
aatp1438
Rp1439
(dp1440
g12
Vdet
p1441
sbatp1442
Rp1443
(dp1444
g12
S'word: left, index: 20'
p1445
sbatp1446
Rp1447
(dp1448
g12
Vprep
p1449
sbatp1450
Rp1451
(dp1452
g12
S'word: right, index: 17'
p1453
sbatp1454
Rp1455
(dp1456
g12
Vprep
p1457
sbag0
(g1
g2
(lp1458
(lp1459
S'word: to, index: 4'
p1460
aatp1461
Rp1462
(dp1463
g12
Vaux
p1464
sbag0
(g1
g2
(lp1465
(lp1466
S'word: be, index: 5'
p1467
aatp1468
Rp1469
(dp1470
g12
Vcop
p1471
sbag0
(g1
g2
(lp1472
(lp1473
S'word: some, index: 6'
p1474
aatp1475
Rp1476
(dp1477
g12
Vdet
p1478
sbag0
(g1
g2
(lp1479
g0
(g1
g2
(lp1480
g0
(g1
g2
(lp1481
g1417
atp1482
Rp1483
(dp1484
g12
Vconj
p1485
sbag0
(g1
g2
(lp1486
(lp1487
S'word: the, index: 9'
p1488
aatp1489
Rp1490
(dp1491
g12
Vdet
p1492
sbatp1493
Rp1494
(dp1495
g12
S'word: background, index: 10'
p1496
sbatp1497
Rp1498
(dp1499
g12
Vprep
p1500
sbatp1501
Rp1502
(dp1503
g12
S'word: trees, index: 7'
p1504
sbatp1505
Rp1506
(dp1507
g12
Vxcomp
p1508
sbatp1509
Rp1510
(dp1511
g12
S'word: seems, index: 3'
p1512
sbatp1513
Rp1514
(dp1515
g12
S'id: 10'
p1516
sbatp1517
Rp1518
(dp1519
g12
S'sentences'
p1520
sb.