ccopy_reg
_reconstructor
p0
(cnltk.tree
Tree
p1
c__builtin__
list
p2
(lp3
g0
(g1
g2
(lp4
g0
(g1
g2
(lp5
g0
(g1
g2
(lp6
g0
(g1
g2
(lp7
Vokay
p8
atp9
Rp10
(dp11
S'_label'
p12
VJJ
p13
sbatp14
Rp15
(dp16
g12
VADJP
p17
sbag0
(g1
g2
(lp18
g0
(g1
g2
(lp19
VI
p20
atp21
Rp22
(dp23
g12
VPRP
p24
sbatp25
Rp26
(dp27
g12
VNP
p28
sbag0
(g1
g2
(lp29
g0
(g1
g2
(lp30
Vsee
p31
atp32
Rp33
(dp34
g12
VVBP
p35
sbag0
(g1
g2
(lp36
g0
(g1
g2
(lp37
g0
(g1
g2
(lp38
Va
p39
atp40
Rp41
(dp42
g12
VDT
p43
sbag0
(g1
g2
(lp44
Vboy
p45
atp46
Rp47
(dp48
g12
VNN
p49
sbatp50
Rp51
(dp52
g12
VNP
p53
sbag0
(g1
g2
(lp54
Vand
p55
atp56
Rp57
(dp58
g12
VCC
p59
sbag0
(g1
g2
(lp60
g0
(g1
g2
(lp61
Va
p62
atp63
Rp64
(dp65
g12
VDT
p66
sbag0
(g1
g2
(lp67
Vgirl
p68
atp69
Rp70
(dp71
g12
VNN
p72
sbatp73
Rp74
(dp75
g12
VNP
p76
sbatp77
Rp78
(dp79
g12
VNP
p80
sbatp81
Rp82
(dp83
g12
VVP
p84
sbag0
(g1
g2
(lp85
V.
p86
atp87
Rp88
(dp89
g12
V.
p90
sbatp91
Rp92
(dp93
g12
VS
p94
sbatp95
Rp96
(dp97
g12
S'id: 0'
p98
sbag0
(g1
g2
(lp99
g0
(g1
g2
(lp100
g0
(g1
g2
(lp101
g0
(g1
g2
(lp102
g0
(g1
g2
(lp103
Vthe
p104
atp105
Rp106
(dp107
g12
VDT
p108
sbag0
(g1
g2
(lp109
Vboy
p110
atp111
Rp112
(dp113
g12
VNN
p114
sbag0
(g1
g2
(lp115
V's
p116
atp117
Rp118
(dp119
g12
VPOS
p120
sbatp121
Rp122
(dp123
g12
VNP
p124
sbag0
(g1
g2
(lp125
g0
(g1
g2
(lp126
Von
p127
atp128
Rp129
(dp130
g12
VIN
p131
sbag0
(g1
g2
(lp132
g0
(g1
g2
(lp133
Va
p134
atp135
Rp136
(dp137
g12
VDT
p138
sbag0
(g1
g2
(lp139
Vladder
p140
atp141
Rp142
(dp143
g12
VNN
p144
sbatp145
Rp146
(dp147
g12
VNP
p148
sbatp149
Rp150
(dp151
g12
VPP
p152
sbatp153
Rp154
(dp155
g12
VNP
p156
sbag0
(g1
g2
(lp157
V,
p158
atp159
Rp160
(dp161
g12
V,
p162
sbag0
(g1
g2
(lp163
g0
(g1
g2
(lp164
Vwell
p165
atp166
Rp167
(dp168
g12
VRB
p169
sbag0
(g1
g2
(lp170
g0
(g1
g2
(lp171
Von
p172
atp173
Rp174
(dp175
g12
VIN
p176
sbag0
(g1
g2
(lp177
g0
(g1
g2
(lp178
g0
(g1
g2
(lp179
Va
p180
atp181
Rp182
(dp183
g12
VDT
p184
sbag0
(g1
g2
(lp185
Vstool
p186
atp187
Rp188
(dp189
g12
VNN
p190
sbatp191
Rp192
(dp193
g12
VNP
p194
sbag0
(g1
g2
(lp195
Vand
p196
atp197
Rp198
(dp199
g12
VCC
p200
sbag0
(g1
g2
(lp201
g0
(g1
g2
(lp202
g0
(g1
g2
(lp203
Vit
p204
atp205
Rp206
(dp207
g12
VPRP
p208
sbatp209
Rp210
(dp211
g12
VNP
p212
sbag0
(g1
g2
(lp213
g0
(g1
g2
(lp214
V's
p215
atp216
Rp217
(dp218
g12
VVBZ
p219
sbag0
(g1
g2
(lp220
g0
(g1
g2
(lp221
Vturning
p222
atp223
Rp224
(dp225
g12
VVBG
p226
sbag0
(g1
g2
(lp227
g0
(g1
g2
(lp228
Vover
p229
atp230
Rp231
(dp232
g12
VRP
p233
sbatp234
Rp235
(dp236
g12
VPRT
p237
sbatp238
Rp239
(dp240
g12
VVP
p241
sbatp242
Rp243
(dp244
g12
VVP
p245
sbatp246
Rp247
(dp248
g12
VS
p249
sbatp250
Rp251
(dp252
g12
VNP
p253
sbatp254
Rp255
(dp256
g12
VPP
p257
sbatp258
Rp259
(dp260
g12
VADVP
p261
sbag0
(g1
g2
(lp262
V,
p263
atp264
Rp265
(dp266
g12
V,
p267
sbag0
(g1
g2
(lp268
g0
(g1
g2
(lp269
Vhe
p270
atp271
Rp272
(dp273
g12
VPRP
p274
sbatp275
Rp276
(dp277
g12
VNP
p278
sbag0
(g1
g2
(lp279
g0
(g1
g2
(lp280
V's
p281
atp282
Rp283
(dp284
g12
VVBZ
p285
sbag0
(g1
g2
(lp286
g0
(g1
g2
(lp287
Vgon
p288
atp289
Rp290
(dp291
g12
VVBG
p292
sbag0
(g1
g2
(lp293
g0
(g1
g2
(lp294
g0
(g1
g2
(lp295
Vna
p296
atp297
Rp298
(dp299
g12
VTO
p300
sbag0
(g1
g2
(lp301
g0
(g1
g2
(lp302
g0
(g1
g2
(lp303
Vfall
p304
atp305
Rp306
(dp307
g12
VVB
p308
sbatp309
Rp310
(dp311
g12
VVP
p312
sbag0
(g1
g2
(lp313
Vand
p314
atp315
Rp316
(dp317
g12
VCC
p318
sbag0
(g1
g2
(lp319
g0
(g1
g2
(lp320
Vget
p321
atp322
Rp323
(dp324
g12
VVB
p325
sbag0
(g1
g2
(lp326
g0
(g1
g2
(lp327
Vhurt
p328
atp329
Rp330
(dp331
g12
VVBN
p332
sbag0
(g1
g2
(lp333
g0
(g1
g2
(lp334
Vbut
p335
atp336
Rp337
(dp338
g12
VCC
p339
sbag0
(g1
g2
(lp340
g0
(g1
g2
(lp341
g0
(g1
g2
(lp342
Vhe
p343
atp344
Rp345
(dp346
g12
VPRP
p347
sbatp348
Rp349
(dp350
g12
VNP
p351
sbag0
(g1
g2
(lp352
g0
(g1
g2
(lp353
V's
p354
atp355
Rp356
(dp357
g12
VVBZ
p358
sbag0
(g1
g2
(lp359
g0
(g1
g2
(lp360
Vgon
p361
atp362
Rp363
(dp364
g12
VVBG
p365
sbag0
(g1
g2
(lp366
g0
(g1
g2
(lp367
g0
(g1
g2
(lp368
Vna
p369
atp370
Rp371
(dp372
g12
VTO
p373
sbag0
(g1
g2
(lp374
g0
(g1
g2
(lp375
Vget
p376
atp377
Rp378
(dp379
g12
VVB
p380
sbag0
(g1
g2
(lp381
g0
(g1
g2
(lp382
Va
p383
atp384
Rp385
(dp386
g12
VDT
p387
sbag0
(g1
g2
(lp388
Vcookie
p389
atp390
Rp391
(dp392
g12
VNN
p393
sbatp394
Rp395
(dp396
g12
VNP
p397
sbag0
(g1
g2
(lp398
g0
(g1
g2
(lp399
Vout
p400
atp401
Rp402
(dp403
g12
VIN
p404
sbag0
(g1
g2
(lp405
Vof
p406
atp407
Rp408
(dp409
g12
VIN
p410
sbag0
(g1
g2
(lp411
g0
(g1
g2
(lp412
g0
(g1
g2
(lp413
Vthe
p414
atp415
Rp416
(dp417
g12
VDT
p418
sbag0
(g1
g2
(lp419
Vcookie
p420
atp421
Rp422
(dp423
g12
VNN
p424
sbag0
(g1
g2
(lp425
Vjar
p426
atp427
Rp428
(dp429
g12
VNN
p430
sbatp431
Rp432
(dp433
g12
VNP
p434
sbag0
(g1
g2
(lp435
g0
(g1
g2
(lp436
g0
(g1
g2
(lp437
Vwhich
p438
atp439
Rp440
(dp441
g12
VWDT
p442
sbatp443
Rp444
(dp445
g12
VWHNP
p446
sbag0
(g1
g2
(lp447
g0
(g1
g2
(lp448
g0
(g1
g2
(lp449
Vis
p450
atp451
Rp452
(dp453
g12
VVBZ
p454
sbag0
(g1
g2
(lp455
g0
(g1
g2
(lp456
Vin
p457
atp458
Rp459
(dp460
g12
VIN
p461
sbag0
(g1
g2
(lp462
g0
(g1
g2
(lp463
Vthe
p464
atp465
Rp466
(dp467
g12
VDT
p468
sbag0
(g1
g2
(lp469
Vcabinet
p470
atp471
Rp472
(dp473
g12
VNN
p474
sbatp475
Rp476
(dp477
g12
VNP
p478
sbatp479
Rp480
(dp481
g12
VPP
p482
sbatp483
Rp484
(dp485
g12
VVP
p486
sbatp487
Rp488
(dp489
g12
VS
p490
sbatp491
Rp492
(dp493
g12
VSBAR
p494
sbatp495
Rp496
(dp497
g12
VNP
p498
sbatp499
Rp500
(dp501
g12
VPP
p502
sbatp503
Rp504
(dp505
g12
VVP
p506
sbatp507
Rp508
(dp509
g12
VVP
p510
sbatp511
Rp512
(dp513
g12
VS
p514
sbatp515
Rp516
(dp517
g12
VVP
p518
sbatp519
Rp520
(dp521
g12
VVP
p522
sbatp523
Rp524
(dp525
g12
VS
p526
sbatp527
Rp528
(dp529
g12
VSBAR
p530
sbatp531
Rp532
(dp533
g12
VVP
p534
sbatp535
Rp536
(dp537
g12
VVP
p538
sbatp539
Rp540
(dp541
g12
VVP
p542
sbatp543
Rp544
(dp545
g12
VVP
p546
sbatp547
Rp548
(dp549
g12
VS
p550
sbatp551
Rp552
(dp553
g12
VVP
p554
sbatp555
Rp556
(dp557
g12
VVP
p558
sbag0
(g1
g2
(lp559
V.
p560
atp561
Rp562
(dp563
g12
V.
p564
sbatp565
Rp566
(dp567
g12
VS
p568
sbatp569
Rp570
(dp571
g12
S'id: 1'
p572
sbag0
(g1
g2
(lp573
g0
(g1
g2
(lp574
g0
(g1
g2
(lp575
g0
(g1
g2
(lp576
g0
(g1
g2
(lp577
Vhis
p578
atp579
Rp580
(dp581
g12
VPRP$
p582
sbag0
(g1
g2
(lp583
Vmother
p584
atp585
Rp586
(dp587
g12
VNN
p588
sbatp589
Rp590
(dp591
g12
VNP
p592
sbag0
(g1
g2
(lp593
g0
(g1
g2
(lp594
Vis
p595
atp596
Rp597
(dp598
g12
VVBZ
p599
sbag0
(g1
g2
(lp600
Vnot
p601
atp602
Rp603
(dp604
g12
VRB
p605
sbag0
(g1
g2
(lp606
g0
(g1
g2
(lp607
g0
(g1
g2
(lp608
Vpayin
p609
atp610
Rp611
(dp612
g12
VNN
p613
sbag0
(g1
g2
(lp614
V'
p615
atp616
Rp617
(dp618
g12
V''
p619
sbag0
(g1
g2
(lp620
Vattention
p621
atp622
Rp623
(dp624
g12
VNN
p625
sbatp626
Rp627
(dp628
g12
VNP
p629
sbag0
(g1
g2
(lp630
g0
(g1
g2
(lp631
Vto
p632
atp633
Rp634
(dp635
g12
VTO
p636
sbag0
(g1
g2
(lp637
g0
(g1
g2
(lp638
Vthe
p639
atp640
Rp641
(dp642
g12
VDT
p643
sbag0
(g1
g2
(lp644
Vkids
p645
atp646
Rp647
(dp648
g12
VNNS
p649
sbatp650
Rp651
(dp652
g12
VNP
p653
sbatp654
Rp655
(dp656
g12
VPP
p657
sbatp658
Rp659
(dp660
g12
VNP
p661
sbatp662
Rp663
(dp664
g12
VVP
p665
sbatp666
Rp667
(dp668
g12
VS
p669
sbag0
(g1
g2
(lp670
V,
p671
atp672
Rp673
(dp674
g12
V,
p675
sbag0
(g1
g2
(lp676
g0
(g1
g2
(lp677
g0
(g1
g2
(lp678
Vshe
p679
atp680
Rp681
(dp682
g12
VPRP
p683
sbatp684
Rp685
(dp686
g12
VNP
p687
sbag0
(g1
g2
(lp688
g0
(g1
g2
(lp689
V's
p690
atp691
Rp692
(dp693
g12
VVBZ
p694
sbag0
(g1
g2
(lp695
g0
(g1
g2
(lp696
Vtryin
p697
atp698
Rp699
(dp700
g12
VNN
p701
sbatp702
Rp703
(dp704
g12
VNP
p705
sbag0
(g1
g2
(lp706
V'
p707
atp708
Rp709
(dp710
g12
V''
p711
sbag0
(g1
g2
(lp712
g0
(g1
g2
(lp713
g0
(g1
g2
(lp714
Vto
p715
atp716
Rp717
(dp718
g12
VTO
p719
sbag0
(g1
g2
(lp720
g0
(g1
g2
(lp721
Vwash
p722
atp723
Rp724
(dp725
g12
VVB
p726
sbag0
(g1
g2
(lp727
g0
(g1
g2
(lp728
Vdishes
p729
atp730
Rp731
(dp732
g12
VNNS
p733
sbatp734
Rp735
(dp736
g12
VNP
p737
sbatp738
Rp739
(dp740
g12
VVP
p741
sbatp742
Rp743
(dp744
g12
VVP
p745
sbatp746
Rp747
(dp748
g12
VS
p749
sbatp750
Rp751
(dp752
g12
VVP
p753
sbatp754
Rp755
(dp756
g12
VS
p757
sbag0
(g1
g2
(lp758
V,
p759
atp760
Rp761
(dp762
g12
V,
p763
sbag0
(g1
g2
(lp764
g0
(g1
g2
(lp765
g0
(g1
g2
(lp766
Vthe
p767
atp768
Rp769
(dp770
g12
VDT
p771
sbag0
(g1
g2
(lp772
Vsink
p773
atp774
Rp775
(dp776
g12
VNN
p777
sbatp778
Rp779
(dp780
g12
VNP
p781
sbag0
(g1
g2
(lp782
g0
(g1
g2
(lp783
Vis
p784
atp785
Rp786
(dp787
g12
VVBZ
p788
sbag0
(g1
g2
(lp789
g0
(g1
g2
(lp790
Voverflowin
p791
atp792
Rp793
(dp794
g12
VNN
p795
sbag0
(g1
g2
(lp796
V'
p797
atp798
Rp799
(dp800
g12
V''
p801
sbatp802
Rp803
(dp804
g12
VNP
p805
sbatp806
Rp807
(dp808
g12
VVP
p809
sbatp810
Rp811
(dp812
g12
VS
p813
sbag0
(g1
g2
(lp814
V,
p815
atp816
Rp817
(dp818
g12
V,
p819
sbag0
(g1
g2
(lp820
g0
(g1
g2
(lp821
g0
(g1
g2
(lp822
Vshe
p823
atp824
Rp825
(dp826
g12
VPRP
p827
sbatp828
Rp829
(dp830
g12
VNP
p831
sbag0
(g1
g2
(lp832
g0
(g1
g2
(lp833
V's
p834
atp835
Rp836
(dp837
g12
VVBZ
p838
sbag0
(g1
g2
(lp839
g0
(g1
g2
(lp840
Vstandin
p841
atp842
Rp843
(dp844
g12
VVBG
p845
sbag0
(g1
g2
(lp846
V'
p847
atp848
Rp849
(dp850
g12
V''
p851
sbag0
(g1
g2
(lp852
g0
(g1
g2
(lp853
Vin
p854
atp855
Rp856
(dp857
g12
VIN
p858
sbag0
(g1
g2
(lp859
g0
(g1
g2
(lp860
Vthe
p861
atp862
Rp863
(dp864
g12
VDT
p865
sbag0
(g1
g2
(lp866
Vwater
p867
atp868
Rp869
(dp870
g12
VNN
p871
sbatp872
Rp873
(dp874
g12
VNP
p875
sbatp876
Rp877
(dp878
g12
VPP
p879
sbatp880
Rp881
(dp882
g12
VVP
p883
sbatp884
Rp885
(dp886
g12
VVP
p887
sbatp888
Rp889
(dp890
g12
VS
p891
sbag0
(g1
g2
(lp892
V.
p893
atp894
Rp895
(dp896
g12
V.
p897
sbatp898
Rp899
(dp900
g12
VS
p901
sbatp902
Rp903
(dp904
g12
S'id: 2'
p905
sbag0
(g1
g2
(lp906
g0
(g1
g2
(lp907
g0
(g1
g2
(lp908
g0
(g1
g2
(lp909
Vthere
p910
atp911
Rp912
(dp913
g12
VEX
p914
sbatp915
Rp916
(dp917
g12
VNP
p918
sbag0
(g1
g2
(lp919
g0
(g1
g2
(lp920
V's
p921
atp922
Rp923
(dp924
g12
VVBZ
p925
sbag0
(g1
g2
(lp926
g0
(g1
g2
(lp927
g0
(g1
g2
(lp928
Vsome
p929
atp930
Rp931
(dp932
g12
VDT
p933
sbag0
(g1
g2
(lp934
Vdishes
p935
atp936
Rp937
(dp938
g12
VNNS
p939
sbatp940
Rp941
(dp942
g12
VNP
p943
sbag0
(g1
g2
(lp944
g0
(g1
g2
(lp945
Von
p946
atp947
Rp948
(dp949
g12
VIN
p950
sbag0
(g1
g2
(lp951
g0
(g1
g2
(lp952
Vthe
p953
atp954
Rp955
(dp956
g12
VDT
p957
sbag0
(g1
g2
(lp958
Vcounter
p959
atp960
Rp961
(dp962
g12
VNN
p963
sbag0
(g1
g2
(lp964
g0
(g1
g2
(lp965
g0
(g1
g2
(lp966
Vto
p967
atp968
Rp969
(dp970
g12
VTO
p971
sbag0
(g1
g2
(lp972
g0
(g1
g2
(lp973
Vbe
p974
atp975
Rp976
(dp977
g12
VVB
p978
sbag0
(g1
g2
(lp979
g0
(g1
g2
(lp980
Vwashed
p981
atp982
Rp983
(dp984
g12
VVBN
p985
sbag0
(g1
g2
(lp986
g0
(g1
g2
(lp987
g0
(g1
g2
(lp988
g0
(g1
g2
(lp989
VI
p990
atp991
Rp992
(dp993
g12
VPRP
p994
sbatp995
Rp996
(dp997
g12
VNP
p998
sbag0
(g1
g2
(lp999
g0
(g1
g2
(lp1000
Vpresume
p1001
atp1002
Rp1003
(dp1004
g12
VVBP
p1005
sbatp1006
Rp1007
(dp1008
g12
VVP
p1009
sbatp1010
Rp1011
(dp1012
g12
VS
p1013
sbatp1014
Rp1015
(dp1016
g12
VSBAR
p1017
sbatp1018
Rp1019
(dp1020
g12
VVP
p1021
sbatp1022
Rp1023
(dp1024
g12
VVP
p1025
sbatp1026
Rp1027
(dp1028
g12
VVP
p1029
sbatp1030
Rp1031
(dp1032
g12
VS
p1033
sbatp1034
Rp1035
(dp1036
g12
VNP
p1037
sbatp1038
Rp1039
(dp1040
g12
VPP
p1041
sbatp1042
Rp1043
(dp1044
g12
VNP
p1045
sbatp1046
Rp1047
(dp1048
g12
VVP
p1049
sbag0
(g1
g2
(lp1050
V.
p1051
atp1052
Rp1053
(dp1054
g12
V.
p1055
sbatp1056
Rp1057
(dp1058
g12
VS
p1059
sbatp1060
Rp1061
(dp1062
g12
S'id: 3'
p1063
sbag0
(g1
g2
(lp1064
g0
(g1
g2
(lp1065
g0
(g1
g2
(lp1066
g0
(g1
g2
(lp1067
Vthere
p1068
atp1069
Rp1070
(dp1071
g12
VEX
p1072
sbatp1073
Rp1074
(dp1075
g12
VNP
p1076
sbag0
(g1
g2
(lp1077
g0
(g1
g2
(lp1078
V's
p1079
atp1080
Rp1081
(dp1082
g12
VVBZ
p1083
sbag0
(g1
g2
(lp1084
g0
(g1
g2
(lp1085
Va
p1086
atp1087
Rp1088
(dp1089
g12
VDT
p1090
sbag0
(g1
g2
(lp1091
Vside
p1092
atp1093
Rp1094
(dp1095
g12
VNN
p1096
sbag0
(g1
g2
(lp1097
Vwalk
p1098
atp1099
Rp1100
(dp1101
g12
VNN
p1102
sbatp1103
Rp1104
(dp1105
g12
VNP
p1106
sbatp1107
Rp1108
(dp1109
g12
VVP
p1110
sbag0
(g1
g2
(lp1111
V.
p1112
atp1113
Rp1114
(dp1115
g12
V.
p1116
sbatp1117
Rp1118
(dp1119
g12
VS
p1120
sbatp1121
Rp1122
(dp1123
g12
S'id: 4'
p1124
sbag0
(g1
g2
(lp1125
g0
(g1
g2
(lp1126
g0
(g1
g2
(lp1127
g0
(g1
g2
(lp1128
Vthere
p1129
atp1130
Rp1131
(dp1132
g12
VEX
p1133
sbatp1134
Rp1135
(dp1136
g12
VNP
p1137
sbag0
(g1
g2
(lp1138
g0
(g1
g2
(lp1139
V's
p1140
atp1141
Rp1142
(dp1143
g12
VVBZ
p1144
sbag0
(g1
g2
(lp1145
g0
(g1
g2
(lp1146
Va
p1147
atp1148
Rp1149
(dp1150
g12
VDT
p1151
sbag0
(g1
g2
(lp1152
Vwindow
p1153
atp1154
Rp1155
(dp1156
g12
VNN
p1157
sbag0
(g1
g2
(lp1158
g0
(g1
g2
(lp1159
g0
(g1
g2
(lp1160
Vto
p1161
atp1162
Rp1163
(dp1164
g12
VTO
p1165
sbag0
(g1
g2
(lp1166
g0
(g1
g2
(lp1167
Vlook
p1168
atp1169
Rp1170
(dp1171
g12
VVB
p1172
sbag0
(g1
g2
(lp1173
g0
(g1
g2
(lp1174
Vout
p1175
atp1176
Rp1177
(dp1178
g12
VRP
p1179
sbatp1180
Rp1181
(dp1182
g12
VPRT
p1183
sbag0
(g1
g2
(lp1184
g0
(g1
g2
(lp1185
Vwith
p1186
atp1187
Rp1188
(dp1189
g12
VIN
p1190
sbag0
(g1
g2
(lp1191
g0
(g1
g2
(lp1192
Vcurtains
p1193
atp1194
Rp1195
(dp1196
g12
VNNS
p1197
sbatp1198
Rp1199
(dp1200
g12
VNP
p1201
sbatp1202
Rp1203
(dp1204
g12
VPP
p1205
sbatp1206
Rp1207
(dp1208
g12
VVP
p1209
sbatp1210
Rp1211
(dp1212
g12
VVP
p1213
sbatp1214
Rp1215
(dp1216
g12
VS
p1217
sbatp1218
Rp1219
(dp1220
g12
VNP
p1221
sbatp1222
Rp1223
(dp1224
g12
VVP
p1225
sbag0
(g1
g2
(lp1226
V.
p1227
atp1228
Rp1229
(dp1230
g12
V.
p1231
sbatp1232
Rp1233
(dp1234
g12
VS
p1235
sbatp1236
Rp1237
(dp1238
g12
S'id: 5'
p1239
sbag0
(g1
g2
(lp1240
g0
(g1
g2
(lp1241
g0
(g1
g2
(lp1242
Va
p1243
atp1244
Rp1245
(dp1246
g12
VDT
p1247
sbag0
(g1
g2
(lp1248
Vsidewalk
p1249
atp1250
Rp1251
(dp1252
g12
VNN
p1253
sbag0
(g1
g2
(lp1254
V.
p1255
atp1256
Rp1257
(dp1258
g12
V.
p1259
sbatp1260
Rp1261
(dp1262
g12
VNP
p1263
sbatp1264
Rp1265
(dp1266
g12
S'id: 6'
p1267
sbag0
(g1
g2
(lp1268
g0
(g1
g2
(lp1269
g0
(g1
g2
(lp1270
g0
(g1
g2
(lp1271
Vthere
p1272
atp1273
Rp1274
(dp1275
g12
VRB
p1276
sbag0
(g1
g2
(lp1277
Vbushes
p1278
atp1279
Rp1280
(dp1281
g12
VNNS
p1282
sbatp1283
Rp1284
(dp1285
g12
VNP
p1286
sbag0
(g1
g2
(lp1287
g0
(g1
g2
(lp1288
Vout
p1289
atp1290
Rp1291
(dp1292
g12
VIN
p1293
sbag0
(g1
g2
(lp1294
g0
(g1
g2
(lp1295
Vthere
p1296
atp1297
Rp1298
(dp1299
g12
VRB
p1300
sbatp1301
Rp1302
(dp1303
g12
VNP
p1304
sbatp1305
Rp1306
(dp1307
g12
VPP
p1308
sbag0
(g1
g2
(lp1309
g0
(g1
g2
(lp1310
Vin
p1311
atp1312
Rp1313
(dp1314
g12
VIN
p1315
sbag0
(g1
g2
(lp1316
g0
(g1
g2
(lp1317
g0
(g1
g2
(lp1318
Vthe
p1319
atp1320
Rp1321
(dp1322
g12
VDT
p1323
sbag0
(g1
g2
(lp1324
Vyard
p1325
atp1326
Rp1327
(dp1328
g12
VNN
p1329
sbatp1330
Rp1331
(dp1332
g12
VNP
p1333
sbag0
(g1
g2
(lp1334
V,
p1335
atp1336
Rp1337
(dp1338
g12
V,
p1339
sbag0
(g1
g2
(lp1340
g0
(g1
g2
(lp1341
Vsome
p1342
atp1343
Rp1344
(dp1345
g12
VDT
p1346
sbag0
(g1
g2
(lp1347
Vgrass
p1348
atp1349
Rp1350
(dp1351
g12
VNN
p1352
sbatp1353
Rp1354
(dp1355
g12
VNP
p1356
sbatp1357
Rp1358
(dp1359
g12
VNP
p1360
sbatp1361
Rp1362
(dp1363
g12
VPP
p1364
sbag0
(g1
g2
(lp1365
V.
p1366
atp1367
Rp1368
(dp1369
g12
V.
p1370
sbatp1371
Rp1372
(dp1373
g12
VNP
p1374
sbatp1375
Rp1376
(dp1377
g12
S'id: 7'
p1378
sbag0
(g1
g2
(lp1379
g0
(g1
g2
(lp1380
g0
(g1
g2
(lp1381
g0
(g1
g2
(lp1382
Vlet
p1383
atp1384
Rp1385
(dp1386
g12
VVB
p1387
sbag0
(g1
g2
(lp1388
g0
(g1
g2
(lp1389
g0
(g1
g2
(lp1390
V's
p1391
atp1392
Rp1393
(dp1394
g12
VPOS
p1395
sbatp1396
Rp1397
(dp1398
g12
VNP
p1399
sbag0
(g1
g2
(lp1400
g0
(g1
g2
(lp1401
Vsee
p1402
atp1403
Rp1404
(dp1405
g12
VVB
p1406
sbatp1407
Rp1408
(dp1409
g12
VVP
p1410
sbatp1411
Rp1412
(dp1413
g12
VS
p1414
sbatp1415
Rp1416
(dp1417
g12
VVP
p1418
sbag0
(g1
g2
(lp1419
V.
p1420
atp1421
Rp1422
(dp1423
g12
V.
p1424
sbatp1425
Rp1426
(dp1427
g12
VS
p1428
sbatp1429
Rp1430
(dp1431
g12
S'id: 8'
p1432
sbag0
(g1
g2
(lp1433
g0
(g1
g2
(lp1434
g0
(g1
g2
(lp1435
g0
(g1
g2
(lp1436
g0
(g1
g2
(lp1437
Vthe
p1438
atp1439
Rp1440
(dp1441
g12
VDT
p1442
sbag0
(g1
g2
(lp1443
Vboy
p1444
atp1445
Rp1446
(dp1447
g12
VNN
p1448
sbatp1449
Rp1450
(dp1451
g12
VNP
p1452
sbag0
(g1
g2
(lp1453
g0
(g1
g2
(lp1454
Vhas
p1455
atp1456
Rp1457
(dp1458
g12
VVBZ
p1459
sbag0
(g1
g2
(lp1460
g0
(g1
g2
(lp1461
g0
(g1
g2
(lp1462
Von
p1463
atp1464
Rp1465
(dp1466
g12
VIN
p1467
sbag0
(g1
g2
(lp1468
g0
(g1
g2
(lp1469
Vshorts
p1470
atp1471
Rp1472
(dp1473
g12
VNNS
p1474
sbatp1475
Rp1476
(dp1477
g12
VNP
p1478
sbatp1479
Rp1480
(dp1481
g12
VPP
p1482
sbatp1483
Rp1484
(dp1485
g12
VVP
p1486
sbatp1487
Rp1488
(dp1489
g12
VVP
p1490
sbatp1491
Rp1492
(dp1493
g12
VS
p1494
sbag0
(g1
g2
(lp1495
Vand
p1496
atp1497
Rp1498
(dp1499
g12
VCC
p1500
sbag0
(g1
g2
(lp1501
g0
(g1
g2
(lp1502
g0
(g1
g2
(lp1503
Vthe
p1504
atp1505
Rp1506
(dp1507
g12
VDT
p1508
sbag0
(g1
g2
(lp1509
Vgirl
p1510
atp1511
Rp1512
(dp1513
g12
VNN
p1514
sbatp1515
Rp1516
(dp1517
g12
VNP
p1518
sbag0
(g1
g2
(lp1519
g0
(g1
g2
(lp1520
Vhas
p1521
atp1522
Rp1523
(dp1524
g12
VVBZ
p1525
sbag0
(g1
g2
(lp1526
g0
(g1
g2
(lp1527
g0
(g1
g2
(lp1528
Von
p1529
atp1530
Rp1531
(dp1532
g12
VIN
p1533
sbag0
(g1
g2
(lp1534
g0
(g1
g2
(lp1535
Va
p1536
atp1537
Rp1538
(dp1539
g12
VDT
p1540
sbag0
(g1
g2
(lp1541
Vskirt
p1542
atp1543
Rp1544
(dp1545
g12
VNN
p1546
sbatp1547
Rp1548
(dp1549
g12
VNP
p1550
sbatp1551
Rp1552
(dp1553
g12
VPP
p1554
sbatp1555
Rp1556
(dp1557
g12
VVP
p1558
sbatp1559
Rp1560
(dp1561
g12
VVP
p1562
sbatp1563
Rp1564
(dp1565
g12
VS
p1566
sbag0
(g1
g2
(lp1567
V.
p1568
atp1569
Rp1570
(dp1571
g12
V.
p1572
sbatp1573
Rp1574
(dp1575
g12
VS
p1576
sbatp1577
Rp1578
(dp1579
g12
S'id: 9'
p1580
sbag0
(g1
g2
(lp1581
g0
(g1
g2
(lp1582
g0
(g1
g2
(lp1583
g0
(g1
g2
(lp1584
Vthat
p1585
atp1586
Rp1587
(dp1588
g12
VDT
p1589
sbatp1590
Rp1591
(dp1592
g12
VNP
p1593
sbag0
(g1
g2
(lp1594
g0
(g1
g2
(lp1595
V's
p1596
atp1597
Rp1598
(dp1599
g12
VVBZ
p1600
sbag0
(g1
g2
(lp1601
Vabout
p1602
atp1603
Rp1604
(dp1605
g12
VRB
p1606
sbatp1607
Rp1608
(dp1609
g12
VVP
p1610
sbag0
(g1
g2
(lp1611
V.
p1612
atp1613
Rp1614
(dp1615
g12
V.
p1616
sbatp1617
Rp1618
(dp1619
g12
VS
p1620
sbatp1621
Rp1622
(dp1623
g12
S'id: 10'
p1624
sbag0
(g1
g2
(lp1625
g0
(g1
g2
(lp1626
g0
(g1
g2
(lp1627
g0
(g1
g2
(lp1628
Vthe
p1629
atp1630
Rp1631
(dp1632
g12
VDT
p1633
sbag0
(g1
g2
(lp1634
Vmother
p1635
atp1636
Rp1637
(dp1638
g12
VNN
p1639
sbatp1640
Rp1641
(dp1642
g12
VNP
p1643
sbag0
(g1
g2
(lp1644
g0
(g1
g2
(lp1645
Vhas
p1646
atp1647
Rp1648
(dp1649
g12
VVBZ
p1650
sbag0
(g1
g2
(lp1651
g0
(g1
g2
(lp1652
g0
(g1
g2
(lp1653
Von
p1654
atp1655
Rp1656
(dp1657
g12
VIN
p1658
sbag0
(g1
g2
(lp1659
g0
(g1
g2
(lp1660
g0
(g1
g2
(lp1661
Van
p1662
atp1663
Rp1664
(dp1665
g12
VDT
p1666
sbag0
(g1
g2
(lp1667
Vapron
p1668
atp1669
Rp1670
(dp1671
g12
VNN
p1672
sbatp1673
Rp1674
(dp1675
g12
VNP
p1676
sbag0
(g1
g2
(lp1677
V,
p1678
atp1679
Rp1680
(dp1681
g12
V,
p1682
sbag0
(g1
g2
(lp1683
g0
(g1
g2
(lp1684
g0
(g1
g2
(lp1685
Va
p1686
atp1687
Rp1688
(dp1689
g12
VDT
p1690
sbag0
(g1
g2
(lp1691
Vdrying
p1692
atp1693
Rp1694
(dp1695
g12
VVBG
p1696
sbag0
(g1
g2
(lp1697
Vcloth
p1698
atp1699
Rp1700
(dp1701
g12
VNN
p1702
sbatp1703
Rp1704
(dp1705
g12
VNP
p1706
sbag0
(g1
g2
(lp1707
g0
(g1
g2
(lp1708
Vin
p1709
atp1710
Rp1711
(dp1712
g12
VIN
p1713
sbag0
(g1
g2
(lp1714
g0
(g1
g2
(lp1715
g0
(g1
g2
(lp1716
Vher
p1717
atp1718
Rp1719
(dp1720
g12
VPRP$
p1721
sbag0
(g1
g2
(lp1722
Vhand
p1723
atp1724
Rp1725
(dp1726
g12
VNN
p1727
sbag0
(g1
g2
(lp1728
Vor
p1729
atp1730
Rp1731
(dp1732
g12
VCC
p1733
sbag0
(g1
g2
(lp1734
Vdish
p1735
atp1736
Rp1737
(dp1738
g12
VNN
p1739
sbag0
(g1
g2
(lp1740
Vcloth
p1741
atp1742
Rp1743
(dp1744
g12
VNN
p1745
sbatp1746
Rp1747
(dp1748
g12
VNP
p1749
sbag0
(g1
g2
(lp1750
g0
(g1
g2
(lp1751
Vso
p1752
atp1753
Rp1754
(dp1755
g12
VRB
p1756
sbatp1757
Rp1758
(dp1759
g12
VADVP
p1760
sbatp1761
Rp1762
(dp1763
g12
VNP
p1764
sbatp1765
Rp1766
(dp1767
g12
VPP
p1768
sbatp1769
Rp1770
(dp1771
g12
VNP
p1772
sbatp1773
Rp1774
(dp1775
g12
VNP
p1776
sbatp1777
Rp1778
(dp1779
g12
VPP
p1780
sbatp1781
Rp1782
(dp1783
g12
VNP
p1784
sbatp1785
Rp1786
(dp1787
g12
VVP
p1788
sbag0
(g1
g2
(lp1789
V.
p1790
atp1791
Rp1792
(dp1793
g12
V.
p1794
sbatp1795
Rp1796
(dp1797
g12
VS
p1798
sbatp1799
Rp1800
(dp1801
g12
S'id: 11'
p1802
sbag0
(g1
g2
(lp1803
g0
(g1
g2
(lp1804
g0
(g1
g2
(lp1805
g0
(g1
g2
(lp1806
Vit
p1807
atp1808
Rp1809
(dp1810
g12
VPRP
p1811
sbatp1812
Rp1813
(dp1814
g12
VNP
p1815
sbag0
(g1
g2
(lp1816
g0
(g1
g2
(lp1817
V's
p1818
atp1819
Rp1820
(dp1821
g12
VVBZ
p1822
sbag0
(g1
g2
(lp1823
g0
(g1
g2
(lp1824
Va
p1825
atp1826
Rp1827
(dp1828
g12
VDT
p1829
sbag0
(g1
g2
(lp1830
Vlittle
p1831
atp1832
Rp1833
(dp1834
g12
VJJ
p1835
sbag0
(g1
g2
(lp1836
Vdisaster
p1837
atp1838
Rp1839
(dp1840
g12
VNN
p1841
sbag0
(g1
g2
(lp1842
Varea
p1843
atp1844
Rp1845
(dp1846
g12
VNN
p1847
sbatp1848
Rp1849
(dp1850
g12
VNP
p1851
sbatp1852
Rp1853
(dp1854
g12
VVP
p1855
sbag0
(g1
g2
(lp1856
V.
p1857
atp1858
Rp1859
(dp1860
g12
V.
p1861
sbatp1862
Rp1863
(dp1864
g12
VS
p1865
sbatp1866
Rp1867
(dp1868
g12
S'id: 12'
p1869
sbatp1870
Rp1871
(dp1872
g12
S'sentences'
p1873
sb.