ccopy_reg
_reconstructor
p0
(cnltk.tree
Tree
p1
c__builtin__
list
p2
(lp3
g0
(g1
g2
(lp4
g0
(g1
g2
(lp5
g0
(g1
g2
(lp6
(lp7
S'word: okay, index: 1'
p8
aatp9
Rp10
(dp11
S'_label'
p12
Vdep
p13
sbag0
(g1
g2
(lp14
(lp15
S'word: i, index: 2'
p16
aatp17
Rp18
(dp19
g12
Vnsubj
p20
sbag0
(g1
g2
(lp21
g0
(g1
g2
(lp22
g0
(g1
g2
(lp23
g0
(g1
g2
(lp24
g0
(g1
g2
(lp25
g0
(g1
g2
(lp26
g0
(g1
g2
(lp27
(lp28
S'word: it, index: 8'
p29
aatp30
Rp31
(dp32
g12
Vprep
p33
sbatp34
Rp35
(dp36
g12
S'word: title, index: 6'
p37
sbatp38
Rp39
(dp40
g12
Vappos
p41
sbatp42
Rp43
(dp44
g12
S'word: the, index: 4'
p45
sbatp46
Rp47
(dp48
g12
Vnsubj
p49
sbag0
(g1
g2
(lp50
(lp51
S'word: was, index: 9'
p52
aatp53
Rp54
(dp55
g12
Vcop
p56
sbag0
(g1
g2
(lp57
(lp58
S'word: cookie, index: 10'
p59
aatp60
Rp61
(dp62
g12
Vnn
p63
sbag0
(g1
g2
(lp64
g0
(g1
g2
(lp65
g0
(g1
g2
(lp66
(lp67
S'word: that, index: 13'
p68
aatp69
Rp70
(dp71
g12
Vnsubj
p72
sbag0
(g1
g2
(lp73
(lp74
S"word: 's, index: 14"
p75
aatp76
Rp77
(dp78
g12
Vcop
p79
sbatp80
Rp81
(dp82
g12
S'word: what, index: 15'
p83
sbatp84
Rp85
(dp86
g12
Vconj
p87
sbatp88
Rp89
(dp90
g12
S'word: theft, index: 11'
p91
sbatp92
Rp93
(dp94
g12
Vdep
p95
sbag0
(g1
g2
(lp96
g81
atp97
Rp98
(dp99
g12
Vdep
p100
sbatp101
Rp102
(dp103
g12
S'word: saw, index: 3'
p104
sbatp105
Rp106
(dp107
g12
S'id: 0'
p108
sbag0
(g1
g2
(lp109
g0
(g1
g2
(lp110
g0
(g1
g2
(lp111
(lp112
S'word: is, index: 4'
p113
aatp114
Rp115
(dp116
g12
Vaux
p117
sbag0
(g1
g2
(lp118
g0
(g1
g2
(lp119
g0
(g1
g2
(lp120
(lp121
S'word: a, index: 6'
p122
aatp123
Rp124
(dp125
g12
Vdet
p126
sbatp127
Rp128
(dp129
g12
S'word: cookie, index: 7'
p130
sbatp131
Rp132
(dp133
g12
Vdobj
p134
sbag0
(g1
g2
(lp135
g0
(g1
g2
(lp136
g0
(g1
g2
(lp137
g0
(g1
g2
(lp138
g0
(g1
g2
(lp139
g0
(g1
g2
(lp140
g0
(g1
g2
(lp141
(lp142
S'word: a, index: 19'
p143
aatp144
Rp145
(dp146
g12
Vdet
p147
sbatp148
Rp149
(dp150
g12
S'word: little, index: 20'
p151
sbatp152
Rp153
(dp154
g12
Vnpadvmod
p155
sbag0
(g1
g2
(lp156
g0
(g1
g2
(lp157
g0
(g1
g2
(lp158
(lp159
S'word: she, index: 23'
p160
aatp161
Rp162
(dp163
g12
Vnsubj
p164
sbag0
(g1
g2
(lp165
(lp166
S'word: one, index: 25'
p167
aatp168
Rp169
(dp170
g12
Vdobj
p171
sbag0
(g1
g2
(lp172
(lp173
S'word: too, index: 26'
p174
aatp175
Rp176
(dp177
g12
Vadvmod
p178
sbatp179
Rp180
(dp181
g12
S'word: wants, index: 24'
p182
sbatp183
Rp184
(dp185
g12
Vconj
p186
sbag0
(g1
g2
(lp187
(lp188
S'word: while, index: 14'
p189
aatp190
Rp191
(dp192
g12
Vmark
p193
sbag0
(g1
g2
(lp194
g0
(g1
g2
(lp195
g0
(g1
g2
(lp196
(lp197
S'word: the, index: 15'
p198
aatp199
Rp200
(dp201
g12
Vdet
p202
sbag0
(g1
g2
(lp203
(lp204
S"word: 's, index: 17"
p205
aatp206
Rp207
(dp208
g12
Vpossessive
p209
sbatp210
Rp211
(dp212
g12
S'word: sister, index: 16'
p213
sbatp214
Rp215
(dp216
g12
Vnsubj
p217
sbag0
(g1
g2
(lp218
(lp219
S'word: getting, index: 18'
p220
aatp221
Rp222
(dp223
g12
Vdep
p224
sbatp225
Rp226
(dp227
g12
S'word: tickled, index: 21'
p228
sbatp229
Rp230
(dp231
g12
Vadvcl
p232
sbag0
(g1
g2
(lp233
g180
atp234
Rp235
(dp236
g12
Vadvcl
p237
sbag0
(g1
g2
(lp238
(lp239
S'word: over, index: 10'
p240
aatp241
Rp242
(dp243
g12
Vprt
p244
sbag0
(g1
g2
(lp245
g0
(g1
g2
(lp246
g0
(g1
g2
(lp247
(lp248
S'word: the, index: 12'
p249
aatp250
Rp251
(dp252
g12
Vdet
p253
sbatp254
Rp255
(dp256
g12
S'word: stool, index: 13'
p257
sbatp258
Rp259
(dp260
g12
Vprep
p261
sbag0
(g1
g2
(lp262
g0
(g1
g2
(lp263
g0
(g1
g2
(lp264
(lp265
S'word: son, index: 3'
p266
aatp267
Rp268
(dp269
g12
Vappos
p270
sbatp271
Rp272
(dp273
g12
S'word: the, index: 1'
p274
sbatp275
Rp276
(dp277
g12
Vnsubj
p278
sbatp279
Rp280
(dp281
g12
S'word: falling, index: 9'
p282
sbatp283
Rp284
(dp285
g12
Vconj
p286
sbag0
(g1
g2
(lp287
g272
atp288
Rp289
(dp290
g12
Vnsubj
p291
sbatp292
Rp293
(dp294
g12
S'word: getting, index: 5'
p295
sbatp296
Rp297
(dp298
g12
S'id: 1'
p299
sbag0
(g1
g2
(lp300
g0
(g1
g2
(lp301
g0
(g1
g2
(lp302
g0
(g1
g2
(lp303
g0
(g1
g2
(lp304
(lp305
S'word: the, index: 6'
p306
aatp307
Rp308
(dp309
g12
Vdet
p310
sbag0
(g1
g2
(lp311
(lp312
S"word: 's, index: 8"
p313
aatp314
Rp315
(dp316
g12
Vpossessive
p317
sbag0
(g1
g2
(lp318
(lp319
S'word: overflowing, index: 9'
p320
aatp321
Rp322
(dp323
g12
Vamod
p324
sbag0
(g1
g2
(lp325
g0
(g1
g2
(lp326
g0
(g1
g2
(lp327
(lp328
S'word: the, index: 11'
p329
aatp330
Rp331
(dp332
g12
Vdet
p333
sbatp334
Rp335
(dp336
g12
S'word: sink, index: 12'
p337
sbatp338
Rp339
(dp340
g12
Vprep
p341
sbatp342
Rp343
(dp344
g12
S'word: water, index: 7'
p345
sbatp346
Rp347
(dp348
g12
Vdep
p349
sbag0
(g1
g2
(lp350
(lp351
S"word: 's, index: 2"
p352
aatp353
Rp354
(dp355
g12
Vpossessive
p356
sbag0
(g1
g2
(lp357
g0
(g1
g2
(lp358
g0
(g1
g2
(lp359
(lp360
S'word: not, index: 3'
p361
aatp362
Rp363
(dp364
g12
Vneg
p365
sbatp366
Rp367
(dp368
g12
S'word: real, index: 4'
p369
sbatp370
Rp371
(dp372
g12
Vamod
p373
sbag0
(g1
g2
(lp374
(lp375
S'word: happy, index: 5'
p376
aatp377
Rp378
(dp379
g12
Vamod
p380
sbatp381
Rp382
(dp383
g12
S'word: mom, index: 1'
p384
sbatp385
Rp386
(dp387
g12
S'id: 2'
p388
sbag0
(g1
g2
(lp389
g0
(g1
g2
(lp390
g0
(g1
g2
(lp391
(lp392
S'word: she, index: 1'
p393
aatp394
Rp395
(dp396
g12
Vnsubj
p397
sbag0
(g1
g2
(lp398
(lp399
S"word: 's, index: 2"
p400
aatp401
Rp402
(dp403
g12
Vaux
p404
sbag0
(g1
g2
(lp405
g0
(g1
g2
(lp406
g0
(g1
g2
(lp407
(lp408
S'word: a, index: 4'
p409
aatp410
Rp411
(dp412
g12
Vdet
p413
sbatp414
Rp415
(dp416
g12
S'word: dish, index: 5'
p417
sbatp418
Rp419
(dp420
g12
Vdobj
p421
sbatp422
Rp423
(dp424
g12
S'word: drying, index: 3'
p425
sbatp426
Rp427
(dp428
g12
S'id: 3'
p429
sbag0
(g1
g2
(lp430
g0
(g1
g2
(lp431
g0
(g1
g2
(lp432
g0
(g1
g2
(lp433
g0
(g1
g2
(lp434
(lp435
S'word: a, index: 3'
p436
aatp437
Rp438
(dp439
g12
Vdet
p440
sbag0
(g1
g2
(lp441
(lp442
S'word: of, index: 5'
p443
aatp444
Rp445
(dp446
g12
Vprep
p447
sbatp448
Rp449
(dp450
g12
S'word: couple, index: 4'
p451
sbatp452
Rp453
(dp454
g12
Vprep
p455
sbag0
(g1
g2
(lp456
g0
(g1
g2
(lp457
g0
(g1
g2
(lp458
(lp459
S'word: dirty, index: 7'
p460
aatp461
Rp462
(dp463
g12
Vamod
p464
sbag0
(g1
g2
(lp465
g0
(g1
g2
(lp466
g0
(g1
g2
(lp467
(lp468
S'word: the, index: 10'
p469
aatp470
Rp471
(dp472
g12
Vdet
p473
sbatp474
Rp475
(dp476
g12
S'word: counter, index: 11'
p477
sbatp478
Rp479
(dp480
g12
Vprep
p481
sbatp482
Rp483
(dp484
g12
S'word: dishes, index: 8'
p485
sbatp486
Rp487
(dp488
g12
Vappos
p489
sbatp490
Rp491
(dp492
g12
S'word: looks, index: 1'
p493
sbatp494
Rp495
(dp496
g12
S'id: 4'
p497
sbag0
(g1
g2
(lp498
g0
(g1
g2
(lp499
g0
(g1
g2
(lp500
g0
(g1
g2
(lp501
g0
(g1
g2
(lp502
(lp503
S'word: yard, index: 15'
p504
aatp505
Rp506
(dp507
g12
Vnn
p508
sbag0
(g1
g2
(lp509
(lp510
S'word: the, index: 14'
p511
aatp512
Rp513
(dp514
g12
Vdet
p515
sbatp516
Rp517
(dp518
g12
S'word: outside, index: 16'
p519
sbatp520
Rp521
(dp522
g12
Vnsubj
p523
sbag0
(g1
g2
(lp524
g0
(g1
g2
(lp525
g0
(g1
g2
(lp526
g0
(g1
g2
(lp527
g0
(g1
g2
(lp528
g0
(g1
g2
(lp529
g0
(g1
g2
(lp530
(lp531
S'word: she, index: 2'
p532
aatp533
Rp534
(dp535
g12
Vnsubj
p536
sbatp537
Rp538
(dp539
g12
S"word: 's, index: 3"
p540
sbatp541
Rp542
(dp543
g12
Vrcmod
p544
sbatp545
Rp546
(dp547
g12
S'word: she, index: 1'
p548
sbatp549
Rp550
(dp551
g12
Vnsubj
p552
sbag0
(g1
g2
(lp553
g0
(g1
g2
(lp554
g0
(g1
g2
(lp555
(lp556
S'word: a, index: 5'
p557
aatp558
Rp559
(dp560
g12
Vdet
p561
sbatp562
Rp563
(dp564
g12
S'word: window, index: 6'
p565
sbatp566
Rp567
(dp568
g12
Vdobj
p569
sbag0
(g1
g2
(lp570
(lp571
S'word: her, index: 10'
p572
aatp573
Rp574
(dp575
g12
Vprep
p576
sbatp577
Rp578
(dp579
g12
S'word: got, index: 4'
p580
sbatp581
Rp582
(dp583
g12
Vccomp
p584
sbag0
(g1
g2
(lp585
(lp586
S'word: there, index: 12'
p587
aatp588
Rp589
(dp590
g12
Vexpl
p591
sbatp592
Rp593
(dp594
g12
S"word: 's, index: 13"
p595
sbatp596
Rp597
(dp598
g12
S'id: 5'
p599
sbag0
(g1
g2
(lp600
g0
(g1
g2
(lp601
g0
(g1
g2
(lp602
g0
(g1
g2
(lp603
g0
(g1
g2
(lp604
(lp605
S'word: the, index: 3'
p606
aatp607
Rp608
(dp609
g12
Vdet
p610
sbatp611
Rp612
(dp613
g12
S'word: kitchen, index: 4'
p614
sbatp615
Rp616
(dp617
g12
Vprep
p618
sbag0
(g1
g2
(lp619
(lp620
S'word: obviously, index: 5'
p621
aatp622
Rp623
(dp624
g12
Vadvmod
p625
sbatp626
Rp627
(dp628
g12
S'word: they, index: 1'
p629
sbatp630
Rp631
(dp632
g12
S'id: 6'
p633
sbag0
(g1
g2
(lp634
g0
(g1
g2
(lp635
g0
(g1
g2
(lp636
(lp637
S'word: that, index: 1'
p638
aatp639
Rp640
(dp641
g12
Vnsubj
p642
sbag0
(g1
g2
(lp643
(lp644
S"word: 's, index: 2"
p645
aatp646
Rp647
(dp648
g12
Vcop
p649
sbatp650
Rp651
(dp652
g12
S'word: it, index: 3'
p653
sbatp654
Rp655
(dp656
g12
S'id: 7'
p657
sbag0
(g1
g2
(lp658
g0
(g1
g2
(lp659
g0
(g1
g2
(lp660
(lp661
S'word: she, index: 1'
p662
aatp663
Rp664
(dp665
g12
Vnsubj
p666
sbag0
(g1
g2
(lp667
g0
(g1
g2
(lp668
g0
(g1
g2
(lp669
(lp670
S'word: a, index: 3'
p671
aatp672
Rp673
(dp674
g12
Vdet
p675
sbatp676
Rp677
(dp678
g12
S'word: dress, index: 4'
p679
sbatp680
Rp681
(dp682
g12
Vdobj
p683
sbag0
(g1
g2
(lp684
(lp685
S'word: on, index: 5'
p686
aatp687
Rp688
(dp689
g12
Vprep
p690
sbatp691
Rp692
(dp693
g12
S'word: has, index: 2'
p694
sbatp695
Rp696
(dp697
g12
S'id: 8'
p698
sbatp699
Rp700
(dp701
g12
S'sentences'
p702
sb.