ccopy_reg
_reconstructor
p0
(cnltk.tree
Tree
p1
c__builtin__
list
p2
(lp3
g0
(g1
g2
(lp4
g0
(g1
g2
(lp5
g0
(g1
g2
(lp6
g0
(g1
g2
(lp7
Voh
p8
atp9
Rp10
(dp11
S'_label'
p12
VUH
p13
sbatp14
Rp15
(dp16
g12
VINTJ
p17
sbag0
(g1
g2
(lp18
V,
p19
atp20
Rp21
(dp22
g12
V,
p23
sbag0
(g1
g2
(lp24
g0
(g1
g2
(lp25
Vpicnic
p26
atp27
Rp28
(dp29
g12
VNN
p30
sbatp31
Rp32
(dp33
g12
VNP
p34
sbag0
(g1
g2
(lp35
V.
p36
atp37
Rp38
(dp39
g12
V.
p40
sbatp41
Rp42
(dp43
g12
VFRAG
p44
sbatp45
Rp46
(dp47
g12
S'id: 0'
p48
sbag0
(g1
g2
(lp49
g0
(g1
g2
(lp50
g0
(g1
g2
(lp51
g0
(g1
g2
(lp52
Va
p53
atp54
Rp55
(dp56
g12
VDT
p57
sbag0
(g1
g2
(lp58
Vguy
p59
atp60
Rp61
(dp62
g12
VNN
p63
sbatp64
Rp65
(dp66
g12
VNP
p67
sbag0
(g1
g2
(lp68
g0
(g1
g2
(lp69
Vis
p70
atp71
Rp72
(dp73
g12
VVBZ
p74
sbag0
(g1
g2
(lp75
g0
(g1
g2
(lp76
Vreading
p77
atp78
Rp79
(dp80
g12
VVBG
p81
sbag0
(g1
g2
(lp82
g0
(g1
g2
(lp83
Von
p84
atp85
Rp86
(dp87
g12
VIN
p88
sbag0
(g1
g2
(lp89
g0
(g1
g2
(lp90
Vthe
p91
atp92
Rp93
(dp94
g12
VDT
p95
sbag0
(g1
g2
(lp96
Vbook
p97
atp98
Rp99
(dp100
g12
VNN
p101
sbatp102
Rp103
(dp104
g12
VNP
p105
sbatp106
Rp107
(dp108
g12
VPP
p109
sbatp110
Rp111
(dp112
g12
VVP
p113
sbatp114
Rp115
(dp116
g12
VVP
p117
sbag0
(g1
g2
(lp118
V.
p119
atp120
Rp121
(dp122
g12
V.
p123
sbatp124
Rp125
(dp126
g12
VS
p127
sbatp128
Rp129
(dp130
g12
S'id: 1'
p131
sbag0
(g1
g2
(lp132
g0
(g1
g2
(lp133
g0
(g1
g2
(lp134
Vand
p135
atp136
Rp137
(dp138
g12
VCC
p139
sbag0
(g1
g2
(lp140
g0
(g1
g2
(lp141
Vthe
p142
atp143
Rp144
(dp145
g12
VDT
p146
sbag0
(g1
g2
(lp147
Vlady
p148
atp149
Rp150
(dp151
g12
VNN
p152
sbatp153
Rp154
(dp155
g12
VNP
p156
sbag0
(g1
g2
(lp157
g0
(g1
g2
(lp158
Vis
p159
atp160
Rp161
(dp162
g12
VVBZ
p163
sbag0
(g1
g2
(lp164
g0
(g1
g2
(lp165
g0
(g1
g2
(lp166
Vpourin
p167
atp168
Rp169
(dp170
g12
VNN
p171
sbag0
(g1
g2
(lp172
V'
p173
atp174
Rp175
(dp176
g12
V''
p177
sbatp178
Rp179
(dp180
g12
VNP
p181
sbag0
(g1
g2
(lp182
g0
(g1
g2
(lp183
g0
(g1
g2
(lp184
Va
p185
atp186
Rp187
(dp188
g12
VDT
p189
sbag0
(g1
g2
(lp190
Vglass
p191
atp192
Rp193
(dp194
g12
VNN
p195
sbatp196
Rp197
(dp198
g12
VNP
p199
sbag0
(g1
g2
(lp200
g0
(g1
g2
(lp201
Vof
p202
atp203
Rp204
(dp205
g12
VIN
p206
sbag0
(g1
g2
(lp207
g0
(g1
g2
(lp208
Vwine
p209
atp210
Rp211
(dp212
g12
VNN
p213
sbatp214
Rp215
(dp216
g12
VNP
p217
sbatp218
Rp219
(dp220
g12
VPP
p221
sbatp222
Rp223
(dp224
g12
VNP
p225
sbatp226
Rp227
(dp228
g12
VNP
p229
sbatp230
Rp231
(dp232
g12
VVP
p233
sbag0
(g1
g2
(lp234
V.
p235
atp236
Rp237
(dp238
g12
V.
p239
sbatp240
Rp241
(dp242
g12
VS
p243
sbatp244
Rp245
(dp246
g12
S'id: 2'
p247
sbag0
(g1
g2
(lp248
g0
(g1
g2
(lp249
g0
(g1
g2
(lp250
g0
(g1
g2
(lp251
Vthey
p252
atp253
Rp254
(dp255
g12
VPRP
p256
sbatp257
Rp258
(dp259
g12
VNP
p260
sbag0
(g1
g2
(lp261
g0
(g1
g2
(lp262
Vhave
p263
atp264
Rp265
(dp266
g12
VVBP
p267
sbag0
(g1
g2
(lp268
g0
(g1
g2
(lp269
Vtheir
p270
atp271
Rp272
(dp273
g12
VPRP$
p274
sbag0
(g1
g2
(lp275
Vradio
p276
atp277
Rp278
(dp279
g12
VNN
p280
sbatp281
Rp282
(dp283
g12
VNP
p284
sbag0
(g1
g2
(lp285
g0
(g1
g2
(lp286
Von
p287
atp288
Rp289
(dp290
g12
VIN
p291
sbatp292
Rp293
(dp294
g12
VPP
p295
sbatp296
Rp297
(dp298
g12
VVP
p299
sbag0
(g1
g2
(lp300
V.
p301
atp302
Rp303
(dp304
g12
V.
p305
sbatp306
Rp307
(dp308
g12
VS
p309
sbatp310
Rp311
(dp312
g12
S'id: 3'
p313
sbag0
(g1
g2
(lp314
g0
(g1
g2
(lp315
g0
(g1
g2
(lp316
Vand
p317
atp318
Rp319
(dp320
g12
VCC
p321
sbag0
(g1
g2
(lp322
g0
(g1
g2
(lp323
Vit
p324
atp325
Rp326
(dp327
g12
VPRP
p328
sbatp329
Rp330
(dp331
g12
VNP
p332
sbag0
(g1
g2
(lp333
g0
(g1
g2
(lp334
Vlooks
p335
atp336
Rp337
(dp338
g12
VVBZ
p339
sbag0
(g1
g2
(lp340
g0
(g1
g2
(lp341
Vlike
p342
atp343
Rp344
(dp345
g12
VIN
p346
sbag0
(g1
g2
(lp347
g0
(g1
g2
(lp348
g0
(g1
g2
(lp349
Vit
p350
atp351
Rp352
(dp353
g12
VPRP
p354
sbatp355
Rp356
(dp357
g12
VNP
p358
sbag0
(g1
g2
(lp359
g0
(g1
g2
(lp360
V's
p361
atp362
Rp363
(dp364
g12
VVBZ
p365
sbag0
(g1
g2
(lp366
g0
(g1
g2
(lp367
Vjust
p368
atp369
Rp370
(dp371
g12
VRB
p372
sbatp373
Rp374
(dp375
g12
VADVP
p376
sbag0
(g1
g2
(lp377
g0
(g1
g2
(lp378
g0
(g1
g2
(lp379
Va
p380
atp381
Rp382
(dp383
g12
VDT
p384
sbag0
(g1
g2
(lp385
Vlake
p386
atp387
Rp388
(dp389
g12
VNN
p390
sbag0
(g1
g2
(lp391
Vor
p392
atp393
Rp394
(dp395
g12
VCC
p396
sbag0
(g1
g2
(lp397
Vpond
p398
atp399
Rp400
(dp401
g12
VNN
p402
sbatp403
Rp404
(dp405
g12
VNP
p406
sbag0
(g1
g2
(lp407
V,
p408
atp409
Rp410
(dp411
g12
V,
p412
sbag0
(g1
g2
(lp413
g0
(g1
g2
(lp414
g0
(g1
g2
(lp415
Vsomeone
p416
atp417
Rp418
(dp419
g12
VNN
p420
sbag0
(g1
g2
(lp421
V's
p422
atp423
Rp424
(dp425
g12
VPOS
p426
sbatp427
Rp428
(dp429
g12
VNP
p430
sbag0
(g1
g2
(lp431
Vfishin
p432
atp433
Rp434
(dp435
g12
VNN
p436
sbag0
(g1
g2
(lp437
V'
p438
atp439
Rp440
(dp441
g12
V''
p442
sbag0
(g1
g2
(lp443
g0
(g1
g2
(lp444
V,
p445
atp446
Rp447
(dp448
g12
V,
p449
sbag0
(g1
g2
(lp450
g0
(g1
g2
(lp451
g0
(g1
g2
(lp452
Vlittle
p453
atp454
Rp455
(dp456
g12
VJJ
p457
sbag0
(g1
g2
(lp458
Vboy
p459
atp460
Rp461
(dp462
g12
VNN
p463
sbag0
(g1
g2
(lp464
Vplayin
p465
atp466
Rp467
(dp468
g12
VNN
p469
sbag0
(g1
g2
(lp470
V'
p471
atp472
Rp473
(dp474
g12
V''
p475
sbatp476
Rp477
(dp478
g12
VNP
p479
sbag0
(g1
g2
(lp480
g0
(g1
g2
(lp481
Vwith
p482
atp483
Rp484
(dp485
g12
VIN
p486
sbag0
(g1
g2
(lp487
g0
(g1
g2
(lp488
g0
(g1
g2
(lp489
g0
(g1
g2
(lp490
Va
p491
atp492
Rp493
(dp494
g12
VDT
p495
sbag0
(g1
g2
(lp496
Vkite
p497
atp498
Rp499
(dp500
g12
VNN
p501
sbatp502
Rp503
(dp504
g12
VNP
p505
sbag0
(g1
g2
(lp506
Vand
p507
atp508
Rp509
(dp510
g12
VCC
p511
sbag0
(g1
g2
(lp512
g0
(g1
g2
(lp513
Vrunnin
p514
atp515
Rp516
(dp517
g12
VNN
p518
sbatp519
Rp520
(dp521
g12
VNP
p522
sbatp523
Rp524
(dp525
g12
VNP
p526
sbag0
(g1
g2
(lp527
V'
p528
atp529
Rp530
(dp531
g12
V''
p532
sbag0
(g1
g2
(lp533
Vand
p534
atp535
Rp536
(dp537
g12
VCC
p538
sbag0
(g1
g2
(lp539
g0
(g1
g2
(lp540
g0
(g1
g2
(lp541
g0
(g1
g2
(lp542
Vhis
p543
atp544
Rp545
(dp546
g12
VPRP$
p547
sbag0
(g1
g2
(lp548
Vdog
p549
atp550
Rp551
(dp552
g12
VNN
p553
sbag0
(g1
g2
(lp554
V's
p555
atp556
Rp557
(dp558
g12
VPOS
p559
sbatp560
Rp561
(dp562
g12
VNP
p563
sbag0
(g1
g2
(lp564
Vrunnin
p565
atp566
Rp567
(dp568
g12
VNN
p569
sbatp570
Rp571
(dp572
g12
VNP
p573
sbag0
(g1
g2
(lp574
V'
p575
atp576
Rp577
(dp578
g12
V''
p579
sbag0
(g1
g2
(lp580
g0
(g1
g2
(lp581
Vwith
p582
atp583
Rp584
(dp585
g12
VIN
p586
sbag0
(g1
g2
(lp587
g0
(g1
g2
(lp588
Vhim
p589
atp590
Rp591
(dp592
g12
VPRP
p593
sbatp594
Rp595
(dp596
g12
VNP
p597
sbatp598
Rp599
(dp600
g12
VPP
p601
sbag0
(g1
g2
(lp602
V,
p603
atp604
Rp605
(dp606
g12
V,
p607
sbag0
(g1
g2
(lp608
Vand
p609
atp610
Rp611
(dp612
g12
VCC
p613
sbag0
(g1
g2
(lp614
g0
(g1
g2
(lp615
g0
(g1
g2
(lp616
Vlittle
p617
atp618
Rp619
(dp620
g12
VJJ
p621
sbag0
(g1
g2
(lp622
Vgirl
p623
atp624
Rp625
(dp626
g12
VNN
p627
sbatp628
Rp629
(dp630
g12
VNP
p631
sbag0
(g1
g2
(lp632
g0
(g1
g2
(lp633
g0
(g1
g2
(lp634
Vover
p635
atp636
Rp637
(dp638
g12
VIN
p639
sbag0
(g1
g2
(lp640
g0
(g1
g2
(lp641
Von
p642
atp643
Rp644
(dp645
g12
VIN
p646
sbag0
(g1
g2
(lp647
g0
(g1
g2
(lp648
Vthe
p649
atp650
Rp651
(dp652
g12
VDT
p653
sbag0
(g1
g2
(lp654
Vbeach
p655
atp656
Rp657
(dp658
g12
VNN
p659
sbag0
(g1
g2
(lp660
Vsand
p661
atp662
Rp663
(dp664
g12
VNN
p665
sbag0
(g1
g2
(lp666
Vbuildin
p667
atp668
Rp669
(dp670
g12
VNN
p671
sbag0
(g1
g2
(lp672
V'
p673
atp674
Rp675
(dp676
g12
V''
p677
sbatp678
Rp679
(dp680
g12
VNP
p681
sbatp682
Rp683
(dp684
g12
VPP
p685
sbatp686
Rp687
(dp688
g12
VADVP
p689
sbag0
(g1
g2
(lp690
Va
p691
atp692
Rp693
(dp694
g12
VDT
p695
sbatp696
Rp697
(dp698
g12
VNP
p699
sbatp700
Rp701
(dp702
g12
VNP
p703
sbatp704
Rp705
(dp706
g12
VNP
p707
sbatp708
Rp709
(dp710
g12
VNP
p711
sbatp712
Rp713
(dp714
g12
VPP
p715
sbatp716
Rp717
(dp718
g12
VPP
p719
sbag0
(g1
g2
(lp720
V,
p721
atp722
Rp723
(dp724
g12
V,
p725
sbatp726
Rp727
(dp728
g12
VPRN
p729
sbag0
(g1
g2
(lp730
Vcastle
p731
atp732
Rp733
(dp734
g12
VNN
p735
sbatp736
Rp737
(dp738
g12
VNP
p739
sbatp740
Rp741
(dp742
g12
VNP
p743
sbatp744
Rp745
(dp746
g12
VVP
p747
sbatp748
Rp749
(dp750
g12
VS
p751
sbatp752
Rp753
(dp754
g12
VSBAR
p755
sbatp756
Rp757
(dp758
g12
VVP
p759
sbag0
(g1
g2
(lp760
V.
p761
atp762
Rp763
(dp764
g12
V.
p765
sbatp766
Rp767
(dp768
g12
VS
p769
sbatp770
Rp771
(dp772
g12
S'id: 4'
p773
sbag0
(g1
g2
(lp774
g0
(g1
g2
(lp775
g0
(g1
g2
(lp776
g0
(g1
g2
(lp777
Vthere
p778
atp779
Rp780
(dp781
g12
VEX
p782
sbatp783
Rp784
(dp785
g12
VNP
p786
sbag0
(g1
g2
(lp787
g0
(g1
g2
(lp788
V's
p789
atp790
Rp791
(dp792
g12
VVBZ
p793
sbag0
(g1
g2
(lp794
g0
(g1
g2
(lp795
g0
(g1
g2
(lp796
Va
p797
atp798
Rp799
(dp800
g12
VDT
p801
sbag0
(g1
g2
(lp802
Vsailboat
p803
atp804
Rp805
(dp806
g12
VNN
p807
sbag0
(g1
g2
(lp808
g0
(g1
g2
(lp809
Vout
p810
atp811
Rp812
(dp813
g12
VRP
p814
sbatp815
Rp816
(dp817
g12
VPRT
p818
sbatp819
Rp820
(dp821
g12
VNP
p822
sbag0
(g1
g2
(lp823
g0
(g1
g2
(lp824
Vin
p825
atp826
Rp827
(dp828
g12
VIN
p829
sbag0
(g1
g2
(lp830
g0
(g1
g2
(lp831
Vthe
p832
atp833
Rp834
(dp835
g12
VDT
p836
sbag0
(g1
g2
(lp837
Vpond
p838
atp839
Rp840
(dp841
g12
VNN
p842
sbatp843
Rp844
(dp845
g12
VNP
p846
sbatp847
Rp848
(dp849
g12
VPP
p850
sbatp851
Rp852
(dp853
g12
VNP
p854
sbatp855
Rp856
(dp857
g12
VVP
p858
sbag0
(g1
g2
(lp859
V.
p860
atp861
Rp862
(dp863
g12
V.
p864
sbatp865
Rp866
(dp867
g12
VS
p868
sbatp869
Rp870
(dp871
g12
S'id: 5'
p872
sbag0
(g1
g2
(lp873
g0
(g1
g2
(lp874
g0
(g1
g2
(lp875
g0
(g1
g2
(lp876
Vwith
p877
atp878
Rp879
(dp880
g12
VIN
p881
sbag0
(g1
g2
(lp882
g0
(g1
g2
(lp883
Vit
p884
atp885
Rp886
(dp887
g12
VPRP
p888
sbatp889
Rp890
(dp891
g12
VNP
p892
sbatp893
Rp894
(dp895
g12
VPP
p896
sbag0
(g1
g2
(lp897
g0
(g1
g2
(lp898
Vappears
p899
atp900
Rp901
(dp902
g12
VVBZ
p903
sbatp904
Rp905
(dp906
g12
VVP
p907
sbag0
(g1
g2
(lp908
g0
(g1
g2
(lp909
g0
(g1
g2
(lp910
Vtwo
p911
atp912
Rp913
(dp914
g12
VCD
p915
sbag0
(g1
g2
(lp916
Vpeople
p917
atp918
Rp919
(dp920
g12
VNNS
p921
sbatp922
Rp923
(dp924
g12
VNP
p925
sbag0
(g1
g2
(lp926
g0
(g1
g2
(lp927
Vin
p928
atp929
Rp930
(dp931
g12
VIN
p932
sbag0
(g1
g2
(lp933
g0
(g1
g2
(lp934
Vthe
p935
atp936
Rp937
(dp938
g12
VDT
p939
sbag0
(g1
g2
(lp940
Vsail
p941
atp942
Rp943
(dp944
g12
VNN
p945
sbag0
(g1
g2
(lp946
Vboat
p947
atp948
Rp949
(dp950
g12
VNN
p951
sbatp952
Rp953
(dp954
g12
VNP
p955
sbatp956
Rp957
(dp958
g12
VPP
p959
sbatp960
Rp961
(dp962
g12
VNP
p963
sbag0
(g1
g2
(lp964
V.
p965
atp966
Rp967
(dp968
g12
V.
p969
sbatp970
Rp971
(dp972
g12
VSINV
p973
sbatp974
Rp975
(dp976
g12
S'id: 6'
p977
sbag0
(g1
g2
(lp978
g0
(g1
g2
(lp979
g0
(g1
g2
(lp980
g0
(g1
g2
(lp981
g0
(g1
g2
(lp982
Voh
p983
atp984
Rp985
(dp986
g12
VUH
p987
sbatp988
Rp989
(dp990
g12
VINTJ
p991
sbag0
(g1
g2
(lp992
g0
(g1
g2
(lp993
Vit
p994
atp995
Rp996
(dp997
g12
VPRP
p998
sbatp999
Rp1000
(dp1001
g12
VNP
p1002
sbag0
(g1
g2
(lp1003
g0
(g1
g2
(lp1004
Vis
p1005
atp1006
Rp1007
(dp1008
g12
VVBZ
p1009
sbag0
(g1
g2
(lp1010
g0
(g1
g2
(lp1011
Vwindy
p1012
atp1013
Rp1014
(dp1015
g12
VJJ
p1016
sbag0
(g1
g2
(lp1017
Vday
p1018
atp1019
Rp1020
(dp1021
g12
VNN
p1022
sbatp1023
Rp1024
(dp1025
g12
VNP
p1026
sbag0
(g1
g2
(lp1027
g0
(g1
g2
(lp1028
Vbecause
p1029
atp1030
Rp1031
(dp1032
g12
VIN
p1033
sbag0
(g1
g2
(lp1034
g0
(g1
g2
(lp1035
g0
(g1
g2
(lp1036
Vthe
p1037
atp1038
Rp1039
(dp1040
g12
VDT
p1041
sbag0
(g1
g2
(lp1042
Vflag
p1043
atp1044
Rp1045
(dp1046
g12
VNN
p1047
sbatp1048
Rp1049
(dp1050
g12
VNP
p1051
sbag0
(g1
g2
(lp1052
g0
(g1
g2
(lp1053
Vis
p1054
atp1055
Rp1056
(dp1057
g12
VVBZ
p1058
sbag0
(g1
g2
(lp1059
g0
(g1
g2
(lp1060
Vflying
p1061
atp1062
Rp1063
(dp1064
g12
VVBG
p1065
sbag0
(g1
g2
(lp1066
g0
(g1
g2
(lp1067
Vout
p1068
atp1069
Rp1070
(dp1071
g12
VRP
p1072
sbatp1073
Rp1074
(dp1075
g12
VPRT
p1076
sbatp1077
Rp1078
(dp1079
g12
VVP
p1080
sbatp1081
Rp1082
(dp1083
g12
VVP
p1084
sbatp1085
Rp1086
(dp1087
g12
VS
p1088
sbatp1089
Rp1090
(dp1091
g12
VSBAR
p1092
sbatp1093
Rp1094
(dp1095
g12
VVP
p1096
sbatp1097
Rp1098
(dp1099
g12
VS
p1100
sbag0
(g1
g2
(lp1101
V.
p1102
atp1103
Rp1104
(dp1105
g12
V.
p1106
sbatp1107
Rp1108
(dp1109
g12
VS
p1110
sbatp1111
Rp1112
(dp1113
g12
S'id: 7'
p1114
sbag0
(g1
g2
(lp1115
g0
(g1
g2
(lp1116
g0
(g1
g2
(lp1117
g0
(g1
g2
(lp1118
Vyes
p1119
atp1120
Rp1121
(dp1122
g12
VRB
p1123
sbatp1124
Rp1125
(dp1126
g12
VNP
p1127
sbag0
(g1
g2
(lp1128
V.
p1129
atp1130
Rp1131
(dp1132
g12
V.
p1133
sbatp1134
Rp1135
(dp1136
g12
VFRAG
p1137
sbatp1138
Rp1139
(dp1140
g12
S'id: 8'
p1141
sbag0
(g1
g2
(lp1142
g0
(g1
g2
(lp1143
g0
(g1
g2
(lp1144
Vbut
p1145
atp1146
Rp1147
(dp1148
g12
VCC
p1149
sbag0
(g1
g2
(lp1150
g0
(g1
g2
(lp1151
Vthere
p1152
atp1153
Rp1154
(dp1155
g12
VEX
p1156
sbatp1157
Rp1158
(dp1159
g12
VNP
p1160
sbag0
(g1
g2
(lp1161
g0
(g1
g2
(lp1162
V's
p1163
atp1164
Rp1165
(dp1166
g12
VVBZ
p1167
sbag0
(g1
g2
(lp1168
g0
(g1
g2
(lp1169
g0
(g1
g2
(lp1170
Va
p1171
atp1172
Rp1173
(dp1174
g12
VDT
p1175
sbag0
(g1
g2
(lp1176
Vhouse
p1177
atp1178
Rp1179
(dp1180
g12
VNN
p1181
sbatp1182
Rp1183
(dp1184
g12
VNP
p1185
sbag0
(g1
g2
(lp1186
g0
(g1
g2
(lp1187
Vacross
p1188
atp1189
Rp1190
(dp1191
g12
VIN
p1192
sbag0
(g1
g2
(lp1193
g0
(g1
g2
(lp1194
g0
(g1
g2
(lp1195
Vthe
p1196
atp1197
Rp1198
(dp1199
g12
VDT
p1200
sbag0
(g1
g2
(lp1201
Vstreet
p1202
atp1203
Rp1204
(dp1205
g12
VNN
p1206
sbatp1207
Rp1208
(dp1209
g12
VNP
p1210
sbag0
(g1
g2
(lp1211
g0
(g1
g2
(lp1212
Vfrom
p1213
atp1214
Rp1215
(dp1216
g12
VIN
p1217
sbag0
(g1
g2
(lp1218
g0
(g1
g2
(lp1219
Vthis
p1220
atp1221
Rp1222
(dp1223
g12
VDT
p1224
sbag0
(g1
g2
(lp1225
Vplace
p1226
atp1227
Rp1228
(dp1229
g12
VNN
p1230
sbatp1231
Rp1232
(dp1233
g12
VNP
p1234
sbatp1235
Rp1236
(dp1237
g12
VPP
p1238
sbatp1239
Rp1240
(dp1241
g12
VNP
p1242
sbatp1243
Rp1244
(dp1245
g12
VPP
p1246
sbatp1247
Rp1248
(dp1249
g12
VNP
p1250
sbatp1251
Rp1252
(dp1253
g12
VVP
p1254
sbag0
(g1
g2
(lp1255
V.
p1256
atp1257
Rp1258
(dp1259
g12
V.
p1260
sbatp1261
Rp1262
(dp1263
g12
VS
p1264
sbatp1265
Rp1266
(dp1267
g12
S'id: 9'
p1268
sbag0
(g1
g2
(lp1269
g0
(g1
g2
(lp1270
g0
(g1
g2
(lp1271
g0
(g1
g2
(lp1272
Vso
p1273
atp1274
Rp1275
(dp1276
g12
VIN
p1277
sbag0
(g1
g2
(lp1278
g0
(g1
g2
(lp1279
VI
p1280
atp1281
Rp1282
(dp1283
g12
VPRP
p1284
sbatp1285
Rp1286
(dp1287
g12
VNP
p1288
sbag0
(g1
g2
(lp1289
g0
(g1
g2
(lp1290
Vdo
p1291
atp1292
Rp1293
(dp1294
g12
VVBP
p1295
sbag0
(g1
g2
(lp1296
Vn't
p1297
atp1298
Rp1299
(dp1300
g12
VRB
p1301
sbag0
(g1
g2
(lp1302
g0
(g1
g2
(lp1303
Vknow
p1304
atp1305
Rp1306
(dp1307
g12
VVB
p1308
sbatp1309
Rp1310
(dp1311
g12
VVP
p1312
sbatp1313
Rp1314
(dp1315
g12
VVP
p1316
sbatp1317
Rp1318
(dp1319
g12
VS
p1320
sbag0
(g1
g2
(lp1321
V,
p1322
atp1323
Rp1324
(dp1325
g12
V,
p1326
sbag0
(g1
g2
(lp1327
g0
(g1
g2
(lp1328
Vthis
p1329
atp1330
Rp1331
(dp1332
g12
VDT
p1333
sbatp1334
Rp1335
(dp1336
g12
VNP
p1337
sbag0
(g1
g2
(lp1338
g0
(g1
g2
(lp1339
g0
(g1
g2
(lp1340
Vmust
p1341
atp1342
Rp1343
(dp1344
g12
VMD
p1345
sbag0
(g1
g2
(lp1346
g0
(g1
g2
(lp1347
Vbe
p1348
atp1349
Rp1350
(dp1351
g12
VVB
p1352
sbatp1353
Rp1354
(dp1355
g12
VVP
p1356
sbatp1357
Rp1358
(dp1359
g12
VVP
p1360
sbag0
(g1
g2
(lp1361
V,
p1362
atp1363
Rp1364
(dp1365
g12
V,
p1366
sbag0
(g1
g2
(lp1367
g0
(g1
g2
(lp1368
g0
(g1
g2
(lp1369
Va
p1370
atp1371
Rp1372
(dp1373
g12
VDT
p1374
sbag0
(g1
g2
(lp1375
Vprivate
p1376
atp1377
Rp1378
(dp1379
g12
VJJ
p1380
sbag0
(g1
g2
(lp1381
Vpond
p1382
atp1383
Rp1384
(dp1385
g12
VNN
p1386
sbatp1387
Rp1388
(dp1389
g12
VNP
p1390
sbag0
(g1
g2
(lp1391
Vor
p1392
atp1393
Rp1394
(dp1395
g12
VCC
p1396
sbag0
(g1
g2
(lp1397
g0
(g1
g2
(lp1398
Vtheir
p1399
atp1400
Rp1401
(dp1402
g12
VPRP$
p1403
sbag0
(g1
g2
(lp1404
Vplace
p1405
atp1406
Rp1407
(dp1408
g12
VNN
p1409
sbatp1410
Rp1411
(dp1412
g12
VNP
p1413
sbatp1414
Rp1415
(dp1416
g12
VNP
p1417
sbatp1418
Rp1419
(dp1420
g12
VVP
p1421
sbag0
(g1
g2
(lp1422
V.
p1423
atp1424
Rp1425
(dp1426
g12
V.
p1427
sbatp1428
Rp1429
(dp1430
g12
VS
p1431
sbatp1432
Rp1433
(dp1434
g12
S'id: 10'
p1435
sbag0
(g1
g2
(lp1436
g0
(g1
g2
(lp1437
g0
(g1
g2
(lp1438
V`
p1439
atp1440
Rp1441
(dp1442
g12
V``
p1443
sbag0
(g1
g2
(lp1444
g0
(g1
g2
(lp1445
Vcause
p1446
atp1447
Rp1448
(dp1449
g12
VVB
p1450
sbag0
(g1
g2
(lp1451
g0
(g1
g2
(lp1452
g0
(g1
g2
(lp1453
g0
(g1
g2
(lp1454
Va
p1455
atp1456
Rp1457
(dp1458
g12
VDT
p1459
sbag0
(g1
g2
(lp1460
Vhouse
p1461
atp1462
Rp1463
(dp1464
g12
VNN
p1465
sbatp1466
Rp1467
(dp1468
g12
VNP
p1469
sbag0
(g1
g2
(lp1470
g0
(g1
g2
(lp1471
Vshould
p1472
atp1473
Rp1474
(dp1475
g12
VMD
p1476
sbag0
(g1
g2
(lp1477
Vn't
p1478
atp1479
Rp1480
(dp1481
g12
VRB
p1482
sbag0
(g1
g2
(lp1483
g0
(g1
g2
(lp1484
Vbe
p1485
atp1486
Rp1487
(dp1488
g12
VVB
p1489
sbag0
(g1
g2
(lp1490
g0
(g1
g2
(lp1491
Vin
p1492
atp1493
Rp1494
(dp1495
g12
VIN
p1496
sbag0
(g1
g2
(lp1497
g0
(g1
g2
(lp1498
g0
(g1
g2
(lp1499
Va
p1500
atp1501
Rp1502
(dp1503
g12
VDT
p1504
sbag0
(g1
g2
(lp1505
Vpublic
p1506
atp1507
Rp1508
(dp1509
g12
VJJ
p1510
sbag0
(g1
g2
(lp1511
Vpond
p1512
atp1513
Rp1514
(dp1515
g12
VNN
p1516
sbatp1517
Rp1518
(dp1519
g12
VNP
p1520
sbag0
(g1
g2
(lp1521
Vor
p1522
atp1523
Rp1524
(dp1525
g12
VCC
p1526
sbag0
(g1
g2
(lp1527
g0
(g1
g2
(lp1528
Vlake
p1529
atp1530
Rp1531
(dp1532
g12
VNN
p1533
sbag0
(g1
g2
(lp1534
Vor
p1535
atp1536
Rp1537
(dp1538
g12
VCC
p1539
sbag0
(g1
g2
(lp1540
Vrecreation
p1541
atp1542
Rp1543
(dp1544
g12
VNN
p1545
sbag0
(g1
g2
(lp1546
Varea
p1547
atp1548
Rp1549
(dp1550
g12
VNN
p1551
sbatp1552
Rp1553
(dp1554
g12
VNP
p1555
sbatp1556
Rp1557
(dp1558
g12
VNP
p1559
sbatp1560
Rp1561
(dp1562
g12
VPP
p1563
sbag0
(g1
g2
(lp1564
V,
p1565
atp1566
Rp1567
(dp1568
g12
V,
p1569
sbag0
(g1
g2
(lp1570
g0
(g1
g2
(lp1571
Vso
p1572
atp1573
Rp1574
(dp1575
g12
VIN
p1576
sbag0
(g1
g2
(lp1577
g0
(g1
g2
(lp1578
g0
(g1
g2
(lp1579
Vthat
p1580
atp1581
Rp1582
(dp1583
g12
VDT
p1584
sbatp1585
Rp1586
(dp1587
g12
VNP
p1588
sbag0
(g1
g2
(lp1589
g0
(g1
g2
(lp1590
V's
p1591
atp1592
Rp1593
(dp1594
g12
VVBZ
p1595
sbag0
(g1
g2
(lp1596
g0
(g1
g2
(lp1597
Vvery
p1598
atp1599
Rp1600
(dp1601
g12
VRB
p1602
sbag0
(g1
g2
(lp1603
Vinteresting
p1604
atp1605
Rp1606
(dp1607
g12
VJJ
p1608
sbatp1609
Rp1610
(dp1611
g12
VADJP
p1612
sbatp1613
Rp1614
(dp1615
g12
VVP
p1616
sbatp1617
Rp1618
(dp1619
g12
VS
p1620
sbatp1621
Rp1622
(dp1623
g12
VSBAR
p1624
sbatp1625
Rp1626
(dp1627
g12
VVP
p1628
sbatp1629
Rp1630
(dp1631
g12
VVP
p1632
sbatp1633
Rp1634
(dp1635
g12
VS
p1636
sbatp1637
Rp1638
(dp1639
g12
VSBAR
p1640
sbatp1641
Rp1642
(dp1643
g12
VVP
p1644
sbag0
(g1
g2
(lp1645
V.
p1646
atp1647
Rp1648
(dp1649
g12
V.
p1650
sbatp1651
Rp1652
(dp1653
g12
VS
p1654
sbatp1655
Rp1656
(dp1657
g12
S'id: 11'
p1658
sbag0
(g1
g2
(lp1659
g0
(g1
g2
(lp1660
g0
(g1
g2
(lp1661
g0
(g1
g2
(lp1662
Vthat
p1663
atp1664
Rp1665
(dp1666
g12
VDT
p1667
sbatp1668
Rp1669
(dp1670
g12
VNP
p1671
sbag0
(g1
g2
(lp1672
g0
(g1
g2
(lp1673
V's
p1674
atp1675
Rp1676
(dp1677
g12
VVBZ
p1678
sbag0
(g1
g2
(lp1679
g0
(g1
g2
(lp1680
Va
p1681
atp1682
Rp1683
(dp1684
g12
VDT
p1685
sbag0
(g1
g2
(lp1686
Vpretty
p1687
atp1688
Rp1689
(dp1690
g12
VRB
p1691
sbatp1692
Rp1693
(dp1694
g12
VADVP
p1695
sbag0
(g1
g2
(lp1696
g0
(g1
g2
(lp1697
Vhouse
p1698
atp1699
Rp1700
(dp1701
g12
VNN
p1702
sbatp1703
Rp1704
(dp1705
g12
VNP
p1706
sbatp1707
Rp1708
(dp1709
g12
VVP
p1710
sbag0
(g1
g2
(lp1711
V.
p1712
atp1713
Rp1714
(dp1715
g12
V.
p1716
sbatp1717
Rp1718
(dp1719
g12
VS
p1720
sbatp1721
Rp1722
(dp1723
g12
S'id: 12'
p1724
sbag0
(g1
g2
(lp1725
g0
(g1
g2
(lp1726
g0
(g1
g2
(lp1727
g0
(g1
g2
(lp1728
Vthat
p1729
atp1730
Rp1731
(dp1732
g12
VDT
p1733
sbatp1734
Rp1735
(dp1736
g12
VNP
p1737
sbag0
(g1
g2
(lp1738
g0
(g1
g2
(lp1739
V's
p1740
atp1741
Rp1742
(dp1743
g12
VVBZ
p1744
sbag0
(g1
g2
(lp1745
g0
(g1
g2
(lp1746
g0
(g1
g2
(lp1747
Va
p1748
atp1749
Rp1750
(dp1751
g12
VDT
p1752
sbag0
(g1
g2
(lp1753
Vbig
p1754
atp1755
Rp1756
(dp1757
g12
VJJ
p1758
sbag0
(g1
g2
(lp1759
Vtree
p1760
atp1761
Rp1762
(dp1763
g12
VNN
p1764
sbatp1765
Rp1766
(dp1767
g12
VNP
p1768
sbag0
(g1
g2
(lp1769
V,
p1770
atp1771
Rp1772
(dp1773
g12
V,
p1774
sbag0
(g1
g2
(lp1775
g0
(g1
g2
(lp1776
g0
(g1
g2
(lp1777
Vthat
p1778
atp1779
Rp1780
(dp1781
g12
VWDT
p1782
sbatp1783
Rp1784
(dp1785
g12
VWHNP
p1786
sbag0
(g1
g2
(lp1787
g0
(g1
g2
(lp1788
g0
(g1
g2
(lp1789
Vtree
p1790
atp1791
Rp1792
(dp1793
g12
VNN
p1794
sbatp1795
Rp1796
(dp1797
g12
VNP
p1798
sbag0
(g1
g2
(lp1799
g0
(g1
g2
(lp1800
Vis
p1801
atp1802
Rp1803
(dp1804
g12
VVBZ
p1805
sbag0
(g1
g2
(lp1806
g0
(g1
g2
(lp1807
Vprobably
p1808
atp1809
Rp1810
(dp1811
g12
VRB
p1812
sbatp1813
Rp1814
(dp1815
g12
VADVP
p1816
sbag0
(g1
g2
(lp1817
g0
(g1
g2
(lp1818
Vpretty
p1819
atp1820
Rp1821
(dp1822
g12
VRB
p1823
sbag0
(g1
g2
(lp1824
Vold
p1825
atp1826
Rp1827
(dp1828
g12
VJJ
p1829
sbatp1830
Rp1831
(dp1832
g12
VADJP
p1833
sbag0
(g1
g2
(lp1834
V,
p1835
atp1836
Rp1837
(dp1838
g12
V,
p1839
sbag0
(g1
g2
(lp1840
g0
(g1
g2
(lp1841
g0
(g1
g2
(lp1842
Vto
p1843
atp1844
Rp1845
(dp1846
g12
VTO
p1847
sbag0
(g1
g2
(lp1848
g0
(g1
g2
(lp1849
Vbe
p1850
atp1851
Rp1852
(dp1853
g12
VVB
p1854
sbag0
(g1
g2
(lp1855
g0
(g1
g2
(lp1856
Vthat
p1857
atp1858
Rp1859
(dp1860
g12
VIN
p1861
sbag0
(g1
g2
(lp1862
Vbig
p1863
atp1864
Rp1865
(dp1866
g12
VJJ
p1867
sbatp1868
Rp1869
(dp1870
g12
VADJP
p1871
sbatp1872
Rp1873
(dp1874
g12
VVP
p1875
sbatp1876
Rp1877
(dp1878
g12
VVP
p1879
sbatp1880
Rp1881
(dp1882
g12
VS
p1883
sbatp1884
Rp1885
(dp1886
g12
VVP
p1887
sbatp1888
Rp1889
(dp1890
g12
VS
p1891
sbatp1892
Rp1893
(dp1894
g12
VSBAR
p1895
sbatp1896
Rp1897
(dp1898
g12
VNP
p1899
sbatp1900
Rp1901
(dp1902
g12
VVP
p1903
sbag0
(g1
g2
(lp1904
V.
p1905
atp1906
Rp1907
(dp1908
g12
V.
p1909
sbatp1910
Rp1911
(dp1912
g12
VS
p1913
sbatp1914
Rp1915
(dp1916
g12
S'id: 13'
p1917
sbag0
(g1
g2
(lp1918
g0
(g1
g2
(lp1919
g0
(g1
g2
(lp1920
g0
(g1
g2
(lp1921
g0
(g1
g2
(lp1922
Vlooks
p1923
atp1924
Rp1925
(dp1926
g12
VNNS
p1927
sbatp1928
Rp1929
(dp1930
g12
VNP
p1931
sbag0
(g1
g2
(lp1932
g0
(g1
g2
(lp1933
Vlike
p1934
atp1935
Rp1936
(dp1937
g12
VIN
p1938
sbag0
(g1
g2
(lp1939
g0
(g1
g2
(lp1940
Vthey
p1941
atp1942
Rp1943
(dp1944
g12
VPRP
p1945
sbatp1946
Rp1947
(dp1948
g12
VNP
p1949
sbatp1950
Rp1951
(dp1952
g12
VPP
p1953
sbatp1954
Rp1955
(dp1956
g12
VNP
p1957
sbag0
(g1
g2
(lp1958
g0
(g1
g2
(lp1959
V've
p1960
atp1961
Rp1962
(dp1963
g12
VVBP
p1964
sbag0
(g1
g2
(lp1965
g0
(g1
g2
(lp1966
Vgot
p1967
atp1968
Rp1969
(dp1970
g12
VVBD
p1971
sbag0
(g1
g2
(lp1972
g0
(g1
g2
(lp1973
g0
(g1
g2
(lp1974
g0
(g1
g2
(lp1975
Va
p1976
atp1977
Rp1978
(dp1979
g12
VDT
p1980
sbag0
(g1
g2
(lp1981
Vlittle
p1982
atp1983
Rp1984
(dp1985
g12
VJJ
p1986
sbag0
(g1
g2
(lp1987
V,
p1988
atp1989
Rp1990
(dp1991
g12
V,
p1992
sbag0
(g1
g2
(lp1993
Vchristmas
p1994
atp1995
Rp1996
(dp1997
g12
VJJ
p1998
sbag0
(g1
g2
(lp1999
Vtrees
p2000
atp2001
Rp2002
(dp2003
g12
VNNS
p2004
sbatp2005
Rp2006
(dp2007
g12
VNP
p2008
sbag0
(g1
g2
(lp2009
V,
p2010
atp2011
Rp2012
(dp2013
g12
V,
p2014
sbag0
(g1
g2
(lp2015
g0
(g1
g2
(lp2016
g0
(g1
g2
(lp2017
Vbeside
p2018
atp2019
Rp2020
(dp2021
g12
VIN
p2022
sbag0
(g1
g2
(lp2023
g0
(g1
g2
(lp2024
Vthe
p2025
atp2026
Rp2027
(dp2028
g12
VDT
p2029
sbag0
(g1
g2
(lp2030
Vfront
p2031
atp2032
Rp2033
(dp2034
g12
VJJ
p2035
sbag0
(g1
g2
(lp2036
Vdoor
p2037
atp2038
Rp2039
(dp2040
g12
VNN
p2041
sbatp2042
Rp2043
(dp2044
g12
VNP
p2045
sbatp2046
Rp2047
(dp2048
g12
VPP
p2049
sbatp2050
Rp2051
(dp2052
g12
VPRN
p2053
sbag0
(g1
g2
(lp2054
V,
p2055
atp2056
Rp2057
(dp2058
g12
V,
p2059
sbag0
(g1
g2
(lp2060
g0
(g1
g2
(lp2061
Vi
p2062
atp2063
Rp2064
(dp2065
g12
VFW
p2066
sbatp2067
Rp2068
(dp2069
g12
VNP
p2070
sbatp2071
Rp2072
(dp2073
g12
VNP
p2074
sbag0
(g1
g2
(lp2075
g0
(g1
g2
(lp2076
g0
(g1
g2
(lp2077
Vbet
p2078
atp2079
Rp2080
(dp2081
g12
VVB
p2082
sbag0
(g1
g2
(lp2083
g0
(g1
g2
(lp2084
g0
(g1
g2
(lp2085
g0
(g1
g2
(lp2086
Vthey
p2087
atp2088
Rp2089
(dp2090
g12
VPRP
p2091
sbatp2092
Rp2093
(dp2094
g12
VNP
p2095
sbag0
(g1
g2
(lp2096
g0
(g1
g2
(lp2097
Vput
p2098
atp2099
Rp2100
(dp2101
g12
VVBP
p2102
sbag0
(g1
g2
(lp2103
g0
(g1
g2
(lp2104
g0
(g1
g2
(lp2105
Vlights
p2106
atp2107
Rp2108
(dp2109
g12
VNNS
p2110
sbatp2111
Rp2112
(dp2113
g12
VNP
p2114
sbag0
(g1
g2
(lp2115
g0
(g1
g2
(lp2116
Von
p2117
atp2118
Rp2119
(dp2120
g12
VIN
p2121
sbag0
(g1
g2
(lp2122
g0
(g1
g2
(lp2123
Vit
p2124
atp2125
Rp2126
(dp2127
g12
VPRP
p2128
sbatp2129
Rp2130
(dp2131
g12
VNP
p2132
sbatp2133
Rp2134
(dp2135
g12
VPP
p2136
sbatp2137
Rp2138
(dp2139
g12
VNP
p2140
sbag0
(g1
g2
(lp2141
g0
(g1
g2
(lp2142
Vat
p2143
atp2144
Rp2145
(dp2146
g12
VIN
p2147
sbag0
(g1
g2
(lp2148
g0
(g1
g2
(lp2149
Vchristmas
p2150
atp2151
Rp2152
(dp2153
g12
VNNS
p2154
sbatp2155
Rp2156
(dp2157
g12
VNP
p2158
sbatp2159
Rp2160
(dp2161
g12
VPP
p2162
sbatp2163
Rp2164
(dp2165
g12
VVP
p2166
sbatp2167
Rp2168
(dp2169
g12
VS
p2170
sbatp2171
Rp2172
(dp2173
g12
VSBAR
p2174
sbatp2175
Rp2176
(dp2177
g12
VVP
p2178
sbag0
(g1
g2
(lp2179
Vand
p2180
atp2181
Rp2182
(dp2183
g12
VCC
p2184
sbag0
(g1
g2
(lp2185
g0
(g1
g2
(lp2186
Vdecorate
p2187
atp2188
Rp2189
(dp2190
g12
VVB
p2191
sbag0
(g1
g2
(lp2192
g0
(g1
g2
(lp2193
Vit
p2194
atp2195
Rp2196
(dp2197
g12
VPRP
p2198
sbatp2199
Rp2200
(dp2201
g12
VNP
p2202
sbatp2203
Rp2204
(dp2205
g12
VVP
p2206
sbatp2207
Rp2208
(dp2209
g12
VVP
p2210
sbatp2211
Rp2212
(dp2213
g12
VS
p2214
sbatp2215
Rp2216
(dp2217
g12
VVP
p2218
sbatp2219
Rp2220
(dp2221
g12
VVP
p2222
sbag0
(g1
g2
(lp2223
V.
p2224
atp2225
Rp2226
(dp2227
g12
V.
p2228
sbatp2229
Rp2230
(dp2231
g12
VS
p2232
sbatp2233
Rp2234
(dp2235
g12
S'id: 14'
p2236
sbag0
(g1
g2
(lp2237
g0
(g1
g2
(lp2238
g0
(g1
g2
(lp2239
Vand
p2240
atp2241
Rp2242
(dp2243
g12
VCC
p2244
sbag0
(g1
g2
(lp2245
g0
(g1
g2
(lp2246
Vi
p2247
atp2248
Rp2249
(dp2250
g12
VFW
p2251
sbatp2252
Rp2253
(dp2254
g12
VNP
p2255
sbag0
(g1
g2
(lp2256
g0
(g1
g2
(lp2257
Vjust
p2258
atp2259
Rp2260
(dp2261
g12
VRB
p2262
sbatp2263
Rp2264
(dp2265
g12
VADVP
p2266
sbag0
(g1
g2
(lp2267
g0
(g1
g2
(lp2268
Vwonder
p2269
atp2270
Rp2271
(dp2272
g12
VVB
p2273
sbag0
(g1
g2
(lp2274
g0
(g1
g2
(lp2275
Vabout
p2276
atp2277
Rp2278
(dp2279
g12
VIN
p2280
sbag0
(g1
g2
(lp2281
g0
(g1
g2
(lp2282
g0
(g1
g2
(lp2283
Vthat
p2284
atp2285
Rp2286
(dp2287
g12
VDT
p2288
sbag0
(g1
g2
(lp2289
Vcar
p2290
atp2291
Rp2292
(dp2293
g12
VNN
p2294
sbag0
(g1
g2
(lp2295
Vsittin
p2296
atp2297
Rp2298
(dp2299
g12
VNN
p2300
sbatp2301
Rp2302
(dp2303
g12
VNP
p2304
sbag0
(g1
g2
(lp2305
V'
p2306
atp2307
Rp2308
(dp2309
g12
V''
p2310
sbag0
(g1
g2
(lp2311
g0
(g1
g2
(lp2312
Vin
p2313
atp2314
Rp2315
(dp2316
g12
VIN
p2317
sbag0
(g1
g2
(lp2318
g0
(g1
g2
(lp2319
Vthe
p2320
atp2321
Rp2322
(dp2323
g12
VDT
p2324
sbag0
(g1
g2
(lp2325
Vfront
p2326
atp2327
Rp2328
(dp2329
g12
VNN
p2330
sbag0
(g1
g2
(lp2331
V,
p2332
atp2333
Rp2334
(dp2335
g12
V,
p2336
sbag0
(g1
g2
(lp2337
Vdriveway
p2338
atp2339
Rp2340
(dp2341
g12
VNN
p2342
sbag0
(g1
g2
(lp2343
V,
p2344
atp2345
Rp2346
(dp2347
g12
V,
p2348
sbag0
(g1
g2
(lp2349
Vi
p2350
atp2351
Rp2352
(dp2353
g12
VFW
p2354
sbatp2355
Rp2356
(dp2357
g12
VNP
p2358
sbatp2359
Rp2360
(dp2361
g12
VPP
p2362
sbatp2363
Rp2364
(dp2365
g12
VNP
p2366
sbatp2367
Rp2368
(dp2369
g12
VPP
p2370
sbag0
(g1
g2
(lp2371
g0
(g1
g2
(lp2372
g0
(g1
g2
(lp2373
Vbet
p2374
atp2375
Rp2376
(dp2377
g12
VVB
p2378
sbag0
(g1
g2
(lp2379
g0
(g1
g2
(lp2380
g0
(g1
g2
(lp2381
g0
(g1
g2
(lp2382
Vit
p2383
atp2384
Rp2385
(dp2386
g12
VPRP
p2387
sbatp2388
Rp2389
(dp2390
g12
VNP
p2391
sbag0
(g1
g2
(lp2392
g0
(g1
g2
(lp2393
Vca
p2394
atp2395
Rp2396
(dp2397
g12
VMD
p2398
sbag0
(g1
g2
(lp2399
Vn't
p2400
atp2401
Rp2402
(dp2403
g12
VRB
p2404
sbag0
(g1
g2
(lp2405
g0
(g1
g2
(lp2406
Vgo
p2407
atp2408
Rp2409
(dp2410
g12
VVB
p2411
sbag0
(g1
g2
(lp2412
g0
(g1
g2
(lp2413
Vin
p2414
atp2415
Rp2416
(dp2417
g12
VIN
p2418
sbag0
(g1
g2
(lp2419
g0
(g1
g2
(lp2420
Vthe
p2421
atp2422
Rp2423
(dp2424
g12
VDT
p2425
sbag0
(g1
g2
(lp2426
Vgarage
p2427
atp2428
Rp2429
(dp2430
g12
VNN
p2431
sbatp2432
Rp2433
(dp2434
g12
VNP
p2435
sbatp2436
Rp2437
(dp2438
g12
VPP
p2439
sbag0
(g1
g2
(lp2440
g0
(g1
g2
(lp2441
Vbecause
p2442
atp2443
Rp2444
(dp2445
g12
VIN
p2446
sbag0
(g1
g2
(lp2447
g0
(g1
g2
(lp2448
g0
(g1
g2
(lp2449
Vthe
p2450
atp2451
Rp2452
(dp2453
g12
VDT
p2454
sbag0
(g1
g2
(lp2455
Vgarage
p2456
atp2457
Rp2458
(dp2459
g12
VNN
p2460
sbatp2461
Rp2462
(dp2463
g12
VNP
p2464
sbag0
(g1
g2
(lp2465
g0
(g1
g2
(lp2466
Vis
p2467
atp2468
Rp2469
(dp2470
g12
VVBZ
p2471
sbag0
(g1
g2
(lp2472
g0
(g1
g2
(lp2473
Vfull
p2474
atp2475
Rp2476
(dp2477
g12
VJJ
p2478
sbag0
(g1
g2
(lp2479
g0
(g1
g2
(lp2480
Vof
p2481
atp2482
Rp2483
(dp2484
g12
VIN
p2485
sbag0
(g1
g2
(lp2486
g0
(g1
g2
(lp2487
Vstuff
p2488
atp2489
Rp2490
(dp2491
g12
VNN
p2492
sbatp2493
Rp2494
(dp2495
g12
VNP
p2496
sbatp2497
Rp2498
(dp2499
g12
VPP
p2500
sbatp2501
Rp2502
(dp2503
g12
VADJP
p2504
sbatp2505
Rp2506
(dp2507
g12
VVP
p2508
sbatp2509
Rp2510
(dp2511
g12
VS
p2512
sbatp2513
Rp2514
(dp2515
g12
VSBAR
p2516
sbatp2517
Rp2518
(dp2519
g12
VVP
p2520
sbatp2521
Rp2522
(dp2523
g12
VVP
p2524
sbatp2525
Rp2526
(dp2527
g12
VS
p2528
sbatp2529
Rp2530
(dp2531
g12
VSBAR
p2532
sbatp2533
Rp2534
(dp2535
g12
VVP
p2536
sbatp2537
Rp2538
(dp2539
g12
VS
p2540
sbatp2541
Rp2542
(dp2543
g12
VVP
p2544
sbag0
(g1
g2
(lp2545
V.
p2546
atp2547
Rp2548
(dp2549
g12
V.
p2550
sbatp2551
Rp2552
(dp2553
g12
VS
p2554
sbatp2555
Rp2556
(dp2557
g12
S'id: 15'
p2558
sbatp2559
Rp2560
(dp2561
g12
S'sentences'
p2562
sb.