ccopy_reg
_reconstructor
p0
(cnltk.tree
Tree
p1
c__builtin__
list
p2
(lp3
g0
(g1
g2
(lp4
g0
(g1
g2
(lp5
g0
(g1
g2
(lp6
Vthe little boy 's on a stool going in the cabinet jar to get cookies
p7
atp8
Rp9
(dp10
S'_label'
p11
S'start: 14'
p12
sbatp13
Rp14
(dp15
g11
S'sent: 2'
p16
sbag0
(g1
g2
(lp17
g0
(g1
g2
(lp18
Vhe
p19
atp20
Rp21
(dp22
g11
S'start: 30'
p23
sbatp24
Rp25
(dp26
g11
S'sent: 2'
p27
sbag0
(g1
g2
(lp28
g0
(g1
g2
(lp29
Vthat little boy
p30
atp31
Rp32
(dp33
g11
S'start: 3'
p34
sbatp35
Rp36
(dp37
g11
S'sent: 8'
p38
sbag0
(g1
g2
(lp39
g0
(g1
g2
(lp40
Vhis
p41
atp42
Rp43
(dp44
g11
S'start: 1'
p45
sbatp46
Rp47
(dp48
g11
S'sent: 9'
p49
sbatp50
Rp51
(dp52
g11
S'id: 5'
p53
sbag0
(g1
g2
(lp54
g0
(g1
g2
(lp55
g0
(g1
g2
(lp56
Vthe little girl
p57
atp58
Rp59
(dp60
g11
S'start: 2'
p61
sbatp62
Rp63
(dp64
g11
S'sent: 3'
p65
sbag0
(g1
g2
(lp66
g0
(g1
g2
(lp67
Vshe
p68
atp69
Rp70
(dp71
g11
S'start: 16'
p72
sbatp73
Rp74
(dp75
g11
S'sent: 3'
p76
sbatp77
Rp78
(dp79
g11
S'id: 10'
p80
sbag0
(g1
g2
(lp81
g0
(g1
g2
(lp82
g0
(g1
g2
(lp83
Vthe cookie
p84
atp85
Rp86
(dp87
g11
S'start: 8'
p88
sbatp89
Rp90
(dp91
g11
S'sent: 3'
p92
sbag0
(g1
g2
(lp93
g0
(g1
g2
(lp94
Vit
p95
atp96
Rp97
(dp98
g11
S'start: 21'
p99
sbatp100
Rp101
(dp102
g11
S'sent: 3'
p103
sbatp104
Rp105
(dp106
g11
S'id: 11'
p107
sbag0
(g1
g2
(lp108
g0
(g1
g2
(lp109
g0
(g1
g2
(lp110
Vi
p111
atp112
Rp113
(dp114
g11
S'start: 11'
p115
sbatp116
Rp117
(dp118
g11
S'sent: 3'
p119
sbag0
(g1
g2
(lp120
g0
(g1
g2
(lp121
Vmy
p122
atp123
Rp124
(dp125
g11
S'start: 2'
p126
sbatp127
Rp128
(dp129
g11
S'sent: 6'
p130
sbag0
(g1
g2
(lp131
g0
(g1
g2
(lp132
Vi
p133
atp134
Rp135
(dp136
g11
S'start: 12'
p137
sbatp138
Rp139
(dp140
g11
S'sent: 9'
p141
sbag0
(g1
g2
(lp142
g0
(g1
g2
(lp143
Vmy
p144
atp145
Rp146
(dp147
g11
S'start: 2'
p148
sbatp149
Rp150
(dp151
g11
S'sent: 16'
p152
sbatp153
Rp154
(dp155
g11
S'id: 12'
p156
sbag0
(g1
g2
(lp157
g0
(g1
g2
(lp158
g0
(g1
g2
(lp159
Vmother gon na do
p160
atp161
Rp162
(dp163
g11
S'start: 4'
p164
sbatp165
Rp166
(dp167
g11
S'sent: 4'
p168
sbag0
(g1
g2
(lp169
g0
(g1
g2
(lp170
Vshe
p171
atp172
Rp173
(dp174
g11
S'start: 9'
p175
sbatp176
Rp177
(dp178
g11
S'sent: 4'
p179
sbag0
(g1
g2
(lp180
g0
(g1
g2
(lp181
Vshe
p182
atp183
Rp184
(dp185
g11
S'start: 3'
p186
sbatp187
Rp188
(dp189
g11
S'sent: 5'
p190
sbag0
(g1
g2
(lp191
g0
(g1
g2
(lp192
Vshe
p193
atp194
Rp195
(dp196
g11
S'start: 1'
p197
sbatp198
Rp199
(dp200
g11
S'sent: 7'
p201
sbag0
(g1
g2
(lp202
g0
(g1
g2
(lp203
Vmother 's
p204
atp205
Rp206
(dp207
g11
S'start: 3'
p208
sbatp209
Rp210
(dp211
g11
S'sent: 16'
p212
sbatp213
Rp214
(dp215
g11
S'id: 15'
p216
sbag0
(g1
g2
(lp217
g0
(g1
g2
(lp218
g0
(g1
g2
(lp219
Vlooks like she
p220
atp221
Rp222
(dp223
g11
S'start: 1'
p224
sbatp225
Rp226
(dp227
g11
S'sent: 5'
p228
sbag0
(g1
g2
(lp229
g0
(g1
g2
(lp230
Vlooks like they
p231
atp232
Rp233
(dp234
g11
S'start: 1'
p235
sbatp236
Rp237
(dp238
g11
S'sent: 13'
p239
sbatp240
Rp241
(dp242
g11
S'id: 18'
p243
sbag0
(g1
g2
(lp244
g0
(g1
g2
(lp245
g0
(g1
g2
(lp246
Vthat dish
p247
atp248
Rp249
(dp250
g11
S'start: 5'
p251
sbatp252
Rp253
(dp254
g11
S'sent: 7'
p255
sbag0
(g1
g2
(lp256
g0
(g1
g2
(lp257
Vit
p258
atp259
Rp260
(dp261
g11
S'start: 7'
p262
sbatp263
Rp264
(dp265
g11
S'sent: 8'
p266
sbatp267
Rp268
(dp269
g11
S'id: 23'
p270
sbag0
(g1
g2
(lp271
g0
(g1
g2
(lp272
g0
(g1
g2
(lp273
Vthe floor
p274
atp275
Rp276
(dp277
g11
S'start: 9'
p278
sbatp279
Rp280
(dp281
g11
S'sent: 9'
p282
sbag0
(g1
g2
(lp283
g0
(g1
g2
(lp284
Vit
p285
atp286
Rp287
(dp288
g11
S'start: 14'
p289
sbatp290
Rp291
(dp292
g11
S'sent: 9'
p293
sbatp294
Rp295
(dp296
g11
S'id: 29'
p297
sbag0
(g1
g2
(lp298
g0
(g1
g2
(lp299
g0
(g1
g2
(lp300
Vthey
p301
atp302
Rp303
(dp304
g11
S'start: 2'
p305
sbatp306
Rp307
(dp308
g11
S'sent: 10'
p309
sbag0
(g1
g2
(lp310
g0
(g1
g2
(lp311
Vthey
p312
atp313
Rp314
(dp315
g11
S'start: 3'
p316
sbatp317
Rp318
(dp319
g11
S'sent: 13'
p320
sbag0
(g1
g2
(lp321
g0
(g1
g2
(lp322
Vthey
p323
atp324
Rp325
(dp326
g11
S'start: 6'
p327
sbatp328
Rp329
(dp330
g11
S'sent: 14'
p331
sbatp332
Rp333
(dp334
g11
S'id: 32'
p335
sbag0
(g1
g2
(lp336
g0
(g1
g2
(lp337
g0
(g1
g2
(lp338
Vanother cabinet
p339
atp340
Rp341
(dp342
g11
S'start: 6'
p343
sbatp344
Rp345
(dp346
g11
S'sent: 10'
p347
sbag0
(g1
g2
(lp348
g0
(g1
g2
(lp349
Vcabinet 's
p350
atp351
Rp352
(dp353
g11
S'start: 10'
p354
sbatp355
Rp356
(dp357
g11
S'sent: 10'
p358
sbag0
(g1
g2
(lp359
g0
(g1
g2
(lp360
Vthat
p361
atp362
Rp363
(dp364
g11
S'start: 17'
p365
sbatp366
Rp367
(dp368
g11
S'sent: 10'
p369
sbatp370
Rp371
(dp372
g11
S'id: 33'
p373
sbag0
(g1
g2
(lp374
g0
(g1
g2
(lp375
g0
(g1
g2
(lp376
Vthe plates
p377
atp378
Rp379
(dp380
g11
S'start: 22'
p381
sbatp382
Rp383
(dp384
g11
S'sent: 10'
p385
sbag0
(g1
g2
(lp386
g0
(g1
g2
(lp387
Vthat
p388
atp389
Rp390
(dp391
g11
S'start: 2'
p392
sbatp393
Rp394
(dp395
g11
S'sent: 11'
p396
sbag0
(g1
g2
(lp397
g0
(g1
g2
(lp398
Vthe cookie cab , and the snack cabinet
p399
atp400
Rp401
(dp402
g11
S'start: 5'
p403
sbatp404
Rp405
(dp406
g11
S'sent: 11'
p407
sbatp408
Rp409
(dp410
g11
S'id: 37'
p411
sbag0
(g1
g2
(lp412
g0
(g1
g2
(lp413
g0
(g1
g2
(lp414
Vthe window
p415
atp416
Rp417
(dp418
g11
S'start: 2'
p419
sbatp420
Rp421
(dp422
g11
S'sent: 15'
p423
sbag0
(g1
g2
(lp424
g0
(g1
g2
(lp425
Vit
p426
atp427
Rp428
(dp429
g11
S'start: 6'
p430
sbatp431
Rp432
(dp433
g11
S'sent: 15'
p434
sbatp435
Rp436
(dp437
g11
S'id: 48'
p438
sbag0
(g1
g2
(lp439
g0
(g1
g2
(lp440
g0
(g1
g2
(lp441
Voh
p442
atp443
Rp444
(dp445
g11
S'start: 1'
p446
sbatp447
Rp448
(dp449
g11
S'sent: 16'
p450
sbag0
(g1
g2
(lp451
g0
(g1
g2
(lp452
Vthat
p453
atp454
Rp455
(dp456
g11
S'start: 1'
p457
sbatp458
Rp459
(dp460
g11
S'sent: 17'
p461
sbag0
(g1
g2
(lp462
g0
(g1
g2
(lp463
Vthey
p464
atp465
Rp466
(dp467
g11
S'start: 1'
p468
sbatp469
Rp470
(dp471
g11
S'sent: 18'
p472
sbatp473
Rp474
(dp475
g11
S'id: 50'
p476
sbag0
(g1
g2
(lp477
g0
(g1
g2
(lp478
g0
(g1
g2
(lp479
Vthat kitchen
p480
atp481
Rp482
(dp483
g11
S'start: 10'
p484
sbatp485
Rp486
(dp487
g11
S'sent: 18'
p488
sbag0
(g1
g2
(lp489
g0
(g1
g2
(lp490
Vit
p491
atp492
Rp493
(dp494
g11
S'start: 1'
p495
sbatp496
Rp497
(dp498
g11
S'sent: 19'
p499
sbatp500
Rp501
(dp502
g11
S'id: 57'
p503
sbatp504
Rp505
(dp506
g11
S'coreferences'
p507
sb.