ccopy_reg
_reconstructor
p0
(cnltk.tree
Tree
p1
c__builtin__
list
p2
(lp3
g0
(g1
g2
(lp4
g0
(g1
g2
(lp5
g0
(g1
g2
(lp6
Va family on a picnic
p7
atp8
Rp9
(dp10
S'_label'
p11
S'start: 3'
p12
sbatp13
Rp14
(dp15
g11
S'sent: 1'
p16
sbag0
(g1
g2
(lp17
g0
(g1
g2
(lp18
Vthe family
p19
atp20
Rp21
(dp22
g11
S'start: 6'
p23
sbatp24
Rp25
(dp26
g11
S'sent: 2'
p27
sbag0
(g1
g2
(lp28
g0
(g1
g2
(lp29
Vthat
p30
atp31
Rp32
(dp33
g11
S'start: 46'
p34
sbatp35
Rp36
(dp37
g11
S'sent: 2'
p38
sbatp39
Rp40
(dp41
g11
S'id: 2'
p42
sbag0
(g1
g2
(lp43
g0
(g1
g2
(lp44
g0
(g1
g2
(lp45
Va picnic
p46
atp47
Rp48
(dp49
g11
S'start: 6'
p50
sbatp51
Rp52
(dp53
g11
S'sent: 1'
p54
sbag0
(g1
g2
(lp55
g0
(g1
g2
(lp56
Vit
p57
atp58
Rp59
(dp60
g11
S'start: 10'
p61
sbatp62
Rp63
(dp64
g11
S'sent: 1'
p65
sbag0
(g1
g2
(lp66
g0
(g1
g2
(lp67
Vit
p68
atp69
Rp70
(dp71
g11
S'start: 21'
p72
sbatp73
Rp74
(dp75
g11
S'sent: 1'
p76
sbag0
(g1
g2
(lp77
g0
(g1
g2
(lp78
Va cottage
p79
atp80
Rp81
(dp82
g11
S'start: 23'
p83
sbatp84
Rp85
(dp86
g11
S'sent: 1'
p87
sbatp88
Rp89
(dp90
g11
S'id: 3'
p91
sbag0
(g1
g2
(lp92
g0
(g1
g2
(lp93
g0
(g1
g2
(lp94
Vthey
p95
atp96
Rp97
(dp98
g11
S'start: 13'
p99
sbatp100
Rp101
(dp102
g11
S'sent: 1'
p103
sbag0
(g1
g2
(lp104
g0
(g1
g2
(lp105
Vthey
p106
atp107
Rp108
(dp109
g11
S'start: 20'
p110
sbatp111
Rp112
(dp113
g11
S'sent: 1'
p114
sbag0
(g1
g2
(lp115
g0
(g1
g2
(lp116
Vthey
p117
atp118
Rp119
(dp120
g11
S'start: 26'
p121
sbatp122
Rp123
(dp124
g11
S'sent: 1'
p125
sbatp126
Rp127
(dp128
g11
S'id: 5'
p129
sbag0
(g1
g2
(lp130
g0
(g1
g2
(lp131
g0
(g1
g2
(lp132
Va lake
p133
atp134
Rp135
(dp136
g11
S'start: 16'
p137
sbatp138
Rp139
(dp140
g11
S'sent: 1'
p141
sbag0
(g1
g2
(lp142
g0
(g1
g2
(lp143
Va lake
p144
atp145
Rp146
(dp147
g11
S'start: 39'
p148
sbatp149
Rp150
(dp151
g11
S'sent: 1'
p152
sbag0
(g1
g2
(lp153
g0
(g1
g2
(lp154
Vthe lake
p155
atp156
Rp157
(dp158
g11
S'start: 3'
p159
sbatp160
Rp161
(dp162
g11
S'sent: 2'
p163
sbag0
(g1
g2
(lp164
g0
(g1
g2
(lp165
Vthe lake
p166
atp167
Rp168
(dp169
g11
S'start: 7'
p170
sbatp171
Rp172
(dp173
g11
S'sent: 12'
p174
sbatp175
Rp176
(dp177
g11
S'id: 6'
p178
sbag0
(g1
g2
(lp179
g0
(g1
g2
(lp180
g0
(g1
g2
(lp181
VI
p182
atp183
Rp184
(dp185
g11
S'start: 29'
p186
sbatp187
Rp188
(dp189
g11
S'sent: 1'
p190
sbag0
(g1
g2
(lp191
g0
(g1
g2
(lp192
Vi
p193
atp194
Rp195
(dp196
g11
S'start: 41'
p197
sbatp198
Rp199
(dp200
g11
S'sent: 2'
p201
sbag0
(g1
g2
(lp202
g0
(g1
g2
(lp203
Vi
p204
atp205
Rp206
(dp207
g11
S'start: 18'
p208
sbatp209
Rp210
(dp211
g11
S'sent: 10'
p212
sbatp213
Rp214
(dp215
g11
S'id: 11'
p216
sbag0
(g1
g2
(lp217
g0
(g1
g2
(lp218
g0
(g1
g2
(lp219
V's
p220
atp221
Rp222
(dp223
g11
S'start: 14'
p224
sbatp225
Rp226
(dp227
g11
S'sent: 2'
p228
sbag0
(g1
g2
(lp229
g0
(g1
g2
(lp230
Vshe
p231
atp232
Rp233
(dp234
g11
S'start: 7'
p235
sbatp236
Rp237
(dp238
g11
S'sent: 3'
p239
sbag0
(g1
g2
(lp240
g0
(g1
g2
(lp241
Vshe
p242
atp243
Rp244
(dp245
g11
S'start: 24'
p246
sbatp247
Rp248
(dp249
g11
S'sent: 3'
p250
sbatp251
Rp252
(dp253
g11
S'id: 16'
p254
sbag0
(g1
g2
(lp255
g0
(g1
g2
(lp256
g0
(g1
g2
(lp257
Va long rug
p258
atp259
Rp260
(dp261
g11
S'start: 16'
p262
sbatp263
Rp264
(dp265
g11
S'sent: 2'
p266
sbag0
(g1
g2
(lp267
g0
(g1
g2
(lp268
Vit
p269
atp270
Rp271
(dp272
g11
S'start: 34'
p273
sbatp274
Rp275
(dp276
g11
S'sent: 2'
p277
sbatp278
Rp279
(dp280
g11
S'id: 18'
p281
sbag0
(g1
g2
(lp282
g0
(g1
g2
(lp283
g0
(g1
g2
(lp284
Va glass
p285
atp286
Rp287
(dp288
g11
S'start: 30'
p289
sbatp290
Rp291
(dp292
g11
S'sent: 2'
p293
sbag0
(g1
g2
(lp294
g0
(g1
g2
(lp295
Vthe glass
p296
atp297
Rp298
(dp299
g11
S'start: 18'
p300
sbatp301
Rp302
(dp303
g11
S'sent: 3'
p304
sbatp305
Rp306
(dp307
g11
S'id: 20'
p308
sbag0
(g1
g2
(lp309
g0
(g1
g2
(lp310
g0
(g1
g2
(lp311
Va wine bottle
p312
atp313
Rp314
(dp315
g11
S'start: 37'
p316
sbatp317
Rp318
(dp319
g11
S'sent: 2'
p320
sbag0
(g1
g2
(lp321
g0
(g1
g2
(lp322
Vthe bottle
p323
atp324
Rp325
(dp326
g11
S'start: 21'
p327
sbatp328
Rp329
(dp330
g11
S'sent: 3'
p331
sbatp332
Rp333
(dp334
g11
S'id: 22'
p335
sbag0
(g1
g2
(lp336
g0
(g1
g2
(lp337
g0
(g1
g2
(lp338
Vthe dad
p339
atp340
Rp341
(dp342
g11
S'start: 2'
p343
sbatp344
Rp345
(dp346
g11
S'sent: 3'
p347
sbag0
(g1
g2
(lp348
g0
(g1
g2
(lp349
Vhe
p350
atp351
Rp352
(dp353
g11
S'start: 12'
p354
sbatp355
Rp356
(dp357
g11
S'sent: 4'
p358
sbag0
(g1
g2
(lp359
g0
(g1
g2
(lp360
Vhe
p361
atp362
Rp363
(dp364
g11
S'start: 18'
p365
sbatp366
Rp367
(dp368
g11
S'sent: 4'
p369
sbag0
(g1
g2
(lp370
g0
(g1
g2
(lp371
Vhis
p372
atp373
Rp374
(dp375
g11
S'start: 1'
p376
sbatp377
Rp378
(dp379
g11
S'sent: 5'
p380
sbatp381
Rp382
(dp383
g11
S'id: 25'
p384
sbag0
(g1
g2
(lp385
g0
(g1
g2
(lp386
g0
(g1
g2
(lp387
Vthe picnic basket
p388
atp389
Rp390
(dp391
g11
S'start: 10'
p392
sbatp393
Rp394
(dp395
g11
S'sent: 3'
p396
sbag0
(g1
g2
(lp397
g0
(g1
g2
(lp398
Vthe basket
p399
atp400
Rp401
(dp402
g11
S'start: 9'
p403
sbatp404
Rp405
(dp406
g11
S'sent: 4'
p407
sbatp408
Rp409
(dp410
g11
S'id: 27'
p411
sbag0
(g1
g2
(lp412
g0
(g1
g2
(lp413
g0
(g1
g2
(lp414
Vthe other side of the basket
p415
atp416
Rp417
(dp418
g11
S'start: 5'
p419
sbatp420
Rp421
(dp422
g11
S'sent: 4'
p423
sbag0
(g1
g2
(lp424
g0
(g1
g2
(lp425
Vthe side
p426
atp427
Rp428
(dp429
g11
S'start: 6'
p430
sbatp431
Rp432
(dp433
g11
S'sent: 5'
p434
sbatp435
Rp436
(dp437
g11
S'id: 33'
p438
sbag0
(g1
g2
(lp439
g0
(g1
g2
(lp440
g0
(g1
g2
(lp441
Vthey
p442
atp443
Rp444
(dp445
g11
S'start: 11'
p446
sbatp447
Rp448
(dp449
g11
S'sent: 6'
p450
sbag0
(g1
g2
(lp451
g0
(g1
g2
(lp452
Vthem
p453
atp454
Rp455
(dp456
g11
S'start: 2'
p457
sbatp458
Rp459
(dp460
g11
S'sent: 7'
p461
sbatp462
Rp463
(dp464
g11
S'id: 44'
p465
sbag0
(g1
g2
(lp466
g0
(g1
g2
(lp467
g0
(g1
g2
(lp468
Vand close to the water
p469
atp470
Rp471
(dp472
g11
S'start: 5'
p473
sbatp474
Rp475
(dp476
g11
S'sent: 7'
p477
sbag0
(g1
g2
(lp478
g0
(g1
g2
(lp479
Vit
p480
atp481
Rp482
(dp483
g11
S'start: 7'
p484
sbatp485
Rp486
(dp487
g11
S'sent: 8'
p488
sbag0
(g1
g2
(lp489
g0
(g1
g2
(lp490
Vit
p491
atp492
Rp493
(dp494
g11
S'start: 2'
p495
sbatp496
Rp497
(dp498
g11
S'sent: 9'
p499
sbatp500
Rp501
(dp502
g11
S'id: 46'
p503
sbag0
(g1
g2
(lp504
g0
(g1
g2
(lp505
g0
(g1
g2
(lp506
Va young boy who 's got a , a kite
p507
atp508
Rp509
(dp510
g11
S'start: 11'
p511
sbatp512
Rp513
(dp514
g11
S'sent: 7'
p515
sbag0
(g1
g2
(lp516
g0
(g1
g2
(lp517
Vhe
p518
atp519
Rp520
(dp521
g11
S'start: 23'
p522
sbatp523
Rp524
(dp525
g11
S'sent: 7'
p526
sbag0
(g1
g2
(lp527
g0
(g1
g2
(lp528
Vhis
p529
atp530
Rp531
(dp532
g11
S'start: 34'
p533
sbatp534
Rp535
(dp536
g11
S'sent: 7'
p537
sbag0
(g1
g2
(lp538
g0
(g1
g2
(lp539
Vhim
p540
atp541
Rp542
(dp543
g11
S'start: 3'
p544
sbatp545
Rp546
(dp547
g11
S'sent: 8'
p548
sbatp549
Rp550
(dp551
g11
S'id: 48'
p552
sbag0
(g1
g2
(lp553
g0
(g1
g2
(lp554
g0
(g1
g2
(lp555
Vhis dog
p556
atp557
Rp558
(dp559
g11
S'start: 34'
p560
sbatp561
Rp562
(dp563
g11
S'sent: 7'
p564
sbag0
(g1
g2
(lp565
g0
(g1
g2
(lp566
Vhim
p567
atp568
Rp569
(dp570
g11
S'start: 38'
p571
sbatp572
Rp573
(dp574
g11
S'sent: 7'
p575
sbatp576
Rp577
(dp578
g11
S'id: 54'
p579
sbag0
(g1
g2
(lp580
g0
(g1
g2
(lp581
g0
(g1
g2
(lp582
Va young girl who is making
p583
atp584
Rp585
(dp586
g11
S'start: 7'
p587
sbatp588
Rp589
(dp590
g11
S'sent: 9'
p591
sbag0
(g1
g2
(lp592
g0
(g1
g2
(lp593
Vshe
p594
atp595
Rp596
(dp597
g11
S'start: 14'
p598
sbatp599
Rp600
(dp601
g11
S'sent: 9'
p602
sbag0
(g1
g2
(lp603
g0
(g1
g2
(lp604
Vshe
p605
atp606
Rp607
(dp608
g11
S'start: 23'
p609
sbatp610
Rp611
(dp612
g11
S'sent: 9'
p613
sbag0
(g1
g2
(lp614
g0
(g1
g2
(lp615
Vshe
p616
atp617
Rp618
(dp619
g11
S'start: 2'
p620
sbatp621
Rp622
(dp623
g11
S'sent: 10'
p624
sbag0
(g1
g2
(lp625
g0
(g1
g2
(lp626
Vher
p627
atp628
Rp629
(dp630
g11
S'start: 14'
p631
sbatp632
Rp633
(dp634
g11
S'sent: 10'
p635
sbag0
(g1
g2
(lp636
g0
(g1
g2
(lp637
Vher
p638
atp639
Rp640
(dp641
g11
S'start: 8'
p642
sbatp643
Rp644
(dp645
g11
S'sent: 11'
p646
sbatp647
Rp648
(dp649
g11
S'id: 61'
p650
sbag0
(g1
g2
(lp651
g0
(g1
g2
(lp652
g0
(g1
g2
(lp653
Vthe end of the line
p654
atp655
Rp656
(dp657
g11
S'start: 24'
p658
sbatp659
Rp660
(dp661
g11
S'sent: 11'
p662
sbag0
(g1
g2
(lp663
g0
(g1
g2
(lp664
Vthe end .
p665
atp666
Rp667
(dp668
g11
S'start: 1'
p669
sbatp670
Rp671
(dp672
g11
S'sent: 14'
p673
sbatp674
Rp675
(dp676
g11
S'id: 79'
p677
sbag0
(g1
g2
(lp678
g0
(g1
g2
(lp679
g0
(g1
g2
(lp680
Vthe pond
p681
atp682
Rp683
(dp684
g11
S'start: 4'
p685
sbatp686
Rp687
(dp688
g11
S'sent: 12'
p689
sbag0
(g1
g2
(lp690
g0
(g1
g2
(lp691
Vit
p692
atp693
Rp694
(dp695
g11
S'start: 16'
p696
sbatp697
Rp698
(dp699
g11
S'sent: 12'
p700
sbatp701
Rp702
(dp703
g11
S'id: 83'
p704
sbag0
(g1
g2
(lp705
g0
(g1
g2
(lp706
g0
(g1
g2
(lp707
Vthe background
p708
atp709
Rp710
(dp711
g11
S'start: 6'
p712
sbatp713
Rp714
(dp715
g11
S'sent: 13'
p716
sbag0
(g1
g2
(lp717
g0
(g1
g2
(lp718
Vit
p719
atp720
Rp721
(dp722
g11
S'start: 10'
p723
sbatp724
Rp725
(dp726
g11
S'sent: 13'
p727
sbag0
(g1
g2
(lp728
g0
(g1
g2
(lp729
Va really nice idyllic scene
p730
atp731
Rp732
(dp733
g11
S'start: 13'
p734
sbatp735
Rp736
(dp737
g11
S'sent: 13'
p738
sbatp739
Rp740
(dp741
g11
S'id: 89'
p742
sbatp743
Rp744
(dp745
g11
S'coreferences'
p746
sb.