ccopy_reg
_reconstructor
p0
(cnltk.tree
Tree
p1
c__builtin__
list
p2
(lp3
g0
(g1
g2
(lp4
g0
(g1
g2
(lp5
g0
(g1
g2
(lp6
(lp7
S'word: that, index: 1'
p8
aatp9
Rp10
(dp11
S'_label'
p12
Vnsubj
p13
sbag0
(g1
g2
(lp14
(lp15
S'word: is, index: 2'
p16
aatp17
Rp18
(dp19
g12
Vcop
p20
sbag0
(g1
g2
(lp21
(lp22
S'word: a, index: 3'
p23
aatp24
Rp25
(dp26
g12
Vdet
p27
sbatp28
Rp29
(dp30
g12
S'word: circus, index: 4'
p31
sbatp32
Rp33
(dp34
g12
S'id: 0'
p35
sbag0
(g1
g2
(lp36
g0
(g1
g2
(lp37
g0
(g1
g2
(lp38
g0
(g1
g2
(lp39
g0
(g1
g2
(lp40
(lp41
S'word: a, index: 4'
p42
aatp43
Rp44
(dp45
g12
Vdet
p46
sbag0
(g1
g2
(lp47
g0
(g1
g2
(lp48
g0
(g1
g2
(lp49
g0
(g1
g2
(lp50
g0
(g1
g2
(lp51
(lp52
S'word: his, index: 8'
p53
aatp54
Rp55
(dp56
g12
Vposs
p57
sbatp58
Rp59
(dp60
g12
S'word: tricks, index: 9'
p61
sbatp62
Rp63
(dp64
g12
Vdobj
p65
sbag0
(g1
g2
(lp66
g0
(g1
g2
(lp67
g0
(g1
g2
(lp68
(lp69
S'word: his, index: 11'
p70
aatp71
Rp72
(dp73
g12
Vposs
p74
sbag0
(g1
g2
(lp75
g0
(g1
g2
(lp76
g0
(g1
g2
(lp77
(lp78
S'word: that, index: 13'
p79
aatp80
Rp81
(dp82
g12
Vmark
p83
sbag0
(g1
g2
(lp84
(lp85
S'word: him, index: 15'
p86
aatp87
Rp88
(dp89
g12
Vdobj
p90
sbatp91
Rp92
(dp93
g12
S'word: trained, index: 14'
p94
sbatp95
Rp96
(dp97
g12
Vdep
p98
sbatp99
Rp100
(dp101
g12
S'word: person, index: 12'
p102
sbatp103
Rp104
(dp105
g12
Vprep
p106
sbag0
(g1
g2
(lp107
(lp108
S'word: probably, index: 16'
p109
aatp110
Rp111
(dp112
g12
Vadvmod
p113
sbatp114
Rp115
(dp116
g12
S'word: doing, index: 7'
p117
sbatp118
Rp119
(dp120
g12
Vvmod
p121
sbatp122
Rp123
(dp124
g12
S'word: tiger, index: 5'
p125
sbatp126
Rp127
(dp128
g12
Vnsubj
p129
sbag0
(g1
g2
(lp130
(lp131
S'word: and, index: 1'
p132
aatp133
Rp134
(dp135
g12
Vcc
p136
sbag0
(g1
g2
(lp137
(lp138
S'word: there, index: 2'
p139
aatp140
Rp141
(dp142
g12
Vexpl
p143
sbatp144
Rp145
(dp146
g12
S'word: is, index: 3'
p147
sbatp148
Rp149
(dp150
g12
S'id: 1'
p151
sbag0
(g1
g2
(lp152
g0
(g1
g2
(lp153
g0
(g1
g2
(lp154
(lp155
S"word: 's, index: 2"
p156
aatp157
Rp158
(dp159
g12
Vpossessive
p160
sbag0
(g1
g2
(lp161
g0
(g1
g2
(lp162
g0
(g1
g2
(lp163
(lp164
S'word: a, index: 4'
p165
aatp166
Rp167
(dp168
g12
Vdet
p169
sbatp170
Rp171
(dp172
g12
S'word: tightrope, index: 5'
p173
sbatp174
Rp175
(dp176
g12
Vprep
p177
sbatp178
Rp179
(dp180
g12
S'word: someone, index: 1'
p181
sbatp182
Rp183
(dp184
g12
S'id: 2'
p185
sbag0
(g1
g2
(lp186
tp187
Rp188
(dp189
g12
S'id: 3'
p190
sbag0
(g1
g2
(lp191
g0
(g1
g2
(lp192
g0
(g1
g2
(lp193
g0
(g1
g2
(lp194
g0
(g1
g2
(lp195
(lp196
S'word: some, index: 10'
p197
aatp198
Rp199
(dp200
g12
Vdet
p201
sbag0
(g1
g2
(lp202
(lp203
S'word: small, index: 11'
p204
aatp205
Rp206
(dp207
g12
Vamod
p208
sbatp209
Rp210
(dp211
g12
S'word: children, index: 12'
p212
sbatp213
Rp214
(dp215
g12
Vnsubj
p216
sbag0
(g1
g2
(lp217
(lp218
S'word: and, index: 1'
p219
aatp220
Rp221
(dp222
g12
Vcc
p223
sbag0
(g1
g2
(lp224
(lp225
S'word: there, index: 2'
p226
aatp227
Rp228
(dp229
g12
Vexpl
p230
sbag0
(g1
g2
(lp231
g0
(g1
g2
(lp232
g0
(g1
g2
(lp233
g210
atp234
Rp235
(dp236
g12
Vconj
p237
sbag0
(g1
g2
(lp238
g0
(g1
g2
(lp239
g0
(g1
g2
(lp240
(lp241
S'word: clown, index: 7'
p242
aatp243
Rp244
(dp245
g12
Vpobj
p246
sbatp247
Rp248
(dp249
g12
S'word: like, index: 6'
p250
sbatp251
Rp252
(dp253
g12
Vconj
p254
sbatp255
Rp256
(dp257
g12
S'word: some, index: 4'
p258
sbatp259
Rp260
(dp261
g12
Vnsubj
p262
sbag0
(g1
g2
(lp263
g248
atp264
Rp265
(dp266
g12
Vnsubj
p267
sbatp268
Rp269
(dp270
g12
S"word: 's, index: 3"
p271
sbatp272
Rp273
(dp274
g12
S'id: 4'
p275
sbag0
(g1
g2
(lp276
g0
(g1
g2
(lp277
g0
(g1
g2
(lp278
g0
(g1
g2
(lp279
g0
(g1
g2
(lp280
(lp281
S'word: and, index: 1'
p282
aatp283
Rp284
(dp285
g12
Vcc
p286
sbag0
(g1
g2
(lp287
(lp288
S'word: there, index: 2'
p289
aatp290
Rp291
(dp292
g12
Vexpl
p293
sbatp294
Rp295
(dp296
g12
S'word: is, index: 3'
p297
sbatp298
Rp299
(dp300
g12
Vccomp
p301
sbag0
(g1
g2
(lp302
g0
(g1
g2
(lp303
g0
(g1
g2
(lp304
(lp305
S'word: the, index: 18'
p306
aatp307
Rp308
(dp309
g12
Vdet
p310
sbatp311
Rp312
(dp313
g12
S'word: clown, index: 19'
p314
sbatp315
Rp316
(dp317
g12
Vdobj
p318
sbag0
(g1
g2
(lp319
g0
(g1
g2
(lp320
g0
(g1
g2
(lp321
(lp322
S'word: another, index: 5'
p323
aatp324
Rp325
(dp326
g12
Vdet
p327
sbag0
(g1
g2
(lp328
g0
(g1
g2
(lp329
g0
(g1
g2
(lp330
(lp331
S'word: a, index: 8'
p332
aatp333
Rp334
(dp335
g12
Vdet
p336
sbag0
(g1
g2
(lp337
(lp338
S'word: little, index: 9'
p339
aatp340
Rp341
(dp342
g12
Vamod
p343
sbag0
(g1
g2
(lp344
g0
(g1
g2
(lp345
g0
(g1
g2
(lp346
(lp347
S'word: i, index: 16'
p348
aatp349
Rp350
(dp351
g12
Vprep
p352
sbag0
(g1
g2
(lp353
(lp354
S'word: that, index: 11'
p355
aatp356
Rp357
(dp358
g12
Vnsubj
p359
sbag0
(g1
g2
(lp360
(lp361
S'word: is, index: 12'
p362
aatp363
Rp364
(dp365
g12
Vaux
p366
sbatp367
Rp368
(dp369
g12
S'word: lookin, index: 13'
p370
sbatp371
Rp372
(dp373
g12
Vrcmod
p374
sbatp375
Rp376
(dp377
g12
S'word: girl, index: 10'
p378
sbatp379
Rp380
(dp381
g12
Vprep
p382
sbatp383
Rp384
(dp385
g12
S'word: parent, index: 6'
p386
sbatp387
Rp388
(dp389
g12
Vnsubj
p390
sbatp391
Rp392
(dp393
g12
S'word: guess, index: 17'
p394
sbatp395
Rp396
(dp397
g12
S'id: 5'
p398
sbag0
(g1
g2
(lp399
g0
(g1
g2
(lp400
g0
(g1
g2
(lp401
g0
(g1
g2
(lp402
g0
(g1
g2
(lp403
(lp404
S'word: the, index: 1'
p405
aatp406
Rp407
(dp408
g12
Vdet
p409
sbatp410
Rp411
(dp412
g12
S'word: clown, index: 2'
p413
sbatp414
Rp415
(dp416
g12
Vnsubj
p417
sbag0
(g1
g2
(lp418
(lp419
S'word: is, index: 3'
p420
aatp421
Rp422
(dp423
g12
Vcop
p424
sbag0
(g1
g2
(lp425
(lp426
S'word: throwin, index: 4'
p427
aatp428
Rp429
(dp430
g12
Vnn
p431
sbag0
(g1
g2
(lp432
g0
(g1
g2
(lp433
g0
(g1
g2
(lp434
g0
(g1
g2
(lp435
g0
(g1
g2
(lp436
(lp437
S'word: little, index: 10'
p438
aatp439
Rp440
(dp441
g12
Vamod
p442
sbatp443
Rp444
(dp445
g12
S'word: boy, index: 11'
p446
sbatp447
Rp448
(dp449
g12
Vappos
p450
sbatp451
Rp452
(dp453
g12
S'word: the, index: 8'
p454
sbatp455
Rp456
(dp457
g12
Vprep
p458
sbatp459
Rp460
(dp461
g12
S'word: something, index: 6'
p462
sbatp463
Rp464
(dp465
g12
S'id: 6'
p466
sbag0
(g1
g2
(lp467
g0
(g1
g2
(lp468
g0
(g1
g2
(lp469
g0
(g1
g2
(lp470
g0
(g1
g2
(lp471
(lp472
S'word: what, index: 5'
p473
aatp474
Rp475
(dp476
g12
Vdobj
p477
sbag0
(g1
g2
(lp478
(lp479
S'word: it, index: 6'
p480
aatp481
Rp482
(dp483
g12
Vnsubj
p484
sbag0
(g1
g2
(lp485
(lp486
S'word: would, index: 7'
p487
aatp488
Rp489
(dp490
g12
Vaux
p491
sbatp492
Rp493
(dp494
g12
S'word: be, index: 8'
p495
sbatp496
Rp497
(dp498
g12
Vccomp
p499
sbag0
(g1
g2
(lp500
g0
(g1
g2
(lp501
g0
(g1
g2
(lp502
(lp503
S'word: he, index: 11'
p504
aatp505
Rp506
(dp507
g12
Vnsubj
p508
sbag0
(g1
g2
(lp509
g0
(g1
g2
(lp510
g0
(g1
g2
(lp511
(lp512
S'word: to, index: 13'
p513
aatp514
Rp515
(dp516
g12
Vaux
p517
sbag0
(g1
g2
(lp518
(lp519
S'word: be, index: 14'
p520
aatp521
Rp522
(dp523
g12
Vcop
p524
sbag0
(g1
g2
(lp525
(lp526
S'word: himself, index: 17'
p527
aatp528
Rp529
(dp530
g12
Vnpadvmod
p531
sbag0
(g1
g2
(lp532
(lp533
S'word: it, index: 19'
p534
aatp535
Rp536
(dp537
g12
Vprep
p538
sbatp539
Rp540
(dp541
g12
S'word: shieldin, index: 15'
p542
sbatp543
Rp544
(dp545
g12
Vxcomp
p546
sbatp547
Rp548
(dp549
g12
S'word: seems, index: 12'
p550
sbatp551
Rp552
(dp553
g12
Vconj
p554
sbag0
(g1
g2
(lp555
(lp556
S'word: i, index: 1'
p557
aatp558
Rp559
(dp560
g12
Vnsubj
p561
sbag0
(g1
g2
(lp562
(lp563
S'word: do, index: 2'
p564
aatp565
Rp566
(dp567
g12
Vaux
p568
sbag0
(g1
g2
(lp569
(lp570
S"word: n't, index: 3"
p571
aatp572
Rp573
(dp574
g12
Vneg
p575
sbatp576
Rp577
(dp578
g12
S'word: know, index: 4'
p579
sbatp580
Rp581
(dp582
g12
S'id: 7'
p583
sbag0
(g1
g2
(lp584
g0
(g1
g2
(lp585
g0
(g1
g2
(lp586
(lp587
S'word: that, index: 1'
p588
aatp589
Rp590
(dp591
g12
Vnsubj
p592
sbag0
(g1
g2
(lp593
(lp594
S"word: 's, index: 2"
p595
aatp596
Rp597
(dp598
g12
Vcop
p599
sbag0
(g1
g2
(lp600
g0
(g1
g2
(lp601
g0
(g1
g2
(lp602
(lp603
S'word: i, index: 4'
p604
aatp605
Rp606
(dp607
g12
Vnsubj
p608
sbatp609
Rp610
(dp611
g12
S'word: can, index: 5'
p612
sbatp613
Rp614
(dp615
g12
Vrcmod
p616
sbag0
(g1
g2
(lp617
(lp618
S'word: notice, index: 7'
p619
aatp620
Rp621
(dp622
g12
Vappos
p623
sbatp624
Rp625
(dp626
g12
S'word: all, index: 3'
p627
sbatp628
Rp629
(dp630
g12
S'id: 8'
p631
sbatp632
Rp633
(dp634
g12
S'sentences'
p635
sb.