ccopy_reg
_reconstructor
p0
(cnltk.tree
Tree
p1
c__builtin__
list
p2
(lp3
g0
(g1
g2
(lp4
g0
(g1
g2
(lp5
g0
(g1
g2
(lp6
(lp7
S'word: we, index: 1'
p8
aatp9
Rp10
(dp11
S'_label'
p12
Vnsubj
p13
sbag0
(g1
g2
(lp14
g0
(g1
g2
(lp15
g0
(g1
g2
(lp16
(lp17
S'word: a, index: 3'
p18
aatp19
Rp20
(dp21
g12
Vdet
p22
sbag0
(g1
g2
(lp23
g0
(g1
g2
(lp24
g0
(g1
g2
(lp25
(lp26
S'word: a, index: 6'
p27
aatp28
Rp29
(dp30
g12
Vdet
p31
sbatp32
Rp33
(dp34
g12
S'word: picnic, index: 7'
p35
sbatp36
Rp37
(dp38
g12
Vprep
p39
sbatp40
Rp41
(dp42
g12
S'word: family, index: 4'
p43
sbatp44
Rp45
(dp46
g12
Vdobj
p47
sbag0
(g1
g2
(lp48
g0
(g1
g2
(lp49
g0
(g1
g2
(lp50
g0
(g1
g2
(lp51
g0
(g1
g2
(lp52
g0
(g1
g2
(lp53
g0
(g1
g2
(lp54
(lp55
S'word: they, index: 20'
p56
aatp57
Rp58
(dp59
g12
Vdep
p60
sbatp61
Rp62
(dp63
g12
S'word: maybe, index: 19'
p64
sbatp65
Rp66
(dp67
g12
Vdep
p68
sbag0
(g1
g2
(lp69
(lp70
S'word: it, index: 21'
p71
aatp72
Rp73
(dp74
g12
Vnsubj
p75
sbag0
(g1
g2
(lp76
(lp77
S"word: 's, index: 22"
p78
aatp79
Rp80
(dp81
g12
Vcop
p82
sbag0
(g1
g2
(lp83
(lp84
S'word: a, index: 23'
p85
aatp86
Rp87
(dp88
g12
Vdet
p89
sbag0
(g1
g2
(lp90
g0
(g1
g2
(lp91
g0
(g1
g2
(lp92
g0
(g1
g2
(lp93
g0
(g1
g2
(lp94
(lp95
S'word: I, index: 29'
p96
aatp97
Rp98
(dp99
g12
Vnsubj
p100
sbag0
(g1
g2
(lp101
(lp102
S'word: do, index: 30'
p103
aatp104
Rp105
(dp106
g12
Vaux
p107
sbag0
(g1
g2
(lp108
(lp109
S"word: n't, index: 31"
p110
aatp111
Rp112
(dp113
g12
Vneg
p114
sbatp115
Rp116
(dp117
g12
S'word: know, index: 32'
p118
sbatp119
Rp120
(dp121
g12
Vparataxis
p122
sbag0
(g1
g2
(lp123
g0
(g1
g2
(lp124
g0
(g1
g2
(lp125
(lp126
S'word: the, index: 35'
p127
aatp128
Rp129
(dp130
g12
Vdet
p131
sbag0
(g1
g2
(lp132
(lp133
S'word: little, index: 36'
p134
aatp135
Rp136
(dp137
g12
Vamod
p138
sbatp139
Rp140
(dp141
g12
S'word: driveway, index: 37'
p142
sbatp143
Rp144
(dp145
g12
Vprep
p146
sbag0
(g1
g2
(lp147
g0
(g1
g2
(lp148
g0
(g1
g2
(lp149
(lp150
S'word: a, index: 39'
p151
aatp152
Rp153
(dp154
g12
Vdet
p155
sbatp156
Rp157
(dp158
g12
S'word: lake, index: 40'
p159
sbatp160
Rp161
(dp162
g12
Vprep
p163
sbag0
(g1
g2
(lp164
(lp165
S'word: that, index: 25'
p166
aatp167
Rp168
(dp169
g12
Vmark
p170
sbag0
(g1
g2
(lp171
(lp172
S'word: they, index: 26'
p173
aatp174
Rp175
(dp176
g12
Vnsubj
p177
sbatp178
Rp179
(dp180
g12
S'word: own, index: 27'
p181
sbatp182
Rp183
(dp184
g12
Vccomp
p185
sbatp186
Rp187
(dp188
g12
S'word: cottage, index: 24'
p189
sbatp190
Rp191
(dp192
g12
Vadvcl
p193
sbag0
(g1
g2
(lp194
(lp195
S'word: it, index: 10'
p196
aatp197
Rp198
(dp199
g12
Vnsubj
p200
sbag0
(g1
g2
(lp201
g0
(g1
g2
(lp202
g0
(g1
g2
(lp203
g0
(g1
g2
(lp204
g0
(g1
g2
(lp205
(lp206
S'word: a, index: 16'
p207
aatp208
Rp209
(dp210
g12
Vdet
p211
sbatp212
Rp213
(dp214
g12
S'word: lake, index: 17'
p215
sbatp216
Rp217
(dp218
g12
Vprep
p219
sbag0
(g1
g2
(lp220
g187
atp221
Rp222
(dp223
g12
Vconj
p224
sbag0
(g1
g2
(lp225
(lp226
S'word: like, index: 12'
p227
aatp228
Rp229
(dp230
g12
Vmark
p231
sbag0
(g1
g2
(lp232
(lp233
S'word: they, index: 13'
p234
aatp235
Rp236
(dp237
g12
Vnsubj
p238
sbatp239
Rp240
(dp241
g12
S"word: 're, index: 14"
p242
sbatp243
Rp244
(dp245
g12
Vadvcl
p246
sbatp247
Rp248
(dp249
g12
S'word: looks, index: 11'
p250
sbatp251
Rp252
(dp253
g12
Vconj
p254
sbatp255
Rp256
(dp257
g12
S'word: have, index: 2'
p258
sbatp259
Rp260
(dp261
g12
S'id: 0'
p262
sbag0
(g1
g2
(lp263
g0
(g1
g2
(lp264
g0
(g1
g2
(lp265
g0
(g1
g2
(lp266
g0
(g1
g2
(lp267
(lp268
S'word: the, index: 3'
p269
aatp270
Rp271
(dp272
g12
Vdet
p273
sbatp274
Rp275
(dp276
g12
S'word: lake, index: 4'
p277
sbatp278
Rp279
(dp280
g12
Vprep
p281
sbag0
(g1
g2
(lp282
g0
(g1
g2
(lp283
g0
(g1
g2
(lp284
(lp285
S'word: the, index: 6'
p286
aatp287
Rp288
(dp289
g12
Vdet
p290
sbatp291
Rp292
(dp293
g12
S'word: family, index: 7'
p294
sbatp295
Rp296
(dp297
g12
Vnsubj
p298
sbag0
(g1
g2
(lp299
(lp300
S'word: is, index: 8'
p301
aatp302
Rp303
(dp304
g12
Vaux
p305
sbag0
(g1
g2
(lp306
g0
(g1
g2
(lp307
g0
(g1
g2
(lp308
(lp309
S'word: a, index: 11'
p310
aatp311
Rp312
(dp313
g12
Vdep
p314
sbatp315
Rp316
(dp317
g12
S'word: on, index: 10'
p318
sbatp319
Rp320
(dp321
g12
Vadvmod
p322
sbag0
(g1
g2
(lp323
g0
(g1
g2
(lp324
g0
(g1
g2
(lp325
g0
(g1
g2
(lp326
g0
(g1
g2
(lp327
g0
(g1
g2
(lp328
g0
(g1
g2
(lp329
g0
(g1
g2
(lp330
g0
(g1
g2
(lp331
(lp332
S'word: a, index: 37'
p333
aatp334
Rp335
(dp336
g12
Vdet
p337
sbag0
(g1
g2
(lp338
(lp339
S'word: wine, index: 38'
p340
aatp341
Rp342
(dp343
g12
Vnn
p344
sbatp345
Rp346
(dp347
g12
S'word: bottle, index: 39'
p348
sbatp349
Rp350
(dp351
g12
Vprep
p352
sbag0
(g1
g2
(lp353
(lp354
S'word: now, index: 33'
p355
aatp356
Rp357
(dp358
g12
Vadvmod
p359
sbag0
(g1
g2
(lp360
(lp361
S'word: it, index: 34'
p362
aatp363
Rp364
(dp365
g12
Vnsubj
p366
sbatp367
Rp368
(dp369
g12
S'word: looks, index: 35'
p370
sbatp371
Rp372
(dp373
g12
Vdep
p374
sbag0
(g1
g2
(lp375
g0
(g1
g2
(lp376
g0
(g1
g2
(lp377
g368
atp378
Rp379
(dp380
g12
Vconj
p381
sbag0
(g1
g2
(lp382
g0
(g1
g2
(lp383
g0
(g1
g2
(lp384
(lp385
S'word: a, index: 20'
p386
aatp387
Rp388
(dp389
g12
Vdet
p390
sbag0
(g1
g2
(lp391
(lp392
S'word: big, index: 21'
p393
aatp394
Rp395
(dp396
g12
Vamod
p397
sbag0
(g1
g2
(lp398
(lp399
S'word: beach, index: 22'
p400
aatp401
Rp402
(dp403
g12
Vnn
p404
sbag0
(g1
g2
(lp405
(lp406
S'word: mom, index: 25'
p407
aatp408
Rp409
(dp410
g12
Vconj
p411
sbatp412
Rp413
(dp414
g12
S'word: towel, index: 23'
p415
sbatp416
Rp417
(dp418
g12
Vnsubj
p419
sbag0
(g1
g2
(lp420
(lp421
S'word: is, index: 26'
p422
aatp423
Rp424
(dp425
g12
Vaux
p426
sbag0
(g1
g2
(lp427
(lp428
S'word: something, index: 28'
p429
aatp430
Rp431
(dp432
g12
Vdobj
p433
sbag0
(g1
g2
(lp434
g0
(g1
g2
(lp435
g0
(g1
g2
(lp436
(lp437
S'word: i, index: 41'
p438
aatp439
Rp440
(dp441
g12
Vnsubj
p442
sbag0
(g1
g2
(lp443
(lp444
S'word: do, index: 42'
p445
aatp446
Rp447
(dp448
g12
Vaux
p449
sbag0
(g1
g2
(lp450
(lp451
S"word: n't, index: 43"
p452
aatp453
Rp454
(dp455
g12
Vneg
p456
sbag0
(g1
g2
(lp457
(lp458
S'word: that, index: 46'
p459
aatp460
Rp461
(dp462
g12
Vprep
p463
sbatp464
Rp465
(dp466
g12
S'word: know, index: 44'
p467
sbatp468
Rp469
(dp470
g12
Vconj
p471
sbag0
(g1
g2
(lp472
g0
(g1
g2
(lp473
g0
(g1
g2
(lp474
(lp475
S'word: a, index: 30'
p476
aatp477
Rp478
(dp479
g12
Vdet
p480
sbatp481
Rp482
(dp483
g12
S'word: glass, index: 31'
p484
sbatp485
Rp486
(dp487
g12
Vprep
p488
sbag0
(g1
g2
(lp489
g0
(g1
g2
(lp490
g0
(g1
g2
(lp491
g413
atp492
Rp493
(dp494
g12
Vconj
p495
sbag0
(g1
g2
(lp496
(lp497
S'word: mom, index: 25'
p498
aatp499
Rp500
(dp501
g12
Vconj
p502
sbag0
(g1
g2
(lp503
(lp504
S'word: a, index: 16'
p505
aatp506
Rp507
(dp508
g12
Vdet
p509
sbag0
(g1
g2
(lp510
(lp511
S'word: long, index: 17'
p512
aatp513
Rp514
(dp515
g12
Vamod
p516
sbatp517
Rp518
(dp519
g12
S'word: rug, index: 18'
p520
sbatp521
Rp522
(dp523
g12
Vnsubj
p524
sbatp525
Rp526
(dp527
g12
S'word: pouring, index: 27'
p528
sbatp529
Rp530
(dp531
g12
Vdep
p532
sbag0
(g1
g2
(lp533
g465
atp534
Rp535
(dp536
g12
Vdep
p537
sbag0
(g1
g2
(lp538
(lp539
S"word: 's, index: 14"
p540
aatp541
Rp542
(dp543
g12
Vnsubj
p544
sbatp545
Rp546
(dp547
g12
S'word: say, index: 15'
p548
sbatp549
Rp550
(dp551
g12
Vccomp
p552
sbatp553
Rp554
(dp555
g12
S'word: let, index: 13'
p556
sbatp557
Rp558
(dp559
g12
Vccomp
p560
sbag0
(g1
g2
(lp561
(lp562
S'word: and, index: 1'
p563
aatp564
Rp565
(dp566
g12
Vcc
p567
sbatp568
Rp569
(dp570
g12
S'word: sitting, index: 9'
p571
sbatp572
Rp573
(dp574
g12
S'id: 1'
p575
sbag0
(g1
g2
(lp576
g0
(g1
g2
(lp577
g0
(g1
g2
(lp578
g0
(g1
g2
(lp579
g0
(g1
g2
(lp580
g0
(g1
g2
(lp581
g0
(g1
g2
(lp582
(lp583
S'word: the, index: 21'
p584
aatp585
Rp586
(dp587
g12
Vdet
p588
sbatp589
Rp590
(dp591
g12
S'word: bottle, index: 22'
p592
sbatp593
Rp594
(dp595
g12
Vprep
p596
sbag0
(g1
g2
(lp597
(lp598
S'word: she, index: 7'
p599
aatp600
Rp601
(dp602
g12
Vnsubjpass
p603
sbag0
(g1
g2
(lp604
(lp605
S"word: 's, index: 8"
p606
aatp607
Rp608
(dp609
g12
Vauxpass
p610
sbag0
(g1
g2
(lp611
g0
(g1
g2
(lp612
g0
(g1
g2
(lp613
(lp614
S'word: that, index: 23'
p615
aatp616
Rp617
(dp618
g12
Vmark
p619
sbag0
(g1
g2
(lp620
(lp621
S'word: she, index: 24'
p622
aatp623
Rp624
(dp625
g12
Vnsubj
p626
sbag0
(g1
g2
(lp627
(lp628
S"word: 's, index: 25"
p629
aatp630
Rp631
(dp632
g12
Vaux
p633
sbag0
(g1
g2
(lp634
(lp635
S'word: from, index: 27'
p636
aatp637
Rp638
(dp639
g12
Vprep
p640
sbatp641
Rp642
(dp643
g12
S'word: pouring, index: 26'
p644
sbatp645
Rp646
(dp647
g12
Vccomp
p648
sbag0
(g1
g2
(lp649
g0
(g1
g2
(lp650
g0
(g1
g2
(lp651
(lp652
S'word: the, index: 10'
p653
aatp654
Rp655
(dp656
g12
Vdet
p657
sbag0
(g1
g2
(lp658
(lp659
S'word: picnic, index: 11'
p660
aatp661
Rp662
(dp663
g12
Vnn
p664
sbatp665
Rp666
(dp667
g12
S'word: basket, index: 12'
p668
sbatp669
Rp670
(dp671
g12
Vdobj
p672
sbag0
(g1
g2
(lp673
g0
(g1
g2
(lp674
g0
(g1
g2
(lp675
g590
atp676
Rp677
(dp678
g12
Vconj
p679
sbag0
(g1
g2
(lp680
(lp681
S'word: the, index: 14'
p682
aatp683
Rp684
(dp685
g12
Vdet
p686
sbag0
(g1
g2
(lp687
g0
(g1
g2
(lp688
g0
(g1
g2
(lp689
(lp690
S'word: the, index: 18'
p691
aatp692
Rp693
(dp694
g12
Vdet
p695
sbatp696
Rp697
(dp698
g12
S'word: glass, index: 19'
p699
sbatp700
Rp701
(dp702
g12
Vconj
p703
sbatp704
Rp705
(dp706
g12
S'word: wine, index: 15'
p707
sbatp708
Rp709
(dp710
g12
Vprep
p711
sbag0
(g1
g2
(lp712
g697
atp713
Rp714
(dp715
g12
Vprep
p716
sbatp717
Rp718
(dp719
g12
S'word: got, index: 9'
p720
sbatp721
Rp722
(dp723
g12
Vconj
p724
sbag0
(g1
g2
(lp725
g0
(g1
g2
(lp726
g0
(g1
g2
(lp727
(lp728
S'word: the, index: 2'
p729
aatp730
Rp731
(dp732
g12
Vdet
p733
sbatp734
Rp735
(dp736
g12
S'word: dad, index: 3'
p737
sbatp738
Rp739
(dp740
g12
Vnsubj
p741
sbatp742
Rp743
(dp744
g12
S'word: is, index: 4'
p745
sbatp746
Rp747
(dp748
g12
S'id: 2'
p749
sbag0
(g1
g2
(lp750
g0
(g1
g2
(lp751
g0
(g1
g2
(lp752
g0
(g1
g2
(lp753
g0
(g1
g2
(lp754
(lp755
S'word: he, index: 12'
p756
aatp757
Rp758
(dp759
g12
Vnsubj
p760
sbag0
(g1
g2
(lp761
(lp762
S"word: 's, index: 13"
p763
aatp764
Rp765
(dp766
g12
Vaux
p767
sbag0
(g1
g2
(lp768
g0
(g1
g2
(lp769
g0
(g1
g2
(lp770
(lp771
S'word: a, index: 15'
p772
aatp773
Rp774
(dp775
g12
Vdet
p776
sbatp777
Rp778
(dp779
g12
S'word: book, index: 16'
p780
sbatp781
Rp782
(dp783
g12
Vdobj
p784
sbatp785
Rp786
(dp787
g12
S'word: reading, index: 14'
p788
sbatp789
Rp790
(dp791
g12
Vccomp
p792
sbag0
(g1
g2
(lp793
(lp794
S'word: he, index: 18'
p795
aatp796
Rp797
(dp798
g12
Vnsubjpass
p799
sbag0
(g1
g2
(lp800
g0
(g1
g2
(lp801
g0
(g1
g2
(lp802
g786
atp803
Rp804
(dp805
g12
Vconj
p806
sbag0
(g1
g2
(lp807
(lp808
S'word: dad, index: 1'
p809
aatp810
Rp811
(dp812
g12
Vnsubj
p813
sbag0
(g1
g2
(lp814
(lp815
S'word: is, index: 2'
p816
aatp817
Rp818
(dp819
g12
Vaux
p820
sbag0
(g1
g2
(lp821
g0
(g1
g2
(lp822
g0
(g1
g2
(lp823
g0
(g1
g2
(lp824
g0
(g1
g2
(lp825
(lp826
S'word: the, index: 9'
p827
aatp828
Rp829
(dp830
g12
Vdet
p831
sbatp832
Rp833
(dp834
g12
S'word: basket, index: 10'
p835
sbatp836
Rp837
(dp838
g12
Vprep
p839
sbag0
(g1
g2
(lp840
(lp841
S'word: the, index: 5'
p842
aatp843
Rp844
(dp845
g12
Vdet
p846
sbag0
(g1
g2
(lp847
(lp848
S'word: other, index: 6'
p849
aatp850
Rp851
(dp852
g12
Vamod
p853
sbatp854
Rp855
(dp856
g12
S'word: side, index: 7'
p857
sbatp858
Rp859
(dp860
g12
Vprep
p861
sbatp862
Rp863
(dp864
g12
S'word: sitting, index: 3'
p865
sbatp866
Rp867
(dp868
g12
Vccomp
p869
sbag0
(g1
g2
(lp870
(lp871
S"word: 's, index: 19"
p872
aatp873
Rp874
(dp875
g12
Vauxpass
p876
sbag0
(g1
g2
(lp877
(lp878
S'word: glasses, index: 21'
p879
aatp880
Rp881
(dp882
g12
Vdobj
p883
sbag0
(g1
g2
(lp884
(lp885
S'word: on, index: 22'
p886
aatp887
Rp888
(dp889
g12
Vprep
p890
sbatp891
Rp892
(dp893
g12
S'word: got, index: 20'
p894
sbatp895
Rp896
(dp897
g12
S'id: 3'
p898
sbag0
(g1
g2
(lp899
g0
(g1
g2
(lp900
g0
(g1
g2
(lp901
g0
(g1
g2
(lp902
g0
(g1
g2
(lp903
(lp904
S'word: his, index: 1'
p905
aatp906
Rp907
(dp908
g12
Vposs
p909
sbatp910
Rp911
(dp912
g12
S'word: shoes, index: 2'
p913
sbatp914
Rp915
(dp916
g12
Vnsubj
p917
sbag0
(g1
g2
(lp918
(lp919
S'word: off, index: 4'
p920
aatp921
Rp922
(dp923
g12
Vadvmod
p924
sbag0
(g1
g2
(lp925
g0
(g1
g2
(lp926
g0
(g1
g2
(lp927
(lp928
S'word: the, index: 6'
p929
aatp930
Rp931
(dp932
g12
Vdet
p933
sbatp934
Rp935
(dp936
g12
S'word: side, index: 7'
p937
sbatp938
Rp939
(dp940
g12
Vprep
p941
sbatp942
Rp943
(dp944
g12
S'word: are, index: 3'
p945
sbatp946
Rp947
(dp948
g12
S'id: 4'
p949
sbag0
(g1
g2
(lp950
g0
(g1
g2
(lp951
g0
(g1
g2
(lp952
g0
(g1
g2
(lp953
g0
(g1
g2
(lp954
(lp955
S'word: the, index: 2'
p956
aatp957
Rp958
(dp959
g12
Vdet
p960
sbag0
(g1
g2
(lp961
(lp962
S'word: mom, index: 5'
p963
aatp964
Rp965
(dp966
g12
Vprep
p967
sbatp968
Rp969
(dp970
g12
S'word: side, index: 3'
p971
sbatp972
Rp973
(dp974
g12
Vprep
p975
sbag0
(g1
g2
(lp976
g0
(g1
g2
(lp977
g0
(g1
g2
(lp978
(lp979
S'word: a, index: 7'
p980
aatp981
Rp982
(dp983
g12
Vpredet
p984
sbag0
(g1
g2
(lp985
(lp986
S'word: a, index: 8'
p987
aatp988
Rp989
(dp990
g12
Vdet
p991
sbag0
(g1
g2
(lp992
g0
(g1
g2
(lp993
g0
(g1
g2
(lp994
(lp995
S'word: that, index: 10'
p996
aatp997
Rp998
(dp999
g12
Vmark
p1000
sbag0
(g1
g2
(lp1001
(lp1002
S'word: they, index: 11'
p1003
aatp1004
Rp1005
(dp1006
g12
Vnsubj
p1007
sbag0
(g1
g2
(lp1008
(lp1009
S"word: 're, index: 12"
p1010
aatp1011
Rp1012
(dp1013
g12
Vaux
p1014
sbatp1015
Rp1016
(dp1017
g12
S'word: playing, index: 13'
p1018
sbatp1019
Rp1020
(dp1021
g12
Vdep
p1022
sbatp1023
Rp1024
(dp1025
g12
S'word: radio, index: 9'
p1026
sbatp1027
Rp1028
(dp1029
g12
Vnsubj
p1030
sbatp1031
Rp1032
(dp1033
g12
S'word: is, index: 6'
p1034
sbatp1035
Rp1036
(dp1037
g12
S'id: 5'
p1038
sbag0
(g1
g2
(lp1039
g0
(g1
g2
(lp1040
g0
(g1
g2
(lp1041
(lp1042
S'word: them, index: 2'
p1043
aatp1044
Rp1045
(dp1046
g12
Vprep
p1047
sbag0
(g1
g2
(lp1048
(lp1049
S'word: but, index: 3'
p1050
aatp1051
Rp1052
(dp1053
g12
Vadvmod
p1054
sbag0
(g1
g2
(lp1055
g0
(g1
g2
(lp1056
g0
(g1
g2
(lp1057
g0
(g1
g2
(lp1058
g0
(g1
g2
(lp1059
(lp1060
S'word: his, index: 34'
p1061
aatp1062
Rp1063
(dp1064
g12
Vposs
p1065
sbatp1066
Rp1067
(dp1068
g12
S'word: dog, index: 35'
p1069
sbatp1070
Rp1071
(dp1072
g12
Vnsubj
p1073
sbag0
(g1
g2
(lp1074
(lp1075
S'word: is, index: 36'
p1076
aatp1077
Rp1078
(dp1079
g12
Vaux
p1080
sbag0
(g1
g2
(lp1081
(lp1082
S'word: him, index: 38'
p1083
aatp1084
Rp1085
(dp1086
g12
Vdobj
p1087
sbatp1088
Rp1089
(dp1090
g12
S'word: chasing, index: 37'
p1091
sbatp1092
Rp1093
(dp1094
g12
Vconj
p1095
sbag0
(g1
g2
(lp1096
g0
(g1
g2
(lp1097
g0
(g1
g2
(lp1098
(lp1099
S'word: and, index: 5'
p1100
aatp1101
Rp1102
(dp1103
g12
Vcc
p1104
sbag0
(g1
g2
(lp1105
g0
(g1
g2
(lp1106
g0
(g1
g2
(lp1107
(lp1108
S'word: the, index: 8'
p1109
aatp1110
Rp1111
(dp1112
g12
Vdet
p1113
sbatp1114
Rp1115
(dp1116
g12
S'word: water, index: 9'
p1117
sbatp1118
Rp1119
(dp1120
g12
Vprep
p1121
sbatp1122
Rp1123
(dp1124
g12
S'word: close, index: 6'
p1125
sbatp1126
Rp1127
(dp1128
g12
Vnsubj
p1129
sbag0
(g1
g2
(lp1130
g0
(g1
g2
(lp1131
g0
(g1
g2
(lp1132
(lp1133
S'word: he, index: 23'
p1134
aatp1135
Rp1136
(dp1137
g12
Vnsubj
p1138
sbag0
(g1
g2
(lp1139
(lp1140
S"word: 's, index: 24"
p1141
aatp1142
Rp1143
(dp1144
g12
Vaux
p1145
sbag0
(g1
g2
(lp1146
g0
(g1
g2
(lp1147
g0
(g1
g2
(lp1148
(lp1149
S'word: the, index: 27'
p1150
aatp1151
Rp1152
(dp1153
g12
Vdet
p1154
sbag0
(g1
g2
(lp1155
(lp1156
S'word: up, index: 29'
p1157
aatp1158
Rp1159
(dp1160
g12
Vdep
p1161
sbag0
(g1
g2
(lp1162
g0
(g1
g2
(lp1163
g0
(g1
g2
(lp1164
(lp1165
S'word: the, index: 31'
p1166
aatp1167
Rp1168
(dp1169
g12
Vdet
p1170
sbatp1171
Rp1172
(dp1173
g12
S'word: air, index: 32'
p1174
sbatp1175
Rp1176
(dp1177
g12
Vprep
p1178
sbatp1179
Rp1180
(dp1181
g12
S'word: kite, index: 28'
p1182
sbatp1183
Rp1184
(dp1185
g12
Vprep
p1186
sbatp1187
Rp1188
(dp1189
g12
S'word: running, index: 25'
p1190
sbatp1191
Rp1192
(dp1193
g12
Vconj
p1194
sbag0
(g1
g2
(lp1195
(lp1196
S'word: is, index: 10'
p1197
aatp1198
Rp1199
(dp1200
g12
Vcop
p1201
sbag0
(g1
g2
(lp1202
(lp1203
S'word: a, index: 11'
p1204
aatp1205
Rp1206
(dp1207
g12
Vdet
p1208
sbag0
(g1
g2
(lp1209
(lp1210
S'word: young, index: 12'
p1211
aatp1212
Rp1213
(dp1214
g12
Vamod
p1215
sbag0
(g1
g2
(lp1216
g0
(g1
g2
(lp1217
g0
(g1
g2
(lp1218
g0
(g1
g2
(lp1219
g0
(g1
g2
(lp1220
(lp1221
S'word: a, index: 19'
p1222
aatp1223
Rp1224
(dp1225
g12
Vdet
p1226
sbag0
(g1
g2
(lp1227
(lp1228
S'word: a, index: 17'
p1229
aatp1230
Rp1231
(dp1232
g12
Vdet
p1233
sbatp1234
Rp1235
(dp1236
g12
S'word: kite, index: 20'
p1237
sbatp1238
Rp1239
(dp1240
g12
Vdobj
p1241
sbag0
(g1
g2
(lp1242
(lp1243
S'word: who, index: 14'
p1244
aatp1245
Rp1246
(dp1247
g12
Vnsubjpass
p1248
sbag0
(g1
g2
(lp1249
(lp1250
S"word: 's, index: 15"
p1251
aatp1252
Rp1253
(dp1254
g12
Vauxpass
p1255
sbatp1256
Rp1257
(dp1258
g12
S'word: got, index: 16'
p1259
sbatp1260
Rp1261
(dp1262
g12
Vrcmod
p1263
sbatp1264
Rp1265
(dp1266
g12
S'word: boy, index: 13'
p1267
sbatp1268
Rp1269
(dp1270
g12
S'id: 6'
p1271
sbag0
(g1
g2
(lp1272
g0
(g1
g2
(lp1273
g0
(g1
g2
(lp1274
(lp1275
S'word: it, index: 7'
p1276
aatp1277
Rp1278
(dp1279
g12
Vnsubj
p1280
sbag0
(g1
g2
(lp1281
(lp1282
S'word: like, index: 9'
p1283
aatp1284
Rp1285
(dp1286
g12
Vdep
p1287
sbag0
(g1
g2
(lp1288
g0
(g1
g2
(lp1289
g0
(g1
g2
(lp1290
(lp1291
S'word: some, index: 11'
p1292
aatp1293
Rp1294
(dp1295
g12
Vdet
p1296
sbatp1297
Rp1298
(dp1299
g12
S'word: sand, index: 12'
p1300
sbatp1301
Rp1302
(dp1303
g12
Vdobj
p1304
sbag0
(g1
g2
(lp1305
g0
(g1
g2
(lp1306
g0
(g1
g2
(lp1307
(lp1308
S'word: actually, index: 5'
p1309
aatp1310
Rp1311
(dp1312
g12
Vadvmod
p1313
sbag0
(g1
g2
(lp1314
g0
(g1
g2
(lp1315
g0
(g1
g2
(lp1316
(lp1317
S'word: to, index: 2'
p1318
aatp1319
Rp1320
(dp1321
g12
Vprep
p1322
sbatp1323
Rp1324
(dp1325
g12
S'word: next, index: 1'
p1326
sbatp1327
Rp1328
(dp1329
g12
Vadvmod
p1330
sbag0
(g1
g2
(lp1331
(lp1332
S'word: him, index: 3'
p1333
aatp1334
Rp1335
(dp1336
g12
Vnsubj
p1337
sbatp1338
Rp1339
(dp1340
g12
S'word: is, index: 4'
p1341
sbatp1342
Rp1343
(dp1344
g12
Vadvcl
p1345
sbatp1346
Rp1347
(dp1348
g12
S'word: looks, index: 8'
p1349
sbatp1350
Rp1351
(dp1352
g12
S'id: 7'
p1353
sbag0
(g1
g2
(lp1354
g0
(g1
g2
(lp1355
g0
(g1
g2
(lp1356
g0
(g1
g2
(lp1357
g0
(g1
g2
(lp1358
(lp1359
S"word: 's, index: 24"
p1360
aatp1361
Rp1362
(dp1363
g12
Vaux
p1364
sbag0
(g1
g2
(lp1365
g0
(g1
g2
(lp1366
g0
(g1
g2
(lp1367
(lp1368
S'word: a, index: 26'
p1369
aatp1370
Rp1371
(dp1372
g12
Vdet
p1373
sbatp1374
Rp1375
(dp1376
g12
S'word: sandcastle, index: 27'
p1377
sbatp1378
Rp1379
(dp1380
g12
Vdobj
p1381
sbag0
(g1
g2
(lp1382
(lp1383
S'word: she, index: 23'
p1384
aatp1385
Rp1386
(dp1387
g12
Vnsubj
p1388
sbatp1389
Rp1390
(dp1391
g12
S'word: making, index: 25'
p1392
sbatp1393
Rp1394
(dp1395
g12
Vconj
p1396
sbag0
(g1
g2
(lp1397
g0
(g1
g2
(lp1398
g0
(g1
g2
(lp1399
(lp1400
S'word: she, index: 14'
p1401
aatp1402
Rp1403
(dp1404
g12
Vnsubjpass
p1405
sbag0
(g1
g2
(lp1406
(lp1407
S"word: 's, index: 15"
p1408
aatp1409
Rp1410
(dp1411
g12
Vauxpass
p1412
sbag0
(g1
g2
(lp1413
g0
(g1
g2
(lp1414
g0
(g1
g2
(lp1415
(lp1416
S'word: a, index: 17'
p1417
aatp1418
Rp1419
(dp1420
g12
Vdet
p1421
sbag0
(g1
g2
(lp1422
(lp1423
S'word: full, index: 19'
p1424
aatp1425
Rp1426
(dp1427
g12
Vdep
p1428
sbag0
(g1
g2
(lp1429
(lp1430
S'word: sand, index: 21'
p1431
aatp1432
Rp1433
(dp1434
g12
Vprep
p1435
sbatp1436
Rp1437
(dp1438
g12
S'word: bucket, index: 18'
p1439
sbatp1440
Rp1441
(dp1442
g12
Vdobj
p1443
sbatp1444
Rp1445
(dp1446
g12
S'word: got, index: 16'
p1447
sbatp1448
Rp1449
(dp1450
g12
Vconj
p1451
sbag0
(g1
g2
(lp1452
(lp1453
S'word: it, index: 2'
p1454
aatp1455
Rp1456
(dp1457
g12
Vnsubj
p1458
sbag0
(g1
g2
(lp1459
g0
(g1
g2
(lp1460
g0
(g1
g2
(lp1461
g0
(g1
g2
(lp1462
g0
(g1
g2
(lp1463
(lp1464
S'word: young, index: 8'
p1465
aatp1466
Rp1467
(dp1468
g12
Vamod
p1469
sbag0
(g1
g2
(lp1470
g0
(g1
g2
(lp1471
g0
(g1
g2
(lp1472
(lp1473
S'word: who, index: 10'
p1474
aatp1475
Rp1476
(dp1477
g12
Vnsubj
p1478
sbag0
(g1
g2
(lp1479
(lp1480
S'word: is, index: 11'
p1481
aatp1482
Rp1483
(dp1484
g12
Vaux
p1485
sbatp1486
Rp1487
(dp1488
g12
S'word: making, index: 12'
p1489
sbatp1490
Rp1491
(dp1492
g12
Vrcmod
p1493
sbag0
(g1
g2
(lp1494
(lp1495
S'word: a, index: 7'
p1496
aatp1497
Rp1498
(dp1499
g12
Vdet
p1500
sbatp1501
Rp1502
(dp1503
g12
S'word: girl, index: 9'
p1504
sbatp1505
Rp1506
(dp1507
g12
Vnsubj
p1508
sbag0
(g1
g2
(lp1509
(lp1510
S'word: like, index: 4'
p1511
aatp1512
Rp1513
(dp1514
g12
Vmark
p1515
sbag0
(g1
g2
(lp1516
(lp1517
S'word: there, index: 5'
p1518
aatp1519
Rp1520
(dp1521
g12
Vexpl
p1522
sbatp1523
Rp1524
(dp1525
g12
S"word: 's, index: 6"
p1526
sbatp1527
Rp1528
(dp1529
g12
Vadvcl
p1530
sbatp1531
Rp1532
(dp1533
g12
S'word: looks, index: 3'
p1534
sbatp1535
Rp1536
(dp1537
g12
S'id: 8'
p1538
sbag0
(g1
g2
(lp1539
g0
(g1
g2
(lp1540
g0
(g1
g2
(lp1541
g0
(g1
g2
(lp1542
g0
(g1
g2
(lp1543
g0
(g1
g2
(lp1544
g0
(g1
g2
(lp1545
g0
(g1
g2
(lp1546
g0
(g1
g2
(lp1547
(lp1548
S'word: her, index: 14'
p1549
aatp1550
Rp1551
(dp1552
g12
Vposs
p1553
sbag0
(g1
g2
(lp1554
(lp1555
S'word: bathing, index: 15'
p1556
aatp1557
Rp1558
(dp1559
g12
Vnn
p1560
sbag0
(g1
g2
(lp1561
(lp1562
S'word: i, index: 18'
p1563
aatp1564
Rp1565
(dp1566
g12
Vprep
p1567
sbatp1568
Rp1569
(dp1570
g12
S'word: suit, index: 16'
p1571
sbatp1572
Rp1573
(dp1574
g12
Vnsubj
p1575
sbatp1576
Rp1577
(dp1578
g12
S'word: think, index: 19'
p1579
sbatp1580
Rp1581
(dp1582
g12
Vccomp
p1583
sbag0
(g1
g2
(lp1584
g0
(g1
g2
(lp1585
g0
(g1
g2
(lp1586
(lp1587
S'word: a, index: 5'
p1588
aatp1589
Rp1590
(dp1591
g12
Vdet
p1592
sbag0
(g1
g2
(lp1593
(lp1594
S'word: little, index: 6'
p1595
aatp1596
Rp1597
(dp1598
g12
Vamod
p1599
sbag0
(g1
g2
(lp1600
g0
(g1
g2
(lp1601
g0
(g1
g2
(lp1602
g0
(g1
g2
(lp1603
g0
(g1
g2
(lp1604
(lp1605
S'word: a, index: 10'
p1606
aatp1607
Rp1608
(dp1609
g12
Vdet
p1610
sbatp1611
Rp1612
(dp1613
g12
S'word: ponytail, index: 11'
p1614
sbatp1615
Rp1616
(dp1617
g12
Vdobj
p1618
sbatp1619
Rp1620
(dp1621
g12
S'word: got, index: 9'
p1622
sbatp1623
Rp1624
(dp1625
g12
Vvmod
p1626
sbatp1627
Rp1628
(dp1629
g12
S'word: shovel, index: 7'
p1630
sbatp1631
Rp1632
(dp1633
g12
Vnsubj
p1634
sbatp1635
Rp1636
(dp1637
g12
S'word: got, index: 13'
p1638
sbatp1639
Rp1640
(dp1641
g12
Vccomp
p1642
sbag0
(g1
g2
(lp1643
(lp1644
S'word: and, index: 1'
p1645
aatp1646
Rp1647
(dp1648
g12
Vcc
p1649
sbag0
(g1
g2
(lp1650
(lp1651
S'word: she, index: 2'
p1652
aatp1653
Rp1654
(dp1655
g12
Vnsubjpass
p1656
sbag0
(g1
g2
(lp1657
(lp1658
S"word: 's, index: 3"
p1659
aatp1660
Rp1661
(dp1662
g12
Vauxpass
p1663
sbatp1664
Rp1665
(dp1666
g12
S'word: got, index: 4'
p1667
sbatp1668
Rp1669
(dp1670
g12
S'id: 9'
p1671
sbag0
(g1
g2
(lp1672
g0
(g1
g2
(lp1673
g0
(g1
g2
(lp1674
g0
(g1
g2
(lp1675
g0
(g1
g2
(lp1676
g0
(g1
g2
(lp1677
g0
(g1
g2
(lp1678
(lp1679
S'word: a, index: 15'
p1680
aatp1681
Rp1682
(dp1683
g12
Vdet
p1684
sbag0
(g1
g2
(lp1685
g0
(g1
g2
(lp1686
g0
(g1
g2
(lp1687
(lp1688
S'word: the, index: 18'
p1689
aatp1690
Rp1691
(dp1692
g12
Vdet
p1693
sbag0
(g1
g2
(lp1694
g0
(g1
g2
(lp1695
g0
(g1
g2
(lp1696
(lp1697
S'word: a, index: 21'
p1698
aatp1699
Rp1700
(dp1701
g12
Vdet
p1702
sbag0
(g1
g2
(lp1703
g0
(g1
g2
(lp1704
g0
(g1
g2
(lp1705
(lp1706
S'word: the, index: 24'
p1707
aatp1708
Rp1709
(dp1710
g12
Vdet
p1711
sbag0
(g1
g2
(lp1712
g0
(g1
g2
(lp1713
g0
(g1
g2
(lp1714
(lp1715
S'word: the, index: 27'
p1716
aatp1717
Rp1718
(dp1719
g12
Vdet
p1720
sbatp1721
Rp1722
(dp1723
g12
S'word: line, index: 28'
p1724
sbatp1725
Rp1726
(dp1727
g12
Vprep
p1728
sbatp1729
Rp1730
(dp1731
g12
S'word: end, index: 25'
p1732
sbatp1733
Rp1734
(dp1735
g12
Vprep
p1736
sbatp1737
Rp1738
(dp1739
g12
S'word: fish, index: 22'
p1740
sbatp1741
Rp1742
(dp1743
g12
Vprep
p1744
sbatp1745
Rp1746
(dp1747
g12
S'word: dock, index: 19'
p1748
sbatp1749
Rp1750
(dp1751
g12
Vprep
p1752
sbatp1753
Rp1754
(dp1755
g12
S'word: fisherman, index: 16'
p1756
sbatp1757
Rp1758
(dp1759
g12
Vnsubj
p1760
sbag0
(g1
g2
(lp1761
(lp1762
S'word: there, index: 13'
p1763
aatp1764
Rp1765
(dp1766
g12
Vexpl
p1767
sbatp1768
Rp1769
(dp1770
g12
S"word: 's, index: 14"
p1771
sbatp1772
Rp1773
(dp1774
g12
Vconj
p1775
sbag0
(g1
g2
(lp1776
(lp1777
S'word: then, index: 2'
p1778
aatp1779
Rp1780
(dp1781
g12
Vadvmod
p1782
sbag0
(g1
g2
(lp1783
g0
(g1
g2
(lp1784
g0
(g1
g2
(lp1785
g0
(g1
g2
(lp1786
g0
(g1
g2
(lp1787
g0
(g1
g2
(lp1788
g0
(g1
g2
(lp1789
(lp1790
S'word: just, index: 3'
p1791
aatp1792
Rp1793
(dp1794
g12
Vadvmod
p1795
sbatp1796
Rp1797
(dp1798
g12
S'word: up, index: 4'
p1799
sbatp1800
Rp1801
(dp1802
g12
Vquantmod
p1803
sbatp1804
Rp1805
(dp1806
g12
S'word: a, index: 5'
p1807
sbatp1808
Rp1809
(dp1810
g12
Vnum
p1811
sbag0
(g1
g2
(lp1812
(lp1813
S'word: her, index: 8'
p1814
aatp1815
Rp1816
(dp1817
g12
Vprep
p1818
sbatp1819
Rp1820
(dp1821
g12
S'word: ways, index: 6'
p1822
sbatp1823
Rp1824
(dp1825
g12
Vnsubj
p1826
sbag0
(g1
g2
(lp1827
(lp1828
S'word: is, index: 9'
p1829
aatp1830
Rp1831
(dp1832
g12
Vcop
p1833
sbag0
(g1
g2
(lp1834
(lp1835
S'word: a, index: 10'
p1836
aatp1837
Rp1838
(dp1839
g12
Vdet
p1840
sbatp1841
Rp1842
(dp1843
g12
S'word: dock, index: 11'
p1844
sbatp1845
Rp1846
(dp1847
g12
S'id: 10'
p1848
sbag0
(g1
g2
(lp1849
g0
(g1
g2
(lp1850
g0
(g1
g2
(lp1851
(lp1852
S'word: and, index: 1'
p1853
aatp1854
Rp1855
(dp1856
g12
Vcc
p1857
sbag0
(g1
g2
(lp1858
(lp1859
S'word: out, index: 2'
p1860
aatp1861
Rp1862
(dp1863
g12
Vadvmod
p1864
sbag0
(g1
g2
(lp1865
g0
(g1
g2
(lp1866
g0
(g1
g2
(lp1867
(lp1868
S'word: the, index: 4'
p1869
aatp1870
Rp1871
(dp1872
g12
Vdet
p1873
sbag0
(g1
g2
(lp1874
g0
(g1
g2
(lp1875
g0
(g1
g2
(lp1876
(lp1877
S'word: the, index: 7'
p1878
aatp1879
Rp1880
(dp1881
g12
Vdet
p1882
sbatp1883
Rp1884
(dp1885
g12
S'word: lake, index: 8'
p1886
sbatp1887
Rp1888
(dp1889
g12
Vconj
p1890
sbatp1891
Rp1892
(dp1893
g12
S'word: pond, index: 5'
p1894
sbatp1895
Rp1896
(dp1897
g12
Vprep
p1898
sbag0
(g1
g2
(lp1899
g1884
atp1900
Rp1901
(dp1902
g12
Vprep
p1903
sbag0
(g1
g2
(lp1904
(lp1905
S'word: is, index: 9'
p1906
aatp1907
Rp1908
(dp1909
g12
Vcop
p1910
sbag0
(g1
g2
(lp1911
(lp1912
S'word: a, index: 10'
p1913
aatp1914
Rp1915
(dp1916
g12
Vdet
p1917
sbag0
(g1
g2
(lp1918
g0
(g1
g2
(lp1919
g0
(g1
g2
(lp1920
(lp1921
S'word: two, index: 13'
p1922
aatp1923
Rp1924
(dp1925
g12
Vnum
p1926
sbag0
(g1
g2
(lp1927
(lp1928
S'word: it, index: 16'
p1929
aatp1930
Rp1931
(dp1932
g12
Vprep
p1933
sbatp1934
Rp1935
(dp1936
g12
S'word: people, index: 14'
p1937
sbatp1938
Rp1939
(dp1940
g12
Vprep
p1941
sbatp1942
Rp1943
(dp1944
g12
S'word: sailboat, index: 11'
p1945
sbatp1946
Rp1947
(dp1948
g12
S'id: 11'
p1949
sbag0
(g1
g2
(lp1950
g0
(g1
g2
(lp1951
g0
(g1
g2
(lp1952
g0
(g1
g2
(lp1953
g0
(g1
g2
(lp1954
g0
(g1
g2
(lp1955
g0
(g1
g2
(lp1956
(lp1957
S'word: the, index: 6'
p1958
aatp1959
Rp1960
(dp1961
g12
Vdet
p1962
sbatp1963
Rp1964
(dp1965
g12
S'word: background, index: 7'
p1966
sbatp1967
Rp1968
(dp1969
g12
Vprep
p1970
sbatp1971
Rp1972
(dp1973
g12
S'word: trees, index: 4'
p1974
sbatp1975
Rp1976
(dp1977
g12
Vnsubj
p1978
sbag0
(g1
g2
(lp1979
g0
(g1
g2
(lp1980
g0
(g1
g2
(lp1981
(lp1982
S'word: it, index: 10'
p1983
aatp1984
Rp1985
(dp1986
g12
Vnsubj
p1987
sbag0
(g1
g2
(lp1988
(lp1989
S"word: 's, index: 11"
p1990
aatp1991
Rp1992
(dp1993
g12
Vcop
p1994
sbag0
(g1
g2
(lp1995
(lp1996
S'word: just, index: 12'
p1997
aatp1998
Rp1999
(dp2000
g12
Vadvmod
p2001
sbag0
(g1
g2
(lp2002
(lp2003
S'word: a, index: 13'
p2004
aatp2005
Rp2006
(dp2007
g12
Vdet
p2008
sbag0
(g1
g2
(lp2009
g0
(g1
g2
(lp2010
g0
(g1
g2
(lp2011
(lp2012
S'word: really, index: 14'
p2013
aatp2014
Rp2015
(dp2016
g12
Vadvmod
p2017
sbatp2018
Rp2019
(dp2020
g12
S'word: nice, index: 15'
p2021
sbatp2022
Rp2023
(dp2024
g12
Vamod
p2025
sbag0
(g1
g2
(lp2026
(lp2027
S'word: idyllic, index: 16'
p2028
aatp2029
Rp2030
(dp2031
g12
Vamod
p2032
sbatp2033
Rp2034
(dp2035
g12
S'word: scene, index: 17'
p2036
sbatp2037
Rp2038
(dp2039
g12
Vconj
p2040
sbag0
(g1
g2
(lp2041
(lp2042
S'word: there, index: 2'
p2043
aatp2044
Rp2045
(dp2046
g12
Vexpl
p2047
sbatp2048
Rp2049
(dp2050
g12
S'word: are, index: 3'
p2051
sbatp2052
Rp2053
(dp2054
g12
S'id: 12'
p2055
sbag0
(g1
g2
(lp2056
g0
(g1
g2
(lp2057
g0
(g1
g2
(lp2058
(lp2059
S'word: the, index: 1'
p2060
aatp2061
Rp2062
(dp2063
g12
Vdet
p2064
sbatp2065
Rp2066
(dp2067
g12
S'word: end, index: 2'
p2068
sbatp2069
Rp2070
(dp2071
g12
S'id: 13'
p2072
sbatp2073
Rp2074
(dp2075
g12
S'sentences'
p2076
sb.