ccopy_reg
_reconstructor
p0
(cnltk.tree
Tree
p1
c__builtin__
list
p2
(lp3
g0
(g1
g2
(lp4
g0
(g1
g2
(lp5
g0
(g1
g2
(lp6
g0
(g1
g2
(lp7
g0
(g1
g2
(lp8
Valright
p9
atp10
Rp11
(dp12
S'_label'
p13
VNN
p14
sbatp15
Rp16
(dp17
g13
VNP
p18
sbag0
(g1
g2
(lp19
V,
p20
atp21
Rp22
(dp23
g13
V,
p24
sbag0
(g1
g2
(lp25
g0
(g1
g2
(lp26
Vthis
p27
atp28
Rp29
(dp30
g13
VDT
p31
sbatp32
Rp33
(dp34
g13
VNP
p35
sbatp36
Rp37
(dp38
g13
VNP
p39
sbag0
(g1
g2
(lp40
g0
(g1
g2
(lp41
Vis
p42
atp43
Rp44
(dp45
g13
VVBZ
p46
sbag0
(g1
g2
(lp47
g0
(g1
g2
(lp48
g0
(g1
g2
(lp49
Va
p50
atp51
Rp52
(dp53
g13
VDT
p54
sbag0
(g1
g2
(lp55
Vpicture
p56
atp57
Rp58
(dp59
g13
VNN
p60
sbatp61
Rp62
(dp63
g13
VNP
p64
sbag0
(g1
g2
(lp65
g0
(g1
g2
(lp66
g0
(g1
g2
(lp67
g0
(g1
g2
(lp68
Vi
p69
atp70
Rp71
(dp72
g13
VFW
p73
sbatp74
Rp75
(dp76
g13
VNP
p77
sbag0
(g1
g2
(lp78
g0
(g1
g2
(lp79
V've
p80
atp81
Rp82
(dp83
g13
VVBP
p84
sbag0
(g1
g2
(lp85
g0
(g1
g2
(lp86
Vseen
p87
atp88
Rp89
(dp90
g13
VVBN
p91
sbag0
(g1
g2
(lp92
g0
(g1
g2
(lp93
Vbefore
p94
atp95
Rp96
(dp97
g13
VIN
p98
sbatp99
Rp100
(dp101
g13
VPP
p102
sbatp103
Rp104
(dp105
g13
VVP
p106
sbatp107
Rp108
(dp109
g13
VVP
p110
sbatp111
Rp112
(dp113
g13
VS
p114
sbatp115
Rp116
(dp117
g13
VSBAR
p118
sbatp119
Rp120
(dp121
g13
VNP
p122
sbatp123
Rp124
(dp125
g13
VVP
p126
sbag0
(g1
g2
(lp127
V.
p128
atp129
Rp130
(dp131
g13
V.
p132
sbatp133
Rp134
(dp135
g13
VS
p136
sbatp137
Rp138
(dp139
g13
S'id: 0'
p140
sbag0
(g1
g2
(lp141
g0
(g1
g2
(lp142
g0
(g1
g2
(lp143
g0
(g1
g2
(lp144
Vat
p145
atp146
Rp147
(dp148
g13
VIN
p149
sbag0
(g1
g2
(lp150
g0
(g1
g2
(lp151
Vthe
p152
atp153
Rp154
(dp155
g13
VDT
p156
sbag0
(g1
g2
(lp157
Vkitchen
p158
atp159
Rp160
(dp161
g13
VNN
p162
sbatp163
Rp164
(dp165
g13
VNP
p166
sbatp167
Rp168
(dp169
g13
VPP
p170
sbag0
(g1
g2
(lp171
g0
(g1
g2
(lp172
Vsink
p173
atp174
Rp175
(dp176
g13
VNN
p177
sbatp178
Rp179
(dp180
g13
VNP
p181
sbag0
(g1
g2
(lp182
g0
(g1
g2
(lp183
Vis
p184
atp185
Rp186
(dp187
g13
VVBZ
p188
sbag0
(g1
g2
(lp189
g0
(g1
g2
(lp190
Vmom
p191
atp192
Rp193
(dp194
g13
VNN
p195
sbatp196
Rp197
(dp198
g13
VNP
p199
sbatp200
Rp201
(dp202
g13
VVP
p203
sbag0
(g1
g2
(lp204
V.
p205
atp206
Rp207
(dp208
g13
V.
p209
sbatp210
Rp211
(dp212
g13
VS
p213
sbatp214
Rp215
(dp216
g13
S'id: 1'
p217
sbag0
(g1
g2
(lp218
g0
(g1
g2
(lp219
g0
(g1
g2
(lp220
g0
(g1
g2
(lp221
Vmom
p222
atp223
Rp224
(dp225
g13
VNN
p226
sbatp227
Rp228
(dp229
g13
VNP
p230
sbag0
(g1
g2
(lp231
g0
(g1
g2
(lp232
Vis
p233
atp234
Rp235
(dp236
g13
VVBZ
p237
sbag0
(g1
g2
(lp238
g0
(g1
g2
(lp239
Vdrying
p240
atp241
Rp242
(dp243
g13
VVBG
p244
sbag0
(g1
g2
(lp245
g0
(g1
g2
(lp246
Va
p247
atp248
Rp249
(dp250
g13
VDT
p251
sbag0
(g1
g2
(lp252
Vplate
p253
atp254
Rp255
(dp256
g13
VNN
p257
sbatp258
Rp259
(dp260
g13
VNP
p261
sbatp262
Rp263
(dp264
g13
VVP
p265
sbatp266
Rp267
(dp268
g13
VVP
p269
sbag0
(g1
g2
(lp270
V.
p271
atp272
Rp273
(dp274
g13
V.
p275
sbatp276
Rp277
(dp278
g13
VS
p279
sbatp280
Rp281
(dp282
g13
S'id: 2'
p283
sbag0
(g1
g2
(lp284
g0
(g1
g2
(lp285
g0
(g1
g2
(lp286
g0
(g1
g2
(lp287
Vwhile
p288
atp289
Rp290
(dp291
g13
VIN
p292
sbag0
(g1
g2
(lp293
g0
(g1
g2
(lp294
g0
(g1
g2
(lp295
Vshe
p296
atp297
Rp298
(dp299
g13
VPRP
p300
sbatp301
Rp302
(dp303
g13
VNP
p304
sbag0
(g1
g2
(lp305
g0
(g1
g2
(lp306
V's
p307
atp308
Rp309
(dp310
g13
VVBZ
p311
sbag0
(g1
g2
(lp312
g0
(g1
g2
(lp313
Vdoing
p314
atp315
Rp316
(dp317
g13
VVBG
p318
sbag0
(g1
g2
(lp319
g0
(g1
g2
(lp320
g0
(g1
g2
(lp321
Vthat
p322
atp323
Rp324
(dp325
g13
VIN
p326
sbag0
(g1
g2
(lp327
g0
(g1
g2
(lp328
g0
(g1
g2
(lp329
Vshe
p330
atp331
Rp332
(dp333
g13
VPRP
p334
sbatp335
Rp336
(dp337
g13
VNP
p338
sbag0
(g1
g2
(lp339
g0
(g1
g2
(lp340
Vseems
p341
atp342
Rp343
(dp344
g13
VVBZ
p345
sbag0
(g1
g2
(lp346
g0
(g1
g2
(lp347
g0
(g1
g2
(lp348
Vto
p349
atp350
Rp351
(dp352
g13
VTO
p353
sbag0
(g1
g2
(lp354
g0
(g1
g2
(lp355
Vbe
p356
atp357
Rp358
(dp359
g13
VVB
p360
sbag0
(g1
g2
(lp361
g0
(g1
g2
(lp362
Voblivious
p363
atp364
Rp365
(dp366
g13
VJJ
p367
sbag0
(g1
g2
(lp368
g0
(g1
g2
(lp369
Vto
p370
atp371
Rp372
(dp373
g13
VTO
p374
sbag0
(g1
g2
(lp375
g0
(g1
g2
(lp376
g0
(g1
g2
(lp377
Vthe
p378
atp379
Rp380
(dp381
g13
VDT
p382
sbag0
(g1
g2
(lp383
Vsink
p384
atp385
Rp386
(dp387
g13
VNN
p388
sbatp389
Rp390
(dp391
g13
VNP
p392
sbag0
(g1
g2
(lp393
V,
p394
atp395
Rp396
(dp397
g13
V,
p398
sbag0
(g1
g2
(lp399
g0
(g1
g2
(lp400
g0
(g1
g2
(lp401
Vwhich
p402
atp403
Rp404
(dp405
g13
VWDT
p406
sbatp407
Rp408
(dp409
g13
VWHNP
p410
sbag0
(g1
g2
(lp411
g0
(g1
g2
(lp412
g0
(g1
g2
(lp413
Vis
p414
atp415
Rp416
(dp417
g13
VVBZ
p418
sbag0
(g1
g2
(lp419
g0
(g1
g2
(lp420
Voverflowing
p421
atp422
Rp423
(dp424
g13
VVBG
p425
sbag0
(g1
g2
(lp426
g0
(g1
g2
(lp427
Vonto
p428
atp429
Rp430
(dp431
g13
VIN
p432
sbag0
(g1
g2
(lp433
g0
(g1
g2
(lp434
Vthe
p435
atp436
Rp437
(dp438
g13
VDT
p439
sbag0
(g1
g2
(lp440
Vfloor
p441
atp442
Rp443
(dp444
g13
VNN
p445
sbatp446
Rp447
(dp448
g13
VNP
p449
sbatp450
Rp451
(dp452
g13
VPP
p453
sbatp454
Rp455
(dp456
g13
VVP
p457
sbatp458
Rp459
(dp460
g13
VVP
p461
sbatp462
Rp463
(dp464
g13
VS
p465
sbatp466
Rp467
(dp468
g13
VSBAR
p469
sbatp470
Rp471
(dp472
g13
VNP
p473
sbatp474
Rp475
(dp476
g13
VPP
p477
sbatp478
Rp479
(dp480
g13
VADJP
p481
sbatp482
Rp483
(dp484
g13
VVP
p485
sbatp486
Rp487
(dp488
g13
VVP
p489
sbatp490
Rp491
(dp492
g13
VS
p493
sbatp494
Rp495
(dp496
g13
VVP
p497
sbatp498
Rp499
(dp500
g13
VS
p501
sbatp502
Rp503
(dp504
g13
VSBAR
p505
sbag0
(g1
g2
(lp506
V,
p507
atp508
Rp509
(dp510
g13
V,
p511
sbag0
(g1
g2
(lp512
Veven
p513
atp514
Rp515
(dp516
g13
VRB
p517
sbag0
(g1
g2
(lp518
g0
(g1
g2
(lp519
g0
(g1
g2
(lp520
Vwhere
p521
atp522
Rp523
(dp524
g13
VWRB
p525
sbatp526
Rp527
(dp528
g13
VWHADVP
p529
sbag0
(g1
g2
(lp530
g0
(g1
g2
(lp531
g0
(g1
g2
(lp532
Vshe
p533
atp534
Rp535
(dp536
g13
VPRP
p537
sbatp538
Rp539
(dp540
g13
VNP
p541
sbag0
(g1
g2
(lp542
g0
(g1
g2
(lp543
V's
p544
atp545
Rp546
(dp547
g13
VVBZ
p548
sbag0
(g1
g2
(lp549
g0
(g1
g2
(lp550
Vstanding
p551
atp552
Rp553
(dp554
g13
VNN
p555
sbatp556
Rp557
(dp558
g13
VNP
p559
sbatp560
Rp561
(dp562
g13
VVP
p563
sbatp564
Rp565
(dp566
g13
VS
p567
sbatp568
Rp569
(dp570
g13
VSBAR
p571
sbatp572
Rp573
(dp574
g13
VSBAR
p575
sbatp576
Rp577
(dp578
g13
VVP
p579
sbatp580
Rp581
(dp582
g13
VVP
p583
sbatp584
Rp585
(dp586
g13
VS
p587
sbatp588
Rp589
(dp590
g13
VSBAR
p591
sbag0
(g1
g2
(lp592
V.
p593
atp594
Rp595
(dp596
g13
V.
p597
sbatp598
Rp599
(dp600
g13
VFRAG
p601
sbatp602
Rp603
(dp604
g13
S'id: 3'
p605
sbag0
(g1
g2
(lp606
g0
(g1
g2
(lp607
g0
(g1
g2
(lp608
g0
(g1
g2
(lp609
Vout
p610
atp611
Rp612
(dp613
g13
VIN
p614
sbag0
(g1
g2
(lp615
g0
(g1
g2
(lp616
Vthe
p617
atp618
Rp619
(dp620
g13
VDT
p621
sbag0
(g1
g2
(lp622
Vwindow
p623
atp624
Rp625
(dp626
g13
VNN
p627
sbatp628
Rp629
(dp630
g13
VNP
p631
sbatp632
Rp633
(dp634
g13
VPP
p635
sbag0
(g1
g2
(lp636
g0
(g1
g2
(lp637
Vyou
p638
atp639
Rp640
(dp641
g13
VPRP
p642
sbatp643
Rp644
(dp645
g13
VNP
p646
sbag0
(g1
g2
(lp647
g0
(g1
g2
(lp648
Vcan
p649
atp650
Rp651
(dp652
g13
VMD
p653
sbag0
(g1
g2
(lp654
g0
(g1
g2
(lp655
Vsee
p656
atp657
Rp658
(dp659
g13
VVB
p660
sbag0
(g1
g2
(lp661
g0
(g1
g2
(lp662
g0
(g1
g2
(lp663
Vwhat
p664
atp665
Rp666
(dp667
g13
VWP
p668
sbatp669
Rp670
(dp671
g13
VWHNP
p672
sbag0
(g1
g2
(lp673
g0
(g1
g2
(lp674
g0
(g1
g2
(lp675
Vlooks
p676
atp677
Rp678
(dp679
g13
VVBZ
p680
sbag0
(g1
g2
(lp681
g0
(g1
g2
(lp682
Vlike
p683
atp684
Rp685
(dp686
g13
VIN
p687
sbag0
(g1
g2
(lp688
g0
(g1
g2
(lp689
g0
(g1
g2
(lp690
g0
(g1
g2
(lp691
Vmaybe
p692
atp693
Rp694
(dp695
g13
VRB
p696
sbag0
(g1
g2
(lp697
Va
p698
atp699
Rp700
(dp701
g13
VDT
p702
sbag0
(g1
g2
(lp703
Vdriveway
p704
atp705
Rp706
(dp707
g13
VNN
p708
sbatp709
Rp710
(dp711
g13
VNP
p712
sbag0
(g1
g2
(lp713
Vor
p714
atp715
Rp716
(dp717
g13
VCC
p718
sbag0
(g1
g2
(lp719
g0
(g1
g2
(lp720
Va
p721
atp722
Rp723
(dp724
g13
VDT
p725
sbag0
(g1
g2
(lp726
Vwalkway
p727
atp728
Rp729
(dp730
g13
VNN
p731
sbatp732
Rp733
(dp734
g13
VNP
p735
sbatp736
Rp737
(dp738
g13
VNP
p739
sbag0
(g1
g2
(lp740
Vand
p741
atp742
Rp743
(dp744
g13
VCC
p745
sbag0
(g1
g2
(lp746
g0
(g1
g2
(lp747
g0
(g1
g2
(lp748
Vanother
p749
atp750
Rp751
(dp752
g13
VDT
p753
sbag0
(g1
g2
(lp754
Vpart
p755
atp756
Rp757
(dp758
g13
VNN
p759
sbatp760
Rp761
(dp762
g13
VNP
p763
sbag0
(g1
g2
(lp764
g0
(g1
g2
(lp765
Vof
p766
atp767
Rp768
(dp769
g13
VIN
p770
sbag0
(g1
g2
(lp771
g0
(g1
g2
(lp772
Vthe
p773
atp774
Rp775
(dp776
g13
VDT
p777
sbag0
(g1
g2
(lp778
Vhouse
p779
atp780
Rp781
(dp782
g13
VNN
p783
sbatp784
Rp785
(dp786
g13
VNP
p787
sbatp788
Rp789
(dp790
g13
VPP
p791
sbatp792
Rp793
(dp794
g13
VNP
p795
sbatp796
Rp797
(dp798
g13
VNP
p799
sbatp800
Rp801
(dp802
g13
VPP
p803
sbatp804
Rp805
(dp806
g13
VVP
p807
sbatp808
Rp809
(dp810
g13
VS
p811
sbatp812
Rp813
(dp814
g13
VSBAR
p815
sbatp816
Rp817
(dp818
g13
VVP
p819
sbatp820
Rp821
(dp822
g13
VVP
p823
sbag0
(g1
g2
(lp824
V.
p825
atp826
Rp827
(dp828
g13
V.
p829
sbatp830
Rp831
(dp832
g13
VS
p833
sbatp834
Rp835
(dp836
g13
S'id: 4'
p837
sbag0
(g1
g2
(lp838
g0
(g1
g2
(lp839
g0
(g1
g2
(lp840
g0
(g1
g2
(lp841
Valso
p842
atp843
Rp844
(dp845
g13
VRB
p846
sbatp847
Rp848
(dp849
g13
VADVP
p850
sbag0
(g1
g2
(lp851
g0
(g1
g2
(lp852
Von
p853
atp854
Rp855
(dp856
g13
VIN
p857
sbag0
(g1
g2
(lp858
g0
(g1
g2
(lp859
Vthe
p860
atp861
Rp862
(dp863
g13
VDT
p864
sbag0
(g1
g2
(lp865
Vcounter
p866
atp867
Rp868
(dp869
g13
VNN
p870
sbatp871
Rp872
(dp873
g13
VNP
p874
sbatp875
Rp876
(dp877
g13
VPP
p878
sbag0
(g1
g2
(lp879
g0
(g1
g2
(lp880
Vwe
p881
atp882
Rp883
(dp884
g13
VPRP
p885
sbatp886
Rp887
(dp888
g13
VNP
p889
sbag0
(g1
g2
(lp890
g0
(g1
g2
(lp891
Vhave
p892
atp893
Rp894
(dp895
g13
VVBP
p896
sbag0
(g1
g2
(lp897
g0
(g1
g2
(lp898
g0
(g1
g2
(lp899
Va
p900
atp901
Rp902
(dp903
g13
VDT
p904
sbag0
(g1
g2
(lp905
Vplate
p906
atp907
Rp908
(dp909
g13
VNN
p910
sbatp911
Rp912
(dp913
g13
VNP
p914
sbag0
(g1
g2
(lp915
Vand
p916
atp917
Rp918
(dp919
g13
VCC
p920
sbag0
(g1
g2
(lp921
Vmaybe
p922
atp923
Rp924
(dp925
g13
VRB
p926
sbag0
(g1
g2
(lp927
g0
(g1
g2
(lp928
Vtwo
p929
atp930
Rp931
(dp932
g13
VCD
p933
sbag0
(g1
g2
(lp934
Vcoffee
p935
atp936
Rp937
(dp938
g13
VNN
p939
sbag0
(g1
g2
(lp940
Vcups
p941
atp942
Rp943
(dp944
g13
VNNS
p945
sbatp946
Rp947
(dp948
g13
VNP
p949
sbatp950
Rp951
(dp952
g13
VNP
p953
sbatp954
Rp955
(dp956
g13
VVP
p957
sbag0
(g1
g2
(lp958
V.
p959
atp960
Rp961
(dp962
g13
V.
p963
sbatp964
Rp965
(dp966
g13
VS
p967
sbatp968
Rp969
(dp970
g13
S'id: 5'
p971
sbag0
(g1
g2
(lp972
g0
(g1
g2
(lp973
g0
(g1
g2
(lp974
g0
(g1
g2
(lp975
Vin
p976
atp977
Rp978
(dp979
g13
VIN
p980
sbag0
(g1
g2
(lp981
g0
(g1
g2
(lp982
Vthe
p983
atp984
Rp985
(dp986
g13
VDT
p987
sbag0
(g1
g2
(lp988
Vbackground
p989
atp990
Rp991
(dp992
g13
VNN
p993
sbatp994
Rp995
(dp996
g13
VNP
p997
sbatp998
Rp999
(dp1000
g13
VPP
p1001
sbag0
(g1
g2
(lp1002
g0
(g1
g2
(lp1003
g0
(g1
g2
(lp1004
Vfurther
p1005
atp1006
Rp1007
(dp1008
g13
VRB
p1009
sbag0
(g1
g2
(lp1010
Vaway
p1011
atp1012
Rp1013
(dp1014
g13
VRB
p1015
sbatp1016
Rp1017
(dp1018
g13
VADVP
p1019
sbag0
(g1
g2
(lp1020
g0
(g1
g2
(lp1021
Vin
p1022
atp1023
Rp1024
(dp1025
g13
VIN
p1026
sbag0
(g1
g2
(lp1027
g0
(g1
g2
(lp1028
Vthe
p1029
atp1030
Rp1031
(dp1032
g13
VDT
p1033
sbag0
(g1
g2
(lp1034
Vkitchen
p1035
atp1036
Rp1037
(dp1038
g13
VNN
p1039
sbatp1040
Rp1041
(dp1042
g13
VNP
p1043
sbatp1044
Rp1045
(dp1046
g13
VPP
p1047
sbatp1048
Rp1049
(dp1050
g13
VADVP
p1051
sbag0
(g1
g2
(lp1052
V,
p1053
atp1054
Rp1055
(dp1056
g13
V,
p1057
sbag0
(g1
g2
(lp1058
g0
(g1
g2
(lp1059
Vare
p1060
atp1061
Rp1062
(dp1063
g13
VVBP
p1064
sbag0
(g1
g2
(lp1065
g0
(g1
g2
(lp1066
Vthe
p1067
atp1068
Rp1069
(dp1070
g13
VDT
p1071
sbag0
(g1
g2
(lp1072
Vtwo
p1073
atp1074
Rp1075
(dp1076
g13
VCD
p1077
sbag0
(g1
g2
(lp1078
Vkids
p1079
atp1080
Rp1081
(dp1082
g13
VNNS
p1083
sbatp1084
Rp1085
(dp1086
g13
VNP
p1087
sbatp1088
Rp1089
(dp1090
g13
VVP
p1091
sbag0
(g1
g2
(lp1092
V.
p1093
atp1094
Rp1095
(dp1096
g13
V.
p1097
sbatp1098
Rp1099
(dp1100
g13
VS
p1101
sbatp1102
Rp1103
(dp1104
g13
S'id: 6'
p1105
sbag0
(g1
g2
(lp1106
g0
(g1
g2
(lp1107
g0
(g1
g2
(lp1108
g0
(g1
g2
(lp1109
Vthe
p1110
atp1111
Rp1112
(dp1113
g13
VDT
p1114
sbag0
(g1
g2
(lp1115
Vboy
p1116
atp1117
Rp1118
(dp1119
g13
VNN
p1120
sbatp1121
Rp1122
(dp1123
g13
VNP
p1124
sbag0
(g1
g2
(lp1125
g0
(g1
g2
(lp1126
Vis
p1127
atp1128
Rp1129
(dp1130
g13
VVBZ
p1131
sbag0
(g1
g2
(lp1132
g0
(g1
g2
(lp1133
Vstanding
p1134
atp1135
Rp1136
(dp1137
g13
VVBG
p1138
sbag0
(g1
g2
(lp1139
g0
(g1
g2
(lp1140
Von
p1141
atp1142
Rp1143
(dp1144
g13
VIN
p1145
sbag0
(g1
g2
(lp1146
g0
(g1
g2
(lp1147
g0
(g1
g2
(lp1148
Va
p1149
atp1150
Rp1151
(dp1152
g13
VDT
p1153
sbag0
(g1
g2
(lp1154
Vstool
p1155
atp1156
Rp1157
(dp1158
g13
VNN
p1159
sbatp1160
Rp1161
(dp1162
g13
VNP
p1163
sbag0
(g1
g2
(lp1164
g0
(g1
g2
(lp1165
Vtrying
p1166
atp1167
Rp1168
(dp1169
g13
VVBG
p1170
sbag0
(g1
g2
(lp1171
g0
(g1
g2
(lp1172
g0
(g1
g2
(lp1173
Vto
p1174
atp1175
Rp1176
(dp1177
g13
VTO
p1178
sbag0
(g1
g2
(lp1179
g0
(g1
g2
(lp1180
Vreach
p1181
atp1182
Rp1183
(dp1184
g13
VVB
p1185
sbag0
(g1
g2
(lp1186
g0
(g1
g2
(lp1187
Vthe
p1188
atp1189
Rp1190
(dp1191
g13
VDT
p1192
sbag0
(g1
g2
(lp1193
Vcookies
p1194
atp1195
Rp1196
(dp1197
g13
VNNS
p1198
sbatp1199
Rp1200
(dp1201
g13
VNP
p1202
sbag0
(g1
g2
(lp1203
g0
(g1
g2
(lp1204
Vin
p1205
atp1206
Rp1207
(dp1208
g13
VIN
p1209
sbag0
(g1
g2
(lp1210
g0
(g1
g2
(lp1211
Vthe
p1212
atp1213
Rp1214
(dp1215
g13
VDT
p1216
sbag0
(g1
g2
(lp1217
Vcookie
p1218
atp1219
Rp1220
(dp1221
g13
VNN
p1222
sbag0
(g1
g2
(lp1223
Vjar
p1224
atp1225
Rp1226
(dp1227
g13
VNN
p1228
sbatp1229
Rp1230
(dp1231
g13
VNP
p1232
sbatp1233
Rp1234
(dp1235
g13
VPP
p1236
sbatp1237
Rp1238
(dp1239
g13
VVP
p1240
sbatp1241
Rp1242
(dp1243
g13
VVP
p1244
sbatp1245
Rp1246
(dp1247
g13
VS
p1248
sbatp1249
Rp1250
(dp1251
g13
VVP
p1252
sbatp1253
Rp1254
(dp1255
g13
VNP
p1256
sbatp1257
Rp1258
(dp1259
g13
VPP
p1260
sbag0
(g1
g2
(lp1261
g0
(g1
g2
(lp1262
Vup
p1263
atp1264
Rp1265
(dp1266
g13
VRB
p1267
sbag0
(g1
g2
(lp1268
g0
(g1
g2
(lp1269
Vin
p1270
atp1271
Rp1272
(dp1273
g13
VIN
p1274
sbag0
(g1
g2
(lp1275
g0
(g1
g2
(lp1276
Vthe
p1277
atp1278
Rp1279
(dp1280
g13
VDT
p1281
sbag0
(g1
g2
(lp1282
Vcupboard
p1283
atp1284
Rp1285
(dp1286
g13
VNN
p1287
sbatp1288
Rp1289
(dp1290
g13
VNP
p1291
sbatp1292
Rp1293
(dp1294
g13
VPP
p1295
sbatp1296
Rp1297
(dp1298
g13
VADVP
p1299
sbatp1300
Rp1301
(dp1302
g13
VVP
p1303
sbatp1304
Rp1305
(dp1306
g13
VVP
p1307
sbag0
(g1
g2
(lp1308
V.
p1309
atp1310
Rp1311
(dp1312
g13
V.
p1313
sbatp1314
Rp1315
(dp1316
g13
VS
p1317
sbatp1318
Rp1319
(dp1320
g13
S'id: 7'
p1321
sbag0
(g1
g2
(lp1322
g0
(g1
g2
(lp1323
g0
(g1
g2
(lp1324
g0
(g1
g2
(lp1325
g0
(g1
g2
(lp1326
Vwhat
p1327
atp1328
Rp1329
(dp1330
g13
VWP
p1331
sbatp1332
Rp1333
(dp1334
g13
VWHNP
p1335
sbag0
(g1
g2
(lp1336
g0
(g1
g2
(lp1337
g0
(g1
g2
(lp1338
g0
(g1
g2
(lp1339
Vhe
p1340
atp1341
Rp1342
(dp1343
g13
VPRP
p1344
sbatp1345
Rp1346
(dp1347
g13
VNP
p1348
sbag0
(g1
g2
(lp1349
g0
(g1
g2
(lp1350
Vdoes
p1351
atp1352
Rp1353
(dp1354
g13
VVBZ
p1355
sbag0
(g1
g2
(lp1356
Vn't
p1357
atp1358
Rp1359
(dp1360
g13
VRB
p1361
sbag0
(g1
g2
(lp1362
g0
(g1
g2
(lp1363
Vrealize
p1364
atp1365
Rp1366
(dp1367
g13
VVB
p1368
sbatp1369
Rp1370
(dp1371
g13
VVP
p1372
sbatp1373
Rp1374
(dp1375
g13
VVP
p1376
sbatp1377
Rp1378
(dp1379
g13
VS
p1380
sbag0
(g1
g2
(lp1381
V,
p1382
atp1383
Rp1384
(dp1385
g13
V,
p1386
sbag0
(g1
g2
(lp1387
Vor
p1388
atp1389
Rp1390
(dp1391
g13
VCC
p1392
sbag0
(g1
g2
(lp1393
g0
(g1
g2
(lp1394
g0
(g1
g2
(lp1395
Vi
p1396
atp1397
Rp1398
(dp1399
g13
VFW
p1400
sbatp1401
Rp1402
(dp1403
g13
VNP
p1404
sbag0
(g1
g2
(lp1405
g0
(g1
g2
(lp1406
Vguess
p1407
atp1408
Rp1409
(dp1410
g13
VVB
p1411
sbag0
(g1
g2
(lp1412
g0
(g1
g2
(lp1413
Vhis
p1414
atp1415
Rp1416
(dp1417
g13
VPRP$
p1418
sbag0
(g1
g2
(lp1419
Vmistake
p1420
atp1421
Rp1422
(dp1423
g13
VNN
p1424
sbatp1425
Rp1426
(dp1427
g13
VNP
p1428
sbatp1429
Rp1430
(dp1431
g13
VVP
p1432
sbatp1433
Rp1434
(dp1435
g13
VS
p1436
sbatp1437
Rp1438
(dp1439
g13
VS
p1440
sbatp1441
Rp1442
(dp1443
g13
VSBAR
p1444
sbag0
(g1
g2
(lp1445
g0
(g1
g2
(lp1446
Vwas
p1447
atp1448
Rp1449
(dp1450
g13
VVBD
p1451
sbag0
(g1
g2
(lp1452
g0
(g1
g2
(lp1453
Vthat
p1454
atp1455
Rp1456
(dp1457
g13
VIN
p1458
sbag0
(g1
g2
(lp1459
g0
(g1
g2
(lp1460
g0
(g1
g2
(lp1461
g0
(g1
g2
(lp1462
Vhe
p1463
atp1464
Rp1465
(dp1466
g13
VPRP
p1467
sbatp1468
Rp1469
(dp1470
g13
VNP
p1471
sbag0
(g1
g2
(lp1472
g0
(g1
g2
(lp1473
V's
p1474
atp1475
Rp1476
(dp1477
g13
VVBZ
p1478
sbag0
(g1
g2
(lp1479
g0
(g1
g2
(lp1480
Vlosing
p1481
atp1482
Rp1483
(dp1484
g13
VVBG
p1485
sbag0
(g1
g2
(lp1486
g0
(g1
g2
(lp1487
Vhis
p1488
atp1489
Rp1490
(dp1491
g13
VPRP$
p1492
sbag0
(g1
g2
(lp1493
Vbalance
p1494
atp1495
Rp1496
(dp1497
g13
VNN
p1498
sbatp1499
Rp1500
(dp1501
g13
VNP
p1502
sbatp1503
Rp1504
(dp1505
g13
VVP
p1506
sbatp1507
Rp1508
(dp1509
g13
VVP
p1510
sbatp1511
Rp1512
(dp1513
g13
VS
p1514
sbag0
(g1
g2
(lp1515
Vand
p1516
atp1517
Rp1518
(dp1519
g13
VCC
p1520
sbag0
(g1
g2
(lp1521
g0
(g1
g2
(lp1522
g0
(g1
g2
(lp1523
Vthe
p1524
atp1525
Rp1526
(dp1527
g13
VDT
p1528
sbag0
(g1
g2
(lp1529
Vstool
p1530
atp1531
Rp1532
(dp1533
g13
VNN
p1534
sbatp1535
Rp1536
(dp1537
g13
VNP
p1538
sbag0
(g1
g2
(lp1539
g0
(g1
g2
(lp1540
Vis
p1541
atp1542
Rp1543
(dp1544
g13
VVBZ
p1545
sbag0
(g1
g2
(lp1546
g0
(g1
g2
(lp1547
Vfalling
p1548
atp1549
Rp1550
(dp1551
g13
VVBG
p1552
sbag0
(g1
g2
(lp1553
g0
(g1
g2
(lp1554
Vover
p1555
atp1556
Rp1557
(dp1558
g13
VIN
p1559
sbag0
(g1
g2
(lp1560
g0
(g1
g2
(lp1561
Vto
p1562
atp1563
Rp1564
(dp1565
g13
VTO
p1566
sbag0
(g1
g2
(lp1567
g0
(g1
g2
(lp1568
Vthe
p1569
atp1570
Rp1571
(dp1572
g13
VDT
p1573
sbag0
(g1
g2
(lp1574
Vright
p1575
atp1576
Rp1577
(dp1578
g13
VNN
p1579
sbatp1580
Rp1581
(dp1582
g13
VNP
p1583
sbatp1584
Rp1585
(dp1586
g13
VPP
p1587
sbatp1588
Rp1589
(dp1590
g13
VPP
p1591
sbatp1592
Rp1593
(dp1594
g13
VVP
p1595
sbatp1596
Rp1597
(dp1598
g13
VVP
p1599
sbatp1600
Rp1601
(dp1602
g13
VS
p1603
sbatp1604
Rp1605
(dp1606
g13
VS
p1607
sbatp1608
Rp1609
(dp1610
g13
VSBAR
p1611
sbatp1612
Rp1613
(dp1614
g13
VVP
p1615
sbag0
(g1
g2
(lp1616
V.
p1617
atp1618
Rp1619
(dp1620
g13
V.
p1621
sbatp1622
Rp1623
(dp1624
g13
VS
p1625
sbatp1626
Rp1627
(dp1628
g13
S'id: 8'
p1629
sbag0
(g1
g2
(lp1630
g0
(g1
g2
(lp1631
g0
(g1
g2
(lp1632
g0
(g1
g2
(lp1633
Vhis
p1634
atp1635
Rp1636
(dp1637
g13
VPRP$
p1638
sbag0
(g1
g2
(lp1639
Vsister
p1640
atp1641
Rp1642
(dp1643
g13
VNN
p1644
sbatp1645
Rp1646
(dp1647
g13
VNP
p1648
sbag0
(g1
g2
(lp1649
g0
(g1
g2
(lp1650
Vis
p1651
atp1652
Rp1653
(dp1654
g13
VVBZ
p1655
sbag0
(g1
g2
(lp1656
V,
p1657
atp1658
Rp1659
(dp1660
g13
V,
p1661
sbag0
(g1
g2
(lp1662
g0
(g1
g2
(lp1663
Von
p1664
atp1665
Rp1666
(dp1667
g13
VIN
p1668
sbag0
(g1
g2
(lp1669
g0
(g1
g2
(lp1670
Vthe
p1671
atp1672
Rp1673
(dp1674
g13
VDT
p1675
sbag0
(g1
g2
(lp1676
Vfloor
p1677
atp1678
Rp1679
(dp1680
g13
VNN
p1681
sbatp1682
Rp1683
(dp1684
g13
VNP
p1685
sbatp1686
Rp1687
(dp1688
g13
VPP
p1689
sbag0
(g1
g2
(lp1690
V,
p1691
atp1692
Rp1693
(dp1694
g13
V,
p1695
sbag0
(g1
g2
(lp1696
g0
(g1
g2
(lp1697
Vstanding
p1698
atp1699
Rp1700
(dp1701
g13
VVBG
p1702
sbag0
(g1
g2
(lp1703
g0
(g1
g2
(lp1704
Von
p1705
atp1706
Rp1707
(dp1708
g13
VIN
p1709
sbag0
(g1
g2
(lp1710
g0
(g1
g2
(lp1711
Vthe
p1712
atp1713
Rp1714
(dp1715
g13
VDT
p1716
sbag0
(g1
g2
(lp1717
Vfloor
p1718
atp1719
Rp1720
(dp1721
g13
VNN
p1722
sbatp1723
Rp1724
(dp1725
g13
VNP
p1726
sbatp1727
Rp1728
(dp1729
g13
VPP
p1730
sbatp1731
Rp1732
(dp1733
g13
VVP
p1734
sbatp1735
Rp1736
(dp1737
g13
VVP
p1738
sbag0
(g1
g2
(lp1739
V.
p1740
atp1741
Rp1742
(dp1743
g13
V.
p1744
sbatp1745
Rp1746
(dp1747
g13
VS
p1748
sbatp1749
Rp1750
(dp1751
g13
S'id: 9'
p1752
sbag0
(g1
g2
(lp1753
g0
(g1
g2
(lp1754
g0
(g1
g2
(lp1755
g0
(g1
g2
(lp1756
g0
(g1
g2
(lp1757
Vshe
p1758
atp1759
Rp1760
(dp1761
g13
VPRP
p1762
sbatp1763
Rp1764
(dp1765
g13
VNP
p1766
sbag0
(g1
g2
(lp1767
g0
(g1
g2
(lp1768
V's
p1769
atp1770
Rp1771
(dp1772
g13
VVBZ
p1773
sbag0
(g1
g2
(lp1774
g0
(g1
g2
(lp1775
Vreaching
p1776
atp1777
Rp1778
(dp1779
g13
VVBG
p1780
sbag0
(g1
g2
(lp1781
g0
(g1
g2
(lp1782
Vup
p1783
atp1784
Rp1785
(dp1786
g13
VRP
p1787
sbatp1788
Rp1789
(dp1790
g13
VPRT
p1791
sbag0
(g1
g2
(lp1792
g0
(g1
g2
(lp1793
g0
(g1
g2
(lp1794
Vto
p1795
atp1796
Rp1797
(dp1798
g13
VTO
p1799
sbag0
(g1
g2
(lp1800
g0
(g1
g2
(lp1801
Vget
p1802
atp1803
Rp1804
(dp1805
g13
VVB
p1806
sbag0
(g1
g2
(lp1807
g0
(g1
g2
(lp1808
Vthe
p1809
atp1810
Rp1811
(dp1812
g13
VDT
p1813
sbag0
(g1
g2
(lp1814
Vcookie
p1815
atp1816
Rp1817
(dp1818
g13
VNN
p1819
sbatp1820
Rp1821
(dp1822
g13
VNP
p1823
sbag0
(g1
g2
(lp1824
g0
(g1
g2
(lp1825
Vfrom
p1826
atp1827
Rp1828
(dp1829
g13
VIN
p1830
sbag0
(g1
g2
(lp1831
g0
(g1
g2
(lp1832
Vher
p1833
atp1834
Rp1835
(dp1836
g13
VPRP$
p1837
sbag0
(g1
g2
(lp1838
Vbrother
p1839
atp1840
Rp1841
(dp1842
g13
VNN
p1843
sbatp1844
Rp1845
(dp1846
g13
VNP
p1847
sbatp1848
Rp1849
(dp1850
g13
VPP
p1851
sbatp1852
Rp1853
(dp1854
g13
VVP
p1855
sbatp1856
Rp1857
(dp1858
g13
VVP
p1859
sbatp1860
Rp1861
(dp1862
g13
VS
p1863
sbatp1864
Rp1865
(dp1866
g13
VVP
p1867
sbatp1868
Rp1869
(dp1870
g13
VVP
p1871
sbatp1872
Rp1873
(dp1874
g13
VS
p1875
sbag0
(g1
g2
(lp1876
Vand
p1877
atp1878
Rp1879
(dp1880
g13
VCC
p1881
sbag0
(g1
g2
(lp1882
g0
(g1
g2
(lp1883
g0
(g1
g2
(lp1884
Vshe
p1885
atp1886
Rp1887
(dp1888
g13
VPRP
p1889
sbatp1890
Rp1891
(dp1892
g13
VNP
p1893
sbag0
(g1
g2
(lp1894
g0
(g1
g2
(lp1895
Vseems
p1896
atp1897
Rp1898
(dp1899
g13
VVBZ
p1900
sbag0
(g1
g2
(lp1901
g0
(g1
g2
(lp1902
Vlike
p1903
atp1904
Rp1905
(dp1906
g13
VIN
p1907
sbag0
(g1
g2
(lp1908
g0
(g1
g2
(lp1909
g0
(g1
g2
(lp1910
Vmaybe
p1911
atp1912
Rp1913
(dp1914
g13
VRB
p1915
sbatp1916
Rp1917
(dp1918
g13
VADVP
p1919
sbag0
(g1
g2
(lp1920
g0
(g1
g2
(lp1921
Vshe
p1922
atp1923
Rp1924
(dp1925
g13
VPRP
p1926
sbatp1927
Rp1928
(dp1929
g13
VNP
p1930
sbag0
(g1
g2
(lp1931
g0
(g1
g2
(lp1932
V's
p1933
atp1934
Rp1935
(dp1936
g13
VVBZ
p1937
sbag0
(g1
g2
(lp1938
g0
(g1
g2
(lp1939
Vlaughing
p1940
atp1941
Rp1942
(dp1943
g13
VVBG
p1944
sbag0
(g1
g2
(lp1945
g0
(g1
g2
(lp1946
Vat
p1947
atp1948
Rp1949
(dp1950
g13
VIN
p1951
sbag0
(g1
g2
(lp1952
g0
(g1
g2
(lp1953
Vher
p1954
atp1955
Rp1956
(dp1957
g13
VPRP$
p1958
sbag0
(g1
g2
(lp1959
Vbrother
p1960
atp1961
Rp1962
(dp1963
g13
VNN
p1964
sbatp1965
Rp1966
(dp1967
g13
VNP
p1968
sbatp1969
Rp1970
(dp1971
g13
VPP
p1972
sbag0
(g1
g2
(lp1973
g0
(g1
g2
(lp1974
Valso
p1975
atp1976
Rp1977
(dp1978
g13
VRB
p1979
sbatp1980
Rp1981
(dp1982
g13
VADVP
p1983
sbatp1984
Rp1985
(dp1986
g13
VVP
p1987
sbatp1988
Rp1989
(dp1990
g13
VVP
p1991
sbatp1992
Rp1993
(dp1994
g13
VS
p1995
sbatp1996
Rp1997
(dp1998
g13
VSBAR
p1999
sbatp2000
Rp2001
(dp2002
g13
VVP
p2003
sbatp2004
Rp2005
(dp2006
g13
VS
p2007
sbag0
(g1
g2
(lp2008
V.
p2009
atp2010
Rp2011
(dp2012
g13
V.
p2013
sbatp2014
Rp2015
(dp2016
g13
VS
p2017
sbatp2018
Rp2019
(dp2020
g13
S'id: 10'
p2021
sbag0
(g1
g2
(lp2022
g0
(g1
g2
(lp2023
g0
(g1
g2
(lp2024
g0
(g1
g2
(lp2025
Vin
p2026
atp2027
Rp2028
(dp2029
g13
VIN
p2030
sbag0
(g1
g2
(lp2031
g0
(g1
g2
(lp2032
Vthe
p2033
atp2034
Rp2035
(dp2036
g13
VDT
p2037
sbag0
(g1
g2
(lp2038
Vwindow
p2039
atp2040
Rp2041
(dp2042
g13
VNN
p2043
sbatp2044
Rp2045
(dp2046
g13
VNP
p2047
sbatp2048
Rp2049
(dp2050
g13
VPP
p2051
sbag0
(g1
g2
(lp2052
g0
(g1
g2
(lp2053
Vwe
p2054
atp2055
Rp2056
(dp2057
g13
VPRP
p2058
sbatp2059
Rp2060
(dp2061
g13
VNP
p2062
sbag0
(g1
g2
(lp2063
g0
(g1
g2
(lp2064
Valso
p2065
atp2066
Rp2067
(dp2068
g13
VRB
p2069
sbatp2070
Rp2071
(dp2072
g13
VADVP
p2073
sbag0
(g1
g2
(lp2074
g0
(g1
g2
(lp2075
Vhave
p2076
atp2077
Rp2078
(dp2079
g13
VVBP
p2080
sbag0
(g1
g2
(lp2081
g0
(g1
g2
(lp2082
Vsome
p2083
atp2084
Rp2085
(dp2086
g13
VDT
p2087
sbag0
(g1
g2
(lp2088
Vcurtains
p2089
atp2090
Rp2091
(dp2092
g13
VNNS
p2093
sbatp2094
Rp2095
(dp2096
g13
VNP
p2097
sbatp2098
Rp2099
(dp2100
g13
VVP
p2101
sbag0
(g1
g2
(lp2102
V.
p2103
atp2104
Rp2105
(dp2106
g13
V.
p2107
sbatp2108
Rp2109
(dp2110
g13
VS
p2111
sbatp2112
Rp2113
(dp2114
g13
S'id: 11'
p2115
sbag0
(g1
g2
(lp2116
g0
(g1
g2
(lp2117
g0
(g1
g2
(lp2118
g0
(g1
g2
(lp2119
Vmom
p2120
atp2121
Rp2122
(dp2123
g13
VNN
p2124
sbatp2125
Rp2126
(dp2127
g13
VNP
p2128
sbag0
(g1
g2
(lp2129
g0
(g1
g2
(lp2130
Vseems
p2131
atp2132
Rp2133
(dp2134
g13
VVBZ
p2135
sbag0
(g1
g2
(lp2136
g0
(g1
g2
(lp2137
g0
(g1
g2
(lp2138
Vto
p2139
atp2140
Rp2141
(dp2142
g13
VTO
p2143
sbag0
(g1
g2
(lp2144
g0
(g1
g2
(lp2145
Vbe
p2146
atp2147
Rp2148
(dp2149
g13
VVB
p2150
sbag0
(g1
g2
(lp2151
g0
(g1
g2
(lp2152
Vwearing
p2153
atp2154
Rp2155
(dp2156
g13
VVBG
p2157
sbag0
(g1
g2
(lp2158
g0
(g1
g2
(lp2159
g0
(g1
g2
(lp2160
Va
p2161
atp2162
Rp2163
(dp2164
g13
VDT
p2165
sbag0
(g1
g2
(lp2166
Vhalf
p2167
atp2168
Rp2169
(dp2170
g13
VNN
p2171
sbag0
(g1
g2
(lp2172
Vapron
p2173
atp2174
Rp2175
(dp2176
g13
VNN
p2177
sbatp2178
Rp2179
(dp2180
g13
VNP
p2181
sbag0
(g1
g2
(lp2182
g0
(g1
g2
(lp2183
Vover
p2184
atp2185
Rp2186
(dp2187
g13
VIN
p2188
sbag0
(g1
g2
(lp2189
g0
(g1
g2
(lp2190
Vher
p2191
atp2192
Rp2193
(dp2194
g13
VPRP$
p2195
sbag0
(g1
g2
(lp2196
Vdress
p2197
atp2198
Rp2199
(dp2200
g13
VNN
p2201
sbatp2202
Rp2203
(dp2204
g13
VNP
p2205
sbatp2206
Rp2207
(dp2208
g13
VPP
p2209
sbatp2210
Rp2211
(dp2212
g13
VNP
p2213
sbatp2214
Rp2215
(dp2216
g13
VVP
p2217
sbatp2218
Rp2219
(dp2220
g13
VVP
p2221
sbatp2222
Rp2223
(dp2224
g13
VVP
p2225
sbatp2226
Rp2227
(dp2228
g13
VS
p2229
sbatp2230
Rp2231
(dp2232
g13
VVP
p2233
sbag0
(g1
g2
(lp2234
V.
p2235
atp2236
Rp2237
(dp2238
g13
V.
p2239
sbatp2240
Rp2241
(dp2242
g13
VS
p2243
sbatp2244
Rp2245
(dp2246
g13
S'id: 12'
p2247
sbag0
(g1
g2
(lp2248
g0
(g1
g2
(lp2249
g0
(g1
g2
(lp2250
g0
(g1
g2
(lp2251
Vit
p2252
atp2253
Rp2254
(dp2255
g13
VPRP
p2256
sbatp2257
Rp2258
(dp2259
g13
VNP
p2260
sbag0
(g1
g2
(lp2261
g0
(g1
g2
(lp2262
Vmust
p2263
atp2264
Rp2265
(dp2266
g13
VMD
p2267
sbag0
(g1
g2
(lp2268
g0
(g1
g2
(lp2269
Vbe
p2270
atp2271
Rp2272
(dp2273
g13
VVB
p2274
sbag0
(g1
g2
(lp2275
g0
(g1
g2
(lp2276
Vwarm
p2277
atp2278
Rp2279
(dp2280
g13
VJJ
p2281
sbag0
(g1
g2
(lp2282
Vweather
p2283
atp2284
Rp2285
(dp2286
g13
VNN
p2287
sbatp2288
Rp2289
(dp2290
g13
VNP
p2291
sbag0
(g1
g2
(lp2292
g0
(g1
g2
(lp2293
Vbecause
p2294
atp2295
Rp2296
(dp2297
g13
VIN
p2298
sbag0
(g1
g2
(lp2299
g0
(g1
g2
(lp2300
g0
(g1
g2
(lp2301
g0
(g1
g2
(lp2302
g0
(g1
g2
(lp2303
Vthe
p2304
atp2305
Rp2306
(dp2307
g13
VDT
p2308
sbag0
(g1
g2
(lp2309
Vbrother
p2310
atp2311
Rp2312
(dp2313
g13
VNN
p2314
sbag0
(g1
g2
(lp2315
Vand
p2316
atp2317
Rp2318
(dp2319
g13
VCC
p2320
sbag0
(g1
g2
(lp2321
Vsister
p2322
atp2323
Rp2324
(dp2325
g13
VNN
p2326
sbatp2327
Rp2328
(dp2329
g13
VNP
p2330
sbag0
(g1
g2
(lp2331
V,
p2332
atp2333
Rp2334
(dp2335
g13
V,
p2336
sbag0
(g1
g2
(lp2337
g0
(g1
g2
(lp2338
g0
(g1
g2
(lp2339
Vthe
p2340
atp2341
Rp2342
(dp2343
g13
VDT
p2344
sbag0
(g1
g2
(lp2345
Vboy
p2346
atp2347
Rp2348
(dp2349
g13
VNN
p2350
sbag0
(g1
g2
(lp2351
V's
p2352
atp2353
Rp2354
(dp2355
g13
VPOS
p2356
sbatp2357
Rp2358
(dp2359
g13
VNP
p2360
sbag0
(g1
g2
(lp2361
Vwearing
p2362
atp2363
Rp2364
(dp2365
g13
VVBG
p2366
sbag0
(g1
g2
(lp2367
Vshorts
p2368
atp2369
Rp2370
(dp2371
g13
VNNS
p2372
sbatp2373
Rp2374
(dp2375
g13
VNP
p2376
sbatp2377
Rp2378
(dp2379
g13
VNP
p2380
sbag0
(g1
g2
(lp2381
Vand
p2382
atp2383
Rp2384
(dp2385
g13
VCC
p2386
sbag0
(g1
g2
(lp2387
g0
(g1
g2
(lp2388
g0
(g1
g2
(lp2389
Va
p2390
atp2391
Rp2392
(dp2393
g13
VDT
p2394
sbag0
(g1
g2
(lp2395
Vshort
p2396
atp2397
Rp2398
(dp2399
g13
VJJ
p2400
sbag0
(g1
g2
(lp2401
Vsleeve
p2402
atp2403
Rp2404
(dp2405
g13
VNN
p2406
sbag0
(g1
g2
(lp2407
Vshirt
p2408
atp2409
Rp2410
(dp2411
g13
VNN
p2412
sbatp2413
Rp2414
(dp2415
g13
VNP
p2416
sbag0
(g1
g2
(lp2417
Vand
p2418
atp2419
Rp2420
(dp2421
g13
VCC
p2422
sbag0
(g1
g2
(lp2423
g0
(g1
g2
(lp2424
Vhis
p2425
atp2426
Rp2427
(dp2428
g13
VPRP$
p2429
sbag0
(g1
g2
(lp2430
Vsister
p2431
atp2432
Rp2433
(dp2434
g13
VNN
p2435
sbatp2436
Rp2437
(dp2438
g13
VNP
p2439
sbatp2440
Rp2441
(dp2442
g13
VNP
p2443
sbatp2444
Rp2445
(dp2446
g13
VNP
p2447
sbag0
(g1
g2
(lp2448
g0
(g1
g2
(lp2449
Vhas
p2450
atp2451
Rp2452
(dp2453
g13
VVBZ
p2454
sbag0
(g1
g2
(lp2455
g0
(g1
g2
(lp2456
Va
p2457
atp2458
Rp2459
(dp2460
g13
VDT
p2461
sbag0
(g1
g2
(lp2462
Vshort
p2463
atp2464
Rp2465
(dp2466
g13
VJJ
p2467
sbag0
(g1
g2
(lp2468
Vdress
p2469
atp2470
Rp2471
(dp2472
g13
VNN
p2473
sbatp2474
Rp2475
(dp2476
g13
VNP
p2477
sbag0
(g1
g2
(lp2478
g0
(g1
g2
(lp2479
Von
p2480
atp2481
Rp2482
(dp2483
g13
VIN
p2484
sbatp2485
Rp2486
(dp2487
g13
VPP
p2488
sbatp2489
Rp2490
(dp2491
g13
VVP
p2492
sbatp2493
Rp2494
(dp2495
g13
VS
p2496
sbatp2497
Rp2498
(dp2499
g13
VSBAR
p2500
sbatp2501
Rp2502
(dp2503
g13
VVP
p2504
sbatp2505
Rp2506
(dp2507
g13
VVP
p2508
sbag0
(g1
g2
(lp2509
V.
p2510
atp2511
Rp2512
(dp2513
g13
V.
p2514
sbatp2515
Rp2516
(dp2517
g13
VS
p2518
sbatp2519
Rp2520
(dp2521
g13
S'id: 13'
p2522
sbag0
(g1
g2
(lp2523
g0
(g1
g2
(lp2524
g0
(g1
g2
(lp2525
VAnd
p2526
atp2527
Rp2528
(dp2529
g13
VCC
p2530
sbag0
(g1
g2
(lp2531
g0
(g1
g2
(lp2532
Vthat
p2533
atp2534
Rp2535
(dp2536
g13
VDT
p2537
sbatp2538
Rp2539
(dp2540
g13
VNP
p2541
sbag0
(g1
g2
(lp2542
g0
(g1
g2
(lp2543
V's
p2544
atp2545
Rp2546
(dp2547
g13
VVBZ
p2548
sbag0
(g1
g2
(lp2549
g0
(g1
g2
(lp2550
g0
(g1
g2
(lp2551
Vall
p2552
atp2553
Rp2554
(dp2555
g13
VDT
p2556
sbatp2557
Rp2558
(dp2559
g13
VNP
p2560
sbag0
(g1
g2
(lp2561
g0
(g1
g2
(lp2562
g0
(g1
g2
(lp2563
g0
(g1
g2
(lp2564
VI
p2565
atp2566
Rp2567
(dp2568
g13
VPRP
p2569
sbatp2570
Rp2571
(dp2572
g13
VNP
p2573
sbag0
(g1
g2
(lp2574
g0
(g1
g2
(lp2575
Vcan
p2576
atp2577
Rp2578
(dp2579
g13
VMD
p2580
sbag0
(g1
g2
(lp2581
g0
(g1
g2
(lp2582
Vsee
p2583
atp2584
Rp2585
(dp2586
g13
VVB
p2587
sbatp2588
Rp2589
(dp2590
g13
VVP
p2591
sbatp2592
Rp2593
(dp2594
g13
VVP
p2595
sbatp2596
Rp2597
(dp2598
g13
VS
p2599
sbatp2600
Rp2601
(dp2602
g13
VSBAR
p2603
sbatp2604
Rp2605
(dp2606
g13
VNP
p2607
sbatp2608
Rp2609
(dp2610
g13
VVP
p2611
sbag0
(g1
g2
(lp2612
V.
p2613
atp2614
Rp2615
(dp2616
g13
V.
p2617
sbatp2618
Rp2619
(dp2620
g13
VS
p2621
sbatp2622
Rp2623
(dp2624
g13
S'id: 14'
p2625
sbatp2626
Rp2627
(dp2628
g13
S'sentences'
p2629
sb.