ccopy_reg
_reconstructor
p0
(cnltk.tree
Tree
p1
c__builtin__
list
p2
(lp3
g0
(g1
g2
(lp4
g0
(g1
g2
(lp5
g0
(g1
g2
(lp6
Vthe lady
p7
atp8
Rp9
(dp10
S'_label'
p11
S'start: 2'
p12
sbatp13
Rp14
(dp15
g11
S'sent: 3'
p16
sbag0
(g1
g2
(lp17
g0
(g1
g2
(lp18
Vpourin ' a glass of wine
p19
atp20
Rp21
(dp22
g11
S'start: 5'
p23
sbatp24
Rp25
(dp26
g11
S'sent: 3'
p27
sbatp28
Rp29
(dp30
g11
S'id: 3'
p31
sbag0
(g1
g2
(lp32
g0
(g1
g2
(lp33
g0
(g1
g2
(lp34
Vthey
p35
atp36
Rp37
(dp38
g11
S'start: 1'
p39
sbatp40
Rp41
(dp42
g11
S'sent: 4'
p43
sbag0
(g1
g2
(lp44
g0
(g1
g2
(lp45
Vtheir
p46
atp47
Rp48
(dp49
g11
S'start: 3'
p50
sbatp51
Rp52
(dp53
g11
S'sent: 4'
p54
sbatp55
Rp56
(dp57
g11
S'id: 6'
p58
sbag0
(g1
g2
(lp59
g0
(g1
g2
(lp60
g0
(g1
g2
(lp61
Vtheir radio
p62
atp63
Rp64
(dp65
g11
S'start: 3'
p66
sbatp67
Rp68
(dp69
g11
S'sent: 4'
p70
sbag0
(g1
g2
(lp71
g0
(g1
g2
(lp72
Vit
p73
atp74
Rp75
(dp76
g11
S'start: 2'
p77
sbatp78
Rp79
(dp80
g11
S'sent: 5'
p81
sbag0
(g1
g2
(lp82
g0
(g1
g2
(lp83
Vit
p84
atp85
Rp86
(dp87
g11
S'start: 5'
p88
sbatp89
Rp90
(dp91
g11
S'sent: 5'
p92
sbatp93
Rp94
(dp95
g11
S'id: 7'
p96
sbag0
(g1
g2
(lp97
g0
(g1
g2
(lp98
g0
(g1
g2
(lp99
Vsomeone 's
p100
atp101
Rp102
(dp103
g11
S'start: 13'
p104
sbatp105
Rp106
(dp107
g11
S'sent: 5'
p108
sbag0
(g1
g2
(lp109
g0
(g1
g2
(lp110
Vhis
p111
atp112
Rp113
(dp114
g11
S'start: 29'
p115
sbatp116
Rp117
(dp118
g11
S'sent: 5'
p119
sbag0
(g1
g2
(lp120
g0
(g1
g2
(lp121
Vhim
p122
atp123
Rp124
(dp125
g11
S'start: 35'
p126
sbatp127
Rp128
(dp129
g11
S'sent: 5'
p130
sbatp131
Rp132
(dp133
g11
S'id: 14'
p134
sbag0
(g1
g2
(lp135
g0
(g1
g2
(lp136
g0
(g1
g2
(lp137
Va sailboat out in the pond
p138
atp139
Rp140
(dp141
g11
S'start: 3'
p142
sbatp143
Rp144
(dp145
g11
S'sent: 6'
p146
sbag0
(g1
g2
(lp147
g0
(g1
g2
(lp148
Vit
p149
atp150
Rp151
(dp152
g11
S'start: 2'
p153
sbatp154
Rp155
(dp156
g11
S'sent: 7'
p157
sbag0
(g1
g2
(lp158
g0
(g1
g2
(lp159
Vit
p160
atp161
Rp162
(dp163
g11
S'start: 2'
p164
sbatp165
Rp166
(dp167
g11
S'sent: 8'
p168
sbag0
(g1
g2
(lp169
g0
(g1
g2
(lp170
Vwindy day
p171
atp172
Rp173
(dp174
g11
S'start: 4'
p175
sbatp176
Rp177
(dp178
g11
S'sent: 8'
p179
sbatp180
Rp181
(dp182
g11
S'id: 23'
p183
sbag0
(g1
g2
(lp184
g0
(g1
g2
(lp185
g0
(g1
g2
(lp186
Vthis place
p187
atp188
Rp189
(dp190
g11
S'start: 10'
p191
sbatp192
Rp193
(dp194
g11
S'sent: 10'
p195
sbag0
(g1
g2
(lp196
g0
(g1
g2
(lp197
Vtheir place
p198
atp199
Rp200
(dp201
g11
S'start: 15'
p202
sbatp203
Rp204
(dp205
g11
S'sent: 11'
p206
sbatp207
Rp208
(dp209
g11
S'id: 35'
p210
sbag0
(g1
g2
(lp211
g0
(g1
g2
(lp212
g0
(g1
g2
(lp213
VI
p214
atp215
Rp216
(dp217
g11
S'start: 2'
p218
sbatp219
Rp220
(dp221
g11
S'sent: 11'
p222
sbag0
(g1
g2
(lp223
g0
(g1
g2
(lp224
Vi
p225
atp226
Rp227
(dp228
g11
S'start: 17'
p229
sbatp230
Rp231
(dp232
g11
S'sent: 15'
p233
sbag0
(g1
g2
(lp234
g0
(g1
g2
(lp235
Vi
p236
atp237
Rp238
(dp239
g11
S'start: 2'
p240
sbatp241
Rp242
(dp243
g11
S'sent: 16'
p244
sbatp245
Rp246
(dp247
g11
S'id: 36'
p248
sbag0
(g1
g2
(lp249
g0
(g1
g2
(lp250
g0
(g1
g2
(lp251
Vthis
p252
atp253
Rp254
(dp255
g11
S'start: 7'
p256
sbatp257
Rp258
(dp259
g11
S'sent: 11'
p260
sbag0
(g1
g2
(lp261
g0
(g1
g2
(lp262
Vtheir
p263
atp264
Rp265
(dp266
g11
S'start: 15'
p267
sbatp268
Rp269
(dp270
g11
S'sent: 11'
p271
sbatp272
Rp273
(dp274
g11
S'id: 37'
p275
sbag0
(g1
g2
(lp276
g0
(g1
g2
(lp277
g0
(g1
g2
(lp278
Va house
p279
atp280
Rp281
(dp282
g11
S'start: 3'
p283
sbatp284
Rp285
(dp286
g11
S'sent: 12'
p287
sbag0
(g1
g2
(lp288
g0
(g1
g2
(lp289
Vthat
p290
atp291
Rp292
(dp293
g11
S'start: 1'
p294
sbatp295
Rp296
(dp297
g11
S'sent: 13'
p298
sbag0
(g1
g2
(lp299
g0
(g1
g2
(lp300
Vthat
p301
atp302
Rp303
(dp304
g11
S'start: 1'
p305
sbatp306
Rp307
(dp308
g11
S'sent: 14'
p309
sbag0
(g1
g2
(lp310
g0
(g1
g2
(lp311
Va big tree , that tree is probably pretty old , to be that big
p312
atp313
Rp314
(dp315
g11
S'start: 3'
p316
sbatp317
Rp318
(dp319
g11
S'sent: 14'
p320
sbag0
(g1
g2
(lp321
g0
(g1
g2
(lp322
Va big tree
p323
atp324
Rp325
(dp326
g11
S'start: 3'
p327
sbatp328
Rp329
(dp330
g11
S'sent: 14'
p331
sbatp332
Rp333
(dp334
g11
S'id: 42'
p335
sbag0
(g1
g2
(lp336
g0
(g1
g2
(lp337
g0
(g1
g2
(lp338
Vlake or recreation area
p339
atp340
Rp341
(dp342
g11
S'start: 13'
p343
sbatp344
Rp345
(dp346
g11
S'sent: 12'
p347
sbag0
(g1
g2
(lp348
g0
(g1
g2
(lp349
Vthat
p350
atp351
Rp352
(dp353
g11
S'start: 19'
p354
sbatp355
Rp356
(dp357
g11
S'sent: 12'
p358
sbatp359
Rp360
(dp361
g11
S'id: 45'
p362
sbag0
(g1
g2
(lp363
g0
(g1
g2
(lp364
g0
(g1
g2
(lp365
Vthey
p366
atp367
Rp368
(dp369
g11
S'start: 3'
p370
sbatp371
Rp372
(dp373
g11
S'sent: 15'
p374
sbag0
(g1
g2
(lp375
g0
(g1
g2
(lp376
Vthey
p377
atp378
Rp379
(dp380
g11
S'start: 19'
p381
sbatp382
Rp383
(dp384
g11
S'sent: 15'
p385
sbatp386
Rp387
(dp388
g11
S'id: 52'
p389
sbag0
(g1
g2
(lp390
g0
(g1
g2
(lp391
g0
(g1
g2
(lp392
Vthe front door
p393
atp394
Rp395
(dp396
g11
S'start: 13'
p397
sbatp398
Rp399
(dp400
g11
S'sent: 15'
p401
sbag0
(g1
g2
(lp402
g0
(g1
g2
(lp403
Vit
p404
atp405
Rp406
(dp407
g11
S'start: 23'
p408
sbatp409
Rp410
(dp411
g11
S'sent: 15'
p412
sbag0
(g1
g2
(lp413
g0
(g1
g2
(lp414
Vit
p415
atp416
Rp417
(dp418
g11
S'start: 28'
p419
sbatp420
Rp421
(dp422
g11
S'sent: 15'
p423
sbatp424
Rp425
(dp426
g11
S'id: 55'
p427
sbag0
(g1
g2
(lp428
g0
(g1
g2
(lp429
g0
(g1
g2
(lp430
Vthat car sittin ' in the front , driveway , i
p431
atp432
Rp433
(dp434
g11
S'start: 6'
p435
sbatp436
Rp437
(dp438
g11
S'sent: 16'
p439
sbag0
(g1
g2
(lp440
g0
(g1
g2
(lp441
Vit
p442
atp443
Rp444
(dp445
g11
S'start: 18'
p446
sbatp447
Rp448
(dp449
g11
S'sent: 16'
p450
sbatp451
Rp452
(dp453
g11
S'id: 63'
p454
sbag0
(g1
g2
(lp455
g0
(g1
g2
(lp456
g0
(g1
g2
(lp457
Vthe garage
p458
atp459
Rp460
(dp461
g11
S'start: 23'
p462
sbatp463
Rp464
(dp465
g11
S'sent: 16'
p466
sbag0
(g1
g2
(lp467
g0
(g1
g2
(lp468
Vthe garage
p469
atp470
Rp471
(dp472
g11
S'start: 26'
p473
sbatp474
Rp475
(dp476
g11
S'sent: 16'
p477
sbatp478
Rp479
(dp480
g11
S'id: 66'
p481
sbatp482
Rp483
(dp484
g11
S'coreferences'
p485
sb.