ccopy_reg
_reconstructor
p0
(cnltk.tree
Tree
p1
c__builtin__
list
p2
(lp3
g0
(g1
g2
(lp4
g0
(g1
g2
(lp5
g0
(g1
g2
(lp6
g0
(g1
g2
(lp7
g0
(g1
g2
(lp8
(lp9
S'word: we, index: 3'
p10
aatp11
Rp12
(dp13
S'_label'
p14
Vprep
p15
sbatp16
Rp17
(dp18
g14
S'word: looks, index: 1'
p19
sbatp20
Rp21
(dp22
g14
Vnsubj
p23
sbag0
(g1
g2
(lp24
g0
(g1
g2
(lp25
g0
(g1
g2
(lp26
(lp27
S'word: a, index: 6'
p28
aatp29
Rp30
(dp31
g14
Vdet
p32
sbatp33
Rp34
(dp35
g14
S'word: picnic, index: 7'
p36
sbatp37
Rp38
(dp39
g14
Vprep
p40
sbag0
(g1
g2
(lp41
g0
(g1
g2
(lp42
g0
(g1
g2
(lp43
g0
(g1
g2
(lp44
g0
(g1
g2
(lp45
(lp46
S'word: the, index: 10'
p47
aatp48
Rp49
(dp50
g14
Vdet
p51
sbatp52
Rp53
(dp54
g14
S'word: lake, index: 11'
p55
sbatp56
Rp57
(dp58
g14
Vprep
p59
sbatp60
Rp61
(dp62
g14
S'word: down, index: 8'
p63
sbatp64
Rp65
(dp66
g14
Vadvmod
p67
sbatp68
Rp69
(dp70
g14
S"word: 're, index: 4"
p71
sbatp72
Rp73
(dp74
g14
S'id: 0'
p75
sbag0
(g1
g2
(lp76
g0
(g1
g2
(lp77
g0
(g1
g2
(lp78
(lp79
S'word: is, index: 3'
p80
aatp81
Rp82
(dp83
g14
Vaux
p84
sbag0
(g1
g2
(lp85
g0
(g1
g2
(lp86
g0
(g1
g2
(lp87
(lp88
S'word: a, index: 5'
p89
aatp90
Rp91
(dp92
g14
Vdet
p93
sbag0
(g1
g2
(lp94
(lp95
S'word: wine, index: 8'
p96
aatp97
Rp98
(dp99
g14
Vprep
p100
sbatp101
Rp102
(dp103
g14
S'word: glass, index: 6'
p104
sbatp105
Rp106
(dp107
g14
Vdobj
p108
sbag0
(g1
g2
(lp109
(lp110
S'word: and, index: 1'
p111
aatp112
Rp113
(dp114
g14
Vcc
p115
sbag0
(g1
g2
(lp116
(lp117
S'word: mom, index: 2'
p118
aatp119
Rp120
(dp121
g14
Vnsubj
p122
sbatp123
Rp124
(dp125
g14
S'word: pouring, index: 4'
p126
sbatp127
Rp128
(dp129
g14
S'id: 1'
p130
sbag0
(g1
g2
(lp131
g0
(g1
g2
(lp132
g0
(g1
g2
(lp133
g0
(g1
g2
(lp134
g0
(g1
g2
(lp135
(lp136
S'word: a, index: 3'
p137
aatp138
Rp139
(dp140
g14
Vdet
p141
sbag0
(g1
g2
(lp142
(lp143
S'word: nice, index: 4'
p144
aatp145
Rp146
(dp147
g14
Vamod
p148
sbag0
(g1
g2
(lp149
(lp150
S'word: picnic, index: 5'
p151
aatp152
Rp153
(dp154
g14
Vnn
p155
sbatp156
Rp157
(dp158
g14
S'word: basket, index: 6'
p159
sbatp160
Rp161
(dp162
g14
Vdobj
p163
sbag0
(g1
g2
(lp164
(lp165
S'word: there, index: 7'
p166
aatp167
Rp168
(dp169
g14
Vadvmod
p170
sbag0
(g1
g2
(lp171
(lp172
S'word: and, index: 1'
p173
aatp174
Rp175
(dp176
g14
Vcc
p177
sbatp178
Rp179
(dp180
g14
S'word: has, index: 2'
p181
sbatp182
Rp183
(dp184
g14
S'id: 2'
p185
sbag0
(g1
g2
(lp186
g0
(g1
g2
(lp187
g0
(g1
g2
(lp188
g0
(g1
g2
(lp189
g0
(g1
g2
(lp190
(lp191
S'word: while, index: 9'
p192
aatp193
Rp194
(dp195
g14
Vmark
p196
sbag0
(g1
g2
(lp197
(lp198
S'word: dad, index: 10'
p199
aatp200
Rp201
(dp202
g14
Vnsubj
p203
sbag0
(g1
g2
(lp204
(lp205
S'word: is, index: 11'
p206
aatp207
Rp208
(dp209
g14
Vaux
p210
sbatp211
Rp212
(dp213
g14
S'word: reading, index: 12'
p214
sbatp215
Rp216
(dp217
g14
Vadvcl
p218
sbag0
(g1
g2
(lp219
(lp220
S'word: and, index: 1'
p221
aatp222
Rp223
(dp224
g14
Vcc
p225
sbag0
(g1
g2
(lp226
g0
(g1
g2
(lp227
g0
(g1
g2
(lp228
(lp229
S'word: the, index: 2'
p230
aatp231
Rp232
(dp233
g14
Vdet
p234
sbag0
(g1
g2
(lp235
(lp236
S'word: boom, index: 3'
p237
aatp238
Rp239
(dp240
g14
Vnn
p241
sbatp242
Rp243
(dp244
g14
S'word: box, index: 4'
p245
sbatp246
Rp247
(dp248
g14
Vnsubj
p249
sbag0
(g1
g2
(lp250
(lp251
S'word: is, index: 5'
p252
aatp253
Rp254
(dp255
g14
Vaux
p256
sbag0
(g1
g2
(lp257
g0
(g1
g2
(lp258
g0
(g1
g2
(lp259
(lp260
S'word: some, index: 7'
p261
aatp262
Rp263
(dp264
g14
Vdet
p265
sbatp266
Rp267
(dp268
g14
S'word: music, index: 8'
p269
sbatp270
Rp271
(dp272
g14
Vdobj
p273
sbatp274
Rp275
(dp276
g14
S'word: playing, index: 6'
p277
sbatp278
Rp279
(dp280
g14
S'id: 3'
p281
sbag0
(g1
g2
(lp282
g0
(g1
g2
(lp283
g0
(g1
g2
(lp284
g0
(g1
g2
(lp285
g0
(g1
g2
(lp286
(lp287
S'word: is, index: 12'
p288
aatp289
Rp290
(dp291
g14
Vaux
p292
sbag0
(g1
g2
(lp293
(lp294
S'word: him, index: 14'
p295
aatp296
Rp297
(dp298
g14
Vdobj
p299
sbag0
(g1
g2
(lp300
(lp301
S'word: while, index: 9'
p302
aatp303
Rp304
(dp305
g14
Vmark
p306
sbag0
(g1
g2
(lp307
g0
(g1
g2
(lp308
g0
(g1
g2
(lp309
(lp310
S'word: his, index: 10'
p311
aatp312
Rp313
(dp314
g14
Vposs
p315
sbatp316
Rp317
(dp318
g14
S'word: dog, index: 11'
p319
sbatp320
Rp321
(dp322
g14
Vnsubj
p323
sbatp324
Rp325
(dp326
g14
S'word: chasing, index: 13'
p327
sbatp328
Rp329
(dp330
g14
Vadvcl
p331
sbag0
(g1
g2
(lp332
(lp333
S'word: and, index: 1'
p334
aatp335
Rp336
(dp337
g14
Vcc
p338
sbag0
(g1
g2
(lp339
g0
(g1
g2
(lp340
g0
(g1
g2
(lp341
(lp342
S'word: the, index: 2'
p343
aatp344
Rp345
(dp346
g14
Vdet
p347
sbatp348
Rp349
(dp350
g14
S'word: boy, index: 3'
p351
sbatp352
Rp353
(dp354
g14
Vnsubj
p355
sbag0
(g1
g2
(lp356
(lp357
S'word: is, index: 4'
p358
aatp359
Rp360
(dp361
g14
Vaux
p362
sbag0
(g1
g2
(lp363
g0
(g1
g2
(lp364
g0
(g1
g2
(lp365
(lp366
S'word: a, index: 7'
p367
aatp368
Rp369
(dp370
g14
Vdet
p371
sbatp372
Rp373
(dp374
g14
S'word: kite, index: 8'
p375
sbatp376
Rp377
(dp378
g14
Vdobj
p379
sbatp380
Rp381
(dp382
g14
S'word: flying, index: 6'
p383
sbatp384
Rp385
(dp386
g14
S'id: 4'
p387
sbag0
(g1
g2
(lp388
g0
(g1
g2
(lp389
g0
(g1
g2
(lp390
(lp391
S'word: there, index: 1'
p392
aatp393
Rp394
(dp395
g14
Vexpl
p396
sbag0
(g1
g2
(lp397
g0
(g1
g2
(lp398
g0
(g1
g2
(lp399
(lp400
S'word: a, index: 3'
p401
aatp402
Rp403
(dp404
g14
Vdet
p405
sbag0
(g1
g2
(lp406
g0
(g1
g2
(lp407
g0
(g1
g2
(lp408
(lp409
S'word: a, index: 6'
p410
aatp411
Rp412
(dp413
g14
Vdet
p414
sbag0
(g1
g2
(lp415
g0
(g1
g2
(lp416
g0
(g1
g2
(lp417
(lp418
S'word: who, index: 8'
p419
aatp420
Rp421
(dp422
g14
Vnsubj
p423
sbag0
(g1
g2
(lp424
g0
(g1
g2
(lp425
g0
(g1
g2
(lp426
(lp427
S'word: a, index: 10'
p428
aatp429
Rp430
(dp431
g14
Vdet
p432
sbatp433
Rp434
(dp435
g14
S'word: fish, index: 11'
p436
sbatp437
Rp438
(dp439
g14
Vdobj
p440
sbatp441
Rp442
(dp443
g14
S'word: caught, index: 9'
p444
sbatp445
Rp446
(dp447
g14
Vrcmod
p448
sbatp449
Rp450
(dp451
g14
S'word: pier, index: 7'
p452
sbatp453
Rp454
(dp455
g14
Vprep
p456
sbatp457
Rp458
(dp459
g14
S'word: man, index: 4'
p460
sbatp461
Rp462
(dp463
g14
Vnsubj
p464
sbatp465
Rp466
(dp467
g14
S"word: 's, index: 2"
p468
sbatp469
Rp470
(dp471
g14
S'id: 5'
p472
sbag0
(g1
g2
(lp473
g0
(g1
g2
(lp474
g0
(g1
g2
(lp475
(lp476
S'word: there, index: 2'
p477
aatp478
Rp479
(dp480
g14
Vexpl
p481
sbag0
(g1
g2
(lp482
g0
(g1
g2
(lp483
g0
(g1
g2
(lp484
(lp485
S'word: another, index: 4'
p486
aatp487
Rp488
(dp489
g14
Vdet
p490
sbag0
(g1
g2
(lp491
g0
(g1
g2
(lp492
g0
(g1
g2
(lp493
(lp494
S'word: who, index: 6'
p495
aatp496
Rp497
(dp498
g14
Vnsubj
p499
sbag0
(g1
g2
(lp500
g0
(g1
g2
(lp501
g0
(g1
g2
(lp502
(lp503
S'word: the, index: 9'
p504
aatp505
Rp506
(dp507
g14
Vdet
p508
sbag0
(g1
g2
(lp509
g0
(g1
g2
(lp510
g0
(g1
g2
(lp511
(lp512
S'word: who, index: 11'
p513
aatp514
Rp515
(dp516
g14
Vnsubj
p517
sbag0
(g1
g2
(lp518
(lp519
S"word: 's, index: 12"
p520
aatp521
Rp522
(dp523
g14
Vaux
p524
sbag0
(g1
g2
(lp525
g0
(g1
g2
(lp526
g0
(g1
g2
(lp527
(lp528
S'word: sand, index: 14'
p529
aatp530
Rp531
(dp532
g14
Vnn
p533
sbatp534
Rp535
(dp536
g14
S'word: castles, index: 15'
p537
sbatp538
Rp539
(dp540
g14
Vdobj
p541
sbatp542
Rp543
(dp544
g14
S'word: making, index: 13'
p545
sbatp546
Rp547
(dp548
g14
Vrcmod
p549
sbatp550
Rp551
(dp552
g14
S'word: beach, index: 10'
p553
sbatp554
Rp555
(dp556
g14
Vprep
p557
sbatp558
Rp559
(dp560
g14
S"word: 's, index: 7"
p561
sbatp562
Rp563
(dp564
g14
Vrcmod
p565
sbatp566
Rp567
(dp568
g14
S'word: girl, index: 5'
p569
sbatp570
Rp571
(dp572
g14
Vnsubj
p573
sbag0
(g1
g2
(lp574
(lp575
S'word: and, index: 1'
p576
aatp577
Rp578
(dp579
g14
Vcc
p580
sbatp581
Rp582
(dp583
g14
S"word: 's, index: 3"
p584
sbatp585
Rp586
(dp587
g14
S'id: 6'
p588
sbag0
(g1
g2
(lp589
g0
(g1
g2
(lp590
g0
(g1
g2
(lp591
g0
(g1
g2
(lp592
g0
(g1
g2
(lp593
g0
(g1
g2
(lp594
g0
(g1
g2
(lp595
(lp596
S'word: the, index: 5'
p597
aatp598
Rp599
(dp600
g14
Vdet
p601
sbag0
(g1
g2
(lp602
g0
(g1
g2
(lp603
g0
(g1
g2
(lp604
(lp605
S'word: the, index: 8'
p606
aatp607
Rp608
(dp609
g14
Vdet
p610
sbatp611
Rp612
(dp613
g14
S'word: lake, index: 9'
p614
sbatp615
Rp616
(dp617
g14
Vprep
p618
sbatp619
Rp620
(dp621
g14
S'word: middle, index: 6'
p622
sbatp623
Rp624
(dp625
g14
Vnsubj
p626
sbag0
(g1
g2
(lp627
(lp628
S'word: is, index: 10'
p629
aatp630
Rp631
(dp632
g14
Vcop
p633
sbag0
(g1
g2
(lp634
(lp635
S'word: a, index: 11'
p636
aatp637
Rp638
(dp639
g14
Vdet
p640
sbag0
(g1
g2
(lp641
g0
(g1
g2
(lp642
g0
(g1
g2
(lp643
(lp644
S'word: that, index: 13'
p645
aatp646
Rp647
(dp648
g14
Vnsubj
p649
sbag0
(g1
g2
(lp650
(lp651
S"word: 's, index: 14"
p652
aatp653
Rp654
(dp655
g14
Vaux
p656
sbag0
(g1
g2
(lp657
(lp658
S'word: down, index: 17'
p659
aatp660
Rp661
(dp662
g14
Vprt
p663
sbag0
(g1
g2
(lp664
g0
(g1
g2
(lp665
g0
(g1
g2
(lp666
(lp667
S'word: the, index: 18'
p668
aatp669
Rp670
(dp671
g14
Vdet
p672
sbatp673
Rp674
(dp675
g14
S'word: lake, index: 19'
p676
sbatp677
Rp678
(dp679
g14
Vdobj
p680
sbatp681
Rp682
(dp683
g14
S'word: sailing, index: 16'
p684
sbatp685
Rp686
(dp687
g14
Vrcmod
p688
sbag0
(g1
g2
(lp689
(lp690
S'word: in, index: 4'
p691
aatp692
Rp693
(dp694
g14
Vmark
p695
sbatp696
Rp697
(dp698
g14
S'word: boat, index: 12'
p699
sbatp700
Rp701
(dp702
g14
Vadvcl
p703
sbag0
(g1
g2
(lp704
(lp705
S'word: and, index: 1'
p706
aatp707
Rp708
(dp709
g14
Vcc
p710
sbag0
(g1
g2
(lp711
(lp712
S'word: way, index: 2'
p713
aatp714
Rp715
(dp716
g14
Vdep
p717
sbatp718
Rp719
(dp720
g14
S'word: out, index: 3'
p721
sbatp722
Rp723
(dp724
g14
S'id: 7'
p725
sbatp726
Rp727
(dp728
g14
S'sentences'
p729
sb.