ccopy_reg
_reconstructor
p0
(cnltk.tree
Tree
p1
c__builtin__
list
p2
(lp3
g0
(g1
g2
(lp4
tp5
Rp6
(dp7
S'_label'
p8
S'id: 0'
p9
sbag0
(g1
g2
(lp10
g0
(g1
g2
(lp11
g0
(g1
g2
(lp12
g0
(g1
g2
(lp13
g0
(g1
g2
(lp14
g0
(g1
g2
(lp15
g0
(g1
g2
(lp16
(lp17
S'word: the, index: 5'
p18
aatp19
Rp20
(dp21
g8
Vdet
p22
sbag0
(g1
g2
(lp23
g0
(g1
g2
(lp24
g0
(g1
g2
(lp25
(lp26
S'word: the, index: 8'
p27
aatp28
Rp29
(dp30
g8
Vdet
p31
sbag0
(g1
g2
(lp32
(lp33
S"word: 's, index: 10"
p34
aatp35
Rp36
(dp37
g8
Vpossessive
p38
sbatp39
Rp40
(dp41
g8
S'word: sink, index: 9'
p42
sbatp43
Rp44
(dp45
g8
Vappos
p46
sbatp47
Rp48
(dp49
g8
S'word: dishes, index: 6'
p50
sbatp51
Rp52
(dp53
g8
Vnsubj
p54
sbatp55
Rp56
(dp57
g8
S'word: overflowed, index: 11'
p58
sbatp59
Rp60
(dp61
g8
Vconj
p62
sbag0
(g1
g2
(lp63
g0
(g1
g2
(lp64
g0
(g1
g2
(lp65
g0
(g1
g2
(lp66
g0
(g1
g2
(lp67
(lp68
S'word: a, index: 19'
p69
aatp70
Rp71
(dp72
g8
Vdet
p73
sbatp74
Rp75
(dp76
g8
S'word: stool, index: 20'
p77
sbatp78
Rp79
(dp80
g8
Vprep
p81
sbag0
(g1
g2
(lp82
g0
(g1
g2
(lp83
g0
(g1
g2
(lp84
g0
(g1
g2
(lp85
g0
(g1
g2
(lp86
(lp87
S'word: the, index: 23'
p88
aatp89
Rp90
(dp91
g8
Vdet
p92
sbag0
(g1
g2
(lp93
(lp94
S'word: cabinet, index: 24'
p95
aatp96
Rp97
(dp98
g8
Vnn
p99
sbatp100
Rp101
(dp102
g8
S'word: jar, index: 25'
p103
sbatp104
Rp105
(dp106
g8
Vprep
p107
sbag0
(g1
g2
(lp108
g0
(g1
g2
(lp109
g0
(g1
g2
(lp110
(lp111
S'word: to, index: 26'
p112
aatp113
Rp114
(dp115
g8
Vaux
p116
sbag0
(g1
g2
(lp117
(lp118
S'word: cookies, index: 28'
p119
aatp120
Rp121
(dp122
g8
Vdobj
p123
sbatp124
Rp125
(dp126
g8
S'word: get, index: 27'
p127
sbatp128
Rp129
(dp130
g8
Vxcomp
p131
sbatp132
Rp133
(dp134
g8
S'word: going, index: 21'
p135
sbatp136
Rp137
(dp138
g8
Vvmod
p139
sbag0
(g1
g2
(lp140
(lp141
S'word: the, index: 14'
p142
aatp143
Rp144
(dp145
g8
Vdet
p146
sbag0
(g1
g2
(lp147
(lp148
S'word: little, index: 15'
p149
aatp150
Rp151
(dp152
g8
Vamod
p153
sbatp154
Rp155
(dp156
g8
S'word: boy, index: 16'
p157
sbatp158
Rp159
(dp160
g8
Vconj
p161
sbag0
(g1
g2
(lp162
g0
(g1
g2
(lp163
g0
(g1
g2
(lp164
(lp165
S'word: he, index: 30'
p166
aatp167
Rp168
(dp169
g8
Vnsubj
p170
sbag0
(g1
g2
(lp171
(lp172
S'word: is, index: 31'
p173
aatp174
Rp175
(dp176
g8
Vaux
p177
sbag0
(g1
g2
(lp178
g0
(g1
g2
(lp179
g0
(g1
g2
(lp180
(lp181
S'word: over, index: 35'
p182
aatp183
Rp184
(dp185
g8
Vprt
p186
sbag0
(g1
g2
(lp187
(lp188
S'word: to, index: 33'
p189
aatp190
Rp191
(dp192
g8
Vaux
p193
sbatp194
Rp195
(dp196
g8
S'word: fall, index: 34'
p197
sbatp198
Rp199
(dp200
g8
Vxcomp
p201
sbatp202
Rp203
(dp204
g8
S'word: about, index: 32'
p205
sbatp206
Rp207
(dp208
g8
Vconj
p209
sbag0
(g1
g2
(lp210
(lp211
S'word: mother, index: 1'
p212
aatp213
Rp214
(dp215
g8
Vnsubj
p216
sbag0
(g1
g2
(lp217
(lp218
S'word: is, index: 2'
p219
aatp220
Rp221
(dp222
g8
Vcop
p223
sbatp224
Rp225
(dp226
g8
S'word: doin, index: 3'
p227
sbatp228
Rp229
(dp230
g8
S'id: 1'
p231
sbag0
(g1
g2
(lp232
g0
(g1
g2
(lp233
g0
(g1
g2
(lp234
g0
(g1
g2
(lp235
g0
(g1
g2
(lp236
g0
(g1
g2
(lp237
g0
(g1
g2
(lp238
(lp239
S'word: the, index: 8'
p240
aatp241
Rp242
(dp243
g8
Vdet
p244
sbatp245
Rp246
(dp247
g8
S'word: cookie, index: 9'
p248
sbatp249
Rp250
(dp251
g8
Vprep
p252
sbag0
(g1
g2
(lp253
(lp254
S'word: and, index: 1'
p255
aatp256
Rp257
(dp258
g8
Vcc
p259
sbag0
(g1
g2
(lp260
g0
(g1
g2
(lp261
g0
(g1
g2
(lp262
(lp263
S'word: the, index: 2'
p264
aatp265
Rp266
(dp267
g8
Vdet
p268
sbag0
(g1
g2
(lp269
(lp270
S'word: little, index: 3'
p271
aatp272
Rp273
(dp274
g8
Vamod
p275
sbatp276
Rp277
(dp278
g8
S'word: girl, index: 4'
p279
sbatp280
Rp281
(dp282
g8
Vnsubj
p283
sbag0
(g1
g2
(lp284
(lp285
S'word: is, index: 5'
p286
aatp287
Rp288
(dp289
g8
Vaux
p290
sbatp291
Rp292
(dp293
g8
S'word: reaching, index: 6'
p294
sbatp295
Rp296
(dp297
g8
Vccomp
p298
sbag0
(g1
g2
(lp299
(lp300
S'word: not, index: 23'
p301
aatp302
Rp303
(dp304
g8
Vadvcl
p305
sbag0
(g1
g2
(lp306
(lp307
S'word: i, index: 11'
p308
aatp309
Rp310
(dp311
g8
Vnsubj
p312
sbag0
(g1
g2
(lp313
(lp314
S'word: do, index: 12'
p315
aatp316
Rp317
(dp318
g8
Vaux
p319
sbag0
(g1
g2
(lp320
(lp321
S"word: n't, index: 13"
p322
aatp323
Rp324
(dp325
g8
Vneg
p326
sbag0
(g1
g2
(lp327
g0
(g1
g2
(lp328
g0
(g1
g2
(lp329
(lp330
S'word: not, index: 23'
p331
aatp332
Rp333
(dp334
g8
Vconj
p335
sbag0
(g1
g2
(lp336
(lp337
S'word: if, index: 15'
p338
aatp339
Rp340
(dp341
g8
Vmark
p342
sbag0
(g1
g2
(lp343
(lp344
S'word: she, index: 16'
p345
aatp346
Rp347
(dp348
g8
Vnsubj
p349
sbag0
(g1
g2
(lp350
(lp351
S"word: 's, index: 17"
p352
aatp353
Rp354
(dp355
g8
Vaux
p356
sbag0
(g1
g2
(lp357
g0
(g1
g2
(lp358
g0
(g1
g2
(lp359
(lp360
S'word: na, index: 19'
p361
aatp362
Rp363
(dp364
g8
Vaux
p365
sbag0
(g1
g2
(lp366
(lp367
S'word: it, index: 21'
p368
aatp369
Rp370
(dp371
g8
Vdobj
p372
sbatp373
Rp374
(dp375
g8
S'word: get, index: 20'
p376
sbatp377
Rp378
(dp379
g8
Vxcomp
p380
sbatp381
Rp382
(dp383
g8
S'word: gon, index: 18'
p384
sbatp385
Rp386
(dp387
g8
Vadvcl
p388
sbatp389
Rp390
(dp391
g8
S'word: know, index: 14'
p392
sbatp393
Rp394
(dp395
g8
S'id: 2'
p396
sbag0
(g1
g2
(lp397
g0
(g1
g2
(lp398
g0
(g1
g2
(lp399
(lp400
S'word: she, index: 9'
p401
aatp402
Rp403
(dp404
g8
Vnsubj
p405
sbag0
(g1
g2
(lp406
(lp407
S'word: better, index: 10'
p408
aatp409
Rp410
(dp411
g8
Vadvmod
p412
sbag0
(g1
g2
(lp413
g0
(g1
g2
(lp414
g0
(g1
g2
(lp415
(lp416
S'word: a, index: 12'
p417
aatp418
Rp419
(dp420
g8
Vdet
p421
sbatp422
Rp423
(dp424
g8
S'word: plumber, index: 13'
p425
sbatp426
Rp427
(dp428
g8
Vdobj
p429
sbag0
(g1
g2
(lp430
(lp431
S'word: and, index: 1'
p432
aatp433
Rp434
(dp435
g8
Vcc
p436
sbag0
(g1
g2
(lp437
g0
(g1
g2
(lp438
g0
(g1
g2
(lp439
(lp440
S'word: what, index: 2'
p441
aatp442
Rp443
(dp444
g8
Vnsubj
p445
sbag0
(g1
g2
(lp446
(lp447
S'word: is, index: 3'
p448
aatp449
Rp450
(dp451
g8
Vcop
p452
sbag0
(g1
g2
(lp453
g0
(g1
g2
(lp454
g0
(g1
g2
(lp455
g0
(g1
g2
(lp456
g0
(g1
g2
(lp457
(lp458
S'word: na, index: 6'
p459
aatp460
Rp461
(dp462
g8
Vaux
p463
sbatp464
Rp465
(dp466
g8
S'word: do, index: 7'
p467
sbatp468
Rp469
(dp470
g8
Vxcomp
p471
sbatp472
Rp473
(dp474
g8
S'word: gon, index: 5'
p475
sbatp476
Rp477
(dp478
g8
Vvmod
p479
sbatp480
Rp481
(dp482
g8
S'word: mother, index: 4'
p483
sbatp484
Rp485
(dp486
g8
Vadvcl
p487
sbatp488
Rp489
(dp490
g8
S'word: call, index: 11'
p491
sbatp492
Rp493
(dp494
g8
S'id: 3'
p495
sbag0
(g1
g2
(lp496
g0
(g1
g2
(lp497
g0
(g1
g2
(lp498
g0
(g1
g2
(lp499
g0
(g1
g2
(lp500
(lp501
S'word: she, index: 3'
p502
aatp503
Rp504
(dp505
g8
Vprep
p506
sbatp507
Rp508
(dp509
g8
S'word: looks, index: 1'
p510
sbatp511
Rp512
(dp513
g8
Vnsubjpass
p514
sbag0
(g1
g2
(lp515
(lp516
S"word: 's, index: 4"
p517
aatp518
Rp519
(dp520
g8
Vauxpass
p521
sbag0
(g1
g2
(lp522
g0
(g1
g2
(lp523
g0
(g1
g2
(lp524
(lp525
S'word: a, index: 6'
p526
aatp527
Rp528
(dp529
g8
Vdet
p530
sbatp531
Rp532
(dp533
g8
S'word: problem, index: 7'
p534
sbatp535
Rp536
(dp537
g8
Vdobj
p538
sbag0
(g1
g2
(lp539
(lp540
S'word: there, index: 8'
p541
aatp542
Rp543
(dp544
g8
Vadvmod
p545
sbatp546
Rp547
(dp548
g8
S'word: got, index: 5'
p549
sbatp550
Rp551
(dp552
g8
S'id: 4'
p553
sbag0
(g1
g2
(lp554
g0
(g1
g2
(lp555
g0
(g1
g2
(lp556
(lp557
S'word: oh, index: 1'
p558
aatp559
Rp560
(dp561
g8
Vdiscourse
p562
sbag0
(g1
g2
(lp563
(lp564
S'word: my, index: 2'
p565
aatp566
Rp567
(dp568
g8
Vnsubj
p569
sbag0
(g1
g2
(lp570
(lp571
S'word: this, index: 3'
p572
aatp573
Rp574
(dp575
g8
Vadvmod
p576
sbag0
(g1
g2
(lp577
(lp578
S'word: could, index: 4'
p579
aatp580
Rp581
(dp582
g8
Vaux
p583
sbag0
(g1
g2
(lp584
(lp585
S'word: be, index: 5'
p586
aatp587
Rp588
(dp589
g8
Vcop
p590
sbatp591
Rp592
(dp593
g8
S'word: disastrous, index: 6'
p594
sbatp595
Rp596
(dp597
g8
S'id: 5'
p598
sbag0
(g1
g2
(lp599
g0
(g1
g2
(lp600
g0
(g1
g2
(lp601
(lp602
S"word: 'll, index: 2"
p603
aatp604
Rp605
(dp606
g8
Vaux
p607
sbag0
(g1
g2
(lp608
(lp609
S'word: never, index: 3'
p610
aatp611
Rp612
(dp613
g8
Vneg
p614
sbag0
(g1
g2
(lp615
g0
(g1
g2
(lp616
g0
(g1
g2
(lp617
(lp618
S'word: that, index: 5'
p619
aatp620
Rp621
(dp622
g8
Vdet
p623
sbatp624
Rp625
(dp626
g8
S'word: dish, index: 6'
p627
sbatp628
Rp629
(dp630
g8
Vdobj
p631
sbag0
(g1
g2
(lp632
(lp633
S'word: she, index: 1'
p634
aatp635
Rp636
(dp637
g8
Vnsubj
p638
sbatp639
Rp640
(dp641
g8
S'word: dry, index: 4'
p642
sbatp643
Rp644
(dp645
g8
S'id: 6'
p646
sbag0
(g1
g2
(lp647
g0
(g1
g2
(lp648
g0
(g1
g2
(lp649
g0
(g1
g2
(lp650
g0
(g1
g2
(lp651
g0
(g1
g2
(lp652
g0
(g1
g2
(lp653
(lp654
S'word: that, index: 3'
p655
aatp656
Rp657
(dp658
g8
Vdet
p659
sbag0
(g1
g2
(lp660
(lp661
S'word: little, index: 4'
p662
aatp663
Rp664
(dp665
g8
Vamod
p666
sbatp667
Rp668
(dp669
g8
S'word: boy, index: 5'
p670
sbatp671
Rp672
(dp673
g8
Vnsubj
p674
sbag0
(g1
g2
(lp675
(lp676
S'word: because, index: 1'
p677
aatp678
Rp679
(dp680
g8
Vmark
p681
sbag0
(g1
g2
(lp682
(lp683
S'word: if, index: 2'
p684
aatp685
Rp686
(dp687
g8
Vmark
p688
sbatp689
Rp690
(dp691
g8
S'word: falls, index: 6'
p692
sbatp693
Rp694
(dp695
g8
Vadvcl
p696
sbag0
(g1
g2
(lp697
(lp698
S'word: it, index: 7'
p699
aatp700
Rp701
(dp702
g8
Vnsubj
p703
sbag0
(g1
g2
(lp704
(lp705
S'word: could, index: 8'
p706
aatp707
Rp708
(dp709
g8
Vaux
p710
sbag0
(g1
g2
(lp711
(lp712
S'word: be, index: 9'
p713
aatp714
Rp715
(dp716
g8
Vcop
p717
sbatp718
Rp719
(dp720
g8
S'word: bad, index: 10'
p721
sbatp722
Rp723
(dp724
g8
S'id: 7'
p725
sbag0
(g1
g2
(lp726
g0
(g1
g2
(lp727
g0
(g1
g2
(lp728
g0
(g1
g2
(lp729
g0
(g1
g2
(lp730
g0
(g1
g2
(lp731
g0
(g1
g2
(lp732
(lp733
S'word: the, index: 9'
p734
aatp735
Rp736
(dp737
g8
Vdet
p738
sbag0
(g1
g2
(lp739
(lp740
S'word: i, index: 12'
p741
aatp742
Rp743
(dp744
g8
Vconj
p745
sbatp746
Rp747
(dp748
g8
S'word: floor, index: 10'
p749
sbatp750
Rp751
(dp752
g8
Vnsubj
p753
sbag0
(g1
g2
(lp754
(lp755
S'word: i, index: 12'
p756
aatp757
Rp758
(dp759
g8
Vnsubj
p760
sbag0
(g1
g2
(lp761
g0
(g1
g2
(lp762
g0
(g1
g2
(lp763
(lp764
S'word: it, index: 14'
p765
aatp766
Rp767
(dp768
g8
Vnsubj
p769
sbag0
(g1
g2
(lp770
(lp771
S"word: 's, index: 15"
p772
aatp773
Rp774
(dp775
g8
Vcop
p776
sbag0
(g1
g2
(lp777
g0
(g1
g2
(lp778
g0
(g1
g2
(lp779
(lp780
S'word: hard, index: 16'
p781
aatp782
Rp783
(dp784
g8
Vamod
p785
sbatp786
Rp787
(dp788
g8
S'word: hard, index: 17'
p789
sbatp790
Rp791
(dp792
g8
Vamod
p793
sbatp794
Rp795
(dp796
g8
S'word: floor, index: 18'
p797
sbatp798
Rp799
(dp800
g8
Vccomp
p801
sbatp802
Rp803
(dp804
g8
S'word: bet, index: 13'
p805
sbatp806
Rp807
(dp808
g8
Vconj
p809
sbag0
(g1
g2
(lp810
g0
(g1
g2
(lp811
g0
(g1
g2
(lp812
(lp813
S'word: his, index: 1'
p814
aatp815
Rp816
(dp817
g8
Vposs
p818
sbatp819
Rp820
(dp821
g8
S'word: head, index: 2'
p822
sbatp823
Rp824
(dp825
g8
Vnsubj
p826
sbag0
(g1
g2
(lp827
(lp828
S'word: could, index: 3'
p829
aatp830
Rp831
(dp832
g8
Vaux
p833
sbag0
(g1
g2
(lp834
g0
(g1
g2
(lp835
g0
(g1
g2
(lp836
(lp837
S'word: counter, index: 6'
p838
aatp839
Rp840
(dp841
g8
Vadvmod
p842
sbatp843
Rp844
(dp845
g8
S'word: that, index: 5'
p846
sbatp847
Rp848
(dp849
g8
Vadvmod
p850
sbatp851
Rp852
(dp853
g8
S'word: hit, index: 4'
p854
sbatp855
Rp856
(dp857
g8
S'id: 8'
p858
sbag0
(g1
g2
(lp859
g0
(g1
g2
(lp860
g0
(g1
g2
(lp861
g0
(g1
g2
(lp862
g0
(g1
g2
(lp863
g0
(g1
g2
(lp864
g0
(g1
g2
(lp865
(lp866
S'word: cabinet, index: 10'
p867
aatp868
Rp869
(dp870
g8
Vposs
p871
sbatp872
Rp873
(dp874
g8
S'word: door, index: 12'
p875
sbatp876
Rp877
(dp878
g8
Vnsubj
p879
sbag0
(g1
g2
(lp880
(lp881
S'word: is, index: 13'
p882
aatp883
Rp884
(dp885
g8
Vcop
p886
sbatp887
Rp888
(dp889
g8
S'word: open, index: 14'
p890
sbatp891
Rp892
(dp893
g8
Vparataxis
p894
sbag0
(g1
g2
(lp895
(lp896
S'word: oh, index: 1'
p897
aatp898
Rp899
(dp900
g8
Vdiscourse
p901
sbag0
(g1
g2
(lp902
(lp903
S'word: they, index: 2'
p904
aatp905
Rp906
(dp907
g8
Vnsubj
p908
sbag0
(g1
g2
(lp909
g0
(g1
g2
(lp910
g0
(g1
g2
(lp911
(lp912
S'word: maybe, index: 16'
p913
aatp914
Rp915
(dp916
g8
Vadvmod
p917
sbag0
(g1
g2
(lp918
(lp919
S'word: that, index: 17'
p920
aatp921
Rp922
(dp923
g8
Vnsubj
p924
sbag0
(g1
g2
(lp925
g0
(g1
g2
(lp926
g0
(g1
g2
(lp927
(lp928
S'word: where, index: 19'
p929
aatp930
Rp931
(dp932
g8
Vadvmod
p933
sbag0
(g1
g2
(lp934
(lp935
S'word: mama, index: 20'
p936
aatp937
Rp938
(dp939
g8
Vnsubj
p940
sbag0
(g1
g2
(lp941
g0
(g1
g2
(lp942
g0
(g1
g2
(lp943
(lp944
S'word: the, index: 22'
p945
aatp946
Rp947
(dp948
g8
Vdet
p949
sbatp950
Rp951
(dp952
g8
S'word: plates, index: 23'
p953
sbatp954
Rp955
(dp956
g8
Vdobj
p957
sbatp958
Rp959
(dp960
g8
S'word: puts, index: 21'
p961
sbatp962
Rp963
(dp964
g8
Vadvcl
p965
sbatp966
Rp967
(dp968
g8
S"word: 's, index: 18"
p969
sbatp970
Rp971
(dp972
g8
Vparataxis
p973
sbag0
(g1
g2
(lp974
(lp975
S"word: 've, index: 3"
p976
aatp977
Rp978
(dp979
g8
Vaux
p980
sbag0
(g1
g2
(lp981
g0
(g1
g2
(lp982
g0
(g1
g2
(lp983
(lp984
S'word: another, index: 6'
p985
aatp986
Rp987
(dp988
g8
Vdet
p989
sbatp990
Rp991
(dp992
g8
S'word: cabinet, index: 7'
p993
sbatp994
Rp995
(dp996
g8
Vprep
p997
sbag0
(g1
g2
(lp998
(lp999
S'word: too, index: 8'
p1000
aatp1001
Rp1002
(dp1003
g8
Vadvmod
p1004
sbatp1005
Rp1006
(dp1007
g8
S'word: been, index: 4'
p1008
sbatp1009
Rp1010
(dp1011
g8
S'id: 9'
p1012
sbag0
(g1
g2
(lp1013
g0
(g1
g2
(lp1014
g0
(g1
g2
(lp1015
(lp1016
S'word: Maybe, index: 1'
p1017
aatp1018
Rp1019
(dp1020
g8
Vadvmod
p1021
sbag0
(g1
g2
(lp1022
(lp1023
S'word: that, index: 2'
p1024
aatp1025
Rp1026
(dp1027
g8
Vnsubj
p1028
sbag0
(g1
g2
(lp1029
(lp1030
S"word: 's, index: 3"
p1031
aatp1032
Rp1033
(dp1034
g8
Vcop
p1035
sbag0
(g1
g2
(lp1036
(lp1037
S'word: not, index: 4'
p1038
aatp1039
Rp1040
(dp1041
g8
Vneg
p1042
sbag0
(g1
g2
(lp1043
(lp1044
S'word: the, index: 5'
p1045
aatp1046
Rp1047
(dp1048
g8
Vdet
p1049
sbag0
(g1
g2
(lp1050
(lp1051
S'word: cookie, index: 6'
p1052
aatp1053
Rp1054
(dp1055
g8
Vnn
p1056
sbag0
(g1
g2
(lp1057
g0
(g1
g2
(lp1058
g0
(g1
g2
(lp1059
(lp1060
S'word: the, index: 10'
p1061
aatp1062
Rp1063
(dp1064
g8
Vdet
p1065
sbag0
(g1
g2
(lp1066
(lp1067
S'word: snack, index: 11'
p1068
aatp1069
Rp1070
(dp1071
g8
Vnn
p1072
sbatp1073
Rp1074
(dp1075
g8
S'word: cabinet, index: 12'
p1076
sbatp1077
Rp1078
(dp1079
g8
Vconj
p1080
sbatp1081
Rp1082
(dp1083
g8
S'word: cab, index: 7'
p1084
sbatp1085
Rp1086
(dp1087
g8
S'id: 10'
p1088
sbag0
(g1
g2
(lp1089
tp1090
Rp1091
(dp1092
g8
S'id: 11'
p1093
sbag0
(g1
g2
(lp1094
g0
(g1
g2
(lp1095
g0
(g1
g2
(lp1096
(lp1097
S"word: 've, index: 4"
p1098
aatp1099
Rp1100
(dp1101
g8
Vaux
p1102
sbag0
(g1
g2
(lp1103
(lp1104
S'word: almost, index: 5'
p1105
aatp1106
Rp1107
(dp1108
g8
Vadvmod
p1109
sbag0
(g1
g2
(lp1110
(lp1111
S'word: snow, index: 7'
p1112
aatp1113
Rp1114
(dp1115
g8
Vdobj
p1116
sbag0
(g1
g2
(lp1117
g0
(g1
g2
(lp1118
g0
(g1
g2
(lp1119
(lp1120
S'word: there, index: 9'
p1121
aatp1122
Rp1123
(dp1124
g8
Vpobj
p1125
sbatp1126
Rp1127
(dp1128
g8
S'word: out, index: 8'
p1129
sbatp1130
Rp1131
(dp1132
g8
Vprep
p1133
sbag0
(g1
g2
(lp1134
g0
(g1
g2
(lp1135
g0
(g1
g2
(lp1136
(lp1137
S'word: the, index: 11'
p1138
aatp1139
Rp1140
(dp1141
g8
Vdet
p1142
sbatp1143
Rp1144
(dp1145
g8
S'word: ground, index: 12'
p1146
sbatp1147
Rp1148
(dp1149
g8
Vprep
p1150
sbag0
(g1
g2
(lp1151
g0
(g1
g2
(lp1152
g0
(g1
g2
(lp1153
(lp1154
S'word: they, index: 3'
p1155
aatp1156
Rp1157
(dp1158
g8
Vprep
p1159
sbatp1160
Rp1161
(dp1162
g8
S'word: looks, index: 1'
p1163
sbatp1164
Rp1165
(dp1166
g8
Vnsubj
p1167
sbatp1168
Rp1169
(dp1170
g8
S'word: got, index: 6'
p1171
sbatp1172
Rp1173
(dp1174
g8
S'id: 12'
p1175
sbag0
(g1
g2
(lp1176
g0
(g1
g2
(lp1177
g0
(g1
g2
(lp1178
g0
(g1
g2
(lp1179
g0
(g1
g2
(lp1180
(lp1181
S"word: 're, index: 7"
p1182
aatp1183
Rp1184
(dp1185
g8
Vauxpass
p1186
sbag0
(g1
g2
(lp1187
(lp1188
S'word: snow, index: 10'
p1189
aatp1190
Rp1191
(dp1192
g8
Vprep
p1193
sbag0
(g1
g2
(lp1194
(lp1195
S'word: like, index: 5'
p1196
aatp1197
Rp1198
(dp1199
g8
Vmark
p1200
sbag0
(g1
g2
(lp1201
(lp1202
S'word: they, index: 6'
p1203
aatp1204
Rp1205
(dp1206
g8
Vnsubjpass
p1207
sbatp1208
Rp1209
(dp1210
g8
S'word: covered, index: 8'
p1211
sbatp1212
Rp1213
(dp1214
g8
Vadvcl
p1215
sbag0
(g1
g2
(lp1216
g0
(g1
g2
(lp1217
g0
(g1
g2
(lp1218
(lp1219
S'word: the, index: 1'
p1220
aatp1221
Rp1222
(dp1223
g8
Vdet
p1224
sbatp1225
Rp1226
(dp1227
g8
S'word: bushes, index: 2'
p1228
sbatp1229
Rp1230
(dp1231
g8
Vnsubj
p1232
sbag0
(g1
g2
(lp1233
(lp1234
S'word: just, index: 3'
p1235
aatp1236
Rp1237
(dp1238
g8
Vadvmod
p1239
sbatp1240
Rp1241
(dp1242
g8
S'word: look, index: 4'
p1243
sbatp1244
Rp1245
(dp1246
g8
S'id: 13'
p1247
sbag0
(g1
g2
(lp1248
g0
(g1
g2
(lp1249
g0
(g1
g2
(lp1250
(lp1251
S'word: but, index: 1'
p1252
aatp1253
Rp1254
(dp1255
g8
Vcc
p1256
sbag0
(g1
g2
(lp1257
g0
(g1
g2
(lp1258
g0
(g1
g2
(lp1259
(lp1260
S'word: the, index: 2'
p1261
aatp1262
Rp1263
(dp1264
g8
Vdet
p1265
sbatp1266
Rp1267
(dp1268
g8
S'word: window, index: 3'
p1269
sbatp1270
Rp1271
(dp1272
g8
Vnsubj
p1273
sbag0
(g1
g2
(lp1274
g0
(g1
g2
(lp1275
g0
(g1
g2
(lp1276
(lp1277
S'word: like, index: 5'
p1278
aatp1279
Rp1280
(dp1281
g8
Vmark
p1282
sbag0
(g1
g2
(lp1283
(lp1284
S'word: it, index: 6'
p1285
aatp1286
Rp1287
(dp1288
g8
Vnsubj
p1289
sbag0
(g1
g2
(lp1290
(lp1291
S'word: up, index: 8'
p1292
aatp1293
Rp1294
(dp1295
g8
Vadvmod
p1296
sbatp1297
Rp1298
(dp1299
g8
S"word: 's, index: 7"
p1300
sbatp1301
Rp1302
(dp1303
g8
Vadvcl
p1304
sbatp1305
Rp1306
(dp1307
g8
S'word: looks, index: 4'
p1308
sbatp1309
Rp1310
(dp1311
g8
S'id: 14'
p1312
sbag0
(g1
g2
(lp1313
g0
(g1
g2
(lp1314
g0
(g1
g2
(lp1315
(lp1316
S'word: oh, index: 1'
p1317
aatp1318
Rp1319
(dp1320
g8
Vdep
p1321
sbag0
(g1
g2
(lp1322
g0
(g1
g2
(lp1323
g0
(g1
g2
(lp1324
(lp1325
S'word: my, index: 2'
p1326
aatp1327
Rp1328
(dp1329
g8
Vposs
p1330
sbag0
(g1
g2
(lp1331
(lp1332
S'word: mother, index: 3'
p1333
aatp1334
Rp1335
(dp1336
g8
Vposs
p1337
sbatp1338
Rp1339
(dp1340
g8
S'word: standin, index: 5'
p1341
sbatp1342
Rp1343
(dp1344
g8
Vdep
p1345
sbag0
(g1
g2
(lp1346
(lp1347
S'word: water, index: 8'
p1348
aatp1349
Rp1350
(dp1351
g8
Vpobj
p1352
sbag0
(g1
g2
(lp1353
(lp1354
S'word: now, index: 9'
p1355
aatp1356
Rp1357
(dp1358
g8
Vadvmod
p1359
sbatp1360
Rp1361
(dp1362
g8
S'word: in, index: 7'
p1363
sbatp1364
Rp1365
(dp1366
g8
S'id: 15'
p1367
sbag0
(g1
g2
(lp1368
g0
(g1
g2
(lp1369
g0
(g1
g2
(lp1370
(lp1371
S'word: that, index: 1'
p1372
aatp1373
Rp1374
(dp1375
g8
Vnsubj
p1376
sbag0
(g1
g2
(lp1377
(lp1378
S"word: 's, index: 2"
p1379
aatp1380
Rp1381
(dp1382
g8
Vcop
p1383
sbag0
(g1
g2
(lp1384
(lp1385
S'word: not, index: 3'
p1386
aatp1387
Rp1388
(dp1389
g8
Vneg
p1390
sbatp1391
Rp1392
(dp1393
g8
S'word: good, index: 4'
p1394
sbatp1395
Rp1396
(dp1397
g8
S'id: 16'
p1398
sbag0
(g1
g2
(lp1399
g0
(g1
g2
(lp1400
g0
(g1
g2
(lp1401
g0
(g1
g2
(lp1402
g0
(g1
g2
(lp1403
(lp1404
S'word: all, index: 5'
p1405
aatp1406
Rp1407
(dp1408
g8
Vdet
p1409
sbag0
(g1
g2
(lp1410
g0
(g1
g2
(lp1411
g0
(g1
g2
(lp1412
g0
(g1
g2
(lp1413
g0
(g1
g2
(lp1414
(lp1415
S'word: that, index: 10'
p1416
aatp1417
Rp1418
(dp1419
g8
Vdet
p1420
sbatp1421
Rp1422
(dp1423
g8
S'word: kitchen, index: 11'
p1424
sbatp1425
Rp1426
(dp1427
g8
Vprep
p1428
sbatp1429
Rp1430
(dp1431
g8
S'word: accidents, index: 8'
p1432
sbatp1433
Rp1434
(dp1435
g8
Vprep
p1436
sbatp1437
Rp1438
(dp1439
g8
S'word: kinds, index: 6'
p1440
sbatp1441
Rp1442
(dp1443
g8
Vdobj
p1444
sbag0
(g1
g2
(lp1445
g0
(g1
g2
(lp1446
g0
(g1
g2
(lp1447
(lp1448
S'word: they, index: 1'
p1449
aatp1450
Rp1451
(dp1452
g8
Vnsubj
p1453
sbatp1454
Rp1455
(dp1456
g8
S'word: gon, index: 2'
p1457
sbatp1458
Rp1459
(dp1460
g8
Vccomp
p1461
sbatp1462
Rp1463
(dp1464
g8
S'word: have, index: 4'
p1465
sbatp1466
Rp1467
(dp1468
g8
S'id: 17'
p1469
sbag0
(g1
g2
(lp1470
g0
(g1
g2
(lp1471
g0
(g1
g2
(lp1472
(lp1473
S'word: it, index: 1'
p1474
aatp1475
Rp1476
(dp1477
g8
Vnsubj
p1478
sbag0
(g1
g2
(lp1479
(lp1480
S'word: like, index: 3'
p1481
aatp1482
Rp1483
(dp1484
g8
Vprep
p1485
sbatp1486
Rp1487
(dp1488
g8
S'word: looks, index: 2'
p1489
sbatp1490
Rp1491
(dp1492
g8
S'id: 18'
p1493
sbatp1494
Rp1495
(dp1496
g8
S'sentences'
p1497
sb.