ccopy_reg
_reconstructor
p0
(cnltk.tree
Tree
p1
c__builtin__
list
p2
(lp3
g0
(g1
g2
(lp4
g0
(g1
g2
(lp5
g0
(g1
g2
(lp6
g0
(g1
g2
(lp7
Vokay
p8
atp9
Rp10
(dp11
S'_label'
p12
VJJ
p13
sbatp14
Rp15
(dp16
g12
VADJP
p17
sbag0
(g1
g2
(lp18
g0
(g1
g2
(lp19
V,
p20
atp21
Rp22
(dp23
g12
V,
p24
sbag0
(g1
g2
(lp25
g0
(g1
g2
(lp26
g0
(g1
g2
(lp27
g0
(g1
g2
(lp28
Vso
p29
atp30
Rp31
(dp32
g12
VRB
p33
sbatp34
Rp35
(dp36
g12
VADVP
p37
sbag0
(g1
g2
(lp38
V,
p39
atp40
Rp41
(dp42
g12
V,
p43
sbag0
(g1
g2
(lp44
g0
(g1
g2
(lp45
Vwe
p46
atp47
Rp48
(dp49
g12
VPRP
p50
sbatp51
Rp52
(dp53
g12
VNP
p54
sbag0
(g1
g2
(lp55
g0
(g1
g2
(lp56
V're
p57
atp58
Rp59
(dp60
g12
VVBP
p61
sbag0
(g1
g2
(lp62
g0
(g1
g2
(lp63
Vat
p64
atp65
Rp66
(dp67
g12
VIN
p68
sbag0
(g1
g2
(lp69
g0
(g1
g2
(lp70
Va
p71
atp72
Rp73
(dp74
g12
VDT
p75
sbag0
(g1
g2
(lp76
Vcircus
p77
atp78
Rp79
(dp80
g12
VNN
p81
sbatp82
Rp83
(dp84
g12
VNP
p85
sbatp86
Rp87
(dp88
g12
VPP
p89
sbatp90
Rp91
(dp92
g12
VVP
p93
sbatp94
Rp95
(dp96
g12
VS
p97
sbag0
(g1
g2
(lp98
V,
p99
atp100
Rp101
(dp102
g12
V,
p103
sbag0
(g1
g2
(lp104
Vand
p105
atp106
Rp107
(dp108
g12
VCC
p109
sbag0
(g1
g2
(lp110
g0
(g1
g2
(lp111
g0
(g1
g2
(lp112
Vi
p113
atp114
Rp115
(dp116
g12
VFW
p117
sbatp118
Rp119
(dp120
g12
VNP
p121
sbag0
(g1
g2
(lp122
g0
(g1
g2
(lp123
Vsee
p124
atp125
Rp126
(dp127
g12
VVB
p128
sbag0
(g1
g2
(lp129
g0
(g1
g2
(lp130
g0
(g1
g2
(lp131
Va
p132
atp133
Rp134
(dp135
g12
VDT
p136
sbag0
(g1
g2
(lp137
Vclown
p138
atp139
Rp140
(dp141
g12
VNN
p142
sbatp143
Rp144
(dp145
g12
VNP
p146
sbag0
(g1
g2
(lp147
g0
(g1
g2
(lp148
g0
(g1
g2
(lp149
Vwho
p150
atp151
Rp152
(dp153
g12
VWP
p154
sbatp155
Rp156
(dp157
g12
VWHNP
p158
sbatp159
Rp160
(dp161
g12
VSBAR
p162
sbatp163
Rp164
(dp165
g12
VNP
p166
sbatp167
Rp168
(dp169
g12
VVP
p170
sbatp171
Rp172
(dp173
g12
VSQ
p174
sbatp175
Rp176
(dp177
g12
VS
p178
sbag0
(g1
g2
(lp179
V,
p180
atp181
Rp182
(dp183
g12
V,
p184
sbatp185
Rp186
(dp187
g12
VPRN
p188
sbag0
(g1
g2
(lp189
g0
(g1
g2
(lp190
Vthrew
p191
atp192
Rp193
(dp194
g12
VVBD
p195
sbatp196
Rp197
(dp198
g12
VVP
p199
sbag0
(g1
g2
(lp200
g0
(g1
g2
(lp201
g0
(g1
g2
(lp202
Vsome
p203
atp204
Rp205
(dp206
g12
VDT
p207
sbag0
(g1
g2
(lp208
Vpopcorn
p209
atp210
Rp211
(dp212
g12
VNN
p213
sbatp214
Rp215
(dp216
g12
VNP
p217
sbag0
(g1
g2
(lp218
g0
(g1
g2
(lp219
Von
p220
atp221
Rp222
(dp223
g12
VIN
p224
sbag0
(g1
g2
(lp225
g0
(g1
g2
(lp226
Vsome
p227
atp228
Rp229
(dp230
g12
VDT
p231
sbag0
(g1
g2
(lp232
Vlittle
p233
atp234
Rp235
(dp236
g12
VJJ
p237
sbag0
(g1
g2
(lp238
Vkids
p239
atp240
Rp241
(dp242
g12
VNNS
p243
sbatp244
Rp245
(dp246
g12
VNP
p247
sbatp248
Rp249
(dp250
g12
VPP
p251
sbatp252
Rp253
(dp254
g12
VNP
p255
sbag0
(g1
g2
(lp256
V.
p257
atp258
Rp259
(dp260
g12
V.
p261
sbatp262
Rp263
(dp264
g12
VSINV
p265
sbatp266
Rp267
(dp268
g12
S'id: 0'
p269
sbag0
(g1
g2
(lp270
g0
(g1
g2
(lp271
g0
(g1
g2
(lp272
Vand
p273
atp274
Rp275
(dp276
g12
VCC
p277
sbag0
(g1
g2
(lp278
g0
(g1
g2
(lp279
g0
(g1
g2
(lp280
Va
p281
atp282
Rp283
(dp284
g12
VDT
p285
sbag0
(g1
g2
(lp286
Vlion
p287
atp288
Rp289
(dp290
g12
VNN
p291
sbag0
(g1
g2
(lp292
Vtamer
p293
atp294
Rp295
(dp296
g12
VJJR
p297
sbatp298
Rp299
(dp300
g12
VNP
p301
sbag0
(g1
g2
(lp302
g0
(g1
g2
(lp303
Vin
p304
atp305
Rp306
(dp307
g12
VIN
p308
sbag0
(g1
g2
(lp309
g0
(g1
g2
(lp310
Vthe
p311
atp312
Rp313
(dp314
g12
VDT
p315
sbag0
(g1
g2
(lp316
Vcage
p317
atp318
Rp319
(dp320
g12
VNN
p321
sbatp322
Rp323
(dp324
g12
VNP
p325
sbatp326
Rp327
(dp328
g12
VPP
p329
sbatp330
Rp331
(dp332
g12
VNP
p333
sbag0
(g1
g2
(lp334
V,
p335
atp336
Rp337
(dp338
g12
V,
p339
sbag0
(g1
g2
(lp340
g0
(g1
g2
(lp341
Vhas
p342
atp343
Rp344
(dp345
g12
VVBZ
p346
sbag0
(g1
g2
(lp347
g0
(g1
g2
(lp348
g0
(g1
g2
(lp349
Vthe
p350
atp351
Rp352
(dp353
g12
VDT
p354
sbag0
(g1
g2
(lp355
Vlion
p356
atp357
Rp358
(dp359
g12
VNN
p360
sbatp361
Rp362
(dp363
g12
VNP
p364
sbag0
(g1
g2
(lp365
g0
(g1
g2
(lp366
Vstanding
p367
atp368
Rp369
(dp370
g12
VVBG
p371
sbag0
(g1
g2
(lp372
g0
(g1
g2
(lp373
Vup
p374
atp375
Rp376
(dp377
g12
VRP
p378
sbatp379
Rp380
(dp381
g12
VPRT
p382
sbag0
(g1
g2
(lp383
g0
(g1
g2
(lp384
Von
p385
atp386
Rp387
(dp388
g12
VIN
p389
sbag0
(g1
g2
(lp390
g0
(g1
g2
(lp391
Vthe
p392
atp393
Rp394
(dp395
g12
VDT
p396
sbag0
(g1
g2
(lp397
Vstool
p398
atp399
Rp400
(dp401
g12
VNN
p402
sbatp403
Rp404
(dp405
g12
VNP
p406
sbatp407
Rp408
(dp409
g12
VPP
p410
sbatp411
Rp412
(dp413
g12
VVP
p414
sbatp415
Rp416
(dp417
g12
VNP
p418
sbatp419
Rp420
(dp421
g12
VVP
p422
sbag0
(g1
g2
(lp423
V.
p424
atp425
Rp426
(dp427
g12
V.
p428
sbatp429
Rp430
(dp431
g12
VS
p432
sbatp433
Rp434
(dp435
g12
S'id: 1'
p436
sbag0
(g1
g2
(lp437
g0
(g1
g2
(lp438
g0
(g1
g2
(lp439
Vand
p440
atp441
Rp442
(dp443
g12
VCC
p444
sbag0
(g1
g2
(lp445
g0
(g1
g2
(lp446
Vthere
p447
atp448
Rp449
(dp450
g12
VEX
p451
sbatp452
Rp453
(dp454
g12
VNP
p455
sbag0
(g1
g2
(lp456
g0
(g1
g2
(lp457
V's
p458
atp459
Rp460
(dp461
g12
VVBZ
p462
sbag0
(g1
g2
(lp463
g0
(g1
g2
(lp464
g0
(g1
g2
(lp465
g0
(g1
g2
(lp466
g0
(g1
g2
(lp467
Va
p468
atp469
Rp470
(dp471
g12
VDT
p472
sbag0
(g1
g2
(lp473
Vtightraw
p474
atp475
Rp476
(dp477
g12
VNN
p478
sbatp479
Rp480
(dp481
g12
VNP
p482
sbag0
(g1
g2
(lp483
V,
p484
atp485
Rp486
(dp487
g12
V,
p488
sbag0
(g1
g2
(lp489
g0
(g1
g2
(lp490
Vtightrope
p491
atp492
Rp493
(dp494
g12
VNN
p495
sbag0
(g1
g2
(lp496
Vwalker
p497
atp498
Rp499
(dp500
g12
VNN
p501
sbatp502
Rp503
(dp504
g12
VNP
p505
sbag0
(g1
g2
(lp506
V,
p507
atp508
Rp509
(dp510
g12
V,
p511
sbatp512
Rp513
(dp514
g12
VNP
p515
sbag0
(g1
g2
(lp516
g0
(g1
g2
(lp517
Vgoing
p518
atp519
Rp520
(dp521
g12
VVBG
p522
sbag0
(g1
g2
(lp523
g0
(g1
g2
(lp524
Vacross
p525
atp526
Rp527
(dp528
g12
VIN
p529
sbatp530
Rp531
(dp532
g12
VADVP
p533
sbatp534
Rp535
(dp536
g12
VVP
p537
sbatp538
Rp539
(dp540
g12
VNP
p541
sbag0
(g1
g2
(lp542
Vand
p543
atp544
Rp545
(dp546
g12
VCC
p547
sbag0
(g1
g2
(lp548
g0
(g1
g2
(lp549
Va
p550
atp551
Rp552
(dp553
g12
VDT
p554
sbag0
(g1
g2
(lp555
Vwoman
p556
atp557
Rp558
(dp559
g12
VNN
p560
sbatp561
Rp562
(dp563
g12
VNP
p564
sbatp565
Rp566
(dp567
g12
VNP
p568
sbag0
(g1
g2
(lp569
V,
p570
atp571
Rp572
(dp573
g12
V,
p574
sbag0
(g1
g2
(lp575
g0
(g1
g2
(lp576
Von
p577
atp578
Rp579
(dp580
g12
VIN
p581
sbag0
(g1
g2
(lp582
Va
p583
atp584
Rp585
(dp586
g12
VDT
p587
sbatp588
Rp589
(dp590
g12
VADVP
p591
sbag0
(g1
g2
(lp592
V,
p593
atp594
Rp595
(dp596
g12
V,
p597
sbag0
(g1
g2
(lp598
g0
(g1
g2
(lp599
g0
(g1
g2
(lp600
Vtop
p601
atp602
Rp603
(dp604
g12
VNN
p605
sbatp606
Rp607
(dp608
g12
VNP
p609
sbag0
(g1
g2
(lp610
g0
(g1
g2
(lp611
Vof
p612
atp613
Rp614
(dp615
g12
VIN
p616
sbag0
(g1
g2
(lp617
g0
(g1
g2
(lp618
Va
p619
atp620
Rp621
(dp622
g12
VDT
p623
sbag0
(g1
g2
(lp624
Vhorse
p625
atp626
Rp627
(dp628
g12
VNN
p629
sbatp630
Rp631
(dp632
g12
VNP
p633
sbatp634
Rp635
(dp636
g12
VPP
p637
sbatp638
Rp639
(dp640
g12
VNP
p641
sbatp642
Rp643
(dp644
g12
VVP
p645
sbag0
(g1
g2
(lp646
V.
p647
atp648
Rp649
(dp650
g12
V.
p651
sbatp652
Rp653
(dp654
g12
VS
p655
sbatp656
Rp657
(dp658
g12
S'id: 2'
p659
sbag0
(g1
g2
(lp660
g0
(g1
g2
(lp661
g0
(g1
g2
(lp662
g0
(g1
g2
(lp663
Vi
p664
atp665
Rp666
(dp667
g12
VFW
p668
sbatp669
Rp670
(dp671
g12
VNP
p672
sbag0
(g1
g2
(lp673
g0
(g1
g2
(lp674
V'm
p675
atp676
Rp677
(dp678
g12
VVBP
p679
sbag0
(g1
g2
(lp680
g0
(g1
g2
(lp681
Vtrying
p682
atp683
Rp684
(dp685
g12
VVBG
p686
sbag0
(g1
g2
(lp687
g0
(g1
g2
(lp688
g0
(g1
g2
(lp689
Vto
p690
atp691
Rp692
(dp693
g12
VTO
p694
sbag0
(g1
g2
(lp695
g0
(g1
g2
(lp696
Vthink
p697
atp698
Rp699
(dp700
g12
VVB
p701
sbag0
(g1
g2
(lp702
g0
(g1
g2
(lp703
g0
(g1
g2
(lp704
Vof
p705
atp706
Rp707
(dp708
g12
VIN
p709
sbag0
(g1
g2
(lp710
g0
(g1
g2
(lp711
Vwhat
p712
atp713
Rp714
(dp715
g12
VWP
p716
sbag0
(g1
g2
(lp717
Velse
p718
atp719
Rp720
(dp721
g12
VRB
p722
sbatp723
Rp724
(dp725
g12
VWHNP
p726
sbatp727
Rp728
(dp729
g12
VWHPP
p730
sbag0
(g1
g2
(lp731
g0
(g1
g2
(lp732
g0
(g1
g2
(lp733
Vi
p734
atp735
Rp736
(dp737
g12
VFW
p738
sbatp739
Rp740
(dp741
g12
VNP
p742
sbag0
(g1
g2
(lp743
g0
(g1
g2
(lp744
Vsee
p745
atp746
Rp747
(dp748
g12
VVB
p749
sbatp750
Rp751
(dp752
g12
VVP
p753
sbatp754
Rp755
(dp756
g12
VS
p757
sbatp758
Rp759
(dp760
g12
VSBAR
p761
sbatp762
Rp763
(dp764
g12
VVP
p765
sbatp766
Rp767
(dp768
g12
VVP
p769
sbatp770
Rp771
(dp772
g12
VS
p773
sbatp774
Rp775
(dp776
g12
VVP
p777
sbatp778
Rp779
(dp780
g12
VVP
p781
sbag0
(g1
g2
(lp782
V.
p783
atp784
Rp785
(dp786
g12
V.
p787
sbatp788
Rp789
(dp790
g12
VS
p791
sbatp792
Rp793
(dp794
g12
S'id: 3'
p795
sbag0
(g1
g2
(lp796
g0
(g1
g2
(lp797
g0
(g1
g2
(lp798
g0
(g1
g2
(lp799
Vlittle
p800
atp801
Rp802
(dp803
g12
VJJ
p804
sbag0
(g1
g2
(lp805
Vgirl
p806
atp807
Rp808
(dp809
g12
VNN
p810
sbatp811
Rp812
(dp813
g12
VNP
p814
sbag0
(g1
g2
(lp815
g0
(g1
g2
(lp816
Vis
p817
atp818
Rp819
(dp820
g12
VVBZ
p821
sbag0
(g1
g2
(lp822
g0
(g1
g2
(lp823
Vpointing
p824
atp825
Rp826
(dp827
g12
VVBG
p828
sbag0
(g1
g2
(lp829
g0
(g1
g2
(lp830
Vto
p831
atp832
Rp833
(dp834
g12
VTO
p835
sbag0
(g1
g2
(lp836
g0
(g1
g2
(lp837
Vthe
p838
atp839
Rp840
(dp841
g12
VDT
p842
sbag0
(g1
g2
(lp843
Vclown
p844
atp845
Rp846
(dp847
g12
VNN
p848
sbatp849
Rp850
(dp851
g12
VNP
p852
sbatp853
Rp854
(dp855
g12
VPP
p856
sbatp857
Rp858
(dp859
g12
VVP
p860
sbatp861
Rp862
(dp863
g12
VVP
p864
sbag0
(g1
g2
(lp865
V.
p866
atp867
Rp868
(dp869
g12
V.
p870
sbatp871
Rp872
(dp873
g12
VS
p874
sbatp875
Rp876
(dp877
g12
S'id: 4'
p878
sbatp879
Rp880
(dp881
g12
S'sentences'
p882
sb.