ccopy_reg
_reconstructor
p0
(cnltk.tree
Tree
p1
c__builtin__
list
p2
(lp3
g0
(g1
g2
(lp4
g0
(g1
g2
(lp5
g0
(g1
g2
(lp6
Va man in a cage with a lion
p7
atp8
Rp9
(dp10
S'_label'
p11
S'start: 5'
p12
sbatp13
Rp14
(dp15
g11
S'sent: 1'
p16
sbag0
(g1
g2
(lp17
g0
(g1
g2
(lp18
Vhe
p19
atp20
Rp21
(dp22
g11
S'start: 14'
p23
sbatp24
Rp25
(dp26
g11
S'sent: 1'
p27
sbatp28
Rp29
(dp30
g11
S'id: 1'
p31
sbag0
(g1
g2
(lp32
g0
(g1
g2
(lp33
g0
(g1
g2
(lp34
Va cage with a lion
p35
atp36
Rp37
(dp38
g11
S'start: 8'
p39
sbatp40
Rp41
(dp42
g11
S'sent: 1'
p43
sbag0
(g1
g2
(lp44
g0
(g1
g2
(lp45
Vthe cage
p46
atp47
Rp48
(dp49
g11
S'start: 6'
p50
sbatp51
Rp52
(dp53
g11
S'sent: 10'
p54
sbatp55
Rp56
(dp57
g11
S'id: 2'
p58
sbag0
(g1
g2
(lp59
g0
(g1
g2
(lp60
g0
(g1
g2
(lp61
Va lion
p62
atp63
Rp64
(dp65
g11
S'start: 11'
p66
sbatp67
Rp68
(dp69
g11
S'sent: 1'
p70
sbag0
(g1
g2
(lp71
g0
(g1
g2
(lp72
Vthe lion
p73
atp74
Rp75
(dp76
g11
S'start: 19'
p77
sbatp78
Rp79
(dp80
g11
S'sent: 1'
p81
sbag0
(g1
g2
(lp82
g0
(g1
g2
(lp83
Vthe lion
p84
atp85
Rp86
(dp87
g11
S'start: 23'
p88
sbatp89
Rp90
(dp91
g11
S'sent: 1'
p92
sbatp93
Rp94
(dp95
g11
S'id: 3'
p96
sbag0
(g1
g2
(lp97
g0
(g1
g2
(lp98
g0
(g1
g2
(lp99
Vthe foreground
p100
atp101
Rp102
(dp103
g11
S'start: 2'
p104
sbatp105
Rp106
(dp107
g11
S'sent: 2'
p108
sbag0
(g1
g2
(lp109
g0
(g1
g2
(lp110
Vthe foreground
p111
atp112
Rp113
(dp114
g11
S'start: 6'
p115
sbatp116
Rp117
(dp118
g11
S'sent: 4'
p119
sbatp120
Rp121
(dp122
g11
S'id: 10'
p123
sbag0
(g1
g2
(lp124
g0
(g1
g2
(lp125
g0
(g1
g2
(lp126
Va clown
p127
atp128
Rp129
(dp130
g11
S'start: 6'
p131
sbatp132
Rp133
(dp134
g11
S'sent: 2'
p135
sbag0
(g1
g2
(lp136
g0
(g1
g2
(lp137
Vhe
p138
atp139
Rp140
(dp141
g11
S'start: 9'
p142
sbatp143
Rp144
(dp145
g11
S'sent: 2'
p146
sbag0
(g1
g2
(lp147
g0
(g1
g2
(lp148
Vthe clown
p149
atp150
Rp151
(dp152
g11
S'start: 27'
p153
sbatp154
Rp155
(dp156
g11
S'sent: 4'
p157
sbatp158
Rp159
(dp160
g11
S'id: 11'
p161
sbag0
(g1
g2
(lp162
g0
(g1
g2
(lp163
g0
(g1
g2
(lp164
Va mother
p165
atp166
Rp167
(dp168
g11
S'start: 23'
p169
sbatp170
Rp171
(dp172
g11
S'sent: 2'
p173
sbag0
(g1
g2
(lp174
g0
(g1
g2
(lp175
Vshe
p176
atp177
Rp178
(dp179
g11
S'start: 1'
p180
sbatp181
Rp182
(dp183
g11
S'sent: 3'
p184
sbatp185
Rp186
(dp187
g11
S'id: 17'
p188
sbag0
(g1
g2
(lp189
g0
(g1
g2
(lp190
g0
(g1
g2
(lp191
Va girl and the older child 's a boy
p192
atp193
Rp194
(dp195
g11
S'start: 11'
p196
sbatp197
Rp198
(dp199
g11
S'sent: 3'
p200
sbag0
(g1
g2
(lp201
g0
(g1
g2
(lp202
Vthey
p203
atp204
Rp205
(dp206
g11
S'start: 18'
p207
sbatp208
Rp209
(dp210
g11
S'sent: 4'
p211
sbatp212
Rp213
(dp214
g11
S'id: 22'
p215
sbag0
(g1
g2
(lp216
g0
(g1
g2
(lp217
g0
(g1
g2
(lp218
Va girl
p219
atp220
Rp221
(dp222
g11
S'start: 11'
p223
sbatp224
Rp225
(dp226
g11
S'sent: 3'
p227
sbag0
(g1
g2
(lp228
g0
(g1
g2
(lp229
Vthe girl
p230
atp231
Rp232
(dp233
g11
S'start: 22'
p234
sbatp235
Rp236
(dp237
g11
S'sent: 4'
p238
sbatp239
Rp240
(dp241
g11
S'id: 23'
p242
sbag0
(g1
g2
(lp243
g0
(g1
g2
(lp244
g0
(g1
g2
(lp245
Vthe background
p246
atp247
Rp248
(dp249
g11
S'start: 2'
p250
sbatp251
Rp252
(dp253
g11
S'sent: 5'
p254
sbag0
(g1
g2
(lp255
g0
(g1
g2
(lp256
Vthe background
p257
atp258
Rp259
(dp260
g11
S'start: 9'
p261
sbatp262
Rp263
(dp264
g11
S'sent: 11'
p265
sbatp266
Rp267
(dp268
g11
S'id: 34'
p269
sbag0
(g1
g2
(lp270
g0
(g1
g2
(lp271
g0
(g1
g2
(lp272
Vwe
p273
atp274
Rp275
(dp276
g11
S'start: 4'
p277
sbatp278
Rp279
(dp280
g11
S'sent: 5'
p281
sbag0
(g1
g2
(lp282
g0
(g1
g2
(lp283
Vwe
p284
atp285
Rp286
(dp287
g11
S'start: 1'
p288
sbatp289
Rp290
(dp291
g11
S'sent: 8'
p292
sbag0
(g1
g2
(lp293
g0
(g1
g2
(lp294
Vwe
p295
atp296
Rp297
(dp298
g11
S'start: 2'
p299
sbatp300
Rp301
(dp302
g11
S'sent: 9'
p303
sbatp304
Rp305
(dp306
g11
S'id: 35'
p307
sbag0
(g1
g2
(lp308
g0
(g1
g2
(lp309
g0
(g1
g2
(lp310
Va woman performing on horseback
p311
atp312
Rp313
(dp314
g11
S'start: 6'
p315
sbatp316
Rp317
(dp318
g11
S'sent: 5'
p319
sbag0
(g1
g2
(lp320
g0
(g1
g2
(lp321
Vshe
p322
atp323
Rp324
(dp325
g11
S'start: 1'
p326
sbatp327
Rp328
(dp329
g11
S'sent: 6'
p330
sbag0
(g1
g2
(lp331
g0
(g1
g2
(lp332
Vshe
p333
atp334
Rp335
(dp336
g11
S'start: 9'
p337
sbatp338
Rp339
(dp340
g11
S'sent: 6'
p341
sbag0
(g1
g2
(lp342
g0
(g1
g2
(lp343
Vher
p344
atp345
Rp346
(dp347
g11
S'start: 9'
p348
sbatp349
Rp350
(dp351
g11
S'sent: 7'
p352
sbatp353
Rp354
(dp355
g11
S'id: 36'
p356
sbag0
(g1
g2
(lp357
g0
(g1
g2
(lp358
g0
(g1
g2
(lp359
Vfive people watching her
p360
atp361
Rp362
(dp363
g11
S'start: 6'
p364
sbatp365
Rp366
(dp367
g11
S'sent: 7'
p368
sbag0
(g1
g2
(lp369
g0
(g1
g2
(lp370
Vthem
p371
atp372
Rp373
(dp374
g11
S'start: 5'
p375
sbatp376
Rp377
(dp378
g11
S'sent: 8'
p379
sbag0
(g1
g2
(lp380
g0
(g1
g2
(lp381
Vthey
p382
atp383
Rp384
(dp385
g11
S'start: 9'
p386
sbatp387
Rp388
(dp389
g11
S'sent: 8'
p390
sbatp391
Rp392
(dp393
g11
S'id: 44'
p394
sbag0
(g1
g2
(lp395
g0
(g1
g2
(lp396
g0
(g1
g2
(lp397
Va tightrope walker
p398
atp399
Rp400
(dp401
g11
S'start: 4'
p402
sbatp403
Rp404
(dp405
g11
S'sent: 9'
p406
sbag0
(g1
g2
(lp407
g0
(g1
g2
(lp408
Vhe
p409
atp410
Rp411
(dp412
g11
S'start: 8'
p413
sbatp414
Rp415
(dp416
g11
S'sent: 9'
p417
sbag0
(g1
g2
(lp418
g0
(g1
g2
(lp419
Vhe
p420
atp421
Rp422
(dp423
g11
S'start: 15'
p424
sbatp425
Rp426
(dp427
g11
S'sent: 9'
p428
sbatp429
Rp430
(dp431
g11
S'id: 50'
p432
sbag0
(g1
g2
(lp433
g0
(g1
g2
(lp434
g0
(g1
g2
(lp435
Vtamer 's wearing
p436
atp437
Rp438
(dp439
g11
S'start: 10'
p440
sbatp441
Rp442
(dp443
g11
S'sent: 10'
p444
sbag0
(g1
g2
(lp445
g0
(g1
g2
(lp446
Va dress coat
p447
atp448
Rp449
(dp450
g11
S'start: 14'
p451
sbatp452
Rp453
(dp454
g11
S'sent: 10'
p455
sbatp456
Rp457
(dp458
g11
S'id: 60'
p459
sbatp460
Rp461
(dp462
g11
S'coreferences'
p463
sb.