ccopy_reg
_reconstructor
p0
(cnltk.tree
Tree
p1
c__builtin__
list
p2
(lp3
g0
(g1
g2
(lp4
g0
(g1
g2
(lp5
g0
(g1
g2
(lp6
Valright
p7
atp8
Rp9
(dp10
S'_label'
p11
VNN
p12
sbag0
(g1
g2
(lp13
V.
p14
atp15
Rp16
(dp17
g11
V.
p18
sbatp19
Rp20
(dp21
g11
VNP
p22
sbatp23
Rp24
(dp25
g11
S'id: 0'
p26
sbag0
(g1
g2
(lp27
g0
(g1
g2
(lp28
g0
(g1
g2
(lp29
g0
(g1
g2
(lp30
Va
p31
atp32
Rp33
(dp34
g11
VDT
p35
sbag0
(g1
g2
(lp36
Vfamily
p37
atp38
Rp39
(dp40
g11
VNN
p41
sbatp42
Rp43
(dp44
g11
VNP
p45
sbag0
(g1
g2
(lp46
g0
(g1
g2
(lp47
Vis
p48
atp49
Rp50
(dp51
g11
VVBZ
p52
sbag0
(g1
g2
(lp53
g0
(g1
g2
(lp54
Voutside
p55
atp56
Rp57
(dp58
g11
VIN
p59
sbag0
(g1
g2
(lp60
g0
(g1
g2
(lp61
g0
(g1
g2
(lp62
Vtheir
p63
atp64
Rp65
(dp66
g11
VPRP$
p67
sbatp68
Rp69
(dp70
g11
VNP
p71
sbag0
(g1
g2
(lp72
g0
(g1
g2
(lp73
g0
(g1
g2
(lp74
Vwhat
p75
atp76
Rp77
(dp78
g11
VWDT
p79
sbatp80
Rp81
(dp82
g11
VWHNP
p83
sbag0
(g1
g2
(lp84
g0
(g1
g2
(lp85
g0
(g1
g2
(lp86
Vmaybe
p87
atp88
Rp89
(dp90
g11
VRB
p91
sbatp92
Rp93
(dp94
g11
VADVP
p95
sbag0
(g1
g2
(lp96
g0
(g1
g2
(lp97
Vbe
p98
atp99
Rp100
(dp101
g11
VVB
p102
sbag0
(g1
g2
(lp103
g0
(g1
g2
(lp104
Vtheir
p105
atp106
Rp107
(dp108
g11
VPRP$
p109
sbag0
(g1
g2
(lp110
Vhome
p111
atp112
Rp113
(dp114
g11
VNN
p115
sbatp116
Rp117
(dp118
g11
VNP
p119
sbatp120
Rp121
(dp122
g11
VVP
p123
sbatp124
Rp125
(dp126
g11
VS
p127
sbatp128
Rp129
(dp130
g11
VSBAR
p131
sbatp132
Rp133
(dp134
g11
VNP
p135
sbatp136
Rp137
(dp138
g11
VPP
p139
sbatp140
Rp141
(dp142
g11
VVP
p143
sbag0
(g1
g2
(lp144
V.
p145
atp146
Rp147
(dp148
g11
V.
p149
sbatp150
Rp151
(dp152
g11
VS
p153
sbatp154
Rp155
(dp156
g11
S'id: 1'
p157
sbag0
(g1
g2
(lp158
g0
(g1
g2
(lp159
g0
(g1
g2
(lp160
g0
(g1
g2
(lp161
Vlooks
p162
atp163
Rp164
(dp165
g11
VNNS
p166
sbatp167
Rp168
(dp169
g11
VNP
p170
sbag0
(g1
g2
(lp171
g0
(g1
g2
(lp172
Vlike
p173
atp174
Rp175
(dp176
g11
VIN
p177
sbag0
(g1
g2
(lp178
g0
(g1
g2
(lp179
Va
p180
atp181
Rp182
(dp183
g11
VDT
p184
sbag0
(g1
g2
(lp185
Vhome
p186
atp187
Rp188
(dp189
g11
VNN
p190
sbatp191
Rp192
(dp193
g11
VNP
p194
sbatp195
Rp196
(dp197
g11
VPP
p198
sbag0
(g1
g2
(lp199
g0
(g1
g2
(lp200
Von
p201
atp202
Rp203
(dp204
g11
VIN
p205
sbag0
(g1
g2
(lp206
g0
(g1
g2
(lp207
Veither
p208
atp209
Rp210
(dp211
g11
VCC
p212
sbag0
(g1
g2
(lp213
g0
(g1
g2
(lp214
Vthe
p215
atp216
Rp217
(dp218
g11
VDT
p219
sbag0
(g1
g2
(lp220
Vlake
p221
atp222
Rp223
(dp224
g11
VNN
p225
sbatp226
Rp227
(dp228
g11
VNP
p229
sbag0
(g1
g2
(lp230
V,
p231
atp232
Rp233
(dp234
g11
V,
p235
sbag0
(g1
g2
(lp236
g0
(g1
g2
(lp237
Vyeah
p238
atp239
Rp240
(dp241
g11
VJJ
p242
sbag0
(g1
g2
(lp243
g0
(g1
g2
(lp244
g0
(g1
g2
(lp245
Vlake
p246
atp247
Rp248
(dp249
g11
VNN
p250
sbatp251
Rp252
(dp253
g11
VNX
p254
sbag0
(g1
g2
(lp255
Vand
p256
atp257
Rp258
(dp259
g11
VCC
p260
sbatp261
Rp262
(dp263
g11
VNX
p264
sbatp265
Rp266
(dp267
g11
VNP
p268
sbatp269
Rp270
(dp271
g11
VNP
p272
sbatp273
Rp274
(dp275
g11
VPP
p276
sbag0
(g1
g2
(lp277
V.
p278
atp279
Rp280
(dp281
g11
V.
p282
sbatp283
Rp284
(dp285
g11
VNP
p286
sbatp287
Rp288
(dp289
g11
S'id: 2'
p290
sbag0
(g1
g2
(lp291
g0
(g1
g2
(lp292
g0
(g1
g2
(lp293
g0
(g1
g2
(lp294
g0
(g1
g2
(lp295
Vthere
p296
atp297
Rp298
(dp299
g11
VEX
p300
sbatp301
Rp302
(dp303
g11
VNP
p304
sbag0
(g1
g2
(lp305
g0
(g1
g2
(lp306
Vis
p307
atp308
Rp309
(dp310
g11
VVBZ
p311
sbag0
(g1
g2
(lp312
g0
(g1
g2
(lp313
g0
(g1
g2
(lp314
Va
p315
atp316
Rp317
(dp318
g11
VDT
p319
sbag0
(g1
g2
(lp320
Vlittle
p321
atp322
Rp323
(dp324
g11
VJJ
p325
sbag0
(g1
g2
(lp326
Vboy
p327
atp328
Rp329
(dp330
g11
VNN
p331
sbatp332
Rp333
(dp334
g11
VNP
p335
sbag0
(g1
g2
(lp336
g0
(g1
g2
(lp337
Vflying
p338
atp339
Rp340
(dp341
g11
VVBG
p342
sbag0
(g1
g2
(lp343
g0
(g1
g2
(lp344
Va
p345
atp346
Rp347
(dp348
g11
VDT
p349
sbag0
(g1
g2
(lp350
Vkite
p351
atp352
Rp353
(dp354
g11
VNN
p355
sbatp356
Rp357
(dp358
g11
VNP
p359
sbatp360
Rp361
(dp362
g11
VVP
p363
sbatp364
Rp365
(dp366
g11
VNP
p367
sbatp368
Rp369
(dp370
g11
VVP
p371
sbatp372
Rp373
(dp374
g11
VS
p375
sbag0
(g1
g2
(lp376
V,
p377
atp378
Rp379
(dp380
g11
V,
p381
sbag0
(g1
g2
(lp382
g0
(g1
g2
(lp383
Vhis
p384
atp385
Rp386
(dp387
g11
VPRP$
p388
sbag0
(g1
g2
(lp389
Vdog
p390
atp391
Rp392
(dp393
g11
VNN
p394
sbatp395
Rp396
(dp397
g11
VNP
p398
sbag0
(g1
g2
(lp399
g0
(g1
g2
(lp400
Vis
p401
atp402
Rp403
(dp404
g11
VVBZ
p405
sbag0
(g1
g2
(lp406
g0
(g1
g2
(lp407
Vchasing
p408
atp409
Rp410
(dp411
g11
VVBG
p412
sbag0
(g1
g2
(lp413
g0
(g1
g2
(lp414
Vhim
p415
atp416
Rp417
(dp418
g11
VPRP
p419
sbatp420
Rp421
(dp422
g11
VNP
p423
sbatp424
Rp425
(dp426
g11
VVP
p427
sbatp428
Rp429
(dp430
g11
VVP
p431
sbag0
(g1
g2
(lp432
V.
p433
atp434
Rp435
(dp436
g11
V.
p437
sbatp438
Rp439
(dp440
g11
VS
p441
sbatp442
Rp443
(dp444
g11
S'id: 3'
p445
sbag0
(g1
g2
(lp446
g0
(g1
g2
(lp447
g0
(g1
g2
(lp448
g0
(g1
g2
(lp449
g0
(g1
g2
(lp450
g0
(g1
g2
(lp451
g0
(g1
g2
(lp452
Vlooks
p453
atp454
Rp455
(dp456
g11
VNNS
p457
sbatp458
Rp459
(dp460
g11
VNP
p461
sbag0
(g1
g2
(lp462
g0
(g1
g2
(lp463
Vlike
p464
atp465
Rp466
(dp467
g11
VIN
p468
sbag0
(g1
g2
(lp469
g0
(g1
g2
(lp470
Vmom
p471
atp472
Rp473
(dp474
g11
VNN
p475
sbag0
(g1
g2
(lp476
Vand
p477
atp478
Rp479
(dp480
g11
VCC
p481
sbag0
(g1
g2
(lp482
Vdad
p483
atp484
Rp485
(dp486
g11
VNN
p487
sbatp488
Rp489
(dp490
g11
VNP
p491
sbatp492
Rp493
(dp494
g11
VPP
p495
sbatp496
Rp497
(dp498
g11
VNP
p499
sbag0
(g1
g2
(lp500
g0
(g1
g2
(lp501
Vare
p502
atp503
Rp504
(dp505
g11
VVBP
p506
sbag0
(g1
g2
(lp507
g0
(g1
g2
(lp508
Vsetting
p509
atp510
Rp511
(dp512
g11
VVBG
p513
sbag0
(g1
g2
(lp514
g0
(g1
g2
(lp515
Vup
p516
atp517
Rp518
(dp519
g11
VRP
p520
sbatp521
Rp522
(dp523
g11
VPRT
p524
sbag0
(g1
g2
(lp525
g0
(g1
g2
(lp526
Va
p527
atp528
Rp529
(dp530
g11
VDT
p531
sbag0
(g1
g2
(lp532
Vpicnic
p533
atp534
Rp535
(dp536
g11
VNN
p537
sbatp538
Rp539
(dp540
g11
VNP
p541
sbatp542
Rp543
(dp544
g11
VVP
p545
sbatp546
Rp547
(dp548
g11
VVP
p549
sbatp550
Rp551
(dp552
g11
VS
p553
sbag0
(g1
g2
(lp554
V,
p555
atp556
Rp557
(dp558
g11
V,
p559
sbag0
(g1
g2
(lp560
Vand
p561
atp562
Rp563
(dp564
g11
VCC
p565
sbag0
(g1
g2
(lp566
g0
(g1
g2
(lp567
g0
(g1
g2
(lp568
Vdad
p569
atp570
Rp571
(dp572
g11
VNN
p573
sbatp574
Rp575
(dp576
g11
VNP
p577
sbag0
(g1
g2
(lp578
g0
(g1
g2
(lp579
Vis
p580
atp581
Rp582
(dp583
g11
VVBZ
p584
sbag0
(g1
g2
(lp585
g0
(g1
g2
(lp586
Vreading
p587
atp588
Rp589
(dp590
g11
VVBG
p591
sbag0
(g1
g2
(lp592
g0
(g1
g2
(lp593
Va
p594
atp595
Rp596
(dp597
g11
VDT
p598
sbag0
(g1
g2
(lp599
Vbook
p600
atp601
Rp602
(dp603
g11
VNN
p604
sbatp605
Rp606
(dp607
g11
VNP
p608
sbatp609
Rp610
(dp611
g11
VVP
p612
sbatp613
Rp614
(dp615
g11
VVP
p616
sbatp617
Rp618
(dp619
g11
VS
p620
sbatp621
Rp622
(dp623
g11
VS
p624
sbag0
(g1
g2
(lp625
V,
p626
atp627
Rp628
(dp629
g11
V,
p630
sbag0
(g1
g2
(lp631
g0
(g1
g2
(lp632
Vmom
p633
atp634
Rp635
(dp636
g11
VNN
p637
sbatp638
Rp639
(dp640
g11
VNP
p641
sbag0
(g1
g2
(lp642
g0
(g1
g2
(lp643
Vis
p644
atp645
Rp646
(dp647
g11
VVBZ
p648
sbag0
(g1
g2
(lp649
g0
(g1
g2
(lp650
Vpouring
p651
atp652
Rp653
(dp654
g11
VVBG
p655
sbag0
(g1
g2
(lp656
g0
(g1
g2
(lp657
g0
(g1
g2
(lp658
Vsome
p659
atp660
Rp661
(dp662
g11
VDT
p663
sbag0
(g1
g2
(lp664
Vsort
p665
atp666
Rp667
(dp668
g11
VNN
p669
sbatp670
Rp671
(dp672
g11
VNP
p673
sbag0
(g1
g2
(lp674
g0
(g1
g2
(lp675
Vof
p676
atp677
Rp678
(dp679
g11
VIN
p680
sbag0
(g1
g2
(lp681
g0
(g1
g2
(lp682
Vbeverage
p683
atp684
Rp685
(dp686
g11
VNN
p687
sbatp688
Rp689
(dp690
g11
VNP
p691
sbatp692
Rp693
(dp694
g11
VPP
p695
sbatp696
Rp697
(dp698
g11
VNP
p699
sbag0
(g1
g2
(lp700
g0
(g1
g2
(lp701
Vinto
p702
atp703
Rp704
(dp705
g11
VIN
p706
sbag0
(g1
g2
(lp707
g0
(g1
g2
(lp708
Va
p709
atp710
Rp711
(dp712
g11
VDT
p713
sbag0
(g1
g2
(lp714
Vcup
p715
atp716
Rp717
(dp718
g11
VNN
p719
sbatp720
Rp721
(dp722
g11
VNP
p723
sbatp724
Rp725
(dp726
g11
VPP
p727
sbatp728
Rp729
(dp730
g11
VVP
p731
sbatp732
Rp733
(dp734
g11
VVP
p735
sbag0
(g1
g2
(lp736
V.
p737
atp738
Rp739
(dp740
g11
V.
p741
sbatp742
Rp743
(dp744
g11
VS
p745
sbatp746
Rp747
(dp748
g11
S'id: 4'
p749
sbag0
(g1
g2
(lp750
g0
(g1
g2
(lp751
g0
(g1
g2
(lp752
g0
(g1
g2
(lp753
g0
(g1
g2
(lp754
Vsomeone
p755
atp756
Rp757
(dp758
g11
VNN
p759
sbatp760
Rp761
(dp762
g11
VNP
p763
sbag0
(g1
g2
(lp764
g0
(g1
g2
(lp765
Vis
p766
atp767
Rp768
(dp769
g11
VVBZ
p770
sbag0
(g1
g2
(lp771
g0
(g1
g2
(lp772
Von
p773
atp774
Rp775
(dp776
g11
VIN
p777
sbag0
(g1
g2
(lp778
g0
(g1
g2
(lp779
g0
(g1
g2
(lp780
Vthe
p781
atp782
Rp783
(dp784
g11
VDT
p785
sbag0
(g1
g2
(lp786
Vdock
p787
atp788
Rp789
(dp790
g11
VNN
p791
sbatp792
Rp793
(dp794
g11
VNP
p795
sbag0
(g1
g2
(lp796
V,
p797
atp798
Rp799
(dp800
g11
V,
p801
sbag0
(g1
g2
(lp802
g0
(g1
g2
(lp803
Vfishing
p804
atp805
Rp806
(dp807
g11
VNN
p808
sbatp809
Rp810
(dp811
g11
VNP
p812
sbatp813
Rp814
(dp815
g11
VNP
p816
sbatp817
Rp818
(dp819
g11
VPP
p820
sbatp821
Rp822
(dp823
g11
VVP
p824
sbatp825
Rp826
(dp827
g11
VS
p828
sbag0
(g1
g2
(lp829
V,
p830
atp831
Rp832
(dp833
g11
V,
p834
sbag0
(g1
g2
(lp835
Vand
p836
atp837
Rp838
(dp839
g11
VCC
p840
sbag0
(g1
g2
(lp841
g0
(g1
g2
(lp842
g0
(g1
g2
(lp843
Vhe
p844
atp845
Rp846
(dp847
g11
VPRP
p848
sbatp849
Rp850
(dp851
g11
VNP
p852
sbag0
(g1
g2
(lp853
g0
(g1
g2
(lp854
V's
p855
atp856
Rp857
(dp858
g11
VVBZ
p859
sbag0
(g1
g2
(lp860
g0
(g1
g2
(lp861
Vcaught
p862
atp863
Rp864
(dp865
g11
VVBN
p866
sbag0
(g1
g2
(lp867
g0
(g1
g2
(lp868
Va
p869
atp870
Rp871
(dp872
g11
VDT
p873
sbag0
(g1
g2
(lp874
Vfish
p875
atp876
Rp877
(dp878
g11
VNN
p879
sbatp880
Rp881
(dp882
g11
VNP
p883
sbatp884
Rp885
(dp886
g11
VVP
p887
sbatp888
Rp889
(dp890
g11
VVP
p891
sbatp892
Rp893
(dp894
g11
VS
p895
sbag0
(g1
g2
(lp896
V.
p897
atp898
Rp899
(dp900
g11
V.
p901
sbatp902
Rp903
(dp904
g11
VS
p905
sbatp906
Rp907
(dp908
g11
S'id: 5'
p909
sbag0
(g1
g2
(lp910
g0
(g1
g2
(lp911
g0
(g1
g2
(lp912
g0
(g1
g2
(lp913
g0
(g1
g2
(lp914
Vlittle
p915
atp916
Rp917
(dp918
g11
VJJ
p919
sbag0
(g1
g2
(lp920
Vgirl
p921
atp922
Rp923
(dp924
g11
VNN
p925
sbatp926
Rp927
(dp928
g11
VNP
p929
sbag0
(g1
g2
(lp930
g0
(g1
g2
(lp931
Vto
p932
atp933
Rp934
(dp935
g11
VTO
p936
sbag0
(g1
g2
(lp937
g0
(g1
g2
(lp938
Vthe
p939
atp940
Rp941
(dp942
g11
VDT
p943
sbatp944
Rp945
(dp946
g11
VNP
p947
sbatp948
Rp949
(dp950
g11
VPP
p951
sbatp952
Rp953
(dp954
g11
VNP-TMP
p955
sbag0
(g1
g2
(lp956
V,
p957
atp958
Rp959
(dp960
g11
V,
p961
sbag0
(g1
g2
(lp962
g0
(g1
g2
(lp963
g0
(g1
g2
(lp964
Vmy
p965
atp966
Rp967
(dp968
g11
VPRP$
p969
sbatp970
Rp971
(dp972
g11
VNP
p973
sbag0
(g1
g2
(lp974
V,
p975
atp976
Rp977
(dp978
g11
V,
p979
sbag0
(g1
g2
(lp980
g0
(g1
g2
(lp981
g0
(g1
g2
(lp982
Vmy
p983
atp984
Rp985
(dp986
g11
VPRP$
p987
sbag0
(g1
g2
(lp988
Vright
p989
atp990
Rp991
(dp992
g11
VNN
p993
sbatp994
Rp995
(dp996
g11
VNP
p997
sbag0
(g1
g2
(lp998
g0
(g1
g2
(lp999
Vof
p1000
atp1001
Rp1002
(dp1003
g11
VIN
p1004
sbag0
(g1
g2
(lp1005
g0
(g1
g2
(lp1006
Vthe
p1007
atp1008
Rp1009
(dp1010
g11
VDT
p1011
sbag0
(g1
g2
(lp1012
Vboy
p1013
atp1014
Rp1015
(dp1016
g11
VNN
p1017
sbatp1018
Rp1019
(dp1020
g11
VNP
p1021
sbatp1022
Rp1023
(dp1024
g11
VPP
p1025
sbatp1026
Rp1027
(dp1028
g11
VNP
p1029
sbag0
(g1
g2
(lp1030
V,
p1031
atp1032
Rp1033
(dp1034
g11
V,
p1035
sbatp1036
Rp1037
(dp1038
g11
VNP
p1039
sbag0
(g1
g2
(lp1040
g0
(g1
g2
(lp1041
Vappears
p1042
atp1043
Rp1044
(dp1045
g11
VVBZ
p1046
sbag0
(g1
g2
(lp1047
g0
(g1
g2
(lp1048
g0
(g1
g2
(lp1049
Vto
p1050
atp1051
Rp1052
(dp1053
g11
VTO
p1054
sbag0
(g1
g2
(lp1055
g0
(g1
g2
(lp1056
Vbe
p1057
atp1058
Rp1059
(dp1060
g11
VVB
p1061
sbag0
(g1
g2
(lp1062
g0
(g1
g2
(lp1063
Vmaking
p1064
atp1065
Rp1066
(dp1067
g11
VVBG
p1068
sbag0
(g1
g2
(lp1069
g0
(g1
g2
(lp1070
Va
p1071
atp1072
Rp1073
(dp1074
g11
VDT
p1075
sbag0
(g1
g2
(lp1076
Vsandcastle
p1077
atp1078
Rp1079
(dp1080
g11
VNN
p1081
sbatp1082
Rp1083
(dp1084
g11
VNP
p1085
sbag0
(g1
g2
(lp1086
g0
(g1
g2
(lp1087
Vwith
p1088
atp1089
Rp1090
(dp1091
g11
VIN
p1092
sbag0
(g1
g2
(lp1093
g0
(g1
g2
(lp1094
g0
(g1
g2
(lp1095
Vher
p1096
atp1097
Rp1098
(dp1099
g11
VPRP
p1100
sbatp1101
Rp1102
(dp1103
g11
VNP
p1104
sbag0
(g1
g2
(lp1105
V,
p1106
atp1107
Rp1108
(dp1109
g11
V,
p1110
sbag0
(g1
g2
(lp1111
g0
(g1
g2
(lp1112
Vtoys
p1113
atp1114
Rp1115
(dp1116
g11
VNNS
p1117
sbatp1118
Rp1119
(dp1120
g11
VNP
p1121
sbatp1122
Rp1123
(dp1124
g11
VNP
p1125
sbatp1126
Rp1127
(dp1128
g11
VPP
p1129
sbatp1130
Rp1131
(dp1132
g11
VVP
p1133
sbatp1134
Rp1135
(dp1136
g11
VVP
p1137
sbatp1138
Rp1139
(dp1140
g11
VVP
p1141
sbatp1142
Rp1143
(dp1144
g11
VS
p1145
sbatp1146
Rp1147
(dp1148
g11
VVP
p1149
sbag0
(g1
g2
(lp1150
V.
p1151
atp1152
Rp1153
(dp1154
g11
V.
p1155
sbatp1156
Rp1157
(dp1158
g11
VS
p1159
sbatp1160
Rp1161
(dp1162
g11
S'id: 6'
p1163
sbag0
(g1
g2
(lp1164
g0
(g1
g2
(lp1165
g0
(g1
g2
(lp1166
g0
(g1
g2
(lp1167
Vthere
p1168
atp1169
Rp1170
(dp1171
g11
VEX
p1172
sbatp1173
Rp1174
(dp1175
g11
VNP
p1176
sbag0
(g1
g2
(lp1177
g0
(g1
g2
(lp1178
V's
p1179
atp1180
Rp1181
(dp1182
g11
VVBZ
p1183
sbag0
(g1
g2
(lp1184
g0
(g1
g2
(lp1185
g0
(g1
g2
(lp1186
Va
p1187
atp1188
Rp1189
(dp1190
g11
VDT
p1191
sbag0
(g1
g2
(lp1192
Vsailboat
p1193
atp1194
Rp1195
(dp1196
g11
VNN
p1197
sbatp1198
Rp1199
(dp1200
g11
VNP
p1201
sbag0
(g1
g2
(lp1202
g0
(g1
g2
(lp1203
Von
p1204
atp1205
Rp1206
(dp1207
g11
VIN
p1208
sbag0
(g1
g2
(lp1209
g0
(g1
g2
(lp1210
Vthe
p1211
atp1212
Rp1213
(dp1214
g11
VDT
p1215
sbag0
(g1
g2
(lp1216
Vlake
p1217
atp1218
Rp1219
(dp1220
g11
VNN
p1221
sbatp1222
Rp1223
(dp1224
g11
VNP
p1225
sbatp1226
Rp1227
(dp1228
g11
VPP
p1229
sbatp1230
Rp1231
(dp1232
g11
VNP
p1233
sbatp1234
Rp1235
(dp1236
g11
VVP
p1237
sbag0
(g1
g2
(lp1238
V.
p1239
atp1240
Rp1241
(dp1242
g11
V.
p1243
sbatp1244
Rp1245
(dp1246
g11
VS
p1247
sbatp1248
Rp1249
(dp1250
g11
S'id: 7'
p1251
sbag0
(g1
g2
(lp1252
g0
(g1
g2
(lp1253
g0
(g1
g2
(lp1254
g0
(g1
g2
(lp1255
Vlet
p1256
atp1257
Rp1258
(dp1259
g11
VVB
p1260
sbag0
(g1
g2
(lp1261
g0
(g1
g2
(lp1262
g0
(g1
g2
(lp1263
V's
p1264
atp1265
Rp1266
(dp1267
g11
VPOS
p1268
sbatp1269
Rp1270
(dp1271
g11
VNP
p1272
sbag0
(g1
g2
(lp1273
g0
(g1
g2
(lp1274
Vsee
p1275
atp1276
Rp1277
(dp1278
g11
VVB
p1279
sbatp1280
Rp1281
(dp1282
g11
VVP
p1283
sbatp1284
Rp1285
(dp1286
g11
VS
p1287
sbatp1288
Rp1289
(dp1290
g11
VVP
p1291
sbag0
(g1
g2
(lp1292
V.
p1293
atp1294
Rp1295
(dp1296
g11
V.
p1297
sbatp1298
Rp1299
(dp1300
g11
VS
p1301
sbatp1302
Rp1303
(dp1304
g11
S'id: 8'
p1305
sbag0
(g1
g2
(lp1306
g0
(g1
g2
(lp1307
g0
(g1
g2
(lp1308
g0
(g1
g2
(lp1309
Vin
p1310
atp1311
Rp1312
(dp1313
g11
VIN
p1314
sbag0
(g1
g2
(lp1315
g0
(g1
g2
(lp1316
Vthe
p1317
atp1318
Rp1319
(dp1320
g11
VDT
p1321
sbag0
(g1
g2
(lp1322
Vbackground
p1323
atp1324
Rp1325
(dp1326
g11
VNN
p1327
sbatp1328
Rp1329
(dp1330
g11
VNP
p1331
sbatp1332
Rp1333
(dp1334
g11
VPP
p1335
sbag0
(g1
g2
(lp1336
g0
(g1
g2
(lp1337
Vthere
p1338
atp1339
Rp1340
(dp1341
g11
VEX
p1342
sbatp1343
Rp1344
(dp1345
g11
VNP
p1346
sbag0
(g1
g2
(lp1347
g0
(g1
g2
(lp1348
V's
p1349
atp1350
Rp1351
(dp1352
g11
VVBZ
p1353
sbag0
(g1
g2
(lp1354
g0
(g1
g2
(lp1355
g0
(g1
g2
(lp1356
Va
p1357
atp1358
Rp1359
(dp1360
g11
VDT
p1361
sbag0
(g1
g2
(lp1362
Vhouse
p1363
atp1364
Rp1365
(dp1366
g11
VNN
p1367
sbatp1368
Rp1369
(dp1370
g11
VNP
p1371
sbag0
(g1
g2
(lp1372
g0
(g1
g2
(lp1373
Vwith
p1374
atp1375
Rp1376
(dp1377
g11
VIN
p1378
sbag0
(g1
g2
(lp1379
g0
(g1
g2
(lp1380
g0
(g1
g2
(lp1381
Va
p1382
atp1383
Rp1384
(dp1385
g11
VDT
p1386
sbag0
(g1
g2
(lp1387
Vcar
p1388
atp1389
Rp1390
(dp1391
g11
VNN
p1392
sbatp1393
Rp1394
(dp1395
g11
VNP
p1396
sbag0
(g1
g2
(lp1397
g0
(g1
g2
(lp1398
Von
p1399
atp1400
Rp1401
(dp1402
g11
VIN
p1403
sbag0
(g1
g2
(lp1404
g0
(g1
g2
(lp1405
Vthe
p1406
atp1407
Rp1408
(dp1409
g11
VDT
p1410
sbag0
(g1
g2
(lp1411
Vdriveway
p1412
atp1413
Rp1414
(dp1415
g11
VNN
p1416
sbatp1417
Rp1418
(dp1419
g11
VNP
p1420
sbatp1421
Rp1422
(dp1423
g11
VPP
p1424
sbatp1425
Rp1426
(dp1427
g11
VNP
p1428
sbatp1429
Rp1430
(dp1431
g11
VPP
p1432
sbatp1433
Rp1434
(dp1435
g11
VNP
p1436
sbatp1437
Rp1438
(dp1439
g11
VVP
p1440
sbag0
(g1
g2
(lp1441
V.
p1442
atp1443
Rp1444
(dp1445
g11
V.
p1446
sbatp1447
Rp1448
(dp1449
g11
VS
p1450
sbatp1451
Rp1452
(dp1453
g11
S'id: 9'
p1454
sbag0
(g1
g2
(lp1455
g0
(g1
g2
(lp1456
g0
(g1
g2
(lp1457
Vand
p1458
atp1459
Rp1460
(dp1461
g11
VCC
p1462
sbag0
(g1
g2
(lp1463
V,
p1464
atp1465
Rp1466
(dp1467
g11
V,
p1468
sbag0
(g1
g2
(lp1469
g0
(g1
g2
(lp1470
Vthere
p1471
atp1472
Rp1473
(dp1474
g11
VEX
p1475
sbatp1476
Rp1477
(dp1478
g11
VNP
p1479
sbag0
(g1
g2
(lp1480
g0
(g1
g2
(lp1481
V's
p1482
atp1483
Rp1484
(dp1485
g11
VVBZ
p1486
sbag0
(g1
g2
(lp1487
g0
(g1
g2
(lp1488
g0
(g1
g2
(lp1489
Va
p1490
atp1491
Rp1492
(dp1493
g11
VDT
p1494
sbag0
(g1
g2
(lp1495
Vtree
p1496
atp1497
Rp1498
(dp1499
g11
VNN
p1500
sbag0
(g1
g2
(lp1501
Vand
p1502
atp1503
Rp1504
(dp1505
g11
VCC
p1506
sbag0
(g1
g2
(lp1507
Vshrubs
p1508
atp1509
Rp1510
(dp1511
g11
VNNS
p1512
sbatp1513
Rp1514
(dp1515
g11
VNP
p1516
sbag0
(g1
g2
(lp1517
g0
(g1
g2
(lp1518
Vin
p1519
atp1520
Rp1521
(dp1522
g11
VIN
p1523
sbag0
(g1
g2
(lp1524
g0
(g1
g2
(lp1525
g0
(g1
g2
(lp1526
Vfront
p1527
atp1528
Rp1529
(dp1530
g11
VNN
p1531
sbatp1532
Rp1533
(dp1534
g11
VNP
p1535
sbag0
(g1
g2
(lp1536
g0
(g1
g2
(lp1537
Vof
p1538
atp1539
Rp1540
(dp1541
g11
VIN
p1542
sbag0
(g1
g2
(lp1543
g0
(g1
g2
(lp1544
Vthe
p1545
atp1546
Rp1547
(dp1548
g11
VDT
p1549
sbag0
(g1
g2
(lp1550
Vhouse
p1551
atp1552
Rp1553
(dp1554
g11
VNN
p1555
sbatp1556
Rp1557
(dp1558
g11
VNP
p1559
sbatp1560
Rp1561
(dp1562
g11
VPP
p1563
sbatp1564
Rp1565
(dp1566
g11
VNP
p1567
sbatp1568
Rp1569
(dp1570
g11
VPP
p1571
sbatp1572
Rp1573
(dp1574
g11
VNP
p1575
sbatp1576
Rp1577
(dp1578
g11
VVP
p1579
sbag0
(g1
g2
(lp1580
V.
p1581
atp1582
Rp1583
(dp1584
g11
V.
p1585
sbatp1586
Rp1587
(dp1588
g11
VS
p1589
sbatp1590
Rp1591
(dp1592
g11
S'id: 10'
p1593
sbag0
(g1
g2
(lp1594
g0
(g1
g2
(lp1595
g0
(g1
g2
(lp1596
g0
(g1
g2
(lp1597
Vcan
p1598
atp1599
Rp1600
(dp1601
g11
VMD
p1602
sbag0
(g1
g2
(lp1603
g0
(g1
g2
(lp1604
Vsee
p1605
atp1606
Rp1607
(dp1608
g11
VVB
p1609
sbag0
(g1
g2
(lp1610
g0
(g1
g2
(lp1611
g0
(g1
g2
(lp1612
g0
(g1
g2
(lp1613
Va
p1614
atp1615
Rp1616
(dp1617
g11
VDT
p1618
sbag0
(g1
g2
(lp1619
Vcouple
p1620
atp1621
Rp1622
(dp1623
g11
VNN
p1624
sbag0
(g1
g2
(lp1625
Vwindows
p1626
atp1627
Rp1628
(dp1629
g11
VNNS
p1630
sbatp1631
Rp1632
(dp1633
g11
VNP
p1634
sbag0
(g1
g2
(lp1635
Vand
p1636
atp1637
Rp1638
(dp1639
g11
VCC
p1640
sbag0
(g1
g2
(lp1641
g0
(g1
g2
(lp1642
Va
p1643
atp1644
Rp1645
(dp1646
g11
VDT
p1647
sbag0
(g1
g2
(lp1648
Vdoor
p1649
atp1650
Rp1651
(dp1652
g11
VNN
p1653
sbatp1654
Rp1655
(dp1656
g11
VNP
p1657
sbatp1658
Rp1659
(dp1660
g11
VNP
p1661
sbag0
(g1
g2
(lp1662
Vand
p1663
atp1664
Rp1665
(dp1666
g11
VCC
p1667
sbag0
(g1
g2
(lp1668
g0
(g1
g2
(lp1669
g0
(g1
g2
(lp1670
Va
p1671
atp1672
Rp1673
(dp1674
g11
VDT
p1675
sbag0
(g1
g2
(lp1676
Vgarage
p1677
atp1678
Rp1679
(dp1680
g11
VNN
p1681
sbag0
(g1
g2
(lp1682
Vdoor
p1683
atp1684
Rp1685
(dp1686
g11
VNN
p1687
sbatp1688
Rp1689
(dp1690
g11
VNP
p1691
sbag0
(g1
g2
(lp1692
Vand
p1693
atp1694
Rp1695
(dp1696
g11
VCC
p1697
sbag0
(g1
g2
(lp1698
g0
(g1
g2
(lp1699
Vroof
p1700
atp1701
Rp1702
(dp1703
g11
VNN
p1704
sbatp1705
Rp1706
(dp1707
g11
VNP
p1708
sbatp1709
Rp1710
(dp1711
g11
VNP
p1712
sbatp1713
Rp1714
(dp1715
g11
VNP
p1716
sbatp1717
Rp1718
(dp1719
g11
VVP
p1720
sbag0
(g1
g2
(lp1721
V,
p1722
atp1723
Rp1724
(dp1725
g11
V,
p1726
sbag0
(g1
g2
(lp1727
g0
(g1
g2
(lp1728
Vlet
p1729
atp1730
Rp1731
(dp1732
g11
VVB
p1733
sbag0
(g1
g2
(lp1734
g0
(g1
g2
(lp1735
g0
(g1
g2
(lp1736
V's
p1737
atp1738
Rp1739
(dp1740
g11
VPOS
p1741
sbatp1742
Rp1743
(dp1744
g11
VNP
p1745
sbag0
(g1
g2
(lp1746
g0
(g1
g2
(lp1747
Vsee
p1748
atp1749
Rp1750
(dp1751
g11
VVB
p1752
sbatp1753
Rp1754
(dp1755
g11
VVP
p1756
sbatp1757
Rp1758
(dp1759
g11
VS
p1760
sbatp1761
Rp1762
(dp1763
g11
VVP
p1764
sbatp1765
Rp1766
(dp1767
g11
VVP
p1768
sbag0
(g1
g2
(lp1769
V.
p1770
atp1771
Rp1772
(dp1773
g11
V.
p1774
sbatp1775
Rp1776
(dp1777
g11
VS
p1778
sbatp1779
Rp1780
(dp1781
g11
S'id: 11'
p1782
sbag0
(g1
g2
(lp1783
g0
(g1
g2
(lp1784
g0
(g1
g2
(lp1785
g0
(g1
g2
(lp1786
Vback
p1787
atp1788
Rp1789
(dp1790
g11
VRB
p1791
sbag0
(g1
g2
(lp1792
g0
(g1
g2
(lp1793
Vwith
p1794
atp1795
Rp1796
(dp1797
g11
VIN
p1798
sbag0
(g1
g2
(lp1799
g0
(g1
g2
(lp1800
g0
(g1
g2
(lp1801
Vthe
p1802
atp1803
Rp1804
(dp1805
g11
VDT
p1806
sbatp1807
Rp1808
(dp1809
g11
VNP
p1810
sbag0
(g1
g2
(lp1811
V,
p1812
atp1813
Rp1814
(dp1815
g11
V,
p1816
sbag0
(g1
g2
(lp1817
g0
(g1
g2
(lp1818
g0
(g1
g2
(lp1819
Vmom
p1820
atp1821
Rp1822
(dp1823
g11
VNN
p1824
sbag0
(g1
g2
(lp1825
Vand
p1826
atp1827
Rp1828
(dp1829
g11
VCC
p1830
sbag0
(g1
g2
(lp1831
Vdad
p1832
atp1833
Rp1834
(dp1835
g11
VNN
p1836
sbatp1837
Rp1838
(dp1839
g11
VNP
p1840
sbag0
(g1
g2
(lp1841
g0
(g1
g2
(lp1842
Von
p1843
atp1844
Rp1845
(dp1846
g11
VIN
p1847
sbag0
(g1
g2
(lp1848
g0
(g1
g2
(lp1849
g0
(g1
g2
(lp1850
Vthe
p1851
atp1852
Rp1853
(dp1854
g11
VDT
p1855
sbatp1856
Rp1857
(dp1858
g11
VNP
p1859
sbag0
(g1
g2
(lp1860
V,
p1861
atp1862
Rp1863
(dp1864
g11
V,
p1865
sbag0
(g1
g2
(lp1866
g0
(g1
g2
(lp1867
Vpicnic
p1868
atp1869
Rp1870
(dp1871
g11
VNN
p1872
sbag0
(g1
g2
(lp1873
Vblanket
p1874
atp1875
Rp1876
(dp1877
g11
VNN
p1878
sbatp1879
Rp1880
(dp1881
g11
VNP
p1882
sbatp1883
Rp1884
(dp1885
g11
VNP
p1886
sbatp1887
Rp1888
(dp1889
g11
VPP
p1890
sbatp1891
Rp1892
(dp1893
g11
VNP
p1894
sbatp1895
Rp1896
(dp1897
g11
VNP
p1898
sbatp1899
Rp1900
(dp1901
g11
VPP
p1902
sbatp1903
Rp1904
(dp1905
g11
VADVP
p1906
sbag0
(g1
g2
(lp1907
V,
p1908
atp1909
Rp1910
(dp1911
g11
V,
p1912
sbag0
(g1
g2
(lp1913
g0
(g1
g2
(lp1914
g0
(g1
g2
(lp1915
Vhe
p1916
atp1917
Rp1918
(dp1919
g11
VPRP
p1920
sbatp1921
Rp1922
(dp1923
g11
VNP
p1924
sbag0
(g1
g2
(lp1925
g0
(g1
g2
(lp1926
V's
p1927
atp1928
Rp1929
(dp1930
g11
VVBZ
p1931
sbag0
(g1
g2
(lp1932
g0
(g1
g2
(lp1933
Vgot
p1934
atp1935
Rp1936
(dp1937
g11
VVBD
p1938
sbag0
(g1
g2
(lp1939
g0
(g1
g2
(lp1940
Vhis
p1941
atp1942
Rp1943
(dp1944
g11
VPRP$
p1945
sbatp1946
Rp1947
(dp1948
g11
VNP
p1949
sbag0
(g1
g2
(lp1950
V,
p1951
atp1952
Rp1953
(dp1954
g11
V,
p1955
sbag0
(g1
g2
(lp1956
g0
(g1
g2
(lp1957
g0
(g1
g2
(lp1958
Vrelaxing
p1959
atp1960
Rp1961
(dp1962
g11
VVBG
p1963
sbag0
(g1
g2
(lp1964
g0
(g1
g2
(lp1965
Vwith
p1966
atp1967
Rp1968
(dp1969
g11
VIN
p1970
sbag0
(g1
g2
(lp1971
g0
(g1
g2
(lp1972
Vhis
p1973
atp1974
Rp1975
(dp1976
g11
VPRP$
p1977
sbag0
(g1
g2
(lp1978
Vsandals
p1979
atp1980
Rp1981
(dp1982
g11
VNNS
p1983
sbatp1984
Rp1985
(dp1986
g11
VNP
p1987
sbatp1988
Rp1989
(dp1990
g11
VPP
p1991
sbag0
(g1
g2
(lp1992
g0
(g1
g2
(lp1993
Voff
p1994
atp1995
Rp1996
(dp1997
g11
VRP
p1998
sbatp1999
Rp2000
(dp2001
g11
VPP
p2002
sbatp2003
Rp2004
(dp2005
g11
VVP
p2006
sbatp2007
Rp2008
(dp2009
g11
VS
p2010
sbatp2011
Rp2012
(dp2013
g11
VVP
p2014
sbatp2015
Rp2016
(dp2017
g11
VVP
p2018
sbatp2019
Rp2020
(dp2021
g11
VS
p2022
sbag0
(g1
g2
(lp2023
V,
p2024
atp2025
Rp2026
(dp2027
g11
V,
p2028
sbag0
(g1
g2
(lp2029
Vand
p2030
atp2031
Rp2032
(dp2033
g11
VCC
p2034
sbag0
(g1
g2
(lp2035
g0
(g1
g2
(lp2036
g0
(g1
g2
(lp2037
Vshe
p2038
atp2039
Rp2040
(dp2041
g11
VPRP
p2042
sbatp2043
Rp2044
(dp2045
g11
VNP
p2046
sbag0
(g1
g2
(lp2047
g0
(g1
g2
(lp2048
V's
p2049
atp2050
Rp2051
(dp2052
g11
VVBZ
p2053
sbag0
(g1
g2
(lp2054
g0
(g1
g2
(lp2055
Vgot
p2056
atp2057
Rp2058
(dp2059
g11
VVBD
p2060
sbag0
(g1
g2
(lp2061
g0
(g1
g2
(lp2062
Va
p2063
atp2064
Rp2065
(dp2066
g11
VDT
p2067
sbag0
(g1
g2
(lp2068
g0
(g1
g2
(lp2069
V,
p2070
atp2071
Rp2072
(dp2073
g11
V,
p2074
sbag0
(g1
g2
(lp2075
g0
(g1
g2
(lp2076
Vcd
p2077
atp2078
Rp2079
(dp2080
g11
VNN
p2081
sbag0
(g1
g2
(lp2082
Vplayer
p2083
atp2084
Rp2085
(dp2086
g11
VNN
p2087
sbatp2088
Rp2089
(dp2090
g11
VNP
p2091
sbag0
(g1
g2
(lp2092
V,
p2093
atp2094
Rp2095
(dp2096
g11
V,
p2097
sbatp2098
Rp2099
(dp2100
g11
VPRN
p2101
sbatp2102
Rp2103
(dp2104
g11
VNP
p2105
sbag0
(g1
g2
(lp2106
g0
(g1
g2
(lp2107
g0
(g1
g2
(lp2108
Vperhaps
p2109
atp2110
Rp2111
(dp2112
g11
VRB
p2113
sbatp2114
Rp2115
(dp2116
g11
VADVP
p2117
sbag0
(g1
g2
(lp2118
g0
(g1
g2
(lp2119
Vlistening
p2120
atp2121
Rp2122
(dp2123
g11
VVBG
p2124
sbag0
(g1
g2
(lp2125
g0
(g1
g2
(lp2126
Vto
p2127
atp2128
Rp2129
(dp2130
g11
VTO
p2131
sbag0
(g1
g2
(lp2132
g0
(g1
g2
(lp2133
g0
(g1
g2
(lp2134
Vthe
p2135
atp2136
Rp2137
(dp2138
g11
VDT
p2139
sbag0
(g1
g2
(lp2140
Vradio
p2141
atp2142
Rp2143
(dp2144
g11
VNN
p2145
sbatp2146
Rp2147
(dp2148
g11
VNP
p2149
sbag0
(g1
g2
(lp2150
Vor
p2151
atp2152
Rp2153
(dp2154
g11
VCC
p2155
sbag0
(g1
g2
(lp2156
V,
p2157
atp2158
Rp2159
(dp2160
g11
V,
p2161
sbag0
(g1
g2
(lp2162
g0
(g1
g2
(lp2163
Vcd
p2164
atp2165
Rp2166
(dp2167
g11
VNN
p2168
sbatp2169
Rp2170
(dp2171
g11
VNP
p2172
sbatp2173
Rp2174
(dp2175
g11
VNP
p2176
sbatp2177
Rp2178
(dp2179
g11
VPP
p2180
sbatp2181
Rp2182
(dp2183
g11
VVP
p2184
sbatp2185
Rp2186
(dp2187
g11
VS
p2188
sbatp2189
Rp2190
(dp2191
g11
VVP
p2192
sbatp2193
Rp2194
(dp2195
g11
VVP
p2196
sbatp2197
Rp2198
(dp2199
g11
VS
p2200
sbag0
(g1
g2
(lp2201
V.
p2202
atp2203
Rp2204
(dp2205
g11
V.
p2206
sbatp2207
Rp2208
(dp2209
g11
VS
p2210
sbatp2211
Rp2212
(dp2213
g11
S'id: 12'
p2214
sbag0
(g1
g2
(lp2215
g0
(g1
g2
(lp2216
g0
(g1
g2
(lp2217
g0
(g1
g2
(lp2218
Vlet
p2219
atp2220
Rp2221
(dp2222
g11
VVB
p2223
sbag0
(g1
g2
(lp2224
g0
(g1
g2
(lp2225
g0
(g1
g2
(lp2226
V's
p2227
atp2228
Rp2229
(dp2230
g11
VPOS
p2231
sbatp2232
Rp2233
(dp2234
g11
VNP
p2235
sbag0
(g1
g2
(lp2236
g0
(g1
g2
(lp2237
Vsee
p2238
atp2239
Rp2240
(dp2241
g11
VVB
p2242
sbatp2243
Rp2244
(dp2245
g11
VVP
p2246
sbatp2247
Rp2248
(dp2249
g11
VS
p2250
sbatp2251
Rp2252
(dp2253
g11
VVP
p2254
sbag0
(g1
g2
(lp2255
V.
p2256
atp2257
Rp2258
(dp2259
g11
V.
p2260
sbatp2261
Rp2262
(dp2263
g11
VS
p2264
sbatp2265
Rp2266
(dp2267
g11
S'id: 13'
p2268
sbag0
(g1
g2
(lp2269
g0
(g1
g2
(lp2270
g0
(g1
g2
(lp2271
g0
(g1
g2
(lp2272
Vthat
p2273
atp2274
Rp2275
(dp2276
g11
VDT
p2277
sbatp2278
Rp2279
(dp2280
g11
VNP
p2281
sbag0
(g1
g2
(lp2282
g0
(g1
g2
(lp2283
V's
p2284
atp2285
Rp2286
(dp2287
g11
VVBZ
p2288
sbag0
(g1
g2
(lp2289
g0
(g1
g2
(lp2290
Vabout
p2291
atp2292
Rp2293
(dp2294
g11
VIN
p2295
sbag0
(g1
g2
(lp2296
Vall
p2297
atp2298
Rp2299
(dp2300
g11
VDT
p2301
sbatp2302
Rp2303
(dp2304
g11
VADVP
p2305
sbag0
(g1
g2
(lp2306
g0
(g1
g2
(lp2307
g0
(g1
g2
(lp2308
g0
(g1
g2
(lp2309
VI
p2310
atp2311
Rp2312
(dp2313
g11
VPRP
p2314
sbatp2315
Rp2316
(dp2317
g11
VNP
p2318
sbag0
(g1
g2
(lp2319
g0
(g1
g2
(lp2320
Vcan
p2321
atp2322
Rp2323
(dp2324
g11
VMD
p2325
sbag0
(g1
g2
(lp2326
g0
(g1
g2
(lp2327
Vremark
p2328
atp2329
Rp2330
(dp2331
g11
VVB
p2332
sbag0
(g1
g2
(lp2333
g0
(g1
g2
(lp2334
Von
p2335
atp2336
Rp2337
(dp2338
g11
VIN
p2339
sbatp2340
Rp2341
(dp2342
g11
VPP
p2343
sbatp2344
Rp2345
(dp2346
g11
VVP
p2347
sbatp2348
Rp2349
(dp2350
g11
VVP
p2351
sbatp2352
Rp2353
(dp2354
g11
VS
p2355
sbatp2356
Rp2357
(dp2358
g11
VSBAR
p2359
sbatp2360
Rp2361
(dp2362
g11
VVP
p2363
sbag0
(g1
g2
(lp2364
V.
p2365
atp2366
Rp2367
(dp2368
g11
V.
p2369
sbatp2370
Rp2371
(dp2372
g11
VS
p2373
sbatp2374
Rp2375
(dp2376
g11
S'id: 14'
p2377
sbatp2378
Rp2379
(dp2380
g11
S'sentences'
p2381
sb.