ccopy_reg
_reconstructor
p0
(cnltk.tree
Tree
p1
c__builtin__
list
p2
(lp3
g0
(g1
g2
(lp4
g0
(g1
g2
(lp5
g0
(g1
g2
(lp6
g0
(g1
g2
(lp7
Voh
p8
atp9
Rp10
(dp11
S'_label'
p12
VUH
p13
sbatp14
Rp15
(dp16
g12
VINTJ
p17
sbag0
(g1
g2
(lp18
V,
p19
atp20
Rp21
(dp22
g12
V,
p23
sbag0
(g1
g2
(lp24
g0
(g1
g2
(lp25
Valright
p26
atp27
Rp28
(dp29
g12
VJJ
p30
sbatp31
Rp32
(dp33
g12
VNP
p34
sbag0
(g1
g2
(lp35
V,
p36
atp37
Rp38
(dp39
g12
V,
p40
sbag0
(g1
g2
(lp41
g0
(g1
g2
(lp42
Vwe
p43
atp44
Rp45
(dp46
g12
VPRP
p47
sbatp48
Rp49
(dp50
g12
VNP
p51
sbag0
(g1
g2
(lp52
g0
(g1
g2
(lp53
Vare
p54
atp55
Rp56
(dp57
g12
VVBP
p58
sbag0
(g1
g2
(lp59
g0
(g1
g2
(lp60
Vat
p61
atp62
Rp63
(dp64
g12
VIN
p65
sbag0
(g1
g2
(lp66
g0
(g1
g2
(lp67
Vthe
p68
atp69
Rp70
(dp71
g12
VDT
p72
sbag0
(g1
g2
(lp73
Vcircus
p74
atp75
Rp76
(dp77
g12
VNN
p78
sbatp79
Rp80
(dp81
g12
VNP
p82
sbatp83
Rp84
(dp85
g12
VPP
p86
sbatp87
Rp88
(dp89
g12
VVP
p90
sbag0
(g1
g2
(lp91
V.
p92
atp93
Rp94
(dp95
g12
V.
p96
sbatp97
Rp98
(dp99
g12
VS
p100
sbatp101
Rp102
(dp103
g12
S'id: 0'
p104
sbag0
(g1
g2
(lp105
g0
(g1
g2
(lp106
g0
(g1
g2
(lp107
g0
(g1
g2
(lp108
g0
(g1
g2
(lp109
Vthere
p110
atp111
Rp112
(dp113
g12
VEX
p114
sbatp115
Rp116
(dp117
g12
VNP
p118
sbag0
(g1
g2
(lp119
g0
(g1
g2
(lp120
Vare
p121
atp122
Rp123
(dp124
g12
VVBP
p125
sbatp126
Rp127
(dp128
g12
VVP
p129
sbatp130
Rp131
(dp132
g12
VS
p133
sbag0
(g1
g2
(lp134
V,
p135
atp136
Rp137
(dp138
g12
V,
p139
sbag0
(g1
g2
(lp140
g0
(g1
g2
(lp141
Vthere
p142
atp143
Rp144
(dp145
g12
VEX
p146
sbatp147
Rp148
(dp149
g12
VNP
p150
sbag0
(g1
g2
(lp151
g0
(g1
g2
(lp152
V's
p153
atp154
Rp155
(dp156
g12
VVBZ
p157
sbag0
(g1
g2
(lp158
g0
(g1
g2
(lp159
g0
(g1
g2
(lp160
Vthe
p161
atp162
Rp163
(dp164
g12
VDT
p165
sbatp166
Rp167
(dp168
g12
VNP
p169
sbag0
(g1
g2
(lp170
V,
p171
atp172
Rp173
(dp174
g12
V,
p175
sbag0
(g1
g2
(lp176
g0
(g1
g2
(lp177
g0
(g1
g2
(lp178
Vring
p179
atp180
Rp181
(dp182
g12
VNN
p183
sbatp184
Rp185
(dp186
g12
VNP
p187
sbag0
(g1
g2
(lp188
g0
(g1
g2
(lp189
Vwith
p190
atp191
Rp192
(dp193
g12
VIN
p194
sbag0
(g1
g2
(lp195
g0
(g1
g2
(lp196
Vthe
p197
atp198
Rp199
(dp200
g12
VDT
p201
sbag0
(g1
g2
(lp202
Vlion
p203
atp204
Rp205
(dp206
g12
VNN
p207
sbatp208
Rp209
(dp210
g12
VNP
p211
sbatp212
Rp213
(dp214
g12
VPP
p215
sbatp216
Rp217
(dp218
g12
VNP
p219
sbag0
(g1
g2
(lp220
Vand
p221
atp222
Rp223
(dp224
g12
VCC
p225
sbag0
(g1
g2
(lp226
g0
(g1
g2
(lp227
Vthe
p228
atp229
Rp230
(dp231
g12
VDT
p232
sbag0
(g1
g2
(lp233
Vlion
p234
atp235
Rp236
(dp237
g12
VNN
p238
sbag0
(g1
g2
(lp239
Vtamer
p240
atp241
Rp242
(dp243
g12
VJJR
p244
sbatp245
Rp246
(dp247
g12
VNP
p248
sbatp249
Rp250
(dp251
g12
VNP
p252
sbatp253
Rp254
(dp255
g12
VVP
p256
sbag0
(g1
g2
(lp257
V.
p258
atp259
Rp260
(dp261
g12
V.
p262
sbatp263
Rp264
(dp265
g12
VS
p266
sbatp267
Rp268
(dp269
g12
S'id: 1'
p270
sbag0
(g1
g2
(lp271
g0
(g1
g2
(lp272
g0
(g1
g2
(lp273
Vand
p274
atp275
Rp276
(dp277
g12
VCC
p278
sbag0
(g1
g2
(lp279
g0
(g1
g2
(lp280
Vin
p281
atp282
Rp283
(dp284
g12
VIN
p285
sbag0
(g1
g2
(lp286
g0
(g1
g2
(lp287
g0
(g1
g2
(lp288
g0
(g1
g2
(lp289
Vthe
p290
atp291
Rp292
(dp293
g12
VDT
p294
sbag0
(g1
g2
(lp295
Vring
p296
atp297
Rp298
(dp299
g12
VNN
p300
sbatp301
Rp302
(dp303
g12
VNP
p304
sbag0
(g1
g2
(lp305
g0
(g1
g2
(lp306
Von
p307
atp308
Rp309
(dp310
g12
VIN
p311
sbatp312
Rp313
(dp314
g12
VPP
p315
sbatp316
Rp317
(dp318
g12
VNP
p319
sbag0
(g1
g2
(lp320
V,
p321
atp322
Rp323
(dp324
g12
V,
p325
sbag0
(g1
g2
(lp326
g0
(g1
g2
(lp327
g0
(g1
g2
(lp328
Vring
p329
atp330
Rp331
(dp332
g12
VNN
p333
sbatp334
Rp335
(dp336
g12
VNP
p337
sbag0
(g1
g2
(lp338
g0
(g1
g2
(lp339
Von
p340
atp341
Rp342
(dp343
g12
VIN
p344
sbag0
(g1
g2
(lp345
g0
(g1
g2
(lp346
Vthe
p347
atp348
Rp349
(dp350
g12
VDT
p351
sbag0
(g1
g2
(lp352
Vright
p353
atp354
Rp355
(dp356
g12
VNN
p357
sbatp358
Rp359
(dp360
g12
VNP
p361
sbatp362
Rp363
(dp364
g12
VPP
p365
sbatp366
Rp367
(dp368
g12
VNP
p369
sbatp370
Rp371
(dp372
g12
VNP
p373
sbatp374
Rp375
(dp376
g12
VPP
p377
sbag0
(g1
g2
(lp378
V,
p379
atp380
Rp381
(dp382
g12
V,
p383
sbag0
(g1
g2
(lp384
g0
(g1
g2
(lp385
Vthere
p386
atp387
Rp388
(dp389
g12
VEX
p390
sbatp391
Rp392
(dp393
g12
VNP
p394
sbag0
(g1
g2
(lp395
g0
(g1
g2
(lp396
V's
p397
atp398
Rp399
(dp400
g12
VVBZ
p401
sbag0
(g1
g2
(lp402
V,
p403
atp404
Rp405
(dp406
g12
V,
p407
sbag0
(g1
g2
(lp408
g0
(g1
g2
(lp409
g0
(g1
g2
(lp410
g0
(g1
g2
(lp411
Vthe
p412
atp413
Rp414
(dp415
g12
VDT
p416
sbatp417
Rp418
(dp419
g12
VNP
p420
sbag0
(g1
g2
(lp421
V,
p422
atp423
Rp424
(dp425
g12
V,
p426
sbag0
(g1
g2
(lp427
g0
(g1
g2
(lp428
Vthe
p429
atp430
Rp431
(dp432
g12
VDT
p433
sbag0
(g1
g2
(lp434
Vhorse
p435
atp436
Rp437
(dp438
g12
VNN
p439
sbatp440
Rp441
(dp442
g12
VNP
p443
sbag0
(g1
g2
(lp444
Vand
p445
atp446
Rp447
(dp448
g12
VCC
p449
sbag0
(g1
g2
(lp450
g0
(g1
g2
(lp451
Vthe
p452
atp453
Rp454
(dp455
g12
VDT
p456
sbatp457
Rp458
(dp459
g12
VNP
p460
sbatp461
Rp462
(dp463
g12
VNP
p464
sbag0
(g1
g2
(lp465
V,
p466
atp467
Rp468
(dp469
g12
V,
p470
sbag0
(g1
g2
(lp471
g0
(g1
g2
(lp472
g0
(g1
g2
(lp473
Vthe
p474
atp475
Rp476
(dp477
g12
VDT
p478
sbag0
(g1
g2
(lp479
Vacrobat
p480
atp481
Rp482
(dp483
g12
VNN
p484
sbatp485
Rp486
(dp487
g12
VNP
p488
sbag0
(g1
g2
(lp489
g0
(g1
g2
(lp490
Von
p491
atp492
Rp493
(dp494
g12
VIN
p495
sbag0
(g1
g2
(lp496
g0
(g1
g2
(lp497
g0
(g1
g2
(lp498
Vtop
p499
atp500
Rp501
(dp502
g12
VNN
p503
sbatp504
Rp505
(dp506
g12
VNP
p507
sbag0
(g1
g2
(lp508
g0
(g1
g2
(lp509
Vof
p510
atp511
Rp512
(dp513
g12
VIN
p514
sbag0
(g1
g2
(lp515
g0
(g1
g2
(lp516
Vthe
p517
atp518
Rp519
(dp520
g12
VDT
p521
sbag0
(g1
g2
(lp522
Vhorse
p523
atp524
Rp525
(dp526
g12
VNN
p527
sbatp528
Rp529
(dp530
g12
VNP
p531
sbatp532
Rp533
(dp534
g12
VPP
p535
sbatp536
Rp537
(dp538
g12
VNP
p539
sbatp540
Rp541
(dp542
g12
VPP
p543
sbatp544
Rp545
(dp546
g12
VNP
p547
sbatp548
Rp549
(dp550
g12
VNP
p551
sbatp552
Rp553
(dp554
g12
VVP
p555
sbag0
(g1
g2
(lp556
V.
p557
atp558
Rp559
(dp560
g12
V.
p561
sbatp562
Rp563
(dp564
g12
VS
p565
sbatp566
Rp567
(dp568
g12
S'id: 2'
p569
sbag0
(g1
g2
(lp570
g0
(g1
g2
(lp571
g0
(g1
g2
(lp572
g0
(g1
g2
(lp573
Vthere
p574
atp575
Rp576
(dp577
g12
VEX
p578
sbatp579
Rp580
(dp581
g12
VNP
p582
sbag0
(g1
g2
(lp583
g0
(g1
g2
(lp584
V's
p585
atp586
Rp587
(dp588
g12
VVBZ
p589
sbag0
(g1
g2
(lp590
g0
(g1
g2
(lp591
g0
(g1
g2
(lp592
Va
p593
atp594
Rp595
(dp596
g12
VDT
p597
sbag0
(g1
g2
(lp598
g0
(g1
g2
(lp599
g0
(g1
g2
(lp600
V,
p601
atp602
Rp603
(dp604
g12
V,
p605
sbag0
(g1
g2
(lp606
Vhigh
p607
atp608
Rp609
(dp610
g12
VJJ
p611
sbag0
(g1
g2
(lp612
Vwire
p613
atp614
Rp615
(dp616
g12
VNN
p617
sbatp618
Rp619
(dp620
g12
VNP
p621
sbag0
(g1
g2
(lp622
g0
(g1
g2
(lp623
Vwith
p624
atp625
Rp626
(dp627
g12
VIN
p628
sbag0
(g1
g2
(lp629
g0
(g1
g2
(lp630
Va
p631
atp632
Rp633
(dp634
g12
VDT
p635
sbatp636
Rp637
(dp638
g12
VNP
p639
sbatp640
Rp641
(dp642
g12
VPP
p643
sbatp644
Rp645
(dp646
g12
VNP
p647
sbag0
(g1
g2
(lp648
V,
p649
atp650
Rp651
(dp652
g12
V,
p653
sbag0
(g1
g2
(lp654
Vacrobat
p655
atp656
Rp657
(dp658
g12
VNN
p659
sbatp660
Rp661
(dp662
g12
VNP
p663
sbag0
(g1
g2
(lp664
g0
(g1
g2
(lp665
Von
p666
atp667
Rp668
(dp669
g12
VIN
p670
sbag0
(g1
g2
(lp671
g0
(g1
g2
(lp672
g0
(g1
g2
(lp673
Vthe
p674
atp675
Rp676
(dp677
g12
VDT
p678
sbatp679
Rp680
(dp681
g12
VNP
p682
sbag0
(g1
g2
(lp683
V,
p684
atp685
Rp686
(dp687
g12
V,
p688
sbag0
(g1
g2
(lp689
Vor
p690
atp691
Rp692
(dp693
g12
VCC
p694
sbag0
(g1
g2
(lp695
g0
(g1
g2
(lp696
Vtrapeze
p697
atp698
Rp699
(dp700
g12
VNN
p701
sbag0
(g1
g2
(lp702
Vartist
p703
atp704
Rp705
(dp706
g12
VNN
p707
sbatp708
Rp709
(dp710
g12
VNP
p711
sbag0
(g1
g2
(lp712
g0
(g1
g2
(lp713
V,
p714
atp715
Rp716
(dp717
g12
V,
p718
sbag0
(g1
g2
(lp719
Vnot
p720
atp721
Rp722
(dp723
g12
VRB
p724
sbag0
(g1
g2
(lp725
g0
(g1
g2
(lp726
g0
(g1
g2
(lp727
Vtrapeze
p728
atp729
Rp730
(dp731
g12
VNN
p732
sbatp733
Rp734
(dp735
g12
VNP
p736
sbag0
(g1
g2
(lp737
Vbut
p738
atp739
Rp740
(dp741
g12
VCC
p742
sbag0
(g1
g2
(lp743
g0
(g1
g2
(lp744
Vjust
p745
atp746
Rp747
(dp748
g12
VRB
p749
sbag0
(g1
g2
(lp750
Va
p751
atp752
Rp753
(dp754
g12
VDT
p755
sbatp756
Rp757
(dp758
g12
VNP
p759
sbatp760
Rp761
(dp762
g12
VNP
p763
sbatp764
Rp765
(dp766
g12
VPRN
p767
sbatp768
Rp769
(dp770
g12
VNP
p771
sbatp772
Rp773
(dp774
g12
VPP
p775
sbag0
(g1
g2
(lp776
V,
p777
atp778
Rp779
(dp780
g12
V,
p781
sbag0
(g1
g2
(lp782
g0
(g1
g2
(lp783
Vwalking
p784
atp785
Rp786
(dp787
g12
VVBG
p788
sbag0
(g1
g2
(lp789
g0
(g1
g2
(lp790
Von
p791
atp792
Rp793
(dp794
g12
VIN
p795
sbag0
(g1
g2
(lp796
g0
(g1
g2
(lp797
Vthe
p798
atp799
Rp800
(dp801
g12
VDT
p802
sbag0
(g1
g2
(lp803
Vwire
p804
atp805
Rp806
(dp807
g12
VNN
p808
sbatp809
Rp810
(dp811
g12
VNP
p812
sbatp813
Rp814
(dp815
g12
VPP
p816
sbatp817
Rp818
(dp819
g12
VVP
p820
sbatp821
Rp822
(dp823
g12
VNP
p824
sbatp825
Rp826
(dp827
g12
VVP
p828
sbag0
(g1
g2
(lp829
V.
p830
atp831
Rp832
(dp833
g12
V.
p834
sbatp835
Rp836
(dp837
g12
VS
p838
sbatp839
Rp840
(dp841
g12
S'id: 3'
p842
sbag0
(g1
g2
(lp843
g0
(g1
g2
(lp844
g0
(g1
g2
(lp845
g0
(g1
g2
(lp846
Vseveral
p847
atp848
Rp849
(dp850
g12
VJJ
p851
sbatp852
Rp853
(dp854
g12
VADVP
p855
sbag0
(g1
g2
(lp856
g0
(g1
g2
(lp857
V,
p858
atp859
Rp860
(dp861
g12
V,
p862
sbag0
(g1
g2
(lp863
g0
(g1
g2
(lp864
g0
(g1
g2
(lp865
Vpeople
p866
atp867
Rp868
(dp869
g12
VNNS
p870
sbatp871
Rp872
(dp873
g12
VNP
p874
sbag0
(g1
g2
(lp875
g0
(g1
g2
(lp876
Vwatching
p877
atp878
Rp879
(dp880
g12
VVBG
p881
sbag0
(g1
g2
(lp882
g0
(g1
g2
(lp883
Vthe
p884
atp885
Rp886
(dp887
g12
VDT
p888
sbag0
(g1
g2
(lp889
Vcircus
p890
atp891
Rp892
(dp893
g12
VNN
p894
sbatp895
Rp896
(dp897
g12
VNP
p898
sbatp899
Rp900
(dp901
g12
VVP
p902
sbatp903
Rp904
(dp905
g12
VS
p906
sbag0
(g1
g2
(lp907
V,
p908
atp909
Rp910
(dp911
g12
V,
p912
sbatp913
Rp914
(dp915
g12
VPRN
p916
sbag0
(g1
g2
(lp917
g0
(g1
g2
(lp918
Vthere
p919
atp920
Rp921
(dp922
g12
VEX
p923
sbatp924
Rp925
(dp926
g12
VNP
p927
sbag0
(g1
g2
(lp928
g0
(g1
g2
(lp929
V's
p930
atp931
Rp932
(dp933
g12
VVBZ
p934
sbag0
(g1
g2
(lp935
g0
(g1
g2
(lp936
g0
(g1
g2
(lp937
Vboys
p938
atp939
Rp940
(dp941
g12
VNNS
p942
sbag0
(g1
g2
(lp943
Vand
p944
atp945
Rp946
(dp947
g12
VCC
p948
sbag0
(g1
g2
(lp949
Vgirls
p950
atp951
Rp952
(dp953
g12
VNNS
p954
sbatp955
Rp956
(dp957
g12
VNP
p958
sbag0
(g1
g2
(lp959
Vand
p960
atp961
Rp962
(dp963
g12
VCC
p964
sbag0
(g1
g2
(lp965
V,
p966
atp967
Rp968
(dp969
g12
V,
p970
sbag0
(g1
g2
(lp971
g0
(g1
g2
(lp972
Vparents
p973
atp974
Rp975
(dp976
g12
VNNS
p977
sbatp978
Rp979
(dp980
g12
VNP
p981
sbatp982
Rp983
(dp984
g12
VNP
p985
sbatp986
Rp987
(dp988
g12
VVP
p989
sbag0
(g1
g2
(lp990
V.
p991
atp992
Rp993
(dp994
g12
V.
p995
sbatp996
Rp997
(dp998
g12
VS
p999
sbatp1000
Rp1001
(dp1002
g12
S'id: 4'
p1003
sbag0
(g1
g2
(lp1004
g0
(g1
g2
(lp1005
g0
(g1
g2
(lp1006
Vand
p1007
atp1008
Rp1009
(dp1010
g12
VCC
p1011
sbag0
(g1
g2
(lp1012
g0
(g1
g2
(lp1013
Vthere
p1014
atp1015
Rp1016
(dp1017
g12
VEX
p1018
sbatp1019
Rp1020
(dp1021
g12
VNP
p1022
sbag0
(g1
g2
(lp1023
g0
(g1
g2
(lp1024
g0
(g1
g2
(lp1025
V's
p1026
atp1027
Rp1028
(dp1029
g12
VVBZ
p1030
sbag0
(g1
g2
(lp1031
g0
(g1
g2
(lp1032
g0
(g1
g2
(lp1033
Va
p1034
atp1035
Rp1036
(dp1037
g12
VDT
p1038
sbag0
(g1
g2
(lp1039
Vclown
p1040
atp1041
Rp1042
(dp1043
g12
VNN
p1044
sbatp1045
Rp1046
(dp1047
g12
VNP
p1048
sbag0
(g1
g2
(lp1049
g0
(g1
g2
(lp1050
Vin
p1051
atp1052
Rp1053
(dp1054
g12
VIN
p1055
sbag0
(g1
g2
(lp1056
g0
(g1
g2
(lp1057
Vthe
p1058
atp1059
Rp1060
(dp1061
g12
VDT
p1062
sbag0
(g1
g2
(lp1063
Vmiddle
p1064
atp1065
Rp1066
(dp1067
g12
VNN
p1068
sbatp1069
Rp1070
(dp1071
g12
VNP
p1072
sbatp1073
Rp1074
(dp1075
g12
VPP
p1076
sbatp1077
Rp1078
(dp1079
g12
VNP
p1080
sbatp1081
Rp1082
(dp1083
g12
VVP
p1084
sbag0
(g1
g2
(lp1085
V,
p1086
atp1087
Rp1088
(dp1089
g12
V,
p1090
sbag0
(g1
g2
(lp1091
Vand
p1092
atp1093
Rp1094
(dp1095
g12
VCC
p1096
sbag0
(g1
g2
(lp1097
g0
(g1
g2
(lp1098
g0
(g1
g2
(lp1099
Vlooks
p1100
atp1101
Rp1102
(dp1103
g12
VVBZ
p1104
sbag0
(g1
g2
(lp1105
g0
(g1
g2
(lp1106
Vlike
p1107
atp1108
Rp1109
(dp1110
g12
VIN
p1111
sbag0
(g1
g2
(lp1112
g0
(g1
g2
(lp1113
g0
(g1
g2
(lp1114
Vhe
p1115
atp1116
Rp1117
(dp1118
g12
VPRP
p1119
sbatp1120
Rp1121
(dp1122
g12
VNP
p1123
sbag0
(g1
g2
(lp1124
g0
(g1
g2
(lp1125
V's
p1126
atp1127
Rp1128
(dp1129
g12
VVBZ
p1130
sbag0
(g1
g2
(lp1131
V,
p1132
atp1133
Rp1134
(dp1135
g12
V,
p1136
sbag0
(g1
g2
(lp1137
g0
(g1
g2
(lp1138
Veither
p1139
atp1140
Rp1141
(dp1142
g12
VCC
p1143
sbatp1144
Rp1145
(dp1146
g12
VADVP
p1147
sbag0
(g1
g2
(lp1148
g0
(g1
g2
(lp1149
Vthrowing
p1150
atp1151
Rp1152
(dp1153
g12
VVBG
p1154
sbatp1155
Rp1156
(dp1157
g12
VVP
p1158
sbatp1159
Rp1160
(dp1161
g12
VVP
p1162
sbatp1163
Rp1164
(dp1165
g12
VS
p1166
sbatp1167
Rp1168
(dp1169
g12
VSBAR
p1170
sbatp1171
Rp1172
(dp1173
g12
VVP
p1174
sbag0
(g1
g2
(lp1175
Vor
p1176
atp1177
Rp1178
(dp1179
g12
VCC
p1180
sbag0
(g1
g2
(lp1181
g0
(g1
g2
(lp1182
Vspilling
p1183
atp1184
Rp1185
(dp1186
g12
VNN
p1187
sbag0
(g1
g2
(lp1188
g0
(g1
g2
(lp1189
g0
(g1
g2
(lp1190
Vsome
p1191
atp1192
Rp1193
(dp1194
g12
VDT
p1195
sbag0
(g1
g2
(lp1196
Vkind
p1197
atp1198
Rp1199
(dp1200
g12
VNN
p1201
sbatp1202
Rp1203
(dp1204
g12
VNP
p1205
sbag0
(g1
g2
(lp1206
g0
(g1
g2
(lp1207
Vof
p1208
atp1209
Rp1210
(dp1211
g12
VIN
p1212
sbag0
(g1
g2
(lp1213
g0
(g1
g2
(lp1214
V,
p1215
atp1216
Rp1217
(dp1218
g12
V,
p1219
sbag0
(g1
g2
(lp1220
g0
(g1
g2
(lp1221
g0
(g1
g2
(lp1222
Vtreat
p1223
atp1224
Rp1225
(dp1226
g12
VVB
p1227
sbatp1228
Rp1229
(dp1230
g12
VVP
p1231
sbatp1232
Rp1233
(dp1234
g12
VS
p1235
sbag0
(g1
g2
(lp1236
V,
p1237
atp1238
Rp1239
(dp1240
g12
V,
p1241
sbatp1242
Rp1243
(dp1244
g12
VPRN
p1245
sbag0
(g1
g2
(lp1246
g0
(g1
g2
(lp1247
Vpopcorn
p1248
atp1249
Rp1250
(dp1251
g12
VNN
p1252
sbag0
(g1
g2
(lp1253
Vmaybe
p1254
atp1255
Rp1256
(dp1257
g12
VRB
p1258
sbatp1259
Rp1260
(dp1261
g12
VNP
p1262
sbatp1263
Rp1264
(dp1265
g12
VPP
p1266
sbatp1267
Rp1268
(dp1269
g12
VNP
p1270
sbatp1271
Rp1272
(dp1273
g12
VVP
p1274
sbatp1275
Rp1276
(dp1277
g12
VVP
p1278
sbatp1279
Rp1280
(dp1281
g12
VVP
p1282
sbag0
(g1
g2
(lp1283
V.
p1284
atp1285
Rp1286
(dp1287
g12
V.
p1288
sbatp1289
Rp1290
(dp1291
g12
VS
p1292
sbatp1293
Rp1294
(dp1295
g12
S'id: 5'
p1296
sbag0
(g1
g2
(lp1297
g0
(g1
g2
(lp1298
g0
(g1
g2
(lp1299
Vand
p1300
atp1301
Rp1302
(dp1303
g12
VCC
p1304
sbag0
(g1
g2
(lp1305
g0
(g1
g2
(lp1306
Vlet
p1307
atp1308
Rp1309
(dp1310
g12
VVB
p1311
sbag0
(g1
g2
(lp1312
g0
(g1
g2
(lp1313
g0
(g1
g2
(lp1314
V's
p1315
atp1316
Rp1317
(dp1318
g12
VPOS
p1319
sbatp1320
Rp1321
(dp1322
g12
VNP
p1323
sbag0
(g1
g2
(lp1324
g0
(g1
g2
(lp1325
Vsee
p1326
atp1327
Rp1328
(dp1329
g12
VVB
p1330
sbatp1331
Rp1332
(dp1333
g12
VVP
p1334
sbatp1335
Rp1336
(dp1337
g12
VS
p1338
sbatp1339
Rp1340
(dp1341
g12
VVP
p1342
sbag0
(g1
g2
(lp1343
V.
p1344
atp1345
Rp1346
(dp1347
g12
V.
p1348
sbatp1349
Rp1350
(dp1351
g12
VS
p1352
sbatp1353
Rp1354
(dp1355
g12
S'id: 6'
p1356
sbag0
(g1
g2
(lp1357
g0
(g1
g2
(lp1358
g0
(g1
g2
(lp1359
g0
(g1
g2
(lp1360
g0
(g1
g2
(lp1361
g0
(g1
g2
(lp1362
Vthe
p1363
atp1364
Rp1365
(dp1366
g12
VDT
p1367
sbag0
(g1
g2
(lp1368
Vcrown
p1369
atp1370
Rp1371
(dp1372
g12
VNN
p1373
sbatp1374
Rp1375
(dp1376
g12
VNP
p1377
sbag0
(g1
g2
(lp1378
V,
p1379
atp1380
Rp1381
(dp1382
g12
V,
p1383
sbag0
(g1
g2
(lp1384
g0
(g1
g2
(lp1385
Vclown
p1386
atp1387
Rp1388
(dp1389
g12
VNN
p1390
sbatp1391
Rp1392
(dp1393
g12
VNP
p1394
sbatp1395
Rp1396
(dp1397
g12
VNP
p1398
sbag0
(g1
g2
(lp1399
g0
(g1
g2
(lp1400
Vis
p1401
atp1402
Rp1403
(dp1404
g12
VVBZ
p1405
sbag0
(g1
g2
(lp1406
g0
(g1
g2
(lp1407
Vwearing
p1408
atp1409
Rp1410
(dp1411
g12
VVBG
p1412
sbag0
(g1
g2
(lp1413
g0
(g1
g2
(lp1414
Va
p1415
atp1416
Rp1417
(dp1418
g12
VDT
p1419
sbag0
(g1
g2
(lp1420
Vhat
p1421
atp1422
Rp1423
(dp1424
g12
VNN
p1425
sbatp1426
Rp1427
(dp1428
g12
VNP
p1429
sbag0
(g1
g2
(lp1430
g0
(g1
g2
(lp1431
Vwith
p1432
atp1433
Rp1434
(dp1435
g12
VIN
p1436
sbag0
(g1
g2
(lp1437
g0
(g1
g2
(lp1438
Va
p1439
atp1440
Rp1441
(dp1442
g12
VDT
p1443
sbag0
(g1
g2
(lp1444
Vflower
p1445
atp1446
Rp1447
(dp1448
g12
VNN
p1449
sbatp1450
Rp1451
(dp1452
g12
VNP
p1453
sbatp1454
Rp1455
(dp1456
g12
VPP
p1457
sbatp1458
Rp1459
(dp1460
g12
VVP
p1461
sbatp1462
Rp1463
(dp1464
g12
VVP
p1465
sbatp1466
Rp1467
(dp1468
g12
VS
p1469
sbag0
(g1
g2
(lp1470
Vand
p1471
atp1472
Rp1473
(dp1474
g12
VCC
p1475
sbag0
(g1
g2
(lp1476
V,
p1477
atp1478
Rp1479
(dp1480
g12
V,
p1481
sbag0
(g1
g2
(lp1482
g0
(g1
g2
(lp1483
g0
(g1
g2
(lp1484
Vhe
p1485
atp1486
Rp1487
(dp1488
g12
VPRP
p1489
sbatp1490
Rp1491
(dp1492
g12
VNP
p1493
sbag0
(g1
g2
(lp1494
g0
(g1
g2
(lp1495
g0
(g1
g2
(lp1496
V's
p1497
atp1498
Rp1499
(dp1500
g12
VVBZ
p1501
sbag0
(g1
g2
(lp1502
g0
(g1
g2
(lp1503
Vgot
p1504
atp1505
Rp1506
(dp1507
g12
VVBD
p1508
sbag0
(g1
g2
(lp1509
g0
(g1
g2
(lp1510
g0
(g1
g2
(lp1511
Vhis
p1512
atp1513
Rp1514
(dp1515
g12
VPRP$
p1516
sbag0
(g1
g2
(lp1517
Vclown
p1518
atp1519
Rp1520
(dp1521
g12
VNN
p1522
sbag0
(g1
g2
(lp1523
g0
(g1
g2
(lp1524
g0
(g1
g2
(lp1525
Vmake
p1526
atp1527
Rp1528
(dp1529
g12
VVB
p1530
sbag0
(g1
g2
(lp1531
g0
(g1
g2
(lp1532
Vup
p1533
atp1534
Rp1535
(dp1536
g12
VRP
p1537
sbatp1538
Rp1539
(dp1540
g12
VPRT
p1541
sbatp1542
Rp1543
(dp1544
g12
VVP
p1545
sbatp1546
Rp1547
(dp1548
g12
VS
p1549
sbatp1550
Rp1551
(dp1552
g12
VNP
p1553
sbag0
(g1
g2
(lp1554
Vand
p1555
atp1556
Rp1557
(dp1558
g12
VCC
p1559
sbag0
(g1
g2
(lp1560
g0
(g1
g2
(lp1561
Va
p1562
atp1563
Rp1564
(dp1565
g12
VDT
p1566
sbag0
(g1
g2
(lp1567
Vsmiley
p1568
atp1569
Rp1570
(dp1571
g12
VNN
p1572
sbag0
(g1
g2
(lp1573
Vface
p1574
atp1575
Rp1576
(dp1577
g12
VNN
p1578
sbatp1579
Rp1580
(dp1581
g12
VNP
p1582
sbatp1583
Rp1584
(dp1585
g12
VNP
p1586
sbatp1587
Rp1588
(dp1589
g12
VVP
p1590
sbatp1591
Rp1592
(dp1593
g12
VVP
p1594
sbag0
(g1
g2
(lp1595
V,
p1596
atp1597
Rp1598
(dp1599
g12
V,
p1600
sbag0
(g1
g2
(lp1601
Vand
p1602
atp1603
Rp1604
(dp1605
g12
VCC
p1606
sbag0
(g1
g2
(lp1607
g0
(g1
g2
(lp1608
Vhas
p1609
atp1610
Rp1611
(dp1612
g12
VVBZ
p1613
sbag0
(g1
g2
(lp1614
g0
(g1
g2
(lp1615
g0
(g1
g2
(lp1616
Va
p1617
atp1618
Rp1619
(dp1620
g12
VDT
p1621
sbatp1622
Rp1623
(dp1624
g12
VNP
p1625
sbag0
(g1
g2
(lp1626
V,
p1627
atp1628
Rp1629
(dp1630
g12
V,
p1631
sbag0
(g1
g2
(lp1632
g0
(g1
g2
(lp1633
Vcow
p1634
atp1635
Rp1636
(dp1637
g12
VNN
p1638
sbatp1639
Rp1640
(dp1641
g12
VNP
p1642
sbag0
(g1
g2
(lp1643
V,
p1644
atp1645
Rp1646
(dp1647
g12
V,
p1648
sbag0
(g1
g2
(lp1649
g0
(g1
g2
(lp1650
Vcollar
p1651
atp1652
Rp1653
(dp1654
g12
VNN
p1655
sbatp1656
Rp1657
(dp1658
g12
VNP
p1659
sbag0
(g1
g2
(lp1660
Vand
p1661
atp1662
Rp1663
(dp1664
g12
VCC
p1665
sbag0
(g1
g2
(lp1666
g0
(g1
g2
(lp1667
Vstriped
p1668
atp1669
Rp1670
(dp1671
g12
VJJ
p1672
sbag0
(g1
g2
(lp1673
Vpants
p1674
atp1675
Rp1676
(dp1677
g12
VNNS
p1678
sbatp1679
Rp1680
(dp1681
g12
VNP
p1682
sbatp1683
Rp1684
(dp1685
g12
VNP
p1686
sbatp1687
Rp1688
(dp1689
g12
VVP
p1690
sbatp1691
Rp1692
(dp1693
g12
VVP
p1694
sbatp1695
Rp1696
(dp1697
g12
VS
p1698
sbag0
(g1
g2
(lp1699
V.
p1700
atp1701
Rp1702
(dp1703
g12
V.
p1704
sbatp1705
Rp1706
(dp1707
g12
VS
p1708
sbatp1709
Rp1710
(dp1711
g12
S'id: 7'
p1712
sbag0
(g1
g2
(lp1713
g0
(g1
g2
(lp1714
g0
(g1
g2
(lp1715
g0
(g1
g2
(lp1716
g0
(g1
g2
(lp1717
g0
(g1
g2
(lp1718
Vthe
p1719
atp1720
Rp1721
(dp1722
g12
VDT
p1723
sbatp1724
Rp1725
(dp1726
g12
VNP
p1727
sbag0
(g1
g2
(lp1728
V,
p1729
atp1730
Rp1731
(dp1732
g12
V,
p1733
sbag0
(g1
g2
(lp1734
g0
(g1
g2
(lp1735
g0
(g1
g2
(lp1736
Vlion
p1737
atp1738
Rp1739
(dp1740
g12
VNN
p1741
sbatp1742
Rp1743
(dp1744
g12
VNP
p1745
sbag0
(g1
g2
(lp1746
g0
(g1
g2
(lp1747
Vtamer
p1748
atp1749
Rp1750
(dp1751
g12
VJJR
p1752
sbatp1753
Rp1754
(dp1755
g12
VADJP
p1756
sbag0
(g1
g2
(lp1757
V's
p1758
atp1759
Rp1760
(dp1761
g12
VPOS
p1762
sbatp1763
Rp1764
(dp1765
g12
VNP
p1766
sbatp1767
Rp1768
(dp1769
g12
VNP
p1770
sbag0
(g1
g2
(lp1771
g0
(g1
g2
(lp1772
Vwearing
p1773
atp1774
Rp1775
(dp1776
g12
VVBG
p1777
sbag0
(g1
g2
(lp1778
g0
(g1
g2
(lp1779
Va
p1780
atp1781
Rp1782
(dp1783
g12
VDT
p1784
sbag0
(g1
g2
(lp1785
Vtop
p1786
atp1787
Rp1788
(dp1789
g12
VJJ
p1790
sbag0
(g1
g2
(lp1791
Vhat
p1792
atp1793
Rp1794
(dp1795
g12
VNN
p1796
sbatp1797
Rp1798
(dp1799
g12
VNP
p1800
sbag0
(g1
g2
(lp1801
g0
(g1
g2
(lp1802
Vwith
p1803
atp1804
Rp1805
(dp1806
g12
VIN
p1807
sbatp1808
Rp1809
(dp1810
g12
VPP
p1811
sbatp1812
Rp1813
(dp1814
g12
VVP
p1815
sbatp1816
Rp1817
(dp1818
g12
VS
p1819
sbag0
(g1
g2
(lp1820
V,
p1821
atp1822
Rp1823
(dp1824
g12
V,
p1825
sbag0
(g1
g2
(lp1826
g0
(g1
g2
(lp1827
g0
(g1
g2
(lp1828
g0
(g1
g2
(lp1829
Vtails
p1830
atp1831
Rp1832
(dp1833
g12
VNNS
p1834
sbag0
(g1
g2
(lp1835
Vand
p1836
atp1837
Rp1838
(dp1839
g12
VCC
p1840
sbag0
(g1
g2
(lp1841
Vblack
p1842
atp1843
Rp1844
(dp1845
g12
VJJ
p1846
sbag0
(g1
g2
(lp1847
Vpants
p1848
atp1849
Rp1850
(dp1851
g12
VNNS
p1852
sbatp1853
Rp1854
(dp1855
g12
VNP
p1856
sbag0
(g1
g2
(lp1857
g0
(g1
g2
(lp1858
Vwith
p1859
atp1860
Rp1861
(dp1862
g12
VIN
p1863
sbag0
(g1
g2
(lp1864
g0
(g1
g2
(lp1865
Va
p1866
atp1867
Rp1868
(dp1869
g12
VDT
p1870
sbag0
(g1
g2
(lp1871
Vcummerbund
p1872
atp1873
Rp1874
(dp1875
g12
VNN
p1876
sbatp1877
Rp1878
(dp1879
g12
VNP
p1880
sbatp1881
Rp1882
(dp1883
g12
VPP
p1884
sbatp1885
Rp1886
(dp1887
g12
VNP
p1888
sbatp1889
Rp1890
(dp1891
g12
VFRAG
p1892
sbag0
(g1
g2
(lp1893
V.
p1894
atp1895
Rp1896
(dp1897
g12
V.
p1898
sbatp1899
Rp1900
(dp1901
g12
VS
p1902
sbatp1903
Rp1904
(dp1905
g12
S'id: 8'
p1906
sbag0
(g1
g2
(lp1907
g0
(g1
g2
(lp1908
g0
(g1
g2
(lp1909
Vand
p1910
atp1911
Rp1912
(dp1913
g12
VCC
p1914
sbag0
(g1
g2
(lp1915
g0
(g1
g2
(lp1916
g0
(g1
g2
(lp1917
Vlet
p1918
atp1919
Rp1920
(dp1921
g12
VVB
p1922
sbag0
(g1
g2
(lp1923
g0
(g1
g2
(lp1924
g0
(g1
g2
(lp1925
V's
p1926
atp1927
Rp1928
(dp1929
g12
VPOS
p1930
sbatp1931
Rp1932
(dp1933
g12
VNP
p1934
sbag0
(g1
g2
(lp1935
g0
(g1
g2
(lp1936
Vsee
p1937
atp1938
Rp1939
(dp1940
g12
VVB
p1941
sbag0
(g1
g2
(lp1942
g0
(g1
g2
(lp1943
Vthe
p1944
atp1945
Rp1946
(dp1947
g12
VDT
p1948
sbatp1949
Rp1950
(dp1951
g12
VNP
p1952
sbatp1953
Rp1954
(dp1955
g12
VVP
p1956
sbatp1957
Rp1958
(dp1959
g12
VS
p1960
sbatp1961
Rp1962
(dp1963
g12
VVP
p1964
sbatp1965
Rp1966
(dp1967
g12
VS
p1968
sbag0
(g1
g2
(lp1969
V,
p1970
atp1971
Rp1972
(dp1973
g12
V,
p1974
sbag0
(g1
g2
(lp1975
g0
(g1
g2
(lp1976
g0
(g1
g2
(lp1977
Vacrobat
p1978
atp1979
Rp1980
(dp1981
g12
VNN
p1982
sbatp1983
Rp1984
(dp1985
g12
VNP
p1986
sbag0
(g1
g2
(lp1987
g0
(g1
g2
(lp1988
Von
p1989
atp1990
Rp1991
(dp1992
g12
VIN
p1993
sbag0
(g1
g2
(lp1994
g0
(g1
g2
(lp1995
Vthe
p1996
atp1997
Rp1998
(dp1999
g12
VDT
p2000
sbag0
(g1
g2
(lp2001
Vhorse
p2002
atp2003
Rp2004
(dp2005
g12
VNN
p2006
sbatp2007
Rp2008
(dp2009
g12
VNP
p2010
sbatp2011
Rp2012
(dp2013
g12
VPP
p2014
sbatp2015
Rp2016
(dp2017
g12
VNP
p2018
sbag0
(g1
g2
(lp2019
g0
(g1
g2
(lp2020
Vis
p2021
atp2022
Rp2023
(dp2024
g12
VVBZ
p2025
sbag0
(g1
g2
(lp2026
g0
(g1
g2
(lp2027
Vwearing
p2028
atp2029
Rp2030
(dp2031
g12
VVBG
p2032
sbag0
(g1
g2
(lp2033
g0
(g1
g2
(lp2034
g0
(g1
g2
(lp2035
Va
p2036
atp2037
Rp2038
(dp2039
g12
VDT
p2040
sbag0
(g1
g2
(lp2041
Vtutu
p2042
atp2043
Rp2044
(dp2045
g12
VNN
p2046
sbatp2047
Rp2048
(dp2049
g12
VNP
p2050
sbag0
(g1
g2
(lp2051
V,
p2052
atp2053
Rp2054
(dp2055
g12
V,
p2056
sbag0
(g1
g2
(lp2057
Vand
p2058
atp2059
Rp2060
(dp2061
g12
VCC
p2062
sbag0
(g1
g2
(lp2063
g0
(g1
g2
(lp2064
Va
p2065
atp2066
Rp2067
(dp2068
g12
VDT
p2069
sbag0
(g1
g2
(lp2070
Vballet
p2071
atp2072
Rp2073
(dp2074
g12
VJJ
p2075
sbag0
(g1
g2
(lp2076
V,
p2077
atp2078
Rp2079
(dp2080
g12
V,
p2081
sbag0
(g1
g2
(lp2082
Vballetic
p2083
atp2084
Rp2085
(dp2086
g12
VJJ
p2087
sbag0
(g1
g2
(lp2088
Vtype
p2089
atp2090
Rp2091
(dp2092
g12
VNN
p2093
sbag0
(g1
g2
(lp2094
Vcostume
p2095
atp2096
Rp2097
(dp2098
g12
VNN
p2099
sbatp2100
Rp2101
(dp2102
g12
VNP
p2103
sbatp2104
Rp2105
(dp2106
g12
VNP
p2107
sbatp2108
Rp2109
(dp2110
g12
VVP
p2111
sbatp2112
Rp2113
(dp2114
g12
VVP
p2115
sbag0
(g1
g2
(lp2116
V.
p2117
atp2118
Rp2119
(dp2120
g12
V.
p2121
sbatp2122
Rp2123
(dp2124
g12
VS
p2125
sbatp2126
Rp2127
(dp2128
g12
S'id: 9'
p2129
sbag0
(g1
g2
(lp2130
g0
(g1
g2
(lp2131
g0
(g1
g2
(lp2132
g0
(g1
g2
(lp2133
g0
(g1
g2
(lp2134
Vlet
p2135
atp2136
Rp2137
(dp2138
g12
VVB
p2139
sbag0
(g1
g2
(lp2140
g0
(g1
g2
(lp2141
g0
(g1
g2
(lp2142
V's
p2143
atp2144
Rp2145
(dp2146
g12
VPOS
p2147
sbatp2148
Rp2149
(dp2150
g12
VNP
p2151
sbag0
(g1
g2
(lp2152
g0
(g1
g2
(lp2153
Vsee
p2154
atp2155
Rp2156
(dp2157
g12
VVB
p2158
sbatp2159
Rp2160
(dp2161
g12
VVP
p2162
sbatp2163
Rp2164
(dp2165
g12
VS
p2166
sbatp2167
Rp2168
(dp2169
g12
VVP
p2170
sbatp2171
Rp2172
(dp2173
g12
VS
p2174
sbag0
(g1
g2
(lp2175
V,
p2176
atp2177
Rp2178
(dp2179
g12
V,
p2180
sbag0
(g1
g2
(lp2181
g0
(g1
g2
(lp2182
Vthere
p2183
atp2184
Rp2185
(dp2186
g12
VEX
p2187
sbatp2188
Rp2189
(dp2190
g12
VNP
p2191
sbag0
(g1
g2
(lp2192
g0
(g1
g2
(lp2193
V's
p2194
atp2195
Rp2196
(dp2197
g12
VVBZ
p2198
sbag0
(g1
g2
(lp2199
g0
(g1
g2
(lp2200
Vstars
p2201
atp2202
Rp2203
(dp2204
g12
VNNS
p2205
sbatp2206
Rp2207
(dp2208
g12
VNP
p2209
sbag0
(g1
g2
(lp2210
g0
(g1
g2
(lp2211
Varound
p2212
atp2213
Rp2214
(dp2215
g12
VIN
p2216
sbag0
(g1
g2
(lp2217
Vthe
p2218
atp2219
Rp2220
(dp2221
g12
VDT
p2222
sbatp2223
Rp2224
(dp2225
g12
VADVP
p2226
sbag0
(g1
g2
(lp2227
V,
p2228
atp2229
Rp2230
(dp2231
g12
V,
p2232
sbag0
(g1
g2
(lp2233
g0
(g1
g2
(lp2234
g0
(g1
g2
(lp2235
Vhorse
p2236
atp2237
Rp2238
(dp2239
g12
VNN
p2240
sbatp2241
Rp2242
(dp2243
g12
VNP
p2244
sbag0
(g1
g2
(lp2245
V,
p2246
atp2247
Rp2248
(dp2249
g12
V,
p2250
sbag0
(g1
g2
(lp2251
g0
(g1
g2
(lp2252
g0
(g1
g2
(lp2253
Vthe
p2254
atp2255
Rp2256
(dp2257
g12
VDT
p2258
sbag0
(g1
g2
(lp2259
Vring
p2260
atp2261
Rp2262
(dp2263
g12
VNN
p2264
sbatp2265
Rp2266
(dp2267
g12
VNP
p2268
sbag0
(g1
g2
(lp2269
g0
(g1
g2
(lp2270
Vwith
p2271
atp2272
Rp2273
(dp2274
g12
VIN
p2275
sbag0
(g1
g2
(lp2276
g0
(g1
g2
(lp2277
Vthe
p2278
atp2279
Rp2280
(dp2281
g12
VDT
p2282
sbag0
(g1
g2
(lp2283
Vhorse
p2284
atp2285
Rp2286
(dp2287
g12
VNN
p2288
sbatp2289
Rp2290
(dp2291
g12
VNP
p2292
sbatp2293
Rp2294
(dp2295
g12
VPP
p2296
sbatp2297
Rp2298
(dp2299
g12
VNP
p2300
sbatp2301
Rp2302
(dp2303
g12
VNP
p2304
sbatp2305
Rp2306
(dp2307
g12
VVP
p2308
sbag0
(g1
g2
(lp2309
V.
p2310
atp2311
Rp2312
(dp2313
g12
V.
p2314
sbatp2315
Rp2316
(dp2317
g12
VS
p2318
sbatp2319
Rp2320
(dp2321
g12
S'id: 10'
p2322
sbag0
(g1
g2
(lp2323
g0
(g1
g2
(lp2324
g0
(g1
g2
(lp2325
Vand
p2326
atp2327
Rp2328
(dp2329
g12
VCC
p2330
sbag0
(g1
g2
(lp2331
g0
(g1
g2
(lp2332
Vthere
p2333
atp2334
Rp2335
(dp2336
g12
VEX
p2337
sbatp2338
Rp2339
(dp2340
g12
VNP
p2341
sbag0
(g1
g2
(lp2342
g0
(g1
g2
(lp2343
Vare
p2344
atp2345
Rp2346
(dp2347
g12
VVBP
p2348
sbag0
(g1
g2
(lp2349
g0
(g1
g2
(lp2350
Vstripes
p2351
atp2352
Rp2353
(dp2354
g12
VNNS
p2355
sbatp2356
Rp2357
(dp2358
g12
VNP
p2359
sbag0
(g1
g2
(lp2360
g0
(g1
g2
(lp2361
Varound
p2362
atp2363
Rp2364
(dp2365
g12
VIN
p2366
sbag0
(g1
g2
(lp2367
Vthe
p2368
atp2369
Rp2370
(dp2371
g12
VDT
p2372
sbatp2373
Rp2374
(dp2375
g12
VADVP
p2376
sbag0
(g1
g2
(lp2377
V,
p2378
atp2379
Rp2380
(dp2381
g12
V,
p2382
sbag0
(g1
g2
(lp2383
g0
(g1
g2
(lp2384
g0
(g1
g2
(lp2385
g0
(g1
g2
(lp2386
Vring
p2387
atp2388
Rp2389
(dp2390
g12
VNN
p2391
sbatp2392
Rp2393
(dp2394
g12
VNP
p2395
sbag0
(g1
g2
(lp2396
g0
(g1
g2
(lp2397
Vwith
p2398
atp2399
Rp2400
(dp2401
g12
VIN
p2402
sbag0
(g1
g2
(lp2403
g0
(g1
g2
(lp2404
Vthe
p2405
atp2406
Rp2407
(dp2408
g12
VDT
p2409
sbag0
(g1
g2
(lp2410
Vlion
p2411
atp2412
Rp2413
(dp2414
g12
VNN
p2415
sbatp2416
Rp2417
(dp2418
g12
VNP
p2419
sbatp2420
Rp2421
(dp2422
g12
VPP
p2423
sbatp2424
Rp2425
(dp2426
g12
VNP
p2427
sbag0
(g1
g2
(lp2428
Vtamer
p2429
atp2430
Rp2431
(dp2432
g12
VJJR
p2433
sbatp2434
Rp2435
(dp2436
g12
VADJP
p2437
sbatp2438
Rp2439
(dp2440
g12
VVP
p2441
sbag0
(g1
g2
(lp2442
V.
p2443
atp2444
Rp2445
(dp2446
g12
V.
p2447
sbatp2448
Rp2449
(dp2450
g12
VS
p2451
sbatp2452
Rp2453
(dp2454
g12
S'id: 11'
p2455
sbag0
(g1
g2
(lp2456
g0
(g1
g2
(lp2457
g0
(g1
g2
(lp2458
Vand
p2459
atp2460
Rp2461
(dp2462
g12
VCC
p2463
sbag0
(g1
g2
(lp2464
g0
(g1
g2
(lp2465
g0
(g1
g2
(lp2466
Vthere
p2467
atp2468
Rp2469
(dp2470
g12
VEX
p2471
sbatp2472
Rp2473
(dp2474
g12
VNP
p2475
sbag0
(g1
g2
(lp2476
g0
(g1
g2
(lp2477
V's
p2478
atp2479
Rp2480
(dp2481
g12
VVBZ
p2482
sbatp2483
Rp2484
(dp2485
g12
VVP
p2486
sbatp2487
Rp2488
(dp2489
g12
VS
p2490
sbatp2491
Rp2492
(dp2493
g12
VPRN
p2494
sbatp2495
Rp2496
(dp2497
g12
S'id: 12'
p2498
sbatp2499
Rp2500
(dp2501
g12
S'sentences'
p2502
sb.