ccopy_reg
_reconstructor
p0
(cnltk.tree
Tree
p1
c__builtin__
list
p2
(lp3
g0
(g1
g2
(lp4
g0
(g1
g2
(lp5
g0
(g1
g2
(lp6
V`
p7
atp8
Rp9
(dp10
S'_label'
p11
V``
p12
sbag0
(g1
g2
(lp13
g0
(g1
g2
(lp14
Vkay
p15
atp16
Rp17
(dp18
g11
VFW
p19
sbatp20
Rp21
(dp22
g11
VVP
p23
sbag0
(g1
g2
(lp24
V.
p25
atp26
Rp27
(dp28
g11
V.
p29
sbatp30
Rp31
(dp32
g11
VS
p33
sbatp34
Rp35
(dp36
g11
S'id: 0'
p37
sbag0
(g1
g2
(lp38
g0
(g1
g2
(lp39
g0
(g1
g2
(lp40
Vi
p41
atp42
Rp43
(dp44
g11
VLS
p45
sbag0
(g1
g2
(lp46
g0
(g1
g2
(lp47
Vsee
p48
atp49
Rp50
(dp51
g11
VVB
p52
sbag0
(g1
g2
(lp53
g0
(g1
g2
(lp54
g0
(g1
g2
(lp55
Va
p56
atp57
Rp58
(dp59
g11
VDT
p60
sbatp61
Rp62
(dp63
g11
VNP
p64
sbag0
(g1
g2
(lp65
V,
p66
atp67
Rp68
(dp69
g11
V,
p70
sbag0
(g1
g2
(lp71
g0
(g1
g2
(lp72
Va
p73
atp74
Rp75
(dp76
g11
VDT
p77
sbag0
(g1
g2
(lp78
Vfamily
p79
atp80
Rp81
(dp82
g11
VNN
p83
sbatp84
Rp85
(dp86
g11
VNP
p87
sbag0
(g1
g2
(lp88
Vand
p89
atp90
Rp91
(dp92
g11
VCC
p93
sbag0
(g1
g2
(lp94
g0
(g1
g2
(lp95
Vtheir
p96
atp97
Rp98
(dp99
g11
VPRP$
p100
sbag0
(g1
g2
(lp101
Vkitchen
p102
atp103
Rp104
(dp105
g11
VNN
p106
sbatp107
Rp108
(dp109
g11
VNP
p110
sbatp111
Rp112
(dp113
g11
VNP
p114
sbatp115
Rp116
(dp117
g11
VVP
p118
sbag0
(g1
g2
(lp119
V.
p120
atp121
Rp122
(dp123
g11
V.
p124
sbatp125
Rp126
(dp127
g11
VS
p128
sbatp129
Rp130
(dp131
g11
S'id: 1'
p132
sbag0
(g1
g2
(lp133
g0
(g1
g2
(lp134
g0
(g1
g2
(lp135
g0
(g1
g2
(lp136
g0
(g1
g2
(lp137
Vmom
p138
atp139
Rp140
(dp141
g11
VNN
p142
sbatp143
Rp144
(dp145
g11
VNP
p146
sbag0
(g1
g2
(lp147
g0
(g1
g2
(lp148
Vis
p149
atp150
Rp151
(dp152
g11
VVBZ
p153
sbag0
(g1
g2
(lp154
g0
(g1
g2
(lp155
Vdoing
p156
atp157
Rp158
(dp159
g11
VVBG
p160
sbag0
(g1
g2
(lp161
g0
(g1
g2
(lp162
Vthe
p163
atp164
Rp165
(dp166
g11
VDT
p167
sbag0
(g1
g2
(lp168
Vdishes
p169
atp170
Rp171
(dp172
g11
VNNS
p173
sbatp174
Rp175
(dp176
g11
VNP
p177
sbag0
(g1
g2
(lp178
g0
(g1
g2
(lp179
Vwith
p180
atp181
Rp182
(dp183
g11
VIN
p184
sbag0
(g1
g2
(lp185
g0
(g1
g2
(lp186
Vher
p187
atp188
Rp189
(dp190
g11
VPRP
p191
sbatp192
Rp193
(dp194
g11
VNP
p195
sbatp196
Rp197
(dp198
g11
VPP
p199
sbatp200
Rp201
(dp202
g11
VVP
p203
sbatp204
Rp205
(dp206
g11
VVP
p207
sbatp208
Rp209
(dp210
g11
VS
p211
sbag0
(g1
g2
(lp212
V,
p213
atp214
Rp215
(dp216
g11
V,
p217
sbag0
(g1
g2
(lp218
g0
(g1
g2
(lp219
g0
(g1
g2
(lp220
g0
(g1
g2
(lp221
Vher
p222
atp223
Rp224
(dp225
g11
VPRP$
p226
sbag0
(g1
g2
(lp227
Vsink
p228
atp229
Rp230
(dp231
g11
VNN
p232
sbatp233
Rp234
(dp235
g11
VNP
p236
sbag0
(g1
g2
(lp237
g0
(g1
g2
(lp238
Vis
p239
atp240
Rp241
(dp242
g11
VVBZ
p243
sbag0
(g1
g2
(lp244
g0
(g1
g2
(lp245
Voverflowing
p246
atp247
Rp248
(dp249
g11
VVBG
p250
sbatp251
Rp252
(dp253
g11
VVP
p254
sbatp255
Rp256
(dp257
g11
VVP
p258
sbatp259
Rp260
(dp261
g11
VS
p262
sbag0
(g1
g2
(lp263
V,
p264
atp265
Rp266
(dp267
g11
V,
p268
sbatp269
Rp270
(dp271
g11
VPRN
p272
sbag0
(g1
g2
(lp273
g0
(g1
g2
(lp274
Vshe
p275
atp276
Rp277
(dp278
g11
VPRP
p279
sbatp280
Rp281
(dp282
g11
VNP
p283
sbag0
(g1
g2
(lp284
V,
p285
atp286
Rp287
(dp288
g11
V,
p289
sbag0
(g1
g2
(lp290
g0
(g1
g2
(lp291
Vlet
p292
atp293
Rp294
(dp295
g11
VVB
p296
sbag0
(g1
g2
(lp297
g0
(g1
g2
(lp298
g0
(g1
g2
(lp299
Vthe
p300
atp301
Rp302
(dp303
g11
VDT
p304
sbag0
(g1
g2
(lp305
Vwater
p306
atp307
Rp308
(dp309
g11
VNN
p310
sbatp311
Rp312
(dp313
g11
VNP
p314
sbag0
(g1
g2
(lp315
g0
(g1
g2
(lp316
Vrun
p317
atp318
Rp319
(dp320
g11
VVB
p321
sbatp322
Rp323
(dp324
g11
VVP
p325
sbatp326
Rp327
(dp328
g11
VS
p329
sbatp330
Rp331
(dp332
g11
VVP
p333
sbag0
(g1
g2
(lp334
V.
p335
atp336
Rp337
(dp338
g11
V.
p339
sbatp340
Rp341
(dp342
g11
VS
p343
sbatp344
Rp345
(dp346
g11
S'id: 2'
p347
sbag0
(g1
g2
(lp348
g0
(g1
g2
(lp349
g0
(g1
g2
(lp350
g0
(g1
g2
(lp351
g0
(g1
g2
(lp352
Vthe
p353
atp354
Rp355
(dp356
g11
VDT
p357
sbag0
(g1
g2
(lp358
Vlittle
p359
atp360
Rp361
(dp362
g11
VJJ
p363
sbag0
(g1
g2
(lp364
Vboy
p365
atp366
Rp367
(dp368
g11
VNN
p369
sbatp370
Rp371
(dp372
g11
VNP
p373
sbag0
(g1
g2
(lp374
g0
(g1
g2
(lp375
Vis
p376
atp377
Rp378
(dp379
g11
VVBZ
p380
sbag0
(g1
g2
(lp381
g0
(g1
g2
(lp382
Von
p383
atp384
Rp385
(dp386
g11
VIN
p387
sbag0
(g1
g2
(lp388
g0
(g1
g2
(lp389
g0
(g1
g2
(lp390
Vtop
p391
atp392
Rp393
(dp394
g11
VNN
p395
sbatp396
Rp397
(dp398
g11
VNP
p399
sbag0
(g1
g2
(lp400
g0
(g1
g2
(lp401
Vof
p402
atp403
Rp404
(dp405
g11
VIN
p406
sbag0
(g1
g2
(lp407
g0
(g1
g2
(lp408
g0
(g1
g2
(lp409
Va
p410
atp411
Rp412
(dp413
g11
VDT
p414
sbag0
(g1
g2
(lp415
Vstool
p416
atp417
Rp418
(dp419
g11
VNN
p420
sbatp421
Rp422
(dp423
g11
VNP
p424
sbag0
(g1
g2
(lp425
g0
(g1
g2
(lp426
g0
(g1
g2
(lp427
Vwhich
p428
atp429
Rp430
(dp431
g11
VWDT
p432
sbatp433
Rp434
(dp435
g11
VWHNP
p436
sbag0
(g1
g2
(lp437
g0
(g1
g2
(lp438
g0
(g1
g2
(lp439
Vis
p440
atp441
Rp442
(dp443
g11
VVBZ
p444
sbag0
(g1
g2
(lp445
g0
(g1
g2
(lp446
Vtipping
p447
atp448
Rp449
(dp450
g11
VVBG
p451
sbatp452
Rp453
(dp454
g11
VVP
p455
sbatp456
Rp457
(dp458
g11
VVP
p459
sbatp460
Rp461
(dp462
g11
VS
p463
sbatp464
Rp465
(dp466
g11
VSBAR
p467
sbatp468
Rp469
(dp470
g11
VNP
p471
sbatp472
Rp473
(dp474
g11
VPP
p475
sbatp476
Rp477
(dp478
g11
VNP
p479
sbatp480
Rp481
(dp482
g11
VPP
p483
sbatp484
Rp485
(dp486
g11
VVP
p487
sbatp488
Rp489
(dp490
g11
VS
p491
sbag0
(g1
g2
(lp492
V,
p493
atp494
Rp495
(dp496
g11
V,
p497
sbag0
(g1
g2
(lp498
g0
(g1
g2
(lp499
Vhe
p500
atp501
Rp502
(dp503
g11
VPRP
p504
sbatp505
Rp506
(dp507
g11
VNP
p508
sbag0
(g1
g2
(lp509
g0
(g1
g2
(lp510
V's
p511
atp512
Rp513
(dp514
g11
VVBZ
p515
sbag0
(g1
g2
(lp516
g0
(g1
g2
(lp517
g0
(g1
g2
(lp518
Vtrying
p519
atp520
Rp521
(dp522
g11
VVBG
p523
sbag0
(g1
g2
(lp524
g0
(g1
g2
(lp525
g0
(g1
g2
(lp526
Vto
p527
atp528
Rp529
(dp530
g11
VTO
p531
sbag0
(g1
g2
(lp532
g0
(g1
g2
(lp533
Vget
p534
atp535
Rp536
(dp537
g11
VVB
p538
sbag0
(g1
g2
(lp539
g0
(g1
g2
(lp540
Vinto
p541
atp542
Rp543
(dp544
g11
VIN
p545
sbag0
(g1
g2
(lp546
g0
(g1
g2
(lp547
Vthe
p548
atp549
Rp550
(dp551
g11
VDT
p552
sbag0
(g1
g2
(lp553
Vcookie
p554
atp555
Rp556
(dp557
g11
VNN
p558
sbag0
(g1
g2
(lp559
Vjar
p560
atp561
Rp562
(dp563
g11
VNN
p564
sbatp565
Rp566
(dp567
g11
VNP
p568
sbatp569
Rp570
(dp571
g11
VPP
p572
sbatp573
Rp574
(dp575
g11
VVP
p576
sbatp577
Rp578
(dp579
g11
VVP
p580
sbatp581
Rp582
(dp583
g11
VS
p584
sbatp585
Rp586
(dp587
g11
VVP
p588
sbag0
(g1
g2
(lp589
V,
p590
atp591
Rp592
(dp593
g11
V,
p594
sbag0
(g1
g2
(lp595
g0
(g1
g2
(lp596
Vlooks
p597
atp598
Rp599
(dp600
g11
VVBZ
p601
sbatp602
Rp603
(dp604
g11
VVP
p605
sbag0
(g1
g2
(lp606
g0
(g1
g2
(lp607
Vlike
p608
atp609
Rp610
(dp611
g11
VIN
p612
sbag0
(g1
g2
(lp613
g0
(g1
g2
(lp614
g0
(g1
g2
(lp615
Vhe
p616
atp617
Rp618
(dp619
g11
VPRP
p620
sbatp621
Rp622
(dp623
g11
VNP
p624
sbag0
(g1
g2
(lp625
g0
(g1
g2
(lp626
Vmight
p627
atp628
Rp629
(dp630
g11
VMD
p631
sbag0
(g1
g2
(lp632
g0
(g1
g2
(lp633
Vhave
p634
atp635
Rp636
(dp637
g11
VVB
p638
sbag0
(g1
g2
(lp639
g0
(g1
g2
(lp640
Va
p641
atp642
Rp643
(dp644
g11
VDT
p645
sbag0
(g1
g2
(lp646
Vlittle
p647
atp648
Rp649
(dp650
g11
VJJ
p651
sbag0
(g1
g2
(lp652
Vaccident
p653
atp654
Rp655
(dp656
g11
VNN
p657
sbatp658
Rp659
(dp660
g11
VNP
p661
sbatp662
Rp663
(dp664
g11
VVP
p665
sbatp666
Rp667
(dp668
g11
VVP
p669
sbatp670
Rp671
(dp672
g11
VS
p673
sbatp674
Rp675
(dp676
g11
VSBAR
p677
sbatp678
Rp679
(dp680
g11
VVP
p681
sbatp682
Rp683
(dp684
g11
VVP
p685
sbag0
(g1
g2
(lp686
V.
p687
atp688
Rp689
(dp690
g11
V.
p691
sbatp692
Rp693
(dp694
g11
VS
p695
sbatp696
Rp697
(dp698
g11
S'id: 3'
p699
sbag0
(g1
g2
(lp700
g0
(g1
g2
(lp701
g0
(g1
g2
(lp702
Vand
p703
atp704
Rp705
(dp706
g11
VCC
p707
sbag0
(g1
g2
(lp708
g0
(g1
g2
(lp709
Vsister
p710
atp711
Rp712
(dp713
g11
VNN
p714
sbatp715
Rp716
(dp717
g11
VNP
p718
sbag0
(g1
g2
(lp719
g0
(g1
g2
(lp720
Vis
p721
atp722
Rp723
(dp724
g11
VVBZ
p725
sbag0
(g1
g2
(lp726
g0
(g1
g2
(lp727
Vwaiting
p728
atp729
Rp730
(dp731
g11
VVBG
p732
sbag0
(g1
g2
(lp733
g0
(g1
g2
(lp734
g0
(g1
g2
(lp735
Vto
p736
atp737
Rp738
(dp739
g11
VTO
p740
sbag0
(g1
g2
(lp741
g0
(g1
g2
(lp742
Vget
p743
atp744
Rp745
(dp746
g11
VVB
p747
sbag0
(g1
g2
(lp748
g0
(g1
g2
(lp749
Va
p750
atp751
Rp752
(dp753
g11
VDT
p754
sbag0
(g1
g2
(lp755
Vcookie
p756
atp757
Rp758
(dp759
g11
VNN
p760
sbatp761
Rp762
(dp763
g11
VNP
p764
sbatp765
Rp766
(dp767
g11
VVP
p768
sbatp769
Rp770
(dp771
g11
VVP
p772
sbatp773
Rp774
(dp775
g11
VS
p776
sbatp777
Rp778
(dp779
g11
VVP
p780
sbatp781
Rp782
(dp783
g11
VVP
p784
sbag0
(g1
g2
(lp785
V.
p786
atp787
Rp788
(dp789
g11
V.
p790
sbatp791
Rp792
(dp793
g11
VS
p794
sbatp795
Rp796
(dp797
g11
S'id: 4'
p798
sbag0
(g1
g2
(lp799
g0
(g1
g2
(lp800
g0
(g1
g2
(lp801
g0
(g1
g2
(lp802
g0
(g1
g2
(lp803
Voutside
p804
atp805
Rp806
(dp807
g11
VIN
p808
sbag0
(g1
g2
(lp809
g0
(g1
g2
(lp810
Vi
p811
atp812
Rp813
(dp814
g11
VFW
p815
sbatp816
Rp817
(dp818
g11
VNP
p819
sbatp820
Rp821
(dp822
g11
VPP
p823
sbag0
(g1
g2
(lp824
g0
(g1
g2
(lp825
Vcan
p826
atp827
Rp828
(dp829
g11
VMD
p830
sbag0
(g1
g2
(lp831
g0
(g1
g2
(lp832
Vsee
p833
atp834
Rp835
(dp836
g11
VVB
p837
sbag0
(g1
g2
(lp838
g0
(g1
g2
(lp839
g0
(g1
g2
(lp840
Vtheir
p841
atp842
Rp843
(dp844
g11
VPRP$
p845
sbag0
(g1
g2
(lp846
Vgarden
p847
atp848
Rp849
(dp850
g11
VNN
p851
sbatp852
Rp853
(dp854
g11
VNP
p855
sbag0
(g1
g2
(lp856
Vand
p857
atp858
Rp859
(dp860
g11
VCC
p861
sbag0
(g1
g2
(lp862
V,
p863
atp864
Rp865
(dp866
g11
V,
p867
sbag0
(g1
g2
(lp868
g0
(g1
g2
(lp869
Veither
p870
atp871
Rp872
(dp873
g11
VCC
p874
sbag0
(g1
g2
(lp875
g0
(g1
g2
(lp876
g0
(g1
g2
(lp877
Vpart
p878
atp879
Rp880
(dp881
g11
VNN
p882
sbatp883
Rp884
(dp885
g11
VNP
p886
sbag0
(g1
g2
(lp887
g0
(g1
g2
(lp888
Vof
p889
atp890
Rp891
(dp892
g11
VIN
p893
sbag0
(g1
g2
(lp894
g0
(g1
g2
(lp895
g0
(g1
g2
(lp896
Vanother
p897
atp898
Rp899
(dp900
g11
VDT
p901
sbag0
(g1
g2
(lp902
Vhouse
p903
atp904
Rp905
(dp906
g11
VNN
p907
sbatp908
Rp909
(dp910
g11
VNP
p911
sbag0
(g1
g2
(lp912
Vor
p913
atp914
Rp915
(dp916
g11
VCC
p917
sbag0
(g1
g2
(lp918
g0
(g1
g2
(lp919
Vtheir
p920
atp921
Rp922
(dp923
g11
VPRP$
p924
sbag0
(g1
g2
(lp925
Vhouse
p926
atp927
Rp928
(dp929
g11
VNN
p930
sbatp931
Rp932
(dp933
g11
VNP
p934
sbatp935
Rp936
(dp937
g11
VNP
p938
sbatp939
Rp940
(dp941
g11
VPP
p942
sbatp943
Rp944
(dp945
g11
VNP
p946
sbatp947
Rp948
(dp949
g11
VPP
p950
sbatp951
Rp952
(dp953
g11
VNP
p954
sbatp955
Rp956
(dp957
g11
VVP
p958
sbatp959
Rp960
(dp961
g11
VVP
p962
sbatp963
Rp964
(dp965
g11
VS
p966
sbag0
(g1
g2
(lp967
V,
p968
atp969
Rp970
(dp971
g11
V,
p972
sbag0
(g1
g2
(lp973
Vand
p974
atp975
Rp976
(dp977
g11
VCC
p978
sbag0
(g1
g2
(lp979
g0
(g1
g2
(lp980
g0
(g1
g2
(lp981
Vthere
p982
atp983
Rp984
(dp985
g11
VEX
p986
sbatp987
Rp988
(dp989
g11
VNP
p990
sbag0
(g1
g2
(lp991
g0
(g1
g2
(lp992
V's
p993
atp994
Rp995
(dp996
g11
VVBZ
p997
sbag0
(g1
g2
(lp998
g0
(g1
g2
(lp999
Vtrees
p1000
atp1001
Rp1002
(dp1003
g11
VNNS
p1004
sbag0
(g1
g2
(lp1005
Vand
p1006
atp1007
Rp1008
(dp1009
g11
VCC
p1010
sbag0
(g1
g2
(lp1011
Vbushes
p1012
atp1013
Rp1014
(dp1015
g11
VNNS
p1016
sbatp1017
Rp1018
(dp1019
g11
VNP
p1020
sbatp1021
Rp1022
(dp1023
g11
VVP
p1024
sbatp1025
Rp1026
(dp1027
g11
VS
p1028
sbag0
(g1
g2
(lp1029
V.
p1030
atp1031
Rp1032
(dp1033
g11
V.
p1034
sbatp1035
Rp1036
(dp1037
g11
VS
p1038
sbatp1039
Rp1040
(dp1041
g11
S'id: 5'
p1042
sbag0
(g1
g2
(lp1043
g0
(g1
g2
(lp1044
g0
(g1
g2
(lp1045
Vand
p1046
atp1047
Rp1048
(dp1049
g11
VCC
p1050
sbag0
(g1
g2
(lp1051
g0
(g1
g2
(lp1052
Vthere
p1053
atp1054
Rp1055
(dp1056
g11
VEX
p1057
sbatp1058
Rp1059
(dp1060
g11
VNP
p1061
sbag0
(g1
g2
(lp1062
g0
(g1
g2
(lp1063
g0
(g1
g2
(lp1064
Vare
p1065
atp1066
Rp1067
(dp1068
g11
VVBP
p1069
sbatp1070
Rp1071
(dp1072
g11
VVP
p1073
sbag0
(g1
g2
(lp1074
V,
p1075
atp1076
Rp1077
(dp1078
g11
V,
p1079
sbag0
(g1
g2
(lp1080
g0
(g1
g2
(lp1081
g0
(g1
g2
(lp1082
Vsome
p1083
atp1084
Rp1085
(dp1086
g11
VDT
p1087
sbag0
(g1
g2
(lp1088
Vdishes
p1089
atp1090
Rp1091
(dp1092
g11
VNNS
p1093
sbatp1094
Rp1095
(dp1096
g11
VNP
p1097
sbag0
(g1
g2
(lp1098
g0
(g1
g2
(lp1099
Von
p1100
atp1101
Rp1102
(dp1103
g11
VIN
p1104
sbag0
(g1
g2
(lp1105
g0
(g1
g2
(lp1106
Vthe
p1107
atp1108
Rp1109
(dp1110
g11
VDT
p1111
sbag0
(g1
g2
(lp1112
Vcounter
p1113
atp1114
Rp1115
(dp1116
g11
VNN
p1117
sbatp1118
Rp1119
(dp1120
g11
VNP
p1121
sbatp1122
Rp1123
(dp1124
g11
VPP
p1125
sbatp1126
Rp1127
(dp1128
g11
VNP
p1129
sbatp1130
Rp1131
(dp1132
g11
VVP
p1133
sbag0
(g1
g2
(lp1134
V.
p1135
atp1136
Rp1137
(dp1138
g11
V.
p1139
sbatp1140
Rp1141
(dp1142
g11
VS
p1143
sbatp1144
Rp1145
(dp1146
g11
S'id: 6'
p1147
sbag0
(g1
g2
(lp1148
g0
(g1
g2
(lp1149
g0
(g1
g2
(lp1150
g0
(g1
g2
(lp1151
Vlet
p1152
atp1153
Rp1154
(dp1155
g11
VVB
p1156
sbag0
(g1
g2
(lp1157
g0
(g1
g2
(lp1158
g0
(g1
g2
(lp1159
V's
p1160
atp1161
Rp1162
(dp1163
g11
VPOS
p1164
sbatp1165
Rp1166
(dp1167
g11
VNP
p1168
sbag0
(g1
g2
(lp1169
g0
(g1
g2
(lp1170
Vsee
p1171
atp1172
Rp1173
(dp1174
g11
VVB
p1175
sbag0
(g1
g2
(lp1176
g0
(g1
g2
(lp1177
g0
(g1
g2
(lp1178
g0
(g1
g2
(lp1179
Vthere
p1180
atp1181
Rp1182
(dp1183
g11
VEX
p1184
sbatp1185
Rp1186
(dp1187
g11
VNP
p1188
sbag0
(g1
g2
(lp1189
g0
(g1
g2
(lp1190
V's
p1191
atp1192
Rp1193
(dp1194
g11
VVBZ
p1195
sbag0
(g1
g2
(lp1196
V,
p1197
atp1198
Rp1199
(dp1200
g11
V,
p1201
sbag0
(g1
g2
(lp1202
g0
(g1
g2
(lp1203
g0
(g1
g2
(lp1204
Vcabinets
p1205
atp1206
Rp1207
(dp1208
g11
VNNS
p1209
sbag0
(g1
g2
(lp1210
Vand
p1211
atp1212
Rp1213
(dp1214
g11
VCC
p1215
sbag0
(g1
g2
(lp1216
Vcurtains
p1217
atp1218
Rp1219
(dp1220
g11
VNNS
p1221
sbatp1222
Rp1223
(dp1224
g11
VNP
p1225
sbag0
(g1
g2
(lp1226
g0
(g1
g2
(lp1227
Vand
p1228
atp1229
Rp1230
(dp1231
g11
VCC
p1232
sbatp1233
Rp1234
(dp1235
g11
VADVP
p1236
sbatp1237
Rp1238
(dp1239
g11
VNP
p1240
sbatp1241
Rp1242
(dp1243
g11
VVP
p1244
sbatp1245
Rp1246
(dp1247
g11
VS
p1248
sbatp1249
Rp1250
(dp1251
g11
VSBAR
p1252
sbatp1253
Rp1254
(dp1255
g11
VVP
p1256
sbatp1257
Rp1258
(dp1259
g11
VS
p1260
sbatp1261
Rp1262
(dp1263
g11
VVP
p1264
sbag0
(g1
g2
(lp1265
V.
p1266
atp1267
Rp1268
(dp1269
g11
V.
p1270
sbatp1271
Rp1272
(dp1273
g11
VS
p1274
sbatp1275
Rp1276
(dp1277
g11
S'id: 7'
p1278
sbag0
(g1
g2
(lp1279
g0
(g1
g2
(lp1280
g0
(g1
g2
(lp1281
g0
(g1
g2
(lp1282
Vwish
p1283
atp1284
Rp1285
(dp1286
g11
VNN
p1287
sbag0
(g1
g2
(lp1288
g0
(g1
g2
(lp1289
g0
(g1
g2
(lp1290
Vthat
p1291
atp1292
Rp1293
(dp1294
g11
VWDT
p1295
sbatp1296
Rp1297
(dp1298
g11
VWHNP
p1299
sbag0
(g1
g2
(lp1300
g0
(g1
g2
(lp1301
g0
(g1
g2
(lp1302
Vlittle
p1303
atp1304
Rp1305
(dp1306
g11
VJJ
p1307
sbag0
(g1
g2
(lp1308
Vkid
p1309
atp1310
Rp1311
(dp1312
g11
VNN
p1313
sbatp1314
Rp1315
(dp1316
g11
VNP
p1317
sbag0
(g1
g2
(lp1318
g0
(g1
g2
(lp1319
Vwould
p1320
atp1321
Rp1322
(dp1323
g11
VMD
p1324
sbag0
(g1
g2
(lp1325
g0
(g1
g2
(lp1326
Vget
p1327
atp1328
Rp1329
(dp1330
g11
VVB
p1331
sbag0
(g1
g2
(lp1332
g0
(g1
g2
(lp1333
Vdown
p1334
atp1335
Rp1336
(dp1337
g11
VRB
p1338
sbatp1339
Rp1340
(dp1341
g11
VADVP
p1342
sbag0
(g1
g2
(lp1343
g0
(g1
g2
(lp1344
Vfrom
p1345
atp1346
Rp1347
(dp1348
g11
VIN
p1349
sbag0
(g1
g2
(lp1350
g0
(g1
g2
(lp1351
Vthe
p1352
atp1353
Rp1354
(dp1355
g11
VDT
p1356
sbag0
(g1
g2
(lp1357
Vstool
p1358
atp1359
Rp1360
(dp1361
g11
VNN
p1362
sbatp1363
Rp1364
(dp1365
g11
VNP
p1366
sbatp1367
Rp1368
(dp1369
g11
VPP
p1370
sbatp1371
Rp1372
(dp1373
g11
VVP
p1374
sbatp1375
Rp1376
(dp1377
g11
VVP
p1378
sbatp1379
Rp1380
(dp1381
g11
VS
p1382
sbatp1383
Rp1384
(dp1385
g11
VSBAR
p1386
sbatp1387
Rp1388
(dp1389
g11
VVP
p1390
sbag0
(g1
g2
(lp1391
V.
p1392
atp1393
Rp1394
(dp1395
g11
V.
p1396
sbatp1397
Rp1398
(dp1399
g11
VS
p1400
sbatp1401
Rp1402
(dp1403
g11
S'id: 8'
p1404
sbag0
(g1
g2
(lp1405
g0
(g1
g2
(lp1406
g0
(g1
g2
(lp1407
Vand
p1408
atp1409
Rp1410
(dp1411
g11
VCC
p1412
sbag0
(g1
g2
(lp1413
g0
(g1
g2
(lp1414
g0
(g1
g2
(lp1415
Vmama
p1416
atp1417
Rp1418
(dp1419
g11
VNN
p1420
sbatp1421
Rp1422
(dp1423
g11
VNP
p1424
sbag0
(g1
g2
(lp1425
g0
(g1
g2
(lp1426
g0
(g1
g2
(lp1427
g0
(g1
g2
(lp1428
g0
(g1
g2
(lp1429
V's
p1430
atp1431
Rp1432
(dp1433
g11
VPOS
p1434
sbatp1435
Rp1436
(dp1437
g11
VNP
p1438
sbag0
(g1
g2
(lp1439
g0
(g1
g2
(lp1440
g0
(g1
g2
(lp1441
Vwearing
p1442
atp1443
Rp1444
(dp1445
g11
VVBG
p1446
sbag0
(g1
g2
(lp1447
g0
(g1
g2
(lp1448
g0
(g1
g2
(lp1449
Van
p1450
atp1451
Rp1452
(dp1453
g11
VDT
p1454
sbag0
(g1
g2
(lp1455
Vapron
p1456
atp1457
Rp1458
(dp1459
g11
VNN
p1460
sbatp1461
Rp1462
(dp1463
g11
VNP
p1464
sbag0
(g1
g2
(lp1465
g0
(g1
g2
(lp1466
Vover
p1467
atp1468
Rp1469
(dp1470
g11
VIN
p1471
sbag0
(g1
g2
(lp1472
g0
(g1
g2
(lp1473
Vher
p1474
atp1475
Rp1476
(dp1477
g11
VPRP$
p1478
sbag0
(g1
g2
(lp1479
Vdress
p1480
atp1481
Rp1482
(dp1483
g11
VNN
p1484
sbatp1485
Rp1486
(dp1487
g11
VNP
p1488
sbatp1489
Rp1490
(dp1491
g11
VPP
p1492
sbatp1493
Rp1494
(dp1495
g11
VNP
p1496
sbatp1497
Rp1498
(dp1499
g11
VVP
p1500
sbag0
(g1
g2
(lp1501
Vand
p1502
atp1503
Rp1504
(dp1505
g11
VCC
p1506
sbag0
(g1
g2
(lp1507
g0
(g1
g2
(lp1508
Vwearing
p1509
atp1510
Rp1511
(dp1512
g11
VVBG
p1513
sbatp1514
Rp1515
(dp1516
g11
VVP
p1517
sbatp1518
Rp1519
(dp1520
g11
VVP
p1521
sbatp1522
Rp1523
(dp1524
g11
VS
p1525
sbag0
(g1
g2
(lp1526
V,
p1527
atp1528
Rp1529
(dp1530
g11
V,
p1531
sbag0
(g1
g2
(lp1532
g0
(g1
g2
(lp1533
g0
(g1
g2
(lp1534
g0
(g1
g2
(lp1535
Vshoes
p1536
atp1537
Rp1538
(dp1539
g11
VNNS
p1540
sbatp1541
Rp1542
(dp1543
g11
VNP
p1544
sbag0
(g1
g2
(lp1545
Vand
p1546
atp1547
Rp1548
(dp1549
g11
VCC
p1550
sbag0
(g1
g2
(lp1551
g0
(g1
g2
(lp1552
Vthe
p1553
atp1554
Rp1555
(dp1556
g11
VDT
p1557
sbag0
(g1
g2
(lp1558
Vchildren
p1559
atp1560
Rp1561
(dp1562
g11
VNNS
p1563
sbatp1564
Rp1565
(dp1566
g11
VNP
p1567
sbatp1568
Rp1569
(dp1570
g11
VNP
p1571
sbag0
(g1
g2
(lp1572
g0
(g1
g2
(lp1573
Vhave
p1574
atp1575
Rp1576
(dp1577
g11
VVBP
p1578
sbag0
(g1
g2
(lp1579
g0
(g1
g2
(lp1580
Vshoes
p1581
atp1582
Rp1583
(dp1584
g11
VNNS
p1585
sbatp1586
Rp1587
(dp1588
g11
VNP
p1589
sbatp1590
Rp1591
(dp1592
g11
VVP
p1593
sbatp1594
Rp1595
(dp1596
g11
VS
p1597
sbag0
(g1
g2
(lp1598
V,
p1599
atp1600
Rp1601
(dp1602
g11
V,
p1603
sbag0
(g1
g2
(lp1604
Vand
p1605
atp1606
Rp1607
(dp1608
g11
VCC
p1609
sbag0
(g1
g2
(lp1610
g0
(g1
g2
(lp1611
g0
(g1
g2
(lp1612
g0
(g1
g2
(lp1613
Vsocks
p1614
atp1615
Rp1616
(dp1617
g11
VNNS
p1618
sbatp1619
Rp1620
(dp1621
g11
VNP
p1622
sbag0
(g1
g2
(lp1623
Vand
p1624
atp1625
Rp1626
(dp1627
g11
VCC
p1628
sbag0
(g1
g2
(lp1629
g0
(g1
g2
(lp1630
Vlittle
p1631
atp1632
Rp1633
(dp1634
g11
VJJ
p1635
sbag0
(g1
g2
(lp1636
Vgirl
p1637
atp1638
Rp1639
(dp1640
g11
VNN
p1641
sbag0
(g1
g2
(lp1642
V's
p1643
atp1644
Rp1645
(dp1646
g11
VPOS
p1647
sbatp1648
Rp1649
(dp1650
g11
VNP
p1651
sbatp1652
Rp1653
(dp1654
g11
VNP
p1655
sbag0
(g1
g2
(lp1656
g0
(g1
g2
(lp1657
Vwearing
p1658
atp1659
Rp1660
(dp1661
g11
VVBG
p1662
sbag0
(g1
g2
(lp1663
g0
(g1
g2
(lp1664
Va
p1665
atp1666
Rp1667
(dp1668
g11
VDT
p1669
sbag0
(g1
g2
(lp1670
Vskirt
p1671
atp1672
Rp1673
(dp1674
g11
VNN
p1675
sbatp1676
Rp1677
(dp1678
g11
VNP
p1679
sbatp1680
Rp1681
(dp1682
g11
VVP
p1683
sbatp1684
Rp1685
(dp1686
g11
VS
p1687
sbatp1688
Rp1689
(dp1690
g11
VS
p1691
sbatp1692
Rp1693
(dp1694
g11
VSBAR
p1695
sbatp1696
Rp1697
(dp1698
g11
VNP
p1699
sbatp1700
Rp1701
(dp1702
g11
VFRAG
p1703
sbatp1704
Rp1705
(dp1706
g11
S'id: 9'
p1707
sbatp1708
Rp1709
(dp1710
g11
S'sentences'
p1711
sb.