ccopy_reg
_reconstructor
p0
(cnltk.tree
Tree
p1
c__builtin__
list
p2
(lp3
g0
(g1
g2
(lp4
tp5
Rp6
(dp7
S'_label'
p8
S'id: 0'
p9
sbag0
(g1
g2
(lp10
g0
(g1
g2
(lp11
g0
(g1
g2
(lp12
g0
(g1
g2
(lp13
g0
(g1
g2
(lp14
g0
(g1
g2
(lp15
g0
(g1
g2
(lp16
(lp17
S'word: what, index: 6'
p18
aatp19
Rp20
(dp21
g8
Vnsubj
p22
sbag0
(g1
g2
(lp23
(lp24
S'word: maybe, index: 7'
p25
aatp26
Rp27
(dp28
g8
Vadvmod
p29
sbag0
(g1
g2
(lp30
(lp31
S'word: be, index: 8'
p32
aatp33
Rp34
(dp35
g8
Vcop
p36
sbag0
(g1
g2
(lp37
(lp38
S'word: their, index: 9'
p39
aatp40
Rp41
(dp42
g8
Vposs
p43
sbatp44
Rp45
(dp46
g8
S'word: home, index: 10'
p47
sbatp48
Rp49
(dp50
g8
Vrcmod
p51
sbatp52
Rp53
(dp54
g8
S'word: their, index: 5'
p55
sbatp56
Rp57
(dp58
g8
Vprep
p59
sbag0
(g1
g2
(lp60
g0
(g1
g2
(lp61
g0
(g1
g2
(lp62
(lp63
S'word: a, index: 1'
p64
aatp65
Rp66
(dp67
g8
Vdet
p68
sbatp69
Rp70
(dp71
g8
S'word: family, index: 2'
p72
sbatp73
Rp74
(dp75
g8
Vnsubj
p76
sbatp77
Rp78
(dp79
g8
S'word: is, index: 3'
p80
sbatp81
Rp82
(dp83
g8
S'id: 1'
p84
sbag0
(g1
g2
(lp85
g0
(g1
g2
(lp86
g0
(g1
g2
(lp87
g0
(g1
g2
(lp88
g0
(g1
g2
(lp89
(lp90
S'word: either, index: 6'
p91
aatp92
Rp93
(dp94
g8
Vdep
p95
sbag0
(g1
g2
(lp96
(lp97
S'word: the, index: 7'
p98
aatp99
Rp100
(dp101
g8
Vdet
p102
sbag0
(g1
g2
(lp103
g0
(g1
g2
(lp104
g0
(g1
g2
(lp105
(lp106
S'word: yeah, index: 10'
p107
aatp108
Rp109
(dp110
g8
Vamod
p111
sbag0
(g1
g2
(lp112
(lp113
S'word: and, index: 12'
p114
aatp115
Rp116
(dp117
g8
Vcc
p118
sbatp119
Rp120
(dp121
g8
S'word: lake, index: 11'
p122
sbatp123
Rp124
(dp125
g8
Vdep
p126
sbatp127
Rp128
(dp129
g8
S'word: lake, index: 8'
p130
sbatp131
Rp132
(dp133
g8
Vprep
p134
sbag0
(g1
g2
(lp135
g0
(g1
g2
(lp136
g0
(g1
g2
(lp137
(lp138
S'word: a, index: 3'
p139
aatp140
Rp141
(dp142
g8
Vdet
p143
sbatp144
Rp145
(dp146
g8
S'word: home, index: 4'
p147
sbatp148
Rp149
(dp150
g8
Vprep
p151
sbatp152
Rp153
(dp154
g8
S'word: looks, index: 1'
p155
sbatp156
Rp157
(dp158
g8
S'id: 2'
p159
sbag0
(g1
g2
(lp160
g0
(g1
g2
(lp161
g0
(g1
g2
(lp162
g0
(g1
g2
(lp163
g0
(g1
g2
(lp164
(lp165
S'word: his, index: 10'
p166
aatp167
Rp168
(dp169
g8
Vposs
p170
sbatp171
Rp172
(dp173
g8
S'word: dog, index: 11'
p174
sbatp175
Rp176
(dp177
g8
Vnsubj
p178
sbag0
(g1
g2
(lp179
(lp180
S'word: is, index: 12'
p181
aatp182
Rp183
(dp184
g8
Vaux
p185
sbag0
(g1
g2
(lp186
(lp187
S'word: him, index: 14'
p188
aatp189
Rp190
(dp191
g8
Vdobj
p192
sbag0
(g1
g2
(lp193
g0
(g1
g2
(lp194
g0
(g1
g2
(lp195
(lp196
S'word: there, index: 1'
p197
aatp198
Rp199
(dp200
g8
Vexpl
p201
sbag0
(g1
g2
(lp202
g0
(g1
g2
(lp203
g0
(g1
g2
(lp204
(lp205
S'word: a, index: 3'
p206
aatp207
Rp208
(dp209
g8
Vdet
p210
sbag0
(g1
g2
(lp211
(lp212
S'word: little, index: 4'
p213
aatp214
Rp215
(dp216
g8
Vamod
p217
sbag0
(g1
g2
(lp218
g0
(g1
g2
(lp219
g0
(g1
g2
(lp220
g0
(g1
g2
(lp221
g0
(g1
g2
(lp222
(lp223
S'word: a, index: 7'
p224
aatp225
Rp226
(dp227
g8
Vdet
p228
sbatp229
Rp230
(dp231
g8
S'word: kite, index: 8'
p232
sbatp233
Rp234
(dp235
g8
Vdobj
p236
sbatp237
Rp238
(dp239
g8
S'word: flying, index: 6'
p240
sbatp241
Rp242
(dp243
g8
Vvmod
p244
sbatp245
Rp246
(dp247
g8
S'word: boy, index: 5'
p248
sbatp249
Rp250
(dp251
g8
Vnsubj
p252
sbatp253
Rp254
(dp255
g8
S'word: is, index: 2'
p256
sbatp257
Rp258
(dp259
g8
Vccomp
p260
sbatp261
Rp262
(dp263
g8
S'word: chasing, index: 13'
p264
sbatp265
Rp266
(dp267
g8
S'id: 3'
p268
sbag0
(g1
g2
(lp269
g0
(g1
g2
(lp270
g0
(g1
g2
(lp271
g0
(g1
g2
(lp272
g0
(g1
g2
(lp273
(lp274
S'word: a, index: 27'
p275
aatp276
Rp277
(dp278
g8
Vdet
p279
sbatp280
Rp281
(dp282
g8
S'word: cup, index: 28'
p283
sbatp284
Rp285
(dp286
g8
Vprep
p287
sbag0
(g1
g2
(lp288
g0
(g1
g2
(lp289
g0
(g1
g2
(lp290
(lp291
S'word: dad, index: 13'
p292
aatp293
Rp294
(dp295
g8
Vnsubj
p296
sbag0
(g1
g2
(lp297
(lp298
S'word: is, index: 14'
p299
aatp300
Rp301
(dp302
g8
Vaux
p303
sbag0
(g1
g2
(lp304
g0
(g1
g2
(lp305
g0
(g1
g2
(lp306
(lp307
S'word: a, index: 16'
p308
aatp309
Rp310
(dp311
g8
Vdet
p312
sbatp313
Rp314
(dp315
g8
S'word: book, index: 17'
p316
sbatp317
Rp318
(dp319
g8
Vdobj
p320
sbatp321
Rp322
(dp323
g8
S'word: reading, index: 15'
p324
sbatp325
Rp326
(dp327
g8
Vccomp
p328
sbag0
(g1
g2
(lp329
(lp330
S'word: mom, index: 19'
p331
aatp332
Rp333
(dp334
g8
Vnsubj
p335
sbag0
(g1
g2
(lp336
(lp337
S'word: is, index: 20'
p338
aatp339
Rp340
(dp341
g8
Vaux
p342
sbag0
(g1
g2
(lp343
g0
(g1
g2
(lp344
g0
(g1
g2
(lp345
g322
atp346
Rp347
(dp348
g8
Vconj
p349
sbag0
(g1
g2
(lp350
g0
(g1
g2
(lp351
g0
(g1
g2
(lp352
g0
(g1
g2
(lp353
g0
(g1
g2
(lp354
(lp355
S'word: dad, index: 5'
p356
aatp357
Rp358
(dp359
g8
Vconj
p360
sbatp361
Rp362
(dp363
g8
S'word: mom, index: 3'
p364
sbatp365
Rp366
(dp367
g8
Vprep
p368
sbag0
(g1
g2
(lp369
(lp370
S'word: dad, index: 5'
p371
aatp372
Rp373
(dp374
g8
Vprep
p375
sbatp376
Rp377
(dp378
g8
S'word: looks, index: 1'
p379
sbatp380
Rp381
(dp382
g8
Vnsubj
p383
sbag0
(g1
g2
(lp384
(lp385
S'word: are, index: 6'
p386
aatp387
Rp388
(dp389
g8
Vaux
p390
sbag0
(g1
g2
(lp391
(lp392
S'word: up, index: 8'
p393
aatp394
Rp395
(dp396
g8
Vprt
p397
sbag0
(g1
g2
(lp398
g0
(g1
g2
(lp399
g0
(g1
g2
(lp400
(lp401
S'word: a, index: 9'
p402
aatp403
Rp404
(dp405
g8
Vdet
p406
sbatp407
Rp408
(dp409
g8
S'word: picnic, index: 10'
p410
sbatp411
Rp412
(dp413
g8
Vdobj
p414
sbatp415
Rp416
(dp417
g8
S'word: setting, index: 7'
p418
sbatp419
Rp420
(dp421
g8
Vccomp
p422
sbag0
(g1
g2
(lp423
g0
(g1
g2
(lp424
g0
(g1
g2
(lp425
(lp426
S'word: some, index: 22'
p427
aatp428
Rp429
(dp430
g8
Vdet
p431
sbag0
(g1
g2
(lp432
(lp433
S'word: beverage, index: 25'
p434
aatp435
Rp436
(dp437
g8
Vprep
p438
sbatp439
Rp440
(dp441
g8
S'word: sort, index: 23'
p442
sbatp443
Rp444
(dp445
g8
Vdobj
p446
sbatp447
Rp448
(dp449
g8
S'word: pouring, index: 21'
p450
sbatp451
Rp452
(dp453
g8
S'id: 4'
p454
sbag0
(g1
g2
(lp455
g0
(g1
g2
(lp456
g0
(g1
g2
(lp457
(lp458
S'word: someone, index: 1'
p459
aatp460
Rp461
(dp462
g8
Vnsubj
p463
sbag0
(g1
g2
(lp464
g0
(g1
g2
(lp465
g0
(g1
g2
(lp466
(lp467
S'word: the, index: 4'
p468
aatp469
Rp470
(dp471
g8
Vdet
p472
sbag0
(g1
g2
(lp473
(lp474
S'word: fishing, index: 7'
p475
aatp476
Rp477
(dp478
g8
Vappos
p479
sbatp480
Rp481
(dp482
g8
S'word: dock, index: 5'
p483
sbatp484
Rp485
(dp486
g8
Vprep
p487
sbag0
(g1
g2
(lp488
g0
(g1
g2
(lp489
g0
(g1
g2
(lp490
(lp491
S'word: he, index: 10'
p492
aatp493
Rp494
(dp495
g8
Vnsubjpass
p496
sbag0
(g1
g2
(lp497
(lp498
S"word: 's, index: 11"
p499
aatp500
Rp501
(dp502
g8
Vauxpass
p503
sbag0
(g1
g2
(lp504
g0
(g1
g2
(lp505
g0
(g1
g2
(lp506
(lp507
S'word: a, index: 13'
p508
aatp509
Rp510
(dp511
g8
Vdet
p512
sbatp513
Rp514
(dp515
g8
S'word: fish, index: 14'
p516
sbatp517
Rp518
(dp519
g8
Vdobj
p520
sbatp521
Rp522
(dp523
g8
S'word: caught, index: 12'
p524
sbatp525
Rp526
(dp527
g8
Vconj
p528
sbatp529
Rp530
(dp531
g8
S'word: is, index: 2'
p532
sbatp533
Rp534
(dp535
g8
S'id: 5'
p536
sbag0
(g1
g2
(lp537
g0
(g1
g2
(lp538
g0
(g1
g2
(lp539
g0
(g1
g2
(lp540
g0
(g1
g2
(lp541
(lp542
S'word: the, index: 4'
p543
aatp544
Rp545
(dp546
g8
Vprep
p547
sbag0
(g1
g2
(lp548
(lp549
S'word: little, index: 1'
p550
aatp551
Rp552
(dp553
g8
Vamod
p554
sbatp555
Rp556
(dp557
g8
S'word: girl, index: 2'
p558
sbatp559
Rp560
(dp561
g8
Vtmod
p562
sbag0
(g1
g2
(lp563
g0
(g1
g2
(lp564
g0
(g1
g2
(lp565
g0
(g1
g2
(lp566
g0
(g1
g2
(lp567
(lp568
S'word: my, index: 8'
p569
aatp570
Rp571
(dp572
g8
Vposs
p573
sbag0
(g1
g2
(lp574
g0
(g1
g2
(lp575
g0
(g1
g2
(lp576
(lp577
S'word: the, index: 11'
p578
aatp579
Rp580
(dp581
g8
Vdet
p582
sbatp583
Rp584
(dp585
g8
S'word: boy, index: 12'
p586
sbatp587
Rp588
(dp589
g8
Vprep
p590
sbatp591
Rp592
(dp593
g8
S'word: right, index: 9'
p594
sbatp595
Rp596
(dp597
g8
Vappos
p598
sbatp599
Rp600
(dp601
g8
S'word: my, index: 6'
p602
sbatp603
Rp604
(dp605
g8
Vnsubj
p606
sbag0
(g1
g2
(lp607
g0
(g1
g2
(lp608
g0
(g1
g2
(lp609
g0
(g1
g2
(lp610
g0
(g1
g2
(lp611
(lp612
S'word: a, index: 18'
p613
aatp614
Rp615
(dp616
g8
Vdet
p617
sbatp618
Rp619
(dp620
g8
S'word: sandcastle, index: 19'
p621
sbatp622
Rp623
(dp624
g8
Vdobj
p625
sbag0
(g1
g2
(lp626
g0
(g1
g2
(lp627
g0
(g1
g2
(lp628
(lp629
S'word: toys, index: 23'
p630
aatp631
Rp632
(dp633
g8
Vappos
p634
sbatp635
Rp636
(dp637
g8
S'word: her, index: 21'
p638
sbatp639
Rp640
(dp641
g8
Vprep
p642
sbag0
(g1
g2
(lp643
(lp644
S'word: to, index: 15'
p645
aatp646
Rp647
(dp648
g8
Vaux
p649
sbag0
(g1
g2
(lp650
(lp651
S'word: be, index: 16'
p652
aatp653
Rp654
(dp655
g8
Vaux
p656
sbatp657
Rp658
(dp659
g8
S'word: making, index: 17'
p660
sbatp661
Rp662
(dp663
g8
Vxcomp
p664
sbatp665
Rp666
(dp667
g8
S'word: appears, index: 14'
p668
sbatp669
Rp670
(dp671
g8
S'id: 6'
p672
sbag0
(g1
g2
(lp673
g0
(g1
g2
(lp674
g0
(g1
g2
(lp675
(lp676
S'word: there, index: 1'
p677
aatp678
Rp679
(dp680
g8
Vexpl
p681
sbag0
(g1
g2
(lp682
g0
(g1
g2
(lp683
g0
(g1
g2
(lp684
g0
(g1
g2
(lp685
g0
(g1
g2
(lp686
(lp687
S'word: the, index: 6'
p688
aatp689
Rp690
(dp691
g8
Vdet
p692
sbatp693
Rp694
(dp695
g8
S'word: lake, index: 7'
p696
sbatp697
Rp698
(dp699
g8
Vprep
p700
sbag0
(g1
g2
(lp701
(lp702
S'word: a, index: 3'
p703
aatp704
Rp705
(dp706
g8
Vdet
p707
sbatp708
Rp709
(dp710
g8
S'word: sailboat, index: 4'
p711
sbatp712
Rp713
(dp714
g8
Vnsubj
p715
sbatp716
Rp717
(dp718
g8
S"word: 's, index: 2"
p719
sbatp720
Rp721
(dp722
g8
S'id: 7'
p723
sbag0
(g1
g2
(lp724
g0
(g1
g2
(lp725
g0
(g1
g2
(lp726
g0
(g1
g2
(lp727
g0
(g1
g2
(lp728
(lp729
S"word: 's, index: 2"
p730
aatp731
Rp732
(dp733
g8
Vnsubj
p734
sbatp735
Rp736
(dp737
g8
S'word: see, index: 3'
p738
sbatp739
Rp740
(dp741
g8
Vccomp
p742
sbatp743
Rp744
(dp745
g8
S'word: let, index: 1'
p746
sbatp747
Rp748
(dp749
g8
S'id: 8'
p750
sbag0
(g1
g2
(lp751
g0
(g1
g2
(lp752
g0
(g1
g2
(lp753
g0
(g1
g2
(lp754
g0
(g1
g2
(lp755
(lp756
S'word: the, index: 2'
p757
aatp758
Rp759
(dp760
g8
Vdet
p761
sbatp762
Rp763
(dp764
g8
S'word: background, index: 3'
p765
sbatp766
Rp767
(dp768
g8
Vprep
p769
sbag0
(g1
g2
(lp770
(lp771
S'word: there, index: 4'
p772
aatp773
Rp774
(dp775
g8
Vexpl
p776
sbag0
(g1
g2
(lp777
g0
(g1
g2
(lp778
g0
(g1
g2
(lp779
(lp780
S'word: a, index: 6'
p781
aatp782
Rp783
(dp784
g8
Vdet
p785
sbag0
(g1
g2
(lp786
g0
(g1
g2
(lp787
g0
(g1
g2
(lp788
g0
(g1
g2
(lp789
g0
(g1
g2
(lp790
(lp791
S'word: the, index: 12'
p792
aatp793
Rp794
(dp795
g8
Vdet
p796
sbatp797
Rp798
(dp799
g8
S'word: driveway, index: 13'
p800
sbatp801
Rp802
(dp803
g8
Vprep
p804
sbag0
(g1
g2
(lp805
(lp806
S'word: a, index: 9'
p807
aatp808
Rp809
(dp810
g8
Vdet
p811
sbatp812
Rp813
(dp814
g8
S'word: car, index: 10'
p815
sbatp816
Rp817
(dp818
g8
Vprep
p819
sbatp820
Rp821
(dp822
g8
S'word: house, index: 7'
p823
sbatp824
Rp825
(dp826
g8
Vnsubj
p827
sbatp828
Rp829
(dp830
g8
S"word: 's, index: 5"
p831
sbatp832
Rp833
(dp834
g8
S'id: 9'
p835
sbag0
(g1
g2
(lp836
g0
(g1
g2
(lp837
g0
(g1
g2
(lp838
(lp839
S'word: and, index: 1'
p840
aatp841
Rp842
(dp843
g8
Vcc
p844
sbag0
(g1
g2
(lp845
(lp846
S'word: there, index: 3'
p847
aatp848
Rp849
(dp850
g8
Vexpl
p851
sbag0
(g1
g2
(lp852
g0
(g1
g2
(lp853
g0
(g1
g2
(lp854
(lp855
S'word: a, index: 5'
p856
aatp857
Rp858
(dp859
g8
Vdet
p860
sbag0
(g1
g2
(lp861
(lp862
S'word: shrubs, index: 8'
p863
aatp864
Rp865
(dp866
g8
Vconj
p867
sbag0
(g1
g2
(lp868
g0
(g1
g2
(lp869
g0
(g1
g2
(lp870
(lp871
S'word: the, index: 12'
p872
aatp873
Rp874
(dp875
g8
Vdet
p876
sbatp877
Rp878
(dp879
g8
S'word: house, index: 13'
p880
sbatp881
Rp882
(dp883
g8
Vprep
p884
sbatp885
Rp886
(dp887
g8
S'word: tree, index: 6'
p888
sbatp889
Rp890
(dp891
g8
Vnsubj
p892
sbag0
(g1
g2
(lp893
(lp894
S'word: shrubs, index: 8'
p895
aatp896
Rp897
(dp898
g8
Vnsubj
p899
sbatp900
Rp901
(dp902
g8
S"word: 's, index: 4"
p903
sbatp904
Rp905
(dp906
g8
S'id: 10'
p907
sbag0
(g1
g2
(lp908
g0
(g1
g2
(lp909
g0
(g1
g2
(lp910
(lp911
S'word: can, index: 1'
p912
aatp913
Rp914
(dp915
g8
Vaux
p916
sbag0
(g1
g2
(lp917
g0
(g1
g2
(lp918
g0
(g1
g2
(lp919
(lp920
S'word: a, index: 3'
p921
aatp922
Rp923
(dp924
g8
Vdet
p925
sbag0
(g1
g2
(lp926
(lp927
S'word: couple, index: 4'
p928
aatp929
Rp930
(dp931
g8
Vnn
p932
sbag0
(g1
g2
(lp933
g0
(g1
g2
(lp934
g0
(g1
g2
(lp935
(lp936
S'word: a, index: 7'
p937
aatp938
Rp939
(dp940
g8
Vdet
p941
sbatp942
Rp943
(dp944
g8
S'word: door, index: 8'
p945
sbatp946
Rp947
(dp948
g8
Vconj
p949
sbag0
(g1
g2
(lp950
g0
(g1
g2
(lp951
g0
(g1
g2
(lp952
(lp953
S'word: a, index: 10'
p954
aatp955
Rp956
(dp957
g8
Vdet
p958
sbag0
(g1
g2
(lp959
(lp960
S'word: garage, index: 11'
p961
aatp962
Rp963
(dp964
g8
Vnn
p965
sbag0
(g1
g2
(lp966
(lp967
S'word: roof, index: 14'
p968
aatp969
Rp970
(dp971
g8
Vconj
p972
sbatp973
Rp974
(dp975
g8
S'word: door, index: 12'
p976
sbatp977
Rp978
(dp979
g8
Vconj
p980
sbag0
(g1
g2
(lp981
(lp982
S'word: roof, index: 14'
p983
aatp984
Rp985
(dp986
g8
Vconj
p987
sbatp988
Rp989
(dp990
g8
S'word: windows, index: 5'
p991
sbatp992
Rp993
(dp994
g8
Vdobj
p995
sbag0
(g1
g2
(lp996
g943
atp997
Rp998
(dp999
g8
Vdobj
p1000
sbag0
(g1
g2
(lp1001
g974
atp1002
Rp1003
(dp1004
g8
Vdobj
p1005
sbag0
(g1
g2
(lp1006
g0
(g1
g2
(lp1007
g0
(g1
g2
(lp1008
g0
(g1
g2
(lp1009
g0
(g1
g2
(lp1010
(lp1011
S"word: 's, index: 17"
p1012
aatp1013
Rp1014
(dp1015
g8
Vnsubj
p1016
sbatp1017
Rp1018
(dp1019
g8
S'word: see, index: 18'
p1020
sbatp1021
Rp1022
(dp1023
g8
Vccomp
p1024
sbatp1025
Rp1026
(dp1027
g8
S'word: let, index: 16'
p1028
sbatp1029
Rp1030
(dp1031
g8
Vdep
p1032
sbatp1033
Rp1034
(dp1035
g8
S'word: see, index: 2'
p1036
sbatp1037
Rp1038
(dp1039
g8
S'id: 11'
p1040
sbag0
(g1
g2
(lp1041
g0
(g1
g2
(lp1042
g0
(g1
g2
(lp1043
g0
(g1
g2
(lp1044
g0
(g1
g2
(lp1045
(lp1046
S'word: she, index: 26'
p1047
aatp1048
Rp1049
(dp1050
g8
Vnsubjpass
p1051
sbag0
(g1
g2
(lp1052
(lp1053
S"word: 's, index: 27"
p1054
aatp1055
Rp1056
(dp1057
g8
Vauxpass
p1058
sbag0
(g1
g2
(lp1059
g0
(g1
g2
(lp1060
g0
(g1
g2
(lp1061
(lp1062
S'word: a, index: 29'
p1063
aatp1064
Rp1065
(dp1066
g8
Vdet
p1067
sbag0
(g1
g2
(lp1068
(lp1069
S'word: cd, index: 31'
p1070
aatp1071
Rp1072
(dp1073
g8
Vnn
p1074
sbatp1075
Rp1076
(dp1077
g8
S'word: player, index: 32'
p1078
sbatp1079
Rp1080
(dp1081
g8
Vdobj
p1082
sbag0
(g1
g2
(lp1083
g0
(g1
g2
(lp1084
g0
(g1
g2
(lp1085
g0
(g1
g2
(lp1086
g0
(g1
g2
(lp1087
(lp1088
S'word: the, index: 37'
p1089
aatp1090
Rp1091
(dp1092
g8
Vdet
p1093
sbag0
(g1
g2
(lp1094
(lp1095
S'word: cd, index: 41'
p1096
aatp1097
Rp1098
(dp1099
g8
Vconj
p1100
sbatp1101
Rp1102
(dp1103
g8
S'word: radio, index: 38'
p1104
sbatp1105
Rp1106
(dp1107
g8
Vprep
p1108
sbag0
(g1
g2
(lp1109
(lp1110
S'word: cd, index: 41'
p1111
aatp1112
Rp1113
(dp1114
g8
Vprep
p1115
sbag0
(g1
g2
(lp1116
(lp1117
S'word: perhaps, index: 34'
p1118
aatp1119
Rp1120
(dp1121
g8
Vadvmod
p1122
sbatp1123
Rp1124
(dp1125
g8
S'word: listening, index: 35'
p1126
sbatp1127
Rp1128
(dp1129
g8
Vxcomp
p1130
sbatp1131
Rp1132
(dp1133
g8
S'word: got, index: 28'
p1134
sbatp1135
Rp1136
(dp1137
g8
Vconj
p1138
sbag0
(g1
g2
(lp1139
(lp1140
S'word: he, index: 14'
p1141
aatp1142
Rp1143
(dp1144
g8
Vnsubjpass
p1145
sbag0
(g1
g2
(lp1146
(lp1147
S"word: 's, index: 15"
p1148
aatp1149
Rp1150
(dp1151
g8
Vauxpass
p1152
sbag0
(g1
g2
(lp1153
g0
(g1
g2
(lp1154
g0
(g1
g2
(lp1155
g0
(g1
g2
(lp1156
g0
(g1
g2
(lp1157
g0
(g1
g2
(lp1158
g0
(g1
g2
(lp1159
(lp1160
S'word: dad, index: 7'
p1161
aatp1162
Rp1163
(dp1164
g8
Vconj
p1165
sbag0
(g1
g2
(lp1166
g0
(g1
g2
(lp1167
g0
(g1
g2
(lp1168
g0
(g1
g2
(lp1169
g0
(g1
g2
(lp1170
(lp1171
S'word: picnic, index: 11'
p1172
aatp1173
Rp1174
(dp1175
g8
Vnn
p1176
sbatp1177
Rp1178
(dp1179
g8
S'word: blanket, index: 12'
p1180
sbatp1181
Rp1182
(dp1183
g8
Vappos
p1184
sbatp1185
Rp1186
(dp1187
g8
S'word: the, index: 9'
p1188
sbatp1189
Rp1190
(dp1191
g8
Vprep
p1192
sbatp1193
Rp1194
(dp1195
g8
S'word: mom, index: 5'
p1196
sbatp1197
Rp1198
(dp1199
g8
Vappos
p1200
sbag0
(g1
g2
(lp1201
(lp1202
S'word: dad, index: 7'
p1203
aatp1204
Rp1205
(dp1206
g8
Vappos
p1207
sbatp1208
Rp1209
(dp1210
g8
S'word: the, index: 3'
p1211
sbatp1212
Rp1213
(dp1214
g8
Vprep
p1215
sbatp1216
Rp1217
(dp1218
g8
S'word: back, index: 1'
p1219
sbatp1220
Rp1221
(dp1222
g8
Vadvmod
p1223
sbag0
(g1
g2
(lp1224
(lp1225
S'word: his, index: 17'
p1226
aatp1227
Rp1228
(dp1229
g8
Vdobj
p1230
sbag0
(g1
g2
(lp1231
g0
(g1
g2
(lp1232
g0
(g1
g2
(lp1233
g0
(g1
g2
(lp1234
g0
(g1
g2
(lp1235
(lp1236
S'word: his, index: 21'
p1237
aatp1238
Rp1239
(dp1240
g8
Vposs
p1241
sbatp1242
Rp1243
(dp1244
g8
S'word: sandals, index: 22'
p1245
sbatp1246
Rp1247
(dp1248
g8
Vprep
p1249
sbag0
(g1
g2
(lp1250
(lp1251
S'word: off, index: 23'
p1252
aatp1253
Rp1254
(dp1255
g8
Vprep
p1256
sbatp1257
Rp1258
(dp1259
g8
S'word: relaxing, index: 19'
p1260
sbatp1261
Rp1262
(dp1263
g8
Vvmod
p1264
sbatp1265
Rp1266
(dp1267
g8
S'word: got, index: 16'
p1268
sbatp1269
Rp1270
(dp1271
g8
S'id: 12'
p1272
sbag0
(g1
g2
(lp1273
g0
(g1
g2
(lp1274
g0
(g1
g2
(lp1275
g0
(g1
g2
(lp1276
g0
(g1
g2
(lp1277
(lp1278
S"word: 's, index: 2"
p1279
aatp1280
Rp1281
(dp1282
g8
Vnsubj
p1283
sbatp1284
Rp1285
(dp1286
g8
S'word: see, index: 3'
p1287
sbatp1288
Rp1289
(dp1290
g8
Vccomp
p1291
sbatp1292
Rp1293
(dp1294
g8
S'word: let, index: 1'
p1295
sbatp1296
Rp1297
(dp1298
g8
S'id: 13'
p1299
sbag0
(g1
g2
(lp1300
g0
(g1
g2
(lp1301
g0
(g1
g2
(lp1302
(lp1303
S'word: that, index: 1'
p1304
aatp1305
Rp1306
(dp1307
g8
Vnsubj
p1308
sbag0
(g1
g2
(lp1309
g0
(g1
g2
(lp1310
g0
(g1
g2
(lp1311
(lp1312
S'word: all, index: 4'
p1313
aatp1314
Rp1315
(dp1316
g8
Vdep
p1317
sbatp1318
Rp1319
(dp1320
g8
S'word: about, index: 3'
p1321
sbatp1322
Rp1323
(dp1324
g8
Vadvmod
p1325
sbag0
(g1
g2
(lp1326
g0
(g1
g2
(lp1327
g0
(g1
g2
(lp1328
(lp1329
S'word: I, index: 5'
p1330
aatp1331
Rp1332
(dp1333
g8
Vnsubj
p1334
sbag0
(g1
g2
(lp1335
(lp1336
S'word: can, index: 6'
p1337
aatp1338
Rp1339
(dp1340
g8
Vaux
p1341
sbag0
(g1
g2
(lp1342
(lp1343
S'word: on, index: 8'
p1344
aatp1345
Rp1346
(dp1347
g8
Vprep
p1348
sbatp1349
Rp1350
(dp1351
g8
S'word: remark, index: 7'
p1352
sbatp1353
Rp1354
(dp1355
g8
Vccomp
p1356
sbatp1357
Rp1358
(dp1359
g8
S"word: 's, index: 2"
p1360
sbatp1361
Rp1362
(dp1363
g8
S'id: 14'
p1364
sbatp1365
Rp1366
(dp1367
g8
S'sentences'
p1368
sb.