ccopy_reg
_reconstructor
p0
(cnltk.tree
Tree
p1
c__builtin__
list
p2
(lp3
g0
(g1
g2
(lp4
g0
(g1
g2
(lp5
g0
(g1
g2
(lp6
g0
(g1
g2
(lp7
Vthe
p8
atp9
Rp10
(dp11
S'_label'
p12
VDT
p13
sbatp14
Rp15
(dp16
g12
VNP-TMP
p17
sbag0
(g1
g2
(lp18
V,
p19
atp20
Rp21
(dp22
g12
V,
p23
sbag0
(g1
g2
(lp24
g0
(g1
g2
(lp25
Vtheir
p26
atp27
Rp28
(dp29
g12
VPRP$
p30
sbag0
(g1
g2
(lp31
Vfamily
p32
atp33
Rp34
(dp35
g12
VNN
p36
sbatp37
Rp38
(dp39
g12
VNP
p40
sbag0
(g1
g2
(lp41
g0
(g1
g2
(lp42
Vis
p43
atp44
Rp45
(dp46
g12
VVBZ
p47
sbag0
(g1
g2
(lp48
g0
(g1
g2
(lp49
Venjoying
p50
atp51
Rp52
(dp53
g12
VVBG
p54
sbag0
(g1
g2
(lp55
g0
(g1
g2
(lp56
Va
p57
atp58
Rp59
(dp60
g12
VDT
p61
sbag0
(g1
g2
(lp62
Vcircus
p63
atp64
Rp65
(dp66
g12
VNN
p67
sbatp68
Rp69
(dp70
g12
VNP
p71
sbatp72
Rp73
(dp74
g12
VVP
p75
sbatp76
Rp77
(dp78
g12
VVP
p79
sbag0
(g1
g2
(lp80
V.
p81
atp82
Rp83
(dp84
g12
V.
p85
sbatp86
Rp87
(dp88
g12
VS
p89
sbatp90
Rp91
(dp92
g12
S'id: 0'
p93
sbag0
(g1
g2
(lp94
g0
(g1
g2
(lp95
g0
(g1
g2
(lp96
g0
(g1
g2
(lp97
Vactually
p98
atp99
Rp100
(dp101
g12
VRB
p102
sbatp103
Rp104
(dp105
g12
VADVP
p106
sbag0
(g1
g2
(lp107
g0
(g1
g2
(lp108
Vtwo
p109
atp110
Rp111
(dp112
g12
VCD
p113
sbag0
(g1
g2
(lp114
Vfamilies
p115
atp116
Rp117
(dp118
g12
VNNS
p119
sbatp120
Rp121
(dp122
g12
VNP
p123
sbag0
(g1
g2
(lp124
g0
(g1
g2
(lp125
Vare
p126
atp127
Rp128
(dp129
g12
VVBP
p130
sbag0
(g1
g2
(lp131
g0
(g1
g2
(lp132
g0
(g1
g2
(lp133
V,
p134
atp135
Rp136
(dp137
g12
V,
p138
sbag0
(g1
g2
(lp139
Vor
p140
atp141
Rp142
(dp143
g12
VCC
p144
sbag0
(g1
g2
(lp145
g0
(g1
g2
(lp146
g0
(g1
g2
(lp147
Vthree
p148
atp149
Rp150
(dp151
g12
VCD
p152
sbatp153
Rp154
(dp155
g12
VNP
p156
sbag0
(g1
g2
(lp157
g0
(g1
g2
(lp158
Vin
p159
atp160
Rp161
(dp162
g12
VIN
p163
sbag0
(g1
g2
(lp164
g0
(g1
g2
(lp165
Vthe
p166
atp167
Rp168
(dp169
g12
VDT
p170
sbag0
(g1
g2
(lp171
Vpicture
p172
atp173
Rp174
(dp175
g12
VNN
p176
sbatp177
Rp178
(dp179
g12
VNP
p180
sbatp181
Rp182
(dp183
g12
VPP
p184
sbag0
(g1
g2
(lp185
V,
p186
atp187
Rp188
(dp189
g12
V,
p190
sbag0
(g1
g2
(lp191
Vand
p192
atp193
Rp194
(dp195
g12
VCC
p196
sbag0
(g1
g2
(lp197
g0
(g1
g2
(lp198
Vmany
p199
atp200
Rp201
(dp202
g12
VJJ
p203
sbag0
(g1
g2
(lp204
Vmore
p205
atp206
Rp207
(dp208
g12
VJJR
p209
sbatp210
Rp211
(dp212
g12
VNP
p213
sbatp214
Rp215
(dp216
g12
VNP
p217
sbatp218
Rp219
(dp220
g12
VPRN
p221
sbag0
(g1
g2
(lp222
Vunseen
p223
atp224
Rp225
(dp226
g12
VJJ
p227
sbatp228
Rp229
(dp230
g12
VADJP
p231
sbatp232
Rp233
(dp234
g12
VVP
p235
sbag0
(g1
g2
(lp236
V.
p237
atp238
Rp239
(dp240
g12
V.
p241
sbatp242
Rp243
(dp244
g12
VS
p245
sbatp246
Rp247
(dp248
g12
S'id: 1'
p249
sbag0
(g1
g2
(lp250
g0
(g1
g2
(lp251
g0
(g1
g2
(lp252
g0
(g1
g2
(lp253
g0
(g1
g2
(lp254
VThere
p255
atp256
Rp257
(dp258
g12
VEX
p259
sbatp260
Rp261
(dp262
g12
VNP
p263
sbag0
(g1
g2
(lp264
g0
(g1
g2
(lp265
V's
p266
atp267
Rp268
(dp269
g12
VVBZ
p270
sbag0
(g1
g2
(lp271
g0
(g1
g2
(lp272
g0
(g1
g2
(lp273
Va
p274
atp275
Rp276
(dp277
g12
VDT
p278
sbag0
(g1
g2
(lp279
Vclown
p280
atp281
Rp282
(dp283
g12
VNN
p284
sbatp285
Rp286
(dp287
g12
VNP
p288
sbag0
(g1
g2
(lp289
Ventertaining
p290
atp291
Rp292
(dp293
g12
VJJ
p294
sbatp295
Rp296
(dp297
g12
VADJP
p298
sbatp299
Rp300
(dp301
g12
VVP
p302
sbatp303
Rp304
(dp305
g12
VS
p306
sbag0
(g1
g2
(lp307
V,
p308
atp309
Rp310
(dp311
g12
V,
p312
sbag0
(g1
g2
(lp313
g0
(g1
g2
(lp314
g0
(g1
g2
(lp315
g0
(g1
g2
(lp316
Va
p317
atp318
Rp319
(dp320
g12
VDT
p321
sbag0
(g1
g2
(lp322
Vjuggler
p323
atp324
Rp325
(dp326
g12
VNN
p327
sbatp328
Rp329
(dp330
g12
VNP
p331
sbag0
(g1
g2
(lp332
V,
p333
atp334
Rp335
(dp336
g12
V,
p337
sbag0
(g1
g2
(lp338
Vand
p339
atp340
Rp341
(dp342
g12
VCC
p343
sbag0
(g1
g2
(lp344
g0
(g1
g2
(lp345
Valso
p346
atp347
Rp348
(dp349
g12
VRB
p350
sbatp351
Rp352
(dp353
g12
VADVP
p354
sbag0
(g1
g2
(lp355
g0
(g1
g2
(lp356
g0
(g1
g2
(lp357
Va
p358
atp359
Rp360
(dp361
g12
VDT
p362
sbag0
(g1
g2
(lp363
Vlady
p364
atp365
Rp366
(dp367
g12
VNN
p368
sbatp369
Rp370
(dp371
g12
VNP
p372
sbag0
(g1
g2
(lp373
g0
(g1
g2
(lp374
Von
p375
atp376
Rp377
(dp378
g12
VIN
p379
sbag0
(g1
g2
(lp380
g0
(g1
g2
(lp381
Va
p382
atp383
Rp384
(dp385
g12
VDT
p386
sbag0
(g1
g2
(lp387
Vhorse
p388
atp389
Rp390
(dp391
g12
VNN
p392
sbatp393
Rp394
(dp395
g12
VNP
p396
sbatp397
Rp398
(dp399
g12
VPP
p400
sbatp401
Rp402
(dp403
g12
VNP
p404
sbag0
(g1
g2
(lp405
V,
p406
atp407
Rp408
(dp409
g12
V,
p410
sbatp411
Rp412
(dp413
g12
VNP
p414
sbag0
(g1
g2
(lp415
g0
(g1
g2
(lp416
Vin
p417
atp418
Rp419
(dp420
g12
VIN
p421
sbag0
(g1
g2
(lp422
g0
(g1
g2
(lp423
Va
p424
atp425
Rp426
(dp427
g12
VDT
p428
sbag0
(g1
g2
(lp429
Vballet
p430
atp431
Rp432
(dp433
g12
VJJ
p434
sbag0
(g1
g2
(lp435
V,
p436
atp437
Rp438
(dp439
g12
V,
p440
sbag0
(g1
g2
(lp441
Vballerina
p442
atp443
Rp444
(dp445
g12
VNN
p446
sbag0
(g1
g2
(lp447
Vsuit
p448
atp449
Rp450
(dp451
g12
VNN
p452
sbatp453
Rp454
(dp455
g12
VNP
p456
sbatp457
Rp458
(dp459
g12
VPP
p460
sbatp461
Rp462
(dp463
g12
VS
p464
sbag0
(g1
g2
(lp465
V,
p466
atp467
Rp468
(dp469
g12
V,
p470
sbag0
(g1
g2
(lp471
Vand
p472
atp473
Rp474
(dp475
g12
VCC
p476
sbag0
(g1
g2
(lp477
g0
(g1
g2
(lp478
g0
(g1
g2
(lp479
Vthere
p480
atp481
Rp482
(dp483
g12
VEX
p484
sbatp485
Rp486
(dp487
g12
VNP
p488
sbag0
(g1
g2
(lp489
g0
(g1
g2
(lp490
V's
p491
atp492
Rp493
(dp494
g12
VVBZ
p495
sbag0
(g1
g2
(lp496
g0
(g1
g2
(lp497
g0
(g1
g2
(lp498
Va
p499
atp500
Rp501
(dp502
g12
VDT
p503
sbag0
(g1
g2
(lp504
Vtrainer
p505
atp506
Rp507
(dp508
g12
VNN
p509
sbatp510
Rp511
(dp512
g12
VNP
p513
sbag0
(g1
g2
(lp514
g0
(g1
g2
(lp515
Vin
p516
atp517
Rp518
(dp519
g12
VIN
p520
sbag0
(g1
g2
(lp521
g0
(g1
g2
(lp522
g0
(g1
g2
(lp523
Vthe
p524
atp525
Rp526
(dp527
g12
VDT
p528
sbag0
(g1
g2
(lp529
Vlion
p530
atp531
Rp532
(dp533
g12
VNN
p534
sbag0
(g1
g2
(lp535
V's
p536
atp537
Rp538
(dp539
g12
VPOS
p540
sbatp541
Rp542
(dp543
g12
VNP
p544
sbag0
(g1
g2
(lp545
Vden
p546
atp547
Rp548
(dp549
g12
VNN
p550
sbatp551
Rp552
(dp553
g12
VNP
p554
sbatp555
Rp556
(dp557
g12
VPP
p558
sbag0
(g1
g2
(lp559
g0
(g1
g2
(lp560
g0
(g1
g2
(lp561
Vthat
p562
atp563
Rp564
(dp565
g12
VWDT
p566
sbatp567
Rp568
(dp569
g12
VWHNP
p570
sbag0
(g1
g2
(lp571
g0
(g1
g2
(lp572
g0
(g1
g2
(lp573
Vis
p574
atp575
Rp576
(dp577
g12
VVBZ
p578
sbag0
(g1
g2
(lp579
g0
(g1
g2
(lp580
Vgiving
p581
atp582
Rp583
(dp584
g12
VVBG
p585
sbag0
(g1
g2
(lp586
g0
(g1
g2
(lp587
Vthe
p588
atp589
Rp590
(dp591
g12
VDT
p592
sbag0
(g1
g2
(lp593
Vlion
p594
atp595
Rp596
(dp597
g12
VNN
p598
sbatp599
Rp600
(dp601
g12
VNP
p602
sbag0
(g1
g2
(lp603
g0
(g1
g2
(lp604
Vorders
p605
atp606
Rp607
(dp608
g12
VNNS
p609
sbatp610
Rp611
(dp612
g12
VNP
p613
sbatp614
Rp615
(dp616
g12
VVP
p617
sbatp618
Rp619
(dp620
g12
VVP
p621
sbatp622
Rp623
(dp624
g12
VS
p625
sbatp626
Rp627
(dp628
g12
VSBAR
p629
sbatp630
Rp631
(dp632
g12
VNP
p633
sbatp634
Rp635
(dp636
g12
VVP
p637
sbatp638
Rp639
(dp640
g12
VS
p641
sbag0
(g1
g2
(lp642
V.
p643
atp644
Rp645
(dp646
g12
V.
p647
sbatp648
Rp649
(dp650
g12
VS
p651
sbatp652
Rp653
(dp654
g12
S'id: 2'
p655
sbag0
(g1
g2
(lp656
g0
(g1
g2
(lp657
g0
(g1
g2
(lp658
g0
(g1
g2
(lp659
VThe
p660
atp661
Rp662
(dp663
g12
VDT
p664
sbag0
(g1
g2
(lp665
Vlittle
p666
atp667
Rp668
(dp669
g12
VJJ
p670
sbag0
(g1
g2
(lp671
Vgirl
p672
atp673
Rp674
(dp675
g12
VNN
p676
sbatp677
Rp678
(dp679
g12
VNP
p680
sbag0
(g1
g2
(lp681
g0
(g1
g2
(lp682
Vis
p683
atp684
Rp685
(dp686
g12
VVBZ
p687
sbag0
(g1
g2
(lp688
g0
(g1
g2
(lp689
Vpointing
p690
atp691
Rp692
(dp693
g12
VVBG
p694
sbag0
(g1
g2
(lp695
g0
(g1
g2
(lp696
g0
(g1
g2
(lp697
Vher
p698
atp699
Rp700
(dp701
g12
VPRP
p702
sbatp703
Rp704
(dp705
g12
VNP
p706
sbag0
(g1
g2
(lp707
V,
p708
atp709
Rp710
(dp711
g12
V,
p712
sbag0
(g1
g2
(lp713
g0
(g1
g2
(lp714
Vto
p715
atp716
Rp717
(dp718
g12
VTO
p719
sbag0
(g1
g2
(lp720
g0
(g1
g2
(lp721
Vher
p722
atp723
Rp724
(dp725
g12
VPRP$
p726
sbag0
(g1
g2
(lp727
Vdad
p728
atp729
Rp730
(dp731
g12
VNN
p732
sbatp733
Rp734
(dp735
g12
VNP
p736
sbatp737
Rp738
(dp739
g12
VPP
p740
sbag0
(g1
g2
(lp741
V,
p742
atp743
Rp744
(dp745
g12
V,
p746
sbag0
(g1
g2
(lp747
g0
(g1
g2
(lp748
Vto
p749
atp750
Rp751
(dp752
g12
VTO
p753
sbag0
(g1
g2
(lp754
g0
(g1
g2
(lp755
Vlook
p756
atp757
Rp758
(dp759
g12
VVB
p760
sbag0
(g1
g2
(lp761
g0
(g1
g2
(lp762
Vat
p763
atp764
Rp765
(dp766
g12
VIN
p767
sbag0
(g1
g2
(lp768
g0
(g1
g2
(lp769
Vthe
p770
atp771
Rp772
(dp773
g12
VDT
p774
sbag0
(g1
g2
(lp775
Vclown
p776
atp777
Rp778
(dp779
g12
VNN
p780
sbatp781
Rp782
(dp783
g12
VNP
p784
sbatp785
Rp786
(dp787
g12
VPP
p788
sbatp789
Rp790
(dp791
g12
VVP
p792
sbatp793
Rp794
(dp795
g12
VVP
p796
sbatp797
Rp798
(dp799
g12
VS
p800
sbatp801
Rp802
(dp803
g12
VVP
p804
sbatp805
Rp806
(dp807
g12
VVP
p808
sbag0
(g1
g2
(lp809
V.
p810
atp811
Rp812
(dp813
g12
V.
p814
sbatp815
Rp816
(dp817
g12
VS
p818
sbatp819
Rp820
(dp821
g12
S'id: 3'
p822
sbag0
(g1
g2
(lp823
g0
(g1
g2
(lp824
g0
(g1
g2
(lp825
g0
(g1
g2
(lp826
g0
(g1
g2
(lp827
VThe
p828
atp829
Rp830
(dp831
g12
VDT
p832
sbag0
(g1
g2
(lp833
Vlittle
p834
atp835
Rp836
(dp837
g12
VJJ
p838
sbag0
(g1
g2
(lp839
Vboy
p840
atp841
Rp842
(dp843
g12
VNN
p844
sbatp845
Rp846
(dp847
g12
VNP
p848
sbag0
(g1
g2
(lp849
g0
(g1
g2
(lp850
g0
(g1
g2
(lp851
Vthat
p852
atp853
Rp854
(dp855
g12
VWDT
p856
sbatp857
Rp858
(dp859
g12
VWHNP
p860
sbag0
(g1
g2
(lp861
g0
(g1
g2
(lp862
g0
(g1
g2
(lp863
Vbelongs
p864
atp865
Rp866
(dp867
g12
VVBZ
p868
sbag0
(g1
g2
(lp869
g0
(g1
g2
(lp870
Vto
p871
atp872
Rp873
(dp874
g12
VTO
p875
sbag0
(g1
g2
(lp876
g0
(g1
g2
(lp877
Vthe
p878
atp879
Rp880
(dp881
g12
VDT
p882
sbag0
(g1
g2
(lp883
Vopposite
p884
atp885
Rp886
(dp887
g12
VJJ
p888
sbag0
(g1
g2
(lp889
Vfamily
p890
atp891
Rp892
(dp893
g12
VNN
p894
sbatp895
Rp896
(dp897
g12
VNP
p898
sbatp899
Rp900
(dp901
g12
VPP
p902
sbatp903
Rp904
(dp905
g12
VVP
p906
sbatp907
Rp908
(dp909
g12
VS
p910
sbatp911
Rp912
(dp913
g12
VSBAR
p914
sbatp915
Rp916
(dp917
g12
VNP
p918
sbag0
(g1
g2
(lp919
g0
(g1
g2
(lp920
Vis
p921
atp922
Rp923
(dp924
g12
VVBZ
p925
sbag0
(g1
g2
(lp926
g0
(g1
g2
(lp927
Vcatching
p928
atp929
Rp930
(dp931
g12
VVBG
p932
sbag0
(g1
g2
(lp933
g0
(g1
g2
(lp934
V,
p935
atp936
Rp937
(dp938
g12
V,
p939
sbag0
(g1
g2
(lp940
g0
(g1
g2
(lp941
g0
(g1
g2
(lp942
Vis
p943
atp944
Rp945
(dp946
g12
VVBZ
p947
sbag0
(g1
g2
(lp948
g0
(g1
g2
(lp949
Vtrying
p950
atp951
Rp952
(dp953
g12
VVBG
p954
sbag0
(g1
g2
(lp955
g0
(g1
g2
(lp956
g0
(g1
g2
(lp957
Vto
p958
atp959
Rp960
(dp961
g12
VTO
p962
sbag0
(g1
g2
(lp963
g0
(g1
g2
(lp964
Vcatch
p965
atp966
Rp967
(dp968
g12
VVB
p969
sbatp970
Rp971
(dp972
g12
VVP
p973
sbatp974
Rp975
(dp976
g12
VVP
p977
sbatp978
Rp979
(dp980
g12
VS
p981
sbatp982
Rp983
(dp984
g12
VVP
p985
sbatp986
Rp987
(dp988
g12
VVP
p989
sbatp990
Rp991
(dp992
g12
VS
p993
sbag0
(g1
g2
(lp994
V,
p995
atp996
Rp997
(dp998
g12
V,
p999
sbatp1000
Rp1001
(dp1002
g12
VPRN
p1003
sbag0
(g1
g2
(lp1004
g0
(g1
g2
(lp1005
g0
(g1
g2
(lp1006
Vsome
p1007
atp1008
Rp1009
(dp1010
g12
VDT
p1011
sbag0
(g1
g2
(lp1012
Vcandy
p1013
atp1014
Rp1015
(dp1016
g12
VNN
p1017
sbatp1018
Rp1019
(dp1020
g12
VNP
p1021
sbag0
(g1
g2
(lp1022
g0
(g1
g2
(lp1023
Vthat
p1024
atp1025
Rp1026
(dp1027
g12
VIN
p1028
sbag0
(g1
g2
(lp1029
g0
(g1
g2
(lp1030
g0
(g1
g2
(lp1031
Vthe
p1032
atp1033
Rp1034
(dp1035
g12
VDT
p1036
sbag0
(g1
g2
(lp1037
Vclown
p1038
atp1039
Rp1040
(dp1041
g12
VNN
p1042
sbatp1043
Rp1044
(dp1045
g12
VNP
p1046
sbag0
(g1
g2
(lp1047
g0
(g1
g2
(lp1048
Vis
p1049
atp1050
Rp1051
(dp1052
g12
VVBZ
p1053
sbag0
(g1
g2
(lp1054
g0
(g1
g2
(lp1055
Vthrown
p1056
atp1057
Rp1058
(dp1059
g12
VVBN
p1060
sbag0
(g1
g2
(lp1061
g0
(g1
g2
(lp1062
Vout
p1063
atp1064
Rp1065
(dp1066
g12
VRP
p1067
sbatp1068
Rp1069
(dp1070
g12
VPRT
p1071
sbatp1072
Rp1073
(dp1074
g12
VVP
p1075
sbatp1076
Rp1077
(dp1078
g12
VVP
p1079
sbatp1080
Rp1081
(dp1082
g12
VS
p1083
sbatp1084
Rp1085
(dp1086
g12
VSBAR
p1087
sbatp1088
Rp1089
(dp1090
g12
VNP
p1091
sbatp1092
Rp1093
(dp1094
g12
VVP
p1095
sbatp1096
Rp1097
(dp1098
g12
VVP
p1099
sbag0
(g1
g2
(lp1100
V.
p1101
atp1102
Rp1103
(dp1104
g12
V.
p1105
sbatp1106
Rp1107
(dp1108
g12
VS
p1109
sbatp1110
Rp1111
(dp1112
g12
S'id: 4'
p1113
sbag0
(g1
g2
(lp1114
g0
(g1
g2
(lp1115
g0
(g1
g2
(lp1116
g0
(g1
g2
(lp1117
g0
(g1
g2
(lp1118
VThe
p1119
atp1120
Rp1121
(dp1122
g12
VDT
p1123
sbag0
(g1
g2
(lp1124
Vother
p1125
atp1126
Rp1127
(dp1128
g12
VJJ
p1129
sbag0
(g1
g2
(lp1130
Vpeople
p1131
atp1132
Rp1133
(dp1134
g12
VNNS
p1135
sbatp1136
Rp1137
(dp1138
g12
VNP
p1139
sbag0
(g1
g2
(lp1140
g0
(g1
g2
(lp1141
Vin
p1142
atp1143
Rp1144
(dp1145
g12
VIN
p1146
sbag0
(g1
g2
(lp1147
g0
(g1
g2
(lp1148
Vthe
p1149
atp1150
Rp1151
(dp1152
g12
VDT
p1153
sbag0
(g1
g2
(lp1154
Vcrowd
p1155
atp1156
Rp1157
(dp1158
g12
VNN
p1159
sbatp1160
Rp1161
(dp1162
g12
VNP
p1163
sbatp1164
Rp1165
(dp1166
g12
VPP
p1167
sbag0
(g1
g2
(lp1168
V,
p1169
atp1170
Rp1171
(dp1172
g12
V,
p1173
sbag0
(g1
g2
(lp1174
g0
(g1
g2
(lp1175
Vthat
p1176
atp1177
Rp1178
(dp1179
g12
VIN
p1180
sbag0
(g1
g2
(lp1181
g0
(g1
g2
(lp1182
g0
(g1
g2
(lp1183
Vyou
p1184
atp1185
Rp1186
(dp1187
g12
VPRP
p1188
sbatp1189
Rp1190
(dp1191
g12
VNP
p1192
sbag0
(g1
g2
(lp1193
g0
(g1
g2
(lp1194
Vcan
p1195
atp1196
Rp1197
(dp1198
g12
VMD
p1199
sbag0
(g1
g2
(lp1200
g0
(g1
g2
(lp1201
Vsee
p1202
atp1203
Rp1204
(dp1205
g12
VVB
p1206
sbag0
(g1
g2
(lp1207
g0
(g1
g2
(lp1208
Vin
p1209
atp1210
Rp1211
(dp1212
g12
VIN
p1213
sbag0
(g1
g2
(lp1214
g0
(g1
g2
(lp1215
Vthe
p1216
atp1217
Rp1218
(dp1219
g12
VDT
p1220
sbag0
(g1
g2
(lp1221
Vdistance
p1222
atp1223
Rp1224
(dp1225
g12
VNN
p1226
sbatp1227
Rp1228
(dp1229
g12
VNP
p1230
sbatp1231
Rp1232
(dp1233
g12
VPP
p1234
sbatp1235
Rp1236
(dp1237
g12
VVP
p1238
sbatp1239
Rp1240
(dp1241
g12
VVP
p1242
sbatp1243
Rp1244
(dp1245
g12
VS
p1246
sbatp1247
Rp1248
(dp1249
g12
VSBAR
p1250
sbag0
(g1
g2
(lp1251
V,
p1252
atp1253
Rp1254
(dp1255
g12
V,
p1256
sbatp1257
Rp1258
(dp1259
g12
VNP
p1260
sbag0
(g1
g2
(lp1261
g0
(g1
g2
(lp1262
Vis
p1263
atp1264
Rp1265
(dp1266
g12
VVBZ
p1267
sbag0
(g1
g2
(lp1268
g0
(g1
g2
(lp1269
Vwatching
p1270
atp1271
Rp1272
(dp1273
g12
VVBG
p1274
sbag0
(g1
g2
(lp1275
g0
(g1
g2
(lp1276
g0
(g1
g2
(lp1277
Vthe
p1278
atp1279
Rp1280
(dp1281
g12
VDT
p1282
sbag0
(g1
g2
(lp1283
Vtight
p1284
atp1285
Rp1286
(dp1287
g12
VJJ
p1288
sbag0
(g1
g2
(lp1289
Vrape
p1290
atp1291
Rp1292
(dp1293
g12
VNN
p1294
sbatp1295
Rp1296
(dp1297
g12
VNP
p1298
sbag0
(g1
g2
(lp1299
V,
p1300
atp1301
Rp1302
(dp1303
g12
V,
p1304
sbag0
(g1
g2
(lp1305
g0
(g1
g2
(lp1306
Vrape
p1307
atp1308
Rp1309
(dp1310
g12
VNN
p1311
sbag0
(g1
g2
(lp1312
Vworker
p1313
atp1314
Rp1315
(dp1316
g12
VNN
p1317
sbatp1318
Rp1319
(dp1320
g12
VNP
p1321
sbag0
(g1
g2
(lp1322
V,
p1323
atp1324
Rp1325
(dp1326
g12
V,
p1327
sbag0
(g1
g2
(lp1328
g0
(g1
g2
(lp1329
Vthat
p1330
atp1331
Rp1332
(dp1333
g12
VIN
p1334
sbag0
(g1
g2
(lp1335
g0
(g1
g2
(lp1336
g0
(g1
g2
(lp1337
Vwhich
p1338
atp1339
Rp1340
(dp1341
g12
VWDT
p1342
sbatp1343
Rp1344
(dp1345
g12
VNP
p1346
sbag0
(g1
g2
(lp1347
g0
(g1
g2
(lp1348
Vis
p1349
atp1350
Rp1351
(dp1352
g12
VVBZ
p1353
sbag0
(g1
g2
(lp1354
g0
(g1
g2
(lp1355
Va
p1356
atp1357
Rp1358
(dp1359
g12
VDT
p1360
sbag0
(g1
g2
(lp1361
Vman
p1362
atp1363
Rp1364
(dp1365
g12
VNN
p1366
sbag0
(g1
g2
(lp1367
g0
(g1
g2
(lp1368
g0
(g1
g2
(lp1369
Vwalk
p1370
atp1371
Rp1372
(dp1373
g12
VVB
p1374
sbag0
(g1
g2
(lp1375
g0
(g1
g2
(lp1376
Von
p1377
atp1378
Rp1379
(dp1380
g12
VIN
p1381
sbag0
(g1
g2
(lp1382
g0
(g1
g2
(lp1383
Vthe
p1384
atp1385
Rp1386
(dp1387
g12
VDT
p1388
sbag0
(g1
g2
(lp1389
Vtight
p1390
atp1391
Rp1392
(dp1393
g12
VJJ
p1394
sbag0
(g1
g2
(lp1395
Vrope
p1396
atp1397
Rp1398
(dp1399
g12
VNN
p1400
sbatp1401
Rp1402
(dp1403
g12
VNP
p1404
sbatp1405
Rp1406
(dp1407
g12
VPP
p1408
sbatp1409
Rp1410
(dp1411
g12
VVP
p1412
sbatp1413
Rp1414
(dp1415
g12
VS
p1416
sbatp1417
Rp1418
(dp1419
g12
VNP
p1420
sbatp1421
Rp1422
(dp1423
g12
VVP
p1424
sbatp1425
Rp1426
(dp1427
g12
VS
p1428
sbatp1429
Rp1430
(dp1431
g12
VSBAR
p1432
sbatp1433
Rp1434
(dp1435
g12
VNP
p1436
sbatp1437
Rp1438
(dp1439
g12
VVP
p1440
sbatp1441
Rp1442
(dp1443
g12
VVP
p1444
sbag0
(g1
g2
(lp1445
V.
p1446
atp1447
Rp1448
(dp1449
g12
V.
p1450
sbatp1451
Rp1452
(dp1453
g12
VS
p1454
sbatp1455
Rp1456
(dp1457
g12
S'id: 5'
p1458
sbag0
(g1
g2
(lp1459
g0
(g1
g2
(lp1460
g0
(g1
g2
(lp1461
g0
(g1
g2
(lp1462
g0
(g1
g2
(lp1463
VThe
p1464
atp1465
Rp1466
(dp1467
g12
VDT
p1468
sbag0
(g1
g2
(lp1469
Vmom
p1470
atp1471
Rp1472
(dp1473
g12
VNN
p1474
sbatp1475
Rp1476
(dp1477
g12
VNP
p1478
sbag0
(g1
g2
(lp1479
g0
(g1
g2
(lp1480
Vis
p1481
atp1482
Rp1483
(dp1484
g12
VVBZ
p1485
sbag0
(g1
g2
(lp1486
g0
(g1
g2
(lp1487
Vholding
p1488
atp1489
Rp1490
(dp1491
g12
VVBG
p1492
sbag0
(g1
g2
(lp1493
g0
(g1
g2
(lp1494
Vthe
p1495
atp1496
Rp1497
(dp1498
g12
VDT
p1499
sbag0
(g1
g2
(lp1500
Vlittle
p1501
atp1502
Rp1503
(dp1504
g12
VJJ
p1505
sbag0
(g1
g2
(lp1506
Vgirl
p1507
atp1508
Rp1509
(dp1510
g12
VNN
p1511
sbatp1512
Rp1513
(dp1514
g12
VNP
p1515
sbatp1516
Rp1517
(dp1518
g12
VVP
p1519
sbatp1520
Rp1521
(dp1522
g12
VVP
p1523
sbatp1524
Rp1525
(dp1526
g12
VS
p1527
sbag0
(g1
g2
(lp1528
V,
p1529
atp1530
Rp1531
(dp1532
g12
V,
p1533
sbag0
(g1
g2
(lp1534
Vand
p1535
atp1536
Rp1537
(dp1538
g12
VCC
p1539
sbag0
(g1
g2
(lp1540
g0
(g1
g2
(lp1541
g0
(g1
g2
(lp1542
Vshe
p1543
atp1544
Rp1545
(dp1546
g12
VPRP
p1547
sbatp1548
Rp1549
(dp1550
g12
VNP
p1551
sbag0
(g1
g2
(lp1552
g0
(g1
g2
(lp1553
Vis
p1554
atp1555
Rp1556
(dp1557
g12
VVBZ
p1558
sbag0
(g1
g2
(lp1559
g0
(g1
g2
(lp1560
Vis
p1561
atp1562
Rp1563
(dp1564
g12
VVBZ
p1565
sbag0
(g1
g2
(lp1566
g0
(g1
g2
(lp1567
g0
(g1
g2
(lp1568
Vsmiling
p1569
atp1570
Rp1571
(dp1572
g12
VVBG
p1573
sbatp1574
Rp1575
(dp1576
g12
VVP
p1577
sbag0
(g1
g2
(lp1578
Vand
p1579
atp1580
Rp1581
(dp1582
g12
VCC
p1583
sbag0
(g1
g2
(lp1584
g0
(g1
g2
(lp1585
Vhaving
p1586
atp1587
Rp1588
(dp1589
g12
VVBG
p1590
sbag0
(g1
g2
(lp1591
g0
(g1
g2
(lp1592
Vfun
p1593
atp1594
Rp1595
(dp1596
g12
VNN
p1597
sbag0
(g1
g2
(lp1598
Vtoo
p1599
atp1600
Rp1601
(dp1602
g12
VRB
p1603
sbatp1604
Rp1605
(dp1606
g12
VNP
p1607
sbatp1608
Rp1609
(dp1610
g12
VVP
p1611
sbatp1612
Rp1613
(dp1614
g12
VVP
p1615
sbatp1616
Rp1617
(dp1618
g12
VVP
p1619
sbatp1620
Rp1621
(dp1622
g12
VVP
p1623
sbatp1624
Rp1625
(dp1626
g12
VS
p1627
sbag0
(g1
g2
(lp1628
V.
p1629
atp1630
Rp1631
(dp1632
g12
V.
p1633
sbatp1634
Rp1635
(dp1636
g12
VS
p1637
sbatp1638
Rp1639
(dp1640
g12
S'id: 6'
p1641
sbag0
(g1
g2
(lp1642
g0
(g1
g2
(lp1643
g0
(g1
g2
(lp1644
g0
(g1
g2
(lp1645
g0
(g1
g2
(lp1646
VAll
p1647
atp1648
Rp1649
(dp1650
g12
VDT
p1651
sbag0
(g1
g2
(lp1652
Vpeople
p1653
atp1654
Rp1655
(dp1656
g12
VNNS
p1657
sbatp1658
Rp1659
(dp1660
g12
VNP
p1661
sbag0
(g1
g2
(lp1662
V,
p1663
atp1664
Rp1665
(dp1666
g12
V,
p1667
sbag0
(g1
g2
(lp1668
g0
(g1
g2
(lp1669
Vthat
p1670
atp1671
Rp1672
(dp1673
g12
VIN
p1674
sbag0
(g1
g2
(lp1675
g0
(g1
g2
(lp1676
g0
(g1
g2
(lp1677
Vyou
p1678
atp1679
Rp1680
(dp1681
g12
VPRP
p1682
sbatp1683
Rp1684
(dp1685
g12
VNP
p1686
sbag0
(g1
g2
(lp1687
g0
(g1
g2
(lp1688
Vcan
p1689
atp1690
Rp1691
(dp1692
g12
VMD
p1693
sbag0
(g1
g2
(lp1694
g0
(g1
g2
(lp1695
Vsee
p1696
atp1697
Rp1698
(dp1699
g12
VVB
p1700
sbag0
(g1
g2
(lp1701
g0
(g1
g2
(lp1702
Vtheir
p1703
atp1704
Rp1705
(dp1706
g12
VPRP$
p1707
sbag0
(g1
g2
(lp1708
Vfaces
p1709
atp1710
Rp1711
(dp1712
g12
VNNS
p1713
sbatp1714
Rp1715
(dp1716
g12
VNP
p1717
sbatp1718
Rp1719
(dp1720
g12
VVP
p1721
sbatp1722
Rp1723
(dp1724
g12
VVP
p1725
sbatp1726
Rp1727
(dp1728
g12
VS
p1729
sbatp1730
Rp1731
(dp1732
g12
VSBAR
p1733
sbag0
(g1
g2
(lp1734
V,
p1735
atp1736
Rp1737
(dp1738
g12
V,
p1739
sbatp1740
Rp1741
(dp1742
g12
VNP
p1743
sbag0
(g1
g2
(lp1744
g0
(g1
g2
(lp1745
Vare
p1746
atp1747
Rp1748
(dp1749
g12
VVBP
p1750
sbag0
(g1
g2
(lp1751
g0
(g1
g2
(lp1752
Vsmiling
p1753
atp1754
Rp1755
(dp1756
g12
VVBG
p1757
sbatp1758
Rp1759
(dp1760
g12
VVP
p1761
sbatp1762
Rp1763
(dp1764
g12
VVP
p1765
sbag0
(g1
g2
(lp1766
V.
p1767
atp1768
Rp1769
(dp1770
g12
V.
p1771
sbatp1772
Rp1773
(dp1774
g12
VS
p1775
sbatp1776
Rp1777
(dp1778
g12
S'id: 7'
p1779
sbag0
(g1
g2
(lp1780
g0
(g1
g2
(lp1781
g0
(g1
g2
(lp1782
VAnd
p1783
atp1784
Rp1785
(dp1786
g12
VCC
p1787
sbag0
(g1
g2
(lp1788
g0
(g1
g2
(lp1789
Vseems
p1790
atp1791
Rp1792
(dp1793
g12
VVBZ
p1794
sbag0
(g1
g2
(lp1795
g0
(g1
g2
(lp1796
Vthat
p1797
atp1798
Rp1799
(dp1800
g12
VIN
p1801
sbag0
(g1
g2
(lp1802
g0
(g1
g2
(lp1803
g0
(g1
g2
(lp1804
g0
(g1
g2
(lp1805
Vthe
p1806
atp1807
Rp1808
(dp1809
g12
VDT
p1810
sbag0
(g1
g2
(lp1811
Vspectadas
p1812
atp1813
Rp1814
(dp1815
g12
VNNS
p1816
sbatp1817
Rp1818
(dp1819
g12
VNP
p1820
sbag0
(g1
g2
(lp1821
V,
p1822
atp1823
Rp1824
(dp1825
g12
V,
p1826
sbag0
(g1
g2
(lp1827
g0
(g1
g2
(lp1828
Vtha
p1829
atp1830
Rp1831
(dp1832
g12
VNN
p1833
sbag0
(g1
g2
(lp1834
Vas
p1835
atp1836
Rp1837
(dp1838
g12
VRB
p1839
sbatp1840
Rp1841
(dp1842
g12
VNP
p1843
sbag0
(g1
g2
(lp1844
V,
p1845
atp1846
Rp1847
(dp1848
g12
V,
p1849
sbatp1850
Rp1851
(dp1852
g12
VNP
p1853
sbag0
(g1
g2
(lp1854
g0
(g1
g2
(lp1855
Vseem
p1856
atp1857
Rp1858
(dp1859
g12
VVBP
p1860
sbag0
(g1
g2
(lp1861
g0
(g1
g2
(lp1862
g0
(g1
g2
(lp1863
Vto
p1864
atp1865
Rp1866
(dp1867
g12
VTO
p1868
sbag0
(g1
g2
(lp1869
g0
(g1
g2
(lp1870
Vbe
p1871
atp1872
Rp1873
(dp1874
g12
VVB
p1875
sbag0
(g1
g2
(lp1876
g0
(g1
g2
(lp1877
Venjoy
p1878
atp1879
Rp1880
(dp1881
g12
VVB
p1882
sbag0
(g1
g2
(lp1883
g0
(g1
g2
(lp1884
Vthe
p1885
atp1886
Rp1887
(dp1888
g12
VDT
p1889
sbag0
(g1
g2
(lp1890
Vtime
p1891
atp1892
Rp1893
(dp1894
g12
VNN
p1895
sbatp1896
Rp1897
(dp1898
g12
VNP
p1899
sbatp1900
Rp1901
(dp1902
g12
VVP
p1903
sbatp1904
Rp1905
(dp1906
g12
VVP
p1907
sbatp1908
Rp1909
(dp1910
g12
VVP
p1911
sbatp1912
Rp1913
(dp1914
g12
VS
p1915
sbatp1916
Rp1917
(dp1918
g12
VVP
p1919
sbatp1920
Rp1921
(dp1922
g12
VS
p1923
sbatp1924
Rp1925
(dp1926
g12
VSBAR
p1927
sbatp1928
Rp1929
(dp1930
g12
VVP
p1931
sbag0
(g1
g2
(lp1932
V.
p1933
atp1934
Rp1935
(dp1936
g12
V.
p1937
sbatp1938
Rp1939
(dp1940
g12
VS
p1941
sbatp1942
Rp1943
(dp1944
g12
S'id: 8'
p1945
sbag0
(g1
g2
(lp1946
g0
(g1
g2
(lp1947
g0
(g1
g2
(lp1948
g0
(g1
g2
(lp1949
VThere
p1950
atp1951
Rp1952
(dp1953
g12
VEX
p1954
sbatp1955
Rp1956
(dp1957
g12
VNP
p1958
sbag0
(g1
g2
(lp1959
g0
(g1
g2
(lp1960
V's
p1961
atp1962
Rp1963
(dp1964
g12
VVBZ
p1965
sbatp1966
Rp1967
(dp1968
g12
VVP
p1969
sbatp1970
Rp1971
(dp1972
g12
VS
p1973
sbatp1974
Rp1975
(dp1976
g12
S'id: 9'
p1977
sbatp1978
Rp1979
(dp1980
g12
S'sentences'
p1981
sb.