ccopy_reg
_reconstructor
p0
(cnltk.tree
Tree
p1
c__builtin__
list
p2
(lp3
g0
(g1
g2
(lp4
g0
(g1
g2
(lp5
g0
(g1
g2
(lp6
g0
(g1
g2
(lp7
g0
(g1
g2
(lp8
g0
(g1
g2
(lp9
g0
(g1
g2
(lp10
(lp11
S'word: a, index: 34'
p12
aatp13
Rp14
(dp15
S'_label'
p16
Vdet
p17
sbatp18
Rp19
(dp20
g16
S'word: picnic, index: 35'
p21
sbatp22
Rp23
(dp24
g16
Vprep
p25
sbatp26
Rp27
(dp28
g16
S'word: dog, index: 32'
p29
sbatp30
Rp31
(dp32
g16
Vprep
p33
sbag0
(g1
g2
(lp34
(lp35
S'word: we, index: 1'
p36
aatp37
Rp38
(dp39
g16
Vnsubj
p40
sbag0
(g1
g2
(lp41
g0
(g1
g2
(lp42
g0
(g1
g2
(lp43
g27
atp44
Rp45
(dp46
g16
Vconj
p47
sbag0
(g1
g2
(lp48
(lp49
S'word: dad, index: 19'
p50
aatp51
Rp52
(dp53
g16
Vconj
p54
sbag0
(g1
g2
(lp55
g0
(g1
g2
(lp56
g0
(g1
g2
(lp57
(lp58
S'word: the, index: 22'
p59
aatp60
Rp61
(dp62
g16
Vdet
p63
sbag0
(g1
g2
(lp64
(lp65
S'word: two, index: 23'
p66
aatp67
Rp68
(dp69
g16
Vnum
p70
sbatp71
Rp72
(dp73
g16
S'word: boy, index: 24'
p74
sbatp75
Rp76
(dp77
g16
Vconj
p78
sbag0
(g1
g2
(lp79
g0
(g1
g2
(lp80
g0
(g1
g2
(lp81
(lp82
S'word: their, index: 26'
p83
aatp84
Rp85
(dp86
g16
Vposs
p87
sbag0
(g1
g2
(lp88
(lp89
S'word: daughter, index: 29'
p90
aatp91
Rp92
(dp93
g16
Vconj
p94
sbatp95
Rp96
(dp97
g16
S'word: son, index: 27'
p98
sbatp99
Rp100
(dp101
g16
Vconj
p102
sbag0
(g1
g2
(lp103
(lp104
S'word: daughter, index: 29'
p105
aatp106
Rp107
(dp108
g16
Vconj
p109
sbatp110
Rp111
(dp112
g16
S'word: mom, index: 17'
p113
sbatp114
Rp115
(dp116
g16
Vprep
p117
sbag0
(g1
g2
(lp118
(lp119
S'word: back, index: 3'
p120
aatp121
Rp122
(dp123
g16
Vadvmod
p124
sbag0
(g1
g2
(lp125
(lp126
S'word: dad, index: 19'
p127
aatp128
Rp129
(dp130
g16
Vprep
p131
sbag0
(g1
g2
(lp132
g0
(g1
g2
(lp133
g0
(g1
g2
(lp134
(lp135
S'word: the, index: 5'
p136
aatp137
Rp138
(dp139
g16
Vdet
p140
sbag0
(g1
g2
(lp141
g0
(g1
g2
(lp142
g0
(g1
g2
(lp143
(lp144
S'word: the, index: 9'
p145
aatp146
Rp147
(dp148
g16
Vdet
p149
sbatp150
Rp151
(dp152
g16
S'word: lake, index: 10'
p153
sbatp154
Rp155
(dp156
g16
Vconj
p157
sbatp158
Rp159
(dp160
g16
S'word: beach, index: 6'
p161
sbatp162
Rp163
(dp164
g16
Vprep
p165
sbag0
(g1
g2
(lp166
g72
atp167
Rp168
(dp169
g16
Vprep
p170
sbag0
(g1
g2
(lp171
g151
atp172
Rp173
(dp174
g16
Vprep
p175
sbag0
(g1
g2
(lp176
g96
atp177
Rp178
(dp179
g16
Vprep
p180
sbag0
(g1
g2
(lp181
g0
(g1
g2
(lp182
g0
(g1
g2
(lp183
(lp184
S'word: where, index: 11'
p185
aatp186
Rp187
(dp188
g16
Vadvmod
p189
sbag0
(g1
g2
(lp190
(lp191
S'word: we, index: 12'
p192
aatp193
Rp194
(dp195
g16
Vnsubj
p196
sbag0
(g1
g2
(lp197
(lp198
S'word: yesterday, index: 14'
p199
aatp200
Rp201
(dp202
g16
Vtmod
p203
sbatp204
Rp205
(dp206
g16
S'word: were, index: 13'
p207
sbatp208
Rp209
(dp210
g16
Vadvcl
p211
sbatp212
Rp213
(dp214
g16
S"word: 're, index: 2"
p215
sbatp216
Rp217
(dp218
g16
S'id: 0'
p219
sbag0
(g1
g2
(lp220
g0
(g1
g2
(lp221
g0
(g1
g2
(lp222
(lp223
S'word: dad, index: 3'
p224
aatp225
Rp226
(dp227
g16
Vnsubj
p228
sbag0
(g1
g2
(lp229
(lp230
S'word: are, index: 4'
p231
aatp232
Rp233
(dp234
g16
Vaux
p235
sbag0
(g1
g2
(lp236
g0
(g1
g2
(lp237
g0
(g1
g2
(lp238
(lp239
S'word: the, index: 7'
p240
aatp241
Rp242
(dp243
g16
Vdet
p244
sbag0
(g1
g2
(lp245
(lp246
S'word: beach, index: 8'
p247
aatp248
Rp249
(dp250
g16
Vnn
p251
sbatp252
Rp253
(dp254
g16
S'word: blanket, index: 9'
p255
sbatp256
Rp257
(dp258
g16
Vprep
p259
sbag0
(g1
g2
(lp260
g0
(g1
g2
(lp261
g0
(g1
g2
(lp262
g0
(g1
g2
(lp263
g0
(g1
g2
(lp264
(lp265
S'word: the, index: 13'
p266
aatp267
Rp268
(dp269
g16
Vdet
p270
sbatp271
Rp272
(dp273
g16
S'word: grass, index: 14'
p274
sbatp275
Rp276
(dp277
g16
Vprep
p278
sbatp279
Rp280
(dp281
g16
S'word: up, index: 11'
p282
sbatp283
Rp284
(dp285
g16
Vadvmod
p286
sbag0
(g1
g2
(lp287
g0
(g1
g2
(lp288
g0
(g1
g2
(lp289
(lp290
S'word: dad, index: 3'
p291
aatp292
Rp293
(dp294
g16
Vconj
p295
sbatp296
Rp297
(dp298
g16
S'word: Mom, index: 1'
p299
sbatp300
Rp301
(dp302
g16
Vnsubj
p303
sbatp304
Rp305
(dp306
g16
S'word: sitting, index: 5'
p307
sbatp308
Rp309
(dp310
g16
S'id: 1'
p311
sbag0
(g1
g2
(lp312
g0
(g1
g2
(lp313
g0
(g1
g2
(lp314
g0
(g1
g2
(lp315
g0
(g1
g2
(lp316
g0
(g1
g2
(lp317
g0
(g1
g2
(lp318
(lp319
S'word: he, index: 9'
p320
aatp321
Rp322
(dp323
g16
Vnsubj
p324
sbag0
(g1
g2
(lp325
(lp326
S"word: 's, index: 10"
p327
aatp328
Rp329
(dp330
g16
Vaux
p331
sbag0
(g1
g2
(lp332
g0
(g1
g2
(lp333
g0
(g1
g2
(lp334
(lp335
S'word: a, index: 12'
p336
aatp337
Rp338
(dp339
g16
Vdet
p340
sbatp341
Rp342
(dp343
g16
S'word: book, index: 13'
p344
sbatp345
Rp346
(dp347
g16
Vdobj
p348
sbag0
(g1
g2
(lp349
(lp350
S'word: it, index: 16'
p351
aatp352
Rp353
(dp354
g16
Vprep
p355
sbag0
(g1
g2
(lp356
g0
(g1
g2
(lp357
g0
(g1
g2
(lp358
g0
(g1
g2
(lp359
g0
(g1
g2
(lp360
(lp361
S'word: better, index: 22'
p362
aatp363
Rp364
(dp365
g16
Vamod
p366
sbatp367
Rp368
(dp369
g16
S'word: cause, index: 23'
p370
sbatp371
Rp372
(dp373
g16
Vdobj
p374
sbag0
(g1
g2
(lp375
(lp376
S'word: hopefully, index: 18'
p377
aatp378
Rp379
(dp380
g16
Vadvmod
p381
sbag0
(g1
g2
(lp382
(lp383
S'word: he, index: 19'
p384
aatp385
Rp386
(dp387
g16
Vnsubj
p388
sbag0
(g1
g2
(lp389
(lp390
S'word: can, index: 20'
p391
aatp392
Rp393
(dp394
g16
Vaux
p395
sbatp396
Rp397
(dp398
g16
S'word: see, index: 21'
p399
sbatp400
Rp401
(dp402
g16
Vparataxis
p403
sbatp404
Rp405
(dp406
g16
S'word: reading, index: 11'
p407
sbatp408
Rp409
(dp410
g16
Vconj
p411
sbag0
(g1
g2
(lp412
g0
(g1
g2
(lp413
g0
(g1
g2
(lp414
(lp415
S'word: his, index: 4'
p416
aatp417
Rp418
(dp419
g16
Vposs
p420
sbatp421
Rp422
(dp423
g16
S'word: legs, index: 5'
p424
sbatp425
Rp426
(dp427
g16
Vnsubj
p428
sbatp429
Rp430
(dp431
g16
S'word: crossed, index: 6'
p432
sbatp433
Rp434
(dp435
g16
Vparataxis
p436
sbag0
(g1
g2
(lp437
(lp438
S'word: he, index: 24'
p439
aatp440
Rp441
(dp442
g16
Vnsubjpass
p443
sbag0
(g1
g2
(lp444
(lp445
S"word: 's, index: 25"
p446
aatp447
Rp448
(dp449
g16
Vauxpass
p450
sbag0
(g1
g2
(lp451
g405
atp452
Rp453
(dp454
g16
Vparataxis
p455
sbag0
(g1
g2
(lp456
g0
(g1
g2
(lp457
g0
(g1
g2
(lp458
(lp459
S'word: his, index: 27'
p460
aatp461
Rp462
(dp463
g16
Vposs
p464
sbag0
(g1
g2
(lp465
(lp466
S'word: eye, index: 28'
p467
aatp468
Rp469
(dp470
g16
Vnn
p471
sbatp472
Rp473
(dp474
g16
S'word: glasses, index: 29'
p475
sbatp476
Rp477
(dp478
g16
Vdobj
p479
sbag0
(g1
g2
(lp480
(lp481
S'word: on, index: 30'
p482
aatp483
Rp484
(dp485
g16
Vprep
p486
sbag0
(g1
g2
(lp487
g0
(g1
g2
(lp488
g0
(g1
g2
(lp489
(lp490
S'word: Dad, index: 1'
p491
aatp492
Rp493
(dp494
g16
Vposs
p495
sbatp496
Rp497
(dp498
g16
S'word: crut, index: 3'
p499
sbatp500
Rp501
(dp502
g16
Vnsubjpass
p503
sbatp504
Rp505
(dp506
g16
S'word: got, index: 26'
p507
sbatp508
Rp509
(dp510
g16
S'id: 2'
p511
sbag0
(g1
g2
(lp512
g0
(g1
g2
(lp513
g0
(g1
g2
(lp514
g0
(g1
g2
(lp515
g0
(g1
g2
(lp516
(lp517
S'word: the, index: 12'
p518
aatp519
Rp520
(dp521
g16
Vdet
p522
sbatp523
Rp524
(dp525
g16
S'word: blanket, index: 13'
p526
sbatp527
Rp528
(dp529
g16
Vprep
p530
sbag0
(g1
g2
(lp531
g0
(g1
g2
(lp532
g0
(g1
g2
(lp533
(lp534
S'word: His, index: 1'
p535
aatp536
Rp537
(dp538
g16
Vposs
p539
sbatp540
Rp541
(dp542
g16
S'word: sandals, index: 2'
p543
sbatp544
Rp545
(dp546
g16
Vnsubj
p547
sbag0
(g1
g2
(lp548
(lp549
S'word: are, index: 3'
p550
aatp551
Rp552
(dp553
g16
Vaux
p554
sbag0
(g1
g2
(lp555
g0
(g1
g2
(lp556
g0
(g1
g2
(lp557
g0
(g1
g2
(lp558
g0
(g1
g2
(lp559
g0
(g1
g2
(lp560
g0
(g1
g2
(lp561
(lp562
S'word: his, index: 7'
p563
aatp564
Rp565
(dp566
g16
Vposs
p567
sbag0
(g1
g2
(lp568
(lp569
S'word: right, index: 8'
p570
aatp571
Rp572
(dp573
g16
Vamod
p574
sbatp575
Rp576
(dp577
g16
S'word: side, index: 9'
p578
sbatp579
Rp580
(dp581
g16
Vpobj
p582
sbatp583
Rp584
(dp585
g16
S'word: to, index: 6'
p586
sbatp587
Rp588
(dp589
g16
Vpcomp
p590
sbatp591
Rp592
(dp593
g16
S'word: on, index: 5'
p594
sbatp595
Rp596
(dp597
g16
Vprep
p598
sbatp599
Rp600
(dp601
g16
S'word: laying, index: 4'
p602
sbatp603
Rp604
(dp605
g16
S'id: 3'
p606
sbag0
(g1
g2
(lp607
g0
(g1
g2
(lp608
g0
(g1
g2
(lp609
(lp610
S'word: is, index: 12'
p611
aatp612
Rp613
(dp614
g16
Vcop
p615
sbag0
(g1
g2
(lp616
(lp617
S'word: kneeling, index: 15'
p618
aatp619
Rp620
(dp621
g16
Vvmod
p622
sbag0
(g1
g2
(lp623
g0
(g1
g2
(lp624
g0
(g1
g2
(lp625
(lp626
S'word: that, index: 4'
p627
aatp628
Rp629
(dp630
g16
Vprep
p631
sbatp632
Rp633
(dp634
g16
S'word: front, index: 2'
p635
sbatp636
Rp637
(dp638
g16
Vprep
p639
sbag0
(g1
g2
(lp640
g0
(g1
g2
(lp641
g0
(g1
g2
(lp642
(lp643
S'word: she, index: 33'
p644
aatp645
Rp646
(dp647
g16
Vnsubj
p648
sbag0
(g1
g2
(lp649
(lp650
S"word: 's, index: 34"
p651
aatp652
Rp653
(dp654
g16
Vaux
p655
sbag0
(g1
g2
(lp656
g0
(g1
g2
(lp657
g0
(g1
g2
(lp658
(lp659
S'word: a, index: 37'
p660
aatp661
Rp662
(dp663
g16
Vdet
p664
sbatp665
Rp666
(dp667
g16
S'word: radio, index: 38'
p668
sbatp669
Rp670
(dp671
g16
Vprep
p672
sbatp673
Rp674
(dp675
g16
S'word: listening, index: 35'
p676
sbatp677
Rp678
(dp679
g16
Vconj
p680
sbag0
(g1
g2
(lp681
g0
(g1
g2
(lp682
g0
(g1
g2
(lp683
g0
(g1
g2
(lp684
g0
(g1
g2
(lp685
(lp686
S'word: them, index: 30'
p687
aatp688
Rp689
(dp690
g16
Vprep
p691
sbag0
(g1
g2
(lp692
(lp693
S'word: the, index: 26'
p694
aatp695
Rp696
(dp697
g16
Vdet
p698
sbag0
(g1
g2
(lp699
(lp700
S'word: picnic, index: 27'
p701
aatp702
Rp703
(dp704
g16
Vnn
p705
sbatp706
Rp707
(dp708
g16
S'word: basket, index: 28'
p709
sbatp710
Rp711
(dp712
g16
Vprep
p713
sbag0
(g1
g2
(lp714
(lp715
S'word: she, index: 18'
p716
aatp717
Rp718
(dp719
g16
Vnsubj
p720
sbag0
(g1
g2
(lp721
(lp722
S"word: 's, index: 19"
p723
aatp724
Rp725
(dp726
g16
Vaux
p727
sbag0
(g1
g2
(lp728
g674
atp729
Rp730
(dp731
g16
Vconj
p732
sbag0
(g1
g2
(lp733
g0
(g1
g2
(lp734
g0
(g1
g2
(lp735
(lp736
S'word: a, index: 21'
p737
aatp738
Rp739
(dp740
g16
Vdet
p741
sbag0
(g1
g2
(lp742
(lp743
S'word: soda, index: 24'
p744
aatp745
Rp746
(dp747
g16
Vprep
p748
sbatp749
Rp750
(dp751
g16
S'word: glass, index: 22'
p752
sbatp753
Rp754
(dp755
g16
Vdobj
p756
sbatp757
Rp758
(dp759
g16
S'word: pouring, index: 20'
p760
sbatp761
Rp762
(dp763
g16
Vconj
p764
sbag0
(g1
g2
(lp765
g0
(g1
g2
(lp766
g0
(g1
g2
(lp767
(lp768
S'word: him, index: 10'
p769
aatp770
Rp771
(dp772
g16
Vprep
p773
sbatp774
Rp775
(dp776
g16
S'word: is, index: 6'
p777
sbatp778
Rp779
(dp780
g16
Vccomp
p781
sbatp782
Rp783
(dp784
g16
S'word: mom, index: 13'
p785
sbatp786
Rp787
(dp788
g16
S'id: 4'
p789
sbag0
(g1
g2
(lp790
g0
(g1
g2
(lp791
g0
(g1
g2
(lp792
g0
(g1
g2
(lp793
g0
(g1
g2
(lp794
(lp795
S"word: 's, index: 2"
p796
aatp797
Rp798
(dp799
g16
Vnsubj
p800
sbatp801
Rp802
(dp803
g16
S'word: see, index: 3'
p804
sbatp805
Rp806
(dp807
g16
Vccomp
p808
sbatp809
Rp810
(dp811
g16
S'word: Let, index: 1'
p812
sbatp813
Rp814
(dp815
g16
S'id: 5'
p816
sbag0
(g1
g2
(lp817
g0
(g1
g2
(lp818
g0
(g1
g2
(lp819
(lp820
S'word: mom, index: 2'
p821
aatp822
Rp823
(dp824
g16
Vprep
p825
sbag0
(g1
g2
(lp826
g0
(g1
g2
(lp827
g0
(g1
g2
(lp828
(lp829
S"word: 's, index: 18"
p830
aatp831
Rp832
(dp833
g16
Vaux
p834
sbag0
(g1
g2
(lp835
(lp836
S'word: along, index: 20'
p837
aatp838
Rp839
(dp840
g16
Vadvmod
p841
sbag0
(g1
g2
(lp842
g0
(g1
g2
(lp843
g0
(g1
g2
(lp844
(lp845
S'word: the, index: 23'
p846
aatp847
Rp848
(dp849
g16
Vdet
p850
sbag0
(g1
g2
(lp851
g0
(g1
g2
(lp852
g0
(g1
g2
(lp853
(lp854
S'word: him, index: 26'
p855
aatp856
Rp857
(dp858
g16
Vdobj
p859
sbatp860
Rp861
(dp862
g16
S'word: chasing, index: 25'
p863
sbatp864
Rp865
(dp866
g16
Vvmod
p867
sbatp868
Rp869
(dp870
g16
S'word: dog, index: 24'
p871
sbatp872
Rp873
(dp874
g16
Vprep
p875
sbag0
(g1
g2
(lp876
(lp877
S'word: he, index: 17'
p878
aatp879
Rp880
(dp881
g16
Vnsubj
p882
sbatp883
Rp884
(dp885
g16
S'word: running, index: 19'
p886
sbatp887
Rp888
(dp889
g16
Vconj
p890
sbag0
(g1
g2
(lp891
(lp892
S'word: is, index: 4'
p893
aatp894
Rp895
(dp896
g16
Vcop
p897
sbag0
(g1
g2
(lp898
g0
(g1
g2
(lp899
g0
(g1
g2
(lp900
(lp901
S'word: their, index: 7'
p902
aatp903
Rp904
(dp905
g16
Vposs
p906
sbatp907
Rp908
(dp909
g16
S'word: son, index: 8'
p910
sbatp911
Rp912
(dp913
g16
Vappos
p914
sbag0
(g1
g2
(lp915
g0
(g1
g2
(lp916
g0
(g1
g2
(lp917
(lp918
S'word: who, index: 10'
p919
aatp920
Rp921
(dp922
g16
Vnsubj
p923
sbag0
(g1
g2
(lp924
(lp925
S"word: 's, index: 11"
p926
aatp927
Rp928
(dp929
g16
Vaux
p930
sbag0
(g1
g2
(lp931
g0
(g1
g2
(lp932
g0
(g1
g2
(lp933
(lp934
S'word: a, index: 13'
p935
aatp936
Rp937
(dp938
g16
Vdet
p939
sbatp940
Rp941
(dp942
g16
S'word: kite, index: 14'
p943
sbatp944
Rp945
(dp946
g16
Vdobj
p947
sbatp948
Rp949
(dp950
g16
S'word: flying, index: 12'
p951
sbatp952
Rp953
(dp954
g16
Vrcmod
p955
sbatp956
Rp957
(dp958
g16
S'word: the, index: 5'
p959
sbatp960
Rp961
(dp962
g16
S'id: 6'
p963
sbag0
(g1
g2
(lp964
g0
(g1
g2
(lp965
g0
(g1
g2
(lp966
g0
(g1
g2
(lp967
g0
(g1
g2
(lp968
(lp969
S'word: a, index: 3'
p970
aatp971
Rp972
(dp973
g16
Vdet
p974
sbag0
(g1
g2
(lp975
(lp976
S'word: little, index: 4'
p977
aatp978
Rp979
(dp980
g16
Vamod
p981
sbatp982
Rp983
(dp984
g16
S'word: bit, index: 5'
p985
sbatp986
Rp987
(dp988
g16
Vprep
p989
sbag0
(g1
g2
(lp990
g0
(g1
g2
(lp991
g0
(g1
g2
(lp992
(lp993
S'word: the, index: 20'
p994
aatp995
Rp996
(dp997
g16
Vdet
p998
sbatp999
Rp1000
(dp1001
g16
S'word: sand, index: 21'
p1002
sbatp1003
Rp1004
(dp1005
g16
Vprep
p1006
sbag0
(g1
g2
(lp1007
g0
(g1
g2
(lp1008
g0
(g1
g2
(lp1009
(lp1010
S'word: further, index: 6'
p1011
aatp1012
Rp1013
(dp1014
g16
Vadvmod
p1015
sbatp1016
Rp1017
(dp1018
g16
S'word: down, index: 7'
p1019
sbatp1020
Rp1021
(dp1022
g16
Vadvmod
p1023
sbag0
(g1
g2
(lp1024
g0
(g1
g2
(lp1025
g0
(g1
g2
(lp1026
g0
(g1
g2
(lp1027
g0
(g1
g2
(lp1028
(lp1029
S'word: a, index: 24'
p1030
aatp1031
Rp1032
(dp1033
g16
Vdet
p1034
sbatp1035
Rp1036
(dp1037
g16
S'word: sandcastle, index: 25'
p1038
sbatp1039
Rp1040
(dp1041
g16
Vdobj
p1042
sbatp1043
Rp1044
(dp1045
g16
S'word: building, index: 23'
p1046
sbatp1047
Rp1048
(dp1049
g16
Vvmod
p1050
sbag0
(g1
g2
(lp1051
g0
(g1
g2
(lp1052
g0
(g1
g2
(lp1053
g0
(g1
g2
(lp1054
g0
(g1
g2
(lp1055
(lp1056
S'word: the, index: 12'
p1057
aatp1058
Rp1059
(dp1060
g16
Vdet
p1061
sbatp1062
Rp1063
(dp1064
g16
S'word: blanket, index: 13'
p1065
sbatp1066
Rp1067
(dp1068
g16
Vprep
p1069
sbatp1070
Rp1071
(dp1072
g16
S'word: the, index: 9'
p1073
sbatp1074
Rp1075
(dp1076
g16
Vnsubj
p1077
sbag0
(g1
g2
(lp1078
(lp1079
S'word: is, index: 15'
p1080
aatp1081
Rp1082
(dp1083
g16
Vcop
p1084
sbag0
(g1
g2
(lp1085
(lp1086
S'word: their, index: 16'
p1087
aatp1088
Rp1089
(dp1090
g16
Vposs
p1091
sbag0
(g1
g2
(lp1092
(lp1093
S'word: And, index: 1'
p1094
aatp1095
Rp1096
(dp1097
g16
Vcc
p1098
sbatp1099
Rp1100
(dp1101
g16
S'word: daughter, index: 17'
p1102
sbatp1103
Rp1104
(dp1105
g16
S'id: 7'
p1106
sbag0
(g1
g2
(lp1107
g0
(g1
g2
(lp1108
g0
(g1
g2
(lp1109
g0
(g1
g2
(lp1110
g0
(g1
g2
(lp1111
g0
(g1
g2
(lp1112
g0
(g1
g2
(lp1113
(lp1114
S'word: to, index: 9'
p1115
aatp1116
Rp1117
(dp1118
g16
Vaux
p1119
sbag0
(g1
g2
(lp1120
g0
(g1
g2
(lp1121
g0
(g1
g2
(lp1122
(lp1123
S'word: her, index: 11'
p1124
aatp1125
Rp1126
(dp1127
g16
Vnsubj
p1128
sbag0
(g1
g2
(lp1129
g0
(g1
g2
(lp1130
g0
(g1
g2
(lp1131
(lp1132
S'word: the, index: 13'
p1133
aatp1134
Rp1135
(dp1136
g16
Vdet
p1137
sbatp1138
Rp1139
(dp1140
g16
S'word: sandcastle, index: 14'
p1141
sbatp1142
Rp1143
(dp1144
g16
Vdobj
p1145
sbatp1146
Rp1147
(dp1148
g16
S'word: build, index: 12'
p1149
sbatp1150
Rp1151
(dp1152
g16
Vccomp
p1153
sbatp1154
Rp1155
(dp1156
g16
S'word: help, index: 10'
p1157
sbatp1158
Rp1159
(dp1160
g16
Vvmod
p1161
sbag0
(g1
g2
(lp1162
(lp1163
S'word: a, index: 7'
p1164
aatp1165
Rp1166
(dp1167
g16
Vdet
p1168
sbatp1169
Rp1170
(dp1171
g16
S'word: shovel, index: 8'
p1172
sbatp1173
Rp1174
(dp1175
g16
Vdobj
p1176
sbag0
(g1
g2
(lp1177
(lp1178
S'word: And, index: 1'
p1179
aatp1180
Rp1181
(dp1182
g16
Vcc
p1183
sbag0
(g1
g2
(lp1184
(lp1185
S'word: she, index: 2'
p1186
aatp1187
Rp1188
(dp1189
g16
Vnsubj
p1190
sbag0
(g1
g2
(lp1191
g0
(g1
g2
(lp1192
g0
(g1
g2
(lp1193
g1170
atp1194
Rp1195
(dp1196
g16
Vconj
p1197
sbag0
(g1
g2
(lp1198
(lp1199
S'word: a, index: 4'
p1200
aatp1201
Rp1202
(dp1203
g16
Vdet
p1204
sbatp1205
Rp1206
(dp1207
g16
S'word: bucket, index: 5'
p1208
sbatp1209
Rp1210
(dp1211
g16
Vdobj
p1212
sbatp1213
Rp1214
(dp1215
g16
S'word: has, index: 3'
p1216
sbatp1217
Rp1218
(dp1219
g16
S'id: 8'
p1220
sbag0
(g1
g2
(lp1221
g0
(g1
g2
(lp1222
g0
(g1
g2
(lp1223
g0
(g1
g2
(lp1224
g0
(g1
g2
(lp1225
(lp1226
S'word: the, index: 28'
p1227
aatp1228
Rp1229
(dp1230
g16
Vdet
p1231
sbag0
(g1
g2
(lp1232
(lp1233
S'word: other, index: 29'
p1234
aatp1235
Rp1236
(dp1237
g16
Vamod
p1238
sbag0
(g1
g2
(lp1239
g0
(g1
g2
(lp1240
g0
(g1
g2
(lp1241
g0
(g1
g2
(lp1242
g0
(g1
g2
(lp1243
(lp1244
S'word: the, index: 32'
p1245
aatp1246
Rp1247
(dp1248
g16
Vdet
p1249
sbatp1250
Rp1251
(dp1252
g16
S'word: rudder, index: 33'
p1253
sbatp1254
Rp1255
(dp1256
g16
Vdobj
p1257
sbatp1258
Rp1259
(dp1260
g16
S'word: steering, index: 31'
p1261
sbatp1262
Rp1263
(dp1264
g16
Vvmod
p1265
sbatp1266
Rp1267
(dp1268
g16
S'word: person, index: 30'
p1269
sbatp1270
Rp1271
(dp1272
g16
Vprep
p1273
sbag0
(g1
g2
(lp1274
(lp1275
S'word: And, index: 1'
p1276
aatp1277
Rp1278
(dp1279
g16
Vcc
p1280
sbag0
(g1
g2
(lp1281
g0
(g1
g2
(lp1282
g0
(g1
g2
(lp1283
(lp1284
S'word: a, index: 16'
p1285
aatp1286
Rp1287
(dp1288
g16
Vdet
p1289
sbag0
(g1
g2
(lp1290
g0
(g1
g2
(lp1291
g0
(g1
g2
(lp1292
g0
(g1
g2
(lp1293
g0
(g1
g2
(lp1294
(lp1295
S'word: four, index: 20'
p1296
aatp1297
Rp1298
(dp1299
g16
Vnum
p1300
sbatp1301
Rp1302
(dp1303
g16
S'word: seventy, index: 21'
p1304
sbatp1305
Rp1306
(dp1307
g16
Vdep
p1308
sbatp1309
Rp1310
(dp1311
g16
S'word: number, index: 19'
p1312
sbatp1313
Rp1314
(dp1315
g16
Vappos
p1316
sbatp1317
Rp1318
(dp1319
g16
S'word: sailboat, index: 17'
p1320
sbatp1321
Rp1322
(dp1323
g16
Vnsubj
p1324
sbag0
(g1
g2
(lp1325
(lp1326
S'word: then, index: 2'
p1327
aatp1328
Rp1329
(dp1330
g16
Vadvmod
p1331
sbag0
(g1
g2
(lp1332
g0
(g1
g2
(lp1333
g0
(g1
g2
(lp1334
g0
(g1
g2
(lp1335
g0
(g1
g2
(lp1336
g0
(g1
g2
(lp1337
g0
(g1
g2
(lp1338
(lp1339
S'word: the, index: 5'
p1340
aatp1341
Rp1342
(dp1343
g16
Vdet
p1344
sbatp1345
Rp1346
(dp1347
g16
S'word: girl, index: 6'
p1348
sbatp1349
Rp1350
(dp1351
g16
Vpobj
p1352
sbatp1353
Rp1354
(dp1355
g16
S'word: behind, index: 4'
p1356
sbatp1357
Rp1358
(dp1359
g16
Vpcomp
p1360
sbatp1361
Rp1362
(dp1363
g16
S'word: out, index: 3'
p1364
sbatp1365
Rp1366
(dp1367
g16
Vprep
p1368
sbag0
(g1
g2
(lp1369
g0
(g1
g2
(lp1370
g0
(g1
g2
(lp1371
(lp1372
S'word: ocean, index: 13'
p1373
aatp1374
Rp1375
(dp1376
g16
Vpobj
p1377
sbag0
(g1
g2
(lp1378
g0
(g1
g2
(lp1379
g0
(g1
g2
(lp1380
(lp1381
S'word: ocean, index: 13'
p1382
aatp1383
Rp1384
(dp1385
g16
Vconj
p1386
sbag0
(g1
g2
(lp1387
(lp1388
S'word: the, index: 9'
p1389
aatp1390
Rp1391
(dp1392
g16
Vdet
p1393
sbatp1394
Rp1395
(dp1396
g16
S'word: bay, index: 10'
p1397
sbatp1398
Rp1399
(dp1400
g16
Vpobj
p1401
sbatp1402
Rp1403
(dp1404
g16
S'word: into, index: 8'
p1405
sbatp1406
Rp1407
(dp1408
g16
Vdep
p1409
sbag0
(g1
g2
(lp1410
g0
(g1
g2
(lp1411
g0
(g1
g2
(lp1412
g1267
atp1413
Rp1414
(dp1415
g16
Vconj
p1416
sbag0
(g1
g2
(lp1417
(lp1418
S'word: one, index: 24'
p1419
aatp1420
Rp1421
(dp1422
g16
Vnum
p1423
sbag0
(g1
g2
(lp1424
(lp1425
S'word: waving, index: 26'
p1426
aatp1427
Rp1428
(dp1429
g16
Vvmod
p1430
sbatp1431
Rp1432
(dp1433
g16
S'word: person, index: 25'
p1434
sbatp1435
Rp1436
(dp1437
g16
Vprep
p1438
sbatp1439
Rp1440
(dp1441
g16
S'word: is, index: 15'
p1442
sbatp1443
Rp1444
(dp1445
g16
S'id: 9'
p1446
sbag0
(g1
g2
(lp1447
g0
(g1
g2
(lp1448
g0
(g1
g2
(lp1449
g0
(g1
g2
(lp1450
g0
(g1
g2
(lp1451
(lp1452
S'word: further, index: 2'
p1453
aatp1454
Rp1455
(dp1456
g16
Vpcomp
p1457
sbatp1458
Rp1459
(dp1460
g16
S'word: Down, index: 1'
p1461
sbatp1462
Rp1463
(dp1464
g16
Vprep
p1465
sbag0
(g1
g2
(lp1466
g0
(g1
g2
(lp1467
g0
(g1
g2
(lp1468
(lp1469
S'word: the, index: 4'
p1470
aatp1471
Rp1472
(dp1473
g16
Vdet
p1474
sbatp1475
Rp1476
(dp1477
g16
S'word: girl, index: 5'
p1478
sbatp1479
Rp1480
(dp1481
g16
Vprep
p1482
sbag0
(g1
g2
(lp1483
(lp1484
S'word: is, index: 7'
p1485
aatp1486
Rp1487
(dp1488
g16
Vcop
p1489
sbag0
(g1
g2
(lp1490
(lp1491
S'word: a, index: 8'
p1492
aatp1493
Rp1494
(dp1495
g16
Vdet
p1496
sbatp1497
Rp1498
(dp1499
g16
S'word: dock, index: 9'
p1500
sbatp1501
Rp1502
(dp1503
g16
S'id: 10'
p1504
sbag0
(g1
g2
(lp1505
g0
(g1
g2
(lp1506
g0
(g1
g2
(lp1507
(lp1508
S'word: there, index: 2'
p1509
aatp1510
Rp1511
(dp1512
g16
Vexpl
p1513
sbag0
(g1
g2
(lp1514
g0
(g1
g2
(lp1515
g0
(g1
g2
(lp1516
(lp1517
S'word: a, index: 4'
p1518
aatp1519
Rp1520
(dp1521
g16
Vdet
p1522
sbag0
(g1
g2
(lp1523
g0
(g1
g2
(lp1524
g0
(g1
g2
(lp1525
(lp1526
S'word: that, index: 7'
p1527
aatp1528
Rp1529
(dp1530
g16
Vdet
p1531
sbatp1532
Rp1533
(dp1534
g16
S'word: dock, index: 8'
p1535
sbatp1536
Rp1537
(dp1538
g16
Vprep
p1539
sbatp1540
Rp1541
(dp1542
g16
S'word: man, index: 5'
p1543
sbatp1544
Rp1545
(dp1546
g16
Vnsubj
p1547
sbag0
(g1
g2
(lp1548
g0
(g1
g2
(lp1549
g0
(g1
g2
(lp1550
(lp1551
S'word: he, index: 22'
p1552
aatp1553
Rp1554
(dp1555
g16
Vnsubj
p1556
sbag0
(g1
g2
(lp1557
(lp1558
S'word: just, index: 23'
p1559
aatp1560
Rp1561
(dp1562
g16
Vadvmod
p1563
sbag0
(g1
g2
(lp1564
g0
(g1
g2
(lp1565
g0
(g1
g2
(lp1566
(lp1567
S'word: a, index: 25'
p1568
aatp1569
Rp1570
(dp1571
g16
Vdet
p1572
sbag0
(g1
g2
(lp1573
g0
(g1
g2
(lp1574
g0
(g1
g2
(lp1575
(lp1576
S'word: that, index: 27'
p1577
aatp1578
Rp1579
(dp1580
g16
Vnsubj
p1581
sbag0
(g1
g2
(lp1582
g0
(g1
g2
(lp1583
g0
(g1
g2
(lp1584
(lp1585
S'word: the, index: 31'
p1586
aatp1587
Rp1588
(dp1589
g16
Vdet
p1590
sbatp1591
Rp1592
(dp1593
g16
S'word: water, index: 32'
p1594
sbatp1595
Rp1596
(dp1597
g16
Vprep
p1598
sbatp1599
Rp1600
(dp1601
g16
S'word: jumped, index: 28'
p1602
sbatp1603
Rp1604
(dp1605
g16
Vrcmod
p1606
sbatp1607
Rp1608
(dp1609
g16
S'word: fish, index: 26'
p1610
sbatp1611
Rp1612
(dp1613
g16
Vdobj
p1614
sbatp1615
Rp1616
(dp1617
g16
S'word: caught, index: 24'
p1618
sbatp1619
Rp1620
(dp1621
g16
Vconj
p1622
sbag0
(g1
g2
(lp1623
g0
(g1
g2
(lp1624
g0
(g1
g2
(lp1625
g0
(g1
g2
(lp1626
g0
(g1
g2
(lp1627
(lp1628
S'word: not, index: 19'
p1629
aatp1630
Rp1631
(dp1632
g16
Vconj
p1633
sbag0
(g1
g2
(lp1634
(lp1635
S'word: whether, index: 14'
p1636
aatp1637
Rp1638
(dp1639
g16
Vmark
p1640
sbag0
(g1
g2
(lp1641
(lp1642
S'word: he, index: 15'
p1643
aatp1644
Rp1645
(dp1646
g16
Vnsubj
p1647
sbag0
(g1
g2
(lp1648
(lp1649
S"word: 's, index: 16"
p1650
aatp1651
Rp1652
(dp1653
g16
Vcop
p1654
sbatp1655
Rp1656
(dp1657
g16
S'word: related, index: 17'
p1658
sbatp1659
Rp1660
(dp1661
g16
Vccomp
p1662
sbag0
(g1
g2
(lp1663
(lp1664
S'word: not, index: 19'
p1665
aatp1666
Rp1667
(dp1668
g16
Vccomp
p1669
sbag0
(g1
g2
(lp1670
(lp1671
S'word: I, index: 10'
p1672
aatp1673
Rp1674
(dp1675
g16
Vnsubj
p1676
sbag0
(g1
g2
(lp1677
(lp1678
S'word: do, index: 11'
p1679
aatp1680
Rp1681
(dp1682
g16
Vaux
p1683
sbag0
(g1
g2
(lp1684
(lp1685
S"word: n't, index: 12"
p1686
aatp1687
Rp1688
(dp1689
g16
Vneg
p1690
sbatp1691
Rp1692
(dp1693
g16
S'word: know, index: 13'
p1694
sbatp1695
Rp1696
(dp1697
g16
Vdep
p1698
sbatp1699
Rp1700
(dp1701
g16
S"word: 's, index: 3"
p1702
sbatp1703
Rp1704
(dp1705
g16
S'id: 11'
p1706
sbag0
(g1
g2
(lp1707
g0
(g1
g2
(lp1708
g0
(g1
g2
(lp1709
(lp1710
S'word: a, index: 5'
p1711
aatp1712
Rp1713
(dp1714
g16
Vdobj
p1715
sbag0
(g1
g2
(lp1716
(lp1717
S'word: And, index: 1'
p1718
aatp1719
Rp1720
(dp1721
g16
Vcc
p1722
sbag0
(g1
g2
(lp1723
(lp1724
S'word: he, index: 2'
p1725
aatp1726
Rp1727
(dp1728
g16
Vnsubjpass
p1729
sbag0
(g1
g2
(lp1730
(lp1731
S"word: 's, index: 3"
p1732
aatp1733
Rp1734
(dp1735
g16
Vauxpass
p1736
sbatp1737
Rp1738
(dp1739
g16
S'word: got, index: 4'
p1740
sbatp1741
Rp1742
(dp1743
g16
S'id: 12'
p1744
sbatp1745
Rp1746
(dp1747
g16
S'sentences'
p1748
sb.