ccopy_reg
_reconstructor
p0
(cnltk.tree
Tree
p1
c__builtin__
list
p2
(lp3
g0
(g1
g2
(lp4
g0
(g1
g2
(lp5
g0
(g1
g2
(lp6
g0
(g1
g2
(lp7
Vthis
p8
atp9
Rp10
(dp11
S'_label'
p12
VDT
p13
sbatp14
Rp15
(dp16
g12
VNP
p17
sbag0
(g1
g2
(lp18
g0
(g1
g2
(lp19
g0
(g1
g2
(lp20
Vis
p21
atp22
Rp23
(dp24
g12
VVBZ
p25
sbatp26
Rp27
(dp28
g12
VVP
p29
sbag0
(g1
g2
(lp30
V,
p31
atp32
Rp33
(dp34
g12
V,
p35
sbag0
(g1
g2
(lp36
g0
(g1
g2
(lp37
Vlooks
p38
atp39
Rp40
(dp41
g12
VVBZ
p42
sbag0
(g1
g2
(lp43
g0
(g1
g2
(lp44
Vlike
p45
atp46
Rp47
(dp48
g12
VIN
p49
sbag0
(g1
g2
(lp50
g0
(g1
g2
(lp51
Van
p52
atp53
Rp54
(dp55
g12
VDT
p56
sbag0
(g1
g2
(lp57
Vold
p58
atp59
Rp60
(dp61
g12
VJJ
p62
sbag0
(g1
g2
(lp63
Vfashion
p64
atp65
Rp66
(dp67
g12
VNN
p68
sbag0
(g1
g2
(lp69
Vkitchen
p70
atp71
Rp72
(dp73
g12
VNN
p74
sbatp75
Rp76
(dp77
g12
VNP
p78
sbatp79
Rp80
(dp81
g12
VPP
p82
sbatp83
Rp84
(dp85
g12
VVP
p86
sbatp87
Rp88
(dp89
g12
VVP
p90
sbag0
(g1
g2
(lp91
V.
p92
atp93
Rp94
(dp95
g12
V.
p96
sbatp97
Rp98
(dp99
g12
VS
p100
sbatp101
Rp102
(dp103
g12
S'id: 0'
p104
sbag0
(g1
g2
(lp105
g0
(g1
g2
(lp106
g0
(g1
g2
(lp107
g0
(g1
g2
(lp108
g0
(g1
g2
(lp109
g0
(g1
g2
(lp110
g0
(g1
g2
(lp111
VMom
p112
atp113
Rp114
(dp115
g12
VNN
p116
sbag0
(g1
g2
(lp117
V's
p118
atp119
Rp120
(dp121
g12
VPOS
p122
sbatp123
Rp124
(dp125
g12
VNP
p126
sbag0
(g1
g2
(lp127
g0
(g1
g2
(lp128
Vthere
p129
atp130
Rp131
(dp132
g12
VEX
p133
sbatp134
Rp135
(dp136
g12
VNP
p137
sbatp138
Rp139
(dp140
g12
VNP
p141
sbag0
(g1
g2
(lp142
V,
p143
atp144
Rp145
(dp146
g12
V,
p147
sbag0
(g1
g2
(lp148
g0
(g1
g2
(lp149
Vdrying
p150
atp151
Rp152
(dp153
g12
VVBG
p154
sbag0
(g1
g2
(lp155
g0
(g1
g2
(lp156
Vthe
p157
atp158
Rp159
(dp160
g12
VDT
p161
sbag0
(g1
g2
(lp162
Vdishes
p163
atp164
Rp165
(dp166
g12
VNNS
p167
sbatp168
Rp169
(dp170
g12
VNP
p171
sbatp172
Rp173
(dp174
g12
VVP
p175
sbatp176
Rp177
(dp178
g12
VNP
p179
sbatp180
Rp181
(dp182
g12
VVP
p183
sbag0
(g1
g2
(lp184
V.
p185
atp186
Rp187
(dp188
g12
V.
p189
sbatp190
Rp191
(dp192
g12
VS
p193
sbatp194
Rp195
(dp196
g12
S'id: 1'
p197
sbag0
(g1
g2
(lp198
g0
(g1
g2
(lp199
g0
(g1
g2
(lp200
g0
(g1
g2
(lp201
g0
(g1
g2
(lp202
VThe
p203
atp204
Rp205
(dp206
g12
VDT
p207
sbag0
(g1
g2
(lp208
Vsink
p209
atp210
Rp211
(dp212
g12
VNN
p213
sbatp214
Rp215
(dp216
g12
VNP
p217
sbag0
(g1
g2
(lp218
g0
(g1
g2
(lp219
Vis
p220
atp221
Rp222
(dp223
g12
VVBZ
p224
sbag0
(g1
g2
(lp225
g0
(g1
g2
(lp226
Vover
p227
atp228
Rp229
(dp230
g12
VIN
p231
sbag0
(g1
g2
(lp232
g0
(g1
g2
(lp233
Vflowing
p234
atp235
Rp236
(dp237
g12
VVBG
p238
sbatp239
Rp240
(dp241
g12
VNP
p242
sbatp243
Rp244
(dp245
g12
VPP
p246
sbatp247
Rp248
(dp249
g12
VVP
p250
sbatp251
Rp252
(dp253
g12
VS
p254
sbag0
(g1
g2
(lp255
V,
p256
atp257
Rp258
(dp259
g12
V,
p260
sbag0
(g1
g2
(lp261
Vand
p262
atp263
Rp264
(dp265
g12
VCC
p266
sbag0
(g1
g2
(lp267
g0
(g1
g2
(lp268
g0
(g1
g2
(lp269
Vof
p270
atp271
Rp272
(dp273
g12
VIN
p274
sbag0
(g1
g2
(lp275
g0
(g1
g2
(lp276
Vcourse
p277
atp278
Rp279
(dp280
g12
VNN
p281
sbatp282
Rp283
(dp284
g12
VNP
p285
sbatp286
Rp287
(dp288
g12
VPP
p289
sbag0
(g1
g2
(lp290
V,
p291
atp292
Rp293
(dp294
g12
V,
p295
sbag0
(g1
g2
(lp296
g0
(g1
g2
(lp297
Vthe
p298
atp299
Rp300
(dp301
g12
VDT
p302
sbag0
(g1
g2
(lp303
Vkids
p304
atp305
Rp306
(dp307
g12
VNNS
p308
sbatp309
Rp310
(dp311
g12
VNP
p312
sbag0
(g1
g2
(lp313
g0
(g1
g2
(lp314
Vwanted
p315
atp316
Rp317
(dp318
g12
VVBD
p319
sbag0
(g1
g2
(lp320
g0
(g1
g2
(lp321
g0
(g1
g2
(lp322
Vto
p323
atp324
Rp325
(dp326
g12
VTO
p327
sbag0
(g1
g2
(lp328
g0
(g1
g2
(lp329
Vget
p330
atp331
Rp332
(dp333
g12
VVB
p334
sbag0
(g1
g2
(lp335
g0
(g1
g2
(lp336
Vin
p337
atp338
Rp339
(dp340
g12
VIN
p341
sbag0
(g1
g2
(lp342
g0
(g1
g2
(lp343
Vthe
p344
atp345
Rp346
(dp347
g12
VDT
p348
sbag0
(g1
g2
(lp349
Vcookie
p350
atp351
Rp352
(dp353
g12
VNN
p354
sbag0
(g1
g2
(lp355
Vjar
p356
atp357
Rp358
(dp359
g12
VNN
p360
sbatp361
Rp362
(dp363
g12
VNP
p364
sbatp365
Rp366
(dp367
g12
VPP
p368
sbatp369
Rp370
(dp371
g12
VVP
p372
sbatp373
Rp374
(dp375
g12
VVP
p376
sbatp377
Rp378
(dp379
g12
VS
p380
sbatp381
Rp382
(dp383
g12
VVP
p384
sbatp385
Rp386
(dp387
g12
VS
p388
sbag0
(g1
g2
(lp389
V.
p390
atp391
Rp392
(dp393
g12
V.
p394
sbatp395
Rp396
(dp397
g12
VS
p398
sbatp399
Rp400
(dp401
g12
S'id: 2'
p402
sbag0
(g1
g2
(lp403
g0
(g1
g2
(lp404
g0
(g1
g2
(lp405
g0
(g1
g2
(lp406
VThe
p407
atp408
Rp409
(dp410
g12
VDT
p411
sbag0
(g1
g2
(lp412
Vcabinet
p413
atp414
Rp415
(dp416
g12
VNN
p417
sbatp418
Rp419
(dp420
g12
VNP
p421
sbag0
(g1
g2
(lp422
g0
(g1
g2
(lp423
Vis
p424
atp425
Rp426
(dp427
g12
VVBZ
p428
sbag0
(g1
g2
(lp429
g0
(g1
g2
(lp430
Vopen
p431
atp432
Rp433
(dp434
g12
VJJ
p435
sbatp436
Rp437
(dp438
g12
VADJP
p439
sbatp440
Rp441
(dp442
g12
VVP
p443
sbag0
(g1
g2
(lp444
V.
p445
atp446
Rp447
(dp448
g12
V.
p449
sbatp450
Rp451
(dp452
g12
VS
p453
sbatp454
Rp455
(dp456
g12
S'id: 3'
p457
sbag0
(g1
g2
(lp458
g0
(g1
g2
(lp459
g0
(g1
g2
(lp460
g0
(g1
g2
(lp461
VThe
p462
atp463
Rp464
(dp465
g12
VDT
p466
sbag0
(g1
g2
(lp467
Vboy
p468
atp469
Rp470
(dp471
g12
VNN
p472
sbag0
(g1
g2
(lp473
V's
p474
atp475
Rp476
(dp477
g12
VPOS
p478
sbatp479
Rp480
(dp481
g12
VNP
p482
sbag0
(g1
g2
(lp483
g0
(g1
g2
(lp484
g0
(g1
g2
(lp485
g0
(g1
g2
(lp486
Vup
p487
atp488
Rp489
(dp490
g12
VRP
p491
sbag0
(g1
g2
(lp492
g0
(g1
g2
(lp493
Von
p494
atp495
Rp496
(dp497
g12
VIN
p498
sbag0
(g1
g2
(lp499
g0
(g1
g2
(lp500
g0
(g1
g2
(lp501
Vthe
p502
atp503
Rp504
(dp505
g12
VDT
p506
sbag0
(g1
g2
(lp507
Vstool
p508
atp509
Rp510
(dp511
g12
VNN
p512
sbatp513
Rp514
(dp515
g12
VNP
p516
sbag0
(g1
g2
(lp517
V,
p518
atp519
Rp520
(dp521
g12
V,
p522
sbag0
(g1
g2
(lp523
g0
(g1
g2
(lp524
Vthe
p525
atp526
Rp527
(dp528
g12
VDT
p529
sbag0
(g1
g2
(lp530
Vstool
p531
atp532
Rp533
(dp534
g12
VNN
p535
sbatp536
Rp537
(dp538
g12
VNP
p539
sbatp540
Rp541
(dp542
g12
VNP
p543
sbatp544
Rp545
(dp546
g12
VPP
p547
sbatp548
Rp549
(dp550
g12
VADVP
p551
sbag0
(g1
g2
(lp552
Vis
p553
atp554
Rp555
(dp556
g12
VVBZ
p557
sbag0
(g1
g2
(lp558
g0
(g1
g2
(lp559
Vfalling
p560
atp561
Rp562
(dp563
g12
VVBG
p564
sbag0
(g1
g2
(lp565
g0
(g1
g2
(lp566
Vas
p567
atp568
Rp569
(dp570
g12
VIN
p571
sbag0
(g1
g2
(lp572
g0
(g1
g2
(lp573
g0
(g1
g2
(lp574
Vhe
p575
atp576
Rp577
(dp578
g12
VPRP
p579
sbatp580
Rp581
(dp582
g12
VNP
p583
sbag0
(g1
g2
(lp584
g0
(g1
g2
(lp585
Vgrabs
p586
atp587
Rp588
(dp589
g12
VVBZ
p590
sbag0
(g1
g2
(lp591
g0
(g1
g2
(lp592
g0
(g1
g2
(lp593
Va
p594
atp595
Rp596
(dp597
g12
VDT
p598
sbag0
(g1
g2
(lp599
Vcookie
p600
atp601
Rp602
(dp603
g12
VNN
p604
sbatp605
Rp606
(dp607
g12
VNP
p608
sbag0
(g1
g2
(lp609
g0
(g1
g2
(lp610
Vfor
p611
atp612
Rp613
(dp614
g12
VIN
p615
sbag0
(g1
g2
(lp616
g0
(g1
g2
(lp617
Vhis
p618
atp619
Rp620
(dp621
g12
VPRP$
p622
sbag0
(g1
g2
(lp623
Vlittle
p624
atp625
Rp626
(dp627
g12
VJJ
p628
sbag0
(g1
g2
(lp629
Vsister
p630
atp631
Rp632
(dp633
g12
VNN
p634
sbatp635
Rp636
(dp637
g12
VNP
p638
sbatp639
Rp640
(dp641
g12
VPP
p642
sbatp643
Rp644
(dp645
g12
VNP
p646
sbatp647
Rp648
(dp649
g12
VVP
p650
sbatp651
Rp652
(dp653
g12
VS
p654
sbatp655
Rp656
(dp657
g12
VSBAR
p658
sbatp659
Rp660
(dp661
g12
VVP
p662
sbatp663
Rp664
(dp665
g12
VVP
p666
sbag0
(g1
g2
(lp667
V,
p668
atp669
Rp670
(dp671
g12
V,
p672
sbag0
(g1
g2
(lp673
g0
(g1
g2
(lp674
g0
(g1
g2
(lp675
Vwho
p676
atp677
Rp678
(dp679
g12
VWP
p680
sbatp681
Rp682
(dp683
g12
VWHNP
p684
sbag0
(g1
g2
(lp685
g0
(g1
g2
(lp686
g0
(g1
g2
(lp687
Vis
p688
atp689
Rp690
(dp691
g12
VVBZ
p692
sbag0
(g1
g2
(lp693
g0
(g1
g2
(lp694
Vre
p695
atp696
Rp697
(dp698
g12
VJJ
p699
sbatp700
Rp701
(dp702
g12
VADJP
p703
sbag0
(g1
g2
(lp704
g0
(g1
g2
(lp705
g0
(g1
g2
(lp706
Vreaching
p707
atp708
Rp709
(dp710
g12
VVBG
p711
sbag0
(g1
g2
(lp712
g0
(g1
g2
(lp713
Vfor
p714
atp715
Rp716
(dp717
g12
VIN
p718
sbag0
(g1
g2
(lp719
g0
(g1
g2
(lp720
g0
(g1
g2
(lp721
Vthe
p722
atp723
Rp724
(dp725
g12
VDT
p726
sbag0
(g1
g2
(lp727
Vcookie
p728
atp729
Rp730
(dp731
g12
VNN
p732
sbatp733
Rp734
(dp735
g12
VNP
p736
sbag0
(g1
g2
(lp737
g0
(g1
g2
(lp738
Vwith
p739
atp740
Rp741
(dp742
g12
VIN
p743
sbag0
(g1
g2
(lp744
g0
(g1
g2
(lp745
Vher
p746
atp747
Rp748
(dp749
g12
VPRP$
p750
sbag0
(g1
g2
(lp751
Voutstretched
p752
atp753
Rp754
(dp755
g12
VJJ
p756
sbag0
(g1
g2
(lp757
Vhand
p758
atp759
Rp760
(dp761
g12
VNN
p762
sbatp763
Rp764
(dp765
g12
VNP
p766
sbatp767
Rp768
(dp769
g12
VPP
p770
sbatp771
Rp772
(dp773
g12
VNP
p774
sbatp775
Rp776
(dp777
g12
VPP
p778
sbatp779
Rp780
(dp781
g12
VVP
p782
sbatp783
Rp784
(dp785
g12
VS
p786
sbatp787
Rp788
(dp789
g12
VVP
p790
sbatp791
Rp792
(dp793
g12
VS
p794
sbatp795
Rp796
(dp797
g12
VSBAR
p798
sbatp799
Rp800
(dp801
g12
VVP
p802
sbag0
(g1
g2
(lp803
V.
p804
atp805
Rp806
(dp807
g12
V.
p808
sbatp809
Rp810
(dp811
g12
VS
p812
sbatp813
Rp814
(dp815
g12
S'id: 4'
p816
sbag0
(g1
g2
(lp817
g0
(g1
g2
(lp818
g0
(g1
g2
(lp819
g0
(g1
g2
(lp820
g0
(g1
g2
(lp821
VMom
p822
atp823
Rp824
(dp825
g12
VNN
p826
sbag0
(g1
g2
(lp827
V's
p828
atp829
Rp830
(dp831
g12
VPOS
p832
sbatp833
Rp834
(dp835
g12
VNP
p836
sbag0
(g1
g2
(lp837
Vfeet
p838
atp839
Rp840
(dp841
g12
VNNS
p842
sbatp843
Rp844
(dp845
g12
VNP
p846
sbag0
(g1
g2
(lp847
g0
(g1
g2
(lp848
Vare
p849
atp850
Rp851
(dp852
g12
VVBP
p853
sbag0
(g1
g2
(lp854
g0
(g1
g2
(lp855
Vgetting
p856
atp857
Rp858
(dp859
g12
VVBG
p860
sbag0
(g1
g2
(lp861
g0
(g1
g2
(lp862
Vwet
p863
atp864
Rp865
(dp866
g12
VJJ
p867
sbatp868
Rp869
(dp870
g12
VADJP
p871
sbatp872
Rp873
(dp874
g12
VVP
p875
sbatp876
Rp877
(dp878
g12
VVP
p879
sbag0
(g1
g2
(lp880
V.
p881
atp882
Rp883
(dp884
g12
V.
p885
sbatp886
Rp887
(dp888
g12
VS
p889
sbatp890
Rp891
(dp892
g12
S'id: 5'
p893
sbag0
(g1
g2
(lp894
g0
(g1
g2
(lp895
g0
(g1
g2
(lp896
g0
(g1
g2
(lp897
VOld
p898
atp899
Rp900
(dp901
g12
VJJ
p902
sbatp903
Rp904
(dp905
g12
VNP
p906
sbag0
(g1
g2
(lp907
g0
(g1
g2
(lp908
Vfashioned
p909
atp910
Rp911
(dp912
g12
VVBN
p913
sbag0
(g1
g2
(lp914
g0
(g1
g2
(lp915
g0
(g1
g2
(lp916
Vkind
p917
atp918
Rp919
(dp920
g12
VNN
p921
sbatp922
Rp923
(dp924
g12
VNP
p925
sbag0
(g1
g2
(lp926
g0
(g1
g2
(lp927
Vof
p928
atp929
Rp930
(dp931
g12
VIN
p932
sbag0
(g1
g2
(lp933
g0
(g1
g2
(lp934
Vpull
p935
atp936
Rp937
(dp938
g12
VNN
p939
sbatp940
Rp941
(dp942
g12
VNP
p943
sbatp944
Rp945
(dp946
g12
VPP
p947
sbatp948
Rp949
(dp950
g12
VNP
p951
sbatp952
Rp953
(dp954
g12
VVP
p955
sbag0
(g1
g2
(lp956
g0
(g1
g2
(lp957
g0
(g1
g2
(lp958
Vback
p959
atp960
Rp961
(dp962
g12
VRB
p963
sbatp964
Rp965
(dp966
g12
VADVP
p967
sbag0
(g1
g2
(lp968
g0
(g1
g2
(lp969
Vcurtains
p970
atp971
Rp972
(dp973
g12
VNNS
p974
sbatp975
Rp976
(dp977
g12
VNP
p978
sbag0
(g1
g2
(lp979
V.
p980
atp981
Rp982
(dp983
g12
V.
p984
sbatp985
Rp986
(dp987
g12
VX
p988
sbatp989
Rp990
(dp991
g12
VNP
p992
sbatp993
Rp994
(dp995
g12
S'id: 6'
p996
sbag0
(g1
g2
(lp997
g0
(g1
g2
(lp998
g0
(g1
g2
(lp999
g0
(g1
g2
(lp1000
g0
(g1
g2
(lp1001
g0
(g1
g2
(lp1002
VThe
p1003
atp1004
Rp1005
(dp1006
g12
VDT
p1007
sbag0
(g1
g2
(lp1008
Vwindow
p1009
atp1010
Rp1011
(dp1012
g12
VNN
p1013
sbag0
(g1
g2
(lp1014
V's
p1015
atp1016
Rp1017
(dp1018
g12
VPOS
p1019
sbatp1020
Rp1021
(dp1022
g12
VNP
p1023
sbag0
(g1
g2
(lp1024
Vopen
p1025
atp1026
Rp1027
(dp1028
g12
VJJ
p1029
sbatp1030
Rp1031
(dp1032
g12
VNP
p1033
sbatp1034
Rp1035
(dp1036
g12
VS
p1037
sbag0
(g1
g2
(lp1038
V,
p1039
atp1040
Rp1041
(dp1042
g12
V,
p1043
sbag0
(g1
g2
(lp1044
g0
(g1
g2
(lp1045
Vit
p1046
atp1047
Rp1048
(dp1049
g12
VPRP
p1050
sbatp1051
Rp1052
(dp1053
g12
VNP
p1054
sbag0
(g1
g2
(lp1055
g0
(g1
g2
(lp1056
Vmust
p1057
atp1058
Rp1059
(dp1060
g12
VMD
p1061
sbag0
(g1
g2
(lp1062
g0
(g1
g2
(lp1063
Vbe
p1064
atp1065
Rp1066
(dp1067
g12
VVB
p1068
sbag0
(g1
g2
(lp1069
g0
(g1
g2
(lp1070
Va
p1071
atp1072
Rp1073
(dp1074
g12
VDT
p1075
sbag0
(g1
g2
(lp1076
Vnice
p1077
atp1078
Rp1079
(dp1080
g12
VJJ
p1081
sbag0
(g1
g2
(lp1082
Vspring
p1083
atp1084
Rp1085
(dp1086
g12
VNN
p1087
sbag0
(g1
g2
(lp1088
Vday
p1089
atp1090
Rp1091
(dp1092
g12
VNN
p1093
sbatp1094
Rp1095
(dp1096
g12
VNP
p1097
sbag0
(g1
g2
(lp1098
g0
(g1
g2
(lp1099
Vout
p1100
atp1101
Rp1102
(dp1103
g12
VIN
p1104
sbag0
(g1
g2
(lp1105
g0
(g1
g2
(lp1106
Vthere
p1107
atp1108
Rp1109
(dp1110
g12
VRB
p1111
sbatp1112
Rp1113
(dp1114
g12
VNP
p1115
sbatp1116
Rp1117
(dp1118
g12
VPP
p1119
sbatp1120
Rp1121
(dp1122
g12
VVP
p1123
sbatp1124
Rp1125
(dp1126
g12
VVP
p1127
sbag0
(g1
g2
(lp1128
V.
p1129
atp1130
Rp1131
(dp1132
g12
V.
p1133
sbatp1134
Rp1135
(dp1136
g12
VS
p1137
sbatp1138
Rp1139
(dp1140
g12
S'id: 7'
p1141
sbag0
(g1
g2
(lp1142
g0
(g1
g2
(lp1143
g0
(g1
g2
(lp1144
g0
(g1
g2
(lp1145
VThe
p1146
atp1147
Rp1148
(dp1149
g12
VDT
p1150
sbag0
(g1
g2
(lp1151
Vkitchen
p1152
atp1153
Rp1154
(dp1155
g12
VNN
p1156
sbatp1157
Rp1158
(dp1159
g12
VNP
p1160
sbag0
(g1
g2
(lp1161
g0
(g1
g2
(lp1162
Vlooks
p1163
atp1164
Rp1165
(dp1166
g12
VVBZ
p1167
sbag0
(g1
g2
(lp1168
g0
(g1
g2
(lp1169
Vpretty
p1170
atp1171
Rp1172
(dp1173
g12
VRB
p1174
sbag0
(g1
g2
(lp1175
Vclean
p1176
atp1177
Rp1178
(dp1179
g12
VJJ
p1180
sbatp1181
Rp1182
(dp1183
g12
VADJP
p1184
sbag0
(g1
g2
(lp1185
V,
p1186
atp1187
Rp1188
(dp1189
g12
V,
p1190
sbag0
(g1
g2
(lp1191
g0
(g1
g2
(lp1192
Vexcept
p1193
atp1194
Rp1195
(dp1196
g12
VIN
p1197
sbag0
(g1
g2
(lp1198
Vfor
p1199
atp1200
Rp1201
(dp1202
g12
VIN
p1203
sbag0
(g1
g2
(lp1204
g0
(g1
g2
(lp1205
g0
(g1
g2
(lp1206
Vthe
p1207
atp1208
Rp1209
(dp1210
g12
VDT
p1211
sbag0
(g1
g2
(lp1212
Vdirty
p1213
atp1214
Rp1215
(dp1216
g12
VJJ
p1217
sbag0
(g1
g2
(lp1218
Vdishes
p1219
atp1220
Rp1221
(dp1222
g12
VNNS
p1223
sbatp1224
Rp1225
(dp1226
g12
VNP
p1227
sbag0
(g1
g2
(lp1228
V,
p1229
atp1230
Rp1231
(dp1232
g12
V,
p1233
sbag0
(g1
g2
(lp1234
Vand
p1235
atp1236
Rp1237
(dp1238
g12
VCC
p1239
sbag0
(g1
g2
(lp1240
g0
(g1
g2
(lp1241
g0
(g1
g2
(lp1242
Vthe
p1243
atp1244
Rp1245
(dp1246
g12
VDT
p1247
sbag0
(g1
g2
(lp1248
Vflood
p1249
atp1250
Rp1251
(dp1252
g12
VNN
p1253
sbatp1254
Rp1255
(dp1256
g12
VNP
p1257
sbag0
(g1
g2
(lp1258
g0
(g1
g2
(lp1259
g0
(g1
g2
(lp1260
Vthat
p1261
atp1262
Rp1263
(dp1264
g12
VWDT
p1265
sbatp1266
Rp1267
(dp1268
g12
VWHNP
p1269
sbag0
(g1
g2
(lp1270
g0
(g1
g2
(lp1271
g0
(g1
g2
(lp1272
V's
p1273
atp1274
Rp1275
(dp1276
g12
VVBZ
p1277
sbag0
(g1
g2
(lp1278
g0
(g1
g2
(lp1279
Vhappening
p1280
atp1281
Rp1282
(dp1283
g12
VVBG
p1284
sbag0
(g1
g2
(lp1285
g0
(g1
g2
(lp1286
Von
p1287
atp1288
Rp1289
(dp1290
g12
VIN
p1291
sbag0
(g1
g2
(lp1292
g0
(g1
g2
(lp1293
Vthe
p1294
atp1295
Rp1296
(dp1297
g12
VDT
p1298
sbag0
(g1
g2
(lp1299
Vfloor
p1300
atp1301
Rp1302
(dp1303
g12
VNN
p1304
sbatp1305
Rp1306
(dp1307
g12
VNP
p1308
sbatp1309
Rp1310
(dp1311
g12
VPP
p1312
sbatp1313
Rp1314
(dp1315
g12
VVP
p1316
sbatp1317
Rp1318
(dp1319
g12
VVP
p1320
sbatp1321
Rp1322
(dp1323
g12
VS
p1324
sbatp1325
Rp1326
(dp1327
g12
VSBAR
p1328
sbatp1329
Rp1330
(dp1331
g12
VNP
p1332
sbatp1333
Rp1334
(dp1335
g12
VNP
p1336
sbatp1337
Rp1338
(dp1339
g12
VPP
p1340
sbatp1341
Rp1342
(dp1343
g12
VVP
p1344
sbag0
(g1
g2
(lp1345
V.
p1346
atp1347
Rp1348
(dp1349
g12
V.
p1350
sbatp1351
Rp1352
(dp1353
g12
VS
p1354
sbatp1355
Rp1356
(dp1357
g12
S'id: 8'
p1358
sbag0
(g1
g2
(lp1359
g0
(g1
g2
(lp1360
g0
(g1
g2
(lp1361
g0
(g1
g2
(lp1362
VLet
p1363
atp1364
Rp1365
(dp1366
g12
VVB
p1367
sbag0
(g1
g2
(lp1368
g0
(g1
g2
(lp1369
g0
(g1
g2
(lp1370
V's
p1371
atp1372
Rp1373
(dp1374
g12
VPRP
p1375
sbatp1376
Rp1377
(dp1378
g12
VNP
p1379
sbag0
(g1
g2
(lp1380
g0
(g1
g2
(lp1381
Vhope
p1382
atp1383
Rp1384
(dp1385
g12
VVB
p1386
sbag0
(g1
g2
(lp1387
g0
(g1
g2
(lp1388
g0
(g1
g2
(lp1389
g0
(g1
g2
(lp1390
Vmom
p1391
atp1392
Rp1393
(dp1394
g12
VNN
p1395
sbatp1396
Rp1397
(dp1398
g12
VNP
p1399
sbag0
(g1
g2
(lp1400
g0
(g1
g2
(lp1401
Vdoes
p1402
atp1403
Rp1404
(dp1405
g12
VVBZ
p1406
sbag0
(g1
g2
(lp1407
Vn't
p1408
atp1409
Rp1410
(dp1411
g12
VRB
p1412
sbag0
(g1
g2
(lp1413
g0
(g1
g2
(lp1414
Vruin
p1415
atp1416
Rp1417
(dp1418
g12
VVB
p1419
sbag0
(g1
g2
(lp1420
g0
(g1
g2
(lp1421
Vher
p1422
atp1423
Rp1424
(dp1425
g12
VPRP$
p1426
sbag0
(g1
g2
(lp1427
Vshoes
p1428
atp1429
Rp1430
(dp1431
g12
VNNS
p1432
sbatp1433
Rp1434
(dp1435
g12
VNP
p1436
sbatp1437
Rp1438
(dp1439
g12
VVP
p1440
sbatp1441
Rp1442
(dp1443
g12
VVP
p1444
sbatp1445
Rp1446
(dp1447
g12
VS
p1448
sbatp1449
Rp1450
(dp1451
g12
VSBAR
p1452
sbatp1453
Rp1454
(dp1455
g12
VVP
p1456
sbatp1457
Rp1458
(dp1459
g12
VS
p1460
sbatp1461
Rp1462
(dp1463
g12
VVP
p1464
sbag0
(g1
g2
(lp1465
V.
p1466
atp1467
Rp1468
(dp1469
g12
V.
p1470
sbatp1471
Rp1472
(dp1473
g12
VS
p1474
sbatp1475
Rp1476
(dp1477
g12
S'id: 9'
p1478
sbag0
(g1
g2
(lp1479
g0
(g1
g2
(lp1480
g0
(g1
g2
(lp1481
g0
(g1
g2
(lp1482
g0
(g1
g2
(lp1483
VLooks
p1484
atp1485
Rp1486
(dp1487
g12
VVBZ
p1488
sbag0
(g1
g2
(lp1489
g0
(g1
g2
(lp1490
Vlike
p1491
atp1492
Rp1493
(dp1494
g12
VIN
p1495
sbag0
(g1
g2
(lp1496
g0
(g1
g2
(lp1497
Vmom
p1498
atp1499
Rp1500
(dp1501
g12
VNN
p1502
sbatp1503
Rp1504
(dp1505
g12
VNP
p1506
sbatp1507
Rp1508
(dp1509
g12
VPP
p1510
sbatp1511
Rp1512
(dp1513
g12
VVP
p1514
sbatp1515
Rp1516
(dp1517
g12
VS
p1518
sbag0
(g1
g2
(lp1519
g0
(g1
g2
(lp1520
Vmight
p1521
atp1522
Rp1523
(dp1524
g12
VMD
p1525
sbag0
(g1
g2
(lp1526
g0
(g1
g2
(lp1527
Vbe
p1528
atp1529
Rp1530
(dp1531
g12
VVB
p1532
sbag0
(g1
g2
(lp1533
g0
(g1
g2
(lp1534
Vwearing
p1535
atp1536
Rp1537
(dp1538
g12
VVBG
p1539
sbag0
(g1
g2
(lp1540
g0
(g1
g2
(lp1541
Van
p1542
atp1543
Rp1544
(dp1545
g12
VDT
p1546
sbag0
(g1
g2
(lp1547
Vapron
p1548
atp1549
Rp1550
(dp1551
g12
VNN
p1552
sbatp1553
Rp1554
(dp1555
g12
VNP
p1556
sbag0
(g1
g2
(lp1557
g0
(g1
g2
(lp1558
Vtoo
p1559
atp1560
Rp1561
(dp1562
g12
VRB
p1563
sbatp1564
Rp1565
(dp1566
g12
VADVP
p1567
sbatp1568
Rp1569
(dp1570
g12
VVP
p1571
sbatp1572
Rp1573
(dp1574
g12
VVP
p1575
sbatp1576
Rp1577
(dp1578
g12
VVP
p1579
sbag0
(g1
g2
(lp1580
V.
p1581
atp1582
Rp1583
(dp1584
g12
V.
p1585
sbatp1586
Rp1587
(dp1588
g12
VS
p1589
sbatp1590
Rp1591
(dp1592
g12
S'id: 10'
p1593
sbag0
(g1
g2
(lp1594
g0
(g1
g2
(lp1595
g0
(g1
g2
(lp1596
g0
(g1
g2
(lp1597
g0
(g1
g2
(lp1598
VCould
p1599
atp1600
Rp1601
(dp1602
g12
VMD
p1603
sbag0
(g1
g2
(lp1604
g0
(g1
g2
(lp1605
Vbe
p1606
atp1607
Rp1608
(dp1609
g12
VVB
p1610
sbag0
(g1
g2
(lp1611
g0
(g1
g2
(lp1612
Vsummer
p1613
atp1614
Rp1615
(dp1616
g12
VNN
p1617
sbatp1618
Rp1619
(dp1620
g12
VNP
p1621
sbatp1622
Rp1623
(dp1624
g12
VVP
p1625
sbatp1626
Rp1627
(dp1628
g12
VVP
p1629
sbatp1630
Rp1631
(dp1632
g12
VS
p1633
sbag0
(g1
g2
(lp1634
V,
p1635
atp1636
Rp1637
(dp1638
g12
V,
p1639
sbag0
(g1
g2
(lp1640
g0
(g1
g2
(lp1641
g0
(g1
g2
(lp1642
Vspring
p1643
atp1644
Rp1645
(dp1646
g12
VNN
p1647
sbatp1648
Rp1649
(dp1650
g12
VNP
p1651
sbag0
(g1
g2
(lp1652
V,
p1653
atp1654
Rp1655
(dp1656
g12
V,
p1657
sbag0
(g1
g2
(lp1658
g0
(g1
g2
(lp1659
Vfall
p1660
atp1661
Rp1662
(dp1663
g12
VNN
p1664
sbatp1665
Rp1666
(dp1667
g12
VNP
p1668
sbag0
(g1
g2
(lp1669
V,
p1670
atp1671
Rp1672
(dp1673
g12
V,
p1674
sbatp1675
Rp1676
(dp1677
g12
VNP
p1678
sbag0
(g1
g2
(lp1679
g0
(g1
g2
(lp1680
Vleaves
p1681
atp1682
Rp1683
(dp1684
g12
VVBZ
p1685
sbag0
(g1
g2
(lp1686
g0
(g1
g2
(lp1687
Von
p1688
atp1689
Rp1690
(dp1691
g12
VIN
p1692
sbag0
(g1
g2
(lp1693
g0
(g1
g2
(lp1694
Vthe
p1695
atp1696
Rp1697
(dp1698
g12
VDT
p1699
sbag0
(g1
g2
(lp1700
Vtrees
p1701
atp1702
Rp1703
(dp1704
g12
VNNS
p1705
sbatp1706
Rp1707
(dp1708
g12
VNP
p1709
sbatp1710
Rp1711
(dp1712
g12
VPP
p1713
sbatp1714
Rp1715
(dp1716
g12
VVP
p1717
sbag0
(g1
g2
(lp1718
V.
p1719
atp1720
Rp1721
(dp1722
g12
V.
p1723
sbatp1724
Rp1725
(dp1726
g12
VS
p1727
sbatp1728
Rp1729
(dp1730
g12
S'id: 11'
p1731
sbag0
(g1
g2
(lp1732
g0
(g1
g2
(lp1733
g0
(g1
g2
(lp1734
g0
(g1
g2
(lp1735
VTwo
p1736
atp1737
Rp1738
(dp1739
g12
VCD
p1740
sbag0
(g1
g2
(lp1741
Vbowl
p1742
atp1743
Rp1744
(dp1745
g12
VNN
p1746
sbatp1747
Rp1748
(dp1749
g12
VNP
p1750
sbag0
(g1
g2
(lp1751
V,
p1752
atp1753
Rp1754
(dp1755
g12
V,
p1756
sbag0
(g1
g2
(lp1757
g0
(g1
g2
(lp1758
g0
(g1
g2
(lp1759
Vdirty
p1760
atp1761
Rp1762
(dp1763
g12
VJJ
p1764
sbatp1765
Rp1766
(dp1767
g12
VNP
p1768
sbag0
(g1
g2
(lp1769
g0
(g1
g2
(lp1770
Vbowls
p1771
atp1772
Rp1773
(dp1774
g12
VVBZ
p1775
sbatp1776
Rp1777
(dp1778
g12
VVP
p1779
sbatp1780
Rp1781
(dp1782
g12
VNP
p1783
sbag0
(g1
g2
(lp1784
V,
p1785
atp1786
Rp1787
(dp1788
g12
V,
p1789
sbag0
(g1
g2
(lp1790
g0
(g1
g2
(lp1791
Von
p1792
atp1793
Rp1794
(dp1795
g12
VIN
p1796
sbag0
(g1
g2
(lp1797
g0
(g1
g2
(lp1798
Vthe
p1799
atp1800
Rp1801
(dp1802
g12
VDT
p1803
sbag0
(g1
g2
(lp1804
Vcounter
p1805
atp1806
Rp1807
(dp1808
g12
VNN
p1809
sbatp1810
Rp1811
(dp1812
g12
VNP
p1813
sbatp1814
Rp1815
(dp1816
g12
VPP
p1817
sbag0
(g1
g2
(lp1818
V,
p1819
atp1820
Rp1821
(dp1822
g12
V,
p1823
sbag0
(g1
g2
(lp1824
g0
(g1
g2
(lp1825
g0
(g1
g2
(lp1826
Vone
p1827
atp1828
Rp1829
(dp1830
g12
VCD
p1831
sbag0
(g1
g2
(lp1832
Vdirty
p1833
atp1834
Rp1835
(dp1836
g12
VJJ
p1837
sbag0
(g1
g2
(lp1838
Vplate
p1839
atp1840
Rp1841
(dp1842
g12
VNN
p1843
sbatp1844
Rp1845
(dp1846
g12
VNP
p1847
sbag0
(g1
g2
(lp1848
g0
(g1
g2
(lp1849
Von
p1850
atp1851
Rp1852
(dp1853
g12
VIN
p1854
sbag0
(g1
g2
(lp1855
g0
(g1
g2
(lp1856
Vthe
p1857
atp1858
Rp1859
(dp1860
g12
VDT
p1861
sbag0
(g1
g2
(lp1862
Vcounter
p1863
atp1864
Rp1865
(dp1866
g12
VNN
p1867
sbatp1868
Rp1869
(dp1870
g12
VNP
p1871
sbatp1872
Rp1873
(dp1874
g12
VPP
p1875
sbatp1876
Rp1877
(dp1878
g12
VNP
p1879
sbag0
(g1
g2
(lp1880
V.
p1881
atp1882
Rp1883
(dp1884
g12
V.
p1885
sbatp1886
Rp1887
(dp1888
g12
VNP
p1889
sbatp1890
Rp1891
(dp1892
g12
S'id: 12'
p1893
sbag0
(g1
g2
(lp1894
g0
(g1
g2
(lp1895
g0
(g1
g2
(lp1896
VNot
p1897
atp1898
Rp1899
(dp1900
g12
VRB
p1901
sbag0
(g1
g2
(lp1902
g0
(g1
g2
(lp1903
g0
(g1
g2
(lp1904
Vmuch
p1905
atp1906
Rp1907
(dp1908
g12
VRB
p1909
sbatp1910
Rp1911
(dp1912
g12
VADVP
p1913
sbag0
(g1
g2
(lp1914
Vto
p1915
atp1916
Rp1917
(dp1918
g12
VTO
p1919
sbag0
(g1
g2
(lp1920
g0
(g1
g2
(lp1921
Vsay
p1922
atp1923
Rp1924
(dp1925
g12
VVB
p1926
sbag0
(g1
g2
(lp1927
g0
(g1
g2
(lp1928
Vabout
p1929
atp1930
Rp1931
(dp1932
g12
VIN
p1933
sbag0
(g1
g2
(lp1934
g0
(g1
g2
(lp1935
Vthis
p1936
atp1937
Rp1938
(dp1939
g12
VDT
p1940
sbatp1941
Rp1942
(dp1943
g12
VNP
p1944
sbatp1945
Rp1946
(dp1947
g12
VPP
p1948
sbatp1949
Rp1950
(dp1951
g12
VVP
p1952
sbatp1953
Rp1954
(dp1955
g12
VVP
p1956
sbag0
(g1
g2
(lp1957
V.
p1958
atp1959
Rp1960
(dp1961
g12
V.
p1962
sbatp1963
Rp1964
(dp1965
g12
VFRAG
p1966
sbatp1967
Rp1968
(dp1969
g12
S'id: 13'
p1970
sbag0
(g1
g2
(lp1971
g0
(g1
g2
(lp1972
g0
(g1
g2
(lp1973
g0
(g1
g2
(lp1974
VLittle
p1975
atp1976
Rp1977
(dp1978
g12
VJJ
p1979
sbag0
(g1
g2
(lp1980
Vgirl
p1981
atp1982
Rp1983
(dp1984
g12
VNN
p1985
sbatp1986
Rp1987
(dp1988
g12
VNP
p1989
sbag0
(g1
g2
(lp1990
g0
(g1
g2
(lp1991
Vhas
p1992
atp1993
Rp1994
(dp1995
g12
VVBZ
p1996
sbag0
(g1
g2
(lp1997
g0
(g1
g2
(lp1998
g0
(g1
g2
(lp1999
Vshorts
p2000
atp2001
Rp2002
(dp2003
g12
VNNS
p2004
sbatp2005
Rp2006
(dp2007
g12
VNP
p2008
sbag0
(g1
g2
(lp2009
g0
(g1
g2
(lp2010
Von
p2011
atp2012
Rp2013
(dp2014
g12
VIN
p2015
sbag0
(g1
g2
(lp2016
g0
(g1
g2
(lp2017
g0
(g1
g2
(lp2018
V,
p2019
atp2020
Rp2021
(dp2022
g12
V,
p2023
sbag0
(g1
g2
(lp2024
Vand
p2025
atp2026
Rp2027
(dp2028
g12
VCC
p2029
sbag0
(g1
g2
(lp2030
g0
(g1
g2
(lp2031
Vlittle
p2032
atp2033
Rp2034
(dp2035
g12
VJJ
p2036
sbatp2037
Rp2038
(dp2039
g12
VADVP
p2040
sbag0
(g1
g2
(lp2041
g0
(g1
g2
(lp2042
VMary
p2043
atp2044
Rp2045
(dp2046
g12
VNNP
p2047
sbatp2048
Rp2049
(dp2050
g12
VNP
p2051
sbatp2052
Rp2053
(dp2054
g12
VPRN
p2055
sbag0
(g1
g2
(lp2056
VJane
p2057
atp2058
Rp2059
(dp2060
g12
VNNP
p2061
sbag0
(g1
g2
(lp2062
Vsandals
p2063
atp2064
Rp2065
(dp2066
g12
VNNS
p2067
sbatp2068
Rp2069
(dp2070
g12
VNP
p2071
sbatp2072
Rp2073
(dp2074
g12
VPP
p2075
sbatp2076
Rp2077
(dp2078
g12
VNP
p2079
sbatp2080
Rp2081
(dp2082
g12
VVP
p2083
sbag0
(g1
g2
(lp2084
V.
p2085
atp2086
Rp2087
(dp2088
g12
V.
p2089
sbatp2090
Rp2091
(dp2092
g12
VS
p2093
sbatp2094
Rp2095
(dp2096
g12
S'id: 14'
p2097
sbag0
(g1
g2
(lp2098
g0
(g1
g2
(lp2099
g0
(g1
g2
(lp2100
g0
(g1
g2
(lp2101
g0
(g1
g2
(lp2102
VThe
p2103
atp2104
Rp2105
(dp2106
g12
VDT
p2107
sbag0
(g1
g2
(lp2108
Vboy
p2109
atp2110
Rp2111
(dp2112
g12
VNN
p2113
sbatp2114
Rp2115
(dp2116
g12
VNP
p2117
sbag0
(g1
g2
(lp2118
g0
(g1
g2
(lp2119
Vhas
p2120
atp2121
Rp2122
(dp2123
g12
VVBZ
p2124
sbatp2125
Rp2126
(dp2127
g12
VVP
p2128
sbatp2129
Rp2130
(dp2131
g12
VS
p2132
sbag0
(g1
g2
(lp2133
V,
p2134
atp2135
Rp2136
(dp2137
g12
V,
p2138
sbag0
(g1
g2
(lp2139
g0
(g1
g2
(lp2140
VI
p2141
atp2142
Rp2143
(dp2144
g12
VPRP
p2145
sbatp2146
Rp2147
(dp2148
g12
VNP
p2149
sbag0
(g1
g2
(lp2150
g0
(g1
g2
(lp2151
Vdont
p2152
atp2153
Rp2154
(dp2155
g12
VVBP
p2156
sbag0
(g1
g2
(lp2157
g0
(g1
g2
(lp2158
Vknow
p2159
atp2160
Rp2161
(dp2162
g12
VVB
p2163
sbag0
(g1
g2
(lp2164
V,
p2165
atp2166
Rp2167
(dp2168
g12
V,
p2169
sbag0
(g1
g2
(lp2170
g0
(g1
g2
(lp2171
Vshorts
p2172
atp2173
Rp2174
(dp2175
g12
VNNS
p2176
sbatp2177
Rp2178
(dp2179
g12
VNP
p2180
sbag0
(g1
g2
(lp2181
g0
(g1
g2
(lp2182
Von
p2183
atp2184
Rp2185
(dp2186
g12
VIN
p2187
sbatp2188
Rp2189
(dp2190
g12
VPP
p2191
sbatp2192
Rp2193
(dp2194
g12
VVP
p2195
sbatp2196
Rp2197
(dp2198
g12
VVP
p2199
sbag0
(g1
g2
(lp2200
V.
p2201
atp2202
Rp2203
(dp2204
g12
V.
p2205
sbatp2206
Rp2207
(dp2208
g12
VS
p2209
sbatp2210
Rp2211
(dp2212
g12
S'id: 15'
p2213
sbag0
(g1
g2
(lp2214
g0
(g1
g2
(lp2215
g0
(g1
g2
(lp2216
g0
(g1
g2
(lp2217
VLittle
p2218
atp2219
Rp2220
(dp2221
g12
VJJ
p2222
sbag0
(g1
g2
(lp2223
Vt-shirt
p2224
atp2225
Rp2226
(dp2227
g12
VNN
p2228
sbatp2229
Rp2230
(dp2231
g12
VNP
p2232
sbag0
(g1
g2
(lp2233
g0
(g1
g2
(lp2234
Vwith
p2235
atp2236
Rp2237
(dp2238
g12
VIN
p2239
sbag0
(g1
g2
(lp2240
g0
(g1
g2
(lp2241
g0
(g1
g2
(lp2242
Va
p2243
atp2244
Rp2245
(dp2246
g12
VDT
p2247
sbag0
(g1
g2
(lp2248
Vcollar
p2249
atp2250
Rp2251
(dp2252
g12
VNN
p2253
sbatp2254
Rp2255
(dp2256
g12
VNP
p2257
sbag0
(g1
g2
(lp2258
V,
p2259
atp2260
Rp2261
(dp2262
g12
V,
p2263
sbag0
(g1
g2
(lp2264
g0
(g1
g2
(lp2265
Vbare
p2266
atp2267
Rp2268
(dp2269
g12
VJJ
p2270
sbag0
(g1
g2
(lp2271
Vleg
p2272
atp2273
Rp2274
(dp2275
g12
VNN
p2276
sbag0
(g1
g2
(lp2277
Vsocks
p2278
atp2279
Rp2280
(dp2281
g12
VNNS
p2282
sbatp2283
Rp2284
(dp2285
g12
VNP
p2286
sbatp2287
Rp2288
(dp2289
g12
VNP
p2290
sbatp2291
Rp2292
(dp2293
g12
VPP
p2294
sbag0
(g1
g2
(lp2295
V.
p2296
atp2297
Rp2298
(dp2299
g12
V.
p2300
sbatp2301
Rp2302
(dp2303
g12
VNP
p2304
sbatp2305
Rp2306
(dp2307
g12
S'id: 16'
p2308
sbag0
(g1
g2
(lp2309
g0
(g1
g2
(lp2310
g0
(g1
g2
(lp2311
g0
(g1
g2
(lp2312
VGirl
p2313
atp2314
Rp2315
(dp2316
g12
VNNP
p2317
sbatp2318
Rp2319
(dp2320
g12
VNP
p2321
sbag0
(g1
g2
(lp2322
g0
(g1
g2
(lp2323
Vhas
p2324
atp2325
Rp2326
(dp2327
g12
VVBZ
p2328
sbag0
(g1
g2
(lp2329
g0
(g1
g2
(lp2330
g0
(g1
g2
(lp2331
Vkind
p2332
atp2333
Rp2334
(dp2335
g12
VNN
p2336
sbatp2337
Rp2338
(dp2339
g12
VNP
p2340
sbag0
(g1
g2
(lp2341
g0
(g1
g2
(lp2342
Vof
p2343
atp2344
Rp2345
(dp2346
g12
VIN
p2347
sbag0
(g1
g2
(lp2348
g0
(g1
g2
(lp2349
g0
(g1
g2
(lp2350
Vmedium
p2351
atp2352
Rp2353
(dp2354
g12
VNN
p2355
sbag0
(g1
g2
(lp2356
Vhair
p2357
atp2358
Rp2359
(dp2360
g12
VNN
p2361
sbatp2362
Rp2363
(dp2364
g12
VNP
p2365
sbag0
(g1
g2
(lp2366
V,
p2367
atp2368
Rp2369
(dp2370
g12
V,
p2371
sbag0
(g1
g2
(lp2372
g0
(g1
g2
(lp2373
g0
(g1
g2
(lp2374
Vmom
p2375
atp2376
Rp2377
(dp2378
g12
VNN
p2379
sbatp2380
Rp2381
(dp2382
g12
VNP
p2383
sbag0
(g1
g2
(lp2384
g0
(g1
g2
(lp2385
g0
(g1
g2
(lp2386
g0
(g1
g2
(lp2387
V's
p2388
atp2389
Rp2390
(dp2391
g12
VPOS
p2392
sbatp2393
Rp2394
(dp2395
g12
VNP
p2396
sbag0
(g1
g2
(lp2397
g0
(g1
g2
(lp2398
Vgot
p2399
atp2400
Rp2401
(dp2402
g12
VVBD
p2403
sbag0
(g1
g2
(lp2404
g0
(g1
g2
(lp2405
Vshort
p2406
atp2407
Rp2408
(dp2409
g12
VJJ
p2410
sbag0
(g1
g2
(lp2411
Vhair
p2412
atp2413
Rp2414
(dp2415
g12
VNN
p2416
sbatp2417
Rp2418
(dp2419
g12
VNP
p2420
sbatp2421
Rp2422
(dp2423
g12
VVP
p2424
sbatp2425
Rp2426
(dp2427
g12
VS
p2428
sbatp2429
Rp2430
(dp2431
g12
VSBAR
p2432
sbatp2433
Rp2434
(dp2435
g12
VNP
p2436
sbatp2437
Rp2438
(dp2439
g12
VNP
p2440
sbatp2441
Rp2442
(dp2443
g12
VPP
p2444
sbatp2445
Rp2446
(dp2447
g12
VNP
p2448
sbatp2449
Rp2450
(dp2451
g12
VVP
p2452
sbag0
(g1
g2
(lp2453
V.
p2454
atp2455
Rp2456
(dp2457
g12
V.
p2458
sbatp2459
Rp2460
(dp2461
g12
VS
p2462
sbatp2463
Rp2464
(dp2465
g12
S'id: 17'
p2466
sbag0
(g1
g2
(lp2467
g0
(g1
g2
(lp2468
g0
(g1
g2
(lp2469
g0
(g1
g2
(lp2470
VWe
p2471
atp2472
Rp2473
(dp2474
g12
VPRP
p2475
sbatp2476
Rp2477
(dp2478
g12
VNP
p2479
sbag0
(g1
g2
(lp2480
g0
(g1
g2
(lp2481
V've
p2482
atp2483
Rp2484
(dp2485
g12
VVBP
p2486
sbag0
(g1
g2
(lp2487
g0
(g1
g2
(lp2488
Vgot
p2489
atp2490
Rp2491
(dp2492
g12
VVBD
p2493
sbag0
(g1
g2
(lp2494
g0
(g1
g2
(lp2495
Vtwo
p2496
atp2497
Rp2498
(dp2499
g12
VCD
p2500
sbag0
(g1
g2
(lp2501
Vkitchen
p2502
atp2503
Rp2504
(dp2505
g12
VNN
p2506
sbag0
(g1
g2
(lp2507
Vcabinets
p2508
atp2509
Rp2510
(dp2511
g12
VNNS
p2512
sbatp2513
Rp2514
(dp2515
g12
VNP
p2516
sbag0
(g1
g2
(lp2517
g0
(g1
g2
(lp2518
Vto
p2519
atp2520
Rp2521
(dp2522
g12
VTO
p2523
sbag0
(g1
g2
(lp2524
g0
(g1
g2
(lp2525
Vthe
p2526
atp2527
Rp2528
(dp2529
g12
VDT
p2530
sbag0
(g1
g2
(lp2531
Vleft
p2532
atp2533
Rp2534
(dp2535
g12
VJJ
p2536
sbag0
(g1
g2
(lp2537
Vside
p2538
atp2539
Rp2540
(dp2541
g12
VNN
p2542
sbatp2543
Rp2544
(dp2545
g12
VNP
p2546
sbatp2547
Rp2548
(dp2549
g12
VPP
p2550
sbatp2551
Rp2552
(dp2553
g12
VVP
p2554
sbatp2555
Rp2556
(dp2557
g12
VVP
p2558
sbag0
(g1
g2
(lp2559
V.
p2560
atp2561
Rp2562
(dp2563
g12
V.
p2564
sbatp2565
Rp2566
(dp2567
g12
VS
p2568
sbatp2569
Rp2570
(dp2571
g12
S'id: 18'
p2572
sbag0
(g1
g2
(lp2573
g0
(g1
g2
(lp2574
g0
(g1
g2
(lp2575
VThen
p2576
atp2577
Rp2578
(dp2579
g12
VRB
p2580
sbag0
(g1
g2
(lp2581
g0
(g1
g2
(lp2582
Vwe
p2583
atp2584
Rp2585
(dp2586
g12
VPRP
p2587
sbatp2588
Rp2589
(dp2590
g12
VNP
p2591
sbag0
(g1
g2
(lp2592
g0
(g1
g2
(lp2593
V've
p2594
atp2595
Rp2596
(dp2597
g12
VVBP
p2598
sbag0
(g1
g2
(lp2599
g0
(g1
g2
(lp2600
Vgot
p2601
atp2602
Rp2603
(dp2604
g12
VVBN
p2605
sbag0
(g1
g2
(lp2606
g0
(g1
g2
(lp2607
g0
(g1
g2
(lp2608
Vlooks
p2609
atp2610
Rp2611
(dp2612
g12
VNNS
p2613
sbatp2614
Rp2615
(dp2616
g12
VNP
p2617
sbag0
(g1
g2
(lp2618
g0
(g1
g2
(lp2619
Vlike
p2620
atp2621
Rp2622
(dp2623
g12
VIN
p2624
sbag0
(g1
g2
(lp2625
g0
(g1
g2
(lp2626
Vtwo
p2627
atp2628
Rp2629
(dp2630
g12
VCD
p2631
sbag0
(g1
g2
(lp2632
Vcabinets
p2633
atp2634
Rp2635
(dp2636
g12
VNNS
p2637
sbatp2638
Rp2639
(dp2640
g12
VNP
p2641
sbatp2642
Rp2643
(dp2644
g12
VPP
p2645
sbatp2646
Rp2647
(dp2648
g12
VNP
p2649
sbag0
(g1
g2
(lp2650
g0
(g1
g2
(lp2651
Vto
p2652
atp2653
Rp2654
(dp2655
g12
VTO
p2656
sbag0
(g1
g2
(lp2657
g0
(g1
g2
(lp2658
g0
(g1
g2
(lp2659
g0
(g1
g2
(lp2660
Vthe
p2661
atp2662
Rp2663
(dp2664
g12
VDT
p2665
sbag0
(g1
g2
(lp2666
Vleft
p2667
atp2668
Rp2669
(dp2670
g12
VJJ
p2671
sbag0
(g1
g2
(lp2672
Vside
p2673
atp2674
Rp2675
(dp2676
g12
VNN
p2677
sbatp2678
Rp2679
(dp2680
g12
VNP
p2681
sbag0
(g1
g2
(lp2682
g0
(g1
g2
(lp2683
Vof
p2684
atp2685
Rp2686
(dp2687
g12
VIN
p2688
sbag0
(g1
g2
(lp2689
g0
(g1
g2
(lp2690
Vthe
p2691
atp2692
Rp2693
(dp2694
g12
VDT
p2695
sbag0
(g1
g2
(lp2696
Vsink
p2697
atp2698
Rp2699
(dp2700
g12
VNN
p2701
sbatp2702
Rp2703
(dp2704
g12
VNP
p2705
sbatp2706
Rp2707
(dp2708
g12
VPP
p2709
sbatp2710
Rp2711
(dp2712
g12
VNP
p2713
sbag0
(g1
g2
(lp2714
V,
p2715
atp2716
Rp2717
(dp2718
g12
V,
p2719
sbag0
(g1
g2
(lp2720
g0
(g1
g2
(lp2721
g0
(g1
g2
(lp2722
Vtwo
p2723
atp2724
Rp2725
(dp2726
g12
VCD
p2727
sbag0
(g1
g2
(lp2728
Vdoors
p2729
atp2730
Rp2731
(dp2732
g12
VNNS
p2733
sbatp2734
Rp2735
(dp2736
g12
VNP
p2737
sbag0
(g1
g2
(lp2738
g0
(g1
g2
(lp2739
Vunder
p2740
atp2741
Rp2742
(dp2743
g12
VIN
p2744
sbag0
(g1
g2
(lp2745
g0
(g1
g2
(lp2746
Vthe
p2747
atp2748
Rp2749
(dp2750
g12
VDT
p2751
sbag0
(g1
g2
(lp2752
Vsink
p2753
atp2754
Rp2755
(dp2756
g12
VNN
p2757
sbatp2758
Rp2759
(dp2760
g12
VNP
p2761
sbatp2762
Rp2763
(dp2764
g12
VPP
p2765
sbatp2766
Rp2767
(dp2768
g12
VNP
p2769
sbag0
(g1
g2
(lp2770
V,
p2771
atp2772
Rp2773
(dp2774
g12
V,
p2775
sbag0
(g1
g2
(lp2776
g0
(g1
g2
(lp2777
g0
(g1
g2
(lp2778
Vtwo
p2779
atp2780
Rp2781
(dp2782
g12
VCD
p2783
sbag0
(g1
g2
(lp2784
Vdoors
p2785
atp2786
Rp2787
(dp2788
g12
VNNS
p2789
sbatp2790
Rp2791
(dp2792
g12
VNP
p2793
sbag0
(g1
g2
(lp2794
g0
(g1
g2
(lp2795
Vto
p2796
atp2797
Rp2798
(dp2799
g12
VTO
p2800
sbag0
(g1
g2
(lp2801
g0
(g1
g2
(lp2802
g0
(g1
g2
(lp2803
Vthe
p2804
atp2805
Rp2806
(dp2807
g12
VDT
p2808
sbag0
(g1
g2
(lp2809
Vright
p2810
atp2811
Rp2812
(dp2813
g12
VNN
p2814
sbatp2815
Rp2816
(dp2817
g12
VNP
p2818
sbag0
(g1
g2
(lp2819
g0
(g1
g2
(lp2820
Vof
p2821
atp2822
Rp2823
(dp2824
g12
VIN
p2825
sbag0
(g1
g2
(lp2826
g0
(g1
g2
(lp2827
Vthe
p2828
atp2829
Rp2830
(dp2831
g12
VDT
p2832
sbag0
(g1
g2
(lp2833
Vsink
p2834
atp2835
Rp2836
(dp2837
g12
VNN
p2838
sbatp2839
Rp2840
(dp2841
g12
VNP
p2842
sbatp2843
Rp2844
(dp2845
g12
VPP
p2846
sbatp2847
Rp2848
(dp2849
g12
VNP
p2850
sbatp2851
Rp2852
(dp2853
g12
VPP
p2854
sbatp2855
Rp2856
(dp2857
g12
VNP
p2858
sbag0
(g1
g2
(lp2859
V,
p2860
atp2861
Rp2862
(dp2863
g12
V,
p2864
sbag0
(g1
g2
(lp2865
g0
(g1
g2
(lp2866
g0
(g1
g2
(lp2867
Vno
p2868
atp2869
Rp2870
(dp2871
g12
VDT
p2872
sbag0
(g1
g2
(lp2873
Vcabinets
p2874
atp2875
Rp2876
(dp2877
g12
VNNS
p2878
sbatp2879
Rp2880
(dp2881
g12
VNP
p2882
sbag0
(g1
g2
(lp2883
g0
(g1
g2
(lp2884
Vover
p2885
atp2886
Rp2887
(dp2888
g12
VIN
p2889
sbag0
(g1
g2
(lp2890
g0
(g1
g2
(lp2891
Vthe
p2892
atp2893
Rp2894
(dp2895
g12
VDT
p2896
sbag0
(g1
g2
(lp2897
Vwindow
p2898
atp2899
Rp2900
(dp2901
g12
VNN
p2902
sbatp2903
Rp2904
(dp2905
g12
VNP
p2906
sbatp2907
Rp2908
(dp2909
g12
VPP
p2910
sbatp2911
Rp2912
(dp2913
g12
VNP
p2914
sbatp2915
Rp2916
(dp2917
g12
VNP
p2918
sbatp2919
Rp2920
(dp2921
g12
VPP
p2922
sbatp2923
Rp2924
(dp2925
g12
VVP
p2926
sbatp2927
Rp2928
(dp2929
g12
VVP
p2930
sbag0
(g1
g2
(lp2931
V.
p2932
atp2933
Rp2934
(dp2935
g12
V.
p2936
sbatp2937
Rp2938
(dp2939
g12
VS
p2940
sbatp2941
Rp2942
(dp2943
g12
S'id: 19'
p2944
sbag0
(g1
g2
(lp2945
g0
(g1
g2
(lp2946
g0
(g1
g2
(lp2947
g0
(g1
g2
(lp2948
g0
(g1
g2
(lp2949
g0
(g1
g2
(lp2950
VI
p2951
atp2952
Rp2953
(dp2954
g12
VPRP
p2955
sbatp2956
Rp2957
(dp2958
g12
VNP
p2959
sbag0
(g1
g2
(lp2960
g0
(g1
g2
(lp2961
Vdo
p2962
atp2963
Rp2964
(dp2965
g12
VVBP
p2966
sbag0
(g1
g2
(lp2967
Vn't
p2968
atp2969
Rp2970
(dp2971
g12
VRB
p2972
sbag0
(g1
g2
(lp2973
g0
(g1
g2
(lp2974
Vknow
p2975
atp2976
Rp2977
(dp2978
g12
VVB
p2979
sbag0
(g1
g2
(lp2980
g0
(g1
g2
(lp2981
Vif
p2982
atp2983
Rp2984
(dp2985
g12
VIN
p2986
sbag0
(g1
g2
(lp2987
g0
(g1
g2
(lp2988
g0
(g1
g2
(lp2989
VI
p2990
atp2991
Rp2992
(dp2993
g12
VPRP
p2994
sbatp2995
Rp2996
(dp2997
g12
VNP
p2998
sbag0
(g1
g2
(lp2999
g0
(g1
g2
(lp3000
Vsaid
p3001
atp3002
Rp3003
(dp3004
g12
VVBD
p3005
sbag0
(g1
g2
(lp3006
g0
(g1
g2
(lp3007
Vthat
p3008
atp3009
Rp3010
(dp3011
g12
VIN
p3012
sbatp3013
Rp3014
(dp3015
g12
VADVP
p3016
sbatp3017
Rp3018
(dp3019
g12
VVP
p3020
sbatp3021
Rp3022
(dp3023
g12
VS
p3024
sbatp3025
Rp3026
(dp3027
g12
VSBAR
p3028
sbatp3029
Rp3030
(dp3031
g12
VVP
p3032
sbatp3033
Rp3034
(dp3035
g12
VVP
p3036
sbatp3037
Rp3038
(dp3039
g12
VS
p3040
sbag0
(g1
g2
(lp3041
V,
p3042
atp3043
Rp3044
(dp3045
g12
V,
p3046
sbag0
(g1
g2
(lp3047
Vand
p3048
atp3049
Rp3050
(dp3051
g12
VCC
p3052
sbag0
(g1
g2
(lp3053
g0
(g1
g2
(lp3054
g0
(g1
g2
(lp3055
VI
p3056
atp3057
Rp3058
(dp3059
g12
VPRP
p3060
sbatp3061
Rp3062
(dp3063
g12
VNP
p3064
sbag0
(g1
g2
(lp3065
g0
(g1
g2
(lp3066
V've
p3067
atp3068
Rp3069
(dp3070
g12
VVBP
p3071
sbag0
(g1
g2
(lp3072
g0
(g1
g2
(lp3073
Vgot
p3074
atp3075
Rp3076
(dp3077
g12
VVBD
p3078
sbag0
(g1
g2
(lp3079
g0
(g1
g2
(lp3080
g0
(g1
g2
(lp3081
Vthree
p3082
atp3083
Rp3084
(dp3085
g12
VCD
p3086
sbag0
(g1
g2
(lp3087
Vcabinets
p3088
atp3089
Rp3090
(dp3091
g12
VNNS
p3092
sbatp3093
Rp3094
(dp3095
g12
VNP
p3096
sbag0
(g1
g2
(lp3097
g0
(g1
g2
(lp3098
Vabove
p3099
atp3100
Rp3101
(dp3102
g12
VIN
p3103
sbag0
(g1
g2
(lp3104
g0
(g1
g2
(lp3105
Vthe
p3106
atp3107
Rp3108
(dp3109
g12
VDT
p3110
sbag0
(g1
g2
(lp3111
Vcounter
p3112
atp3113
Rp3114
(dp3115
g12
VNN
p3116
sbatp3117
Rp3118
(dp3119
g12
VNP
p3120
sbatp3121
Rp3122
(dp3123
g12
VPP
p3124
sbatp3125
Rp3126
(dp3127
g12
VNP
p3128
sbag0
(g1
g2
(lp3129
g0
(g1
g2
(lp3130
Vto
p3131
atp3132
Rp3133
(dp3134
g12
VTO
p3135
sbag0
(g1
g2
(lp3136
g0
(g1
g2
(lp3137
g0
(g1
g2
(lp3138
Vthe
p3139
atp3140
Rp3141
(dp3142
g12
VDT
p3143
sbatp3144
Rp3145
(dp3146
g12
VNP
p3147
sbag0
(g1
g2
(lp3148
g0
(g1
g2
(lp3149
Vleft
p3150
atp3151
Rp3152
(dp3153
g12
VVBN
p3154
sbag0
(g1
g2
(lp3155
g0
(g1
g2
(lp3156
g0
(g1
g2
(lp3157
Vwhere
p3158
atp3159
Rp3160
(dp3161
g12
VWRB
p3162
sbatp3163
Rp3164
(dp3165
g12
VWHADVP
p3166
sbatp3167
Rp3168
(dp3169
g12
VFRAG
p3170
sbatp3171
Rp3172
(dp3173
g12
VVP
p3174
sbatp3175
Rp3176
(dp3177
g12
VNP
p3178
sbatp3179
Rp3180
(dp3181
g12
VPP
p3182
sbatp3183
Rp3184
(dp3185
g12
VVP
p3186
sbatp3187
Rp3188
(dp3189
g12
VVP
p3190
sbatp3191
Rp3192
(dp3193
g12
VS
p3194
sbatp3195
Rp3196
(dp3197
g12
VS
p3198
sbag0
(g1
g2
(lp3199
g0
(g1
g2
(lp3200
g0
(g1
g2
(lp3201
Vthe
p3202
atp3203
Rp3204
(dp3205
g12
VDT
p3206
sbag0
(g1
g2
(lp3207
Vboy
p3208
atp3209
Rp3210
(dp3211
g12
VNN
p3212
sbag0
(g1
g2
(lp3213
V's
p3214
atp3215
Rp3216
(dp3217
g12
VPOS
p3218
sbatp3219
Rp3220
(dp3221
g12
VNP
p3222
sbag0
(g1
g2
(lp3223
g0
(g1
g2
(lp3224
Vstealing
p3225
atp3226
Rp3227
(dp3228
g12
VVBG
p3229
sbag0
(g1
g2
(lp3230
g0
(g1
g2
(lp3231
Vthe
p3232
atp3233
Rp3234
(dp3235
g12
VDT
p3236
sbag0
(g1
g2
(lp3237
Vcookies
p3238
atp3239
Rp3240
(dp3241
g12
VNNS
p3242
sbatp3243
Rp3244
(dp3245
g12
VNP
p3246
sbatp3247
Rp3248
(dp3249
g12
VVP
p3250
sbatp3251
Rp3252
(dp3253
g12
VS
p3254
sbag0
(g1
g2
(lp3255
V.
p3256
atp3257
Rp3258
(dp3259
g12
V.
p3260
sbatp3261
Rp3262
(dp3263
g12
VS
p3264
sbatp3265
Rp3266
(dp3267
g12
S'id: 20'
p3268
sbatp3269
Rp3270
(dp3271
g12
S'sentences'
p3272
sb.