ccopy_reg
_reconstructor
p0
(cnltk.tree
Tree
p1
c__builtin__
list
p2
(lp3
g0
(g1
g2
(lp4
g0
(g1
g2
(lp5
g0
(g1
g2
(lp6
VWell
p7
atp8
Rp9
(dp10
S'_label'
p11
VUH
p12
sbag0
(g1
g2
(lp13
V.
p14
atp15
Rp16
(dp17
g11
V.
p18
sbatp19
Rp20
(dp21
g11
VINTJ
p22
sbatp23
Rp24
(dp25
g11
S'id: 0'
p26
sbag0
(g1
g2
(lp27
g0
(g1
g2
(lp28
g0
(g1
g2
(lp29
g0
(g1
g2
(lp30
g0
(g1
g2
(lp31
g0
(g1
g2
(lp32
VA
p33
atp34
Rp35
(dp36
g11
VDT
p37
sbag0
(g1
g2
(lp38
Vcookie
p39
atp40
Rp41
(dp42
g11
VNN
p43
sbag0
(g1
g2
(lp44
Vjar
p45
atp46
Rp47
(dp48
g11
VNN
p49
sbatp50
Rp51
(dp52
g11
VNP
p53
sbag0
(g1
g2
(lp54
Vand
p55
atp56
Rp57
(dp58
g11
VCC
p59
sbag0
(g1
g2
(lp60
V,
p61
atp62
Rp63
(dp64
g11
V,
p65
sbag0
(g1
g2
(lp66
g0
(g1
g2
(lp67
Voops
p68
atp69
Rp70
(dp71
g11
VNNS
p72
sbatp73
Rp74
(dp75
g11
VNP
p76
sbag0
(g1
g2
(lp77
V,
p78
atp79
Rp80
(dp81
g11
V,
p82
sbag0
(g1
g2
(lp83
g0
(g1
g2
(lp84
Vthe
p85
atp86
Rp87
(dp88
g11
VDT
p89
sbatp90
Rp91
(dp92
g11
VNP
p93
sbag0
(g1
g2
(lp94
V,
p95
atp96
Rp97
(dp98
g11
V,
p99
sbag0
(g1
g2
(lp100
g0
(g1
g2
(lp101
g0
(g1
g2
(lp102
g0
(g1
g2
(lp103
Vthe
p104
atp105
Rp106
(dp107
g11
VDT
p108
sbag0
(g1
g2
(lp109
Vjar
p110
atp111
Rp112
(dp113
g11
VNN
p114
sbatp115
Rp116
(dp117
g11
VNP
p118
sbag0
(g1
g2
(lp119
g0
(g1
g2
(lp120
Vis
p121
atp122
Rp123
(dp124
g11
VVBZ
p125
sbag0
(g1
g2
(lp126
g0
(g1
g2
(lp127
g0
(g1
g2
(lp128
Vno
p129
atp130
Rp131
(dp132
g11
VDT
p133
sbatp134
Rp135
(dp136
g11
VNP
p137
sbag0
(g1
g2
(lp138
g0
(g1
g2
(lp139
Vgo
p140
atp141
Rp142
(dp143
g11
VVB
p144
sbag0
(g1
g2
(lp145
g0
(g1
g2
(lp146
Voff
p147
atp148
Rp149
(dp150
g11
VRP
p151
sbatp152
Rp153
(dp154
g11
VPRT
p155
sbatp156
Rp157
(dp158
g11
VVP
p159
sbatp160
Rp161
(dp162
g11
VS
p163
sbatp164
Rp165
(dp166
g11
VVP
p167
sbatp168
Rp169
(dp170
g11
VS
p171
sbatp172
Rp173
(dp174
g11
VSBAR
p175
sbatp176
Rp177
(dp178
g11
VNP
p179
sbatp180
Rp181
(dp182
g11
VVP
p183
sbag0
(g1
g2
(lp184
V.
p185
atp186
Rp187
(dp188
g11
V.
p189
sbatp190
Rp191
(dp192
g11
VS
p193
sbatp194
Rp195
(dp196
g11
S'id: 1'
p197
sbag0
(g1
g2
(lp198
g0
(g1
g2
(lp199
g0
(g1
g2
(lp200
g0
(g1
g2
(lp201
VThe
p202
atp203
Rp204
(dp205
g11
VDT
p206
sbag0
(g1
g2
(lp207
Vman
p208
atp209
Rp210
(dp211
g11
VNN
p212
sbatp213
Rp214
(dp215
g11
VNP
p216
sbag0
(g1
g2
(lp217
g0
(g1
g2
(lp218
Vis
p219
atp220
Rp221
(dp222
g11
VVBZ
p223
sbag0
(g1
g2
(lp224
g0
(g1
g2
(lp225
Vtry
p226
atp227
Rp228
(dp229
g11
VVB
p230
sbag0
(g1
g2
(lp231
g0
(g1
g2
(lp232
g0
(g1
g2
(lp233
Vto
p234
atp235
Rp236
(dp237
g11
VTO
p238
sbag0
(g1
g2
(lp239
g0
(g1
g2
(lp240
g0
(g1
g2
(lp241
Vhit
p242
atp243
Rp244
(dp245
g11
VVB
p246
sbag0
(g1
g2
(lp247
g0
(g1
g2
(lp248
Voff
p249
atp250
Rp251
(dp252
g11
VRP
p253
sbatp254
Rp255
(dp256
g11
VPRT
p257
sbatp258
Rp259
(dp260
g11
VVP
p261
sbag0
(g1
g2
(lp262
V,
p263
atp264
Rp265
(dp266
g11
V,
p267
sbag0
(g1
g2
(lp268
Vbut
p269
atp270
Rp271
(dp272
g11
VCC
p273
sbag0
(g1
g2
(lp274
g0
(g1
g2
(lp275
g0
(g1
g2
(lp276
Vno
p277
atp278
Rp279
(dp280
g11
VDT
p281
sbag0
(g1
g2
(lp282
Vgood
p283
atp284
Rp285
(dp286
g11
VJJ
p287
sbatp288
Rp289
(dp290
g11
VNP
p291
sbatp292
Rp293
(dp294
g11
VVP
p295
sbatp296
Rp297
(dp298
g11
VVP
p299
sbatp300
Rp301
(dp302
g11
VVP
p303
sbatp304
Rp305
(dp306
g11
VS
p307
sbatp308
Rp309
(dp310
g11
VVP
p311
sbatp312
Rp313
(dp314
g11
VVP
p315
sbag0
(g1
g2
(lp316
V.
p317
atp318
Rp319
(dp320
g11
V.
p321
sbatp322
Rp323
(dp324
g11
VS
p325
sbatp326
Rp327
(dp328
g11
S'id: 2'
p329
sbag0
(g1
g2
(lp330
g0
(g1
g2
(lp331
g0
(g1
g2
(lp332
g0
(g1
g2
(lp333
g0
(g1
g2
(lp334
VThe
p335
atp336
Rp337
(dp338
g11
VDT
p339
sbag0
(g1
g2
(lp340
Vlady
p341
atp342
Rp343
(dp344
g11
VNN
p345
sbatp346
Rp347
(dp348
g11
VNP
p349
sbag0
(g1
g2
(lp350
g0
(g1
g2
(lp351
Vis
p352
atp353
Rp354
(dp355
g11
VVBZ
p356
sbag0
(g1
g2
(lp357
V,
p358
atp359
Rp360
(dp361
g11
V,
p362
sbag0
(g1
g2
(lp363
g0
(g1
g2
(lp364
g0
(g1
g2
(lp365
g0
(g1
g2
(lp366
VI
p367
atp368
Rp369
(dp370
g11
VPRP
p371
sbatp372
Rp373
(dp374
g11
VNP
p375
sbag0
(g1
g2
(lp376
g0
(g1
g2
(lp377
Vthink
p378
atp379
Rp380
(dp381
g11
VVBP
p382
sbatp383
Rp384
(dp385
g11
VVP
p386
sbatp387
Rp388
(dp389
g11
VS
p390
sbatp391
Rp392
(dp393
g11
VSBAR
p394
sbatp395
Rp396
(dp397
g11
VVP
p398
sbatp399
Rp400
(dp401
g11
VS
p402
sbag0
(g1
g2
(lp403
V,
p404
atp405
Rp406
(dp407
g11
V,
p408
sbag0
(g1
g2
(lp409
g0
(g1
g2
(lp410
g0
(g1
g2
(lp411
Vbackwards
p412
atp413
Rp414
(dp415
g11
VRB
p416
sbatp417
Rp418
(dp419
g11
VNP
p420
sbag0
(g1
g2
(lp421
Vand
p422
atp423
Rp424
(dp425
g11
VCC
p426
sbag0
(g1
g2
(lp427
g0
(g1
g2
(lp428
Vwe
p429
atp430
Rp431
(dp432
g11
VPRP
p433
sbatp434
Rp435
(dp436
g11
VNP
p437
sbatp438
Rp439
(dp440
g11
VNP
p441
sbag0
(g1
g2
(lp442
V,
p443
atp444
Rp445
(dp446
g11
V,
p447
sbag0
(g1
g2
(lp448
g0
(g1
g2
(lp449
Vwipe
p450
atp451
Rp452
(dp453
g11
VVBP
p454
sbag0
(g1
g2
(lp455
g0
(g1
g2
(lp456
Vthe
p457
atp458
Rp459
(dp460
g11
VDT
p461
sbag0
(g1
g2
(lp462
Vglass
p463
atp464
Rp465
(dp466
g11
VNN
p467
sbatp468
Rp469
(dp470
g11
VNP
p471
sbag0
(g1
g2
(lp472
g0
(g1
g2
(lp473
Von
p474
atp475
Rp476
(dp477
g11
VIN
p478
sbatp479
Rp480
(dp481
g11
VPP
p482
sbatp483
Rp484
(dp485
g11
VVP
p486
sbag0
(g1
g2
(lp487
V.
p488
atp489
Rp490
(dp491
g11
V.
p492
sbatp493
Rp494
(dp495
g11
VS
p496
sbatp497
Rp498
(dp499
g11
S'id: 3'
p500
sbag0
(g1
g2
(lp501
g0
(g1
g2
(lp502
g0
(g1
g2
(lp503
g0
(g1
g2
(lp504
VI
p505
atp506
Rp507
(dp508
g11
VPRP
p509
sbatp510
Rp511
(dp512
g11
VNP
p513
sbag0
(g1
g2
(lp514
g0
(g1
g2
(lp515
Vdo
p516
atp517
Rp518
(dp519
g11
VVBP
p520
sbag0
(g1
g2
(lp521
Vn't
p522
atp523
Rp524
(dp525
g11
VRB
p526
sbag0
(g1
g2
(lp527
g0
(g1
g2
(lp528
Vknow
p529
atp530
Rp531
(dp532
g11
VVB
p533
sbag0
(g1
g2
(lp534
V,
p535
atp536
Rp537
(dp538
g11
V,
p539
sbag0
(g1
g2
(lp540
g0
(g1
g2
(lp541
Vbut
p542
atp543
Rp544
(dp545
g11
VCC
p546
sbatp547
Rp548
(dp549
g11
VADVP
p550
sbag0
(g1
g2
(lp551
V,
p552
atp553
Rp554
(dp555
g11
V,
p556
sbag0
(g1
g2
(lp557
g0
(g1
g2
(lp558
g0
(g1
g2
(lp559
Vleaking
p560
atp561
Rp562
(dp563
g11
VVBG
p564
sbatp565
Rp566
(dp567
g11
VVP
p568
sbatp569
Rp570
(dp571
g11
VS
p572
sbatp573
Rp574
(dp575
g11
VVP
p576
sbatp577
Rp578
(dp579
g11
VVP
p580
sbag0
(g1
g2
(lp581
V.
p582
atp583
Rp584
(dp585
g11
V.
p586
sbatp587
Rp588
(dp589
g11
VS
p590
sbatp591
Rp592
(dp593
g11
S'id: 4'
p594
sbag0
(g1
g2
(lp595
g0
(g1
g2
(lp596
g0
(g1
g2
(lp597
g0
(g1
g2
(lp598
VAnd
p599
atp600
Rp601
(dp602
g11
VCC
p603
sbatp604
Rp605
(dp606
g11
VNP
p607
sbag0
(g1
g2
(lp608
g0
(g1
g2
(lp609
g0
(g1
g2
(lp610
VI
p611
atp612
Rp613
(dp614
g11
VPRP
p615
sbatp616
Rp617
(dp618
g11
VADVP
p619
sbatp620
Rp621
(dp622
g11
VVP
p623
sbag0
(g1
g2
(lp624
V.
p625
atp626
Rp627
(dp628
g11
V.
p629
sbatp630
Rp631
(dp632
g11
VS
p633
sbatp634
Rp635
(dp636
g11
S'id: 5'
p637
sbag0
(g1
g2
(lp638
g0
(g1
g2
(lp639
g0
(g1
g2
(lp640
g0
(g1
g2
(lp641
g0
(g1
g2
(lp642
VThe
p643
atp644
Rp645
(dp646
g11
VDT
p647
sbag0
(g1
g2
(lp648
Vdog
p649
atp650
Rp651
(dp652
g11
VNN
p653
sbatp654
Rp655
(dp656
g11
VNP
p657
sbag0
(g1
g2
(lp658
V,
p659
atp660
Rp661
(dp662
g11
V,
p663
sbag0
(g1
g2
(lp664
g0
(g1
g2
(lp665
g0
(g1
g2
(lp666
Vit
p667
atp668
Rp669
(dp670
g11
VPRP
p671
sbatp672
Rp673
(dp674
g11
VNP
p675
sbag0
(g1
g2
(lp676
g0
(g1
g2
(lp677
g0
(g1
g2
(lp678
Vthe
p679
atp680
Rp681
(dp682
g11
VDT
p683
sbag0
(g1
g2
(lp684
Vdog
p685
atp686
Rp687
(dp688
g11
VNN
p689
sbatp690
Rp691
(dp692
g11
VNP
p693
sbag0
(g1
g2
(lp694
V,
p695
atp696
Rp697
(dp698
g11
V,
p699
sbag0
(g1
g2
(lp700
g0
(g1
g2
(lp701
Vthe
p702
atp703
Rp704
(dp705
g11
VDT
p706
sbag0
(g1
g2
(lp707
Vdog
p708
atp709
Rp710
(dp711
g11
VNN
p712
sbatp713
Rp714
(dp715
g11
VNP
p716
sbatp717
Rp718
(dp719
g11
VNP
p720
sbatp721
Rp722
(dp723
g11
VNP
p724
sbatp725
Rp726
(dp727
g11
VNP
p728
sbag0
(g1
g2
(lp729
g0
(g1
g2
(lp730
Vis
p731
atp732
Rp733
(dp734
g11
VVBZ
p735
sbatp736
Rp737
(dp738
g11
VVP
p739
sbag0
(g1
g2
(lp740
V.
p741
atp742
Rp743
(dp744
g11
V.
p745
sbatp746
Rp747
(dp748
g11
VS
p749
sbatp750
Rp751
(dp752
g11
S'id: 6'
p753
sbag0
(g1
g2
(lp754
g0
(g1
g2
(lp755
g0
(g1
g2
(lp756
VOk
p757
atp758
Rp759
(dp760
g11
VNN
p761
sbag0
(g1
g2
(lp762
V.
p763
atp764
Rp765
(dp766
g11
V.
p767
sbatp768
Rp769
(dp770
g11
VNP
p771
sbatp772
Rp773
(dp774
g11
S'id: 7'
p775
sbag0
(g1
g2
(lp776
g0
(g1
g2
(lp777
g0
(g1
g2
(lp778
g0
(g1
g2
(lp779
g0
(g1
g2
(lp780
g0
(g1
g2
(lp781
VThe
p782
atp783
Rp784
(dp785
g11
VDT
p786
sbatp787
Rp788
(dp789
g11
VNP
p790
sbag0
(g1
g2
(lp791
g0
(g1
g2
(lp792
Vtwinking
p793
atp794
Rp795
(dp796
g11
VVBG
p797
sbag0
(g1
g2
(lp798
g0
(g1
g2
(lp799
Vthe
p800
atp801
Rp802
(dp803
g11
VDT
p804
sbag0
(g1
g2
(lp805
Vclass
p806
atp807
Rp808
(dp809
g11
VNN
p810
sbag0
(g1
g2
(lp811
VI
p812
atp813
Rp814
(dp815
g11
VCD
p816
sbatp817
Rp818
(dp819
g11
VNP
p820
sbatp821
Rp822
(dp823
g11
VVP
p824
sbatp825
Rp826
(dp827
g11
VNP
p828
sbag0
(g1
g2
(lp829
g0
(g1
g2
(lp830
Vdo
p831
atp832
Rp833
(dp834
g11
VVBP
p835
sbag0
(g1
g2
(lp836
Vn't
p837
atp838
Rp839
(dp840
g11
VRB
p841
sbag0
(g1
g2
(lp842
g0
(g1
g2
(lp843
Vknow
p844
atp845
Rp846
(dp847
g11
VVB
p848
sbag0
(g1
g2
(lp849
g0
(g1
g2
(lp850
g0
(g1
g2
(lp851
Vwhen
p852
atp853
Rp854
(dp855
g11
VWRB
p856
sbatp857
Rp858
(dp859
g11
VWHADVP
p860
sbatp861
Rp862
(dp863
g11
VSBARQ
p864
sbatp865
Rp866
(dp867
g11
VVP
p868
sbatp869
Rp870
(dp871
g11
VVP
p872
sbatp873
Rp874
(dp875
g11
VS
p876
sbag0
(g1
g2
(lp877
V,
p878
atp879
Rp880
(dp881
g11
V,
p882
sbag0
(g1
g2
(lp883
Vbut
p884
atp885
Rp886
(dp887
g11
VCC
p888
sbag0
(g1
g2
(lp889
V,
p890
atp891
Rp892
(dp893
g11
V,
p894
sbag0
(g1
g2
(lp895
g0
(g1
g2
(lp896
g0
(g1
g2
(lp897
Vone
p898
atp899
Rp900
(dp901
g11
VCD
p902
sbatp903
Rp904
(dp905
g11
VNP
p906
sbag0
(g1
g2
(lp907
g0
(g1
g2
(lp908
g0
(g1
g2
(lp909
Vthe
p910
atp911
Rp912
(dp913
g11
VDT
p914
sbag0
(g1
g2
(lp915
Vgirl
p916
atp917
Rp918
(dp919
g11
VNN
p920
sbatp921
Rp922
(dp923
g11
VNP
p924
sbag0
(g1
g2
(lp925
V,
p926
atp927
Rp928
(dp929
g11
V,
p930
sbag0
(g1
g2
(lp931
g0
(g1
g2
(lp932
Vboy
p933
atp934
Rp935
(dp936
g11
VNN
p937
sbatp938
Rp939
(dp940
g11
VNP
p941
sbag0
(g1
g2
(lp942
V,
p943
atp944
Rp945
(dp946
g11
V,
p947
sbag0
(g1
g2
(lp948
Vand
p949
atp950
Rp951
(dp952
g11
VCC
p953
sbag0
(g1
g2
(lp954
g0
(g1
g2
(lp955
Vthe
p956
atp957
Rp958
(dp959
g11
VDT
p960
sbag0
(g1
g2
(lp961
Vgirl
p962
atp963
Rp964
(dp965
g11
VNN
p966
sbatp967
Rp968
(dp969
g11
VNP
p970
sbag0
(g1
g2
(lp971
V,
p972
atp973
Rp974
(dp975
g11
V,
p976
sbag0
(g1
g2
(lp977
g0
(g1
g2
(lp978
Vboy
p979
atp980
Rp981
(dp982
g11
VNN
p983
sbatp984
Rp985
(dp986
g11
VNP
p987
sbag0
(g1
g2
(lp988
V,
p989
atp990
Rp991
(dp992
g11
V,
p993
sbag0
(g1
g2
(lp994
Vand
p995
atp996
Rp997
(dp998
g11
VCC
p999
sbag0
(g1
g2
(lp1000
g0
(g1
g2
(lp1001
Vthe
p1002
atp1003
Rp1004
(dp1005
g11
VDT
p1006
sbag0
(g1
g2
(lp1007
Vman
p1008
atp1009
Rp1010
(dp1011
g11
VNN
p1012
sbatp1013
Rp1014
(dp1015
g11
VNP
p1016
sbatp1017
Rp1018
(dp1019
g11
VNP
p1020
sbatp1021
Rp1022
(dp1023
g11
VS
p1024
sbag0
(g1
g2
(lp1025
V.
p1026
atp1027
Rp1028
(dp1029
g11
V.
p1030
sbatp1031
Rp1032
(dp1033
g11
VS
p1034
sbatp1035
Rp1036
(dp1037
g11
S'id: 8'
p1038
sbag0
(g1
g2
(lp1039
g0
(g1
g2
(lp1040
g0
(g1
g2
(lp1041
g0
(g1
g2
(lp1042
VThe
p1043
atp1044
Rp1045
(dp1046
g11
VDT
p1047
sbag0
(g1
g2
(lp1048
Vgirls
p1049
atp1050
Rp1051
(dp1052
g11
VNNS
p1053
sbatp1054
Rp1055
(dp1056
g11
VNP
p1057
sbag0
(g1
g2
(lp1058
g0
(g1
g2
(lp1059
Vare
p1060
atp1061
Rp1062
(dp1063
g11
VVBP
p1064
sbag0
(g1
g2
(lp1065
g0
(g1
g2
(lp1066
Vclan
p1067
atp1068
Rp1069
(dp1070
g11
VNN
p1071
sbatp1072
Rp1073
(dp1074
g11
VNP
p1075
sbag0
(g1
g2
(lp1076
g0
(g1
g2
(lp1077
Vtheir
p1078
atp1079
Rp1080
(dp1081
g11
VPRP$
p1082
sbag0
(g1
g2
(lp1083
Vscape
p1084
atp1085
Rp1086
(dp1087
g11
VNN
p1088
sbatp1089
Rp1090
(dp1091
g11
VNP
p1092
sbatp1093
Rp1094
(dp1095
g11
VVP
p1096
sbag0
(g1
g2
(lp1097
V.
p1098
atp1099
Rp1100
(dp1101
g11
V.
p1102
sbatp1103
Rp1104
(dp1105
g11
VS
p1106
sbatp1107
Rp1108
(dp1109
g11
S'id: 9'
p1110
sbatp1111
Rp1112
(dp1113
g11
S'sentences'
p1114
sb.