ccopy_reg
_reconstructor
p0
(cnltk.tree
Tree
p1
c__builtin__
list
p2
(lp3
g0
(g1
g2
(lp4
g0
(g1
g2
(lp5
g0
(g1
g2
(lp6
(lp7
S'word: the, index: 1'
p8
aatp9
Rp10
(dp11
S'_label'
p12
Vdet
p13
sbag0
(g1
g2
(lp14
(lp15
S"word: 's, index: 3"
p16
aatp17
Rp18
(dp19
g12
Vpossessive
p20
sbag0
(g1
g2
(lp21
g0
(g1
g2
(lp22
g0
(g1
g2
(lp23
g0
(g1
g2
(lp24
g0
(g1
g2
(lp25
(lp26
S'word: the, index: 5'
p27
aatp28
Rp29
(dp30
g12
Vdet
p31
sbatp32
Rp33
(dp34
g12
S'word: clowns, index: 6'
p35
sbatp36
Rp37
(dp38
g12
Vdobj
p39
sbatp40
Rp41
(dp42
g12
S'word: watching, index: 4'
p43
sbatp44
Rp45
(dp46
g12
Vvmod
p47
sbatp48
Rp49
(dp50
g12
S'word: baby, index: 2'
p51
sbatp52
Rp53
(dp54
g12
S'id: 0'
p55
sbag0
(g1
g2
(lp56
g0
(g1
g2
(lp57
g0
(g1
g2
(lp58
g0
(g1
g2
(lp59
g0
(g1
g2
(lp60
(lp61
S'word: is, index: 3'
p62
aatp63
Rp64
(dp65
g12
Vaux
p66
sbag0
(g1
g2
(lp67
g0
(g1
g2
(lp68
g0
(g1
g2
(lp69
(lp70
S'word: the, index: 5'
p71
aatp72
Rp73
(dp74
g12
Vdet
p75
sbatp76
Rp77
(dp78
g12
S'word: lion, index: 6'
p79
sbatp80
Rp81
(dp82
g12
Vdobj
p83
sbag0
(g1
g2
(lp84
g0
(g1
g2
(lp85
g0
(g1
g2
(lp86
(lp87
S'word: The, index: 1'
p88
aatp89
Rp90
(dp91
g12
Vdet
p92
sbatp93
Rp94
(dp95
g12
S'word: man, index: 2'
p96
sbatp97
Rp98
(dp99
g12
Vnsubj
p100
sbatp101
Rp102
(dp103
g12
S'word: taming, index: 4'
p104
sbatp105
Rp106
(dp107
g12
Vccomp
p108
sbag0
(g1
g2
(lp109
(lp110
S'word: is, index: 8'
p111
aatp112
Rp113
(dp114
g12
Vcop
p115
sbag0
(g1
g2
(lp116
g0
(g1
g2
(lp117
g0
(g1
g2
(lp118
(lp119
S'word: a, index: 10'
p120
aatp121
Rp122
(dp123
g12
Vdet
p124
sbag0
(g1
g2
(lp125
g0
(g1
g2
(lp126
g0
(g1
g2
(lp127
(lp128
S'word: a, index: 13'
p129
aatp130
Rp131
(dp132
g12
Vdet
p133
sbatp134
Rp135
(dp136
g12
S'word: tiger, index: 14'
p137
sbatp138
Rp139
(dp140
g12
Vconj
p141
sbatp142
Rp143
(dp144
g12
S'word: lion, index: 11'
p145
sbatp146
Rp147
(dp148
g12
Vnsubj
p149
sbag0
(g1
g2
(lp150
g135
atp151
Rp152
(dp153
g12
Vnsubj
p154
sbatp155
Rp156
(dp157
g12
S'word: it, index: 9'
p158
sbatp159
Rp160
(dp161
g12
S'id: 1'
p162
sbatp163
Rp164
(dp165
g12
S'sentences'
p166
sb.