ccopy_reg
_reconstructor
p0
(cnltk.tree
Tree
p1
c__builtin__
list
p2
(lp3
g0
(g1
g2
(lp4
g0
(g1
g2
(lp5
g0
(g1
g2
(lp6
g0
(g1
g2
(lp7
Vo
p8
atp9
Rp10
(dp11
S'_label'
p12
VNN
p13
sbag0
(g1
g2
(lp14
Vlook
p15
atp16
Rp17
(dp18
g12
VNN
p19
sbatp20
Rp21
(dp22
g12
VNP
p23
sbag0
(g1
g2
(lp24
g0
(g1
g2
(lp25
Vat
p26
atp27
Rp28
(dp29
g12
VIN
p30
sbag0
(g1
g2
(lp31
g0
(g1
g2
(lp32
Vthat
p33
atp34
Rp35
(dp36
g12
VDT
p37
sbatp38
Rp39
(dp40
g12
VNP
p41
sbatp42
Rp43
(dp44
g12
VPP
p45
sbag0
(g1
g2
(lp46
g0
(g1
g2
(lp47
Vagain
p48
atp49
Rp50
(dp51
g12
VRB
p52
sbatp53
Rp54
(dp55
g12
VADVP
p56
sbag0
(g1
g2
(lp57
V.
p58
atp59
Rp60
(dp61
g12
V.
p62
sbatp63
Rp64
(dp65
g12
VNP
p66
sbatp67
Rp68
(dp69
g12
S'id: 0'
p70
sbag0
(g1
g2
(lp71
g0
(g1
g2
(lp72
g0
(g1
g2
(lp73
VOk
p74
atp75
Rp76
(dp77
g12
VNN
p78
sbag0
(g1
g2
(lp79
V.
p80
atp81
Rp82
(dp83
g12
V.
p84
sbatp85
Rp86
(dp87
g12
VNP
p88
sbatp89
Rp90
(dp91
g12
S'id: 1'
p92
sbag0
(g1
g2
(lp93
g0
(g1
g2
(lp94
g0
(g1
g2
(lp95
g0
(g1
g2
(lp96
Vlet
p97
atp98
Rp99
(dp100
g12
VVB
p101
sbag0
(g1
g2
(lp102
g0
(g1
g2
(lp103
g0
(g1
g2
(lp104
V's
p105
atp106
Rp107
(dp108
g12
VPOS
p109
sbatp110
Rp111
(dp112
g12
VNP
p113
sbag0
(g1
g2
(lp114
g0
(g1
g2
(lp115
Vsee
p116
atp117
Rp118
(dp119
g12
VVB
p120
sbag0
(g1
g2
(lp121
g0
(g1
g2
(lp122
Vhere
p123
atp124
Rp125
(dp126
g12
VRB
p127
sbatp128
Rp129
(dp130
g12
VADVP
p131
sbatp132
Rp133
(dp134
g12
VVP
p135
sbatp136
Rp137
(dp138
g12
VS
p139
sbatp140
Rp141
(dp142
g12
VVP
p143
sbag0
(g1
g2
(lp144
V.
p145
atp146
Rp147
(dp148
g12
V.
p149
sbatp150
Rp151
(dp152
g12
VS
p153
sbatp154
Rp155
(dp156
g12
S'id: 2'
p157
sbag0
(g1
g2
(lp158
g0
(g1
g2
(lp159
g0
(g1
g2
(lp160
g0
(g1
g2
(lp161
g0
(g1
g2
(lp162
VOk
p163
atp164
Rp165
(dp166
g12
VNNP
p167
sbatp168
Rp169
(dp170
g12
VNP
p171
sbag0
(g1
g2
(lp172
g0
(g1
g2
(lp173
V,
p174
atp175
Rp176
(dp177
g12
V,
p178
sbag0
(g1
g2
(lp179
g0
(g1
g2
(lp180
g0
(g1
g2
(lp181
Vi
p182
atp183
Rp184
(dp185
g12
VFW
p186
sbatp187
Rp188
(dp189
g12
VNP
p190
sbag0
(g1
g2
(lp191
g0
(g1
g2
(lp192
Vcan
p193
atp194
Rp195
(dp196
g12
VMD
p197
sbag0
(g1
g2
(lp198
g0
(g1
g2
(lp199
g0
(g1
g2
(lp200
Vgo
p201
atp202
Rp203
(dp204
g12
VVB
p205
sbag0
(g1
g2
(lp206
g0
(g1
g2
(lp207
Vback
p208
atp209
Rp210
(dp211
g12
VRB
p212
sbatp213
Rp214
(dp215
g12
VADVP
p216
sbatp217
Rp218
(dp219
g12
VVP
p220
sbag0
(g1
g2
(lp221
Vand
p222
atp223
Rp224
(dp225
g12
VCC
p226
sbag0
(g1
g2
(lp227
g0
(g1
g2
(lp228
Vmake
p229
atp230
Rp231
(dp232
g12
VVB
p233
sbag0
(g1
g2
(lp234
g0
(g1
g2
(lp235
Vthat
p236
atp237
Rp238
(dp239
g12
VDT
p240
sbag0
(g1
g2
(lp241
Vboy
p242
atp243
Rp244
(dp245
g12
VNN
p246
sbatp247
Rp248
(dp249
g12
VNP
p250
sbatp251
Rp252
(dp253
g12
VVP
p254
sbatp255
Rp256
(dp257
g12
VVP
p258
sbatp259
Rp260
(dp261
g12
VVP
p262
sbatp263
Rp264
(dp265
g12
VS
p266
sbatp267
Rp268
(dp269
g12
VPRN
p270
sbag0
(g1
g2
(lp271
g0
(g1
g2
(lp272
Vis
p273
atp274
Rp275
(dp276
g12
VVBZ
p277
sbag0
(g1
g2
(lp278
g0
(g1
g2
(lp279
Vreading
p280
atp281
Rp282
(dp283
g12
VVBG
p284
sbag0
(g1
g2
(lp285
g0
(g1
g2
(lp286
Va
p287
atp288
Rp289
(dp290
g12
VDT
p291
sbag0
(g1
g2
(lp292
Vbook
p293
atp294
Rp295
(dp296
g12
VNN
p297
sbatp298
Rp299
(dp300
g12
VNP
p301
sbatp302
Rp303
(dp304
g12
VVP
p305
sbatp306
Rp307
(dp308
g12
VVP
p309
sbatp310
Rp311
(dp312
g12
VS
p313
sbag0
(g1
g2
(lp314
V,
p315
atp316
Rp317
(dp318
g12
V,
p319
sbag0
(g1
g2
(lp320
Vand
p321
atp322
Rp323
(dp324
g12
VCC
p325
sbag0
(g1
g2
(lp326
g0
(g1
g2
(lp327
g0
(g1
g2
(lp328
Vthe
p329
atp330
Rp331
(dp332
g12
VDT
p333
sbag0
(g1
g2
(lp334
Vgirl
p335
atp336
Rp337
(dp338
g12
VNN
p339
sbatp340
Rp341
(dp342
g12
VNP
p343
sbag0
(g1
g2
(lp344
g0
(g1
g2
(lp345
Vis
p346
atp347
Rp348
(dp349
g12
VVBZ
p350
sbag0
(g1
g2
(lp351
g0
(g1
g2
(lp352
Vpouring
p353
atp354
Rp355
(dp356
g12
VVBG
p357
sbag0
(g1
g2
(lp358
g0
(g1
g2
(lp359
Vwine
p360
atp361
Rp362
(dp363
g12
VNN
p364
sbatp365
Rp366
(dp367
g12
VNP
p368
sbatp369
Rp370
(dp371
g12
VVP
p372
sbatp373
Rp374
(dp375
g12
VVP
p376
sbatp377
Rp378
(dp379
g12
VS
p380
sbag0
(g1
g2
(lp381
V.
p382
atp383
Rp384
(dp385
g12
V.
p386
sbatp387
Rp388
(dp389
g12
VS
p390
sbatp391
Rp392
(dp393
g12
S'id: 3'
p394
sbag0
(g1
g2
(lp395
g0
(g1
g2
(lp396
g0
(g1
g2
(lp397
VAnd
p398
atp399
Rp400
(dp401
g12
VCC
p402
sbag0
(g1
g2
(lp403
g0
(g1
g2
(lp404
g0
(g1
g2
(lp405
Vthey
p406
atp407
Rp408
(dp409
g12
VPRP
p410
sbatp411
Rp412
(dp413
g12
VNP
p414
sbag0
(g1
g2
(lp415
g0
(g1
g2
(lp416
Vhave
p417
atp418
Rp419
(dp420
g12
VVBP
p421
sbatp422
Rp423
(dp424
g12
VVP
p425
sbatp426
Rp427
(dp428
g12
VS
p429
sbag0
(g1
g2
(lp430
g0
(g1
g2
(lp431
V,
p432
atp433
Rp434
(dp435
g12
V,
p436
sbag0
(g1
g2
(lp437
g0
(g1
g2
(lp438
g0
(g1
g2
(lp439
Vhe
p440
atp441
Rp442
(dp443
g12
VPRP
p444
sbatp445
Rp446
(dp447
g12
VNP
p448
sbag0
(g1
g2
(lp449
g0
(g1
g2
(lp450
Vhas
p451
atp452
Rp453
(dp454
g12
VVBZ
p455
sbag0
(g1
g2
(lp456
g0
(g1
g2
(lp457
Vhis
p458
atp459
Rp460
(dp461
g12
VPRP$
p462
sbag0
(g1
g2
(lp463
Vshoes
p464
atp465
Rp466
(dp467
g12
VNNS
p468
sbatp469
Rp470
(dp471
g12
VNP
p472
sbag0
(g1
g2
(lp473
g0
(g1
g2
(lp474
Voff
p475
atp476
Rp477
(dp478
g12
VRP
p479
sbatp480
Rp481
(dp482
g12
VPP
p483
sbatp484
Rp485
(dp486
g12
VVP
p487
sbatp488
Rp489
(dp490
g12
VS
p491
sbag0
(g1
g2
(lp492
V,
p493
atp494
Rp495
(dp496
g12
V,
p497
sbatp498
Rp499
(dp500
g12
VPRN
p501
sbag0
(g1
g2
(lp502
Vand
p503
atp504
Rp505
(dp506
g12
VCC
p507
sbag0
(g1
g2
(lp508
g0
(g1
g2
(lp509
g0
(g1
g2
(lp510
g0
(g1
g2
(lp511
Vhe
p512
atp513
Rp514
(dp515
g12
VPRP
p516
sbatp517
Rp518
(dp519
g12
VNP
p520
sbag0
(g1
g2
(lp521
g0
(g1
g2
(lp522
Vhas
p523
atp524
Rp525
(dp526
g12
VVBZ
p527
sbag0
(g1
g2
(lp528
g0
(g1
g2
(lp529
g0
(g1
g2
(lp530
g0
(g1
g2
(lp531
Va
p532
atp533
Rp534
(dp535
g12
VDT
p536
sbag0
(g1
g2
(lp537
Vwire
p538
atp539
Rp540
(dp541
g12
VNN
p542
sbatp543
Rp544
(dp545
g12
VNP
p546
sbag0
(g1
g2
(lp547
V,
p548
atp549
Rp550
(dp551
g12
V,
p552
sbag0
(g1
g2
(lp553
g0
(g1
g2
(lp554
g0
(g1
g2
(lp555
Va
p556
atp557
Rp558
(dp559
g12
VDT
p560
sbag0
(g1
g2
(lp561
Vphone
p562
atp563
Rp564
(dp565
g12
VNN
p566
sbatp567
Rp568
(dp569
g12
VNP
p570
sbag0
(g1
g2
(lp571
Vthere
p572
atp573
Rp574
(dp575
g12
VRB
p576
sbatp577
Rp578
(dp579
g12
VADVP
p580
sbatp581
Rp582
(dp583
g12
VNP
p584
sbag0
(g1
g2
(lp585
V,
p586
atp587
Rp588
(dp589
g12
V,
p590
sbag0
(g1
g2
(lp591
g0
(g1
g2
(lp592
Va
p593
atp594
Rp595
(dp596
g12
VDT
p597
sbag0
(g1
g2
(lp598
Vtelephone
p599
atp600
Rp601
(dp602
g12
VNN
p603
sbatp604
Rp605
(dp606
g12
VNP
p607
sbag0
(g1
g2
(lp608
V,
p609
atp610
Rp611
(dp612
g12
V,
p613
sbag0
(g1
g2
(lp614
g0
(g1
g2
(lp615
Vnot
p616
atp617
Rp618
(dp619
g12
VRB
p620
sbag0
(g1
g2
(lp621
g0
(g1
g2
(lp622
Va
p623
atp624
Rp625
(dp626
g12
VDT
p627
sbag0
(g1
g2
(lp628
Vtelephone
p629
atp630
Rp631
(dp632
g12
VNN
p633
sbatp634
Rp635
(dp636
g12
VNP
p637
sbatp638
Rp639
(dp640
g12
VADVP
p641
sbatp642
Rp643
(dp644
g12
VNP
p645
sbatp646
Rp647
(dp648
g12
VVP
p649
sbatp650
Rp651
(dp652
g12
VS
p653
sbag0
(g1
g2
(lp654
V,
p655
atp656
Rp657
(dp658
g12
V,
p659
sbag0
(g1
g2
(lp660
Vbut
p661
atp662
Rp663
(dp664
g12
VCC
p665
sbag0
(g1
g2
(lp666
g0
(g1
g2
(lp667
g0
(g1
g2
(lp668
VI
p669
atp670
Rp671
(dp672
g12
VPRP
p673
sbatp674
Rp675
(dp676
g12
VNP
p677
sbag0
(g1
g2
(lp678
g0
(g1
g2
(lp679
Vca
p680
atp681
Rp682
(dp683
g12
VMD
p684
sbag0
(g1
g2
(lp685
Vn't
p686
atp687
Rp688
(dp689
g12
VRB
p690
sbag0
(g1
g2
(lp691
g0
(g1
g2
(lp692
Vthink
p693
atp694
Rp695
(dp696
g12
VVB
p697
sbag0
(g1
g2
(lp698
g0
(g1
g2
(lp699
Vof
p700
atp701
Rp702
(dp703
g12
VIN
p704
sbag0
(g1
g2
(lp705
g0
(g1
g2
(lp706
Vit
p707
atp708
Rp709
(dp710
g12
VPRP
p711
sbatp712
Rp713
(dp714
g12
VNP
p715
sbatp716
Rp717
(dp718
g12
VPP
p719
sbatp720
Rp721
(dp722
g12
VVP
p723
sbatp724
Rp725
(dp726
g12
VVP
p727
sbatp728
Rp729
(dp730
g12
VS
p731
sbatp732
Rp733
(dp734
g12
VS
p735
sbag0
(g1
g2
(lp736
V.
p737
atp738
Rp739
(dp740
g12
V.
p741
sbatp742
Rp743
(dp744
g12
VS
p745
sbatp746
Rp747
(dp748
g12
S'id: 4'
p749
sbag0
(g1
g2
(lp750
g0
(g1
g2
(lp751
g0
(g1
g2
(lp752
g0
(g1
g2
(lp753
g0
(g1
g2
(lp754
VIt
p755
atp756
Rp757
(dp758
g12
VPRP
p759
sbatp760
Rp761
(dp762
g12
VNP
p763
sbag0
(g1
g2
(lp764
g0
(g1
g2
(lp765
V's
p766
atp767
Rp768
(dp769
g12
VVBZ
p770
sbag0
(g1
g2
(lp771
g0
(g1
g2
(lp772
Va
p773
atp774
Rp775
(dp776
g12
VDT
p777
sbatp778
Rp779
(dp780
g12
VNP
p781
sbatp782
Rp783
(dp784
g12
VVP
p785
sbatp786
Rp787
(dp788
g12
VS
p789
sbag0
(g1
g2
(lp790
V,
p791
atp792
Rp793
(dp794
g12
V,
p795
sbag0
(g1
g2
(lp796
g0
(g1
g2
(lp797
g0
(g1
g2
(lp798
Vit
p799
atp800
Rp801
(dp802
g12
VPRP
p803
sbatp804
Rp805
(dp806
g12
VNP
p807
sbag0
(g1
g2
(lp808
g0
(g1
g2
(lp809
V's
p810
atp811
Rp812
(dp813
g12
VVBZ
p814
sbag0
(g1
g2
(lp815
g0
(g1
g2
(lp816
Va
p817
atp818
Rp819
(dp820
g12
VDT
p821
sbatp822
Rp823
(dp824
g12
VNP
p825
sbatp826
Rp827
(dp828
g12
VVP
p829
sbatp830
Rp831
(dp832
g12
VS
p833
sbag0
(g1
g2
(lp834
V,
p835
atp836
Rp837
(dp838
g12
V,
p839
sbag0
(g1
g2
(lp840
g0
(g1
g2
(lp841
g0
(g1
g2
(lp842
Vit
p843
atp844
Rp845
(dp846
g12
VPRP
p847
sbatp848
Rp849
(dp850
g12
VNP
p851
sbag0
(g1
g2
(lp852
g0
(g1
g2
(lp853
Vmakes
p854
atp855
Rp856
(dp857
g12
VVBZ
p858
sbag0
(g1
g2
(lp859
g0
(g1
g2
(lp860
g0
(g1
g2
(lp861
Vmusic
p862
atp863
Rp864
(dp865
g12
VNN
p866
sbatp867
Rp868
(dp869
g12
VNP
p870
sbag0
(g1
g2
(lp871
V,
p872
atp873
Rp874
(dp875
g12
V,
p876
sbag0
(g1
g2
(lp877
g0
(g1
g2
(lp878
Vok
p879
atp880
Rp881
(dp882
g12
VNN
p883
sbatp884
Rp885
(dp886
g12
VNP
p887
sbatp888
Rp889
(dp890
g12
VNP
p891
sbatp892
Rp893
(dp894
g12
VVP
p895
sbatp896
Rp897
(dp898
g12
VS
p899
sbag0
(g1
g2
(lp900
V.
p901
atp902
Rp903
(dp904
g12
V.
p905
sbatp906
Rp907
(dp908
g12
VS
p909
sbatp910
Rp911
(dp912
g12
S'id: 5'
p913
sbag0
(g1
g2
(lp914
g0
(g1
g2
(lp915
g0
(g1
g2
(lp916
VAnd
p917
atp918
Rp919
(dp920
g12
VCC
p921
sbag0
(g1
g2
(lp922
g0
(g1
g2
(lp923
g0
(g1
g2
(lp924
Va
p925
atp926
Rp927
(dp928
g12
VDT
p929
sbag0
(g1
g2
(lp930
Vlittle
p931
atp932
Rp933
(dp934
g12
VJJ
p935
sbag0
(g1
g2
(lp936
V,
p937
atp938
Rp939
(dp940
g12
V,
p941
sbag0
(g1
g2
(lp942
Vlittle
p943
atp944
Rp945
(dp946
g12
VJJ
p947
sbag0
(g1
g2
(lp948
V,
p949
atp950
Rp951
(dp952
g12
V,
p953
sbag0
(g1
g2
(lp954
Vlitte
p955
atp956
Rp957
(dp958
g12
VJJ
p959
sbag0
(g1
g2
(lp960
Vguy
p961
atp962
Rp963
(dp964
g12
VNN
p965
sbatp966
Rp967
(dp968
g12
VNP
p969
sbag0
(g1
g2
(lp970
V,
p971
atp972
Rp973
(dp974
g12
V,
p975
sbag0
(g1
g2
(lp976
g0
(g1
g2
(lp977
Vthe
p978
atp979
Rp980
(dp981
g12
VDT
p982
sbag0
(g1
g2
(lp983
Vlittle
p984
atp985
Rp986
(dp987
g12
VJJ
p988
sbag0
(g1
g2
(lp989
Vfellow
p990
atp991
Rp992
(dp993
g12
VNN
p994
sbatp995
Rp996
(dp997
g12
VNP
p998
sbag0
(g1
g2
(lp999
V,
p1000
atp1001
Rp1002
(dp1003
g12
V,
p1004
sbatp1005
Rp1006
(dp1007
g12
VNP
p1008
sbag0
(g1
g2
(lp1009
g0
(g1
g2
(lp1010
Vis
p1011
atp1012
Rp1013
(dp1014
g12
VVBZ
p1015
sbag0
(g1
g2
(lp1016
g0
(g1
g2
(lp1017
g0
(g1
g2
(lp1018
Vthe
p1019
atp1020
Rp1021
(dp1022
g12
VDT
p1023
sbatp1024
Rp1025
(dp1026
g12
VNP
p1027
sbag0
(g1
g2
(lp1028
V,
p1029
atp1030
Rp1031
(dp1032
g12
V,
p1033
sbag0
(g1
g2
(lp1034
g0
(g1
g2
(lp1035
Vis
p1036
atp1037
Rp1038
(dp1039
g12
VVBZ
p1040
sbag0
(g1
g2
(lp1041
g0
(g1
g2
(lp1042
Vthe
p1043
atp1044
Rp1045
(dp1046
g12
VDT
p1047
sbag0
(g1
g2
(lp1048
Vlittle
p1049
atp1050
Rp1051
(dp1052
g12
VJJ
p1053
sbag0
(g1
g2
(lp1054
V,
p1055
atp1056
Rp1057
(dp1058
g12
V,
p1059
sbag0
(g1
g2
(lp1060
Vlittle
p1061
atp1062
Rp1063
(dp1064
g12
VJJ
p1065
sbag0
(g1
g2
(lp1066
Vdog
p1067
atp1068
Rp1069
(dp1070
g12
VNN
p1071
sbatp1072
Rp1073
(dp1074
g12
VNP
p1075
sbatp1076
Rp1077
(dp1078
g12
VVP
p1079
sbag0
(g1
g2
(lp1080
V,
p1081
atp1082
Rp1083
(dp1084
g12
V,
p1085
sbag0
(g1
g2
(lp1086
g0
(g1
g2
(lp1087
Vfollowing
p1088
atp1089
Rp1090
(dp1091
g12
VVBG
p1092
sbag0
(g1
g2
(lp1093
g0
(g1
g2
(lp1094
g0
(g1
g2
(lp1095
Vthe
p1096
atp1097
Rp1098
(dp1099
g12
VDT
p1100
sbag0
(g1
g2
(lp1101
Vfellow
p1102
atp1103
Rp1104
(dp1105
g12
VNN
p1106
sbatp1107
Rp1108
(dp1109
g12
VNP
p1110
sbag0
(g1
g2
(lp1111
g0
(g1
g2
(lp1112
g0
(g1
g2
(lp1113
Vthat
p1114
atp1115
Rp1116
(dp1117
g12
VWDT
p1118
sbatp1119
Rp1120
(dp1121
g12
VWHNP
p1122
sbag0
(g1
g2
(lp1123
g0
(g1
g2
(lp1124
g0
(g1
g2
(lp1125
V's
p1126
atp1127
Rp1128
(dp1129
g12
VVBZ
p1130
sbag0
(g1
g2
(lp1131
g0
(g1
g2
(lp1132
Vpulling
p1133
atp1134
Rp1135
(dp1136
g12
VVBG
p1137
sbag0
(g1
g2
(lp1138
g0
(g1
g2
(lp1139
Vthe
p1140
atp1141
Rp1142
(dp1143
g12
VDT
p1144
sbag0
(g1
g2
(lp1145
Vflag
p1146
atp1147
Rp1148
(dp1149
g12
VNN
p1150
sbatp1151
Rp1152
(dp1153
g12
VNP
p1154
sbatp1155
Rp1156
(dp1157
g12
VVP
p1158
sbatp1159
Rp1160
(dp1161
g12
VVP
p1162
sbatp1163
Rp1164
(dp1165
g12
VS
p1166
sbatp1167
Rp1168
(dp1169
g12
VSBAR
p1170
sbatp1171
Rp1172
(dp1173
g12
VNP
p1174
sbatp1175
Rp1176
(dp1177
g12
VPP
p1178
sbatp1179
Rp1180
(dp1181
g12
VNP
p1182
sbatp1183
Rp1184
(dp1185
g12
VVP
p1186
sbag0
(g1
g2
(lp1187
V.
p1188
atp1189
Rp1190
(dp1191
g12
V.
p1192
sbatp1193
Rp1194
(dp1195
g12
VS
p1196
sbatp1197
Rp1198
(dp1199
g12
S'id: 6'
p1200
sbag0
(g1
g2
(lp1201
g0
(g1
g2
(lp1202
g0
(g1
g2
(lp1203
g0
(g1
g2
(lp1204
VHe
p1205
atp1206
Rp1207
(dp1208
g12
VPRP
p1209
sbatp1210
Rp1211
(dp1212
g12
VNP
p1213
sbag0
(g1
g2
(lp1214
g0
(g1
g2
(lp1215
Vis
p1216
atp1217
Rp1218
(dp1219
g12
VVBZ
p1220
sbag0
(g1
g2
(lp1221
g0
(g1
g2
(lp1222
Vhappy
p1223
atp1224
Rp1225
(dp1226
g12
VJJ
p1227
sbatp1228
Rp1229
(dp1230
g12
VADJP
p1231
sbag0
(g1
g2
(lp1232
g0
(g1
g2
(lp1233
Vas
p1234
atp1235
Rp1236
(dp1237
g12
VIN
p1238
sbag0
(g1
g2
(lp1239
g0
(g1
g2
(lp1240
g0
(g1
g2
(lp1241
Vhe
p1242
atp1243
Rp1244
(dp1245
g12
VPRP
p1246
sbatp1247
Rp1248
(dp1249
g12
VNP
p1250
sbag0
(g1
g2
(lp1251
g0
(g1
g2
(lp1252
Vcan
p1253
atp1254
Rp1255
(dp1256
g12
VMD
p1257
sbag0
(g1
g2
(lp1258
g0
(g1
g2
(lp1259
Vbe
p1260
atp1261
Rp1262
(dp1263
g12
VVB
p1264
sbag0
(g1
g2
(lp1265
g0
(g1
g2
(lp1266
Vtoo
p1267
atp1268
Rp1269
(dp1270
g12
VRB
p1271
sbatp1272
Rp1273
(dp1274
g12
VADVP
p1275
sbag0
(g1
g2
(lp1276
V,
p1277
atp1278
Rp1279
(dp1280
g12
V,
p1281
sbag0
(g1
g2
(lp1282
g0
(g1
g2
(lp1283
g0
(g1
g2
(lp1284
Vgetting
p1285
atp1286
Rp1287
(dp1288
g12
VVBG
p1289
sbag0
(g1
g2
(lp1290
g0
(g1
g2
(lp1291
g0
(g1
g2
(lp1292
Vit
p1293
atp1294
Rp1295
(dp1296
g12
VPRP
p1297
sbatp1298
Rp1299
(dp1300
g12
VNP
p1301
sbag0
(g1
g2
(lp1302
g0
(g1
g2
(lp1303
Vdone
p1304
atp1305
Rp1306
(dp1307
g12
VVBN
p1308
sbatp1309
Rp1310
(dp1311
g12
VVP
p1312
sbatp1313
Rp1314
(dp1315
g12
VS
p1316
sbatp1317
Rp1318
(dp1319
g12
VVP
p1320
sbatp1321
Rp1322
(dp1323
g12
VS
p1324
sbatp1325
Rp1326
(dp1327
g12
VVP
p1328
sbatp1329
Rp1330
(dp1331
g12
VVP
p1332
sbatp1333
Rp1334
(dp1335
g12
VS
p1336
sbatp1337
Rp1338
(dp1339
g12
VSBAR
p1340
sbatp1341
Rp1342
(dp1343
g12
VVP
p1344
sbag0
(g1
g2
(lp1345
V.
p1346
atp1347
Rp1348
(dp1349
g12
V.
p1350
sbatp1351
Rp1352
(dp1353
g12
VS
p1354
sbatp1355
Rp1356
(dp1357
g12
S'id: 7'
p1358
sbag0
(g1
g2
(lp1359
g0
(g1
g2
(lp1360
g0
(g1
g2
(lp1361
g0
(g1
g2
(lp1362
g0
(g1
g2
(lp1363
VThere
p1364
atp1365
Rp1366
(dp1367
g12
VEX
p1368
sbatp1369
Rp1370
(dp1371
g12
VNP
p1372
sbag0
(g1
g2
(lp1373
g0
(g1
g2
(lp1374
V's
p1375
atp1376
Rp1377
(dp1378
g12
VVBZ
p1379
sbag0
(g1
g2
(lp1380
g0
(g1
g2
(lp1381
g0
(g1
g2
(lp1382
Va
p1383
atp1384
Rp1385
(dp1386
g12
VDT
p1387
sbag0
(g1
g2
(lp1388
Vfellow
p1389
atp1390
Rp1391
(dp1392
g12
VNN
p1393
sbatp1394
Rp1395
(dp1396
g12
VNP
p1397
sbag0
(g1
g2
(lp1398
g0
(g1
g2
(lp1399
Vout
p1400
atp1401
Rp1402
(dp1403
g12
VIN
p1404
sbag0
(g1
g2
(lp1405
g0
(g1
g2
(lp1406
g0
(g1
g2
(lp1407
Vthere
p1408
atp1409
Rp1410
(dp1411
g12
VRB
p1412
sbatp1413
Rp1414
(dp1415
g12
VNP
p1416
sbag0
(g1
g2
(lp1417
V,
p1418
atp1419
Rp1420
(dp1421
g12
V,
p1422
sbag0
(g1
g2
(lp1423
g0
(g1
g2
(lp1424
g0
(g1
g2
(lp1425
Vo
p1426
atp1427
Rp1428
(dp1429
g12
VNN
p1430
sbatp1431
Rp1432
(dp1433
g12
VNP
p1434
sbag0
(g1
g2
(lp1435
g0
(g1
g2
(lp1436
g0
(g1
g2
(lp1437
g0
(g1
g2
(lp1438
Vhe
p1439
atp1440
Rp1441
(dp1442
g12
VPRP
p1443
sbatp1444
Rp1445
(dp1446
g12
VNP
p1447
sbag0
(g1
g2
(lp1448
g0
(g1
g2
(lp1449
V's
p1450
atp1451
Rp1452
(dp1453
g12
VVBZ
p1454
sbag0
(g1
g2
(lp1455
V,
p1456
atp1457
Rp1458
(dp1459
g12
V,
p1460
sbag0
(g1
g2
(lp1461
g0
(g1
g2
(lp1462
g0
(g1
g2
(lp1463
g0
(g1
g2
(lp1464
Vo
p1465
atp1466
Rp1467
(dp1468
g12
VNN
p1469
sbatp1470
Rp1471
(dp1472
g12
VNP
p1473
sbag0
(g1
g2
(lp1474
g0
(g1
g2
(lp1475
Vi
p1476
atp1477
Rp1478
(dp1479
g12
VFW
p1480
sbatp1481
Rp1482
(dp1483
g12
VNP
p1484
sbatp1485
Rp1486
(dp1487
g12
VNP
p1488
sbag0
(g1
g2
(lp1489
g0
(g1
g2
(lp1490
Vguess
p1491
atp1492
Rp1493
(dp1494
g12
VNN
p1495
sbag0
(g1
g2
(lp1496
g0
(g1
g2
(lp1497
g0
(g1
g2
(lp1498
g0
(g1
g2
(lp1499
Vhe
p1500
atp1501
Rp1502
(dp1503
g12
VPRP
p1504
sbatp1505
Rp1506
(dp1507
g12
VNP
p1508
sbag0
(g1
g2
(lp1509
g0
(g1
g2
(lp1510
V's
p1511
atp1512
Rp1513
(dp1514
g12
VVBZ
p1515
sbag0
(g1
g2
(lp1516
g0
(g1
g2
(lp1517
Vseen
p1518
atp1519
Rp1520
(dp1521
g12
VVBN
p1522
sbatp1523
Rp1524
(dp1525
g12
VVP
p1526
sbatp1527
Rp1528
(dp1529
g12
VVP
p1530
sbatp1531
Rp1532
(dp1533
g12
VS
p1534
sbatp1535
Rp1536
(dp1537
g12
VSBAR
p1538
sbatp1539
Rp1540
(dp1541
g12
VVP
p1542
sbatp1543
Rp1544
(dp1545
g12
VS
p1546
sbatp1547
Rp1548
(dp1549
g12
VVP
p1550
sbatp1551
Rp1552
(dp1553
g12
VS
p1554
sbatp1555
Rp1556
(dp1557
g12
VSBAR
p1558
sbatp1559
Rp1560
(dp1561
g12
VNP
p1562
sbatp1563
Rp1564
(dp1565
g12
VNP
p1566
sbatp1567
Rp1568
(dp1569
g12
VPP
p1570
sbatp1571
Rp1572
(dp1573
g12
VNP
p1574
sbatp1575
Rp1576
(dp1577
g12
VVP
p1578
sbatp1579
Rp1580
(dp1581
g12
VS
p1582
sbag0
(g1
g2
(lp1583
V,
p1584
atp1585
Rp1586
(dp1587
g12
V,
p1588
sbag0
(g1
g2
(lp1589
g0
(g1
g2
(lp1590
g0
(g1
g2
(lp1591
Vhe
p1592
atp1593
Rp1594
(dp1595
g12
VPRP
p1596
sbatp1597
Rp1598
(dp1599
g12
VNP
p1600
sbag0
(g1
g2
(lp1601
g0
(g1
g2
(lp1602
V's
p1603
atp1604
Rp1605
(dp1606
g12
VVBZ
p1607
sbag0
(g1
g2
(lp1608
g0
(g1
g2
(lp1609
Vgot
p1610
atp1611
Rp1612
(dp1613
g12
VVBD
p1614
sbag0
(g1
g2
(lp1615
g0
(g1
g2
(lp1616
Va
p1617
atp1618
Rp1619
(dp1620
g12
VDT
p1621
sbag0
(g1
g2
(lp1622
Vfish
p1623
atp1624
Rp1625
(dp1626
g12
VNN
p1627
sbatp1628
Rp1629
(dp1630
g12
VNP
p1631
sbatp1632
Rp1633
(dp1634
g12
VVP
p1635
sbatp1636
Rp1637
(dp1638
g12
VVP
p1639
sbatp1640
Rp1641
(dp1642
g12
VS
p1643
sbag0
(g1
g2
(lp1644
V,
p1645
atp1646
Rp1647
(dp1648
g12
V,
p1649
sbag0
(g1
g2
(lp1650
g0
(g1
g2
(lp1651
g0
(g1
g2
(lp1652
Vhe
p1653
atp1654
Rp1655
(dp1656
g12
VPRP
p1657
sbatp1658
Rp1659
(dp1660
g12
VNP
p1661
sbag0
(g1
g2
(lp1662
g0
(g1
g2
(lp1663
V's
p1664
atp1665
Rp1666
(dp1667
g12
VVBZ
p1668
sbag0
(g1
g2
(lp1669
g0
(g1
g2
(lp1670
Vpulled
p1671
atp1672
Rp1673
(dp1674
g12
VVBN
p1675
sbag0
(g1
g2
(lp1676
g0
(g1
g2
(lp1677
Vup
p1678
atp1679
Rp1680
(dp1681
g12
VRP
p1682
sbatp1683
Rp1684
(dp1685
g12
VPRT
p1686
sbag0
(g1
g2
(lp1687
g0
(g1
g2
(lp1688
Va
p1689
atp1690
Rp1691
(dp1692
g12
VDT
p1693
sbag0
(g1
g2
(lp1694
Vfish
p1695
atp1696
Rp1697
(dp1698
g12
VNN
p1699
sbatp1700
Rp1701
(dp1702
g12
VNP
p1703
sbatp1704
Rp1705
(dp1706
g12
VVP
p1707
sbatp1708
Rp1709
(dp1710
g12
VVP
p1711
sbatp1712
Rp1713
(dp1714
g12
VS
p1715
sbag0
(g1
g2
(lp1716
V.
p1717
atp1718
Rp1719
(dp1720
g12
V.
p1721
sbatp1722
Rp1723
(dp1724
g12
VS
p1725
sbatp1726
Rp1727
(dp1728
g12
S'id: 8'
p1729
sbag0
(g1
g2
(lp1730
g0
(g1
g2
(lp1731
g0
(g1
g2
(lp1732
VAnd
p1733
atp1734
Rp1735
(dp1736
g12
VCC
p1737
sbag0
(g1
g2
(lp1738
g0
(g1
g2
(lp1739
Vthen
p1740
atp1741
Rp1742
(dp1743
g12
VRB
p1744
sbatp1745
Rp1746
(dp1747
g12
VADVP
p1748
sbag0
(g1
g2
(lp1749
g0
(g1
g2
(lp1750
Vthere
p1751
atp1752
Rp1753
(dp1754
g12
VEX
p1755
sbatp1756
Rp1757
(dp1758
g12
VNP
p1759
sbag0
(g1
g2
(lp1760
g0
(g1
g2
(lp1761
V's
p1762
atp1763
Rp1764
(dp1765
g12
VVBZ
p1766
sbag0
(g1
g2
(lp1767
g0
(g1
g2
(lp1768
Vthe
p1769
atp1770
Rp1771
(dp1772
g12
VDT
p1773
sbag0
(g1
g2
(lp1774
Vflag
p1775
atp1776
Rp1777
(dp1778
g12
VNN
p1779
sbatp1780
Rp1781
(dp1782
g12
VNP
p1783
sbatp1784
Rp1785
(dp1786
g12
VVP
p1787
sbag0
(g1
g2
(lp1788
V.
p1789
atp1790
Rp1791
(dp1792
g12
V.
p1793
sbatp1794
Rp1795
(dp1796
g12
VS
p1797
sbatp1798
Rp1799
(dp1800
g12
S'id: 9'
p1801
sbag0
(g1
g2
(lp1802
g0
(g1
g2
(lp1803
g0
(g1
g2
(lp1804
g0
(g1
g2
(lp1805
g0
(g1
g2
(lp1806
VI
p1807
atp1808
Rp1809
(dp1810
g12
VPRP
p1811
sbatp1812
Rp1813
(dp1814
g12
VNP
p1815
sbag0
(g1
g2
(lp1816
g0
(g1
g2
(lp1817
Vdo
p1818
atp1819
Rp1820
(dp1821
g12
VVBP
p1822
sbag0
(g1
g2
(lp1823
Vn't
p1824
atp1825
Rp1826
(dp1827
g12
VRB
p1828
sbag0
(g1
g2
(lp1829
g0
(g1
g2
(lp1830
Vremember
p1831
atp1832
Rp1833
(dp1834
g12
VVB
p1835
sbag0
(g1
g2
(lp1836
g0
(g1
g2
(lp1837
Vthe
p1838
atp1839
Rp1840
(dp1841
g12
VDT
p1842
sbag0
(g1
g2
(lp1843
Vflag
p1844
atp1845
Rp1846
(dp1847
g12
VNN
p1848
sbatp1849
Rp1850
(dp1851
g12
VNP
p1852
sbag0
(g1
g2
(lp1853
g0
(g1
g2
(lp1854
Vbefore
p1855
atp1856
Rp1857
(dp1858
g12
VRB
p1859
sbatp1860
Rp1861
(dp1862
g12
VADVP
p1863
sbatp1864
Rp1865
(dp1866
g12
VVP
p1867
sbatp1868
Rp1869
(dp1870
g12
VVP
p1871
sbatp1872
Rp1873
(dp1874
g12
VS
p1875
sbag0
(g1
g2
(lp1876
V,
p1877
atp1878
Rp1879
(dp1880
g12
V,
p1881
sbag0
(g1
g2
(lp1882
g0
(g1
g2
(lp1883
Vmaybe
p1884
atp1885
Rp1886
(dp1887
g12
VRB
p1888
sbatp1889
Rp1890
(dp1891
g12
VADVP
p1892
sbag0
(g1
g2
(lp1893
g0
(g1
g2
(lp1894
g0
(g1
g2
(lp1895
VI
p1896
atp1897
Rp1898
(dp1899
g12
VPRP
p1900
sbatp1901
Rp1902
(dp1903
g12
VNP
p1904
sbag0
(g1
g2
(lp1905
g0
(g1
g2
(lp1906
Vdid
p1907
atp1908
Rp1909
(dp1910
g12
VVBD
p1911
sbatp1912
Rp1913
(dp1914
g12
VVP
p1915
sbatp1916
Rp1917
(dp1918
g12
VS
p1919
sbag0
(g1
g2
(lp1920
V.
p1921
atp1922
Rp1923
(dp1924
g12
V.
p1925
sbatp1926
Rp1927
(dp1928
g12
VS
p1929
sbatp1930
Rp1931
(dp1932
g12
S'id: 10'
p1933
sbag0
(g1
g2
(lp1934
g0
(g1
g2
(lp1935
g0
(g1
g2
(lp1936
g0
(g1
g2
(lp1937
VThe
p1938
atp1939
Rp1940
(dp1941
g12
VDT
p1942
sbag0
(g1
g2
(lp1943
Vflag
p1944
atp1945
Rp1946
(dp1947
g12
VNN
p1948
sbatp1949
Rp1950
(dp1951
g12
VNP
p1952
sbag0
(g1
g2
(lp1953
g0
(g1
g2
(lp1954
Vis
p1955
atp1956
Rp1957
(dp1958
g12
VVBZ
p1959
sbag0
(g1
g2
(lp1960
g0
(g1
g2
(lp1961
Vthere
p1962
atp1963
Rp1964
(dp1965
g12
VRB
p1966
sbatp1967
Rp1968
(dp1969
g12
VADVP
p1970
sbatp1971
Rp1972
(dp1973
g12
VVP
p1974
sbag0
(g1
g2
(lp1975
V.
p1976
atp1977
Rp1978
(dp1979
g12
V.
p1980
sbatp1981
Rp1982
(dp1983
g12
VS
p1984
sbatp1985
Rp1986
(dp1987
g12
S'id: 11'
p1988
sbag0
(g1
g2
(lp1989
g0
(g1
g2
(lp1990
g0
(g1
g2
(lp1991
g0
(g1
g2
(lp1992
VThere
p1993
atp1994
Rp1995
(dp1996
g12
VEX
p1997
sbatp1998
Rp1999
(dp2000
g12
VNP
p2001
sbag0
(g1
g2
(lp2002
g0
(g1
g2
(lp2003
V's
p2004
atp2005
Rp2006
(dp2007
g12
VVBZ
p2008
sbag0
(g1
g2
(lp2009
g0
(g1
g2
(lp2010
g0
(g1
g2
(lp2011
Va
p2012
atp2013
Rp2014
(dp2015
g12
VDT
p2016
sbag0
(g1
g2
(lp2017
Vcar
p2018
atp2019
Rp2020
(dp2021
g12
VNN
p2022
sbatp2023
Rp2024
(dp2025
g12
VNP
p2026
sbag0
(g1
g2
(lp2027
g0
(g1
g2
(lp2028
Vin
p2029
atp2030
Rp2031
(dp2032
g12
VIN
p2033
sbag0
(g1
g2
(lp2034
g0
(g1
g2
(lp2035
Vthe
p2036
atp2037
Rp2038
(dp2039
g12
VDT
p2040
sbag0
(g1
g2
(lp2041
Vgarage
p2042
atp2043
Rp2044
(dp2045
g12
VNN
p2046
sbatp2047
Rp2048
(dp2049
g12
VNP
p2050
sbatp2051
Rp2052
(dp2053
g12
VPP
p2054
sbatp2055
Rp2056
(dp2057
g12
VNP
p2058
sbatp2059
Rp2060
(dp2061
g12
VVP
p2062
sbag0
(g1
g2
(lp2063
V.
p2064
atp2065
Rp2066
(dp2067
g12
V.
p2068
sbatp2069
Rp2070
(dp2071
g12
VS
p2072
sbatp2073
Rp2074
(dp2075
g12
S'id: 12'
p2076
sbag0
(g1
g2
(lp2077
g0
(g1
g2
(lp2078
g0
(g1
g2
(lp2079
VAnd
p2080
atp2081
Rp2082
(dp2083
g12
VCC
p2084
sbag0
(g1
g2
(lp2085
g0
(g1
g2
(lp2086
Vthe
p2087
atp2088
Rp2089
(dp2090
g12
VDT
p2091
sbatp2092
Rp2093
(dp2094
g12
VNP-TMP
p2095
sbag0
(g1
g2
(lp2096
V,
p2097
atp2098
Rp2099
(dp2100
g12
V,
p2101
sbag0
(g1
g2
(lp2102
g0
(g1
g2
(lp2103
Vthere
p2104
atp2105
Rp2106
(dp2107
g12
VEX
p2108
sbatp2109
Rp2110
(dp2111
g12
VNP
p2112
sbag0
(g1
g2
(lp2113
g0
(g1
g2
(lp2114
V's
p2115
atp2116
Rp2117
(dp2118
g12
VVBZ
p2119
sbag0
(g1
g2
(lp2120
g0
(g1
g2
(lp2121
g0
(g1
g2
(lp2122
Va
p2123
atp2124
Rp2125
(dp2126
g12
VDT
p2127
sbag0
(g1
g2
(lp2128
Vcedar
p2129
atp2130
Rp2131
(dp2132
g12
VNN
p2133
sbag0
(g1
g2
(lp2134
Vtree
p2135
atp2136
Rp2137
(dp2138
g12
VNN
p2139
sbatp2140
Rp2141
(dp2142
g12
VNP
p2143
sbag0
(g1
g2
(lp2144
V,
p2145
atp2146
Rp2147
(dp2148
g12
V,
p2149
sbag0
(g1
g2
(lp2150
Vor
p2151
atp2152
Rp2153
(dp2154
g12
VCC
p2155
sbag0
(g1
g2
(lp2156
g0
(g1
g2
(lp2157
g0
(g1
g2
(lp2158
Vsome
p2159
atp2160
Rp2161
(dp2162
g12
VDT
p2163
sbag0
(g1
g2
(lp2164
Vkind
p2165
atp2166
Rp2167
(dp2168
g12
VNN
p2169
sbatp2170
Rp2171
(dp2172
g12
VNP
p2173
sbag0
(g1
g2
(lp2174
g0
(g1
g2
(lp2175
Vof
p2176
atp2177
Rp2178
(dp2179
g12
VIN
p2180
sbag0
(g1
g2
(lp2181
g0
(g1
g2
(lp2182
Vtree
p2183
atp2184
Rp2185
(dp2186
g12
VNN
p2187
sbatp2188
Rp2189
(dp2190
g12
VNP
p2191
sbatp2192
Rp2193
(dp2194
g12
VPP
p2195
sbatp2196
Rp2197
(dp2198
g12
VNP
p2199
sbatp2200
Rp2201
(dp2202
g12
VNP
p2203
sbatp2204
Rp2205
(dp2206
g12
VVP
p2207
sbag0
(g1
g2
(lp2208
V.
p2209
atp2210
Rp2211
(dp2212
g12
V.
p2213
sbatp2214
Rp2215
(dp2216
g12
VS
p2217
sbatp2218
Rp2219
(dp2220
g12
S'id: 13'
p2221
sbag0
(g1
g2
(lp2222
g0
(g1
g2
(lp2223
g0
(g1
g2
(lp2224
g0
(g1
g2
(lp2225
g0
(g1
g2
(lp2226
VI
p2227
atp2228
Rp2229
(dp2230
g12
VPRP
p2231
sbatp2232
Rp2233
(dp2234
g12
VNP
p2235
sbag0
(g1
g2
(lp2236
g0
(g1
g2
(lp2237
Vthink
p2238
atp2239
Rp2240
(dp2241
g12
VVBP
p2242
sbag0
(g1
g2
(lp2243
g0
(g1
g2
(lp2244
g0
(g1
g2
(lp2245
g0
(g1
g2
(lp2246
Vit
p2247
atp2248
Rp2249
(dp2250
g12
VPRP
p2251
sbatp2252
Rp2253
(dp2254
g12
VNP
p2255
sbag0
(g1
g2
(lp2256
g0
(g1
g2
(lp2257
V's
p2258
atp2259
Rp2260
(dp2261
g12
VVBZ
p2262
sbag0
(g1
g2
(lp2263
g0
(g1
g2
(lp2264
Va
p2265
atp2266
Rp2267
(dp2268
g12
VDT
p2269
sbag0
(g1
g2
(lp2270
Vcedar
p2271
atp2272
Rp2273
(dp2274
g12
VNN
p2275
sbag0
(g1
g2
(lp2276
Vtree
p2277
atp2278
Rp2279
(dp2280
g12
VNN
p2281
sbatp2282
Rp2283
(dp2284
g12
VNP
p2285
sbatp2286
Rp2287
(dp2288
g12
VVP
p2289
sbatp2290
Rp2291
(dp2292
g12
VS
p2293
sbatp2294
Rp2295
(dp2296
g12
VSBAR
p2297
sbatp2298
Rp2299
(dp2300
g12
VVP
p2301
sbatp2302
Rp2303
(dp2304
g12
VS
p2305
sbag0
(g1
g2
(lp2306
V,
p2307
atp2308
Rp2309
(dp2310
g12
V,
p2311
sbag0
(g1
g2
(lp2312
g0
(g1
g2
(lp2313
VI
p2314
atp2315
Rp2316
(dp2317
g12
VPRP
p2318
sbatp2319
Rp2320
(dp2321
g12
VNP
p2322
sbag0
(g1
g2
(lp2323
g0
(g1
g2
(lp2324
Vdo
p2325
atp2326
Rp2327
(dp2328
g12
VVBP
p2329
sbag0
(g1
g2
(lp2330
Vn't
p2331
atp2332
Rp2333
(dp2334
g12
VRB
p2335
sbag0
(g1
g2
(lp2336
g0
(g1
g2
(lp2337
Vknow
p2338
atp2339
Rp2340
(dp2341
g12
VVB
p2342
sbatp2343
Rp2344
(dp2345
g12
VVP
p2346
sbatp2347
Rp2348
(dp2349
g12
VVP
p2350
sbag0
(g1
g2
(lp2351
V.
p2352
atp2353
Rp2354
(dp2355
g12
V.
p2356
sbatp2357
Rp2358
(dp2359
g12
VS
p2360
sbatp2361
Rp2362
(dp2363
g12
S'id: 14'
p2364
sbag0
(g1
g2
(lp2365
g0
(g1
g2
(lp2366
g0
(g1
g2
(lp2367
VAnd
p2368
atp2369
Rp2370
(dp2371
g12
VCC
p2372
sbag0
(g1
g2
(lp2373
g0
(g1
g2
(lp2374
Vthen
p2375
atp2376
Rp2377
(dp2378
g12
VRB
p2379
sbatp2380
Rp2381
(dp2382
g12
VADVP
p2383
sbag0
(g1
g2
(lp2384
g0
(g1
g2
(lp2385
Vit
p2386
atp2387
Rp2388
(dp2389
g12
VPRP
p2390
sbatp2391
Rp2392
(dp2393
g12
VNP
p2394
sbag0
(g1
g2
(lp2395
g0
(g1
g2
(lp2396
Vhas
p2397
atp2398
Rp2399
(dp2400
g12
VVBZ
p2401
sbag0
(g1
g2
(lp2402
g0
(g1
g2
(lp2403
g0
(g1
g2
(lp2404
Vfoliage
p2405
atp2406
Rp2407
(dp2408
g12
VNN
p2409
sbatp2410
Rp2411
(dp2412
g12
VNP
p2413
sbag0
(g1
g2
(lp2414
g0
(g1
g2
(lp2415
Varound
p2416
atp2417
Rp2418
(dp2419
g12
VIN
p2420
sbag0
(g1
g2
(lp2421
g0
(g1
g2
(lp2422
Vthe
p2423
atp2424
Rp2425
(dp2426
g12
VDT
p2427
sbag0
(g1
g2
(lp2428
Vhouse
p2429
atp2430
Rp2431
(dp2432
g12
VNN
p2433
sbatp2434
Rp2435
(dp2436
g12
VNP
p2437
sbatp2438
Rp2439
(dp2440
g12
VPP
p2441
sbatp2442
Rp2443
(dp2444
g12
VNP
p2445
sbatp2446
Rp2447
(dp2448
g12
VVP
p2449
sbag0
(g1
g2
(lp2450
V.
p2451
atp2452
Rp2453
(dp2454
g12
V.
p2455
sbatp2456
Rp2457
(dp2458
g12
VS
p2459
sbatp2460
Rp2461
(dp2462
g12
S'id: 15'
p2463
sbag0
(g1
g2
(lp2464
g0
(g1
g2
(lp2465
g0
(g1
g2
(lp2466
VAnd
p2467
atp2468
Rp2469
(dp2470
g12
VCC
p2471
sbag0
(g1
g2
(lp2472
g0
(g1
g2
(lp2473
Vit
p2474
atp2475
Rp2476
(dp2477
g12
VPRP
p2478
sbatp2479
Rp2480
(dp2481
g12
VNP
p2482
sbag0
(g1
g2
(lp2483
g0
(g1
g2
(lp2484
Vhas
p2485
atp2486
Rp2487
(dp2488
g12
VVBZ
p2489
sbag0
(g1
g2
(lp2490
g0
(g1
g2
(lp2491
g0
(g1
g2
(lp2492
Vthe
p2493
atp2494
Rp2495
(dp2496
g12
VDT
p2497
sbag0
(g1
g2
(lp2498
Vgirl
p2499
atp2500
Rp2501
(dp2502
g12
VNN
p2503
sbatp2504
Rp2505
(dp2506
g12
VNP
p2507
sbag0
(g1
g2
(lp2508
g0
(g1
g2
(lp2509
Vin
p2510
atp2511
Rp2512
(dp2513
g12
VIN
p2514
sbag0
(g1
g2
(lp2515
g0
(g1
g2
(lp2516
g0
(g1
g2
(lp2517
Vthe
p2518
atp2519
Rp2520
(dp2521
g12
VDT
p2522
sbatp2523
Rp2524
(dp2525
g12
VNP
p2526
sbag0
(g1
g2
(lp2527
V,
p2528
atp2529
Rp2530
(dp2531
g12
V,
p2532
sbag0
(g1
g2
(lp2533
g0
(g1
g2
(lp2534
Vin
p2535
atp2536
Rp2537
(dp2538
g12
VIN
p2539
sbag0
(g1
g2
(lp2540
g0
(g1
g2
(lp2541
Vthe
p2542
atp2543
Rp2544
(dp2545
g12
VDT
p2546
sbag0
(g1
g2
(lp2547
Vsand
p2548
atp2549
Rp2550
(dp2551
g12
VNN
p2552
sbag0
(g1
g2
(lp2553
Vbed
p2554
atp2555
Rp2556
(dp2557
g12
VNN
p2558
sbatp2559
Rp2560
(dp2561
g12
VNP
p2562
sbatp2563
Rp2564
(dp2565
g12
VPP
p2566
sbag0
(g1
g2
(lp2567
V,
p2568
atp2569
Rp2570
(dp2571
g12
V,
p2572
sbag0
(g1
g2
(lp2573
g0
(g1
g2
(lp2574
Vmaking
p2575
atp2576
Rp2577
(dp2578
g12
VVBG
p2579
sbag0
(g1
g2
(lp2580
g0
(g1
g2
(lp2581
Vthe
p2582
atp2583
Rp2584
(dp2585
g12
VDT
p2586
sbag0
(g1
g2
(lp2587
Vsand
p2588
atp2589
Rp2590
(dp2591
g12
VNN
p2592
sbatp2593
Rp2594
(dp2595
g12
VNP
p2596
sbatp2597
Rp2598
(dp2599
g12
VVP
p2600
sbag0
(g1
g2
(lp2601
V,
p2602
atp2603
Rp2604
(dp2605
g12
V,
p2606
sbag0
(g1
g2
(lp2607
g0
(g1
g2
(lp2608
Vmaking
p2609
atp2610
Rp2611
(dp2612
g12
VVBG
p2613
sbag0
(g1
g2
(lp2614
g0
(g1
g2
(lp2615
Vsand
p2616
atp2617
Rp2618
(dp2619
g12
VNN
p2620
sbag0
(g1
g2
(lp2621
Vcastle
p2622
atp2623
Rp2624
(dp2625
g12
VNN
p2626
sbatp2627
Rp2628
(dp2629
g12
VNP
p2630
sbatp2631
Rp2632
(dp2633
g12
VVP
p2634
sbatp2635
Rp2636
(dp2637
g12
VNP
p2638
sbatp2639
Rp2640
(dp2641
g12
VPP
p2642
sbatp2643
Rp2644
(dp2645
g12
VNP
p2646
sbatp2647
Rp2648
(dp2649
g12
VVP
p2650
sbag0
(g1
g2
(lp2651
V.
p2652
atp2653
Rp2654
(dp2655
g12
V.
p2656
sbatp2657
Rp2658
(dp2659
g12
VS
p2660
sbatp2661
Rp2662
(dp2663
g12
S'id: 16'
p2664
sbag0
(g1
g2
(lp2665
g0
(g1
g2
(lp2666
g0
(g1
g2
(lp2667
g0
(g1
g2
(lp2668
Vthat
p2669
atp2670
Rp2671
(dp2672
g12
VDT
p2673
sbatp2674
Rp2675
(dp2676
g12
VNP
p2677
sbag0
(g1
g2
(lp2678
g0
(g1
g2
(lp2679
V's
p2680
atp2681
Rp2682
(dp2683
g12
VVBZ
p2684
sbag0
(g1
g2
(lp2685
g0
(g1
g2
(lp2686
g0
(g1
g2
(lp2687
Va
p2688
atp2689
Rp2690
(dp2691
g12
VDT
p2692
sbag0
(g1
g2
(lp2693
Vcastle
p2694
atp2695
Rp2696
(dp2697
g12
VNN
p2698
sbatp2699
Rp2700
(dp2701
g12
VNP
p2702
sbag0
(g1
g2
(lp2703
g0
(g1
g2
(lp2704
g0
(g1
g2
(lp2705
g0
(g1
g2
(lp2706
Vshe
p2707
atp2708
Rp2709
(dp2710
g12
VPRP
p2711
sbatp2712
Rp2713
(dp2714
g12
VNP
p2715
sbag0
(g1
g2
(lp2716
g0
(g1
g2
(lp2717
V's
p2718
atp2719
Rp2720
(dp2721
g12
VVBZ
p2722
sbag0
(g1
g2
(lp2723
g0
(g1
g2
(lp2724
Vgot
p2725
atp2726
Rp2727
(dp2728
g12
VVBN
p2729
sbag0
(g1
g2
(lp2730
g0
(g1
g2
(lp2731
Vthere
p2732
atp2733
Rp2734
(dp2735
g12
VRB
p2736
sbatp2737
Rp2738
(dp2739
g12
VADVP
p2740
sbatp2741
Rp2742
(dp2743
g12
VVP
p2744
sbatp2745
Rp2746
(dp2747
g12
VVP
p2748
sbatp2749
Rp2750
(dp2751
g12
VS
p2752
sbatp2753
Rp2754
(dp2755
g12
VSBAR
p2756
sbatp2757
Rp2758
(dp2759
g12
VNP
p2760
sbatp2761
Rp2762
(dp2763
g12
VVP
p2764
sbag0
(g1
g2
(lp2765
V.
p2766
atp2767
Rp2768
(dp2769
g12
V.
p2770
sbatp2771
Rp2772
(dp2773
g12
VS
p2774
sbatp2775
Rp2776
(dp2777
g12
S'id: 17'
p2778
sbag0
(g1
g2
(lp2779
g0
(g1
g2
(lp2780
g0
(g1
g2
(lp2781
VAnd
p2782
atp2783
Rp2784
(dp2785
g12
VCC
p2786
sbag0
(g1
g2
(lp2787
g0
(g1
g2
(lp2788
Vthen
p2789
atp2790
Rp2791
(dp2792
g12
VRB
p2793
sbatp2794
Rp2795
(dp2796
g12
VADVP
p2797
sbag0
(g1
g2
(lp2798
g0
(g1
g2
(lp2799
Vthere
p2800
atp2801
Rp2802
(dp2803
g12
VEX
p2804
sbatp2805
Rp2806
(dp2807
g12
VNP
p2808
sbag0
(g1
g2
(lp2809
g0
(g1
g2
(lp2810
V's
p2811
atp2812
Rp2813
(dp2814
g12
VVBZ
p2815
sbag0
(g1
g2
(lp2816
g0
(g1
g2
(lp2817
g0
(g1
g2
(lp2818
Va
p2819
atp2820
Rp2821
(dp2822
g12
VDT
p2823
sbag0
(g1
g2
(lp2824
Vstick
p2825
atp2826
Rp2827
(dp2828
g12
VNN
p2829
sbatp2830
Rp2831
(dp2832
g12
VNP
p2833
sbag0
(g1
g2
(lp2834
g0
(g1
g2
(lp2835
Vin
p2836
atp2837
Rp2838
(dp2839
g12
VIN
p2840
sbag0
(g1
g2
(lp2841
g0
(g1
g2
(lp2842
Va
p2843
atp2844
Rp2845
(dp2846
g12
VDT
p2847
sbag0
(g1
g2
(lp2848
Vbowl
p2849
atp2850
Rp2851
(dp2852
g12
VNN
p2853
sbatp2854
Rp2855
(dp2856
g12
VNP
p2857
sbatp2858
Rp2859
(dp2860
g12
VPP
p2861
sbatp2862
Rp2863
(dp2864
g12
VNP
p2865
sbag0
(g1
g2
(lp2866
g0
(g1
g2
(lp2867
Vthere
p2868
atp2869
Rp2870
(dp2871
g12
VRB
p2872
sbatp2873
Rp2874
(dp2875
g12
VADVP
p2876
sbatp2877
Rp2878
(dp2879
g12
VVP
p2880
sbag0
(g1
g2
(lp2881
V.
p2882
atp2883
Rp2884
(dp2885
g12
V.
p2886
sbatp2887
Rp2888
(dp2889
g12
VS
p2890
sbatp2891
Rp2892
(dp2893
g12
S'id: 18'
p2894
sbag0
(g1
g2
(lp2895
g0
(g1
g2
(lp2896
g0
(g1
g2
(lp2897
VAnd
p2898
atp2899
Rp2900
(dp2901
g12
VCC
p2902
sbag0
(g1
g2
(lp2903
g0
(g1
g2
(lp2904
Vin
p2905
atp2906
Rp2907
(dp2908
g12
VIN
p2909
sbag0
(g1
g2
(lp2910
g0
(g1
g2
(lp2911
Vthis
p2912
atp2913
Rp2914
(dp2915
g12
VDT
p2916
sbag0
(g1
g2
(lp2917
Vone
p2918
atp2919
Rp2920
(dp2921
g12
VCD
p2922
sbatp2923
Rp2924
(dp2925
g12
VNP
p2926
sbatp2927
Rp2928
(dp2929
g12
VPP
p2930
sbag0
(g1
g2
(lp2931
V,
p2932
atp2933
Rp2934
(dp2935
g12
V,
p2936
sbag0
(g1
g2
(lp2937
g0
(g1
g2
(lp2938
Vis
p2939
atp2940
Rp2941
(dp2942
g12
VVBZ
p2943
sbag0
(g1
g2
(lp2944
g0
(g1
g2
(lp2945
g0
(g1
g2
(lp2946
Vtwo
p2947
atp2948
Rp2949
(dp2950
g12
VCD
p2951
sbatp2952
Rp2953
(dp2954
g12
VNP
p2955
sbag0
(g1
g2
(lp2956
V,
p2957
atp2958
Rp2959
(dp2960
g12
V,
p2961
sbag0
(g1
g2
(lp2962
g0
(g1
g2
(lp2963
Vtwo
p2964
atp2965
Rp2966
(dp2967
g12
VCD
p2968
sbag0
(g1
g2
(lp2969
Vpeople
p2970
atp2971
Rp2972
(dp2973
g12
VNNS
p2974
sbatp2975
Rp2976
(dp2977
g12
VNP
p2978
sbatp2979
Rp2980
(dp2981
g12
VNP
p2982
sbatp2983
Rp2984
(dp2985
g12
VVP
p2986
sbag0
(g1
g2
(lp2987
V.
p2988
atp2989
Rp2990
(dp2991
g12
V.
p2992
sbatp2993
Rp2994
(dp2995
g12
VS
p2996
sbatp2997
Rp2998
(dp2999
g12
S'id: 19'
p3000
sbatp3001
Rp3002
(dp3003
g12
S'sentences'
p3004
sb.