ccopy_reg
_reconstructor
p0
(cnltk.tree
Tree
p1
c__builtin__
list
p2
(lp3
g0
(g1
g2
(lp4
g0
(g1
g2
(lp5
g0
(g1
g2
(lp6
Vthe man
p7
atp8
Rp9
(dp10
S'_label'
p11
S'start: 6'
p12
sbatp13
Rp14
(dp15
g11
S'sent: 2'
p16
sbag0
(g1
g2
(lp17
g0
(g1
g2
(lp18
VThe man
p19
atp20
Rp21
(dp22
g11
S'start: 1'
p23
sbatp24
Rp25
(dp26
g11
S'sent: 3'
p27
sbag0
(g1
g2
(lp28
g0
(g1
g2
(lp29
Vthe man
p30
atp31
Rp32
(dp33
g11
S'start: 8'
p34
sbatp35
Rp36
(dp37
g11
S'sent: 4'
p38
sbag0
(g1
g2
(lp39
g0
(g1
g2
(lp40
Vthe man
p41
atp42
Rp43
(dp44
g11
S'start: 9'
p45
sbatp46
Rp47
(dp48
g11
S'sent: 5'
p49
sbatp50
Rp51
(dp52
g11
S'id: 2'
p53
sbag0
(g1
g2
(lp54
g0
(g1
g2
(lp55
g0
(g1
g2
(lp56
Vthe bleeding
p57
atp58
Rp59
(dp60
g11
S'start: 4'
p61
sbatp62
Rp63
(dp64
g11
S'sent: 3'
p65
sbag0
(g1
g2
(lp66
g0
(g1
g2
(lp67
VIt
p68
atp69
Rp70
(dp71
g11
S'start: 1'
p72
sbatp73
Rp74
(dp75
g11
S'sent: 4'
p76
sbatp77
Rp78
(dp79
g11
S'id: 4'
p80
sbag0
(g1
g2
(lp81
g0
(g1
g2
(lp82
g0
(g1
g2
(lp83
VI
p84
atp85
Rp86
(dp87
g11
S'start: 1'
p88
sbatp89
Rp90
(dp91
g11
S'sent: 5'
p92
sbag0
(g1
g2
(lp93
g0
(g1
g2
(lp94
VI
p95
atp96
Rp97
(dp98
g11
S'start: 2'
p99
sbatp100
Rp101
(dp102
g11
S'sent: 6'
p103
sbatp104
Rp105
(dp106
g11
S'id: 10'
p107
sbag0
(g1
g2
(lp108
g0
(g1
g2
(lp109
g0
(g1
g2
(lp110
Vgirl and a
p111
atp112
Rp113
(dp114
g11
S'start: 10'
p115
sbatp116
Rp117
(dp118
g11
S'sent: 6'
p119
sbag0
(g1
g2
(lp120
g0
(g1
g2
(lp121
Vthe girl
p122
atp123
Rp124
(dp125
g11
S'start: 9'
p126
sbatp127
Rp128
(dp129
g11
S'sent: 9'
p130
sbatp131
Rp132
(dp133
g11
S'id: 18'
p134
sbag0
(g1
g2
(lp135
g0
(g1
g2
(lp136
g0
(g1
g2
(lp137
VClown and somebody
p138
atp139
Rp140
(dp141
g11
S'start: 1'
p142
sbatp143
Rp144
(dp145
g11
S'sent: 8'
p146
sbag0
(g1
g2
(lp147
g0
(g1
g2
(lp148
VThey
p149
atp150
Rp151
(dp152
g11
S'start: 1'
p153
sbatp154
Rp155
(dp156
g11
S'sent: 9'
p157
sbatp158
Rp159
(dp160
g11
S'id: 20'
p161
sbatp162
Rp163
(dp164
g11
S'coreferences'
p165
sb.