ccopy_reg
_reconstructor
p0
(cnltk.tree
Tree
p1
c__builtin__
list
p2
(lp3
g0
(g1
g2
(lp4
g0
(g1
g2
(lp5
g0
(g1
g2
(lp6
Va cookie
p7
atp8
Rp9
(dp10
S'_label'
p11
S'start: 9'
p12
sbatp13
Rp14
(dp15
g11
S'sent: 2'
p16
sbag0
(g1
g2
(lp17
g0
(g1
g2
(lp18
Vcookie .
p19
atp20
Rp21
(dp22
g11
S'start: 1'
p23
sbatp24
Rp25
(dp26
g11
S'sent: 5'
p27
sbag0
(g1
g2
(lp28
g0
(g1
g2
(lp29
Vcookie .
p30
atp31
Rp32
(dp33
g11
S'start: 1'
p34
sbatp35
Rp36
(dp37
g11
S'sent: 8'
p38
sbag0
(g1
g2
(lp39
g0
(g1
g2
(lp40
Vthat
p41
atp42
Rp43
(dp44
g11
S'start: 1'
p45
sbatp46
Rp47
(dp48
g11
S'sent: 9'
p49
sbag0
(g1
g2
(lp50
g0
(g1
g2
(lp51
Vit
p52
atp53
Rp54
(dp55
g11
S'start: 3'
p56
sbatp57
Rp58
(dp59
g11
S'sent: 9'
p60
sbatp61
Rp62
(dp63
g11
S'id: 3'
p64
sbag0
(g1
g2
(lp65
g0
(g1
g2
(lp66
g0
(g1
g2
(lp67
Va. water
p68
atp69
Rp70
(dp71
g11
S'start: 3'
p72
sbatp73
Rp74
(dp75
g11
S'sent: 3'
p76
sbag0
(g1
g2
(lp77
g0
(g1
g2
(lp78
Vit
p79
atp80
Rp81
(dp82
g11
S'start: 6'
p83
sbatp84
Rp85
(dp86
g11
S'sent: 3'
p87
sbatp88
Rp89
(dp90
g11
S'id: 4'
p91
sbag0
(g1
g2
(lp92
g0
(g1
g2
(lp93
g0
(g1
g2
(lp94
Va
p95
atp96
Rp97
(dp98
g11
S'start: 4'
p99
sbatp100
Rp101
(dp102
g11
S'sent: 4'
p103
sbag0
(g1
g2
(lp104
g0
(g1
g2
(lp105
Vits
p106
atp107
Rp108
(dp109
g11
S'start: 11'
p110
sbatp111
Rp112
(dp113
g11
S'sent: 4'
p114
sbatp115
Rp116
(dp117
g11
S'id: 6'
p118
sbag0
(g1
g2
(lp119
g0
(g1
g2
(lp120
g0
(g1
g2
(lp121
Va cookie .
p122
atp123
Rp124
(dp125
g11
S'start: 1'
p126
sbatp127
Rp128
(dp129
g11
S'sent: 6'
p130
sbag0
(g1
g2
(lp131
g0
(g1
g2
(lp132
Vthat
p133
atp134
Rp135
(dp136
g11
S'start: 1'
p137
sbatp138
Rp139
(dp140
g11
S'sent: 7'
p141
sbag0
(g1
g2
(lp142
g0
(g1
g2
(lp143
Vit
p144
atp145
Rp146
(dp147
g11
S'start: 3'
p148
sbatp149
Rp150
(dp151
g11
S'sent: 7'
p152
sbatp153
Rp154
(dp155
g11
S'id: 11'
p156
sbatp157
Rp158
(dp159
g11
S'coreferences'
p160
sb.