ccopy_reg
_reconstructor
p0
(cnltk.tree
Tree
p1
c__builtin__
list
p2
(lp3
g0
(g1
g2
(lp4
g0
(g1
g2
(lp5
g0
(g1
g2
(lp6
g0
(g1
g2
(lp7
g0
(g1
g2
(lp8
g0
(g1
g2
(lp9
g0
(g1
g2
(lp10
(lp11
S'word: a, index: 17'
p12
aatp13
Rp14
(dp15
S'_label'
p16
Vdet
p17
sbatp18
Rp19
(dp20
g16
S'word: plate, index: 18'
p21
sbatp22
Rp23
(dp24
g16
Vdobj
p25
sbag0
(g1
g2
(lp26
g0
(g1
g2
(lp27
g0
(g1
g2
(lp28
(lp29
S'word: outside, index: 21'
p30
aatp31
Rp32
(dp33
g16
Vadvmod
p34
sbag0
(g1
g2
(lp35
(lp36
S'word: of, index: 24'
p37
aatp38
Rp39
(dp40
g16
Vprepc
p41
sbag0
(g1
g2
(lp42
g0
(g1
g2
(lp43
g0
(g1
g2
(lp44
(lp45
S'word: the, index: 25'
p46
aatp47
Rp48
(dp49
g16
Vdet
p50
sbatp51
Rp52
(dp53
g16
S'word: window, index: 26'
p54
sbatp55
Rp56
(dp57
g16
Vpobj
p58
sbatp59
Rp60
(dp61
g16
S'word: looking, index: 20'
p62
sbatp63
Rp64
(dp65
g16
Vdep
p66
sbag0
(g1
g2
(lp67
g0
(g1
g2
(lp68
g0
(g1
g2
(lp69
g0
(g1
g2
(lp70
g0
(g1
g2
(lp71
(lp72
S'word: the, index: 29'
p73
aatp74
Rp75
(dp76
g16
Vdet
p77
sbatp78
Rp79
(dp80
g16
S'word: leaves, index: 30'
p81
sbatp82
Rp83
(dp84
g16
Vdobj
p85
sbatp86
Rp87
(dp88
g16
S'word: watching, index: 28'
p89
sbatp90
Rp91
(dp92
g16
Vdep
p93
sbag0
(g1
g2
(lp94
(lp95
S'word: she, index: 14'
p96
aatp97
Rp98
(dp99
g16
Vnsubj
p100
sbag0
(g1
g2
(lp101
(lp102
S"word: 's, index: 15"
p103
aatp104
Rp105
(dp106
g16
Vaux
p107
sbatp108
Rp109
(dp110
g16
S'word: washing, index: 16'
p111
sbatp112
Rp113
(dp114
g16
Vconj
p115
sbag0
(g1
g2
(lp116
g0
(g1
g2
(lp117
g0
(g1
g2
(lp118
g0
(g1
g2
(lp119
g0
(g1
g2
(lp120
g0
(g1
g2
(lp121
g0
(g1
g2
(lp122
(lp123
S'word: this, index: 2'
p124
aatp125
Rp126
(dp127
g16
Vdet
p128
sbatp129
Rp130
(dp131
g16
S'word: woman, index: 3'
p132
sbatp133
Rp134
(dp135
g16
Vnsubj
p136
sbag0
(g1
g2
(lp137
(lp138
S'word: is, index: 4'
p139
aatp140
Rp141
(dp142
g16
Vaux
p143
sbag0
(g1
g2
(lp144
(lp145
S'word: dishes, index: 6'
p146
aatp147
Rp148
(dp149
g16
Vdobj
p150
sbatp151
Rp152
(dp153
g16
S'word: washing, index: 5'
p154
sbatp155
Rp156
(dp157
g16
Vrcmod
p158
sbatp159
Rp160
(dp161
g16
S'word: Ok, index: 1'
p162
sbatp163
Rp164
(dp165
g16
Vdep
p166
sbag0
(g1
g2
(lp167
g0
(g1
g2
(lp168
g0
(g1
g2
(lp169
(lp170
S'word: the, index: 8'
p171
aatp172
Rp173
(dp174
g16
Vdet
p175
sbatp176
Rp177
(dp178
g16
S'word: sink, index: 9'
p179
sbatp180
Rp181
(dp182
g16
Vnsubj
p183
sbag0
(g1
g2
(lp184
(lp185
S'word: is, index: 10'
p186
aatp187
Rp188
(dp189
g16
Vaux
p190
sbatp191
Rp192
(dp193
g16
S'word: overflowing, index: 11'
p194
sbatp195
Rp196
(dp197
g16
S'id: 0'
p198
sbag0
(g1
g2
(lp199
g0
(g1
g2
(lp200
g0
(g1
g2
(lp201
g0
(g1
g2
(lp202
g0
(g1
g2
(lp203
(lp204
S'word: a, index: 4'
p205
aatp206
Rp207
(dp208
g16
Vdet
p209
sbag0
(g1
g2
(lp210
g0
(g1
g2
(lp211
g0
(g1
g2
(lp212
(lp213
S'word: a, index: 7'
p214
aatp215
Rp216
(dp217
g16
Vdet
p218
sbag0
(g1
g2
(lp219
(lp220
S'word: girl, index: 10'
p221
aatp222
Rp223
(dp224
g16
Vconj
p225
sbatp226
Rp227
(dp228
g16
S'word: boy, index: 8'
p229
sbatp230
Rp231
(dp232
g16
Vprep
p233
sbag0
(g1
g2
(lp234
(lp235
S'word: girl, index: 10'
p236
aatp237
Rp238
(dp239
g16
Vprep
p240
sbatp241
Rp242
(dp243
g16
S'word: picture, index: 5'
p244
sbatp245
Rp246
(dp247
g16
Vnsubj
p248
sbag0
(g1
g2
(lp249
(lp250
S'word: her, index: 2'
p251
aatp252
Rp253
(dp254
g16
Vprep
p255
sbatp256
Rp257
(dp258
g16
S'word: is, index: 3'
p259
sbatp260
Rp261
(dp262
g16
S'id: 1'
p263
sbag0
(g1
g2
(lp264
g0
(g1
g2
(lp265
g0
(g1
g2
(lp266
g0
(g1
g2
(lp267
g0
(g1
g2
(lp268
(lp269
S'word: to, index: 37'
p270
aatp271
Rp272
(dp273
g16
Vaux
p274
sbatp275
Rp276
(dp277
g16
S'word: fall, index: 38'
p278
sbatp279
Rp280
(dp281
g16
Vxcomp
p282
sbag0
(g1
g2
(lp283
g0
(g1
g2
(lp284
g0
(g1
g2
(lp285
(lp286
S'word: he, index: 11'
p287
aatp288
Rp289
(dp290
g16
Vnsubj
p291
sbag0
(g1
g2
(lp292
(lp293
S"word: 's, index: 12"
p294
aatp295
Rp296
(dp297
g16
Vaux
p298
sbag0
(g1
g2
(lp299
g0
(g1
g2
(lp300
g0
(g1
g2
(lp301
g0
(g1
g2
(lp302
g0
(g1
g2
(lp303
(lp304
S'word: the, index: 22'
p305
aatp306
Rp307
(dp308
g16
Vdet
p309
sbag0
(g1
g2
(lp310
(lp311
S'word: cookie, index: 23'
p312
aatp313
Rp314
(dp315
g16
Vnn
p316
sbatp317
Rp318
(dp319
g16
S'word: jar, index: 24'
p320
sbatp321
Rp322
(dp323
g16
Vprep
p324
sbag0
(g1
g2
(lp325
(lp326
S'word: to, index: 14'
p327
aatp328
Rp329
(dp330
g16
Vaux
p331
sbag0
(g1
g2
(lp332
g0
(g1
g2
(lp333
g0
(g1
g2
(lp334
(lp335
S'word: the, index: 17'
p336
aatp337
Rp338
(dp339
g16
Vpredet
p340
sbag0
(g1
g2
(lp341
(lp342
S'word: some, index: 18'
p343
aatp344
Rp345
(dp346
g16
Vdet
p347
sbatp348
Rp349
(dp350
g16
S'word: cookies, index: 19'
p351
sbatp352
Rp353
(dp354
g16
Vdobj
p355
sbatp356
Rp357
(dp358
g16
S'word: get, index: 15'
p359
sbatp360
Rp361
(dp362
g16
Vxcomp
p363
sbag0
(g1
g2
(lp364
g0
(g1
g2
(lp365
g0
(g1
g2
(lp366
g0
(g1
g2
(lp367
g0
(g1
g2
(lp368
(lp369
S'word: the, index: 27'
p370
aatp371
Rp372
(dp373
g16
Vdet
p374
sbatp375
Rp376
(dp377
g16
S'word: boy, index: 28'
p378
sbatp379
Rp380
(dp381
g16
Vnsubj
p382
sbag0
(g1
g2
(lp383
(lp384
S'word: is, index: 29'
p385
aatp386
Rp387
(dp388
g16
Vaux
p389
sbag0
(g1
g2
(lp390
(lp391
S'word: is, index: 30'
p392
aatp393
Rp394
(dp395
g16
Vaux
p396
sbatp397
Rp398
(dp399
g16
S'word: falling, index: 31'
p400
sbatp401
Rp402
(dp403
g16
Vconj
p404
sbatp405
Rp406
(dp407
g16
S'word: trying, index: 13'
p408
sbatp409
Rp410
(dp411
g16
Vccomp
p412
sbag0
(g1
g2
(lp413
(lp414
S'word: he, index: 33'
p415
aatp416
Rp417
(dp418
g16
Vnsubj
p419
sbag0
(g1
g2
(lp420
(lp421
S"word: 's, index: 34"
p422
aatp423
Rp424
(dp425
g16
Vaux
p426
sbag0
(g1
g2
(lp427
g0
(g1
g2
(lp428
g0
(g1
g2
(lp429
g406
atp430
Rp431
(dp432
g16
Vconj
p433
sbag0
(g1
g2
(lp434
g398
atp435
Rp436
(dp437
g16
Vconj
p438
sbag0
(g1
g2
(lp439
g0
(g1
g2
(lp440
g0
(g1
g2
(lp441
(lp442
S'word: The, index: 1'
p443
aatp444
Rp445
(dp446
g16
Vdet
p447
sbatp448
Rp449
(dp450
g16
S'word: boy, index: 2'
p451
sbatp452
Rp453
(dp454
g16
Vnsubj
p455
sbag0
(g1
g2
(lp456
g0
(g1
g2
(lp457
g0
(g1
g2
(lp458
g0
(g1
g2
(lp459
g0
(g1
g2
(lp460
(lp461
S'word: a, index: 7'
p462
aatp463
Rp464
(dp465
g16
Vdet
p466
sbatp467
Rp468
(dp469
g16
S'word: chair, index: 8'
p470
sbatp471
Rp472
(dp473
g16
Vprep
p474
sbatp475
Rp476
(dp477
g16
S'word: is, index: 5'
p478
sbatp479
Rp480
(dp481
g16
Vdep
p482
sbatp483
Rp484
(dp485
g16
S'word: is, index: 3'
p486
sbatp487
Rp488
(dp489
g16
Vccomp
p490
sbag0
(g1
g2
(lp491
(lp492
S'word: getting, index: 35'
p493
aatp494
Rp495
(dp496
g16
Vdep
p497
sbatp498
Rp499
(dp500
g16
S'word: ready, index: 36'
p501
sbatp502
Rp503
(dp504
g16
S'id: 2'
p505
sbag0
(g1
g2
(lp506
g0
(g1
g2
(lp507
g0
(g1
g2
(lp508
(lp509
S'word: And, index: 1'
p510
aatp511
Rp512
(dp513
g16
Vcc
p514
sbag0
(g1
g2
(lp515
g0
(g1
g2
(lp516
g0
(g1
g2
(lp517
(lp518
S'word: else, index: 4'
p519
aatp520
Rp521
(dp522
g16
Vamod
p523
sbatp524
Rp525
(dp526
g16
S'word: what, index: 3'
p527
sbatp528
Rp529
(dp530
g16
Vnsubj
p531
sbag0
(g1
g2
(lp532
(lp533
S'word: I, index: 6'
p534
aatp535
Rp536
(dp537
g16
Vdobj
p538
sbag0
(g1
g2
(lp539
g0
(g1
g2
(lp540
g0
(g1
g2
(lp541
(lp542
S'word: you, index: 8'
p543
aatp544
Rp545
(dp546
g16
Vdobj
p547
sbatp548
Rp549
(dp550
g16
S'word: tell, index: 7'
p551
sbatp552
Rp553
(dp554
g16
Vdep
p555
sbatp556
Rp557
(dp558
g16
S'word: can, index: 5'
p559
sbatp560
Rp561
(dp562
g16
S'id: 3'
p563
sbatp564
Rp565
(dp566
g16
S'sentences'
p567
sb.