ccopy_reg
_reconstructor
p0
(cnltk.tree
Tree
p1
c__builtin__
list
p2
(lp3
g0
(g1
g2
(lp4
g0
(g1
g2
(lp5
g0
(g1
g2
(lp6
Vok
p7
atp8
Rp9
(dp10
S'_label'
p11
VNN
p12
sbag0
(g1
g2
(lp13
V.
p14
atp15
Rp16
(dp17
g11
V.
p18
sbatp19
Rp20
(dp21
g11
VNP
p22
sbatp23
Rp24
(dp25
g11
S'id: 0'
p26
sbag0
(g1
g2
(lp27
g0
(g1
g2
(lp28
g0
(g1
g2
(lp29
g0
(g1
g2
(lp30
Vis
p31
atp32
Rp33
(dp34
g11
VVBZ
p35
sbag0
(g1
g2
(lp36
g0
(g1
g2
(lp37
Vdo
p38
atp39
Rp40
(dp41
g11
VVB
p42
sbag0
(g1
g2
(lp43
g0
(g1
g2
(lp44
Vat
p45
atp46
Rp47
(dp48
g11
VIN
p49
sbag0
(g1
g2
(lp50
g0
(g1
g2
(lp51
Vthe
p52
atp53
Rp54
(dp55
g11
VDT
p56
sbag0
(g1
g2
(lp57
Vtime
p58
atp59
Rp60
(dp61
g11
VNN
p62
sbatp63
Rp64
(dp65
g11
VNP
p66
sbatp67
Rp68
(dp69
g11
VPP
p70
sbatp71
Rp72
(dp73
g11
VVP
p74
sbatp75
Rp76
(dp77
g11
VVP
p78
sbag0
(g1
g2
(lp79
V.
p80
atp81
Rp82
(dp83
g11
V.
p84
sbatp85
Rp86
(dp87
g11
VS
p88
sbatp89
Rp90
(dp91
g11
S'id: 1'
p92
sbag0
(g1
g2
(lp93
g0
(g1
g2
(lp94
g0
(g1
g2
(lp95
Vok
p96
atp97
Rp98
(dp99
g11
VNN
p100
sbag0
(g1
g2
(lp101
V.
p102
atp103
Rp104
(dp105
g11
V.
p106
sbatp107
Rp108
(dp109
g11
VNP
p110
sbatp111
Rp112
(dp113
g11
S'id: 2'
p114
sbag0
(g1
g2
(lp115
g0
(g1
g2
(lp116
g0
(g1
g2
(lp117
g0
(g1
g2
(lp118
g0
(g1
g2
(lp119
Vthe
p120
atp121
Rp122
(dp123
g11
VDT
p124
sbag0
(g1
g2
(lp125
Vman
p126
atp127
Rp128
(dp129
g11
VNN
p130
sbatp131
Rp132
(dp133
g11
VNP
p134
sbag0
(g1
g2
(lp135
Vand
p136
atp137
Rp138
(dp139
g11
VCC
p140
sbag0
(g1
g2
(lp141
g0
(g1
g2
(lp142
Vher
p143
atp144
Rp145
(dp146
g11
VPRP$
p147
sbag0
(g1
g2
(lp148
Vdaughter
p149
atp150
Rp151
(dp152
g11
VNN
p153
sbatp154
Rp155
(dp156
g11
VNP
p157
sbatp158
Rp159
(dp160
g11
VNP
p161
sbag0
(g1
g2
(lp162
V,
p163
atp164
Rp165
(dp166
g11
V,
p167
sbag0
(g1
g2
(lp168
g0
(g1
g2
(lp169
g0
(g1
g2
(lp170
Va
p171
atp172
Rp173
(dp174
g11
VDT
p175
sbag0
(g1
g2
(lp176
Vklow
p177
atp178
Rp179
(dp180
g11
VNN
p181
sbatp182
Rp183
(dp184
g11
VNP
p185
sbag0
(g1
g2
(lp186
V,
p187
atp188
Rp189
(dp190
g11
V,
p191
sbag0
(g1
g2
(lp192
g0
(g1
g2
(lp193
Vboutcorn
p194
atp195
Rp196
(dp197
g11
VNN
p198
sbatp199
Rp200
(dp201
g11
VNP
p202
sbag0
(g1
g2
(lp203
V,
p204
atp205
Rp206
(dp207
g11
V,
p208
sbag0
(g1
g2
(lp209
g0
(g1
g2
(lp210
Vpopcorn
p211
atp212
Rp213
(dp214
g11
VNN
p215
sbatp216
Rp217
(dp218
g11
VNP
p219
sbag0
(g1
g2
(lp220
V,
p221
atp222
Rp223
(dp224
g11
V,
p225
sbag0
(g1
g2
(lp226
g0
(g1
g2
(lp227
Vrasor
p228
atp229
Rp230
(dp231
g11
VNN
p232
sbatp233
Rp234
(dp235
g11
VNP
p236
sbatp237
Rp238
(dp239
g11
VNP
p240
sbag0
(g1
g2
(lp241
V.
p242
atp243
Rp244
(dp245
g11
V.
p246
sbatp247
Rp248
(dp249
g11
VNP
p250
sbatp251
Rp252
(dp253
g11
S'id: 3'
p254
sbag0
(g1
g2
(lp255
g0
(g1
g2
(lp256
g0
(g1
g2
(lp257
g0
(g1
g2
(lp258
Vthe
p259
atp260
Rp261
(dp262
g11
VDT
p263
sbag0
(g1
g2
(lp264
Vguy
p265
atp266
Rp267
(dp268
g11
VNN
p269
sbatp270
Rp271
(dp272
g11
VNP
p273
sbag0
(g1
g2
(lp274
V,
p275
atp276
Rp277
(dp278
g11
V,
p279
sbag0
(g1
g2
(lp280
Vand
p281
atp282
Rp283
(dp284
g11
VCC
p285
sbag0
(g1
g2
(lp286
g0
(g1
g2
(lp287
g0
(g1
g2
(lp288
Vhe
p289
atp290
Rp291
(dp292
g11
VPRP
p293
sbatp294
Rp295
(dp296
g11
VNP
p297
sbag0
(g1
g2
(lp298
g0
(g1
g2
(lp299
Vsays
p300
atp301
Rp302
(dp303
g11
VVBZ
p304
sbag0
(g1
g2
(lp305
g0
(g1
g2
(lp306
Vstop
p307
atp308
Rp309
(dp310
g11
VVB
p311
sbatp312
Rp313
(dp314
g11
VVP
p315
sbatp316
Rp317
(dp318
g11
VVP
p319
sbatp320
Rp321
(dp322
g11
VS
p323
sbag0
(g1
g2
(lp324
V.
p325
atp326
Rp327
(dp328
g11
V.
p329
sbatp330
Rp331
(dp332
g11
VFRAG
p333
sbatp334
Rp335
(dp336
g11
S'id: 4'
p337
sbag0
(g1
g2
(lp338
g0
(g1
g2
(lp339
g0
(g1
g2
(lp340
g0
(g1
g2
(lp341
Vand
p342
atp343
Rp344
(dp345
g11
VCC
p346
sbag0
(g1
g2
(lp347
g0
(g1
g2
(lp348
Vthe
p349
atp350
Rp351
(dp352
g11
VDT
p353
sbag0
(g1
g2
(lp354
Vlittle
p355
atp356
Rp357
(dp358
g11
VJJ
p359
sbag0
(g1
g2
(lp360
Vgirl
p361
atp362
Rp363
(dp364
g11
VNN
p365
sbatp366
Rp367
(dp368
g11
VNP
p369
sbag0
(g1
g2
(lp370
g0
(g1
g2
(lp371
Vis
p372
atp373
Rp374
(dp375
g11
VVBZ
p376
sbag0
(g1
g2
(lp377
g0
(g1
g2
(lp378
Vlaughing
p379
atp380
Rp381
(dp382
g11
VVBG
p383
sbatp384
Rp385
(dp386
g11
VVP
p387
sbatp388
Rp389
(dp390
g11
VVP
p391
sbatp392
Rp393
(dp394
g11
VS
p395
sbag0
(g1
g2
(lp396
V,
p397
atp398
Rp399
(dp400
g11
V,
p401
sbag0
(g1
g2
(lp402
g0
(g1
g2
(lp403
g0
(g1
g2
(lp404
Vhis
p405
atp406
Rp407
(dp408
g11
VPRP$
p409
sbag0
(g1
g2
(lp410
Vmother
p411
atp412
Rp413
(dp414
g11
VNN
p415
sbag0
(g1
g2
(lp416
Vlasing
p417
atp418
Rp419
(dp420
g11
VNN
p421
sbatp422
Rp423
(dp424
g11
VNP
p425
sbatp426
Rp427
(dp428
g11
VFRAG
p429
sbag0
(g1
g2
(lp430
V.
p431
atp432
Rp433
(dp434
g11
V.
p435
sbatp436
Rp437
(dp438
g11
VS
p439
sbatp440
Rp441
(dp442
g11
S'id: 5'
p443
sbag0
(g1
g2
(lp444
g0
(g1
g2
(lp445
g0
(g1
g2
(lp446
Vand
p447
atp448
Rp449
(dp450
g11
VCC
p451
sbag0
(g1
g2
(lp452
g0
(g1
g2
(lp453
Vthe
p454
atp455
Rp456
(dp457
g11
VDT
p458
sbag0
(g1
g2
(lp459
Vtightrope
p460
atp461
Rp462
(dp463
g11
VNN
p464
sbatp465
Rp466
(dp467
g11
VNP
p468
sbag0
(g1
g2
(lp469
g0
(g1
g2
(lp470
Vis
p471
atp472
Rp473
(dp474
g11
VVBZ
p475
sbag0
(g1
g2
(lp476
g0
(g1
g2
(lp477
Vdoing
p478
atp479
Rp480
(dp481
g11
VVBG
p482
sbag0
(g1
g2
(lp483
g0
(g1
g2
(lp484
Vher
p485
atp486
Rp487
(dp488
g11
VPRP$
p489
sbag0
(g1
g2
(lp490
Vjob
p491
atp492
Rp493
(dp494
g11
VNN
p495
sbatp496
Rp497
(dp498
g11
VNP
p499
sbatp500
Rp501
(dp502
g11
VVP
p503
sbatp504
Rp505
(dp506
g11
VVP
p507
sbag0
(g1
g2
(lp508
V.
p509
atp510
Rp511
(dp512
g11
V.
p513
sbatp514
Rp515
(dp516
g11
VS
p517
sbatp518
Rp519
(dp520
g11
S'id: 6'
p521
sbag0
(g1
g2
(lp522
g0
(g1
g2
(lp523
g0
(g1
g2
(lp524
Vand
p525
atp526
Rp527
(dp528
g11
VCC
p529
sbag0
(g1
g2
(lp530
g0
(g1
g2
(lp531
g0
(g1
g2
(lp532
Vthe
p533
atp534
Rp535
(dp536
g11
VDT
p537
sbag0
(g1
g2
(lp538
Vhorses
p539
atp540
Rp541
(dp542
g11
VNNS
p543
sbatp544
Rp545
(dp546
g11
VNP
p547
sbag0
(g1
g2
(lp548
V,
p549
atp550
Rp551
(dp552
g11
V,
p553
sbag0
(g1
g2
(lp554
g0
(g1
g2
(lp555
Vthe
p556
atp557
Rp558
(dp559
g11
VDT
p560
sbag0
(g1
g2
(lp561
Vhorse
p562
atp563
Rp564
(dp565
g11
VNN
p566
sbatp567
Rp568
(dp569
g11
VNP
p570
sbag0
(g1
g2
(lp571
V,
p572
atp573
Rp574
(dp575
g11
V,
p576
sbag0
(g1
g2
(lp577
Vand
p578
atp579
Rp580
(dp581
g11
VCC
p582
sbag0
(g1
g2
(lp583
g0
(g1
g2
(lp584
Vwhat
p585
atp586
Rp587
(dp588
g11
VWP
p589
sbatp590
Rp591
(dp592
g11
VNP
p593
sbatp594
Rp595
(dp596
g11
VNP
p597
sbag0
(g1
g2
(lp598
g0
(g1
g2
(lp599
V's
p600
atp601
Rp602
(dp603
g11
VVBZ
p604
sbag0
(g1
g2
(lp605
g0
(g1
g2
(lp606
g0
(g1
g2
(lp607
g0
(g1
g2
(lp608
Vher
p609
atp610
Rp611
(dp612
g11
VPRP$
p613
sbag0
(g1
g2
(lp614
Vname
p615
atp616
Rp617
(dp618
g11
VNN
p619
sbatp620
Rp621
(dp622
g11
VNP
p623
sbag0
(g1
g2
(lp624
V,
p625
atp626
Rp627
(dp628
g11
V,
p629
sbag0
(g1
g2
(lp630
g0
(g1
g2
(lp631
Vrider
p632
atp633
Rp634
(dp635
g11
VNN
p636
sbatp637
Rp638
(dp639
g11
VNP
p640
sbatp641
Rp642
(dp643
g11
VNP
p644
sbag0
(g1
g2
(lp645
V,
p646
atp647
Rp648
(dp649
g11
V,
p650
sbag0
(g1
g2
(lp651
g0
(g1
g2
(lp652
g0
(g1
g2
(lp653
Vshe
p654
atp655
Rp656
(dp657
g11
VPRP
p658
sbatp659
Rp660
(dp661
g11
VNP
p662
sbag0
(g1
g2
(lp663
g0
(g1
g2
(lp664
Vlooking
p665
atp666
Rp667
(dp668
g11
VVBG
p669
sbag0
(g1
g2
(lp670
g0
(g1
g2
(lp671
Varound
p672
atp673
Rp674
(dp675
g11
VRB
p676
sbatp677
Rp678
(dp679
g11
VADVP
p680
sbatp681
Rp682
(dp683
g11
VVP
p684
sbatp685
Rp686
(dp687
g11
VNP
p688
sbatp689
Rp690
(dp691
g11
VNP
p692
sbatp693
Rp694
(dp695
g11
VVP
p696
sbag0
(g1
g2
(lp697
V.
p698
atp699
Rp700
(dp701
g11
V.
p702
sbatp703
Rp704
(dp705
g11
VS
p706
sbatp707
Rp708
(dp709
g11
S'id: 7'
p710
sbag0
(g1
g2
(lp711
g0
(g1
g2
(lp712
g0
(g1
g2
(lp713
Vand
p714
atp715
Rp716
(dp717
g11
VCC
p718
sbag0
(g1
g2
(lp719
g0
(g1
g2
(lp720
g0
(g1
g2
(lp721
Vpeople
p722
atp723
Rp724
(dp725
g11
VNNS
p726
sbatp727
Rp728
(dp729
g11
VNP
p730
sbag0
(g1
g2
(lp731
g0
(g1
g2
(lp732
Vall
p733
atp734
Rp735
(dp736
g11
VDT
p737
sbag0
(g1
g2
(lp738
Varound
p739
atp740
Rp741
(dp742
g11
VIN
p743
sbag0
(g1
g2
(lp744
g0
(g1
g2
(lp745
g0
(g1
g2
(lp746
Vthe
p747
atp748
Rp749
(dp750
g11
VDT
p751
sbag0
(g1
g2
(lp752
Vcircus
p753
atp754
Rp755
(dp756
g11
VNN
p757
sbatp758
Rp759
(dp760
g11
VNP
p761
sbag0
(g1
g2
(lp762
V,
p763
atp764
Rp765
(dp766
g11
V,
p767
sbag0
(g1
g2
(lp768
g0
(g1
g2
(lp769
Vthe
p770
atp771
Rp772
(dp773
g11
VDT
p774
sbag0
(g1
g2
(lp775
Vbig
p776
atp777
Rp778
(dp779
g11
VJJ
p780
sbag0
(g1
g2
(lp781
Vpart
p782
atp783
Rp784
(dp785
g11
VNN
p786
sbatp787
Rp788
(dp789
g11
VNP
p790
sbatp791
Rp792
(dp793
g11
VNP
p794
sbatp795
Rp796
(dp797
g11
VPP
p798
sbatp799
Rp800
(dp801
g11
VNP
p802
sbag0
(g1
g2
(lp803
V.
p804
atp805
Rp806
(dp807
g11
V.
p808
sbatp809
Rp810
(dp811
g11
VFRAG
p812
sbatp813
Rp814
(dp815
g11
S'id: 8'
p816
sbag0
(g1
g2
(lp817
g0
(g1
g2
(lp818
g0
(g1
g2
(lp819
Vand
p820
atp821
Rp822
(dp823
g11
VCC
p824
sbag0
(g1
g2
(lp825
g0
(g1
g2
(lp826
g0
(g1
g2
(lp827
g0
(g1
g2
(lp828
Va
p829
atp830
Rp831
(dp832
g11
VDT
p833
sbag0
(g1
g2
(lp834
Vlinon
p835
atp836
Rp837
(dp838
g11
VNN
p839
sbatp840
Rp841
(dp842
g11
VNP
p843
sbag0
(g1
g2
(lp844
V,
p845
atp846
Rp847
(dp848
g11
V,
p849
sbag0
(g1
g2
(lp850
Vand
p851
atp852
Rp853
(dp854
g11
VCC
p855
sbag0
(g1
g2
(lp856
g0
(g1
g2
(lp857
Vthe
p858
atp859
Rp860
(dp861
g11
VDT
p862
sbag0
(g1
g2
(lp863
Vtrainer
p864
atp865
Rp866
(dp867
g11
VNN
p868
sbatp869
Rp870
(dp871
g11
VNP
p872
sbag0
(g1
g2
(lp873
V,
p874
atp875
Rp876
(dp877
g11
V,
p878
sbag0
(g1
g2
(lp879
g0
(g1
g2
(lp880
Vhe
p881
atp882
Rp883
(dp884
g11
VPRP
p885
sbatp886
Rp887
(dp888
g11
VNP
p889
sbag0
(g1
g2
(lp890
V,
p891
atp892
Rp893
(dp894
g11
V,
p895
sbag0
(g1
g2
(lp896
g0
(g1
g2
(lp897
Vhe
p898
atp899
Rp900
(dp901
g11
VPRP
p902
sbatp903
Rp904
(dp905
g11
VNP
p906
sbatp907
Rp908
(dp909
g11
VNP
p910
sbag0
(g1
g2
(lp911
g0
(g1
g2
(lp912
Vlift
p913
atp914
Rp915
(dp916
g11
VVB
p917
sbag0
(g1
g2
(lp918
g0
(g1
g2
(lp919
Vhis
p920
atp921
Rp922
(dp923
g11
VPRP$
p924
sbag0
(g1
g2
(lp925
Varm
p926
atp927
Rp928
(dp929
g11
VNN
p930
sbatp931
Rp932
(dp933
g11
VNP
p934
sbatp935
Rp936
(dp937
g11
VVP
p938
sbatp939
Rp940
(dp941
g11
VS
p942
sbag0
(g1
g2
(lp943
V,
p944
atp945
Rp946
(dp947
g11
V,
p948
sbag0
(g1
g2
(lp949
Vand
p950
atp951
Rp952
(dp953
g11
VCC
p954
sbag0
(g1
g2
(lp955
g0
(g1
g2
(lp956
g0
(g1
g2
(lp957
Vthe
p958
atp959
Rp960
(dp961
g11
VDT
p962
sbag0
(g1
g2
(lp963
Vlidon
p964
atp965
Rp966
(dp967
g11
VNN
p968
sbag0
(g1
g2
(lp969
Vanswer
p970
atp971
Rp972
(dp973
g11
VNN
p974
sbatp975
Rp976
(dp977
g11
VNP
p978
sbag0
(g1
g2
(lp979
g0
(g1
g2
(lp980
Vthat
p981
atp982
Rp983
(dp984
g11
VWDT
p985
sbatp986
Rp987
(dp988
g11
VNP
p989
sbatp990
Rp991
(dp992
g11
VS
p993
sbag0
(g1
g2
(lp994
V.
p995
atp996
Rp997
(dp998
g11
V.
p999
sbatp1000
Rp1001
(dp1002
g11
VS
p1003
sbatp1004
Rp1005
(dp1006
g11
S'id: 9'
p1007
sbag0
(g1
g2
(lp1008
g0
(g1
g2
(lp1009
g0
(g1
g2
(lp1010
Vand
p1011
atp1012
Rp1013
(dp1014
g11
VCC
p1015
sbag0
(g1
g2
(lp1016
V,
p1017
atp1018
Rp1019
(dp1020
g11
V,
p1021
sbag0
(g1
g2
(lp1022
g0
(g1
g2
(lp1023
Vand
p1024
atp1025
Rp1026
(dp1027
g11
VCC
p1028
sbatp1029
Rp1030
(dp1031
g11
VNP
p1032
sbag0
(g1
g2
(lp1033
V.
p1034
atp1035
Rp1036
(dp1037
g11
V.
p1038
sbatp1039
Rp1040
(dp1041
g11
VFRAG
p1042
sbatp1043
Rp1044
(dp1045
g11
S'id: 10'
p1046
sbag0
(g1
g2
(lp1047
g0
(g1
g2
(lp1048
g0
(g1
g2
(lp1049
g0
(g1
g2
(lp1050
g0
(g1
g2
(lp1051
VThe
p1052
atp1053
Rp1054
(dp1055
g11
VDT
p1056
sbag0
(g1
g2
(lp1057
Vlittle
p1058
atp1059
Rp1060
(dp1061
g11
VJJ
p1062
sbag0
(g1
g2
(lp1063
Vboy
p1064
atp1065
Rp1066
(dp1067
g11
VNN
p1068
sbatp1069
Rp1070
(dp1071
g11
VNP
p1072
sbag0
(g1
g2
(lp1073
V,
p1074
atp1075
Rp1076
(dp1077
g11
V,
p1078
sbag0
(g1
g2
(lp1079
g0
(g1
g2
(lp1080
Vno
p1081
atp1082
Rp1083
(dp1084
g11
VDT
p1085
sbatp1086
Rp1087
(dp1088
g11
VNP
p1089
sbag0
(g1
g2
(lp1090
V,
p1091
atp1092
Rp1093
(dp1094
g11
V,
p1095
sbag0
(g1
g2
(lp1096
g0
(g1
g2
(lp1097
Vthe
p1098
atp1099
Rp1100
(dp1101
g11
VDT
p1102
sbag0
(g1
g2
(lp1103
Vman
p1104
atp1105
Rp1106
(dp1107
g11
VNN
p1108
sbatp1109
Rp1110
(dp1111
g11
VNP
p1112
sbag0
(g1
g2
(lp1113
Vand
p1114
atp1115
Rp1116
(dp1117
g11
VCC
p1118
sbag0
(g1
g2
(lp1119
g0
(g1
g2
(lp1120
Vhis
p1121
atp1122
Rp1123
(dp1124
g11
VPRP$
p1125
sbag0
(g1
g2
(lp1126
Vdaughter
p1127
atp1128
Rp1129
(dp1130
g11
VNN
p1131
sbatp1132
Rp1133
(dp1134
g11
VNP
p1135
sbatp1136
Rp1137
(dp1138
g11
VNP
p1139
sbag0
(g1
g2
(lp1140
g0
(g1
g2
(lp1141
Vlooking
p1142
atp1143
Rp1144
(dp1145
g11
VVBG
p1146
sbag0
(g1
g2
(lp1147
g0
(g1
g2
(lp1148
Varound
p1149
atp1150
Rp1151
(dp1152
g11
VIN
p1153
sbag0
(g1
g2
(lp1154
g0
(g1
g2
(lp1155
Vthe
p1156
atp1157
Rp1158
(dp1159
g11
VDT
p1160
sbag0
(g1
g2
(lp1161
Vcircus
p1162
atp1163
Rp1164
(dp1165
g11
VNN
p1166
sbag0
(g1
g2
(lp1167
Vtightrope
p1168
atp1169
Rp1170
(dp1171
g11
VNN
p1172
sbatp1173
Rp1174
(dp1175
g11
VNP
p1176
sbatp1177
Rp1178
(dp1179
g11
VPP
p1180
sbatp1181
Rp1182
(dp1183
g11
VVP
p1184
sbag0
(g1
g2
(lp1185
V.
p1186
atp1187
Rp1188
(dp1189
g11
V.
p1190
sbatp1191
Rp1192
(dp1193
g11
VNP
p1194
sbatp1195
Rp1196
(dp1197
g11
S'id: 11'
p1198
sbag0
(g1
g2
(lp1199
g0
(g1
g2
(lp1200
g0
(g1
g2
(lp1201
Vand
p1202
atp1203
Rp1204
(dp1205
g11
VCC
p1206
sbag0
(g1
g2
(lp1207
g0
(g1
g2
(lp1208
g0
(g1
g2
(lp1209
Vthe
p1210
atp1211
Rp1212
(dp1213
g11
VDT
p1214
sbatp1215
Rp1216
(dp1217
g11
VNP
p1218
sbag0
(g1
g2
(lp1219
V,
p1220
atp1221
Rp1222
(dp1223
g11
V,
p1224
sbag0
(g1
g2
(lp1225
g0
(g1
g2
(lp1226
Vthe
p1227
atp1228
Rp1229
(dp1230
g11
VDT
p1231
sbag0
(g1
g2
(lp1232
Vclown
p1233
atp1234
Rp1235
(dp1236
g11
VNN
p1237
sbatp1238
Rp1239
(dp1240
g11
VNP
p1241
sbag0
(g1
g2
(lp1242
V.
p1243
atp1244
Rp1245
(dp1246
g11
V.
p1247
sbatp1248
Rp1249
(dp1250
g11
VNP
p1251
sbatp1252
Rp1253
(dp1254
g11
VFRAG
p1255
sbatp1256
Rp1257
(dp1258
g11
S'id: 12'
p1259
sbatp1260
Rp1261
(dp1262
g11
S'sentences'
p1263
sb.