ccopy_reg
_reconstructor
p0
(cnltk.tree
Tree
p1
c__builtin__
list
p2
(lp3
g0
(g1
g2
(lp4
g0
(g1
g2
(lp5
g0
(g1
g2
(lp6
g0
(g1
g2
(lp7
Vok
p8
atp9
Rp10
(dp11
S'_label'
p12
VNN
p13
sbatp14
Rp15
(dp16
g12
VNP
p17
sbag0
(g1
g2
(lp18
g0
(g1
g2
(lp19
Vwe
p20
atp21
Rp22
(dp23
g12
VPRP
p24
sbatp25
Rp26
(dp27
g12
VNP
p28
sbag0
(g1
g2
(lp29
g0
(g1
g2
(lp30
V're
p31
atp32
Rp33
(dp34
g12
VVBP
p35
sbag0
(g1
g2
(lp36
g0
(g1
g2
(lp37
Vat
p38
atp39
Rp40
(dp41
g12
VIN
p42
sbag0
(g1
g2
(lp43
g0
(g1
g2
(lp44
Vthe
p45
atp46
Rp47
(dp48
g12
VDT
p49
sbag0
(g1
g2
(lp50
Vlake
p51
atp52
Rp53
(dp54
g12
VNN
p55
sbatp56
Rp57
(dp58
g12
VNP
p59
sbatp60
Rp61
(dp62
g12
VPP
p63
sbatp64
Rp65
(dp66
g12
VVP
p67
sbag0
(g1
g2
(lp68
V.
p69
atp70
Rp71
(dp72
g12
V.
p73
sbatp74
Rp75
(dp76
g12
VS
p77
sbatp78
Rp79
(dp80
g12
S'id: 0'
p81
sbag0
(g1
g2
(lp82
g0
(g1
g2
(lp83
g0
(g1
g2
(lp84
g0
(g1
g2
(lp85
g0
(g1
g2
(lp86
VFirst
p87
atp88
Rp89
(dp90
g12
VNNP
p91
sbatp92
Rp93
(dp94
g12
VNP
p95
sbag0
(g1
g2
(lp96
g0
(g1
g2
(lp97
Vof
p98
atp99
Rp100
(dp101
g12
VIN
p102
sbag0
(g1
g2
(lp103
g0
(g1
g2
(lp104
Vall
p105
atp106
Rp107
(dp108
g12
VDT
p109
sbatp110
Rp111
(dp112
g12
VNP
p113
sbatp114
Rp115
(dp116
g12
VPP
p117
sbatp118
Rp119
(dp120
g12
VNP
p121
sbag0
(g1
g2
(lp122
g0
(g1
g2
(lp123
V,
p124
atp125
Rp126
(dp127
g12
V,
p128
sbag0
(g1
g2
(lp129
g0
(g1
g2
(lp130
g0
(g1
g2
(lp131
VI
p132
atp133
Rp134
(dp135
g12
VPRP
p136
sbatp137
Rp138
(dp139
g12
VNP
p140
sbag0
(g1
g2
(lp141
g0
(g1
g2
(lp142
Vsee
p143
atp144
Rp145
(dp146
g12
VVBP
p147
sbag0
(g1
g2
(lp148
g0
(g1
g2
(lp149
g0
(g1
g2
(lp150
g0
(g1
g2
(lp151
Va
p152
atp153
Rp154
(dp155
g12
VDT
p156
sbag0
(g1
g2
(lp157
Vhusband
p158
atp159
Rp160
(dp161
g12
VNN
p162
sbatp163
Rp164
(dp165
g12
VNP
p166
sbag0
(g1
g2
(lp167
V,
p168
atp169
Rp170
(dp171
g12
V,
p172
sbag0
(g1
g2
(lp173
Vor
p174
atp175
Rp176
(dp177
g12
VCC
p178
sbag0
(g1
g2
(lp179
g0
(g1
g2
(lp180
Va
p181
atp182
Rp183
(dp184
g12
VDT
p185
sbag0
(g1
g2
(lp186
Vwife
p187
atp188
Rp189
(dp190
g12
VNN
p191
sbatp192
Rp193
(dp194
g12
VNP
p195
sbag0
(g1
g2
(lp196
V,
p197
atp198
Rp199
(dp200
g12
V,
p201
sbatp202
Rp203
(dp204
g12
VNP
p205
sbag0
(g1
g2
(lp206
Vor
p207
atp208
Rp209
(dp210
g12
VCC
p211
sbag0
(g1
g2
(lp212
g0
(g1
g2
(lp213
Va
p214
atp215
Rp216
(dp217
g12
VDT
p218
sbag0
(g1
g2
(lp219
Vcouple
p220
atp221
Rp222
(dp223
g12
VNN
p224
sbatp225
Rp226
(dp227
g12
VNP
p228
sbatp229
Rp230
(dp231
g12
VNP
p232
sbatp233
Rp234
(dp235
g12
VVP
p236
sbatp237
Rp238
(dp239
g12
VS
p240
sbag0
(g1
g2
(lp241
V,
p242
atp243
Rp244
(dp245
g12
V,
p246
sbatp247
Rp248
(dp249
g12
VPRN
p250
sbag0
(g1
g2
(lp251
g0
(g1
g2
(lp252
VI
p253
atp254
Rp255
(dp256
g12
VPRP
p257
sbatp258
Rp259
(dp260
g12
VNP
p261
sbag0
(g1
g2
(lp262
g0
(g1
g2
(lp263
V'll
p264
atp265
Rp266
(dp267
g12
VMD
p268
sbag0
(g1
g2
(lp269
g0
(g1
g2
(lp270
Vput
p271
atp272
Rp273
(dp274
g12
VVB
p275
sbag0
(g1
g2
(lp276
g0
(g1
g2
(lp277
g0
(g1
g2
(lp278
g0
(g1
g2
(lp279
Vit
p280
atp281
Rp282
(dp283
g12
VPRP
p284
sbatp285
Rp286
(dp287
g12
VNP
p288
sbag0
(g1
g2
(lp289
g0
(g1
g2
(lp290
Vthat
p291
atp292
Rp293
(dp294
g12
VDT
p295
sbag0
(g1
g2
(lp296
Vway
p297
atp298
Rp299
(dp300
g12
VNN
p301
sbatp302
Rp303
(dp304
g12
VNP
p305
sbatp306
Rp307
(dp308
g12
VNP
p309
sbag0
(g1
g2
(lp310
V,
p311
atp312
Rp313
(dp314
g12
V,
p315
sbag0
(g1
g2
(lp316
g0
(g1
g2
(lp317
Vsitting
p318
atp319
Rp320
(dp321
g12
VVBG
p322
sbag0
(g1
g2
(lp323
g0
(g1
g2
(lp324
Von
p325
atp326
Rp327
(dp328
g12
VIN
p329
sbag0
(g1
g2
(lp330
g0
(g1
g2
(lp331
Va
p332
atp333
Rp334
(dp335
g12
VDT
p336
sbag0
(g1
g2
(lp337
Vblanket
p338
atp339
Rp340
(dp341
g12
VNN
p342
sbatp343
Rp344
(dp345
g12
VNP
p346
sbatp347
Rp348
(dp349
g12
VPP
p350
sbatp351
Rp352
(dp353
g12
VVP
p354
sbatp355
Rp356
(dp357
g12
VNP
p358
sbatp359
Rp360
(dp361
g12
VVP
p362
sbatp363
Rp364
(dp365
g12
VVP
p366
sbag0
(g1
g2
(lp367
V.
p368
atp369
Rp370
(dp371
g12
V.
p372
sbatp373
Rp374
(dp375
g12
VS
p376
sbatp377
Rp378
(dp379
g12
S'id: 1'
p380
sbag0
(g1
g2
(lp381
g0
(g1
g2
(lp382
g0
(g1
g2
(lp383
VAnd
p384
atp385
Rp386
(dp387
g12
VCC
p388
sbag0
(g1
g2
(lp389
g0
(g1
g2
(lp390
g0
(g1
g2
(lp391
g0
(g1
g2
(lp392
Vshe
p393
atp394
Rp395
(dp396
g12
VPRP
p397
sbatp398
Rp399
(dp400
g12
VNP
p401
sbag0
(g1
g2
(lp402
g0
(g1
g2
(lp403
V's
p404
atp405
Rp406
(dp407
g12
VVBZ
p408
sbag0
(g1
g2
(lp409
V,
p410
atp411
Rp412
(dp413
g12
V,
p414
sbag0
(g1
g2
(lp415
g0
(g1
g2
(lp416
g0
(g1
g2
(lp417
g0
(g1
g2
(lp418
Vthey
p419
atp420
Rp421
(dp422
g12
VPRP
p423
sbatp424
Rp425
(dp426
g12
VNP
p427
sbag0
(g1
g2
(lp428
g0
(g1
g2
(lp429
V're
p430
atp431
Rp432
(dp433
g12
VVBP
p434
sbag0
(g1
g2
(lp435
g0
(g1
g2
(lp436
Vhaving
p437
atp438
Rp439
(dp440
g12
VVBG
p441
sbag0
(g1
g2
(lp442
g0
(g1
g2
(lp443
Va
p444
atp445
Rp446
(dp447
g12
VDT
p448
sbag0
(g1
g2
(lp449
Vpicnic
p450
atp451
Rp452
(dp453
g12
VNN
p454
sbatp455
Rp456
(dp457
g12
VNP
p458
sbatp459
Rp460
(dp461
g12
VVP
p462
sbatp463
Rp464
(dp465
g12
VVP
p466
sbatp467
Rp468
(dp469
g12
VS
p470
sbatp471
Rp472
(dp473
g12
VSBAR
p474
sbatp475
Rp476
(dp477
g12
VVP
p478
sbatp479
Rp480
(dp481
g12
VS
p482
sbag0
(g1
g2
(lp483
V,
p484
atp485
Rp486
(dp487
g12
V,
p488
sbag0
(g1
g2
(lp489
Vand
p490
atp491
Rp492
(dp493
g12
VCC
p494
sbag0
(g1
g2
(lp495
g0
(g1
g2
(lp496
g0
(g1
g2
(lp497
Vshe
p498
atp499
Rp500
(dp501
g12
VPRP
p502
sbatp503
Rp504
(dp505
g12
VNP
p506
sbag0
(g1
g2
(lp507
g0
(g1
g2
(lp508
V's
p509
atp510
Rp511
(dp512
g12
VVBZ
p513
sbag0
(g1
g2
(lp514
g0
(g1
g2
(lp515
Vpouring
p516
atp517
Rp518
(dp519
g12
VVBG
p520
sbag0
(g1
g2
(lp521
g0
(g1
g2
(lp522
g0
(g1
g2
(lp523
Vwine
p524
atp525
Rp526
(dp527
g12
VNN
p528
sbatp529
Rp530
(dp531
g12
VNP
p532
sbag0
(g1
g2
(lp533
g0
(g1
g2
(lp534
Vin
p535
atp536
Rp537
(dp538
g12
VIN
p539
sbag0
(g1
g2
(lp540
g0
(g1
g2
(lp541
Va
p542
atp543
Rp544
(dp545
g12
VDT
p546
sbag0
(g1
g2
(lp547
Vbottle
p548
atp549
Rp550
(dp551
g12
VNN
p552
sbatp553
Rp554
(dp555
g12
VNP
p556
sbatp557
Rp558
(dp559
g12
VPP
p560
sbatp561
Rp562
(dp563
g12
VNP
p564
sbatp565
Rp566
(dp567
g12
VVP
p568
sbatp569
Rp570
(dp571
g12
VVP
p572
sbatp573
Rp574
(dp575
g12
VS
p576
sbatp577
Rp578
(dp579
g12
VS
p580
sbag0
(g1
g2
(lp581
Vand
p582
atp583
Rp584
(dp585
g12
VCC
p586
sbag0
(g1
g2
(lp587
g0
(g1
g2
(lp588
g0
(g1
g2
(lp589
Vhe
p590
atp591
Rp592
(dp593
g12
VPRP
p594
sbatp595
Rp596
(dp597
g12
VNP
p598
sbag0
(g1
g2
(lp599
g0
(g1
g2
(lp600
V's
p601
atp602
Rp603
(dp604
g12
VVBZ
p605
sbag0
(g1
g2
(lp606
g0
(g1
g2
(lp607
Vreading
p608
atp609
Rp610
(dp611
g12
VVBG
p612
sbag0
(g1
g2
(lp613
g0
(g1
g2
(lp614
Va
p615
atp616
Rp617
(dp618
g12
VDT
p619
sbag0
(g1
g2
(lp620
Vbook
p621
atp622
Rp623
(dp624
g12
VNN
p625
sbatp626
Rp627
(dp628
g12
VNP
p629
sbatp630
Rp631
(dp632
g12
VVP
p633
sbatp634
Rp635
(dp636
g12
VVP
p637
sbatp638
Rp639
(dp640
g12
VS
p641
sbag0
(g1
g2
(lp642
V.
p643
atp644
Rp645
(dp646
g12
V.
p647
sbatp648
Rp649
(dp650
g12
VS
p651
sbatp652
Rp653
(dp654
g12
S'id: 2'
p655
sbag0
(g1
g2
(lp656
g0
(g1
g2
(lp657
g0
(g1
g2
(lp658
g0
(g1
g2
(lp659
g0
(g1
g2
(lp660
VNext
p661
atp662
Rp663
(dp664
g12
VJJ
p665
sbag0
(g1
g2
(lp666
g0
(g1
g2
(lp667
Vto
p668
atp669
Rp670
(dp671
g12
VTO
p672
sbatp673
Rp674
(dp675
g12
VPP
p676
sbatp677
Rp678
(dp679
g12
VADVP
p680
sbag0
(g1
g2
(lp681
g0
(g1
g2
(lp682
Vthem
p683
atp684
Rp685
(dp686
g12
VPRP
p687
sbatp688
Rp689
(dp690
g12
VNP
p691
sbag0
(g1
g2
(lp692
g0
(g1
g2
(lp693
Vis
p694
atp695
Rp696
(dp697
g12
VVBZ
p698
sbag0
(g1
g2
(lp699
g0
(g1
g2
(lp700
g0
(g1
g2
(lp701
Va
p702
atp703
Rp704
(dp705
g12
VDT
p706
sbag0
(g1
g2
(lp707
Vlittle
p708
atp709
Rp710
(dp711
g12
VJJ
p712
sbag0
(g1
g2
(lp713
Vboy
p714
atp715
Rp716
(dp717
g12
VNN
p718
sbatp719
Rp720
(dp721
g12
VNP
p722
sbag0
(g1
g2
(lp723
g0
(g1
g2
(lp724
Vflying
p725
atp726
Rp727
(dp728
g12
VVBG
p729
sbag0
(g1
g2
(lp730
g0
(g1
g2
(lp731
Va
p732
atp733
Rp734
(dp735
g12
VDT
p736
sbag0
(g1
g2
(lp737
Vkite
p738
atp739
Rp740
(dp741
g12
VNN
p742
sbatp743
Rp744
(dp745
g12
VNP
p746
sbatp747
Rp748
(dp749
g12
VVP
p750
sbatp751
Rp752
(dp753
g12
VNP
p754
sbatp755
Rp756
(dp757
g12
VVP
p758
sbatp759
Rp760
(dp761
g12
VS
p762
sbag0
(g1
g2
(lp763
V,
p764
atp765
Rp766
(dp767
g12
V,
p768
sbag0
(g1
g2
(lp769
Vand
p770
atp771
Rp772
(dp773
g12
VCC
p774
sbag0
(g1
g2
(lp775
g0
(g1
g2
(lp776
g0
(g1
g2
(lp777
Vthe
p778
atp779
Rp780
(dp781
g12
VDT
p782
sbag0
(g1
g2
(lp783
Vdog
p784
atp785
Rp786
(dp787
g12
VNN
p788
sbatp789
Rp790
(dp791
g12
VNP
p792
sbag0
(g1
g2
(lp793
g0
(g1
g2
(lp794
Vis
p795
atp796
Rp797
(dp798
g12
VVBZ
p799
sbag0
(g1
g2
(lp800
g0
(g1
g2
(lp801
Vrunning
p802
atp803
Rp804
(dp805
g12
VVBG
p806
sbag0
(g1
g2
(lp807
g0
(g1
g2
(lp808
Vbehind
p809
atp810
Rp811
(dp812
g12
VIN
p813
sbag0
(g1
g2
(lp814
g0
(g1
g2
(lp815
Vhim
p816
atp817
Rp818
(dp819
g12
VPRP
p820
sbatp821
Rp822
(dp823
g12
VNP
p824
sbatp825
Rp826
(dp827
g12
VPP
p828
sbatp829
Rp830
(dp831
g12
VVP
p832
sbatp833
Rp834
(dp835
g12
VVP
p836
sbatp837
Rp838
(dp839
g12
VS
p840
sbag0
(g1
g2
(lp841
V.
p842
atp843
Rp844
(dp845
g12
V.
p846
sbatp847
Rp848
(dp849
g12
VS
p850
sbatp851
Rp852
(dp853
g12
S'id: 3'
p854
sbag0
(g1
g2
(lp855
g0
(g1
g2
(lp856
g0
(g1
g2
(lp857
VAnd
p858
atp859
Rp860
(dp861
g12
VCC
p862
sbag0
(g1
g2
(lp863
g0
(g1
g2
(lp864
g0
(g1
g2
(lp865
V,
p866
atp867
Rp868
(dp869
g12
V,
p870
sbag0
(g1
g2
(lp871
Vand
p872
atp873
Rp874
(dp875
g12
VCC
p876
sbag0
(g1
g2
(lp877
g0
(g1
g2
(lp878
Vfurther
p879
atp880
Rp881
(dp882
g12
VRB
p883
sbag0
(g1
g2
(lp884
Vdown
p885
atp886
Rp887
(dp888
g12
VRB
p889
sbatp890
Rp891
(dp892
g12
VADVP
p893
sbag0
(g1
g2
(lp894
g0
(g1
g2
(lp895
Vnear
p896
atp897
Rp898
(dp899
g12
VIN
p900
sbag0
(g1
g2
(lp901
g0
(g1
g2
(lp902
g0
(g1
g2
(lp903
Vthe
p904
atp905
Rp906
(dp907
g12
VDT
p908
sbag0
(g1
g2
(lp909
Vbeach
p910
atp911
Rp912
(dp913
g12
VNN
p914
sbatp915
Rp916
(dp917
g12
VNP
p918
sbag0
(g1
g2
(lp919
V,
p920
atp921
Rp922
(dp923
g12
V,
p924
sbag0
(g1
g2
(lp925
Vor
p926
atp927
Rp928
(dp929
g12
VCC
p930
sbag0
(g1
g2
(lp931
g0
(g1
g2
(lp932
Vthe
p933
atp934
Rp935
(dp936
g12
VDT
p937
sbag0
(g1
g2
(lp938
Vlakeshore
p939
atp940
Rp941
(dp942
g12
VNN
p943
sbatp944
Rp945
(dp946
g12
VNP
p947
sbag0
(g1
g2
(lp948
V,
p949
atp950
Rp951
(dp952
g12
V,
p953
sbatp954
Rp955
(dp956
g12
VNP
p957
sbatp958
Rp959
(dp960
g12
VPP
p961
sbatp962
Rp963
(dp964
g12
VFRAG
p965
sbag0
(g1
g2
(lp966
g0
(g1
g2
(lp967
Vthere
p968
atp969
Rp970
(dp971
g12
VEX
p972
sbatp973
Rp974
(dp975
g12
VNP
p976
sbag0
(g1
g2
(lp977
g0
(g1
g2
(lp978
V's
p979
atp980
Rp981
(dp982
g12
VVBZ
p983
sbag0
(g1
g2
(lp984
g0
(g1
g2
(lp985
g0
(g1
g2
(lp986
Va
p987
atp988
Rp989
(dp990
g12
VDT
p991
sbag0
(g1
g2
(lp992
Vlittle
p993
atp994
Rp995
(dp996
g12
VJJ
p997
sbag0
(g1
g2
(lp998
Vgirl
p999
atp1000
Rp1001
(dp1002
g12
VNN
p1003
sbatp1004
Rp1005
(dp1006
g12
VNP
p1007
sbag0
(g1
g2
(lp1008
g0
(g1
g2
(lp1009
Vmaking
p1010
atp1011
Rp1012
(dp1013
g12
VVBG
p1014
sbag0
(g1
g2
(lp1015
g0
(g1
g2
(lp1016
Va
p1017
atp1018
Rp1019
(dp1020
g12
VDT
p1021
sbag0
(g1
g2
(lp1022
Vsandcastle
p1023
atp1024
Rp1025
(dp1026
g12
VNN
p1027
sbatp1028
Rp1029
(dp1030
g12
VNP
p1031
sbatp1032
Rp1033
(dp1034
g12
VVP
p1035
sbatp1036
Rp1037
(dp1038
g12
VNP
p1039
sbatp1040
Rp1041
(dp1042
g12
VVP
p1043
sbatp1044
Rp1045
(dp1046
g12
VS
p1047
sbag0
(g1
g2
(lp1048
V,
p1049
atp1050
Rp1051
(dp1052
g12
V,
p1053
sbag0
(g1
g2
(lp1054
Vand
p1055
atp1056
Rp1057
(dp1058
g12
VCC
p1059
sbag0
(g1
g2
(lp1060
g0
(g1
g2
(lp1061
g0
(g1
g2
(lp1062
g0
(g1
g2
(lp1063
Vnext
p1064
atp1065
Rp1066
(dp1067
g12
VJJ
p1068
sbatp1069
Rp1070
(dp1071
g12
VNP
p1072
sbag0
(g1
g2
(lp1073
g0
(g1
g2
(lp1074
Vto
p1075
atp1076
Rp1077
(dp1078
g12
VTO
p1079
sbag0
(g1
g2
(lp1080
g0
(g1
g2
(lp1081
Vher
p1082
atp1083
Rp1084
(dp1085
g12
VPRP$
p1086
sbatp1087
Rp1088
(dp1089
g12
VNP
p1090
sbatp1091
Rp1092
(dp1093
g12
VPP
p1094
sbatp1095
Rp1096
(dp1097
g12
VNP
p1098
sbag0
(g1
g2
(lp1099
g0
(g1
g2
(lp1100
Vis
p1101
atp1102
Rp1103
(dp1104
g12
VVBZ
p1105
sbag0
(g1
g2
(lp1106
g0
(g1
g2
(lp1107
g0
(g1
g2
(lp1108
Va
p1109
atp1110
Rp1111
(dp1112
g12
VDT
p1113
sbag0
(g1
g2
(lp1114
Vbucket
p1115
atp1116
Rp1117
(dp1118
g12
VNN
p1119
sbatp1120
Rp1121
(dp1122
g12
VNP
p1123
sbag0
(g1
g2
(lp1124
Vand
p1125
atp1126
Rp1127
(dp1128
g12
VCC
p1129
sbag0
(g1
g2
(lp1130
g0
(g1
g2
(lp1131
g0
(g1
g2
(lp1132
Va
p1133
atp1134
Rp1135
(dp1136
g12
VDT
p1137
sbag0
(g1
g2
(lp1138
Vpail
p1139
atp1140
Rp1141
(dp1142
g12
VNN
p1143
sbatp1144
Rp1145
(dp1146
g12
VNP
p1147
sbag0
(g1
g2
(lp1148
g0
(g1
g2
(lp1149
g0
(g1
g2
(lp1150
Vwhich
p1151
atp1152
Rp1153
(dp1154
g12
VWDT
p1155
sbatp1156
Rp1157
(dp1158
g12
VWHNP
p1159
sbag0
(g1
g2
(lp1160
g0
(g1
g2
(lp1161
g0
(g1
g2
(lp1162
Vshe
p1163
atp1164
Rp1165
(dp1166
g12
VPRP
p1167
sbatp1168
Rp1169
(dp1170
g12
VNP
p1171
sbag0
(g1
g2
(lp1172
g0
(g1
g2
(lp1173
Vgets
p1174
atp1175
Rp1176
(dp1177
g12
VVBZ
p1178
sbag0
(g1
g2
(lp1179
g0
(g1
g2
(lp1180
Vher
p1181
atp1182
Rp1183
(dp1184
g12
VPRP$
p1185
sbag0
(g1
g2
(lp1186
Vsand
p1187
atp1188
Rp1189
(dp1190
g12
VNN
p1191
sbatp1192
Rp1193
(dp1194
g12
VNP
p1195
sbatp1196
Rp1197
(dp1198
g12
VVP
p1199
sbatp1200
Rp1201
(dp1202
g12
VS
p1203
sbatp1204
Rp1205
(dp1206
g12
VSBAR
p1207
sbatp1208
Rp1209
(dp1210
g12
VNP
p1211
sbatp1212
Rp1213
(dp1214
g12
VNP
p1215
sbatp1216
Rp1217
(dp1218
g12
VVP
p1219
sbatp1220
Rp1221
(dp1222
g12
VS
p1223
sbag0
(g1
g2
(lp1224
V.
p1225
atp1226
Rp1227
(dp1228
g12
V.
p1229
sbatp1230
Rp1231
(dp1232
g12
VS
p1233
sbatp1234
Rp1235
(dp1236
g12
S'id: 4'
p1237
sbag0
(g1
g2
(lp1238
g0
(g1
g2
(lp1239
g0
(g1
g2
(lp1240
g0
(g1
g2
(lp1241
g0
(g1
g2
(lp1242
VFurther
p1243
atp1244
Rp1245
(dp1246
g12
VRB
p1247
sbatp1248
Rp1249
(dp1250
g12
VADVP
p1251
sbag0
(g1
g2
(lp1252
Varound
p1253
atp1254
Rp1255
(dp1256
g12
VIN
p1257
sbag0
(g1
g2
(lp1258
g0
(g1
g2
(lp1259
Vthe
p1260
atp1261
Rp1262
(dp1263
g12
VDT
p1264
sbag0
(g1
g2
(lp1265
Vlakeshore
p1266
atp1267
Rp1268
(dp1269
g12
VNN
p1270
sbatp1271
Rp1272
(dp1273
g12
VNP
p1274
sbatp1275
Rp1276
(dp1277
g12
VPP
p1278
sbag0
(g1
g2
(lp1279
g0
(g1
g2
(lp1280
V,
p1281
atp1282
Rp1283
(dp1284
g12
V,
p1285
sbag0
(g1
g2
(lp1286
g0
(g1
g2
(lp1287
g0
(g1
g2
(lp1288
Vthere
p1289
atp1290
Rp1291
(dp1292
g12
VEX
p1293
sbatp1294
Rp1295
(dp1296
g12
VNP
p1297
sbag0
(g1
g2
(lp1298
g0
(g1
g2
(lp1299
V's
p1300
atp1301
Rp1302
(dp1303
g12
VVBZ
p1304
sbag0
(g1
g2
(lp1305
g0
(g1
g2
(lp1306
g0
(g1
g2
(lp1307
Va
p1308
atp1309
Rp1310
(dp1311
g12
VDT
p1312
sbag0
(g1
g2
(lp1313
Vman
p1314
atp1315
Rp1316
(dp1317
g12
VNN
p1318
sbag0
(g1
g2
(lp1319
Vfishing
p1320
atp1321
Rp1322
(dp1323
g12
VNN
p1324
sbatp1325
Rp1326
(dp1327
g12
VNP
p1328
sbag0
(g1
g2
(lp1329
g0
(g1
g2
(lp1330
Von
p1331
atp1332
Rp1333
(dp1334
g12
VIN
p1335
sbag0
(g1
g2
(lp1336
g0
(g1
g2
(lp1337
Va
p1338
atp1339
Rp1340
(dp1341
g12
VDT
p1342
sbag0
(g1
g2
(lp1343
Vdock
p1344
atp1345
Rp1346
(dp1347
g12
VNN
p1348
sbatp1349
Rp1350
(dp1351
g12
VNP
p1352
sbatp1353
Rp1354
(dp1355
g12
VPP
p1356
sbatp1357
Rp1358
(dp1359
g12
VNP
p1360
sbatp1361
Rp1362
(dp1363
g12
VVP
p1364
sbatp1365
Rp1366
(dp1367
g12
VS
p1368
sbag0
(g1
g2
(lp1369
V,
p1370
atp1371
Rp1372
(dp1373
g12
V,
p1374
sbatp1375
Rp1376
(dp1377
g12
VPRN
p1378
sbag0
(g1
g2
(lp1379
g0
(g1
g2
(lp1380
Vhe
p1381
atp1382
Rp1383
(dp1384
g12
VPRP
p1385
sbatp1386
Rp1387
(dp1388
g12
VNP
p1389
sbag0
(g1
g2
(lp1390
g0
(g1
g2
(lp1391
V's
p1392
atp1393
Rp1394
(dp1395
g12
VVBZ
p1396
sbag0
(g1
g2
(lp1397
g0
(g1
g2
(lp1398
Vcaught
p1399
atp1400
Rp1401
(dp1402
g12
VVBN
p1403
sbag0
(g1
g2
(lp1404
g0
(g1
g2
(lp1405
Va
p1406
atp1407
Rp1408
(dp1409
g12
VDT
p1410
sbag0
(g1
g2
(lp1411
Vfish
p1412
atp1413
Rp1414
(dp1415
g12
VNN
p1416
sbatp1417
Rp1418
(dp1419
g12
VNP
p1420
sbatp1421
Rp1422
(dp1423
g12
VVP
p1424
sbatp1425
Rp1426
(dp1427
g12
VVP
p1428
sbag0
(g1
g2
(lp1429
V.
p1430
atp1431
Rp1432
(dp1433
g12
V.
p1434
sbatp1435
Rp1436
(dp1437
g12
VS
p1438
sbatp1439
Rp1440
(dp1441
g12
S'id: 5'
p1442
sbag0
(g1
g2
(lp1443
g0
(g1
g2
(lp1444
g0
(g1
g2
(lp1445
g0
(g1
g2
(lp1446
VThere
p1447
atp1448
Rp1449
(dp1450
g12
VEX
p1451
sbatp1452
Rp1453
(dp1454
g12
VNP
p1455
sbag0
(g1
g2
(lp1456
g0
(g1
g2
(lp1457
V's
p1458
atp1459
Rp1460
(dp1461
g12
VVBZ
p1462
sbag0
(g1
g2
(lp1463
g0
(g1
g2
(lp1464
g0
(g1
g2
(lp1465
Va
p1466
atp1467
Rp1468
(dp1469
g12
VDT
p1470
sbag0
(g1
g2
(lp1471
Vperson
p1472
atp1473
Rp1474
(dp1475
g12
VNN
p1476
sbatp1477
Rp1478
(dp1479
g12
VNP
p1480
sbag0
(g1
g2
(lp1481
g0
(g1
g2
(lp1482
Vsailing
p1483
atp1484
Rp1485
(dp1486
g12
VVBG
p1487
sbag0
(g1
g2
(lp1488
g0
(g1
g2
(lp1489
g0
(g1
g2
(lp1490
Va
p1491
atp1492
Rp1493
(dp1494
g12
VDT
p1495
sbag0
(g1
g2
(lp1496
Vboat
p1497
atp1498
Rp1499
(dp1500
g12
VNN
p1501
sbatp1502
Rp1503
(dp1504
g12
VNP
p1505
sbag0
(g1
g2
(lp1506
g0
(g1
g2
(lp1507
Von
p1508
atp1509
Rp1510
(dp1511
g12
VIN
p1512
sbag0
(g1
g2
(lp1513
g0
(g1
g2
(lp1514
Vthe
p1515
atp1516
Rp1517
(dp1518
g12
VDT
p1519
sbag0
(g1
g2
(lp1520
Vlake
p1521
atp1522
Rp1523
(dp1524
g12
VNN
p1525
sbatp1526
Rp1527
(dp1528
g12
VNP
p1529
sbatp1530
Rp1531
(dp1532
g12
VPP
p1533
sbatp1534
Rp1535
(dp1536
g12
VNP
p1537
sbatp1538
Rp1539
(dp1540
g12
VVP
p1541
sbatp1542
Rp1543
(dp1544
g12
VNP
p1545
sbatp1546
Rp1547
(dp1548
g12
VVP
p1549
sbag0
(g1
g2
(lp1550
V.
p1551
atp1552
Rp1553
(dp1554
g12
V.
p1555
sbatp1556
Rp1557
(dp1558
g12
VS
p1559
sbatp1560
Rp1561
(dp1562
g12
S'id: 6'
p1563
sbag0
(g1
g2
(lp1564
g0
(g1
g2
(lp1565
g0
(g1
g2
(lp1566
VAnd
p1567
atp1568
Rp1569
(dp1570
g12
VCC
p1571
sbag0
(g1
g2
(lp1572
g0
(g1
g2
(lp1573
Vthere
p1574
atp1575
Rp1576
(dp1577
g12
VEX
p1578
sbatp1579
Rp1580
(dp1581
g12
VNP
p1582
sbag0
(g1
g2
(lp1583
g0
(g1
g2
(lp1584
V's
p1585
atp1586
Rp1587
(dp1588
g12
VVBZ
p1589
sbag0
(g1
g2
(lp1590
g0
(g1
g2
(lp1591
Vtrees
p1592
atp1593
Rp1594
(dp1595
g12
VNNS
p1596
sbatp1597
Rp1598
(dp1599
g12
VNP
p1600
sbatp1601
Rp1602
(dp1603
g12
VVP
p1604
sbag0
(g1
g2
(lp1605
V.
p1606
atp1607
Rp1608
(dp1609
g12
V.
p1610
sbatp1611
Rp1612
(dp1613
g12
VS
p1614
sbatp1615
Rp1616
(dp1617
g12
S'id: 7'
p1618
sbag0
(g1
g2
(lp1619
g0
(g1
g2
(lp1620
g0
(g1
g2
(lp1621
g0
(g1
g2
(lp1622
VI
p1623
atp1624
Rp1625
(dp1626
g12
VPRP
p1627
sbatp1628
Rp1629
(dp1630
g12
VNP
p1631
sbag0
(g1
g2
(lp1632
g0
(g1
g2
(lp1633
Vguess
p1634
atp1635
Rp1636
(dp1637
g12
VVBP
p1638
sbag0
(g1
g2
(lp1639
g0
(g1
g2
(lp1640
g0
(g1
g2
(lp1641
g0
(g1
g2
(lp1642
Vthis
p1643
atp1644
Rp1645
(dp1646
g12
VDT
p1647
sbatp1648
Rp1649
(dp1650
g12
VNP
p1651
sbag0
(g1
g2
(lp1652
g0
(g1
g2
(lp1653
Vis
p1654
atp1655
Rp1656
(dp1657
g12
VVBZ
p1658
sbag0
(g1
g2
(lp1659
g0
(g1
g2
(lp1660
Vresort
p1661
atp1662
Rp1663
(dp1664
g12
VNN
p1665
sbag0
(g1
g2
(lp1666
Vhouse
p1667
atp1668
Rp1669
(dp1670
g12
VNN
p1671
sbatp1672
Rp1673
(dp1674
g12
VNP
p1675
sbatp1676
Rp1677
(dp1678
g12
VVP
p1679
sbatp1680
Rp1681
(dp1682
g12
VS
p1683
sbatp1684
Rp1685
(dp1686
g12
VSBAR
p1687
sbatp1688
Rp1689
(dp1690
g12
VVP
p1691
sbag0
(g1
g2
(lp1692
V.
p1693
atp1694
Rp1695
(dp1696
g12
V.
p1697
sbatp1698
Rp1699
(dp1700
g12
VS
p1701
sbatp1702
Rp1703
(dp1704
g12
S'id: 8'
p1705
sbag0
(g1
g2
(lp1706
g0
(g1
g2
(lp1707
g0
(g1
g2
(lp1708
g0
(g1
g2
(lp1709
VThere
p1710
atp1711
Rp1712
(dp1713
g12
VEX
p1714
sbatp1715
Rp1716
(dp1717
g12
VNP
p1718
sbag0
(g1
g2
(lp1719
g0
(g1
g2
(lp1720
V's
p1721
atp1722
Rp1723
(dp1724
g12
VVBZ
p1725
sbag0
(g1
g2
(lp1726
g0
(g1
g2
(lp1727
g0
(g1
g2
(lp1728
Va
p1729
atp1730
Rp1731
(dp1732
g12
VDT
p1733
sbag0
(g1
g2
(lp1734
Vcar
p1735
atp1736
Rp1737
(dp1738
g12
VNN
p1739
sbatp1740
Rp1741
(dp1742
g12
VNP
p1743
sbag0
(g1
g2
(lp1744
g0
(g1
g2
(lp1745
Vin
p1746
atp1747
Rp1748
(dp1749
g12
VIN
p1750
sbag0
(g1
g2
(lp1751
g0
(g1
g2
(lp1752
Vthe
p1753
atp1754
Rp1755
(dp1756
g12
VDT
p1757
sbag0
(g1
g2
(lp1758
Vdriveway
p1759
atp1760
Rp1761
(dp1762
g12
VNN
p1763
sbatp1764
Rp1765
(dp1766
g12
VNP
p1767
sbatp1768
Rp1769
(dp1770
g12
VPP
p1771
sbatp1772
Rp1773
(dp1774
g12
VNP
p1775
sbatp1776
Rp1777
(dp1778
g12
VVP
p1779
sbag0
(g1
g2
(lp1780
V.
p1781
atp1782
Rp1783
(dp1784
g12
V.
p1785
sbatp1786
Rp1787
(dp1788
g12
VS
p1789
sbatp1790
Rp1791
(dp1792
g12
S'id: 9'
p1793
sbag0
(g1
g2
(lp1794
g0
(g1
g2
(lp1795
g0
(g1
g2
(lp1796
g0
(g1
g2
(lp1797
VIt
p1798
atp1799
Rp1800
(dp1801
g12
VPRP
p1802
sbatp1803
Rp1804
(dp1805
g12
VNP
p1806
sbag0
(g1
g2
(lp1807
g0
(g1
g2
(lp1808
V's
p1809
atp1810
Rp1811
(dp1812
g12
VVBZ
p1813
sbag0
(g1
g2
(lp1814
g0
(g1
g2
(lp1815
Va
p1816
atp1817
Rp1818
(dp1819
g12
VDT
p1820
sbag0
(g1
g2
(lp1821
Vsingle
p1822
atp1823
Rp1824
(dp1825
g12
VJJ
p1826
sbag0
(g1
g2
(lp1827
Vstory
p1828
atp1829
Rp1830
(dp1831
g12
VNN
p1832
sbag0
(g1
g2
(lp1833
Vhouse
p1834
atp1835
Rp1836
(dp1837
g12
VNN
p1838
sbatp1839
Rp1840
(dp1841
g12
VNP
p1842
sbatp1843
Rp1844
(dp1845
g12
VVP
p1846
sbag0
(g1
g2
(lp1847
V.
p1848
atp1849
Rp1850
(dp1851
g12
V.
p1852
sbatp1853
Rp1854
(dp1855
g12
VS
p1856
sbatp1857
Rp1858
(dp1859
g12
S'id: 10'
p1860
sbag0
(g1
g2
(lp1861
g0
(g1
g2
(lp1862
g0
(g1
g2
(lp1863
g0
(g1
g2
(lp1864
VThere
p1865
atp1866
Rp1867
(dp1868
g12
VEX
p1869
sbatp1870
Rp1871
(dp1872
g12
VNP
p1873
sbag0
(g1
g2
(lp1874
g0
(g1
g2
(lp1875
V's
p1876
atp1877
Rp1878
(dp1879
g12
VVBZ
p1880
sbag0
(g1
g2
(lp1881
V...
p1882
atp1883
Rp1884
(dp1885
g12
V:
p1886
sbag0
(g1
g2
(lp1887
g0
(g1
g2
(lp1888
g0
(g1
g2
(lp1889
VLet
p1890
atp1891
Rp1892
(dp1893
g12
VVB
p1894
sbag0
(g1
g2
(lp1895
g0
(g1
g2
(lp1896
g0
(g1
g2
(lp1897
V's
p1898
atp1899
Rp1900
(dp1901
g12
VPOS
p1902
sbatp1903
Rp1904
(dp1905
g12
VNP
p1906
sbag0
(g1
g2
(lp1907
g0
(g1
g2
(lp1908
Vsee
p1909
atp1910
Rp1911
(dp1912
g12
VVB
p1913
sbag0
(g1
g2
(lp1914
V,
p1915
atp1916
Rp1917
(dp1918
g12
V,
p1919
sbag0
(g1
g2
(lp1920
g0
(g1
g2
(lp1921
g0
(g1
g2
(lp1922
g0
(g1
g2
(lp1923
Vcar
p1924
atp1925
Rp1926
(dp1927
g12
VNN
p1928
sbag0
(g1
g2
(lp1929
V's
p1930
atp1931
Rp1932
(dp1933
g12
VPOS
p1934
sbatp1935
Rp1936
(dp1937
g12
VNP
p1938
sbag0
(g1
g2
(lp1939
g0
(g1
g2
(lp1940
Vin
p1941
atp1942
Rp1943
(dp1944
g12
VIN
p1945
sbag0
(g1
g2
(lp1946
g0
(g1
g2
(lp1947
g0
(g1
g2
(lp1948
Vthe
p1949
atp1950
Rp1951
(dp1952
g12
VDT
p1953
sbag0
(g1
g2
(lp1954
Vdriveway
p1955
atp1956
Rp1957
(dp1958
g12
VNN
p1959
sbatp1960
Rp1961
(dp1962
g12
VNP
p1963
sbag0
(g1
g2
(lp1964
V,
p1965
atp1966
Rp1967
(dp1968
g12
V,
p1969
sbag0
(g1
g2
(lp1970
g0
(g1
g2
(lp1971
Vsingle
p1972
atp1973
Rp1974
(dp1975
g12
VJJ
p1976
sbag0
(g1
g2
(lp1977
Vstory
p1978
atp1979
Rp1980
(dp1981
g12
VNN
p1982
sbag0
(g1
g2
(lp1983
Vhouse
p1984
atp1985
Rp1986
(dp1987
g12
VNN
p1988
sbatp1989
Rp1990
(dp1991
g12
VNP
p1992
sbag0
(g1
g2
(lp1993
V,
p1994
atp1995
Rp1996
(dp1997
g12
V,
p1998
sbatp1999
Rp2000
(dp2001
g12
VNP
p2002
sbatp2003
Rp2004
(dp2005
g12
VPP
p2006
sbatp2007
Rp2008
(dp2009
g12
VNP
p2010
sbag0
(g1
g2
(lp2011
g0
(g1
g2
(lp2012
Vflying
p2013
atp2014
Rp2015
(dp2016
g12
VVBG
p2017
sbag0
(g1
g2
(lp2018
g0
(g1
g2
(lp2019
Va
p2020
atp2021
Rp2022
(dp2023
g12
VDT
p2024
sbag0
(g1
g2
(lp2025
Vkite
p2026
atp2027
Rp2028
(dp2029
g12
VNN
p2030
sbatp2031
Rp2032
(dp2033
g12
VNP
p2034
sbatp2035
Rp2036
(dp2037
g12
VVP
p2038
sbatp2039
Rp2040
(dp2041
g12
VS
p2042
sbatp2043
Rp2044
(dp2045
g12
VVP
p2046
sbatp2047
Rp2048
(dp2049
g12
VS
p2050
sbatp2051
Rp2052
(dp2053
g12
VVP
p2054
sbatp2055
Rp2056
(dp2057
g12
VS
p2058
sbatp2059
Rp2060
(dp2061
g12
VVP
p2062
sbag0
(g1
g2
(lp2063
V.
p2064
atp2065
Rp2066
(dp2067
g12
V.
p2068
sbatp2069
Rp2070
(dp2071
g12
VS
p2072
sbatp2073
Rp2074
(dp2075
g12
S'id: 11'
p2076
sbag0
(g1
g2
(lp2077
g0
(g1
g2
(lp2078
g0
(g1
g2
(lp2079
g0
(g1
g2
(lp2080
VThere
p2081
atp2082
Rp2083
(dp2084
g12
VEX
p2085
sbatp2086
Rp2087
(dp2088
g12
VNP
p2089
sbag0
(g1
g2
(lp2090
g0
(g1
g2
(lp2091
V's
p2092
atp2093
Rp2094
(dp2095
g12
VVBZ
p2096
sbag0
(g1
g2
(lp2097
g0
(g1
g2
(lp2098
g0
(g1
g2
(lp2099
Va
p2100
atp2101
Rp2102
(dp2103
g12
VDT
p2104
sbag0
(g1
g2
(lp2105
Vflag
p2106
atp2107
Rp2108
(dp2109
g12
VNN
p2110
sbatp2111
Rp2112
(dp2113
g12
VNP
p2114
sbag0
(g1
g2
(lp2115
g0
(g1
g2
(lp2116
Vflying
p2117
atp2118
Rp2119
(dp2120
g12
VVBG
p2121
sbag0
(g1
g2
(lp2122
g0
(g1
g2
(lp2123
Vin
p2124
atp2125
Rp2126
(dp2127
g12
VIN
p2128
sbag0
(g1
g2
(lp2129
g0
(g1
g2
(lp2130
Vthe
p2131
atp2132
Rp2133
(dp2134
g12
VDT
p2135
sbag0
(g1
g2
(lp2136
Vyard
p2137
atp2138
Rp2139
(dp2140
g12
VNN
p2141
sbatp2142
Rp2143
(dp2144
g12
VNP
p2145
sbatp2146
Rp2147
(dp2148
g12
VPP
p2149
sbatp2150
Rp2151
(dp2152
g12
VVP
p2153
sbatp2154
Rp2155
(dp2156
g12
VNP
p2157
sbatp2158
Rp2159
(dp2160
g12
VVP
p2161
sbag0
(g1
g2
(lp2162
V.
p2163
atp2164
Rp2165
(dp2166
g12
V.
p2167
sbatp2168
Rp2169
(dp2170
g12
VS
p2171
sbatp2172
Rp2173
(dp2174
g12
S'id: 12'
p2175
sbag0
(g1
g2
(lp2176
g0
(g1
g2
(lp2177
g0
(g1
g2
(lp2178
g0
(g1
g2
(lp2179
VThe
p2180
atp2181
Rp2182
(dp2183
g12
VDT
p2184
sbag0
(g1
g2
(lp2185
Vlittle
p2186
atp2187
Rp2188
(dp2189
g12
VJJ
p2190
sbag0
(g1
g2
(lp2191
Vboy
p2192
atp2193
Rp2194
(dp2195
g12
VNN
p2196
sbatp2197
Rp2198
(dp2199
g12
VNP
p2200
sbag0
(g1
g2
(lp2201
V,
p2202
atp2203
Rp2204
(dp2205
g12
V,
p2206
sbag0
(g1
g2
(lp2207
g0
(g1
g2
(lp2208
g0
(g1
g2
(lp2209
Vgoing
p2210
atp2211
Rp2212
(dp2213
g12
VVBG
p2214
sbag0
(g1
g2
(lp2215
g0
(g1
g2
(lp2216
Vback
p2217
atp2218
Rp2219
(dp2220
g12
VRB
p2221
sbatp2222
Rp2223
(dp2224
g12
VADVP
p2225
sbatp2226
Rp2227
(dp2228
g12
VVP
p2229
sbatp2230
Rp2231
(dp2232
g12
VS
p2233
sbag0
(g1
g2
(lp2234
V,
p2235
atp2236
Rp2237
(dp2238
g12
V,
p2239
sbag0
(g1
g2
(lp2240
g0
(g1
g2
(lp2241
Vthe
p2242
atp2243
Rp2244
(dp2245
g12
VDT
p2246
sbag0
(g1
g2
(lp2247
Vlittle
p2248
atp2249
Rp2250
(dp2251
g12
VJJ
p2252
sbag0
(g1
g2
(lp2253
Vboy
p2254
atp2255
Rp2256
(dp2257
g12
VNN
p2258
sbatp2259
Rp2260
(dp2261
g12
VNP
p2262
sbag0
(g1
g2
(lp2263
g0
(g1
g2
(lp2264
Vis
p2265
atp2266
Rp2267
(dp2268
g12
VVBZ
p2269
sbag0
(g1
g2
(lp2270
g0
(g1
g2
(lp2271
Vlaughing
p2272
atp2273
Rp2274
(dp2275
g12
VVBG
p2276
sbatp2277
Rp2278
(dp2279
g12
VVP
p2280
sbatp2281
Rp2282
(dp2283
g12
VVP
p2284
sbag0
(g1
g2
(lp2285
V.
p2286
atp2287
Rp2288
(dp2289
g12
V.
p2290
sbatp2291
Rp2292
(dp2293
g12
VS
p2294
sbatp2295
Rp2296
(dp2297
g12
S'id: 13'
p2298
sbag0
(g1
g2
(lp2299
g0
(g1
g2
(lp2300
g0
(g1
g2
(lp2301
g0
(g1
g2
(lp2302
g0
(g1
g2
(lp2303
VThe
p2304
atp2305
Rp2306
(dp2307
g12
VDT
p2308
sbag0
(g1
g2
(lp2309
Vdog
p2310
atp2311
Rp2312
(dp2313
g12
VNN
p2314
sbatp2315
Rp2316
(dp2317
g12
VNP
p2318
sbag0
(g1
g2
(lp2319
g0
(g1
g2
(lp2320
Vhas
p2321
atp2322
Rp2323
(dp2324
g12
VVBZ
p2325
sbag0
(g1
g2
(lp2326
g0
(g1
g2
(lp2327
Vhis
p2328
atp2329
Rp2330
(dp2331
g12
VPRP$
p2332
sbag0
(g1
g2
(lp2333
Vtongue
p2334
atp2335
Rp2336
(dp2337
g12
VNN
p2338
sbag0
(g1
g2
(lp2339
g0
(g1
g2
(lp2340
g0
(g1
g2
(lp2341
g0
(g1
g2
(lp2342
Vsticking
p2343
atp2344
Rp2345
(dp2346
g12
VVBG
p2347
sbag0
(g1
g2
(lp2348
g0
(g1
g2
(lp2349
Vout
p2350
atp2351
Rp2352
(dp2353
g12
VRP
p2354
sbatp2355
Rp2356
(dp2357
g12
VPRT
p2358
sbatp2359
Rp2360
(dp2361
g12
VVP
p2362
sbag0
(g1
g2
(lp2363
Vand
p2364
atp2365
Rp2366
(dp2367
g12
VCC
p2368
sbag0
(g1
g2
(lp2369
g0
(g1
g2
(lp2370
Vrunning
p2371
atp2372
Rp2373
(dp2374
g12
VVBG
p2375
sbatp2376
Rp2377
(dp2378
g12
VVP
p2379
sbatp2380
Rp2381
(dp2382
g12
VVP
p2383
sbatp2384
Rp2385
(dp2386
g12
VS
p2387
sbatp2388
Rp2389
(dp2390
g12
VNP
p2391
sbatp2392
Rp2393
(dp2394
g12
VVP
p2395
sbatp2396
Rp2397
(dp2398
g12
VS
p2399
sbag0
(g1
g2
(lp2400
V,
p2401
atp2402
Rp2403
(dp2404
g12
V,
p2405
sbag0
(g1
g2
(lp2406
Vand
p2407
atp2408
Rp2409
(dp2410
g12
VCC
p2411
sbag0
(g1
g2
(lp2412
g0
(g1
g2
(lp2413
g0
(g1
g2
(lp2414
Vhe
p2415
atp2416
Rp2417
(dp2418
g12
VPRP
p2419
sbatp2420
Rp2421
(dp2422
g12
VNP
p2423
sbag0
(g1
g2
(lp2424
g0
(g1
g2
(lp2425
V's
p2426
atp2427
Rp2428
(dp2429
g12
VVBZ
p2430
sbag0
(g1
g2
(lp2431
g0
(g1
g2
(lp2432
Vhappy
p2433
atp2434
Rp2435
(dp2436
g12
VJJ
p2437
sbatp2438
Rp2439
(dp2440
g12
VADJP
p2441
sbatp2442
Rp2443
(dp2444
g12
VVP
p2445
sbatp2446
Rp2447
(dp2448
g12
VS
p2449
sbag0
(g1
g2
(lp2450
V.
p2451
atp2452
Rp2453
(dp2454
g12
V.
p2455
sbatp2456
Rp2457
(dp2458
g12
VS
p2459
sbatp2460
Rp2461
(dp2462
g12
S'id: 14'
p2463
sbag0
(g1
g2
(lp2464
g0
(g1
g2
(lp2465
g0
(g1
g2
(lp2466
g0
(g1
g2
(lp2467
g0
(g1
g2
(lp2468
g0
(g1
g2
(lp2469
VEverybody
p2470
atp2471
Rp2472
(dp2473
g12
VNN
p2474
sbag0
(g1
g2
(lp2475
V's
p2476
atp2477
Rp2478
(dp2479
g12
VPOS
p2480
sbatp2481
Rp2482
(dp2483
g12
VNP
p2484
sbag0
(g1
g2
(lp2485
Vhappy
p2486
atp2487
Rp2488
(dp2489
g12
VJJ
p2490
sbatp2491
Rp2492
(dp2493
g12
VNP
p2494
sbag0
(g1
g2
(lp2495
g0
(g1
g2
(lp2496
Von
p2497
atp2498
Rp2499
(dp2500
g12
VIN
p2501
sbag0
(g1
g2
(lp2502
g0
(g1
g2
(lp2503
g0
(g1
g2
(lp2504
Vthe
p2505
atp2506
Rp2507
(dp2508
g12
VDT
p2509
sbatp2510
Rp2511
(dp2512
g12
VNP
p2513
sbag0
(g1
g2
(lp2514
V,
p2515
atp2516
Rp2517
(dp2518
g12
V,
p2519
sbag0
(g1
g2
(lp2520
g0
(g1
g2
(lp2521
Von
p2522
atp2523
Rp2524
(dp2525
g12
VIN
p2526
sbag0
(g1
g2
(lp2527
g0
(g1
g2
(lp2528
Vthe
p2529
atp2530
Rp2531
(dp2532
g12
VDT
p2533
sbag0
(g1
g2
(lp2534
Vpicture
p2535
atp2536
Rp2537
(dp2538
g12
VNN
p2539
sbatp2540
Rp2541
(dp2542
g12
VNP
p2543
sbatp2544
Rp2545
(dp2546
g12
VPP
p2547
sbatp2548
Rp2549
(dp2550
g12
VNP
p2551
sbatp2552
Rp2553
(dp2554
g12
VPP
p2555
sbatp2556
Rp2557
(dp2558
g12
VNP
p2559
sbag0
(g1
g2
(lp2560
V,
p2561
atp2562
Rp2563
(dp2564
g12
V,
p2565
sbag0
(g1
g2
(lp2566
g0
(g1
g2
(lp2567
g0
(g1
g2
(lp2568
Veven
p2569
atp2570
Rp2571
(dp2572
g12
VRB
p2573
sbag0
(g1
g2
(lp2574
Vthe
p2575
atp2576
Rp2577
(dp2578
g12
VDT
p2579
sbag0
(g1
g2
(lp2580
Vlady
p2581
atp2582
Rp2583
(dp2584
g12
VNN
p2585
sbatp2586
Rp2587
(dp2588
g12
VNP
p2589
sbag0
(g1
g2
(lp2590
g0
(g1
g2
(lp2591
g0
(g1
g2
(lp2592
Vthat
p2593
atp2594
Rp2595
(dp2596
g12
VWDT
p2597
sbatp2598
Rp2599
(dp2600
g12
VWHNP
p2601
sbag0
(g1
g2
(lp2602
g0
(g1
g2
(lp2603
g0
(g1
g2
(lp2604
V's
p2605
atp2606
Rp2607
(dp2608
g12
VVBZ
p2609
sbag0
(g1
g2
(lp2610
g0
(g1
g2
(lp2611
Vpouring
p2612
atp2613
Rp2614
(dp2615
g12
VVBG
p2616
sbag0
(g1
g2
(lp2617
g0
(g1
g2
(lp2618
Vthe
p2619
atp2620
Rp2621
(dp2622
g12
VDT
p2623
sbag0
(g1
g2
(lp2624
Vwine
p2625
atp2626
Rp2627
(dp2628
g12
VNN
p2629
sbatp2630
Rp2631
(dp2632
g12
VNP
p2633
sbatp2634
Rp2635
(dp2636
g12
VVP
p2637
sbatp2638
Rp2639
(dp2640
g12
VVP
p2641
sbatp2642
Rp2643
(dp2644
g12
VS
p2645
sbatp2646
Rp2647
(dp2648
g12
VSBAR
p2649
sbatp2650
Rp2651
(dp2652
g12
VNP
p2653
sbag0
(g1
g2
(lp2654
V.
p2655
atp2656
Rp2657
(dp2658
g12
V.
p2659
sbatp2660
Rp2661
(dp2662
g12
VNP
p2663
sbatp2664
Rp2665
(dp2666
g12
S'id: 15'
p2667
sbag0
(g1
g2
(lp2668
g0
(g1
g2
(lp2669
g0
(g1
g2
(lp2670
g0
(g1
g2
(lp2671
g0
(g1
g2
(lp2672
VShe
p2673
atp2674
Rp2675
(dp2676
g12
VPRP
p2677
sbatp2678
Rp2679
(dp2680
g12
VNP
p2681
sbag0
(g1
g2
(lp2682
g0
(g1
g2
(lp2683
Vhas
p2684
atp2685
Rp2686
(dp2687
g12
VVBZ
p2688
sbag0
(g1
g2
(lp2689
g0
(g1
g2
(lp2690
g0
(g1
g2
(lp2691
Von
p2692
atp2693
Rp2694
(dp2695
g12
VIN
p2696
sbag0
(g1
g2
(lp2697
g0
(g1
g2
(lp2698
g0
(g1
g2
(lp2699
Vshorts
p2700
atp2701
Rp2702
(dp2703
g12
VNNS
p2704
sbatp2705
Rp2706
(dp2707
g12
VNP
p2708
sbag0
(g1
g2
(lp2709
Vand
p2710
atp2711
Rp2712
(dp2713
g12
VCC
p2714
sbag0
(g1
g2
(lp2715
g0
(g1
g2
(lp2716
Va
p2717
atp2718
Rp2719
(dp2720
g12
VDT
p2721
sbag0
(g1
g2
(lp2722
Vtank
p2723
atp2724
Rp2725
(dp2726
g12
VNN
p2727
sbag0
(g1
g2
(lp2728
Vtop
p2729
atp2730
Rp2731
(dp2732
g12
VNN
p2733
sbatp2734
Rp2735
(dp2736
g12
VNP
p2737
sbatp2738
Rp2739
(dp2740
g12
VNP
p2741
sbatp2742
Rp2743
(dp2744
g12
VPP
p2745
sbatp2746
Rp2747
(dp2748
g12
VVP
p2749
sbatp2750
Rp2751
(dp2752
g12
VVP
p2753
sbatp2754
Rp2755
(dp2756
g12
VS
p2757
sbag0
(g1
g2
(lp2758
V,
p2759
atp2760
Rp2761
(dp2762
g12
V,
p2763
sbag0
(g1
g2
(lp2764
g0
(g1
g2
(lp2765
Vhe
p2766
atp2767
Rp2768
(dp2769
g12
VPRP
p2770
sbatp2771
Rp2772
(dp2773
g12
VNP
p2774
sbag0
(g1
g2
(lp2775
g0
(g1
g2
(lp2776
Vhas
p2777
atp2778
Rp2779
(dp2780
g12
VVBZ
p2781
sbag0
(g1
g2
(lp2782
g0
(g1
g2
(lp2783
g0
(g1
g2
(lp2784
Von
p2785
atp2786
Rp2787
(dp2788
g12
VIN
p2789
sbag0
(g1
g2
(lp2790
g0
(g1
g2
(lp2791
Vshorts
p2792
atp2793
Rp2794
(dp2795
g12
VNNS
p2796
sbag0
(g1
g2
(lp2797
Vand
p2798
atp2799
Rp2800
(dp2801
g12
VCC
p2802
sbag0
(g1
g2
(lp2803
Vshirt
p2804
atp2805
Rp2806
(dp2807
g12
VNN
p2808
sbatp2809
Rp2810
(dp2811
g12
VNP
p2812
sbatp2813
Rp2814
(dp2815
g12
VPP
p2816
sbatp2817
Rp2818
(dp2819
g12
VVP
p2820
sbatp2821
Rp2822
(dp2823
g12
VVP
p2824
sbag0
(g1
g2
(lp2825
V.
p2826
atp2827
Rp2828
(dp2829
g12
V.
p2830
sbatp2831
Rp2832
(dp2833
g12
VS
p2834
sbatp2835
Rp2836
(dp2837
g12
S'id: 16'
p2838
sbag0
(g1
g2
(lp2839
g0
(g1
g2
(lp2840
g0
(g1
g2
(lp2841
g0
(g1
g2
(lp2842
g0
(g1
g2
(lp2843
VHe
p2844
atp2845
Rp2846
(dp2847
g12
VPRP
p2848
sbatp2849
Rp2850
(dp2851
g12
VNP
p2852
sbag0
(g1
g2
(lp2853
g0
(g1
g2
(lp2854
Vhas
p2855
atp2856
Rp2857
(dp2858
g12
VVBZ
p2859
sbag0
(g1
g2
(lp2860
g0
(g1
g2
(lp2861
Vhis
p2862
atp2863
Rp2864
(dp2865
g12
VPRP$
p2866
sbag0
(g1
g2
(lp2867
Vshoes
p2868
atp2869
Rp2870
(dp2871
g12
VNNS
p2872
sbatp2873
Rp2874
(dp2875
g12
VNP
p2876
sbag0
(g1
g2
(lp2877
g0
(g1
g2
(lp2878
Voff
p2879
atp2880
Rp2881
(dp2882
g12
VRP
p2883
sbatp2884
Rp2885
(dp2886
g12
VPP
p2887
sbatp2888
Rp2889
(dp2890
g12
VVP
p2891
sbatp2892
Rp2893
(dp2894
g12
VS
p2895
sbag0
(g1
g2
(lp2896
V,
p2897
atp2898
Rp2899
(dp2900
g12
V,
p2901
sbag0
(g1
g2
(lp2902
g0
(g1
g2
(lp2903
Vshe
p2904
atp2905
Rp2906
(dp2907
g12
VPRP
p2908
sbatp2909
Rp2910
(dp2911
g12
VNP
p2912
sbag0
(g1
g2
(lp2913
g0
(g1
g2
(lp2914
Vhas
p2915
atp2916
Rp2917
(dp2918
g12
VVBZ
p2919
sbag0
(g1
g2
(lp2920
g0
(g1
g2
(lp2921
Vher
p2922
atp2923
Rp2924
(dp2925
g12
VPRP$
p2926
sbag0
(g1
g2
(lp2927
Vshoes
p2928
atp2929
Rp2930
(dp2931
g12
VNNS
p2932
sbatp2933
Rp2934
(dp2935
g12
VNP
p2936
sbag0
(g1
g2
(lp2937
g0
(g1
g2
(lp2938
Von
p2939
atp2940
Rp2941
(dp2942
g12
VIN
p2943
sbatp2944
Rp2945
(dp2946
g12
VPP
p2947
sbatp2948
Rp2949
(dp2950
g12
VVP
p2951
sbag0
(g1
g2
(lp2952
V.
p2953
atp2954
Rp2955
(dp2956
g12
V.
p2957
sbatp2958
Rp2959
(dp2960
g12
VS
p2961
sbatp2962
Rp2963
(dp2964
g12
S'id: 17'
p2965
sbag0
(g1
g2
(lp2966
g0
(g1
g2
(lp2967
g0
(g1
g2
(lp2968
g0
(g1
g2
(lp2969
VThere
p2970
atp2971
Rp2972
(dp2973
g12
VEX
p2974
sbatp2975
Rp2976
(dp2977
g12
VNP
p2978
sbag0
(g1
g2
(lp2979
g0
(g1
g2
(lp2980
V's
p2981
atp2982
Rp2983
(dp2984
g12
VVBZ
p2985
sbag0
(g1
g2
(lp2986
g0
(g1
g2
(lp2987
Va
p2988
atp2989
Rp2990
(dp2991
g12
VDT
p2992
sbag0
(g1
g2
(lp2993
Vradio
p2994
atp2995
Rp2996
(dp2997
g12
VNN
p2998
sbatp2999
Rp3000
(dp3001
g12
VNP
p3002
sbatp3003
Rp3004
(dp3005
g12
VVP
p3006
sbag0
(g1
g2
(lp3007
V.
p3008
atp3009
Rp3010
(dp3011
g12
V.
p3012
sbatp3013
Rp3014
(dp3015
g12
VS
p3016
sbatp3017
Rp3018
(dp3019
g12
S'id: 18'
p3020
sbag0
(g1
g2
(lp3021
g0
(g1
g2
(lp3022
g0
(g1
g2
(lp3023
g0
(g1
g2
(lp3024
g0
(g1
g2
(lp3025
VLet
p3026
atp3027
Rp3028
(dp3029
g12
VVB
p3030
sbag0
(g1
g2
(lp3031
g0
(g1
g2
(lp3032
g0
(g1
g2
(lp3033
V's
p3034
atp3035
Rp3036
(dp3037
g12
VPRP
p3038
sbatp3039
Rp3040
(dp3041
g12
VNP
p3042
sbag0
(g1
g2
(lp3043
g0
(g1
g2
(lp3044
Vsee
p3045
atp3046
Rp3047
(dp3048
g12
VVB
p3049
sbatp3050
Rp3051
(dp3052
g12
VVP
p3053
sbatp3054
Rp3055
(dp3056
g12
VS
p3057
sbatp3058
Rp3059
(dp3060
g12
VVP
p3061
sbatp3062
Rp3063
(dp3064
g12
VS
p3065
sbag0
(g1
g2
(lp3066
V,
p3067
atp3068
Rp3069
(dp3070
g12
V,
p3071
sbag0
(g1
g2
(lp3072
g0
(g1
g2
(lp3073
Vthe
p3074
atp3075
Rp3076
(dp3077
g12
VDT
p3078
sbag0
(g1
g2
(lp3079
Vlake
p3080
atp3081
Rp3082
(dp3083
g12
VNN
p3084
sbatp3085
Rp3086
(dp3087
g12
VNP
p3088
sbag0
(g1
g2
(lp3089
g0
(g1
g2
(lp3090
Vgoes
p3091
atp3092
Rp3093
(dp3094
g12
VVBZ
p3095
sbag0
(g1
g2
(lp3096
g0
(g1
g2
(lp3097
Vall
p3098
atp3099
Rp3100
(dp3101
g12
VPDT
p3102
sbag0
(g1
g2
(lp3103
Vthe
p3104
atp3105
Rp3106
(dp3107
g12
VDT
p3108
sbag0
(g1
g2
(lp3109
Vway
p3110
atp3111
Rp3112
(dp3113
g12
VNN
p3114
sbatp3115
Rp3116
(dp3117
g12
VNP
p3118
sbag0
(g1
g2
(lp3119
g0
(g1
g2
(lp3120
Varound
p3121
atp3122
Rp3123
(dp3124
g12
VIN
p3125
sbatp3126
Rp3127
(dp3128
g12
VADVP
p3129
sbatp3130
Rp3131
(dp3132
g12
VVP
p3133
sbag0
(g1
g2
(lp3134
V.
p3135
atp3136
Rp3137
(dp3138
g12
V.
p3139
sbatp3140
Rp3141
(dp3142
g12
VS
p3143
sbatp3144
Rp3145
(dp3146
g12
S'id: 19'
p3147
sbag0
(g1
g2
(lp3148
g0
(g1
g2
(lp3149
g0
(g1
g2
(lp3150
g0
(g1
g2
(lp3151
VAbain
p3152
atp3153
Rp3154
(dp3155
g12
VNNP
p3156
sbag0
(g1
g2
(lp3157
VI
p3158
atp3159
Rp3160
(dp3161
g12
VPRP
p3162
sbatp3163
Rp3164
(dp3165
g12
VNP
p3166
sbag0
(g1
g2
(lp3167
g0
(g1
g2
(lp3168
Vsee
p3169
atp3170
Rp3171
(dp3172
g12
VVBP
p3173
sbag0
(g1
g2
(lp3174
g0
(g1
g2
(lp3175
g0
(g1
g2
(lp3176
Vtrees
p3177
atp3178
Rp3179
(dp3180
g12
VNNS
p3181
sbatp3182
Rp3183
(dp3184
g12
VNP
p3185
sbag0
(g1
g2
(lp3186
V,
p3187
atp3188
Rp3189
(dp3190
g12
V,
p3191
sbag0
(g1
g2
(lp3192
Vand
p3193
atp3194
Rp3195
(dp3196
g12
VCC
p3197
sbag0
(g1
g2
(lp3198
g0
(g1
g2
(lp3199
Vshrubberies
p3200
atp3201
Rp3202
(dp3203
g12
VNNS
p3204
sbatp3205
Rp3206
(dp3207
g12
VNP
p3208
sbatp3209
Rp3210
(dp3211
g12
VNP
p3212
sbatp3213
Rp3214
(dp3215
g12
VVP
p3216
sbag0
(g1
g2
(lp3217
V.
p3218
atp3219
Rp3220
(dp3221
g12
V.
p3222
sbatp3223
Rp3224
(dp3225
g12
VS
p3226
sbatp3227
Rp3228
(dp3229
g12
S'id: 20'
p3230
sbag0
(g1
g2
(lp3231
g0
(g1
g2
(lp3232
g0
(g1
g2
(lp3233
VAnd
p3234
atp3235
Rp3236
(dp3237
g12
VCC
p3238
sbag0
(g1
g2
(lp3239
g0
(g1
g2
(lp3240
Vthe
p3241
atp3242
Rp3243
(dp3244
g12
VDT
p3245
sbag0
(g1
g2
(lp3246
Vwaves
p3247
atp3248
Rp3249
(dp3250
g12
VNNS
p3251
sbatp3252
Rp3253
(dp3254
g12
VNP
p3255
sbag0
(g1
g2
(lp3256
g0
(g1
g2
(lp3257
Vis
p3258
atp3259
Rp3260
(dp3261
g12
VVBZ
p3262
sbag0
(g1
g2
(lp3263
g0
(g1
g2
(lp3264
Vrolling
p3265
atp3266
Rp3267
(dp3268
g12
VVBG
p3269
sbag0
(g1
g2
(lp3270
g0
(g1
g2
(lp3271
Vup
p3272
atp3273
Rp3274
(dp3275
g12
VRP
p3276
sbatp3277
Rp3278
(dp3279
g12
VPRT
p3280
sbag0
(g1
g2
(lp3281
g0
(g1
g2
(lp3282
Von
p3283
atp3284
Rp3285
(dp3286
g12
VIN
p3287
sbag0
(g1
g2
(lp3288
g0
(g1
g2
(lp3289
Vthe
p3290
atp3291
Rp3292
(dp3293
g12
VDT
p3294
sbag0
(g1
g2
(lp3295
Vshore
p3296
atp3297
Rp3298
(dp3299
g12
VNN
p3300
sbatp3301
Rp3302
(dp3303
g12
VNP
p3304
sbatp3305
Rp3306
(dp3307
g12
VPP
p3308
sbatp3309
Rp3310
(dp3311
g12
VVP
p3312
sbatp3313
Rp3314
(dp3315
g12
VVP
p3316
sbag0
(g1
g2
(lp3317
V.
p3318
atp3319
Rp3320
(dp3321
g12
V.
p3322
sbatp3323
Rp3324
(dp3325
g12
VS
p3326
sbatp3327
Rp3328
(dp3329
g12
S'id: 21'
p3330
sbag0
(g1
g2
(lp3331
g0
(g1
g2
(lp3332
g0
(g1
g2
(lp3333
VAnd
p3334
atp3335
Rp3336
(dp3337
g12
VCC
p3338
sbag0
(g1
g2
(lp3339
g0
(g1
g2
(lp3340
VI
p3341
atp3342
Rp3343
(dp3344
g12
VPRP
p3345
sbatp3346
Rp3347
(dp3348
g12
VNP
p3349
sbag0
(g1
g2
(lp3350
g0
(g1
g2
(lp3351
Vdo
p3352
atp3353
Rp3354
(dp3355
g12
VVBP
p3356
sbag0
(g1
g2
(lp3357
Vn't
p3358
atp3359
Rp3360
(dp3361
g12
VRB
p3362
sbag0
(g1
g2
(lp3363
g0
(g1
g2
(lp3364
Vknow
p3365
atp3366
Rp3367
(dp3368
g12
VVB
p3369
sbag0
(g1
g2
(lp3370
g0
(g1
g2
(lp3371
g0
(g1
g2
(lp3372
Vwhat
p3373
atp3374
Rp3375
(dp3376
g12
VWP
p3377
sbatp3378
Rp3379
(dp3380
g12
VWHNP
p3381
sbag0
(g1
g2
(lp3382
g0
(g1
g2
(lp3383
g0
(g1
g2
(lp3384
Vto
p3385
atp3386
Rp3387
(dp3388
g12
VTO
p3389
sbag0
(g1
g2
(lp3390
g0
(g1
g2
(lp3391
Vsay
p3392
atp3393
Rp3394
(dp3395
g12
VVB
p3396
sbag0
(g1
g2
(lp3397
g0
(g1
g2
(lp3398
Vabout
p3399
atp3400
Rp3401
(dp3402
g12
VIN
p3403
sbag0
(g1
g2
(lp3404
g0
(g1
g2
(lp3405
Vit
p3406
atp3407
Rp3408
(dp3409
g12
VPRP
p3410
sbatp3411
Rp3412
(dp3413
g12
VNP
p3414
sbatp3415
Rp3416
(dp3417
g12
VPP
p3418
sbatp3419
Rp3420
(dp3421
g12
VVP
p3422
sbatp3423
Rp3424
(dp3425
g12
VVP
p3426
sbatp3427
Rp3428
(dp3429
g12
VS
p3430
sbatp3431
Rp3432
(dp3433
g12
VSBAR
p3434
sbatp3435
Rp3436
(dp3437
g12
VVP
p3438
sbatp3439
Rp3440
(dp3441
g12
VVP
p3442
sbag0
(g1
g2
(lp3443
V.
p3444
atp3445
Rp3446
(dp3447
g12
V.
p3448
sbatp3449
Rp3450
(dp3451
g12
VS
p3452
sbatp3453
Rp3454
(dp3455
g12
S'id: 22'
p3456
sbag0
(g1
g2
(lp3457
g0
(g1
g2
(lp3458
g0
(g1
g2
(lp3459
g0
(g1
g2
(lp3460
g0
(g1
g2
(lp3461
g0
(g1
g2
(lp3462
VI
p3463
atp3464
Rp3465
(dp3466
g12
VPRP
p3467
sbatp3468
Rp3469
(dp3470
g12
VNP
p3471
sbag0
(g1
g2
(lp3472
g0
(g1
g2
(lp3473
Vdo
p3474
atp3475
Rp3476
(dp3477
g12
VVBP
p3478
sbag0
(g1
g2
(lp3479
Vn't
p3480
atp3481
Rp3482
(dp3483
g12
VRB
p3484
sbag0
(g1
g2
(lp3485
g0
(g1
g2
(lp3486
Vsee
p3487
atp3488
Rp3489
(dp3490
g12
VVB
p3491
sbag0
(g1
g2
(lp3492
g0
(g1
g2
(lp3493
Vno
p3494
atp3495
Rp3496
(dp3497
g12
VDT
p3498
sbag0
(g1
g2
(lp3499
Vbirds
p3500
atp3501
Rp3502
(dp3503
g12
VNNS
p3504
sbatp3505
Rp3506
(dp3507
g12
VNP
p3508
sbatp3509
Rp3510
(dp3511
g12
VVP
p3512
sbatp3513
Rp3514
(dp3515
g12
VVP
p3516
sbatp3517
Rp3518
(dp3519
g12
VS
p3520
sbag0
(g1
g2
(lp3521
V,
p3522
atp3523
Rp3524
(dp3525
g12
V,
p3526
sbag0
(g1
g2
(lp3527
g0
(g1
g2
(lp3528
Vmaybe
p3529
atp3530
Rp3531
(dp3532
g12
VRB
p3533
sbatp3534
Rp3535
(dp3536
g12
VADVP
p3537
sbag0
(g1
g2
(lp3538
g0
(g1
g2
(lp3539
g0
(g1
g2
(lp3540
Vthere
p3541
atp3542
Rp3543
(dp3544
g12
VEX
p3545
sbatp3546
Rp3547
(dp3548
g12
VNP
p3549
sbag0
(g1
g2
(lp3550
g0
(g1
g2
(lp3551
V's
p3552
atp3553
Rp3554
(dp3555
g12
VVBZ
p3556
sbag0
(g1
g2
(lp3557
g0
(g1
g2
(lp3558
Vone
p3559
atp3560
Rp3561
(dp3562
g12
VCD
p3563
sbatp3564
Rp3565
(dp3566
g12
VNP
p3567
sbatp3568
Rp3569
(dp3570
g12
VVP
p3571
sbatp3572
Rp3573
(dp3574
g12
VS
p3575
sbatp3576
Rp3577
(dp3578
g12
VS
p3579
sbag0
(g1
g2
(lp3580
V,
p3581
atp3582
Rp3583
(dp3584
g12
V,
p3585
sbag0
(g1
g2
(lp3586
g0
(g1
g2
(lp3587
Vthat
p3588
atp3589
Rp3590
(dp3591
g12
VDT
p3592
sbatp3593
Rp3594
(dp3595
g12
VNP
p3596
sbag0
(g1
g2
(lp3597
g0
(g1
g2
(lp3598
V's
p3599
atp3600
Rp3601
(dp3602
g12
VVBZ
p3603
sbag0
(g1
g2
(lp3604
g0
(g1
g2
(lp3605
g0
(g1
g2
(lp3606
Vone
p3607
atp3608
Rp3609
(dp3610
g12
VCD
p3611
sbatp3612
Rp3613
(dp3614
g12
VNP
p3615
sbag0
(g1
g2
(lp3616
V,
p3617
atp3618
Rp3619
(dp3620
g12
V,
p3621
sbag0
(g1
g2
(lp3622
Vmaybe
p3623
atp3624
Rp3625
(dp3626
g12
VRB
p3627
sbag0
(g1
g2
(lp3628
g0
(g1
g2
(lp3629
g0
(g1
g2
(lp3630
Va
p3631
atp3632
Rp3633
(dp3634
g12
VDT
p3635
sbag0
(g1
g2
(lp3636
Vspeck
p3637
atp3638
Rp3639
(dp3640
g12
VNN
p3641
sbatp3642
Rp3643
(dp3644
g12
VNP
p3645
sbag0
(g1
g2
(lp3646
V,
p3647
atp3648
Rp3649
(dp3650
g12
V,
p3651
sbag0
(g1
g2
(lp3652
g0
(g1
g2
(lp3653
g0
(g1
g2
(lp3654
Va
p3655
atp3656
Rp3657
(dp3658
g12
VDT
p3659
sbag0
(g1
g2
(lp3660
Vbird
p3661
atp3662
Rp3663
(dp3664
g12
VNN
p3665
sbatp3666
Rp3667
(dp3668
g12
VNP
p3669
sbag0
(g1
g2
(lp3670
g0
(g1
g2
(lp3671
Vin
p3672
atp3673
Rp3674
(dp3675
g12
VIN
p3676
sbag0
(g1
g2
(lp3677
g0
(g1
g2
(lp3678
Vthe
p3679
atp3680
Rp3681
(dp3682
g12
VDT
p3683
sbag0
(g1
g2
(lp3684
Vsky
p3685
atp3686
Rp3687
(dp3688
g12
VNN
p3689
sbatp3690
Rp3691
(dp3692
g12
VNP
p3693
sbatp3694
Rp3695
(dp3696
g12
VPP
p3697
sbatp3698
Rp3699
(dp3700
g12
VNP
p3701
sbatp3702
Rp3703
(dp3704
g12
VNP
p3705
sbatp3706
Rp3707
(dp3708
g12
VNP
p3709
sbatp3710
Rp3711
(dp3712
g12
VVP
p3713
sbag0
(g1
g2
(lp3714
V.
p3715
atp3716
Rp3717
(dp3718
g12
V.
p3719
sbatp3720
Rp3721
(dp3722
g12
VS
p3723
sbatp3724
Rp3725
(dp3726
g12
S'id: 23'
p3727
sbatp3728
Rp3729
(dp3730
g12
S'sentences'
p3731
sb.