ccopy_reg
_reconstructor
p0
(cnltk.tree
Tree
p1
c__builtin__
list
p2
(lp3
g0
(g1
g2
(lp4
g0
(g1
g2
(lp5
g0
(g1
g2
(lp6
g0
(g1
g2
(lp7
g0
(g1
g2
(lp8
g0
(g1
g2
(lp9
g0
(g1
g2
(lp10
(lp11
S'word: this, index: 2'
p12
aatp13
Rp14
(dp15
S'_label'
p16
Vnsubj
p17
sbag0
(g1
g2
(lp18
g0
(g1
g2
(lp19
g0
(g1
g2
(lp20
(lp21
S'word: a, index: 5'
p22
aatp23
Rp24
(dp25
g16
Vdet
p26
sbag0
(g1
g2
(lp27
g0
(g1
g2
(lp28
g0
(g1
g2
(lp29
(lp30
S'word: where, index: 8'
p31
aatp32
Rp33
(dp34
g16
Vadvmod
p35
sbag0
(g1
g2
(lp36
(lp37
S'word: you, index: 9'
p38
aatp39
Rp40
(dp41
g16
Vnsubj
p42
sbag0
(g1
g2
(lp43
(lp44
S"word: 've, index: 10"
p45
aatp46
Rp47
(dp48
g16
Vaux
p49
sbag0
(g1
g2
(lp50
g0
(g1
g2
(lp51
g0
(g1
g2
(lp52
(lp53
S'word: a, index: 12'
p54
aatp55
Rp56
(dp57
g16
Vdet
p58
sbatp59
Rp60
(dp61
g16
S'word: lot, index: 13'
p62
sbatp63
Rp64
(dp65
g16
Vdobj
p66
sbatp67
Rp68
(dp69
g16
S'word: got, index: 11'
p70
sbatp71
Rp72
(dp73
g16
Vrcmod
p74
sbatp75
Rp76
(dp77
g16
S'word: circus, index: 6'
p78
sbatp79
Rp80
(dp81
g16
Vprep
p82
sbatp83
Rp84
(dp85
g16
S'word: looks, index: 3'
p86
sbatp87
Rp88
(dp89
g16
Vrcmod
p90
sbatp91
Rp92
(dp93
g16
S'word: ok, index: 1'
p94
sbatp95
Rp96
(dp97
g16
Vnsubj
p98
sbag0
(g1
g2
(lp99
g0
(g1
g2
(lp100
g0
(g1
g2
(lp101
(lp102
S'word: on, index: 16'
p103
aatp104
Rp105
(dp106
g16
Vprt
p107
sbag0
(g1
g2
(lp108
g0
(g1
g2
(lp109
g0
(g1
g2
(lp110
(lp111
S'word: the, index: 18'
p112
aatp113
Rp114
(dp115
g16
Vdet
p116
sbag0
(g1
g2
(lp117
(lp118
S'word: same, index: 19'
p119
aatp120
Rp121
(dp122
g16
Vamod
p123
sbatp124
Rp125
(dp126
g16
S'word: time, index: 20'
p127
sbatp128
Rp129
(dp130
g16
Vprep
p131
sbatp132
Rp133
(dp134
g16
S'word: going, index: 15'
p135
sbatp136
Rp137
(dp138
g16
Vxcomp
p139
sbatp140
Rp141
(dp142
g16
S'word: acts, index: 14'
p143
sbatp144
Rp145
(dp146
g16
S'id: 0'
p147
sbag0
(g1
g2
(lp148
g0
(g1
g2
(lp149
g0
(g1
g2
(lp150
g0
(g1
g2
(lp151
g0
(g1
g2
(lp152
(lp153
S'word: a, index: 4'
p154
aatp155
Rp156
(dp157
g16
Vdet
p158
sbag0
(g1
g2
(lp159
(lp160
S'word: bareback, index: 5'
p161
aatp162
Rp163
(dp164
g16
Vnn
p165
sbag0
(g1
g2
(lp166
g0
(g1
g2
(lp167
g0
(g1
g2
(lp168
(lp169
S'word: a, index: 8'
p170
aatp171
Rp172
(dp173
g16
Vdet
p174
sbag0
(g1
g2
(lp175
g0
(g1
g2
(lp176
g0
(g1
g2
(lp177
g0
(g1
g2
(lp178
g0
(g1
g2
(lp179
(lp180
S'word: a, index: 11'
p181
aatp182
Rp183
(dp184
g16
Vdet
p185
sbatp186
Rp187
(dp188
g16
S'word: horse, index: 12'
p189
sbatp190
Rp191
(dp192
g16
Vdobj
p193
sbatp194
Rp195
(dp196
g16
S'word: riding, index: 10'
p197
sbatp198
Rp199
(dp200
g16
Vvmod
p201
sbatp202
Rp203
(dp204
g16
S'word: lady, index: 9'
p205
sbatp206
Rp207
(dp208
g16
Vappos
p209
sbatp210
Rp211
(dp212
g16
S'word: rider, index: 6'
p213
sbatp214
Rp215
(dp216
g16
Vdobj
p217
sbag0
(g1
g2
(lp218
(lp219
S'word: You, index: 1'
p220
aatp221
Rp222
(dp223
g16
Vnsubj
p224
sbag0
(g1
g2
(lp225
(lp226
S"word: 've, index: 2"
p227
aatp228
Rp229
(dp230
g16
Vaux
p231
sbatp232
Rp233
(dp234
g16
S'word: got, index: 3'
p235
sbatp236
Rp237
(dp238
g16
S'id: 1'
p239
sbag0
(g1
g2
(lp240
g0
(g1
g2
(lp241
g0
(g1
g2
(lp242
(lp243
S'word: You, index: 1'
p244
aatp245
Rp246
(dp247
g16
Vnsubj
p248
sbag0
(g1
g2
(lp249
(lp250
S"word: 've, index: 2"
p251
aatp252
Rp253
(dp254
g16
Vaux
p255
sbag0
(g1
g2
(lp256
g0
(g1
g2
(lp257
g0
(g1
g2
(lp258
g0
(g1
g2
(lp259
g0
(g1
g2
(lp260
g0
(g1
g2
(lp261
g0
(g1
g2
(lp262
(lp263
S'word: the, index: 7'
p264
aatp265
Rp266
(dp267
g16
Vdet
p268
sbatp269
Rp270
(dp271
g16
S'word: audience, index: 8'
p272
sbatp273
Rp274
(dp275
g16
Vprep
p276
sbatp277
Rp278
(dp279
g16
S'word: sitting, index: 5'
p280
sbatp281
Rp282
(dp283
g16
Vvmod
p284
sbatp285
Rp286
(dp287
g16
S'word: people, index: 4'
p288
sbatp289
Rp290
(dp291
g16
Vdobj
p292
sbatp293
Rp294
(dp295
g16
S'word: got, index: 3'
p296
sbatp297
Rp298
(dp299
g16
S'id: 2'
p300
sbag0
(g1
g2
(lp301
g0
(g1
g2
(lp302
g0
(g1
g2
(lp303
g0
(g1
g2
(lp304
g0
(g1
g2
(lp305
(lp306
S'word: who, index: 44'
p307
aatp308
Rp309
(dp310
g16
Vnsubj
p311
sbatp312
Rp313
(dp314
g16
S'word: knows, index: 45'
p315
sbatp316
Rp317
(dp318
g16
Vdobj
p319
sbag0
(g1
g2
(lp320
(lp321
S'word: you, index: 14'
p322
aatp323
Rp324
(dp325
g16
Vnsubj
p326
sbag0
(g1
g2
(lp327
(lp328
S"word: 've, index: 15"
p329
aatp330
Rp331
(dp332
g16
Vaux
p333
sbag0
(g1
g2
(lp334
g0
(g1
g2
(lp335
g0
(g1
g2
(lp336
(lp337
S'word: even, index: 41'
p338
aatp339
Rp340
(dp341
g16
Vadvmod
p342
sbag0
(g1
g2
(lp343
(lp344
S'word: candy, index: 42'
p345
aatp346
Rp347
(dp348
g16
Vdep
p349
sbag0
(g1
g2
(lp350
g313
atp351
Rp352
(dp353
g16
Vconj
p354
sbag0
(g1
g2
(lp355
g0
(g1
g2
(lp356
g0
(g1
g2
(lp357
g0
(g1
g2
(lp358
g0
(g1
g2
(lp359
(lp360
S'word: or, index: 28'
p361
aatp362
Rp363
(dp364
g16
Vcc
p365
sbatp366
Rp367
(dp368
g16
S'word: paper, index: 29'
p369
sbatp370
Rp371
(dp372
g16
Vnsubj
p373
sbag0
(g1
g2
(lp374
(lp375
S'word: up, index: 32'
p376
aatp377
Rp378
(dp379
g16
Vprt
p380
sbag0
(g1
g2
(lp381
(lp382
S'word: paper, index: 33'
p383
aatp384
Rp385
(dp386
g16
Vdobj
p387
sbag0
(g1
g2
(lp388
g0
(g1
g2
(lp389
g0
(g1
g2
(lp390
(lp391
S'word: the, index: 36'
p392
aatp393
Rp394
(dp395
g16
Vdet
p396
sbatp397
Rp398
(dp399
g16
S'word: kids, index: 37'
p400
sbatp401
Rp402
(dp403
g16
Vprep
p404
sbatp405
Rp406
(dp407
g16
S'word: cut, index: 31'
p408
sbatp409
Rp410
(dp411
g16
Vrcmod
p412
sbag0
(g1
g2
(lp413
(lp414
S'word: a, index: 17'
p415
aatp416
Rp417
(dp418
g16
Vdet
p419
sbag0
(g1
g2
(lp420
g0
(g1
g2
(lp421
g0
(g1
g2
(lp422
g406
atp423
Rp424
(dp425
g16
Vconj
p426
sbag0
(g1
g2
(lp427
(lp428
S'word: there, index: 19'
p429
aatp430
Rp431
(dp432
g16
Vadvmod
p433
sbag0
(g1
g2
(lp434
(lp435
S'word: that, index: 20'
p436
aatp437
Rp438
(dp439
g16
Vnsubj
p440
sbag0
(g1
g2
(lp441
(lp442
S'word: either, index: 22'
p443
aatp444
Rp445
(dp446
g16
Vdep
p447
sbag0
(g1
g2
(lp448
g0
(g1
g2
(lp449
g0
(g1
g2
(lp450
(lp451
S'word: that, index: 20'
p452
aatp453
Rp454
(dp455
g16
Vnsubj
p456
sbag0
(g1
g2
(lp457
(lp458
S'word: popcorn, index: 24'
p459
aatp460
Rp461
(dp462
g16
Vdobj
p463
sbatp464
Rp465
(dp466
g16
S'word: throwing, index: 23'
p467
sbatp468
Rp469
(dp470
g16
Vconj
p471
sbatp472
Rp473
(dp474
g16
S"word: 's, index: 21"
p475
sbatp476
Rp477
(dp478
g16
Vrcmod
p479
sbag0
(g1
g2
(lp480
g465
atp481
Rp482
(dp483
g16
Vrcmod
p484
sbag0
(g1
g2
(lp485
(lp486
S'word: maybe, index: 40'
p487
aatp488
Rp489
(dp490
g16
Vadvmod
p491
sbatp492
Rp493
(dp494
g16
S'word: clown, index: 18'
p495
sbatp496
Rp497
(dp498
g16
Vdobj
p499
sbag0
(g1
g2
(lp500
g0
(g1
g2
(lp501
g0
(g1
g2
(lp502
(lp503
S'word: You, index: 1'
p504
aatp505
Rp506
(dp507
g16
Vnsubj
p508
sbag0
(g1
g2
(lp509
(lp510
S"word: 've, index: 2"
p511
aatp512
Rp513
(dp514
g16
Vaux
p515
sbag0
(g1
g2
(lp516
g0
(g1
g2
(lp517
g0
(g1
g2
(lp518
g0
(g1
g2
(lp519
g0
(g1
g2
(lp520
g0
(g1
g2
(lp521
g0
(g1
g2
(lp522
(lp523
S'word: the, index: 10'
p524
aatp525
Rp526
(dp527
g16
Vdet
p528
sbag0
(g1
g2
(lp529
(lp530
S'word: type, index: 11'
p531
aatp532
Rp533
(dp534
g16
Vnn
p535
sbatp536
Rp537
(dp538
g16
S'word: rope, index: 12'
p539
sbatp540
Rp541
(dp542
g16
Vdobj
p543
sbag0
(g1
g2
(lp544
(lp545
S'word: that, index: 7'
p546
aatp547
Rp548
(dp549
g16
Vnsubj
p550
sbag0
(g1
g2
(lp551
(lp552
S"word: 's, index: 8"
p553
aatp554
Rp555
(dp556
g16
Vaux
p557
sbatp558
Rp559
(dp560
g16
S'word: doing, index: 9'
p561
sbatp562
Rp563
(dp564
g16
Vrcmod
p565
sbag0
(g1
g2
(lp566
(lp567
S'word: a, index: 5'
p568
aatp569
Rp570
(dp571
g16
Vdet
p572
sbatp573
Rp574
(dp575
g16
S'word: guy, index: 6'
p576
sbatp577
Rp578
(dp579
g16
Vdobj
p580
sbatp581
Rp582
(dp583
g16
S'word: got, index: 3'
p584
sbatp585
Rp586
(dp587
g16
Vccomp
p588
sbatp589
Rp590
(dp591
g16
S'word: got, index: 16'
p592
sbatp593
Rp594
(dp595
g16
S'id: 3'
p596
sbag0
(g1
g2
(lp597
g0
(g1
g2
(lp598
g0
(g1
g2
(lp599
g0
(g1
g2
(lp600
g0
(g1
g2
(lp601
g0
(g1
g2
(lp602
g0
(g1
g2
(lp603
g0
(g1
g2
(lp604
g0
(g1
g2
(lp605
(lp606
S'word: the, index: 5'
p607
aatp608
Rp609
(dp610
g16
Vdet
p611
sbag0
(g1
g2
(lp612
(lp613
S'word: ring, index: 6'
p614
aatp615
Rp616
(dp617
g16
Vnn
p618
sbag0
(g1
g2
(lp619
(lp620
S'word: no, index: 10'
p621
aatp622
Rp623
(dp624
g16
Vconj
p625
sbatp626
Rp627
(dp628
g16
S'word: master, index: 7'
p629
sbatp630
Rp631
(dp632
g16
Vnpadvmod
p633
sbag0
(g1
g2
(lp634
(lp635
S'word: no, index: 10'
p636
aatp637
Rp638
(dp639
g16
Vnpadvmod
p640
sbatp641
Rp642
(dp643
g16
S'word: well, index: 12'
p644
sbatp645
Rp646
(dp647
g16
Vadvmod
p648
sbag0
(g1
g2
(lp649
(lp650
S'word: I, index: 13'
p651
aatp652
Rp653
(dp654
g16
Vnsubj
p655
sbag0
(g1
g2
(lp656
g0
(g1
g2
(lp657
g0
(g1
g2
(lp658
g0
(g1
g2
(lp659
g0
(g1
g2
(lp660
(lp661
S'word: ring, index: 16'
p662
aatp663
Rp664
(dp665
g16
Vnn
p666
sbatp667
Rp668
(dp669
g16
S'word: master, index: 17'
p670
sbatp671
Rp672
(dp673
g16
Vdobj
p674
sbatp675
Rp676
(dp677
g16
S'word: say, index: 15'
p678
sbatp679
Rp680
(dp681
g16
Vxcomp
p682
sbag0
(g1
g2
(lp683
g0
(g1
g2
(lp684
g0
(g1
g2
(lp685
(lp686
S'word: I, index: 13'
p687
aatp688
Rp689
(dp690
g16
Vnsubj
p691
sbag0
(g1
g2
(lp692
g0
(g1
g2
(lp693
g0
(g1
g2
(lp694
g0
(g1
g2
(lp695
g0
(g1
g2
(lp696
(lp697
S'word: I, index: 53'
p698
aatp699
Rp700
(dp701
g16
Vnsubj
p702
sbag0
(g1
g2
(lp703
g0
(g1
g2
(lp704
g0
(g1
g2
(lp705
(lp706
S'word: the, index: 55'
p707
aatp708
Rp709
(dp710
g16
Vdet
p711
sbatp712
Rp713
(dp714
g16
S'word: lion, index: 56'
p715
sbatp716
Rp717
(dp718
g16
Vdobj
p719
sbag0
(g1
g2
(lp720
(lp721
S'word: from, index: 57'
p722
aatp723
Rp724
(dp725
g16
Vprep
p726
sbatp727
Rp728
(dp729
g16
S'word: mean, index: 54'
p730
sbatp731
Rp732
(dp733
g16
Vdep
p734
sbag0
(g1
g2
(lp735
g0
(g1
g2
(lp736
g0
(g1
g2
(lp737
(lp738
S'word: out, index: 60'
p739
aatp740
Rp741
(dp742
g16
Vprt
p743
sbatp744
Rp745
(dp746
g16
S'word: getting, index: 59'
p747
sbatp748
Rp749
(dp750
g16
Vdep
p751
sbatp752
Rp753
(dp754
g16
S'word: from, index: 51'
p755
sbatp756
Rp757
(dp758
g16
Vprep
p759
sbag0
(g1
g2
(lp760
g0
(g1
g2
(lp761
g0
(g1
g2
(lp762
(lp763
S'word: the, index: 20'
p764
aatp765
Rp766
(dp767
g16
Vdet
p768
sbatp769
Rp770
(dp771
g16
S'word: lion, index: 21'
p772
sbatp773
Rp774
(dp775
g16
Vdep
p776
sbag0
(g1
g2
(lp777
g0
(g1
g2
(lp778
g0
(g1
g2
(lp779
g0
(g1
g2
(lp780
g0
(g1
g2
(lp781
(lp782
S'word: it, index: 30'
p783
aatp784
Rp785
(dp786
g16
Vnsubj
p787
sbag0
(g1
g2
(lp788
g0
(g1
g2
(lp789
g0
(g1
g2
(lp790
g0
(g1
g2
(lp791
g0
(g1
g2
(lp792
(lp793
S'word: a, index: 45'
p794
aatp795
Rp796
(dp797
g16
Vdet
p798
sbag0
(g1
g2
(lp799
g0
(g1
g2
(lp800
g0
(g1
g2
(lp801
(lp802
S'word: to, index: 47'
p803
aatp804
Rp805
(dp806
g16
Vaux
p807
sbag0
(g1
g2
(lp808
g0
(g1
g2
(lp809
g0
(g1
g2
(lp810
(lp811
S'word: the, index: 49'
p812
aatp813
Rp814
(dp815
g16
Vdet
p816
sbatp817
Rp818
(dp819
g16
S'word: tiger, index: 50'
p820
sbatp821
Rp822
(dp823
g16
Vdobj
p824
sbatp825
Rp826
(dp827
g16
S'word: keep, index: 48'
p828
sbatp829
Rp830
(dp831
g16
Vvmod
p832
sbatp833
Rp834
(dp835
g16
S'word: ring, index: 46'
p836
sbatp837
Rp838
(dp839
g16
Vprep
p840
sbag0
(g1
g2
(lp841
(lp842
S'word: like, index: 32'
p843
aatp844
Rp845
(dp846
g16
Vmark
p847
sbag0
(g1
g2
(lp848
(lp849
S'word: he, index: 33'
p850
aatp851
Rp852
(dp853
g16
Vnsubj
p854
sbag0
(g1
g2
(lp855
(lp856
S'word: might, index: 34'
p857
aatp858
Rp859
(dp860
g16
Vaux
p861
sbag0
(g1
g2
(lp862
g0
(g1
g2
(lp863
g0
(g1
g2
(lp864
g834
atp865
Rp866
(dp867
g16
Vconj
p868
sbag0
(g1
g2
(lp869
(lp870
S'word: a, index: 38'
p871
aatp872
Rp873
(dp874
g16
Vdet
p875
sbag0
(g1
g2
(lp876
(lp877
S'word: carousel, index: 39'
p878
aatp879
Rp880
(dp881
g16
Vnn
p882
sbag0
(g1
g2
(lp883
(lp884
S'word: thing, index: 42'
p885
aatp886
Rp887
(dp888
g16
Vprep
p889
sbatp890
Rp891
(dp892
g16
S'word: kind, index: 40'
p893
sbatp894
Rp895
(dp896
g16
Vprep
p897
sbatp898
Rp899
(dp900
g16
S'word: be, index: 35'
p901
sbatp902
Rp903
(dp904
g16
Vadvcl
p905
sbatp906
Rp907
(dp908
g16
S'word: looks, index: 31'
p909
sbatp910
Rp911
(dp912
g16
Vdep
p913
sbag0
(g1
g2
(lp914
g0
(g1
g2
(lp915
g0
(g1
g2
(lp916
g907
atp917
Rp918
(dp919
g16
Vconj
p920
sbag0
(g1
g2
(lp921
g0
(g1
g2
(lp922
g0
(g1
g2
(lp923
(lp924
S'word: the, index: 24'
p925
aatp926
Rp927
(dp928
g16
Vdet
p929
sbatp930
Rp931
(dp932
g16
S'word: lion, index: 25'
p933
sbatp934
Rp935
(dp936
g16
Vnsubj
p937
sbag0
(g1
g2
(lp938
(lp939
S'word: tricks, index: 27'
p940
aatp941
Rp942
(dp943
g16
Vdobj
p944
sbatp945
Rp946
(dp947
g16
S'word: do, index: 26'
p948
sbatp949
Rp950
(dp951
g16
Vdep
p952
sbatp953
Rp954
(dp955
g16
S'word: having, index: 23'
p956
sbatp957
Rp958
(dp959
g16
Vccomp
p960
sbatp961
Rp962
(dp963
g16
S'word: tamer, index: 22'
p964
sbatp965
Rp966
(dp967
g16
Vconj
p968
sbatp969
Rp970
(dp971
g16
S'word: wouldnt, index: 14'
p972
sbatp973
Rp974
(dp975
g16
Vdep
p976
sbag0
(g1
g2
(lp977
(lp978
S'word: Then, index: 1'
p979
aatp980
Rp981
(dp982
g16
Vadvmod
p983
sbag0
(g1
g2
(lp984
(lp985
S'word: you, index: 2'
p986
aatp987
Rp988
(dp989
g16
Vnsubj
p990
sbag0
(g1
g2
(lp991
(lp992
S"word: 've, index: 3"
p993
aatp994
Rp995
(dp996
g16
Vaux
p997
sbag0
(g1
g2
(lp998
g962
atp999
Rp1000
(dp1001
g16
Vdep
p1002
sbatp1003
Rp1004
(dp1005
g16
S'word: got, index: 4'
p1006
sbatp1007
Rp1008
(dp1009
g16
S'id: 4'
p1010
sbag0
(g1
g2
(lp1011
g0
(g1
g2
(lp1012
g0
(g1
g2
(lp1013
g0
(g1
g2
(lp1014
g0
(g1
g2
(lp1015
(lp1016
S'word: The, index: 1'
p1017
aatp1018
Rp1019
(dp1020
g16
Vdet
p1021
sbatp1022
Rp1023
(dp1024
g16
S'word: clown, index: 2'
p1025
sbatp1026
Rp1027
(dp1028
g16
Vnsubj
p1029
sbag0
(g1
g2
(lp1030
g0
(g1
g2
(lp1031
g0
(g1
g2
(lp1032
(lp1033
S'word: a, index: 4'
p1034
aatp1035
Rp1036
(dp1037
g16
Vdet
p1038
sbag0
(g1
g2
(lp1039
g0
(g1
g2
(lp1040
g0
(g1
g2
(lp1041
(lp1042
S'word: his, index: 7'
p1043
aatp1044
Rp1045
(dp1046
g16
Vposs
p1047
sbatp1048
Rp1049
(dp1050
g16
S'word: hat, index: 8'
p1051
sbatp1052
Rp1053
(dp1054
g16
Vprep
p1055
sbatp1056
Rp1057
(dp1058
g16
S'word: flower, index: 5'
p1059
sbatp1060
Rp1061
(dp1062
g16
Vdobj
p1063
sbag0
(g1
g2
(lp1064
g0
(g1
g2
(lp1065
g0
(g1
g2
(lp1066
(lp1067
S'word: he, index: 19'
p1068
aatp1069
Rp1070
(dp1071
g16
Vnsubj
p1072
sbag0
(g1
g2
(lp1073
(lp1074
S"word: 's, index: 20"
p1075
aatp1076
Rp1077
(dp1078
g16
Vaux
p1079
sbag0
(g1
g2
(lp1080
(lp1081
S'word: suspenders, index: 22'
p1082
aatp1083
Rp1084
(dp1085
g16
Vdobj
p1086
sbatp1087
Rp1088
(dp1089
g16
S'word: wearing, index: 21'
p1090
sbatp1091
Rp1092
(dp1093
g16
Vparataxis
p1094
sbag0
(g1
g2
(lp1095
g0
(g1
g2
(lp1096
g0
(g1
g2
(lp1097
g0
(g1
g2
(lp1098
g0
(g1
g2
(lp1099
(lp1100
S'word: flower, index: 16'
p1101
aatp1102
Rp1103
(dp1104
g16
Vdep
p1105
sbag0
(g1
g2
(lp1106
(lp1107
S'word: a, index: 13'
p1108
aatp1109
Rp1110
(dp1111
g16
Vdet
p1112
sbag0
(g1
g2
(lp1113
(lp1114
S'word: flower, index: 14'
p1115
aatp1116
Rp1117
(dp1118
g16
Vnn
p1119
sbatp1120
Rp1121
(dp1122
g16
S'word: tie, index: 17'
p1123
sbatp1124
Rp1125
(dp1126
g16
Vdobj
p1127
sbag0
(g1
g2
(lp1128
(lp1129
S'word: he, index: 10'
p1130
aatp1131
Rp1132
(dp1133
g16
Vnsubjpass
p1134
sbag0
(g1
g2
(lp1135
(lp1136
S"word: 's, index: 11"
p1137
aatp1138
Rp1139
(dp1140
g16
Vauxpass
p1141
sbatp1142
Rp1143
(dp1144
g16
S'word: got, index: 12'
p1145
sbatp1146
Rp1147
(dp1148
g16
Vparataxis
p1149
sbatp1150
Rp1151
(dp1152
g16
S'word: has, index: 3'
p1153
sbatp1154
Rp1155
(dp1156
g16
S'id: 5'
p1157
sbag0
(g1
g2
(lp1158
g0
(g1
g2
(lp1159
g0
(g1
g2
(lp1160
(lp1161
S"word: 's, index: 2"
p1162
aatp1163
Rp1164
(dp1165
g16
Vauxpass
p1166
sbag0
(g1
g2
(lp1167
g0
(g1
g2
(lp1168
g0
(g1
g2
(lp1169
(lp1170
S'word: the, index: 4'
p1171
aatp1172
Rp1173
(dp1174
g16
Vdep
p1175
sbag0
(g1
g2
(lp1176
(lp1177
S'word: the, index: 5'
p1178
aatp1179
Rp1180
(dp1181
g16
Vdet
p1182
sbag0
(g1
g2
(lp1183
(lp1184
S'word: big, index: 6'
p1185
aatp1186
Rp1187
(dp1188
g16
Vamod
p1189
sbag0
(g1
g2
(lp1190
g0
(g1
g2
(lp1191
g0
(g1
g2
(lp1192
(lp1193
S'word: the, index: 9'
p1194
aatp1195
Rp1196
(dp1197
g16
Vdet
p1198
sbag0
(g1
g2
(lp1199
(lp1200
S'word: face, index: 10'
p1201
aatp1202
Rp1203
(dp1204
g16
Vnn
p1205
sbatp1206
Rp1207
(dp1208
g16
S'word: decoration, index: 11'
p1209
sbatp1210
Rp1211
(dp1212
g16
Vconj
p1213
sbatp1214
Rp1215
(dp1216
g16
S'word: nose, index: 7'
p1217
sbatp1218
Rp1219
(dp1220
g16
Vdobj
p1221
sbag0
(g1
g2
(lp1222
g1207
atp1223
Rp1224
(dp1225
g16
Vdobj
p1226
sbag0
(g1
g2
(lp1227
g0
(g1
g2
(lp1228
g0
(g1
g2
(lp1229
(lp1230
S'word: a, index: 13'
p1231
aatp1232
Rp1233
(dp1234
g16
Vdet
p1235
sbag0
(g1
g2
(lp1236
(lp1237
S'word: typical, index: 14'
p1238
aatp1239
Rp1240
(dp1241
g16
Vamod
p1242
sbatp1243
Rp1244
(dp1245
g16
S'word: clown, index: 15'
p1246
sbatp1247
Rp1248
(dp1249
g16
Vprep
p1250
sbag0
(g1
g2
(lp1251
(lp1252
S'word: He, index: 1'
p1253
aatp1254
Rp1255
(dp1256
g16
Vnsubjpass
p1257
sbatp1258
Rp1259
(dp1260
g16
S'word: got, index: 3'
p1261
sbatp1262
Rp1263
(dp1264
g16
S'id: 6'
p1265
sbag0
(g1
g2
(lp1266
g0
(g1
g2
(lp1267
g0
(g1
g2
(lp1268
g0
(g1
g2
(lp1269
g0
(g1
g2
(lp1270
g0
(g1
g2
(lp1271
g0
(g1
g2
(lp1272
(lp1273
S'word: her, index: 7'
p1274
aatp1275
Rp1276
(dp1277
g16
Vposs
p1278
sbatp1279
Rp1280
(dp1281
g16
S'word: father, index: 8'
p1282
sbatp1283
Rp1284
(dp1285
g16
Vprep
p1286
sbag0
(g1
g2
(lp1287
(lp1288
S'word: a, index: 3'
p1289
aatp1290
Rp1291
(dp1292
g16
Vdet
p1293
sbag0
(g1
g2
(lp1294
(lp1295
S'word: little, index: 4'
p1296
aatp1297
Rp1298
(dp1299
g16
Vamod
p1300
sbatp1301
Rp1302
(dp1303
g16
S'word: girl, index: 5'
p1304
sbatp1305
Rp1306
(dp1307
g16
Vnsubj
p1308
sbag0
(g1
g2
(lp1309
g0
(g1
g2
(lp1310
g0
(g1
g2
(lp1311
(lp1312
S'word: here, index: 11'
p1313
aatp1314
Rp1315
(dp1316
g16
Vadvmod
p1317
sbatp1318
Rp1319
(dp1320
g16
S'word: looking, index: 12'
p1321
sbatp1322
Rp1323
(dp1324
g16
Vprepc
p1325
sbag0
(g1
g2
(lp1326
(lp1327
S'word: There, index: 1'
p1328
aatp1329
Rp1330
(dp1331
g16
Vexpl
p1332
sbatp1333
Rp1334
(dp1335
g16
S"word: 's, index: 2"
p1336
sbatp1337
Rp1338
(dp1339
g16
S'id: 7'
p1340
sbag0
(g1
g2
(lp1341
g0
(g1
g2
(lp1342
g0
(g1
g2
(lp1343
g0
(g1
g2
(lp1344
g0
(g1
g2
(lp1345
g0
(g1
g2
(lp1346
g0
(g1
g2
(lp1347
(lp1348
S'word: the, index: 10'
p1349
aatp1350
Rp1351
(dp1352
g16
Vdet
p1353
sbatp1354
Rp1355
(dp1356
g16
S'word: lion, index: 11'
p1357
sbatp1358
Rp1359
(dp1360
g16
Vprep
p1361
sbag0
(g1
g2
(lp1362
g0
(g1
g2
(lp1363
g0
(g1
g2
(lp1364
(lp1365
S'word: if, index: 13'
p1366
aatp1367
Rp1368
(dp1369
g16
Vmark
p1370
sbag0
(g1
g2
(lp1371
(lp1372
S'word: she, index: 14'
p1373
aatp1374
Rp1375
(dp1376
g16
Vnsubj
p1377
sbag0
(g1
g2
(lp1378
(lp1379
S"word: 's, index: 15"
p1380
aatp1381
Rp1382
(dp1383
g16
Vaux
p1384
sbag0
(g1
g2
(lp1385
g0
(g1
g2
(lp1386
g0
(g1
g2
(lp1387
(lp1388
S'word: the, index: 18'
p1389
aatp1390
Rp1391
(dp1392
g16
Vdet
p1393
sbatp1394
Rp1395
(dp1396
g16
S'word: clown, index: 19'
p1397
sbatp1398
Rp1399
(dp1400
g16
Vprep
p1401
sbatp1402
Rp1403
(dp1404
g16
S'word: looking, index: 16'
p1405
sbatp1406
Rp1407
(dp1408
g16
Vconj
p1409
sbag0
(g1
g2
(lp1410
(lp1411
S'word: if, index: 5'
p1412
aatp1413
Rp1414
(dp1415
g16
Vmark
p1416
sbag0
(g1
g2
(lp1417
(lp1418
S'word: she, index: 6'
p1419
aatp1420
Rp1421
(dp1422
g16
Vnsubj
p1423
sbag0
(g1
g2
(lp1424
(lp1425
S"word: 's, index: 7"
p1426
aatp1427
Rp1428
(dp1429
g16
Vaux
p1430
sbatp1431
Rp1432
(dp1433
g16
S'word: looking, index: 8'
p1434
sbatp1435
Rp1436
(dp1437
g16
Vadvcl
p1438
sbag0
(g1
g2
(lp1439
g1403
atp1440
Rp1441
(dp1442
g16
Vadvcl
p1443
sbag0
(g1
g2
(lp1444
(lp1445
S'word: I, index: 1'
p1446
aatp1447
Rp1448
(dp1449
g16
Vnsubj
p1450
sbag0
(g1
g2
(lp1451
(lp1452
S'word: ca, index: 2'
p1453
aatp1454
Rp1455
(dp1456
g16
Vaux
p1457
sbag0
(g1
g2
(lp1458
(lp1459
S"word: n't, index: 3"
p1460
aatp1461
Rp1462
(dp1463
g16
Vneg
p1464
sbag0
(g1
g2
(lp1465
g0
(g1
g2
(lp1466
g0
(g1
g2
(lp1467
g0
(g1
g2
(lp1468
g0
(g1
g2
(lp1469
(lp1470
S'word: to, index: 24'
p1471
aatp1472
Rp1473
(dp1474
g16
Vaux
p1475
sbag0
(g1
g2
(lp1476
(lp1477
S'word: be, index: 25'
p1478
aatp1479
Rp1480
(dp1481
g16
Vaux
p1482
sbag0
(g1
g2
(lp1483
g0
(g1
g2
(lp1484
g0
(g1
g2
(lp1485
g0
(g1
g2
(lp1486
g0
(g1
g2
(lp1487
(lp1488
S'word: the, index: 32'
p1489
aatp1490
Rp1491
(dp1492
g16
Vdet
p1493
sbag0
(g1
g2
(lp1494
(lp1495
S'word: other, index: 33'
p1496
aatp1497
Rp1498
(dp1499
g16
Vamod
p1500
sbag0
(g1
g2
(lp1501
g0
(g1
g2
(lp1502
g0
(g1
g2
(lp1503
(lp1504
S'word: here, index: 36'
p1505
aatp1506
Rp1507
(dp1508
g16
Vpobj
p1509
sbatp1510
Rp1511
(dp1512
g16
S'word: over, index: 35'
p1513
sbatp1514
Rp1515
(dp1516
g16
Vprep
p1517
sbatp1518
Rp1519
(dp1520
g16
S'word: family, index: 34'
p1521
sbatp1522
Rp1523
(dp1524
g16
Vconj
p1525
sbatp1526
Rp1527
(dp1528
g16
S'word: themselves, index: 27'
p1529
sbatp1530
Rp1531
(dp1532
g16
Vdobj
p1533
sbag0
(g1
g2
(lp1534
g1519
atp1535
Rp1536
(dp1537
g16
Vdobj
p1538
sbatp1539
Rp1540
(dp1541
g16
S'word: enjoying, index: 26'
p1542
sbatp1543
Rp1544
(dp1545
g16
Vxcomp
p1546
sbag0
(g1
g2
(lp1547
(lp1548
S'word: they, index: 22'
p1549
aatp1550
Rp1551
(dp1552
g16
Vnsubj
p1553
sbatp1554
Rp1555
(dp1556
g16
S'word: seem, index: 23'
p1557
sbatp1558
Rp1559
(dp1560
g16
Vconj
p1561
sbatp1562
Rp1563
(dp1564
g16
S'word: tell, index: 4'
p1565
sbatp1566
Rp1567
(dp1568
g16
S'id: 8'
p1569
sbag0
(g1
g2
(lp1570
g0
(g1
g2
(lp1571
g0
(g1
g2
(lp1572
g0
(g1
g2
(lp1573
g0
(g1
g2
(lp1574
(lp1575
S'word: this, index: 3'
p1576
aatp1577
Rp1578
(dp1579
g16
Vdet
p1580
sbag0
(g1
g2
(lp1581
g0
(g1
g2
(lp1582
g0
(g1
g2
(lp1583
g0
(g1
g2
(lp1584
g0
(g1
g2
(lp1585
(lp1586
S'word: where, index: 6'
p1587
aatp1588
Rp1589
(dp1590
g16
Vadvmod
p1591
sbag0
(g1
g2
(lp1592
g0
(g1
g2
(lp1593
g0
(g1
g2
(lp1594
g0
(g1
g2
(lp1595
g0
(g1
g2
(lp1596
g0
(g1
g2
(lp1597
g0
(g1
g2
(lp1598
(lp1599
S'word: who, index: 11'
p1600
aatp1601
Rp1602
(dp1603
g16
Vnsubj
p1604
sbag0
(g1
g2
(lp1605
(lp1606
S"word: 's, index: 12"
p1607
aatp1608
Rp1609
(dp1610
g16
Vaux
p1611
sbag0
(g1
g2
(lp1612
(lp1613
S'word: bareback, index: 14'
p1614
aatp1615
Rp1616
(dp1617
g16
Vdobj
p1618
sbag0
(g1
g2
(lp1619
g0
(g1
g2
(lp1620
g0
(g1
g2
(lp1621
(lp1622
S'word: the, index: 16'
p1623
aatp1624
Rp1625
(dp1626
g16
Vdet
p1627
sbatp1628
Rp1629
(dp1630
g16
S'word: horse, index: 17'
p1631
sbatp1632
Rp1633
(dp1634
g16
Vprep
p1635
sbatp1636
Rp1637
(dp1638
g16
S'word: riding, index: 13'
p1639
sbatp1640
Rp1641
(dp1642
g16
Vrcmod
p1643
sbag0
(g1
g2
(lp1644
(lp1645
S'word: the, index: 9'
p1646
aatp1647
Rp1648
(dp1649
g16
Vdet
p1650
sbatp1651
Rp1652
(dp1653
g16
S'word: lady, index: 10'
p1654
sbatp1655
Rp1656
(dp1657
g16
Vappos
p1658
sbatp1659
Rp1660
(dp1661
g16
S'word: the, index: 7'
p1662
sbatp1663
Rp1664
(dp1665
g16
Vnsubj
p1666
sbag0
(g1
g2
(lp1667
g0
(g1
g2
(lp1668
g0
(g1
g2
(lp1669
g0
(g1
g2
(lp1670
g0
(g1
g2
(lp1671
(lp1672
S'word: what, index: 27'
p1673
aatp1674
Rp1675
(dp1676
g16
Vdobj
p1677
sbag0
(g1
g2
(lp1678
(lp1679
S'word: I, index: 28'
p1680
aatp1681
Rp1682
(dp1683
g16
Vnsubj
p1684
sbag0
(g1
g2
(lp1685
(lp1686
S"word: 'm, index: 29"
p1687
aatp1688
Rp1689
(dp1690
g16
Vaux
p1691
sbag0
(g1
g2
(lp1692
g0
(g1
g2
(lp1693
g0
(g1
g2
(lp1694
(lp1695
S'word: the, index: 33'
p1696
aatp1697
Rp1698
(dp1699
g16
Vdep
p1700
sbatp1701
Rp1702
(dp1703
g16
S'word: around, index: 32'
p1704
sbatp1705
Rp1706
(dp1707
g16
Vadvmod
p1708
sbatp1709
Rp1710
(dp1711
g16
S'word: seeing, index: 30'
p1712
sbatp1713
Rp1714
(dp1715
g16
Vprepc
p1716
sbag0
(g1
g2
(lp1717
(lp1718
S'word: like, index: 20'
p1719
aatp1720
Rp1721
(dp1722
g16
Vmark
p1723
sbag0
(g1
g2
(lp1724
(lp1725
S'word: it, index: 21'
p1726
aatp1727
Rp1728
(dp1729
g16
Vnsubj
p1730
sbag0
(g1
g2
(lp1731
(lp1732
S"word: 's, index: 22"
p1733
aatp1734
Rp1735
(dp1736
g16
Vcop
p1737
sbag0
(g1
g2
(lp1738
(lp1739
S'word: from, index: 24'
p1740
aatp1741
Rp1742
(dp1743
g16
Vdep
p1744
sbatp1745
Rp1746
(dp1747
g16
S'word: a, index: 23'
p1748
sbatp1749
Rp1750
(dp1751
g16
Vadvcl
p1752
sbatp1753
Rp1754
(dp1755
g16
S'word: looks, index: 19'
p1756
sbatp1757
Rp1758
(dp1759
g16
Vadvcl
p1760
sbatp1761
Rp1762
(dp1763
g16
S'word: is, index: 5'
p1764
sbatp1765
Rp1766
(dp1767
g16
Vrcmod
p1768
sbatp1769
Rp1770
(dp1771
g16
S'word: ring, index: 4'
p1772
sbatp1773
Rp1774
(dp1775
g16
Vprep
p1776
sbatp1777
Rp1778
(dp1779
g16
S'word: And, index: 1'
p1780
sbatp1781
Rp1782
(dp1783
g16
S'id: 9'
p1784
sbatp1785
Rp1786
(dp1787
g16
S'sentences'
p1788
sb.