ccopy_reg
_reconstructor
p0
(cnltk.tree
Tree
p1
c__builtin__
list
p2
(lp3
g0
(g1
g2
(lp4
g0
(g1
g2
(lp5
g0
(g1
g2
(lp6
(lp7
S'word: Boat, index: 1'
p8
aatp9
Rp10
(dp11
S'_label'
p12
Vnsubj
p13
sbag0
(g1
g2
(lp14
(lp15
S'word: was, index: 2'
p16
aatp17
Rp18
(dp19
g12
Vcop
p20
sbag0
(g1
g2
(lp21
g0
(g1
g2
(lp22
g0
(g1
g2
(lp23
(lp24
S'word: forming, index: 6'
p25
aatp26
Rp27
(dp28
g12
Vvmod
p29
sbatp30
Rp31
(dp32
g12
S'word: a, index: 5'
p33
sbatp34
Rp35
(dp36
g12
Vappos
p37
sbatp38
Rp39
(dp40
g12
S'word: a, index: 3'
p41
sbatp42
Rp43
(dp44
g12
S'id: 0'
p45
sbag0
(g1
g2
(lp46
g0
(g1
g2
(lp47
g0
(g1
g2
(lp48
(lp49
S'word: otta, index: 3'
p50
aatp51
Rp52
(dp53
g12
Vnn
p54
sbag0
(g1
g2
(lp55
(lp56
S'word: is, index: 1'
p57
aatp58
Rp59
(dp60
g12
Vcop
p61
sbag0
(g1
g2
(lp62
(lp63
S'word: the, index: 2'
p64
aatp65
Rp66
(dp67
g12
Vdet
p68
sbatp69
Rp70
(dp71
g12
S'word: ez, index: 4'
p72
sbatp73
Rp74
(dp75
g12
S'id: 1'
p76
sbag0
(g1
g2
(lp77
g0
(g1
g2
(lp78
g0
(g1
g2
(lp79
(lp80
S'word: was, index: 6'
p81
aatp82
Rp83
(dp84
g12
Vcop
p85
sbag0
(g1
g2
(lp86
g0
(g1
g2
(lp87
g0
(g1
g2
(lp88
(lp89
S'word: the, index: 1'
p90
aatp91
Rp92
(dp93
g12
Vdet
p94
sbag0
(g1
g2
(lp95
g0
(g1
g2
(lp96
g0
(g1
g2
(lp97
(lp98
S'word: the, index: 4'
p99
aatp100
Rp101
(dp102
g12
Vdet
p103
sbatp104
Rp105
(dp106
g12
S'word: actor, index: 5'
p107
sbatp108
Rp109
(dp110
g12
Vconj
p111
sbatp112
Rp113
(dp114
g12
S'word: horse, index: 2'
p115
sbatp116
Rp117
(dp118
g12
Vnsubj
p119
sbag0
(g1
g2
(lp120
g105
atp121
Rp122
(dp123
g12
Vnsubj
p124
sbatp125
Rp126
(dp127
g12
S'word: moothing, index: 7'
p128
sbatp129
Rp130
(dp131
g12
S'id: 2'
p132
sbag0
(g1
g2
(lp133
g0
(g1
g2
(lp134
g0
(g1
g2
(lp135
(lp136
S'word: the, index: 1'
p137
aatp138
Rp139
(dp140
g12
Vdet
p141
sbatp142
Rp143
(dp144
g12
S'word: prowns, index: 2'
p145
sbatp146
Rp147
(dp148
g12
S'id: 3'
p149
sbag0
(g1
g2
(lp150
g0
(g1
g2
(lp151
g0
(g1
g2
(lp152
(lp153
S'word: the, index: 1'
p154
aatp155
Rp156
(dp157
g12
Vdet
p158
sbatp159
Rp160
(dp161
g12
S'word: seive, index: 2'
p162
sbatp163
Rp164
(dp165
g12
S'id: 4'
p166
sbag0
(g1
g2
(lp167
g0
(g1
g2
(lp168
g0
(g1
g2
(lp169
(lp170
S'word: one, index: 2'
p171
aatp172
Rp173
(dp174
g12
Vpobj
p175
sbatp176
Rp177
(dp178
g12
S'word: next, index: 1'
p179
sbatp180
Rp181
(dp182
g12
S'id: 5'
p183
sbag0
(g1
g2
(lp184
g0
(g1
g2
(lp185
g0
(g1
g2
(lp186
(lp187
S'word: brown, index: 2'
p188
aatp189
Rp190
(dp191
g12
Vamod
p192
sbag0
(g1
g2
(lp193
(lp194
S'word: ben, index: 3'
p195
aatp196
Rp197
(dp198
g12
Vnn
p199
sbag0
(g1
g2
(lp200
(lp201
S'word: the, index: 1'
p202
aatp203
Rp204
(dp205
g12
Vdet
p206
sbatp207
Rp208
(dp209
g12
S'word: taber, index: 4'
p210
sbatp211
Rp212
(dp213
g12
S'id: 6'
p214
sbag0
(g1
g2
(lp215
g0
(g1
g2
(lp216
g0
(g1
g2
(lp217
g0
(g1
g2
(lp218
g0
(g1
g2
(lp219
(lp220
S'word: the, index: 1'
p221
aatp222
Rp223
(dp224
g12
Vdet
p225
sbatp226
Rp227
(dp228
g12
S'word: lionin, index: 2'
p229
sbatp230
Rp231
(dp232
g12
Vnsubj
p233
sbag0
(g1
g2
(lp234
(lp235
S'word: down, index: 4'
p236
aatp237
Rp238
(dp239
g12
Vprt
p240
sbatp241
Rp242
(dp243
g12
S'word: sits, index: 3'
p244
sbatp245
Rp246
(dp247
g12
S'id: 7'
p248
sbag0
(g1
g2
(lp249
g0
(g1
g2
(lp250
g0
(g1
g2
(lp251
(lp252
S'word: the, index: 1'
p253
aatp254
Rp255
(dp256
g12
Vdet
p257
sbatp258
Rp259
(dp260
g12
S'word: pounds, index: 2'
p261
sbatp262
Rp263
(dp264
g12
S'id: 8'
p265
sbatp266
Rp267
(dp268
g12
S'sentences'
p269
sb.