ccopy_reg
_reconstructor
p0
(cnltk.tree
Tree
p1
c__builtin__
list
p2
(lp3
g0
(g1
g2
(lp4
g0
(g1
g2
(lp5
g0
(g1
g2
(lp6
g0
(g1
g2
(lp7
g0
(g1
g2
(lp8
(lp9
S'word: this, index: 2'
p10
aatp11
Rp12
(dp13
S'_label'
p14
Vdep
p15
sbatp16
Rp17
(dp18
g14
S'word: ok, index: 1'
p19
sbatp20
Rp21
(dp22
g14
Vnsubj
p23
sbag0
(g1
g2
(lp24
g0
(g1
g2
(lp25
g0
(g1
g2
(lp26
(lp27
S'word: the, index: 5'
p28
aatp29
Rp30
(dp31
g14
Vdet
p32
sbatp33
Rp34
(dp35
g14
S'word: lake, index: 6'
p36
sbatp37
Rp38
(dp39
g14
Vprep
p40
sbatp41
Rp42
(dp43
g14
S'word: is, index: 3'
p44
sbatp45
Rp46
(dp47
g14
S'id: 0'
p48
sbag0
(g1
g2
(lp49
g0
(g1
g2
(lp50
g0
(g1
g2
(lp51
g0
(g1
g2
(lp52
g0
(g1
g2
(lp53
g0
(g1
g2
(lp54
g0
(g1
g2
(lp55
(lp56
S'word: the, index: 5'
p57
aatp58
Rp59
(dp60
g14
Vdet
p61
sbatp62
Rp63
(dp64
g14
S'word: point, index: 6'
p65
sbatp66
Rp67
(dp68
g14
Vprep
p69
sbatp70
Rp71
(dp72
g14
S'word: up, index: 3'
p73
sbatp74
Rp75
(dp76
g14
Vadvmod
p77
sbag0
(g1
g2
(lp78
(lp79
S'word: there, index: 7'
p80
aatp81
Rp82
(dp83
g14
Vadvmod
p84
sbag0
(g1
g2
(lp85
(lp86
S'word: house, index: 1'
p87
aatp88
Rp89
(dp90
g14
Vnsubj
p91
sbatp92
Rp93
(dp94
g14
S'word: is, index: 2'
p95
sbatp96
Rp97
(dp98
g14
S'id: 1'
p99
sbag0
(g1
g2
(lp100
g0
(g1
g2
(lp101
g0
(g1
g2
(lp102
g0
(g1
g2
(lp103
g0
(g1
g2
(lp104
(lp105
S'word: a, index: 2'
p106
aatp107
Rp108
(dp109
g14
Vdet
p110
sbag0
(g1
g2
(lp111
(lp112
S'word: flag, index: 3'
p113
aatp114
Rp115
(dp116
g14
Vnn
p117
sbatp118
Rp119
(dp120
g14
S'word: pole, index: 4'
p121
sbatp122
Rp123
(dp124
g14
Vdobj
p125
sbatp126
Rp127
(dp128
g14
S'word: got, index: 1'
p129
sbatp130
Rp131
(dp132
g14
S'id: 2'
p133
sbag0
(g1
g2
(lp134
g0
(g1
g2
(lp135
g0
(g1
g2
(lp136
g0
(g1
g2
(lp137
g0
(g1
g2
(lp138
(lp139
S'word: anything, index: 9'
p140
aatp141
Rp142
(dp143
g14
Vdobj
p144
sbag0
(g1
g2
(lp145
(lp146
S'word: you, index: 2'
p147
aatp148
Rp149
(dp150
g14
Vnsubj
p151
sbag0
(g1
g2
(lp152
(lp153
S'word: ever, index: 3'
p154
aatp155
Rp156
(dp157
g14
Vadvmod
p158
sbag0
(g1
g2
(lp159
g0
(g1
g2
(lp160
g0
(g1
g2
(lp161
(lp162
S'word: anything, index: 9'
p163
aatp164
Rp165
(dp166
g14
Vconj
p167
sbag0
(g1
g2
(lp168
(lp169
S'word: a, index: 5'
p170
aatp171
Rp172
(dp173
g14
Vdet
p174
sbatp175
Rp176
(dp177
g14
S'word: kite, index: 6'
p178
sbatp179
Rp180
(dp181
g14
Vdobj
p182
sbatp183
Rp184
(dp185
g14
S'word: flown, index: 4'
p186
sbatp187
Rp188
(dp189
g14
Vccomp
p190
sbatp191
Rp192
(dp193
g14
S'word: have, index: 1'
p194
sbatp195
Rp196
(dp197
g14
S'id: 3'
p198
sbatp199
Rp200
(dp201
g14
S'sentences'
p202
sb.