ccopy_reg
_reconstructor
p0
(cnltk.tree
Tree
p1
c__builtin__
list
p2
(lp3
g0
(g1
g2
(lp4
g0
(g1
g2
(lp5
g0
(g1
g2
(lp6
VThe woman
p7
atp8
Rp9
(dp10
S'_label'
p11
S'start: 1'
p12
sbatp13
Rp14
(dp15
g11
S'sent: 2'
p16
sbag0
(g1
g2
(lp17
g0
(g1
g2
(lp18
Vshe
p19
atp20
Rp21
(dp22
g11
S'start: 6'
p23
sbatp24
Rp25
(dp26
g11
S'sent: 4'
p27
sbag0
(g1
g2
(lp28
g0
(g1
g2
(lp29
Vthe woman
p30
atp31
Rp32
(dp33
g11
S'start: 2'
p34
sbatp35
Rp36
(dp37
g11
S'sent: 5'
p38
sbag0
(g1
g2
(lp39
g0
(g1
g2
(lp40
Vshe
p41
atp42
Rp43
(dp44
g11
S'start: 11'
p45
sbatp46
Rp47
(dp48
g11
S'sent: 5'
p49
sbatp50
Rp51
(dp52
g11
S'id: 6'
p53
sbag0
(g1
g2
(lp54
g0
(g1
g2
(lp55
g0
(g1
g2
(lp56
Vthe water
p57
atp58
Rp59
(dp60
g11
S'start: 5'
p61
sbatp62
Rp63
(dp64
g11
S'sent: 2'
p65
sbag0
(g1
g2
(lp66
g0
(g1
g2
(lp67
Vthe water
p68
atp69
Rp70
(dp71
g11
S'start: 8'
p72
sbatp73
Rp74
(dp75
g11
S'sent: 5'
p76
sbatp77
Rp78
(dp79
g11
S'id: 7'
p80
sbag0
(g1
g2
(lp81
g0
(g1
g2
(lp82
g0
(g1
g2
(lp83
Vhe
p84
atp85
Rp86
(dp87
g11
S'start: 7'
p88
sbatp89
Rp90
(dp91
g11
S'sent: 3'
p92
sbag0
(g1
g2
(lp93
g0
(g1
g2
(lp94
Vhimself
p95
atp96
Rp97
(dp98
g11
S'start: 14'
p99
sbatp100
Rp101
(dp102
g11
S'sent: 3'
p103
sbatp104
Rp105
(dp106
g11
S'id: 9'
p107
sbag0
(g1
g2
(lp108
g0
(g1
g2
(lp109
g0
(g1
g2
(lp110
VThe kid 's
p111
atp112
Rp113
(dp114
g11
S'start: 1'
p115
sbatp116
Rp117
(dp118
g11
S'sent: 6'
p119
sbag0
(g1
g2
(lp120
g0
(g1
g2
(lp121
Vhe
p122
atp123
Rp124
(dp125
g11
S'start: 6'
p126
sbatp127
Rp128
(dp129
g11
S'sent: 6'
p130
sbag0
(g1
g2
(lp131
g0
(g1
g2
(lp132
Vhimself
p133
atp134
Rp135
(dp136
g11
S'start: 9'
p137
sbatp138
Rp139
(dp140
g11
S'sent: 6'
p141
sbag0
(g1
g2
(lp142
g0
(g1
g2
(lp143
Vhe
p144
atp145
Rp146
(dp147
g11
S'start: 14'
p148
sbatp149
Rp150
(dp151
g11
S'sent: 6'
p152
sbag0
(g1
g2
(lp153
g0
(g1
g2
(lp154
Vhe
p155
atp156
Rp157
(dp158
g11
S'start: 10'
p159
sbatp160
Rp161
(dp162
g11
S'sent: 7'
p163
sbag0
(g1
g2
(lp164
g0
(g1
g2
(lp165
Vhimself
p166
atp167
Rp168
(dp169
g11
S'start: 14'
p170
sbatp171
Rp172
(dp173
g11
S'sent: 7'
p174
sbag0
(g1
g2
(lp175
g0
(g1
g2
(lp176
Vhe
p177
atp178
Rp179
(dp180
g11
S'start: 16'
p181
sbatp182
Rp183
(dp184
g11
S'sent: 7'
p185
sbag0
(g1
g2
(lp186
g0
(g1
g2
(lp187
VHe
p188
atp189
Rp190
(dp191
g11
S'start: 1'
p192
sbatp193
Rp194
(dp195
g11
S'sent: 8'
p196
sbag0
(g1
g2
(lp197
g0
(g1
g2
(lp198
Vhimself
p199
atp200
Rp201
(dp202
g11
S'start: 9'
p203
sbatp204
Rp205
(dp206
g11
S'sent: 8'
p207
sbag0
(g1
g2
(lp208
g0
(g1
g2
(lp209
VHe
p210
atp211
Rp212
(dp213
g11
S'start: 1'
p214
sbatp215
Rp216
(dp217
g11
S'sent: 9'
p218
sbag0
(g1
g2
(lp219
g0
(g1
g2
(lp220
Vhe
p221
atp222
Rp223
(dp224
g11
S'start: 9'
p225
sbatp226
Rp227
(dp228
g11
S'sent: 9'
p229
sbag0
(g1
g2
(lp230
g0
(g1
g2
(lp231
Vthe kid
p232
atp233
Rp234
(dp235
g11
S'start: 23'
p236
sbatp237
Rp238
(dp239
g11
S'sent: 9'
p240
sbag0
(g1
g2
(lp241
g0
(g1
g2
(lp242
Vhe
p243
atp244
Rp245
(dp246
g11
S'start: 39'
p247
sbatp248
Rp249
(dp250
g11
S'sent: 9'
p251
sbag0
(g1
g2
(lp252
g0
(g1
g2
(lp253
Vhis
p254
atp255
Rp256
(dp257
g11
S'start: 8'
p258
sbatp259
Rp260
(dp261
g11
S'sent: 12'
p262
sbatp263
Rp264
(dp265
g11
S'id: 17'
p266
sbag0
(g1
g2
(lp267
g0
(g1
g2
(lp268
g0
(g1
g2
(lp269
Vthe sister he
p270
atp271
Rp272
(dp273
g11
S'start: 12'
p274
sbatp275
Rp276
(dp277
g11
S'sent: 6'
p278
sbag0
(g1
g2
(lp279
g0
(g1
g2
(lp280
Vshe
p281
atp282
Rp283
(dp284
g11
S'start: 32'
p285
sbatp286
Rp287
(dp288
g11
S'sent: 7'
p289
sbatp290
Rp291
(dp292
g11
S'id: 20'
p293
sbag0
(g1
g2
(lp294
g0
(g1
g2
(lp295
g0
(g1
g2
(lp296
Vthe cooker
p297
atp298
Rp299
(dp300
g11
S'start: 19'
p301
sbatp302
Rp303
(dp304
g11
S'sent: 7'
p305
sbag0
(g1
g2
(lp306
g0
(g1
g2
(lp307
Vthat
p308
atp309
Rp310
(dp311
g11
S'start: 22'
p312
sbatp313
Rp314
(dp315
g11
S'sent: 7'
p316
sbag0
(g1
g2
(lp317
g0
(g1
g2
(lp318
Vit
p319
atp320
Rp321
(dp322
g11
S'start: 24'
p323
sbatp324
Rp325
(dp326
g11
S'sent: 7'
p327
sbatp328
Rp329
(dp330
g11
S'id: 25'
p331
sbag0
(g1
g2
(lp332
g0
(g1
g2
(lp333
g0
(g1
g2
(lp334
Vkid , and she 's outside the looking around , nice out there
p335
atp336
Rp337
(dp338
g11
S'start: 29'
p339
sbatp340
Rp341
(dp342
g11
S'sent: 7'
p343
sbag0
(g1
g2
(lp344
g0
(g1
g2
(lp345
Vkid 's
p346
atp347
Rp348
(dp349
g11
S'start: 12'
p350
sbatp351
Rp352
(dp353
g11
S'sent: 9'
p354
sbatp355
Rp356
(dp357
g11
S'id: 28'
p358
sbag0
(g1
g2
(lp359
g0
(g1
g2
(lp360
g0
(g1
g2
(lp361
Vthing , fall down , he tried that kid 's , that to that young boy , girl , the kid , that sister , he wants the cook from her , that 's what he wants
p362
atp363
Rp364
(dp365
g11
S'start: 4'
p366
sbatp367
Rp368
(dp369
g11
S'sent: 9'
p370
sbag0
(g1
g2
(lp371
g0
(g1
g2
(lp372
Vthis thing
p373
atp374
Rp375
(dp376
g11
S'start: 4'
p377
sbatp378
Rp379
(dp380
g11
S'sent: 12'
p381
sbatp382
Rp383
(dp384
g11
S'id: 36'
p385
sbag0
(g1
g2
(lp386
g0
(g1
g2
(lp387
g0
(g1
g2
(lp388
Vthat young boy
p389
atp390
Rp391
(dp392
g11
S'start: 17'
p393
sbatp394
Rp395
(dp396
g11
S'sent: 9'
p397
sbag0
(g1
g2
(lp398
g0
(g1
g2
(lp399
Vhe
p400
atp401
Rp402
(dp403
g11
S'start: 29'
p404
sbatp405
Rp406
(dp407
g11
S'sent: 9'
p408
sbatp409
Rp410
(dp411
g11
S'id: 40'
p412
sbag0
(g1
g2
(lp413
g0
(g1
g2
(lp414
g0
(g1
g2
(lp415
Vgirl , the kid
p416
atp417
Rp418
(dp419
g11
S'start: 21'
p420
sbatp421
Rp422
(dp423
g11
S'sent: 9'
p424
sbag0
(g1
g2
(lp425
g0
(g1
g2
(lp426
Vher
p427
atp428
Rp429
(dp430
g11
S'start: 34'
p431
sbatp432
Rp433
(dp434
g11
S'sent: 9'
p435
sbag0
(g1
g2
(lp436
g0
(g1
g2
(lp437
Vshe
p438
atp439
Rp440
(dp441
g11
S'start: 5'
p442
sbatp443
Rp444
(dp445
g11
S'sent: 11'
p446
sbag0
(g1
g2
(lp447
g0
(g1
g2
(lp448
Vshe
p449
atp450
Rp451
(dp452
g11
S'start: 11'
p453
sbatp454
Rp455
(dp456
g11
S'sent: 11'
p457
sbag0
(g1
g2
(lp458
g0
(g1
g2
(lp459
VShe
p460
atp461
Rp462
(dp463
g11
S'start: 1'
p464
sbatp465
Rp466
(dp467
g11
S'sent: 13'
p468
sbatp469
Rp470
(dp471
g11
S'id: 41'
p472
sbag0
(g1
g2
(lp473
g0
(g1
g2
(lp474
g0
(g1
g2
(lp475
Vthis
p476
atp477
Rp478
(dp479
g11
S'start: 14'
p480
sbatp481
Rp482
(dp483
g11
S'sent: 11'
p484
sbag0
(g1
g2
(lp485
g0
(g1
g2
(lp486
VThis
p487
atp488
Rp489
(dp490
g11
S'start: 1'
p491
sbatp492
Rp493
(dp494
g11
S'sent: 12'
p495
sbag0
(g1
g2
(lp496
g0
(g1
g2
(lp497
Vitself
p498
atp499
Rp500
(dp501
g11
S'start: 18'
p502
sbatp503
Rp504
(dp505
g11
S'sent: 12'
p506
sbatp507
Rp508
(dp509
g11
S'id: 51'
p510
sbag0
(g1
g2
(lp511
g0
(g1
g2
(lp512
g0
(g1
g2
(lp513
Vhis hand
p514
atp515
Rp516
(dp517
g11
S'start: 8'
p518
sbatp519
Rp520
(dp521
g11
S'sent: 12'
p522
sbag0
(g1
g2
(lp523
g0
(g1
g2
(lp524
Vthat
p525
atp526
Rp527
(dp528
g11
S'start: 10'
p529
sbatp530
Rp531
(dp532
g11
S'sent: 12'
p533
sbatp534
Rp535
(dp536
g11
S'id: 54'
p537
sbag0
(g1
g2
(lp538
g0
(g1
g2
(lp539
g0
(g1
g2
(lp540
Vthe cookie
p541
atp542
Rp543
(dp544
g11
S'start: 6'
p545
sbatp546
Rp547
(dp548
g11
S'sent: 13'
p549
sbag0
(g1
g2
(lp550
g0
(g1
g2
(lp551
Vit
p552
atp553
Rp554
(dp555
g11
S'start: 3'
p556
sbatp557
Rp558
(dp559
g11
S'sent: 15'
p560
sbatp561
Rp562
(dp563
g11
S'id: 60'
p564
sbag0
(g1
g2
(lp565
g0
(g1
g2
(lp566
g0
(g1
g2
(lp567
Vno one
p568
atp569
Rp570
(dp571
g11
S'start: 10'
p572
sbatp573
Rp574
(dp575
g11
S'sent: 13'
p576
sbag0
(g1
g2
(lp577
g0
(g1
g2
(lp578
Vit
p579
atp580
Rp581
(dp582
g11
S'start: 16'
p583
sbatp584
Rp585
(dp586
g11
S'sent: 13'
p587
sbatp588
Rp589
(dp590
g11
S'id: 61'
p591
sbatp592
Rp593
(dp594
g11
S'coreferences'
p595
sb.