ccopy_reg
_reconstructor
p0
(cnltk.tree
Tree
p1
c__builtin__
list
p2
(lp3
g0
(g1
g2
(lp4
g0
(g1
g2
(lp5
g0
(g1
g2
(lp6
g0
(g1
g2
(lp7
VI
p8
atp9
Rp10
(dp11
S'_label'
p12
VPRP
p13
sbatp14
Rp15
(dp16
g12
VNP
p17
sbag0
(g1
g2
(lp18
g0
(g1
g2
(lp19
Vsee
p20
atp21
Rp22
(dp23
g12
VVBP
p24
sbag0
(g1
g2
(lp25
g0
(g1
g2
(lp26
Va
p27
atp28
Rp29
(dp30
g12
VDT
p31
sbag0
(g1
g2
(lp32
Vpicnic
p33
atp34
Rp35
(dp36
g12
VNN
p37
sbatp38
Rp39
(dp40
g12
VNP
p41
sbatp42
Rp43
(dp44
g12
VVP
p45
sbag0
(g1
g2
(lp46
V.
p47
atp48
Rp49
(dp50
g12
V.
p51
sbatp52
Rp53
(dp54
g12
VS
p55
sbatp56
Rp57
(dp58
g12
S'id: 0'
p59
sbag0
(g1
g2
(lp60
g0
(g1
g2
(lp61
g0
(g1
g2
(lp62
g0
(g1
g2
(lp63
VA
p64
atp65
Rp66
(dp67
g12
VDT
p68
sbag0
(g1
g2
(lp69
Vwa
p70
atp71
Rp72
(dp73
g12
VNN
p74
sbag0
(g1
g2
(lp75
Vpa
p76
atp77
Rp78
(dp79
g12
VNN
p80
sbag0
(g1
g2
(lp81
Vpa
p82
atp83
Rp84
(dp85
g12
VNN
p86
sbatp87
Rp88
(dp89
g12
VNP
p90
sbag0
(g1
g2
(lp91
V,
p92
atp93
Rp94
(dp95
g12
V,
p96
sbag0
(g1
g2
(lp97
g0
(g1
g2
(lp98
g0
(g1
g2
(lp99
Va
p100
atp101
Rp102
(dp103
g12
VDT
p104
sbag0
(g1
g2
(lp105
Vwa
p106
atp107
Rp108
(dp109
g12
VNN
p110
sbatp111
Rp112
(dp113
g12
VNP
p114
sbag0
(g1
g2
(lp115
V,
p116
atp117
Rp118
(dp119
g12
V,
p120
sbag0
(g1
g2
(lp121
g0
(g1
g2
(lp122
Vflying
p123
atp124
Rp125
(dp126
g12
VVBG
p127
sbag0
(g1
g2
(lp128
g0
(g1
g2
(lp129
Vhis
p130
atp131
Rp132
(dp133
g12
VPRP$
p134
sbag0
(g1
g2
(lp135
Vkite
p136
atp137
Rp138
(dp139
g12
VNN
p140
sbatp141
Rp142
(dp143
g12
VNP
p144
sbag0
(g1
g2
(lp145
V,
p146
atp147
Rp148
(dp149
g12
V,
p150
sbag0
(g1
g2
(lp151
g0
(g1
g2
(lp152
Vwith
p153
atp154
Rp155
(dp156
g12
VIN
p157
sbag0
(g1
g2
(lp158
g0
(g1
g2
(lp159
g0
(g1
g2
(lp160
Va
p161
atp162
Rp163
(dp164
g12
VDT
p165
sbag0
(g1
g2
(lp166
Vdog
p167
atp168
Rp169
(dp170
g12
VNN
p171
sbatp172
Rp173
(dp174
g12
VNP
p175
sbag0
(g1
g2
(lp176
g0
(g1
g2
(lp177
Vwith
p178
atp179
Rp180
(dp181
g12
VIN
p182
sbag0
(g1
g2
(lp183
g0
(g1
g2
(lp184
Vhim
p185
atp186
Rp187
(dp188
g12
VPRP
p189
sbatp190
Rp191
(dp192
g12
VNP
p193
sbatp194
Rp195
(dp196
g12
VPP
p197
sbatp198
Rp199
(dp200
g12
VNP
p201
sbatp202
Rp203
(dp204
g12
VPP
p205
sbatp206
Rp207
(dp208
g12
VVP
p209
sbatp210
Rp211
(dp212
g12
VNP
p213
sbag0
(g1
g2
(lp214
V,
p215
atp216
Rp217
(dp218
g12
V,
p219
sbag0
(g1
g2
(lp220
g0
(g1
g2
(lp221
Vbehind
p222
atp223
Rp224
(dp225
g12
VIN
p226
sbag0
(g1
g2
(lp227
g0
(g1
g2
(lp228
Vhim
p229
atp230
Rp231
(dp232
g12
VPRP
p233
sbatp234
Rp235
(dp236
g12
VNP
p237
sbatp238
Rp239
(dp240
g12
VPP
p241
sbag0
(g1
g2
(lp242
V.
p243
atp244
Rp245
(dp246
g12
V.
p247
sbatp248
Rp249
(dp250
g12
VNP
p251
sbatp252
Rp253
(dp254
g12
S'id: 1'
p255
sbag0
(g1
g2
(lp256
g0
(g1
g2
(lp257
g0
(g1
g2
(lp258
g0
(g1
g2
(lp259
g0
(g1
g2
(lp260
VA
p261
atp262
Rp263
(dp264
g12
VDT
p265
sbag0
(g1
g2
(lp266
Vman
p267
atp268
Rp269
(dp270
g12
VNN
p271
sbag0
(g1
g2
(lp272
V's
p273
atp274
Rp275
(dp276
g12
VPOS
p277
sbatp278
Rp279
(dp280
g12
VNP
p281
sbag0
(g1
g2
(lp282
Vfishing
p283
atp284
Rp285
(dp286
g12
VNN
p287
sbatp288
Rp289
(dp290
g12
VNP
p291
sbag0
(g1
g2
(lp292
V.
p293
atp294
Rp295
(dp296
g12
V.
p297
sbatp298
Rp299
(dp300
g12
VFRAG
p301
sbatp302
Rp303
(dp304
g12
S'id: 2'
p305
sbag0
(g1
g2
(lp306
g0
(g1
g2
(lp307
g0
(g1
g2
(lp308
VAnd
p309
atp310
Rp311
(dp312
g12
VCC
p313
sbag0
(g1
g2
(lp314
g0
(g1
g2
(lp315
g0
(g1
g2
(lp316
Vthe
p317
atp318
Rp319
(dp320
g12
VDT
p321
sbag0
(g1
g2
(lp322
Vlittle
p323
atp324
Rp325
(dp326
g12
VJJ
p327
sbag0
(g1
g2
(lp328
Vgirl
p329
atp330
Rp331
(dp332
g12
VNN
p333
sbatp334
Rp335
(dp336
g12
VNP
p337
sbag0
(g1
g2
(lp338
g0
(g1
g2
(lp339
Vto
p340
atp341
Rp342
(dp343
g12
VTO
p344
sbag0
(g1
g2
(lp345
g0
(g1
g2
(lp346
g0
(g1
g2
(lp347
g0
(g1
g2
(lp348
Vthe
p349
atp350
Rp351
(dp352
g12
VDT
p353
sbag0
(g1
g2
(lp354
Vright
p355
atp356
Rp357
(dp358
g12
VJJ
p359
sbag0
(g1
g2
(lp360
Vplaying
p361
atp362
Rp363
(dp364
g12
VNN
p365
sbatp366
Rp367
(dp368
g12
VNP
p369
sbag0
(g1
g2
(lp370
g0
(g1
g2
(lp371
g0
(g1
g2
(lp372
Vin
p373
atp374
Rp375
(dp376
g12
VIN
p377
sbag0
(g1
g2
(lp378
g0
(g1
g2
(lp379
Vthe
p380
atp381
Rp382
(dp383
g12
VDT
p384
sbag0
(g1
g2
(lp385
Vsand
p386
atp387
Rp388
(dp389
g12
VNN
p390
sbatp391
Rp392
(dp393
g12
VNP
p394
sbatp395
Rp396
(dp397
g12
VPP
p398
sbag0
(g1
g2
(lp399
V,
p400
atp401
Rp402
(dp403
g12
V,
p404
sbag0
(g1
g2
(lp405
Vand
p406
atp407
Rp408
(dp409
g12
VCC
p410
sbag0
(g1
g2
(lp411
g0
(g1
g2
(lp412
g0
(g1
g2
(lp413
Vca
p414
atp415
Rp416
(dp417
g12
VMD
p418
sbatp419
Rp420
(dp421
g12
VVP
p422
sbatp423
Rp424
(dp425
g12
VS
p426
sbatp427
Rp428
(dp429
g12
VUCP
p430
sbatp431
Rp432
(dp433
g12
VNP
p434
sbag0
(g1
g2
(lp435
V,
p436
atp437
Rp438
(dp439
g12
V,
p440
sbag0
(g1
g2
(lp441
g0
(g1
g2
(lp442
Vcastles
p443
atp444
Rp445
(dp446
g12
VNNS
p447
sbatp448
Rp449
(dp450
g12
VNP
p451
sbatp452
Rp453
(dp454
g12
VNP
p455
sbatp456
Rp457
(dp458
g12
VPP
p459
sbatp460
Rp461
(dp462
g12
VNP
p463
sbag0
(g1
g2
(lp464
V.
p465
atp466
Rp467
(dp468
g12
V.
p469
sbatp470
Rp471
(dp472
g12
VFRAG
p473
sbatp474
Rp475
(dp476
g12
S'id: 3'
p477
sbag0
(g1
g2
(lp478
g0
(g1
g2
(lp479
g0
(g1
g2
(lp480
g0
(g1
g2
(lp481
VAnd
p482
atp483
Rp484
(dp485
g12
VCC
p486
sbatp487
Rp488
(dp489
g12
VNP
p490
sbag0
(g1
g2
(lp491
g0
(g1
g2
(lp492
g0
(g1
g2
(lp493
g0
(g1
g2
(lp494
Vsomeone
p495
atp496
Rp497
(dp498
g12
VNN
p499
sbag0
(g1
g2
(lp500
V's
p501
atp502
Rp503
(dp504
g12
VPOS
p505
sbatp506
Rp507
(dp508
g12
VNP
p509
sbag0
(g1
g2
(lp510
g0
(g1
g2
(lp511
Vselling
p512
atp513
Rp514
(dp515
g12
VNN
p516
sbatp517
Rp518
(dp519
g12
VNX
p520
sbatp521
Rp522
(dp523
g12
VNP
p524
sbatp525
Rp526
(dp527
g12
VVP
p528
sbag0
(g1
g2
(lp529
V.
p530
atp531
Rp532
(dp533
g12
V.
p534
sbatp535
Rp536
(dp537
g12
VS
p538
sbatp539
Rp540
(dp541
g12
S'id: 4'
p542
sbag0
(g1
g2
(lp543
g0
(g1
g2
(lp544
g0
(g1
g2
(lp545
g0
(g1
g2
(lp546
VGuess
p547
atp548
Rp549
(dp550
g12
VVB
p551
sbag0
(g1
g2
(lp552
g0
(g1
g2
(lp553
g0
(g1
g2
(lp554
g0
(g1
g2
(lp555
Vit
p556
atp557
Rp558
(dp559
g12
VPRP
p560
sbatp561
Rp562
(dp563
g12
VNP
p564
sbag0
(g1
g2
(lp565
g0
(g1
g2
(lp566
V's
p567
atp568
Rp569
(dp570
g12
VVBZ
p571
sbag0
(g1
g2
(lp572
g0
(g1
g2
(lp573
Vall
p574
atp575
Rp576
(dp577
g12
VDT
p578
sbag0
(g1
g2
(lp579
Vfamily
p580
atp581
Rp582
(dp583
g12
VNN
p584
sbatp585
Rp586
(dp587
g12
VNP
p588
sbag0
(g1
g2
(lp589
g0
(g1
g2
(lp590
Vbecause
p591
atp592
Rp593
(dp594
g12
VIN
p595
sbag0
(g1
g2
(lp596
g0
(g1
g2
(lp597
Vthis
p598
atp599
Rp600
(dp601
g12
VDT
p602
sbatp603
Rp604
(dp605
g12
VNP
p606
sbatp607
Rp608
(dp609
g12
VPP
p610
sbatp611
Rp612
(dp613
g12
VVP
p614
sbatp615
Rp616
(dp617
g12
VS
p618
sbatp619
Rp620
(dp621
g12
VSBAR
p622
sbatp623
Rp624
(dp625
g12
VVP
p626
sbag0
(g1
g2
(lp627
V.
p628
atp629
Rp630
(dp631
g12
V.
p632
sbatp633
Rp634
(dp635
g12
VS
p636
sbatp637
Rp638
(dp639
g12
S'id: 5'
p640
sbag0
(g1
g2
(lp641
g0
(g1
g2
(lp642
g0
(g1
g2
(lp643
g0
(g1
g2
(lp644
VListen
p645
atp646
Rp647
(dp648
g12
VVB
p649
sbag0
(g1
g2
(lp650
g0
(g1
g2
(lp651
Vto
p652
atp653
Rp654
(dp655
g12
VTO
p656
sbag0
(g1
g2
(lp657
g0
(g1
g2
(lp658
Vthe
p659
atp660
Rp661
(dp662
g12
VDT
p663
sbag0
(g1
g2
(lp664
Vradio
p665
atp666
Rp667
(dp668
g12
VNN
p669
sbatp670
Rp671
(dp672
g12
VNP
p673
sbatp674
Rp675
(dp676
g12
VPP
p677
sbatp678
Rp679
(dp680
g12
VVP
p681
sbag0
(g1
g2
(lp682
V.
p683
atp684
Rp685
(dp686
g12
V.
p687
sbatp688
Rp689
(dp690
g12
VS
p691
sbatp692
Rp693
(dp694
g12
S'id: 6'
p695
sbag0
(g1
g2
(lp696
g0
(g1
g2
(lp697
g0
(g1
g2
(lp698
g0
(g1
g2
(lp699
VI
p700
atp701
Rp702
(dp703
g12
VPRP
p704
sbatp705
Rp706
(dp707
g12
VNP
p708
sbag0
(g1
g2
(lp709
g0
(g1
g2
(lp710
Vsee
p711
atp712
Rp713
(dp714
g12
VVBP
p715
sbag0
(g1
g2
(lp716
g0
(g1
g2
(lp717
g0
(g1
g2
(lp718
g0
(g1
g2
(lp719
Vhe
p720
atp721
Rp722
(dp723
g12
VPRP
p724
sbatp725
Rp726
(dp727
g12
VNP
p728
sbag0
(g1
g2
(lp729
g0
(g1
g2
(lp730
Vhas
p731
atp732
Rp733
(dp734
g12
VVBZ
p735
sbag0
(g1
g2
(lp736
g0
(g1
g2
(lp737
Vgot
p738
atp739
Rp740
(dp741
g12
VVBN
p742
sbag0
(g1
g2
(lp743
g0
(g1
g2
(lp744
Vhis
p745
atp746
Rp747
(dp748
g12
VPRP$
p749
sbag0
(g1
g2
(lp750
Vshoes
p751
atp752
Rp753
(dp754
g12
VNNS
p755
sbatp756
Rp757
(dp758
g12
VNP
p759
sbag0
(g1
g2
(lp760
g0
(g1
g2
(lp761
Voff
p762
atp763
Rp764
(dp765
g12
VRP
p766
sbatp767
Rp768
(dp769
g12
VPRT
p770
sbatp771
Rp772
(dp773
g12
VVP
p774
sbatp775
Rp776
(dp777
g12
VVP
p778
sbatp779
Rp780
(dp781
g12
VS
p782
sbag0
(g1
g2
(lp783
V,
p784
atp785
Rp786
(dp787
g12
V,
p788
sbag0
(g1
g2
(lp789
g0
(g1
g2
(lp790
g0
(g1
g2
(lp791
Vhe
p792
atp793
Rp794
(dp795
g12
VPRP
p796
sbatp797
Rp798
(dp799
g12
VNP
p800
sbag0
(g1
g2
(lp801
g0
(g1
g2
(lp802
Vgots
p803
atp804
Rp805
(dp806
g12
VVBZ
p807
sbag0
(g1
g2
(lp808
g0
(g1
g2
(lp809
g0
(g1
g2
(lp810
Vwearing
p811
atp812
Rp813
(dp814
g12
VVBG
p815
sbag0
(g1
g2
(lp816
g0
(g1
g2
(lp817
Vsandals
p818
atp819
Rp820
(dp821
g12
VNNS
p822
sbatp823
Rp824
(dp825
g12
VNP
p826
sbatp827
Rp828
(dp829
g12
VVP
p830
sbatp831
Rp832
(dp833
g12
VS
p834
sbatp835
Rp836
(dp837
g12
VVP
p838
sbatp839
Rp840
(dp841
g12
VS
p842
sbatp843
Rp844
(dp845
g12
VS
p846
sbatp847
Rp848
(dp849
g12
VVP
p850
sbatp851
Rp852
(dp853
g12
VS
p854
sbatp855
Rp856
(dp857
g12
S'id: 7'
p858
sbatp859
Rp860
(dp861
g12
S'sentences'
p862
sb.