ccopy_reg
_reconstructor
p0
(cnltk.tree
Tree
p1
c__builtin__
list
p2
(lp3
g0
(g1
g2
(lp4
g0
(g1
g2
(lp5
g0
(g1
g2
(lp6
Vok
p7
atp8
Rp9
(dp10
S'_label'
p11
VNN
p12
sbag0
(g1
g2
(lp13
V.
p14
atp15
Rp16
(dp17
g11
V.
p18
sbatp19
Rp20
(dp21
g11
VNP
p22
sbatp23
Rp24
(dp25
g11
S'id: 0'
p26
sbag0
(g1
g2
(lp27
g0
(g1
g2
(lp28
g0
(g1
g2
(lp29
g0
(g1
g2
(lp30
VThis
p31
atp32
Rp33
(dp34
g11
VDT
p35
sbatp36
Rp37
(dp38
g11
VNP
p39
sbag0
(g1
g2
(lp40
g0
(g1
g2
(lp41
Vis
p42
atp43
Rp44
(dp45
g11
VVBZ
p46
sbag0
(g1
g2
(lp47
g0
(g1
g2
(lp48
g0
(g1
g2
(lp49
Va
p50
atp51
Rp52
(dp53
g11
VDT
p54
sbag0
(g1
g2
(lp55
Vpicture
p56
atp57
Rp58
(dp59
g11
VNN
p60
sbatp61
Rp62
(dp63
g11
VNP
p64
sbag0
(g1
g2
(lp65
V,
p66
atp67
Rp68
(dp69
g11
V,
p70
sbag0
(g1
g2
(lp71
g0
(g1
g2
(lp72
g0
(g1
g2
(lp73
g0
(g1
g2
(lp74
Vlooks
p75
atp76
Rp77
(dp78
g11
VVBZ
p79
sbag0
(g1
g2
(lp80
g0
(g1
g2
(lp81
Vlike
p82
atp83
Rp84
(dp85
g11
VIN
p86
sbag0
(g1
g2
(lp87
g0
(g1
g2
(lp88
g0
(g1
g2
(lp89
Vit
p90
atp91
Rp92
(dp93
g11
VPRP
p94
sbatp95
Rp96
(dp97
g11
VNP
p98
sbag0
(g1
g2
(lp99
g0
(g1
g2
(lp100
V's
p101
atp102
Rp103
(dp104
g11
VVBZ
p105
sbag0
(g1
g2
(lp106
g0
(g1
g2
(lp107
Va
p108
atp109
Rp110
(dp111
g11
VDT
p112
sbag0
(g1
g2
(lp113
Vlakeside
p114
atp115
Rp116
(dp117
g11
VNN
p118
sbatp119
Rp120
(dp121
g11
VNP
p122
sbatp123
Rp124
(dp125
g11
VVP
p126
sbatp127
Rp128
(dp129
g11
VS
p130
sbatp131
Rp132
(dp133
g11
VSBAR
p134
sbatp135
Rp136
(dp137
g11
VVP
p138
sbatp139
Rp140
(dp141
g11
VS
p142
sbatp143
Rp144
(dp145
g11
VSBAR
p146
sbatp147
Rp148
(dp149
g11
VNP
p150
sbatp151
Rp152
(dp153
g11
VVP
p154
sbag0
(g1
g2
(lp155
V.
p156
atp157
Rp158
(dp159
g11
V.
p160
sbatp161
Rp162
(dp163
g11
VS
p164
sbatp165
Rp166
(dp167
g11
S'id: 1'
p168
sbag0
(g1
g2
(lp169
g0
(g1
g2
(lp170
g0
(g1
g2
(lp171
g0
(g1
g2
(lp172
g0
(g1
g2
(lp173
VThere
p174
atp175
Rp176
(dp177
g11
VEX
p178
sbatp179
Rp180
(dp181
g11
VNP
p182
sbag0
(g1
g2
(lp183
g0
(g1
g2
(lp184
Vis
p185
atp186
Rp187
(dp188
g11
VVBZ
p189
sbag0
(g1
g2
(lp190
g0
(g1
g2
(lp191
g0
(g1
g2
(lp192
Va
p193
atp194
Rp195
(dp196
g11
VDT
p197
sbag0
(g1
g2
(lp198
Vsailboat
p199
atp200
Rp201
(dp202
g11
VNN
p203
sbatp204
Rp205
(dp206
g11
VNP
p207
sbag0
(g1
g2
(lp208
g0
(g1
g2
(lp209
Von
p210
atp211
Rp212
(dp213
g11
VIN
p214
sbag0
(g1
g2
(lp215
g0
(g1
g2
(lp216
Vthe
p217
atp218
Rp219
(dp220
g11
VDT
p221
sbag0
(g1
g2
(lp222
Vlake
p223
atp224
Rp225
(dp226
g11
VNN
p227
sbatp228
Rp229
(dp230
g11
VNP
p231
sbatp232
Rp233
(dp234
g11
VPP
p235
sbatp236
Rp237
(dp238
g11
VNP
p239
sbag0
(g1
g2
(lp240
V,
p241
atp242
Rp243
(dp244
g11
V,
p245
sbag0
(g1
g2
(lp246
g0
(g1
g2
(lp247
Vwith
p248
atp249
Rp250
(dp251
g11
VIN
p252
sbag0
(g1
g2
(lp253
g0
(g1
g2
(lp254
g0
(g1
g2
(lp255
Vtwo
p256
atp257
Rp258
(dp259
g11
VCD
p260
sbag0
(g1
g2
(lp261
Vpeople
p262
atp263
Rp264
(dp265
g11
VNNS
p266
sbatp267
Rp268
(dp269
g11
VNP
p270
sbag0
(g1
g2
(lp271
g0
(g1
g2
(lp272
Vin
p273
atp274
Rp275
(dp276
g11
VIN
p277
sbag0
(g1
g2
(lp278
g0
(g1
g2
(lp279
Vit
p280
atp281
Rp282
(dp283
g11
VPRP
p284
sbatp285
Rp286
(dp287
g11
VNP
p288
sbatp289
Rp290
(dp291
g11
VPP
p292
sbatp293
Rp294
(dp295
g11
VNP
p296
sbatp297
Rp298
(dp299
g11
VPP
p300
sbatp301
Rp302
(dp303
g11
VVP
p304
sbatp305
Rp306
(dp307
g11
VS
p308
sbag0
(g1
g2
(lp309
Vand
p310
atp311
Rp312
(dp313
g11
VCC
p314
sbag0
(g1
g2
(lp315
g0
(g1
g2
(lp316
g0
(g1
g2
(lp317
Vthey
p318
atp319
Rp320
(dp321
g11
VPRP
p322
sbatp323
Rp324
(dp325
g11
VNP
p326
sbag0
(g1
g2
(lp327
g0
(g1
g2
(lp328
V're
p329
atp330
Rp331
(dp332
g11
VVBP
p333
sbag0
(g1
g2
(lp334
g0
(g1
g2
(lp335
Vwaving
p336
atp337
Rp338
(dp339
g11
VVBG
p340
sbag0
(g1
g2
(lp341
g0
(g1
g2
(lp342
Vat
p343
atp344
Rp345
(dp346
g11
VIN
p347
sbag0
(g1
g2
(lp348
g0
(g1
g2
(lp349
g0
(g1
g2
(lp350
Vthe
p351
atp352
Rp353
(dp354
g11
VDT
p355
sbag0
(g1
g2
(lp356
Vpeople
p357
atp358
Rp359
(dp360
g11
VNNS
p361
sbatp362
Rp363
(dp364
g11
VNP
p365
sbag0
(g1
g2
(lp366
g0
(g1
g2
(lp367
Von
p368
atp369
Rp370
(dp371
g11
VIN
p372
sbag0
(g1
g2
(lp373
g0
(g1
g2
(lp374
Vshore
p375
atp376
Rp377
(dp378
g11
VNN
p379
sbatp380
Rp381
(dp382
g11
VNP
p383
sbatp384
Rp385
(dp386
g11
VPP
p387
sbatp388
Rp389
(dp390
g11
VNP
p391
sbatp392
Rp393
(dp394
g11
VPP
p395
sbatp396
Rp397
(dp398
g11
VVP
p399
sbatp400
Rp401
(dp402
g11
VVP
p403
sbatp404
Rp405
(dp406
g11
VS
p407
sbag0
(g1
g2
(lp408
V.
p409
atp410
Rp411
(dp412
g11
V.
p413
sbatp414
Rp415
(dp416
g11
VS
p417
sbatp418
Rp419
(dp420
g11
S'id: 2'
p421
sbag0
(g1
g2
(lp422
g0
(g1
g2
(lp423
g0
(g1
g2
(lp424
g0
(g1
g2
(lp425
VThere
p426
atp427
Rp428
(dp429
g11
VEX
p430
sbatp431
Rp432
(dp433
g11
VNP
p434
sbag0
(g1
g2
(lp435
g0
(g1
g2
(lp436
V's
p437
atp438
Rp439
(dp440
g11
VVBZ
p441
sbag0
(g1
g2
(lp442
g0
(g1
g2
(lp443
g0
(g1
g2
(lp444
Va
p445
atp446
Rp447
(dp448
g11
VDT
p449
sbag0
(g1
g2
(lp450
Vhouse
p451
atp452
Rp453
(dp454
g11
VNN
p455
sbatp456
Rp457
(dp458
g11
VNP
p459
sbag0
(g1
g2
(lp460
g0
(g1
g2
(lp461
Vwith
p462
atp463
Rp464
(dp465
g11
VIN
p466
sbag0
(g1
g2
(lp467
g0
(g1
g2
(lp468
Va
p469
atp470
Rp471
(dp472
g11
VDT
p473
sbag0
(g1
g2
(lp474
Vcar
p475
atp476
Rp477
(dp478
g11
VNN
p479
sbatp480
Rp481
(dp482
g11
VNP
p483
sbatp484
Rp485
(dp486
g11
VPP
p487
sbatp488
Rp489
(dp490
g11
VNP
p491
sbag0
(g1
g2
(lp492
g0
(g1
g2
(lp493
Vthere
p494
atp495
Rp496
(dp497
g11
VRB
p498
sbatp499
Rp500
(dp501
g11
VADVP
p502
sbatp503
Rp504
(dp505
g11
VVP
p506
sbag0
(g1
g2
(lp507
V.
p508
atp509
Rp510
(dp511
g11
V.
p512
sbatp513
Rp514
(dp515
g11
VS
p516
sbatp517
Rp518
(dp519
g11
S'id: 3'
p520
sbag0
(g1
g2
(lp521
g0
(g1
g2
(lp522
g0
(g1
g2
(lp523
g0
(g1
g2
(lp524
VAnd
p525
atp526
Rp527
(dp528
g11
VCC
p529
sbag0
(g1
g2
(lp530
g0
(g1
g2
(lp531
Vthere
p532
atp533
Rp534
(dp535
g11
VEX
p536
sbatp537
Rp538
(dp539
g11
VNP
p540
sbag0
(g1
g2
(lp541
g0
(g1
g2
(lp542
V's
p543
atp544
Rp545
(dp546
g11
VVBZ
p547
sbag0
(g1
g2
(lp548
g0
(g1
g2
(lp549
g0
(g1
g2
(lp550
Va
p551
atp552
Rp553
(dp554
g11
VDT
p555
sbag0
(g1
g2
(lp556
Vman
p557
atp558
Rp559
(dp560
g11
VNN
p561
sbag0
(g1
g2
(lp562
g0
(g1
g2
(lp563
Vout
p564
atp565
Rp566
(dp567
g11
VRP
p568
sbatp569
Rp570
(dp571
g11
VPRT
p572
sbatp573
Rp574
(dp575
g11
VNP
p576
sbag0
(g1
g2
(lp577
g0
(g1
g2
(lp578
Von
p579
atp580
Rp581
(dp582
g11
VIN
p583
sbag0
(g1
g2
(lp584
g0
(g1
g2
(lp585
Vthe
p586
atp587
Rp588
(dp589
g11
VDT
p590
sbag0
(g1
g2
(lp591
Vpier
p592
atp593
Rp594
(dp595
g11
VNN
p596
sbag0
(g1
g2
(lp597
Vfishing
p598
atp599
Rp600
(dp601
g11
VNN
p602
sbatp603
Rp604
(dp605
g11
VNP
p606
sbatp607
Rp608
(dp609
g11
VPP
p610
sbatp611
Rp612
(dp613
g11
VNP
p614
sbatp615
Rp616
(dp617
g11
VVP
p618
sbatp619
Rp620
(dp621
g11
VS
p622
sbag0
(g1
g2
(lp623
V,
p624
atp625
Rp626
(dp627
g11
V,
p628
sbag0
(g1
g2
(lp629
g0
(g1
g2
(lp630
Vhe
p631
atp632
Rp633
(dp634
g11
VPRP
p635
sbatp636
Rp637
(dp638
g11
VNP
p639
sbag0
(g1
g2
(lp640
g0
(g1
g2
(lp641
Vjust
p642
atp643
Rp644
(dp645
g11
VRB
p646
sbatp647
Rp648
(dp649
g11
VADVP
p650
sbag0
(g1
g2
(lp651
g0
(g1
g2
(lp652
Vcaught
p653
atp654
Rp655
(dp656
g11
VVBD
p657
sbag0
(g1
g2
(lp658
g0
(g1
g2
(lp659
Va
p660
atp661
Rp662
(dp663
g11
VDT
p664
sbag0
(g1
g2
(lp665
Vfish
p666
atp667
Rp668
(dp669
g11
VNN
p670
sbatp671
Rp672
(dp673
g11
VNP
p674
sbatp675
Rp676
(dp677
g11
VVP
p678
sbag0
(g1
g2
(lp679
V.
p680
atp681
Rp682
(dp683
g11
V.
p684
sbatp685
Rp686
(dp687
g11
VS
p688
sbatp689
Rp690
(dp691
g11
S'id: 4'
p692
sbag0
(g1
g2
(lp693
g0
(g1
g2
(lp694
g0
(g1
g2
(lp695
g0
(g1
g2
(lp696
VHe
p697
atp698
Rp699
(dp700
g11
VPRP
p701
sbatp702
Rp703
(dp704
g11
VNP
p705
sbag0
(g1
g2
(lp706
g0
(g1
g2
(lp707
Vhas
p708
atp709
Rp710
(dp711
g11
VVBZ
p712
sbag0
(g1
g2
(lp713
g0
(g1
g2
(lp714
Von
p715
atp716
Rp717
(dp718
g11
VIN
p719
sbag0
(g1
g2
(lp720
g0
(g1
g2
(lp721
Va
p722
atp723
Rp724
(dp725
g11
VDT
p726
sbag0
(g1
g2
(lp727
Vstraw
p728
atp729
Rp730
(dp731
g11
VNN
p732
sbatp733
Rp734
(dp735
g11
VNP
p736
sbatp737
Rp738
(dp739
g11
VPP
p740
sbag0
(g1
g2
(lp741
g0
(g1
g2
(lp742
g0
(g1
g2
(lp743
Vhat
p744
atp745
Rp746
(dp747
g11
VNN
p748
sbatp749
Rp750
(dp751
g11
VNP
p752
sbag0
(g1
g2
(lp753
V,
p754
atp755
Rp756
(dp757
g11
V,
p758
sbag0
(g1
g2
(lp759
g0
(g1
g2
(lp760
Vkeeping
p761
atp762
Rp763
(dp764
g11
VVBG
p765
sbag0
(g1
g2
(lp766
g0
(g1
g2
(lp767
g0
(g1
g2
(lp768
Vthe
p769
atp770
Rp771
(dp772
g11
VDT
p773
sbag0
(g1
g2
(lp774
Vsun
p775
atp776
Rp777
(dp778
g11
VNN
p779
sbatp780
Rp781
(dp782
g11
VNP
p783
sbag0
(g1
g2
(lp784
Vout
p785
atp786
Rp787
(dp788
g11
VIN
p789
sbatp790
Rp791
(dp792
g11
VADVP
p793
sbag0
(g1
g2
(lp794
g0
(g1
g2
(lp795
Vof
p796
atp797
Rp798
(dp799
g11
VIN
p800
sbag0
(g1
g2
(lp801
g0
(g1
g2
(lp802
Vhis
p803
atp804
Rp805
(dp806
g11
VPRP$
p807
sbag0
(g1
g2
(lp808
Vface
p809
atp810
Rp811
(dp812
g11
VNN
p813
sbatp814
Rp815
(dp816
g11
VNP
p817
sbatp818
Rp819
(dp820
g11
VPP
p821
sbatp822
Rp823
(dp824
g11
VVP
p825
sbatp826
Rp827
(dp828
g11
VNP
p829
sbatp830
Rp831
(dp832
g11
VVP
p833
sbag0
(g1
g2
(lp834
V.
p835
atp836
Rp837
(dp838
g11
V.
p839
sbatp840
Rp841
(dp842
g11
VS
p843
sbatp844
Rp845
(dp846
g11
S'id: 5'
p847
sbag0
(g1
g2
(lp848
g0
(g1
g2
(lp849
g0
(g1
g2
(lp850
g0
(g1
g2
(lp851
g0
(g1
g2
(lp852
VThere
p853
atp854
Rp855
(dp856
g11
VEX
p857
sbatp858
Rp859
(dp860
g11
VNP
p861
sbag0
(g1
g2
(lp862
g0
(g1
g2
(lp863
V's
p864
atp865
Rp866
(dp867
g11
VVBZ
p868
sbag0
(g1
g2
(lp869
g0
(g1
g2
(lp870
g0
(g1
g2
(lp871
Va
p872
atp873
Rp874
(dp875
g11
VDT
p876
sbag0
(g1
g2
(lp877
Vlittle
p878
atp879
Rp880
(dp881
g11
VJJ
p882
sbag0
(g1
g2
(lp883
Vgirl
p884
atp885
Rp886
(dp887
g11
VNN
p888
sbag0
(g1
g2
(lp889
Vplaying
p890
atp891
Rp892
(dp893
g11
VNN
p894
sbatp895
Rp896
(dp897
g11
VNP
p898
sbag0
(g1
g2
(lp899
g0
(g1
g2
(lp900
Vin
p901
atp902
Rp903
(dp904
g11
VIN
p905
sbag0
(g1
g2
(lp906
g0
(g1
g2
(lp907
Vthe
p908
atp909
Rp910
(dp911
g11
VDT
p912
sbag0
(g1
g2
(lp913
Vsand
p914
atp915
Rp916
(dp917
g11
VNN
p918
sbatp919
Rp920
(dp921
g11
VNP
p922
sbatp923
Rp924
(dp925
g11
VPP
p926
sbatp927
Rp928
(dp929
g11
VNP
p930
sbatp931
Rp932
(dp933
g11
VVP
p934
sbatp935
Rp936
(dp937
g11
VS
p938
sbag0
(g1
g2
(lp939
V,
p940
atp941
Rp942
(dp943
g11
V,
p944
sbag0
(g1
g2
(lp945
g0
(g1
g2
(lp946
Vshe
p947
atp948
Rp949
(dp950
g11
VPRP
p951
sbatp952
Rp953
(dp954
g11
VNP
p955
sbag0
(g1
g2
(lp956
g0
(g1
g2
(lp957
V's
p958
atp959
Rp960
(dp961
g11
VVBZ
p962
sbag0
(g1
g2
(lp963
g0
(g1
g2
(lp964
Vbuilt
p965
atp966
Rp967
(dp968
g11
VVBN
p969
sbag0
(g1
g2
(lp970
g0
(g1
g2
(lp971
g0
(g1
g2
(lp972
Va
p973
atp974
Rp975
(dp976
g11
VDT
p977
sbag0
(g1
g2
(lp978
Vsandcastle
p979
atp980
Rp981
(dp982
g11
VNN
p983
sbatp984
Rp985
(dp986
g11
VNP
p987
sbag0
(g1
g2
(lp988
V,
p989
atp990
Rp991
(dp992
g11
V,
p993
sbag0
(g1
g2
(lp994
g0
(g1
g2
(lp995
g0
(g1
g2
(lp996
g0
(g1
g2
(lp997
Vlooks
p998
atp999
Rp1000
(dp1001
g11
VVBZ
p1002
sbag0
(g1
g2
(lp1003
g0
(g1
g2
(lp1004
Vlike
p1005
atp1006
Rp1007
(dp1008
g11
VIN
p1009
sbag0
(g1
g2
(lp1010
g0
(g1
g2
(lp1011
g0
(g1
g2
(lp1012
Vshe
p1013
atp1014
Rp1015
(dp1016
g11
VPRP
p1017
sbatp1018
Rp1019
(dp1020
g11
VNP
p1021
sbag0
(g1
g2
(lp1022
g0
(g1
g2
(lp1023
V's
p1024
atp1025
Rp1026
(dp1027
g11
VVBZ
p1028
sbag0
(g1
g2
(lp1029
g0
(g1
g2
(lp1030
Vreally
p1031
atp1032
Rp1033
(dp1034
g11
VRB
p1035
sbatp1036
Rp1037
(dp1038
g11
VADVP
p1039
sbag0
(g1
g2
(lp1040
g0
(g1
g2
(lp1041
Venjoying
p1042
atp1043
Rp1044
(dp1045
g11
VVBG
p1046
sbag0
(g1
g2
(lp1047
g0
(g1
g2
(lp1048
Vherself
p1049
atp1050
Rp1051
(dp1052
g11
VPRP
p1053
sbatp1054
Rp1055
(dp1056
g11
VNP
p1057
sbatp1058
Rp1059
(dp1060
g11
VVP
p1061
sbatp1062
Rp1063
(dp1064
g11
VVP
p1065
sbatp1066
Rp1067
(dp1068
g11
VS
p1069
sbatp1070
Rp1071
(dp1072
g11
VSBAR
p1073
sbatp1074
Rp1075
(dp1076
g11
VVP
p1077
sbatp1078
Rp1079
(dp1080
g11
VS
p1081
sbatp1082
Rp1083
(dp1084
g11
VSBAR
p1085
sbatp1086
Rp1087
(dp1088
g11
VNP
p1089
sbatp1090
Rp1091
(dp1092
g11
VVP
p1093
sbatp1094
Rp1095
(dp1096
g11
VVP
p1097
sbag0
(g1
g2
(lp1098
V.
p1099
atp1100
Rp1101
(dp1102
g11
V.
p1103
sbatp1104
Rp1105
(dp1106
g11
VS
p1107
sbatp1108
Rp1109
(dp1110
g11
S'id: 6'
p1111
sbag0
(g1
g2
(lp1112
g0
(g1
g2
(lp1113
g0
(g1
g2
(lp1114
g0
(g1
g2
(lp1115
g0
(g1
g2
(lp1116
VThere
p1117
atp1118
Rp1119
(dp1120
g11
VEX
p1121
sbatp1122
Rp1123
(dp1124
g11
VNP
p1125
sbag0
(g1
g2
(lp1126
g0
(g1
g2
(lp1127
V's
p1128
atp1129
Rp1130
(dp1131
g11
VVBZ
p1132
sbag0
(g1
g2
(lp1133
g0
(g1
g2
(lp1134
g0
(g1
g2
(lp1135
Va
p1136
atp1137
Rp1138
(dp1139
g11
VDT
p1140
sbag0
(g1
g2
(lp1141
Vlady
p1142
atp1143
Rp1144
(dp1145
g11
VNN
p1146
sbatp1147
Rp1148
(dp1149
g11
VNP
p1150
sbag0
(g1
g2
(lp1151
Vand
p1152
atp1153
Rp1154
(dp1155
g11
VCC
p1156
sbag0
(g1
g2
(lp1157
g0
(g1
g2
(lp1158
Va
p1159
atp1160
Rp1161
(dp1162
g11
VDT
p1163
sbag0
(g1
g2
(lp1164
Vman
p1165
atp1166
Rp1167
(dp1168
g11
VNN
p1169
sbatp1170
Rp1171
(dp1172
g11
VNP
p1173
sbatp1174
Rp1175
(dp1176
g11
VNP
p1177
sbag0
(g1
g2
(lp1178
V,
p1179
atp1180
Rp1181
(dp1182
g11
V,
p1183
sbag0
(g1
g2
(lp1184
g0
(g1
g2
(lp1185
g0
(g1
g2
(lp1186
Vhaving
p1187
atp1188
Rp1189
(dp1190
g11
VVBG
p1191
sbag0
(g1
g2
(lp1192
g0
(g1
g2
(lp1193
Va
p1194
atp1195
Rp1196
(dp1197
g11
VDT
p1198
sbag0
(g1
g2
(lp1199
Vpicnic
p1200
atp1201
Rp1202
(dp1203
g11
VNN
p1204
sbag0
(g1
g2
(lp1205
Vlunch
p1206
atp1207
Rp1208
(dp1209
g11
VNN
p1210
sbatp1211
Rp1212
(dp1213
g11
VNP
p1214
sbatp1215
Rp1216
(dp1217
g11
VVP
p1218
sbatp1219
Rp1220
(dp1221
g11
VS
p1222
sbatp1223
Rp1224
(dp1225
g11
VVP
p1226
sbatp1227
Rp1228
(dp1229
g11
VS
p1230
sbag0
(g1
g2
(lp1231
V,
p1232
atp1233
Rp1234
(dp1235
g11
V,
p1236
sbag0
(g1
g2
(lp1237
g0
(g1
g2
(lp1238
Vshe
p1239
atp1240
Rp1241
(dp1242
g11
VPRP
p1243
sbatp1244
Rp1245
(dp1246
g11
VNP
p1247
sbag0
(g1
g2
(lp1248
g0
(g1
g2
(lp1249
V's
p1250
atp1251
Rp1252
(dp1253
g11
VVBZ
p1254
sbag0
(g1
g2
(lp1255
g0
(g1
g2
(lp1256
Vpouring
p1257
atp1258
Rp1259
(dp1260
g11
VVBG
p1261
sbag0
(g1
g2
(lp1262
g0
(g1
g2
(lp1263
g0
(g1
g2
(lp1264
Vthem
p1265
atp1266
Rp1267
(dp1268
g11
VPRP
p1269
sbatp1270
Rp1271
(dp1272
g11
VNP
p1273
sbag0
(g1
g2
(lp1274
g0
(g1
g2
(lp1275
g0
(g1
g2
(lp1276
Vsomething
p1277
atp1278
Rp1279
(dp1280
g11
VNN
p1281
sbatp1282
Rp1283
(dp1284
g11
VNP
p1285
sbag0
(g1
g2
(lp1286
g0
(g1
g2
(lp1287
Vcold
p1288
atp1289
Rp1290
(dp1291
g11
VJJ
p1292
sbag0
(g1
g2
(lp1293
g0
(g1
g2
(lp1294
g0
(g1
g2
(lp1295
Vto
p1296
atp1297
Rp1298
(dp1299
g11
VTO
p1300
sbag0
(g1
g2
(lp1301
g0
(g1
g2
(lp1302
Vdrink
p1303
atp1304
Rp1305
(dp1306
g11
VVB
p1307
sbatp1308
Rp1309
(dp1310
g11
VVP
p1311
sbatp1312
Rp1313
(dp1314
g11
VVP
p1315
sbatp1316
Rp1317
(dp1318
g11
VS
p1319
sbatp1320
Rp1321
(dp1322
g11
VADJP
p1323
sbatp1324
Rp1325
(dp1326
g11
VNP
p1327
sbatp1328
Rp1329
(dp1330
g11
VS
p1331
sbatp1332
Rp1333
(dp1334
g11
VVP
p1335
sbatp1336
Rp1337
(dp1338
g11
VVP
p1339
sbag0
(g1
g2
(lp1340
V.
p1341
atp1342
Rp1343
(dp1344
g11
V.
p1345
sbatp1346
Rp1347
(dp1348
g11
VS
p1349
sbatp1350
Rp1351
(dp1352
g11
S'id: 7'
p1353
sbag0
(g1
g2
(lp1354
g0
(g1
g2
(lp1355
g0
(g1
g2
(lp1356
g0
(g1
g2
(lp1357
VThey
p1358
atp1359
Rp1360
(dp1361
g11
VPRP
p1362
sbatp1363
Rp1364
(dp1365
g11
VNP
p1366
sbag0
(g1
g2
(lp1367
g0
(g1
g2
(lp1368
Vhave
p1369
atp1370
Rp1371
(dp1372
g11
VVBP
p1373
sbag0
(g1
g2
(lp1374
g0
(g1
g2
(lp1375
g0
(g1
g2
(lp1376
Va
p1377
atp1378
Rp1379
(dp1380
g11
VDT
p1381
sbag0
(g1
g2
(lp1382
Vradio
p1383
atp1384
Rp1385
(dp1386
g11
VNN
p1387
sbatp1388
Rp1389
(dp1390
g11
VNP
p1391
sbag0
(g1
g2
(lp1392
g0
(g1
g2
(lp1393
Vso
p1394
atp1395
Rp1396
(dp1397
g11
VIN
p1398
sbag0
(g1
g2
(lp1399
g0
(g1
g2
(lp1400
g0
(g1
g2
(lp1401
Vthey
p1402
atp1403
Rp1404
(dp1405
g11
VPRP
p1406
sbatp1407
Rp1408
(dp1409
g11
VNP
p1410
sbag0
(g1
g2
(lp1411
g0
(g1
g2
(lp1412
Vcan
p1413
atp1414
Rp1415
(dp1416
g11
VMD
p1417
sbag0
(g1
g2
(lp1418
g0
(g1
g2
(lp1419
Vlisten
p1420
atp1421
Rp1422
(dp1423
g11
VVB
p1424
sbag0
(g1
g2
(lp1425
g0
(g1
g2
(lp1426
Vto
p1427
atp1428
Rp1429
(dp1430
g11
VTO
p1431
sbag0
(g1
g2
(lp1432
g0
(g1
g2
(lp1433
Vmusic
p1434
atp1435
Rp1436
(dp1437
g11
VNN
p1438
sbatp1439
Rp1440
(dp1441
g11
VNP
p1442
sbatp1443
Rp1444
(dp1445
g11
VPP
p1446
sbatp1447
Rp1448
(dp1449
g11
VVP
p1450
sbatp1451
Rp1452
(dp1453
g11
VVP
p1454
sbatp1455
Rp1456
(dp1457
g11
VS
p1458
sbatp1459
Rp1460
(dp1461
g11
VSBAR
p1462
sbatp1463
Rp1464
(dp1465
g11
VNP
p1466
sbatp1467
Rp1468
(dp1469
g11
VVP
p1470
sbag0
(g1
g2
(lp1471
V.
p1472
atp1473
Rp1474
(dp1475
g11
V.
p1476
sbatp1477
Rp1478
(dp1479
g11
VS
p1480
sbatp1481
Rp1482
(dp1483
g11
S'id: 8'
p1484
sbag0
(g1
g2
(lp1485
g0
(g1
g2
(lp1486
g0
(g1
g2
(lp1487
g0
(g1
g2
(lp1488
VThe
p1489
atp1490
Rp1491
(dp1492
g11
VDT
p1493
sbag0
(g1
g2
(lp1494
Vman
p1495
atp1496
Rp1497
(dp1498
g11
VNN
p1499
sbatp1500
Rp1501
(dp1502
g11
VNP
p1503
sbag0
(g1
g2
(lp1504
g0
(g1
g2
(lp1505
Vis
p1506
atp1507
Rp1508
(dp1509
g11
VVBZ
p1510
sbag0
(g1
g2
(lp1511
g0
(g1
g2
(lp1512
Vcrah
p1513
atp1514
Rp1515
(dp1516
g11
VJJ
p1517
sbag0
(g1
g2
(lp1518
V,
p1519
atp1520
Rp1521
(dp1522
g11
V,
p1523
sbag0
(g1
g2
(lp1524
Vcriss
p1525
atp1526
Rp1527
(dp1528
g11
VJJ
p1529
sbag0
(g1
g2
(lp1530
Vcross
p1531
atp1532
Rp1533
(dp1534
g11
VNN
p1535
sbag0
(g1
g2
(lp1536
Vapplesauce
p1537
atp1538
Rp1539
(dp1540
g11
VNN
p1541
sbatp1542
Rp1543
(dp1544
g11
VNP
p1545
sbag0
(g1
g2
(lp1546
V,
p1547
atp1548
Rp1549
(dp1550
g11
V,
p1551
sbag0
(g1
g2
(lp1552
g0
(g1
g2
(lp1553
g0
(g1
g2
(lp1554
Vreading
p1555
atp1556
Rp1557
(dp1558
g11
VVBG
p1559
sbag0
(g1
g2
(lp1560
g0
(g1
g2
(lp1561
Va
p1562
atp1563
Rp1564
(dp1565
g11
VDT
p1566
sbag0
(g1
g2
(lp1567
Vbook
p1568
atp1569
Rp1570
(dp1571
g11
VNN
p1572
sbatp1573
Rp1574
(dp1575
g11
VNP
p1576
sbatp1577
Rp1578
(dp1579
g11
VVP
p1580
sbatp1581
Rp1582
(dp1583
g11
VS
p1584
sbatp1585
Rp1586
(dp1587
g11
VVP
p1588
sbag0
(g1
g2
(lp1589
V.
p1590
atp1591
Rp1592
(dp1593
g11
V.
p1594
sbatp1595
Rp1596
(dp1597
g11
VS
p1598
sbatp1599
Rp1600
(dp1601
g11
S'id: 9'
p1602
sbag0
(g1
g2
(lp1603
g0
(g1
g2
(lp1604
g0
(g1
g2
(lp1605
g0
(g1
g2
(lp1606
VThere
p1607
atp1608
Rp1609
(dp1610
g11
VEX
p1611
sbatp1612
Rp1613
(dp1614
g11
VNP
p1615
sbag0
(g1
g2
(lp1616
g0
(g1
g2
(lp1617
Vis
p1618
atp1619
Rp1620
(dp1621
g11
VVBZ
p1622
sbag0
(g1
g2
(lp1623
g0
(g1
g2
(lp1624
g0
(g1
g2
(lp1625
Va
p1626
atp1627
Rp1628
(dp1629
g11
VDT
p1630
sbag0
(g1
g2
(lp1631
Vlittle
p1632
atp1633
Rp1634
(dp1635
g11
VJJ
p1636
sbag0
(g1
g2
(lp1637
Vboy
p1638
atp1639
Rp1640
(dp1641
g11
VNN
p1642
sbatp1643
Rp1644
(dp1645
g11
VNP
p1646
sbag0
(g1
g2
(lp1647
g0
(g1
g2
(lp1648
g0
(g1
g2
(lp1649
Vflying
p1650
atp1651
Rp1652
(dp1653
g11
VVBG
p1654
sbag0
(g1
g2
(lp1655
g0
(g1
g2
(lp1656
Va
p1657
atp1658
Rp1659
(dp1660
g11
VDT
p1661
sbag0
(g1
g2
(lp1662
Vkite
p1663
atp1664
Rp1665
(dp1666
g11
VNN
p1667
sbatp1668
Rp1669
(dp1670
g11
VNP
p1671
sbatp1672
Rp1673
(dp1674
g11
VVP
p1675
sbag0
(g1
g2
(lp1676
V,
p1677
atp1678
Rp1679
(dp1680
g11
V,
p1681
sbag0
(g1
g2
(lp1682
g0
(g1
g2
(lp1683
Vlooks
p1684
atp1685
Rp1686
(dp1687
g11
VVBZ
p1688
sbatp1689
Rp1690
(dp1691
g11
VVP
p1692
sbag0
(g1
g2
(lp1693
g0
(g1
g2
(lp1694
Vlike
p1695
atp1696
Rp1697
(dp1698
g11
VIN
p1699
sbag0
(g1
g2
(lp1700
g0
(g1
g2
(lp1701
g0
(g1
g2
(lp1702
Vhe
p1703
atp1704
Rp1705
(dp1706
g11
VPRP
p1707
sbatp1708
Rp1709
(dp1710
g11
VNP
p1711
sbag0
(g1
g2
(lp1712
g0
(g1
g2
(lp1713
V's
p1714
atp1715
Rp1716
(dp1717
g11
VVBZ
p1718
sbag0
(g1
g2
(lp1719
g0
(g1
g2
(lp1720
Vreally
p1721
atp1722
Rp1723
(dp1724
g11
VRB
p1725
sbatp1726
Rp1727
(dp1728
g11
VADVP
p1729
sbag0
(g1
g2
(lp1730
g0
(g1
g2
(lp1731
Venjoying
p1732
atp1733
Rp1734
(dp1735
g11
VVBG
p1736
sbag0
(g1
g2
(lp1737
g0
(g1
g2
(lp1738
Vthe
p1739
atp1740
Rp1741
(dp1742
g11
VDT
p1743
sbag0
(g1
g2
(lp1744
Vkite
p1745
atp1746
Rp1747
(dp1748
g11
VNN
p1749
sbatp1750
Rp1751
(dp1752
g11
VNP
p1753
sbatp1754
Rp1755
(dp1756
g11
VVP
p1757
sbatp1758
Rp1759
(dp1760
g11
VVP
p1761
sbatp1762
Rp1763
(dp1764
g11
VS
p1765
sbatp1766
Rp1767
(dp1768
g11
VSBAR
p1769
sbatp1770
Rp1771
(dp1772
g11
VVP
p1773
sbatp1774
Rp1775
(dp1776
g11
VNP
p1777
sbatp1778
Rp1779
(dp1780
g11
VVP
p1781
sbag0
(g1
g2
(lp1782
V.
p1783
atp1784
Rp1785
(dp1786
g11
V.
p1787
sbatp1788
Rp1789
(dp1790
g11
VS
p1791
sbatp1792
Rp1793
(dp1794
g11
S'id: 10'
p1795
sbag0
(g1
g2
(lp1796
g0
(g1
g2
(lp1797
g0
(g1
g2
(lp1798
g0
(g1
g2
(lp1799
VAnd
p1800
atp1801
Rp1802
(dp1803
g11
VCC
p1804
sbag0
(g1
g2
(lp1805
g0
(g1
g2
(lp1806
Vhe
p1807
atp1808
Rp1809
(dp1810
g11
VPRP
p1811
sbatp1812
Rp1813
(dp1814
g11
VNP
p1815
sbag0
(g1
g2
(lp1816
g0
(g1
g2
(lp1817
Vhas
p1818
atp1819
Rp1820
(dp1821
g11
VVBZ
p1822
sbatp1823
Rp1824
(dp1825
g11
VVP
p1826
sbatp1827
Rp1828
(dp1829
g11
VS
p1830
sbag0
(g1
g2
(lp1831
V,
p1832
atp1833
Rp1834
(dp1835
g11
V,
p1836
sbag0
(g1
g2
(lp1837
g0
(g1
g2
(lp1838
VI
p1839
atp1840
Rp1841
(dp1842
g11
VPRP
p1843
sbatp1844
Rp1845
(dp1846
g11
VNP
p1847
sbag0
(g1
g2
(lp1848
g0
(g1
g2
(lp1849
Vguess
p1850
atp1851
Rp1852
(dp1853
g11
VVBP
p1854
sbag0
(g1
g2
(lp1855
V,
p1856
atp1857
Rp1858
(dp1859
g11
V,
p1860
sbag0
(g1
g2
(lp1861
g0
(g1
g2
(lp1862
Vhis
p1863
atp1864
Rp1865
(dp1866
g11
VPRP$
p1867
sbag0
(g1
g2
(lp1868
Vdog
p1869
atp1870
Rp1871
(dp1872
g11
VNN
p1873
sbatp1874
Rp1875
(dp1876
g11
VNP
p1877
sbag0
(g1
g2
(lp1878
g0
(g1
g2
(lp1879
Vwith
p1880
atp1881
Rp1882
(dp1883
g11
VIN
p1884
sbag0
(g1
g2
(lp1885
g0
(g1
g2
(lp1886
Vhim
p1887
atp1888
Rp1889
(dp1890
g11
VPRP
p1891
sbatp1892
Rp1893
(dp1894
g11
VNP
p1895
sbatp1896
Rp1897
(dp1898
g11
VPP
p1899
sbatp1900
Rp1901
(dp1902
g11
VVP
p1903
sbag0
(g1
g2
(lp1904
V.
p1905
atp1906
Rp1907
(dp1908
g11
V.
p1909
sbatp1910
Rp1911
(dp1912
g11
VS
p1913
sbatp1914
Rp1915
(dp1916
g11
S'id: 11'
p1917
sbag0
(g1
g2
(lp1918
g0
(g1
g2
(lp1919
g0
(g1
g2
(lp1920
g0
(g1
g2
(lp1921
g0
(g1
g2
(lp1922
VDog
p1923
atp1924
Rp1925
(dp1926
g11
VNN
p1927
sbatp1928
Rp1929
(dp1930
g11
VNP
p1931
sbag0
(g1
g2
(lp1932
g0
(g1
g2
(lp1933
Vlooks
p1934
atp1935
Rp1936
(dp1937
g11
VVBZ
p1938
sbag0
(g1
g2
(lp1939
g0
(g1
g2
(lp1940
Vvery
p1941
atp1942
Rp1943
(dp1944
g11
VRB
p1945
sbag0
(g1
g2
(lp1946
Vhappy
p1947
atp1948
Rp1949
(dp1950
g11
VJJ
p1951
sbatp1952
Rp1953
(dp1954
g11
VADJP
p1955
sbatp1956
Rp1957
(dp1958
g11
VVP
p1959
sbatp1960
Rp1961
(dp1962
g11
VS
p1963
sbag0
(g1
g2
(lp1964
V,
p1965
atp1966
Rp1967
(dp1968
g11
V,
p1969
sbag0
(g1
g2
(lp1970
g0
(g1
g2
(lp1971
g0
(g1
g2
(lp1972
Vthe
p1973
atp1974
Rp1975
(dp1976
g11
VDT
p1977
sbag0
(g1
g2
(lp1978
Vlittle
p1979
atp1980
Rp1981
(dp1982
g11
VJJ
p1983
sbag0
(g1
g2
(lp1984
Vboy
p1985
atp1986
Rp1987
(dp1988
g11
VNN
p1989
sbatp1990
Rp1991
(dp1992
g11
VNP
p1993
sbag0
(g1
g2
(lp1994
g0
(g1
g2
(lp1995
Vlooks
p1996
atp1997
Rp1998
(dp1999
g11
VVBZ
p2000
sbag0
(g1
g2
(lp2001
g0
(g1
g2
(lp2002
Vvery
p2003
atp2004
Rp2005
(dp2006
g11
VRB
p2007
sbag0
(g1
g2
(lp2008
Vhappy
p2009
atp2010
Rp2011
(dp2012
g11
VJJ
p2013
sbatp2014
Rp2015
(dp2016
g11
VADJP
p2017
sbatp2018
Rp2019
(dp2020
g11
VVP
p2021
sbatp2022
Rp2023
(dp2024
g11
VS
p2025
sbag0
(g1
g2
(lp2026
V,
p2027
atp2028
Rp2029
(dp2030
g11
V,
p2031
sbag0
(g1
g2
(lp2032
g0
(g1
g2
(lp2033
g0
(g1
g2
(lp2034
g0
(g1
g2
(lp2035
Veverybody
p2036
atp2037
Rp2038
(dp2039
g11
VNN
p2040
sbatp2041
Rp2042
(dp2043
g11
VNP
p2044
sbag0
(g1
g2
(lp2045
g0
(g1
g2
(lp2046
Vin
p2047
atp2048
Rp2049
(dp2050
g11
VIN
p2051
sbag0
(g1
g2
(lp2052
g0
(g1
g2
(lp2053
Vthe
p2054
atp2055
Rp2056
(dp2057
g11
VDT
p2058
sbag0
(g1
g2
(lp2059
Vpicture
p2060
atp2061
Rp2062
(dp2063
g11
VNN
p2064
sbatp2065
Rp2066
(dp2067
g11
VNP
p2068
sbatp2069
Rp2070
(dp2071
g11
VPP
p2072
sbatp2073
Rp2074
(dp2075
g11
VNP
p2076
sbag0
(g1
g2
(lp2077
g0
(g1
g2
(lp2078
Vlooks
p2079
atp2080
Rp2081
(dp2082
g11
VVBZ
p2083
sbag0
(g1
g2
(lp2084
g0
(g1
g2
(lp2085
Vreally
p2086
atp2087
Rp2088
(dp2089
g11
VRB
p2090
sbag0
(g1
g2
(lp2091
Vhappy
p2092
atp2093
Rp2094
(dp2095
g11
VJJ
p2096
sbatp2097
Rp2098
(dp2099
g11
VADJP
p2100
sbatp2101
Rp2102
(dp2103
g11
VVP
p2104
sbatp2105
Rp2106
(dp2107
g11
VS
p2108
sbag0
(g1
g2
(lp2109
V.
p2110
atp2111
Rp2112
(dp2113
g11
V.
p2114
sbatp2115
Rp2116
(dp2117
g11
VS
p2118
sbatp2119
Rp2120
(dp2121
g11
S'id: 12'
p2122
sbag0
(g1
g2
(lp2123
g0
(g1
g2
(lp2124
g0
(g1
g2
(lp2125
g0
(g1
g2
(lp2126
VIt
p2127
atp2128
Rp2129
(dp2130
g11
VPRP
p2131
sbatp2132
Rp2133
(dp2134
g11
VNP
p2135
sbag0
(g1
g2
(lp2136
g0
(g1
g2
(lp2137
V's
p2138
atp2139
Rp2140
(dp2141
g11
VVBZ
p2142
sbag0
(g1
g2
(lp2143
g0
(g1
g2
(lp2144
g0
(g1
g2
(lp2145
Va
p2146
atp2147
Rp2148
(dp2149
g11
VDT
p2150
sbag0
(g1
g2
(lp2151
Vnice
p2152
atp2153
Rp2154
(dp2155
g11
VJJ
p2156
sbag0
(g1
g2
(lp2157
Vdriveway
p2158
atp2159
Rp2160
(dp2161
g11
VNN
p2162
sbatp2163
Rp2164
(dp2165
g11
VNP
p2166
sbag0
(g1
g2
(lp2167
V,
p2168
atp2169
Rp2170
(dp2171
g11
V,
p2172
sbag0
(g1
g2
(lp2173
g0
(g1
g2
(lp2174
g0
(g1
g2
(lp2175
g0
(g1
g2
(lp2176
Vlooks
p2177
atp2178
Rp2179
(dp2180
g11
VVBZ
p2181
sbag0
(g1
g2
(lp2182
g0
(g1
g2
(lp2183
Vlike
p2184
atp2185
Rp2186
(dp2187
g11
VIN
p2188
sbag0
(g1
g2
(lp2189
g0
(g1
g2
(lp2190
g0
(g1
g2
(lp2191
Vit
p2192
atp2193
Rp2194
(dp2195
g11
VPRP
p2196
sbatp2197
Rp2198
(dp2199
g11
VNP
p2200
sbag0
(g1
g2
(lp2201
g0
(g1
g2
(lp2202
Vwould
p2203
atp2204
Rp2205
(dp2206
g11
VMD
p2207
sbag0
(g1
g2
(lp2208
g0
(g1
g2
(lp2209
Vbe
p2210
atp2211
Rp2212
(dp2213
g11
VVB
p2214
sbag0
(g1
g2
(lp2215
g0
(g1
g2
(lp2216
Va
p2217
atp2218
Rp2219
(dp2220
g11
VDT
p2221
sbag0
(g1
g2
(lp2222
g0
(g1
g2
(lp2223
Vreally
p2224
atp2225
Rp2226
(dp2227
g11
VRB
p2228
sbag0
(g1
g2
(lp2229
Vnice
p2230
atp2231
Rp2232
(dp2233
g11
VJJ
p2234
sbatp2235
Rp2236
(dp2237
g11
VADJP
p2238
sbag0
(g1
g2
(lp2239
Vsummer
p2240
atp2241
Rp2242
(dp2243
g11
VNN
p2244
sbag0
(g1
g2
(lp2245
Vday
p2246
atp2247
Rp2248
(dp2249
g11
VNN
p2250
sbatp2251
Rp2252
(dp2253
g11
VNP
p2254
sbatp2255
Rp2256
(dp2257
g11
VVP
p2258
sbatp2259
Rp2260
(dp2261
g11
VVP
p2262
sbatp2263
Rp2264
(dp2265
g11
VS
p2266
sbatp2267
Rp2268
(dp2269
g11
VSBAR
p2270
sbatp2271
Rp2272
(dp2273
g11
VVP
p2274
sbatp2275
Rp2276
(dp2277
g11
VS
p2278
sbatp2279
Rp2280
(dp2281
g11
VSBAR
p2282
sbatp2283
Rp2284
(dp2285
g11
VNP
p2286
sbatp2287
Rp2288
(dp2289
g11
VVP
p2290
sbag0
(g1
g2
(lp2291
V.
p2292
atp2293
Rp2294
(dp2295
g11
V.
p2296
sbatp2297
Rp2298
(dp2299
g11
VS
p2300
sbatp2301
Rp2302
(dp2303
g11
S'id: 13'
p2304
sbag0
(g1
g2
(lp2305
g0
(g1
g2
(lp2306
g0
(g1
g2
(lp2307
g0
(g1
g2
(lp2308
VThere
p2309
atp2310
Rp2311
(dp2312
g11
VEX
p2313
sbatp2314
Rp2315
(dp2316
g11
VNP
p2317
sbag0
(g1
g2
(lp2318
g0
(g1
g2
(lp2319
V's
p2320
atp2321
Rp2322
(dp2323
g11
VVBZ
p2324
sbag0
(g1
g2
(lp2325
g0
(g1
g2
(lp2326
g0
(g1
g2
(lp2327
Va
p2328
atp2329
Rp2330
(dp2331
g11
VDT
p2332
sbag0
(g1
g2
(lp2333
Vflag
p2334
atp2335
Rp2336
(dp2337
g11
VNN
p2338
sbatp2339
Rp2340
(dp2341
g11
VNP
p2342
sbag0
(g1
g2
(lp2343
g0
(g1
g2
(lp2344
Vflying
p2345
atp2346
Rp2347
(dp2348
g11
VVBG
p2349
sbag0
(g1
g2
(lp2350
g0
(g1
g2
(lp2351
Voutside
p2352
atp2353
Rp2354
(dp2355
g11
VIN
p2356
sbag0
(g1
g2
(lp2357
g0
(g1
g2
(lp2358
Vthe
p2359
atp2360
Rp2361
(dp2362
g11
VDT
p2363
sbag0
(g1
g2
(lp2364
Vhouse
p2365
atp2366
Rp2367
(dp2368
g11
VNN
p2369
sbatp2370
Rp2371
(dp2372
g11
VNP
p2373
sbatp2374
Rp2375
(dp2376
g11
VPP
p2377
sbatp2378
Rp2379
(dp2380
g11
VVP
p2381
sbatp2382
Rp2383
(dp2384
g11
VNP
p2385
sbatp2386
Rp2387
(dp2388
g11
VVP
p2389
sbag0
(g1
g2
(lp2390
V.
p2391
atp2392
Rp2393
(dp2394
g11
V.
p2395
sbatp2396
Rp2397
(dp2398
g11
VS
p2399
sbatp2400
Rp2401
(dp2402
g11
S'id: 14'
p2403
sbag0
(g1
g2
(lp2404
g0
(g1
g2
(lp2405
g0
(g1
g2
(lp2406
g0
(g1
g2
(lp2407
VNice
p2408
atp2409
Rp2410
(dp2411
g11
VJJ
p2412
sbag0
(g1
g2
(lp2413
Vshady
p2414
atp2415
Rp2416
(dp2417
g11
VJJ
p2418
sbag0
(g1
g2
(lp2419
Vtree
p2420
atp2421
Rp2422
(dp2423
g11
VNN
p2424
sbatp2425
Rp2426
(dp2427
g11
VNP
p2428
sbag0
(g1
g2
(lp2429
g0
(g1
g2
(lp2430
Vin
p2431
atp2432
Rp2433
(dp2434
g11
VIN
p2435
sbag0
(g1
g2
(lp2436
g0
(g1
g2
(lp2437
Vthe
p2438
atp2439
Rp2440
(dp2441
g11
VDT
p2442
sbag0
(g1
g2
(lp2443
Vyard
p2444
atp2445
Rp2446
(dp2447
g11
VNN
p2448
sbatp2449
Rp2450
(dp2451
g11
VNP
p2452
sbatp2453
Rp2454
(dp2455
g11
VPP
p2456
sbag0
(g1
g2
(lp2457
V.
p2458
atp2459
Rp2460
(dp2461
g11
V.
p2462
sbatp2463
Rp2464
(dp2465
g11
VNP
p2466
sbatp2467
Rp2468
(dp2469
g11
S'id: 15'
p2470
sbag0
(g1
g2
(lp2471
g0
(g1
g2
(lp2472
g0
(g1
g2
(lp2473
VAnd
p2474
atp2475
Rp2476
(dp2477
g11
VCC
p2478
sbag0
(g1
g2
(lp2479
g0
(g1
g2
(lp2480
Vthe
p2481
atp2482
Rp2483
(dp2484
g11
VDT
p2485
sbag0
(g1
g2
(lp2486
Vman
p2487
atp2488
Rp2489
(dp2490
g11
VNN
p2491
sbatp2492
Rp2493
(dp2494
g11
VNP
p2495
sbag0
(g1
g2
(lp2496
g0
(g1
g2
(lp2497
Vhas
p2498
atp2499
Rp2500
(dp2501
g11
VVBZ
p2502
sbag0
(g1
g2
(lp2503
g0
(g1
g2
(lp2504
Vhis
p2505
atp2506
Rp2507
(dp2508
g11
VPRP$
p2509
sbag0
(g1
g2
(lp2510
Vshoes
p2511
atp2512
Rp2513
(dp2514
g11
VNNS
p2515
sbatp2516
Rp2517
(dp2518
g11
VNP
p2519
sbag0
(g1
g2
(lp2520
g0
(g1
g2
(lp2521
Voff
p2522
atp2523
Rp2524
(dp2525
g11
VRP
p2526
sbatp2527
Rp2528
(dp2529
g11
VPP
p2530
sbatp2531
Rp2532
(dp2533
g11
VVP
p2534
sbag0
(g1
g2
(lp2535
V.
p2536
atp2537
Rp2538
(dp2539
g11
V.
p2540
sbatp2541
Rp2542
(dp2543
g11
VS
p2544
sbatp2545
Rp2546
(dp2547
g11
S'id: 16'
p2548
sbatp2549
Rp2550
(dp2551
g11
S'sentences'
p2552
sb.