ccopy_reg
_reconstructor
p0
(cnltk.tree
Tree
p1
c__builtin__
list
p2
(lp3
g0
(g1
g2
(lp4
g0
(g1
g2
(lp5
g0
(g1
g2
(lp6
g0
(g1
g2
(lp7
g0
(g1
g2
(lp8
(lp9
S'word: l, index: 17'
p10
aatp11
Rp12
(dp13
S'_label'
p14
Vtmod
p15
sbag0
(g1
g2
(lp16
(lp17
S'word: a., index: 14'
p18
aatp19
Rp20
(dp21
g14
Vnn
p22
sbag0
(g1
g2
(lp23
(lp24
S'word: la, index: 15'
p25
aatp26
Rp27
(dp28
g14
Vnn
p29
sbatp30
Rp31
(dp32
g14
S'word: l, index: 16'
p33
sbatp34
Rp35
(dp36
g14
Vdep
p37
sbag0
(g1
g2
(lp38
(lp39
S'word: cat, index: 1'
p40
aatp41
Rp42
(dp43
g14
Vnn
p44
sbag0
(g1
g2
(lp45
(lp46
S'word: k, index: 2'
p47
aatp48
Rp49
(dp50
g14
Vnn
p51
sbag0
(g1
g2
(lp52
g0
(g1
g2
(lp53
g0
(g1
g2
(lp54
(lp55
S'word: la, index: 18'
p56
aatp57
Rp58
(dp59
g14
Vnn
p60
sbag0
(g1
g2
(lp61
(lp62
S'word: la, index: 19'
p63
aatp64
Rp65
(dp66
g14
Vnn
p67
sbag0
(g1
g2
(lp68
g0
(g1
g2
(lp69
g0
(g1
g2
(lp70
(lp71
S'word: riven, index: 21'
p72
aatp73
Rp74
(dp75
g14
Vamod
p76
sbag0
(g1
g2
(lp77
(lp78
S'word: raladen, index: 22'
p79
aatp80
Rp81
(dp82
g14
Vnn
p83
sbatp84
Rp85
(dp86
g14
S'word: ravern, index: 23'
p87
sbatp88
Rp89
(dp90
g14
Vdep
p91
sbatp92
Rp93
(dp94
g14
S'word: la, index: 20'
p95
sbatp96
Rp97
(dp98
g14
Vdep
p99
sbag0
(g1
g2
(lp100
g0
(g1
g2
(lp101
g0
(g1
g2
(lp102
(lp103
S'word: k, index: 4'
p104
aatp105
Rp106
(dp107
g14
Vnn
p108
sbag0
(g1
g2
(lp109
(lp110
S'word: k, index: 5'
p111
aatp112
Rp113
(dp114
g14
Vnn
p115
sbag0
(g1
g2
(lp116
g0
(g1
g2
(lp117
g0
(g1
g2
(lp118
(lp119
S'word: ko, index: 7'
p120
aatp121
Rp122
(dp123
g14
Vnn
p124
sbag0
(g1
g2
(lp125
(lp126
S'word: ko, index: 8'
p127
aatp128
Rp129
(dp130
g14
Vnn
p131
sbag0
(g1
g2
(lp132
(lp133
S'word: cookie, index: 9'
p134
aatp135
Rp136
(dp137
g14
Vnn
p138
sbag0
(g1
g2
(lp139
(lp140
S'word: tan, index: 10'
p141
aatp142
Rp143
(dp144
g14
Vnn
p145
sbag0
(g1
g2
(lp146
g0
(g1
g2
(lp147
g0
(g1
g2
(lp148
(lp149
S'word: couner, index: 12'
p150
aatp151
Rp152
(dp153
g14
Vnpadvmod
p154
sbatp155
Rp156
(dp157
g14
S'word: counter, index: 13'
p158
sbatp159
Rp160
(dp161
g14
Vadvmod
p162
sbatp163
Rp164
(dp165
g14
S'word: couner, index: 11'
p166
sbatp167
Rp168
(dp169
g14
Vtmod
p170
sbatp171
Rp172
(dp173
g14
S'word: ko, index: 6'
p174
sbatp175
Rp176
(dp177
g14
Vdep
p178
sbatp179
Rp180
(dp181
g14
S'word: k, index: 3'
p182
sbatp183
Rp184
(dp185
g14
S'id: 0'
p186
sbag0
(g1
g2
(lp187
g0
(g1
g2
(lp188
g0
(g1
g2
(lp189
g0
(g1
g2
(lp190
g0
(g1
g2
(lp191
(lp192
S'word: horse, index: 3'
p193
aatp194
Rp195
(dp196
g14
Vnn
p197
sbatp198
Rp199
(dp200
g14
S'word: horse, index: 4'
p201
sbatp202
Rp203
(dp204
g14
Vdep
p205
sbag0
(g1
g2
(lp206
(lp207
S'word: woarse, index: 1'
p208
aatp209
Rp210
(dp211
g14
Vamod
p212
sbatp213
Rp214
(dp215
g14
S'word: horse, index: 2'
p216
sbatp217
Rp218
(dp219
g14
S'id: 1'
p220
sbag0
(g1
g2
(lp221
g0
(g1
g2
(lp222
g0
(g1
g2
(lp223
g0
(g1
g2
(lp224
g0
(g1
g2
(lp225
(lp226
S'word: mum, index: 8'
p227
aatp228
Rp229
(dp230
g14
Vnn
p231
sbatp232
Rp233
(dp234
g14
S'word: mum, index: 9'
p235
sbatp236
Rp237
(dp238
g14
Vconj
p239
sbag0
(g1
g2
(lp240
g0
(g1
g2
(lp241
g0
(g1
g2
(lp242
g0
(g1
g2
(lp243
g0
(g1
g2
(lp244
(lp245
S'word: and, index: 15'
p246
aatp247
Rp248
(dp249
g14
Vcc
p250
sbatp251
Rp252
(dp253
g14
S'word: two, index: 16'
p254
sbatp255
Rp256
(dp257
g14
Vconj
p258
sbag0
(g1
g2
(lp259
(lp260
S'word: the, index: 17'
p261
aatp262
Rp263
(dp264
g14
Vdep
p265
sbatp266
Rp267
(dp268
g14
S'word: dad, index: 12'
p269
sbatp270
Rp271
(dp272
g14
Vconj
p273
sbag0
(g1
g2
(lp274
g252
atp275
Rp276
(dp277
g14
Vconj
p278
sbag0
(g1
g2
(lp279
(lp280
S'word: tilren, index: 2'
p281
aatp282
Rp283
(dp284
g14
Vamod
p285
sbag0
(g1
g2
(lp286
(lp287
S'word: tilren, index: 3'
p288
aatp289
Rp290
(dp291
g14
Vnn
p292
sbag0
(g1
g2
(lp293
(lp294
S'word: t, index: 4'
p295
aatp296
Rp297
(dp298
g14
Vnn
p299
sbag0
(g1
g2
(lp300
(lp301
S'word: t, index: 5'
p302
aatp303
Rp304
(dp305
g14
Vnn
p306
sbatp307
Rp308
(dp309
g14
S'word: trilen, index: 6'
p310
sbatp311
Rp312
(dp313
g14
S'id: 2'
p314
sbag0
(g1
g2
(lp315
g0
(g1
g2
(lp316
g0
(g1
g2
(lp317
(lp318
S'word: it, index: 1'
p319
aatp320
Rp321
(dp322
g14
Vnsubj
p323
sbag0
(g1
g2
(lp324
(lp325
S'word: and, index: 3'
p326
aatp327
Rp328
(dp329
g14
Vadvmod
p330
sbatp331
Rp332
(dp333
g14
S'word: gone, index: 2'
p334
sbatp335
Rp336
(dp337
g14
S'id: 3'
p338
sbag0
(g1
g2
(lp339
g0
(g1
g2
(lp340
g0
(g1
g2
(lp341
g0
(g1
g2
(lp342
g0
(g1
g2
(lp343
(lp344
S'word: and, index: 1'
p345
aatp346
Rp347
(dp348
g14
Vcc
p349
sbag0
(g1
g2
(lp350
(lp351
S'word: w, index: 2'
p352
aatp353
Rp354
(dp355
g14
Vnn
p356
sbag0
(g1
g2
(lp357
(lp358
S'word: w, index: 3'
p359
aatp360
Rp361
(dp362
g14
Vnn
p363
sbag0
(g1
g2
(lp364
(lp365
S'word: w, index: 4'
p366
aatp367
Rp368
(dp369
g14
Vnn
p370
sbag0
(g1
g2
(lp371
(lp372
S'word: w, index: 5'
p373
aatp374
Rp375
(dp376
g14
Vnn
p377
sbag0
(g1
g2
(lp378
g0
(g1
g2
(lp379
g0
(g1
g2
(lp380
g0
(g1
g2
(lp381
g0
(g1
g2
(lp382
(lp383
S'word: wa, index: 8'
p384
aatp385
Rp386
(dp387
g14
Vnn
p388
sbatp389
Rp390
(dp391
g14
S'word: wa, index: 9'
p392
sbatp393
Rp394
(dp395
g14
Vdobj
p396
sbatp397
Rp398
(dp399
g14
S'word: walk, index: 7'
p400
sbatp401
Rp402
(dp403
g14
Vdep
p404
sbatp405
Rp406
(dp407
g14
S'word: w, index: 6'
p408
sbatp409
Rp410
(dp411
g14
Vnsubj
p412
sbatp413
Rp414
(dp415
g14
S'word: walk, index: 10'
p416
sbatp417
Rp418
(dp419
g14
S'id: 4'
p420
sbag0
(g1
g2
(lp421
g0
(g1
g2
(lp422
g0
(g1
g2
(lp423
(lp424
S'word: the, index: 34'
p425
aatp426
Rp427
(dp428
g14
Vdep
p429
sbag0
(g1
g2
(lp430
(lp431
S'word: a, index: 35'
p432
aatp433
Rp434
(dp435
g14
Vdet
p436
sbag0
(g1
g2
(lp437
g0
(g1
g2
(lp438
g0
(g1
g2
(lp439
g0
(g1
g2
(lp440
g0
(g1
g2
(lp441
(lp442
S'word: it, index: 38'
p443
aatp444
Rp445
(dp446
g14
Vnsubjpass
p447
sbag0
(g1
g2
(lp448
(lp449
S"word: 's, index: 39"
p450
aatp451
Rp452
(dp453
g14
Vauxpass
p454
sbag0
(g1
g2
(lp455
g0
(g1
g2
(lp456
g0
(g1
g2
(lp457
(lp458
S'word: girl, index: 41'
p459
aatp460
Rp461
(dp462
g14
Vnn
p463
sbatp464
Rp465
(dp466
g14
S'word: girl, index: 42'
p467
sbatp468
Rp469
(dp470
g14
Vdobj
p471
sbatp472
Rp473
(dp474
g14
S'word: gone, index: 40'
p475
sbatp476
Rp477
(dp478
g14
Vccomp
p479
sbatp480
Rp481
(dp482
g14
S'word: gone, index: 37'
p483
sbatp484
Rp485
(dp486
g14
Vvmod
p487
sbag0
(g1
g2
(lp488
g0
(g1
g2
(lp489
g0
(g1
g2
(lp490
g0
(g1
g2
(lp491
g0
(g1
g2
(lp492
(lp493
S'word: the, index: 31'
p494
aatp495
Rp496
(dp497
g14
Vdep
p498
sbatp499
Rp500
(dp501
g14
S'word: a, index: 32'
p502
sbatp503
Rp504
(dp505
g14
Vappos
p506
sbag0
(g1
g2
(lp507
g0
(g1
g2
(lp508
g0
(g1
g2
(lp509
(lp510
S'word: dan, index: 1'
p511
aatp512
Rp513
(dp514
g14
Vamod
p515
sbag0
(g1
g2
(lp516
(lp517
S'word: ma, index: 2'
p518
aatp519
Rp520
(dp521
g14
Vnn
p522
sbag0
(g1
g2
(lp523
g0
(g1
g2
(lp524
g0
(g1
g2
(lp525
(lp526
S'word: a, index: 18'
p527
aatp528
Rp529
(dp530
g14
Vpredet
p531
sbag0
(g1
g2
(lp532
(lp533
S'word: a, index: 19'
p534
aatp535
Rp536
(dp537
g14
Vdet
p538
sbag0
(g1
g2
(lp539
g0
(g1
g2
(lp540
g0
(g1
g2
(lp541
(lp542
S'word: girl, index: 21'
p543
aatp544
Rp545
(dp546
g14
Vnn
p547
sbatp548
Rp549
(dp550
g14
S'word: girl, index: 22'
p551
sbatp552
Rp553
(dp554
g14
Vdep
p555
sbatp556
Rp557
(dp558
g14
S'word: g, index: 20'
p559
sbatp560
Rp561
(dp562
g14
Vconj
p563
sbag0
(g1
g2
(lp564
g0
(g1
g2
(lp565
g0
(g1
g2
(lp566
(lp567
S'word: a, index: 4'
p568
aatp569
Rp570
(dp571
g14
Vdet
p572
sbatp573
Rp574
(dp575
g14
S'word: man, index: 5'
p576
sbatp577
Rp578
(dp579
g14
Vdep
p580
sbag0
(g1
g2
(lp581
g0
(g1
g2
(lp582
g0
(g1
g2
(lp583
g0
(g1
g2
(lp584
g0
(g1
g2
(lp585
(lp586
S'word: a, index: 12'
p587
aatp588
Rp589
(dp590
g14
Vdet
p591
sbag0
(g1
g2
(lp592
(lp593
S'word: k, index: 13'
p594
aatp595
Rp596
(dp597
g14
Vnn
p598
sbag0
(g1
g2
(lp599
(lp600
S'word: cane, index: 14'
p601
aatp602
Rp603
(dp604
g14
Vnn
p605
sbatp606
Rp607
(dp608
g14
S'word: walking, index: 15'
p609
sbatp610
Rp611
(dp612
g14
Vdep
p613
sbag0
(g1
g2
(lp614
g557
atp615
Rp616
(dp617
g14
Vconj
p618
sbag0
(g1
g2
(lp619
(lp620
S'word: a, index: 7'
p621
aatp622
Rp623
(dp624
g14
Vdet
p625
sbag0
(g1
g2
(lp626
(lp627
S'word: way, index: 8'
p628
aatp629
Rp630
(dp631
g14
Vnn
p632
sbag0
(g1
g2
(lp633
(lp634
S'word: wa, index: 9'
p635
aatp636
Rp637
(dp638
g14
Vnn
p639
sbag0
(g1
g2
(lp640
(lp641
S'word: k, index: 10'
p642
aatp643
Rp644
(dp645
g14
Vnn
p646
sbatp647
Rp648
(dp649
g14
S'word: cane, index: 11'
p650
sbatp651
Rp652
(dp653
g14
Vconj
p654
sbatp655
Rp656
(dp657
g14
S'word: man, index: 3'
p658
sbatp659
Rp660
(dp661
g14
Vdep
p662
sbag0
(g1
g2
(lp663
g0
(g1
g2
(lp664
g0
(g1
g2
(lp665
(lp666
S'word: girl, index: 23'
p667
aatp668
Rp669
(dp670
g14
Vnn
p671
sbatp672
Rp673
(dp674
g14
S'word: girl, index: 24'
p675
sbatp676
Rp677
(dp678
g14
Vdep
p679
sbag0
(g1
g2
(lp680
(lp681
S'word: the, index: 25'
p682
aatp683
Rp684
(dp685
g14
Vdep
p686
sbag0
(g1
g2
(lp687
g648
atp688
Rp689
(dp690
g14
Vdep
p691
sbag0
(g1
g2
(lp692
g0
(g1
g2
(lp693
g0
(g1
g2
(lp694
(lp695
S'word: the, index: 28'
p696
aatp697
Rp698
(dp699
g14
Vdep
p700
sbatp701
Rp702
(dp703
g14
S'word: a, index: 29'
p704
sbatp705
Rp706
(dp707
g14
Vappos
p708
sbatp709
Rp710
(dp711
g14
S'word: a, index: 26'
p712
sbatp713
Rp714
(dp715
g14
Vdep
p716
sbatp717
Rp718
(dp719
g14
S'word: gos, index: 36'
p720
sbatp721
Rp722
(dp723
g14
S'id: 5'
p724
sbag0
(g1
g2
(lp725
g0
(g1
g2
(lp726
g0
(g1
g2
(lp727
g0
(g1
g2
(lp728
g0
(g1
g2
(lp729
g0
(g1
g2
(lp730
g0
(g1
g2
(lp731
(lp732
S'word: the, index: 4'
p733
aatp734
Rp735
(dp736
g14
Vdep
p737
sbatp738
Rp739
(dp740
g14
S'word: the, index: 2'
p741
sbatp742
Rp743
(dp744
g14
Vnsubj
p745
sbag0
(g1
g2
(lp746
(lp747
S'word: and, index: 1'
p748
aatp749
Rp750
(dp751
g14
Vcc
p752
sbatp753
Rp754
(dp755
g14
S'word: gone, index: 5'
p756
sbatp757
Rp758
(dp759
g14
Vccomp
p760
sbag0
(g1
g2
(lp761
(lp762
S'word: it, index: 7'
p763
aatp764
Rp765
(dp766
g14
Vnsubjpass
p767
sbag0
(g1
g2
(lp768
(lp769
S"word: 's, index: 8"
p770
aatp771
Rp772
(dp773
g14
Vauxpass
p774
sbatp775
Rp776
(dp777
g14
S'word: gone, index: 9'
p778
sbatp779
Rp780
(dp781
g14
S'id: 6'
p782
sbag0
(g1
g2
(lp783
g0
(g1
g2
(lp784
g0
(g1
g2
(lp785
(lp786
S'word: what, index: 5'
p787
aatp788
Rp789
(dp790
g14
Vdobj
p791
sbag0
(g1
g2
(lp792
(lp793
S"word: 's, index: 6"
p794
aatp795
Rp796
(dp797
g14
Vauxpass
p798
sbag0
(g1
g2
(lp799
(lp800
S'word: it, index: 7'
p801
aatp802
Rp803
(dp804
g14
Vnsubjpass
p805
sbag0
(g1
g2
(lp806
g0
(g1
g2
(lp807
g0
(g1
g2
(lp808
(lp809
S'word: what, index: 1'
p810
aatp811
Rp812
(dp813
g14
Vnsubj
p814
sbag0
(g1
g2
(lp815
(lp816
S"word: 's, index: 2"
p817
aatp818
Rp819
(dp820
g14
Vcop
p821
sbatp822
Rp823
(dp824
g14
S'word: it, index: 3'
p825
sbatp826
Rp827
(dp828
g14
Vdep
p829
sbatp830
Rp831
(dp832
g14
S'word: called, index: 8'
p833
sbatp834
Rp835
(dp836
g14
S'id: 7'
p837
sbatp838
Rp839
(dp840
g14
S'sentences'
p841
sb.