ccopy_reg
_reconstructor
p0
(cnltk.tree
Tree
p1
c__builtin__
list
p2
(lp3
g0
(g1
g2
(lp4
g0
(g1
g2
(lp5
g0
(g1
g2
(lp6
g0
(g1
g2
(lp7
g0
(g1
g2
(lp8
VOk
p9
atp10
Rp11
(dp12
S'_label'
p13
VNN
p14
sbatp15
Rp16
(dp17
g13
VNP
p18
sbag0
(g1
g2
(lp19
g0
(g1
g2
(lp20
g0
(g1
g2
(lp21
g0
(g1
g2
(lp22
Vthis
p23
atp24
Rp25
(dp26
g13
VDT
p27
sbag0
(g1
g2
(lp28
Vwoman
p29
atp30
Rp31
(dp32
g13
VNN
p33
sbatp34
Rp35
(dp36
g13
VNP
p37
sbag0
(g1
g2
(lp38
g0
(g1
g2
(lp39
Vis
p40
atp41
Rp42
(dp43
g13
VVBZ
p44
sbag0
(g1
g2
(lp45
g0
(g1
g2
(lp46
Vwashing
p47
atp48
Rp49
(dp50
g13
VVBG
p51
sbag0
(g1
g2
(lp52
g0
(g1
g2
(lp53
Vdishes
p54
atp55
Rp56
(dp57
g13
VNNS
p58
sbatp59
Rp60
(dp61
g13
VNP
p62
sbatp63
Rp64
(dp65
g13
VVP
p66
sbatp67
Rp68
(dp69
g13
VVP
p70
sbatp71
Rp72
(dp73
g13
VS
p74
sbatp75
Rp76
(dp77
g13
VSBAR
p78
sbatp79
Rp80
(dp81
g13
VNP-TMP
p82
sbag0
(g1
g2
(lp83
V,
p84
atp85
Rp86
(dp87
g13
V,
p88
sbag0
(g1
g2
(lp89
g0
(g1
g2
(lp90
g0
(g1
g2
(lp91
Vthe
p92
atp93
Rp94
(dp95
g13
VDT
p96
sbag0
(g1
g2
(lp97
Vsink
p98
atp99
Rp100
(dp101
g13
VNN
p102
sbatp103
Rp104
(dp105
g13
VNP
p106
sbag0
(g1
g2
(lp107
g0
(g1
g2
(lp108
Vis
p109
atp110
Rp111
(dp112
g13
VVBZ
p113
sbag0
(g1
g2
(lp114
g0
(g1
g2
(lp115
Voverflowing
p116
atp117
Rp118
(dp119
g13
VVBG
p120
sbatp121
Rp122
(dp123
g13
VVP
p124
sbatp125
Rp126
(dp127
g13
VVP
p128
sbatp129
Rp130
(dp131
g13
VS
p132
sbag0
(g1
g2
(lp133
V,
p134
atp135
Rp136
(dp137
g13
V,
p138
sbag0
(g1
g2
(lp139
Vand
p140
atp141
Rp142
(dp143
g13
VCC
p144
sbag0
(g1
g2
(lp145
g0
(g1
g2
(lp146
g0
(g1
g2
(lp147
Vshe
p148
atp149
Rp150
(dp151
g13
VPRP
p152
sbatp153
Rp154
(dp155
g13
VNP
p156
sbag0
(g1
g2
(lp157
g0
(g1
g2
(lp158
V's
p159
atp160
Rp161
(dp162
g13
VVBZ
p163
sbag0
(g1
g2
(lp164
g0
(g1
g2
(lp165
g0
(g1
g2
(lp166
Vwashing
p167
atp168
Rp169
(dp170
g13
VVBG
p171
sbag0
(g1
g2
(lp172
g0
(g1
g2
(lp173
Va
p174
atp175
Rp176
(dp177
g13
VDT
p178
sbag0
(g1
g2
(lp179
Vplate
p180
atp181
Rp182
(dp183
g13
VNN
p184
sbatp185
Rp186
(dp187
g13
VNP
p188
sbatp189
Rp190
(dp191
g13
VVP
p192
sbag0
(g1
g2
(lp193
V,
p194
atp195
Rp196
(dp197
g13
V,
p198
sbag0
(g1
g2
(lp199
g0
(g1
g2
(lp200
Vlooking
p201
atp202
Rp203
(dp204
g13
VVBG
p205
sbag0
(g1
g2
(lp206
g0
(g1
g2
(lp207
Voutside
p208
atp209
Rp210
(dp211
g13
VRB
p212
sbatp213
Rp214
(dp215
g13
VADVP
p216
sbag0
(g1
g2
(lp217
V,
p218
atp219
Rp220
(dp221
g13
V,
p222
sbag0
(g1
g2
(lp223
g0
(g1
g2
(lp224
Voutside
p225
atp226
Rp227
(dp228
g13
VIN
p229
sbag0
(g1
g2
(lp230
g0
(g1
g2
(lp231
Vof
p232
atp233
Rp234
(dp235
g13
VIN
p236
sbag0
(g1
g2
(lp237
g0
(g1
g2
(lp238
Vthe
p239
atp240
Rp241
(dp242
g13
VDT
p243
sbag0
(g1
g2
(lp244
Vwindow
p245
atp246
Rp247
(dp248
g13
VNN
p249
sbatp250
Rp251
(dp252
g13
VNP
p253
sbatp254
Rp255
(dp256
g13
VPP
p257
sbatp258
Rp259
(dp260
g13
VPP
p261
sbatp262
Rp263
(dp264
g13
VVP
p265
sbag0
(g1
g2
(lp266
V,
p267
atp268
Rp269
(dp270
g13
V,
p271
sbag0
(g1
g2
(lp272
g0
(g1
g2
(lp273
Vwatching
p274
atp275
Rp276
(dp277
g13
VVBG
p278
sbag0
(g1
g2
(lp279
g0
(g1
g2
(lp280
Vthe
p281
atp282
Rp283
(dp284
g13
VDT
p285
sbag0
(g1
g2
(lp286
Vleaves
p287
atp288
Rp289
(dp290
g13
VNNS
p291
sbatp292
Rp293
(dp294
g13
VNP
p295
sbatp296
Rp297
(dp298
g13
VVP
p299
sbatp300
Rp301
(dp302
g13
VVP
p303
sbatp304
Rp305
(dp306
g13
VVP
p307
sbatp308
Rp309
(dp310
g13
VS
p311
sbag0
(g1
g2
(lp312
V.
p313
atp314
Rp315
(dp316
g13
V.
p317
sbatp318
Rp319
(dp320
g13
VS
p321
sbatp322
Rp323
(dp324
g13
S'id: 0'
p325
sbag0
(g1
g2
(lp326
g0
(g1
g2
(lp327
g0
(g1
g2
(lp328
g0
(g1
g2
(lp329
VBeside
p330
atp331
Rp332
(dp333
g13
VIN
p334
sbag0
(g1
g2
(lp335
g0
(g1
g2
(lp336
Vher
p337
atp338
Rp339
(dp340
g13
VPRP$
p341
sbatp342
Rp343
(dp344
g13
VNP
p345
sbatp346
Rp347
(dp348
g13
VPP
p349
sbag0
(g1
g2
(lp350
g0
(g1
g2
(lp351
Vis
p352
atp353
Rp354
(dp355
g13
VVBZ
p356
sbatp357
Rp358
(dp359
g13
VVP
p360
sbag0
(g1
g2
(lp361
g0
(g1
g2
(lp362
g0
(g1
g2
(lp363
Va
p364
atp365
Rp366
(dp367
g13
VDT
p368
sbag0
(g1
g2
(lp369
Vpicture
p370
atp371
Rp372
(dp373
g13
VNN
p374
sbatp375
Rp376
(dp377
g13
VNP
p378
sbag0
(g1
g2
(lp379
g0
(g1
g2
(lp380
Vof
p381
atp382
Rp383
(dp384
g13
VIN
p385
sbag0
(g1
g2
(lp386
g0
(g1
g2
(lp387
Va
p388
atp389
Rp390
(dp391
g13
VDT
p392
sbag0
(g1
g2
(lp393
Vboy
p394
atp395
Rp396
(dp397
g13
VNN
p398
sbag0
(g1
g2
(lp399
Vand
p400
atp401
Rp402
(dp403
g13
VCC
p404
sbag0
(g1
g2
(lp405
Vgirl
p406
atp407
Rp408
(dp409
g13
VNN
p410
sbatp411
Rp412
(dp413
g13
VNP
p414
sbatp415
Rp416
(dp417
g13
VPP
p418
sbatp419
Rp420
(dp421
g13
VNP
p422
sbag0
(g1
g2
(lp423
V.
p424
atp425
Rp426
(dp427
g13
V.
p428
sbatp429
Rp430
(dp431
g13
VSINV
p432
sbatp433
Rp434
(dp435
g13
S'id: 1'
p436
sbag0
(g1
g2
(lp437
g0
(g1
g2
(lp438
g0
(g1
g2
(lp439
g0
(g1
g2
(lp440
g0
(g1
g2
(lp441
g0
(g1
g2
(lp442
VThe
p443
atp444
Rp445
(dp446
g13
VDT
p447
sbag0
(g1
g2
(lp448
Vboy
p449
atp450
Rp451
(dp452
g13
VNN
p453
sbatp454
Rp455
(dp456
g13
VNP
p457
sbag0
(g1
g2
(lp458
g0
(g1
g2
(lp459
Vis
p460
atp461
Rp462
(dp463
g13
VVBZ
p464
sbag0
(g1
g2
(lp465
V,
p466
atp467
Rp468
(dp469
g13
V,
p470
sbag0
(g1
g2
(lp471
g0
(g1
g2
(lp472
Vis
p473
atp474
Rp475
(dp476
g13
VVBZ
p477
sbag0
(g1
g2
(lp478
g0
(g1
g2
(lp479
Von
p480
atp481
Rp482
(dp483
g13
VIN
p484
sbag0
(g1
g2
(lp485
g0
(g1
g2
(lp486
Va
p487
atp488
Rp489
(dp490
g13
VDT
p491
sbag0
(g1
g2
(lp492
Vchair
p493
atp494
Rp495
(dp496
g13
VNN
p497
sbatp498
Rp499
(dp500
g13
VNP
p501
sbatp502
Rp503
(dp504
g13
VPP
p505
sbatp506
Rp507
(dp508
g13
VSQ
p509
sbatp510
Rp511
(dp512
g13
VVP
p513
sbatp514
Rp515
(dp516
g13
VS
p517
sbag0
(g1
g2
(lp518
V,
p519
atp520
Rp521
(dp522
g13
V,
p523
sbag0
(g1
g2
(lp524
Vand
p525
atp526
Rp527
(dp528
g13
VCC
p529
sbag0
(g1
g2
(lp530
g0
(g1
g2
(lp531
g0
(g1
g2
(lp532
g0
(g1
g2
(lp533
Vhe
p534
atp535
Rp536
(dp537
g13
VPRP
p538
sbatp539
Rp540
(dp541
g13
VNP
p542
sbag0
(g1
g2
(lp543
g0
(g1
g2
(lp544
V's
p545
atp546
Rp547
(dp548
g13
VVBZ
p549
sbag0
(g1
g2
(lp550
g0
(g1
g2
(lp551
Vtrying
p552
atp553
Rp554
(dp555
g13
VVBG
p556
sbag0
(g1
g2
(lp557
g0
(g1
g2
(lp558
g0
(g1
g2
(lp559
Vto
p560
atp561
Rp562
(dp563
g13
VTO
p564
sbag0
(g1
g2
(lp565
g0
(g1
g2
(lp566
Vget
p567
atp568
Rp569
(dp570
g13
VVB
p571
sbag0
(g1
g2
(lp572
V,
p573
atp574
Rp575
(dp576
g13
V,
p577
sbag0
(g1
g2
(lp578
g0
(g1
g2
(lp579
Vthe
p580
atp581
Rp582
(dp583
g13
VDT
p584
sbag0
(g1
g2
(lp585
Vsome
p586
atp587
Rp588
(dp589
g13
VDT
p590
sbag0
(g1
g2
(lp591
Vcookies
p592
atp593
Rp594
(dp595
g13
VNNS
p596
sbatp597
Rp598
(dp599
g13
VNP
p600
sbag0
(g1
g2
(lp601
g0
(g1
g2
(lp602
Vout
p603
atp604
Rp605
(dp606
g13
VIN
p607
sbag0
(g1
g2
(lp608
g0
(g1
g2
(lp609
Vof
p610
atp611
Rp612
(dp613
g13
VIN
p614
sbag0
(g1
g2
(lp615
g0
(g1
g2
(lp616
Vthe
p617
atp618
Rp619
(dp620
g13
VDT
p621
sbag0
(g1
g2
(lp622
Vcookie
p623
atp624
Rp625
(dp626
g13
VNN
p627
sbag0
(g1
g2
(lp628
Vjar
p629
atp630
Rp631
(dp632
g13
VNN
p633
sbatp634
Rp635
(dp636
g13
VNP
p637
sbatp638
Rp639
(dp640
g13
VPP
p641
sbatp642
Rp643
(dp644
g13
VADVP
p645
sbatp646
Rp647
(dp648
g13
VVP
p649
sbatp650
Rp651
(dp652
g13
VVP
p653
sbatp654
Rp655
(dp656
g13
VS
p657
sbatp658
Rp659
(dp660
g13
VVP
p661
sbatp662
Rp663
(dp664
g13
VVP
p665
sbatp666
Rp667
(dp668
g13
VS
p669
sbag0
(g1
g2
(lp670
V,
p671
atp672
Rp673
(dp674
g13
V,
p675
sbag0
(g1
g2
(lp676
Vand
p677
atp678
Rp679
(dp680
g13
VCC
p681
sbag0
(g1
g2
(lp682
g0
(g1
g2
(lp683
g0
(g1
g2
(lp684
Vthe
p685
atp686
Rp687
(dp688
g13
VDT
p689
sbag0
(g1
g2
(lp690
Vboy
p691
atp692
Rp693
(dp694
g13
VNN
p695
sbatp696
Rp697
(dp698
g13
VNP
p699
sbag0
(g1
g2
(lp700
g0
(g1
g2
(lp701
Vis
p702
atp703
Rp704
(dp705
g13
VVBZ
p706
sbag0
(g1
g2
(lp707
g0
(g1
g2
(lp708
Vis
p709
atp710
Rp711
(dp712
g13
VVBZ
p713
sbag0
(g1
g2
(lp714
g0
(g1
g2
(lp715
Vfalling
p716
atp717
Rp718
(dp719
g13
VVBG
p720
sbatp721
Rp722
(dp723
g13
VVP
p724
sbatp725
Rp726
(dp727
g13
VVP
p728
sbatp729
Rp730
(dp731
g13
VVP
p732
sbatp733
Rp734
(dp735
g13
VS
p736
sbatp737
Rp738
(dp739
g13
VS
p740
sbatp741
Rp742
(dp743
g13
VS
p744
sbag0
(g1
g2
(lp745
V,
p746
atp747
Rp748
(dp749
g13
V,
p750
sbag0
(g1
g2
(lp751
g0
(g1
g2
(lp752
Vhe
p753
atp754
Rp755
(dp756
g13
VPRP
p757
sbatp758
Rp759
(dp760
g13
VNP
p761
sbag0
(g1
g2
(lp762
g0
(g1
g2
(lp763
V's
p764
atp765
Rp766
(dp767
g13
VVBZ
p768
sbag0
(g1
g2
(lp769
g0
(g1
g2
(lp770
Vgetting
p771
atp772
Rp773
(dp774
g13
VVBG
p775
sbag0
(g1
g2
(lp776
g0
(g1
g2
(lp777
Vready
p778
atp779
Rp780
(dp781
g13
VJJ
p782
sbag0
(g1
g2
(lp783
g0
(g1
g2
(lp784
g0
(g1
g2
(lp785
Vto
p786
atp787
Rp788
(dp789
g13
VTO
p790
sbag0
(g1
g2
(lp791
g0
(g1
g2
(lp792
Vfall
p793
atp794
Rp795
(dp796
g13
VVB
p797
sbatp798
Rp799
(dp800
g13
VVP
p801
sbatp802
Rp803
(dp804
g13
VVP
p805
sbatp806
Rp807
(dp808
g13
VS
p809
sbatp810
Rp811
(dp812
g13
VADJP
p813
sbatp814
Rp815
(dp816
g13
VVP
p817
sbatp818
Rp819
(dp820
g13
VVP
p821
sbag0
(g1
g2
(lp822
V.
p823
atp824
Rp825
(dp826
g13
V.
p827
sbatp828
Rp829
(dp830
g13
VS
p831
sbatp832
Rp833
(dp834
g13
S'id: 2'
p835
sbag0
(g1
g2
(lp836
g0
(g1
g2
(lp837
g0
(g1
g2
(lp838
VAnd
p839
atp840
Rp841
(dp842
g13
VCC
p843
sbag0
(g1
g2
(lp844
V,
p845
atp846
Rp847
(dp848
g13
V,
p849
sbag0
(g1
g2
(lp850
g0
(g1
g2
(lp851
g0
(g1
g2
(lp852
Vwhat
p853
atp854
Rp855
(dp856
g13
VWP
p857
sbatp858
Rp859
(dp860
g13
VNP
p861
sbag0
(g1
g2
(lp862
g0
(g1
g2
(lp863
Velse
p864
atp865
Rp866
(dp867
g13
VRB
p868
sbatp869
Rp870
(dp871
g13
VADJP
p872
sbatp873
Rp874
(dp875
g13
VNP
p876
sbag0
(g1
g2
(lp877
g0
(g1
g2
(lp878
Vcan
p879
atp880
Rp881
(dp882
g13
VMD
p883
sbag0
(g1
g2
(lp884
g0
(g1
g2
(lp885
VI
p886
atp887
Rp888
(dp889
g13
VPRP
p890
sbatp891
Rp892
(dp893
g13
VNP
p894
sbag0
(g1
g2
(lp895
g0
(g1
g2
(lp896
g0
(g1
g2
(lp897
Vtell
p898
atp899
Rp900
(dp901
g13
VVB
p902
sbag0
(g1
g2
(lp903
g0
(g1
g2
(lp904
Vyou
p905
atp906
Rp907
(dp908
g13
VPRP
p909
sbatp910
Rp911
(dp912
g13
VNP
p913
sbatp914
Rp915
(dp916
g13
VVP
p917
sbatp918
Rp919
(dp920
g13
VS
p921
sbatp922
Rp923
(dp924
g13
VVP
p925
sbatp926
Rp927
(dp928
g13
VS
p929
sbatp930
Rp931
(dp932
g13
S'id: 3'
p933
sbatp934
Rp935
(dp936
g13
S'sentences'
p937
sb.