ccopy_reg
_reconstructor
p0
(cnltk.tree
Tree
p1
c__builtin__
list
p2
(lp3
g0
(g1
g2
(lp4
g0
(g1
g2
(lp5
g0
(g1
g2
(lp6
g0
(g1
g2
(lp7
g0
(g1
g2
(lp8
g0
(g1
g2
(lp9
g0
(g1
g2
(lp10
(lp11
S'word: no, index: 17'
p12
aatp13
Rp14
(dp15
S'_label'
p16
Vneg
p17
sbatp18
Rp19
(dp20
g16
S'word: idea, index: 18'
p21
sbatp22
Rp23
(dp24
g16
Vdobj
p25
sbag0
(g1
g2
(lp26
(lp27
S'word: I, index: 15'
p28
aatp29
Rp30
(dp31
g16
Vnsubj
p32
sbatp33
Rp34
(dp35
g16
S'word: have, index: 16'
p36
sbatp37
Rp38
(dp39
g16
Vparataxis
p40
sbag0
(g1
g2
(lp41
g0
(g1
g2
(lp42
g0
(g1
g2
(lp43
g0
(g1
g2
(lp44
g0
(g1
g2
(lp45
(lp46
S'word: the, index: 3'
p47
aatp48
Rp49
(dp50
g16
Vdet
p51
sbatp52
Rp53
(dp54
g16
S'word: water, index: 4'
p55
sbatp56
Rp57
(dp58
g16
Vprep
p59
sbag0
(g1
g2
(lp60
g0
(g1
g2
(lp61
g0
(g1
g2
(lp62
(lp63
S'word: a, index: 7'
p64
aatp65
Rp66
(dp67
g16
Vdet
p68
sbag0
(g1
g2
(lp69
(lp70
S'word: whole, index: 8'
p71
aatp72
Rp73
(dp74
g16
Vamod
p75
sbag0
(g1
g2
(lp76
g0
(g1
g2
(lp77
g0
(g1
g2
(lp78
g0
(g1
g2
(lp79
g0
(g1
g2
(lp80
(lp81
S'word: here, index: 12'
p82
aatp83
Rp84
(dp85
g16
Vadvmod
p86
sbatp87
Rp88
(dp89
g16
S'word: doing, index: 13'
p90
sbatp91
Rp92
(dp93
g16
Vvmod
p94
sbatp95
Rp96
(dp97
g16
S'word: people, index: 11'
p98
sbatp99
Rp100
(dp101
g16
Vprep
p102
sbatp103
Rp104
(dp105
g16
S'word: bunch, index: 9'
p106
sbatp107
Rp108
(dp109
g16
Vconj
p110
sbatp111
Rp112
(dp113
g16
S'word: This, index: 1'
p114
sbatp115
Rp116
(dp117
g16
Vnsubj
p118
sbag0
(g1
g2
(lp119
(lp120
S'word: does, index: 20'
p121
aatp122
Rp123
(dp124
g16
Vaux
p125
sbag0
(g1
g2
(lp126
(lp127
S"word: n't, index: 21"
p128
aatp129
Rp130
(dp131
g16
Vneg
p132
sbag0
(g1
g2
(lp133
g0
(g1
g2
(lp134
g0
(g1
g2
(lp135
(lp136
S'word: any, index: 23'
p137
aatp138
Rp139
(dp140
g16
Vdet
p141
sbatp142
Rp143
(dp144
g16
S'word: sense, index: 24'
p145
sbatp146
Rp147
(dp148
g16
Vdobj
p149
sbag0
(g1
g2
(lp150
g104
atp151
Rp152
(dp153
g16
Vnsubj
p154
sbag0
(g1
g2
(lp155
g0
(g1
g2
(lp156
g0
(g1
g2
(lp157
(lp158
S'word: here, index: 27'
p159
aatp160
Rp161
(dp162
g16
Vadvmod
p163
sbag0
(g1
g2
(lp164
(lp165
S'word: it, index: 28'
p166
aatp167
Rp168
(dp169
g16
Vnsubj
p170
sbatp171
Rp172
(dp173
g16
S'word: is, index: 29'
p174
sbatp175
Rp176
(dp177
g16
Vconj
p178
sbatp179
Rp180
(dp181
g16
S'word: make, index: 22'
p182
sbatp183
Rp184
(dp185
g16
S'id: 0'
p186
sbag0
(g1
g2
(lp187
g0
(g1
g2
(lp188
g0
(g1
g2
(lp189
g0
(g1
g2
(lp190
g0
(g1
g2
(lp191
g0
(g1
g2
(lp192
g0
(g1
g2
(lp193
(lp194
S'word: a, index: 3'
p195
aatp196
Rp197
(dp198
g16
Vdet
p199
sbatp200
Rp201
(dp202
g16
S'word: person, index: 4'
p203
sbatp204
Rp205
(dp206
g16
Vnpadvmod
p207
sbatp208
Rp209
(dp210
g16
S'word: here, index: 5'
p211
sbatp212
Rp213
(dp214
g16
Vadvmod
p215
sbag0
(g1
g2
(lp216
g0
(g1
g2
(lp217
g0
(g1
g2
(lp218
(lp219
S'word: four, index: 7'
p220
aatp221
Rp222
(dp223
g16
Vnum
p224
sbatp225
Rp226
(dp227
g16
S'word: seventy, index: 8'
p228
sbatp229
Rp230
(dp231
g16
Vdobj
p232
sbag0
(g1
g2
(lp233
g0
(g1
g2
(lp234
g0
(g1
g2
(lp235
(lp236
S'word: a, index: 9'
p237
aatp238
Rp239
(dp240
g16
Vdet
p241
sbag0
(g1
g2
(lp242
g0
(g1
g2
(lp243
g0
(g1
g2
(lp244
(lp245
S'word: nice, index: 12'
p246
aatp247
Rp248
(dp249
g16
Vamod
p250
sbag0
(g1
g2
(lp251
g0
(g1
g2
(lp252
g0
(g1
g2
(lp253
g0
(g1
g2
(lp254
g0
(g1
g2
(lp255
(lp256
S'word: a, index: 19'
p257
aatp258
Rp259
(dp260
g16
Vdet
p261
sbag0
(g1
g2
(lp262
(lp263
S'word: special, index: 20'
p264
aatp265
Rp266
(dp267
g16
Vamod
p268
sbag0
(g1
g2
(lp269
(lp270
S'word: it, index: 17'
p271
aatp272
Rp273
(dp274
g16
Vnsubj
p275
sbag0
(g1
g2
(lp276
(lp277
S"word: 's, index: 18"
p278
aatp279
Rp280
(dp281
g16
Vcop
p282
sbatp283
Rp284
(dp285
g16
S'word: time, index: 21'
p286
sbatp287
Rp288
(dp289
g16
Vccomp
p290
sbag0
(g1
g2
(lp291
(lp292
S'word: that, index: 15'
p293
aatp294
Rp295
(dp296
g16
Vnsubj
p297
sbatp298
Rp299
(dp300
g16
S'word: means, index: 16'
p301
sbatp302
Rp303
(dp304
g16
Vrcmod
p305
sbatp306
Rp307
(dp308
g16
S'word: sailboat, index: 13'
p309
sbatp310
Rp311
(dp312
g16
Vappos
p313
sbatp314
Rp315
(dp316
g16
S'word: boat, index: 10'
p317
sbatp318
Rp319
(dp320
g16
Vtmod
p321
sbag0
(g1
g2
(lp322
(lp323
S'word: There, index: 1'
p324
aatp325
Rp326
(dp327
g16
Vexpl
p328
sbag0
(g1
g2
(lp329
(lp330
S"word: 's, index: 2"
p331
aatp332
Rp333
(dp334
g16
Vaux
p335
sbatp336
Rp337
(dp338
g16
S'word: taking, index: 6'
p339
sbatp340
Rp341
(dp342
g16
S'id: 1'
p343
sbag0
(g1
g2
(lp344
g0
(g1
g2
(lp345
g0
(g1
g2
(lp346
g0
(g1
g2
(lp347
g0
(g1
g2
(lp348
(lp349
S'word: a, index: 11'
p350
aatp351
Rp352
(dp353
g16
Vdet
p354
sbatp355
Rp356
(dp357
g16
S'word: bish, index: 12'
p358
sbatp359
Rp360
(dp361
g16
Vdobj
p362
sbag0
(g1
g2
(lp363
(lp364
S'word: there, index: 13'
p365
aatp366
Rp367
(dp368
g16
Vnsubj
p369
sbag0
(g1
g2
(lp370
g0
(g1
g2
(lp371
g0
(g1
g2
(lp372
(lp373
S'word: There, index: 1'
p374
aatp375
Rp376
(dp377
g16
Vexpl
p378
sbag0
(g1
g2
(lp379
g0
(g1
g2
(lp380
g0
(g1
g2
(lp381
(lp382
S'word: a, index: 3'
p383
aatp384
Rp385
(dp386
g16
Vdet
p387
sbag0
(g1
g2
(lp388
g0
(g1
g2
(lp389
g0
(g1
g2
(lp390
g0
(g1
g2
(lp391
g0
(g1
g2
(lp392
(lp393
S'word: a, index: 6'
p394
aatp395
Rp396
(dp397
g16
Vdet
p398
sbatp399
Rp400
(dp401
g16
S'word: bear, index: 7'
p402
sbatp403
Rp404
(dp405
g16
Vdobj
p406
sbag0
(g1
g2
(lp407
(lp408
S'word: there, index: 8'
p409
aatp410
Rp411
(dp412
g16
Vadvmod
p413
sbatp414
Rp415
(dp416
g16
S'word: catching, index: 5'
p417
sbatp418
Rp419
(dp420
g16
Vvmod
p421
sbatp422
Rp423
(dp424
g16
S'word: man, index: 4'
p425
sbatp426
Rp427
(dp428
g16
Vnsubj
p429
sbatp430
Rp431
(dp432
g16
S"word: 's, index: 2"
p433
sbatp434
Rp435
(dp436
g16
Vccomp
p437
sbatp438
Rp439
(dp440
g16
S'word: got, index: 10'
p441
sbatp442
Rp443
(dp444
g16
S'id: 2'
p445
sbag0
(g1
g2
(lp446
g0
(g1
g2
(lp447
g0
(g1
g2
(lp448
(lp449
S'word: this, index: 16'
p450
aatp451
Rp452
(dp453
g16
Vnsubj
p454
sbag0
(g1
g2
(lp455
(lp456
S'word: Then, index: 1'
p457
aatp458
Rp459
(dp460
g16
Vadvmod
p461
sbag0
(g1
g2
(lp462
(lp463
S'word: is, index: 17'
p464
aatp465
Rp466
(dp467
g16
Vaux
p468
sbag0
(g1
g2
(lp469
(lp470
S'word: this, index: 19'
p471
aatp472
Rp473
(dp474
g16
Vdobj
p475
sbag0
(g1
g2
(lp476
(lp477
S'word: here, index: 20'
p478
aatp479
Rp480
(dp481
g16
Vadvmod
p482
sbag0
(g1
g2
(lp483
g0
(g1
g2
(lp484
g0
(g1
g2
(lp485
g0
(g1
g2
(lp486
g0
(g1
g2
(lp487
(lp488
S'word: the, index: 9'
p489
aatp490
Rp491
(dp492
g16
Vdet
p493
sbag0
(g1
g2
(lp494
g0
(g1
g2
(lp495
g0
(g1
g2
(lp496
(lp497
S'word: the, index: 11'
p498
aatp499
Rp500
(dp501
g16
Vdet
p502
sbatp503
Rp504
(dp505
g16
S'word: night, index: 12'
p506
sbatp507
Rp508
(dp509
g16
Vdep
p510
sbatp511
Rp512
(dp513
g16
S'word: kite, index: 14'
p514
sbatp515
Rp516
(dp517
g16
Vdobj
p518
sbag0
(g1
g2
(lp519
(lp520
S'word: some, index: 2'
p521
aatp522
Rp523
(dp524
g16
Vnsubj
p525
sbag0
(g1
g2
(lp526
g0
(g1
g2
(lp527
g0
(g1
g2
(lp528
(lp529
S'word: this, index: 4'
p530
aatp531
Rp532
(dp533
g16
Vdet
p534
sbatp535
Rp536
(dp537
g16
S'word: kid, index: 5'
p538
sbatp539
Rp540
(dp541
g16
Vnsubj
p542
sbag0
(g1
g2
(lp543
(lp544
S'word: is, index: 6'
p545
aatp546
Rp547
(dp548
g16
Vaux
p549
sbag0
(g1
g2
(lp550
(lp551
S'word: up, index: 8'
p552
aatp553
Rp554
(dp555
g16
Vprt
p556
sbatp557
Rp558
(dp559
g16
S'word: throwing, index: 7'
p560
sbatp561
Rp562
(dp563
g16
Vparataxis
p564
sbatp565
Rp566
(dp567
g16
S'word: running, index: 18'
p568
sbatp569
Rp570
(dp571
g16
S'id: 3'
p572
sbag0
(g1
g2
(lp573
g0
(g1
g2
(lp574
g0
(g1
g2
(lp575
(lp576
S'word: Guy, index: 1'
p577
aatp578
Rp579
(dp580
g16
Vposs
p581
sbag0
(g1
g2
(lp582
g0
(g1
g2
(lp583
g0
(g1
g2
(lp584
(lp585
S'word: a, index: 6'
p586
aatp587
Rp588
(dp589
g16
Vdet
p590
sbatp591
Rp592
(dp593
g16
S'word: woman, index: 7'
p594
sbatp595
Rp596
(dp597
g16
Vconj
p598
sbag0
(g1
g2
(lp599
g0
(g1
g2
(lp600
g0
(g1
g2
(lp601
g0
(g1
g2
(lp602
g0
(g1
g2
(lp603
(lp604
S'word: the, index: 10'
p605
aatp606
Rp607
(dp608
g16
Vdet
p609
sbatp610
Rp611
(dp612
g16
S'word: drink, index: 11'
p613
sbatp614
Rp615
(dp616
g16
Vdobj
p617
sbatp618
Rp619
(dp620
g16
S'word: having, index: 9'
p621
sbatp622
Rp623
(dp624
g16
Vvmod
p625
sbatp626
Rp627
(dp628
g16
S'word: reading, index: 3'
p629
sbatp630
Rp631
(dp632
g16
S'id: 4'
p633
sbag0
(g1
g2
(lp634
g0
(g1
g2
(lp635
g0
(g1
g2
(lp636
g0
(g1
g2
(lp637
g0
(g1
g2
(lp638
(lp639
S'word: The, index: 1'
p640
aatp641
Rp642
(dp643
g16
Vdet
p644
sbatp645
Rp646
(dp647
g16
S'word: kids, index: 2'
p648
sbatp649
Rp650
(dp651
g16
Vnsubj
p652
sbag0
(g1
g2
(lp653
g0
(g1
g2
(lp654
g0
(g1
g2
(lp655
(lp656
S'word: those, index: 4'
p657
aatp658
Rp659
(dp660
g16
Vdet
p661
sbatp662
Rp663
(dp664
g16
S'word: things, index: 5'
p665
sbatp666
Rp667
(dp668
g16
Vdobj
p669
sbag0
(g1
g2
(lp670
g0
(g1
g2
(lp671
g0
(g1
g2
(lp672
g0
(g1
g2
(lp673
g0
(g1
g2
(lp674
(lp675
S'word: do, index: 15'
p676
aatp677
Rp678
(dp679
g16
Vaux
p680
sbag0
(g1
g2
(lp681
(lp682
S"word: n't, index: 16"
p683
aatp684
Rp685
(dp686
g16
Vneg
p687
sbag0
(g1
g2
(lp688
g0
(g1
g2
(lp689
g0
(g1
g2
(lp690
(lp691
S'word: he, index: 18'
p692
aatp693
Rp694
(dp695
g16
Vnsubj
p696
sbag0
(g1
g2
(lp697
(lp698
S'word: there, index: 20'
p699
aatp700
Rp701
(dp702
g16
Vadvmod
p703
sbatp704
Rp705
(dp706
g16
S'word: lives, index: 19'
p707
sbatp708
Rp709
(dp710
g16
Vccomp
p711
sbag0
(g1
g2
(lp712
(lp713
S'word: that, index: 8'
p714
aatp715
Rp716
(dp717
g16
Vmark
p718
sbag0
(g1
g2
(lp719
(lp720
S'word: maybe, index: 9'
p721
aatp722
Rp723
(dp724
g16
Vadvmod
p725
sbag0
(g1
g2
(lp726
g0
(g1
g2
(lp727
g0
(g1
g2
(lp728
(lp729
S'word: you, index: 22'
p730
aatp731
Rp732
(dp733
g16
Vnsubj
p734
sbag0
(g1
g2
(lp735
(lp736
S'word: do, index: 23'
p737
aatp738
Rp739
(dp740
g16
Vaux
p741
sbag0
(g1
g2
(lp742
(lp743
S"word: n't, index: 24"
p744
aatp745
Rp746
(dp747
g16
Vneg
p748
sbag0
(g1
g2
(lp749
g0
(g1
g2
(lp750
g0
(g1
g2
(lp751
(lp752
S'word: if, index: 26'
p753
aatp754
Rp755
(dp756
g16
Vmark
p757
sbag0
(g1
g2
(lp758
(lp759
S'word: he, index: 27'
p760
aatp761
Rp762
(dp763
g16
Vnsubj
p764
sbag0
(g1
g2
(lp765
g0
(g1
g2
(lp766
g0
(g1
g2
(lp767
g0
(g1
g2
(lp768
g0
(g1
g2
(lp769
(lp770
S'word: who, index: 31'
p771
aatp772
Rp773
(dp774
g16
Vnsubj
p775
sbag0
(g1
g2
(lp776
g0
(g1
g2
(lp777
g0
(g1
g2
(lp778
g0
(g1
g2
(lp779
g0
(g1
g2
(lp780
(lp781
S'word: who, index: 35'
p782
aatp783
Rp784
(dp785
g16
Vnsubj
p786
sbag0
(g1
g2
(lp787
(lp788
S'word: anything, index: 37'
p789
aatp790
Rp791
(dp792
g16
Vdobj
p793
sbatp794
Rp795
(dp796
g16
S'word: does, index: 36'
p797
sbatp798
Rp799
(dp800
g16
Vrcmod
p801
sbatp802
Rp803
(dp804
g16
S'word: there, index: 33'
p805
sbatp806
Rp807
(dp808
g16
Vdobj
p809
sbatp810
Rp811
(dp812
g16
S'word: lives, index: 32'
p813
sbatp814
Rp815
(dp816
g16
Vrcmod
p817
sbatp818
Rp819
(dp820
g16
S'word: there, index: 29'
p821
sbatp822
Rp823
(dp824
g16
Vdobj
p825
sbatp826
Rp827
(dp828
g16
S'word: goes, index: 28'
p829
sbatp830
Rp831
(dp832
g16
Vadvcl
p833
sbatp834
Rp835
(dp836
g16
S'word: know, index: 25'
p837
sbatp838
Rp839
(dp840
g16
Vparataxis
p841
sbag0
(g1
g2
(lp842
g0
(g1
g2
(lp843
g0
(g1
g2
(lp844
(lp845
S'word: his, index: 10'
p846
aatp847
Rp848
(dp849
g16
Vposs
p850
sbatp851
Rp852
(dp853
g16
S'word: hat, index: 11'
p854
sbatp855
Rp856
(dp857
g16
Vnsubj
p858
sbag0
(g1
g2
(lp859
(lp860
S'word: you, index: 14'
p861
aatp862
Rp863
(dp864
g16
Vconj
p865
sbatp866
Rp867
(dp868
g16
S'word: think, index: 17'
p869
sbatp870
Rp871
(dp872
g16
Vadvcl
p873
sbag0
(g1
g2
(lp874
(lp875
S'word: they, index: 39'
p876
aatp877
Rp878
(dp879
g16
Vnsubj
p880
sbag0
(g1
g2
(lp881
(lp882
S"word: 're, index: 40"
p883
aatp884
Rp885
(dp886
g16
Vaux
p887
sbag0
(g1
g2
(lp888
(lp889
S'word: something, index: 42'
p890
aatp891
Rp892
(dp893
g16
Vdobj
p894
sbag0
(g1
g2
(lp895
(lp896
S'word: you, index: 14'
p897
aatp898
Rp899
(dp900
g16
Vadvcl
p901
sbatp902
Rp903
(dp904
g16
S'word: doing, index: 41'
p905
sbatp906
Rp907
(dp908
g16
Vconj
p909
sbatp910
Rp911
(dp912
g16
S'word: throw, index: 3'
p913
sbatp914
Rp915
(dp916
g16
S'id: 5'
p917
sbag0
(g1
g2
(lp918
g0
(g1
g2
(lp919
g0
(g1
g2
(lp920
g0
(g1
g2
(lp921
g0
(g1
g2
(lp922
(lp923
S'word: happening, index: 4'
p924
aatp925
Rp926
(dp927
g16
Vamod
p928
sbatp929
Rp930
(dp931
g16
S'word: here, index: 2'
p932
sbatp933
Rp934
(dp935
g16
Vposs
p936
sbatp937
Rp938
(dp939
g16
S'word: So, index: 1'
p940
sbatp941
Rp942
(dp943
g16
S'id: 6'
p944
sbag0
(g1
g2
(lp945
g0
(g1
g2
(lp946
g0
(g1
g2
(lp947
(lp948
S'word: I, index: 8'
p949
aatp950
Rp951
(dp952
g16
Vnsubj
p953
sbag0
(g1
g2
(lp954
g0
(g1
g2
(lp955
g0
(g1
g2
(lp956
(lp957
S'word: no, index: 10'
p958
aatp959
Rp960
(dp961
g16
Vneg
p962
sbatp963
Rp964
(dp965
g16
S'word: appention, index: 11'
p966
sbatp967
Rp968
(dp969
g16
Vdobj
p970
sbag0
(g1
g2
(lp971
(lp972
S'word: it, index: 13'
p973
aatp974
Rp975
(dp976
g16
Vprep
p977
sbag0
(g1
g2
(lp978
g0
(g1
g2
(lp979
g0
(g1
g2
(lp980
g0
(g1
g2
(lp981
g0
(g1
g2
(lp982
(lp983
S'word: a, index: 3'
p984
aatp985
Rp986
(dp987
g16
Vdet
p988
sbag0
(g1
g2
(lp989
(lp990
S'word: little, index: 4'
p991
aatp992
Rp993
(dp994
g16
Vamod
p995
sbatp996
Rp997
(dp998
g16
S'word: clause, index: 5'
p999
sbatp1000
Rp1001
(dp1002
g16
Vdobj
p1003
sbag0
(g1
g2
(lp1004
(lp1005
S'word: here, index: 6'
p1006
aatp1007
Rp1008
(dp1009
g16
Vadvmod
p1010
sbag0
(g1
g2
(lp1011
(lp1012
S'word: You, index: 1'
p1013
aatp1014
Rp1015
(dp1016
g16
Vnsubj
p1017
sbatp1018
Rp1019
(dp1020
g16
S'word: got, index: 2'
p1021
sbatp1022
Rp1023
(dp1024
g16
Vccomp
p1025
sbatp1026
Rp1027
(dp1028
g16
S'word: have, index: 9'
p1029
sbatp1030
Rp1031
(dp1032
g16
S'id: 7'
p1033
sbag0
(g1
g2
(lp1034
g0
(g1
g2
(lp1035
g0
(g1
g2
(lp1036
(lp1037
S'word: They, index: 1'
p1038
aatp1039
Rp1040
(dp1041
g16
Vnsubj
p1042
sbag0
(g1
g2
(lp1043
g0
(g1
g2
(lp1044
g0
(g1
g2
(lp1045
(lp1046
S'word: a, index: 3'
p1047
aatp1048
Rp1049
(dp1050
g16
Vdet
p1051
sbag0
(g1
g2
(lp1052
(lp1053
S'word: little, index: 4'
p1054
aatp1055
Rp1056
(dp1057
g16
Vamod
p1058
sbatp1059
Rp1060
(dp1061
g16
S'word: pile, index: 5'
p1062
sbatp1063
Rp1064
(dp1065
g16
Vdobj
p1066
sbag0
(g1
g2
(lp1067
(lp1068
S'word: there, index: 6'
p1069
aatp1070
Rp1071
(dp1072
g16
Vadvmod
p1073
sbatp1074
Rp1075
(dp1076
g16
S'word: got, index: 2'
p1077
sbatp1078
Rp1079
(dp1080
g16
S'id: 8'
p1081
sbag0
(g1
g2
(lp1082
g0
(g1
g2
(lp1083
g0
(g1
g2
(lp1084
g0
(g1
g2
(lp1085
g0
(g1
g2
(lp1086
g0
(g1
g2
(lp1087
g0
(g1
g2
(lp1088
(lp1089
S'word: the, index: 3'
p1090
aatp1091
Rp1092
(dp1093
g16
Vdet
p1094
sbatp1095
Rp1096
(dp1097
g16
S'word: dish, index: 4'
p1098
sbatp1099
Rp1100
(dp1101
g16
Vdobj
p1102
sbatp1103
Rp1104
(dp1105
g16
S'word: catching, index: 2'
p1106
sbatp1107
Rp1108
(dp1109
g16
Vvmod
p1110
sbatp1111
Rp1112
(dp1113
g16
S'word: Somebody, index: 1'
p1114
sbatp1115
Rp1116
(dp1117
g16
S'id: 9'
p1118
sbag0
(g1
g2
(lp1119
g0
(g1
g2
(lp1120
g0
(g1
g2
(lp1121
(lp1122
S"word: 's, index: 2"
p1123
aatp1124
Rp1125
(dp1126
g16
Vpossessive
p1127
sbag0
(g1
g2
(lp1128
(lp1129
S'word: pulling, index: 3'
p1130
aatp1131
Rp1132
(dp1133
g16
Vamod
p1134
sbag0
(g1
g2
(lp1135
g0
(g1
g2
(lp1136
g0
(g1
g2
(lp1137
(lp1138
S'word: the, index: 4'
p1139
aatp1140
Rp1141
(dp1142
g16
Vdet
p1143
sbatp1144
Rp1145
(dp1146
g16
S'word: night, index: 5'
p1147
sbatp1148
Rp1149
(dp1150
g16
Vdep
p1151
sbatp1152
Rp1153
(dp1154
g16
S'word: Here, index: 1'
p1155
sbatp1156
Rp1157
(dp1158
g16
S'id: 10'
p1159
sbag0
(g1
g2
(lp1160
g0
(g1
g2
(lp1161
g0
(g1
g2
(lp1162
(lp1163
S'word: Here, index: 1'
p1164
aatp1165
Rp1166
(dp1167
g16
Vposs
p1168
sbag0
(g1
g2
(lp1169
g0
(g1
g2
(lp1170
g0
(g1
g2
(lp1171
(lp1172
S'word: four, index: 3'
p1173
aatp1174
Rp1175
(dp1176
g16
Vnumber
p1177
sbag0
(g1
g2
(lp1178
g0
(g1
g2
(lp1179
g0
(g1
g2
(lp1180
(lp1181
S'word: a, index: 6'
p1182
aatp1183
Rp1184
(dp1185
g16
Vnpadvmod
p1186
sbatp1187
Rp1188
(dp1189
g16
S'word: special, index: 7'
p1190
sbatp1191
Rp1192
(dp1193
g16
Vdep
p1194
sbatp1195
Rp1196
(dp1197
g16
S'word: seventy, index: 4'
p1198
sbatp1199
Rp1200
(dp1201
g16
Vamod
p1202
sbag0
(g1
g2
(lp1203
g0
(g1
g2
(lp1204
g0
(g1
g2
(lp1205
(lp1206
S'word: sail, index: 10'
p1207
aatp1208
Rp1209
(dp1210
g16
Vnn
p1211
sbatp1212
Rp1213
(dp1214
g16
S'word: bus, index: 11'
p1215
sbatp1216
Rp1217
(dp1218
g16
Vprep
p1219
sbatp1220
Rp1221
(dp1222
g16
S'word: type, index: 8'
p1223
sbatp1224
Rp1225
(dp1226
g16
S'id: 11'
p1227
sbag0
(g1
g2
(lp1228
g0
(g1
g2
(lp1229
g0
(g1
g2
(lp1230
g0
(g1
g2
(lp1231
g0
(g1
g2
(lp1232
g0
(g1
g2
(lp1233
g0
(g1
g2
(lp1234
(lp1235
S'word: just, index: 5'
p1236
aatp1237
Rp1238
(dp1239
g16
Vadvmod
p1240
sbag0
(g1
g2
(lp1241
g0
(g1
g2
(lp1242
g0
(g1
g2
(lp1243
g0
(g1
g2
(lp1244
g0
(g1
g2
(lp1245
(lp1246
S'word: a, index: 9'
p1247
aatp1248
Rp1249
(dp1250
g16
Vdet
p1251
sbatp1252
Rp1253
(dp1254
g16
S'word: des, index: 10'
p1255
sbatp1256
Rp1257
(dp1258
g16
Vxcomp
p1259
sbatp1260
Rp1261
(dp1262
g16
S'word: making, index: 8'
p1263
sbatp1264
Rp1265
(dp1266
g16
Vdep
p1267
sbatp1268
Rp1269
(dp1270
g16
S'word: doing, index: 6'
p1271
sbatp1272
Rp1273
(dp1274
g16
Vdep
p1275
sbag0
(g1
g2
(lp1276
(lp1277
S'word: This, index: 1'
p1278
aatp1279
Rp1280
(dp1281
g16
Vnsubj
p1282
sbag0
(g1
g2
(lp1283
(lp1284
S'word: is, index: 2'
p1285
aatp1286
Rp1287
(dp1288
g16
Vcop
p1289
sbag0
(g1
g2
(lp1290
(lp1291
S'word: a, index: 3'
p1292
aatp1293
Rp1294
(dp1295
g16
Vdet
p1296
sbatp1297
Rp1298
(dp1299
g16
S'word: lady, index: 4'
p1300
sbatp1301
Rp1302
(dp1303
g16
Vccomp
p1304
sbag0
(g1
g2
(lp1305
(lp1306
S'word: I, index: 12'
p1307
aatp1308
Rp1309
(dp1310
g16
Vnsubj
p1311
sbag0
(g1
g2
(lp1312
(lp1313
S'word: do, index: 13'
p1314
aatp1315
Rp1316
(dp1317
g16
Vaux
p1318
sbag0
(g1
g2
(lp1319
(lp1320
S"word: n't, index: 14"
p1321
aatp1322
Rp1323
(dp1324
g16
Vneg
p1325
sbag0
(g1
g2
(lp1326
g0
(g1
g2
(lp1327
g0
(g1
g2
(lp1328
(lp1329
S'word: why, index: 16'
p1330
aatp1331
Rp1332
(dp1333
g16
Vadvmod
p1334
sbag0
(g1
g2
(lp1335
(lp1336
S'word: he, index: 17'
p1337
aatp1338
Rp1339
(dp1340
g16
Vnsubj
p1341
sbag0
(g1
g2
(lp1342
(lp1343
S"word: 's, index: 18"
p1344
aatp1345
Rp1346
(dp1347
g16
Vaux
p1348
sbatp1349
Rp1350
(dp1351
g16
S'word: doing, index: 19'
p1352
sbatp1353
Rp1354
(dp1355
g16
Vccomp
p1356
sbatp1357
Rp1358
(dp1359
g16
S'word: know, index: 15'
p1360
sbatp1361
Rp1362
(dp1363
g16
S'id: 12'
p1364
sbag0
(g1
g2
(lp1365
g0
(g1
g2
(lp1366
g0
(g1
g2
(lp1367
(lp1368
S'word: He, index: 1'
p1369
aatp1370
Rp1371
(dp1372
g16
Vnsubj
p1373
sbag0
(g1
g2
(lp1374
(lp1375
S"word: 's, index: 2"
p1376
aatp1377
Rp1378
(dp1379
g16
Vaux
p1380
sbag0
(g1
g2
(lp1381
(lp1382
S'word: there, index: 4'
p1383
aatp1384
Rp1385
(dp1386
g16
Vadvmod
p1387
sbatp1388
Rp1389
(dp1390
g16
S'word: pulling, index: 3'
p1391
sbatp1392
Rp1393
(dp1394
g16
S'id: 13'
p1395
sbag0
(g1
g2
(lp1396
g0
(g1
g2
(lp1397
g0
(g1
g2
(lp1398
(lp1399
S'word: I, index: 10'
p1400
aatp1401
Rp1402
(dp1403
g16
Vnsubj
p1404
sbag0
(g1
g2
(lp1405
g0
(g1
g2
(lp1406
g0
(g1
g2
(lp1407
(lp1408
S'word: He, index: 1'
p1409
aatp1410
Rp1411
(dp1412
g16
Vnsubj
p1413
sbag0
(g1
g2
(lp1414
(lp1415
S"word: 's, index: 2"
p1416
aatp1417
Rp1418
(dp1419
g16
Vaux
p1420
sbag0
(g1
g2
(lp1421
(lp1422
S'word: just, index: 3'
p1423
aatp1424
Rp1425
(dp1426
g16
Vadvmod
p1427
sbag0
(g1
g2
(lp1428
(lp1429
S'word: there, index: 5'
p1430
aatp1431
Rp1432
(dp1433
g16
Vadvmod
p1434
sbag0
(g1
g2
(lp1435
g0
(g1
g2
(lp1436
g0
(g1
g2
(lp1437
g0
(g1
g2
(lp1438
g0
(g1
g2
(lp1439
(lp1440
S'word: drink, index: 9'
p1441
aatp1442
Rp1443
(dp1444
g16
Vpobj
p1445
sbatp1446
Rp1447
(dp1448
g16
S'word: on, index: 8'
p1449
sbatp1450
Rp1451
(dp1452
g16
Vdep
p1453
sbatp1454
Rp1455
(dp1456
g16
S'word: she, index: 7'
p1457
sbatp1458
Rp1459
(dp1460
g16
Vparataxis
p1461
sbatp1462
Rp1463
(dp1464
g16
S'word: sitting, index: 4'
p1465
sbatp1466
Rp1467
(dp1468
g16
Vdep
p1469
sbatp1470
Rp1471
(dp1472
g16
S'word: guess, index: 11'
p1473
sbatp1474
Rp1475
(dp1476
g16
S'id: 14'
p1477
sbag0
(g1
g2
(lp1478
g0
(g1
g2
(lp1479
g0
(g1
g2
(lp1480
(lp1481
S'word: Here, index: 1'
p1482
aatp1483
Rp1484
(dp1485
g16
Vnsubj
p1486
sbag0
(g1
g2
(lp1487
(lp1488
S"word: 's, index: 2"
p1489
aatp1490
Rp1491
(dp1492
g16
Vcop
p1493
sbag0
(g1
g2
(lp1494
(lp1495
S'word: a, index: 3'
p1496
aatp1497
Rp1498
(dp1499
g16
Vdet
p1500
sbag0
(g1
g2
(lp1501
(lp1502
S'word: ladio, index: 4'
p1503
aatp1504
Rp1505
(dp1506
g16
Vamod
p1507
sbag0
(g1
g2
(lp1508
(lp1509
S'word: playing, index: 5'
p1510
aatp1511
Rp1512
(dp1513
g16
Vnn
p1514
sbatp1515
Rp1516
(dp1517
g16
S'word: nothing, index: 6'
p1518
sbatp1519
Rp1520
(dp1521
g16
S'id: 15'
p1522
sbag0
(g1
g2
(lp1523
g0
(g1
g2
(lp1524
g0
(g1
g2
(lp1525
(lp1526
S'word: He, index: 1'
p1527
aatp1528
Rp1529
(dp1530
g16
Vnsubjpass
p1531
sbag0
(g1
g2
(lp1532
(lp1533
S"word: 's, index: 2"
p1534
aatp1535
Rp1536
(dp1537
g16
Vauxpass
p1538
sbag0
(g1
g2
(lp1539
g0
(g1
g2
(lp1540
g0
(g1
g2
(lp1541
(lp1542
S'word: no, index: 4'
p1543
aatp1544
Rp1545
(dp1546
g16
Vneg
p1547
sbatp1548
Rp1549
(dp1550
g16
S'word: feet, index: 5'
p1551
sbatp1552
Rp1553
(dp1554
g16
Vdobj
p1555
sbag0
(g1
g2
(lp1556
(lp1557
S'word: on, index: 6'
p1558
aatp1559
Rp1560
(dp1561
g16
Vprep
p1562
sbag0
(g1
g2
(lp1563
(lp1564
S'word: so, index: 8'
p1565
aatp1566
Rp1567
(dp1568
g16
Vdep
p1569
sbag0
(g1
g2
(lp1570
g0
(g1
g2
(lp1571
g0
(g1
g2
(lp1572
(lp1573
S'word: he, index: 9'
p1574
aatp1575
Rp1576
(dp1577
g16
Vnsubj
p1578
sbag0
(g1
g2
(lp1579
g0
(g1
g2
(lp1580
g0
(g1
g2
(lp1581
(lp1582
S'word: himself, index: 11'
p1583
aatp1584
Rp1585
(dp1586
g16
Vnsubj
p1587
sbatp1588
Rp1589
(dp1590
g16
S'word: there, index: 12'
p1591
sbatp1592
Rp1593
(dp1594
g16
Vxcomp
p1595
sbatp1596
Rp1597
(dp1598
g16
S'word: hurt, index: 10'
p1599
sbatp1600
Rp1601
(dp1602
g16
Vparataxis
p1603
sbatp1604
Rp1605
(dp1606
g16
S'word: got, index: 3'
p1607
sbatp1608
Rp1609
(dp1610
g16
S'id: 16'
p1611
sbag0
(g1
g2
(lp1612
g0
(g1
g2
(lp1613
g0
(g1
g2
(lp1614
g0
(g1
g2
(lp1615
g0
(g1
g2
(lp1616
g0
(g1
g2
(lp1617
g0
(g1
g2
(lp1618
(lp1619
S'word: a, index: 6'
p1620
aatp1621
Rp1622
(dp1623
g16
Vprep
p1624
sbatp1625
Rp1626
(dp1627
g16
S'word: one, index: 4'
p1628
sbatp1629
Rp1630
(dp1631
g16
Vdep
p1632
sbatp1633
Rp1634
(dp1635
g16
S'word: another, index: 3'
p1636
sbatp1637
Rp1638
(dp1639
g16
Vamod
p1640
sbag0
(g1
g2
(lp1641
(lp1642
S'word: on, index: 8'
p1643
aatp1644
Rp1645
(dp1646
g16
Vamod
p1647
sbag0
(g1
g2
(lp1648
(lp1649
S'word: Here, index: 1'
p1650
aatp1651
Rp1652
(dp1653
g16
Vposs
p1654
sbatp1655
Rp1656
(dp1657
g16
S'word: foot, index: 7'
p1658
sbatp1659
Rp1660
(dp1661
g16
S'id: 17'
p1662
sbag0
(g1
g2
(lp1663
g0
(g1
g2
(lp1664
g0
(g1
g2
(lp1665
(lp1666
S'word: Here, index: 1'
p1667
aatp1668
Rp1669
(dp1670
g16
Vnsubj
p1671
sbag0
(g1
g2
(lp1672
g0
(g1
g2
(lp1673
g0
(g1
g2
(lp1674
(lp1675
S'word: a, index: 4'
p1676
aatp1677
Rp1678
(dp1679
g16
Vdet
p1680
sbatp1681
Rp1682
(dp1683
g16
S'word: boat, index: 5'
p1684
sbatp1685
Rp1686
(dp1687
g16
Vprep
p1688
sbatp1689
Rp1690
(dp1691
g16
S"word: 's, index: 2"
p1692
sbatp1693
Rp1694
(dp1695
g16
S'id: 18'
p1696
sbag0
(g1
g2
(lp1697
g0
(g1
g2
(lp1698
g0
(g1
g2
(lp1699
g0
(g1
g2
(lp1700
g0
(g1
g2
(lp1701
(lp1702
S'word: The, index: 1'
p1703
aatp1704
Rp1705
(dp1706
g16
Vdet
p1707
sbatp1708
Rp1709
(dp1710
g16
S'word: boat, index: 2'
p1711
sbatp1712
Rp1713
(dp1714
g16
Vnsubj
p1715
sbag0
(g1
g2
(lp1716
(lp1717
S'word: there, index: 4'
p1718
aatp1719
Rp1720
(dp1721
g16
Vadvmod
p1722
sbag0
(g1
g2
(lp1723
g0
(g1
g2
(lp1724
g0
(g1
g2
(lp1725
g1709
atp1726
Rp1727
(dp1728
g16
Vnsubj
p1729
sbag0
(g1
g2
(lp1730
(lp1731
S'word: there, index: 8'
p1732
aatp1733
Rp1734
(dp1735
g16
Vadvmod
p1736
sbatp1737
Rp1738
(dp1739
g16
S'word: ends, index: 7'
p1740
sbatp1741
Rp1742
(dp1743
g16
Vconj
p1744
sbatp1745
Rp1746
(dp1747
g16
S'word: ends, index: 3'
p1748
sbatp1749
Rp1750
(dp1751
g16
S'id: 19'
p1752
sbag0
(g1
g2
(lp1753
g0
(g1
g2
(lp1754
g0
(g1
g2
(lp1755
(lp1756
S'word: Who, index: 1'
p1757
aatp1758
Rp1759
(dp1760
g16
Vnsubj
p1761
sbag0
(g1
g2
(lp1762
(lp1763
S'word: could, index: 2'
p1764
aatp1765
Rp1766
(dp1767
g16
Vaux
p1768
sbatp1769
Rp1770
(dp1771
g16
S'word: hit, index: 3'
p1772
sbatp1773
Rp1774
(dp1775
g16
S'id: 20'
p1776
sbatp1777
Rp1778
(dp1779
g16
S'sentences'
p1780
sb.