ccopy_reg
_reconstructor
p0
(cnltk.tree
Tree
p1
c__builtin__
list
p2
(lp3
g0
(g1
g2
(lp4
g0
(g1
g2
(lp5
g0
(g1
g2
(lp6
Vwe
p7
atp8
Rp9
(dp10
S'_label'
p11
S'start: 1'
p12
sbatp13
Rp14
(dp15
g11
S'sent: 1'
p16
sbag0
(g1
g2
(lp17
g0
(g1
g2
(lp18
Vwe
p19
atp20
Rp21
(dp22
g11
S'start: 3'
p23
sbatp24
Rp25
(dp26
g11
S'sent: 3'
p27
sbatp28
Rp29
(dp30
g11
S'id: 1'
p31
sbag0
(g1
g2
(lp32
g0
(g1
g2
(lp33
g0
(g1
g2
(lp34
Vtwo
p35
atp36
Rp37
(dp38
g11
S'start: 5'
p39
sbatp40
Rp41
(dp42
g11
S'sent: 2'
p43
sbag0
(g1
g2
(lp44
g0
(g1
g2
(lp45
Vtwo
p46
atp47
Rp48
(dp49
g11
S'start: 7'
p50
sbatp51
Rp52
(dp53
g11
S'sent: 3'
p54
sbag0
(g1
g2
(lp55
g0
(g1
g2
(lp56
Vtwo
p57
atp58
Rp59
(dp60
g11
S'start: 15'
p61
sbatp62
Rp63
(dp64
g11
S'sent: 3'
p65
sbatp66
Rp67
(dp68
g11
S'id: 4'
p69
sbag0
(g1
g2
(lp70
g0
(g1
g2
(lp71
g0
(g1
g2
(lp72
Vthree
p73
atp74
Rp75
(dp76
g11
S'start: 7'
p77
sbatp78
Rp79
(dp80
g11
S'sent: 2'
p81
sbag0
(g1
g2
(lp82
g0
(g1
g2
(lp83
Vthree
p84
atp85
Rp86
(dp87
g11
S'start: 9'
p88
sbatp89
Rp90
(dp91
g11
S'sent: 3'
p92
sbatp93
Rp94
(dp95
g11
S'id: 5'
p96
sbag0
(g1
g2
(lp97
g0
(g1
g2
(lp98
g0
(g1
g2
(lp99
Vfive
p100
atp101
Rp102
(dp103
g11
S'start: 11'
p104
sbatp105
Rp106
(dp107
g11
S'sent: 2'
p108
sbag0
(g1
g2
(lp109
g0
(g1
g2
(lp110
Vfive of those
p111
atp112
Rp113
(dp114
g11
S'start: 39'
p115
sbatp116
Rp117
(dp118
g11
S'sent: 3'
p119
sbatp120
Rp121
(dp122
g11
S'id: 7'
p123
sbag0
(g1
g2
(lp124
g0
(g1
g2
(lp125
g0
(g1
g2
(lp126
Vthe horse
p127
atp128
Rp129
(dp130
g11
S'start: 16'
p131
sbatp132
Rp133
(dp134
g11
S'sent: 2'
p135
sbag0
(g1
g2
(lp136
g0
(g1
g2
(lp137
Vthe horse
p138
atp139
Rp140
(dp141
g11
S'start: 5'
p142
sbatp143
Rp144
(dp145
g11
S'sent: 8'
p146
sbatp147
Rp148
(dp149
g11
S'id: 11'
p150
sbag0
(g1
g2
(lp151
g0
(g1
g2
(lp152
g0
(g1
g2
(lp153
Vthree children
p154
atp155
Rp156
(dp157
g11
S'start: 9'
p158
sbatp159
Rp160
(dp161
g11
S'sent: 3'
p162
sbag0
(g1
g2
(lp163
g0
(g1
g2
(lp164
Vtwo parents - a mother and a father -
p165
atp166
Rp167
(dp168
g11
S'start: 15'
p169
sbatp170
Rp171
(dp172
g11
S'sent: 3'
p173
sbatp174
Rp175
(dp176
g11
S'id: 19'
p177
sbag0
(g1
g2
(lp178
g0
(g1
g2
(lp179
g0
(g1
g2
(lp180
Vthe clown
p181
atp182
Rp183
(dp184
g11
S'start: 2'
p185
sbatp186
Rp187
(dp188
g11
S'sent: 4'
p189
sbag0
(g1
g2
(lp190
g0
(g1
g2
(lp191
Va funny guy
p192
atp193
Rp194
(dp195
g11
S'start: 5'
p196
sbatp197
Rp198
(dp199
g11
S'sent: 4'
p200
sbag0
(g1
g2
(lp201
g0
(g1
g2
(lp202
Vhe
p203
atp204
Rp205
(dp206
g11
S'start: 9'
p207
sbatp208
Rp209
(dp210
g11
S'sent: 4'
p211
sbag0
(g1
g2
(lp212
g0
(g1
g2
(lp213
Vhe
p214
atp215
Rp216
(dp217
g11
S'start: 23'
p218
sbatp219
Rp220
(dp221
g11
S'sent: 4'
p222
sbag0
(g1
g2
(lp223
g0
(g1
g2
(lp224
Vhe
p225
atp226
Rp227
(dp228
g11
S'start: 3'
p229
sbatp230
Rp231
(dp232
g11
S'sent: 6'
p233
sbag0
(g1
g2
(lp234
g0
(g1
g2
(lp235
Vhe
p236
atp237
Rp238
(dp239
g11
S'start: 7'
p240
sbatp241
Rp242
(dp243
g11
S'sent: 6'
p244
sbag0
(g1
g2
(lp245
g0
(g1
g2
(lp246
Vthe guy
p247
atp248
Rp249
(dp250
g11
S'start: 3'
p251
sbatp252
Rp253
(dp254
g11
S'sent: 9'
p255
sbag0
(g1
g2
(lp256
g0
(g1
g2
(lp257
Vhe
p258
atp259
Rp260
(dp261
g11
S'start: 8'
p262
sbatp263
Rp264
(dp265
g11
S'sent: 9'
p266
sbag0
(g1
g2
(lp267
g0
(g1
g2
(lp268
Vhe
p269
atp270
Rp271
(dp272
g11
S'start: 12'
p273
sbatp274
Rp275
(dp276
g11
S'sent: 9'
p277
sbag0
(g1
g2
(lp278
g0
(g1
g2
(lp279
Vhe
p280
atp281
Rp282
(dp283
g11
S'start: 15'
p284
sbatp285
Rp286
(dp287
g11
S'sent: 9'
p288
sbag0
(g1
g2
(lp289
g0
(g1
g2
(lp290
Vthe guy
p291
atp292
Rp293
(dp294
g11
S'start: 3'
p295
sbatp296
Rp297
(dp298
g11
S'sent: 10'
p299
sbag0
(g1
g2
(lp300
g0
(g1
g2
(lp301
Vhe
p302
atp303
Rp304
(dp305
g11
S'start: 15'
p306
sbatp307
Rp308
(dp309
g11
S'sent: 10'
p310
sbag0
(g1
g2
(lp311
g0
(g1
g2
(lp312
Vhe
p313
atp314
Rp315
(dp316
g11
S'start: 18'
p317
sbatp318
Rp319
(dp320
g11
S'sent: 10'
p321
sbag0
(g1
g2
(lp322
g0
(g1
g2
(lp323
Vhe
p324
atp325
Rp326
(dp327
g11
S'start: 19'
p328
sbatp329
Rp330
(dp331
g11
S'sent: 10'
p332
sbag0
(g1
g2
(lp333
g0
(g1
g2
(lp334
Vhim
p335
atp336
Rp337
(dp338
g11
S'start: 24'
p339
sbatp340
Rp341
(dp342
g11
S'sent: 10'
p343
sbag0
(g1
g2
(lp344
g0
(g1
g2
(lp345
Vhe
p346
atp347
Rp348
(dp349
g11
S'start: 33'
p350
sbatp351
Rp352
(dp353
g11
S'sent: 10'
p354
sbag0
(g1
g2
(lp355
g0
(g1
g2
(lp356
Vya
p357
atp358
Rp359
(dp360
g11
S'start: 40'
p361
sbatp362
Rp363
(dp364
g11
S'sent: 10'
p365
sbag0
(g1
g2
(lp366
g0
(g1
g2
(lp367
VHe
p368
atp369
Rp370
(dp371
g11
S'start: 1'
p372
sbatp373
Rp374
(dp375
g11
S'sent: 11'
p376
sbag0
(g1
g2
(lp377
g0
(g1
g2
(lp378
Vhe
p379
atp380
Rp381
(dp382
g11
S'start: 5'
p383
sbatp384
Rp385
(dp386
g11
S'sent: 11'
p387
sbag0
(g1
g2
(lp388
g0
(g1
g2
(lp389
Vhe
p390
atp391
Rp392
(dp393
g11
S'start: 9'
p394
sbatp395
Rp396
(dp397
g11
S'sent: 12'
p398
sbag0
(g1
g2
(lp399
g0
(g1
g2
(lp400
Vhim that way
p401
atp402
Rp403
(dp404
g11
S'start: 17'
p405
sbatp406
Rp407
(dp408
g11
S'sent: 12'
p409
sbatp410
Rp411
(dp412
g11
S'id: 26'
p413
sbag0
(g1
g2
(lp414
g0
(g1
g2
(lp415
g0
(g1
g2
(lp416
VI
p417
atp418
Rp419
(dp420
g11
S'start: 1'
p421
sbatp422
Rp423
(dp424
g11
S'sent: 5'
p425
sbag0
(g1
g2
(lp426
g0
(g1
g2
(lp427
VI
p428
atp429
Rp430
(dp431
g11
S'start: 1'
p432
sbatp433
Rp434
(dp435
g11
S'sent: 6'
p436
sbag0
(g1
g2
(lp437
g0
(g1
g2
(lp438
VI
p439
atp440
Rp441
(dp442
g11
S'start: 27'
p443
sbatp444
Rp445
(dp446
g11
S'sent: 10'
p447
sbag0
(g1
g2
(lp448
g0
(g1
g2
(lp449
VI
p450
atp451
Rp452
(dp453
g11
S'start: 14'
p454
sbatp455
Rp456
(dp457
g11
S'sent: 11'
p458
sbatp459
Rp460
(dp461
g11
S'id: 33'
p462
sbag0
(g1
g2
(lp463
g0
(g1
g2
(lp464
g0
(g1
g2
(lp465
Vneither
p466
atp467
Rp468
(dp469
g11
S'start: 5'
p470
sbatp471
Rp472
(dp473
g11
S'sent: 5'
p474
sbag0
(g1
g2
(lp475
g0
(g1
g2
(lp476
Vthey
p477
atp478
Rp479
(dp480
g11
S'start: 8'
p481
sbatp482
Rp483
(dp484
g11
S'sent: 5'
p485
sbag0
(g1
g2
(lp486
g0
(g1
g2
(lp487
Vthey
p488
atp489
Rp490
(dp491
g11
S'start: 2'
p492
sbatp493
Rp494
(dp495
g11
S'sent: 7'
p496
sbatp497
Rp498
(dp499
g11
S'id: 34'
p500
sbag0
(g1
g2
(lp501
g0
(g1
g2
(lp502
g0
(g1
g2
(lp503
Vbi-racial
p504
atp505
Rp506
(dp507
g11
S'start: 11'
p508
sbatp509
Rp510
(dp511
g11
S'sent: 6'
p512
sbag0
(g1
g2
(lp513
g0
(g1
g2
(lp514
Vshe
p515
atp516
Rp517
(dp518
g11
S'start: 15'
p519
sbatp520
Rp521
(dp522
g11
S'sent: 6'
p523
sbag0
(g1
g2
(lp524
g0
(g1
g2
(lp525
Vshe
p526
atp527
Rp528
(dp529
g11
S'start: 7'
p530
sbatp531
Rp532
(dp533
g11
S'sent: 7'
p534
sbatp535
Rp536
(dp537
g11
S'id: 40'
p538
sbag0
(g1
g2
(lp539
g0
(g1
g2
(lp540
g0
(g1
g2
(lp541
Vthe lady on the horse
p542
atp543
Rp544
(dp545
g11
S'start: 2'
p546
sbatp547
Rp548
(dp549
g11
S'sent: 8'
p550
sbag0
(g1
g2
(lp551
g0
(g1
g2
(lp552
Vshe
p553
atp554
Rp555
(dp556
g11
S'start: 10'
p557
sbatp558
Rp559
(dp560
g11
S'sent: 8'
p561
sbag0
(g1
g2
(lp562
g0
(g1
g2
(lp563
Vshe
p564
atp565
Rp566
(dp567
g11
S'start: 12'
p568
sbatp569
Rp570
(dp571
g11
S'sent: 8'
p572
sbag0
(g1
g2
(lp573
g0
(g1
g2
(lp574
Vshe
p575
atp576
Rp577
(dp578
g11
S'start: 15'
p579
sbatp580
Rp581
(dp582
g11
S'sent: 8'
p583
sbag0
(g1
g2
(lp584
g0
(g1
g2
(lp585
Vher
p586
atp587
Rp588
(dp589
g11
S'start: 18'
p590
sbatp591
Rp592
(dp593
g11
S'sent: 8'
p594
sbag0
(g1
g2
(lp595
g0
(g1
g2
(lp596
Vshe
p597
atp598
Rp599
(dp600
g11
S'start: 22'
p601
sbatp602
Rp603
(dp604
g11
S'sent: 8'
p605
sbag0
(g1
g2
(lp606
g0
(g1
g2
(lp607
Vshe
p608
atp609
Rp610
(dp611
g11
S'start: 25'
p612
sbatp613
Rp614
(dp615
g11
S'sent: 8'
p616
sbatp617
Rp618
(dp619
g11
S'id: 44'
p620
sbag0
(g1
g2
(lp621
g0
(g1
g2
(lp622
g0
(g1
g2
(lp623
Vthe lion
p624
atp625
Rp626
(dp627
g11
S'start: 6'
p628
sbatp629
Rp630
(dp631
g11
S'sent: 10'
p632
sbag0
(g1
g2
(lp633
g0
(g1
g2
(lp634
Vthe lion 's
p635
atp636
Rp637
(dp638
g11
S'start: 10'
p639
sbatp640
Rp641
(dp642
g11
S'sent: 10'
p643
sbag0
(g1
g2
(lp644
g0
(g1
g2
(lp645
Vthat
p646
atp647
Rp648
(dp649
g11
S'start: 11'
p650
sbatp651
Rp652
(dp653
g11
S'sent: 11'
p654
sbag0
(g1
g2
(lp655
g0
(g1
g2
(lp656
Vit
p657
atp658
Rp659
(dp660
g11
S'start: 18'
p661
sbatp662
Rp663
(dp664
g11
S'sent: 11'
p665
sbag0
(g1
g2
(lp666
g0
(g1
g2
(lp667
Vthat
p668
atp669
Rp670
(dp671
g11
S'start: 3'
p672
sbatp673
Rp674
(dp675
g11
S'sent: 12'
p676
sbag0
(g1
g2
(lp677
g0
(g1
g2
(lp678
Vthat
p679
atp680
Rp681
(dp682
g11
S'start: 12'
p683
sbatp684
Rp685
(dp686
g11
S'sent: 12'
p687
sbatp688
Rp689
(dp690
g11
S'id: 59'
p691
sbag0
(g1
g2
(lp692
g0
(g1
g2
(lp693
g0
(g1
g2
(lp694
Va
p695
atp696
Rp697
(dp698
g11
S'start: 37'
p699
sbatp700
Rp701
(dp702
g11
S'sent: 10'
p703
sbag0
(g1
g2
(lp704
g0
(g1
g2
(lp705
Va whip
p706
atp707
Rp708
(dp709
g11
S'start: 45'
p710
sbatp711
Rp712
(dp713
g11
S'sent: 10'
p714
sbatp715
Rp716
(dp717
g11
S'id: 69'
p718
sbag0
(g1
g2
(lp719
g0
(g1
g2
(lp720
g0
(g1
g2
(lp721
Vand
p722
atp723
Rp724
(dp725
g11
S'start: 2'
p726
sbatp727
Rp728
(dp729
g11
S'sent: 13'
p730
sbag0
(g1
g2
(lp731
g0
(g1
g2
(lp732
Vthey
p733
atp734
Rp735
(dp736
g11
S'start: 8'
p737
sbatp738
Rp739
(dp740
g11
S'sent: 13'
p741
sbatp742
Rp743
(dp744
g11
S'id: 83'
p745
sbag0
(g1
g2
(lp746
g0
(g1
g2
(lp747
g0
(g1
g2
(lp748
VSo this
p749
atp750
Rp751
(dp752
g11
S'start: 1'
p753
sbatp754
Rp755
(dp756
g11
S'sent: 14'
p757
sbag0
(g1
g2
(lp758
g0
(g1
g2
(lp759
Van outside circus
p760
atp761
Rp762
(dp763
g11
S'start: 4'
p764
sbatp765
Rp766
(dp767
g11
S'sent: 14'
p768
sbatp769
Rp770
(dp771
g11
S'id: 86'
p772
sbatp773
Rp774
(dp775
g11
S'coreferences'
p776
sb.