ccopy_reg
_reconstructor
p0
(cnltk.tree
Tree
p1
c__builtin__
list
p2
(lp3
g0
(g1
g2
(lp4
g0
(g1
g2
(lp5
g0
(g1
g2
(lp6
g0
(g1
g2
(lp7
g0
(g1
g2
(lp8
(lp9
S'word: the, index: 1'
p10
aatp11
Rp12
(dp13
S'_label'
p14
Vdet
p15
sbatp16
Rp17
(dp18
g14
S'word: boy, index: 2'
p19
sbatp20
Rp21
(dp22
g14
Vnsubj
p23
sbag0
(g1
g2
(lp24
(lp25
S'word: is, index: 3'
p26
aatp27
Rp28
(dp29
g14
Vaux
p30
sbag0
(g1
g2
(lp31
g0
(g1
g2
(lp32
g0
(g1
g2
(lp33
(lp34
S'word: the, index: 5'
p35
aatp36
Rp37
(dp38
g14
Vdet
p39
sbatp40
Rp41
(dp42
g14
S'word: kite, index: 6'
p43
sbatp44
Rp45
(dp46
g14
Vdobj
p47
sbatp48
Rp49
(dp50
g14
S'word: flying, index: 4'
p51
sbatp52
Rp53
(dp54
g14
S'id: 0'
p55
sbag0
(g1
g2
(lp56
g0
(g1
g2
(lp57
g0
(g1
g2
(lp58
(lp59
S'word: is, index: 3'
p60
aatp61
Rp62
(dp63
g14
Vcop
p64
sbag0
(g1
g2
(lp65
g0
(g1
g2
(lp66
g0
(g1
g2
(lp67
(lp68
S'word: the, index: 1'
p69
aatp70
Rp71
(dp72
g14
Vdet
p73
sbatp74
Rp75
(dp76
g14
S'word: man, index: 2'
p77
sbatp78
Rp79
(dp80
g14
Vnsubj
p81
sbatp82
Rp83
(dp84
g14
S'word: fishing, index: 4'
p85
sbatp86
Rp87
(dp88
g14
S'id: 1'
p89
sbag0
(g1
g2
(lp90
g0
(g1
g2
(lp91
g0
(g1
g2
(lp92
g0
(g1
g2
(lp93
g0
(g1
g2
(lp94
(lp95
S'word: a, index: 6'
p96
aatp97
Rp98
(dp99
g14
Vdet
p100
sbatp101
Rp102
(dp103
g14
S'word: sandcastle, index: 7'
p104
sbatp105
Rp106
(dp107
g14
Vdobj
p108
sbag0
(g1
g2
(lp109
g0
(g1
g2
(lp110
g0
(g1
g2
(lp111
(lp112
S'word: the, index: 1'
p113
aatp114
Rp115
(dp116
g14
Vdet
p117
sbag0
(g1
g2
(lp118
(lp119
S'word: little, index: 2'
p120
aatp121
Rp122
(dp123
g14
Vamod
p124
sbatp125
Rp126
(dp127
g14
S'word: girl, index: 3'
p128
sbatp129
Rp130
(dp131
g14
Vnsubj
p132
sbag0
(g1
g2
(lp133
(lp134
S'word: is, index: 4'
p135
aatp136
Rp137
(dp138
g14
Vaux
p139
sbatp140
Rp141
(dp142
g14
S'word: making, index: 5'
p143
sbatp144
Rp145
(dp146
g14
S'id: 2'
p147
sbag0
(g1
g2
(lp148
g0
(g1
g2
(lp149
g0
(g1
g2
(lp150
g0
(g1
g2
(lp151
g0
(g1
g2
(lp152
(lp153
S'word: the, index: 1'
p154
aatp155
Rp156
(dp157
g14
Vdet
p158
sbatp159
Rp160
(dp161
g14
S'word: woman, index: 2'
p162
sbatp163
Rp164
(dp165
g14
Vnsubj
p166
sbag0
(g1
g2
(lp167
(lp168
S'word: is, index: 3'
p169
aatp170
Rp171
(dp172
g14
Vaux
p173
sbag0
(g1
g2
(lp174
g0
(g1
g2
(lp175
g0
(g1
g2
(lp176
(lp177
S'word: some, index: 5'
p178
aatp179
Rp180
(dp181
g14
Vdet
p182
sbatp183
Rp184
(dp185
g14
S'word: wine, index: 6'
p186
sbatp187
Rp188
(dp189
g14
Vdobj
p190
sbatp191
Rp192
(dp193
g14
S'word: pouring, index: 4'
p194
sbatp195
Rp196
(dp197
g14
S'id: 3'
p198
sbag0
(g1
g2
(lp199
g0
(g1
g2
(lp200
g0
(g1
g2
(lp201
g0
(g1
g2
(lp202
g0
(g1
g2
(lp203
(lp204
S'word: the, index: 1'
p205
aatp206
Rp207
(dp208
g14
Vdet
p209
sbatp210
Rp211
(dp212
g14
S'word: dad, index: 2'
p213
sbatp214
Rp215
(dp216
g14
Vnsubj
p217
sbag0
(g1
g2
(lp218
(lp219
S'word: is, index: 3'
p220
aatp221
Rp222
(dp223
g14
Vaux
p224
sbatp225
Rp226
(dp227
g14
S'word: reading, index: 4'
p228
sbatp229
Rp230
(dp231
g14
S'id: 4'
p232
sbag0
(g1
g2
(lp233
g0
(g1
g2
(lp234
g0
(g1
g2
(lp235
g0
(g1
g2
(lp236
g0
(g1
g2
(lp237
(lp238
S'word: the, index: 1'
p239
aatp240
Rp241
(dp242
g14
Vdet
p243
sbatp244
Rp245
(dp246
g14
S'word: daddy, index: 2'
p247
sbatp248
Rp249
(dp250
g14
Vnsubj
p251
sbag0
(g1
g2
(lp252
g0
(g1
g2
(lp253
g0
(g1
g2
(lp254
(lp255
S'word: his, index: 4'
p256
aatp257
Rp258
(dp259
g14
Vposs
p260
sbatp261
Rp262
(dp263
g14
S'word: sandals, index: 5'
p264
sbatp265
Rp266
(dp267
g14
Vdobj
p268
sbag0
(g1
g2
(lp269
(lp270
S'word: off, index: 6'
p271
aatp272
Rp273
(dp274
g14
Vprep
p275
sbatp276
Rp277
(dp278
g14
S'word: has, index: 3'
p279
sbatp280
Rp281
(dp282
g14
S'id: 5'
p283
sbag0
(g1
g2
(lp284
g0
(g1
g2
(lp285
g0
(g1
g2
(lp286
g0
(g1
g2
(lp287
g0
(g1
g2
(lp288
(lp289
S'word: the, index: 1'
p290
aatp291
Rp292
(dp293
g14
Vdet
p294
sbatp295
Rp296
(dp297
g14
S'word: dog, index: 2'
p298
sbatp299
Rp300
(dp301
g14
Vnsubj
p302
sbag0
(g1
g2
(lp303
(lp304
S'word: is, index: 3'
p305
aatp306
Rp307
(dp308
g14
Vaux
p309
sbag0
(g1
g2
(lp310
g0
(g1
g2
(lp311
g0
(g1
g2
(lp312
(lp313
S'word: the, index: 5'
p314
aatp315
Rp316
(dp317
g14
Vdet
p318
sbag0
(g1
g2
(lp319
(lp320
S'word: little, index: 6'
p321
aatp322
Rp323
(dp324
g14
Vamod
p325
sbatp326
Rp327
(dp328
g14
S'word: boy, index: 7'
p329
sbatp330
Rp331
(dp332
g14
Vdobj
p333
sbatp334
Rp335
(dp336
g14
S'word: chasing, index: 4'
p337
sbatp338
Rp339
(dp340
g14
S'id: 6'
p341
sbag0
(g1
g2
(lp342
g0
(g1
g2
(lp343
g0
(g1
g2
(lp344
g0
(g1
g2
(lp345
g0
(g1
g2
(lp346
g0
(g1
g2
(lp347
g0
(g1
g2
(lp348
(lp349
S'word: the, index: 5'
p350
aatp351
Rp352
(dp353
g14
Vdet
p354
sbag0
(g1
g2
(lp355
(lp356
S'word: sail, index: 6'
p357
aatp358
Rp359
(dp360
g14
Vnn
p361
sbag0
(g1
g2
(lp362
(lp363
S'word: boat, index: 9'
p364
aatp365
Rp366
(dp367
g14
Vappos
p368
sbatp369
Rp370
(dp371
g14
S'word: boot, index: 7'
p372
sbatp373
Rp374
(dp375
g14
Vnsubj
p376
sbag0
(g1
g2
(lp377
g0
(g1
g2
(lp378
g0
(g1
g2
(lp379
(lp380
S'word: to, index: 12'
p381
aatp382
Rp383
(dp384
g14
Vaux
p385
sbatp386
Rp387
(dp388
g14
S'word: say, index: 13'
p389
sbatp390
Rp391
(dp392
g14
Vxcomp
p393
sbag0
(g1
g2
(lp394
(lp395
S'word: in, index: 4'
p396
aatp397
Rp398
(dp399
g14
Vmark
p400
sbatp401
Rp402
(dp403
g14
S'word: meant, index: 11'
p404
sbatp405
Rp406
(dp407
g14
Vadvcl
p408
sbag0
(g1
g2
(lp409
g0
(g1
g2
(lp410
g0
(g1
g2
(lp411
(lp412
S'word: the, index: 1'
p413
aatp414
Rp415
(dp416
g14
Vdet
p417
sbatp418
Rp419
(dp420
g14
S'word: peoples, index: 2'
p421
sbatp422
Rp423
(dp424
g14
Vnsubj
p425
sbatp426
Rp427
(dp428
g14
S'word: are, index: 3'
p429
sbatp430
Rp431
(dp432
g14
S'id: 7'
p433
sbag0
(g1
g2
(lp434
g0
(g1
g2
(lp435
g0
(g1
g2
(lp436
g0
(g1
g2
(lp437
g0
(g1
g2
(lp438
(lp439
S'word: the, index: 9'
p440
aatp441
Rp442
(dp443
g14
Vdet
p444
sbatp445
Rp446
(dp447
g14
S'word: house, index: 10'
p448
sbatp449
Rp450
(dp451
g14
Vprep
p452
sbag0
(g1
g2
(lp453
(lp454
S'word: and, index: 1'
p455
aatp456
Rp457
(dp458
g14
Vcc
p459
sbag0
(g1
g2
(lp460
g0
(g1
g2
(lp461
g0
(g1
g2
(lp462
(lp463
S'word: the, index: 2'
p464
aatp465
Rp466
(dp467
g14
Vdet
p468
sbatp469
Rp470
(dp471
g14
S'word: car, index: 3'
p472
sbatp473
Rp474
(dp475
g14
Vnsubjpass
p476
sbag0
(g1
g2
(lp477
(lp478
S'word: is, index: 4'
p479
aatp480
Rp481
(dp482
g14
Vauxpass
p483
sbatp484
Rp485
(dp486
g14
S'word: parked, index: 5'
p487
sbatp488
Rp489
(dp490
g14
S'id: 8'
p491
sbag0
(g1
g2
(lp492
g0
(g1
g2
(lp493
g0
(g1
g2
(lp494
g0
(g1
g2
(lp495
g0
(g1
g2
(lp496
(lp497
S'word: the, index: 1'
p498
aatp499
Rp500
(dp501
g14
Vdet
p502
sbatp503
Rp504
(dp505
g14
S'word: people, index: 2'
p506
sbatp507
Rp508
(dp509
g14
Vnsubj
p510
sbag0
(g1
g2
(lp511
(lp512
S'word: are, index: 3'
p513
aatp514
Rp515
(dp516
g14
Vaux
p517
sbag0
(g1
g2
(lp518
g0
(g1
g2
(lp519
g0
(g1
g2
(lp520
(lp521
S'word: some, index: 6'
p522
aatp523
Rp524
(dp525
g14
Vdet
p526
sbatp527
Rp528
(dp529
g14
S'word: music, index: 7'
p530
sbatp531
Rp532
(dp533
g14
Vprep
p534
sbatp535
Rp536
(dp537
g14
S'word: listing, index: 4'
p538
sbatp539
Rp540
(dp541
g14
S'id: 9'
p542
sbag0
(g1
g2
(lp543
g0
(g1
g2
(lp544
g0
(g1
g2
(lp545
(lp546
S'word: me, index: 2'
p547
aatp548
Rp549
(dp550
g14
Vdobj
p551
sbag0
(g1
g2
(lp552
g0
(g1
g2
(lp553
g0
(g1
g2
(lp554
g0
(g1
g2
(lp555
g0
(g1
g2
(lp556
(lp557
S'word: what, index: 5'
p558
aatp559
Rp560
(dp561
g14
Vdep
p562
sbatp563
Rp564
(dp565
g14
S'word: else, index: 6'
p566
sbatp567
Rp568
(dp569
g14
Vdep
p570
sbatp571
Rp572
(dp573
g14
S'word: see, index: 3'
p574
sbatp575
Rp576
(dp577
g14
Vdep
p578
sbatp579
Rp580
(dp581
g14
S'word: let, index: 1'
p582
sbatp583
Rp584
(dp585
g14
S'id: 10'
p586
sbag0
(g1
g2
(lp587
g0
(g1
g2
(lp588
g0
(g1
g2
(lp589
(lp590
S'word: the, index: 2'
p591
aatp592
Rp593
(dp594
g14
Vdet
p595
sbag0
(g1
g2
(lp596
g0
(g1
g2
(lp597
g0
(g1
g2
(lp598
(lp599
S'word: the, index: 5'
p600
aatp601
Rp602
(dp603
g14
Vdet
p604
sbag0
(g1
g2
(lp605
g0
(g1
g2
(lp606
g0
(g1
g2
(lp607
(lp608
S'word: the, index: 8'
p609
aatp610
Rp611
(dp612
g14
Vdet
p613
sbatp614
Rp615
(dp616
g14
S'word: children, index: 9'
p617
sbatp618
Rp619
(dp620
g14
Vconj
p621
sbatp622
Rp623
(dp624
g14
S'word: mama, index: 6'
p625
sbatp626
Rp627
(dp628
g14
Vconj
p629
sbag0
(g1
g2
(lp630
g615
atp631
Rp632
(dp633
g14
Vconj
p634
sbag0
(g1
g2
(lp635
g0
(g1
g2
(lp636
g0
(g1
g2
(lp637
g0
(g1
g2
(lp638
g0
(g1
g2
(lp639
(lp640
S'word: the, index: 11'
p641
aatp642
Rp643
(dp644
g14
Vdet
p645
sbag0
(g1
g2
(lp646
(lp647
S"word: 's, index: 13"
p648
aatp649
Rp650
(dp651
g14
Vpossessive
p652
sbatp653
Rp654
(dp655
g14
S'word: family, index: 12'
p656
sbatp657
Rp658
(dp659
g14
Vnsubj
p660
sbag0
(g1
g2
(lp661
(lp662
S'word: lunch, index: 15'
p663
aatp664
Rp665
(dp666
g14
Vdobj
p667
sbatp668
Rp669
(dp670
g14
S'word: having, index: 14'
p671
sbatp672
Rp673
(dp674
g14
Vparataxis
p675
sbatp676
Rp677
(dp678
g14
S'word: daddy, index: 3'
p679
sbatp680
Rp681
(dp682
g14
S'id: 11'
p683
sbag0
(g1
g2
(lp684
g0
(g1
g2
(lp685
g0
(g1
g2
(lp686
(lp687
S'word: a, index: 4'
p688
aatp689
Rp690
(dp691
g14
Vdet
p692
sbag0
(g1
g2
(lp693
(lp694
S'word: sunny, index: 5'
p695
aatp696
Rp697
(dp698
g14
Vamod
p699
sbag0
(g1
g2
(lp700
g0
(g1
g2
(lp701
g0
(g1
g2
(lp702
(lp703
S'word: there, index: 8'
p704
aatp705
Rp706
(dp707
g14
Vpobj
p708
sbatp709
Rp710
(dp711
g14
S'word: out, index: 7'
p712
sbatp713
Rp714
(dp715
g14
Vprep
p716
sbag0
(g1
g2
(lp717
(lp718
S'word: and, index: 1'
p719
aatp720
Rp721
(dp722
g14
Vcc
p723
sbag0
(g1
g2
(lp724
(lp725
S'word: it, index: 2'
p726
aatp727
Rp728
(dp729
g14
Vnsubj
p730
sbag0
(g1
g2
(lp731
(lp732
S"word: 's, index: 3"
p733
aatp734
Rp735
(dp736
g14
Vcop
p737
sbatp738
Rp739
(dp740
g14
S'word: day, index: 6'
p741
sbatp742
Rp743
(dp744
g14
S'id: 12'
p745
sbag0
(g1
g2
(lp746
g0
(g1
g2
(lp747
g0
(g1
g2
(lp748
g0
(g1
g2
(lp749
g0
(g1
g2
(lp750
(lp751
S'word: a, index: 8'
p752
aatp753
Rp754
(dp755
g14
Vdet
p756
sbag0
(g1
g2
(lp757
(lp758
S'word: flag, index: 9'
p759
aatp760
Rp761
(dp762
g14
Vnn
p763
sbatp764
Rp765
(dp766
g14
S'word: outside, index: 10'
p767
sbatp768
Rp769
(dp770
g14
Vdobj
p771
sbag0
(g1
g2
(lp772
(lp773
S'word: and, index: 1'
p774
aatp775
Rp776
(dp777
g14
Vcc
p778
sbag0
(g1
g2
(lp779
(lp780
S'word: and, index: 3'
p781
aatp782
Rp783
(dp784
g14
Vcc
p785
sbag0
(g1
g2
(lp786
(lp787
S'word: the, index: 4'
p788
aatp789
Rp790
(dp791
g14
Vadvmod
p792
sbag0
(g1
g2
(lp793
(lp794
S'word: it, index: 6'
p795
aatp796
Rp797
(dp798
g14
Vnsubj
p799
sbatp800
Rp801
(dp802
g14
S'word: has, index: 7'
p803
sbatp804
Rp805
(dp806
g14
S'id: 13'
p807
sbag0
(g1
g2
(lp808
g0
(g1
g2
(lp809
g0
(g1
g2
(lp810
(lp811
S'word: And, index: 1'
p812
aatp813
Rp814
(dp815
g14
Vcc
p816
sbag0
(g1
g2
(lp817
(lp818
S'word: what, index: 2'
p819
aatp820
Rp821
(dp822
g14
Vdep
p823
sbatp824
Rp825
(dp826
g14
S'word: else, index: 3'
p827
sbatp828
Rp829
(dp830
g14
S'id: 14'
p831
sbag0
(g1
g2
(lp832
g0
(g1
g2
(lp833
g0
(g1
g2
(lp834
g0
(g1
g2
(lp835
g0
(g1
g2
(lp836
g0
(g1
g2
(lp837
g0
(g1
g2
(lp838
(lp839
S'word: the, index: 1'
p840
aatp841
Rp842
(dp843
g14
Vdet
p844
sbatp845
Rp846
(dp847
g14
S'word: man, index: 2'
p848
sbatp849
Rp850
(dp851
g14
Vnsubjpass
p852
sbag0
(g1
g2
(lp853
(lp854
S'word: is, index: 3'
p855
aatp856
Rp857
(dp858
g14
Vauxpass
p859
sbag0
(g1
g2
(lp860
g0
(g1
g2
(lp861
g0
(g1
g2
(lp862
(lp863
S'word: the, index: 5'
p864
aatp865
Rp866
(dp867
g14
Vdet
p868
sbatp869
Rp870
(dp871
g14
S'word: fish, index: 6'
p872
sbatp873
Rp874
(dp875
g14
Vdobj
p876
sbatp877
Rp878
(dp879
g14
S'word: caught, index: 4'
p880
sbatp881
Rp882
(dp883
g14
Vccomp
p884
sbag0
(g1
g2
(lp885
(lp886
S'word: he, index: 8'
p887
aatp888
Rp889
(dp890
g14
Vnsubj
p891
sbag0
(g1
g2
(lp892
(lp893
S"word: 's, index: 9"
p894
aatp895
Rp896
(dp897
g14
Vaux
p898
sbag0
(g1
g2
(lp899
(lp900
S'word: it, index: 11'
p901
aatp902
Rp903
(dp904
g14
Vdobj
p905
sbag0
(g1
g2
(lp906
(lp907
S'word: in, index: 12'
p908
aatp909
Rp910
(dp911
g14
Vprep
p912
sbatp913
Rp914
(dp915
g14
S'word: pulling, index: 10'
p916
sbatp917
Rp918
(dp919
g14
S'id: 15'
p920
sbag0
(g1
g2
(lp921
g0
(g1
g2
(lp922
g0
(g1
g2
(lp923
(lp924
S'word: And, index: 1'
p925
aatp926
Rp927
(dp928
g14
Vcc
p929
sbag0
(g1
g2
(lp930
g0
(g1
g2
(lp931
g0
(g1
g2
(lp932
(lp933
S'word: the, index: 2'
p934
aatp935
Rp936
(dp937
g14
Vdet
p938
sbag0
(g1
g2
(lp939
(lp940
S'word: little, index: 3'
p941
aatp942
Rp943
(dp944
g14
Vamod
p945
sbatp946
Rp947
(dp948
g14
S'word: girl, index: 4'
p949
sbatp950
Rp951
(dp952
g14
Vnsubj
p953
sbag0
(g1
g2
(lp954
(lp955
S'word: is, index: 5'
p956
aatp957
Rp958
(dp959
g14
Vcop
p960
sbag0
(g1
g2
(lp961
(lp962
S'word: digging, index: 6'
p963
aatp964
Rp965
(dp966
g14
Vnn
p967
sbag0
(g1
g2
(lp968
g0
(g1
g2
(lp969
g0
(g1
g2
(lp970
(lp971
S'word: the, index: 9'
p972
aatp973
Rp974
(dp975
g14
Vdet
p976
sbatp977
Rp978
(dp979
g14
S'word: shovel, index: 10'
p980
sbatp981
Rp982
(dp983
g14
Vprep
p984
sbatp985
Rp986
(dp987
g14
S'word: dirt, index: 7'
p988
sbatp989
Rp990
(dp991
g14
S'id: 16'
p992
sbag0
(g1
g2
(lp993
g0
(g1
g2
(lp994
g0
(g1
g2
(lp995
(lp996
S'word: they, index: 1'
p997
aatp998
Rp999
(dp1000
g14
Vnsubj
p1001
sbatp1002
Rp1003
(dp1004
g14
S'word: had, index: 2'
p1005
sbatp1006
Rp1007
(dp1008
g14
S'id: 17'
p1009
sbag0
(g1
g2
(lp1010
g0
(g1
g2
(lp1011
g0
(g1
g2
(lp1012
g0
(g1
g2
(lp1013
g0
(g1
g2
(lp1014
(lp1015
S'word: black, index: 9'
p1016
aatp1017
Rp1018
(dp1019
g14
Vconj
p1020
sbatp1021
Rp1022
(dp1023
g14
S'word: green, index: 6'
p1024
sbatp1025
Rp1026
(dp1027
g14
Vamod
p1028
sbag0
(g1
g2
(lp1029
(lp1030
S'word: black, index: 9'
p1031
aatp1032
Rp1033
(dp1034
g14
Vamod
p1035
sbag0
(g1
g2
(lp1036
g0
(g1
g2
(lp1037
g0
(g1
g2
(lp1038
(lp1039
S'word: no, index: 11'
p1040
aatp1041
Rp1042
(dp1043
g14
Vneg
p1044
sbag0
(g1
g2
(lp1045
g0
(g1
g2
(lp1046
g0
(g1
g2
(lp1047
(lp1048
S'word: white, index: 16'
p1049
aatp1050
Rp1051
(dp1052
g14
Vconj
p1053
sbatp1054
Rp1055
(dp1056
g14
S'word: red, index: 14'
p1057
sbatp1058
Rp1059
(dp1060
g14
Vconj
p1061
sbag0
(g1
g2
(lp1062
(lp1063
S'word: white, index: 16'
p1064
aatp1065
Rp1066
(dp1067
g14
Vconj
p1068
sbag0
(g1
g2
(lp1069
(lp1070
S'word: blue, index: 19'
p1071
aatp1072
Rp1073
(dp1074
g14
Vconj
p1075
sbatp1076
Rp1077
(dp1078
g14
S'word: yellow, index: 12'
p1079
sbatp1080
Rp1081
(dp1082
g14
Vamod
p1083
sbag0
(g1
g2
(lp1084
g1055
atp1085
Rp1086
(dp1087
g14
Vamod
p1088
sbag0
(g1
g2
(lp1089
g0
(g1
g2
(lp1090
g0
(g1
g2
(lp1091
(lp1092
S'word: the, index: 1'
p1093
aatp1094
Rp1095
(dp1096
g14
Vdet
p1097
sbatp1098
Rp1099
(dp1100
g14
S'word: kite, index: 2'
p1101
sbatp1102
Rp1103
(dp1104
g14
Vnsubj
p1105
sbag0
(g1
g2
(lp1106
(lp1107
S'word: is, index: 3'
p1108
aatp1109
Rp1110
(dp1111
g14
Vcop
p1112
sbag0
(g1
g2
(lp1113
(lp1114
S'word: blue, index: 19'
p1115
aatp1116
Rp1117
(dp1118
g14
Vamod
p1119
sbatp1120
Rp1121
(dp1122
g14
S'word: yellow, index: 4'
p1123
sbatp1124
Rp1125
(dp1126
g14
S'id: 18'
p1127
sbag0
(g1
g2
(lp1128
g0
(g1
g2
(lp1129
g0
(g1
g2
(lp1130
(lp1131
S"word: 'm, index: 9"
p1132
aatp1133
Rp1134
(dp1135
g14
Vaux
p1136
sbag0
(g1
g2
(lp1137
(lp1138
S'word: just, index: 10'
p1139
aatp1140
Rp1141
(dp1142
g14
Vadvmod
p1143
sbag0
(g1
g2
(lp1144
g0
(g1
g2
(lp1145
g0
(g1
g2
(lp1146
(lp1147
S'word: it, index: 1'
p1148
aatp1149
Rp1150
(dp1151
g14
Vnsubjpass
p1152
sbag0
(g1
g2
(lp1153
(lp1154
S'word: ai, index: 2'
p1155
aatp1156
Rp1157
(dp1158
g14
Vauxpass
p1159
sbag0
(g1
g2
(lp1160
(lp1161
S"word: n't, index: 3"
p1162
aatp1163
Rp1164
(dp1165
g14
Vneg
p1166
sbag0
(g1
g2
(lp1167
g0
(g1
g2
(lp1168
g0
(g1
g2
(lp1169
(lp1170
S'word: no, index: 5'
p1171
aatp1172
Rp1173
(dp1174
g14
Vneg
p1175
sbatp1176
Rp1177
(dp1178
g14
S'word: color, index: 6'
p1179
sbatp1180
Rp1181
(dp1182
g14
Vdobj
p1183
sbatp1184
Rp1185
(dp1186
g14
S'word: got, index: 4'
p1187
sbatp1188
Rp1189
(dp1190
g14
Vccomp
p1191
sbag0
(g1
g2
(lp1192
(lp1193
S'word: I, index: 8'
p1194
aatp1195
Rp1196
(dp1197
g14
Vnsubj
p1198
sbatp1199
Rp1200
(dp1201
g14
S'word: pretending, index: 11'
p1202
sbatp1203
Rp1204
(dp1205
g14
S'id: 19'
p1206
sbatp1207
Rp1208
(dp1209
g14
S'sentences'
p1210
sb.