ccopy_reg
_reconstructor
p0
(cnltk.tree
Tree
p1
c__builtin__
list
p2
(lp3
g0
(g1
g2
(lp4
g0
(g1
g2
(lp5
g0
(g1
g2
(lp6
Vthe dishes
p7
atp8
Rp9
(dp10
S'_label'
p11
S'start: 5'
p12
sbatp13
Rp14
(dp15
g11
S'sent: 1'
p16
sbag0
(g1
g2
(lp17
g0
(g1
g2
(lp18
Vthe dishes
p19
atp20
Rp21
(dp22
g11
S'start: 10'
p23
sbatp24
Rp25
(dp26
g11
S'sent: 9'
p27
sbag0
(g1
g2
(lp28
g0
(g1
g2
(lp29
Vdishes
p30
atp31
Rp32
(dp33
g11
S'start: 5'
p34
sbatp35
Rp36
(dp37
g11
S'sent: 16'
p38
sbatp39
Rp40
(dp41
g11
S'id: 2'
p42
sbag0
(g1
g2
(lp43
g0
(g1
g2
(lp44
g0
(g1
g2
(lp45
Vthe little boy
p46
atp47
Rp48
(dp49
g11
S'start: 1'
p50
sbatp51
Rp52
(dp53
g11
S'sent: 2'
p54
sbag0
(g1
g2
(lp55
g0
(g1
g2
(lp56
Vthe little boy
p57
atp58
Rp59
(dp60
g11
S'start: 7'
p61
sbatp62
Rp63
(dp64
g11
S'sent: 3'
p65
sbag0
(g1
g2
(lp66
g0
(g1
g2
(lp67
Vhim
p68
atp69
Rp70
(dp71
g11
S'start: 12'
p72
sbatp73
Rp74
(dp75
g11
S'sent: 3'
p76
sbag0
(g1
g2
(lp77
g0
(g1
g2
(lp78
Vthe boy
p79
atp80
Rp81
(dp82
g11
S'start: 2'
p83
sbatp84
Rp85
(dp86
g11
S'sent: 6'
p87
sbag0
(g1
g2
(lp88
g0
(g1
g2
(lp89
Vthe little boy
p90
atp91
Rp92
(dp93
g11
S'start: 2'
p94
sbatp95
Rp96
(dp97
g11
S'sent: 13'
p98
sbatp99
Rp100
(dp101
g11
S'id: 3'
p102
sbag0
(g1
g2
(lp103
g0
(g1
g2
(lp104
g0
(g1
g2
(lp105
Vcookies
p106
atp107
Rp108
(dp109
g11
S'start: 6'
p110
sbatp111
Rp112
(dp113
g11
S'sent: 2'
p114
sbag0
(g1
g2
(lp115
g0
(g1
g2
(lp116
Vcookies
p117
atp118
Rp119
(dp120
g11
S'start: 17'
p121
sbatp122
Rp123
(dp124
g11
S'sent: 3'
p125
sbatp126
Rp127
(dp128
g11
S'id: 4'
p129
sbag0
(g1
g2
(lp130
g0
(g1
g2
(lp131
g0
(g1
g2
(lp132
Vthe little girl
p133
atp134
Rp135
(dp136
g11
S'start: 2'
p137
sbatp138
Rp139
(dp140
g11
S'sent: 3'
p141
sbag0
(g1
g2
(lp142
g0
(g1
g2
(lp143
Vher
p144
atp145
Rp146
(dp147
g11
S'start: 15'
p148
sbatp149
Rp150
(dp151
g11
S'sent: 3'
p152
sbag0
(g1
g2
(lp153
g0
(g1
g2
(lp154
Vthe little girl
p155
atp156
Rp157
(dp158
g11
S'start: 4'
p159
sbatp160
Rp161
(dp162
g11
S'sent: 14'
p163
sbatp164
Rp165
(dp166
g11
S'id: 5'
p167
sbag0
(g1
g2
(lp168
g0
(g1
g2
(lp169
g0
(g1
g2
(lp170
Vhand him
p171
atp172
Rp173
(dp174
g11
S'start: 11'
p175
sbatp176
Rp177
(dp178
g11
S'sent: 3'
p179
sbag0
(g1
g2
(lp180
g0
(g1
g2
(lp181
Vher some cookies
p182
atp183
Rp184
(dp185
g11
S'start: 15'
p186
sbatp187
Rp188
(dp189
g11
S'sent: 3'
p190
sbatp191
Rp192
(dp193
g11
S'id: 8'
p194
sbag0
(g1
g2
(lp195
g0
(g1
g2
(lp196
g0
(g1
g2
(lp197
Vthe floor
p198
atp199
Rp200
(dp201
g11
S'start: 11'
p202
sbatp203
Rp204
(dp205
g11
S'sent: 4'
p206
sbag0
(g1
g2
(lp207
g0
(g1
g2
(lp208
Vthe floor
p209
atp210
Rp211
(dp212
g11
S'start: 6'
p213
sbatp214
Rp215
(dp216
g11
S'sent: 8'
p217
sbatp218
Rp219
(dp220
g11
S'id: 15'
p221
sbag0
(g1
g2
(lp222
g0
(g1
g2
(lp223
g0
(g1
g2
(lp224
Vme
p225
atp226
Rp227
(dp228
g11
S'start: 3'
p229
sbatp230
Rp231
(dp232
g11
S'sent: 5'
p233
sbag0
(g1
g2
(lp234
g0
(g1
g2
(lp235
VI
p236
atp237
Rp238
(dp239
g11
S'start: 2'
p240
sbatp241
Rp242
(dp243
g11
S'sent: 7'
p244
sbag0
(g1
g2
(lp245
g0
(g1
g2
(lp246
Vthat
p247
atp248
Rp249
(dp250
g11
S'start: 4'
p251
sbatp252
Rp253
(dp254
g11
S'sent: 7'
p255
sbag0
(g1
g2
(lp256
g0
(g1
g2
(lp257
VI
p258
atp259
Rp260
(dp261
g11
S'start: 6'
p262
sbatp263
Rp264
(dp265
g11
S'sent: 9'
p266
sbag0
(g1
g2
(lp267
g0
(g1
g2
(lp268
VI
p269
atp270
Rp271
(dp272
g11
S'start: 1'
p273
sbatp274
Rp275
(dp276
g11
S'sent: 10'
p277
sbag0
(g1
g2
(lp278
g0
(g1
g2
(lp279
Vme
p280
atp281
Rp282
(dp283
g11
S'start: 3'
p284
sbatp285
Rp286
(dp287
g11
S'sent: 15'
p288
sbatp289
Rp290
(dp291
g11
S'id: 16'
p292
sbag0
(g1
g2
(lp293
g0
(g1
g2
(lp294
g0
(g1
g2
(lp295
Vwhat
p296
atp297
Rp298
(dp299
g11
S'start: 5'
p300
sbatp301
Rp302
(dp303
g11
S'sent: 5'
p304
sbag0
(g1
g2
(lp305
g0
(g1
g2
(lp306
Vwhat
p307
atp308
Rp309
(dp310
g11
S'start: 5'
p311
sbatp312
Rp313
(dp314
g11
S'sent: 15'
p315
sbatp316
Rp317
(dp318
g11
S'id: 17'
p319
sbag0
(g1
g2
(lp320
g0
(g1
g2
(lp321
g0
(g1
g2
(lp322
Vthe , the stool
p323
atp324
Rp325
(dp326
g11
S'start: 7'
p327
sbatp328
Rp329
(dp330
g11
S'sent: 6'
p331
sbag0
(g1
g2
(lp332
g0
(g1
g2
(lp333
Vthe
p334
atp335
Rp336
(dp337
g11
S'start: 7'
p338
sbatp339
Rp340
(dp341
g11
S'sent: 6'
p342
sbag0
(g1
g2
(lp343
g0
(g1
g2
(lp344
Vthe stool
p345
atp346
Rp347
(dp348
g11
S'start: 9'
p349
sbatp350
Rp351
(dp352
g11
S'sent: 6'
p353
sbag0
(g1
g2
(lp354
g0
(g1
g2
(lp355
Vit
p356
atp357
Rp358
(dp359
g11
S'start: 7'
p360
sbatp361
Rp362
(dp363
g11
S'sent: 7'
p364
sbag0
(g1
g2
(lp365
g0
(g1
g2
(lp366
Vthe
p367
atp368
Rp369
(dp370
g11
S'start: 2'
p371
sbatp372
Rp373
(dp374
g11
S'sent: 14'
p375
sbatp376
Rp377
(dp378
g11
S'id: 19'
p379
sbag0
(g1
g2
(lp380
g0
(g1
g2
(lp381
g0
(g1
g2
(lp382
Vthe mom , like I
p383
atp384
Rp385
(dp386
g11
S'start: 2'
p387
sbatp388
Rp389
(dp390
g11
S'sent: 9'
p391
sbag0
(g1
g2
(lp392
g0
(g1
g2
(lp393
Vthe mom
p394
atp395
Rp396
(dp397
g11
S'start: 2'
p398
sbatp399
Rp400
(dp401
g11
S'sent: 9'
p402
sbag0
(g1
g2
(lp403
g0
(g1
g2
(lp404
Vthe mom
p405
atp406
Rp407
(dp408
g11
S'start: 1'
p409
sbatp410
Rp411
(dp412
g11
S'sent: 12'
p413
sbatp414
Rp415
(dp416
g11
S'id: 27'
p417
sbag0
(g1
g2
(lp418
g0
(g1
g2
(lp419
g0
(g1
g2
(lp420
Vthe mess
p421
atp422
Rp423
(dp424
g11
S'start: 17'
p425
sbatp426
Rp427
(dp428
g11
S'sent: 9'
p429
sbag0
(g1
g2
(lp430
g0
(g1
g2
(lp431
Vthat
p432
atp433
Rp434
(dp435
g11
S'start: 3'
p436
sbatp437
Rp438
(dp439
g11
S'sent: 10'
p440
sbag0
(g1
g2
(lp441
g0
(g1
g2
(lp442
Vit
p443
atp444
Rp445
(dp446
g11
S'start: 5'
p447
sbatp448
Rp449
(dp450
g11
S'sent: 10'
p451
sbag0
(g1
g2
(lp452
g0
(g1
g2
(lp453
Vit
p454
atp455
Rp456
(dp457
g11
S'start: 3'
p458
sbatp459
Rp460
(dp461
g11
S'sent: 11'
p462
sbag0
(g1
g2
(lp463
g0
(g1
g2
(lp464
Va sunny day
p465
atp466
Rp467
(dp468
g11
S'start: 5'
p469
sbatp470
Rp471
(dp472
g11
S'sent: 11'
p473
sbatp474
Rp475
(dp476
g11
S'id: 32'
p477
sbatp478
Rp479
(dp480
g11
S'coreferences'
p481
sb.