ccopy_reg
_reconstructor
p0
(cnltk.tree
Tree
p1
c__builtin__
list
p2
(lp3
g0
(g1
g2
(lp4
g0
(g1
g2
(lp5
g0
(g1
g2
(lp6
Vpicture of a book .
p7
atp8
Rp9
(dp10
S'_label'
p11
S'start: 1'
p12
sbatp13
Rp14
(dp15
g11
S'sent: 1'
p16
sbag0
(g1
g2
(lp17
g0
(g1
g2
(lp18
Vit
p19
atp20
Rp21
(dp22
g11
S'start: 4'
p23
sbatp24
Rp25
(dp26
g11
S'sent: 2'
p27
sbag0
(g1
g2
(lp28
g0
(g1
g2
(lp29
Va chair
p30
atp31
Rp32
(dp33
g11
S'start: 6'
p34
sbatp35
Rp36
(dp37
g11
S'sent: 2'
p38
sbatp39
Rp40
(dp41
g11
S'id: 1'
p42
sbag0
(g1
g2
(lp43
g0
(g1
g2
(lp44
g0
(g1
g2
(lp45
VAnd
p46
atp47
Rp48
(dp49
g11
S'start: 1'
p50
sbatp51
Rp52
(dp53
g11
S'sent: 5'
p54
sbag0
(g1
g2
(lp55
g0
(g1
g2
(lp56
VAnd
p57
atp58
Rp59
(dp60
g11
S'start: 1'
p61
sbatp62
Rp63
(dp64
g11
S'sent: 6'
p65
sbag0
(g1
g2
(lp66
g0
(g1
g2
(lp67
VAnd
p68
atp69
Rp70
(dp71
g11
S'start: 1'
p72
sbatp73
Rp74
(dp75
g11
S'sent: 7'
p76
sbag0
(g1
g2
(lp77
g0
(g1
g2
(lp78
VAnd
p79
atp80
Rp81
(dp82
g11
S'start: 1'
p83
sbatp84
Rp85
(dp86
g11
S'sent: 9'
p87
sbag0
(g1
g2
(lp88
g0
(g1
g2
(lp89
VAnd
p90
atp91
Rp92
(dp93
g11
S'start: 1'
p94
sbatp95
Rp96
(dp97
g11
S'sent: 18'
p98
sbatp99
Rp100
(dp101
g11
S'id: 7'
p102
sbag0
(g1
g2
(lp103
g0
(g1
g2
(lp104
g0
(g1
g2
(lp105
Vsandals
p106
atp107
Rp108
(dp109
g11
S'start: 2'
p110
sbatp111
Rp112
(dp113
g11
S'sent: 6'
p114
sbag0
(g1
g2
(lp115
g0
(g1
g2
(lp116
Vsandals
p117
atp118
Rp119
(dp120
g11
S'start: 5'
p121
sbatp122
Rp123
(dp124
g11
S'sent: 6'
p125
sbatp126
Rp127
(dp128
g11
S'id: 10'
p129
sbag0
(g1
g2
(lp130
g0
(g1
g2
(lp131
g0
(g1
g2
(lp132
Vhere
p133
atp134
Rp135
(dp136
g11
S'start: 5'
p137
sbatp138
Rp139
(dp140
g11
S'sent: 14'
p141
sbag0
(g1
g2
(lp142
g0
(g1
g2
(lp143
Vhere
p144
atp145
Rp146
(dp147
g11
S'start: 10'
p148
sbatp149
Rp150
(dp151
g11
S'sent: 14'
p152
sbatp153
Rp154
(dp155
g11
S'id: 20'
p156
sbag0
(g1
g2
(lp157
g0
(g1
g2
(lp158
g0
(g1
g2
(lp159
VI
p160
atp161
Rp162
(dp163
g11
S'start: 1'
p164
sbatp165
Rp166
(dp167
g11
S'sent: 16'
p168
sbag0
(g1
g2
(lp169
g0
(g1
g2
(lp170
VI
p171
atp172
Rp173
(dp174
g11
S'start: 1'
p175
sbatp176
Rp177
(dp178
g11
S'sent: 17'
p179
sbatp180
Rp181
(dp182
g11
S'id: 24'
p183
sbatp184
Rp185
(dp186
g11
S'coreferences'
p187
sb.