ccopy_reg
_reconstructor
p0
(cnltk.tree
Tree
p1
c__builtin__
list
p2
(lp3
g0
(g1
g2
(lp4
g0
(g1
g2
(lp5
g0
(g1
g2
(lp6
g0
(g1
g2
(lp7
g0
(g1
g2
(lp8
(lp9
S'word: the, index: 1'
p10
aatp11
Rp12
(dp13
S'_label'
p14
Vdet
p15
sbatp16
Rp17
(dp18
g14
S'word: woman, index: 2'
p19
sbatp20
Rp21
(dp22
g14
Vnsubj
p23
sbag0
(g1
g2
(lp24
(lp25
S'word: is, index: 3'
p26
aatp27
Rp28
(dp29
g14
Vaux
p30
sbag0
(g1
g2
(lp31
g0
(g1
g2
(lp32
g0
(g1
g2
(lp33
(lp34
S'word: the, index: 5'
p35
aatp36
Rp37
(dp38
g14
Vdet
p39
sbatp40
Rp41
(dp42
g14
S'word: dishes, index: 6'
p43
sbatp44
Rp45
(dp46
g14
Vdobj
p47
sbatp48
Rp49
(dp50
g14
S'word: washing, index: 4'
p51
sbatp52
Rp53
(dp54
g14
S'id: 0'
p55
sbag0
(g1
g2
(lp56
g0
(g1
g2
(lp57
g0
(g1
g2
(lp58
g0
(g1
g2
(lp59
g0
(g1
g2
(lp60
(lp61
S'word: the, index: 1'
p62
aatp63
Rp64
(dp65
g14
Vdet
p66
sbag0
(g1
g2
(lp67
(lp68
S'word: little, index: 2'
p69
aatp70
Rp71
(dp72
g14
Vamod
p73
sbatp74
Rp75
(dp76
g14
S'word: boy, index: 3'
p77
sbatp78
Rp79
(dp80
g14
Vnsubj
p81
sbag0
(g1
g2
(lp82
(lp83
S'word: is, index: 4'
p84
aatp85
Rp86
(dp87
g14
Vaux
p88
sbag0
(g1
g2
(lp89
(lp90
S'word: cookies, index: 6'
p91
aatp92
Rp93
(dp94
g14
Vdobj
p95
sbatp96
Rp97
(dp98
g14
S'word: getting, index: 5'
p99
sbatp100
Rp101
(dp102
g14
S'id: 1'
p103
sbag0
(g1
g2
(lp104
g0
(g1
g2
(lp105
g0
(g1
g2
(lp106
g0
(g1
g2
(lp107
g0
(g1
g2
(lp108
(lp109
S'word: the, index: 7'
p110
aatp111
Rp112
(dp113
g14
Vdet
p114
sbag0
(g1
g2
(lp115
(lp116
S'word: little, index: 8'
p117
aatp118
Rp119
(dp120
g14
Vamod
p121
sbatp122
Rp123
(dp124
g14
S'word: boy, index: 9'
p125
sbatp126
Rp127
(dp128
g14
Vdobj
p129
sbag0
(g1
g2
(lp130
g0
(g1
g2
(lp131
g0
(g1
g2
(lp132
(lp133
S'word: him, index: 12'
p134
aatp135
Rp136
(dp137
g14
Vdep
p138
sbag0
(g1
g2
(lp139
(lp140
S'word: hand, index: 14'
p141
aatp142
Rp143
(dp144
g14
Vadvmod
p145
sbag0
(g1
g2
(lp146
g0
(g1
g2
(lp147
g0
(g1
g2
(lp148
(lp149
S'word: her, index: 15'
p150
aatp151
Rp152
(dp153
g14
Vposs
p154
sbag0
(g1
g2
(lp155
(lp156
S'word: cookies, index: 17'
p157
aatp158
Rp159
(dp160
g14
Vdep
p161
sbatp162
Rp163
(dp164
g14
S'word: some, index: 16'
p165
sbatp166
Rp167
(dp168
g14
Vdep
p169
sbatp170
Rp171
(dp172
g14
S'word: hand, index: 11'
p173
sbatp174
Rp175
(dp176
g14
Vprep
p177
sbag0
(g1
g2
(lp178
(lp179
S'word: and, index: 1'
p180
aatp181
Rp182
(dp183
g14
Vcc
p184
sbag0
(g1
g2
(lp185
g0
(g1
g2
(lp186
g0
(g1
g2
(lp187
(lp188
S'word: the, index: 2'
p189
aatp190
Rp191
(dp192
g14
Vdet
p193
sbag0
(g1
g2
(lp194
(lp195
S'word: little, index: 3'
p196
aatp197
Rp198
(dp199
g14
Vamod
p200
sbatp201
Rp202
(dp203
g14
S'word: girl, index: 4'
p204
sbatp205
Rp206
(dp207
g14
Vnsubj
p208
sbag0
(g1
g2
(lp209
(lp210
S'word: is, index: 5'
p211
aatp212
Rp213
(dp214
g14
Vaux
p215
sbatp216
Rp217
(dp218
g14
S'word: wanting, index: 6'
p219
sbatp220
Rp221
(dp222
g14
S'id: 2'
p223
sbag0
(g1
g2
(lp224
g0
(g1
g2
(lp225
g0
(g1
g2
(lp226
(lp227
S'word: and, index: 1'
p228
aatp229
Rp230
(dp231
g14
Vcc
p232
sbag0
(g1
g2
(lp233
g0
(g1
g2
(lp234
g0
(g1
g2
(lp235
(lp236
S'word: the, index: 2'
p237
aatp238
Rp239
(dp240
g14
Vdet
p241
sbatp242
Rp243
(dp244
g14
S'word: mother, index: 3'
p245
sbatp246
Rp247
(dp248
g14
Vnsubj
p249
sbag0
(g1
g2
(lp250
(lp251
S'word: is, index: 4'
p252
aatp253
Rp254
(dp255
g14
Vcop
p256
sbag0
(g1
g2
(lp257
g0
(g1
g2
(lp258
g0
(g1
g2
(lp259
g0
(g1
g2
(lp260
g0
(g1
g2
(lp261
(lp262
S'word: the, index: 8'
p263
aatp264
Rp265
(dp266
g14
Vdet
p267
sbatp268
Rp269
(dp270
g14
S'word: water, index: 9'
p271
sbatp272
Rp273
(dp274
g14
Vdobj
p275
sbag0
(g1
g2
(lp276
g0
(g1
g2
(lp277
g0
(g1
g2
(lp278
(lp279
S'word: the, index: 11'
p280
aatp281
Rp282
(dp283
g14
Vdet
p284
sbatp285
Rp286
(dp287
g14
S'word: floor, index: 12'
p288
sbatp289
Rp290
(dp291
g14
Vprep
p292
sbatp293
Rp294
(dp295
g14
S'word: wasting, index: 7'
p296
sbatp297
Rp298
(dp299
g14
Vvmod
p300
sbatp301
Rp302
(dp303
g14
S'word: wakes, index: 5'
p304
sbatp305
Rp306
(dp307
g14
S'id: 3'
p308
sbag0
(g1
g2
(lp309
g0
(g1
g2
(lp310
g0
(g1
g2
(lp311
(lp312
S'word: and, index: 1'
p313
aatp314
Rp315
(dp316
g14
Vcc
p317
sbag0
(g1
g2
(lp318
g0
(g1
g2
(lp319
g0
(g1
g2
(lp320
(lp321
S'word: me, index: 3'
p322
aatp323
Rp324
(dp325
g14
Vnsubj
p326
sbag0
(g1
g2
(lp327
g0
(g1
g2
(lp328
g0
(g1
g2
(lp329
(lp330
S'word: what, index: 5'
p331
aatp332
Rp333
(dp334
g14
Vnsubj
p335
sbatp336
Rp337
(dp338
g14
S'word: else, index: 6'
p339
sbatp340
Rp341
(dp342
g14
Vxcomp
p343
sbatp344
Rp345
(dp346
g14
S'word: see, index: 4'
p347
sbatp348
Rp349
(dp350
g14
Vccomp
p351
sbatp352
Rp353
(dp354
g14
S'word: let, index: 2'
p355
sbatp356
Rp357
(dp358
g14
S'id: 4'
p359
sbag0
(g1
g2
(lp360
g0
(g1
g2
(lp361
g0
(g1
g2
(lp362
(lp363
S'word: And, index: 1'
p364
aatp365
Rp366
(dp367
g14
Vcc
p368
sbag0
(g1
g2
(lp369
g0
(g1
g2
(lp370
g0
(g1
g2
(lp371
(lp372
S'word: the, index: 2'
p373
aatp374
Rp375
(dp376
g14
Vdet
p377
sbatp378
Rp379
(dp380
g14
S'word: boy, index: 3'
p381
sbatp382
Rp383
(dp384
g14
Vnsubj
p385
sbag0
(g1
g2
(lp386
(lp387
S'word: is, index: 4'
p388
aatp389
Rp390
(dp391
g14
Vaux
p392
sbag0
(g1
g2
(lp393
g0
(g1
g2
(lp394
g0
(g1
g2
(lp395
g0
(g1
g2
(lp396
g0
(g1
g2
(lp397
(lp398
S'word: the, index: 9'
p399
aatp400
Rp401
(dp402
g14
Vdet
p403
sbatp404
Rp405
(dp406
g14
S'word: stool, index: 10'
p407
sbatp408
Rp409
(dp410
g14
Vappos
p411
sbatp412
Rp413
(dp414
g14
S'word: the, index: 7'
p415
sbatp416
Rp417
(dp418
g14
Vprep
p419
sbatp420
Rp421
(dp422
g14
S'word: tipping, index: 5'
p423
sbatp424
Rp425
(dp426
g14
S'id: 5'
p427
sbag0
(g1
g2
(lp428
g0
(g1
g2
(lp429
g0
(g1
g2
(lp430
(lp431
S'word: I, index: 2'
p432
aatp433
Rp434
(dp435
g14
Vnsubj
p436
sbag0
(g1
g2
(lp437
g0
(g1
g2
(lp438
g0
(g1
g2
(lp439
(lp440
S'word: that, index: 4'
p441
aatp442
Rp443
(dp444
g14
Vnsubj
p445
sbag0
(g1
g2
(lp446
(lp447
S'word: it, index: 7'
p448
aatp449
Rp450
(dp451
g14
Vprep
p452
sbatp453
Rp454
(dp455
g14
S"word: 's, index: 5"
p456
sbatp457
Rp458
(dp459
g14
Vccomp
p460
sbag0
(g1
g2
(lp461
(lp462
S'word: and, index: 1'
p463
aatp464
Rp465
(dp466
g14
Vcc
p467
sbatp468
Rp469
(dp470
g14
S'word: think, index: 3'
p471
sbatp472
Rp473
(dp474
g14
S'id: 6'
p475
sbag0
(g1
g2
(lp476
g0
(g1
g2
(lp477
g0
(g1
g2
(lp478
g0
(g1
g2
(lp479
g0
(g1
g2
(lp480
(lp481
S'word: the, index: 6'
p482
aatp483
Rp484
(dp485
g14
Vdet
p486
sbatp487
Rp488
(dp489
g14
S'word: floor, index: 7'
p490
sbatp491
Rp492
(dp493
g14
Vprep
p494
sbag0
(g1
g2
(lp495
(lp496
S'word: the, index: 1'
p497
aatp498
Rp499
(dp500
g14
Vdet
p501
sbag0
(g1
g2
(lp502
(lp503
S"word: 's, index: 3"
p504
aatp505
Rp506
(dp507
g14
Vpossessive
p508
sbag0
(g1
g2
(lp509
(lp510
S'word: running, index: 4'
p511
aatp512
Rp513
(dp514
g14
Vamod
p515
sbatp516
Rp517
(dp518
g14
S'word: water, index: 2'
p519
sbatp520
Rp521
(dp522
g14
S'id: 7'
p523
sbag0
(g1
g2
(lp524
g0
(g1
g2
(lp525
g0
(g1
g2
(lp526
g0
(g1
g2
(lp527
g0
(g1
g2
(lp528
g0
(g1
g2
(lp529
g0
(g1
g2
(lp530
(lp531
S'word: the, index: 10'
p532
aatp533
Rp534
(dp535
g14
Vdet
p536
sbatp537
Rp538
(dp539
g14
S'word: dishes, index: 11'
p540
sbatp541
Rp542
(dp543
g14
Vdobj
p544
sbag0
(g1
g2
(lp545
g0
(g1
g2
(lp546
g0
(g1
g2
(lp547
(lp548
S'word: them, index: 14'
p549
aatp550
Rp551
(dp552
g14
Vdobj
p553
sbatp554
Rp555
(dp556
g14
S'word: cleaning, index: 13'
p557
sbatp558
Rp559
(dp560
g14
Vdep
p561
sbag0
(g1
g2
(lp562
(lp563
S'word: cleaning, index: 16'
p564
aatp565
Rp566
(dp567
g14
Vdep
p568
sbag0
(g1
g2
(lp569
g0
(g1
g2
(lp570
g0
(g1
g2
(lp571
(lp572
S'word: the, index: 17'
p573
aatp574
Rp575
(dp576
g14
Vdet
p577
sbatp578
Rp579
(dp580
g14
S'word: mess, index: 18'
p581
sbatp582
Rp583
(dp584
g14
Vdobj
p585
sbatp586
Rp587
(dp588
g14
S'word: washing, index: 9'
p589
sbatp590
Rp591
(dp592
g14
Vccomp
p593
sbag0
(g1
g2
(lp594
(lp595
S'word: and, index: 1'
p596
aatp597
Rp598
(dp599
g14
Vcc
p600
sbag0
(g1
g2
(lp601
g0
(g1
g2
(lp602
g0
(g1
g2
(lp603
(lp604
S'word: the, index: 2'
p605
aatp606
Rp607
(dp608
g14
Vdet
p609
sbag0
(g1
g2
(lp610
(lp611
S'word: I, index: 6'
p612
aatp613
Rp614
(dp615
g14
Vprep
p616
sbatp617
Rp618
(dp619
g14
S'word: mom, index: 3'
p620
sbatp621
Rp622
(dp623
g14
Vnsubj
p624
sbatp625
Rp626
(dp627
g14
S'word: said, index: 7'
p628
sbatp629
Rp630
(dp631
g14
S'id: 8'
p632
sbag0
(g1
g2
(lp633
g0
(g1
g2
(lp634
g0
(g1
g2
(lp635
(lp636
S'word: I, index: 1'
p637
aatp638
Rp639
(dp640
g14
Vnsubj
p641
sbag0
(g1
g2
(lp642
g0
(g1
g2
(lp643
g0
(g1
g2
(lp644
(lp645
S'word: that, index: 3'
p646
aatp647
Rp648
(dp649
g14
Vnsubj
p650
sbag0
(g1
g2
(lp651
(lp652
S"word: 's, index: 4"
p653
aatp654
Rp655
(dp656
g14
Vcop
p657
sbatp658
Rp659
(dp660
g14
S'word: it, index: 5'
p661
sbatp662
Rp663
(dp664
g14
Vccomp
p665
sbatp666
Rp667
(dp668
g14
S'word: think, index: 2'
p669
sbatp670
Rp671
(dp672
g14
S'id: 9'
p673
sbag0
(g1
g2
(lp674
g0
(g1
g2
(lp675
g0
(g1
g2
(lp676
g0
(g1
g2
(lp677
g0
(g1
g2
(lp678
(lp679
S'word: like, index: 2'
p680
aatp681
Rp682
(dp683
g14
Vmark
p684
sbag0
(g1
g2
(lp685
(lp686
S'word: it, index: 3'
p687
aatp688
Rp689
(dp690
g14
Vnsubj
p691
sbag0
(g1
g2
(lp692
(lp693
S"word: 's, index: 4"
p694
aatp695
Rp696
(dp697
g14
Vcop
p698
sbag0
(g1
g2
(lp699
(lp700
S'word: a, index: 5'
p701
aatp702
Rp703
(dp704
g14
Vdet
p705
sbag0
(g1
g2
(lp706
(lp707
S'word: sunny, index: 6'
p708
aatp709
Rp710
(dp711
g14
Vamod
p712
sbatp713
Rp714
(dp715
g14
S'word: day, index: 7'
p716
sbatp717
Rp718
(dp719
g14
Vadvcl
p720
sbatp721
Rp722
(dp723
g14
S'word: look, index: 1'
p724
sbatp725
Rp726
(dp727
g14
S'id: 10'
p728
sbag0
(g1
g2
(lp729
g0
(g1
g2
(lp730
g0
(g1
g2
(lp731
g0
(g1
g2
(lp732
g0
(g1
g2
(lp733
(lp734
S'word: the, index: 1'
p735
aatp736
Rp737
(dp738
g14
Vdet
p739
sbatp740
Rp741
(dp742
g14
S'word: mom, index: 2'
p743
sbatp744
Rp745
(dp746
g14
Vnsubj
p747
sbag0
(g1
g2
(lp748
(lp749
S'word: is, index: 3'
p750
aatp751
Rp752
(dp753
g14
Vaux
p754
sbag0
(g1
g2
(lp755
(lp756
S'word: probably, index: 4'
p757
aatp758
Rp759
(dp760
g14
Vadvmod
p761
sbag0
(g1
g2
(lp762
(lp763
S'word: dinner, index: 6'
p764
aatp765
Rp766
(dp767
g14
Vdobj
p768
sbatp769
Rp770
(dp771
g14
S'word: making, index: 5'
p772
sbatp773
Rp774
(dp775
g14
S'id: 11'
p776
sbag0
(g1
g2
(lp777
g0
(g1
g2
(lp778
g0
(g1
g2
(lp779
g0
(g1
g2
(lp780
g0
(g1
g2
(lp781
(lp782
S'word: the, index: 2'
p783
aatp784
Rp785
(dp786
g14
Vdet
p787
sbag0
(g1
g2
(lp788
(lp789
S'word: little, index: 3'
p790
aatp791
Rp792
(dp793
g14
Vamod
p794
sbatp795
Rp796
(dp797
g14
S'word: boy, index: 4'
p798
sbatp799
Rp800
(dp801
g14
Vnsubj
p802
sbag0
(g1
g2
(lp803
(lp804
S'word: is, index: 5'
p805
aatp806
Rp807
(dp808
g14
Vaux
p809
sbag0
(g1
g2
(lp810
g0
(g1
g2
(lp811
g0
(g1
g2
(lp812
(lp813
S'word: two, index: 7'
p814
aatp815
Rp816
(dp817
g14
Vnum
p818
sbatp819
Rp820
(dp821
g14
S'word: cookies, index: 8'
p822
sbatp823
Rp824
(dp825
g14
Vdobj
p826
sbag0
(g1
g2
(lp827
g0
(g1
g2
(lp828
g0
(g1
g2
(lp829
(lp830
S'word: the, index: 10'
p831
aatp832
Rp833
(dp834
g14
Vdet
p835
sbag0
(g1
g2
(lp836
(lp837
S'word: cookie, index: 11'
p838
aatp839
Rp840
(dp841
g14
Vnn
p842
sbatp843
Rp844
(dp845
g14
S'word: jar, index: 12'
p846
sbatp847
Rp848
(dp849
g14
Vprep
p850
sbag0
(g1
g2
(lp851
(lp852
S'word: and, index: 1'
p853
aatp854
Rp855
(dp856
g14
Vcc
p857
sbatp858
Rp859
(dp860
g14
S'word: getting, index: 6'
p861
sbatp862
Rp863
(dp864
g14
S'id: 12'
p865
sbag0
(g1
g2
(lp866
g0
(g1
g2
(lp867
g0
(g1
g2
(lp868
(lp869
S'word: is, index: 7'
p870
aatp871
Rp872
(dp873
g14
Vcop
p874
sbag0
(g1
g2
(lp875
(lp876
S'word: And, index: 1'
p877
aatp878
Rp879
(dp880
g14
Vcc
p881
sbag0
(g1
g2
(lp882
(lp883
S'word: the, index: 2'
p884
aatp885
Rp886
(dp887
g14
Vtmod
p888
sbag0
(g1
g2
(lp889
g0
(g1
g2
(lp890
g0
(g1
g2
(lp891
(lp892
S'word: the, index: 4'
p893
aatp894
Rp895
(dp896
g14
Vdet
p897
sbag0
(g1
g2
(lp898
(lp899
S'word: little, index: 5'
p900
aatp901
Rp902
(dp903
g14
Vamod
p904
sbatp905
Rp906
(dp907
g14
S'word: girl, index: 6'
p908
sbatp909
Rp910
(dp911
g14
Vnsubj
p912
sbatp913
Rp914
(dp915
g14
S'word: hungry, index: 8'
p916
sbatp917
Rp918
(dp919
g14
S'id: 13'
p920
sbag0
(g1
g2
(lp921
g0
(g1
g2
(lp922
g0
(g1
g2
(lp923
(lp924
S'word: And, index: 1'
p925
aatp926
Rp927
(dp928
g14
Vcc
p929
sbag0
(g1
g2
(lp930
g0
(g1
g2
(lp931
g0
(g1
g2
(lp932
(lp933
S'word: me, index: 3'
p934
aatp935
Rp936
(dp937
g14
Vnsubj
p938
sbag0
(g1
g2
(lp939
g0
(g1
g2
(lp940
g0
(g1
g2
(lp941
(lp942
S'word: what, index: 5'
p943
aatp944
Rp945
(dp946
g14
Vnsubj
p947
sbatp948
Rp949
(dp950
g14
S'word: else, index: 6'
p951
sbatp952
Rp953
(dp954
g14
Vxcomp
p955
sbatp956
Rp957
(dp958
g14
S'word: see, index: 4'
p959
sbatp960
Rp961
(dp962
g14
Vccomp
p963
sbatp964
Rp965
(dp966
g14
S'word: let, index: 2'
p967
sbatp968
Rp969
(dp970
g14
S'id: 14'
p971
sbag0
(g1
g2
(lp972
g0
(g1
g2
(lp973
g0
(g1
g2
(lp974
(lp975
S'word: And, index: 1'
p976
aatp977
Rp978
(dp979
g14
Vcc
p980
sbag0
(g1
g2
(lp981
g0
(g1
g2
(lp982
g0
(g1
g2
(lp983
(lp984
S'word: the, index: 2'
p985
aatp986
Rp987
(dp988
g14
Vdet
p989
sbatp990
Rp991
(dp992
g14
S'word: mama, index: 3'
p993
sbatp994
Rp995
(dp996
g14
Vnsubj
p997
sbag0
(g1
g2
(lp998
(lp999
S'word: dishes, index: 5'
p1000
aatp1001
Rp1002
(dp1003
g14
Vdobj
p1004
sbag0
(g1
g2
(lp1005
g0
(g1
g2
(lp1006
g0
(g1
g2
(lp1007
(lp1008
S'word: the, index: 7'
p1009
aatp1010
Rp1011
(dp1012
g14
Vdet
p1013
sbatp1014
Rp1015
(dp1016
g14
S'word: table, index: 8'
p1017
sbatp1018
Rp1019
(dp1020
g14
Vprep
p1021
sbatp1022
Rp1023
(dp1024
g14
S'word: got, index: 4'
p1025
sbatp1026
Rp1027
(dp1028
g14
S'id: 15'
p1029
sbatp1030
Rp1031
(dp1032
g14
S'sentences'
p1033
sb.