ccopy_reg
_reconstructor
p0
(cnltk.tree
Tree
p1
c__builtin__
list
p2
(lp3
g0
(g1
g2
(lp4
g0
(g1
g2
(lp5
g0
(g1
g2
(lp6
g0
(g1
g2
(lp7
VLion
p8
atp9
Rp10
(dp11
S'_label'
p12
VNNP
p13
sbatp14
Rp15
(dp16
g12
VNP
p17
sbag0
(g1
g2
(lp18
V,
p19
atp20
Rp21
(dp22
g12
V,
p23
sbag0
(g1
g2
(lp24
Vand
p25
atp26
Rp27
(dp28
g12
VCC
p29
sbag0
(g1
g2
(lp30
g0
(g1
g2
(lp31
g0
(g1
g2
(lp32
g0
(g1
g2
(lp33
g0
(g1
g2
(lp34
Vchair
p35
atp36
Rp37
(dp38
g12
VNN
p39
sbatp40
Rp41
(dp42
g12
VNP
p43
sbag0
(g1
g2
(lp44
g0
(g1
g2
(lp45
V,
p46
atp47
Rp48
(dp49
g12
V,
p50
sbag0
(g1
g2
(lp51
Vand
p52
atp53
Rp54
(dp55
g12
VCC
p56
sbag0
(g1
g2
(lp57
g0
(g1
g2
(lp58
g0
(g1
g2
(lp59
Vpicture
p60
atp61
Rp62
(dp63
g12
VNN
p64
sbatp65
Rp66
(dp67
g12
VNP
p68
sbag0
(g1
g2
(lp69
V,
p70
atp71
Rp72
(dp73
g12
V,
p74
sbag0
(g1
g2
(lp75
g0
(g1
g2
(lp76
Vpicture
p77
atp78
Rp79
(dp80
g12
VNN
p81
sbatp82
Rp83
(dp84
g12
VNP
p85
sbatp86
Rp87
(dp88
g12
VNP
p89
sbag0
(g1
g2
(lp90
g0
(g1
g2
(lp91
Vright
p92
atp93
Rp94
(dp95
g12
VRB
p96
sbag0
(g1
g2
(lp97
Vthere
p98
atp99
Rp100
(dp101
g12
VRB
p102
sbatp103
Rp104
(dp105
g12
VADVP
p106
sbag0
(g1
g2
(lp107
V,
p108
atp109
Rp110
(dp111
g12
V,
p112
sbatp113
Rp114
(dp115
g12
VPRN
p116
sbatp117
Rp118
(dp119
g12
VNP
p120
sbag0
(g1
g2
(lp121
Vand
p122
atp123
Rp124
(dp125
g12
VCC
p126
sbag0
(g1
g2
(lp127
g0
(g1
g2
(lp128
Vpicture
p129
atp130
Rp131
(dp132
g12
VNN
p133
sbatp134
Rp135
(dp136
g12
VNP
p137
sbatp138
Rp139
(dp140
g12
VNP
p141
sbag0
(g1
g2
(lp142
g0
(g1
g2
(lp143
Vright
p144
atp145
Rp146
(dp147
g12
VRB
p148
sbag0
(g1
g2
(lp149
Vthere
p150
atp151
Rp152
(dp153
g12
VRB
p154
sbatp155
Rp156
(dp157
g12
VADVP
p158
sbatp159
Rp160
(dp161
g12
VNP
p162
sbag0
(g1
g2
(lp163
V.
p164
atp165
Rp166
(dp167
g12
V.
p168
sbatp169
Rp170
(dp171
g12
VNP
p172
sbatp173
Rp174
(dp175
g12
S'id: 0'
p176
sbag0
(g1
g2
(lp177
g0
(g1
g2
(lp178
g0
(g1
g2
(lp179
Vand
p180
atp181
Rp182
(dp183
g12
VCC
p184
sbag0
(g1
g2
(lp185
g0
(g1
g2
(lp186
g0
(g1
g2
(lp187
Vtwing
p188
atp189
Rp190
(dp191
g12
VJJ
p192
sbag0
(g1
g2
(lp193
Vtwing
p194
atp195
Rp196
(dp197
g12
VNN
p198
sbatp199
Rp200
(dp201
g12
VNP
p202
sbag0
(g1
g2
(lp203
g0
(g1
g2
(lp204
g0
(g1
g2
(lp205
g0
(g1
g2
(lp206
Vtwing
p207
atp208
Rp209
(dp210
g12
VNN
p211
sbatp212
Rp213
(dp214
g12
VNP
p215
sbag0
(g1
g2
(lp216
V,
p217
atp218
Rp219
(dp220
g12
V,
p221
sbag0
(g1
g2
(lp222
Vand
p223
atp224
Rp225
(dp226
g12
VCC
p227
sbag0
(g1
g2
(lp228
g0
(g1
g2
(lp229
g0
(g1
g2
(lp230
Vmuziko
p231
atp232
Rp233
(dp234
g12
VNN
p235
sbag0
(g1
g2
(lp236
Vright
p237
atp238
Rp239
(dp240
g12
VRB
p241
sbatp242
Rp243
(dp244
g12
VNP
p245
sbag0
(g1
g2
(lp246
g0
(g1
g2
(lp247
Vthere
p248
atp249
Rp250
(dp251
g12
VRB
p252
sbatp253
Rp254
(dp255
g12
VNP
p256
sbatp257
Rp258
(dp259
g12
VFRAG
p260
sbag0
(g1
g2
(lp261
V.
p262
atp263
Rp264
(dp265
g12
V.
p266
sbatp267
Rp268
(dp269
g12
VFRAG
p270
sbatp271
Rp272
(dp273
g12
VSBAR
p274
sbatp275
Rp276
(dp277
g12
VNP
p278
sbatp279
Rp280
(dp281
g12
VFRAG
p282
sbatp283
Rp284
(dp285
g12
S'id: 1'
p286
sbag0
(g1
g2
(lp287
g0
(g1
g2
(lp288
g0
(g1
g2
(lp289
VAnd
p290
atp291
Rp292
(dp293
g12
VCC
p294
sbag0
(g1
g2
(lp295
g0
(g1
g2
(lp296
Vswing
p297
atp298
Rp299
(dp300
g12
VNN
p301
sbatp302
Rp303
(dp304
g12
VNP
p305
sbag0
(g1
g2
(lp306
g0
(g1
g2
(lp307
V,
p308
atp309
Rp310
(dp311
g12
V,
p312
sbag0
(g1
g2
(lp313
Vand
p314
atp315
Rp316
(dp317
g12
VCC
p318
sbag0
(g1
g2
(lp319
g0
(g1
g2
(lp320
g0
(g1
g2
(lp321
Vcircles
p322
atp323
Rp324
(dp325
g12
VNNS
p326
sbatp327
Rp328
(dp329
g12
VNP
p330
sbag0
(g1
g2
(lp331
Vright
p332
atp333
Rp334
(dp335
g12
VRB
p336
sbatp337
Rp338
(dp339
g12
VADVP
p340
sbag0
(g1
g2
(lp341
g0
(g1
g2
(lp342
Vthere
p343
atp344
Rp345
(dp346
g12
VRB
p347
sbatp348
Rp349
(dp350
g12
VADVP
p351
sbag0
(g1
g2
(lp352
V,
p353
atp354
Rp355
(dp356
g12
V,
p357
sbatp358
Rp359
(dp360
g12
VPRN
p361
sbag0
(g1
g2
(lp362
g0
(g1
g2
(lp363
Vit
p364
atp365
Rp366
(dp367
g12
VPRP
p368
sbatp369
Rp370
(dp371
g12
VNP
p372
sbag0
(g1
g2
(lp373
g0
(g1
g2
(lp374
V's
p375
atp376
Rp377
(dp378
g12
VVBZ
p379
sbag0
(g1
g2
(lp380
g0
(g1
g2
(lp381
Va
p382
atp383
Rp384
(dp385
g12
VDT
p386
sbag0
(g1
g2
(lp387
Vcircus
p388
atp389
Rp390
(dp391
g12
VNN
p392
sbatp393
Rp394
(dp395
g12
VNP
p396
sbatp397
Rp398
(dp399
g12
VVP
p400
sbag0
(g1
g2
(lp401
V.
p402
atp403
Rp404
(dp405
g12
V.
p406
sbatp407
Rp408
(dp409
g12
VS
p410
sbatp411
Rp412
(dp413
g12
S'id: 2'
p414
sbag0
(g1
g2
(lp415
g0
(g1
g2
(lp416
g0
(g1
g2
(lp417
VAnd
p418
atp419
Rp420
(dp421
g12
VCC
p422
sbag0
(g1
g2
(lp423
g0
(g1
g2
(lp424
g0
(g1
g2
(lp425
Va
p426
atp427
Rp428
(dp429
g12
VDT
p430
sbag0
(g1
g2
(lp431
Vswing
p432
atp433
Rp434
(dp435
g12
VNN
p436
sbatp437
Rp438
(dp439
g12
VNP
p440
sbag0
(g1
g2
(lp441
Vhere
p442
atp443
Rp444
(dp445
g12
VRB
p446
sbatp447
Rp448
(dp449
g12
VADVP
p450
sbag0
(g1
g2
(lp451
V.
p452
atp453
Rp454
(dp455
g12
V.
p456
sbatp457
Rp458
(dp459
g12
VFRAG
p460
sbatp461
Rp462
(dp463
g12
S'id: 3'
p464
sbag0
(g1
g2
(lp465
g0
(g1
g2
(lp466
g0
(g1
g2
(lp467
VAnd
p468
atp469
Rp470
(dp471
g12
VCC
p472
sbag0
(g1
g2
(lp473
Vthen
p474
atp475
Rp476
(dp477
g12
VRB
p478
sbag0
(g1
g2
(lp479
g0
(g1
g2
(lp480
g0
(g1
g2
(lp481
Vthere
p482
atp483
Rp484
(dp485
g12
VRB
p486
sbag0
(g1
g2
(lp487
Vthere
p488
atp489
Rp490
(dp491
g12
VRB
p492
sbatp493
Rp494
(dp495
g12
VADVP
p496
sbag0
(g1
g2
(lp497
Vand
p498
atp499
Rp500
(dp501
g12
VCC
p502
sbag0
(g1
g2
(lp503
g0
(g1
g2
(lp504
Vthen
p505
atp506
Rp507
(dp508
g12
VRB
p509
sbag0
(g1
g2
(lp510
Vthere
p511
atp512
Rp513
(dp514
g12
VRB
p515
sbatp516
Rp517
(dp518
g12
VADVP
p519
sbatp520
Rp521
(dp522
g12
VADVP
p523
sbag0
(g1
g2
(lp524
V.
p525
atp526
Rp527
(dp528
g12
V.
p529
sbatp530
Rp531
(dp532
g12
VFRAG
p533
sbatp534
Rp535
(dp536
g12
S'id: 4'
p537
sbag0
(g1
g2
(lp538
g0
(g1
g2
(lp539
g0
(g1
g2
(lp540
VAnd
p541
atp542
Rp543
(dp544
g12
VCC
p545
sbag0
(g1
g2
(lp546
g0
(g1
g2
(lp547
g0
(g1
g2
(lp548
g0
(g1
g2
(lp549
V...
p550
atp551
Rp552
(dp553
g12
V:
p554
sbatp555
Rp556
(dp557
g12
VVP
p558
sbatp559
Rp560
(dp561
g12
VS
p562
sbag0
(g1
g2
(lp563
V,
p564
atp565
Rp566
(dp567
g12
V,
p568
sbag0
(g1
g2
(lp569
Vand
p570
atp571
Rp572
(dp573
g12
VCC
p574
sbag0
(g1
g2
(lp575
g0
(g1
g2
(lp576
g0
(g1
g2
(lp577
Van
p578
atp579
Rp580
(dp581
g12
VDT
p582
sbag0
(g1
g2
(lp583
Van
p584
atp585
Rp586
(dp587
g12
VDT
p588
sbag0
(g1
g2
(lp589
Vboy
p590
atp591
Rp592
(dp593
g12
VNN
p594
sbatp595
Rp596
(dp597
g12
VNP
p598
sbag0
(g1
g2
(lp599
g0
(g1
g2
(lp600
g0
(g1
g2
(lp601
Vhere
p602
atp603
Rp604
(dp605
g12
VRB
p606
sbatp607
Rp608
(dp609
g12
VADVP
p610
sbatp611
Rp612
(dp613
g12
VVP
p614
sbatp615
Rp616
(dp617
g12
VS
p618
sbatp619
Rp620
(dp621
g12
VS
p622
sbag0
(g1
g2
(lp623
V,
p624
atp625
Rp626
(dp627
g12
V,
p628
sbag0
(g1
g2
(lp629
Vand
p630
atp631
Rp632
(dp633
g12
VCC
p634
sbag0
(g1
g2
(lp635
g0
(g1
g2
(lp636
g0
(g1
g2
(lp637
Vgirl
p638
atp639
Rp640
(dp641
g12
VNN
p642
sbatp643
Rp644
(dp645
g12
VNP
p646
sbag0
(g1
g2
(lp647
g0
(g1
g2
(lp648
g0
(g1
g2
(lp649
Vhere
p650
atp651
Rp652
(dp653
g12
VRB
p654
sbatp655
Rp656
(dp657
g12
VADVP
p658
sbatp659
Rp660
(dp661
g12
VVP
p662
sbatp663
Rp664
(dp665
g12
VS
p666
sbag0
(g1
g2
(lp667
V.
p668
atp669
Rp670
(dp671
g12
V.
p672
sbatp673
Rp674
(dp675
g12
VS
p676
sbatp677
Rp678
(dp679
g12
S'id: 5'
p680
sbag0
(g1
g2
(lp681
g0
(g1
g2
(lp682
g0
(g1
g2
(lp683
VAnd
p684
atp685
Rp686
(dp687
g12
VCC
p688
sbag0
(g1
g2
(lp689
g0
(g1
g2
(lp690
g0
(g1
g2
(lp691
Vpictures
p692
atp693
Rp694
(dp695
g12
VNNS
p696
sbatp697
Rp698
(dp699
g12
VNP
p700
sbag0
(g1
g2
(lp701
g0
(g1
g2
(lp702
g0
(g1
g2
(lp703
g0
(g1
g2
(lp704
Vof
p705
atp706
Rp707
(dp708
g12
VIN
p709
sbatp710
Rp711
(dp712
g12
VNP
p713
sbag0
(g1
g2
(lp714
V,
p715
atp716
Rp717
(dp718
g12
V,
p719
sbag0
(g1
g2
(lp720
Vand
p721
atp722
Rp723
(dp724
g12
VCC
p725
sbag0
(g1
g2
(lp726
g0
(g1
g2
(lp727
Vhere
p728
atp729
Rp730
(dp731
g12
VRB
p732
sbatp733
Rp734
(dp735
g12
VADVP
p736
sbatp737
Rp738
(dp739
g12
VNP
p740
sbag0
(g1
g2
(lp741
g0
(g1
g2
(lp742
V,
p743
atp744
Rp745
(dp746
g12
V,
p747
sbag0
(g1
g2
(lp748
Vand
p749
atp750
Rp751
(dp752
g12
VCC
p753
sbag0
(g1
g2
(lp754
g0
(g1
g2
(lp755
Vhere
p756
atp757
Rp758
(dp759
g12
VRB
p760
sbatp761
Rp762
(dp763
g12
VADVP
p764
sbatp765
Rp766
(dp767
g12
VPRN
p768
sbatp769
Rp770
(dp771
g12
VVP
p772
sbatp773
Rp774
(dp775
g12
VS
p776
sbag0
(g1
g2
(lp777
V,
p778
atp779
Rp780
(dp781
g12
V,
p782
sbag0
(g1
g2
(lp783
Vand
p784
atp785
Rp786
(dp787
g12
VCC
p788
sbag0
(g1
g2
(lp789
g0
(g1
g2
(lp790
Vhere
p791
atp792
Rp793
(dp794
g12
VRB
p795
sbatp796
Rp797
(dp798
g12
VADVP
p799
sbag0
(g1
g2
(lp800
V,
p801
atp802
Rp803
(dp804
g12
V,
p805
sbag0
(g1
g2
(lp806
Vand
p807
atp808
Rp809
(dp810
g12
VCC
p811
sbag0
(g1
g2
(lp812
g0
(g1
g2
(lp813
Vhere
p814
atp815
Rp816
(dp817
g12
VRB
p818
sbatp819
Rp820
(dp821
g12
VADVP
p822
sbag0
(g1
g2
(lp823
V,
p824
atp825
Rp826
(dp827
g12
V,
p828
sbag0
(g1
g2
(lp829
Vand
p830
atp831
Rp832
(dp833
g12
VCC
p834
sbag0
(g1
g2
(lp835
g0
(g1
g2
(lp836
Vhere
p837
atp838
Rp839
(dp840
g12
VRB
p841
sbatp842
Rp843
(dp844
g12
VADVP
p845
sbag0
(g1
g2
(lp846
V,
p847
atp848
Rp849
(dp850
g12
V,
p851
sbag0
(g1
g2
(lp852
Vand
p853
atp854
Rp855
(dp856
g12
VCC
p857
sbag0
(g1
g2
(lp858
g0
(g1
g2
(lp859
Vhere
p860
atp861
Rp862
(dp863
g12
VRB
p864
sbatp865
Rp866
(dp867
g12
VADVP
p868
sbag0
(g1
g2
(lp869
V,
p870
atp871
Rp872
(dp873
g12
V,
p874
sbag0
(g1
g2
(lp875
Vand
p876
atp877
Rp878
(dp879
g12
VCC
p880
sbag0
(g1
g2
(lp881
g0
(g1
g2
(lp882
Vhere
p883
atp884
Rp885
(dp886
g12
VRB
p887
sbatp888
Rp889
(dp890
g12
VADVP
p891
sbag0
(g1
g2
(lp892
V,
p893
atp894
Rp895
(dp896
g12
V,
p897
sbag0
(g1
g2
(lp898
g0
(g1
g2
(lp899
g0
(g1
g2
(lp900
Vright
p901
atp902
Rp903
(dp904
g12
VRB
p905
sbag0
(g1
g2
(lp906
Vthere
p907
atp908
Rp909
(dp910
g12
VRB
p911
sbatp912
Rp913
(dp914
g12
VADVP
p915
sbatp916
Rp917
(dp918
g12
VS
p919
sbag0
(g1
g2
(lp920
V,
p921
atp922
Rp923
(dp924
g12
V,
p925
sbag0
(g1
g2
(lp926
g0
(g1
g2
(lp927
g0
(g1
g2
(lp928
Vright
p929
atp930
Rp931
(dp932
g12
VRB
p933
sbag0
(g1
g2
(lp934
Vthere
p935
atp936
Rp937
(dp938
g12
VRB
p939
sbatp940
Rp941
(dp942
g12
VADVP
p943
sbatp944
Rp945
(dp946
g12
VS
p947
sbag0
(g1
g2
(lp948
V.
p949
atp950
Rp951
(dp952
g12
V.
p953
sbatp954
Rp955
(dp956
g12
VS
p957
sbatp958
Rp959
(dp960
g12
S'id: 6'
p961
sbag0
(g1
g2
(lp962
g0
(g1
g2
(lp963
g0
(g1
g2
(lp964
g0
(g1
g2
(lp965
g0
(g1
g2
(lp966
g0
(g1
g2
(lp967
g0
(g1
g2
(lp968
g0
(g1
g2
(lp969
VLion
p970
atp971
Rp972
(dp973
g12
VNNP
p974
sbatp975
Rp976
(dp977
g12
VNP
p978
sbag0
(g1
g2
(lp979
g0
(g1
g2
(lp980
Vand
p981
atp982
Rp983
(dp984
g12
VCC
p985
sbatp986
Rp987
(dp988
g12
VADVP
p989
sbatp990
Rp991
(dp992
g12
VNP
p993
sbag0
(g1
g2
(lp994
V,
p995
atp996
Rp997
(dp998
g12
V,
p999
sbag0
(g1
g2
(lp1000
g0
(g1
g2
(lp1001
Vand
p1002
atp1003
Rp1004
(dp1005
g12
VCC
p1006
sbatp1007
Rp1008
(dp1009
g12
VADVP
p1010
sbatp1011
Rp1012
(dp1013
g12
VNP
p1014
sbag0
(g1
g2
(lp1015
V,
p1016
atp1017
Rp1018
(dp1019
g12
V,
p1020
sbag0
(g1
g2
(lp1021
Vand
p1022
atp1023
Rp1024
(dp1025
g12
VCC
p1026
sbag0
(g1
g2
(lp1027
g0
(g1
g2
(lp1028
g0
(g1
g2
(lp1029
Vright
p1030
atp1031
Rp1032
(dp1033
g12
VRB
p1034
sbag0
(g1
g2
(lp1035
Vthere
p1036
atp1037
Rp1038
(dp1039
g12
VRB
p1040
sbatp1041
Rp1042
(dp1043
g12
VADVP
p1044
sbag0
(g1
g2
(lp1045
V,
p1046
atp1047
Rp1048
(dp1049
g12
V,
p1050
sbag0
(g1
g2
(lp1051
Vand
p1052
atp1053
Rp1054
(dp1055
g12
VCC
p1056
sbag0
(g1
g2
(lp1057
g0
(g1
g2
(lp1058
Vright
p1059
atp1060
Rp1061
(dp1062
g12
VRB
p1063
sbag0
(g1
g2
(lp1064
Vthere
p1065
atp1066
Rp1067
(dp1068
g12
VRB
p1069
sbatp1070
Rp1071
(dp1072
g12
VADVP
p1073
sbatp1074
Rp1075
(dp1076
g12
VADVP
p1077
sbag0
(g1
g2
(lp1078
V,
p1079
atp1080
Rp1081
(dp1082
g12
V,
p1083
sbag0
(g1
g2
(lp1084
Vand
p1085
atp1086
Rp1087
(dp1088
g12
VCC
p1089
sbag0
(g1
g2
(lp1090
g0
(g1
g2
(lp1091
Vcircle
p1092
atp1093
Rp1094
(dp1095
g12
VNN
p1096
sbatp1097
Rp1098
(dp1099
g12
VNP
p1100
sbatp1101
Rp1102
(dp1103
g12
VNP
p1104
sbatp1105
Rp1106
(dp1107
g12
VVP
p1108
sbag0
(g1
g2
(lp1109
V.
p1110
atp1111
Rp1112
(dp1113
g12
V.
p1114
sbatp1115
Rp1116
(dp1117
g12
VS
p1118
sbatp1119
Rp1120
(dp1121
g12
S'id: 7'
p1122
sbag0
(g1
g2
(lp1123
g0
(g1
g2
(lp1124
g0
(g1
g2
(lp1125
VAnd
p1126
atp1127
Rp1128
(dp1129
g12
VCC
p1130
sbag0
(g1
g2
(lp1131
g0
(g1
g2
(lp1132
Vher
p1133
atp1134
Rp1135
(dp1136
g12
VPRP
p1137
sbatp1138
Rp1139
(dp1140
g12
VADVP
p1141
sbag0
(g1
g2
(lp1142
V.
p1143
atp1144
Rp1145
(dp1146
g12
V.
p1147
sbatp1148
Rp1149
(dp1150
g12
VFRAG
p1151
sbatp1152
Rp1153
(dp1154
g12
S'id: 8'
p1155
sbag0
(g1
g2
(lp1156
g0
(g1
g2
(lp1157
g0
(g1
g2
(lp1158
g0
(g1
g2
(lp1159
VAnd
p1160
atp1161
Rp1162
(dp1163
g12
VCC
p1164
sbag0
(g1
g2
(lp1165
g0
(g1
g2
(lp1166
VI
p1167
atp1168
Rp1169
(dp1170
g12
VPRP
p1171
sbatp1172
Rp1173
(dp1174
g12
VNP
p1175
sbag0
(g1
g2
(lp1176
g0
(g1
g2
(lp1177
Vca
p1178
atp1179
Rp1180
(dp1181
g12
VMD
p1182
sbag0
(g1
g2
(lp1183
Vn't
p1184
atp1185
Rp1186
(dp1187
g12
VRB
p1188
sbag0
(g1
g2
(lp1189
g0
(g1
g2
(lp1190
Vtalk
p1191
atp1192
Rp1193
(dp1194
g12
VVB
p1195
sbatp1196
Rp1197
(dp1198
g12
VVP
p1199
sbatp1200
Rp1201
(dp1202
g12
VVP
p1203
sbatp1204
Rp1205
(dp1206
g12
VS
p1207
sbag0
(g1
g2
(lp1208
V,
p1209
atp1210
Rp1211
(dp1212
g12
V,
p1213
sbag0
(g1
g2
(lp1214
g0
(g1
g2
(lp1215
Vit
p1216
atp1217
Rp1218
(dp1219
g12
VPRP
p1220
sbatp1221
Rp1222
(dp1223
g12
VNP
p1224
sbag0
(g1
g2
(lp1225
g0
(g1
g2
(lp1226
V's
p1227
atp1228
Rp1229
(dp1230
g12
VVBZ
p1231
sbag0
(g1
g2
(lp1232
g0
(g1
g2
(lp1233
Vhard
p1234
atp1235
Rp1236
(dp1237
g12
VJJ
p1238
sbag0
(g1
g2
(lp1239
g0
(g1
g2
(lp1240
g0
(g1
g2
(lp1241
Vto
p1242
atp1243
Rp1244
(dp1245
g12
VTO
p1246
sbag0
(g1
g2
(lp1247
g0
(g1
g2
(lp1248
Vdo
p1249
atp1250
Rp1251
(dp1252
g12
VVB
p1253
sbag0
(g1
g2
(lp1254
g0
(g1
g2
(lp1255
Vthat
p1256
atp1257
Rp1258
(dp1259
g12
VDT
p1260
sbatp1261
Rp1262
(dp1263
g12
VNP
p1264
sbatp1265
Rp1266
(dp1267
g12
VVP
p1268
sbatp1269
Rp1270
(dp1271
g12
VVP
p1272
sbatp1273
Rp1274
(dp1275
g12
VS
p1276
sbatp1277
Rp1278
(dp1279
g12
VADJP
p1280
sbatp1281
Rp1282
(dp1283
g12
VVP
p1284
sbag0
(g1
g2
(lp1285
V.
p1286
atp1287
Rp1288
(dp1289
g12
V.
p1290
sbatp1291
Rp1292
(dp1293
g12
VS
p1294
sbatp1295
Rp1296
(dp1297
g12
S'id: 9'
p1298
sbag0
(g1
g2
(lp1299
g0
(g1
g2
(lp1300
g0
(g1
g2
(lp1301
g0
(g1
g2
(lp1302
VRight
p1303
atp1304
Rp1305
(dp1306
g12
VRB
p1307
sbag0
(g1
g2
(lp1308
Vthere
p1309
atp1310
Rp1311
(dp1312
g12
VRB
p1313
sbatp1314
Rp1315
(dp1316
g12
VADVP
p1317
sbag0
(g1
g2
(lp1318
V,
p1319
atp1320
Rp1321
(dp1322
g12
V,
p1323
sbag0
(g1
g2
(lp1324
g0
(g1
g2
(lp1325
Vthere
p1326
atp1327
Rp1328
(dp1329
g12
VRB
p1330
sbag0
(g1
g2
(lp1331
Vright
p1332
atp1333
Rp1334
(dp1335
g12
VRB
p1336
sbag0
(g1
g2
(lp1337
Vthere
p1338
atp1339
Rp1340
(dp1341
g12
VRB
p1342
sbatp1343
Rp1344
(dp1345
g12
VADVP
p1346
sbag0
(g1
g2
(lp1347
V,
p1348
atp1349
Rp1350
(dp1351
g12
V,
p1352
sbag0
(g1
g2
(lp1353
Vnot
p1354
atp1355
Rp1356
(dp1357
g12
VRB
p1358
sbag0
(g1
g2
(lp1359
g0
(g1
g2
(lp1360
Vthe
p1361
atp1362
Rp1363
(dp1364
g12
VDT
p1365
sbag0
(g1
g2
(lp1366
Vsame
p1367
atp1368
Rp1369
(dp1370
g12
VJJ
p1371
sbag0
(g1
g2
(lp1372
Vthing
p1373
atp1374
Rp1375
(dp1376
g12
VNN
p1377
sbatp1378
Rp1379
(dp1380
g12
VNP
p1381
sbatp1382
Rp1383
(dp1384
g12
VFRAG
p1385
sbatp1386
Rp1387
(dp1388
g12
S'id: 10'
p1389
sbatp1390
Rp1391
(dp1392
g12
S'sentences'
p1393
sb.