ccopy_reg
_reconstructor
p0
(cnltk.tree
Tree
p1
c__builtin__
list
p2
(lp3
g0
(g1
g2
(lp4
g0
(g1
g2
(lp5
g0
(g1
g2
(lp6
(lp7
S'word: There, index: 1'
p8
aatp9
Rp10
(dp11
S'_label'
p12
Vexpl
p13
sbag0
(g1
g2
(lp14
g0
(g1
g2
(lp15
g0
(g1
g2
(lp16
(lp17
S'word: three, index: 3'
p18
aatp19
Rp20
(dp21
g12
Vnum
p22
sbag0
(g1
g2
(lp23
g0
(g1
g2
(lp24
g0
(g1
g2
(lp25
(lp26
S'word: a, index: 6'
p27
aatp28
Rp29
(dp30
g12
Vdet
p31
sbag0
(g1
g2
(lp32
(lp33
S'word: siture, index: 9'
p34
aatp35
Rp36
(dp37
g12
Vappos
p38
sbatp39
Rp40
(dp41
g12
S'word: signature, index: 7'
p42
sbatp43
Rp44
(dp45
g12
Vconj
p46
sbatp47
Rp48
(dp49
g12
S'word: people, index: 4'
p50
sbatp51
Rp52
(dp53
g12
Vnsubj
p54
sbag0
(g1
g2
(lp55
g40
atp56
Rp57
(dp58
g12
Vnsubj
p59
sbatp60
Rp61
(dp62
g12
S'word: are, index: 2'
p63
sbatp64
Rp65
(dp66
g12
S'id: 0'
p67
sbag0
(g1
g2
(lp68
g0
(g1
g2
(lp69
g0
(g1
g2
(lp70
(lp71
S'word: is, index: 3'
p72
aatp73
Rp74
(dp75
g12
Vaux
p76
sbag0
(g1
g2
(lp77
g0
(g1
g2
(lp78
g0
(g1
g2
(lp79
g0
(g1
g2
(lp80
g0
(g1
g2
(lp81
(lp82
S'word: the, index: 5'
p83
aatp84
Rp85
(dp86
g12
Vdet
p87
sbatp88
Rp89
(dp90
g12
S'word: water, index: 6'
p91
sbatp92
Rp93
(dp94
g12
Vnpadvmod
p95
sbatp96
Rp97
(dp98
g12
S'word: down, index: 7'
p99
sbatp100
Rp101
(dp102
g12
Vadvmod
p103
sbag0
(g1
g2
(lp104
g0
(g1
g2
(lp105
g0
(g1
g2
(lp106
(lp107
S'word: The, index: 1'
p108
aatp109
Rp110
(dp111
g12
Vdet
p112
sbatp113
Rp114
(dp115
g12
S'word: woman, index: 2'
p116
sbatp117
Rp118
(dp119
g12
Vnsubj
p120
sbatp121
Rp122
(dp123
g12
S'word: knocking, index: 4'
p124
sbatp125
Rp126
(dp127
g12
S'id: 1'
p128
sbag0
(g1
g2
(lp129
g0
(g1
g2
(lp130
g0
(g1
g2
(lp131
(lp132
S'word: he, index: 7'
p133
aatp134
Rp135
(dp136
g12
Vnsubj
p137
sbag0
(g1
g2
(lp138
(lp139
S"word: 's, index: 8"
p140
aatp141
Rp142
(dp143
g12
Vaux
p144
sbag0
(g1
g2
(lp145
g0
(g1
g2
(lp146
g0
(g1
g2
(lp147
(lp148
S'word: na, index: 10'
p149
aatp150
Rp151
(dp152
g12
Vaux
p153
sbag0
(g1
g2
(lp154
g0
(g1
g2
(lp155
g0
(g1
g2
(lp156
(lp157
S'word: himself, index: 14'
p158
aatp159
Rp160
(dp161
g12
Vdobj
p162
sbatp163
Rp164
(dp165
g12
S'word: hurt, index: 13'
p166
sbatp167
Rp168
(dp169
g12
Vdep
p170
sbatp171
Rp172
(dp173
g12
S'word: fall, index: 11'
p174
sbatp175
Rp176
(dp177
g12
Vxcomp
p178
sbag0
(g1
g2
(lp179
g0
(g1
g2
(lp180
g0
(g1
g2
(lp181
(lp182
S'word: off, index: 6'
p183
aatp184
Rp185
(dp186
g12
Vprt
p187
sbag0
(g1
g2
(lp188
g0
(g1
g2
(lp189
g0
(g1
g2
(lp190
(lp191
S'word: The, index: 1'
p192
aatp193
Rp194
(dp195
g12
Vdet
p196
sbatp197
Rp198
(dp199
g12
S'word: bowl, index: 2'
p200
sbatp201
Rp202
(dp203
g12
Vnsubj
p204
sbag0
(g1
g2
(lp205
(lp206
S'word: is, index: 3'
p207
aatp208
Rp209
(dp210
g12
Vaux
p211
sbag0
(g1
g2
(lp212
(lp213
S'word: cart, index: 5'
p214
aatp215
Rp216
(dp217
g12
Vdobj
p218
sbatp219
Rp220
(dp221
g12
S'word: taking, index: 4'
p222
sbatp223
Rp224
(dp225
g12
Vdep
p226
sbatp227
Rp228
(dp229
g12
S'word: gon, index: 9'
p230
sbatp231
Rp232
(dp233
g12
S'id: 2'
p234
sbag0
(g1
g2
(lp235
g0
(g1
g2
(lp236
g0
(g1
g2
(lp237
(lp238
S'word: The, index: 1'
p239
aatp240
Rp241
(dp242
g12
Vdet
p243
sbag0
(g1
g2
(lp244
(lp245
S'word: sister, index: 2'
p246
aatp247
Rp248
(dp249
g12
Vnn
p250
sbag0
(g1
g2
(lp251
(lp252
S'word: but, index: 5'
p253
aatp254
Rp255
(dp256
g12
Vcc
p257
sbag0
(g1
g2
(lp258
g0
(g1
g2
(lp259
g0
(g1
g2
(lp260
(lp261
S'word: she, index: 6'
p262
aatp263
Rp264
(dp265
g12
Vnsubj
p266
sbag0
(g1
g2
(lp267
(lp268
S'word: cooks, index: 8'
p269
aatp270
Rp271
(dp272
g12
Vdobj
p273
sbatp274
Rp275
(dp276
g12
S'word: wants, index: 7'
p277
sbatp278
Rp279
(dp280
g12
Vdep
p281
sbatp282
Rp283
(dp284
g12
S'word: laughing, index: 3'
p285
sbatp286
Rp287
(dp288
g12
S'id: 3'
p289
sbag0
(g1
g2
(lp290
g0
(g1
g2
(lp291
g0
(g1
g2
(lp292
g0
(g1
g2
(lp293
g0
(g1
g2
(lp294
(lp295
S"word: 's, index: 12"
p296
aatp297
Rp298
(dp299
g12
Vaux
p300
sbag0
(g1
g2
(lp301
(lp302
S'word: there, index: 14'
p303
aatp304
Rp305
(dp306
g12
Vadvmod
p307
sbag0
(g1
g2
(lp308
g0
(g1
g2
(lp309
g0
(g1
g2
(lp310
(lp311
S'word: not, index: 15'
p312
aatp313
Rp314
(dp315
g12
Vneg
p316
sbatp317
Rp318
(dp319
g12
S'word: care, index: 16'
p320
sbatp321
Rp322
(dp323
g12
Vccomp
p324
sbag0
(g1
g2
(lp325
g0
(g1
g2
(lp326
g0
(g1
g2
(lp327
(lp328
S'word: what, index: 17'
p329
aatp330
Rp331
(dp332
g12
Vnsubj
p333
sbag0
(g1
g2
(lp334
(lp335
S"word: 's, index: 18"
p336
aatp337
Rp338
(dp339
g12
Vaux
p340
sbatp341
Rp342
(dp343
g12
S'word: happening, index: 19'
p344
sbatp345
Rp346
(dp347
g12
Vccomp
p348
sbag0
(g1
g2
(lp349
(lp350
S'word: she, index: 11'
p351
aatp352
Rp353
(dp354
g12
Vnsubj
p355
sbatp356
Rp357
(dp358
g12
S'word: sitting, index: 13'
p359
sbatp360
Rp361
(dp362
g12
Vparataxis
p363
sbag0
(g1
g2
(lp364
(lp365
S'word: So, index: 1'
p366
aatp367
Rp368
(dp369
g12
Vdep
p370
sbag0
(g1
g2
(lp371
g0
(g1
g2
(lp372
g0
(g1
g2
(lp373
(lp374
S'word: the, index: 2'
p375
aatp376
Rp377
(dp378
g12
Vdet
p379
sbatp380
Rp381
(dp382
g12
S'word: woman, index: 3'
p383
sbatp384
Rp385
(dp386
g12
Vnsubj
p387
sbag0
(g1
g2
(lp388
(lp389
S'word: is, index: 4'
p390
aatp391
Rp392
(dp393
g12
Vaux
p394
sbag0
(g1
g2
(lp395
g0
(g1
g2
(lp396
g0
(g1
g2
(lp397
(lp398
S'word: nothing, index: 22'
p399
aatp400
Rp401
(dp402
g12
Vdobj
p403
sbatp404
Rp405
(dp406
g12
S'word: does, index: 21'
p407
sbatp408
Rp409
(dp410
g12
Vdep
p411
sbag0
(g1
g2
(lp412
(lp413
S'word: water, index: 6'
p414
aatp415
Rp416
(dp417
g12
Vdobj
p418
sbag0
(g1
g2
(lp419
g0
(g1
g2
(lp420
g0
(g1
g2
(lp421
(lp422
S'word: the, index: 8'
p423
aatp424
Rp425
(dp426
g12
Vdet
p427
sbatp428
Rp429
(dp430
g12
S'word: water, index: 9'
p431
sbatp432
Rp433
(dp434
g12
Vprep
p435
sbatp436
Rp437
(dp438
g12
S'word: pulling, index: 5'
p439
sbatp440
Rp441
(dp442
g12
S'id: 4'
p443
sbag0
(g1
g2
(lp444
g0
(g1
g2
(lp445
g0
(g1
g2
(lp446
g0
(g1
g2
(lp447
g0
(g1
g2
(lp448
(lp449
S'word: more, index: 16'
p450
aatp451
Rp452
(dp453
g12
Vadvmod
p454
sbag0
(g1
g2
(lp455
g0
(g1
g2
(lp456
g0
(g1
g2
(lp457
(lp458
S'word: the, index: 12'
p459
aatp460
Rp461
(dp462
g12
Vdet
p463
sbag0
(g1
g2
(lp464
(lp465
S'word: he, index: 14'
p466
aatp467
Rp468
(dp469
g12
Vdep
p470
sbatp471
Rp472
(dp473
g12
S'word: sister, index: 13'
p474
sbatp475
Rp476
(dp477
g12
Vnsubj
p478
sbatp479
Rp480
(dp481
g12
S'word: want, index: 15'
p482
sbatp483
Rp484
(dp485
g12
Vconj
p486
sbag0
(g1
g2
(lp487
g0
(g1
g2
(lp488
g0
(g1
g2
(lp489
(lp490
S'word: The, index: 1'
p491
aatp492
Rp493
(dp494
g12
Vdet
p495
sbag0
(g1
g2
(lp496
(lp497
S"word: 's, index: 3"
p498
aatp499
Rp500
(dp501
g12
Vpossessive
p502
sbatp503
Rp504
(dp505
g12
S'word: kid, index: 2'
p506
sbatp507
Rp508
(dp509
g12
Vnsubj
p510
sbag0
(g1
g2
(lp511
g0
(g1
g2
(lp512
g0
(g1
g2
(lp513
(lp514
S'word: he, index: 6'
p515
aatp516
Rp517
(dp518
g12
Vnsubj
p519
sbag0
(g1
g2
(lp520
(lp521
S'word: could, index: 7'
p522
aatp523
Rp524
(dp525
g12
Vaux
p526
sbag0
(g1
g2
(lp527
(lp528
S'word: himself, index: 9'
p529
aatp530
Rp531
(dp532
g12
Vdobj
p533
sbatp534
Rp535
(dp536
g12
S'word: hurt, index: 8'
p537
sbatp538
Rp539
(dp540
g12
Vdep
p541
sbatp542
Rp543
(dp544
g12
S'word: falling, index: 4'
p545
sbatp546
Rp547
(dp548
g12
S'id: 5'
p549
sbag0
(g1
g2
(lp550
g0
(g1
g2
(lp551
g0
(g1
g2
(lp552
g0
(g1
g2
(lp553
g0
(g1
g2
(lp554
(lp555
S'word: there, index: 2'
p556
aatp557
Rp558
(dp559
g12
Vexpl
p560
sbag0
(g1
g2
(lp561
(lp562
S'word: water, index: 4'
p563
aatp564
Rp565
(dp566
g12
Vnsubj
p567
sbag0
(g1
g2
(lp568
(lp569
S'word: here, index: 5'
p570
aatp571
Rp572
(dp573
g12
Vadvmod
p574
sbatp575
Rp576
(dp577
g12
S"word: 's, index: 3"
p578
sbatp579
Rp580
(dp581
g12
Vparataxis
p582
sbag0
(g1
g2
(lp583
(lp584
S'word: down, index: 8'
p585
aatp586
Rp587
(dp588
g12
Vadvmod
p589
sbag0
(g1
g2
(lp590
g0
(g1
g2
(lp591
g0
(g1
g2
(lp592
(lp593
S'word: he, index: 10'
p594
aatp595
Rp596
(dp597
g12
Vnsubj
p598
sbag0
(g1
g2
(lp599
g0
(g1
g2
(lp600
g0
(g1
g2
(lp601
g0
(g1
g2
(lp602
g0
(g1
g2
(lp603
(lp604
S'word: the, index: 51'
p605
aatp606
Rp607
(dp608
g12
Vdet
p609
sbatp610
Rp611
(dp612
g12
S'word: places, index: 52'
p613
sbatp614
Rp615
(dp616
g12
Vprep
p617
sbag0
(g1
g2
(lp618
(lp619
S'word: then, index: 27'
p620
aatp621
Rp622
(dp623
g12
Vadvmod
p624
sbag0
(g1
g2
(lp625
(lp626
S'word: that, index: 28'
p627
aatp628
Rp629
(dp630
g12
Vmark
p631
sbag0
(g1
g2
(lp632
g0
(g1
g2
(lp633
g0
(g1
g2
(lp634
g0
(g1
g2
(lp635
g0
(g1
g2
(lp636
g0
(g1
g2
(lp637
g0
(g1
g2
(lp638
(lp639
S'word: the, index: 35'
p640
aatp641
Rp642
(dp643
g12
Vdep
p644
sbatp645
Rp646
(dp647
g12
S'word: outside, index: 34'
p648
sbatp649
Rp650
(dp651
g12
Vadvmod
p652
sbag0
(g1
g2
(lp653
(lp654
S'word: around, index: 37'
p655
aatp656
Rp657
(dp658
g12
Vadvmod
p659
sbag0
(g1
g2
(lp660
g0
(g1
g2
(lp661
g0
(g1
g2
(lp662
g0
(g1
g2
(lp663
g0
(g1
g2
(lp664
(lp665
S'word: there, index: 41'
p666
aatp667
Rp668
(dp669
g12
Vadvmod
p670
sbatp671
Rp672
(dp673
g12
S'word: out, index: 40'
p674
sbatp675
Rp676
(dp677
g12
Vdep
p678
sbatp679
Rp680
(dp681
g12
S'word: nice, index: 39'
p682
sbatp683
Rp684
(dp685
g12
Vdep
p686
sbag0
(g1
g2
(lp687
(lp688
S'word: and, index: 31'
p689
aatp690
Rp691
(dp692
g12
Vcc
p693
sbag0
(g1
g2
(lp694
(lp695
S'word: she, index: 32'
p696
aatp697
Rp698
(dp699
g12
Vnsubj
p700
sbag0
(g1
g2
(lp701
(lp702
S"word: 's, index: 33"
p703
aatp704
Rp705
(dp706
g12
Vaux
p707
sbatp708
Rp709
(dp710
g12
S'word: looking, index: 36'
p711
sbatp712
Rp713
(dp714
g12
Vdep
p715
sbatp716
Rp717
(dp718
g12
S'word: kid, index: 29'
p719
sbatp720
Rp721
(dp722
g12
Vnsubj
p723
sbag0
(g1
g2
(lp724
g0
(g1
g2
(lp725
g0
(g1
g2
(lp726
(lp727
S'word: a, index: 44'
p728
aatp729
Rp730
(dp731
g12
Vdet
p732
sbag0
(g1
g2
(lp733
g0
(g1
g2
(lp734
g0
(g1
g2
(lp735
(lp736
S'word: mess, index: 49'
p737
aatp738
Rp739
(dp740
g12
Vappos
p741
sbatp742
Rp743
(dp744
g12
S'word: everything, index: 47'
p745
sbatp746
Rp747
(dp748
g12
Vprep
p749
sbatp750
Rp751
(dp752
g12
S'word: mess, index: 45'
p753
sbatp754
Rp755
(dp756
g12
Vdobj
p757
sbatp758
Rp759
(dp760
g12
S'word: make, index: 43'
p761
sbatp762
Rp763
(dp764
g12
Vconj
p765
sbag0
(g1
g2
(lp766
(lp767
S'word: down, index: 12'
p768
aatp769
Rp770
(dp771
g12
Vprt
p772
sbag0
(g1
g2
(lp773
g0
(g1
g2
(lp774
g0
(g1
g2
(lp775
g0
(g1
g2
(lp776
g0
(g1
g2
(lp777
g0
(g1
g2
(lp778
g0
(g1
g2
(lp779
g0
(g1
g2
(lp780
g0
(g1
g2
(lp781
(lp782
S'word: the, index: 19'
p783
aatp784
Rp785
(dp786
g12
Vdet
p787
sbatp788
Rp789
(dp790
g12
S'word: cooker, index: 20'
p791
sbatp792
Rp793
(dp794
g12
Vdobj
p795
sbag0
(g1
g2
(lp796
(lp797
S'word: he, index: 16'
p798
aatp799
Rp800
(dp801
g12
Vnsubj
p802
sbag0
(g1
g2
(lp803
(lp804
S'word: just, index: 17'
p805
aatp806
Rp807
(dp808
g12
Vadvmod
p809
sbatp810
Rp811
(dp812
g12
S'word: want, index: 18'
p813
sbatp814
Rp815
(dp816
g12
Vparataxis
p817
sbag0
(g1
g2
(lp818
(lp819
S'word: that, index: 22'
p820
aatp821
Rp822
(dp823
g12
Vnsubj
p824
sbag0
(g1
g2
(lp825
(lp826
S"word: 's, index: 23"
p827
aatp828
Rp829
(dp830
g12
Vcop
p831
sbag0
(g1
g2
(lp832
(lp833
S'word: himself, index: 14'
p834
aatp835
Rp836
(dp837
g12
Vnsubj
p838
sbatp839
Rp840
(dp841
g12
S'word: it, index: 24'
p842
sbatp843
Rp844
(dp845
g12
Vccomp
p846
sbatp847
Rp848
(dp849
g12
S'word: hurt, index: 13'
p850
sbatp851
Rp852
(dp853
g12
Vccomp
p854
sbatp855
Rp856
(dp857
g12
S'word: fall, index: 11'
p858
sbatp859
Rp860
(dp861
g12
Vdep
p862
sbag0
(g1
g2
(lp863
g759
atp864
Rp865
(dp866
g12
Vdep
p867
sbag0
(g1
g2
(lp868
(lp869
S'word: So, index: 1'
p870
aatp871
Rp872
(dp873
g12
Vadvmod
p874
sbatp875
Rp876
(dp877
g12
S'word: fall, index: 7'
p878
sbatp879
Rp880
(dp881
g12
S'id: 6'
p882
sbag0
(g1
g2
(lp883
g0
(g1
g2
(lp884
g0
(g1
g2
(lp885
g0
(g1
g2
(lp886
g0
(g1
g2
(lp887
(lp888
S'word: the, index: 4'
p889
aatp890
Rp891
(dp892
g12
Vdet
p893
sbatp894
Rp895
(dp896
g12
S'word: ants, index: 5'
p897
sbatp898
Rp899
(dp900
g12
Vdobj
p901
sbag0
(g1
g2
(lp902
g0
(g1
g2
(lp903
g0
(g1
g2
(lp904
(lp905
S'word: then, index: 7'
p906
aatp907
Rp908
(dp909
g12
Vadvmod
p910
sbag0
(g1
g2
(lp911
(lp912
S'word: himself, index: 9'
p913
aatp914
Rp915
(dp916
g12
Vdobj
p917
sbag0
(g1
g2
(lp918
(lp919
S'word: He, index: 1'
p920
aatp921
Rp922
(dp923
g12
Vnsubj
p924
sbatp925
Rp926
(dp927
g12
S'word: hurt, index: 8'
p928
sbatp929
Rp930
(dp931
g12
Vconj
p932
sbag0
(g1
g2
(lp933
(lp934
S'word: He, index: 1'
p935
aatp936
Rp937
(dp938
g12
Vnsubj
p939
sbag0
(g1
g2
(lp940
(lp941
S"word: 's, index: 2"
p942
aatp943
Rp944
(dp945
g12
Vaux
p946
sbatp947
Rp948
(dp949
g12
S'word: fooling, index: 3'
p950
sbatp951
Rp952
(dp953
g12
S'id: 7'
p954
sbag0
(g1
g2
(lp955
g0
(g1
g2
(lp956
g0
(g1
g2
(lp957
(lp958
S'word: He, index: 1'
p959
aatp960
Rp961
(dp962
g12
Vnsubjpass
p963
sbag0
(g1
g2
(lp964
(lp965
S"word: 's, index: 2"
p966
aatp967
Rp968
(dp969
g12
Vauxpass
p970
sbag0
(g1
g2
(lp971
g0
(g1
g2
(lp972
g0
(g1
g2
(lp973
g0
(g1
g2
(lp974
g0
(g1
g2
(lp975
g0
(g1
g2
(lp976
g0
(g1
g2
(lp977
(lp978
S'word: what, index: 38'
p979
aatp980
Rp981
(dp982
g12
Vdobj
p983
sbag0
(g1
g2
(lp984
(lp985
S'word: he, index: 39'
p986
aatp987
Rp988
(dp989
g12
Vnsubj
p990
sbatp991
Rp992
(dp993
g12
S'word: wants, index: 40'
p994
sbatp995
Rp996
(dp997
g12
Vccomp
p998
sbag0
(g1
g2
(lp999
(lp1000
S'word: that, index: 36'
p1001
aatp1002
Rp1003
(dp1004
g12
Vnsubj
p1005
sbatp1006
Rp1007
(dp1008
g12
S"word: 's, index: 37"
p1009
sbatp1010
Rp1011
(dp1012
g12
Vrcmod
p1013
sbag0
(g1
g2
(lp1014
g0
(g1
g2
(lp1015
g0
(g1
g2
(lp1016
g0
(g1
g2
(lp1017
g0
(g1
g2
(lp1018
(lp1019
S'word: he, index: 9'
p1020
aatp1021
Rp1022
(dp1023
g12
Vnsubj
p1024
sbag0
(g1
g2
(lp1025
g0
(g1
g2
(lp1026
g0
(g1
g2
(lp1027
(lp1028
S"word: 's, index: 13"
p1029
aatp1030
Rp1031
(dp1032
g12
Vpossessive
p1033
sbatp1034
Rp1035
(dp1036
g12
S'word: kid, index: 12'
p1037
sbatp1038
Rp1039
(dp1040
g12
Vprep
p1041
sbatp1042
Rp1043
(dp1044
g12
S'word: tried, index: 10'
p1045
sbatp1046
Rp1047
(dp1048
g12
Vparataxis
p1049
sbag0
(g1
g2
(lp1050
g0
(g1
g2
(lp1051
g0
(g1
g2
(lp1052
g0
(g1
g2
(lp1053
g0
(g1
g2
(lp1054
(lp1055
S'word: that, index: 26'
p1056
aatp1057
Rp1058
(dp1059
g12
Vdep
p1060
sbatp1061
Rp1062
(dp1063
g12
S'word: sister, index: 27'
p1064
sbatp1065
Rp1066
(dp1067
g12
Vadvcl
p1068
sbag0
(g1
g2
(lp1069
(lp1070
S'word: he, index: 29'
p1071
aatp1072
Rp1073
(dp1074
g12
Vnsubj
p1075
sbag0
(g1
g2
(lp1076
(lp1077
S'word: that, index: 15'
p1078
aatp1079
Rp1080
(dp1081
g12
Vmark
p1082
sbag0
(g1
g2
(lp1083
g0
(g1
g2
(lp1084
g0
(g1
g2
(lp1085
(lp1086
S'word: the, index: 31'
p1087
aatp1088
Rp1089
(dp1090
g12
Vdet
p1091
sbatp1092
Rp1093
(dp1094
g12
S'word: cook, index: 32'
p1095
sbatp1096
Rp1097
(dp1098
g12
Vdobj
p1099
sbag0
(g1
g2
(lp1100
(lp1101
S'word: her, index: 34'
p1102
aatp1103
Rp1104
(dp1105
g12
Vprep
p1106
sbag0
(g1
g2
(lp1107
g0
(g1
g2
(lp1108
g0
(g1
g2
(lp1109
(lp1110
S'word: that, index: 17'
p1111
aatp1112
Rp1113
(dp1114
g12
Vdet
p1115
sbag0
(g1
g2
(lp1116
(lp1117
S'word: young, index: 18'
p1118
aatp1119
Rp1120
(dp1121
g12
Vamod
p1122
sbag0
(g1
g2
(lp1123
g0
(g1
g2
(lp1124
g0
(g1
g2
(lp1125
g0
(g1
g2
(lp1126
g0
(g1
g2
(lp1127
(lp1128
S'word: the, index: 23'
p1129
aatp1130
Rp1131
(dp1132
g12
Vdet
p1133
sbatp1134
Rp1135
(dp1136
g12
S'word: kid, index: 24'
p1137
sbatp1138
Rp1139
(dp1140
g12
Vappos
p1141
sbatp1142
Rp1143
(dp1144
g12
S'word: girl, index: 21'
p1145
sbatp1146
Rp1147
(dp1148
g12
Vappos
p1149
sbatp1150
Rp1151
(dp1152
g12
S'word: boy, index: 19'
p1153
sbatp1154
Rp1155
(dp1156
g12
Vprep
p1157
sbatp1158
Rp1159
(dp1160
g12
S'word: wants, index: 30'
p1161
sbatp1162
Rp1163
(dp1164
g12
Vccomp
p1165
sbag0
(g1
g2
(lp1166
(lp1167
S'word: down, index: 7'
p1168
aatp1169
Rp1170
(dp1171
g12
Vadvmod
p1172
sbatp1173
Rp1174
(dp1175
g12
S'word: fall, index: 6'
p1176
sbatp1177
Rp1178
(dp1179
g12
Vdep
p1180
sbatp1181
Rp1182
(dp1183
g12
S'word: thing, index: 4'
p1184
sbatp1185
Rp1186
(dp1187
g12
Vdobj
p1188
sbatp1189
Rp1190
(dp1191
g12
S'word: got, index: 3'
p1192
sbatp1193
Rp1194
(dp1195
g12
S'id: 8'
p1196
sbag0
(g1
g2
(lp1197
g0
(g1
g2
(lp1198
g0
(g1
g2
(lp1199
(lp1200
S'word: Not, index: 1'
p1201
aatp1202
Rp1203
(dp1204
g12
Vneg
p1205
sbag0
(g1
g2
(lp1206
g0
(g1
g2
(lp1207
g0
(g1
g2
(lp1208
(lp1209
S'word: out, index: 4'
p1210
aatp1211
Rp1212
(dp1213
g12
Vadvmod
p1214
sbag0
(g1
g2
(lp1215
g0
(g1
g2
(lp1216
g0
(g1
g2
(lp1217
(lp1218
S'word: the, index: 7'
p1219
aatp1220
Rp1221
(dp1222
g12
Vdet
p1223
sbag0
(g1
g2
(lp1224
(lp1225
S'word: house, index: 8'
p1226
aatp1227
Rp1228
(dp1229
g12
Vnn
p1230
sbatp1231
Rp1232
(dp1233
g12
S'word: side, index: 9'
p1234
sbatp1235
Rp1236
(dp1237
g12
Vprep
p1238
sbatp1239
Rp1240
(dp1241
g12
S'word: going, index: 3'
p1242
sbatp1243
Rp1244
(dp1245
g12
Vvmod
p1246
sbatp1247
Rp1248
(dp1249
g12
S'word: much, index: 2'
p1250
sbatp1251
Rp1252
(dp1253
g12
S'id: 9'
p1254
sbag0
(g1
g2
(lp1255
g0
(g1
g2
(lp1256
g0
(g1
g2
(lp1257
g0
(g1
g2
(lp1258
g0
(g1
g2
(lp1259
(lp1260
S'word: Things, index: 1'
p1261
aatp1262
Rp1263
(dp1264
g12
Vnsubj
p1265
sbag0
(g1
g2
(lp1266
(lp1267
S'word: down, index: 3'
p1268
aatp1269
Rp1270
(dp1271
g12
Vadvmod
p1272
sbatp1273
Rp1274
(dp1275
g12
S'word: fall, index: 2'
p1276
sbatp1277
Rp1278
(dp1279
g12
Vccomp
p1280
sbag0
(g1
g2
(lp1281
(lp1282
S'word: she, index: 5'
p1283
aatp1284
Rp1285
(dp1286
g12
Vnsubj
p1287
sbag0
(g1
g2
(lp1288
(lp1289
S'word: down, index: 7'
p1290
aatp1291
Rp1292
(dp1293
g12
Vadvmod
p1294
sbag0
(g1
g2
(lp1295
(lp1296
S'word: water, index: 9'
p1297
aatp1298
Rp1299
(dp1300
g12
Vdep
p1301
sbag0
(g1
g2
(lp1302
g0
(g1
g2
(lp1303
g0
(g1
g2
(lp1304
(lp1305
S'word: this, index: 14'
p1306
aatp1307
Rp1308
(dp1309
g12
Vdobj
p1310
sbag0
(g1
g2
(lp1311
(lp1312
S'word: she, index: 11'
p1313
aatp1314
Rp1315
(dp1316
g12
Vnsubj
p1317
sbag0
(g1
g2
(lp1318
(lp1319
S'word: still, index: 12'
p1320
aatp1321
Rp1322
(dp1323
g12
Vadvmod
p1324
sbatp1325
Rp1326
(dp1327
g12
S'word: cleaning, index: 13'
p1328
sbatp1329
Rp1330
(dp1331
g12
Vccomp
p1332
sbatp1333
Rp1334
(dp1335
g12
S'word: falls, index: 6'
p1336
sbatp1337
Rp1338
(dp1339
g12
S'id: 10'
p1340
sbag0
(g1
g2
(lp1341
g0
(g1
g2
(lp1342
g0
(g1
g2
(lp1343
g0
(g1
g2
(lp1344
g0
(g1
g2
(lp1345
(lp1346
S'word: This, index: 1'
p1347
aatp1348
Rp1349
(dp1350
g12
Vnsubj
p1351
sbag0
(g1
g2
(lp1352
(lp1353
S'word: down, index: 3'
p1354
aatp1355
Rp1356
(dp1357
g12
Vprt
p1358
sbag0
(g1
g2
(lp1359
g0
(g1
g2
(lp1360
g0
(g1
g2
(lp1361
(lp1362
S'word: this, index: 4'
p1363
aatp1364
Rp1365
(dp1366
g12
Vdet
p1367
sbatp1368
Rp1369
(dp1370
g12
S'word: thing, index: 5'
p1371
sbatp1372
Rp1373
(dp1374
g12
Vdobj
p1375
sbatp1376
Rp1377
(dp1378
g12
S'word: knocking, index: 2'
p1379
sbatp1380
Rp1381
(dp1382
g12
Vdep
p1383
sbag0
(g1
g2
(lp1384
(lp1385
S'word: itself, index: 18'
p1386
aatp1387
Rp1388
(dp1389
g12
Vnsubj
p1390
sbag0
(g1
g2
(lp1391
g0
(g1
g2
(lp1392
g0
(g1
g2
(lp1393
(lp1394
S'word: his, index: 8'
p1395
aatp1396
Rp1397
(dp1398
g12
Vposs
p1399
sbatp1400
Rp1401
(dp1402
g12
S'word: hand, index: 9'
p1403
sbatp1404
Rp1405
(dp1406
g12
Vdobj
p1407
sbag0
(g1
g2
(lp1408
g0
(g1
g2
(lp1409
g0
(g1
g2
(lp1410
(lp1411
S'word: that, index: 10'
p1412
aatp1413
Rp1414
(dp1415
g12
Vnsubj
p1416
sbag0
(g1
g2
(lp1417
(lp1418
S"word: 's, index: 11"
p1419
aatp1420
Rp1421
(dp1422
g12
Vaux
p1423
sbag0
(g1
g2
(lp1424
g0
(g1
g2
(lp1425
g0
(g1
g2
(lp1426
g0
(g1
g2
(lp1427
g0
(g1
g2
(lp1428
(lp1429
S'word: the, index: 16'
p1430
aatp1431
Rp1432
(dp1433
g12
Vdet
p1434
sbatp1435
Rp1436
(dp1437
g12
S'word: fall, index: 17'
p1438
sbatp1439
Rp1440
(dp1441
g12
Vprep
p1442
sbag0
(g1
g2
(lp1443
(lp1444
S'word: na, index: 13'
p1445
aatp1446
Rp1447
(dp1448
g12
Vaux
p1449
sbatp1450
Rp1451
(dp1452
g12
S'word: fall, index: 14'
p1453
sbatp1454
Rp1455
(dp1456
g12
Vxcomp
p1457
sbatp1458
Rp1459
(dp1460
g12
S'word: gon, index: 12'
p1461
sbatp1462
Rp1463
(dp1464
g12
Vdep
p1465
sbatp1466
Rp1467
(dp1468
g12
S'word: got, index: 7'
p1469
sbatp1470
Rp1471
(dp1472
g12
S'id: 11'
p1473
sbag0
(g1
g2
(lp1474
g0
(g1
g2
(lp1475
g0
(g1
g2
(lp1476
g0
(g1
g2
(lp1477
g0
(g1
g2
(lp1478
(lp1479
S'word: na, index: 4'
p1480
aatp1481
Rp1482
(dp1483
g12
Vaux
p1484
sbag0
(g1
g2
(lp1485
g0
(g1
g2
(lp1486
g0
(g1
g2
(lp1487
(lp1488
S'word: the, index: 6'
p1489
aatp1490
Rp1491
(dp1492
g12
Vdet
p1493
sbatp1494
Rp1495
(dp1496
g12
S'word: cookie, index: 7'
p1497
sbatp1498
Rp1499
(dp1500
g12
Vdobj
p1501
sbatp1502
Rp1503
(dp1504
g12
S'word: get, index: 5'
p1505
sbatp1506
Rp1507
(dp1508
g12
Vxcomp
p1509
sbag0
(g1
g2
(lp1510
g0
(g1
g2
(lp1511
g0
(g1
g2
(lp1512
g0
(g1
g2
(lp1513
g0
(g1
g2
(lp1514
(lp1515
S'word: no, index: 10'
p1516
aatp1517
Rp1518
(dp1519
g12
Vneg
p1520
sbatp1521
Rp1522
(dp1523
g12
S'word: one, index: 11'
p1524
sbatp1525
Rp1526
(dp1527
g12
Vnsubj
p1528
sbag0
(g1
g2
(lp1529
g0
(g1
g2
(lp1530
g0
(g1
g2
(lp1531
(lp1532
S'word: to, index: 13'
p1533
aatp1534
Rp1535
(dp1536
g12
Vaux
p1537
sbag0
(g1
g2
(lp1538
(lp1539
S'word: it, index: 16'
p1540
aatp1541
Rp1542
(dp1543
g12
Vprep
p1544
sbatp1545
Rp1546
(dp1547
g12
S'word: care, index: 14'
p1548
sbatp1549
Rp1550
(dp1551
g12
Vxcomp
p1552
sbatp1553
Rp1554
(dp1555
g12
S'word: seems, index: 12'
p1556
sbatp1557
Rp1558
(dp1559
g12
Vconj
p1560
sbag0
(g1
g2
(lp1561
(lp1562
S'word: She, index: 1'
p1563
aatp1564
Rp1565
(dp1566
g12
Vnsubj
p1567
sbag0
(g1
g2
(lp1568
(lp1569
S"word: 's, index: 2"
p1570
aatp1571
Rp1572
(dp1573
g12
Vaux
p1574
sbatp1575
Rp1576
(dp1577
g12
S'word: gon, index: 3'
p1578
sbatp1579
Rp1580
(dp1581
g12
S'id: 12'
p1582
sbag0
(g1
g2
(lp1583
tp1584
Rp1585
(dp1586
g12
S'id: 13'
p1587
sbag0
(g1
g2
(lp1588
g0
(g1
g2
(lp1589
g0
(g1
g2
(lp1590
(lp1591
S'word: Is, index: 1'
p1592
aatp1593
Rp1594
(dp1595
g12
Vcop
p1596
sbag0
(g1
g2
(lp1597
(lp1598
S'word: it, index: 3'
p1599
aatp1600
Rp1601
(dp1602
g12
Vnsubj
p1603
sbatp1604
Rp1605
(dp1606
g12
S'word: that, index: 2'
p1607
sbatp1608
Rp1609
(dp1610
g12
S'id: 14'
p1611
sbatp1612
Rp1613
(dp1614
g12
S'sentences'
p1615
sb.