ccopy_reg
_reconstructor
p0
(cnltk.tree
Tree
p1
c__builtin__
list
p2
(lp3
g0
(g1
g2
(lp4
g0
(g1
g2
(lp5
g0
(g1
g2
(lp6
VI
p7
atp8
Rp9
(dp10
S'_label'
p11
S'start: 4'
p12
sbatp13
Rp14
(dp15
g11
S'sent: 4'
p16
sbag0
(g1
g2
(lp17
g0
(g1
g2
(lp18
VI
p19
atp20
Rp21
(dp22
g11
S'start: 5'
p23
sbatp24
Rp25
(dp26
g11
S'sent: 15'
p27
sbatp28
Rp29
(dp30
g11
S'id: 9'
p31
sbag0
(g1
g2
(lp32
g0
(g1
g2
(lp33
g0
(g1
g2
(lp34
Vthe , pulling , the
p35
atp36
Rp37
(dp38
g11
S'start: 6'
p39
sbatp40
Rp41
(dp42
g11
S'sent: 5'
p43
sbag0
(g1
g2
(lp44
g0
(g1
g2
(lp45
Vthe
p46
atp47
Rp48
(dp49
g11
S'start: 6'
p50
sbatp51
Rp52
(dp53
g11
S'sent: 5'
p54
sbag0
(g1
g2
(lp55
g0
(g1
g2
(lp56
Vpulling , the
p57
atp58
Rp59
(dp60
g11
S'start: 8'
p61
sbatp62
Rp63
(dp64
g11
S'sent: 5'
p65
sbag0
(g1
g2
(lp66
g0
(g1
g2
(lp67
Vpulling
p68
atp69
Rp70
(dp71
g11
S'start: 8'
p72
sbatp73
Rp74
(dp75
g11
S'sent: 5'
p76
sbag0
(g1
g2
(lp77
g0
(g1
g2
(lp78
Vthe
p79
atp80
Rp81
(dp82
g11
S'start: 10'
p83
sbatp84
Rp85
(dp86
g11
S'sent: 5'
p87
sbag0
(g1
g2
(lp88
g0
(g1
g2
(lp89
Vthe , with the , with the line
p90
atp91
Rp92
(dp93
g11
S'start: 27'
p94
sbatp95
Rp96
(dp97
g11
S'sent: 8'
p98
sbag0
(g1
g2
(lp99
g0
(g1
g2
(lp100
Vthe
p101
atp102
Rp103
(dp104
g11
S'start: 27'
p105
sbatp106
Rp107
(dp108
g11
S'sent: 8'
p109
sbag0
(g1
g2
(lp110
g0
(g1
g2
(lp111
Vthe
p112
atp113
Rp114
(dp115
g11
S'start: 30'
p116
sbatp117
Rp118
(dp119
g11
S'sent: 8'
p120
sbatp121
Rp122
(dp123
g11
S'id: 12'
p124
sbag0
(g1
g2
(lp125
g0
(g1
g2
(lp126
g0
(g1
g2
(lp127
Vthis woman
p128
atp129
Rp130
(dp131
g11
S'start: 16'
p132
sbatp133
Rp134
(dp135
g11
S'sent: 5'
p136
sbag0
(g1
g2
(lp137
g0
(g1
g2
(lp138
VThis woman
p139
atp140
Rp141
(dp142
g11
S'start: 1'
p143
sbatp144
Rp145
(dp146
g11
S'sent: 13'
p147
sbag0
(g1
g2
(lp148
g0
(g1
g2
(lp149
Vshe
p150
atp151
Rp152
(dp153
g11
S'start: 6'
p154
sbatp155
Rp156
(dp157
g11
S'sent: 16'
p158
sbatp159
Rp160
(dp161
g11
S'id: 17'
p162
sbag0
(g1
g2
(lp163
g0
(g1
g2
(lp164
g0
(g1
g2
(lp165
Vtwo
p166
atp167
Rp168
(dp169
g11
S'start: 10'
p170
sbatp171
Rp172
(dp173
g11
S'sent: 6'
p174
sbag0
(g1
g2
(lp175
g0
(g1
g2
(lp176
Vtwo
p177
atp178
Rp179
(dp180
g11
S'start: 3'
p181
sbatp182
Rp183
(dp184
g11
S'sent: 8'
p185
sbag0
(g1
g2
(lp186
g0
(g1
g2
(lp187
Vtwo
p188
atp189
Rp190
(dp191
g11
S'start: 3'
p192
sbatp193
Rp194
(dp195
g11
S'sent: 10'
p196
sbag0
(g1
g2
(lp197
g0
(g1
g2
(lp198
Vthat
p199
atp200
Rp201
(dp202
g11
S'start: 13'
p203
sbatp204
Rp205
(dp206
g11
S'sent: 10'
p207
sbag0
(g1
g2
(lp208
g0
(g1
g2
(lp209
Vtwo
p210
atp211
Rp212
(dp213
g11
S'start: 2'
p214
sbatp215
Rp216
(dp217
g11
S'sent: 15'
p218
sbatp219
Rp220
(dp221
g11
S'id: 18'
p222
sbag0
(g1
g2
(lp223
g0
(g1
g2
(lp224
g0
(g1
g2
(lp225
Va
p226
atp227
Rp228
(dp229
g11
S'start: 3'
p230
sbatp231
Rp232
(dp233
g11
S'sent: 6'
p234
sbag0
(g1
g2
(lp235
g0
(g1
g2
(lp236
Vhim
p237
atp238
Rp239
(dp240
g11
S'start: 19'
p241
sbatp242
Rp243
(dp244
g11
S'sent: 6'
p245
sbatp246
Rp247
(dp248
g11
S'id: 19'
p249
sbag0
(g1
g2
(lp250
g0
(g1
g2
(lp251
g0
(g1
g2
(lp252
Vsome kids
p253
atp254
Rp255
(dp256
g11
S'start: 14'
p257
sbatp258
Rp259
(dp260
g11
S'sent: 6'
p261
sbag0
(g1
g2
(lp262
g0
(g1
g2
(lp263
Vthe kids
p264
atp265
Rp266
(dp267
g11
S'start: 18'
p268
sbatp269
Rp270
(dp271
g11
S'sent: 12'
p272
sbatp273
Rp274
(dp275
g11
S'id: 23'
p276
sbag0
(g1
g2
(lp277
g0
(g1
g2
(lp278
g0
(g1
g2
(lp279
Vhere
p280
atp281
Rp282
(dp283
g11
S'start: 2'
p284
sbatp285
Rp286
(dp287
g11
S'sent: 7'
p288
sbag0
(g1
g2
(lp289
g0
(g1
g2
(lp290
Va man throwing on the kid
p291
atp292
Rp293
(dp294
g11
S'start: 4'
p295
sbatp296
Rp297
(dp298
g11
S'sent: 7'
p299
sbag0
(g1
g2
(lp300
g0
(g1
g2
(lp301
VHere
p302
atp303
Rp304
(dp305
g11
S'start: 1'
p306
sbatp307
Rp308
(dp309
g11
S'sent: 8'
p310
sbag0
(g1
g2
(lp311
g0
(g1
g2
(lp312
Vhe
p313
atp314
Rp315
(dp316
g11
S'start: 43'
p317
sbatp318
Rp319
(dp320
g11
S'sent: 8'
p321
sbag0
(g1
g2
(lp322
g0
(g1
g2
(lp323
VHe
p324
atp325
Rp326
(dp327
g11
S'start: 1'
p328
sbatp329
Rp330
(dp331
g11
S'sent: 9'
p332
sbag0
(g1
g2
(lp333
g0
(g1
g2
(lp334
Vhe
p335
atp336
Rp337
(dp338
g11
S'start: 4'
p339
sbatp340
Rp341
(dp342
g11
S'sent: 9'
p343
sbatp344
Rp345
(dp346
g11
S'id: 26'
p347
sbag0
(g1
g2
(lp348
g0
(g1
g2
(lp349
g0
(g1
g2
(lp350
Vthe kid
p351
atp352
Rp353
(dp354
g11
S'start: 8'
p355
sbatp356
Rp357
(dp358
g11
S'sent: 7'
p359
sbag0
(g1
g2
(lp360
g0
(g1
g2
(lp361
Vthis kid at all
p362
atp363
Rp364
(dp365
g11
S'start: 6'
p366
sbatp367
Rp368
(dp369
g11
S'sent: 11'
p370
sbag0
(g1
g2
(lp371
g0
(g1
g2
(lp372
Vthis kid
p373
atp374
Rp375
(dp376
g11
S'start: 9'
p377
sbatp378
Rp379
(dp380
g11
S'sent: 13'
p381
sbag0
(g1
g2
(lp382
g0
(g1
g2
(lp383
Vhe
p384
atp385
Rp386
(dp387
g11
S'start: 12'
p388
sbatp389
Rp390
(dp391
g11
S'sent: 13'
p392
sbag0
(g1
g2
(lp393
g0
(g1
g2
(lp394
Vhe
p395
atp396
Rp397
(dp398
g11
S'start: 18'
p399
sbatp400
Rp401
(dp402
g11
S'sent: 13'
p403
sbag0
(g1
g2
(lp404
g0
(g1
g2
(lp405
Vthis kid
p406
atp407
Rp408
(dp409
g11
S'start: 3'
p410
sbatp411
Rp412
(dp413
g11
S'sent: 16'
p414
sbatp415
Rp416
(dp417
g11
S'id: 28'
p418
sbag0
(g1
g2
(lp419
g0
(g1
g2
(lp420
g0
(g1
g2
(lp421
Vtwo people watch this
p422
atp423
Rp424
(dp425
g11
S'start: 3'
p426
sbatp427
Rp428
(dp429
g11
S'sent: 8'
p430
sbag0
(g1
g2
(lp431
g0
(g1
g2
(lp432
Vtheir
p433
atp434
Rp435
(dp436
g11
S'start: 47'
p437
sbatp438
Rp439
(dp440
g11
S'sent: 8'
p441
sbag0
(g1
g2
(lp442
g0
(g1
g2
(lp443
Vpeople
p444
atp445
Rp446
(dp447
g11
S'start: 7'
p448
sbatp449
Rp450
(dp451
g11
S'sent: 9'
p452
sbag0
(g1
g2
(lp453
g0
(g1
g2
(lp454
Vtwo people
p455
atp456
Rp457
(dp458
g11
S'start: 3'
p459
sbatp460
Rp461
(dp462
g11
S'sent: 10'
p463
sbag0
(g1
g2
(lp464
g0
(g1
g2
(lp465
VThese people
p466
atp467
Rp468
(dp469
g11
S'start: 1'
p470
sbatp471
Rp472
(dp473
g11
S'sent: 12'
p474
sbag0
(g1
g2
(lp475
g0
(g1
g2
(lp476
VThis two people
p477
atp478
Rp479
(dp480
g11
S'start: 1'
p481
sbatp482
Rp483
(dp484
g11
S'sent: 15'
p485
sbag0
(g1
g2
(lp486
g0
(g1
g2
(lp487
Vthey
p488
atp489
Rp490
(dp491
g11
S'start: 9'
p492
sbatp493
Rp494
(dp495
g11
S'sent: 15'
p496
sbag0
(g1
g2
(lp497
g0
(g1
g2
(lp498
Vthem
p499
atp500
Rp501
(dp502
g11
S'start: 16'
p503
sbatp504
Rp505
(dp506
g11
S'sent: 17'
p507
sbag0
(g1
g2
(lp508
g0
(g1
g2
(lp509
VThese people
p510
atp511
Rp512
(dp513
g11
S'start: 1'
p514
sbatp515
Rp516
(dp517
g11
S'sent: 21'
p518
sbatp519
Rp520
(dp521
g11
S'id: 31'
p522
sbag0
(g1
g2
(lp523
g0
(g1
g2
(lp524
g0
(g1
g2
(lp525
Vman trying to kill , play with , the , with the , with the line
p526
atp527
Rp528
(dp529
g11
S'start: 19'
p530
sbatp531
Rp532
(dp533
g11
S'sent: 8'
p534
sbag0
(g1
g2
(lp535
g0
(g1
g2
(lp536
Vhe
p537
atp538
Rp539
(dp540
g11
S'start: 37'
p541
sbatp542
Rp543
(dp544
g11
S'sent: 8'
p545
sbatp546
Rp547
(dp548
g11
S'id: 36'
p549
sbag0
(g1
g2
(lp550
g0
(g1
g2
(lp551
g0
(g1
g2
(lp552
Vthe , with the
p553
atp554
Rp555
(dp556
g11
S'start: 27'
p557
sbatp558
Rp559
(dp560
g11
S'sent: 8'
p561
sbag0
(g1
g2
(lp562
g0
(g1
g2
(lp563
Vshe
p564
atp565
Rp566
(dp567
g11
S'start: 11'
p568
sbatp569
Rp570
(dp571
g11
S'sent: 11'
p572
sbatp573
Rp574
(dp575
g11
S'id: 38'
p576
sbag0
(g1
g2
(lp577
g0
(g1
g2
(lp578
g0
(g1
g2
(lp579
Vthis balown
p580
atp581
Rp582
(dp583
g11
S'start: 5'
p584
sbatp585
Rp586
(dp587
g11
S'sent: 12'
p588
sbag0
(g1
g2
(lp589
g0
(g1
g2
(lp590
Vhis
p591
atp592
Rp593
(dp594
g11
S'start: 11'
p595
sbatp596
Rp597
(dp598
g11
S'sent: 12'
p599
sbatp600
Rp601
(dp602
g11
S'id: 60'
p603
sbag0
(g1
g2
(lp604
g0
(g1
g2
(lp605
g0
(g1
g2
(lp606
Veveryone 's happy
p607
atp608
Rp609
(dp610
g11
S'start: 21'
p611
sbatp612
Rp613
(dp614
g11
S'sent: 12'
p615
sbag0
(g1
g2
(lp616
g0
(g1
g2
(lp617
Vthat
p618
atp619
Rp620
(dp621
g11
S'start: 25'
p622
sbatp623
Rp624
(dp625
g11
S'sent: 12'
p626
sbatp627
Rp628
(dp629
g11
S'id: 66'
p630
sbag0
(g1
g2
(lp631
g0
(g1
g2
(lp632
g0
(g1
g2
(lp633
Vthis
p634
atp635
Rp636
(dp637
g11
S'start: 10'
p638
sbatp639
Rp640
(dp641
g11
S'sent: 16'
p642
sbag0
(g1
g2
(lp643
g0
(g1
g2
(lp644
Vthis , this
p645
atp646
Rp647
(dp648
g11
S'start: 4'
p649
sbatp650
Rp651
(dp652
g11
S'sent: 19'
p653
sbag0
(g1
g2
(lp654
g0
(g1
g2
(lp655
Vthis
p656
atp657
Rp658
(dp659
g11
S'start: 4'
p660
sbatp661
Rp662
(dp663
g11
S'sent: 19'
p664
sbag0
(g1
g2
(lp665
g0
(g1
g2
(lp666
Vthis
p667
atp668
Rp669
(dp670
g11
S'start: 6'
p671
sbatp672
Rp673
(dp674
g11
S'sent: 19'
p675
sbag0
(g1
g2
(lp676
g0
(g1
g2
(lp677
VThis
p678
atp679
Rp680
(dp681
g11
S'start: 1'
p682
sbatp683
Rp684
(dp685
g11
S'sent: 20'
p686
sbag0
(g1
g2
(lp687
g0
(g1
g2
(lp688
Va good thing to do , this is typhing , this is nothing , nobody 's paying attention to him
p689
atp690
Rp691
(dp692
g11
S'start: 3'
p693
sbatp694
Rp695
(dp696
g11
S'sent: 20'
p697
sbag0
(g1
g2
(lp698
g0
(g1
g2
(lp699
Vthis
p700
atp701
Rp702
(dp703
g11
S'start: 9'
p704
sbatp705
Rp706
(dp707
g11
S'sent: 20'
p708
sbag0
(g1
g2
(lp709
g0
(g1
g2
(lp710
Vthis
p711
atp712
Rp713
(dp714
g11
S'start: 13'
p715
sbatp716
Rp717
(dp718
g11
S'sent: 20'
p719
sbag0
(g1
g2
(lp720
g0
(g1
g2
(lp721
Vthis , big things going here
p722
atp723
Rp724
(dp725
g11
S'start: 3'
p726
sbatp727
Rp728
(dp729
g11
S'sent: 22'
p730
sbag0
(g1
g2
(lp731
g0
(g1
g2
(lp732
Vthis
p733
atp734
Rp735
(dp736
g11
S'start: 3'
p737
sbatp738
Rp739
(dp740
g11
S'sent: 22'
p741
sbatp742
Rp743
(dp744
g11
S'id: 84'
p745
sbag0
(g1
g2
(lp746
g0
(g1
g2
(lp747
g0
(g1
g2
(lp748
Vthat way
p749
atp750
Rp751
(dp752
g11
S'start: 24'
p753
sbatp754
Rp755
(dp756
g11
S'sent: 17'
p757
sbag0
(g1
g2
(lp758
g0
(g1
g2
(lp759
Vit
p760
atp761
Rp762
(dp763
g11
S'start: 34'
p764
sbatp765
Rp766
(dp767
g11
S'sent: 17'
p768
sbatp769
Rp770
(dp771
g11
S'id: 91'
p772
sbag0
(g1
g2
(lp773
g0
(g1
g2
(lp774
g0
(g1
g2
(lp775
VThose
p776
atp777
Rp778
(dp779
g11
S'start: 1'
p780
sbatp781
Rp782
(dp783
g11
S'sent: 18'
p784
sbag0
(g1
g2
(lp785
g0
(g1
g2
(lp786
Vthree neat things going here
p787
atp788
Rp789
(dp790
g11
S'start: 3'
p791
sbatp792
Rp793
(dp794
g11
S'sent: 18'
p795
sbatp796
Rp797
(dp798
g11
S'id: 96'
p799
sbag0
(g1
g2
(lp800
g0
(g1
g2
(lp801
g0
(g1
g2
(lp802
VNobody look at this , this
p803
atp804
Rp805
(dp806
g11
S'start: 1'
p807
sbatp808
Rp809
(dp810
g11
S'sent: 19'
p811
sbag0
(g1
g2
(lp812
g0
(g1
g2
(lp813
Vpretty much nothing
p814
atp815
Rp816
(dp817
g11
S'start: 8'
p818
sbatp819
Rp820
(dp821
g11
S'sent: 19'
p822
sbatp823
Rp824
(dp825
g11
S'id: 101'
p826
sbag0
(g1
g2
(lp827
g0
(g1
g2
(lp828
g0
(g1
g2
(lp829
Vnobody 's
p830
atp831
Rp832
(dp833
g11
S'start: 17'
p834
sbatp835
Rp836
(dp837
g11
S'sent: 20'
p838
sbag0
(g1
g2
(lp839
g0
(g1
g2
(lp840
Vhim
p841
atp842
Rp843
(dp844
g11
S'start: 22'
p845
sbatp846
Rp847
(dp848
g11
S'sent: 20'
p849
sbatp850
Rp851
(dp852
g11
S'id: 111'
p853
sbag0
(g1
g2
(lp854
g0
(g1
g2
(lp855
g0
(g1
g2
(lp856
Vthe circ
p857
atp858
Rp859
(dp860
g11
S'start: 11'
p861
sbatp862
Rp863
(dp864
g11
S'sent: 21'
p865
sbag0
(g1
g2
(lp866
g0
(g1
g2
(lp867
Vthe circus
p868
atp869
Rp870
(dp871
g11
S'start: 14'
p872
sbatp873
Rp874
(dp875
g11
S'sent: 21'
p876
sbatp877
Rp878
(dp879
g11
S'id: 116'
p880
sbatp881
Rp882
(dp883
g11
S'coreferences'
p884
sb.