ccopy_reg
_reconstructor
p0
(cnltk.tree
Tree
p1
c__builtin__
list
p2
(lp3
g0
(g1
g2
(lp4
g0
(g1
g2
(lp5
g0
(g1
g2
(lp6
g0
(g1
g2
(lp7
VIt
p8
atp9
Rp10
(dp11
S'_label'
p12
VPRP
p13
sbatp14
Rp15
(dp16
g12
VNP
p17
sbag0
(g1
g2
(lp18
g0
(g1
g2
(lp19
V's
p20
atp21
Rp22
(dp23
g12
VVBZ
p24
sbag0
(g1
g2
(lp25
g0
(g1
g2
(lp26
g0
(g1
g2
(lp27
Va
p28
atp29
Rp30
(dp31
g12
VDT
p32
sbag0
(g1
g2
(lp33
Vpuna
p34
atp35
Rp36
(dp37
g12
VNN
p38
sbag0
(g1
g2
(lp39
Vday
p40
atp41
Rp42
(dp43
g12
VNN
p44
sbatp45
Rp46
(dp47
g12
VNP
p48
sbag0
(g1
g2
(lp49
g0
(g1
g2
(lp50
Vat
p51
atp52
Rp53
(dp54
g12
VIN
p55
sbag0
(g1
g2
(lp56
g0
(g1
g2
(lp57
Vthe
p58
atp59
Rp60
(dp61
g12
VDT
p62
sbag0
(g1
g2
(lp63
Vcircus
p64
atp65
Rp66
(dp67
g12
VNN
p68
sbatp69
Rp70
(dp71
g12
VNP
p72
sbatp73
Rp74
(dp75
g12
VPP
p76
sbatp77
Rp78
(dp79
g12
VNP
p80
sbatp81
Rp82
(dp83
g12
VVP
p84
sbag0
(g1
g2
(lp85
V.
p86
atp87
Rp88
(dp89
g12
V.
p90
sbatp91
Rp92
(dp93
g12
VS
p94
sbatp95
Rp96
(dp97
g12
S'id: 0'
p98
sbag0
(g1
g2
(lp99
g0
(g1
g2
(lp100
g0
(g1
g2
(lp101
g0
(g1
g2
(lp102
g0
(g1
g2
(lp103
g0
(g1
g2
(lp104
VThe
p105
atp106
Rp107
(dp108
g12
VDT
p109
sbag0
(g1
g2
(lp110
Vbrother
p111
atp112
Rp113
(dp114
g12
VNN
p115
sbatp116
Rp117
(dp118
g12
VNP
p119
sbag0
(g1
g2
(lp120
g0
(g1
g2
(lp121
Vhas
p122
atp123
Rp124
(dp125
g12
VVBZ
p126
sbag0
(g1
g2
(lp127
g0
(g1
g2
(lp128
Vtaken
p129
atp130
Rp131
(dp132
g12
VVBN
p133
sbag0
(g1
g2
(lp134
g0
(g1
g2
(lp135
g0
(g1
g2
(lp136
Vthe
p137
atp138
Rp139
(dp140
g12
VDT
p141
sbag0
(g1
g2
(lp142
Vlittle
p143
atp144
Rp145
(dp146
g12
VJJ
p147
sbag0
(g1
g2
(lp148
Vsister
p149
atp150
Rp151
(dp152
g12
VNN
p153
sbatp154
Rp155
(dp156
g12
VNP
p157
sbag0
(g1
g2
(lp158
g0
(g1
g2
(lp159
Vfor
p160
atp161
Rp162
(dp163
g12
VIN
p164
sbag0
(g1
g2
(lp165
g0
(g1
g2
(lp166
Va
p167
atp168
Rp169
(dp170
g12
VDT
p171
sbag0
(g1
g2
(lp172
Vride
p173
atp174
Rp175
(dp176
g12
VNN
p177
sbatp178
Rp179
(dp180
g12
VNP
p181
sbatp182
Rp183
(dp184
g12
VPP
p185
sbatp186
Rp187
(dp188
g12
VNP
p189
sbatp190
Rp191
(dp192
g12
VVP
p193
sbatp194
Rp195
(dp196
g12
VVP
p197
sbatp198
Rp199
(dp200
g12
VS
p201
sbag0
(g1
g2
(lp202
V,
p203
atp204
Rp205
(dp206
g12
V,
p207
sbag0
(g1
g2
(lp208
Vand
p209
atp210
Rp211
(dp212
g12
VCC
p213
sbag0
(g1
g2
(lp214
g0
(g1
g2
(lp215
g0
(g1
g2
(lp216
g0
(g1
g2
(lp217
Vthe
p218
atp219
Rp220
(dp221
g12
VDT
p222
sbag0
(g1
g2
(lp223
Vclown
p224
atp225
Rp226
(dp227
g12
VNN
p228
sbatp229
Rp230
(dp231
g12
VNP
p232
sbag0
(g1
g2
(lp233
g0
(g1
g2
(lp234
Vis
p235
atp236
Rp237
(dp238
g12
VVBZ
p239
sbag0
(g1
g2
(lp240
g0
(g1
g2
(lp241
Vgiving
p242
atp243
Rp244
(dp245
g12
VVBG
p246
sbag0
(g1
g2
(lp247
g0
(g1
g2
(lp248
Vout
p249
atp250
Rp251
(dp252
g12
VRP
p253
sbatp254
Rp255
(dp256
g12
VPRT
p257
sbag0
(g1
g2
(lp258
g0
(g1
g2
(lp259
Vcandy
p260
atp261
Rp262
(dp263
g12
VNN
p264
sbatp265
Rp266
(dp267
g12
VNP
p268
sbag0
(g1
g2
(lp269
g0
(g1
g2
(lp270
Vto
p271
atp272
Rp273
(dp274
g12
VTO
p275
sbag0
(g1
g2
(lp276
g0
(g1
g2
(lp277
Vthe
p278
atp279
Rp280
(dp281
g12
VDT
p282
sbag0
(g1
g2
(lp283
Vlittle
p284
atp285
Rp286
(dp287
g12
VJJ
p288
sbag0
(g1
g2
(lp289
Vboy
p290
atp291
Rp292
(dp293
g12
VNN
p294
sbatp295
Rp296
(dp297
g12
VNP
p298
sbatp299
Rp300
(dp301
g12
VPP
p302
sbatp303
Rp304
(dp305
g12
VVP
p306
sbatp307
Rp308
(dp309
g12
VVP
p310
sbatp311
Rp312
(dp313
g12
VS
p314
sbag0
(g1
g2
(lp315
V,
p316
atp317
Rp318
(dp319
g12
V,
p320
sbag0
(g1
g2
(lp321
Vand
p322
atp323
Rp324
(dp325
g12
VCC
p326
sbag0
(g1
g2
(lp327
g0
(g1
g2
(lp328
g0
(g1
g2
(lp329
Vhe
p330
atp331
Rp332
(dp333
g12
VPRP
p334
sbatp335
Rp336
(dp337
g12
VNP
p338
sbag0
(g1
g2
(lp339
g0
(g1
g2
(lp340
V's
p341
atp342
Rp343
(dp344
g12
VVBZ
p345
sbag0
(g1
g2
(lp346
g0
(g1
g2
(lp347
Vcatching
p348
atp349
Rp350
(dp351
g12
VVBG
p352
sbatp353
Rp354
(dp355
g12
VVP
p356
sbatp357
Rp358
(dp359
g12
VVP
p360
sbatp361
Rp362
(dp363
g12
VS
p364
sbag0
(g1
g2
(lp365
Vand
p366
atp367
Rp368
(dp369
g12
VCC
p370
sbag0
(g1
g2
(lp371
g0
(g1
g2
(lp372
g0
(g1
g2
(lp373
g0
(g1
g2
(lp374
Vthe
p375
atp376
Rp377
(dp378
g12
VDT
p379
sbag0
(g1
g2
(lp380
Vlittle
p381
atp382
Rp383
(dp384
g12
VJJ
p385
sbag0
(g1
g2
(lp386
Vsister
p387
atp388
Rp389
(dp390
g12
VNN
p391
sbatp392
Rp393
(dp394
g12
VNP
p395
sbag0
(g1
g2
(lp396
g0
(g1
g2
(lp397
Vis
p398
atp399
Rp400
(dp401
g12
VVBZ
p402
sbag0
(g1
g2
(lp403
g0
(g1
g2
(lp404
Vin
p405
atp406
Rp407
(dp408
g12
VIN
p409
sbag0
(g1
g2
(lp410
g0
(g1
g2
(lp411
g0
(g1
g2
(lp412
Vthe
p413
atp414
Rp415
(dp416
g12
VDT
p417
sbag0
(g1
g2
(lp418
Vmama
p419
atp420
Rp421
(dp422
g12
VNN
p423
sbag0
(g1
g2
(lp424
V's
p425
atp426
Rp427
(dp428
g12
VPOS
p429
sbatp430
Rp431
(dp432
g12
VNP
p433
sbag0
(g1
g2
(lp434
Vhand
p435
atp436
Rp437
(dp438
g12
VNN
p439
sbatp440
Rp441
(dp442
g12
VNP
p443
sbatp444
Rp445
(dp446
g12
VPP
p447
sbatp448
Rp449
(dp450
g12
VVP
p451
sbatp452
Rp453
(dp454
g12
VS
p455
sbag0
(g1
g2
(lp456
V,
p457
atp458
Rp459
(dp460
g12
V,
p461
sbag0
(g1
g2
(lp462
Vand
p463
atp464
Rp465
(dp466
g12
VCC
p467
sbag0
(g1
g2
(lp468
g0
(g1
g2
(lp469
g0
(g1
g2
(lp470
Vshe
p471
atp472
Rp473
(dp474
g12
VPRP
p475
sbatp476
Rp477
(dp478
g12
VNP
p479
sbag0
(g1
g2
(lp480
g0
(g1
g2
(lp481
Vca
p482
atp483
Rp484
(dp485
g12
VMD
p486
sbag0
(g1
g2
(lp487
Vn't
p488
atp489
Rp490
(dp491
g12
VRB
p492
sbag0
(g1
g2
(lp493
g0
(g1
g2
(lp494
Vcatch
p495
atp496
Rp497
(dp498
g12
VVB
p499
sbag0
(g1
g2
(lp500
g0
(g1
g2
(lp501
Vany
p502
atp503
Rp504
(dp505
g12
VDT
p506
sbag0
(g1
g2
(lp507
Vcandy
p508
atp509
Rp510
(dp511
g12
VNN
p512
sbatp513
Rp514
(dp515
g12
VNP
p516
sbatp517
Rp518
(dp519
g12
VVP
p520
sbatp521
Rp522
(dp523
g12
VVP
p524
sbatp525
Rp526
(dp527
g12
VS
p528
sbatp529
Rp530
(dp531
g12
VS
p532
sbatp533
Rp534
(dp535
g12
VS
p536
sbatp537
Rp538
(dp539
g12
VS
p540
sbag0
(g1
g2
(lp541
V,
p542
atp543
Rp544
(dp545
g12
V,
p546
sbag0
(g1
g2
(lp547
Vso
p548
atp549
Rp550
(dp551
g12
VIN
p552
sbag0
(g1
g2
(lp553
g0
(g1
g2
(lp554
g0
(g1
g2
(lp555
Vthe
p556
atp557
Rp558
(dp559
g12
VDT
p560
sbag0
(g1
g2
(lp561
Vlittle
p562
atp563
Rp564
(dp565
g12
VJJ
p566
sbag0
(g1
g2
(lp567
Vsquirt
p568
atp569
Rp570
(dp571
g12
VNN
p572
sbatp573
Rp574
(dp575
g12
VNP
p576
sbag0
(g1
g2
(lp577
g0
(g1
g2
(lp578
Vis
p579
atp580
Rp581
(dp582
g12
VVBZ
p583
sbag0
(g1
g2
(lp584
g0
(g1
g2
(lp585
Vgon
p586
atp587
Rp588
(dp589
g12
VVBG
p590
sbag0
(g1
g2
(lp591
g0
(g1
g2
(lp592
g0
(g1
g2
(lp593
Vna
p594
atp595
Rp596
(dp597
g12
VTO
p598
sbag0
(g1
g2
(lp599
g0
(g1
g2
(lp600
Vgive
p601
atp602
Rp603
(dp604
g12
VVB
p605
sbag0
(g1
g2
(lp606
g0
(g1
g2
(lp607
g0
(g1
g2
(lp608
Vhis
p609
atp610
Rp611
(dp612
g12
VPRP$
p613
sbatp614
Rp615
(dp616
g12
VNP
p617
sbag0
(g1
g2
(lp618
V,
p619
atp620
Rp621
(dp622
g12
V,
p623
sbag0
(g1
g2
(lp624
g0
(g1
g2
(lp625
g0
(g1
g2
(lp626
Vhis
p627
atp628
Rp629
(dp630
g12
VPRP$
p631
sbag0
(g1
g2
(lp632
Vsister
p633
atp634
Rp635
(dp636
g12
VNN
p637
sbatp638
Rp639
(dp640
g12
VNP
p641
sbag0
(g1
g2
(lp642
g0
(g1
g2
(lp643
Vsome
p644
atp645
Rp646
(dp647
g12
VDT
p648
sbatp649
Rp650
(dp651
g12
VNP
p652
sbatp653
Rp654
(dp655
g12
VNP
p656
sbag0
(g1
g2
(lp657
V,
p658
atp659
Rp660
(dp661
g12
V,
p662
sbatp663
Rp664
(dp665
g12
VNP
p666
sbag0
(g1
g2
(lp667
g0
(g1
g2
(lp668
Vsome
p669
atp670
Rp671
(dp672
g12
VDT
p673
sbag0
(g1
g2
(lp674
Vcandy
p675
atp676
Rp677
(dp678
g12
VNN
p679
sbatp680
Rp681
(dp682
g12
VNP
p683
sbatp684
Rp685
(dp686
g12
VVP
p687
sbatp688
Rp689
(dp690
g12
VVP
p691
sbatp692
Rp693
(dp694
g12
VS
p695
sbatp696
Rp697
(dp698
g12
VVP
p699
sbatp700
Rp701
(dp702
g12
VVP
p703
sbatp704
Rp705
(dp706
g12
VS
p707
sbag0
(g1
g2
(lp708
V.
p709
atp710
Rp711
(dp712
g12
V.
p713
sbatp714
Rp715
(dp716
g12
VS
p717
sbatp718
Rp719
(dp720
g12
S'id: 1'
p721
sbag0
(g1
g2
(lp722
g0
(g1
g2
(lp723
g0
(g1
g2
(lp724
VAnd
p725
atp726
Rp727
(dp728
g12
VCC
p729
sbag0
(g1
g2
(lp730
V,
p731
atp732
Rp733
(dp734
g12
V,
p735
sbag0
(g1
g2
(lp736
g0
(g1
g2
(lp737
g0
(g1
g2
(lp738
Vthe
p739
atp740
Rp741
(dp742
g12
VDT
p743
sbag0
(g1
g2
(lp744
Vone
p745
atp746
Rp747
(dp748
g12
VCD
p749
sbatp750
Rp751
(dp752
g12
VNP
p753
sbag0
(g1
g2
(lp754
g0
(g1
g2
(lp755
Vover
p756
atp757
Rp758
(dp759
g12
VIN
p760
sbag0
(g1
g2
(lp761
g0
(g1
g2
(lp762
g0
(g1
g2
(lp763
Vhere
p764
atp765
Rp766
(dp767
g12
VRB
p768
sbatp769
Rp770
(dp771
g12
VNP
p772
sbag0
(g1
g2
(lp773
g0
(g1
g2
(lp774
Vwith
p775
atp776
Rp777
(dp778
g12
VIN
p779
sbag0
(g1
g2
(lp780
g0
(g1
g2
(lp781
Vthe
p782
atp783
Rp784
(dp785
g12
VDT
p786
sbag0
(g1
g2
(lp787
Vlittle
p788
atp789
Rp790
(dp791
g12
VJJ
p792
sbag0
(g1
g2
(lp793
Vboy
p794
atp795
Rp796
(dp797
g12
VNN
p798
sbatp799
Rp800
(dp801
g12
VNP
p802
sbatp803
Rp804
(dp805
g12
VPP
p806
sbatp807
Rp808
(dp809
g12
VNP
p810
sbatp811
Rp812
(dp813
g12
VPP
p814
sbatp815
Rp816
(dp817
g12
VNP-TMP
p818
sbag0
(g1
g2
(lp819
g0
(g1
g2
(lp820
V,
p821
atp822
Rp823
(dp824
g12
V,
p825
sbag0
(g1
g2
(lp826
g0
(g1
g2
(lp827
Vwith
p828
atp829
Rp830
(dp831
g12
VIN
p832
sbag0
(g1
g2
(lp833
g0
(g1
g2
(lp834
Vthe
p835
atp836
Rp837
(dp838
g12
VDT
p839
sbag0
(g1
g2
(lp840
Vbrother
p841
atp842
Rp843
(dp844
g12
VNN
p845
sbatp846
Rp847
(dp848
g12
VNP
p849
sbatp850
Rp851
(dp852
g12
VPP
p853
sbag0
(g1
g2
(lp854
V,
p855
atp856
Rp857
(dp858
g12
V,
p859
sbatp860
Rp861
(dp862
g12
VPRN
p863
sbag0
(g1
g2
(lp864
g0
(g1
g2
(lp865
Vshe
p866
atp867
Rp868
(dp869
g12
VPRP
p870
sbatp871
Rp872
(dp873
g12
VNP
p874
sbag0
(g1
g2
(lp875
g0
(g1
g2
(lp876
Vwants
p877
atp878
Rp879
(dp880
g12
VVBZ
p881
sbag0
(g1
g2
(lp882
g0
(g1
g2
(lp883
Vsome
p884
atp885
Rp886
(dp887
g12
VDT
p888
sbag0
(g1
g2
(lp889
Vcandy
p890
atp891
Rp892
(dp893
g12
VNN
p894
sbatp895
Rp896
(dp897
g12
VNP
p898
sbag0
(g1
g2
(lp899
g0
(g1
g2
(lp900
Vtoo
p901
atp902
Rp903
(dp904
g12
VRB
p905
sbatp906
Rp907
(dp908
g12
VADVP
p909
sbatp910
Rp911
(dp912
g12
VVP
p913
sbag0
(g1
g2
(lp914
V.
p915
atp916
Rp917
(dp918
g12
V.
p919
sbatp920
Rp921
(dp922
g12
VS
p923
sbatp924
Rp925
(dp926
g12
S'id: 2'
p927
sbag0
(g1
g2
(lp928
g0
(g1
g2
(lp929
g0
(g1
g2
(lp930
VAnd
p931
atp932
Rp933
(dp934
g12
VCC
p935
sbag0
(g1
g2
(lp936
g0
(g1
g2
(lp937
g0
(g1
g2
(lp938
Vthe
p939
atp940
Rp941
(dp942
g12
VDT
p943
sbag0
(g1
g2
(lp944
Vcircus
p945
atp946
Rp947
(dp948
g12
VNN
p949
sbag0
(g1
g2
(lp950
Vclown
p951
atp952
Rp953
(dp954
g12
VNN
p955
sbatp956
Rp957
(dp958
g12
VNP
p959
sbag0
(g1
g2
(lp960
V,
p961
atp962
Rp963
(dp964
g12
V,
p965
sbag0
(g1
g2
(lp966
Vor
p967
atp968
Rp969
(dp970
g12
VCC
p971
sbag0
(g1
g2
(lp972
g0
(g1
g2
(lp973
Vsomething
p974
atp975
Rp976
(dp977
g12
VNN
p978
sbatp979
Rp980
(dp981
g12
VNP
p982
sbatp983
Rp984
(dp985
g12
VNP
p986
sbag0
(g1
g2
(lp987
V,
p988
atp989
Rp990
(dp991
g12
V,
p992
sbag0
(g1
g2
(lp993
g0
(g1
g2
(lp994
g0
(g1
g2
(lp995
g0
(g1
g2
(lp996
VI
p997
atp998
Rp999
(dp1000
g12
VPRP
p1001
sbatp1002
Rp1003
(dp1004
g12
VNP
p1005
sbag0
(g1
g2
(lp1006
g0
(g1
g2
(lp1007
Vdo
p1008
atp1009
Rp1010
(dp1011
g12
VVBP
p1012
sbag0
(g1
g2
(lp1013
Vn't
p1014
atp1015
Rp1016
(dp1017
g12
VRB
p1018
sbag0
(g1
g2
(lp1019
g0
(g1
g2
(lp1020
Vknow
p1021
atp1022
Rp1023
(dp1024
g12
VVB
p1025
sbag0
(g1
g2
(lp1026
g0
(g1
g2
(lp1027
g0
(g1
g2
(lp1028
Vwhat
p1029
atp1030
Rp1031
(dp1032
g12
VWP
p1033
sbatp1034
Rp1035
(dp1036
g12
VWHNP
p1037
sbag0
(g1
g2
(lp1038
g0
(g1
g2
(lp1039
g0
(g1
g2
(lp1040
Vhe
p1041
atp1042
Rp1043
(dp1044
g12
VPRP
p1045
sbatp1046
Rp1047
(dp1048
g12
VNP
p1049
sbag0
(g1
g2
(lp1050
g0
(g1
g2
(lp1051
Vis
p1052
atp1053
Rp1054
(dp1055
g12
VVBZ
p1056
sbag0
(g1
g2
(lp1057
V,
p1058
atp1059
Rp1060
(dp1061
g12
V,
p1062
sbag0
(g1
g2
(lp1063
g0
(g1
g2
(lp1064
Vmagician
p1065
atp1066
Rp1067
(dp1068
g12
VNN
p1069
sbag0
(g1
g2
(lp1070
Vor
p1071
atp1072
Rp1073
(dp1074
g12
VCC
p1075
sbag0
(g1
g2
(lp1076
Vsomething
p1077
atp1078
Rp1079
(dp1080
g12
VNN
p1081
sbatp1082
Rp1083
(dp1084
g12
VNP
p1085
sbatp1086
Rp1087
(dp1088
g12
VVP
p1089
sbatp1090
Rp1091
(dp1092
g12
VS
p1093
sbatp1094
Rp1095
(dp1096
g12
VSBAR
p1097
sbatp1098
Rp1099
(dp1100
g12
VVP
p1101
sbatp1102
Rp1103
(dp1104
g12
VVP
p1105
sbatp1106
Rp1107
(dp1108
g12
VS
p1109
sbatp1110
Rp1111
(dp1112
g12
VPRN
p1113
sbag0
(g1
g2
(lp1114
V,
p1115
atp1116
Rp1117
(dp1118
g12
V,
p1119
sbag0
(g1
g2
(lp1120
g0
(g1
g2
(lp1121
Vhe
p1122
atp1123
Rp1124
(dp1125
g12
VPRP
p1126
sbatp1127
Rp1128
(dp1129
g12
VNP
p1130
sbag0
(g1
g2
(lp1131
g0
(g1
g2
(lp1132
V's
p1133
atp1134
Rp1135
(dp1136
g12
VVBZ
p1137
sbag0
(g1
g2
(lp1138
g0
(g1
g2
(lp1139
Vover
p1140
atp1141
Rp1142
(dp1143
g12
VIN
p1144
sbag0
(g1
g2
(lp1145
g0
(g1
g2
(lp1146
g0
(g1
g2
(lp1147
Vtalking
p1148
atp1149
Rp1150
(dp1151
g12
VVBG
p1152
sbag0
(g1
g2
(lp1153
g0
(g1
g2
(lp1154
Vto
p1155
atp1156
Rp1157
(dp1158
g12
VTO
p1159
sbag0
(g1
g2
(lp1160
g0
(g1
g2
(lp1161
Vthat
p1162
atp1163
Rp1164
(dp1165
g12
VDT
p1166
sbag0
(g1
g2
(lp1167
Vlion
p1168
atp1169
Rp1170
(dp1171
g12
VNN
p1172
sbatp1173
Rp1174
(dp1175
g12
VNP
p1176
sbatp1177
Rp1178
(dp1179
g12
VPP
p1180
sbatp1181
Rp1182
(dp1183
g12
VVP
p1184
sbatp1185
Rp1186
(dp1187
g12
VS
p1188
sbatp1189
Rp1190
(dp1191
g12
VPP
p1192
sbatp1193
Rp1194
(dp1195
g12
VVP
p1196
sbag0
(g1
g2
(lp1197
V.
p1198
atp1199
Rp1200
(dp1201
g12
V.
p1202
sbatp1203
Rp1204
(dp1205
g12
VS
p1206
sbatp1207
Rp1208
(dp1209
g12
S'id: 3'
p1210
sbag0
(g1
g2
(lp1211
g0
(g1
g2
(lp1212
g0
(g1
g2
(lp1213
g0
(g1
g2
(lp1214
VIf
p1215
atp1216
Rp1217
(dp1218
g12
VIN
p1219
sbag0
(g1
g2
(lp1220
g0
(g1
g2
(lp1221
g0
(g1
g2
(lp1222
Vyou
p1223
atp1224
Rp1225
(dp1226
g12
VPRP
p1227
sbatp1228
Rp1229
(dp1230
g12
VNP
p1231
sbag0
(g1
g2
(lp1232
g0
(g1
g2
(lp1233
Vdo
p1234
atp1235
Rp1236
(dp1237
g12
VVBP
p1238
sbag0
(g1
g2
(lp1239
Vn't
p1240
atp1241
Rp1242
(dp1243
g12
VRB
p1244
sbag0
(g1
g2
(lp1245
g0
(g1
g2
(lp1246
Vget
p1247
atp1248
Rp1249
(dp1250
g12
VVB
p1251
sbag0
(g1
g2
(lp1252
g0
(g1
g2
(lp1253
Vhis
p1254
atp1255
Rp1256
(dp1257
g12
VPRP$
p1258
sbag0
(g1
g2
(lp1259
Vhand
p1260
atp1261
Rp1262
(dp1263
g12
VNN
p1264
sbatp1265
Rp1266
(dp1267
g12
VNP
p1268
sbag0
(g1
g2
(lp1269
g0
(g1
g2
(lp1270
Vout
p1271
atp1272
Rp1273
(dp1274
g12
VIN
p1275
sbatp1276
Rp1277
(dp1278
g12
VPRT
p1279
sbag0
(g1
g2
(lp1280
g0
(g1
g2
(lp1281
Vof
p1282
atp1283
Rp1284
(dp1285
g12
VIN
p1286
sbag0
(g1
g2
(lp1287
g0
(g1
g2
(lp1288
Vthat
p1289
atp1290
Rp1291
(dp1292
g12
VDT
p1293
sbag0
(g1
g2
(lp1294
Vlion
p1295
atp1296
Rp1297
(dp1298
g12
VNN
p1299
sbag0
(g1
g2
(lp1300
Vface
p1301
atp1302
Rp1303
(dp1304
g12
VNN
p1305
sbatp1306
Rp1307
(dp1308
g12
VNP
p1309
sbatp1310
Rp1311
(dp1312
g12
VPP
p1313
sbag0
(g1
g2
(lp1314
V,
p1315
atp1316
Rp1317
(dp1318
g12
V,
p1319
sbag0
(g1
g2
(lp1320
g0
(g1
g2
(lp1321
Vthat
p1322
atp1323
Rp1324
(dp1325
g12
VIN
p1326
sbag0
(g1
g2
(lp1327
g0
(g1
g2
(lp1328
g0
(g1
g2
(lp1329
Vlion
p1330
atp1331
Rp1332
(dp1333
g12
VNN
p1334
sbatp1335
Rp1336
(dp1337
g12
VNP
p1338
sbag0
(g1
g2
(lp1339
g0
(g1
g2
(lp1340
Vgo
p1341
atp1342
Rp1343
(dp1344
g12
VVB
p1345
sbatp1346
Rp1347
(dp1348
g12
VVP
p1349
sbatp1350
Rp1351
(dp1352
g12
VS
p1353
sbatp1354
Rp1355
(dp1356
g12
VSBAR
p1357
sbag0
(g1
g2
(lp1358
V,
p1359
atp1360
Rp1361
(dp1362
g12
V,
p1363
sbag0
(g1
g2
(lp1364
g0
(g1
g2
(lp1365
g0
(g1
g2
(lp1366
Vgon
p1367
atp1368
Rp1369
(dp1370
g12
VVBG
p1371
sbag0
(g1
g2
(lp1372
g0
(g1
g2
(lp1373
g0
(g1
g2
(lp1374
Vna
p1375
atp1376
Rp1377
(dp1378
g12
VTO
p1379
sbag0
(g1
g2
(lp1380
g0
(g1
g2
(lp1381
Vattack
p1382
atp1383
Rp1384
(dp1385
g12
VVB
p1386
sbag0
(g1
g2
(lp1387
g0
(g1
g2
(lp1388
Vhim
p1389
atp1390
Rp1391
(dp1392
g12
VPRP
p1393
sbatp1394
Rp1395
(dp1396
g12
VNP
p1397
sbatp1398
Rp1399
(dp1400
g12
VVP
p1401
sbatp1402
Rp1403
(dp1404
g12
VVP
p1405
sbatp1406
Rp1407
(dp1408
g12
VS
p1409
sbatp1410
Rp1411
(dp1412
g12
VVP
p1413
sbatp1414
Rp1415
(dp1416
g12
VS
p1417
sbatp1418
Rp1419
(dp1420
g12
VVP
p1421
sbatp1422
Rp1423
(dp1424
g12
VVP
p1425
sbatp1426
Rp1427
(dp1428
g12
VS
p1429
sbatp1430
Rp1431
(dp1432
g12
VSBAR
p1433
sbag0
(g1
g2
(lp1434
V.
p1435
atp1436
Rp1437
(dp1438
g12
V.
p1439
sbatp1440
Rp1441
(dp1442
g12
VFRAG
p1443
sbatp1444
Rp1445
(dp1446
g12
S'id: 4'
p1447
sbag0
(g1
g2
(lp1448
g0
(g1
g2
(lp1449
g0
(g1
g2
(lp1450
g0
(g1
g2
(lp1451
VAnd
p1452
atp1453
Rp1454
(dp1455
g12
VCC
p1456
sbag0
(g1
g2
(lp1457
g0
(g1
g2
(lp1458
g0
(g1
g2
(lp1459
g0
(g1
g2
(lp1460
Vjust
p1461
atp1462
Rp1463
(dp1464
g12
VRB
p1465
sbag0
(g1
g2
(lp1466
Va
p1467
atp1468
Rp1469
(dp1470
g12
VDT
p1471
sbag0
(g1
g2
(lp1472
Vjoker
p1473
atp1474
Rp1475
(dp1476
g12
VNN
p1477
sbatp1478
Rp1479
(dp1480
g12
VNP
p1481
sbag0
(g1
g2
(lp1482
Vup
p1483
atp1484
Rp1485
(dp1486
g12
VIN
p1487
sbatp1488
Rp1489
(dp1490
g12
VADVP
p1491
sbag0
(g1
g2
(lp1492
Vthere
p1493
atp1494
Rp1495
(dp1496
g12
VRB
p1497
sbatp1498
Rp1499
(dp1500
g12
VADVP
p1501
sbag0
(g1
g2
(lp1502
g0
(g1
g2
(lp1503
Vtight
p1504
atp1505
Rp1506
(dp1507
g12
VJJ
p1508
sbag0
(g1
g2
(lp1509
Vrope
p1510
atp1511
Rp1512
(dp1513
g12
VNN
p1514
sbatp1515
Rp1516
(dp1517
g12
VNP
p1518
sbatp1519
Rp1520
(dp1521
g12
VFRAG
p1522
sbag0
(g1
g2
(lp1523
V,
p1524
atp1525
Rp1526
(dp1527
g12
V,
p1528
sbag0
(g1
g2
(lp1529
g0
(g1
g2
(lp1530
Vhe
p1531
atp1532
Rp1533
(dp1534
g12
VPRP
p1535
sbatp1536
Rp1537
(dp1538
g12
VNP
p1539
sbag0
(g1
g2
(lp1540
g0
(g1
g2
(lp1541
V's
p1542
atp1543
Rp1544
(dp1545
g12
VVBZ
p1546
sbag0
(g1
g2
(lp1547
g0
(g1
g2
(lp1548
g0
(g1
g2
(lp1549
Vdoin
p1550
atp1551
Rp1552
(dp1553
g12
VNN
p1554
sbatp1555
Rp1556
(dp1557
g12
VNP
p1558
sbag0
(g1
g2
(lp1559
g0
(g1
g2
(lp1560
Va
p1561
atp1562
Rp1563
(dp1564
g12
VDT
p1565
sbag0
(g1
g2
(lp1566
Vgood
p1567
atp1568
Rp1569
(dp1570
g12
VJJ
p1571
sbag0
(g1
g2
(lp1572
Vjob
p1573
atp1574
Rp1575
(dp1576
g12
VNN
p1577
sbatp1578
Rp1579
(dp1580
g12
VNP
p1581
sbatp1582
Rp1583
(dp1584
g12
VNP
p1585
sbatp1586
Rp1587
(dp1588
g12
VVP
p1589
sbag0
(g1
g2
(lp1590
V.
p1591
atp1592
Rp1593
(dp1594
g12
V.
p1595
sbatp1596
Rp1597
(dp1598
g12
VS
p1599
sbatp1600
Rp1601
(dp1602
g12
S'id: 5'
p1603
sbag0
(g1
g2
(lp1604
g0
(g1
g2
(lp1605
g0
(g1
g2
(lp1606
g0
(g1
g2
(lp1607
g0
(g1
g2
(lp1608
g0
(g1
g2
(lp1609
g0
(g1
g2
(lp1610
g0
(g1
g2
(lp1611
VEverybody
p1612
atp1613
Rp1614
(dp1615
g12
VNN
p1616
sbag0
(g1
g2
(lp1617
V's
p1618
atp1619
Rp1620
(dp1621
g12
VPOS
p1622
sbatp1623
Rp1624
(dp1625
g12
VNP
p1626
sbag0
(g1
g2
(lp1627
Vsitting
p1628
atp1629
Rp1630
(dp1631
g12
VVBG
p1632
sbatp1633
Rp1634
(dp1635
g12
VNP
p1636
sbag0
(g1
g2
(lp1637
g0
(g1
g2
(lp1638
Vthere
p1639
atp1640
Rp1641
(dp1642
g12
VRB
p1643
sbatp1644
Rp1645
(dp1646
g12
VADVP
p1647
sbatp1648
Rp1649
(dp1650
g12
VNP
p1651
sbag0
(g1
g2
(lp1652
V,
p1653
atp1654
Rp1655
(dp1656
g12
V,
p1657
sbag0
(g1
g2
(lp1658
g0
(g1
g2
(lp1659
Vone
p1660
atp1661
Rp1662
(dp1663
g12
VCD
p1664
sbatp1665
Rp1666
(dp1667
g12
VNP
p1668
sbatp1669
Rp1670
(dp1671
g12
VNP
p1672
sbag0
(g1
g2
(lp1673
V,
p1674
atp1675
Rp1676
(dp1677
g12
V,
p1678
sbag0
(g1
g2
(lp1679
g0
(g1
g2
(lp1680
g0
(g1
g2
(lp1681
Vtwo
p1682
atp1683
Rp1684
(dp1685
g12
VCD
p1686
sbatp1687
Rp1688
(dp1689
g12
VNP
p1690
sbag0
(g1
g2
(lp1691
V,
p1692
atp1693
Rp1694
(dp1695
g12
V,
p1696
sbag0
(g1
g2
(lp1697
g0
(g1
g2
(lp1698
Vthere
p1699
atp1700
Rp1701
(dp1702
g12
VRB
p1703
sbatp1704
Rp1705
(dp1706
g12
VNP
p1707
sbag0
(g1
g2
(lp1708
V,
p1709
atp1710
Rp1711
(dp1712
g12
V,
p1713
sbag0
(g1
g2
(lp1714
g0
(g1
g2
(lp1715
Vfour
p1716
atp1717
Rp1718
(dp1719
g12
VCD
p1720
sbatp1721
Rp1722
(dp1723
g12
VNP
p1724
sbag0
(g1
g2
(lp1725
V,
p1726
atp1727
Rp1728
(dp1729
g12
V,
p1730
sbag0
(g1
g2
(lp1731
g0
(g1
g2
(lp1732
Vfour
p1733
atp1734
Rp1735
(dp1736
g12
VCD
p1737
sbatp1738
Rp1739
(dp1740
g12
VNP
p1741
sbag0
(g1
g2
(lp1742
Vand
p1743
atp1744
Rp1745
(dp1746
g12
VCC
p1747
sbag0
(g1
g2
(lp1748
g0
(g1
g2
(lp1749
Vtwo
p1750
atp1751
Rp1752
(dp1753
g12
VCD
p1754
sbag0
(g1
g2
(lp1755
Vpeoples
p1756
atp1757
Rp1758
(dp1759
g12
VNNS
p1760
sbatp1761
Rp1762
(dp1763
g12
VNP
p1764
sbatp1765
Rp1766
(dp1767
g12
VNP
p1768
sbatp1769
Rp1770
(dp1771
g12
VNP
p1772
sbag0
(g1
g2
(lp1773
g0
(g1
g2
(lp1774
Vare
p1775
atp1776
Rp1777
(dp1778
g12
VVBP
p1779
sbag0
(g1
g2
(lp1780
g0
(g1
g2
(lp1781
Vsitting
p1782
atp1783
Rp1784
(dp1785
g12
VVBG
p1786
sbag0
(g1
g2
(lp1787
g0
(g1
g2
(lp1788
Von
p1789
atp1790
Rp1791
(dp1792
g12
VIN
p1793
sbag0
(g1
g2
(lp1794
g0
(g1
g2
(lp1795
Vthe
p1796
atp1797
Rp1798
(dp1799
g12
VDT
p1800
sbag0
(g1
g2
(lp1801
Vbench
p1802
atp1803
Rp1804
(dp1805
g12
VNN
p1806
sbatp1807
Rp1808
(dp1809
g12
VNP
p1810
sbatp1811
Rp1812
(dp1813
g12
VPP
p1814
sbag0
(g1
g2
(lp1815
g0
(g1
g2
(lp1816
Vbeside
p1817
atp1818
Rp1819
(dp1820
g12
VIN
p1821
sbag0
(g1
g2
(lp1822
g0
(g1
g2
(lp1823
Vhim
p1824
atp1825
Rp1826
(dp1827
g12
VPRP
p1828
sbatp1829
Rp1830
(dp1831
g12
VNP
p1832
sbatp1833
Rp1834
(dp1835
g12
VPP
p1836
sbag0
(g1
g2
(lp1837
V,
p1838
atp1839
Rp1840
(dp1841
g12
V,
p1842
sbag0
(g1
g2
(lp1843
g0
(g1
g2
(lp1844
g0
(g1
g2
(lp1845
Vwatching
p1846
atp1847
Rp1848
(dp1849
g12
VVBG
p1850
sbag0
(g1
g2
(lp1851
g0
(g1
g2
(lp1852
Vhim
p1853
atp1854
Rp1855
(dp1856
g12
VPRP
p1857
sbatp1858
Rp1859
(dp1860
g12
VNP
p1861
sbatp1862
Rp1863
(dp1864
g12
VVP
p1865
sbatp1866
Rp1867
(dp1868
g12
VS
p1869
sbatp1870
Rp1871
(dp1872
g12
VVP
p1873
sbatp1874
Rp1875
(dp1876
g12
VVP
p1877
sbag0
(g1
g2
(lp1878
V.
p1879
atp1880
Rp1881
(dp1882
g12
V.
p1883
sbatp1884
Rp1885
(dp1886
g12
VS
p1887
sbatp1888
Rp1889
(dp1890
g12
S'id: 6'
p1891
sbag0
(g1
g2
(lp1892
g0
(g1
g2
(lp1893
g0
(g1
g2
(lp1894
VAnd
p1895
atp1896
Rp1897
(dp1898
g12
VCC
p1899
sbag0
(g1
g2
(lp1900
V,
p1901
atp1902
Rp1903
(dp1904
g12
V,
p1905
sbag0
(g1
g2
(lp1906
g0
(g1
g2
(lp1907
Vwhat
p1908
atp1909
Rp1910
(dp1911
g12
VWDT
p1912
sbatp1913
Rp1914
(dp1915
g12
VNP
p1916
sbag0
(g1
g2
(lp1917
g0
(g1
g2
(lp1918
Vsaid
p1919
atp1920
Rp1921
(dp1922
g12
VVBD
p1923
sbag0
(g1
g2
(lp1924
g0
(g1
g2
(lp1925
g0
(g1
g2
(lp1926
Vthe
p1927
atp1928
Rp1929
(dp1930
g12
VDT
p1931
sbag0
(g1
g2
(lp1932
Vmermaid
p1933
atp1934
Rp1935
(dp1936
g12
VNN
p1937
sbag0
(g1
g2
(lp1938
V,
p1939
atp1940
Rp1941
(dp1942
g12
V,
p1943
sbag0
(g1
g2
(lp1944
Vor
p1945
atp1946
Rp1947
(dp1948
g12
VCC
p1949
sbag0
(g1
g2
(lp1950
Vsomething
p1951
atp1952
Rp1953
(dp1954
g12
VNN
p1955
sbatp1956
Rp1957
(dp1958
g12
VNP
p1959
sbag0
(g1
g2
(lp1960
g0
(g1
g2
(lp1961
g0
(g1
g2
(lp1962
g0
(g1
g2
(lp1963
Vis
p1964
atp1965
Rp1966
(dp1967
g12
VVBZ
p1968
sbag0
(g1
g2
(lp1969
g0
(g1
g2
(lp1970
Vriding
p1971
atp1972
Rp1973
(dp1974
g12
VVBG
p1975
sbag0
(g1
g2
(lp1976
g0
(g1
g2
(lp1977
g0
(g1
g2
(lp1978
g0
(g1
g2
(lp1979
Vthe
p1980
atp1981
Rp1982
(dp1983
g12
VDT
p1984
sbatp1985
Rp1986
(dp1987
g12
VNP
p1988
sbag0
(g1
g2
(lp1989
V,
p1990
atp1991
Rp1992
(dp1993
g12
V,
p1994
sbag0
(g1
g2
(lp1995
g0
(g1
g2
(lp1996
Vpony
p1997
atp1998
Rp1999
(dp2000
g12
VNN
p2001
sbatp2002
Rp2003
(dp2004
g12
VNP
p2005
sbag0
(g1
g2
(lp2006
V,
p2007
atp2008
Rp2009
(dp2010
g12
V,
p2011
sbatp2012
Rp2013
(dp2014
g12
VNP
p2015
sbag0
(g1
g2
(lp2016
g0
(g1
g2
(lp2017
Vover
p2018
atp2019
Rp2020
(dp2021
g12
VIN
p2022
sbag0
(g1
g2
(lp2023
g0
(g1
g2
(lp2024
Vthere
p2025
atp2026
Rp2027
(dp2028
g12
VEX
p2029
sbatp2030
Rp2031
(dp2032
g12
VNP
p2033
sbatp2034
Rp2035
(dp2036
g12
VPP
p2037
sbatp2038
Rp2039
(dp2040
g12
VNP
p2041
sbatp2042
Rp2043
(dp2044
g12
VVP
p2045
sbatp2046
Rp2047
(dp2048
g12
VVP
p2049
sbatp2050
Rp2051
(dp2052
g12
VS
p2053
sbatp2054
Rp2055
(dp2056
g12
VSBAR
p2057
sbatp2058
Rp2059
(dp2060
g12
VNP
p2061
sbatp2062
Rp2063
(dp2064
g12
VVP
p2065
sbag0
(g1
g2
(lp2066
V.
p2067
atp2068
Rp2069
(dp2070
g12
V.
p2071
sbatp2072
Rp2073
(dp2074
g12
VS
p2075
sbatp2076
Rp2077
(dp2078
g12
S'id: 7'
p2079
sbag0
(g1
g2
(lp2080
g0
(g1
g2
(lp2081
g0
(g1
g2
(lp2082
VAnd
p2083
atp2084
Rp2085
(dp2086
g12
VCC
p2087
sbag0
(g1
g2
(lp2088
g0
(g1
g2
(lp2089
Vin
p2090
atp2091
Rp2092
(dp2093
g12
VIN
p2094
sbag0
(g1
g2
(lp2095
g0
(g1
g2
(lp2096
Vhis
p2097
atp2098
Rp2099
(dp2100
g12
VPRP$
p2101
sbag0
(g1
g2
(lp2102
Varea
p2103
atp2104
Rp2105
(dp2106
g12
VNN
p2107
sbatp2108
Rp2109
(dp2110
g12
VNP
p2111
sbatp2112
Rp2113
(dp2114
g12
VPP
p2115
sbag0
(g1
g2
(lp2116
V,
p2117
atp2118
Rp2119
(dp2120
g12
V,
p2121
sbag0
(g1
g2
(lp2122
g0
(g1
g2
(lp2123
Vand
p2124
atp2125
Rp2126
(dp2127
g12
VCC
p2128
sbag0
(g1
g2
(lp2129
g0
(g1
g2
(lp2130
Vthere
p2131
atp2132
Rp2133
(dp2134
g12
VEX
p2135
sbatp2136
Rp2137
(dp2138
g12
VNP
p2139
sbag0
(g1
g2
(lp2140
g0
(g1
g2
(lp2141
Vshould
p2142
atp2143
Rp2144
(dp2145
g12
VMD
p2146
sbag0
(g1
g2
(lp2147
g0
(g1
g2
(lp2148
Vbe
p2149
atp2150
Rp2151
(dp2152
g12
VVB
p2153
sbag0
(g1
g2
(lp2154
g0
(g1
g2
(lp2155
Vtwo
p2156
atp2157
Rp2158
(dp2159
g12
VCD
p2160
sbag0
(g1
g2
(lp2161
VX.
p2162
atp2163
Rp2164
(dp2165
g12
VNNP
p2166
sbatp2167
Rp2168
(dp2169
g12
VNP
p2170
sbatp2171
Rp2172
(dp2173
g12
VVP
p2174
sbatp2175
Rp2176
(dp2177
g12
VVP
p2178
sbatp2179
Rp2180
(dp2181
g12
VS
p2182
sbag0
(g1
g2
(lp2183
VAnd
p2184
atp2185
Rp2186
(dp2187
g12
VCC
p2188
sbag0
(g1
g2
(lp2189
g0
(g1
g2
(lp2190
g0
(g1
g2
(lp2191
Vthis
p2192
atp2193
Rp2194
(dp2195
g12
VDT
p2196
sbatp2197
Rp2198
(dp2199
g12
VNP
p2200
sbag0
(g1
g2
(lp2201
g0
(g1
g2
(lp2202
Vseems
p2203
atp2204
Rp2205
(dp2206
g12
VVBZ
p2207
sbag0
(g1
g2
(lp2208
g0
(g1
g2
(lp2209
g0
(g1
g2
(lp2210
Vto
p2211
atp2212
Rp2213
(dp2214
g12
VTO
p2215
sbag0
(g1
g2
(lp2216
g0
(g1
g2
(lp2217
Vbe
p2218
atp2219
Rp2220
(dp2221
g12
VVB
p2222
sbag0
(g1
g2
(lp2223
g0
(g1
g2
(lp2224
Va
p2225
atp2226
Rp2227
(dp2228
g12
VDT
p2229
sbag0
(g1
g2
(lp2230
Vwarm
p2231
atp2232
Rp2233
(dp2234
g12
VJJ
p2235
sbag0
(g1
g2
(lp2236
Vday
p2237
atp2238
Rp2239
(dp2240
g12
VNN
p2241
sbatp2242
Rp2243
(dp2244
g12
VNP
p2245
sbag0
(g1
g2
(lp2246
g0
(g1
g2
(lp2247
Vbecause
p2248
atp2249
Rp2250
(dp2251
g12
VIN
p2252
sbag0
(g1
g2
(lp2253
g0
(g1
g2
(lp2254
g0
(g1
g2
(lp2255
Veveryone
p2256
atp2257
Rp2258
(dp2259
g12
VNN
p2260
sbatp2261
Rp2262
(dp2263
g12
VNP
p2264
sbag0
(g1
g2
(lp2265
g0
(g1
g2
(lp2266
Vhas
p2267
atp2268
Rp2269
(dp2270
g12
VVBZ
p2271
sbag0
(g1
g2
(lp2272
g0
(g1
g2
(lp2273
g0
(g1
g2
(lp2274
Von
p2275
atp2276
Rp2277
(dp2278
g12
VIN
p2279
sbag0
(g1
g2
(lp2280
g0
(g1
g2
(lp2281
Vshort
p2282
atp2283
Rp2284
(dp2285
g12
VJJ
p2286
sbag0
(g1
g2
(lp2287
Vsleeves
p2288
atp2289
Rp2290
(dp2291
g12
VNNS
p2292
sbatp2293
Rp2294
(dp2295
g12
VNP
p2296
sbatp2297
Rp2298
(dp2299
g12
VPP
p2300
sbatp2301
Rp2302
(dp2303
g12
VVP
p2304
sbatp2305
Rp2306
(dp2307
g12
VVP
p2308
sbatp2309
Rp2310
(dp2311
g12
VS
p2312
sbatp2313
Rp2314
(dp2315
g12
VSBAR
p2316
sbatp2317
Rp2318
(dp2319
g12
VVP
p2320
sbatp2321
Rp2322
(dp2323
g12
VVP
p2324
sbatp2325
Rp2326
(dp2327
g12
VS
p2328
sbatp2329
Rp2330
(dp2331
g12
VVP
p2332
sbatp2333
Rp2334
(dp2335
g12
VS
p2336
sbag0
(g1
g2
(lp2337
V.
p2338
atp2339
Rp2340
(dp2341
g12
V.
p2342
sbatp2343
Rp2344
(dp2345
g12
VS
p2346
sbatp2347
Rp2348
(dp2349
g12
S'id: 8'
p2350
sbag0
(g1
g2
(lp2351
g0
(g1
g2
(lp2352
g0
(g1
g2
(lp2353
VAnd
p2354
atp2355
Rp2356
(dp2357
g12
VCC
p2358
sbag0
(g1
g2
(lp2359
g0
(g1
g2
(lp2360
g0
(g1
g2
(lp2361
Vlittle
p2362
atp2363
Rp2364
(dp2365
g12
VJJ
p2366
sbag0
(g1
g2
(lp2367
Vgirl
p2368
atp2369
Rp2370
(dp2371
g12
VNN
p2372
sbatp2373
Rp2374
(dp2375
g12
VNP
p2376
sbag0
(g1
g2
(lp2377
V,
p2378
atp2379
Rp2380
(dp2381
g12
V,
p2382
sbag0
(g1
g2
(lp2383
g0
(g1
g2
(lp2384
g0
(g1
g2
(lp2385
g0
(g1
g2
(lp2386
Vthe
p2387
atp2388
Rp2389
(dp2390
g12
VDT
p2391
sbag0
(g1
g2
(lp2392
Vmother
p2393
atp2394
Rp2395
(dp2396
g12
VNN
p2397
sbag0
(g1
g2
(lp2398
V's
p2399
atp2400
Rp2401
(dp2402
g12
VPOS
p2403
sbatp2404
Rp2405
(dp2406
g12
VNP
p2407
sbag0
(g1
g2
(lp2408
Vholding
p2409
atp2410
Rp2411
(dp2412
g12
VNN
p2413
sbatp2414
Rp2415
(dp2416
g12
VNP
p2417
sbag0
(g1
g2
(lp2418
V,
p2419
atp2420
Rp2421
(dp2422
g12
V,
p2423
sbag0
(g1
g2
(lp2424
g0
(g1
g2
(lp2425
Vshe
p2426
atp2427
Rp2428
(dp2429
g12
VPRP
p2430
sbatp2431
Rp2432
(dp2433
g12
VNP
p2434
sbatp2435
Rp2436
(dp2437
g12
VNP
p2438
sbatp2439
Rp2440
(dp2441
g12
VNP
p2442
sbag0
(g1
g2
(lp2443
g0
(g1
g2
(lp2444
V's
p2445
atp2446
Rp2447
(dp2448
g12
VVBZ
p2449
sbag0
(g1
g2
(lp2450
g0
(g1
g2
(lp2451
Vhaving
p2452
atp2453
Rp2454
(dp2455
g12
VVBG
p2456
sbag0
(g1
g2
(lp2457
g0
(g1
g2
(lp2458
g0
(g1
g2
(lp2459
Va
p2460
atp2461
Rp2462
(dp2463
g12
VDT
p2464
sbag0
(g1
g2
(lp2465
Vgood
p2466
atp2467
Rp2468
(dp2469
g12
VJJ
p2470
sbag0
(g1
g2
(lp2471
Vtime
p2472
atp2473
Rp2474
(dp2475
g12
VNN
p2476
sbatp2477
Rp2478
(dp2479
g12
VNP
p2480
sbag0
(g1
g2
(lp2481
g0
(g1
g2
(lp2482
Vat
p2483
atp2484
Rp2485
(dp2486
g12
VIN
p2487
sbag0
(g1
g2
(lp2488
g0
(g1
g2
(lp2489
Vthe
p2490
atp2491
Rp2492
(dp2493
g12
VDT
p2494
sbag0
(g1
g2
(lp2495
Vcircus
p2496
atp2497
Rp2498
(dp2499
g12
VNN
p2500
sbatp2501
Rp2502
(dp2503
g12
VNP
p2504
sbatp2505
Rp2506
(dp2507
g12
VPP
p2508
sbatp2509
Rp2510
(dp2511
g12
VNP
p2512
sbatp2513
Rp2514
(dp2515
g12
VVP
p2516
sbatp2517
Rp2518
(dp2519
g12
VVP
p2520
sbag0
(g1
g2
(lp2521
V.
p2522
atp2523
Rp2524
(dp2525
g12
V.
p2526
sbatp2527
Rp2528
(dp2529
g12
VS
p2530
sbatp2531
Rp2532
(dp2533
g12
S'id: 9'
p2534
sbag0
(g1
g2
(lp2535
g0
(g1
g2
(lp2536
g0
(g1
g2
(lp2537
VAnd
p2538
atp2539
Rp2540
(dp2541
g12
VCC
p2542
sbag0
(g1
g2
(lp2543
g0
(g1
g2
(lp2544
g0
(g1
g2
(lp2545
Vthe
p2546
atp2547
Rp2548
(dp2549
g12
VDT
p2550
sbag0
(g1
g2
(lp2551
Vmama
p2552
atp2553
Rp2554
(dp2555
g12
VNN
p2556
sbatp2557
Rp2558
(dp2559
g12
VNP
p2560
sbag0
(g1
g2
(lp2561
g0
(g1
g2
(lp2562
Vgon
p2563
atp2564
Rp2565
(dp2566
g12
VVBG
p2567
sbag0
(g1
g2
(lp2568
g0
(g1
g2
(lp2569
g0
(g1
g2
(lp2570
Vna
p2571
atp2572
Rp2573
(dp2574
g12
VTO
p2575
sbag0
(g1
g2
(lp2576
g0
(g1
g2
(lp2577
Vhave
p2578
atp2579
Rp2580
(dp2581
g12
VVB
p2582
sbag0
(g1
g2
(lp2583
g0
(g1
g2
(lp2584
g0
(g1
g2
(lp2585
Vto
p2586
atp2587
Rp2588
(dp2589
g12
VTO
p2590
sbag0
(g1
g2
(lp2591
g0
(g1
g2
(lp2592
Vput
p2593
atp2594
Rp2595
(dp2596
g12
VVB
p2597
sbag0
(g1
g2
(lp2598
g0
(g1
g2
(lp2599
Vher
p2600
atp2601
Rp2602
(dp2603
g12
VPRP
p2604
sbatp2605
Rp2606
(dp2607
g12
VNP
p2608
sbag0
(g1
g2
(lp2609
g0
(g1
g2
(lp2610
Vto
p2611
atp2612
Rp2613
(dp2614
g12
VTO
p2615
sbag0
(g1
g2
(lp2616
g0
(g1
g2
(lp2617
Vbed
p2618
atp2619
Rp2620
(dp2621
g12
VNN
p2622
sbatp2623
Rp2624
(dp2625
g12
VNP
p2626
sbatp2627
Rp2628
(dp2629
g12
VPP
p2630
sbag0
(g1
g2
(lp2631
V,
p2632
atp2633
Rp2634
(dp2635
g12
V,
p2636
sbag0
(g1
g2
(lp2637
g0
(g1
g2
(lp2638
Vsoon
p2639
atp2640
Rp2641
(dp2642
g12
VRB
p2643
sbatp2644
Rp2645
(dp2646
g12
VADVP
p2647
sbag0
(g1
g2
(lp2648
V,
p2649
atp2650
Rp2651
(dp2652
g12
V,
p2653
sbag0
(g1
g2
(lp2654
g0
(g1
g2
(lp2655
Vsoon
p2656
atp2657
Rp2658
(dp2659
g12
VRB
p2660
sbag0
(g1
g2
(lp2661
Vas
p2662
atp2663
Rp2664
(dp2665
g12
VIN
p2666
sbag0
(g1
g2
(lp2667
g0
(g1
g2
(lp2668
g0
(g1
g2
(lp2669
Vshe
p2670
atp2671
Rp2672
(dp2673
g12
VPRP
p2674
sbatp2675
Rp2676
(dp2677
g12
VNP
p2678
sbag0
(g1
g2
(lp2679
g0
(g1
g2
(lp2680
Vget
p2681
atp2682
Rp2683
(dp2684
g12
VVB
p2685
sbag0
(g1
g2
(lp2686
g0
(g1
g2
(lp2687
Vhome
p2688
atp2689
Rp2690
(dp2691
g12
VNN
p2692
sbatp2693
Rp2694
(dp2695
g12
VNP
p2696
sbatp2697
Rp2698
(dp2699
g12
VVP
p2700
sbatp2701
Rp2702
(dp2703
g12
VS
p2704
sbatp2705
Rp2706
(dp2707
g12
VSBAR
p2708
sbatp2709
Rp2710
(dp2711
g12
VVP
p2712
sbatp2713
Rp2714
(dp2715
g12
VVP
p2716
sbatp2717
Rp2718
(dp2719
g12
VS
p2720
sbatp2721
Rp2722
(dp2723
g12
VVP
p2724
sbatp2725
Rp2726
(dp2727
g12
VVP
p2728
sbatp2729
Rp2730
(dp2731
g12
VS
p2732
sbatp2733
Rp2734
(dp2735
g12
VVP
p2736
sbatp2737
Rp2738
(dp2739
g12
VS
p2740
sbag0
(g1
g2
(lp2741
V,
p2742
atp2743
Rp2744
(dp2745
g12
V,
p2746
sbag0
(g1
g2
(lp2747
Vbut
p2748
atp2749
Rp2750
(dp2751
g12
VCC
p2752
sbag0
(g1
g2
(lp2753
g0
(g1
g2
(lp2754
g0
(g1
g2
(lp2755
Vshe
p2756
atp2757
Rp2758
(dp2759
g12
VPRP
p2760
sbatp2761
Rp2762
(dp2763
g12
VNP
p2764
sbag0
(g1
g2
(lp2765
g0
(g1
g2
(lp2766
Vlook
p2767
atp2768
Rp2769
(dp2770
g12
VVB
p2771
sbag0
(g1
g2
(lp2772
g0
(g1
g2
(lp2773
Vlike
p2774
atp2775
Rp2776
(dp2777
g12
VIN
p2778
sbag0
(g1
g2
(lp2779
g0
(g1
g2
(lp2780
g0
(g1
g2
(lp2781
Vshe
p2782
atp2783
Rp2784
(dp2785
g12
VPRP
p2786
sbatp2787
Rp2788
(dp2789
g12
VNP
p2790
sbag0
(g1
g2
(lp2791
g0
(g1
g2
(lp2792
Vtired
p2793
atp2794
Rp2795
(dp2796
g12
VVBD
p2797
sbatp2798
Rp2799
(dp2800
g12
VVP
p2801
sbatp2802
Rp2803
(dp2804
g12
VS
p2805
sbatp2806
Rp2807
(dp2808
g12
VSBAR
p2809
sbatp2810
Rp2811
(dp2812
g12
VVP
p2813
sbatp2814
Rp2815
(dp2816
g12
VS
p2817
sbag0
(g1
g2
(lp2818
V.
p2819
atp2820
Rp2821
(dp2822
g12
V.
p2823
sbatp2824
Rp2825
(dp2826
g12
VS
p2827
sbatp2828
Rp2829
(dp2830
g12
S'id: 10'
p2831
sbag0
(g1
g2
(lp2832
g0
(g1
g2
(lp2833
g0
(g1
g2
(lp2834
VAnd
p2835
atp2836
Rp2837
(dp2838
g12
VCC
p2839
sbag0
(g1
g2
(lp2840
g0
(g1
g2
(lp2841
g0
(g1
g2
(lp2842
Vthat
p2843
atp2844
Rp2845
(dp2846
g12
VDT
p2847
sbag0
(g1
g2
(lp2848
Voldest
p2849
atp2850
Rp2851
(dp2852
g12
VJJS
p2853
sbag0
(g1
g2
(lp2854
Vlittle
p2855
atp2856
Rp2857
(dp2858
g12
VJJ
p2859
sbag0
(g1
g2
(lp2860
Vgirl
p2861
atp2862
Rp2863
(dp2864
g12
VNN
p2865
sbatp2866
Rp2867
(dp2868
g12
VNP
p2869
sbag0
(g1
g2
(lp2870
g0
(g1
g2
(lp2871
g0
(g1
g2
(lp2872
g0
(g1
g2
(lp2873
Vshe
p2874
atp2875
Rp2876
(dp2877
g12
VPRP
p2878
sbatp2879
Rp2880
(dp2881
g12
VNP
p2882
sbag0
(g1
g2
(lp2883
g0
(g1
g2
(lp2884
Vis
p2885
atp2886
Rp2887
(dp2888
g12
VVBZ
p2889
sbag0
(g1
g2
(lp2890
V,
p2891
atp2892
Rp2893
(dp2894
g12
V,
p2895
sbag0
(g1
g2
(lp2896
g0
(g1
g2
(lp2897
g0
(g1
g2
(lp2898
g0
(g1
g2
(lp2899
Vshe
p2900
atp2901
Rp2902
(dp2903
g12
VPRP
p2904
sbatp2905
Rp2906
(dp2907
g12
VNP
p2908
sbag0
(g1
g2
(lp2909
g0
(g1
g2
(lp2910
V's
p2911
atp2912
Rp2913
(dp2914
g12
VVBZ
p2915
sbag0
(g1
g2
(lp2916
Vnot
p2917
atp2918
Rp2919
(dp2920
g12
VRB
p2921
sbag0
(g1
g2
(lp2922
g0
(g1
g2
(lp2923
g0
(g1
g2
(lp2924
Vtoo
p2925
atp2926
Rp2927
(dp2928
g12
VRB
p2929
sbag0
(g1
g2
(lp2930
Vtired
p2931
atp2932
Rp2933
(dp2934
g12
VJJ
p2935
sbatp2936
Rp2937
(dp2938
g12
VADJP
p2939
sbag0
(g1
g2
(lp2940
Vcause
p2941
atp2942
Rp2943
(dp2944
g12
VNN
p2945
sbatp2946
Rp2947
(dp2948
g12
VNP
p2949
sbatp2950
Rp2951
(dp2952
g12
VVP
p2953
sbatp2954
Rp2955
(dp2956
g12
VS
p2957
sbatp2958
Rp2959
(dp2960
g12
VSBAR
p2961
sbatp2962
Rp2963
(dp2964
g12
VVP
p2965
sbatp2966
Rp2967
(dp2968
g12
VS
p2969
sbatp2970
Rp2971
(dp2972
g12
VSBAR
p2973
sbatp2974
Rp2975
(dp2976
g12
VNP
p2977
sbag0
(g1
g2
(lp2978
g0
(g1
g2
(lp2979
g0
(g1
g2
(lp2980
g0
(g1
g2
(lp2981
Vshe
p2982
atp2983
Rp2984
(dp2985
g12
VPRP
p2986
sbatp2987
Rp2988
(dp2989
g12
VNP
p2990
sbag0
(g1
g2
(lp2991
g0
(g1
g2
(lp2992
Vcan
p2993
atp2994
Rp2995
(dp2996
g12
VMD
p2997
sbag0
(g1
g2
(lp2998
g0
(g1
g2
(lp2999
Vstand
p3000
atp3001
Rp3002
(dp3003
g12
VVB
p3004
sbag0
(g1
g2
(lp3005
g0
(g1
g2
(lp3006
Vup
p3007
atp3008
Rp3009
(dp3010
g12
VRP
p3011
sbatp3012
Rp3013
(dp3014
g12
VPRT
p3015
sbag0
(g1
g2
(lp3016
g0
(g1
g2
(lp3017
Von
p3018
atp3019
Rp3020
(dp3021
g12
VIN
p3022
sbag0
(g1
g2
(lp3023
g0
(g1
g2
(lp3024
Vher
p3025
atp3026
Rp3027
(dp3028
g12
VPRP$
p3029
sbag0
(g1
g2
(lp3030
Vtwo
p3031
atp3032
Rp3033
(dp3034
g12
VCD
p3035
sbag0
(g1
g2
(lp3036
Vfeet
p3037
atp3038
Rp3039
(dp3040
g12
VNNS
p3041
sbatp3042
Rp3043
(dp3044
g12
VNP
p3045
sbatp3046
Rp3047
(dp3048
g12
VPP
p3049
sbatp3050
Rp3051
(dp3052
g12
VVP
p3053
sbatp3054
Rp3055
(dp3056
g12
VVP
p3057
sbatp3058
Rp3059
(dp3060
g12
VS
p3061
sbatp3062
Rp3063
(dp3064
g12
VSBAR
p3065
sbag0
(g1
g2
(lp3066
V.
p3067
atp3068
Rp3069
(dp3070
g12
V.
p3071
sbatp3072
Rp3073
(dp3074
g12
VFRAG
p3075
sbatp3076
Rp3077
(dp3078
g12
S'id: 11'
p3079
sbag0
(g1
g2
(lp3080
g0
(g1
g2
(lp3081
g0
(g1
g2
(lp3082
g0
(g1
g2
(lp3083
VHer
p3084
atp3085
Rp3086
(dp3087
g12
VPRP$
p3088
sbag0
(g1
g2
(lp3089
Vhair
p3090
atp3091
Rp3092
(dp3093
g12
VNN
p3094
sbatp3095
Rp3096
(dp3097
g12
VNP
p3098
sbag0
(g1
g2
(lp3099
g0
(g1
g2
(lp3100
Vis
p3101
atp3102
Rp3103
(dp3104
g12
VVBZ
p3105
sbag0
(g1
g2
(lp3106
g0
(g1
g2
(lp3107
Vpretty
p3108
atp3109
Rp3110
(dp3111
g12
VRB
p3112
sbag0
(g1
g2
(lp3113
g0
(g1
g2
(lp3114
V,
p3115
atp3116
Rp3117
(dp3118
g12
V,
p3119
sbag0
(g1
g2
(lp3120
g0
(g1
g2
(lp3121
Vwith
p3122
atp3123
Rp3124
(dp3125
g12
VIN
p3126
sbag0
(g1
g2
(lp3127
g0
(g1
g2
(lp3128
g0
(g1
g2
(lp3129
Vthose
p3130
atp3131
Rp3132
(dp3133
g12
VDT
p3134
sbag0
(g1
g2
(lp3135
Vfo
p3136
atp3137
Rp3138
(dp3139
g12
VNN
p3140
sbatp3141
Rp3142
(dp3143
g12
VNP
p3144
sbag0
(g1
g2
(lp3145
V,
p3146
atp3147
Rp3148
(dp3149
g12
V,
p3150
sbag0
(g1
g2
(lp3151
g0
(g1
g2
(lp3152
Vfour
p3153
atp3154
Rp3155
(dp3156
g12
VCD
p3157
sbag0
(g1
g2
(lp3158
Vlittle
p3159
atp3160
Rp3161
(dp3162
g12
VJJ
p3163
sbag0
(g1
g2
(lp3164
Vbo
p3165
atp3166
Rp3167
(dp3168
g12
VNN
p3169
sbatp3170
Rp3171
(dp3172
g12
VNP
p3173
sbatp3174
Rp3175
(dp3176
g12
VNP
p3177
sbatp3178
Rp3179
(dp3180
g12
VPP
p3181
sbag0
(g1
g2
(lp3182
V,
p3183
atp3184
Rp3185
(dp3186
g12
V,
p3187
sbatp3188
Rp3189
(dp3190
g12
VPRN
p3191
sbag0
(g1
g2
(lp3192
g0
(g1
g2
(lp3193
g0
(g1
g2
(lp3194
Vbows
p3195
atp3196
Rp3197
(dp3198
g12
VVBZ
p3199
sbag0
(g1
g2
(lp3200
g0
(g1
g2
(lp3201
Vin
p3202
atp3203
Rp3204
(dp3205
g12
VIN
p3206
sbag0
(g1
g2
(lp3207
g0
(g1
g2
(lp3208
Vthere
p3209
atp3210
Rp3211
(dp3212
g12
VRB
p3213
sbatp3214
Rp3215
(dp3216
g12
VNP
p3217
sbatp3218
Rp3219
(dp3220
g12
VPP
p3221
sbatp3222
Rp3223
(dp3224
g12
VVP
p3225
sbatp3226
Rp3227
(dp3228
g12
VS
p3229
sbatp3230
Rp3231
(dp3232
g12
VADVP
p3233
sbatp3234
Rp3235
(dp3236
g12
VVP
p3237
sbag0
(g1
g2
(lp3238
V.
p3239
atp3240
Rp3241
(dp3242
g12
V.
p3243
sbatp3244
Rp3245
(dp3246
g12
VS
p3247
sbatp3248
Rp3249
(dp3250
g12
S'id: 12'
p3251
sbag0
(g1
g2
(lp3252
g0
(g1
g2
(lp3253
g0
(g1
g2
(lp3254
VAnd
p3255
atp3256
Rp3257
(dp3258
g12
VCC
p3259
sbag0
(g1
g2
(lp3260
g0
(g1
g2
(lp3261
VI
p3262
atp3263
Rp3264
(dp3265
g12
VPRP
p3266
sbatp3267
Rp3268
(dp3269
g12
VNP
p3270
sbag0
(g1
g2
(lp3271
g0
(g1
g2
(lp3272
Vthink
p3273
atp3274
Rp3275
(dp3276
g12
VVBP
p3277
sbag0
(g1
g2
(lp3278
g0
(g1
g2
(lp3279
g0
(g1
g2
(lp3280
g0
(g1
g2
(lp3281
Vthe
p3282
atp3283
Rp3284
(dp3285
g12
VDT
p3286
sbag0
(g1
g2
(lp3287
Vbaby
p3288
atp3289
Rp3290
(dp3291
g12
VNN
p3292
sbatp3293
Rp3294
(dp3295
g12
VNP
p3296
sbag0
(g1
g2
(lp3297
g0
(g1
g2
(lp3298
Vhas
p3299
atp3300
Rp3301
(dp3302
g12
VVBZ
p3303
sbag0
(g1
g2
(lp3304
g0
(g1
g2
(lp3305
g0
(g1
g2
(lp3306
Vone
p3307
atp3308
Rp3309
(dp3310
g12
VCD
p3311
sbag0
(g1
g2
(lp3312
Vbow
p3313
atp3314
Rp3315
(dp3316
g12
VNN
p3317
sbatp3318
Rp3319
(dp3320
g12
VNP
p3321
sbag0
(g1
g2
(lp3322
g0
(g1
g2
(lp3323
Vin
p3324
atp3325
Rp3326
(dp3327
g12
VIN
p3328
sbag0
(g1
g2
(lp3329
g0
(g1
g2
(lp3330
Vher
p3331
atp3332
Rp3333
(dp3334
g12
VPRP$
p3335
sbag0
(g1
g2
(lp3336
Vhair
p3337
atp3338
Rp3339
(dp3340
g12
VNN
p3341
sbatp3342
Rp3343
(dp3344
g12
VNP
p3345
sbatp3346
Rp3347
(dp3348
g12
VPP
p3349
sbatp3350
Rp3351
(dp3352
g12
VNP
p3353
sbatp3354
Rp3355
(dp3356
g12
VVP
p3357
sbatp3358
Rp3359
(dp3360
g12
VS
p3361
sbatp3362
Rp3363
(dp3364
g12
VSBAR
p3365
sbatp3366
Rp3367
(dp3368
g12
VVP
p3369
sbag0
(g1
g2
(lp3370
V.
p3371
atp3372
Rp3373
(dp3374
g12
V.
p3375
sbatp3376
Rp3377
(dp3378
g12
VS
p3379
sbatp3380
Rp3381
(dp3382
g12
S'id: 13'
p3383
sbag0
(g1
g2
(lp3384
g0
(g1
g2
(lp3385
g0
(g1
g2
(lp3386
VAnd
p3387
atp3388
Rp3389
(dp3390
g12
VCC
p3391
sbag0
(g1
g2
(lp3392
g0
(g1
g2
(lp3393
Vthe
p3394
atp3395
Rp3396
(dp3397
g12
VDT
p3398
sbag0
(g1
g2
(lp3399
Vbrother
p3400
atp3401
Rp3402
(dp3403
g12
VNN
p3404
sbag0
(g1
g2
(lp3405
Vlittle
p3406
atp3407
Rp3408
(dp3409
g12
VJJ
p3410
sbag0
(g1
g2
(lp3411
Vbrother
p3412
atp3413
Rp3414
(dp3415
g12
VNN
p3416
sbatp3417
Rp3418
(dp3419
g12
VNP
p3420
sbag0
(g1
g2
(lp3421
g0
(g1
g2
(lp3422
Vis
p3423
atp3424
Rp3425
(dp3426
g12
VVBZ
p3427
sbag0
(g1
g2
(lp3428
g0
(g1
g2
(lp3429
Vstill
p3430
atp3431
Rp3432
(dp3433
g12
VRB
p3434
sbatp3435
Rp3436
(dp3437
g12
VADVP
p3438
sbatp3439
Rp3440
(dp3441
g12
VVP
p3442
sbatp3443
Rp3444
(dp3445
g12
VS
p3446
sbatp3447
Rp3448
(dp3449
g12
S'id: 14'
p3450
sbatp3451
Rp3452
(dp3453
g12
S'sentences'
p3454
sb.