ccopy_reg
_reconstructor
p0
(cnltk.tree
Tree
p1
c__builtin__
list
p2
(lp3
g0
(g1
g2
(lp4
g0
(g1
g2
(lp5
g0
(g1
g2
(lp6
Vthe
p7
atp8
Rp9
(dp10
S'_label'
p11
S'start: 5'
p12
sbatp13
Rp14
(dp15
g11
S'sent: 3'
p16
sbag0
(g1
g2
(lp17
g0
(g1
g2
(lp18
Vthe
p19
atp20
Rp21
(dp22
g11
S'start: 4'
p23
sbatp24
Rp25
(dp26
g11
S'sent: 9'
p27
sbag0
(g1
g2
(lp28
g0
(g1
g2
(lp29
Vhor , or the
p30
atp31
Rp32
(dp33
g11
S'start: 9'
p34
sbatp35
Rp36
(dp37
g11
S'sent: 9'
p38
sbag0
(g1
g2
(lp39
g0
(g1
g2
(lp40
Vthe
p41
atp42
Rp43
(dp44
g11
S'start: 12'
p45
sbatp46
Rp47
(dp48
g11
S'sent: 9'
p49
sbatp50
Rp51
(dp52
g11
S'id: 3'
p53
sbag0
(g1
g2
(lp54
g0
(g1
g2
(lp55
g0
(g1
g2
(lp56
Va man
p57
atp58
Rp59
(dp60
g11
S'start: 1'
p61
sbatp62
Rp63
(dp64
g11
S'sent: 4'
p65
sbag0
(g1
g2
(lp66
g0
(g1
g2
(lp67
Va man
p68
atp69
Rp70
(dp71
g11
S'start: 2'
p72
sbatp73
Rp74
(dp75
g11
S'sent: 10'
p76
sbatp77
Rp78
(dp79
g11
S'id: 4'
p80
sbag0
(g1
g2
(lp81
g0
(g1
g2
(lp82
g0
(g1
g2
(lp83
Vthe man
p84
atp85
Rp86
(dp87
g11
S'start: 2'
p88
sbatp89
Rp90
(dp91
g11
S'sent: 5'
p92
sbag0
(g1
g2
(lp93
g0
(g1
g2
(lp94
Vthe arm 's louw
p95
atp96
Rp97
(dp98
g11
S'start: 5'
p99
sbatp100
Rp101
(dp102
g11
S'sent: 5'
p103
sbag0
(g1
g2
(lp104
g0
(g1
g2
(lp105
Vthe man
p106
atp107
Rp108
(dp109
g11
S'start: 6'
p110
sbatp111
Rp112
(dp113
g11
S'sent: 9'
p114
sbatp115
Rp116
(dp117
g11
S'id: 6'
p118
sbag0
(g1
g2
(lp119
g0
(g1
g2
(lp120
g0
(g1
g2
(lp121
Vthe arm 's
p122
atp123
Rp124
(dp125
g11
S'start: 5'
p126
sbatp127
Rp128
(dp129
g11
S'sent: 5'
p130
sbag0
(g1
g2
(lp131
g0
(g1
g2
(lp132
VThe arm 's
p133
atp134
Rp135
(dp136
g11
S'start: 1'
p137
sbatp138
Rp139
(dp140
g11
S'sent: 8'
p141
sbatp142
Rp143
(dp144
g11
S'id: 8'
p145
sbag0
(g1
g2
(lp146
g0
(g1
g2
(lp147
g0
(g1
g2
(lp148
Vgirl , and girl ans , one the yard
p149
atp150
Rp151
(dp152
g11
S'start: 5'
p153
sbatp154
Rp155
(dp156
g11
S'sent: 6'
p157
sbag0
(g1
g2
(lp158
g0
(g1
g2
(lp159
Vthey
p160
atp161
Rp162
(dp163
g11
S'start: 2'
p164
sbatp165
Rp166
(dp167
g11
S'sent: 9'
p168
sbatp169
Rp170
(dp171
g11
S'id: 10'
p172
sbag0
(g1
g2
(lp173
g0
(g1
g2
(lp174
g0
(g1
g2
(lp175
Vthe yard
p176
atp177
Rp178
(dp179
g11
S'start: 12'
p180
sbatp181
Rp182
(dp183
g11
S'sent: 6'
p184
sbag0
(g1
g2
(lp185
g0
(g1
g2
(lp186
Vthe yard
p187
atp188
Rp189
(dp190
g11
S'start: 18'
p191
sbatp192
Rp193
(dp194
g11
S'sent: 9'
p195
sbag0
(g1
g2
(lp196
g0
(g1
g2
(lp197
Vthe yard
p198
atp199
Rp200
(dp201
g11
S'start: 11'
p202
sbatp203
Rp204
(dp205
g11
S'sent: 10'
p206
sbatp207
Rp208
(dp209
g11
S'id: 14'
p210
sbatp211
Rp212
(dp213
g11
S'coreferences'
p214
sb.