ccopy_reg
_reconstructor
p0
(cnltk.tree
Tree
p1
c__builtin__
list
p2
(lp3
g0
(g1
g2
(lp4
g0
(g1
g2
(lp5
g0
(g1
g2
(lp6
Va boy and a girl on a , on a
p7
atp8
Rp9
(dp10
S'_label'
p11
S'start: 3'
p12
sbatp13
Rp14
(dp15
g11
S'sent: 1'
p16
sbag0
(g1
g2
(lp17
g0
(g1
g2
(lp18
Vboy and a
p19
atp20
Rp21
(dp22
g11
S'start: 4'
p23
sbatp24
Rp25
(dp26
g11
S'sent: 8'
p27
sbatp28
Rp29
(dp30
g11
S'id: 1'
p31
sbag0
(g1
g2
(lp32
g0
(g1
g2
(lp33
g0
(g1
g2
(lp34
Va boy
p35
atp36
Rp37
(dp38
g11
S'start: 3'
p39
sbatp40
Rp41
(dp42
g11
S'sent: 1'
p43
sbag0
(g1
g2
(lp44
g0
(g1
g2
(lp45
VThe boy
p46
atp47
Rp48
(dp49
g11
S'start: 1'
p50
sbatp51
Rp52
(dp53
g11
S'sent: 2'
p54
sbatp55
Rp56
(dp57
g11
S'id: 2'
p58
sbag0
(g1
g2
(lp59
g0
(g1
g2
(lp60
g0
(g1
g2
(lp61
Va girl on a , on a
p62
atp63
Rp64
(dp65
g11
S'start: 6'
p66
sbatp67
Rp68
(dp69
g11
S'sent: 1'
p70
sbag0
(g1
g2
(lp71
g0
(g1
g2
(lp72
Vthe girl
p73
atp74
Rp75
(dp76
g11
S'start: 7'
p77
sbatp78
Rp79
(dp80
g11
S'sent: 2'
p81
sbag0
(g1
g2
(lp82
g0
(g1
g2
(lp83
Va girl
p84
atp85
Rp86
(dp87
g11
S'start: 3'
p88
sbatp89
Rp90
(dp91
g11
S'sent: 9'
p92
sbatp93
Rp94
(dp95
g11
S'id: 3'
p96
sbag0
(g1
g2
(lp97
g0
(g1
g2
(lp98
g0
(g1
g2
(lp99
Va picnic
p100
atp101
Rp102
(dp103
g11
S'start: 2'
p104
sbatp105
Rp106
(dp107
g11
S'sent: 3'
p108
sbag0
(g1
g2
(lp109
g0
(g1
g2
(lp110
Vit
p111
atp112
Rp113
(dp114
g11
S'start: 7'
p115
sbatp116
Rp117
(dp118
g11
S'sent: 3'
p119
sbatp120
Rp121
(dp122
g11
S'id: 11'
p123
sbag0
(g1
g2
(lp124
g0
(g1
g2
(lp125
g0
(g1
g2
(lp126
Vthe back yard
p127
atp128
Rp129
(dp130
g11
S'start: 4'
p131
sbatp132
Rp133
(dp134
g11
S'sent: 5'
p135
sbag0
(g1
g2
(lp136
g0
(g1
g2
(lp137
Vthe yard
p138
atp139
Rp140
(dp141
g11
S'start: 6'
p142
sbatp143
Rp144
(dp145
g11
S'sent: 6'
p146
sbatp147
Rp148
(dp149
g11
S'id: 14'
p150
sbag0
(g1
g2
(lp151
g0
(g1
g2
(lp152
g0
(g1
g2
(lp153
VI
p154
atp155
Rp156
(dp157
g11
S'start: 1'
p158
sbatp159
Rp160
(dp161
g11
S'sent: 8'
p162
sbag0
(g1
g2
(lp163
g0
(g1
g2
(lp164
VI
p165
atp166
Rp167
(dp168
g11
S'start: 1'
p169
sbatp170
Rp171
(dp172
g11
S'sent: 9'
p173
sbag0
(g1
g2
(lp174
g0
(g1
g2
(lp175
VI
p176
atp177
Rp178
(dp179
g11
S'start: 1'
p180
sbatp181
Rp182
(dp183
g11
S'sent: 10'
p184
sbag0
(g1
g2
(lp185
g0
(g1
g2
(lp186
VI
p187
atp188
Rp189
(dp190
g11
S'start: 1'
p191
sbatp192
Rp193
(dp194
g11
S'sent: 11'
p195
sbatp196
Rp197
(dp198
g11
S'id: 19'
p199
sbag0
(g1
g2
(lp200
g0
(g1
g2
(lp201
g0
(g1
g2
(lp202
Va guy , and a girl in a boat
p203
atp204
Rp205
(dp206
g11
S'start: 3'
p207
sbatp208
Rp209
(dp210
g11
S'sent: 11'
p211
sbag0
(g1
g2
(lp212
g0
(g1
g2
(lp213
Vthey
p214
atp215
Rp216
(dp217
g11
S'start: 17'
p218
sbatp219
Rp220
(dp221
g11
S'sent: 11'
p222
sbatp223
Rp224
(dp225
g11
S'id: 34'
p226
sbag0
(g1
g2
(lp227
g0
(g1
g2
(lp228
g0
(g1
g2
(lp229
Va boat
p230
atp231
Rp232
(dp233
g11
S'start: 10'
p234
sbatp235
Rp236
(dp237
g11
S'sent: 11'
p238
sbag0
(g1
g2
(lp239
g0
(g1
g2
(lp240
Vit
p241
atp242
Rp243
(dp244
g11
S'start: 19'
p245
sbatp246
Rp247
(dp248
g11
S'sent: 11'
p249
sbatp250
Rp251
(dp252
g11
S'id: 37'
p253
sbatp254
Rp255
(dp256
g11
S'coreferences'
p257
sb.