ccopy_reg
_reconstructor
p0
(cnltk.tree
Tree
p1
c__builtin__
list
p2
(lp3
g0
(g1
g2
(lp4
g0
(g1
g2
(lp5
g0
(g1
g2
(lp6
VAll
p7
atp8
Rp9
(dp10
S'_label'
p11
VDT
p12
sbag0
(g1
g2
(lp13
Vright
p14
atp15
Rp16
(dp17
g11
VNN
p18
sbag0
(g1
g2
(lp19
V.
p20
atp21
Rp22
(dp23
g11
V.
p24
sbatp25
Rp26
(dp27
g11
VNP
p28
sbatp29
Rp30
(dp31
g11
S'id: 0'
p32
sbag0
(g1
g2
(lp33
g0
(g1
g2
(lp34
g0
(g1
g2
(lp35
g0
(g1
g2
(lp36
g0
(g1
g2
(lp37
VWe
p38
atp39
Rp40
(dp41
g11
VPRP
p42
sbatp43
Rp44
(dp45
g11
VNP
p46
sbag0
(g1
g2
(lp47
g0
(g1
g2
(lp48
Vhave
p49
atp50
Rp51
(dp52
g11
VVBP
p53
sbag0
(g1
g2
(lp54
g0
(g1
g2
(lp55
g0
(g1
g2
(lp56
Va
p57
atp58
Rp59
(dp60
g11
VDT
p61
sbag0
(g1
g2
(lp62
Vnice
p63
atp64
Rp65
(dp66
g11
VJJ
p67
sbag0
(g1
g2
(lp68
g0
(g1
g2
(lp69
Vlittle
p70
atp71
Rp72
(dp73
g11
VJJ
p74
sbag0
(g1
g2
(lp75
g0
(g1
g2
(lp76
Vnineteen
p77
atp78
Rp79
(dp80
g11
VCD
p81
sbag0
(g1
g2
(lp82
Vfifties
p83
atp84
Rp85
(dp86
g11
VNNS
p87
sbatp88
Rp89
(dp90
g11
VNP
p91
sbatp92
Rp93
(dp94
g11
VADJP
p95
sbag0
(g1
g2
(lp96
Vhousewife
p97
atp98
Rp99
(dp100
g11
VNN
p101
sbatp102
Rp103
(dp104
g11
VNP
p105
sbag0
(g1
g2
(lp106
g0
(g1
g2
(lp107
Vdoing
p108
atp109
Rp110
(dp111
g11
VVBG
p112
sbag0
(g1
g2
(lp113
g0
(g1
g2
(lp114
g0
(g1
g2
(lp115
Vdishes
p116
atp117
Rp118
(dp119
g11
VNNS
p120
sbatp121
Rp122
(dp123
g11
VNP
p124
sbag0
(g1
g2
(lp125
g0
(g1
g2
(lp126
Vin
p127
atp128
Rp129
(dp130
g11
VIN
p131
sbag0
(g1
g2
(lp132
g0
(g1
g2
(lp133
Vthe
p134
atp135
Rp136
(dp137
g11
VDT
p138
sbag0
(g1
g2
(lp139
Vsink
p140
atp141
Rp142
(dp143
g11
VNN
p144
sbatp145
Rp146
(dp147
g11
VNP
p148
sbatp149
Rp150
(dp151
g11
VPP
p152
sbatp153
Rp154
(dp155
g11
VNP
p156
sbatp157
Rp158
(dp159
g11
VVP
p160
sbatp161
Rp162
(dp163
g11
VNP
p164
sbatp165
Rp166
(dp167
g11
VVP
p168
sbatp169
Rp170
(dp171
g11
VS
p172
sbag0
(g1
g2
(lp173
V,
p174
atp175
Rp176
(dp177
g11
V,
p178
sbag0
(g1
g2
(lp179
Vbut
p180
atp181
Rp182
(dp183
g11
VCC
p184
sbag0
(g1
g2
(lp185
g0
(g1
g2
(lp186
g0
(g1
g2
(lp187
g0
(g1
g2
(lp188
Vshe
p189
atp190
Rp191
(dp192
g11
VPRP
p193
sbatp194
Rp195
(dp196
g11
VNP
p197
sbag0
(g1
g2
(lp198
g0
(g1
g2
(lp199
Vis
p200
atp201
Rp202
(dp203
g11
VVBZ
p204
sbag0
(g1
g2
(lp205
g0
(g1
g2
(lp206
Vletting
p207
atp208
Rp209
(dp210
g11
VVBG
p211
sbag0
(g1
g2
(lp212
g0
(g1
g2
(lp213
Vthe
p214
atp215
Rp216
(dp217
g11
VDT
p218
sbag0
(g1
g2
(lp219
Vsink
p220
atp221
Rp222
(dp223
g11
VNN
p224
sbag0
(g1
g2
(lp225
Voverflow
p226
atp227
Rp228
(dp229
g11
VNN
p230
sbatp231
Rp232
(dp233
g11
VNP
p234
sbatp235
Rp236
(dp237
g11
VVP
p238
sbatp239
Rp240
(dp241
g11
VVP
p242
sbatp243
Rp244
(dp245
g11
VS
p246
sbag0
(g1
g2
(lp247
V,
p248
atp249
Rp250
(dp251
g11
V,
p252
sbag0
(g1
g2
(lp253
Vand
p254
atp255
Rp256
(dp257
g11
VCC
p258
sbag0
(g1
g2
(lp259
g0
(g1
g2
(lp260
g0
(g1
g2
(lp261
g0
(g1
g2
(lp262
Vit
p263
atp264
Rp265
(dp266
g11
VPRP
p267
sbatp268
Rp269
(dp270
g11
VNP
p271
sbag0
(g1
g2
(lp272
g0
(g1
g2
(lp273
V's
p274
atp275
Rp276
(dp277
g11
VVBZ
p278
sbag0
(g1
g2
(lp279
g0
(g1
g2
(lp280
Vgetting
p281
atp282
Rp283
(dp284
g11
VVBG
p285
sbag0
(g1
g2
(lp286
g0
(g1
g2
(lp287
g0
(g1
g2
(lp288
Vher
p289
atp290
Rp291
(dp292
g11
VPRP$
p293
sbag0
(g1
g2
(lp294
Vnice
p295
atp296
Rp297
(dp298
g11
VJJ
p299
sbag0
(g1
g2
(lp300
Vshoes
p301
atp302
Rp303
(dp304
g11
VNNS
p305
sbatp306
Rp307
(dp308
g11
VNP
p309
sbag0
(g1
g2
(lp310
g0
(g1
g2
(lp311
Vall
p312
atp313
Rp314
(dp315
g11
VDT
p316
sbag0
(g1
g2
(lp317
Vwet
p318
atp319
Rp320
(dp321
g11
VJJ
p322
sbatp323
Rp324
(dp325
g11
VADJP
p326
sbatp327
Rp328
(dp329
g11
VS
p330
sbatp331
Rp332
(dp333
g11
VVP
p334
sbatp335
Rp336
(dp337
g11
VVP
p338
sbatp339
Rp340
(dp341
g11
VS
p342
sbag0
(g1
g2
(lp343
V,
p344
atp345
Rp346
(dp347
g11
V,
p348
sbag0
(g1
g2
(lp349
Vbut
p350
atp351
Rp352
(dp353
g11
VCC
p354
sbag0
(g1
g2
(lp355
g0
(g1
g2
(lp356
g0
(g1
g2
(lp357
Vshe
p358
atp359
Rp360
(dp361
g11
VPRP
p362
sbatp363
Rp364
(dp365
g11
VNP
p366
sbag0
(g1
g2
(lp367
g0
(g1
g2
(lp368
Vdoes
p369
atp370
Rp371
(dp372
g11
VVBZ
p373
sbag0
(g1
g2
(lp374
Vn't
p375
atp376
Rp377
(dp378
g11
VRB
p379
sbag0
(g1
g2
(lp380
g0
(g1
g2
(lp381
Vseem
p382
atp383
Rp384
(dp385
g11
VVB
p386
sbag0
(g1
g2
(lp387
g0
(g1
g2
(lp388
g0
(g1
g2
(lp389
Vto
p390
atp391
Rp392
(dp393
g11
VTO
p394
sbag0
(g1
g2
(lp395
g0
(g1
g2
(lp396
Vbe
p397
atp398
Rp399
(dp400
g11
VVB
p401
sbag0
(g1
g2
(lp402
g0
(g1
g2
(lp403
Vtoo
p404
atp405
Rp406
(dp407
g11
VRB
p408
sbag0
(g1
g2
(lp409
Vconcerned
p410
atp411
Rp412
(dp413
g11
VJJ
p414
sbatp415
Rp416
(dp417
g11
VADJP
p418
sbatp419
Rp420
(dp421
g11
VVP
p422
sbatp423
Rp424
(dp425
g11
VVP
p426
sbatp427
Rp428
(dp429
g11
VS
p430
sbatp431
Rp432
(dp433
g11
VVP
p434
sbatp435
Rp436
(dp437
g11
VVP
p438
sbatp439
Rp440
(dp441
g11
VS
p442
sbatp443
Rp444
(dp445
g11
VS
p446
sbatp447
Rp448
(dp449
g11
VS
p450
sbag0
(g1
g2
(lp451
V.
p452
atp453
Rp454
(dp455
g11
V.
p456
sbatp457
Rp458
(dp459
g11
VS
p460
sbatp461
Rp462
(dp463
g11
S'id: 1'
p464
sbag0
(g1
g2
(lp465
g0
(g1
g2
(lp466
g0
(g1
g2
(lp467
g0
(g1
g2
(lp468
VWhile
p469
atp470
Rp471
(dp472
g11
VIN
p473
sbag0
(g1
g2
(lp474
g0
(g1
g2
(lp475
g0
(g1
g2
(lp476
Vher
p477
atp478
Rp479
(dp480
g11
VPRP$
p481
sbag0
(g1
g2
(lp482
Vson
p483
atp484
Rp485
(dp486
g11
VNN
p487
sbag0
(g1
g2
(lp488
Vand
p489
atp490
Rp491
(dp492
g11
VCC
p493
sbag0
(g1
g2
(lp494
Vdaughter
p495
atp496
Rp497
(dp498
g11
VNN
p499
sbatp500
Rp501
(dp502
g11
VNP
p503
sbag0
(g1
g2
(lp504
g0
(g1
g2
(lp505
Vare
p506
atp507
Rp508
(dp509
g11
VVBP
p510
sbag0
(g1
g2
(lp511
g0
(g1
g2
(lp512
Vgetting
p513
atp514
Rp515
(dp516
g11
VVBG
p517
sbag0
(g1
g2
(lp518
g0
(g1
g2
(lp519
Vcookies
p520
atp521
Rp522
(dp523
g11
VNNS
p524
sbatp525
Rp526
(dp527
g11
VNP
p528
sbag0
(g1
g2
(lp529
g0
(g1
g2
(lp530
Vout
p531
atp532
Rp533
(dp534
g11
VIN
p535
sbag0
(g1
g2
(lp536
g0
(g1
g2
(lp537
Vof
p538
atp539
Rp540
(dp541
g11
VIN
p542
sbag0
(g1
g2
(lp543
g0
(g1
g2
(lp544
Vthe
p545
atp546
Rp547
(dp548
g11
VDT
p549
sbag0
(g1
g2
(lp550
Vcookie
p551
atp552
Rp553
(dp554
g11
VNN
p555
sbag0
(g1
g2
(lp556
Vjar
p557
atp558
Rp559
(dp560
g11
VNN
p561
sbatp562
Rp563
(dp564
g11
VNP
p565
sbatp566
Rp567
(dp568
g11
VPP
p569
sbatp570
Rp571
(dp572
g11
VADVP
p573
sbatp574
Rp575
(dp576
g11
VVP
p577
sbatp578
Rp579
(dp580
g11
VVP
p581
sbatp582
Rp583
(dp584
g11
VS
p585
sbatp586
Rp587
(dp588
g11
VSBAR
p589
sbag0
(g1
g2
(lp590
V,
p591
atp592
Rp593
(dp594
g11
V,
p595
sbag0
(g1
g2
(lp596
g0
(g1
g2
(lp597
Vbut
p598
atp599
Rp600
(dp601
g11
VCC
p602
sbag0
(g1
g2
(lp603
g0
(g1
g2
(lp604
Vthe
p605
atp606
Rp607
(dp608
g11
VDT
p609
sbag0
(g1
g2
(lp610
Vson
p611
atp612
Rp613
(dp614
g11
VNN
p615
sbatp616
Rp617
(dp618
g11
VNP
p619
sbag0
(g1
g2
(lp620
g0
(g1
g2
(lp621
Vis
p622
atp623
Rp624
(dp625
g11
VVBZ
p626
sbag0
(g1
g2
(lp627
g0
(g1
g2
(lp628
Vabout
p629
atp630
Rp631
(dp632
g11
VIN
p633
sbag0
(g1
g2
(lp634
Vready
p635
atp636
Rp637
(dp638
g11
VJJ
p639
sbatp640
Rp641
(dp642
g11
VADJP
p643
sbag0
(g1
g2
(lp644
g0
(g1
g2
(lp645
g0
(g1
g2
(lp646
Vto
p647
atp648
Rp649
(dp650
g11
VTO
p651
sbag0
(g1
g2
(lp652
g0
(g1
g2
(lp653
Vfall
p654
atp655
Rp656
(dp657
g11
VVB
p658
sbag0
(g1
g2
(lp659
g0
(g1
g2
(lp660
Voff
p661
atp662
Rp663
(dp664
g11
VRP
p665
sbatp666
Rp667
(dp668
g11
VPRT
p669
sbag0
(g1
g2
(lp670
g0
(g1
g2
(lp671
Vthe
p672
atp673
Rp674
(dp675
g11
VDT
p676
sbag0
(g1
g2
(lp677
Vstool
p678
atp679
Rp680
(dp681
g11
VNN
p682
sbatp683
Rp684
(dp685
g11
VNP
p686
sbatp687
Rp688
(dp689
g11
VVP
p690
sbatp691
Rp692
(dp693
g11
VVP
p694
sbatp695
Rp696
(dp697
g11
VS
p698
sbatp699
Rp700
(dp701
g11
VVP
p702
sbatp703
Rp704
(dp705
g11
VS
p706
sbag0
(g1
g2
(lp707
V.
p708
atp709
Rp710
(dp711
g11
V.
p712
sbatp713
Rp714
(dp715
g11
VS
p716
sbatp717
Rp718
(dp719
g11
S'id: 2'
p720
sbag0
(g1
g2
(lp721
g0
(g1
g2
(lp722
g0
(g1
g2
(lp723
VAnd
p724
atp725
Rp726
(dp727
g11
VCC
p728
sbag0
(g1
g2
(lp729
V,
p730
atp731
Rp732
(dp733
g11
V,
p734
sbag0
(g1
g2
(lp735
g0
(g1
g2
(lp736
g0
(g1
g2
(lp737
g0
(g1
g2
(lp738
Vthe
p739
atp740
Rp741
(dp742
g11
VDT
p743
sbag0
(g1
g2
(lp744
Vwindow
p745
atp746
Rp747
(dp748
g11
VNN
p749
sbatp750
Rp751
(dp752
g11
VNP
p753
sbag0
(g1
g2
(lp754
g0
(g1
g2
(lp755
Vappears
p756
atp757
Rp758
(dp759
g11
VVBZ
p760
sbag0
(g1
g2
(lp761
g0
(g1
g2
(lp762
g0
(g1
g2
(lp763
Vto
p764
atp765
Rp766
(dp767
g11
VTO
p768
sbag0
(g1
g2
(lp769
g0
(g1
g2
(lp770
Vbe
p771
atp772
Rp773
(dp774
g11
VVB
p775
sbag0
(g1
g2
(lp776
g0
(g1
g2
(lp777
Vopen
p778
atp779
Rp780
(dp781
g11
VJJ
p782
sbatp783
Rp784
(dp785
g11
VADJP
p786
sbatp787
Rp788
(dp789
g11
VVP
p790
sbatp791
Rp792
(dp793
g11
VVP
p794
sbatp795
Rp796
(dp797
g11
VS
p798
sbatp799
Rp800
(dp801
g11
VVP
p802
sbatp803
Rp804
(dp805
g11
VS
p806
sbag0
(g1
g2
(lp807
V,
p808
atp809
Rp810
(dp811
g11
V,
p812
sbag0
(g1
g2
(lp813
Vand
p814
atp815
Rp816
(dp817
g11
VCC
p818
sbag0
(g1
g2
(lp819
g0
(g1
g2
(lp820
g0
(g1
g2
(lp821
Vit
p822
atp823
Rp824
(dp825
g11
VPRP
p826
sbatp827
Rp828
(dp829
g11
VNP
p830
sbag0
(g1
g2
(lp831
g0
(g1
g2
(lp832
Vlooks
p833
atp834
Rp835
(dp836
g11
VVBZ
p837
sbag0
(g1
g2
(lp838
g0
(g1
g2
(lp839
Vlike
p840
atp841
Rp842
(dp843
g11
VIN
p844
sbag0
(g1
g2
(lp845
g0
(g1
g2
(lp846
g0
(g1
g2
(lp847
Vit
p848
atp849
Rp850
(dp851
g11
VPRP
p852
sbatp853
Rp854
(dp855
g11
VNP
p856
sbag0
(g1
g2
(lp857
g0
(g1
g2
(lp858
V's
p859
atp860
Rp861
(dp862
g11
VVBZ
p863
sbag0
(g1
g2
(lp864
g0
(g1
g2
(lp865
g0
(g1
g2
(lp866
Va
p867
atp868
Rp869
(dp870
g11
VDT
p871
sbag0
(g1
g2
(lp872
Vnice
p873
atp874
Rp875
(dp876
g11
VJJ
p877
sbag0
(g1
g2
(lp878
Vday
p879
atp880
Rp881
(dp882
g11
VNN
p883
sbatp884
Rp885
(dp886
g11
VNP
p887
sbag0
(g1
g2
(lp888
g0
(g1
g2
(lp889
Voutside
p890
atp891
Rp892
(dp893
g11
VIN
p894
sbatp895
Rp896
(dp897
g11
VADVP
p898
sbatp899
Rp900
(dp901
g11
VNP
p902
sbatp903
Rp904
(dp905
g11
VVP
p906
sbatp907
Rp908
(dp909
g11
VS
p910
sbatp911
Rp912
(dp913
g11
VSBAR
p914
sbatp915
Rp916
(dp917
g11
VVP
p918
sbatp919
Rp920
(dp921
g11
VS
p922
sbatp923
Rp924
(dp925
g11
VS
p926
sbag0
(g1
g2
(lp927
V.
p928
atp929
Rp930
(dp931
g11
V.
p932
sbatp933
Rp934
(dp935
g11
VS
p936
sbatp937
Rp938
(dp939
g11
S'id: 3'
p940
sbag0
(g1
g2
(lp941
g0
(g1
g2
(lp942
g0
(g1
g2
(lp943
g0
(g1
g2
(lp944
VThe
p945
atp946
Rp947
(dp948
g11
VDT
p949
sbag0
(g1
g2
(lp950
Vgirl
p951
atp952
Rp953
(dp954
g11
VNN
p955
sbatp956
Rp957
(dp958
g11
VNP
p959
sbag0
(g1
g2
(lp960
g0
(g1
g2
(lp961
Vis
p962
atp963
Rp964
(dp965
g11
VVBZ
p966
sbag0
(g1
g2
(lp967
g0
(g1
g2
(lp968
Vwearing
p969
atp970
Rp971
(dp972
g11
VVBG
p973
sbag0
(g1
g2
(lp974
g0
(g1
g2
(lp975
g0
(g1
g2
(lp976
Va
p977
atp978
Rp979
(dp980
g11
VDT
p981
sbag0
(g1
g2
(lp982
Vdress
p983
atp984
Rp985
(dp986
g11
VNN
p987
sbatp988
Rp989
(dp990
g11
VNP
p991
sbag0
(g1
g2
(lp992
V,
p993
atp994
Rp995
(dp996
g11
V,
p997
sbag0
(g1
g2
(lp998
g0
(g1
g2
(lp999
Valong
p1000
atp1001
Rp1002
(dp1003
g11
VIN
p1004
sbag0
(g1
g2
(lp1005
g0
(g1
g2
(lp1006
Vwith
p1007
atp1008
Rp1009
(dp1010
g11
VIN
p1011
sbag0
(g1
g2
(lp1012
g0
(g1
g2
(lp1013
Vher
p1014
atp1015
Rp1016
(dp1017
g11
VPRP$
p1018
sbag0
(g1
g2
(lp1019
Vmother
p1020
atp1021
Rp1022
(dp1023
g11
VNN
p1024
sbatp1025
Rp1026
(dp1027
g11
VNP
p1028
sbatp1029
Rp1030
(dp1031
g11
VPP
p1032
sbatp1033
Rp1034
(dp1035
g11
VADVP
p1036
sbatp1037
Rp1038
(dp1039
g11
VNP
p1040
sbatp1041
Rp1042
(dp1043
g11
VVP
p1044
sbatp1045
Rp1046
(dp1047
g11
VVP
p1048
sbag0
(g1
g2
(lp1049
V.
p1050
atp1051
Rp1052
(dp1053
g11
V.
p1054
sbatp1055
Rp1056
(dp1057
g11
VS
p1058
sbatp1059
Rp1060
(dp1061
g11
S'id: 4'
p1062
sbag0
(g1
g2
(lp1063
g0
(g1
g2
(lp1064
g0
(g1
g2
(lp1065
g0
(g1
g2
(lp1066
g0
(g1
g2
(lp1067
VThe
p1068
atp1069
Rp1070
(dp1071
g11
VDT
p1072
sbag0
(g1
g2
(lp1073
Vboy
p1074
atp1075
Rp1076
(dp1077
g11
VNN
p1078
sbatp1079
Rp1080
(dp1081
g11
VNP
p1082
sbag0
(g1
g2
(lp1083
g0
(g1
g2
(lp1084
Vis
p1085
atp1086
Rp1087
(dp1088
g11
VVBZ
p1089
sbag0
(g1
g2
(lp1090
g0
(g1
g2
(lp1091
Vwearing
p1092
atp1093
Rp1094
(dp1095
g11
VVBG
p1096
sbag0
(g1
g2
(lp1097
g0
(g1
g2
(lp1098
Va
p1099
atp1100
Rp1101
(dp1102
g11
VDT
p1103
sbag0
(g1
g2
(lp1104
Vnice
p1105
atp1106
Rp1107
(dp1108
g11
VJJ
p1109
sbag0
(g1
g2
(lp1110
Vlittle
p1111
atp1112
Rp1113
(dp1114
g11
VJJ
p1115
sbag0
(g1
g2
(lp1116
Vshorts
p1117
atp1118
Rp1119
(dp1120
g11
VNNS
p1121
sbatp1122
Rp1123
(dp1124
g11
VNP
p1125
sbatp1126
Rp1127
(dp1128
g11
VVP
p1129
sbatp1130
Rp1131
(dp1132
g11
VVP
p1133
sbatp1134
Rp1135
(dp1136
g11
VS
p1137
sbag0
(g1
g2
(lp1138
V,
p1139
atp1140
Rp1141
(dp1142
g11
V,
p1143
sbag0
(g1
g2
(lp1144
g0
(g1
g2
(lp1145
Vreminds
p1146
atp1147
Rp1148
(dp1149
g11
VVBZ
p1150
sbag0
(g1
g2
(lp1151
g0
(g1
g2
(lp1152
g0
(g1
g2
(lp1153
Vme
p1154
atp1155
Rp1156
(dp1157
g11
VPRP
p1158
sbatp1159
Rp1160
(dp1161
g11
VNP
p1162
sbag0
(g1
g2
(lp1163
g0
(g1
g2
(lp1164
Vof
p1165
atp1166
Rp1167
(dp1168
g11
VIN
p1169
sbag0
(g1
g2
(lp1170
g0
(g1
g2
(lp1171
Vstuff
p1172
atp1173
Rp1174
(dp1175
g11
VNN
p1176
sbatp1177
Rp1178
(dp1179
g11
VNP
p1180
sbatp1181
Rp1182
(dp1183
g11
VPP
p1184
sbatp1185
Rp1186
(dp1187
g11
VNP
p1188
sbag0
(g1
g2
(lp1189
g0
(g1
g2
(lp1190
Vfrom
p1191
atp1192
Rp1193
(dp1194
g11
VIN
p1195
sbag0
(g1
g2
(lp1196
g0
(g1
g2
(lp1197
Vleave
p1198
atp1199
Rp1200
(dp1201
g11
VNN
p1202
sbatp1203
Rp1204
(dp1205
g11
VNP
p1206
sbatp1207
Rp1208
(dp1209
g11
VPP
p1210
sbatp1211
Rp1212
(dp1213
g11
VVP
p1214
sbag0
(g1
g2
(lp1215
g0
(g1
g2
(lp1216
g0
(g1
g2
(lp1217
Vit
p1218
atp1219
Rp1220
(dp1221
g11
VPRP
p1222
sbatp1223
Rp1224
(dp1225
g11
VNP
p1226
sbag0
(g1
g2
(lp1227
g0
(g1
g2
(lp1228
Vto
p1229
atp1230
Rp1231
(dp1232
g11
VTO
p1233
sbag0
(g1
g2
(lp1234
g0
(g1
g2
(lp1235
Vbeaver
p1236
atp1237
Rp1238
(dp1239
g11
VNN
p1240
sbatp1241
Rp1242
(dp1243
g11
VNP
p1244
sbatp1245
Rp1246
(dp1247
g11
VPP
p1248
sbatp1249
Rp1250
(dp1251
g11
VNP
p1252
sbag0
(g1
g2
(lp1253
V.
p1254
atp1255
Rp1256
(dp1257
g11
V.
p1258
sbatp1259
Rp1260
(dp1261
g11
VSINV
p1262
sbatp1263
Rp1264
(dp1265
g11
S'id: 5'
p1266
sbag0
(g1
g2
(lp1267
g0
(g1
g2
(lp1268
g0
(g1
g2
(lp1269
g0
(g1
g2
(lp1270
g0
(g1
g2
(lp1271
VThey
p1272
atp1273
Rp1274
(dp1275
g11
VPRP
p1276
sbatp1277
Rp1278
(dp1279
g11
VNP
p1280
sbag0
(g1
g2
(lp1281
g0
(g1
g2
(lp1282
Vlive
p1283
atp1284
Rp1285
(dp1286
g11
VVBP
p1287
sbag0
(g1
g2
(lp1288
g0
(g1
g2
(lp1289
Vin
p1290
atp1291
Rp1292
(dp1293
g11
VIN
p1294
sbag0
(g1
g2
(lp1295
g0
(g1
g2
(lp1296
g0
(g1
g2
(lp1297
Va
p1298
atp1299
Rp1300
(dp1301
g11
VDT
p1302
sbag0
(g1
g2
(lp1303
Vtree
p1304
atp1305
Rp1306
(dp1307
g11
VNN
p1308
sbatp1309
Rp1310
(dp1311
g11
VNP
p1312
sbag0
(g1
g2
(lp1313
g0
(g1
g2
(lp1314
Vlined
p1315
atp1316
Rp1317
(dp1318
g11
VVBD
p1319
sbag0
(g1
g2
(lp1320
g0
(g1
g2
(lp1321
Vneighborhood
p1322
atp1323
Rp1324
(dp1325
g11
VNN
p1326
sbatp1327
Rp1328
(dp1329
g11
VNP
p1330
sbatp1331
Rp1332
(dp1333
g11
VVP
p1334
sbatp1335
Rp1336
(dp1337
g11
VS
p1338
sbatp1339
Rp1340
(dp1341
g11
VSBAR
p1342
sbatp1343
Rp1344
(dp1345
g11
VVP
p1346
sbatp1347
Rp1348
(dp1349
g11
VS
p1350
sbag0
(g1
g2
(lp1351
V,
p1352
atp1353
Rp1354
(dp1355
g11
V,
p1356
sbag0
(g1
g2
(lp1357
Vand
p1358
atp1359
Rp1360
(dp1361
g11
VCC
p1362
sbag0
(g1
g2
(lp1363
g0
(g1
g2
(lp1364
g0
(g1
g2
(lp1365
g0
(g1
g2
(lp1366
Vthe
p1367
atp1368
Rp1369
(dp1370
g11
VDT
p1371
sbag0
(g1
g2
(lp1372
Vhouses
p1373
atp1374
Rp1375
(dp1376
g11
VNNS
p1377
sbatp1378
Rp1379
(dp1380
g11
VNP
p1381
sbag0
(g1
g2
(lp1382
g0
(g1
g2
(lp1383
Vappear
p1384
atp1385
Rp1386
(dp1387
g11
VVBP
p1388
sbag0
(g1
g2
(lp1389
g0
(g1
g2
(lp1390
g0
(g1
g2
(lp1391
Vto
p1392
atp1393
Rp1394
(dp1395
g11
VTO
p1396
sbag0
(g1
g2
(lp1397
g0
(g1
g2
(lp1398
Vbe
p1399
atp1400
Rp1401
(dp1402
g11
VVB
p1403
sbatp1404
Rp1405
(dp1406
g11
VVP
p1407
sbatp1408
Rp1409
(dp1410
g11
VVP
p1411
sbatp1412
Rp1413
(dp1414
g11
VS
p1415
sbatp1416
Rp1417
(dp1418
g11
VVP
p1419
sbatp1420
Rp1421
(dp1422
g11
VS
p1423
sbag0
(g1
g2
(lp1424
V,
p1425
atp1426
Rp1427
(dp1428
g11
V,
p1429
sbag0
(g1
g2
(lp1430
Vor
p1431
atp1432
Rp1433
(dp1434
g11
VCC
p1435
sbag0
(g1
g2
(lp1436
g0
(g1
g2
(lp1437
g0
(g1
g2
(lp1438
Vthe
p1439
atp1440
Rp1441
(dp1442
g11
VDT
p1443
sbag0
(g1
g2
(lp1444
Vlawns
p1445
atp1446
Rp1447
(dp1448
g11
VNNS
p1449
sbatp1450
Rp1451
(dp1452
g11
VNP
p1453
sbag0
(g1
g2
(lp1454
g0
(g1
g2
(lp1455
g0
(g1
g2
(lp1456
Vappear
p1457
atp1458
Rp1459
(dp1460
g11
VVBP
p1461
sbag0
(g1
g2
(lp1462
g0
(g1
g2
(lp1463
g0
(g1
g2
(lp1464
Vto
p1465
atp1466
Rp1467
(dp1468
g11
VTO
p1469
sbag0
(g1
g2
(lp1470
g0
(g1
g2
(lp1471
Vbe
p1472
atp1473
Rp1474
(dp1475
g11
VVB
p1476
sbatp1477
Rp1478
(dp1479
g11
VVP
p1480
sbatp1481
Rp1482
(dp1483
g11
VVP
p1484
sbatp1485
Rp1486
(dp1487
g11
VS
p1488
sbatp1489
Rp1490
(dp1491
g11
VVP
p1492
sbag0
(g1
g2
(lp1493
V,
p1494
atp1495
Rp1496
(dp1497
g11
V,
p1498
sbag0
(g1
g2
(lp1499
g0
(g1
g2
(lp1500
Vneatly
p1501
atp1502
Rp1503
(dp1504
g11
VRB
p1505
sbatp1506
Rp1507
(dp1508
g11
VADVP
p1509
sbag0
(g1
g2
(lp1510
g0
(g1
g2
(lp1511
Vkept
p1512
atp1513
Rp1514
(dp1515
g11
VVBD
p1516
sbatp1517
Rp1518
(dp1519
g11
VVP
p1520
sbatp1521
Rp1522
(dp1523
g11
VVP
p1524
sbatp1525
Rp1526
(dp1527
g11
VS
p1528
sbatp1529
Rp1530
(dp1531
g11
VS
p1532
sbag0
(g1
g2
(lp1533
V.
p1534
atp1535
Rp1536
(dp1537
g11
V.
p1538
sbatp1539
Rp1540
(dp1541
g11
VS
p1542
sbatp1543
Rp1544
(dp1545
g11
S'id: 6'
p1546
sbag0
(g1
g2
(lp1547
g0
(g1
g2
(lp1548
g0
(g1
g2
(lp1549
g0
(g1
g2
(lp1550
VTrees
p1551
atp1552
Rp1553
(dp1554
g11
VNNP
p1555
sbatp1556
Rp1557
(dp1558
g11
VNP
p1559
sbag0
(g1
g2
(lp1560
g0
(g1
g2
(lp1561
Vappear
p1562
atp1563
Rp1564
(dp1565
g11
VVBP
p1566
sbag0
(g1
g2
(lp1567
g0
(g1
g2
(lp1568
g0
(g1
g2
(lp1569
Vto
p1570
atp1571
Rp1572
(dp1573
g11
VTO
p1574
sbag0
(g1
g2
(lp1575
g0
(g1
g2
(lp1576
Vbe
p1577
atp1578
Rp1579
(dp1580
g11
VVB
p1581
sbag0
(g1
g2
(lp1582
g0
(g1
g2
(lp1583
Vfully
p1584
atp1585
Rp1586
(dp1587
g11
VRB
p1588
sbag0
(g1
g2
(lp1589
Vmature
p1590
atp1591
Rp1592
(dp1593
g11
VJJ
p1594
sbatp1595
Rp1596
(dp1597
g11
VADJP
p1598
sbatp1599
Rp1600
(dp1601
g11
VVP
p1602
sbatp1603
Rp1604
(dp1605
g11
VVP
p1606
sbatp1607
Rp1608
(dp1609
g11
VS
p1610
sbatp1611
Rp1612
(dp1613
g11
VVP
p1614
sbag0
(g1
g2
(lp1615
V.
p1616
atp1617
Rp1618
(dp1619
g11
V.
p1620
sbatp1621
Rp1622
(dp1623
g11
VS
p1624
sbatp1625
Rp1626
(dp1627
g11
S'id: 7'
p1628
sbag0
(g1
g2
(lp1629
g0
(g1
g2
(lp1630
g0
(g1
g2
(lp1631
g0
(g1
g2
(lp1632
g0
(g1
g2
(lp1633
VThey
p1634
atp1635
Rp1636
(dp1637
g11
VPRP
p1638
sbatp1639
Rp1640
(dp1641
g11
VNP
p1642
sbag0
(g1
g2
(lp1643
g0
(g1
g2
(lp1644
Vdo
p1645
atp1646
Rp1647
(dp1648
g11
VVBP
p1649
sbag0
(g1
g2
(lp1650
Vn't
p1651
atp1652
Rp1653
(dp1654
g11
VRB
p1655
sbag0
(g1
g2
(lp1656
g0
(g1
g2
(lp1657
Vhave
p1658
atp1659
Rp1660
(dp1661
g11
VVB
p1662
sbag0
(g1
g2
(lp1663
g0
(g1
g2
(lp1664
g0
(g1
g2
(lp1665
Va
p1666
atp1667
Rp1668
(dp1669
g11
VDT
p1670
sbag0
(g1
g2
(lp1671
Vlot
p1672
atp1673
Rp1674
(dp1675
g11
VNN
p1676
sbatp1677
Rp1678
(dp1679
g11
VNP
p1680
sbag0
(g1
g2
(lp1681
g0
(g1
g2
(lp1682
Vof
p1683
atp1684
Rp1685
(dp1686
g11
VIN
p1687
sbag0
(g1
g2
(lp1688
g0
(g1
g2
(lp1689
g0
(g1
g2
(lp1690
Vappliances
p1691
atp1692
Rp1693
(dp1694
g11
VNNS
p1695
sbatp1696
Rp1697
(dp1698
g11
VNP
p1699
sbag0
(g1
g2
(lp1700
g0
(g1
g2
(lp1701
Vin
p1702
atp1703
Rp1704
(dp1705
g11
VIN
p1706
sbag0
(g1
g2
(lp1707
g0
(g1
g2
(lp1708
Vthe
p1709
atp1710
Rp1711
(dp1712
g11
VDT
p1713
sbag0
(g1
g2
(lp1714
Vkitchen
p1715
atp1716
Rp1717
(dp1718
g11
VNN
p1719
sbatp1720
Rp1721
(dp1722
g11
VNP
p1723
sbatp1724
Rp1725
(dp1726
g11
VPP
p1727
sbatp1728
Rp1729
(dp1730
g11
VNP
p1731
sbatp1732
Rp1733
(dp1734
g11
VPP
p1735
sbatp1736
Rp1737
(dp1738
g11
VNP
p1739
sbatp1740
Rp1741
(dp1742
g11
VVP
p1743
sbatp1744
Rp1745
(dp1746
g11
VVP
p1747
sbatp1748
Rp1749
(dp1750
g11
VS
p1751
sbag0
(g1
g2
(lp1752
V,
p1753
atp1754
Rp1755
(dp1756
g11
V,
p1757
sbag0
(g1
g2
(lp1758
Vand
p1759
atp1760
Rp1761
(dp1762
g11
VCC
p1763
sbag0
(g1
g2
(lp1764
V,
p1765
atp1766
Rp1767
(dp1768
g11
V,
p1769
sbag0
(g1
g2
(lp1770
g0
(g1
g2
(lp1771
g0
(g1
g2
(lp1772
Vnor
p1773
atp1774
Rp1775
(dp1776
g11
VCC
p1777
sbatp1778
Rp1779
(dp1780
g11
VNP
p1781
sbag0
(g1
g2
(lp1782
g0
(g1
g2
(lp1783
Vdo
p1784
atp1785
Rp1786
(dp1787
g11
VVBP
p1788
sbag0
(g1
g2
(lp1789
g0
(g1
g2
(lp1790
g0
(g1
g2
(lp1791
g0
(g1
g2
(lp1792
Vthey
p1793
atp1794
Rp1795
(dp1796
g11
VPRP
p1797
sbatp1798
Rp1799
(dp1800
g11
VNP
p1801
sbag0
(g1
g2
(lp1802
g0
(g1
g2
(lp1803
Vhave
p1804
atp1805
Rp1806
(dp1807
g11
VVBP
p1808
sbag0
(g1
g2
(lp1809
g0
(g1
g2
(lp1810
Va
p1811
atp1812
Rp1813
(dp1814
g11
VDT
p1815
sbag0
(g1
g2
(lp1816
Vstove
p1817
atp1818
Rp1819
(dp1820
g11
VNN
p1821
sbatp1822
Rp1823
(dp1824
g11
VNP
p1825
sbatp1826
Rp1827
(dp1828
g11
VVP
p1829
sbatp1830
Rp1831
(dp1832
g11
VS
p1833
sbatp1834
Rp1835
(dp1836
g11
VSBAR
p1837
sbatp1838
Rp1839
(dp1840
g11
VVP
p1841
sbatp1842
Rp1843
(dp1844
g11
VS
p1845
sbag0
(g1
g2
(lp1846
V.
p1847
atp1848
Rp1849
(dp1850
g11
V.
p1851
sbatp1852
Rp1853
(dp1854
g11
VS
p1855
sbatp1856
Rp1857
(dp1858
g11
S'id: 8'
p1859
sbatp1860
Rp1861
(dp1862
g11
S'sentences'
p1863
sb.