ccopy_reg
_reconstructor
p0
(cnltk.tree
Tree
p1
c__builtin__
list
p2
(lp3
g0
(g1
g2
(lp4
g0
(g1
g2
(lp5
g0
(g1
g2
(lp6
(lp7
S'word: I, index: 1'
p8
aatp9
Rp10
(dp11
S'_label'
p12
Vnsubj
p13
sbag0
(g1
g2
(lp14
(lp15
S"word: 've, index: 2"
p16
aatp17
Rp18
(dp19
g12
Vaux
p20
sbag0
(g1
g2
(lp21
(lp22
S'word: never, index: 3'
p23
aatp24
Rp25
(dp26
g12
Vneg
p27
sbag0
(g1
g2
(lp28
g0
(g1
g2
(lp29
g0
(g1
g2
(lp30
(lp31
S'word: that, index: 5'
p32
aatp33
Rp34
(dp35
g12
Vmark
p36
sbatp37
Rp38
(dp39
g12
S'word: picture, index: 6'
p40
sbatp41
Rp42
(dp43
g12
Vdep
p44
sbag0
(g1
g2
(lp45
g0
(g1
g2
(lp46
g0
(g1
g2
(lp47
(lp48
S'word: they, index: 9'
p49
aatp50
Rp51
(dp52
g12
Vnsubj
p53
sbag0
(g1
g2
(lp54
g0
(g1
g2
(lp55
g0
(g1
g2
(lp56
g0
(g1
g2
(lp57
g0
(g1
g2
(lp58
g0
(g1
g2
(lp59
g0
(g1
g2
(lp60
(lp61
S'word: a, index: 19'
p62
aatp63
Rp64
(dp65
g12
Vdet
p66
sbatp67
Rp68
(dp69
g12
S'word: resort, index: 20'
p70
sbatp71
Rp72
(dp73
g12
Vconj
p74
sbag0
(g1
g2
(lp75
(lp76
S'word: a, index: 15'
p77
aatp78
Rp79
(dp80
g12
Vdet
p81
sbatp82
Rp83
(dp84
g12
S'word: lake, index: 16'
p85
sbatp86
Rp87
(dp88
g12
Vprep
p89
sbag0
(g1
g2
(lp90
g68
atp91
Rp92
(dp93
g12
Vprep
p94
sbag0
(g1
g2
(lp95
(lp96
S'word: like, index: 11'
p97
aatp98
Rp99
(dp100
g12
Vmark
p101
sbag0
(g1
g2
(lp102
(lp103
S'word: they, index: 12'
p104
aatp105
Rp106
(dp107
g12
Vnsubj
p108
sbatp109
Rp110
(dp111
g12
S'word: are, index: 13'
p112
sbatp113
Rp114
(dp115
g12
Vadvcl
p116
sbatp117
Rp118
(dp119
g12
S'word: look, index: 10'
p120
sbatp121
Rp122
(dp123
g12
Vconj
p124
sbatp125
Rp126
(dp127
g12
S'word: seen, index: 4'
p128
sbatp129
Rp130
(dp131
g12
S'id: 0'
p132
sbag0
(g1
g2
(lp133
g0
(g1
g2
(lp134
g0
(g1
g2
(lp135
g0
(g1
g2
(lp136
g0
(g1
g2
(lp137
g0
(g1
g2
(lp138
g0
(g1
g2
(lp139
(lp140
S'word: a, index: 4'
p141
aatp142
Rp143
(dp144
g12
Vdet
p145
sbatp146
Rp147
(dp148
g12
S'word: picnic, index: 5'
p149
sbatp150
Rp151
(dp152
g12
Vdobj
p153
sbatp154
Rp155
(dp156
g12
S'word: having, index: 3'
p157
sbatp158
Rp159
(dp160
g12
Vpcomp
p161
sbag0
(g1
g2
(lp162
g0
(g1
g2
(lp163
g0
(g1
g2
(lp164
g0
(g1
g2
(lp165
g0
(g1
g2
(lp166
(lp167
S'word: like, index: 9'
p168
aatp169
Rp170
(dp171
g12
Vmark
p172
sbag0
(g1
g2
(lp173
(lp174
S'word: there, index: 10'
p175
aatp176
Rp177
(dp178
g12
Vexpl
p179
sbag0
(g1
g2
(lp180
g0
(g1
g2
(lp181
g0
(g1
g2
(lp182
(lp183
S'word: a, index: 12'
p184
aatp185
Rp186
(dp187
g12
Vdet
p188
sbag0
(g1
g2
(lp189
g0
(g1
g2
(lp190
g0
(g1
g2
(lp191
g0
(g1
g2
(lp192
g0
(g1
g2
(lp193
g0
(g1
g2
(lp194
g0
(g1
g2
(lp195
(lp196
S'word: that, index: 19'
p197
aatp198
Rp199
(dp200
g12
Vdet
p201
sbatp202
Rp203
(dp204
g12
S'word: glass, index: 20'
p205
sbatp206
Rp207
(dp208
g12
Vprep
p209
sbag0
(g1
g2
(lp210
(lp211
S'word: she, index: 16'
p212
aatp213
Rp214
(dp215
g12
Vnsubj
p216
sbatp217
Rp218
(dp219
g12
S'word: pouring, index: 17'
p220
sbatp221
Rp222
(dp223
g12
Vdep
p224
sbatp225
Rp226
(dp227
g12
S'word: wine, index: 15'
p228
sbatp229
Rp230
(dp231
g12
Vprep
p232
sbatp233
Rp234
(dp235
g12
S'word: bottle, index: 13'
p236
sbatp237
Rp238
(dp239
g12
Vnsubj
p240
sbatp241
Rp242
(dp243
g12
S"word: 's, index: 11"
p244
sbatp245
Rp246
(dp247
g12
Vadvcl
p248
sbatp249
Rp250
(dp251
g12
S'word: look, index: 8'
p252
sbatp253
Rp254
(dp255
g12
Vconj
p256
sbag0
(g1
g2
(lp257
(lp258
S'word: Now, index: 1'
p259
aatp260
Rp261
(dp262
g12
Vadvmod
p263
sbatp264
Rp265
(dp266
g12
S'word: outside, index: 2'
p267
sbatp268
Rp269
(dp270
g12
S'id: 1'
p271
sbag0
(g1
g2
(lp272
g0
(g1
g2
(lp273
g0
(g1
g2
(lp274
g0
(g1
g2
(lp275
g0
(g1
g2
(lp276
(lp277
S'word: a, index: 5'
p278
aatp279
Rp280
(dp281
g12
Vdet
p282
sbatp283
Rp284
(dp285
g12
S'word: story, index: 6'
p286
sbatp287
Rp288
(dp289
g12
Vdobj
p290
sbag0
(g1
g2
(lp291
(lp292
S'word: And, index: 1'
p293
aatp294
Rp295
(dp296
g12
Vcc
p297
sbag0
(g1
g2
(lp298
(lp299
S'word: daddy, index: 2'
p300
aatp301
Rp302
(dp303
g12
Vnsubj
p304
sbag0
(g1
g2
(lp305
(lp306
S'word: is, index: 3'
p307
aatp308
Rp309
(dp310
g12
Vaux
p311
sbatp312
Rp313
(dp314
g12
S'word: reading, index: 4'
p315
sbatp316
Rp317
(dp318
g12
S'id: 2'
p319
sbag0
(g1
g2
(lp320
g0
(g1
g2
(lp321
g0
(g1
g2
(lp322
(lp323
S'word: And, index: 1'
p324
aatp325
Rp326
(dp327
g12
Vcc
p328
sbag0
(g1
g2
(lp329
(lp330
S'word: they, index: 2'
p331
aatp332
Rp333
(dp334
g12
Vnsubj
p335
sbag0
(g1
g2
(lp336
(lp337
S'word: music, index: 4'
p338
aatp339
Rp340
(dp341
g12
Vdobj
p342
sbag0
(g1
g2
(lp343
g0
(g1
g2
(lp344
g0
(g1
g2
(lp345
(lp346
S'word: there, index: 6'
p347
aatp348
Rp349
(dp350
g12
Vpobj
p351
sbatp352
Rp353
(dp354
g12
S'word: out, index: 5'
p355
sbatp356
Rp357
(dp358
g12
Vprep
p359
sbatp360
Rp361
(dp362
g12
S'word: have, index: 3'
p363
sbatp364
Rp365
(dp366
g12
S'id: 3'
p367
sbag0
(g1
g2
(lp368
g0
(g1
g2
(lp369
g0
(g1
g2
(lp370
g0
(g1
g2
(lp371
g0
(g1
g2
(lp372
g0
(g1
g2
(lp373
g0
(g1
g2
(lp374
g0
(g1
g2
(lp375
g0
(g1
g2
(lp376
(lp377
S'word: little, index: 14'
p378
aatp379
Rp380
(dp381
g12
Vamod
p382
sbag0
(g1
g2
(lp383
(lp384
S"word: 's, index: 16"
p385
aatp386
Rp387
(dp388
g12
Vpossessive
p389
sbatp390
Rp391
(dp392
g12
S'word: sister, index: 15'
p393
sbatp394
Rp395
(dp396
g12
Vappos
p397
sbag0
(g1
g2
(lp398
(lp399
S'word: the, index: 10'
p400
aatp401
Rp402
(dp403
g12
Vdet
p404
sbag0
(g1
g2
(lp405
(lp406
S'word: little, index: 11'
p407
aatp408
Rp409
(dp410
g12
Vamod
p411
sbatp412
Rp413
(dp414
g12
S'word: girl, index: 12'
p415
sbatp416
Rp417
(dp418
g12
Vnsubj
p419
sbag0
(g1
g2
(lp420
g0
(g1
g2
(lp421
g0
(g1
g2
(lp422
g0
(g1
g2
(lp423
g0
(g1
g2
(lp424
(lp425
S'word: a, index: 18'
p426
aatp427
Rp428
(dp429
g12
Vdet
p430
sbag0
(g1
g2
(lp431
(lp432
S'word: good, index: 19'
p433
aatp434
Rp435
(dp436
g12
Vamod
p437
sbatp438
Rp439
(dp440
g12
S'word: time, index: 20'
p441
sbatp442
Rp443
(dp444
g12
Vnsubj
p445
sbag0
(g1
g2
(lp446
g0
(g1
g2
(lp447
g0
(g1
g2
(lp448
(lp449
S'word: her, index: 23'
p450
aatp451
Rp452
(dp453
g12
Vnsubj
p454
sbag0
(g1
g2
(lp455
(lp456
S'word: a, index: 24'
p457
aatp458
Rp459
(dp460
g12
Vdet
p461
sbatp462
Rp463
(dp464
g12
S'word: sandcastle, index: 25'
p465
sbatp466
Rp467
(dp468
g12
Vxcomp
p469
sbatp470
Rp471
(dp472
g12
S'word: makin, index: 22'
p473
sbatp474
Rp475
(dp476
g12
Vccomp
p477
sbatp478
Rp479
(dp480
g12
S'word: having, index: 17'
p481
sbatp482
Rp483
(dp484
g12
Vconj
p485
sbag0
(g1
g2
(lp486
g0
(g1
g2
(lp487
g0
(g1
g2
(lp488
(lp489
S'word: The, index: 1'
p490
aatp491
Rp492
(dp493
g12
Vdet
p494
sbatp495
Rp496
(dp497
g12
S'word: dog, index: 2'
p498
sbatp499
Rp500
(dp501
g12
Vnsubj
p502
sbag0
(g1
g2
(lp503
(lp504
S'word: is, index: 3'
p505
aatp506
Rp507
(dp508
g12
Vaux
p509
sbag0
(g1
g2
(lp510
g0
(g1
g2
(lp511
g0
(g1
g2
(lp512
(lp513
S'word: a, index: 5'
p514
aatp515
Rp516
(dp517
g12
Vdet
p518
sbag0
(g1
g2
(lp519
(lp520
S'word: good, index: 6'
p521
aatp522
Rp523
(dp524
g12
Vamod
p525
sbatp526
Rp527
(dp528
g12
S'word: time, index: 7'
p529
sbatp530
Rp531
(dp532
g12
Vdobj
p533
sbatp534
Rp535
(dp536
g12
S'word: having, index: 4'
p537
sbatp538
Rp539
(dp540
g12
S'id: 4'
p541
sbag0
(g1
g2
(lp542
g0
(g1
g2
(lp543
g0
(g1
g2
(lp544
(lp545
S'word: And, index: 1'
p546
aatp547
Rp548
(dp549
g12
Vcc
p550
sbag0
(g1
g2
(lp551
(lp552
S'word: I, index: 2'
p553
aatp554
Rp555
(dp556
g12
Vnsubj
p557
sbag0
(g1
g2
(lp558
g0
(g1
g2
(lp559
g0
(g1
g2
(lp560
(lp561
S'word: that, index: 4'
p562
aatp563
Rp564
(dp565
g12
Vmark
p566
sbag0
(g1
g2
(lp567
g0
(g1
g2
(lp568
g0
(g1
g2
(lp569
(lp570
S'word: the, index: 5'
p571
aatp572
Rp573
(dp574
g12
Vdet
p575
sbatp576
Rp577
(dp578
g12
S'word: brother, index: 6'
p579
sbatp580
Rp581
(dp582
g12
Vnsubj
p583
sbag0
(g1
g2
(lp584
g0
(g1
g2
(lp585
g0
(g1
g2
(lp586
(lp587
S'word: there, index: 9'
p588
aatp589
Rp590
(dp591
g12
Vexpl
p592
sbag0
(g1
g2
(lp593
(lp594
S'word: fish, index: 11'
p595
aatp596
Rp597
(dp598
g12
Vdobj
p599
sbag0
(g1
g2
(lp600
g0
(g1
g2
(lp601
g0
(g1
g2
(lp602
g0
(g1
g2
(lp603
g0
(g1
g2
(lp604
(lp605
S'word: their, index: 15'
p606
aatp607
Rp608
(dp609
g12
Vposs
p610
sbatp611
Rp612
(dp613
g12
S'word: supper, index: 16'
p614
sbatp615
Rp616
(dp617
g12
Vprep
p618
sbag0
(g1
g2
(lp619
(lp620
S'word: to, index: 12'
p621
aatp622
Rp623
(dp624
g12
Vaux
p625
sbatp626
Rp627
(dp628
g12
S'word: have, index: 13'
p629
sbatp630
Rp631
(dp632
g12
Vvmod
p633
sbatp634
Rp635
(dp636
g12
S'word: catching, index: 10'
p637
sbatp638
Rp639
(dp640
g12
Vprepc
p641
sbatp642
Rp643
(dp644
g12
S'word: is, index: 7'
p645
sbatp646
Rp647
(dp648
g12
Vccomp
p649
sbatp650
Rp651
(dp652
g12
S'word: see, index: 3'
p653
sbatp654
Rp655
(dp656
g12
S'id: 5'
p657
sbag0
(g1
g2
(lp658
g0
(g1
g2
(lp659
g0
(g1
g2
(lp660
g0
(g1
g2
(lp661
g0
(g1
g2
(lp662
(lp663
S'word: little, index: 2'
p664
aatp665
Rp666
(dp667
g12
Vamod
p668
sbatp669
Rp670
(dp671
g12
S'word: brother, index: 3'
p672
sbatp673
Rp674
(dp675
g12
Vnsubj
p676
sbag0
(g1
g2
(lp677
(lp678
S'word: is, index: 4'
p679
aatp680
Rp681
(dp682
g12
Vaux
p683
sbag0
(g1
g2
(lp684
g0
(g1
g2
(lp685
g0
(g1
g2
(lp686
(lp687
S'word: his, index: 6'
p688
aatp689
Rp690
(dp691
g12
Vposs
p692
sbatp693
Rp694
(dp695
g12
S'word: kite, index: 7'
p696
sbatp697
Rp698
(dp699
g12
Vdobj
p700
sbag0
(g1
g2
(lp701
g0
(g1
g2
(lp702
g0
(g1
g2
(lp703
g0
(g1
g2
(lp704
g0
(g1
g2
(lp705
(lp706
S'word: the, index: 10'
p707
aatp708
Rp709
(dp710
g12
Vdet
p711
sbatp712
Rp713
(dp714
g12
S'word: sailboat, index: 11'
p715
sbatp716
Rp717
(dp718
g12
Vnsubj
p719
sbag0
(g1
g2
(lp720
(lp721
S'word: is, index: 12'
p722
aatp723
Rp724
(dp725
g12
Vcop
p726
sbatp727
Rp728
(dp729
g12
S'word: sailing, index: 13'
p730
sbatp731
Rp732
(dp733
g12
Vconj
p734
sbag0
(g1
g2
(lp735
(lp736
S'word: Than, index: 1'
p737
aatp738
Rp739
(dp740
g12
Vmark
p741
sbatp742
Rp743
(dp744
g12
S'word: flying, index: 5'
p745
sbatp746
Rp747
(dp748
g12
S'id: 6'
p749
sbag0
(g1
g2
(lp750
g0
(g1
g2
(lp751
g0
(g1
g2
(lp752
(lp753
S'word: beautiful, index: 5'
p754
aatp755
Rp756
(dp757
g12
Vamod
p758
sbag0
(g1
g2
(lp759
(lp760
S'word: And, index: 1'
p761
aatp762
Rp763
(dp764
g12
Vcc
p765
sbag0
(g1
g2
(lp766
(lp767
S'word: it, index: 2'
p768
aatp769
Rp770
(dp771
g12
Vnsubj
p772
sbag0
(g1
g2
(lp773
(lp774
S"word: 's, index: 3"
p775
aatp776
Rp777
(dp778
g12
Vcop
p779
sbag0
(g1
g2
(lp780
(lp781
S'word: a, index: 4'
p782
aatp783
Rp784
(dp785
g12
Vdet
p786
sbatp787
Rp788
(dp789
g12
S'word: day, index: 6'
p790
sbatp791
Rp792
(dp793
g12
S'id: 7'
p794
sbag0
(g1
g2
(lp795
g0
(g1
g2
(lp796
g0
(g1
g2
(lp797
(lp798
S'word: is, index: 13'
p799
aatp800
Rp801
(dp802
g12
Vcop
p803
sbag0
(g1
g2
(lp804
(lp805
S'word: the, index: 14'
p806
aatp807
Rp808
(dp809
g12
Vdet
p810
sbag0
(g1
g2
(lp811
g0
(g1
g2
(lp812
g0
(g1
g2
(lp813
(lp814
S'word: they, index: 16'
p815
aatp816
Rp817
(dp818
g12
Vnsubj
p819
sbag0
(g1
g2
(lp820
(lp821
S'word: the, index: 19'
p822
aatp823
Rp824
(dp825
g12
Vprep
p826
sbatp827
Rp828
(dp829
g12
S'word: drove, index: 17'
p830
sbatp831
Rp832
(dp833
g12
Vrcmod
p834
sbag0
(g1
g2
(lp835
g0
(g1
g2
(lp836
g0
(g1
g2
(lp837
(lp838
S'word: that, index: 32'
p839
aatp840
Rp841
(dp842
g12
Vnsubj
p843
sbag0
(g1
g2
(lp844
g0
(g1
g2
(lp845
g0
(g1
g2
(lp846
g0
(g1
g2
(lp847
g0
(g1
g2
(lp848
(lp849
S'word: the, index: 41'
p850
aatp851
Rp852
(dp853
g12
Vdet
p854
sbatp855
Rp856
(dp857
g12
S'word: lake, index: 42'
p858
sbatp859
Rp860
(dp861
g12
Vprep
p862
sbag0
(g1
g2
(lp863
(lp864
S'word: like, index: 34'
p865
aatp866
Rp867
(dp868
g12
Vmark
p869
sbag0
(g1
g2
(lp870
(lp871
S'word: it, index: 35'
p872
aatp873
Rp874
(dp875
g12
Vnsubj
p876
sbag0
(g1
g2
(lp877
(lp878
S"word: 's, index: 36"
p879
aatp880
Rp881
(dp882
g12
Vcop
p883
sbag0
(g1
g2
(lp884
(lp885
S'word: just, index: 37'
p886
aatp887
Rp888
(dp889
g12
Vadvmod
p890
sbag0
(g1
g2
(lp891
(lp892
S'word: a, index: 38'
p893
aatp894
Rp895
(dp896
g12
Vdet
p897
sbatp898
Rp899
(dp900
g12
S'word: house, index: 39'
p901
sbatp902
Rp903
(dp904
g12
Vadvcl
p905
sbatp906
Rp907
(dp908
g12
S'word: looks, index: 33'
p909
sbatp910
Rp911
(dp912
g12
Vconj
p913
sbag0
(g1
g2
(lp914
g0
(g1
g2
(lp915
g0
(g1
g2
(lp916
(lp917
S'word: the, index: 2'
p918
aatp919
Rp920
(dp921
g12
Vdet
p922
sbag0
(g1
g2
(lp923
g0
(g1
g2
(lp924
g0
(g1
g2
(lp925
g0
(g1
g2
(lp926
g0
(g1
g2
(lp927
g0
(g1
g2
(lp928
g0
(g1
g2
(lp929
(lp930
S'word: the, index: 10'
p931
aatp932
Rp933
(dp934
g12
Vdet
p935
sbatp936
Rp937
(dp938
g12
S'word: house, index: 11'
p939
sbatp940
Rp941
(dp942
g12
Vprep
p943
sbag0
(g1
g2
(lp944
(lp945
S'word: that, index: 7'
p946
aatp947
Rp948
(dp949
g12
Vnsubj
p950
sbatp951
Rp952
(dp953
g12
S"word: 's, index: 8"
p954
sbatp955
Rp956
(dp957
g12
Vrcmod
p958
sbag0
(g1
g2
(lp959
(lp960
S'word: the, index: 5'
p961
aatp962
Rp963
(dp964
g12
Vdet
p965
sbatp966
Rp967
(dp968
g12
S'word: car, index: 6'
p969
sbatp970
Rp971
(dp972
g12
Vappos
p973
sbatp974
Rp975
(dp976
g12
S'word: house, index: 3'
p977
sbatp978
Rp979
(dp980
g12
Vnsubj
p981
sbag0
(g1
g2
(lp982
g0
(g1
g2
(lp983
g0
(g1
g2
(lp984
g0
(g1
g2
(lp985
g0
(g1
g2
(lp986
g0
(g1
g2
(lp987
g0
(g1
g2
(lp988
g0
(g1
g2
(lp989
g0
(g1
g2
(lp990
(lp991
S'word: the, index: 27'
p992
aatp993
Rp994
(dp995
g12
Vdet
p996
sbag0
(g1
g2
(lp997
(lp998
S'word: first, index: 28'
p999
aatp1000
Rp1001
(dp1002
g12
Vamod
p1003
sbatp1004
Rp1005
(dp1006
g12
S'word: time, index: 29'
p1007
sbatp1008
Rp1009
(dp1010
g12
Vdep
p1011
sbatp1012
Rp1013
(dp1014
g12
S'word: resort, index: 26'
p1015
sbatp1016
Rp1017
(dp1018
g12
Vappos
p1019
sbag0
(g1
g2
(lp1020
(lp1021
S'word: the, index: 23'
p1022
aatp1023
Rp1024
(dp1025
g12
Vdet
p1026
sbatp1027
Rp1028
(dp1029
g12
S'word: resort, index: 24'
p1030
sbatp1031
Rp1032
(dp1033
g12
Vdobj
p1034
sbag0
(g1
g2
(lp1035
(lp1036
S'word: I, index: 21'
p1037
aatp1038
Rp1039
(dp1040
g12
Vnsubj
p1041
sbatp1042
Rp1043
(dp1044
g12
S'word: said, index: 22'
p1045
sbatp1046
Rp1047
(dp1048
g12
Vdep
p1049
sbatp1050
Rp1051
(dp1052
g12
S'word: car, index: 15'
p1053
sbatp1054
Rp1055
(dp1056
g12
S'id: 8'
p1057
sbag0
(g1
g2
(lp1058
g0
(g1
g2
(lp1059
g0
(g1
g2
(lp1060
(lp1061
S'word: And, index: 1'
p1062
aatp1063
Rp1064
(dp1065
g12
Vcc
p1066
sbag0
(g1
g2
(lp1067
(lp1068
S'word: dog, index: 2'
p1069
aatp1070
Rp1071
(dp1072
g12
Vnsubj
p1073
sbag0
(g1
g2
(lp1074
g0
(g1
g2
(lp1075
g0
(g1
g2
(lp1076
g0
(g1
g2
(lp1077
g0
(g1
g2
(lp1078
(lp1079
S'word: his, index: 11'
p1080
aatp1081
Rp1082
(dp1083
g12
Vposs
p1084
sbatp1085
Rp1086
(dp1087
g12
S'word: mouth, index: 12'
p1088
sbatp1089
Rp1090
(dp1091
g12
Vprep
p1092
sbag0
(g1
g2
(lp1093
g0
(g1
g2
(lp1094
g0
(g1
g2
(lp1095
(lp1096
S'word: some, index: 4'
p1097
aatp1098
Rp1099
(dp1100
g12
Vdet
p1101
sbatp1102
Rp1103
(dp1104
g12
S'word: water, index: 5'
p1105
sbatp1106
Rp1107
(dp1108
g12
Vnsubj
p1109
sbag0
(g1
g2
(lp1110
g0
(g1
g2
(lp1111
g0
(g1
g2
(lp1112
(lp1113
S'word: his, index: 7'
p1114
aatp1115
Rp1116
(dp1117
g12
Vposs
p1118
sbag0
(g1
g2
(lp1119
(lp1120
S'word: tongue, index: 8'
p1121
aatp1122
Rp1123
(dp1124
g12
Vnn
p1125
sbatp1126
Rp1127
(dp1128
g12
S'word: hangin, index: 9'
p1129
sbatp1130
Rp1131
(dp1132
g12
Vdobj
p1133
sbatp1134
Rp1135
(dp1136
g12
S'word: cause, index: 6'
p1137
sbatp1138
Rp1139
(dp1140
g12
Vccomp
p1141
sbatp1142
Rp1143
(dp1144
g12
S'word: needs, index: 3'
p1145
sbatp1146
Rp1147
(dp1148
g12
S'id: 9'
p1149
sbag0
(g1
g2
(lp1150
g0
(g1
g2
(lp1151
g0
(g1
g2
(lp1152
(lp1153
S'word: And, index: 1'
p1154
aatp1155
Rp1156
(dp1157
g12
Vcc
p1158
sbag0
(g1
g2
(lp1159
(lp1160
S'word: they, index: 2'
p1161
aatp1162
Rp1163
(dp1164
g12
Vnsubj
p1165
sbag0
(g1
g2
(lp1166
g0
(g1
g2
(lp1167
g0
(g1
g2
(lp1168
(lp1169
S'word: a, index: 4'
p1170
aatp1171
Rp1172
(dp1173
g12
Vdet
p1174
sbag0
(g1
g2
(lp1175
(lp1176
S'word: little, index: 5'
p1177
aatp1178
Rp1179
(dp1180
g12
Vamod
p1181
sbag0
(g1
g2
(lp1182
(lp1183
S'word: there, index: 8'
p1184
aatp1185
Rp1186
(dp1187
g12
Vprep
p1188
sbatp1189
Rp1190
(dp1191
g12
S'word: music, index: 6'
p1192
sbatp1193
Rp1194
(dp1195
g12
Vdobj
p1196
sbag0
(g1
g2
(lp1197
(lp1198
S'word: mother, index: 10'
p1199
aatp1200
Rp1201
(dp1202
g12
Vprep
p1203
sbatp1204
Rp1205
(dp1206
g12
S'word: have, index: 3'
p1207
sbatp1208
Rp1209
(dp1210
g12
S'id: 10'
p1211
sbag0
(g1
g2
(lp1212
g0
(g1
g2
(lp1213
g0
(g1
g2
(lp1214
(lp1215
S'word: And, index: 1'
p1216
aatp1217
Rp1218
(dp1219
g12
Vcc
p1220
sbag0
(g1
g2
(lp1221
g0
(g1
g2
(lp1222
g0
(g1
g2
(lp1223
(lp1224
S'word: the, index: 16'
p1225
aatp1226
Rp1227
(dp1228
g12
Vdet
p1229
sbatp1230
Rp1231
(dp1232
g12
S'word: fisherman, index: 17'
p1233
sbatp1234
Rp1235
(dp1236
g12
Vpobj
p1237
sbag0
(g1
g2
(lp1238
(lp1239
S'word: it, index: 2'
p1240
aatp1241
Rp1242
(dp1243
g12
Vnsubj
p1244
sbag0
(g1
g2
(lp1245
(lp1246
S"word: 's, index: 3"
p1247
aatp1248
Rp1249
(dp1250
g12
Vcop
p1251
sbag0
(g1
g2
(lp1252
g0
(g1
g2
(lp1253
g0
(g1
g2
(lp1254
(lp1255
S'word: a, index: 4'
p1256
aatp1257
Rp1258
(dp1259
g12
Vdet
p1260
sbatp1261
Rp1262
(dp1263
g12
S'word: little, index: 5'
p1264
sbatp1265
Rp1266
(dp1267
g12
Vnpadvmod
p1268
sbag0
(g1
g2
(lp1269
g0
(g1
g2
(lp1270
g0
(g1
g2
(lp1271
(lp1272
S'word: too, index: 7'
p1273
aatp1274
Rp1275
(dp1276
g12
Vadvmod
p1277
sbag0
(g1
g2
(lp1278
g0
(g1
g2
(lp1279
g0
(g1
g2
(lp1280
(lp1281
S'word: everybody, index: 9'
p1282
aatp1283
Rp1284
(dp1285
g12
Vnsubj
p1286
sbag0
(g1
g2
(lp1287
(lp1288
S'word: have, index: 10'
p1289
aatp1290
Rp1291
(dp1292
g12
Vaux
p1293
sbag0
(g1
g2
(lp1294
(lp1295
S'word: shorts, index: 12'
p1296
aatp1297
Rp1298
(dp1299
g12
Vpobj
p1300
sbatp1301
Rp1302
(dp1303
g12
S'word: on, index: 11'
p1304
sbatp1305
Rp1306
(dp1307
g12
Vccomp
p1308
sbatp1309
Rp1310
(dp1311
g12
S'word: cause, index: 8'
p1312
sbatp1313
Rp1314
(dp1315
g12
Vccomp
p1316
sbag0
(g1
g2
(lp1317
(lp1318
S'word: for, index: 15'
p1319
aatp1320
Rp1321
(dp1322
g12
Vprepc
p1323
sbatp1324
Rp1325
(dp1326
g12
S'word: warm, index: 6'
p1327
sbatp1328
Rp1329
(dp1330
g12
S'id: 11'
p1331
sbag0
(g1
g2
(lp1332
g0
(g1
g2
(lp1333
g0
(g1
g2
(lp1334
g0
(g1
g2
(lp1335
g0
(g1
g2
(lp1336
(lp1337
S'word: States, index: 4'
p1338
aatp1339
Rp1340
(dp1341
g12
Vnn
p1342
sbag0
(g1
g2
(lp1343
(lp1344
S'word: the, index: 2'
p1345
aatp1346
Rp1347
(dp1348
g12
Vdet
p1349
sbag0
(g1
g2
(lp1350
(lp1351
S'word: United, index: 3'
p1352
aatp1353
Rp1354
(dp1355
g12
Vnn
p1356
sbatp1357
Rp1358
(dp1359
g12
S'word: flag, index: 5'
p1360
sbatp1361
Rp1362
(dp1363
g12
Vnsubj
p1364
sbag0
(g1
g2
(lp1365
(lp1366
S'word: is, index: 6'
p1367
aatp1368
Rp1369
(dp1370
g12
Vaux
p1371
sbag0
(g1
g2
(lp1372
g0
(g1
g2
(lp1373
g0
(g1
g2
(lp1374
(lp1375
S'word: the, index: 10'
p1376
aatp1377
Rp1378
(dp1379
g12
Vdet
p1380
sbatp1381
Rp1382
(dp1383
g12
S'word: house, index: 11'
p1384
sbatp1385
Rp1386
(dp1387
g12
Vprep
p1388
sbag0
(g1
g2
(lp1389
(lp1390
S'word: And, index: 1'
p1391
aatp1392
Rp1393
(dp1394
g12
Vcc
p1395
sbatp1396
Rp1397
(dp1398
g12
S'word: flying, index: 7'
p1399
sbatp1400
Rp1401
(dp1402
g12
S'id: 12'
p1403
sbag0
(g1
g2
(lp1404
g0
(g1
g2
(lp1405
g0
(g1
g2
(lp1406
(lp1407
S'word: And, index: 1'
p1408
aatp1409
Rp1410
(dp1411
g12
Vcc
p1412
sbag0
(g1
g2
(lp1413
g0
(g1
g2
(lp1414
g0
(g1
g2
(lp1415
(lp1416
S'word: the, index: 2'
p1417
aatp1418
Rp1419
(dp1420
g12
Vdet
p1421
sbatp1422
Rp1423
(dp1424
g12
S'word: trees, index: 3'
p1425
sbatp1426
Rp1427
(dp1428
g12
Vnsubj
p1429
sbag0
(g1
g2
(lp1430
(lp1431
S'word: are, index: 4'
p1432
aatp1433
Rp1434
(dp1435
g12
Vcop
p1436
sbatp1437
Rp1438
(dp1439
g12
S'word: green, index: 5'
p1440
sbatp1441
Rp1442
(dp1443
g12
S'id: 13'
p1444
sbag0
(g1
g2
(lp1445
g0
(g1
g2
(lp1446
g0
(g1
g2
(lp1447
(lp1448
S'word: And, index: 1'
p1449
aatp1450
Rp1451
(dp1452
g12
Vcc
p1453
sbag0
(g1
g2
(lp1454
(lp1455
S'word: there, index: 2'
p1456
aatp1457
Rp1458
(dp1459
g12
Vexpl
p1460
sbag0
(g1
g2
(lp1461
g0
(g1
g2
(lp1462
g0
(g1
g2
(lp1463
(lp1464
S'word: a, index: 4'
p1465
aatp1466
Rp1467
(dp1468
g12
Vdet
p1469
sbag0
(g1
g2
(lp1470
(lp1471
S'word: Christmas, index: 5'
p1472
aatp1473
Rp1474
(dp1475
g12
Vnn
p1476
sbag0
(g1
g2
(lp1477
g0
(g1
g2
(lp1478
g0
(g1
g2
(lp1479
(lp1480
S'word: the, index: 8'
p1481
aatp1482
Rp1483
(dp1484
g12
Vdet
p1485
sbatp1486
Rp1487
(dp1488
g12
S'word: house, index: 9'
p1489
sbatp1490
Rp1491
(dp1492
g12
Vprep
p1493
sbatp1494
Rp1495
(dp1496
g12
S'word: tree, index: 6'
p1497
sbatp1498
Rp1499
(dp1500
g12
Vnsubj
p1501
sbatp1502
Rp1503
(dp1504
g12
S"word: 's, index: 3"
p1505
sbatp1506
Rp1507
(dp1508
g12
S'id: 14'
p1509
sbag0
(g1
g2
(lp1510
g0
(g1
g2
(lp1511
g0
(g1
g2
(lp1512
(lp1513
S'word: I, index: 2'
p1514
aatp1515
Rp1516
(dp1517
g12
Vnsubj
p1518
sbag0
(g1
g2
(lp1519
g0
(g1
g2
(lp1520
g0
(g1
g2
(lp1521
g0
(g1
g2
(lp1522
g0
(g1
g2
(lp1523
(lp1524
S'word: the, index: 4'
p1525
aatp1526
Rp1527
(dp1528
g12
Vdet
p1529
sbatp1530
Rp1531
(dp1532
g12
S'word: roads, index: 5'
p1533
sbatp1534
Rp1535
(dp1536
g12
Vnsubjpass
p1537
sbag0
(g1
g2
(lp1538
(lp1539
S'word: are, index: 6'
p1540
aatp1541
Rp1542
(dp1543
g12
Vauxpass
p1544
sbatp1545
Rp1546
(dp1547
g12
S'word: paved, index: 7'
p1548
sbatp1549
Rp1550
(dp1551
g12
Vccomp
p1552
sbag0
(g1
g2
(lp1553
g0
(g1
g2
(lp1554
g0
(g1
g2
(lp1555
g0
(g1
g2
(lp1556
g0
(g1
g2
(lp1557
(lp1558
S'word: beautiful, index: 15'
p1559
aatp1560
Rp1561
(dp1562
g12
Vconj
p1563
sbatp1564
Rp1565
(dp1566
g12
S'word: cut, index: 13'
p1567
sbatp1568
Rp1569
(dp1570
g12
Vdep
p1571
sbag0
(g1
g2
(lp1572
(lp1573
S'word: beautiful, index: 15'
p1574
aatp1575
Rp1576
(dp1577
g12
Vdep
p1578
sbag0
(g1
g2
(lp1579
g0
(g1
g2
(lp1580
g0
(g1
g2
(lp1581
(lp1582
S'word: the, index: 10'
p1583
aatp1584
Rp1585
(dp1586
g12
Vdet
p1587
sbatp1588
Rp1589
(dp1590
g12
S'word: grass, index: 11'
p1591
sbatp1592
Rp1593
(dp1594
g12
Vnsubj
p1595
sbatp1596
Rp1597
(dp1598
g12
S'word: is, index: 12'
p1599
sbatp1600
Rp1601
(dp1602
g12
Vconj
p1603
sbatp1604
Rp1605
(dp1606
g12
S'word: guess, index: 3'
p1607
sbatp1608
Rp1609
(dp1610
g12
S'id: 15'
p1611
sbag0
(g1
g2
(lp1612
g0
(g1
g2
(lp1613
g0
(g1
g2
(lp1614
g0
(g1
g2
(lp1615
g0
(g1
g2
(lp1616
g0
(g1
g2
(lp1617
g0
(g1
g2
(lp1618
(lp1619
S'word: four, index: 3'
p1620
aatp1621
Rp1622
(dp1623
g12
Vnum
p1624
sbatp1625
Rp1626
(dp1627
g12
S'word: seventy, index: 4'
p1628
sbatp1629
Rp1630
(dp1631
g12
Vdep
p1632
sbatp1633
Rp1634
(dp1635
g12
S'word: numbers, index: 2'
p1636
sbatp1637
Rp1638
(dp1639
g12
Vnsubj
p1640
sbag0
(g1
g2
(lp1641
(lp1642
S'word: is, index: 5'
p1643
aatp1644
Rp1645
(dp1646
g12
Vcop
p1647
sbag0
(g1
g2
(lp1648
(lp1649
S'word: a, index: 6'
p1650
aatp1651
Rp1652
(dp1653
g12
Vdet
p1654
sbag0
(g1
g2
(lp1655
g0
(g1
g2
(lp1656
g0
(g1
g2
(lp1657
g0
(g1
g2
(lp1658
g0
(g1
g2
(lp1659
g0
(g1
g2
(lp1660
g0
(g1
g2
(lp1661
(lp1662
S'word: sailboat, index: 19'
p1663
aatp1664
Rp1665
(dp1666
g12
Vdep
p1667
sbatp1668
Rp1669
(dp1670
g12
S'word: it, index: 18'
p1671
sbatp1672
Rp1673
(dp1674
g12
Vprep
p1675
sbag0
(g1
g2
(lp1676
(lp1677
S'word: that, index: 12'
p1678
aatp1679
Rp1680
(dp1681
g12
Vmark
p1682
sbag0
(g1
g2
(lp1683
g0
(g1
g2
(lp1684
g0
(g1
g2
(lp1685
(lp1686
S'word: only, index: 13'
p1687
aatp1688
Rp1689
(dp1690
g12
Vadvmod
p1691
sbag0
(g1
g2
(lp1692
(lp1693
S'word: two, index: 14'
p1694
aatp1695
Rp1696
(dp1697
g12
Vnum
p1698
sbatp1699
Rp1700
(dp1701
g12
S'word: people, index: 15'
p1702
sbatp1703
Rp1704
(dp1705
g12
Vnsubj
p1706
sbatp1707
Rp1708
(dp1709
g12
S'word: are, index: 16'
p1710
sbatp1711
Rp1712
(dp1713
g12
Vccomp
p1714
sbag0
(g1
g2
(lp1715
(lp1716
S'word: it, index: 10'
p1717
aatp1718
Rp1719
(dp1720
g12
Vnsubj
p1721
sbatp1722
Rp1723
(dp1724
g12
S'word: appears, index: 11'
p1725
sbatp1726
Rp1727
(dp1728
g12
Vconj
p1729
sbatp1730
Rp1731
(dp1732
g12
S'word: sailboat, index: 7'
p1733
sbatp1734
Rp1735
(dp1736
g12
S'id: 16'
p1737
sbag0
(g1
g2
(lp1738
g0
(g1
g2
(lp1739
g0
(g1
g2
(lp1740
g0
(g1
g2
(lp1741
g0
(g1
g2
(lp1742
(lp1743
S'word: can, index: 19'
p1744
aatp1745
Rp1746
(dp1747
g12
Vaux
p1748
sbag0
(g1
g2
(lp1749
(lp1750
S'word: outside, index: 21'
p1751
aatp1752
Rp1753
(dp1754
g12
Vadvmod
p1755
sbag0
(g1
g2
(lp1756
(lp1757
S'word: he, index: 18'
p1758
aatp1759
Rp1760
(dp1761
g12
Vnsubj
p1762
sbatp1763
Rp1764
(dp1765
g12
S'word: see, index: 20'
p1766
sbatp1767
Rp1768
(dp1769
g12
Vconj
p1770
sbag0
(g1
g2
(lp1771
g0
(g1
g2
(lp1772
g0
(g1
g2
(lp1773
(lp1774
S'word: to, index: 4'
p1775
aatp1776
Rp1777
(dp1778
g12
Vaux
p1779
sbag0
(g1
g2
(lp1780
(lp1781
S'word: be, index: 5'
p1782
aatp1783
Rp1784
(dp1785
g12
Vcop
p1786
sbag0
(g1
g2
(lp1787
(lp1788
S'word: or, index: 7'
p1789
aatp1790
Rp1791
(dp1792
g12
Vcc
p1793
sbag0
(g1
g2
(lp1794
(lp1795
S'word: so, index: 8'
p1796
aatp1797
Rp1798
(dp1799
g12
Vadvmod
p1800
sbatp1801
Rp1802
(dp1803
g12
S'word: midday, index: 6'
p1804
sbatp1805
Rp1806
(dp1807
g12
Vxcomp
p1808
sbag0
(g1
g2
(lp1809
g0
(g1
g2
(lp1810
g0
(g1
g2
(lp1811
(lp1812
S'word: because, index: 10'
p1813
aatp1814
Rp1815
(dp1816
g12
Vmark
p1817
sbag0
(g1
g2
(lp1818
(lp1819
S'word: he, index: 11'
p1820
aatp1821
Rp1822
(dp1823
g12
Vnsubj
p1824
sbag0
(g1
g2
(lp1825
(lp1826
S"word: 's, index: 12"
p1827
aatp1828
Rp1829
(dp1830
g12
Vaux
p1831
sbag0
(g1
g2
(lp1832
g0
(g1
g2
(lp1833
g0
(g1
g2
(lp1834
(lp1835
S'word: a, index: 14'
p1836
aatp1837
Rp1838
(dp1839
g12
Vdet
p1840
sbatp1841
Rp1842
(dp1843
g12
S'word: book, index: 15'
p1844
sbatp1845
Rp1846
(dp1847
g12
Vdobj
p1848
sbatp1849
Rp1850
(dp1851
g12
S'word: reading, index: 13'
p1852
sbatp1853
Rp1854
(dp1855
g12
Vadvcl
p1856
sbag0
(g1
g2
(lp1857
(lp1858
S'word: it, index: 2'
p1859
aatp1860
Rp1861
(dp1862
g12
Vnsubj
p1863
sbatp1864
Rp1865
(dp1866
g12
S'word: appears, index: 3'
p1867
sbatp1868
Rp1869
(dp1870
g12
S'id: 17'
p1871
sbag0
(g1
g2
(lp1872
g0
(g1
g2
(lp1873
g0
(g1
g2
(lp1874
g0
(g1
g2
(lp1875
g0
(g1
g2
(lp1876
(lp1877
S'word: the, index: 21'
p1878
aatp1879
Rp1880
(dp1881
g12
Vdet
p1882
sbatp1883
Rp1884
(dp1885
g12
S'word: basket, index: 22'
p1886
sbatp1887
Rp1888
(dp1889
g12
Vprep
p1890
sbag0
(g1
g2
(lp1891
(lp1892
S'word: So, index: 1'
p1893
aatp1894
Rp1895
(dp1896
g12
Vdep
p1897
sbag0
(g1
g2
(lp1898
(lp1899
S'word: I, index: 2'
p1900
aatp1901
Rp1902
(dp1903
g12
Vnsubj
p1904
sbag0
(g1
g2
(lp1905
g0
(g1
g2
(lp1906
g0
(g1
g2
(lp1907
(lp1908
S'word: the, index: 17'
p1909
aatp1910
Rp1911
(dp1912
g12
Vdet
p1913
sbatp1914
Rp1915
(dp1916
g12
S'word: bag, index: 18'
p1917
sbatp1918
Rp1919
(dp1920
g12
Vprep
p1921
sbag0
(g1
g2
(lp1922
g0
(g1
g2
(lp1923
g0
(g1
g2
(lp1924
g0
(g1
g2
(lp1925
g0
(g1
g2
(lp1926
g0
(g1
g2
(lp1927
g0
(g1
g2
(lp1928
(lp1929
S'word: it, index: 7'
p1930
aatp1931
Rp1932
(dp1933
g12
Vnsubj
p1934
sbag0
(g1
g2
(lp1935
(lp1936
S'word: probably, index: 9'
p1937
aatp1938
Rp1939
(dp1940
g12
Vadvmod
p1941
sbag0
(g1
g2
(lp1942
(lp1943
S'word: midday, index: 10'
p1944
aatp1945
Rp1946
(dp1947
g12
Vtmod
p1948
sbag0
(g1
g2
(lp1949
g0
(g1
g2
(lp1950
g0
(g1
g2
(lp1951
g0
(g1
g2
(lp1952
g0
(g1
g2
(lp1953
(lp1954
S'word: the, index: 13'
p1955
aatp1956
Rp1957
(dp1958
g12
Vdet
p1959
sbatp1960
Rp1961
(dp1962
g12
S'word: lunch, index: 14'
p1963
sbatp1964
Rp1965
(dp1966
g12
Vdobj
p1967
sbatp1968
Rp1969
(dp1970
g12
S'word: cause, index: 12'
p1971
sbatp1972
Rp1973
(dp1974
g12
Vccomp
p1975
sbatp1976
Rp1977
(dp1978
g12
S"word: 's, index: 8"
p1979
sbatp1980
Rp1981
(dp1982
g12
Vrcmod
p1983
sbatp1984
Rp1985
(dp1986
g12
S'word: it, index: 6'
p1987
sbatp1988
Rp1989
(dp1990
g12
Vappos
p1991
sbatp1992
Rp1993
(dp1994
g12
S'word: it, index: 4'
p1995
sbatp1996
Rp1997
(dp1998
g12
Vnsubj
p1999
sbatp2000
Rp2001
(dp2002
g12
S'word: is, index: 15'
p2003
sbatp2004
Rp2005
(dp2006
g12
S'id: 18'
p2007
sbatp2008
Rp2009
(dp2010
g12
S'sentences'
p2011
sb.