ccopy_reg
_reconstructor
p0
(cnltk.tree
Tree
p1
c__builtin__
list
p2
(lp3
g0
(g1
g2
(lp4
g0
(g1
g2
(lp5
g0
(g1
g2
(lp6
(lp7
S'word: The, index: 1'
p8
aatp9
Rp10
(dp11
S'_label'
p12
Vnsubj
p13
sbag0
(g1
g2
(lp14
(lp15
S'word: the, index: 3'
p16
aatp17
Rp18
(dp19
g12
Vdep
p20
sbag0
(g1
g2
(lp21
g0
(g1
g2
(lp22
g0
(g1
g2
(lp23
g0
(g1
g2
(lp24
g0
(g1
g2
(lp25
(lp26
S'word: a, index: 17'
p27
aatp28
Rp29
(dp30
g12
Vdet
p31
sbatp32
Rp33
(dp34
g12
S'word: lion, index: 18'
p35
sbatp36
Rp37
(dp38
g12
Vdep
p39
sbag0
(g1
g2
(lp40
g0
(g1
g2
(lp41
g0
(g1
g2
(lp42
(lp43
S'word: the, index: 7'
p44
aatp45
Rp46
(dp47
g12
Vdet
p48
sbag0
(g1
g2
(lp49
(lp50
S'word: I, index: 11'
p51
aatp52
Rp53
(dp54
g12
Vconj
p55
sbatp56
Rp57
(dp58
g12
S'word: circus, index: 8'
p59
sbatp60
Rp61
(dp62
g12
Vnsubj
p63
sbatp64
Rp65
(dp66
g12
S'word: tamer, index: 19'
p67
sbatp68
Rp69
(dp70
g12
Vadvcl
p71
sbag0
(g1
g2
(lp72
(lp73
S'word: this, index: 4'
p74
aatp75
Rp76
(dp77
g12
Vnsubj
p78
sbag0
(g1
g2
(lp79
g0
(g1
g2
(lp80
g0
(g1
g2
(lp81
g65
atp82
Rp83
(dp84
g12
Vconj
p85
sbag0
(g1
g2
(lp86
(lp87
S'word: where, index: 6'
p88
aatp89
Rp90
(dp91
g12
Vadvmod
p92
sbag0
(g1
g2
(lp93
g57
atp94
Rp95
(dp96
g12
Vnsubj
p97
sbag0
(g1
g2
(lp98
(lp99
S'word: I, index: 11'
p100
aatp101
Rp102
(dp103
g12
Vnsubj
p104
sbag0
(g1
g2
(lp105
g0
(g1
g2
(lp106
g0
(g1
g2
(lp107
(lp108
S'word: a, index: 13'
p109
aatp110
Rp111
(dp112
g12
Vdet
p113
sbatp114
Rp115
(dp116
g12
S'word: lion, index: 14'
p117
sbatp118
Rp119
(dp120
g12
Vdobj
p121
sbatp122
Rp123
(dp124
g12
S'word: see, index: 12'
p125
sbatp126
Rp127
(dp128
g12
Vadvcl
p129
sbatp130
Rp131
(dp132
g12
S'word: is, index: 5'
p133
sbatp134
Rp135
(dp136
g12
S'id: 0'
p137
sbag0
(g1
g2
(lp138
g0
(g1
g2
(lp139
g0
(g1
g2
(lp140
(lp141
S'word: is, index: 3'
p142
aatp143
Rp144
(dp145
g12
Vaux
p146
sbag0
(g1
g2
(lp147
(lp148
S'word: his, index: 6'
p149
aatp150
Rp151
(dp152
g12
Vprep
p153
sbag0
(g1
g2
(lp154
g0
(g1
g2
(lp155
g0
(g1
g2
(lp156
(lp157
S'word: his, index: 9'
p158
aatp159
Rp160
(dp161
g12
Vposs
p162
sbatp163
Rp164
(dp165
g12
S'word: back, index: 10'
p166
sbatp167
Rp168
(dp169
g12
Vprep
p170
sbag0
(g1
g2
(lp171
g0
(g1
g2
(lp172
g0
(g1
g2
(lp173
(lp174
S'word: the, index: 1'
p175
aatp176
Rp177
(dp178
g12
Vdet
p179
sbatp180
Rp181
(dp182
g12
S'word: lion, index: 2'
p183
sbatp184
Rp185
(dp186
g12
Vnsubj
p187
sbatp188
Rp189
(dp190
g12
S'word: standing, index: 4'
p191
sbatp192
Rp193
(dp194
g12
S'id: 1'
p195
sbag0
(g1
g2
(lp196
g0
(g1
g2
(lp197
g0
(g1
g2
(lp198
g0
(g1
g2
(lp199
g0
(g1
g2
(lp200
(lp201
S'word: his, index: 24'
p202
aatp203
Rp204
(dp205
g12
Vposs
p206
sbag0
(g1
g2
(lp207
(lp208
S'word: little, index: 25'
p209
aatp210
Rp211
(dp212
g12
Vamod
p213
sbatp214
Rp215
(dp216
g12
S'word: girl, index: 26'
p217
sbatp218
Rp219
(dp220
g12
Vprep
p221
sbag0
(g1
g2
(lp222
g0
(g1
g2
(lp223
g0
(g1
g2
(lp224
(lp225
S'word: I, index: 12'
p226
aatp227
Rp228
(dp229
g12
Vnsubj
p230
sbag0
(g1
g2
(lp231
g0
(g1
g2
(lp232
g0
(g1
g2
(lp233
(lp234
S'word: a, index: 14'
p235
aatp236
Rp237
(dp238
g12
Vdet
p239
sbag0
(g1
g2
(lp240
g0
(g1
g2
(lp241
g0
(g1
g2
(lp242
(lp243
S'word: a, index: 17'
p244
aatp245
Rp246
(dp247
g12
Vdet
p248
sbatp249
Rp250
(dp251
g12
S'word: man, index: 18'
p252
sbatp253
Rp254
(dp255
g12
Vprep
p256
sbatp257
Rp258
(dp259
g12
S'word: picture, index: 15'
p260
sbatp261
Rp262
(dp263
g12
Vdobj
p264
sbag0
(g1
g2
(lp265
(lp266
S'word: and, index: 1'
p267
aatp268
Rp269
(dp270
g12
Vcc
p271
sbag0
(g1
g2
(lp272
g0
(g1
g2
(lp273
g0
(g1
g2
(lp274
g0
(g1
g2
(lp275
g0
(g1
g2
(lp276
g0
(g1
g2
(lp277
g0
(g1
g2
(lp278
(lp279
S'word: the, index: 9'
p280
aatp281
Rp282
(dp283
g12
Vdet
p284
sbatp285
Rp286
(dp287
g12
S'word: room, index: 10'
p288
sbatp289
Rp290
(dp291
g12
Vappos
p292
sbatp293
Rp294
(dp295
g12
S'word: the, index: 7'
p296
sbatp297
Rp298
(dp299
g12
Vappos
p300
sbatp301
Rp302
(dp303
g12
S'word: the, index: 5'
p304
sbatp305
Rp306
(dp307
g12
Vprep
p308
sbatp309
Rp310
(dp311
g12
S'word: see, index: 13'
p312
sbatp313
Rp314
(dp315
g12
Vccomp
p316
sbag0
(g1
g2
(lp317
(lp318
S'word: he, index: 20'
p319
aatp320
Rp321
(dp322
g12
Vnsubj
p323
sbag0
(g1
g2
(lp324
(lp325
S"word: 's, index: 21"
p326
aatp327
Rp328
(dp329
g12
Vcop
p330
sbatp331
Rp332
(dp333
g12
S'word: there, index: 22'
p334
sbatp335
Rp336
(dp337
g12
S'id: 2'
p338
sbag0
(g1
g2
(lp339
g0
(g1
g2
(lp340
g0
(g1
g2
(lp341
g0
(g1
g2
(lp342
g0
(g1
g2
(lp343
(lp344
S'word: the, index: 8'
p345
aatp346
Rp347
(dp348
g12
Vdet
p349
sbatp350
Rp351
(dp352
g12
S'word: clown, index: 9'
p353
sbatp354
Rp355
(dp356
g12
Vnsubj
p357
sbag0
(g1
g2
(lp358
g0
(g1
g2
(lp359
g0
(g1
g2
(lp360
(lp361
S'word: a, index: 11'
p362
aatp363
Rp364
(dp365
g12
Vdet
p366
sbag0
(g1
g2
(lp367
g0
(g1
g2
(lp368
g0
(g1
g2
(lp369
(lp370
S'word: a, index: 14'
p371
aatp372
Rp373
(dp374
g12
Vdet
p375
sbag0
(g1
g2
(lp376
g0
(g1
g2
(lp377
g0
(g1
g2
(lp378
(lp379
S'word: his, index: 17'
p380
aatp381
Rp382
(dp383
g12
Vposs
p384
sbatp385
Rp386
(dp387
g12
S'word: hat, index: 18'
p388
sbatp389
Rp390
(dp391
g12
Vprep
p392
sbatp393
Rp394
(dp395
g12
S'word: rose, index: 15'
p396
sbatp397
Rp398
(dp399
g12
Vappos
p400
sbatp401
Rp402
(dp403
g12
S'word: hat, index: 12'
p404
sbatp405
Rp406
(dp407
g12
Vdobj
p408
sbag0
(g1
g2
(lp409
g0
(g1
g2
(lp410
g0
(g1
g2
(lp411
(lp412
S'word: I, index: 3'
p413
aatp414
Rp415
(dp416
g12
Vnsubj
p417
sbag0
(g1
g2
(lp418
g0
(g1
g2
(lp419
g0
(g1
g2
(lp420
(lp421
S'word: a, index: 5'
p422
aatp423
Rp424
(dp425
g12
Vdet
p426
sbatp427
Rp428
(dp429
g12
S'word: clown, index: 6'
p430
sbatp431
Rp432
(dp433
g12
Vdobj
p434
sbatp435
Rp436
(dp437
g12
S'word: see, index: 4'
p438
sbatp439
Rp440
(dp441
g12
Vparataxis
p442
sbag0
(g1
g2
(lp443
g0
(g1
g2
(lp444
g0
(g1
g2
(lp445
g0
(g1
g2
(lp446
g0
(g1
g2
(lp447
g0
(g1
g2
(lp448
g0
(g1
g2
(lp449
g0
(g1
g2
(lp450
g0
(g1
g2
(lp451
(lp452
S'word: not, index: 29'
p453
aatp454
Rp455
(dp456
g12
Vneg
p457
sbatp458
Rp459
(dp460
g12
S'word: balloons, index: 30'
p461
sbatp462
Rp463
(dp464
g12
Vappos
p465
sbatp466
Rp467
(dp468
g12
S'word: balloons, index: 27'
p469
sbatp470
Rp471
(dp472
g12
Vappos
p473
sbatp474
Rp475
(dp476
g12
S'word: balloons, index: 25'
p477
sbatp478
Rp479
(dp480
g12
Vdobj
p481
sbag0
(g1
g2
(lp482
(lp483
S'word: he, index: 21'
p484
aatp485
Rp486
(dp487
g12
Vnsubj
p488
sbag0
(g1
g2
(lp489
(lp490
S'word: apparently, index: 22'
p491
aatp492
Rp493
(dp494
g12
Vadvmod
p495
sbag0
(g1
g2
(lp496
(lp497
S'word: is, index: 23'
p498
aatp499
Rp500
(dp501
g12
Vaux
p502
sbatp503
Rp504
(dp505
g12
S'word: throwing, index: 24'
p506
sbatp507
Rp508
(dp509
g12
Vconj
p510
sbatp511
Rp512
(dp513
g12
S'word: has, index: 10'
p514
sbatp515
Rp516
(dp517
g12
S'id: 3'
p518
sbag0
(g1
g2
(lp519
g0
(g1
g2
(lp520
g0
(g1
g2
(lp521
g0
(g1
g2
(lp522
g0
(g1
g2
(lp523
(lp524
S'word: i, index: 13'
p525
aatp526
Rp527
(dp528
g12
Vnsubj
p529
sbag0
(g1
g2
(lp530
(lp531
S'word: ca, index: 14'
p532
aatp533
Rp534
(dp535
g12
Vaux
p536
sbag0
(g1
g2
(lp537
(lp538
S"word: n't, index: 15"
p539
aatp540
Rp541
(dp542
g12
Vneg
p543
sbag0
(g1
g2
(lp544
g0
(g1
g2
(lp545
g0
(g1
g2
(lp546
(lp547
S'word: he, index: 17'
p548
aatp549
Rp550
(dp551
g12
Vnsubj
p552
sbag0
(g1
g2
(lp553
(lp554
S"word: 's, index: 18"
p555
aatp556
Rp557
(dp558
g12
Vaux
p559
sbatp560
Rp561
(dp562
g12
S'word: showing, index: 19'
p563
sbatp564
Rp565
(dp566
g12
Vccomp
p567
sbatp568
Rp569
(dp570
g12
S'word: think, index: 16'
p571
sbatp572
Rp573
(dp574
g12
Vparataxis
p575
sbag0
(g1
g2
(lp576
(lp577
S'word: he, index: 1'
p578
aatp579
Rp580
(dp581
g12
Vnsubj
p582
sbag0
(g1
g2
(lp583
(lp584
S"word: 's, index: 2"
p585
aatp586
Rp587
(dp588
g12
Vaux
p589
sbag0
(g1
g2
(lp590
g0
(g1
g2
(lp591
g0
(g1
g2
(lp592
(lp593
S'word: I, index: 5'
p594
aatp595
Rp596
(dp597
g12
Vnsubj
p598
sbag0
(g1
g2
(lp599
(lp600
S'word: ca, index: 6'
p601
aatp602
Rp603
(dp604
g12
Vaux
p605
sbag0
(g1
g2
(lp606
(lp607
S"word: n't, index: 7"
p608
aatp609
Rp610
(dp611
g12
Vneg
p612
sbag0
(g1
g2
(lp613
g0
(g1
g2
(lp614
g0
(g1
g2
(lp615
(lp616
S'word: the, index: 10'
p617
aatp618
Rp619
(dp620
g12
Vdet
p621
sbatp622
Rp623
(dp624
g12
S'word: word, index: 11'
p625
sbatp626
Rp627
(dp628
g12
Vprep
p629
sbatp630
Rp631
(dp632
g12
S'word: think, index: 8'
p633
sbatp634
Rp635
(dp636
g12
Vparataxis
p637
sbatp638
Rp639
(dp640
g12
S'word: showing, index: 3'
p641
sbatp642
Rp643
(dp644
g12
S'id: 4'
p645
sbag0
(g1
g2
(lp646
g0
(g1
g2
(lp647
g0
(g1
g2
(lp648
(lp649
S'word: a, index: 1'
p650
aatp651
Rp652
(dp653
g12
Vdet
p654
sbag0
(g1
g2
(lp655
g0
(g1
g2
(lp656
g0
(g1
g2
(lp657
(lp658
S'word: another, index: 4'
p659
aatp660
Rp661
(dp662
g12
Vdet
p663
sbag0
(g1
g2
(lp664
(lp665
S'word: little, index: 5'
p666
aatp667
Rp668
(dp669
g12
Vamod
p670
sbag0
(g1
g2
(lp671
(lp672
S'word: boy, index: 8'
p673
aatp674
Rp675
(dp676
g12
Vconj
p677
sbatp678
Rp679
(dp680
g12
S'word: girl, index: 6'
p681
sbatp682
Rp683
(dp684
g12
Vprep
p685
sbag0
(g1
g2
(lp686
(lp687
S'word: boy, index: 8'
p688
aatp689
Rp690
(dp691
g12
Vprep
p692
sbatp693
Rp694
(dp695
g12
S'word: man, index: 2'
p696
sbatp697
Rp698
(dp699
g12
S'id: 5'
p700
sbag0
(g1
g2
(lp701
g0
(g1
g2
(lp702
g0
(g1
g2
(lp703
(lp704
S'word: then, index: 2'
p705
aatp706
Rp707
(dp708
g12
Vadvmod
p709
sbag0
(g1
g2
(lp710
(lp711
S'word: I, index: 3'
p712
aatp713
Rp714
(dp715
g12
Vnsubj
p716
sbag0
(g1
g2
(lp717
g0
(g1
g2
(lp718
g0
(g1
g2
(lp719
(lp720
S'word: a, index: 5'
p721
aatp722
Rp723
(dp724
g12
Vdet
p725
sbag0
(g1
g2
(lp726
g0
(g1
g2
(lp727
g0
(g1
g2
(lp728
(lp729
S'word: a, index: 9'
p730
aatp731
Rp732
(dp733
g12
Vdet
p734
sbatp735
Rp736
(dp737
g12
S'word: ring, index: 10'
p738
sbatp739
Rp740
(dp741
g12
Vconj
p742
sbag0
(g1
g2
(lp743
g0
(g1
g2
(lp744
g0
(g1
g2
(lp745
g0
(g1
g2
(lp746
g0
(g1
g2
(lp747
(lp748
S'word: the, index: 19'
p749
aatp750
Rp751
(dp752
g12
Vdet
p753
sbatp754
Rp755
(dp756
g12
S'word: horse, index: 20'
p757
sbatp758
Rp759
(dp760
g12
Vprep
p761
sbag0
(g1
g2
(lp762
(lp763
S'word: the, index: 13'
p764
aatp765
Rp766
(dp767
g12
Vdet
p768
sbatp769
Rp770
(dp771
g12
S'word: lady, index: 14'
p772
sbatp773
Rp774
(dp775
g12
Vconj
p776
sbatp777
Rp778
(dp779
g12
S'word: horse, index: 6'
p780
sbatp781
Rp782
(dp783
g12
Vdobj
p784
sbag0
(g1
g2
(lp785
g736
atp786
Rp787
(dp788
g12
Vdobj
p789
sbag0
(g1
g2
(lp790
g770
atp791
Rp792
(dp793
g12
Vdobj
p794
sbag0
(g1
g2
(lp795
(lp796
S'word: and, index: 1'
p797
aatp798
Rp799
(dp800
g12
Vcc
p801
sbatp802
Rp803
(dp804
g12
S'word: see, index: 4'
p805
sbatp806
Rp807
(dp808
g12
S'id: 6'
p809
sbag0
(g1
g2
(lp810
g0
(g1
g2
(lp811
g0
(g1
g2
(lp812
g0
(g1
g2
(lp813
g0
(g1
g2
(lp814
g0
(g1
g2
(lp815
g0
(g1
g2
(lp816
(lp817
S'word: the, index: 7'
p818
aatp819
Rp820
(dp821
g12
Vdet
p822
sbatp823
Rp824
(dp825
g12
S'word: ring, index: 8'
p826
sbatp827
Rp828
(dp829
g12
Vprep
p830
sbatp831
Rp832
(dp833
g12
S'word: circles, index: 5'
p834
sbatp835
Rp836
(dp837
g12
Vprep
p838
sbag0
(g1
g2
(lp839
(lp840
S'word: they, index: 1'
p841
aatp842
Rp843
(dp844
g12
Vnsubj
p845
sbag0
(g1
g2
(lp846
(lp847
S"word: 're, index: 2"
p848
aatp849
Rp850
(dp851
g12
Vaux
p852
sbatp853
Rp854
(dp855
g12
S'word: going, index: 3'
p856
sbatp857
Rp858
(dp859
g12
S'id: 7'
p860
sbag0
(g1
g2
(lp861
g0
(g1
g2
(lp862
g0
(g1
g2
(lp863
g0
(g1
g2
(lp864
g0
(g1
g2
(lp865
g0
(g1
g2
(lp866
g0
(g1
g2
(lp867
(lp868
S'word: a, index: 9'
p869
aatp870
Rp871
(dp872
g12
Vdet
p873
sbatp874
Rp875
(dp876
g12
S'word: man, index: 10'
p877
sbatp878
Rp879
(dp880
g12
Vdobj
p881
sbag0
(g1
g2
(lp882
g0
(g1
g2
(lp883
g0
(g1
g2
(lp884
g0
(g1
g2
(lp885
g0
(g1
g2
(lp886
(lp887
S'word: him, index: 13'
p888
aatp889
Rp890
(dp891
g12
Vnsubj
p892
sbatp893
Rp894
(dp895
g12
S'word: walking, index: 14'
p896
sbatp897
Rp898
(dp899
g12
Vdep
p900
sbag0
(g1
g2
(lp901
g0
(g1
g2
(lp902
g0
(g1
g2
(lp903
(lp904
S'word: walking, index: 17'
p905
aatp906
Rp907
(dp908
g12
Vxcomp
p909
sbatp910
Rp911
(dp912
g12
S'word: skate, index: 16'
p913
sbatp914
Rp915
(dp916
g12
Vdep
p917
sbag0
(g1
g2
(lp918
g0
(g1
g2
(lp919
g0
(g1
g2
(lp920
(lp921
S'word: walking, index: 20'
p922
aatp923
Rp924
(dp925
g12
Vxcomp
p926
sbatp927
Rp928
(dp929
g12
S'word: skate, index: 19'
p930
sbatp931
Rp932
(dp933
g12
Vdep
p934
sbatp935
Rp936
(dp937
g12
S'word: see, index: 12'
p938
sbatp939
Rp940
(dp941
g12
Vdep
p942
sbag0
(g1
g2
(lp943
(lp944
S'word: that, index: 6'
p945
aatp946
Rp947
(dp948
g12
Vmark
p949
sbag0
(g1
g2
(lp950
(lp951
S'word: I, index: 7'
p952
aatp953
Rp954
(dp955
g12
Vnsubj
p956
sbatp957
Rp958
(dp959
g12
S'word: see, index: 8'
p960
sbatp961
Rp962
(dp963
g12
Vprepc
p964
sbag0
(g1
g2
(lp965
(lp966
S'word: and, index: 1'
p967
aatp968
Rp969
(dp970
g12
Vcc
p971
sbag0
(g1
g2
(lp972
g0
(g1
g2
(lp973
g0
(g1
g2
(lp974
(lp975
S'word: walking, index: 25'
p976
aatp977
Rp978
(dp979
g12
Vprep
p980
sbag0
(g1
g2
(lp981
(lp982
S'word: some, index: 22'
p983
aatp984
Rp985
(dp986
g12
Vdet
p987
sbatp988
Rp989
(dp990
g12
S'word: kind, index: 23'
p991
sbatp992
Rp993
(dp994
g12
Vdep
p995
sbatp996
Rp997
(dp998
g12
S'word: then, index: 2'
p999
sbatp1000
Rp1001
(dp1002
g12
S'id: 8'
p1003
sbag0
(g1
g2
(lp1004
g0
(g1
g2
(lp1005
g0
(g1
g2
(lp1006
(lp1007
S'word: it, index: 16'
p1008
aatp1009
Rp1010
(dp1011
g12
Vnsubj
p1012
sbag0
(g1
g2
(lp1013
g0
(g1
g2
(lp1014
g0
(g1
g2
(lp1015
(lp1016
S'word: like, index: 18'
p1017
aatp1018
Rp1019
(dp1020
g12
Vmark
p1021
sbag0
(g1
g2
(lp1022
(lp1023
S'word: there, index: 19'
p1024
aatp1025
Rp1026
(dp1027
g12
Vexpl
p1028
sbag0
(g1
g2
(lp1029
g0
(g1
g2
(lp1030
g0
(g1
g2
(lp1031
g0
(g1
g2
(lp1032
g0
(g1
g2
(lp1033
(lp1034
S'word: ca, index: 27'
p1035
aatp1036
Rp1037
(dp1038
g12
Vaux
p1039
sbag0
(g1
g2
(lp1040
(lp1041
S"word: n't, index: 28"
p1042
aatp1043
Rp1044
(dp1045
g12
Vneg
p1046
sbag0
(g1
g2
(lp1047
g0
(g1
g2
(lp1048
g0
(g1
g2
(lp1049
(lp1050
S'word: their, index: 30'
p1051
aatp1052
Rp1053
(dp1054
g12
Vposs
p1055
sbatp1056
Rp1057
(dp1058
g12
S'word: faces, index: 31'
p1059
sbatp1060
Rp1061
(dp1062
g12
Vdobj
p1063
sbatp1064
Rp1065
(dp1066
g12
S'word: see, index: 29'
p1067
sbatp1068
Rp1069
(dp1070
g12
Vrcmod
p1071
sbag0
(g1
g2
(lp1072
g0
(g1
g2
(lp1073
g0
(g1
g2
(lp1074
(lp1075
S'word: five, index: 24'
p1076
aatp1077
Rp1078
(dp1079
g12
Vnum
p1080
sbatp1081
Rp1082
(dp1083
g12
S'word: folks, index: 25'
p1084
sbatp1085
Rp1086
(dp1087
g12
Vconj
p1088
sbatp1089
Rp1090
(dp1091
g12
S'word: four, index: 21'
p1092
sbatp1093
Rp1094
(dp1095
g12
Vnsubj
p1096
sbag0
(g1
g2
(lp1097
g1082
atp1098
Rp1099
(dp1100
g12
Vnsubj
p1101
sbatp1102
Rp1103
(dp1104
g12
S"word: 's, index: 20"
p1105
sbatp1106
Rp1107
(dp1108
g12
Vadvcl
p1109
sbag0
(g1
g2
(lp1110
g0
(g1
g2
(lp1111
g0
(g1
g2
(lp1112
g0
(g1
g2
(lp1113
g0
(g1
g2
(lp1114
g0
(g1
g2
(lp1115
g0
(g1
g2
(lp1116
(lp1117
S'word: people, index: 13'
p1118
aatp1119
Rp1120
(dp1121
g12
Vnn
p1122
sbatp1123
Rp1124
(dp1125
g12
S'word: folks, index: 14'
p1126
sbatp1127
Rp1128
(dp1129
g12
Vprep
p1130
sbag0
(g1
g2
(lp1131
(lp1132
S'word: some, index: 10'
p1133
aatp1134
Rp1135
(dp1136
g12
Vnsubj
p1137
sbatp1138
Rp1139
(dp1140
g12
S'word: blacked, index: 11'
p1141
sbatp1142
Rp1143
(dp1144
g12
Vdep
p1145
sbag0
(g1
g2
(lp1146
(lp1147
S'word: and, index: 1'
p1148
aatp1149
Rp1150
(dp1151
g12
Vcc
p1152
sbag0
(g1
g2
(lp1153
g0
(g1
g2
(lp1154
g0
(g1
g2
(lp1155
g0
(g1
g2
(lp1156
g0
(g1
g2
(lp1157
(lp1158
S'word: the, index: 5'
p1159
aatp1160
Rp1161
(dp1162
g12
Vdet
p1163
sbatp1164
Rp1165
(dp1166
g12
S'word: ring, index: 6'
p1167
sbatp1168
Rp1169
(dp1170
g12
Vappos
p1171
sbatp1172
Rp1173
(dp1174
g12
S'word: the, index: 3'
p1175
sbatp1176
Rp1177
(dp1178
g12
Vprep
p1179
sbag0
(g1
g2
(lp1180
(lp1181
S'word: I, index: 8'
p1182
aatp1183
Rp1184
(dp1185
g12
Vnsubj
p1186
sbatp1187
Rp1188
(dp1189
g12
S'word: see, index: 9'
p1190
sbatp1191
Rp1192
(dp1193
g12
Vccomp
p1194
sbatp1195
Rp1196
(dp1197
g12
S'word: looks, index: 17'
p1198
sbatp1199
Rp1200
(dp1201
g12
S'id: 9'
p1202
sbatp1203
Rp1204
(dp1205
g12
S'sentences'
p1206
sb.