ccopy_reg
_reconstructor
p0
(cnltk.tree
Tree
p1
c__builtin__
list
p2
(lp3
g0
(g1
g2
(lp4
g0
(g1
g2
(lp5
g0
(g1
g2
(lp6
VWater
p7
atp8
Rp9
(dp10
S'_label'
p11
VNN
p12
sbag0
(g1
g2
(lp13
V.
p14
atp15
Rp16
(dp17
g11
V.
p18
sbatp19
Rp20
(dp21
g11
VNP
p22
sbatp23
Rp24
(dp25
g11
S'id: 0'
p26
sbag0
(g1
g2
(lp27
g0
(g1
g2
(lp28
g0
(g1
g2
(lp29
g0
(g1
g2
(lp30
VWater
p31
atp32
Rp33
(dp34
g11
VNN
p35
sbatp36
Rp37
(dp38
g11
VNP
p39
sbag0
(g1
g2
(lp40
V,
p41
atp42
Rp43
(dp44
g11
V,
p45
sbag0
(g1
g2
(lp46
g0
(g1
g2
(lp47
Vno
p48
atp49
Rp50
(dp51
g11
VDT
p52
sbag0
(g1
g2
(lp53
Vno
p54
atp55
Rp56
(dp57
g11
VDT
p58
sbag0
(g1
g2
(lp59
Vwater
p60
atp61
Rp62
(dp63
g11
VNN
p64
sbatp65
Rp66
(dp67
g11
VNP
p68
sbag0
(g1
g2
(lp69
V.
p70
atp71
Rp72
(dp73
g11
V.
p74
sbatp75
Rp76
(dp77
g11
VNP
p78
sbatp79
Rp80
(dp81
g11
S'id: 1'
p82
sbag0
(g1
g2
(lp83
g0
(g1
g2
(lp84
g0
(g1
g2
(lp85
g0
(g1
g2
(lp86
VI
p87
atp88
Rp89
(dp90
g11
VPRP
p91
sbatp92
Rp93
(dp94
g11
VNP
p95
sbag0
(g1
g2
(lp96
g0
(g1
g2
(lp97
Vdo
p98
atp99
Rp100
(dp101
g11
VVBP
p102
sbag0
(g1
g2
(lp103
Vn't
p104
atp105
Rp106
(dp107
g11
VRB
p108
sbag0
(g1
g2
(lp109
g0
(g1
g2
(lp110
Vknow
p111
atp112
Rp113
(dp114
g11
VVB
p115
sbag0
(g1
g2
(lp116
V,
p117
atp118
Rp119
(dp120
g11
V,
p121
sbag0
(g1
g2
(lp122
g0
(g1
g2
(lp123
g0
(g1
g2
(lp124
Vwater
p125
atp126
Rp127
(dp128
g11
VNN
p129
sbatp130
Rp131
(dp132
g11
VNP
p133
sbag0
(g1
g2
(lp134
g0
(g1
g2
(lp135
Vo
p136
atp137
Rp138
(dp139
g11
VNN
p140
sbag0
(g1
g2
(lp141
Vno
p142
atp143
Rp144
(dp145
g11
VRB
p146
sbatp147
Rp148
(dp149
g11
VNP
p150
sbatp151
Rp152
(dp153
g11
VNP-TMP
p154
sbag0
(g1
g2
(lp155
V,
p156
atp157
Rp158
(dp159
g11
V,
p160
sbag0
(g1
g2
(lp161
g0
(g1
g2
(lp162
Vwater
p163
atp164
Rp165
(dp166
g11
VNN
p167
sbatp168
Rp169
(dp170
g11
VNP
p171
sbatp172
Rp173
(dp174
g11
VVP
p175
sbatp176
Rp177
(dp178
g11
VVP
p179
sbag0
(g1
g2
(lp180
V.
p181
atp182
Rp183
(dp184
g11
V.
p185
sbatp186
Rp187
(dp188
g11
VS
p189
sbatp190
Rp191
(dp192
g11
S'id: 2'
p193
sbag0
(g1
g2
(lp194
g0
(g1
g2
(lp195
g0
(g1
g2
(lp196
VDu
p197
atp198
Rp199
(dp200
g11
VNNP
p201
sbag0
(g1
g2
(lp202
VDarr
p203
atp204
Rp205
(dp206
g11
VNNP
p207
sbag0
(g1
g2
(lp208
V.
p209
atp210
Rp211
(dp212
g11
V.
p213
sbatp214
Rp215
(dp216
g11
VNP
p217
sbatp218
Rp219
(dp220
g11
S'id: 3'
p221
sbag0
(g1
g2
(lp222
g0
(g1
g2
(lp223
g0
(g1
g2
(lp224
g0
(g1
g2
(lp225
VI
p226
atp227
Rp228
(dp229
g11
VPRP
p230
sbatp231
Rp232
(dp233
g11
VNP
p234
sbag0
(g1
g2
(lp235
g0
(g1
g2
(lp236
Vdo
p237
atp238
Rp239
(dp240
g11
VVBP
p241
sbag0
(g1
g2
(lp242
Vn't
p243
atp244
Rp245
(dp246
g11
VRB
p247
sbag0
(g1
g2
(lp248
g0
(g1
g2
(lp249
Vknow
p250
atp251
Rp252
(dp253
g11
VVB
p254
sbatp255
Rp256
(dp257
g11
VVP
p258
sbatp259
Rp260
(dp261
g11
VVP
p262
sbag0
(g1
g2
(lp263
V.
p264
atp265
Rp266
(dp267
g11
V.
p268
sbatp269
Rp270
(dp271
g11
VS
p272
sbatp273
Rp274
(dp275
g11
S'id: 4'
p276
sbag0
(g1
g2
(lp277
g0
(g1
g2
(lp278
g0
(g1
g2
(lp279
g0
(g1
g2
(lp280
VNo
p281
atp282
Rp283
(dp284
g11
VDT
p285
sbatp286
Rp287
(dp288
g11
VNP
p289
sbag0
(g1
g2
(lp290
V.
p291
atp292
Rp293
(dp294
g11
V.
p295
sbatp296
Rp297
(dp298
g11
VFRAG
p299
sbatp300
Rp301
(dp302
g11
S'id: 5'
p303
sbag0
(g1
g2
(lp304
g0
(g1
g2
(lp305
g0
(g1
g2
(lp306
g0
(g1
g2
(lp307
g0
(g1
g2
(lp308
VLeaves
p309
atp310
Rp311
(dp312
g11
VVBZ
p313
sbatp314
Rp315
(dp316
g11
VVP
p317
sbag0
(g1
g2
(lp318
V,
p319
atp320
Rp321
(dp322
g11
V,
p323
sbag0
(g1
g2
(lp324
g0
(g1
g2
(lp325
g0
(g1
g2
(lp326
Vtwo
p327
atp328
Rp329
(dp330
g11
VCD
p331
sbatp332
Rp333
(dp334
g11
VNP
p335
sbag0
(g1
g2
(lp336
g0
(g1
g2
(lp337
Vof
p338
atp339
Rp340
(dp341
g11
VIN
p342
sbag0
(g1
g2
(lp343
g0
(g1
g2
(lp344
Vthem
p345
atp346
Rp347
(dp348
g11
VPRP
p349
sbatp350
Rp351
(dp352
g11
VNP
p353
sbatp354
Rp355
(dp356
g11
VPP
p357
sbatp358
Rp359
(dp360
g11
VNP
p361
sbatp362
Rp363
(dp364
g11
VVP
p365
sbag0
(g1
g2
(lp366
V.
p367
atp368
Rp369
(dp370
g11
V.
p371
sbatp372
Rp373
(dp374
g11
VS
p375
sbatp376
Rp377
(dp378
g11
S'id: 6'
p379
sbag0
(g1
g2
(lp380
g0
(g1
g2
(lp381
g0
(g1
g2
(lp382
g0
(g1
g2
(lp383
VTails
p384
atp385
Rp386
(dp387
g11
VNNS
p388
sbatp389
Rp390
(dp391
g11
VNP
p392
sbag0
(g1
g2
(lp393
g0
(g1
g2
(lp394
Vwater
p395
atp396
Rp397
(dp398
g11
VNN
p399
sbatp400
Rp401
(dp402
g11
VNP
p403
sbag0
(g1
g2
(lp404
V.
p405
atp406
Rp407
(dp408
g11
V.
p409
sbatp410
Rp411
(dp412
g11
VNP
p413
sbatp414
Rp415
(dp416
g11
S'id: 7'
p417
sbag0
(g1
g2
(lp418
g0
(g1
g2
(lp419
g0
(g1
g2
(lp420
g0
(g1
g2
(lp421
VGirl
p422
atp423
Rp424
(dp425
g11
VNNP
p426
sbatp427
Rp428
(dp429
g11
VNP
p430
sbag0
(g1
g2
(lp431
V.
p432
atp433
Rp434
(dp435
g11
V.
p436
sbatp437
Rp438
(dp439
g11
VFRAG
p440
sbatp441
Rp442
(dp443
g11
S'id: 8'
p444
sbatp445
Rp446
(dp447
g11
S'sentences'
p448
sb.