ccopy_reg
_reconstructor
p0
(cnltk.tree
Tree
p1
c__builtin__
list
p2
(lp3
g0
(g1
g2
(lp4
g0
(g1
g2
(lp5
g0
(g1
g2
(lp6
g0
(g1
g2
(lp7
g0
(g1
g2
(lp8
Vit
p9
atp10
Rp11
(dp12
S'_label'
p13
VPRP
p14
sbatp15
Rp16
(dp17
g13
VNP
p18
sbag0
(g1
g2
(lp19
g0
(g1
g2
(lp20
V's
p21
atp22
Rp23
(dp24
g13
VVBZ
p25
sbag0
(g1
g2
(lp26
g0
(g1
g2
(lp27
Va
p28
atp29
Rp30
(dp31
g13
VDT
p32
sbatp33
Rp34
(dp35
g13
VNP
p36
sbatp37
Rp38
(dp39
g13
VVP
p40
sbatp41
Rp42
(dp43
g13
VS
p44
sbag0
(g1
g2
(lp45
V,
p46
atp47
Rp48
(dp49
g13
V,
p50
sbag0
(g1
g2
(lp51
g0
(g1
g2
(lp52
Vit
p53
atp54
Rp55
(dp56
g13
VPRP
p57
sbatp58
Rp59
(dp60
g13
VNP
p61
sbag0
(g1
g2
(lp62
g0
(g1
g2
(lp63
Vis
p64
atp65
Rp66
(dp67
g13
VVBZ
p68
sbag0
(g1
g2
(lp69
g0
(g1
g2
(lp70
Va
p71
atp72
Rp73
(dp74
g13
VDT
p75
sbag0
(g1
g2
(lp76
Vcircus
p77
atp78
Rp79
(dp80
g13
VNN
p81
sbatp82
Rp83
(dp84
g13
VNP
p85
sbatp86
Rp87
(dp88
g13
VVP
p89
sbag0
(g1
g2
(lp90
V.
p91
atp92
Rp93
(dp94
g13
V.
p95
sbatp96
Rp97
(dp98
g13
VS
p99
sbatp100
Rp101
(dp102
g13
S'id: 0'
p103
sbag0
(g1
g2
(lp104
g0
(g1
g2
(lp105
g0
(g1
g2
(lp106
g0
(g1
g2
(lp107
g0
(g1
g2
(lp108
Vit
p109
atp110
Rp111
(dp112
g13
VPRP
p113
sbatp114
Rp115
(dp116
g13
VNP
p117
sbag0
(g1
g2
(lp118
g0
(g1
g2
(lp119
V's
p120
atp121
Rp122
(dp123
g13
VVBZ
p124
sbag0
(g1
g2
(lp125
g0
(g1
g2
(lp126
Va
p127
atp128
Rp129
(dp130
g13
VDT
p131
sbag0
(g1
g2
(lp132
Vhorse
p133
atp134
Rp135
(dp136
g13
VNN
p137
sbatp138
Rp139
(dp140
g13
VNP
p141
sbatp142
Rp143
(dp144
g13
VVP
p145
sbatp146
Rp147
(dp148
g13
VS
p149
sbag0
(g1
g2
(lp150
V,
p151
atp152
Rp153
(dp154
g13
V,
p155
sbag0
(g1
g2
(lp156
Vand
p157
atp158
Rp159
(dp160
g13
VCC
p161
sbag0
(g1
g2
(lp162
g0
(g1
g2
(lp163
g0
(g1
g2
(lp164
Vit
p165
atp166
Rp167
(dp168
g13
VPRP
p169
sbatp170
Rp171
(dp172
g13
VNP
p173
sbag0
(g1
g2
(lp174
g0
(g1
g2
(lp175
V's
p176
atp177
Rp178
(dp179
g13
VVBZ
p180
sbag0
(g1
g2
(lp181
g0
(g1
g2
(lp182
Vwoman
p183
atp184
Rp185
(dp186
g13
VNN
p187
sbatp188
Rp189
(dp190
g13
VNP
p191
sbag0
(g1
g2
(lp192
V,
p193
atp194
Rp195
(dp196
g13
V,
p197
sbag0
(g1
g2
(lp198
g0
(g1
g2
(lp199
g0
(g1
g2
(lp200
Vriding
p201
atp202
Rp203
(dp204
g13
VVBG
p205
sbag0
(g1
g2
(lp206
g0
(g1
g2
(lp207
Va
p208
atp209
Rp210
(dp211
g13
VDT
p212
sbag0
(g1
g2
(lp213
Vhorse
p214
atp215
Rp216
(dp217
g13
VNN
p218
sbatp219
Rp220
(dp221
g13
VNP
p222
sbatp223
Rp224
(dp225
g13
VVP
p226
sbatp227
Rp228
(dp229
g13
VS
p230
sbatp231
Rp232
(dp233
g13
VVP
p234
sbatp235
Rp236
(dp237
g13
VS
p238
sbag0
(g1
g2
(lp239
V.
p240
atp241
Rp242
(dp243
g13
V.
p244
sbatp245
Rp246
(dp247
g13
VS
p248
sbatp249
Rp250
(dp251
g13
S'id: 1'
p252
sbag0
(g1
g2
(lp253
g0
(g1
g2
(lp254
g0
(g1
g2
(lp255
VAnd
p256
atp257
Rp258
(dp259
g13
VCC
p260
sbag0
(g1
g2
(lp261
g0
(g1
g2
(lp262
g0
(g1
g2
(lp263
Va
p264
atp265
Rp266
(dp267
g13
VDT
p268
sbag0
(g1
g2
(lp269
Vclown
p270
atp271
Rp272
(dp273
g13
VNN
p274
sbatp275
Rp276
(dp277
g13
VNP
p278
sbag0
(g1
g2
(lp279
g0
(g1
g2
(lp280
Vis
p281
atp282
Rp283
(dp284
g13
VVBZ
p285
sbag0
(g1
g2
(lp286
g0
(g1
g2
(lp287
Vpopcorn
p288
atp289
Rp290
(dp291
g13
VNN
p292
sbatp293
Rp294
(dp295
g13
VNP
p296
sbatp297
Rp298
(dp299
g13
VVP
p300
sbatp301
Rp302
(dp303
g13
VS
p304
sbag0
(g1
g2
(lp305
V,
p306
atp307
Rp308
(dp309
g13
V,
p310
sbag0
(g1
g2
(lp311
Vand
p312
atp313
Rp314
(dp315
g13
VCC
p316
sbag0
(g1
g2
(lp317
g0
(g1
g2
(lp318
g0
(g1
g2
(lp319
Vlady
p320
atp321
Rp322
(dp323
g13
VNN
p324
sbatp325
Rp326
(dp327
g13
VNP
p328
sbag0
(g1
g2
(lp329
g0
(g1
g2
(lp330
Vholding
p331
atp332
Rp333
(dp334
g13
VVBG
p335
sbag0
(g1
g2
(lp336
g0
(g1
g2
(lp337
Va
p338
atp339
Rp340
(dp341
g13
VDT
p342
sbag0
(g1
g2
(lp343
Vchild
p344
atp345
Rp346
(dp347
g13
VNN
p348
sbatp349
Rp350
(dp351
g13
VNP
p352
sbatp353
Rp354
(dp355
g13
VVP
p356
sbatp357
Rp358
(dp359
g13
VS
p360
sbag0
(g1
g2
(lp361
V.
p362
atp363
Rp364
(dp365
g13
V.
p366
sbatp367
Rp368
(dp369
g13
VS
p370
sbatp371
Rp372
(dp373
g13
S'id: 2'
p374
sbag0
(g1
g2
(lp375
g0
(g1
g2
(lp376
g0
(g1
g2
(lp377
VAnd
p378
atp379
Rp380
(dp381
g13
VCC
p382
sbag0
(g1
g2
(lp383
g0
(g1
g2
(lp384
Vthe
p385
atp386
Rp387
(dp388
g13
VDT
p389
sbag0
(g1
g2
(lp390
Vboy
p391
atp392
Rp393
(dp394
g13
VNN
p395
sbatp396
Rp397
(dp398
g13
VNP
p399
sbag0
(g1
g2
(lp400
g0
(g1
g2
(lp401
Vis
p402
atp403
Rp404
(dp405
g13
VVBZ
p406
sbag0
(g1
g2
(lp407
g0
(g1
g2
(lp408
Vcatching
p409
atp410
Rp411
(dp412
g13
VVBG
p413
sbag0
(g1
g2
(lp414
g0
(g1
g2
(lp415
Vthe
p416
atp417
Rp418
(dp419
g13
VDT
p420
sbag0
(g1
g2
(lp421
Vpopcorn
p422
atp423
Rp424
(dp425
g13
VNN
p426
sbatp427
Rp428
(dp429
g13
VNP
p430
sbatp431
Rp432
(dp433
g13
VVP
p434
sbatp435
Rp436
(dp437
g13
VVP
p438
sbag0
(g1
g2
(lp439
V.
p440
atp441
Rp442
(dp443
g13
V.
p444
sbatp445
Rp446
(dp447
g13
VS
p448
sbatp449
Rp450
(dp451
g13
S'id: 3'
p452
sbag0
(g1
g2
(lp453
g0
(g1
g2
(lp454
g0
(g1
g2
(lp455
g0
(g1
g2
(lp456
g0
(g1
g2
(lp457
VThe
p458
atp459
Rp460
(dp461
g13
VDT
p462
sbag0
(g1
g2
(lp463
g0
(g1
g2
(lp464
g0
(g1
g2
(lp465
Vthe
p466
atp467
Rp468
(dp469
g13
VDT
p470
sbag0
(g1
g2
(lp471
Vthe
p472
atp473
Rp474
(dp475
g13
VDT
p476
sbatp477
Rp478
(dp479
g13
VADVP
p480
sbag0
(g1
g2
(lp481
Vthe
p482
atp483
Rp484
(dp485
g13
VDT
p486
sbatp487
Rp488
(dp489
g13
VADJP
p490
sbag0
(g1
g2
(lp491
Vman
p492
atp493
Rp494
(dp495
g13
VNN
p496
sbatp497
Rp498
(dp499
g13
VNP
p500
sbag0
(g1
g2
(lp501
V,
p502
atp503
Rp504
(dp505
g13
V,
p506
sbag0
(g1
g2
(lp507
Vand
p508
atp509
Rp510
(dp511
g13
VCC
p512
sbag0
(g1
g2
(lp513
g0
(g1
g2
(lp514
Vtwo
p515
atp516
Rp517
(dp518
g13
VCD
p519
sbatp520
Rp521
(dp522
g13
VNP
p523
sbag0
(g1
g2
(lp524
V,
p525
atp526
Rp527
(dp528
g13
V,
p529
sbag0
(g1
g2
(lp530
g0
(g1
g2
(lp531
Va
p532
atp533
Rp534
(dp535
g13
VDT
p536
sbag0
(g1
g2
(lp537
Vlittle
p538
atp539
Rp540
(dp541
g13
VJJ
p542
sbag0
(g1
g2
(lp543
Vgirl
p544
atp545
Rp546
(dp547
g13
VNN
p548
sbatp549
Rp550
(dp551
g13
VNP
p552
sbag0
(g1
g2
(lp553
V,
p554
atp555
Rp556
(dp557
g13
V,
p558
sbatp559
Rp560
(dp561
g13
VNP
p562
sbag0
(g1
g2
(lp563
g0
(g1
g2
(lp564
Vis
p565
atp566
Rp567
(dp568
g13
VVBZ
p569
sbag0
(g1
g2
(lp570
g0
(g1
g2
(lp571
Vlaughing
p572
atp573
Rp574
(dp575
g13
VVBG
p576
sbatp577
Rp578
(dp579
g13
VVP
p580
sbatp581
Rp582
(dp583
g13
VVP
p584
sbag0
(g1
g2
(lp585
V.
p586
atp587
Rp588
(dp589
g13
V.
p590
sbatp591
Rp592
(dp593
g13
VS
p594
sbatp595
Rp596
(dp597
g13
S'id: 4'
p598
sbag0
(g1
g2
(lp599
g0
(g1
g2
(lp600
g0
(g1
g2
(lp601
VThe
p602
atp603
Rp604
(dp605
g13
VDT
p606
sbag0
(g1
g2
(lp607
Vring
p608
atp609
Rp610
(dp611
g13
VNN
p612
sbag0
(g1
g2
(lp613
V.
p614
atp615
Rp616
(dp617
g13
V.
p618
sbatp619
Rp620
(dp621
g13
VNP
p622
sbatp623
Rp624
(dp625
g13
S'id: 5'
p626
sbag0
(g1
g2
(lp627
g0
(g1
g2
(lp628
g0
(g1
g2
(lp629
VThe
p630
atp631
Rp632
(dp633
g13
VDT
p634
sbag0
(g1
g2
(lp635
Vmass
p636
atp637
Rp638
(dp639
g13
VNN
p640
sbag0
(g1
g2
(lp641
V.
p642
atp643
Rp644
(dp645
g13
V.
p646
sbatp647
Rp648
(dp649
g13
VNP
p650
sbatp651
Rp652
(dp653
g13
S'id: 6'
p654
sbag0
(g1
g2
(lp655
g0
(g1
g2
(lp656
g0
(g1
g2
(lp657
g0
(g1
g2
(lp658
VThe
p659
atp660
Rp661
(dp662
g13
VDT
p663
sbag0
(g1
g2
(lp664
Vlion
p665
atp666
Rp667
(dp668
g13
VNN
p669
sbatp670
Rp671
(dp672
g13
VNP
p673
sbag0
(g1
g2
(lp674
V,
p675
atp676
Rp677
(dp678
g13
V,
p679
sbag0
(g1
g2
(lp680
g0
(g1
g2
(lp681
g0
(g1
g2
(lp682
Vis
p683
atp684
Rp685
(dp686
g13
VVBZ
p687
sbag0
(g1
g2
(lp688
g0
(g1
g2
(lp689
Vis
p690
atp691
Rp692
(dp693
g13
VVBZ
p694
sbatp695
Rp696
(dp697
g13
VVP
p698
sbatp699
Rp700
(dp701
g13
VVP
p702
sbatp703
Rp704
(dp705
g13
VS
p706
sbag0
(g1
g2
(lp707
V,
p708
atp709
Rp710
(dp711
g13
V,
p712
sbag0
(g1
g2
(lp713
g0
(g1
g2
(lp714
Va
p715
atp716
Rp717
(dp718
g13
VDT
p719
sbag0
(g1
g2
(lp720
Vlion
p721
atp722
Rp723
(dp724
g13
VNN
p725
sbatp726
Rp727
(dp728
g13
VNP
p729
sbag0
(g1
g2
(lp730
g0
(g1
g2
(lp731
Vis
p732
atp733
Rp734
(dp735
g13
VVBZ
p736
sbag0
(g1
g2
(lp737
g0
(g1
g2
(lp738
Vsitting
p739
atp740
Rp741
(dp742
g13
VVBG
p743
sbag0
(g1
g2
(lp744
g0
(g1
g2
(lp745
Vto
p746
atp747
Rp748
(dp749
g13
VTO
p750
sbag0
(g1
g2
(lp751
g0
(g1
g2
(lp752
Vthe
p753
atp754
Rp755
(dp756
g13
VDT
p757
sbag0
(g1
g2
(lp758
Vring
p759
atp760
Rp761
(dp762
g13
VNN
p763
sbag0
(g1
g2
(lp764
Vmaster
p765
atp766
Rp767
(dp768
g13
VNN
p769
sbatp770
Rp771
(dp772
g13
VNP
p773
sbatp774
Rp775
(dp776
g13
VPP
p777
sbatp778
Rp779
(dp780
g13
VVP
p781
sbatp782
Rp783
(dp784
g13
VVP
p785
sbag0
(g1
g2
(lp786
V.
p787
atp788
Rp789
(dp790
g13
V.
p791
sbatp792
Rp793
(dp794
g13
VS
p795
sbatp796
Rp797
(dp798
g13
S'id: 7'
p799
sbag0
(g1
g2
(lp800
g0
(g1
g2
(lp801
g0
(g1
g2
(lp802
g0
(g1
g2
(lp803
VAnd
p804
atp805
Rp806
(dp807
g13
VCC
p808
sbatp809
Rp810
(dp811
g13
VVP
p812
sbag0
(g1
g2
(lp813
V.
p814
atp815
Rp816
(dp817
g13
V.
p818
sbatp819
Rp820
(dp821
g13
VS
p822
sbatp823
Rp824
(dp825
g13
S'id: 8'
p826
sbag0
(g1
g2
(lp827
g0
(g1
g2
(lp828
g0
(g1
g2
(lp829
g0
(g1
g2
(lp830
g0
(g1
g2
(lp831
VThe
p832
atp833
Rp834
(dp835
g13
VDT
p836
sbatp837
Rp838
(dp839
g13
VWHNP
p840
sbag0
(g1
g2
(lp841
g0
(g1
g2
(lp842
g0
(g1
g2
(lp843
Vriding
p844
atp845
Rp846
(dp847
g13
VVBG
p848
sbatp849
Rp850
(dp851
g13
VVP
p852
sbatp853
Rp854
(dp855
g13
VS
p856
sbatp857
Rp858
(dp859
g13
VSBAR
p860
sbag0
(g1
g2
(lp861
V,
p862
atp863
Rp864
(dp865
g13
V,
p866
sbag0
(g1
g2
(lp867
g0
(g1
g2
(lp868
Va
p869
atp870
Rp871
(dp872
g13
VDT
p873
sbag0
(g1
g2
(lp874
Vtype
p875
atp876
Rp877
(dp878
g13
VNN
p879
sbatp880
Rp881
(dp882
g13
VNP
p883
sbag0
(g1
g2
(lp884
g0
(g1
g2
(lp885
Vwrite
p886
atp887
Rp888
(dp889
g13
VVB
p890
sbatp891
Rp892
(dp893
g13
VVP
p894
sbag0
(g1
g2
(lp895
V.
p896
atp897
Rp898
(dp899
g13
V.
p900
sbatp901
Rp902
(dp903
g13
VS
p904
sbatp905
Rp906
(dp907
g13
S'id: 9'
p908
sbag0
(g1
g2
(lp909
g0
(g1
g2
(lp910
g0
(g1
g2
(lp911
g0
(g1
g2
(lp912
VRiding
p913
atp914
Rp915
(dp916
g13
VVBG
p917
sbag0
(g1
g2
(lp918
g0
(g1
g2
(lp919
Va
p920
atp921
Rp922
(dp923
g13
VDT
p924
sbag0
(g1
g2
(lp925
Vthe
p926
atp927
Rp928
(dp929
g13
VDT
p930
sbag0
(g1
g2
(lp931
Vwalk
p932
atp933
Rp934
(dp935
g13
VNN
p936
sbatp937
Rp938
(dp939
g13
VNP
p940
sbatp941
Rp942
(dp943
g13
VVP
p944
sbag0
(g1
g2
(lp945
V.
p946
atp947
Rp948
(dp949
g13
V.
p950
sbatp951
Rp952
(dp953
g13
VS
p954
sbatp955
Rp956
(dp957
g13
S'id: 10'
p958
sbag0
(g1
g2
(lp959
g0
(g1
g2
(lp960
g0
(g1
g2
(lp961
g0
(g1
g2
(lp962
VThe
p963
atp964
Rp965
(dp966
g13
VDT
p967
sbag0
(g1
g2
(lp968
Vtype
p969
atp970
Rp971
(dp972
g13
VNN
p973
sbatp974
Rp975
(dp976
g13
VNP
p977
sbag0
(g1
g2
(lp978
V,
p979
atp980
Rp981
(dp982
g13
V,
p983
sbag0
(g1
g2
(lp984
g0
(g1
g2
(lp985
Vthe
p986
atp987
Rp988
(dp989
g13
VDT
p990
sbag0
(g1
g2
(lp991
Vtight
p992
atp993
Rp994
(dp995
g13
VJJ
p996
sbag0
(g1
g2
(lp997
Vwire
p998
atp999
Rp1000
(dp1001
g13
VNN
p1002
sbatp1003
Rp1004
(dp1005
g13
VNP
p1006
sbag0
(g1
g2
(lp1007
V,
p1008
atp1009
Rp1010
(dp1011
g13
V,
p1012
sbag0
(g1
g2
(lp1013
g0
(g1
g2
(lp1014
Vbalancing
p1015
atp1016
Rp1017
(dp1018
g13
VNN
p1019
sbatp1020
Rp1021
(dp1022
g13
VNP
p1023
sbag0
(g1
g2
(lp1024
V,
p1025
atp1026
Rp1027
(dp1028
g13
V,
p1029
sbag0
(g1
g2
(lp1030
g0
(g1
g2
(lp1031
g0
(g1
g2
(lp1032
Vthe
p1033
atp1034
Rp1035
(dp1036
g13
VDT
p1037
sbatp1038
Rp1039
(dp1040
g13
VNP
p1041
sbag0
(g1
g2
(lp1042
g0
(g1
g2
(lp1043
Vbalancing
p1044
atp1045
Rp1046
(dp1047
g13
VVBG
p1048
sbag0
(g1
g2
(lp1049
g0
(g1
g2
(lp1050
Vthe
p1051
atp1052
Rp1053
(dp1054
g13
VDT
p1055
sbag0
(g1
g2
(lp1056
Vperson
p1057
atp1058
Rp1059
(dp1060
g13
VNN
p1061
sbatp1062
Rp1063
(dp1064
g13
VNP
p1065
sbatp1066
Rp1067
(dp1068
g13
VVP
p1069
sbatp1070
Rp1071
(dp1072
g13
VS
p1073
sbag0
(g1
g2
(lp1074
V.
p1075
atp1076
Rp1077
(dp1078
g13
V.
p1079
sbatp1080
Rp1081
(dp1082
g13
VNP
p1083
sbatp1084
Rp1085
(dp1086
g13
S'id: 11'
p1087
sbatp1088
Rp1089
(dp1090
g13
S'sentences'
p1091
sb.