ccopy_reg
_reconstructor
p0
(cnltk.tree
Tree
p1
c__builtin__
list
p2
(lp3
g0
(g1
g2
(lp4
g0
(g1
g2
(lp5
g0
(g1
g2
(lp6
(lp7
S'word: girl, index: 3'
p8
aatp9
Rp10
(dp11
S'_label'
p12
Vconj
p13
sbatp14
Rp15
(dp16
g12
S'word: Boy, index: 1'
p17
sbatp18
Rp19
(dp20
g12
S'id: 0'
p21
sbag0
(g1
g2
(lp22
tp23
Rp24
(dp25
g12
S'id: 1'
p26
sbag0
(g1
g2
(lp27
g0
(g1
g2
(lp28
g0
(g1
g2
(lp29
(lp30
S'word: peh, index: 3'
p31
aatp32
Rp33
(dp34
g12
Vappos
p35
sbatp36
Rp37
(dp38
g12
S'word: pet, index: 1'
p39
sbatp40
Rp41
(dp42
g12
S'id: 2'
p43
sbag0
(g1
g2
(lp44
g0
(g1
g2
(lp45
g0
(g1
g2
(lp46
(lp47
S'word: dog, index: 3'
p48
aatp49
Rp50
(dp51
g12
Vappos
p52
sbatp53
Rp54
(dp55
g12
S'word: Dog, index: 1'
p56
sbatp57
Rp58
(dp59
g12
S'id: 3'
p60
sbag0
(g1
g2
(lp61
g0
(g1
g2
(lp62
g0
(g1
g2
(lp63
(lp64
S'word: girl, index: 3'
p65
aatp66
Rp67
(dp68
g12
Vconj
p69
sbatp70
Rp71
(dp72
g12
S'word: Boy, index: 1'
p73
sbatp74
Rp75
(dp76
g12
S'id: 4'
p77
sbag0
(g1
g2
(lp78
g0
(g1
g2
(lp79
g0
(g1
g2
(lp80
(lp81
S'word: No, index: 1'
p82
aatp83
Rp84
(dp85
g12
Vnsubj
p86
sbatp87
Rp88
(dp89
g12
S'word: plied, index: 3'
p90
sbatp91
Rp92
(dp93
g12
S'id: 5'
p94
sbag0
(g1
g2
(lp95
g0
(g1
g2
(lp96
g0
(g1
g2
(lp97
(lp98
S'word: No, index: 1'
p99
aatp100
Rp101
(dp102
g12
Vnsubj
p103
sbatp104
Rp105
(dp106
g12
S'word: plied, index: 3'
p107
sbatp108
Rp109
(dp110
g12
S'id: 6'
p111
sbag0
(g1
g2
(lp112
g0
(g1
g2
(lp113
g0
(g1
g2
(lp114
g0
(g1
g2
(lp115
g0
(g1
g2
(lp116
(lp117
S'word: black, index: 5'
p118
aatp119
Rp120
(dp121
g12
Vamod
p122
sbag0
(g1
g2
(lp123
(lp124
S'word: black, index: 7'
p125
aatp126
Rp127
(dp128
g12
Vamod
p129
sbatp130
Rp131
(dp132
g12
S'word: black, index: 9'
p133
sbatp134
Rp135
(dp136
g12
Vamod
p137
sbag0
(g1
g2
(lp138
(lp139
S'word: no, index: 3'
p140
aatp141
Rp142
(dp143
g12
Vappos
p144
sbatp145
Rp146
(dp147
g12
S'word: No, index: 1'
p148
sbatp149
Rp150
(dp151
g12
S'id: 7'
p152
sbag0
(g1
g2
(lp153
g0
(g1
g2
(lp154
g0
(g1
g2
(lp155
(lp156
S'word: car, index: 3'
p157
aatp158
Rp159
(dp160
g12
Vappos
p161
sbatp162
Rp163
(dp164
g12
S'word: Car, index: 1'
p165
sbatp166
Rp167
(dp168
g12
S'id: 8'
p169
sbag0
(g1
g2
(lp170
g0
(g1
g2
(lp171
g0
(g1
g2
(lp172
(lp173
S'word: house, index: 3'
p174
aatp175
Rp176
(dp177
g12
Vappos
p178
sbatp179
Rp180
(dp181
g12
S'word: House, index: 1'
p182
sbatp183
Rp184
(dp185
g12
S'id: 9'
p186
sbag0
(g1
g2
(lp187
g0
(g1
g2
(lp188
g0
(g1
g2
(lp189
g0
(g1
g2
(lp190
g0
(g1
g2
(lp191
(lp192
S'word: two, index: 14'
p193
aatp194
Rp195
(dp196
g12
Vnum
p197
sbatp198
Rp199
(dp200
g12
S'word: boys, index: 15'
p201
sbatp202
Rp203
(dp204
g12
Vconj
p205
sbag0
(g1
g2
(lp206
(lp207
S'word: boat, index: 3'
p208
aatp209
Rp210
(dp211
g12
Vconj
p212
sbag0
(g1
g2
(lp213
(lp214
S'word: boat, index: 5'
p215
aatp216
Rp217
(dp218
g12
Vconj
p219
sbag0
(g1
g2
(lp220
g0
(g1
g2
(lp221
g0
(g1
g2
(lp222
(lp223
S'word: two, index: 10'
p224
aatp225
Rp226
(dp227
g12
Vamod
p228
sbatp229
Rp230
(dp231
g12
S'word: one, index: 8'
p232
sbatp233
Rp234
(dp235
g12
Vconj
p236
sbag0
(g1
g2
(lp237
(lp238
S'word: two, index: 12'
p239
aatp240
Rp241
(dp242
g12
Vconj
p243
sbatp244
Rp245
(dp246
g12
S'word: Boat, index: 1'
p247
sbatp248
Rp249
(dp250
g12
S'id: 10'
p251
sbag0
(g1
g2
(lp252
g0
(g1
g2
(lp253
g0
(g1
g2
(lp254
(lp255
S'word: No, index: 1'
p256
aatp257
Rp258
(dp259
g12
Vneg
p260
sbag0
(g1
g2
(lp261
(lp262
S'word: two, index: 4'
p263
aatp264
Rp265
(dp266
g12
Vamod
p267
sbag0
(g1
g2
(lp268
(lp269
S'word: person, index: 6'
p270
aatp271
Rp272
(dp273
g12
Vappos
p274
sbag0
(g1
g2
(lp275
(lp276
S'word: person, index: 8'
p277
aatp278
Rp279
(dp280
g12
Vappos
p281
sbatp282
Rp283
(dp284
g12
S'word: two, index: 2'
p285
sbatp286
Rp287
(dp288
g12
S'id: 11'
p289
sbag0
(g1
g2
(lp290
g0
(g1
g2
(lp291
g0
(g1
g2
(lp292
(lp293
S'word: lake, index: 3'
p294
aatp295
Rp296
(dp297
g12
Vappos
p298
sbatp299
Rp300
(dp301
g12
S'word: Lake, index: 1'
p302
sbatp303
Rp304
(dp305
g12
S'id: 12'
p306
sbatp307
Rp308
(dp309
g12
S'sentences'
p310
sb.