ccopy_reg
_reconstructor
p0
(cnltk.tree
Tree
p1
c__builtin__
list
p2
(lp3
g0
(g1
g2
(lp4
g0
(g1
g2
(lp5
g0
(g1
g2
(lp6
(lp7
S'word: this, index: 1'
p8
aatp9
Rp10
(dp11
S'_label'
p12
Vnsubj
p13
sbag0
(g1
g2
(lp14
g0
(g1
g2
(lp15
g0
(g1
g2
(lp16
(lp17
S'word: a, index: 4'
p18
aatp19
Rp20
(dp21
g12
Vdet
p22
sbatp23
Rp24
(dp25
g12
S'word: circus, index: 5'
p26
sbatp27
Rp28
(dp29
g12
Vprep
p30
sbatp31
Rp32
(dp33
g12
S'word: looks, index: 2'
p34
sbatp35
Rp36
(dp37
g12
S'id: 0'
p38
sbag0
(g1
g2
(lp39
g0
(g1
g2
(lp40
g0
(g1
g2
(lp41
g0
(g1
g2
(lp42
g0
(g1
g2
(lp43
g0
(g1
g2
(lp44
g0
(g1
g2
(lp45
(lp46
S'word: a, index: 5'
p47
aatp48
Rp49
(dp50
g12
Vdet
p51
sbag0
(g1
g2
(lp52
(lp53
S'word: high, index: 6'
p54
aatp55
Rp56
(dp57
g12
Vamod
p58
sbag0
(g1
g2
(lp59
(lp60
S'word: wire, index: 7'
p61
aatp62
Rp63
(dp64
g12
Vnn
p65
sbatp66
Rp67
(dp68
g12
S'word: act, index: 8'
p69
sbatp70
Rp71
(dp72
g12
Vappos
p73
sbag0
(g1
g2
(lp74
g0
(g1
g2
(lp75
g0
(g1
g2
(lp76
(lp77
S'word: whatever, index: 38'
p78
aatp79
Rp80
(dp81
g12
Vprep
p82
sbag0
(g1
g2
(lp83
g0
(g1
g2
(lp84
g0
(g1
g2
(lp85
(lp86
S'word: the, index: 39'
p87
aatp88
Rp89
(dp90
g12
Vdet
p91
sbatp92
Rp93
(dp94
g12
S'word: clown, index: 40'
p95
sbatp96
Rp97
(dp98
g12
Vnsubj
p99
sbatp100
Rp101
(dp102
g12
S'word: has, index: 41'
p103
sbatp104
Rp105
(dp106
g12
Vrcmod
p107
sbag0
(g1
g2
(lp108
g0
(g1
g2
(lp109
g0
(g1
g2
(lp110
(lp111
S'word: a, index: 10'
p112
aatp113
Rp114
(dp115
g12
Vdet
p116
sbatp117
Rp118
(dp119
g12
S'word: clown, index: 11'
p120
sbatp121
Rp122
(dp123
g12
Vappos
p124
sbag0
(g1
g2
(lp125
g0
(g1
g2
(lp126
g0
(g1
g2
(lp127
g0
(g1
g2
(lp128
g0
(g1
g2
(lp129
g0
(g1
g2
(lp130
g0
(g1
g2
(lp131
g0
(g1
g2
(lp132
g0
(g1
g2
(lp133
(lp134
S'word: the, index: 21'
p135
aatp136
Rp137
(dp138
g12
Vdet
p139
sbatp140
Rp141
(dp142
g12
S'word: lion, index: 22'
p143
sbatp144
Rp145
(dp146
g12
Vpobj
p147
sbag0
(g1
g2
(lp148
g0
(g1
g2
(lp149
g0
(g1
g2
(lp150
g0
(g1
g2
(lp151
g0
(g1
g2
(lp152
(lp153
S'word: there, index: 34'
p154
aatp155
Rp156
(dp157
g12
Vexpl
p158
sbatp159
Rp160
(dp161
g12
S'word: reaching, index: 35'
p162
sbatp163
Rp164
(dp165
g12
Vprepc
p166
sbag0
(g1
g2
(lp167
g0
(g1
g2
(lp168
g0
(g1
g2
(lp169
(lp170
S'word: some, index: 27'
p171
aatp172
Rp173
(dp174
g12
Vdet
p175
sbag0
(g1
g2
(lp176
(lp177
S'word: two, index: 28'
p178
aatp179
Rp180
(dp181
g12
Vnum
p182
sbag0
(g1
g2
(lp183
g0
(g1
g2
(lp184
g0
(g1
g2
(lp185
(lp186
S'word: a, index: 31'
p187
aatp188
Rp189
(dp190
g12
Vdet
p191
sbatp192
Rp193
(dp194
g12
S'word: boy, index: 32'
p195
sbatp196
Rp197
(dp198
g12
Vconj
p199
sbatp200
Rp201
(dp202
g12
S'word: girls, index: 29'
p203
sbatp204
Rp205
(dp206
g12
Vprep
p207
sbag0
(g1
g2
(lp208
g193
atp209
Rp210
(dp211
g12
Vprep
p212
sbatp213
Rp214
(dp215
g12
S'word: looks, index: 25'
p216
sbatp217
Rp218
(dp219
g12
Vconj
p220
sbatp221
Rp222
(dp223
g12
S'word: with, index: 20'
p224
sbatp225
Rp226
(dp227
g12
Vdep
p228
sbag0
(g1
g2
(lp229
g214
atp230
Rp231
(dp232
g12
Vdep
p233
sbag0
(g1
g2
(lp234
g0
(g1
g2
(lp235
g0
(g1
g2
(lp236
(lp237
S'word: a, index: 16'
p238
aatp239
Rp240
(dp241
g12
Vdet
p242
sbatp243
Rp244
(dp245
g12
S'word: cage, index: 17'
p246
sbatp247
Rp248
(dp249
g12
Vprep
p250
sbatp251
Rp252
(dp253
g12
S'word: in, index: 19'
p254
sbatp255
Rp256
(dp257
g12
Vrcmod
p258
sbag0
(g1
g2
(lp259
(lp260
S'word: a, index: 13'
p261
aatp262
Rp263
(dp264
g12
Vdet
p265
sbatp266
Rp267
(dp268
g12
S'word: guy, index: 14'
p269
sbatp270
Rp271
(dp272
g12
Vappos
p273
sbag0
(g1
g2
(lp274
(lp275
S'word: a, index: 2'
p276
aatp277
Rp278
(dp279
g12
Vdet
p280
sbatp281
Rp282
(dp283
g12
S'word: lion, index: 3'
p284
sbatp285
Rp286
(dp287
g12
Vdobj
p288
sbatp289
Rp290
(dp291
g12
S'word: See, index: 1'
p292
sbatp293
Rp294
(dp295
g12
S'id: 1'
p296
sbag0
(g1
g2
(lp297
g0
(g1
g2
(lp298
g0
(g1
g2
(lp299
(lp300
S'word: And, index: 1'
p301
aatp302
Rp303
(dp304
g12
Vcc
p305
sbag0
(g1
g2
(lp306
(lp307
S'word: then, index: 2'
p308
aatp309
Rp310
(dp311
g12
Vadvmod
p312
sbag0
(g1
g2
(lp313
(lp314
S'word: you, index: 3'
p315
aatp316
Rp317
(dp318
g12
Vnsubj
p319
sbag0
(g1
g2
(lp320
g0
(g1
g2
(lp321
g0
(g1
g2
(lp322
g0
(g1
g2
(lp323
g0
(g1
g2
(lp324
g0
(g1
g2
(lp325
g0
(g1
g2
(lp326
(lp327
S'word: a, index: 7'
p328
aatp329
Rp330
(dp331
g12
Vdet
p332
sbatp333
Rp334
(dp335
g12
S'word: horse, index: 8'
p336
sbatp337
Rp338
(dp339
g12
Vdobj
p340
sbag0
(g1
g2
(lp341
g0
(g1
g2
(lp342
g0
(g1
g2
(lp343
(lp344
S'word: here, index: 10'
p345
aatp346
Rp347
(dp348
g12
Vadvmod
p349
sbag0
(g1
g2
(lp350
g0
(g1
g2
(lp351
g0
(g1
g2
(lp352
(lp353
S'word: some, index: 12'
p354
aatp355
Rp356
(dp357
g12
Vdet
p358
sbag0
(g1
g2
(lp359
g0
(g1
g2
(lp360
g0
(g1
g2
(lp361
(lp362
S'word: a, index: 15'
p363
aatp364
Rp365
(dp366
g12
Vdet
p367
sbatp368
Rp369
(dp370
g12
S'word: trick, index: 16'
p371
sbatp372
Rp373
(dp374
g12
Vprep
p375
sbatp376
Rp377
(dp378
g12
S'word: kind, index: 13'
p379
sbatp380
Rp381
(dp382
g12
Vdobj
p383
sbatp384
Rp385
(dp386
g12
S'word: doing, index: 11'
p387
sbatp388
Rp389
(dp390
g12
Vprepc
p391
sbatp392
Rp393
(dp394
g12
S'word: riding, index: 6'
p395
sbatp396
Rp397
(dp398
g12
Vvmod
p399
sbatp400
Rp401
(dp402
g12
S'word: someone, index: 5'
p403
sbatp404
Rp405
(dp406
g12
Vdobj
p407
sbatp408
Rp409
(dp410
g12
S'word: have, index: 4'
p411
sbatp412
Rp413
(dp414
g12
S'id: 2'
p415
sbag0
(g1
g2
(lp416
g0
(g1
g2
(lp417
g0
(g1
g2
(lp418
(lp419
S'word: ca, index: 10'
p420
aatp421
Rp422
(dp423
g12
Vaux
p424
sbag0
(g1
g2
(lp425
(lp426
S"word: n't, index: 11"
p427
aatp428
Rp429
(dp430
g12
Vneg
p431
sbag0
(g1
g2
(lp432
(lp433
S'word: really, index: 12'
p434
aatp435
Rp436
(dp437
g12
Vadvmod
p438
sbag0
(g1
g2
(lp439
(lp440
S'word: them, index: 14'
p441
aatp442
Rp443
(dp444
g12
Vnsubj
p445
sbag0
(g1
g2
(lp446
g0
(g1
g2
(lp447
g0
(g1
g2
(lp448
(lp449
S'word: And, index: 1'
p450
aatp451
Rp452
(dp453
g12
Vcc
p454
sbag0
(g1
g2
(lp455
(lp456
S'word: then, index: 2'
p457
aatp458
Rp459
(dp460
g12
Vadvmod
p461
sbag0
(g1
g2
(lp462
(lp463
S'word: I, index: 3'
p464
aatp465
Rp466
(dp467
g12
Vnsubj
p468
sbag0
(g1
g2
(lp469
g0
(g1
g2
(lp470
g0
(g1
g2
(lp471
(lp472
S'word: other, index: 5'
p473
aatp474
Rp475
(dp476
g12
Vamod
p477
sbag0
(g1
g2
(lp478
(lp479
S'word: silhouette, index: 8'
p480
aatp481
Rp482
(dp483
g12
Vprep
p484
sbatp485
Rp486
(dp487
g12
S'word: people, index: 6'
p488
sbatp489
Rp490
(dp491
g12
Vdobj
p492
sbatp493
Rp494
(dp495
g12
S'word: see, index: 4'
p496
sbatp497
Rp498
(dp499
g12
Vccomp
p500
sbatp501
Rp502
(dp503
g12
S'word: see, index: 13'
p504
sbatp505
Rp506
(dp507
g12
S'id: 3'
p508
sbag0
(g1
g2
(lp509
g0
(g1
g2
(lp510
g0
(g1
g2
(lp511
(lp512
S'word: And, index: 1'
p513
aatp514
Rp515
(dp516
g12
Vcc
p517
sbag0
(g1
g2
(lp518
(lp519
S'word: that, index: 2'
p520
aatp521
Rp522
(dp523
g12
Vnsubj
p524
sbag0
(g1
g2
(lp525
g0
(g1
g2
(lp526
g0
(g1
g2
(lp527
(lp528
S'word: like, index: 4'
p529
aatp530
Rp531
(dp532
g12
Vmark
p533
sbag0
(g1
g2
(lp534
(lp535
S'word: I, index: 5'
p536
aatp537
Rp538
(dp539
g12
Vnsubj
p540
sbag0
(g1
g2
(lp541
g0
(g1
g2
(lp542
g0
(g1
g2
(lp543
(lp544
S'word: a, index: 7'
p545
aatp546
Rp547
(dp548
g12
Vdet
p549
sbatp550
Rp551
(dp552
g12
S'word: pool, index: 8'
p553
sbatp554
Rp555
(dp556
g12
Vdobj
p557
sbatp558
Rp559
(dp560
g12
S'word: guess, index: 6'
p561
sbatp562
Rp563
(dp564
g12
Vadvcl
p565
sbatp566
Rp567
(dp568
g12
S'word: looks, index: 3'
p569
sbatp570
Rp571
(dp572
g12
S'id: 4'
p573
sbag0
(g1
g2
(lp574
g0
(g1
g2
(lp575
g0
(g1
g2
(lp576
g0
(g1
g2
(lp577
g0
(g1
g2
(lp578
g0
(g1
g2
(lp579
g0
(g1
g2
(lp580
(lp581
S'word: the, index: 4'
p582
aatp583
Rp584
(dp585
g12
Vdet
p586
sbag0
(g1
g2
(lp587
g0
(g1
g2
(lp588
g0
(g1
g2
(lp589
(lp590
S'word: the, index: 7'
p591
aatp592
Rp593
(dp594
g12
Vdet
p595
sbatp596
Rp597
(dp598
g12
S'word: pool, index: 8'
p599
sbatp600
Rp601
(dp602
g12
Vprep
p603
sbatp604
Rp605
(dp606
g12
S'word: side, index: 5'
p607
sbatp608
Rp609
(dp610
g12
Vprep
p611
sbatp612
Rp613
(dp614
g12
S'word: stars, index: 2'
p615
sbatp616
Rp617
(dp618
g12
Vpobj
p619
sbatp620
Rp621
(dp622
g12
S'word: With, index: 1'
p623
sbatp624
Rp625
(dp626
g12
S'id: 5'
p627
sbag0
(g1
g2
(lp628
g0
(g1
g2
(lp629
g0
(g1
g2
(lp630
g0
(g1
g2
(lp631
g0
(g1
g2
(lp632
(lp633
S'word: the, index: 3'
p634
aatp635
Rp636
(dp637
g12
Vdet
p638
sbag0
(g1
g2
(lp639
(lp640
S'word: high, index: 4'
p641
aatp642
Rp643
(dp644
g12
Vamod
p645
sbag0
(g1
g2
(lp646
(lp647
S'word: wire, index: 5'
p648
aatp649
Rp650
(dp651
g12
Vnn
p652
sbag0
(g1
g2
(lp653
(lp654
S'word: right, index: 8'
p655
aatp656
Rp657
(dp658
g12
Vappos
p659
sbatp660
Rp661
(dp662
g12
S'word: act, index: 6'
p663
sbatp664
Rp665
(dp666
g12
Vdobj
p667
sbag0
(g1
g2
(lp668
(lp669
S'word: I, index: 1'
p670
aatp671
Rp672
(dp673
g12
Vnsubj
p674
sbatp675
Rp676
(dp677
g12
S'word: said, index: 2'
p678
sbatp679
Rp680
(dp681
g12
S'id: 6'
p682
sbatp683
Rp684
(dp685
g12
S'sentences'
p686
sb.