ccopy_reg
_reconstructor
p0
(cnltk.tree
Tree
p1
c__builtin__
list
p2
(lp3
g0
(g1
g2
(lp4
g0
(g1
g2
(lp5
g0
(g1
g2
(lp6
g0
(g1
g2
(lp7
Vwell
p8
atp9
Rp10
(dp11
S'_label'
p12
VRB
p13
sbatp14
Rp15
(dp16
g12
VADVP
p17
sbag0
(g1
g2
(lp18
V.
p19
atp20
Rp21
(dp22
g12
V.
p23
sbatp24
Rp25
(dp26
g12
VFRAG
p27
sbatp28
Rp29
(dp30
g12
S'id: 0'
p31
sbag0
(g1
g2
(lp32
g0
(g1
g2
(lp33
g0
(g1
g2
(lp34
g0
(g1
g2
(lp35
VTotally
p36
atp37
Rp38
(dp39
g12
VRB
p40
sbatp41
Rp42
(dp43
g12
VADVP
p44
sbag0
(g1
g2
(lp45
V,
p46
atp47
Rp48
(dp49
g12
V,
p50
sbag0
(g1
g2
(lp51
g0
(g1
g2
(lp52
g0
(g1
g2
(lp53
Vlion
p54
atp55
Rp56
(dp57
g12
VNN
p58
sbatp59
Rp60
(dp61
g12
VNP
p62
sbag0
(g1
g2
(lp63
V,
p64
atp65
Rp66
(dp67
g12
V,
p68
sbag0
(g1
g2
(lp69
Vand
p70
atp71
Rp72
(dp73
g12
VCC
p74
sbag0
(g1
g2
(lp75
g0
(g1
g2
(lp76
Vthe
p77
atp78
Rp79
(dp80
g12
VDT
p81
sbag0
(g1
g2
(lp82
Vman
p83
atp84
Rp85
(dp86
g12
VNN
p87
sbatp88
Rp89
(dp90
g12
VNP
p91
sbatp92
Rp93
(dp94
g12
VNP
p95
sbag0
(g1
g2
(lp96
g0
(g1
g2
(lp97
Vis
p98
atp99
Rp100
(dp101
g12
VVBZ
p102
sbatp103
Rp104
(dp105
g12
VVP
p106
sbag0
(g1
g2
(lp107
V.
p108
atp109
Rp110
(dp111
g12
V.
p112
sbatp113
Rp114
(dp115
g12
VS
p116
sbatp117
Rp118
(dp119
g12
S'id: 1'
p120
sbag0
(g1
g2
(lp121
g0
(g1
g2
(lp122
g0
(g1
g2
(lp123
g0
(g1
g2
(lp124
VThe
p125
atp126
Rp127
(dp128
g12
VDT
p129
sbag0
(g1
g2
(lp130
Vman
p131
atp132
Rp133
(dp134
g12
VNN
p135
sbatp136
Rp137
(dp138
g12
VNP
p139
sbag0
(g1
g2
(lp140
g0
(g1
g2
(lp141
Vis
p142
atp143
Rp144
(dp145
g12
VVBZ
p146
sbag0
(g1
g2
(lp147
g0
(g1
g2
(lp148
Vthe
p149
atp150
Rp151
(dp152
g12
VDT
p153
sbag0
(g1
g2
(lp154
Vbleeding
p155
atp156
Rp157
(dp158
g12
VNN
p159
sbatp160
Rp161
(dp162
g12
VNP
p163
sbatp164
Rp165
(dp166
g12
VVP
p167
sbag0
(g1
g2
(lp168
V.
p169
atp170
Rp171
(dp172
g12
V.
p173
sbatp174
Rp175
(dp176
g12
VS
p177
sbatp178
Rp179
(dp180
g12
S'id: 2'
p181
sbag0
(g1
g2
(lp182
g0
(g1
g2
(lp183
g0
(g1
g2
(lp184
g0
(g1
g2
(lp185
g0
(g1
g2
(lp186
VIt
p187
atp188
Rp189
(dp190
g12
VPRP
p191
sbatp192
Rp193
(dp194
g12
VNP
p195
sbag0
(g1
g2
(lp196
g0
(g1
g2
(lp197
Vso
p198
atp199
Rp200
(dp201
g12
VRB
p202
sbatp203
Rp204
(dp205
g12
VADVP
p206
sbatp207
Rp208
(dp209
g12
VS
p210
sbag0
(g1
g2
(lp211
V,
p212
atp213
Rp214
(dp215
g12
V,
p216
sbag0
(g1
g2
(lp217
g0
(g1
g2
(lp218
g0
(g1
g2
(lp219
Vcorp
p220
atp221
Rp222
(dp223
g12
VNN
p224
sbatp225
Rp226
(dp227
g12
VNP
p228
sbag0
(g1
g2
(lp229
V,
p230
atp231
Rp232
(dp233
g12
V,
p234
sbag0
(g1
g2
(lp235
g0
(g1
g2
(lp236
g0
(g1
g2
(lp237
Vcor
p238
atp239
Rp240
(dp241
g12
VNN
p242
sbatp243
Rp244
(dp245
g12
VNP
p246
sbag0
(g1
g2
(lp247
V,
p248
atp249
Rp250
(dp251
g12
V,
p252
sbag0
(g1
g2
(lp253
g0
(g1
g2
(lp254
Vthe
p255
atp256
Rp257
(dp258
g12
VDT
p259
sbag0
(g1
g2
(lp260
Vman
p261
atp262
Rp263
(dp264
g12
VNN
p265
sbatp266
Rp267
(dp268
g12
VNP
p269
sbatp270
Rp271
(dp272
g12
VNP
p273
sbatp274
Rp275
(dp276
g12
VNP
p277
sbag0
(g1
g2
(lp278
g0
(g1
g2
(lp279
Vcrawls
p280
atp281
Rp282
(dp283
g12
VVBZ
p284
sbag0
(g1
g2
(lp285
g0
(g1
g2
(lp286
Vspee
p287
atp288
Rp289
(dp290
g12
VIN
p291
sbag0
(g1
g2
(lp292
g0
(g1
g2
(lp293
Vthe
p294
atp295
Rp296
(dp297
g12
VDT
p298
sbag0
(g1
g2
(lp299
Vbigit
p300
atp301
Rp302
(dp303
g12
VNN
p304
sbatp305
Rp306
(dp307
g12
VNP
p308
sbatp309
Rp310
(dp311
g12
VPP
p312
sbatp313
Rp314
(dp315
g12
VVP
p316
sbag0
(g1
g2
(lp317
V.
p318
atp319
Rp320
(dp321
g12
V.
p322
sbatp323
Rp324
(dp325
g12
VS
p326
sbatp327
Rp328
(dp329
g12
S'id: 3'
p330
sbag0
(g1
g2
(lp331
g0
(g1
g2
(lp332
g0
(g1
g2
(lp333
g0
(g1
g2
(lp334
g0
(g1
g2
(lp335
VI
p336
atp337
Rp338
(dp339
g12
VPRP
p340
sbatp341
Rp342
(dp343
g12
VNP
p344
sbag0
(g1
g2
(lp345
g0
(g1
g2
(lp346
Vsaw
p347
atp348
Rp349
(dp350
g12
VVBD
p351
sbag0
(g1
g2
(lp352
g0
(g1
g2
(lp353
g0
(g1
g2
(lp354
Va
p355
atp356
Rp357
(dp358
g12
VDT
p359
sbag0
(g1
g2
(lp360
Vman
p361
atp362
Rp363
(dp364
g12
VNN
p365
sbag0
(g1
g2
(lp366
Vand
p367
atp368
Rp369
(dp370
g12
VCC
p371
sbag0
(g1
g2
(lp372
Vgirl
p373
atp374
Rp375
(dp376
g12
VNN
p377
sbatp378
Rp379
(dp380
g12
VNP
p381
sbag0
(g1
g2
(lp382
V,
p383
atp384
Rp385
(dp386
g12
V,
p387
sbag0
(g1
g2
(lp388
Vand
p389
atp390
Rp391
(dp392
g12
VCC
p393
sbag0
(g1
g2
(lp394
g0
(g1
g2
(lp395
Vthe
p396
atp397
Rp398
(dp399
g12
VDT
p400
sbag0
(g1
g2
(lp401
Vman
p402
atp403
Rp404
(dp405
g12
VNN
p406
sbatp407
Rp408
(dp409
g12
VNP
p410
sbatp411
Rp412
(dp413
g12
VNP
p414
sbatp415
Rp416
(dp417
g12
VVP
p418
sbatp419
Rp420
(dp421
g12
VS
p422
sbag0
(g1
g2
(lp423
g0
(g1
g2
(lp424
Vis
p425
atp426
Rp427
(dp428
g12
VVBZ
p429
sbag0
(g1
g2
(lp430
g0
(g1
g2
(lp431
Vthere
p432
atp433
Rp434
(dp435
g12
VEX
p436
sbatp437
Rp438
(dp439
g12
VNP
p440
sbatp441
Rp442
(dp443
g12
VVP
p444
sbag0
(g1
g2
(lp445
g0
(g1
g2
(lp446
g0
(g1
g2
(lp447
Vdrinking
p448
atp449
Rp450
(dp451
g12
VNN
p452
sbatp453
Rp454
(dp455
g12
VNP
p456
sbag0
(g1
g2
(lp457
V,
p458
atp459
Rp460
(dp461
g12
V,
p462
sbag0
(g1
g2
(lp463
g0
(g1
g2
(lp464
Vhornt
p465
atp466
Rp467
(dp468
g12
VNN
p469
sbatp470
Rp471
(dp472
g12
VNP
p473
sbatp474
Rp475
(dp476
g12
VNP
p477
sbag0
(g1
g2
(lp478
V.
p479
atp480
Rp481
(dp482
g12
V.
p483
sbatp484
Rp485
(dp486
g12
VSINV
p487
sbatp488
Rp489
(dp490
g12
S'id: 4'
p491
sbag0
(g1
g2
(lp492
g0
(g1
g2
(lp493
g0
(g1
g2
(lp494
VAnd
p495
atp496
Rp497
(dp498
g12
VCC
p499
sbag0
(g1
g2
(lp500
g0
(g1
g2
(lp501
VI
p502
atp503
Rp504
(dp505
g12
VPRP
p506
sbatp507
Rp508
(dp509
g12
VNP
p510
sbag0
(g1
g2
(lp511
V,
p512
atp513
Rp514
(dp515
g12
V,
p516
sbag0
(g1
g2
(lp517
g0
(g1
g2
(lp518
Vso
p519
atp520
Rp521
(dp522
g12
VRB
p523
sbatp524
Rp525
(dp526
g12
VADVP
p527
sbag0
(g1
g2
(lp528
V,
p529
atp530
Rp531
(dp532
g12
V,
p533
sbag0
(g1
g2
(lp534
g0
(g1
g2
(lp535
g0
(g1
g2
(lp536
Vthaw
p537
atp538
Rp539
(dp540
g12
VNN
p541
sbatp542
Rp543
(dp544
g12
VNP
p545
sbag0
(g1
g2
(lp546
V,
p547
atp548
Rp549
(dp550
g12
V,
p551
sbag0
(g1
g2
(lp552
g0
(g1
g2
(lp553
Vman
p554
atp555
Rp556
(dp557
g12
VNN
p558
sbatp559
Rp560
(dp561
g12
VNP
p562
sbag0
(g1
g2
(lp563
Vand
p564
atp565
Rp566
(dp567
g12
VCC
p568
sbag0
(g1
g2
(lp569
g0
(g1
g2
(lp570
g0
(g1
g2
(lp571
Vgirl
p572
atp573
Rp574
(dp575
g12
VNN
p576
sbag0
(g1
g2
(lp577
Vand
p578
atp579
Rp580
(dp581
g12
VCC
p582
sbag0
(g1
g2
(lp583
Va
p584
atp585
Rp586
(dp587
g12
VDT
p588
sbatp589
Rp590
(dp591
g12
VNP
p592
sbag0
(g1
g2
(lp593
V,
p594
atp595
Rp596
(dp597
g12
V,
p598
sbag0
(g1
g2
(lp599
g0
(g1
g2
(lp600
Vblack
p601
atp602
Rp603
(dp604
g12
VJJ
p605
sbag0
(g1
g2
(lp606
V,
p607
atp608
Rp609
(dp610
g12
V,
p611
sbag0
(g1
g2
(lp612
Vberry
p613
atp614
Rp615
(dp616
g12
VJJ
p617
sbag0
(g1
g2
(lp618
Vberry
p619
atp620
Rp621
(dp622
g12
VNN
p623
sbag0
(g1
g2
(lp624
Vgary
p625
atp626
Rp627
(dp628
g12
VNN
p629
sbatp630
Rp631
(dp632
g12
VNP
p633
sbatp634
Rp635
(dp636
g12
VNP
p637
sbatp638
Rp639
(dp640
g12
VNP
p641
sbag0
(g1
g2
(lp642
g0
(g1
g2
(lp643
Vis
p644
atp645
Rp646
(dp647
g12
VVBZ
p648
sbag0
(g1
g2
(lp649
g0
(g1
g2
(lp650
Vgood
p651
atp652
Rp653
(dp654
g12
VJJ
p655
sbatp656
Rp657
(dp658
g12
VADJP
p659
sbatp660
Rp661
(dp662
g12
VVP
p663
sbag0
(g1
g2
(lp664
V.
p665
atp666
Rp667
(dp668
g12
V.
p669
sbatp670
Rp671
(dp672
g12
VS
p673
sbatp674
Rp675
(dp676
g12
S'id: 5'
p677
sbag0
(g1
g2
(lp678
g0
(g1
g2
(lp679
g0
(g1
g2
(lp680
VAnd
p681
atp682
Rp683
(dp684
g12
VCC
p685
sbag0
(g1
g2
(lp686
g0
(g1
g2
(lp687
Vman
p688
atp689
Rp690
(dp691
g12
VNN
p692
sbatp693
Rp694
(dp695
g12
VNP
p696
sbag0
(g1
g2
(lp697
g0
(g1
g2
(lp698
Vis
p699
atp700
Rp701
(dp702
g12
VVBZ
p703
sbag0
(g1
g2
(lp704
g0
(g1
g2
(lp705
Vdrinking
p706
atp707
Rp708
(dp709
g12
VVBG
p710
sbag0
(g1
g2
(lp711
g0
(g1
g2
(lp712
Vthe
p713
atp714
Rp715
(dp716
g12
VDT
p717
sbag0
(g1
g2
(lp718
Vshowder
p719
atp720
Rp721
(dp722
g12
VNN
p723
sbatp724
Rp725
(dp726
g12
VNP
p727
sbatp728
Rp729
(dp730
g12
VVP
p731
sbatp732
Rp733
(dp734
g12
VVP
p735
sbag0
(g1
g2
(lp736
V.
p737
atp738
Rp739
(dp740
g12
V.
p741
sbatp742
Rp743
(dp744
g12
VS
p745
sbatp746
Rp747
(dp748
g12
S'id: 6'
p749
sbag0
(g1
g2
(lp750
g0
(g1
g2
(lp751
g0
(g1
g2
(lp752
g0
(g1
g2
(lp753
g0
(g1
g2
(lp754
VClown
p755
atp756
Rp757
(dp758
g12
VNNP
p759
sbatp760
Rp761
(dp762
g12
VNP
p763
sbag0
(g1
g2
(lp764
Vand
p765
atp766
Rp767
(dp768
g12
VCC
p769
sbag0
(g1
g2
(lp770
g0
(g1
g2
(lp771
Vsomebody
p772
atp773
Rp774
(dp775
g12
VNN
p776
sbatp777
Rp778
(dp779
g12
VNP
p780
sbatp781
Rp782
(dp783
g12
VNP
p784
sbag0
(g1
g2
(lp785
g0
(g1
g2
(lp786
Vis
p787
atp788
Rp789
(dp790
g12
VVBZ
p791
sbag0
(g1
g2
(lp792
g0
(g1
g2
(lp793
Vdrinking
p794
atp795
Rp796
(dp797
g12
VVBG
p798
sbatp799
Rp800
(dp801
g12
VVP
p802
sbatp803
Rp804
(dp805
g12
VVP
p806
sbag0
(g1
g2
(lp807
V.
p808
atp809
Rp810
(dp811
g12
V.
p812
sbatp813
Rp814
(dp815
g12
VS
p816
sbatp817
Rp818
(dp819
g12
S'id: 7'
p820
sbag0
(g1
g2
(lp821
g0
(g1
g2
(lp822
g0
(g1
g2
(lp823
g0
(g1
g2
(lp824
VThey
p825
atp826
Rp827
(dp828
g12
VPRP
p829
sbatp830
Rp831
(dp832
g12
VNP
p833
sbag0
(g1
g2
(lp834
V,
p835
atp836
Rp837
(dp838
g12
V,
p839
sbag0
(g1
g2
(lp840
g0
(g1
g2
(lp841
g0
(g1
g2
(lp842
Vman
p843
atp844
Rp845
(dp846
g12
VNN
p847
sbatp848
Rp849
(dp850
g12
VNP
p851
sbag0
(g1
g2
(lp852
V,
p853
atp854
Rp855
(dp856
g12
V,
p857
sbag0
(g1
g2
(lp858
g0
(g1
g2
(lp859
Vgirl
p860
atp861
Rp862
(dp863
g12
VNN
p864
sbatp865
Rp866
(dp867
g12
VNP
p868
sbag0
(g1
g2
(lp869
V,
p870
atp871
Rp872
(dp873
g12
V,
p874
sbag0
(g1
g2
(lp875
g0
(g1
g2
(lp876
Vboy
p877
atp878
Rp879
(dp880
g12
VNN
p881
sbatp882
Rp883
(dp884
g12
VNP
p885
sbag0
(g1
g2
(lp886
V,
p887
atp888
Rp889
(dp890
g12
V,
p891
sbag0
(g1
g2
(lp892
g0
(g1
g2
(lp893
Vthe
p894
atp895
Rp896
(dp897
g12
VDT
p898
sbag0
(g1
g2
(lp899
Vgirl
p900
atp901
Rp902
(dp903
g12
VNN
p904
sbatp905
Rp906
(dp907
g12
VNP
p908
sbag0
(g1
g2
(lp909
Vand
p910
atp911
Rp912
(dp913
g12
VCC
p914
sbag0
(g1
g2
(lp915
g0
(g1
g2
(lp916
Vanother
p917
atp918
Rp919
(dp920
g12
VDT
p921
sbag0
(g1
g2
(lp922
Vone
p923
atp924
Rp925
(dp926
g12
VCD
p927
sbatp928
Rp929
(dp930
g12
VNP
p931
sbatp932
Rp933
(dp934
g12
VNP
p935
sbag0
(g1
g2
(lp936
g0
(g1
g2
(lp937
Vis
p938
atp939
Rp940
(dp941
g12
VVBZ
p942
sbag0
(g1
g2
(lp943
g0
(g1
g2
(lp944
Vlaughing
p945
atp946
Rp947
(dp948
g12
VVBG
p949
sbag0
(g1
g2
(lp950
V,
p951
atp952
Rp953
(dp954
g12
V,
p955
sbag0
(g1
g2
(lp956
g0
(g1
g2
(lp957
Vbut
p958
atp959
Rp960
(dp961
g12
VCC
p962
sbatp963
Rp964
(dp965
g12
VADVP
p966
sbatp967
Rp968
(dp969
g12
VVP
p970
sbatp971
Rp972
(dp973
g12
VVP
p974
sbatp975
Rp976
(dp977
g12
VS
p978
sbatp979
Rp980
(dp981
g12
S'id: 8'
p982
sbatp983
Rp984
(dp985
g12
S'sentences'
p986
sb.