ccopy_reg
_reconstructor
p0
(cnltk.tree
Tree
p1
c__builtin__
list
p2
(lp3
g0
(g1
g2
(lp4
g0
(g1
g2
(lp5
g0
(g1
g2
(lp6
g0
(g1
g2
(lp7
Vthe
p8
atp9
Rp10
(dp11
S'_label'
p12
VDT
p13
sbag0
(g1
g2
(lp14
g0
(g1
g2
(lp15
Vboy
p16
atp17
Rp18
(dp19
g12
VNN
p20
sbag0
(g1
g2
(lp21
V's
p22
atp23
Rp24
(dp25
g12
VPOS
p26
sbatp27
Rp28
(dp29
g12
VNP
p30
sbatp31
Rp32
(dp33
g12
VNP
p34
sbag0
(g1
g2
(lp35
g0
(g1
g2
(lp36
Vgetting
p37
atp38
Rp39
(dp40
g12
VVBG
p41
sbag0
(g1
g2
(lp42
g0
(g1
g2
(lp43
Vcookies
p44
atp45
Rp46
(dp47
g12
VNNS
p48
sbatp49
Rp50
(dp51
g12
VNP
p52
sbag0
(g1
g2
(lp53
g0
(g1
g2
(lp54
Vout
p55
atp56
Rp57
(dp58
g12
VIN
p59
sbag0
(g1
g2
(lp60
g0
(g1
g2
(lp61
Vof
p62
atp63
Rp64
(dp65
g12
VIN
p66
sbag0
(g1
g2
(lp67
g0
(g1
g2
(lp68
Vthe
p69
atp70
Rp71
(dp72
g12
VDT
p73
sbag0
(g1
g2
(lp74
Vcookie
p75
atp76
Rp77
(dp78
g12
VNN
p79
sbag0
(g1
g2
(lp80
Vjar
p81
atp82
Rp83
(dp84
g12
VNN
p85
sbatp86
Rp87
(dp88
g12
VNP
p89
sbatp90
Rp91
(dp92
g12
VPP
p93
sbatp94
Rp95
(dp96
g12
VADVP
p97
sbatp98
Rp99
(dp100
g12
VVP
p101
sbag0
(g1
g2
(lp102
V.
p103
atp104
Rp105
(dp106
g12
V.
p107
sbatp108
Rp109
(dp110
g12
VNP
p111
sbatp112
Rp113
(dp114
g12
S'id: 0'
p115
sbag0
(g1
g2
(lp116
g0
(g1
g2
(lp117
g0
(g1
g2
(lp118
g0
(g1
g2
(lp119
VThe
p120
atp121
Rp122
(dp123
g12
VDT
p124
sbag0
(g1
g2
(lp125
Vsister
p126
atp127
Rp128
(dp129
g12
VNN
p130
sbatp131
Rp132
(dp133
g12
VNP
p134
sbag0
(g1
g2
(lp135
g0
(g1
g2
(lp136
Vis
p137
atp138
Rp139
(dp140
g12
VVBZ
p141
sbag0
(g1
g2
(lp142
g0
(g1
g2
(lp143
Vafking
p144
atp145
Rp146
(dp147
g12
VVBG
p148
sbag0
(g1
g2
(lp149
g0
(g1
g2
(lp150
Vfor
p151
atp152
Rp153
(dp154
g12
VIN
p155
sbag0
(g1
g2
(lp156
g0
(g1
g2
(lp157
Va
p158
atp159
Rp160
(dp161
g12
VDT
p162
sbag0
(g1
g2
(lp163
Vcookie
p164
atp165
Rp166
(dp167
g12
VNN
p168
sbatp169
Rp170
(dp171
g12
VNP
p172
sbatp173
Rp174
(dp175
g12
VPP
p176
sbatp177
Rp178
(dp179
g12
VVP
p180
sbatp181
Rp182
(dp183
g12
VVP
p184
sbag0
(g1
g2
(lp185
V.
p186
atp187
Rp188
(dp189
g12
V.
p190
sbatp191
Rp192
(dp193
g12
VS
p194
sbatp195
Rp196
(dp197
g12
S'id: 1'
p198
sbag0
(g1
g2
(lp199
g0
(g1
g2
(lp200
g0
(g1
g2
(lp201
g0
(g1
g2
(lp202
VThe
p203
atp204
Rp205
(dp206
g12
VDT
p207
sbag0
(g1
g2
(lp208
Vmother
p209
atp210
Rp211
(dp212
g12
VNN
p213
sbatp214
Rp215
(dp216
g12
VNP
p217
sbag0
(g1
g2
(lp218
g0
(g1
g2
(lp219
Vis
p220
atp221
Rp222
(dp223
g12
VVBZ
p224
sbag0
(g1
g2
(lp225
g0
(g1
g2
(lp226
Vwashing
p227
atp228
Rp229
(dp230
g12
VVBG
p231
sbag0
(g1
g2
(lp232
g0
(g1
g2
(lp233
g0
(g1
g2
(lp234
Vdish
p235
atp236
Rp237
(dp238
g12
VNN
p239
sbatp240
Rp241
(dp242
g12
VNP
p243
sbag0
(g1
g2
(lp244
V,
p245
atp246
Rp247
(dp248
g12
V,
p249
sbag0
(g1
g2
(lp250
g0
(g1
g2
(lp251
Vdishes
p252
atp253
Rp254
(dp255
g12
VNNS
p256
sbatp257
Rp258
(dp259
g12
VNP
p260
sbatp261
Rp262
(dp263
g12
VNP
p264
sbatp265
Rp266
(dp267
g12
VVP
p268
sbatp269
Rp270
(dp271
g12
VVP
p272
sbag0
(g1
g2
(lp273
V.
p274
atp275
Rp276
(dp277
g12
V.
p278
sbatp279
Rp280
(dp281
g12
VS
p282
sbatp283
Rp284
(dp285
g12
S'id: 2'
p286
sbag0
(g1
g2
(lp287
g0
(g1
g2
(lp288
g0
(g1
g2
(lp289
g0
(g1
g2
(lp290
VThe
p291
atp292
Rp293
(dp294
g12
VDT
p295
sbag0
(g1
g2
(lp296
Vsink
p297
atp298
Rp299
(dp300
g12
VNN
p301
sbatp302
Rp303
(dp304
g12
VNP
p305
sbag0
(g1
g2
(lp306
g0
(g1
g2
(lp307
Vis
p308
atp309
Rp310
(dp311
g12
VVBZ
p312
sbag0
(g1
g2
(lp313
g0
(g1
g2
(lp314
Voverflowing
p315
atp316
Rp317
(dp318
g12
VVBG
p319
sbatp320
Rp321
(dp322
g12
VVP
p323
sbatp324
Rp325
(dp326
g12
VVP
p327
sbag0
(g1
g2
(lp328
V.
p329
atp330
Rp331
(dp332
g12
V.
p333
sbatp334
Rp335
(dp336
g12
VS
p337
sbatp338
Rp339
(dp340
g12
S'id: 3'
p341
sbag0
(g1
g2
(lp342
g0
(g1
g2
(lp343
g0
(g1
g2
(lp344
g0
(g1
g2
(lp345
VThere
p346
atp347
Rp348
(dp349
g12
VRB
p350
sbatp351
Rp352
(dp353
g12
VADVP
p354
sbag0
(g1
g2
(lp355
V,
p356
atp357
Rp358
(dp359
g12
V,
p360
sbag0
(g1
g2
(lp361
g0
(g1
g2
(lp362
Vthe
p363
atp364
Rp365
(dp366
g12
VDT
p367
sbag0
(g1
g2
(lp368
Vfamily
p369
atp370
Rp371
(dp372
g12
VNN
p373
sbatp374
Rp375
(dp376
g12
VNP
p377
sbag0
(g1
g2
(lp378
g0
(g1
g2
(lp379
Vis
p380
atp381
Rp382
(dp383
g12
VVBZ
p384
sbag0
(g1
g2
(lp385
g0
(g1
g2
(lp386
Vin
p387
atp388
Rp389
(dp390
g12
VIN
p391
sbag0
(g1
g2
(lp392
g0
(g1
g2
(lp393
g0
(g1
g2
(lp394
Vthe
p395
atp396
Rp397
(dp398
g12
VDT
p399
sbag0
(g1
g2
(lp400
Vkitchen
p401
atp402
Rp403
(dp404
g12
VNN
p405
sbatp406
Rp407
(dp408
g12
VNP
p409
sbag0
(g1
g2
(lp410
V,
p411
atp412
Rp413
(dp414
g12
V,
p415
sbag0
(g1
g2
(lp416
Vminus
p417
atp418
Rp419
(dp420
g12
VCC
p421
sbag0
(g1
g2
(lp422
g0
(g1
g2
(lp423
Vthe
p424
atp425
Rp426
(dp427
g12
VDT
p428
sbag0
(g1
g2
(lp429
Vdad
p430
atp431
Rp432
(dp433
g12
VNN
p434
sbatp435
Rp436
(dp437
g12
VNP
p438
sbatp439
Rp440
(dp441
g12
VNP
p442
sbatp443
Rp444
(dp445
g12
VPP
p446
sbatp447
Rp448
(dp449
g12
VVP
p450
sbag0
(g1
g2
(lp451
V.
p452
atp453
Rp454
(dp455
g12
V.
p456
sbatp457
Rp458
(dp459
g12
VS
p460
sbatp461
Rp462
(dp463
g12
S'id: 4'
p464
sbag0
(g1
g2
(lp465
g0
(g1
g2
(lp466
g0
(g1
g2
(lp467
g0
(g1
g2
(lp468
VIt
p469
atp470
Rp471
(dp472
g12
VPRP
p473
sbatp474
Rp475
(dp476
g12
VNP
p477
sbag0
(g1
g2
(lp478
V,
p479
atp480
Rp481
(dp482
g12
V,
p483
sbag0
(g1
g2
(lp484
g0
(g1
g2
(lp485
Vit
p486
atp487
Rp488
(dp489
g12
VPRP
p490
sbatp491
Rp492
(dp493
g12
VNP
p494
sbag0
(g1
g2
(lp495
g0
(g1
g2
(lp496
Vseems
p497
atp498
Rp499
(dp500
g12
VVBZ
p501
sbag0
(g1
g2
(lp502
g0
(g1
g2
(lp503
g0
(g1
g2
(lp504
Vto
p505
atp506
Rp507
(dp508
g12
VTO
p509
sbag0
(g1
g2
(lp510
g0
(g1
g2
(lp511
Vbe
p512
atp513
Rp514
(dp515
g12
VVB
p516
sbag0
(g1
g2
(lp517
g0
(g1
g2
(lp518
g0
(g1
g2
(lp519
Va
p520
atp521
Rp522
(dp523
g12
VDT
p524
sbag0
(g1
g2
(lp525
Vbeautiful
p526
atp527
Rp528
(dp529
g12
VJJ
p530
sbag0
(g1
g2
(lp531
Vday
p532
atp533
Rp534
(dp535
g12
VNN
p536
sbatp537
Rp538
(dp539
g12
VNP
p540
sbag0
(g1
g2
(lp541
g0
(g1
g2
(lp542
Voutside
p543
atp544
Rp545
(dp546
g12
VIN
p547
sbatp548
Rp549
(dp550
g12
VADVP
p551
sbatp552
Rp553
(dp554
g12
VNP
p555
sbatp556
Rp557
(dp558
g12
VVP
p559
sbatp560
Rp561
(dp562
g12
VVP
p563
sbatp564
Rp565
(dp566
g12
VS
p567
sbatp568
Rp569
(dp570
g12
VVP
p571
sbag0
(g1
g2
(lp572
V.
p573
atp574
Rp575
(dp576
g12
V.
p577
sbatp578
Rp579
(dp580
g12
VS
p581
sbatp582
Rp583
(dp584
g12
S'id: 5'
p585
sbag0
(g1
g2
(lp586
g0
(g1
g2
(lp587
g0
(g1
g2
(lp588
g0
(g1
g2
(lp589
VThere
p590
atp591
Rp592
(dp593
g12
VEX
p594
sbatp595
Rp596
(dp597
g12
VNP
p598
sbag0
(g1
g2
(lp599
g0
(g1
g2
(lp600
V's
p601
atp602
Rp603
(dp604
g12
VVBZ
p605
sbag0
(g1
g2
(lp606
g0
(g1
g2
(lp607
g0
(g1
g2
(lp608
Vdishes
p609
atp610
Rp611
(dp612
g12
VNNS
p613
sbatp614
Rp615
(dp616
g12
VNP
p617
sbag0
(g1
g2
(lp618
g0
(g1
g2
(lp619
Von
p620
atp621
Rp622
(dp623
g12
VIN
p624
sbag0
(g1
g2
(lp625
g0
(g1
g2
(lp626
Vthe
p627
atp628
Rp629
(dp630
g12
VDT
p631
sbag0
(g1
g2
(lp632
Vcounter
p633
atp634
Rp635
(dp636
g12
VNN
p637
sbatp638
Rp639
(dp640
g12
VNP
p641
sbatp642
Rp643
(dp644
g12
VPP
p645
sbatp646
Rp647
(dp648
g12
VNP
p649
sbatp650
Rp651
(dp652
g12
VVP
p653
sbag0
(g1
g2
(lp654
V.
p655
atp656
Rp657
(dp658
g12
V.
p659
sbatp660
Rp661
(dp662
g12
VS
p663
sbatp664
Rp665
(dp666
g12
S'id: 6'
p667
sbag0
(g1
g2
(lp668
g0
(g1
g2
(lp669
g0
(g1
g2
(lp670
g0
(g1
g2
(lp671
g0
(g1
g2
(lp672
VThe
p673
atp674
Rp675
(dp676
g12
VDT
p677
sbag0
(g1
g2
(lp678
Vboy
p679
atp680
Rp681
(dp682
g12
VNN
p683
sbatp684
Rp685
(dp686
g12
VNP
p687
sbag0
(g1
g2
(lp688
V,
p689
atp690
Rp691
(dp692
g12
V,
p693
sbag0
(g1
g2
(lp694
g0
(g1
g2
(lp695
VSam
p696
atp697
Rp698
(dp699
g12
VNNP
p700
sbatp701
Rp702
(dp703
g12
VNP
p704
sbag0
(g1
g2
(lp705
V,
p706
atp707
Rp708
(dp709
g12
V,
p710
sbatp711
Rp712
(dp713
g12
VNP
p714
sbag0
(g1
g2
(lp715
g0
(g1
g2
(lp716
g0
(g1
g2
(lp717
Vis
p718
atp719
Rp720
(dp721
g12
VVBZ
p722
sbatp723
Rp724
(dp725
g12
VVP
p726
sbag0
(g1
g2
(lp727
V,
p728
atp729
Rp730
(dp731
g12
V,
p732
sbag0
(g1
g2
(lp733
g0
(g1
g2
(lp734
Vis
p735
atp736
Rp737
(dp738
g12
VVBZ
p739
sbag0
(g1
g2
(lp740
g0
(g1
g2
(lp741
Vtr
p742
atp743
Rp744
(dp745
g12
VNN
p746
sbatp747
Rp748
(dp749
g12
VNP
p750
sbatp751
Rp752
(dp753
g12
VVP
p754
sbag0
(g1
g2
(lp755
V,
p756
atp757
Rp758
(dp759
g12
V,
p760
sbag0
(g1
g2
(lp761
g0
(g1
g2
(lp762
g0
(g1
g2
(lp763
g0
(g1
g2
(lp764
Valmost
p765
atp766
Rp767
(dp768
g12
VRB
p769
sbatp770
Rp771
(dp772
g12
VADVP
p773
sbag0
(g1
g2
(lp774
Vgon
p775
atp776
Rp777
(dp778
g12
VVBG
p779
sbag0
(g1
g2
(lp780
g0
(g1
g2
(lp781
g0
(g1
g2
(lp782
Vna
p783
atp784
Rp785
(dp786
g12
VTO
p787
sbag0
(g1
g2
(lp788
g0
(g1
g2
(lp789
Vfall
p790
atp791
Rp792
(dp793
g12
VVB
p794
sbag0
(g1
g2
(lp795
g0
(g1
g2
(lp796
Voff
p797
atp798
Rp799
(dp800
g12
VRP
p801
sbatp802
Rp803
(dp804
g12
VPRT
p805
sbag0
(g1
g2
(lp806
g0
(g1
g2
(lp807
Vladder
p808
atp809
Rp810
(dp811
g12
VNN
p812
sbatp813
Rp814
(dp815
g12
VNP
p816
sbatp817
Rp818
(dp819
g12
VVP
p820
sbatp821
Rp822
(dp823
g12
VVP
p824
sbatp825
Rp826
(dp827
g12
VS
p828
sbatp829
Rp830
(dp831
g12
VVP
p832
sbatp833
Rp834
(dp835
g12
VS
p836
sbatp837
Rp838
(dp839
g12
VVP
p840
sbag0
(g1
g2
(lp841
V.
p842
atp843
Rp844
(dp845
g12
V.
p846
sbatp847
Rp848
(dp849
g12
VS
p850
sbatp851
Rp852
(dp853
g12
S'id: 7'
p854
sbag0
(g1
g2
(lp855
g0
(g1
g2
(lp856
g0
(g1
g2
(lp857
g0
(g1
g2
(lp858
VThe
p859
atp860
Rp861
(dp862
g12
VDT
p863
sbag0
(g1
g2
(lp864
Vmother
p865
atp866
Rp867
(dp868
g12
VNN
p869
sbatp870
Rp871
(dp872
g12
VNP
p873
sbag0
(g1
g2
(lp874
g0
(g1
g2
(lp875
Vis
p876
atp877
Rp878
(dp879
g12
VVBZ
p880
sbag0
(g1
g2
(lp881
g0
(g1
g2
(lp882
Vwiping
p883
atp884
Rp885
(dp886
g12
VVBG
p887
sbag0
(g1
g2
(lp888
g0
(g1
g2
(lp889
Vthe
p890
atp891
Rp892
(dp893
g12
VDT
p894
sbag0
(g1
g2
(lp895
Vplate
p896
atp897
Rp898
(dp899
g12
VNN
p900
sbag0
(g1
g2
(lp901
Vdry-al
p902
atp903
Rp904
(dp905
g12
VNN
p906
sbatp907
Rp908
(dp909
g12
VNP
p910
sbatp911
Rp912
(dp913
g12
VVP
p914
sbatp915
Rp916
(dp917
g12
VVP
p918
sbag0
(g1
g2
(lp919
V.
p920
atp921
Rp922
(dp923
g12
V.
p924
sbatp925
Rp926
(dp927
g12
VS
p928
sbatp929
Rp930
(dp931
g12
S'id: 8'
p932
sbag0
(g1
g2
(lp933
g0
(g1
g2
(lp934
g0
(g1
g2
(lp935
g0
(g1
g2
(lp936
g0
(g1
g2
(lp937
VShe
p938
atp939
Rp940
(dp941
g12
VPRP
p942
sbatp943
Rp944
(dp945
g12
VNP
p946
sbag0
(g1
g2
(lp947
g0
(g1
g2
(lp948
Vneeds
p949
atp950
Rp951
(dp952
g12
VVBZ
p953
sbag0
(g1
g2
(lp954
g0
(g1
g2
(lp955
Vbe
p956
atp957
Rp958
(dp959
g12
VVB
p960
sbag0
(g1
g2
(lp961
g0
(g1
g2
(lp962
Vcareful
p963
atp964
Rp965
(dp966
g12
VJJ
p967
sbatp968
Rp969
(dp970
g12
VADJP
p971
sbag0
(g1
g2
(lp972
g0
(g1
g2
(lp973
Vbecause
p974
atp975
Rp976
(dp977
g12
VIN
p978
sbag0
(g1
g2
(lp979
g0
(g1
g2
(lp980
g0
(g1
g2
(lp981
Vthere
p982
atp983
Rp984
(dp985
g12
VEX
p986
sbatp987
Rp988
(dp989
g12
VNP
p990
sbag0
(g1
g2
(lp991
g0
(g1
g2
(lp992
Vis
p993
atp994
Rp995
(dp996
g12
VVBZ
p997
sbag0
(g1
g2
(lp998
g0
(g1
g2
(lp999
g0
(g1
g2
(lp1000
Vwater
p1001
atp1002
Rp1003
(dp1004
g12
VNN
p1005
sbatp1006
Rp1007
(dp1008
g12
VNP
p1009
sbag0
(g1
g2
(lp1010
g0
(g1
g2
(lp1011
Von
p1012
atp1013
Rp1014
(dp1015
g12
VIN
p1016
sbag0
(g1
g2
(lp1017
g0
(g1
g2
(lp1018
Vthe
p1019
atp1020
Rp1021
(dp1022
g12
VDT
p1023
sbag0
(g1
g2
(lp1024
Vfloor
p1025
atp1026
Rp1027
(dp1028
g12
VNN
p1029
sbatp1030
Rp1031
(dp1032
g12
VNP
p1033
sbatp1034
Rp1035
(dp1036
g12
VPP
p1037
sbatp1038
Rp1039
(dp1040
g12
VNP
p1041
sbatp1042
Rp1043
(dp1044
g12
VVP
p1045
sbatp1046
Rp1047
(dp1048
g12
VS
p1049
sbatp1050
Rp1051
(dp1052
g12
VSBAR
p1053
sbatp1054
Rp1055
(dp1056
g12
VVP
p1057
sbatp1058
Rp1059
(dp1060
g12
VVP
p1061
sbatp1062
Rp1063
(dp1064
g12
VS
p1065
sbag0
(g1
g2
(lp1066
V,
p1067
atp1068
Rp1069
(dp1070
g12
V,
p1071
sbag0
(g1
g2
(lp1072
g0
(g1
g2
(lp1073
Vshe
p1074
atp1075
Rp1076
(dp1077
g12
VPRP
p1078
sbatp1079
Rp1080
(dp1081
g12
VNP
p1082
sbag0
(g1
g2
(lp1083
g0
(g1
g2
(lp1084
Vmay
p1085
atp1086
Rp1087
(dp1088
g12
VMD
p1089
sbag0
(g1
g2
(lp1090
g0
(g1
g2
(lp1091
Vslip
p1092
atp1093
Rp1094
(dp1095
g12
VVB
p1096
sbag0
(g1
g2
(lp1097
g0
(g1
g2
(lp1098
Vdown
p1099
atp1100
Rp1101
(dp1102
g12
VRP
p1103
sbatp1104
Rp1105
(dp1106
g12
VPRT
p1107
sbatp1108
Rp1109
(dp1110
g12
VVP
p1111
sbatp1112
Rp1113
(dp1114
g12
VVP
p1115
sbag0
(g1
g2
(lp1116
V.
p1117
atp1118
Rp1119
(dp1120
g12
V.
p1121
sbatp1122
Rp1123
(dp1124
g12
VS
p1125
sbatp1126
Rp1127
(dp1128
g12
S'id: 9'
p1129
sbag0
(g1
g2
(lp1130
g0
(g1
g2
(lp1131
g0
(g1
g2
(lp1132
g0
(g1
g2
(lp1133
VThey
p1134
atp1135
Rp1136
(dp1137
g12
VPRP
p1138
sbatp1139
Rp1140
(dp1141
g12
VNP
p1142
sbag0
(g1
g2
(lp1143
g0
(g1
g2
(lp1144
Vare
p1145
atp1146
Rp1147
(dp1148
g12
VVBP
p1149
sbag0
(g1
g2
(lp1150
g0
(g1
g2
(lp1151
Vall
p1152
atp1153
Rp1154
(dp1155
g12
VDT
p1156
sbatp1157
Rp1158
(dp1159
g12
VADVP
p1160
sbag0
(g1
g2
(lp1161
g0
(g1
g2
(lp1162
Vwearing
p1163
atp1164
Rp1165
(dp1166
g12
VVBG
p1167
sbag0
(g1
g2
(lp1168
g0
(g1
g2
(lp1169
Vshoes
p1170
atp1171
Rp1172
(dp1173
g12
VNNS
p1174
sbatp1175
Rp1176
(dp1177
g12
VNP
p1178
sbatp1179
Rp1180
(dp1181
g12
VVP
p1182
sbatp1183
Rp1184
(dp1185
g12
VVP
p1186
sbag0
(g1
g2
(lp1187
V.
p1188
atp1189
Rp1190
(dp1191
g12
V.
p1192
sbatp1193
Rp1194
(dp1195
g12
VS
p1196
sbatp1197
Rp1198
(dp1199
g12
S'id: 10'
p1200
sbag0
(g1
g2
(lp1201
g0
(g1
g2
(lp1202
g0
(g1
g2
(lp1203
g0
(g1
g2
(lp1204
g0
(g1
g2
(lp1205
g0
(g1
g2
(lp1206
VIs
p1207
atp1208
Rp1209
(dp1210
g12
VVBZ
p1211
sbatp1212
Rp1213
(dp1214
g12
VVP
p1215
sbatp1216
Rp1217
(dp1218
g12
VS
p1219
sbag0
(g1
g2
(lp1220
g0
(g1
g2
(lp1221
Vmust
p1222
atp1223
Rp1224
(dp1225
g12
VMD
p1226
sbag0
(g1
g2
(lp1227
g0
(g1
g2
(lp1228
g0
(g1
g2
(lp1229
Vbe
p1230
atp1231
Rp1232
(dp1233
g12
VVB
p1234
sbag0
(g1
g2
(lp1235
g0
(g1
g2
(lp1236
Vsummertime
p1237
atp1238
Rp1239
(dp1240
g12
VJJ
p1241
sbatp1242
Rp1243
(dp1244
g12
VADJP
p1245
sbatp1246
Rp1247
(dp1248
g12
VVP
p1249
sbag0
(g1
g2
(lp1250
V,
p1251
atp1252
Rp1253
(dp1254
g12
V,
p1255
sbag0
(g1
g2
(lp1256
Vor
p1257
atp1258
Rp1259
(dp1260
g12
VCC
p1261
sbag0
(g1
g2
(lp1262
g0
(g1
g2
(lp1263
Vfall
p1264
atp1265
Rp1266
(dp1267
g12
VVB
p1268
sbag0
(g1
g2
(lp1269
g0
(g1
g2
(lp1270
Vtime
p1271
atp1272
Rp1273
(dp1274
g12
VNN
p1275
sbatp1276
Rp1277
(dp1278
g12
VNP
p1279
sbatp1280
Rp1281
(dp1282
g12
VVP
p1283
sbatp1284
Rp1285
(dp1286
g12
VVP
p1287
sbatp1288
Rp1289
(dp1290
g12
VVP
p1291
sbatp1292
Rp1293
(dp1294
g12
VS
p1295
sbag0
(g1
g2
(lp1296
V,
p1297
atp1298
Rp1299
(dp1300
g12
V,
p1301
sbag0
(g1
g2
(lp1302
g0
(g1
g2
(lp1303
g0
(g1
g2
(lp1304
Vbecause
p1305
atp1306
Rp1307
(dp1308
g12
VRB
p1309
sbatp1310
Rp1311
(dp1312
g12
VNP-TMP
p1313
sbag0
(g1
g2
(lp1314
V,
p1315
atp1316
Rp1317
(dp1318
g12
V,
p1319
sbag0
(g1
g2
(lp1320
g0
(g1
g2
(lp1321
VI
p1322
atp1323
Rp1324
(dp1325
g12
VPRP
p1326
sbatp1327
Rp1328
(dp1329
g12
VNP
p1330
sbag0
(g1
g2
(lp1331
g0
(g1
g2
(lp1332
Vknow
p1333
atp1334
Rp1335
(dp1336
g12
VVBP
p1337
sbatp1338
Rp1339
(dp1340
g12
VVP
p1341
sbatp1342
Rp1343
(dp1344
g12
VS
p1345
sbag0
(g1
g2
(lp1346
V,
p1347
atp1348
Rp1349
(dp1350
g12
V,
p1351
sbag0
(g1
g2
(lp1352
g0
(g1
g2
(lp1353
g0
(g1
g2
(lp1354
Vit
p1355
atp1356
Rp1357
(dp1358
g12
VPRP
p1359
sbatp1360
Rp1361
(dp1362
g12
VNP
p1363
sbag0
(g1
g2
(lp1364
g0
(g1
g2
(lp1365
Vmust
p1366
atp1367
Rp1368
(dp1369
g12
VMD
p1370
sbag0
(g1
g2
(lp1371
g0
(g1
g2
(lp1372
Vbe
p1373
atp1374
Rp1375
(dp1376
g12
VVB
p1377
sbag0
(g1
g2
(lp1378
g0
(g1
g2
(lp1379
Vstring
p1380
atp1381
Rp1382
(dp1383
g12
VNN
p1384
sbag0
(g1
g2
(lp1385
V,
p1386
atp1387
Rp1388
(dp1389
g12
V,
p1390
sbag0
(g1
g2
(lp1391
Vspringtime
p1392
atp1393
Rp1394
(dp1395
g12
VNN
p1396
sbag0
(g1
g2
(lp1397
Vor
p1398
atp1399
Rp1400
(dp1401
g12
VCC
p1402
sbag0
(g1
g2
(lp1403
Vsummertime
p1404
atp1405
Rp1406
(dp1407
g12
VNN
p1408
sbatp1409
Rp1410
(dp1411
g12
VNP
p1412
sbag0
(g1
g2
(lp1413
g0
(g1
g2
(lp1414
Vbecause
p1415
atp1416
Rp1417
(dp1418
g12
VIN
p1419
sbag0
(g1
g2
(lp1420
g0
(g1
g2
(lp1421
g0
(g1
g2
(lp1422
Vthey
p1423
atp1424
Rp1425
(dp1426
g12
VPRP
p1427
sbatp1428
Rp1429
(dp1430
g12
VNP
p1431
sbag0
(g1
g2
(lp1432
g0
(g1
g2
(lp1433
Vare
p1434
atp1435
Rp1436
(dp1437
g12
VVBP
p1438
sbag0
(g1
g2
(lp1439
g0
(g1
g2
(lp1440
Vwearing
p1441
atp1442
Rp1443
(dp1444
g12
VVBG
p1445
sbag0
(g1
g2
(lp1446
g0
(g1
g2
(lp1447
g0
(g1
g2
(lp1448
g0
(g1
g2
(lp1449
Vshort
p1450
atp1451
Rp1452
(dp1453
g12
VJJ
p1454
sbag0
(g1
g2
(lp1455
Vsleeves
p1456
atp1457
Rp1458
(dp1459
g12
VNNS
p1460
sbatp1461
Rp1462
(dp1463
g12
VNP
p1464
sbag0
(g1
g2
(lp1465
Vand
p1466
atp1467
Rp1468
(dp1469
g12
VCC
p1470
sbag0
(g1
g2
(lp1471
g0
(g1
g2
(lp1472
Va
p1473
atp1474
Rp1475
(dp1476
g12
VDT
p1477
sbag0
(g1
g2
(lp1478
Vskirt
p1479
atp1480
Rp1481
(dp1482
g12
VNN
p1483
sbatp1484
Rp1485
(dp1486
g12
VNP
p1487
sbatp1488
Rp1489
(dp1490
g12
VNP
p1491
sbag0
(g1
g2
(lp1492
Vand
p1493
atp1494
Rp1495
(dp1496
g12
VCC
p1497
sbag0
(g1
g2
(lp1498
g0
(g1
g2
(lp1499
g0
(g1
g2
(lp1500
Va
p1501
atp1502
Rp1503
(dp1504
g12
VDT
p1505
sbag0
(g1
g2
(lp1506
Vsundress
p1507
atp1508
Rp1509
(dp1510
g12
VNN
p1511
sbatp1512
Rp1513
(dp1514
g12
VNP
p1515
sbag0
(g1
g2
(lp1516
Vand
p1517
atp1518
Rp1519
(dp1520
g12
VCC
p1521
sbag0
(g1
g2
(lp1522
g0
(g1
g2
(lp1523
Vshorts
p1524
atp1525
Rp1526
(dp1527
g12
VNNS
p1528
sbatp1529
Rp1530
(dp1531
g12
VNP
p1532
sbatp1533
Rp1534
(dp1535
g12
VNP
p1536
sbatp1537
Rp1538
(dp1539
g12
VNP
p1540
sbatp1541
Rp1542
(dp1543
g12
VVP
p1544
sbatp1545
Rp1546
(dp1547
g12
VVP
p1548
sbatp1549
Rp1550
(dp1551
g12
VS
p1552
sbatp1553
Rp1554
(dp1555
g12
VSBAR
p1556
sbatp1557
Rp1558
(dp1559
g12
VVP
p1560
sbatp1561
Rp1562
(dp1563
g12
VVP
p1564
sbatp1565
Rp1566
(dp1567
g12
VS
p1568
sbag0
(g1
g2
(lp1569
V.
p1570
atp1571
Rp1572
(dp1573
g12
V.
p1574
sbatp1575
Rp1576
(dp1577
g12
VS
p1578
sbatp1579
Rp1580
(dp1581
g12
S'id: 11'
p1582
sbag0
(g1
g2
(lp1583
g0
(g1
g2
(lp1584
g0
(g1
g2
(lp1585
g0
(g1
g2
(lp1586
VThere
p1587
atp1588
Rp1589
(dp1590
g12
VEX
p1591
sbatp1592
Rp1593
(dp1594
g12
VNP
p1595
sbag0
(g1
g2
(lp1596
g0
(g1
g2
(lp1597
Vis
p1598
atp1599
Rp1600
(dp1601
g12
VVBZ
p1602
sbag0
(g1
g2
(lp1603
g0
(g1
g2
(lp1604
Vonly
p1605
atp1606
Rp1607
(dp1608
g12
VRB
p1609
sbag0
(g1
g2
(lp1610
g0
(g1
g2
(lp1611
Vone
p1612
atp1613
Rp1614
(dp1615
g12
VCD
p1616
sbag0
(g1
g2
(lp1617
Vcabinet
p1618
atp1619
Rp1620
(dp1621
g12
VNN
p1622
sbatp1623
Rp1624
(dp1625
g12
VNP
p1626
sbatp1627
Rp1628
(dp1629
g12
VADVP
p1630
sbag0
(g1
g2
(lp1631
g0
(g1
g2
(lp1632
Vopen
p1633
atp1634
Rp1635
(dp1636
g12
VJJ
p1637
sbatp1638
Rp1639
(dp1640
g12
VADJP
p1641
sbatp1642
Rp1643
(dp1644
g12
VVP
p1645
sbag0
(g1
g2
(lp1646
V.
p1647
atp1648
Rp1649
(dp1650
g12
V.
p1651
sbatp1652
Rp1653
(dp1654
g12
VS
p1655
sbatp1656
Rp1657
(dp1658
g12
S'id: 12'
p1659
sbag0
(g1
g2
(lp1660
g0
(g1
g2
(lp1661
g0
(g1
g2
(lp1662
g0
(g1
g2
(lp1663
VThere
p1664
atp1665
Rp1666
(dp1667
g12
VEX
p1668
sbatp1669
Rp1670
(dp1671
g12
VNP
p1672
sbag0
(g1
g2
(lp1673
g0
(g1
g2
(lp1674
V's
p1675
atp1676
Rp1677
(dp1678
g12
VVBZ
p1679
sbag0
(g1
g2
(lp1680
g0
(g1
g2
(lp1681
g0
(g1
g2
(lp1682
Vgrass
p1683
atp1684
Rp1685
(dp1686
g12
VNN
p1687
sbatp1688
Rp1689
(dp1690
g12
VNP
p1691
sbag0
(g1
g2
(lp1692
g0
(g1
g2
(lp1693
Voutside
p1694
atp1695
Rp1696
(dp1697
g12
VIN
p1698
sbag0
(g1
g2
(lp1699
g0
(g1
g2
(lp1700
Vthe
p1701
atp1702
Rp1703
(dp1704
g12
VDT
p1705
sbag0
(g1
g2
(lp1706
Vwindow
p1707
atp1708
Rp1709
(dp1710
g12
VNN
p1711
sbatp1712
Rp1713
(dp1714
g12
VNP
p1715
sbatp1716
Rp1717
(dp1718
g12
VPP
p1719
sbatp1720
Rp1721
(dp1722
g12
VNP
p1723
sbatp1724
Rp1725
(dp1726
g12
VVP
p1727
sbag0
(g1
g2
(lp1728
V.
p1729
atp1730
Rp1731
(dp1732
g12
V.
p1733
sbatp1734
Rp1735
(dp1736
g12
VS
p1737
sbatp1738
Rp1739
(dp1740
g12
S'id: 13'
p1741
sbag0
(g1
g2
(lp1742
g0
(g1
g2
(lp1743
g0
(g1
g2
(lp1744
g0
(g1
g2
(lp1745
VThe
p1746
atp1747
Rp1748
(dp1749
g12
VDT
p1750
sbag0
(g1
g2
(lp1751
Vwindow
p1752
atp1753
Rp1754
(dp1755
g12
VNN
p1756
sbatp1757
Rp1758
(dp1759
g12
VNP
p1760
sbag0
(g1
g2
(lp1761
g0
(g1
g2
(lp1762
Vis
p1763
atp1764
Rp1765
(dp1766
g12
VVBZ
p1767
sbag0
(g1
g2
(lp1768
g0
(g1
g2
(lp1769
Vhalfway
p1770
atp1771
Rp1772
(dp1773
g12
VRB
p1774
sbatp1775
Rp1776
(dp1777
g12
VADVP
p1778
sbag0
(g1
g2
(lp1779
g0
(g1
g2
(lp1780
Vopened
p1781
atp1782
Rp1783
(dp1784
g12
VVBN
p1785
sbag0
(g1
g2
(lp1786
V,
p1787
atp1788
Rp1789
(dp1790
g12
V,
p1791
sbag0
(g1
g2
(lp1792
g0
(g1
g2
(lp1793
g0
(g1
g2
(lp1794
Vall
p1795
atp1796
Rp1797
(dp1798
g12
VPDT
p1799
sbag0
(g1
g2
(lp1800
Vthe
p1801
atp1802
Rp1803
(dp1804
g12
VDT
p1805
sbag0
(g1
g2
(lp1806
Vway
p1807
atp1808
Rp1809
(dp1810
g12
VNN
p1811
sbatp1812
Rp1813
(dp1814
g12
VNP
p1815
sbag0
(g1
g2
(lp1816
g0
(g1
g2
(lp1817
Vopen
p1818
atp1819
Rp1820
(dp1821
g12
VJJ
p1822
sbag0
(g1
g2
(lp1823
g0
(g1
g2
(lp1824
Vaccording
p1825
atp1826
Rp1827
(dp1828
g12
VVBG
p1829
sbag0
(g1
g2
(lp1830
g0
(g1
g2
(lp1831
Vto
p1832
atp1833
Rp1834
(dp1835
g12
VTO
p1836
sbatp1837
Rp1838
(dp1839
g12
VPP
p1840
sbatp1841
Rp1842
(dp1843
g12
VPP
p1844
sbatp1845
Rp1846
(dp1847
g12
VVP
p1848
sbatp1849
Rp1850
(dp1851
g12
VNP
p1852
sbatp1853
Rp1854
(dp1855
g12
VVP
p1856
sbatp1857
Rp1858
(dp1859
g12
VVP
p1860
sbatp1861
Rp1862
(dp1863
g12
VS
p1864
sbatp1865
Rp1866
(dp1867
g12
S'id: 14'
p1868
sbatp1869
Rp1870
(dp1871
g12
S'sentences'
p1872
sb.