ccopy_reg
_reconstructor
p0
(cnltk.tree
Tree
p1
c__builtin__
list
p2
(lp3
g0
(g1
g2
(lp4
g0
(g1
g2
(lp5
g0
(g1
g2
(lp6
g0
(g1
g2
(lp7
g0
(g1
g2
(lp8
VOh
p9
atp10
Rp11
(dp12
S'_label'
p13
VUH
p14
sbatp15
Rp16
(dp17
g13
VINTJ
p18
sbag0
(g1
g2
(lp19
g0
(g1
g2
(lp20
Vthis
p21
atp22
Rp23
(dp24
g13
VDT
p25
sbatp26
Rp27
(dp28
g13
VNP
p29
sbag0
(g1
g2
(lp30
g0
(g1
g2
(lp31
Vlooks
p32
atp33
Rp34
(dp35
g13
VVBZ
p36
sbag0
(g1
g2
(lp37
g0
(g1
g2
(lp38
Vlike
p39
atp40
Rp41
(dp42
g13
VIN
p43
sbag0
(g1
g2
(lp44
V,
p45
atp46
Rp47
(dp48
g13
V,
p49
sbag0
(g1
g2
(lp50
g0
(g1
g2
(lp51
g0
(g1
g2
(lp52
Vthis
p53
atp54
Rp55
(dp56
g13
VDT
p57
sbatp58
Rp59
(dp60
g13
VNP
p61
sbag0
(g1
g2
(lp62
g0
(g1
g2
(lp63
Vis
p64
atp65
Rp66
(dp67
g13
VVBZ
p68
sbag0
(g1
g2
(lp69
Vnot
p70
atp71
Rp72
(dp73
g13
VRB
p74
sbag0
(g1
g2
(lp75
g0
(g1
g2
(lp76
Va
p77
atp78
Rp79
(dp80
g13
VDT
p81
sbag0
(g1
g2
(lp82
Vbeach
p83
atp84
Rp85
(dp86
g13
VNN
p87
sbag0
(g1
g2
(lp88
Vhouse
p89
atp90
Rp91
(dp92
g13
VNN
p93
sbatp94
Rp95
(dp96
g13
VNP
p97
sbatp98
Rp99
(dp100
g13
VVP
p101
sbatp102
Rp103
(dp104
g13
VS
p105
sbatp106
Rp107
(dp108
g13
VSBAR
p109
sbatp110
Rp111
(dp112
g13
VVP
p113
sbatp114
Rp115
(dp116
g13
VS
p117
sbag0
(g1
g2
(lp118
V,
p119
atp120
Rp121
(dp122
g13
V,
p123
sbag0
(g1
g2
(lp124
Vbut
p125
atp126
Rp127
(dp128
g13
VCC
p129
sbag0
(g1
g2
(lp130
g0
(g1
g2
(lp131
g0
(g1
g2
(lp132
Vthis
p133
atp134
Rp135
(dp136
g13
VDT
p137
sbatp138
Rp139
(dp140
g13
VNP
p141
sbag0
(g1
g2
(lp142
g0
(g1
g2
(lp143
Vis
p144
atp145
Rp146
(dp147
g13
VVBZ
p148
sbag0
(g1
g2
(lp149
g0
(g1
g2
(lp150
g0
(g1
g2
(lp151
Va
p152
atp153
Rp154
(dp155
g13
VDT
p156
sbag0
(g1
g2
(lp157
Vlake
p158
atp159
Rp160
(dp161
g13
VNN
p162
sbag0
(g1
g2
(lp163
Vhouse
p164
atp165
Rp166
(dp167
g13
VNN
p168
sbatp169
Rp170
(dp171
g13
VNP
p172
sbag0
(g1
g2
(lp173
g0
(g1
g2
(lp174
g0
(g1
g2
(lp175
g0
(g1
g2
(lp176
Vit
p177
atp178
Rp179
(dp180
g13
VPRP
p181
sbatp182
Rp183
(dp184
g13
VNP
p185
sbag0
(g1
g2
(lp186
g0
(g1
g2
(lp187
Vlooks
p188
atp189
Rp190
(dp191
g13
VVBZ
p192
sbag0
(g1
g2
(lp193
g0
(g1
g2
(lp194
Vlike
p195
atp196
Rp197
(dp198
g13
VIN
p199
sbatp200
Rp201
(dp202
g13
VPP
p203
sbatp204
Rp205
(dp206
g13
VVP
p207
sbatp208
Rp209
(dp210
g13
VS
p211
sbatp212
Rp213
(dp214
g13
VSBAR
p215
sbatp216
Rp217
(dp218
g13
VNP
p219
sbatp220
Rp221
(dp222
g13
VVP
p223
sbatp224
Rp225
(dp226
g13
VS
p227
sbag0
(g1
g2
(lp228
V.
p229
atp230
Rp231
(dp232
g13
V.
p233
sbatp234
Rp235
(dp236
g13
VS
p237
sbatp238
Rp239
(dp240
g13
S'id: 0'
p241
sbag0
(g1
g2
(lp242
g0
(g1
g2
(lp243
g0
(g1
g2
(lp244
VAnd
p245
atp246
Rp247
(dp248
g13
VCC
p249
sbag0
(g1
g2
(lp250
g0
(g1
g2
(lp251
Vit
p252
atp253
Rp254
(dp255
g13
VPRP
p256
sbatp257
Rp258
(dp259
g13
VNP
p260
sbag0
(g1
g2
(lp261
g0
(g1
g2
(lp262
V's
p263
atp264
Rp265
(dp266
g13
VVBZ
p267
sbag0
(g1
g2
(lp268
g0
(g1
g2
(lp269
Vin
p270
atp271
Rp272
(dp273
g13
VIN
p274
sbag0
(g1
g2
(lp275
g0
(g1
g2
(lp276
Vthe
p277
atp278
Rp279
(dp280
g13
VDT
p281
sbag0
(g1
g2
(lp282
Vsummertime
p283
atp284
Rp285
(dp286
g13
VNN
p287
sbatp288
Rp289
(dp290
g13
VNP
p291
sbatp292
Rp293
(dp294
g13
VPP
p295
sbag0
(g1
g2
(lp296
V,
p297
atp298
Rp299
(dp300
g13
V,
p301
sbag0
(g1
g2
(lp302
g0
(g1
g2
(lp303
Veven
p304
atp305
Rp306
(dp307
g13
VRB
p308
sbag0
(g1
g2
(lp309
Vthough
p310
atp311
Rp312
(dp313
g13
VIN
p314
sbag0
(g1
g2
(lp315
g0
(g1
g2
(lp316
g0
(g1
g2
(lp317
Vit
p318
atp319
Rp320
(dp321
g13
VPRP
p322
sbatp323
Rp324
(dp325
g13
VNP
p326
sbag0
(g1
g2
(lp327
g0
(g1
g2
(lp328
V's
p329
atp330
Rp331
(dp332
g13
VVBZ
p333
sbag0
(g1
g2
(lp334
g0
(g1
g2
(lp335
g0
(g1
g2
(lp336
g0
(g1
g2
(lp337
g0
(g1
g2
(lp338
g0
(g1
g2
(lp339
Va
p340
atp341
Rp342
(dp343
g13
VDT
p344
sbag0
(g1
g2
(lp345
Vlittle
p346
atp347
Rp348
(dp349
g13
VJJ
p350
sbatp351
Rp352
(dp353
g13
VNP
p354
sbag0
(g1
g2
(lp355
Vearly
p356
atp357
Rp358
(dp359
g13
VJJ
p360
sbatp361
Rp362
(dp363
g13
VADJP
p364
sbag0
(g1
g2
(lp365
V,
p366
atp367
Rp368
(dp369
g13
V,
p370
sbag0
(g1
g2
(lp371
Vor
p372
atp373
Rp374
(dp375
g13
VCC
p376
sbag0
(g1
g2
(lp377
g0
(g1
g2
(lp378
Vprobably
p379
atp380
Rp381
(dp382
g13
VRB
p383
sbag0
(g1
g2
(lp384
Vtoo
p385
atp386
Rp387
(dp388
g13
VRB
p389
sbag0
(g1
g2
(lp390
Vlitle/ob
p391
atp392
Rp393
(dp394
g13
VJJ
p395
sbatp396
Rp397
(dp398
g13
VADJP
p399
sbatp400
Rp401
(dp402
g13
VADJP
p403
sbag0
(g1
g2
(lp404
Vlittle
p405
atp406
Rp407
(dp408
g13
VJJ
p409
sbag0
(g1
g2
(lp410
Vbit
p411
atp412
Rp413
(dp414
g13
VNN
p415
sbatp416
Rp417
(dp418
g13
VNP
p419
sbag0
(g1
g2
(lp420
g0
(g1
g2
(lp421
Vlate
p422
atp423
Rp424
(dp425
g13
VJJ
p426
sbag0
(g1
g2
(lp427
g0
(g1
g2
(lp428
Vin
p429
atp430
Rp431
(dp432
g13
VIN
p433
sbag0
(g1
g2
(lp434
g0
(g1
g2
(lp435
Vthe
p436
atp437
Rp438
(dp439
g13
VDT
p440
sbag0
(g1
g2
(lp441
Vspring
p442
atp443
Rp444
(dp445
g13
VNN
p446
sbatp447
Rp448
(dp449
g13
VNP
p450
sbatp451
Rp452
(dp453
g13
VPP
p454
sbatp455
Rp456
(dp457
g13
VADJP
p458
sbatp459
Rp460
(dp461
g13
VNP
p462
sbag0
(g1
g2
(lp463
g0
(g1
g2
(lp464
Vfor
p465
atp466
Rp467
(dp468
g13
VIN
p469
sbag0
(g1
g2
(lp470
g0
(g1
g2
(lp471
g0
(g1
g2
(lp472
Vhim
p473
atp474
Rp475
(dp476
g13
VPRP
p477
sbatp478
Rp479
(dp480
g13
VNP
p481
sbag0
(g1
g2
(lp482
g0
(g1
g2
(lp483
Vto
p484
atp485
Rp486
(dp487
g13
VTO
p488
sbag0
(g1
g2
(lp489
g0
(g1
g2
(lp490
Vbe
p491
atp492
Rp493
(dp494
g13
VVB
p495
sbag0
(g1
g2
(lp496
g0
(g1
g2
(lp497
Vflying
p498
atp499
Rp500
(dp501
g13
VVBG
p502
sbag0
(g1
g2
(lp503
g0
(g1
g2
(lp504
Va
p505
atp506
Rp507
(dp508
g13
VDT
p509
sbag0
(g1
g2
(lp510
Vkite
p511
atp512
Rp513
(dp514
g13
VNN
p515
sbatp516
Rp517
(dp518
g13
VNP
p519
sbatp520
Rp521
(dp522
g13
VVP
p523
sbatp524
Rp525
(dp526
g13
VVP
p527
sbatp528
Rp529
(dp530
g13
VVP
p531
sbatp532
Rp533
(dp534
g13
VS
p535
sbatp536
Rp537
(dp538
g13
VSBAR
p539
sbag0
(g1
g2
(lp540
V,
p541
atp542
Rp543
(dp544
g13
V,
p545
sbag0
(g1
g2
(lp546
g0
(g1
g2
(lp547
Veven
p548
atp549
Rp550
(dp551
g13
VRB
p552
sbag0
(g1
g2
(lp553
Vthough
p554
atp555
Rp556
(dp557
g13
VIN
p558
sbag0
(g1
g2
(lp559
g0
(g1
g2
(lp560
g0
(g1
g2
(lp561
Vit
p562
atp563
Rp564
(dp565
g13
VPRP
p566
sbatp567
Rp568
(dp569
g13
VNP
p570
sbag0
(g1
g2
(lp571
g0
(g1
g2
(lp572
g0
(g1
g2
(lp573
Vhas
p574
atp575
Rp576
(dp577
g13
VVBZ
p578
sbag0
(g1
g2
(lp579
g0
(g1
g2
(lp580
g0
(g1
g2
(lp581
Va
p582
atp583
Rp584
(dp585
g13
VDT
p586
sbag0
(g1
g2
(lp587
Vtail
p588
atp589
Rp590
(dp591
g13
VNN
p592
sbatp593
Rp594
(dp595
g13
VNP
p596
sbag0
(g1
g2
(lp597
g0
(g1
g2
(lp598
Von
p599
atp600
Rp601
(dp602
g13
VIN
p603
sbag0
(g1
g2
(lp604
g0
(g1
g2
(lp605
Vit
p606
atp607
Rp608
(dp609
g13
VPRP
p610
sbatp611
Rp612
(dp613
g13
VNP
p614
sbatp615
Rp616
(dp617
g13
VPP
p618
sbatp619
Rp620
(dp621
g13
VNP
p622
sbatp623
Rp624
(dp625
g13
VVP
p626
sbag0
(g1
g2
(lp627
V,
p628
atp629
Rp630
(dp631
g13
V,
p632
sbag0
(g1
g2
(lp633
Vand
p634
atp635
Rp636
(dp637
g13
VCC
p638
sbag0
(g1
g2
(lp639
g0
(g1
g2
(lp640
g0
(g1
g2
(lp641
Valso
p642
atp643
Rp644
(dp645
g13
VRB
p646
sbatp647
Rp648
(dp649
g13
VADVP
p650
sbag0
(g1
g2
(lp651
Vhas
p652
atp653
Rp654
(dp655
g13
VVBZ
p656
sbag0
(g1
g2
(lp657
g0
(g1
g2
(lp658
g0
(g1
g2
(lp659
Va
p660
atp661
Rp662
(dp663
g13
VDT
p664
sbag0
(g1
g2
(lp665
Vcord
p666
atp667
Rp668
(dp669
g13
VNN
p670
sbatp671
Rp672
(dp673
g13
VNP
p674
sbag0
(g1
g2
(lp675
g0
(g1
g2
(lp676
g0
(g1
g2
(lp677
g0
(g1
g2
(lp678
Vwrapped
p679
atp680
Rp681
(dp682
g13
VVBD
p683
sbag0
(g1
g2
(lp684
g0
(g1
g2
(lp685
Varound
p686
atp687
Rp688
(dp689
g13
VRB
p690
sbatp691
Rp692
(dp693
g13
VADVP
p694
sbag0
(g1
g2
(lp695
g0
(g1
g2
(lp696
Vso
p697
atp698
Rp699
(dp700
g13
VRB
p701
sbag0
(g1
g2
(lp702
Vthat
p703
atp704
Rp705
(dp706
g13
VIN
p707
sbag0
(g1
g2
(lp708
g0
(g1
g2
(lp709
g0
(g1
g2
(lp710
Vhe
p711
atp712
Rp713
(dp714
g13
VPRP
p715
sbatp716
Rp717
(dp718
g13
VNP
p719
sbag0
(g1
g2
(lp720
g0
(g1
g2
(lp721
Vcan
p722
atp723
Rp724
(dp725
g13
VMD
p726
sbag0
(g1
g2
(lp727
g0
(g1
g2
(lp728
Vguide
p729
atp730
Rp731
(dp732
g13
VVB
p733
sbag0
(g1
g2
(lp734
Vand
p735
atp736
Rp737
(dp738
g13
VCC
p739
sbag0
(g1
g2
(lp740
Vkeep
p741
atp742
Rp743
(dp744
g13
VVB
p745
sbag0
(g1
g2
(lp746
g0
(g1
g2
(lp747
g0
(g1
g2
(lp748
Vthe
p749
atp750
Rp751
(dp752
g13
VDT
p753
sbatp754
Rp755
(dp756
g13
VNP
p757
sbag0
(g1
g2
(lp758
V,
p759
atp760
Rp761
(dp762
g13
V,
p763
sbag0
(g1
g2
(lp764
g0
(g1
g2
(lp765
g0
(g1
g2
(lp766
Vthe
p767
atp768
Rp769
(dp770
g13
VDT
p771
sbag0
(g1
g2
(lp772
Vkite
p773
atp774
Rp775
(dp776
g13
VNN
p777
sbatp778
Rp779
(dp780
g13
VNP
p781
sbag0
(g1
g2
(lp782
g0
(g1
g2
(lp783
Vfrom
p784
atp785
Rp786
(dp787
g13
VIN
p788
sbag0
(g1
g2
(lp789
g0
(g1
g2
(lp790
g0
(g1
g2
(lp791
Vgoing
p792
atp793
Rp794
(dp795
g13
VVBG
p796
sbag0
(g1
g2
(lp797
g0
(g1
g2
(lp798
Vinto
p799
atp800
Rp801
(dp802
g13
VIN
p803
sbag0
(g1
g2
(lp804
g0
(g1
g2
(lp805
Vthe
p806
atp807
Rp808
(dp809
g13
VDT
p810
sbag0
(g1
g2
(lp811
Vsky
p812
atp813
Rp814
(dp815
g13
VNN
p816
sbatp817
Rp818
(dp819
g13
VNP
p820
sbatp821
Rp822
(dp823
g13
VPP
p824
sbatp825
Rp826
(dp827
g13
VVP
p828
sbatp829
Rp830
(dp831
g13
VS
p832
sbatp833
Rp834
(dp835
g13
VPP
p836
sbatp837
Rp838
(dp839
g13
VNP
p840
sbatp841
Rp842
(dp843
g13
VNP
p844
sbatp845
Rp846
(dp847
g13
VVP
p848
sbatp849
Rp850
(dp851
g13
VVP
p852
sbatp853
Rp854
(dp855
g13
VS
p856
sbatp857
Rp858
(dp859
g13
VSBAR
p860
sbatp861
Rp862
(dp863
g13
VVP
p864
sbatp865
Rp866
(dp867
g13
VS
p868
sbatp869
Rp870
(dp871
g13
VSBAR
p872
sbatp873
Rp874
(dp875
g13
VNP
p876
sbatp877
Rp878
(dp879
g13
VVP
p880
sbatp881
Rp882
(dp883
g13
VVP
p884
sbatp885
Rp886
(dp887
g13
VS
p888
sbatp889
Rp890
(dp891
g13
VSBAR
p892
sbatp893
Rp894
(dp895
g13
VVP
p896
sbatp897
Rp898
(dp899
g13
VS
p900
sbatp901
Rp902
(dp903
g13
VSBAR
p904
sbatp905
Rp906
(dp907
g13
VVP
p908
sbag0
(g1
g2
(lp909
V.
p910
atp911
Rp912
(dp913
g13
V.
p914
sbatp915
Rp916
(dp917
g13
VS
p918
sbatp919
Rp920
(dp921
g13
S'id: 1'
p922
sbag0
(g1
g2
(lp923
g0
(g1
g2
(lp924
g0
(g1
g2
(lp925
g0
(g1
g2
(lp926
g0
(g1
g2
(lp927
g0
(g1
g2
(lp928
VThere
p929
atp930
Rp931
(dp932
g13
VEX
p933
sbatp934
Rp935
(dp936
g13
VNP
p937
sbag0
(g1
g2
(lp938
g0
(g1
g2
(lp939
V's
p940
atp941
Rp942
(dp943
g13
VVBZ
p944
sbag0
(g1
g2
(lp945
g0
(g1
g2
(lp946
g0
(g1
g2
(lp947
Vthe
p948
atp949
Rp950
(dp951
g13
VDT
p952
sbag0
(g1
g2
(lp953
Vwater
p954
atp955
Rp956
(dp957
g13
VNN
p958
sbatp959
Rp960
(dp961
g13
VNP
p962
sbag0
(g1
g2
(lp963
g0
(g1
g2
(lp964
Von
p965
atp966
Rp967
(dp968
g13
VIN
p969
sbag0
(g1
g2
(lp970
g0
(g1
g2
(lp971
Vthe
p972
atp973
Rp974
(dp975
g13
VDT
p976
sbag0
(g1
g2
(lp977
Vlake
p978
atp979
Rp980
(dp981
g13
VNN
p982
sbatp983
Rp984
(dp985
g13
VNP
p986
sbatp987
Rp988
(dp989
g13
VPP
p990
sbatp991
Rp992
(dp993
g13
VNP
p994
sbatp995
Rp996
(dp997
g13
VVP
p998
sbatp999
Rp1000
(dp1001
g13
VS
p1002
sbag0
(g1
g2
(lp1003
V,
p1004
atp1005
Rp1006
(dp1007
g13
V,
p1008
sbag0
(g1
g2
(lp1009
Vand
p1010
atp1011
Rp1012
(dp1013
g13
VCC
p1014
sbag0
(g1
g2
(lp1015
g0
(g1
g2
(lp1016
g0
(g1
g2
(lp1017
g0
(g1
g2
(lp1018
Vthere
p1019
atp1020
Rp1021
(dp1022
g13
VEX
p1023
sbatp1024
Rp1025
(dp1026
g13
VNP
p1027
sbag0
(g1
g2
(lp1028
g0
(g1
g2
(lp1029
V's
p1030
atp1031
Rp1032
(dp1033
g13
VVBZ
p1034
sbag0
(g1
g2
(lp1035
g0
(g1
g2
(lp1036
Va
p1037
atp1038
Rp1039
(dp1040
g13
VDT
p1041
sbag0
(g1
g2
(lp1042
Vsailboat
p1043
atp1044
Rp1045
(dp1046
g13
VNN
p1047
sbatp1048
Rp1049
(dp1050
g13
VNP
p1051
sbatp1052
Rp1053
(dp1054
g13
VVP
p1055
sbatp1056
Rp1057
(dp1058
g13
VS
p1059
sbag0
(g1
g2
(lp1060
V,
p1061
atp1062
Rp1063
(dp1064
g13
V,
p1065
sbag0
(g1
g2
(lp1066
Vand
p1067
atp1068
Rp1069
(dp1070
g13
VCC
p1071
sbag0
(g1
g2
(lp1072
g0
(g1
g2
(lp1073
g0
(g1
g2
(lp1074
Vthere
p1075
atp1076
Rp1077
(dp1078
g13
VEX
p1079
sbatp1080
Rp1081
(dp1082
g13
VNP
p1083
sbag0
(g1
g2
(lp1084
g0
(g1
g2
(lp1085
V's
p1086
atp1087
Rp1088
(dp1089
g13
VVBZ
p1090
sbag0
(g1
g2
(lp1091
g0
(g1
g2
(lp1092
g0
(g1
g2
(lp1093
Va
p1094
atp1095
Rp1096
(dp1097
g13
VDT
p1098
sbag0
(g1
g2
(lp1099
Vspecial
p1100
atp1101
Rp1102
(dp1103
g13
VJJ
p1104
sbag0
(g1
g2
(lp1105
Vnumber
p1106
atp1107
Rp1108
(dp1109
g13
VNN
p1110
sbatp1111
Rp1112
(dp1113
g13
VNP
p1114
sbag0
(g1
g2
(lp1115
g0
(g1
g2
(lp1116
Von
p1117
atp1118
Rp1119
(dp1120
g13
VIN
p1121
sbag0
(g1
g2
(lp1122
g0
(g1
g2
(lp1123
Vthere
p1124
atp1125
Rp1126
(dp1127
g13
VEX
p1128
sbatp1129
Rp1130
(dp1131
g13
VNP
p1132
sbatp1133
Rp1134
(dp1135
g13
VPP
p1136
sbag0
(g1
g2
(lp1137
g0
(g1
g2
(lp1138
Vfor
p1139
atp1140
Rp1141
(dp1142
g13
VIN
p1143
sbag0
(g1
g2
(lp1144
g0
(g1
g2
(lp1145
g0
(g1
g2
(lp1146
Vthe
p1147
atp1148
Rp1149
(dp1150
g13
VDT
p1151
sbag0
(g1
g2
(lp1152
Vnumber
p1153
atp1154
Rp1155
(dp1156
g13
VNN
p1157
sbatp1158
Rp1159
(dp1160
g13
VNP
p1161
sbag0
(g1
g2
(lp1162
g0
(g1
g2
(lp1163
g0
(g1
g2
(lp1164
g0
(g1
g2
(lp1165
Vfour
p1166
atp1167
Rp1168
(dp1169
g13
VCD
p1170
sbag0
(g1
g2
(lp1171
Vseven
p1172
atp1173
Rp1174
(dp1175
g13
VCD
p1176
sbatp1177
Rp1178
(dp1179
g13
VQP
p1180
sbatp1181
Rp1182
(dp1183
g13
VNP
p1184
sbag0
(g1
g2
(lp1185
g0
(g1
g2
(lp1186
Vzero
p1187
atp1188
Rp1189
(dp1190
g13
VCD
p1191
sbatp1192
Rp1193
(dp1194
g13
VNP
p1195
sbatp1196
Rp1197
(dp1198
g13
VNP
p1199
sbatp1200
Rp1201
(dp1202
g13
VNP
p1203
sbatp1204
Rp1205
(dp1206
g13
VPP
p1207
sbatp1208
Rp1209
(dp1210
g13
VNP
p1211
sbatp1212
Rp1213
(dp1214
g13
VVP
p1215
sbatp1216
Rp1217
(dp1218
g13
VS
p1219
sbatp1220
Rp1221
(dp1222
g13
VS
p1223
sbatp1224
Rp1225
(dp1226
g13
VS
p1227
sbag0
(g1
g2
(lp1228
g0
(g1
g2
(lp1229
V,
p1230
atp1231
Rp1232
(dp1233
g13
V,
p1234
sbag0
(g1
g2
(lp1235
g0
(g1
g2
(lp1236
g0
(g1
g2
(lp1237
VI
p1238
atp1239
Rp1240
(dp1241
g13
VPRP
p1242
sbatp1243
Rp1244
(dp1245
g13
VNP
p1246
sbag0
(g1
g2
(lp1247
g0
(g1
g2
(lp1248
Vdo
p1249
atp1250
Rp1251
(dp1252
g13
VVBP
p1253
sbag0
(g1
g2
(lp1254
Vn't
p1255
atp1256
Rp1257
(dp1258
g13
VRB
p1259
sbag0
(g1
g2
(lp1260
g0
(g1
g2
(lp1261
Vknow
p1262
atp1263
Rp1264
(dp1265
g13
VVB
p1266
sbag0
(g1
g2
(lp1267
g0
(g1
g2
(lp1268
g0
(g1
g2
(lp1269
Vwhat
p1270
atp1271
Rp1272
(dp1273
g13
VWP
p1274
sbatp1275
Rp1276
(dp1277
g13
VWHNP
p1278
sbag0
(g1
g2
(lp1279
g0
(g1
g2
(lp1280
g0
(g1
g2
(lp1281
Vit
p1282
atp1283
Rp1284
(dp1285
g13
VPRP
p1286
sbatp1287
Rp1288
(dp1289
g13
VNP
p1290
sbag0
(g1
g2
(lp1291
g0
(g1
g2
(lp1292
V's
p1293
atp1294
Rp1295
(dp1296
g13
VVBZ
p1297
sbag0
(g1
g2
(lp1298
g0
(g1
g2
(lp1299
Vfor
p1300
atp1301
Rp1302
(dp1303
g13
VIN
p1304
sbatp1305
Rp1306
(dp1307
g13
VPP
p1308
sbatp1309
Rp1310
(dp1311
g13
VVP
p1312
sbatp1313
Rp1314
(dp1315
g13
VS
p1316
sbatp1317
Rp1318
(dp1319
g13
VSBAR
p1320
sbatp1321
Rp1322
(dp1323
g13
VVP
p1324
sbatp1325
Rp1326
(dp1327
g13
VVP
p1328
sbatp1329
Rp1330
(dp1331
g13
VS
p1332
sbag0
(g1
g2
(lp1333
V,
p1334
atp1335
Rp1336
(dp1337
g13
V,
p1338
sbatp1339
Rp1340
(dp1341
g13
VPRN
p1342
sbag0
(g1
g2
(lp1343
Vbut
p1344
atp1345
Rp1346
(dp1347
g13
VCC
p1348
sbag0
(g1
g2
(lp1349
g0
(g1
g2
(lp1350
g0
(g1
g2
(lp1351
Vit
p1352
atp1353
Rp1354
(dp1355
g13
VPRP
p1356
sbatp1357
Rp1358
(dp1359
g13
VNP
p1360
sbag0
(g1
g2
(lp1361
g0
(g1
g2
(lp1362
V's
p1363
atp1364
Rp1365
(dp1366
g13
VVBZ
p1367
sbag0
(g1
g2
(lp1368
g0
(g1
g2
(lp1369
Vfor
p1370
atp1371
Rp1372
(dp1373
g13
VIN
p1374
sbatp1375
Rp1376
(dp1377
g13
VPP
p1378
sbatp1379
Rp1380
(dp1381
g13
VVP
p1382
sbatp1383
Rp1384
(dp1385
g13
VS
p1386
sbag0
(g1
g2
(lp1387
V.
p1388
atp1389
Rp1390
(dp1391
g13
V.
p1392
sbatp1393
Rp1394
(dp1395
g13
VS
p1396
sbatp1397
Rp1398
(dp1399
g13
S'id: 2'
p1400
sbag0
(g1
g2
(lp1401
g0
(g1
g2
(lp1402
g0
(g1
g2
(lp1403
g0
(g1
g2
(lp1404
g0
(g1
g2
(lp1405
VThat
p1406
atp1407
Rp1408
(dp1409
g13
VDT
p1410
sbatp1411
Rp1412
(dp1413
g13
VNP
p1414
sbag0
(g1
g2
(lp1415
g0
(g1
g2
(lp1416
V's
p1417
atp1418
Rp1419
(dp1420
g13
VVBZ
p1421
sbag0
(g1
g2
(lp1422
g0
(g1
g2
(lp1423
g0
(g1
g2
(lp1424
Va
p1425
atp1426
Rp1427
(dp1428
g13
VDT
p1429
sbag0
(g1
g2
(lp1430
Vguy
p1431
atp1432
Rp1433
(dp1434
g13
VNN
p1435
sbatp1436
Rp1437
(dp1438
g13
VNP
p1439
sbag0
(g1
g2
(lp1440
V,
p1441
atp1442
Rp1443
(dp1444
g13
V,
p1445
sbag0
(g1
g2
(lp1446
g0
(g1
g2
(lp1447
g0
(g1
g2
(lp1448
Vthat
p1449
atp1450
Rp1451
(dp1452
g13
VDT
p1453
sbatp1454
Rp1455
(dp1456
g13
VWHNP
p1457
sbag0
(g1
g2
(lp1458
g0
(g1
g2
(lp1459
g0
(g1
g2
(lp1460
V's
p1461
atp1462
Rp1463
(dp1464
g13
VVBZ
p1465
sbag0
(g1
g2
(lp1466
g0
(g1
g2
(lp1467
Vthere
p1468
atp1469
Rp1470
(dp1471
g13
VEX
p1472
sbatp1473
Rp1474
(dp1475
g13
VNP
p1476
sbag0
(g1
g2
(lp1477
g0
(g1
g2
(lp1478
Von
p1479
atp1480
Rp1481
(dp1482
g13
VIN
p1483
sbag0
(g1
g2
(lp1484
g0
(g1
g2
(lp1485
Vthe
p1486
atp1487
Rp1488
(dp1489
g13
VDT
p1490
sbag0
(g1
g2
(lp1491
g0
(g1
g2
(lp1492
g0
(g1
g2
(lp1493
Vdock
p1494
atp1495
Rp1496
(dp1497
g13
VNN
p1498
sbatp1499
Rp1500
(dp1501
g13
VNX
p1502
sbag0
(g1
g2
(lp1503
Vand
p1504
atp1505
Rp1506
(dp1507
g13
VCC
p1508
sbatp1509
Rp1510
(dp1511
g13
VNX
p1512
sbatp1513
Rp1514
(dp1515
g13
VNP
p1516
sbatp1517
Rp1518
(dp1519
g13
VPP
p1520
sbatp1521
Rp1522
(dp1523
g13
VVP
p1524
sbatp1525
Rp1526
(dp1527
g13
VS
p1528
sbatp1529
Rp1530
(dp1531
g13
VSBAR
p1532
sbatp1533
Rp1534
(dp1535
g13
VNP
p1536
sbatp1537
Rp1538
(dp1539
g13
VVP
p1540
sbatp1541
Rp1542
(dp1543
g13
VS
p1544
sbag0
(g1
g2
(lp1545
V,
p1546
atp1547
Rp1548
(dp1549
g13
V,
p1550
sbag0
(g1
g2
(lp1551
Vand
p1552
atp1553
Rp1554
(dp1555
g13
VCC
p1556
sbag0
(g1
g2
(lp1557
g0
(g1
g2
(lp1558
g0
(g1
g2
(lp1559
g0
(g1
g2
(lp1560
Vit
p1561
atp1562
Rp1563
(dp1564
g13
VPRP
p1565
sbatp1566
Rp1567
(dp1568
g13
VNP
p1569
sbag0
(g1
g2
(lp1570
g0
(g1
g2
(lp1571
V's
p1572
atp1573
Rp1574
(dp1575
g13
VVBZ
p1576
sbag0
(g1
g2
(lp1577
g0
(g1
g2
(lp1578
Vextending
p1579
atp1580
Rp1581
(dp1582
g13
VVBG
p1583
sbag0
(g1
g2
(lp1584
g0
(g1
g2
(lp1585
Vinto
p1586
atp1587
Rp1588
(dp1589
g13
VIN
p1590
sbag0
(g1
g2
(lp1591
g0
(g1
g2
(lp1592
Vthe
p1593
atp1594
Rp1595
(dp1596
g13
VDT
p1597
sbag0
(g1
g2
(lp1598
Vwater
p1599
atp1600
Rp1601
(dp1602
g13
VNN
p1603
sbatp1604
Rp1605
(dp1606
g13
VNP
p1607
sbatp1608
Rp1609
(dp1610
g13
VPP
p1611
sbatp1612
Rp1613
(dp1614
g13
VVP
p1615
sbatp1616
Rp1617
(dp1618
g13
VVP
p1619
sbatp1620
Rp1621
(dp1622
g13
VS
p1623
sbag0
(g1
g2
(lp1624
V,
p1625
atp1626
Rp1627
(dp1628
g13
V,
p1629
sbag0
(g1
g2
(lp1630
Vand
p1631
atp1632
Rp1633
(dp1634
g13
VCC
p1635
sbag0
(g1
g2
(lp1636
g0
(g1
g2
(lp1637
g0
(g1
g2
(lp1638
g0
(g1
g2
(lp1639
Vhe
p1640
atp1641
Rp1642
(dp1643
g13
VPRP
p1644
sbatp1645
Rp1646
(dp1647
g13
VNP
p1648
sbag0
(g1
g2
(lp1649
g0
(g1
g2
(lp1650
V's
p1651
atp1652
Rp1653
(dp1654
g13
VVBZ
p1655
sbag0
(g1
g2
(lp1656
g0
(g1
g2
(lp1657
Vgot
p1658
atp1659
Rp1660
(dp1661
g13
VVBD
p1662
sbag0
(g1
g2
(lp1663
g0
(g1
g2
(lp1664
Va
p1665
atp1666
Rp1667
(dp1668
g13
VDT
p1669
sbag0
(g1
g2
(lp1670
Vfishing
p1671
atp1672
Rp1673
(dp1674
g13
VNN
p1675
sbag0
(g1
g2
(lp1676
Vpole
p1677
atp1678
Rp1679
(dp1680
g13
VNN
p1681
sbatp1682
Rp1683
(dp1684
g13
VNP
p1685
sbatp1686
Rp1687
(dp1688
g13
VVP
p1689
sbatp1690
Rp1691
(dp1692
g13
VVP
p1693
sbatp1694
Rp1695
(dp1696
g13
VS
p1697
sbag0
(g1
g2
(lp1698
V,
p1699
atp1700
Rp1701
(dp1702
g13
V,
p1703
sbag0
(g1
g2
(lp1704
Vand
p1705
atp1706
Rp1707
(dp1708
g13
VCC
p1709
sbag0
(g1
g2
(lp1710
g0
(g1
g2
(lp1711
g0
(g1
g2
(lp1712
g0
(g1
g2
(lp1713
Vhe
p1714
atp1715
Rp1716
(dp1717
g13
VPRP
p1718
sbatp1719
Rp1720
(dp1721
g13
VNP
p1722
sbag0
(g1
g2
(lp1723
g0
(g1
g2
(lp1724
V's
p1725
atp1726
Rp1727
(dp1728
g13
VVBZ
p1729
sbag0
(g1
g2
(lp1730
g0
(g1
g2
(lp1731
Vpulling
p1732
atp1733
Rp1734
(dp1735
g13
VVBG
p1736
sbag0
(g1
g2
(lp1737
g0
(g1
g2
(lp1738
g0
(g1
g2
(lp1739
Va
p1740
atp1741
Rp1742
(dp1743
g13
VDT
p1744
sbag0
(g1
g2
(lp1745
Vfish
p1746
atp1747
Rp1748
(dp1749
g13
VNN
p1750
sbatp1751
Rp1752
(dp1753
g13
VNP
p1754
sbag0
(g1
g2
(lp1755
Vout
p1756
atp1757
Rp1758
(dp1759
g13
VIN
p1760
sbatp1761
Rp1762
(dp1763
g13
VADVP
p1764
sbag0
(g1
g2
(lp1765
g0
(g1
g2
(lp1766
Vof
p1767
atp1768
Rp1769
(dp1770
g13
VIN
p1771
sbag0
(g1
g2
(lp1772
g0
(g1
g2
(lp1773
Vthe
p1774
atp1775
Rp1776
(dp1777
g13
VDT
p1778
sbag0
(g1
g2
(lp1779
Vlake
p1780
atp1781
Rp1782
(dp1783
g13
VNN
p1784
sbatp1785
Rp1786
(dp1787
g13
VNP
p1788
sbatp1789
Rp1790
(dp1791
g13
VPP
p1792
sbatp1793
Rp1794
(dp1795
g13
VVP
p1796
sbatp1797
Rp1798
(dp1799
g13
VVP
p1800
sbatp1801
Rp1802
(dp1803
g13
VS
p1804
sbag0
(g1
g2
(lp1805
V,
p1806
atp1807
Rp1808
(dp1809
g13
V,
p1810
sbag0
(g1
g2
(lp1811
Vand
p1812
atp1813
Rp1814
(dp1815
g13
VCC
p1816
sbag0
(g1
g2
(lp1817
g0
(g1
g2
(lp1818
g0
(g1
g2
(lp1819
Vit
p1820
atp1821
Rp1822
(dp1823
g13
VPRP
p1824
sbatp1825
Rp1826
(dp1827
g13
VNP
p1828
sbag0
(g1
g2
(lp1829
g0
(g1
g2
(lp1830
V's
p1831
atp1832
Rp1833
(dp1834
g13
VVBZ
p1835
sbag0
(g1
g2
(lp1836
g0
(g1
g2
(lp1837
Vsplashing
p1838
atp1839
Rp1840
(dp1841
g13
VVBG
p1842
sbag0
(g1
g2
(lp1843
g0
(g1
g2
(lp1844
Vas
p1845
atp1846
Rp1847
(dp1848
g13
VIN
p1849
sbag0
(g1
g2
(lp1850
g0
(g1
g2
(lp1851
g0
(g1
g2
(lp1852
Vthe
p1853
atp1854
Rp1855
(dp1856
g13
VDT
p1857
sbag0
(g1
g2
(lp1858
Vfish
p1859
atp1860
Rp1861
(dp1862
g13
VNN
p1863
sbatp1864
Rp1865
(dp1866
g13
VNP
p1867
sbag0
(g1
g2
(lp1868
g0
(g1
g2
(lp1869
Vis
p1870
atp1871
Rp1872
(dp1873
g13
VVBZ
p1874
sbag0
(g1
g2
(lp1875
g0
(g1
g2
(lp1876
Vmessing
p1877
atp1878
Rp1879
(dp1880
g13
VVBG
p1881
sbag0
(g1
g2
(lp1882
g0
(g1
g2
(lp1883
Varound
p1884
atp1885
Rp1886
(dp1887
g13
VIN
p1888
sbag0
(g1
g2
(lp1889
g0
(g1
g2
(lp1890
Vthere
p1891
atp1892
Rp1893
(dp1894
g13
VEX
p1895
sbatp1896
Rp1897
(dp1898
g13
VNP
p1899
sbatp1900
Rp1901
(dp1902
g13
VPP
p1903
sbatp1904
Rp1905
(dp1906
g13
VVP
p1907
sbatp1908
Rp1909
(dp1910
g13
VVP
p1911
sbatp1912
Rp1913
(dp1914
g13
VS
p1915
sbatp1916
Rp1917
(dp1918
g13
VSBAR
p1919
sbatp1920
Rp1921
(dp1922
g13
VVP
p1923
sbatp1924
Rp1925
(dp1926
g13
VVP
p1927
sbatp1928
Rp1929
(dp1930
g13
VS
p1931
sbatp1932
Rp1933
(dp1934
g13
VS
p1935
sbatp1936
Rp1937
(dp1938
g13
VS
p1939
sbatp1940
Rp1941
(dp1942
g13
VS
p1943
sbag0
(g1
g2
(lp1944
V.
p1945
atp1946
Rp1947
(dp1948
g13
V.
p1949
sbatp1950
Rp1951
(dp1952
g13
VS
p1953
sbatp1954
Rp1955
(dp1956
g13
S'id: 3'
p1957
sbag0
(g1
g2
(lp1958
g0
(g1
g2
(lp1959
g0
(g1
g2
(lp1960
g0
(g1
g2
(lp1961
VI
p1962
atp1963
Rp1964
(dp1965
g13
VPRP
p1966
sbatp1967
Rp1968
(dp1969
g13
VNP
p1970
sbag0
(g1
g2
(lp1971
g0
(g1
g2
(lp1972
Vsee
p1973
atp1974
Rp1975
(dp1976
g13
VVBP
p1977
sbag0
(g1
g2
(lp1978
g0
(g1
g2
(lp1979
g0
(g1
g2
(lp1980
g0
(g1
g2
(lp1981
Vthe
p1982
atp1983
Rp1984
(dp1985
g13
VDT
p1986
sbag0
(g1
g2
(lp1987
Vpretty
p1988
atp1989
Rp1990
(dp1991
g13
VJJ
p1992
sbag0
(g1
g2
(lp1993
Vleaves
p1994
atp1995
Rp1996
(dp1997
g13
VNNS
p1998
sbatp1999
Rp2000
(dp2001
g13
VNP
p2002
sbag0
(g1
g2
(lp2003
g0
(g1
g2
(lp2004
Von
p2005
atp2006
Rp2007
(dp2008
g13
VIN
p2009
sbag0
(g1
g2
(lp2010
g0
(g1
g2
(lp2011
Vthe
p2012
atp2013
Rp2014
(dp2015
g13
VDT
p2016
sbag0
(g1
g2
(lp2017
g0
(g1
g2
(lp2018
V,
p2019
atp2020
Rp2021
(dp2022
g13
V,
p2023
sbag0
(g1
g2
(lp2024
Von
p2025
atp2026
Rp2027
(dp2028
g13
VIN
p2029
sbag0
(g1
g2
(lp2030
Vthe
p2031
atp2032
Rp2033
(dp2034
g13
VDT
p2035
sbag0
(g1
g2
(lp2036
V,
p2037
atp2038
Rp2039
(dp2040
g13
V,
p2041
sbatp2042
Rp2043
(dp2044
g13
VPRN
p2045
sbatp2046
Rp2047
(dp2048
g13
VNP
p2049
sbatp2050
Rp2051
(dp2052
g13
VPP
p2053
sbag0
(g1
g2
(lp2054
g0
(g1
g2
(lp2055
Von
p2056
atp2057
Rp2058
(dp2059
g13
VIN
p2060
sbag0
(g1
g2
(lp2061
g0
(g1
g2
(lp2062
g0
(g1
g2
(lp2063
g0
(g1
g2
(lp2064
Vthe
p2065
atp2066
Rp2067
(dp2068
g13
VDT
p2069
sbag0
(g1
g2
(lp2070
Vbig
p2071
atp2072
Rp2073
(dp2074
g13
VJJ
p2075
sbag0
(g1
g2
(lp2076
Vtree
p2077
atp2078
Rp2079
(dp2080
g13
VNN
p2081
sbatp2082
Rp2083
(dp2084
g13
VNP
p2085
sbag0
(g1
g2
(lp2086
g0
(g1
g2
(lp2087
Vout
p2088
atp2089
Rp2090
(dp2091
g13
VIN
p2092
sbag0
(g1
g2
(lp2093
g0
(g1
g2
(lp2094
Vthere
p2095
atp2096
Rp2097
(dp2098
g13
VRB
p2099
sbatp2100
Rp2101
(dp2102
g13
VNP
p2103
sbatp2104
Rp2105
(dp2106
g13
VPP
p2107
sbatp2108
Rp2109
(dp2110
g13
VNP
p2111
sbag0
(g1
g2
(lp2112
V,
p2113
atp2114
Rp2115
(dp2116
g13
V,
p2117
sbag0
(g1
g2
(lp2118
Vand
p2119
atp2120
Rp2121
(dp2122
g13
VCC
p2123
sbag0
(g1
g2
(lp2124
g0
(g1
g2
(lp2125
g0
(g1
g2
(lp2126
Vnice
p2127
atp2128
Rp2129
(dp2130
g13
VJJ
p2131
sbag0
(g1
g2
(lp2132
Vbushes
p2133
atp2134
Rp2135
(dp2136
g13
VNNS
p2137
sbatp2138
Rp2139
(dp2140
g13
VNP
p2141
sbag0
(g1
g2
(lp2142
Vand
p2143
atp2144
Rp2145
(dp2146
g13
VCC
p2147
sbag0
(g1
g2
(lp2148
g0
(g1
g2
(lp2149
Veverything
p2150
atp2151
Rp2152
(dp2153
g13
VNN
p2154
sbatp2155
Rp2156
(dp2157
g13
VNP
p2158
sbatp2159
Rp2160
(dp2161
g13
VNP
p2162
sbatp2163
Rp2164
(dp2165
g13
VNP
p2166
sbatp2167
Rp2168
(dp2169
g13
VPP
p2170
sbatp2171
Rp2172
(dp2173
g13
VNP
p2174
sbag0
(g1
g2
(lp2175
V,
p2176
atp2177
Rp2178
(dp2179
g13
V,
p2180
sbag0
(g1
g2
(lp2181
g0
(g1
g2
(lp2182
Va
p2183
atp2184
Rp2185
(dp2186
g13
VDT
p2187
sbag0
(g1
g2
(lp2188
g0
(g1
g2
(lp2189
Vnice
p2190
atp2191
Rp2192
(dp2193
g13
VJJ
p2194
sbag0
(g1
g2
(lp2195
Vclean
p2196
atp2197
Rp2198
(dp2199
g13
VJJ
p2200
sbatp2201
Rp2202
(dp2203
g13
VADJP
p2204
sbag0
(g1
g2
(lp2205
Vcut
p2206
atp2207
Rp2208
(dp2209
g13
VNN
p2210
sbag0
(g1
g2
(lp2211
Vhouse
p2212
atp2213
Rp2214
(dp2215
g13
VNN
p2216
sbatp2217
Rp2218
(dp2219
g13
VNP
p2220
sbag0
(g1
g2
(lp2221
V,
p2222
atp2223
Rp2224
(dp2225
g13
V,
p2226
sbag0
(g1
g2
(lp2227
Vand
p2228
atp2229
Rp2230
(dp2231
g13
VCC
p2232
sbag0
(g1
g2
(lp2233
g0
(g1
g2
(lp2234
g0
(g1
g2
(lp2235
Va
p2236
atp2237
Rp2238
(dp2239
g13
VDT
p2240
sbag0
(g1
g2
(lp2241
Vnice
p2242
atp2243
Rp2244
(dp2245
g13
VJJ
p2246
sbag0
(g1
g2
(lp2247
Vcar
p2248
atp2249
Rp2250
(dp2251
g13
VNN
p2252
sbatp2253
Rp2254
(dp2255
g13
VNP
p2256
sbag0
(g1
g2
(lp2257
g0
(g1
g2
(lp2258
Vparked
p2259
atp2260
Rp2261
(dp2262
g13
VVBN
p2263
sbag0
(g1
g2
(lp2264
g0
(g1
g2
(lp2265
Vin
p2266
atp2267
Rp2268
(dp2269
g13
VIN
p2270
sbag0
(g1
g2
(lp2271
g0
(g1
g2
(lp2272
Vthe
p2273
atp2274
Rp2275
(dp2276
g13
VDT
p2277
sbag0
(g1
g2
(lp2278
Vgarage
p2279
atp2280
Rp2281
(dp2282
g13
VNN
p2283
sbatp2284
Rp2285
(dp2286
g13
VNP
p2287
sbatp2288
Rp2289
(dp2290
g13
VPP
p2291
sbatp2292
Rp2293
(dp2294
g13
VVP
p2295
sbatp2296
Rp2297
(dp2298
g13
VNP
p2299
sbatp2300
Rp2301
(dp2302
g13
VNP
p2303
sbag0
(g1
g2
(lp2304
V,
p2305
atp2306
Rp2307
(dp2308
g13
V,
p2309
sbag0
(g1
g2
(lp2310
g0
(g1
g2
(lp2311
Valthough
p2312
atp2313
Rp2314
(dp2315
g13
VIN
p2316
sbag0
(g1
g2
(lp2317
g0
(g1
g2
(lp2318
g0
(g1
g2
(lp2319
Vit
p2320
atp2321
Rp2322
(dp2323
g13
VPRP
p2324
sbatp2325
Rp2326
(dp2327
g13
VNP
p2328
sbag0
(g1
g2
(lp2329
g0
(g1
g2
(lp2330
V's
p2331
atp2332
Rp2333
(dp2334
g13
VVBZ
p2335
sbag0
(g1
g2
(lp2336
g0
(g1
g2
(lp2337
Vonly
p2338
atp2339
Rp2340
(dp2341
g13
VRB
p2342
sbatp2343
Rp2344
(dp2345
g13
VADVP
p2346
sbag0
(g1
g2
(lp2347
g0
(g1
g2
(lp2348
Va
p2349
atp2350
Rp2351
(dp2352
g13
VDT
p2353
sbag0
(g1
g2
(lp2354
Vsingle
p2355
atp2356
Rp2357
(dp2358
g13
VJJ
p2359
sbag0
(g1
g2
(lp2360
Vcar
p2361
atp2362
Rp2363
(dp2364
g13
VNN
p2365
sbag0
(g1
g2
(lp2366
Vgarage
p2367
atp2368
Rp2369
(dp2370
g13
VNN
p2371
sbatp2372
Rp2373
(dp2374
g13
VNP
p2375
sbatp2376
Rp2377
(dp2378
g13
VVP
p2379
sbatp2380
Rp2381
(dp2382
g13
VS
p2383
sbatp2384
Rp2385
(dp2386
g13
VSBAR
p2387
sbatp2388
Rp2389
(dp2390
g13
VVP
p2391
sbag0
(g1
g2
(lp2392
V.
p2393
atp2394
Rp2395
(dp2396
g13
V.
p2397
sbatp2398
Rp2399
(dp2400
g13
VS
p2401
sbatp2402
Rp2403
(dp2404
g13
S'id: 4'
p2405
sbag0
(g1
g2
(lp2406
g0
(g1
g2
(lp2407
g0
(g1
g2
(lp2408
g0
(g1
g2
(lp2409
VI
p2410
atp2411
Rp2412
(dp2413
g13
VPRP
p2414
sbatp2415
Rp2416
(dp2417
g13
VNP
p2418
sbag0
(g1
g2
(lp2419
g0
(g1
g2
(lp2420
Vdo
p2421
atp2422
Rp2423
(dp2424
g13
VVBP
p2425
sbag0
(g1
g2
(lp2426
Vn't
p2427
atp2428
Rp2429
(dp2430
g13
VRB
p2431
sbag0
(g1
g2
(lp2432
g0
(g1
g2
(lp2433
Vknow
p2434
atp2435
Rp2436
(dp2437
g13
VVB
p2438
sbag0
(g1
g2
(lp2439
g0
(g1
g2
(lp2440
g0
(g1
g2
(lp2441
Vwhat
p2442
atp2443
Rp2444
(dp2445
g13
VWP
p2446
sbatp2447
Rp2448
(dp2449
g13
VWHNP
p2450
sbag0
(g1
g2
(lp2451
g0
(g1
g2
(lp2452
g0
(g1
g2
(lp2453
g0
(g1
g2
(lp2454
g0
(g1
g2
(lp2455
Vthat
p2456
atp2457
Rp2458
(dp2459
g13
VIN
p2460
sbag0
(g1
g2
(lp2461
V,
p2462
atp2463
Rp2464
(dp2465
g13
V,
p2466
sbag0
(g1
g2
(lp2467
g0
(g1
g2
(lp2468
g0
(g1
g2
(lp2469
Vthat
p2470
atp2471
Rp2472
(dp2473
g13
VDT
p2474
sbatp2475
Rp2476
(dp2477
g13
VNP
p2478
sbag0
(g1
g2
(lp2479
g0
(g1
g2
(lp2480
V's
p2481
atp2482
Rp2483
(dp2484
g13
VVBZ
p2485
sbag0
(g1
g2
(lp2486
g0
(g1
g2
(lp2487
g0
(g1
g2
(lp2488
Va
p2489
atp2490
Rp2491
(dp2492
g13
VDT
p2493
sbag0
(g1
g2
(lp2494
Vflag
p2495
atp2496
Rp2497
(dp2498
g13
VNN
p2499
sbatp2500
Rp2501
(dp2502
g13
VNP
p2503
sbag0
(g1
g2
(lp2504
g0
(g1
g2
(lp2505
g0
(g1
g2
(lp2506
g0
(g1
g2
(lp2507
Vit
p2508
atp2509
Rp2510
(dp2511
g13
VPRP
p2512
sbatp2513
Rp2514
(dp2515
g13
VNP
p2516
sbag0
(g1
g2
(lp2517
g0
(g1
g2
(lp2518
Vmight
p2519
atp2520
Rp2521
(dp2522
g13
VMD
p2523
sbatp2524
Rp2525
(dp2526
g13
VVP
p2527
sbatp2528
Rp2529
(dp2530
g13
VS
p2531
sbatp2532
Rp2533
(dp2534
g13
VSBAR
p2535
sbatp2536
Rp2537
(dp2538
g13
VNP
p2539
sbatp2540
Rp2541
(dp2542
g13
VVP
p2543
sbatp2544
Rp2545
(dp2546
g13
VS
p2547
sbatp2548
Rp2549
(dp2550
g13
VSBAR
p2551
sbag0
(g1
g2
(lp2552
V,
p2553
atp2554
Rp2555
(dp2556
g13
V,
p2557
sbag0
(g1
g2
(lp2558
Vmight
p2559
atp2560
Rp2561
(dp2562
g13
VMD
p2563
sbag0
(g1
g2
(lp2564
g0
(g1
g2
(lp2565
Vbe
p2566
atp2567
Rp2568
(dp2569
g13
VVB
p2570
sbag0
(g1
g2
(lp2571
g0
(g1
g2
(lp2572
g0
(g1
g2
(lp2573
Vsomething
p2574
atp2575
Rp2576
(dp2577
g13
VNN
p2578
sbag0
(g1
g2
(lp2579
Vspecial
p2580
atp2581
Rp2582
(dp2583
g13
VJJ
p2584
sbatp2585
Rp2586
(dp2587
g13
VNP
p2588
sbag0
(g1
g2
(lp2589
g0
(g1
g2
(lp2590
g0
(g1
g2
(lp2591
Vthat
p2592
atp2593
Rp2594
(dp2595
g13
VIN
p2596
sbatp2597
Rp2598
(dp2599
g13
VWHNP
p2600
sbatp2601
Rp2602
(dp2603
g13
VSBAR
p2604
sbatp2605
Rp2606
(dp2607
g13
VNP
p2608
sbag0
(g1
g2
(lp2609
V,
p2610
atp2611
Rp2612
(dp2613
g13
V,
p2614
sbag0
(g1
g2
(lp2615
g0
(g1
g2
(lp2616
Vthat
p2617
atp2618
Rp2619
(dp2620
g13
VIN
p2621
sbag0
(g1
g2
(lp2622
g0
(g1
g2
(lp2623
g0
(g1
g2
(lp2624
Vthey
p2625
atp2626
Rp2627
(dp2628
g13
VPRP
p2629
sbatp2630
Rp2631
(dp2632
g13
VNP
p2633
sbag0
(g1
g2
(lp2634
g0
(g1
g2
(lp2635
Vcall
p2636
atp2637
Rp2638
(dp2639
g13
VVBP
p2640
sbatp2641
Rp2642
(dp2643
g13
VVP
p2644
sbatp2645
Rp2646
(dp2647
g13
VS
p2648
sbatp2649
Rp2650
(dp2651
g13
VSBAR
p2652
sbatp2653
Rp2654
(dp2655
g13
VVP
p2656
sbatp2657
Rp2658
(dp2659
g13
VVP
p2660
sbag0
(g1
g2
(lp2661
V,
p2662
atp2663
Rp2664
(dp2665
g13
V,
p2666
sbag0
(g1
g2
(lp2667
Vor
p2668
atp2669
Rp2670
(dp2671
g13
VCC
p2672
sbag0
(g1
g2
(lp2673
g0
(g1
g2
(lp2674
g0
(g1
g2
(lp2675
Vits
p2676
atp2677
Rp2678
(dp2679
g13
VPRP$
p2680
sbatp2681
Rp2682
(dp2683
g13
VNP
p2684
sbag0
(g1
g2
(lp2685
g0
(g1
g2
(lp2686
Vfor
p2687
atp2688
Rp2689
(dp2690
g13
VIN
p2691
sbag0
(g1
g2
(lp2692
g0
(g1
g2
(lp2693
g0
(g1
g2
(lp2694
Vwhere
p2695
atp2696
Rp2697
(dp2698
g13
VWRB
p2699
sbatp2700
Rp2701
(dp2702
g13
VWHADVP
p2703
sbag0
(g1
g2
(lp2704
g0
(g1
g2
(lp2705
g0
(g1
g2
(lp2706
Vthey
p2707
atp2708
Rp2709
(dp2710
g13
VPRP
p2711
sbatp2712
Rp2713
(dp2714
g13
VNP
p2715
sbag0
(g1
g2
(lp2716
g0
(g1
g2
(lp2717
Vlive
p2718
atp2719
Rp2720
(dp2721
g13
VVBP
p2722
sbatp2723
Rp2724
(dp2725
g13
VVP
p2726
sbatp2727
Rp2728
(dp2729
g13
VS
p2730
sbatp2731
Rp2732
(dp2733
g13
VSBAR
p2734
sbatp2735
Rp2736
(dp2737
g13
VPP
p2738
sbatp2739
Rp2740
(dp2741
g13
VVP
p2742
sbatp2743
Rp2744
(dp2745
g13
VVP
p2746
sbatp2747
Rp2748
(dp2749
g13
VS
p2750
sbatp2751
Rp2752
(dp2753
g13
VSBAR
p2754
sbatp2755
Rp2756
(dp2757
g13
VVP
p2758
sbatp2759
Rp2760
(dp2761
g13
VVP
p2762
sbag0
(g1
g2
(lp2763
V.
p2764
atp2765
Rp2766
(dp2767
g13
V.
p2768
sbatp2769
Rp2770
(dp2771
g13
VS
p2772
sbatp2773
Rp2774
(dp2775
g13
S'id: 5'
p2776
sbag0
(g1
g2
(lp2777
g0
(g1
g2
(lp2778
g0
(g1
g2
(lp2779
g0
(g1
g2
(lp2780
g0
(g1
g2
(lp2781
VIt
p2782
atp2783
Rp2784
(dp2785
g13
VPRP
p2786
sbatp2787
Rp2788
(dp2789
g13
VNP
p2790
sbag0
(g1
g2
(lp2791
g0
(g1
g2
(lp2792
Vlooks
p2793
atp2794
Rp2795
(dp2796
g13
VVBZ
p2797
sbag0
(g1
g2
(lp2798
g0
(g1
g2
(lp2799
Vlike
p2800
atp2801
Rp2802
(dp2803
g13
VIN
p2804
sbag0
(g1
g2
(lp2805
g0
(g1
g2
(lp2806
g0
(g1
g2
(lp2807
Vmommy
p2808
atp2809
Rp2810
(dp2811
g13
VNN
p2812
sbag0
(g1
g2
(lp2813
Vand
p2814
atp2815
Rp2816
(dp2817
g13
VCC
p2818
sbag0
(g1
g2
(lp2819
Vdaddy
p2820
atp2821
Rp2822
(dp2823
g13
VNN
p2824
sbatp2825
Rp2826
(dp2827
g13
VNP
p2828
sbag0
(g1
g2
(lp2829
g0
(g1
g2
(lp2830
Vare
p2831
atp2832
Rp2833
(dp2834
g13
VVBP
p2835
sbag0
(g1
g2
(lp2836
g0
(g1
g2
(lp2837
Vsitting
p2838
atp2839
Rp2840
(dp2841
g13
VVBG
p2842
sbag0
(g1
g2
(lp2843
g0
(g1
g2
(lp2844
Vthere
p2845
atp2846
Rp2847
(dp2848
g13
VRB
p2849
sbatp2850
Rp2851
(dp2852
g13
VADVP
p2853
sbag0
(g1
g2
(lp2854
g0
(g1
g2
(lp2855
g0
(g1
g2
(lp2856
Vdoing
p2857
atp2858
Rp2859
(dp2860
g13
VVBG
p2861
sbag0
(g1
g2
(lp2862
g0
(g1
g2
(lp2863
Va
p2864
atp2865
Rp2866
(dp2867
g13
VDT
p2868
sbag0
(g1
g2
(lp2869
Vtuh
p2870
atp2871
Rp2872
(dp2873
g13
VNN
p2874
sbag0
(g1
g2
(lp2875
Vpicnic
p2876
atp2877
Rp2878
(dp2879
g13
VNN
p2880
sbatp2881
Rp2882
(dp2883
g13
VNP
p2884
sbatp2885
Rp2886
(dp2887
g13
VVP
p2888
sbatp2889
Rp2890
(dp2891
g13
VS
p2892
sbatp2893
Rp2894
(dp2895
g13
VVP
p2896
sbatp2897
Rp2898
(dp2899
g13
VVP
p2900
sbatp2901
Rp2902
(dp2903
g13
VS
p2904
sbatp2905
Rp2906
(dp2907
g13
VSBAR
p2908
sbatp2909
Rp2910
(dp2911
g13
VVP
p2912
sbatp2913
Rp2914
(dp2915
g13
VS
p2916
sbag0
(g1
g2
(lp2917
V,
p2918
atp2919
Rp2920
(dp2921
g13
V,
p2922
sbag0
(g1
g2
(lp2923
g0
(g1
g2
(lp2924
g0
(g1
g2
(lp2925
Vthey
p2926
atp2927
Rp2928
(dp2929
g13
VPRP
p2930
sbatp2931
Rp2932
(dp2933
g13
VNP
p2934
sbag0
(g1
g2
(lp2935
g0
(g1
g2
(lp2936
Vboth
p2937
atp2938
Rp2939
(dp2940
g13
VDT
p2941
sbatp2942
Rp2943
(dp2944
g13
VADVP
p2945
sbag0
(g1
g2
(lp2946
g0
(g1
g2
(lp2947
Vhave
p2948
atp2949
Rp2950
(dp2951
g13
VVBP
p2952
sbag0
(g1
g2
(lp2953
g0
(g1
g2
(lp2954
Vtheir
p2955
atp2956
Rp2957
(dp2958
g13
VPRP$
p2959
sbag0
(g1
g2
(lp2960
Vsandals
p2961
atp2962
Rp2963
(dp2964
g13
VNNS
p2965
sbatp2966
Rp2967
(dp2968
g13
VNP
p2969
sbag0
(g1
g2
(lp2970
g0
(g1
g2
(lp2971
Von
p2972
atp2973
Rp2974
(dp2975
g13
VIN
p2976
sbatp2977
Rp2978
(dp2979
g13
VPP
p2980
sbatp2981
Rp2982
(dp2983
g13
VVP
p2984
sbatp2985
Rp2986
(dp2987
g13
VS
p2988
sbag0
(g1
g2
(lp2989
V,
p2990
atp2991
Rp2992
(dp2993
g13
V,
p2994
sbag0
(g1
g2
(lp2995
Vand
p2996
atp2997
Rp2998
(dp2999
g13
VCC
p3000
sbag0
(g1
g2
(lp3001
g0
(g1
g2
(lp3002
g0
(g1
g2
(lp3003
Vthere
p3004
atp3005
Rp3006
(dp3007
g13
VEX
p3008
sbatp3009
Rp3010
(dp3011
g13
VNP
p3012
sbag0
(g1
g2
(lp3013
g0
(g1
g2
(lp3014
V's
p3015
atp3016
Rp3017
(dp3018
g13
VVBZ
p3019
sbag0
(g1
g2
(lp3020
g0
(g1
g2
(lp3021
g0
(g1
g2
(lp3022
Va
p3023
atp3024
Rp3025
(dp3026
g13
VDT
p3027
sbag0
(g1
g2
(lp3028
Vtransistor
p3029
atp3030
Rp3031
(dp3032
g13
VNN
p3033
sbag0
(g1
g2
(lp3034
Vtype
p3035
atp3036
Rp3037
(dp3038
g13
VNN
p3039
sbag0
(g1
g2
(lp3040
Vradio
p3041
atp3042
Rp3043
(dp3044
g13
VNN
p3045
sbatp3046
Rp3047
(dp3048
g13
VNP
p3049
sbag0
(g1
g2
(lp3050
V,
p3051
atp3052
Rp3053
(dp3054
g13
V,
p3055
sbag0
(g1
g2
(lp3056
Vor
p3057
atp3058
Rp3059
(dp3060
g13
VCC
p3061
sbag0
(g1
g2
(lp3062
g0
(g1
g2
(lp3063
g0
(g1
g2
(lp3064
Va
p3065
atp3066
Rp3067
(dp3068
g13
VDT
p3069
sbag0
(g1
g2
(lp3070
Vboom
p3071
atp3072
Rp3073
(dp3074
g13
VNN
p3075
sbag0
(g1
g2
(lp3076
Vbox
p3077
atp3078
Rp3079
(dp3080
g13
VNN
p3081
sbatp3082
Rp3083
(dp3084
g13
VNP
p3085
sbag0
(g1
g2
(lp3086
g0
(g1
g2
(lp3087
g0
(g1
g2
(lp3088
g0
(g1
g2
(lp3089
VI
p3090
atp3091
Rp3092
(dp3093
g13
VPRP
p3094
sbatp3095
Rp3096
(dp3097
g13
VNP
p3098
sbag0
(g1
g2
(lp3099
g0
(g1
g2
(lp3100
Vguess
p3101
atp3102
Rp3103
(dp3104
g13
VVBP
p3105
sbag0
(g1
g2
(lp3106
g0
(g1
g2
(lp3107
g0
(g1
g2
(lp3108
Vthey
p3109
atp3110
Rp3111
(dp3112
g13
VPRP
p3113
sbatp3114
Rp3115
(dp3116
g13
VNP
p3117
sbag0
(g1
g2
(lp3118
g0
(g1
g2
(lp3119
Vcall
p3120
atp3121
Rp3122
(dp3123
g13
VVB
p3124
sbag0
(g1
g2
(lp3125
g0
(g1
g2
(lp3126
Vit
p3127
atp3128
Rp3129
(dp3130
g13
VPRP
p3131
sbatp3132
Rp3133
(dp3134
g13
VNP
p3135
sbatp3136
Rp3137
(dp3138
g13
VVP
p3139
sbatp3140
Rp3141
(dp3142
g13
VS
p3143
sbatp3144
Rp3145
(dp3146
g13
VVP
p3147
sbatp3148
Rp3149
(dp3150
g13
VS
p3151
sbatp3152
Rp3153
(dp3154
g13
VSBAR
p3155
sbatp3156
Rp3157
(dp3158
g13
VNP
p3159
sbatp3160
Rp3161
(dp3162
g13
VNP
p3163
sbatp3164
Rp3165
(dp3166
g13
VVP
p3167
sbatp3168
Rp3169
(dp3170
g13
VS
p3171
sbag0
(g1
g2
(lp3172
V.
p3173
atp3174
Rp3175
(dp3176
g13
V.
p3177
sbatp3178
Rp3179
(dp3180
g13
VS
p3181
sbatp3182
Rp3183
(dp3184
g13
S'id: 6'
p3185
sbag0
(g1
g2
(lp3186
g0
(g1
g2
(lp3187
g0
(g1
g2
(lp3188
VAnd
p3189
atp3190
Rp3191
(dp3192
g13
VCC
p3193
sbag0
(g1
g2
(lp3194
g0
(g1
g2
(lp3195
VI
p3196
atp3197
Rp3198
(dp3199
g13
VPRP
p3200
sbatp3201
Rp3202
(dp3203
g13
VNP
p3204
sbag0
(g1
g2
(lp3205
g0
(g1
g2
(lp3206
Vdo
p3207
atp3208
Rp3209
(dp3210
g13
VVBP
p3211
sbag0
(g1
g2
(lp3212
Vn't
p3213
atp3214
Rp3215
(dp3216
g13
VRB
p3217
sbag0
(g1
g2
(lp3218
g0
(g1
g2
(lp3219
Vknow
p3220
atp3221
Rp3222
(dp3223
g13
VVB
p3224
sbag0
(g1
g2
(lp3225
g0
(g1
g2
(lp3226
Vif
p3227
atp3228
Rp3229
(dp3230
g13
VIN
p3231
sbag0
(g1
g2
(lp3232
g0
(g1
g2
(lp3233
g0
(g1
g2
(lp3234
Vthat
p3235
atp3236
Rp3237
(dp3238
g13
VDT
p3239
sbatp3240
Rp3241
(dp3242
g13
VNP
p3243
sbag0
(g1
g2
(lp3244
g0
(g1
g2
(lp3245
V's
p3246
atp3247
Rp3248
(dp3249
g13
VVBZ
p3250
sbag0
(g1
g2
(lp3251
g0
(g1
g2
(lp3252
g0
(g1
g2
(lp3253
Vginger
p3254
atp3255
Rp3256
(dp3257
g13
VNN
p3258
sbag0
(g1
g2
(lp3259
Vale
p3260
atp3261
Rp3262
(dp3263
g13
VNN
p3264
sbag0
(g1
g2
(lp3265
Vor
p3266
atp3267
Rp3268
(dp3269
g13
VCC
p3270
sbag0
(g1
g2
(lp3271
Vbeer
p3272
atp3273
Rp3274
(dp3275
g13
VNN
p3276
sbatp3277
Rp3278
(dp3279
g13
VNP
p3280
sbag0
(g1
g2
(lp3281
V,
p3282
atp3283
Rp3284
(dp3285
g13
V,
p3286
sbag0
(g1
g2
(lp3287
Vprobably
p3288
atp3289
Rp3290
(dp3291
g13
VRB
p3292
sbag0
(g1
g2
(lp3293
g0
(g1
g2
(lp3294
Vbeer
p3295
atp3296
Rp3297
(dp3298
g13
VNN
p3299
sbatp3300
Rp3301
(dp3302
g13
VNP
p3303
sbatp3304
Rp3305
(dp3306
g13
VNP
p3307
sbatp3308
Rp3309
(dp3310
g13
VVP
p3311
sbatp3312
Rp3313
(dp3314
g13
VS
p3315
sbatp3316
Rp3317
(dp3318
g13
VSBAR
p3319
sbatp3320
Rp3321
(dp3322
g13
VVP
p3323
sbatp3324
Rp3325
(dp3326
g13
VVP
p3327
sbag0
(g1
g2
(lp3328
V.
p3329
atp3330
Rp3331
(dp3332
g13
V.
p3333
sbatp3334
Rp3335
(dp3336
g13
VS
p3337
sbatp3338
Rp3339
(dp3340
g13
S'id: 7'
p3341
sbag0
(g1
g2
(lp3342
g0
(g1
g2
(lp3343
g0
(g1
g2
(lp3344
VAnd
p3345
atp3346
Rp3347
(dp3348
g13
VCC
p3349
sbag0
(g1
g2
(lp3350
g0
(g1
g2
(lp3351
g0
(g1
g2
(lp3352
Vtheir
p3353
atp3354
Rp3355
(dp3356
g13
VPRP$
p3357
sbatp3358
Rp3359
(dp3360
g13
VNP
p3361
sbag0
(g1
g2
(lp3362
g0
(g1
g2
(lp3363
g0
(g1
g2
(lp3364
V,
p3365
atp3366
Rp3367
(dp3368
g13
V,
p3369
sbag0
(g1
g2
(lp3370
g0
(g1
g2
(lp3371
Vgot
p3372
atp3373
Rp3374
(dp3375
g13
VVBD
p3376
sbag0
(g1
g2
(lp3377
g0
(g1
g2
(lp3378
Vtheir
p3379
atp3380
Rp3381
(dp3382
g13
VPRP$
p3383
sbag0
(g1
g2
(lp3384
Vleisure
p3385
atp3386
Rp3387
(dp3388
g13
VNN
p3389
sbag0
(g1
g2
(lp3390
Vclothes
p3391
atp3392
Rp3393
(dp3394
g13
VNNS
p3395
sbatp3396
Rp3397
(dp3398
g13
VNP
p3399
sbag0
(g1
g2
(lp3400
g0
(g1
g2
(lp3401
Von
p3402
atp3403
Rp3404
(dp3405
g13
VIN
p3406
sbatp3407
Rp3408
(dp3409
g13
VPP
p3410
sbatp3411
Rp3412
(dp3413
g13
VVP
p3414
sbatp3415
Rp3416
(dp3417
g13
VS
p3418
sbatp3419
Rp3420
(dp3421
g13
VSBAR
p3422
sbatp3423
Rp3424
(dp3425
g13
VNP
p3426
sbag0
(g1
g2
(lp3427
V.
p3428
atp3429
Rp3430
(dp3431
g13
V.
p3432
sbatp3433
Rp3434
(dp3435
g13
VFRAG
p3436
sbatp3437
Rp3438
(dp3439
g13
S'id: 8'
p3440
sbag0
(g1
g2
(lp3441
g0
(g1
g2
(lp3442
g0
(g1
g2
(lp3443
g0
(g1
g2
(lp3444
VHe
p3445
atp3446
Rp3447
(dp3448
g13
VPRP
p3449
sbatp3450
Rp3451
(dp3452
g13
VNP
p3453
sbag0
(g1
g2
(lp3454
g0
(g1
g2
(lp3455
V's
p3456
atp3457
Rp3458
(dp3459
g13
VVBZ
p3460
sbag0
(g1
g2
(lp3461
g0
(g1
g2
(lp3462
Vreading
p3463
atp3464
Rp3465
(dp3466
g13
VVBG
p3467
sbag0
(g1
g2
(lp3468
g0
(g1
g2
(lp3469
Va
p3470
atp3471
Rp3472
(dp3473
g13
VDT
p3474
sbag0
(g1
g2
(lp3475
Vbook
p3476
atp3477
Rp3478
(dp3479
g13
VNN
p3480
sbatp3481
Rp3482
(dp3483
g13
VNP
p3484
sbatp3485
Rp3486
(dp3487
g13
VVP
p3488
sbatp3489
Rp3490
(dp3491
g13
VVP
p3492
sbag0
(g1
g2
(lp3493
V.
p3494
atp3495
Rp3496
(dp3497
g13
V.
p3498
sbatp3499
Rp3500
(dp3501
g13
VS
p3502
sbatp3503
Rp3504
(dp3505
g13
S'id: 9'
p3506
sbag0
(g1
g2
(lp3507
g0
(g1
g2
(lp3508
g0
(g1
g2
(lp3509
g0
(g1
g2
(lp3510
g0
(g1
g2
(lp3511
VThat
p3512
atp3513
Rp3514
(dp3515
g13
VDT
p3516
sbatp3517
Rp3518
(dp3519
g13
VNP
p3520
sbag0
(g1
g2
(lp3521
g0
(g1
g2
(lp3522
V's
p3523
atp3524
Rp3525
(dp3526
g13
VVBZ
p3527
sbag0
(g1
g2
(lp3528
g0
(g1
g2
(lp3529
Vthe
p3530
atp3531
Rp3532
(dp3533
g13
VDT
p3534
sbag0
(g1
g2
(lp3535
Vpicnic
p3536
atp3537
Rp3538
(dp3539
g13
VNN
p3540
sbag0
(g1
g2
(lp3541
Vbasket
p3542
atp3543
Rp3544
(dp3545
g13
VNN
p3546
sbatp3547
Rp3548
(dp3549
g13
VNP
p3550
sbatp3551
Rp3552
(dp3553
g13
VVP
p3554
sbatp3555
Rp3556
(dp3557
g13
VS
p3558
sbag0
(g1
g2
(lp3559
V,
p3560
atp3561
Rp3562
(dp3563
g13
V,
p3564
sbag0
(g1
g2
(lp3565
Vand
p3566
atp3567
Rp3568
(dp3569
g13
VCC
p3570
sbag0
(g1
g2
(lp3571
g0
(g1
g2
(lp3572
g0
(g1
g2
(lp3573
Vit
p3574
atp3575
Rp3576
(dp3577
g13
VPRP
p3578
sbatp3579
Rp3580
(dp3581
g13
VNP
p3582
sbag0
(g1
g2
(lp3583
g0
(g1
g2
(lp3584
V's
p3585
atp3586
Rp3587
(dp3588
g13
VVBZ
p3589
sbag0
(g1
g2
(lp3590
g0
(g1
g2
(lp3591
Vfull
p3592
atp3593
Rp3594
(dp3595
g13
VJJ
p3596
sbag0
(g1
g2
(lp3597
g0
(g1
g2
(lp3598
Vof
p3599
atp3600
Rp3601
(dp3602
g13
VIN
p3603
sbag0
(g1
g2
(lp3604
g0
(g1
g2
(lp3605
g0
(g1
g2
(lp3606
Vsandwiches
p3607
atp3608
Rp3609
(dp3610
g13
VNNS
p3611
sbatp3612
Rp3613
(dp3614
g13
VNP
p3615
sbag0
(g1
g2
(lp3616
Vand
p3617
atp3618
Rp3619
(dp3620
g13
VCC
p3621
sbag0
(g1
g2
(lp3622
g0
(g1
g2
(lp3623
Vhot
p3624
atp3625
Rp3626
(dp3627
g13
VJJ
p3628
sbag0
(g1
g2
(lp3629
Vdogs
p3630
atp3631
Rp3632
(dp3633
g13
VNNS
p3634
sbag0
(g1
g2
(lp3635
Vand
p3636
atp3637
Rp3638
(dp3639
g13
VCC
p3640
sbag0
(g1
g2
(lp3641
Vhamburgers
p3642
atp3643
Rp3644
(dp3645
g13
VNNS
p3646
sbatp3647
Rp3648
(dp3649
g13
VNP
p3650
sbatp3651
Rp3652
(dp3653
g13
VNP
p3654
sbatp3655
Rp3656
(dp3657
g13
VPP
p3658
sbatp3659
Rp3660
(dp3661
g13
VADJP
p3662
sbatp3663
Rp3664
(dp3665
g13
VVP
p3666
sbatp3667
Rp3668
(dp3669
g13
VS
p3670
sbag0
(g1
g2
(lp3671
V.
p3672
atp3673
Rp3674
(dp3675
g13
V.
p3676
sbatp3677
Rp3678
(dp3679
g13
VS
p3680
sbatp3681
Rp3682
(dp3683
g13
S'id: 10'
p3684
sbag0
(g1
g2
(lp3685
g0
(g1
g2
(lp3686
g0
(g1
g2
(lp3687
g0
(g1
g2
(lp3688
VI
p3689
atp3690
Rp3691
(dp3692
g13
VPRP
p3693
sbatp3694
Rp3695
(dp3696
g13
VNP
p3697
sbag0
(g1
g2
(lp3698
g0
(g1
g2
(lp3699
Vmean
p3700
atp3701
Rp3702
(dp3703
g13
VVBP
p3704
sbag0
(g1
g2
(lp3705
g0
(g1
g2
(lp3706
g0
(g1
g2
(lp3707
g0
(g1
g2
(lp3708
VI
p3709
atp3710
Rp3711
(dp3712
g13
VPRP
p3713
sbatp3714
Rp3715
(dp3716
g13
VNP
p3717
sbag0
(g1
g2
(lp3718
g0
(g1
g2
(lp3719
V've
p3720
atp3721
Rp3722
(dp3723
g13
VVBP
p3724
sbag0
(g1
g2
(lp3725
g0
(g1
g2
(lp3726
Vnever
p3727
atp3728
Rp3729
(dp3730
g13
VRB
p3731
sbatp3732
Rp3733
(dp3734
g13
VADVP
p3735
sbag0
(g1
g2
(lp3736
g0
(g1
g2
(lp3737
Vseen
p3738
atp3739
Rp3740
(dp3741
g13
VVBN
p3742
sbag0
(g1
g2
(lp3743
g0
(g1
g2
(lp3744
Vso
p3745
atp3746
Rp3747
(dp3748
g13
VRB
p3749
sbag0
(g1
g2
(lp3750
Vmany
p3751
atp3752
Rp3753
(dp3754
g13
VJJ
p3755
sbatp3756
Rp3757
(dp3758
g13
VADJP
p3759
sbag0
(g1
g2
(lp3760
g0
(g1
g2
(lp3761
Vin
p3762
atp3763
Rp3764
(dp3765
g13
VIN
p3766
sbag0
(g1
g2
(lp3767
g0
(g1
g2
(lp3768
Vmy
p3769
atp3770
Rp3771
(dp3772
g13
VPRP$
p3773
sbag0
(g1
g2
(lp3774
Vlife
p3775
atp3776
Rp3777
(dp3778
g13
VNN
p3779
sbatp3780
Rp3781
(dp3782
g13
VNP
p3783
sbatp3784
Rp3785
(dp3786
g13
VPP
p3787
sbatp3788
Rp3789
(dp3790
g13
VVP
p3791
sbatp3792
Rp3793
(dp3794
g13
VVP
p3795
sbatp3796
Rp3797
(dp3798
g13
VS
p3799
sbatp3800
Rp3801
(dp3802
g13
VSBAR
p3803
sbatp3804
Rp3805
(dp3806
g13
VVP
p3807
sbag0
(g1
g2
(lp3808
V.
p3809
atp3810
Rp3811
(dp3812
g13
V.
p3813
sbatp3814
Rp3815
(dp3816
g13
VS
p3817
sbatp3818
Rp3819
(dp3820
g13
S'id: 11'
p3821
sbag0
(g1
g2
(lp3822
g0
(g1
g2
(lp3823
g0
(g1
g2
(lp3824
g0
(g1
g2
(lp3825
VAnd
p3826
atp3827
Rp3828
(dp3829
g13
VCC
p3830
sbag0
(g1
g2
(lp3831
g0
(g1
g2
(lp3832
Vthere
p3833
atp3834
Rp3835
(dp3836
g13
VEX
p3837
sbatp3838
Rp3839
(dp3840
g13
VNP
p3841
sbag0
(g1
g2
(lp3842
g0
(g1
g2
(lp3843
V's
p3844
atp3845
Rp3846
(dp3847
g13
VVBZ
p3848
sbag0
(g1
g2
(lp3849
g0
(g1
g2
(lp3850
Vthe
p3851
atp3852
Rp3853
(dp3854
g13
VDT
p3855
sbag0
(g1
g2
(lp3856
Vdoggie
p3857
atp3858
Rp3859
(dp3860
g13
VNN
p3861
sbatp3862
Rp3863
(dp3864
g13
VNP
p3865
sbatp3866
Rp3867
(dp3868
g13
VVP
p3869
sbatp3870
Rp3871
(dp3872
g13
VS
p3873
sbag0
(g1
g2
(lp3874
V,
p3875
atp3876
Rp3877
(dp3878
g13
V,
p3879
sbag0
(g1
g2
(lp3880
Vand
p3881
atp3882
Rp3883
(dp3884
g13
VCC
p3885
sbag0
(g1
g2
(lp3886
g0
(g1
g2
(lp3887
g0
(g1
g2
(lp3888
Vhis
p3889
atp3890
Rp3891
(dp3892
g13
VPRP$
p3893
sbag0
(g1
g2
(lp3894
Vname
p3895
atp3896
Rp3897
(dp3898
g13
VNN
p3899
sbatp3900
Rp3901
(dp3902
g13
VNP
p3903
sbag0
(g1
g2
(lp3904
g0
(g1
g2
(lp3905
Vis
p3906
atp3907
Rp3908
(dp3909
g13
VVBZ
p3910
sbag0
(g1
g2
(lp3911
g0
(g1
g2
(lp3912
Vobviously
p3913
atp3914
Rp3915
(dp3916
g13
VRB
p3917
sbatp3918
Rp3919
(dp3920
g13
VADVP
p3921
sbag0
(g1
g2
(lp3922
g0
(g1
g2
(lp3923
VBowzer
p3924
atp3925
Rp3926
(dp3927
g13
VNNP
p3928
sbatp3929
Rp3930
(dp3931
g13
VNP
p3932
sbatp3933
Rp3934
(dp3935
g13
VVP
p3936
sbatp3937
Rp3938
(dp3939
g13
VS
p3940
sbag0
(g1
g2
(lp3941
V,
p3942
atp3943
Rp3944
(dp3945
g13
V,
p3946
sbag0
(g1
g2
(lp3947
Vand
p3948
atp3949
Rp3950
(dp3951
g13
VCC
p3952
sbag0
(g1
g2
(lp3953
g0
(g1
g2
(lp3954
g0
(g1
g2
(lp3955
Vhe
p3956
atp3957
Rp3958
(dp3959
g13
VPRP
p3960
sbatp3961
Rp3962
(dp3963
g13
VNP
p3964
sbag0
(g1
g2
(lp3965
g0
(g1
g2
(lp3966
V's
p3967
atp3968
Rp3969
(dp3970
g13
VVBZ
p3971
sbag0
(g1
g2
(lp3972
g0
(g1
g2
(lp3973
g0
(g1
g2
(lp3974
g0
(g1
g2
(lp3975
g0
(g1
g2
(lp3976
Vgot
p3977
atp3978
Rp3979
(dp3980
g13
VVBD
p3981
sbag0
(g1
g2
(lp3982
g0
(g1
g2
(lp3983
Vhis
p3984
atp3985
Rp3986
(dp3987
g13
VPRP$
p3988
sbag0
(g1
g2
(lp3989
Vtag
p3990
atp3991
Rp3992
(dp3993
g13
VNN
p3994
sbatp3995
Rp3996
(dp3997
g13
VNP
p3998
sbag0
(g1
g2
(lp3999
g0
(g1
g2
(lp4000
Von
p4001
atp4002
Rp4003
(dp4004
g13
VIN
p4005
sbatp4006
Rp4007
(dp4008
g13
VPP
p4009
sbatp4010
Rp4011
(dp4012
g13
VVP
p4013
sbatp4014
Rp4015
(dp4016
g13
VS
p4017
sbatp4018
Rp4019
(dp4020
g13
VSBAR
p4021
sbag0
(g1
g2
(lp4022
V,
p4023
atp4024
Rp4025
(dp4026
g13
V,
p4027
sbag0
(g1
g2
(lp4028
g0
(g1
g2
(lp4029
g0
(g1
g2
(lp4030
Vwhich
p4031
atp4032
Rp4033
(dp4034
g13
VWDT
p4035
sbatp4036
Rp4037
(dp4038
g13
VWHNP
p4039
sbag0
(g1
g2
(lp4040
g0
(g1
g2
(lp4041
g0
(g1
g2
(lp4042
Vmeans
p4043
atp4044
Rp4045
(dp4046
g13
VVBZ
p4047
sbag0
(g1
g2
(lp4048
g0
(g1
g2
(lp4049
g0
(g1
g2
(lp4050
g0
(g1
g2
(lp4051
Vhe
p4052
atp4053
Rp4054
(dp4055
g13
VPRP
p4056
sbatp4057
Rp4058
(dp4059
g13
VNP
p4060
sbag0
(g1
g2
(lp4061
g0
(g1
g2
(lp4062
V's
p4063
atp4064
Rp4065
(dp4066
g13
VVBZ
p4067
sbag0
(g1
g2
(lp4068
V,
p4069
atp4070
Rp4071
(dp4072
g13
V,
p4073
sbag0
(g1
g2
(lp4074
g0
(g1
g2
(lp4075
g0
(g1
g2
(lp4076
g0
(g1
g2
(lp4077
Vhe
p4078
atp4079
Rp4080
(dp4081
g13
VPRP
p4082
sbatp4083
Rp4084
(dp4085
g13
VNP
p4086
sbag0
(g1
g2
(lp4087
g0
(g1
g2
(lp4088
V's
p4089
atp4090
Rp4091
(dp4092
g13
VVBZ
p4093
sbag0
(g1
g2
(lp4094
g0
(g1
g2
(lp4095
Vin
p4096
atp4097
Rp4098
(dp4099
g13
VIN
p4100
sbag0
(g1
g2
(lp4101
g0
(g1
g2
(lp4102
Vgood
p4103
atp4104
Rp4105
(dp4106
g13
VJJ
p4107
sbag0
(g1
g2
(lp4108
Vshape
p4109
atp4110
Rp4111
(dp4112
g13
VNN
p4113
sbatp4114
Rp4115
(dp4116
g13
VNP
p4117
sbatp4118
Rp4119
(dp4120
g13
VPP
p4121
sbag0
(g1
g2
(lp4122
g0
(g1
g2
(lp4123
Vso
p4124
atp4125
Rp4126
(dp4127
g13
VRB
p4128
sbatp4129
Rp4130
(dp4131
g13
VADVP
p4132
sbatp4133
Rp4134
(dp4135
g13
VVP
p4136
sbatp4137
Rp4138
(dp4139
g13
VS
p4140
sbatp4141
Rp4142
(dp4143
g13
VSBAR
p4144
sbatp4145
Rp4146
(dp4147
g13
VVP
p4148
sbatp4149
Rp4150
(dp4151
g13
VS
p4152
sbatp4153
Rp4154
(dp4155
g13
VSBAR
p4156
sbatp4157
Rp4158
(dp4159
g13
VVP
p4160
sbatp4161
Rp4162
(dp4163
g13
VS
p4164
sbatp4165
Rp4166
(dp4167
g13
VSBAR
p4168
sbatp4169
Rp4170
(dp4171
g13
VSBAR
p4172
sbatp4173
Rp4174
(dp4175
g13
VVP
p4176
sbatp4177
Rp4178
(dp4179
g13
VS
p4180
sbatp4181
Rp4182
(dp4183
g13
VS
p4184
sbatp4185
Rp4186
(dp4187
g13
S'id: 12'
p4188
sbatp4189
Rp4190
(dp4191
g13
S'sentences'
p4192
sb.