ccopy_reg
_reconstructor
p0
(cnltk.tree
Tree
p1
c__builtin__
list
p2
(lp3
g0
(g1
g2
(lp4
g0
(g1
g2
(lp5
g0
(g1
g2
(lp6
g0
(g1
g2
(lp7
g0
(g1
g2
(lp8
(lp9
S'word: like, index: 2'
p10
aatp11
Rp12
(dp13
S'_label'
p14
Vmark
p15
sbag0
(g1
g2
(lp16
(lp17
S'word: they, index: 3'
p18
aatp19
Rp20
(dp21
g14
Vnsubj
p22
sbag0
(g1
g2
(lp23
g0
(g1
g2
(lp24
g0
(g1
g2
(lp25
(lp26
S'word: a, index: 6'
p27
aatp28
Rp29
(dp30
g14
Vdet
p31
sbatp32
Rp33
(dp34
g14
S'word: circus, index: 7'
p35
sbatp36
Rp37
(dp38
g14
Vprep
p39
sbatp40
Rp41
(dp42
g14
S"word: 're, index: 4"
p43
sbatp44
Rp45
(dp46
g14
Vadvcl
p47
sbatp48
Rp49
(dp50
g14
S'word: Seems, index: 1'
p51
sbatp52
Rp53
(dp54
g14
S'id: 0'
p55
sbag0
(g1
g2
(lp56
g0
(g1
g2
(lp57
g0
(g1
g2
(lp58
g0
(g1
g2
(lp59
g0
(g1
g2
(lp60
(lp61
S'word: a, index: 3'
p62
aatp63
Rp64
(dp65
g14
Vdet
p66
sbag0
(g1
g2
(lp67
g0
(g1
g2
(lp68
g0
(g1
g2
(lp69
(lp70
S'word: a, index: 6'
p71
aatp72
Rp73
(dp74
g14
Vdet
p75
sbatp76
Rp77
(dp78
g14
S'word: cage, index: 7'
p79
sbatp80
Rp81
(dp82
g14
Vprep
p83
sbag0
(g1
g2
(lp84
(lp85
S'word: a, index: 2'
p86
aatp87
Rp88
(dp89
g14
Vpredet
p90
sbatp91
Rp92
(dp93
g14
S'word: lion, index: 4'
p94
sbatp95
Rp96
(dp97
g14
Vdobj
p98
sbag0
(g1
g2
(lp99
g0
(g1
g2
(lp100
g0
(g1
g2
(lp101
(lp102
S'word: a, index: 10'
p103
aatp104
Rp105
(dp106
g14
Vdet
p107
sbag0
(g1
g2
(lp108
g0
(g1
g2
(lp109
g0
(g1
g2
(lp110
(lp111
S'word: a, index: 13'
p112
aatp113
Rp114
(dp115
g14
Vdet
p116
sbag0
(g1
g2
(lp117
(lp118
S'word: on, index: 15'
p119
aatp120
Rp121
(dp122
g14
Vprep
p123
sbatp124
Rp125
(dp126
g14
S'word: tuxedo, index: 14'
p127
sbatp128
Rp129
(dp130
g14
Vprep
p131
sbatp132
Rp133
(dp134
g14
S'word: man, index: 11'
p135
sbatp136
Rp137
(dp138
g14
Vprep
p139
sbatp140
Rp141
(dp142
g14
S'word: See, index: 1'
p143
sbatp144
Rp145
(dp146
g14
S'id: 1'
p147
sbag0
(g1
g2
(lp148
g0
(g1
g2
(lp149
g0
(g1
g2
(lp150
g0
(g1
g2
(lp151
g0
(g1
g2
(lp152
g0
(g1
g2
(lp153
g0
(g1
g2
(lp154
(lp155
S'word: the, index: 13'
p156
aatp157
Rp158
(dp159
g14
Vdet
p160
sbatp161
Rp162
(dp163
g14
S'word: man, index: 14'
p164
sbatp165
Rp166
(dp167
g14
Vnsubj
p168
sbag0
(g1
g2
(lp169
(lp170
S'word: is, index: 15'
p171
aatp172
Rp173
(dp174
g14
Vaux
p175
sbag0
(g1
g2
(lp176
g0
(g1
g2
(lp177
g0
(g1
g2
(lp178
g0
(g1
g2
(lp179
g0
(g1
g2
(lp180
g0
(g1
g2
(lp181
g0
(g1
g2
(lp182
g0
(g1
g2
(lp183
g0
(g1
g2
(lp184
(lp185
S'word: a, index: 26'
p186
aatp187
Rp188
(dp189
g14
Vdet
p190
sbag0
(g1
g2
(lp191
g0
(g1
g2
(lp192
g0
(g1
g2
(lp193
(lp194
S'word: his, index: 29'
p195
aatp196
Rp197
(dp198
g14
Vposs
p199
sbatp200
Rp201
(dp202
g14
S'word: hand, index: 30'
p203
sbatp204
Rp205
(dp206
g14
Vprep
p207
sbatp208
Rp209
(dp210
g14
S'word: bar, index: 27'
p211
sbatp212
Rp213
(dp214
g14
Vappos
p215
sbatp216
Rp217
(dp218
g14
S'word: a, index: 24'
p219
sbatp220
Rp221
(dp222
g14
Vappos
p223
sbatp224
Rp225
(dp226
g14
S'word: a, index: 22'
p227
sbatp228
Rp229
(dp230
g14
Vprep
p231
sbag0
(g1
g2
(lp232
(lp233
S'word: to, index: 17'
p234
aatp235
Rp236
(dp237
g14
Vaux
p238
sbag0
(g1
g2
(lp239
g0
(g1
g2
(lp240
g0
(g1
g2
(lp241
(lp242
S'word: the, index: 19'
p243
aatp244
Rp245
(dp246
g14
Vdet
p247
sbatp248
Rp249
(dp250
g14
S'word: wire, index: 20'
p251
sbatp252
Rp253
(dp254
g14
Vdobj
p255
sbatp256
Rp257
(dp258
g14
S'word: walk, index: 18'
p259
sbatp260
Rp261
(dp262
g14
Vxcomp
p263
sbatp264
Rp265
(dp266
g14
S'word: trying, index: 16'
p267
sbatp268
Rp269
(dp270
g14
Vconj
p271
sbag0
(g1
g2
(lp272
(lp273
S'word: They, index: 1'
p274
aatp275
Rp276
(dp277
g14
Vnsubj
p278
sbag0
(g1
g2
(lp279
g0
(g1
g2
(lp280
g0
(g1
g2
(lp281
g0
(g1
g2
(lp282
g0
(g1
g2
(lp283
g0
(g1
g2
(lp284
g0
(g1
g2
(lp285
g0
(g1
g2
(lp286
g0
(g1
g2
(lp287
(lp288
S'word: the, index: 9'
p289
aatp290
Rp291
(dp292
g14
Vdet
p293
sbatp294
Rp295
(dp296
g14
S'word: thing, index: 10'
p297
sbatp298
Rp299
(dp300
g14
Vprep
p301
sbatp302
Rp303
(dp304
g14
S'word: running, index: 7'
p305
sbatp306
Rp307
(dp308
g14
Vvmod
p309
sbag0
(g1
g2
(lp310
(lp311
S'word: a, index: 5'
p312
aatp313
Rp314
(dp315
g14
Vdet
p316
sbatp317
Rp318
(dp319
g14
S'word: wire, index: 6'
p320
sbatp321
Rp322
(dp323
g14
Vappos
p324
sbatp325
Rp326
(dp327
g14
S'word: a, index: 3'
p328
sbatp329
Rp330
(dp331
g14
Vdobj
p332
sbatp333
Rp334
(dp335
g14
S'word: have, index: 2'
p336
sbatp337
Rp338
(dp339
g14
S'id: 2'
p340
sbag0
(g1
g2
(lp341
g0
(g1
g2
(lp342
g0
(g1
g2
(lp343
g0
(g1
g2
(lp344
g0
(g1
g2
(lp345
(lp346
S'word: four, index: 11'
p347
aatp348
Rp349
(dp350
g14
Vamod
p351
sbag0
(g1
g2
(lp352
g0
(g1
g2
(lp353
g0
(g1
g2
(lp354
(lp355
S'word: a, index: 26'
p356
aatp357
Rp358
(dp359
g14
Vdet
p360
sbatp361
Rp362
(dp363
g14
S'word: ring, index: 27'
p364
sbatp365
Rp366
(dp367
g14
Vprep
p368
sbag0
(g1
g2
(lp369
g0
(g1
g2
(lp370
g0
(g1
g2
(lp371
(lp372
S'word: five, index: 13'
p373
aatp374
Rp375
(dp376
g14
Vnum
p377
sbag0
(g1
g2
(lp378
g0
(g1
g2
(lp379
g0
(g1
g2
(lp380
(lp381
S'word: there, index: 16'
p382
aatp383
Rp384
(dp385
g14
Vadvmod
p386
sbag0
(g1
g2
(lp387
g0
(g1
g2
(lp388
g0
(g1
g2
(lp389
g0
(g1
g2
(lp390
g0
(g1
g2
(lp391
(lp392
S'word: the, index: 18'
p393
aatp394
Rp395
(dp396
g14
Vdet
p397
sbag0
(g1
g2
(lp398
(lp399
S'word: lungly, index: 19'
p400
aatp401
Rp402
(dp403
g14
Vamod
p404
sbatp405
Rp406
(dp407
g14
S'word: lady, index: 20'
p408
sbatp409
Rp410
(dp411
g14
Vdobj
p412
sbag0
(g1
g2
(lp413
g0
(g1
g2
(lp414
g0
(g1
g2
(lp415
(lp416
S'word: a, index: 22'
p417
aatp418
Rp419
(dp420
g14
Vdet
p421
sbatp422
Rp423
(dp424
g14
S'word: horse, index: 23'
p425
sbatp426
Rp427
(dp428
g14
Vprep
p429
sbatp430
Rp431
(dp432
g14
S'word: watching, index: 17'
p433
sbatp434
Rp435
(dp436
g14
Vvmod
p437
sbatp438
Rp439
(dp440
g14
S'word: sitting, index: 15'
p441
sbatp442
Rp443
(dp444
g14
Vvmod
p445
sbatp446
Rp447
(dp448
g14
S'word: people, index: 14'
p449
sbatp450
Rp451
(dp452
g14
Vappos
p453
sbag0
(g1
g2
(lp454
(lp455
S'word: it, index: 7'
p456
aatp457
Rp458
(dp459
g14
Vnsubj
p460
sbag0
(g1
g2
(lp461
(lp462
S"word: 's, index: 8"
p463
aatp464
Rp465
(dp466
g14
Vcop
p467
sbatp468
Rp469
(dp470
g14
S'word: two, index: 9'
p471
sbatp472
Rp473
(dp474
g14
Vdep
p475
sbag0
(g1
g2
(lp476
g0
(g1
g2
(lp477
g0
(g1
g2
(lp478
(lp479
S'word: she, index: 30'
p480
aatp481
Rp482
(dp483
g14
Vnsubj
p484
sbag0
(g1
g2
(lp485
(lp486
S"word: 's, index: 31"
p487
aatp488
Rp489
(dp490
g14
Vcop
p491
sbag0
(g1
g2
(lp492
g0
(g1
g2
(lp493
g0
(g1
g2
(lp494
g0
(g1
g2
(lp495
g0
(g1
g2
(lp496
(lp497
S'word: a, index: 35'
p498
aatp499
Rp500
(dp501
g14
Vdet
p502
sbag0
(g1
g2
(lp503
(lp504
S'word: little, index: 36'
p505
aatp506
Rp507
(dp508
g14
Vamod
p509
sbatp510
Rp511
(dp512
g14
S'word: ballerina, index: 37'
p513
sbatp514
Rp515
(dp516
g14
Vpobj
p517
sbatp518
Rp519
(dp520
g14
S'word: like, index: 34'
p521
sbatp522
Rp523
(dp524
g14
Vconj
p525
sbag0
(g1
g2
(lp526
(lp527
S'word: something, index: 40'
p528
aatp529
Rp530
(dp531
g14
Vconj
p532
sbatp533
Rp534
(dp535
g14
S'word: a, index: 32'
p536
sbatp537
Rp538
(dp539
g14
Vconj
p540
sbag0
(g1
g2
(lp541
g0
(g1
g2
(lp542
g0
(g1
g2
(lp543
(lp544
S'word: Some, index: 1'
p545
aatp546
Rp547
(dp548
g14
Vdet
p549
sbatp550
Rp551
(dp552
g14
S'word: people, index: 2'
p553
sbatp554
Rp555
(dp556
g14
Vnsubj
p557
sbag0
(g1
g2
(lp558
g519
atp559
Rp560
(dp561
g14
Vconj
p562
sbag0
(g1
g2
(lp563
(lp564
S'word: there, index: 4'
p565
aatp566
Rp567
(dp568
g14
Vadvmod
p569
sbag0
(g1
g2
(lp570
(lp571
S'word: watching, index: 5'
p572
aatp573
Rp574
(dp575
g14
Vvmod
p576
sbag0
(g1
g2
(lp577
(lp578
S'word: something, index: 40'
p579
aatp580
Rp581
(dp582
g14
Vconj
p583
sbatp584
Rp585
(dp586
g14
S'word: sitting, index: 3'
p587
sbatp588
Rp589
(dp590
g14
S'id: 3'
p591
sbag0
(g1
g2
(lp592
g0
(g1
g2
(lp593
g0
(g1
g2
(lp594
(lp595
S'word: And, index: 1'
p596
aatp597
Rp598
(dp599
g14
Vcc
p600
sbag0
(g1
g2
(lp601
g0
(g1
g2
(lp602
g0
(g1
g2
(lp603
(lp604
S'word: the, index: 2'
p605
aatp606
Rp607
(dp608
g14
Vdet
p609
sbatp610
Rp611
(dp612
g14
S'word: clown, index: 3'
p613
sbatp614
Rp615
(dp616
g14
Vnsubj
p617
sbag0
(g1
g2
(lp618
g0
(g1
g2
(lp619
g0
(g1
g2
(lp620
(lp621
S'word: like, index: 5'
p622
aatp623
Rp624
(dp625
g14
Vmark
p626
sbag0
(g1
g2
(lp627
(lp628
S'word: he, index: 6'
p629
aatp630
Rp631
(dp632
g14
Vnsubj
p633
sbag0
(g1
g2
(lp634
g0
(g1
g2
(lp635
g0
(g1
g2
(lp636
g0
(g1
g2
(lp637
g0
(g1
g2
(lp638
g0
(g1
g2
(lp639
g0
(g1
g2
(lp640
g0
(g1
g2
(lp641
g0
(g1
g2
(lp642
(lp643
S'word: something, index: 16'
p644
aatp645
Rp646
(dp647
g14
Vappos
p648
sbatp649
Rp650
(dp651
g14
S'word: some, index: 14'
p652
sbatp653
Rp654
(dp655
g14
Vappos
p656
sbag0
(g1
g2
(lp657
(lp658
S'word: some, index: 11'
p659
aatp660
Rp661
(dp662
g14
Vdet
p663
sbatp664
Rp665
(dp666
g14
S'word: popcorn, index: 12'
p667
sbatp668
Rp669
(dp670
g14
Vnsubj
p671
sbag0
(g1
g2
(lp672
g0
(g1
g2
(lp673
g0
(g1
g2
(lp674
(lp675
S'word: the, index: 19'
p676
aatp677
Rp678
(dp679
g14
Vdet
p680
sbag0
(g1
g2
(lp681
g0
(g1
g2
(lp682
g0
(g1
g2
(lp683
(lp684
S'word: that, index: 21'
p685
aatp686
Rp687
(dp688
g14
Vnsubj
p689
sbag0
(g1
g2
(lp690
(lp691
S'word: are, index: 22'
p692
aatp693
Rp694
(dp695
g14
Vaux
p696
sbatp697
Rp698
(dp699
g14
S'word: watching, index: 23'
p700
sbatp701
Rp702
(dp703
g14
Vrcmod
p704
sbatp705
Rp706
(dp707
g14
S'word: kids, index: 20'
p708
sbatp709
Rp710
(dp711
g14
Vprep
p712
sbatp713
Rp714
(dp715
g14
S'word: go, index: 17'
p716
sbatp717
Rp718
(dp719
g14
Vccomp
p720
sbag0
(g1
g2
(lp721
(lp722
S'word: lettng, index: 10'
p723
aatp724
Rp725
(dp726
g14
Vdep
p727
sbatp728
Rp729
(dp730
g14
S'word: throwing, index: 8'
p731
sbatp732
Rp733
(dp734
g14
Vxcomp
p735
sbatp736
Rp737
(dp738
g14
S"word: 's, index: 7"
p739
sbatp740
Rp741
(dp742
g14
Vadvcl
p743
sbatp744
Rp745
(dp746
g14
S'word: seem, index: 4'
p747
sbatp748
Rp749
(dp750
g14
S'id: 4'
p751
sbag0
(g1
g2
(lp752
g0
(g1
g2
(lp753
g0
(g1
g2
(lp754
g0
(g1
g2
(lp755
g0
(g1
g2
(lp756
(lp757
S'word: watching, index: 16'
p758
aatp759
Rp760
(dp761
g14
Vvmod
p762
sbag0
(g1
g2
(lp763
(lp764
S'word: another, index: 13'
p765
aatp766
Rp767
(dp768
g14
Vdet
p769
sbag0
(g1
g2
(lp770
(lp771
S'word: young, index: 14'
p772
aatp773
Rp774
(dp775
g14
Vamod
p776
sbatp777
Rp778
(dp779
g14
S'word: man, index: 15'
p780
sbatp781
Rp782
(dp783
g14
Vconj
p784
sbag0
(g1
g2
(lp785
g0
(g1
g2
(lp786
g0
(g1
g2
(lp787
(lp788
S'word: it, index: 3'
p789
aatp790
Rp791
(dp792
g14
Vprep
p793
sbatp794
Rp795
(dp796
g14
S'word: Seem, index: 1'
p797
sbatp798
Rp799
(dp800
g14
Vnsubj
p801
sbag0
(g1
g2
(lp802
(lp803
S"word: 's, index: 4"
p804
aatp805
Rp806
(dp807
g14
Vcop
p808
sbag0
(g1
g2
(lp809
(lp810
S'word: a, index: 5'
p811
aatp812
Rp813
(dp814
g14
Vdet
p815
sbag0
(g1
g2
(lp816
g0
(g1
g2
(lp817
g0
(g1
g2
(lp818
(lp819
S'word: a, index: 9'
p820
aatp821
Rp822
(dp823
g14
Vdet
p824
sbatp825
Rp826
(dp827
g14
S'word: baby, index: 10'
p828
sbatp829
Rp830
(dp831
g14
Vconj
p832
sbatp833
Rp834
(dp835
g14
S'word: lady, index: 6'
p836
sbatp837
Rp838
(dp839
g14
S'id: 5'
p840
sbag0
(g1
g2
(lp841
g0
(g1
g2
(lp842
g0
(g1
g2
(lp843
g0
(g1
g2
(lp844
g0
(g1
g2
(lp845
(lp846
S'word: there, index: 2'
p847
aatp848
Rp849
(dp850
g14
Vexpl
p851
sbag0
(g1
g2
(lp852
g0
(g1
g2
(lp853
g0
(g1
g2
(lp854
g0
(g1
g2
(lp855
g0
(g1
g2
(lp856
(lp857
S'word: the, index: 19'
p858
aatp859
Rp860
(dp861
g14
Vdet
p862
sbag0
(g1
g2
(lp863
g0
(g1
g2
(lp864
g0
(g1
g2
(lp865
(lp866
S'word: the, index: 22'
p867
aatp868
Rp869
(dp870
g14
Vdet
p871
sbatp872
Rp873
(dp874
g14
S'word: clown, index: 23'
p875
sbatp876
Rp877
(dp878
g14
Vprep
p879
sbatp880
Rp881
(dp882
g14
S'word: left, index: 20'
p883
sbatp884
Rp885
(dp886
g14
Vprep
p887
sbag0
(g1
g2
(lp888
g0
(g1
g2
(lp889
g0
(g1
g2
(lp890
(lp891
S'word: a, index: 7'
p892
aatp893
Rp894
(dp895
g14
Vdet
p896
sbag0
(g1
g2
(lp897
g0
(g1
g2
(lp898
g0
(g1
g2
(lp899
(lp900
S'word: his, index: 10'
p901
aatp902
Rp903
(dp904
g14
Vposs
p905
sbag0
(g1
g2
(lp906
g0
(g1
g2
(lp907
g0
(g1
g2
(lp908
(lp909
S'word: a, index: 13'
p910
aatp911
Rp912
(dp913
g14
Vdet
p914
sbatp915
Rp916
(dp917
g14
S'word: man, index: 14'
p918
sbatp919
Rp920
(dp921
g14
Vconj
p922
sbag0
(g1
g2
(lp923
g0
(g1
g2
(lp924
g0
(g1
g2
(lp925
(lp926
S'word: a, index: 16'
p927
aatp928
Rp929
(dp930
g14
Vdet
p931
sbatp932
Rp933
(dp934
g14
S'word: gir, index: 17'
p935
sbatp936
Rp937
(dp938
g14
Vconj
p939
sbatp940
Rp941
(dp942
g14
S'word: daughter, index: 11'
p943
sbatp944
Rp945
(dp946
g14
Vconj
p947
sbag0
(g1
g2
(lp948
g916
atp949
Rp950
(dp951
g14
Vconj
p952
sbag0
(g1
g2
(lp953
g933
atp954
Rp955
(dp956
g14
Vconj
p957
sbatp958
Rp959
(dp960
g14
S'word: man, index: 8'
p961
sbatp962
Rp963
(dp964
g14
Vprep
p965
sbag0
(g1
g2
(lp966
g941
atp967
Rp968
(dp969
g14
Vprep
p970
sbatp971
Rp972
(dp973
g14
S'word: seems, index: 5'
p974
sbatp975
Rp976
(dp977
g14
Vdep
p978
sbag0
(g1
g2
(lp979
(lp980
S'word: And, index: 1'
p981
aatp982
Rp983
(dp984
g14
Vcc
p985
sbatp986
Rp987
(dp988
g14
S"word: 's, index: 3"
p989
sbatp990
Rp991
(dp992
g14
Vccomp
p993
sbag0
(g1
g2
(lp994
(lp995
S'word: she, index: 25'
p996
aatp997
Rp998
(dp999
g14
Vnsubj
p1000
sbag0
(g1
g2
(lp1001
(lp1002
S"word: 's, index: 26"
p1003
aatp1004
Rp1005
(dp1006
g14
Vaux
p1007
sbag0
(g1
g2
(lp1008
g0
(g1
g2
(lp1009
g0
(g1
g2
(lp1010
(lp1011
S'word: the, index: 29'
p1012
aatp1013
Rp1014
(dp1015
g14
Vdet
p1016
sbatp1017
Rp1018
(dp1019
g14
S'word: clown, index: 30'
p1020
sbatp1021
Rp1022
(dp1023
g14
Vprep
p1024
sbatp1025
Rp1026
(dp1027
g14
S'word: pointing, index: 27'
p1028
sbatp1029
Rp1030
(dp1031
g14
S'id: 6'
p1032
sbag0
(g1
g2
(lp1033
g0
(g1
g2
(lp1034
g0
(g1
g2
(lp1035
(lp1036
S'word: he, index: 11'
p1037
aatp1038
Rp1039
(dp1040
g14
Vnsubj
p1041
sbag0
(g1
g2
(lp1042
g0
(g1
g2
(lp1043
g0
(g1
g2
(lp1044
(lp1045
S'word: his, index: 13'
p1046
aatp1047
Rp1048
(dp1049
g14
Vposs
p1050
sbatp1051
Rp1052
(dp1053
g14
S'word: hand, index: 14'
p1054
sbatp1055
Rp1056
(dp1057
g14
Vdobj
p1058
sbag0
(g1
g2
(lp1059
g0
(g1
g2
(lp1060
g0
(g1
g2
(lp1061
(lp1062
S'word: like, index: 15'
p1063
aatp1064
Rp1065
(dp1066
g14
Vmark
p1067
sbag0
(g1
g2
(lp1068
(lp1069
S'word: he, index: 16'
p1070
aatp1071
Rp1072
(dp1073
g14
Vnsubj
p1074
sbag0
(g1
g2
(lp1075
(lp1076
S"word: 's, index: 17"
p1077
aatp1078
Rp1079
(dp1080
g14
Vaux
p1081
sbag0
(g1
g2
(lp1082
g0
(g1
g2
(lp1083
g0
(g1
g2
(lp1084
g0
(g1
g2
(lp1085
g0
(g1
g2
(lp1086
g0
(g1
g2
(lp1087
g0
(g1
g2
(lp1088
(lp1089
S'word: the, index: 23'
p1090
aatp1091
Rp1092
(dp1093
g14
Vdet
p1094
sbag0
(g1
g2
(lp1095
g0
(g1
g2
(lp1096
g0
(g1
g2
(lp1097
(lp1098
S'word: that, index: 25'
p1099
aatp1100
Rp1101
(dp1102
g14
Vnsubj
p1103
sbag0
(g1
g2
(lp1104
(lp1105
S"word: 's, index: 26"
p1106
aatp1107
Rp1108
(dp1109
g14
Vaux
p1110
sbag0
(g1
g2
(lp1111
g0
(g1
g2
(lp1112
g0
(g1
g2
(lp1113
(lp1114
S'word: the, index: 30'
p1115
aatp1116
Rp1117
(dp1118
g14
Vdet
p1119
sbag0
(g1
g2
(lp1120
(lp1121
S'word: clown, index: 31'
p1122
aatp1123
Rp1124
(dp1125
g14
Vnn
p1126
sbatp1127
Rp1128
(dp1129
g14
S'word: bucket, index: 32'
p1130
sbatp1131
Rp1132
(dp1133
g14
Vprep
p1134
sbatp1135
Rp1136
(dp1137
g14
S'word: coming, index: 27'
p1138
sbatp1139
Rp1140
(dp1141
g14
Vrcmod
p1142
sbatp1143
Rp1144
(dp1145
g14
S'word: stuff, index: 24'
p1146
sbatp1147
Rp1148
(dp1149
g14
Vprep
p1150
sbatp1151
Rp1152
(dp1153
g14
S'word: some, index: 21'
p1154
sbatp1155
Rp1156
(dp1157
g14
Vdobj
p1158
sbag0
(g1
g2
(lp1159
(lp1160
S'word: to, index: 19'
p1161
aatp1162
Rp1163
(dp1164
g14
Vaux
p1165
sbatp1166
Rp1167
(dp1168
g14
S'word: catch, index: 20'
p1169
sbatp1170
Rp1171
(dp1172
g14
Vxcomp
p1173
sbatp1174
Rp1175
(dp1176
g14
S'word: trying, index: 18'
p1177
sbatp1178
Rp1179
(dp1180
g14
Vadvcl
p1181
sbag0
(g1
g2
(lp1182
g0
(g1
g2
(lp1183
g0
(g1
g2
(lp1184
g0
(g1
g2
(lp1185
g0
(g1
g2
(lp1186
(lp1187
S'word: his, index: 5'
p1188
aatp1189
Rp1190
(dp1191
g14
Vposs
p1192
sbag0
(g1
g2
(lp1193
g0
(g1
g2
(lp1194
g0
(g1
g2
(lp1195
(lp1196
S'word: a, index: 8'
p1197
aatp1198
Rp1199
(dp1200
g14
Vdet
p1201
sbatp1202
Rp1203
(dp1204
g14
S'word: baby, index: 9'
p1205
sbatp1206
Rp1207
(dp1208
g14
Vconj
p1209
sbatp1210
Rp1211
(dp1212
g14
S'word: lady, index: 6'
p1213
sbatp1214
Rp1215
(dp1216
g14
Vprep
p1217
sbag0
(g1
g2
(lp1218
g1203
atp1219
Rp1220
(dp1221
g14
Vprep
p1222
sbag0
(g1
g2
(lp1223
(lp1224
S'word: The, index: 1'
p1225
aatp1226
Rp1227
(dp1228
g14
Vdet
p1229
sbag0
(g1
g2
(lp1230
(lp1231
S'word: young, index: 2'
p1232
aatp1233
Rp1234
(dp1235
g14
Vamod
p1236
sbatp1237
Rp1238
(dp1239
g14
S'word: man, index: 3'
p1240
sbatp1241
Rp1242
(dp1243
g14
Vccomp
p1244
sbatp1245
Rp1246
(dp1247
g14
S'word: got, index: 12'
p1248
sbatp1249
Rp1250
(dp1251
g14
S'id: 7'
p1252
sbag0
(g1
g2
(lp1253
g0
(g1
g2
(lp1254
g0
(g1
g2
(lp1255
g0
(g1
g2
(lp1256
g0
(g1
g2
(lp1257
(lp1258
S'word: a, index: 13'
p1259
aatp1260
Rp1261
(dp1262
g14
Vdet
p1263
sbag0
(g1
g2
(lp1264
(lp1265
S'word: little, index: 14'
p1266
aatp1267
Rp1268
(dp1269
g14
Vamod
p1270
sbag0
(g1
g2
(lp1271
g0
(g1
g2
(lp1272
g0
(g1
g2
(lp1273
(lp1274
S'word: his, index: 17'
p1275
aatp1276
Rp1277
(dp1278
g14
Vposs
p1279
sbatp1280
Rp1281
(dp1282
g14
S'word: head, index: 18'
p1283
sbatp1284
Rp1285
(dp1286
g14
Vprep
p1287
sbatp1288
Rp1289
(dp1290
g14
S'word: cap, index: 15'
p1291
sbatp1292
Rp1293
(dp1294
g14
Vprep
p1295
sbag0
(g1
g2
(lp1296
g0
(g1
g2
(lp1297
g0
(g1
g2
(lp1298
(lp1299
S'word: The, index: 1'
p1300
aatp1301
Rp1302
(dp1303
g14
Vdet
p1304
sbatp1305
Rp1306
(dp1307
g14
S'word: clown, index: 2'
p1308
sbatp1309
Rp1310
(dp1311
g14
Vnsubj
p1312
sbag0
(g1
g2
(lp1313
g0
(g1
g2
(lp1314
g0
(g1
g2
(lp1315
g1306
atp1316
Rp1317
(dp1318
g14
Vnsubj
p1319
sbag0
(g1
g2
(lp1320
g0
(g1
g2
(lp1321
g0
(g1
g2
(lp1322
g0
(g1
g2
(lp1323
g0
(g1
g2
(lp1324
(lp1325
S'word: his, index: 25'
p1326
aatp1327
Rp1328
(dp1329
g14
Vposs
p1330
sbag0
(g1
g2
(lp1331
(lp1332
S'word: he, index: 28'
p1333
aatp1334
Rp1335
(dp1336
g14
Vprep
p1337
sbatp1338
Rp1339
(dp1340
g14
S'word: hand, index: 26'
p1341
sbatp1342
Rp1343
(dp1344
g14
Vprep
p1345
sbag0
(g1
g2
(lp1346
(lp1347
S'word: a, index: 22'
p1348
aatp1349
Rp1350
(dp1351
g14
Vdet
p1352
sbatp1353
Rp1354
(dp1355
g14
S'word: bucket, index: 23'
p1356
sbatp1357
Rp1358
(dp1359
g14
Vdobj
p1360
sbatp1361
Rp1362
(dp1363
g14
S'word: have, index: 21'
p1364
sbatp1365
Rp1366
(dp1367
g14
Vconj
p1368
sbag0
(g1
g2
(lp1369
g0
(g1
g2
(lp1370
g0
(g1
g2
(lp1371
g0
(g1
g2
(lp1372
g0
(g1
g2
(lp1373
(lp1374
S'word: a, index: 9'
p1375
aatp1376
Rp1377
(dp1378
g14
Vdet
p1379
sbag0
(g1
g2
(lp1380
(lp1381
S'word: rubber, index: 10'
p1382
aatp1383
Rp1384
(dp1385
g14
Vnn
p1386
sbatp1387
Rp1388
(dp1389
g14
S'word: nose, index: 11'
p1390
sbatp1391
Rp1392
(dp1393
g14
Vprep
p1394
sbag0
(g1
g2
(lp1395
g1289
atp1396
Rp1397
(dp1398
g14
Vconj
p1399
sbag0
(g1
g2
(lp1400
(lp1401
S'word: a, index: 5'
p1402
aatp1403
Rp1404
(dp1405
g14
Vdet
p1406
sbag0
(g1
g2
(lp1407
(lp1408
S'word: clown, index: 6'
p1409
aatp1410
Rp1411
(dp1412
g14
Vnn
p1413
sbatp1414
Rp1415
(dp1416
g14
S'word: suit, index: 7'
p1417
sbatp1418
Rp1419
(dp1420
g14
Vprep
p1421
sbatp1422
Rp1423
(dp1424
g14
S'word: have, index: 3'
p1425
sbatp1426
Rp1427
(dp1428
g14
S'id: 8'
p1429
sbag0
(g1
g2
(lp1430
g0
(g1
g2
(lp1431
g0
(g1
g2
(lp1432
g0
(g1
g2
(lp1433
g0
(g1
g2
(lp1434
(lp1435
S'word: a, index: 12'
p1436
aatp1437
Rp1438
(dp1439
g14
Vdet
p1440
sbag0
(g1
g2
(lp1441
(lp1442
S'word: neck, index: 13'
p1443
aatp1444
Rp1445
(dp1446
g14
Vnn
p1447
sbatp1448
Rp1449
(dp1450
g14
S'word: tie, index: 14'
p1451
sbatp1452
Rp1453
(dp1454
g14
Vprep
p1455
sbag0
(g1
g2
(lp1456
(lp1457
S'word: He, index: 1'
p1458
aatp1459
Rp1460
(dp1461
g14
Vnsubj
p1462
sbag0
(g1
g2
(lp1463
g0
(g1
g2
(lp1464
g0
(g1
g2
(lp1465
(lp1466
S'word: some, index: 3'
p1467
aatp1468
Rp1469
(dp1470
g14
Vdet
p1471
sbag0
(g1
g2
(lp1472
(lp1473
S'word: big, index: 4'
p1474
aatp1475
Rp1476
(dp1477
g14
Vamod
p1478
sbag0
(g1
g2
(lp1479
(lp1480
S'word: old, index: 5'
p1481
aatp1482
Rp1483
(dp1484
g14
Vamod
p1485
sbatp1486
Rp1487
(dp1488
g14
S'word: trousers, index: 6'
p1489
sbatp1490
Rp1491
(dp1492
g14
Vdobj
p1493
sbag0
(g1
g2
(lp1494
(lp1495
S'word: on, index: 7'
p1496
aatp1497
Rp1498
(dp1499
g14
Vprep
p1500
sbag0
(g1
g2
(lp1501
g0
(g1
g2
(lp1502
g0
(g1
g2
(lp1503
g1449
atp1504
Rp1505
(dp1506
g14
Vconj
p1507
sbatp1508
Rp1509
(dp1510
g14
S'word: suspenders, index: 10'
p1511
sbatp1512
Rp1513
(dp1514
g14
Vprep
p1515
sbatp1516
Rp1517
(dp1518
g14
S'word: has, index: 2'
p1519
sbatp1520
Rp1521
(dp1522
g14
S'id: 9'
p1523
sbag0
(g1
g2
(lp1524
g0
(g1
g2
(lp1525
g0
(g1
g2
(lp1526
(lp1527
S'word: it, index: 15'
p1528
aatp1529
Rp1530
(dp1531
g14
Vprep
p1532
sbag0
(g1
g2
(lp1533
(lp1534
S'word: And, index: 1'
p1535
aatp1536
Rp1537
(dp1538
g14
Vcc
p1539
sbag0
(g1
g2
(lp1540
g0
(g1
g2
(lp1541
g0
(g1
g2
(lp1542
(lp1543
S'word: the, index: 2'
p1544
aatp1545
Rp1546
(dp1547
g14
Vdet
p1548
sbatp1549
Rp1550
(dp1551
g14
S'word: ballerina, index: 3'
p1552
sbatp1553
Rp1554
(dp1555
g14
Vnsubj
p1556
sbag0
(g1
g2
(lp1557
(lp1558
S'word: she, index: 5'
p1559
aatp1560
Rp1561
(dp1562
g14
Vnsubj
p1563
sbag0
(g1
g2
(lp1564
g0
(g1
g2
(lp1565
g0
(g1
g2
(lp1566
(lp1567
S'word: a, index: 7'
p1568
aatp1569
Rp1570
(dp1571
g14
Vdet
p1572
sbag0
(g1
g2
(lp1573
(lp1574
S'word: little, index: 8'
p1575
aatp1576
Rp1577
(dp1578
g14
Vamod
p1579
sbag0
(g1
g2
(lp1580
(lp1581
S'word: short, index: 9'
p1582
aatp1583
Rp1584
(dp1585
g14
Vamod
p1586
sbatp1587
Rp1588
(dp1589
g14
S'word: dress, index: 10'
p1590
sbatp1591
Rp1592
(dp1593
g14
Vdobj
p1594
sbag0
(g1
g2
(lp1595
g0
(g1
g2
(lp1596
g0
(g1
g2
(lp1597
g0
(g1
g2
(lp1598
g0
(g1
g2
(lp1599
(lp1600
S'word: lace, index: 13'
p1601
aatp1602
Rp1603
(dp1604
g14
Vpobj
p1605
sbatp1606
Rp1607
(dp1608
g14
S'word: with, index: 12'
p1609
sbatp1610
Rp1611
(dp1612
g14
Vpcomp
p1613
sbatp1614
Rp1615
(dp1616
g14
S'word: on, index: 11'
p1617
sbatp1618
Rp1619
(dp1620
g14
Vprep
p1621
sbatp1622
Rp1623
(dp1624
g14
S'word: got, index: 6'
p1625
sbatp1626
Rp1627
(dp1628
g14
S'id: 10'
p1629
sbag0
(g1
g2
(lp1630
g0
(g1
g2
(lp1631
g0
(g1
g2
(lp1632
(lp1633
S'word: And, index: 1'
p1634
aatp1635
Rp1636
(dp1637
g14
Vcc
p1638
sbag0
(g1
g2
(lp1639
g0
(g1
g2
(lp1640
g0
(g1
g2
(lp1641
(lp1642
S'word: the, index: 2'
p1643
aatp1644
Rp1645
(dp1646
g14
Vdet
p1647
sbatp1648
Rp1649
(dp1650
g14
S'word: clown, index: 3'
p1651
sbatp1652
Rp1653
(dp1654
g14
Vnsubj
p1655
sbag0
(g1
g2
(lp1656
(lp1657
S'word: also, index: 4'
p1658
aatp1659
Rp1660
(dp1661
g14
Vadvmod
p1662
sbag0
(g1
g2
(lp1663
g0
(g1
g2
(lp1664
g0
(g1
g2
(lp1665
g0
(g1
g2
(lp1666
g0
(g1
g2
(lp1667
(lp1668
S'word: a, index: 8'
p1669
aatp1670
Rp1671
(dp1672
g14
Vdet
p1673
sbag0
(g1
g2
(lp1674
(lp1675
S'word: plower, index: 9'
p1676
aatp1677
Rp1678
(dp1679
g14
Vamod
p1680
sbatp1681
Rp1682
(dp1683
g14
S'word: stickig, index: 10'
p1684
sbatp1685
Rp1686
(dp1687
g14
Vappos
p1688
sbatp1689
Rp1690
(dp1691
g14
S'word: a, index: 6'
p1692
sbatp1693
Rp1694
(dp1695
g14
Vdobj
p1696
sbag0
(g1
g2
(lp1697
g0
(g1
g2
(lp1698
g0
(g1
g2
(lp1699
(lp1700
S'word: his, index: 12'
p1701
aatp1702
Rp1703
(dp1704
g14
Vposs
p1705
sbatp1706
Rp1707
(dp1708
g14
S'word: hair, index: 13'
p1709
sbatp1710
Rp1711
(dp1712
g14
Vprep
p1713
sbatp1714
Rp1715
(dp1716
g14
S'word: got, index: 5'
p1717
sbatp1718
Rp1719
(dp1720
g14
S'id: 11'
p1721
sbag0
(g1
g2
(lp1722
g0
(g1
g2
(lp1723
g0
(g1
g2
(lp1724
g0
(g1
g2
(lp1725
g0
(g1
g2
(lp1726
g0
(g1
g2
(lp1727
g0
(g1
g2
(lp1728
(lp1729
S'word: his, index: 33'
p1730
aatp1731
Rp1732
(dp1733
g14
Vposs
p1734
sbag0
(g1
g2
(lp1735
(lp1736
S'word: two, index: 34'
p1737
aatp1738
Rp1739
(dp1740
g14
Vnum
p1741
sbag0
(g1
g2
(lp1742
(lp1743
S'word: paws, index: 35'
p1744
aatp1745
Rp1746
(dp1747
g14
Vnn
p1748
sbatp1749
Rp1750
(dp1751
g14
S'word: kinda, index: 36'
p1752
sbatp1753
Rp1754
(dp1755
g14
Vprep
p1756
sbag0
(g1
g2
(lp1757
g0
(g1
g2
(lp1758
g0
(g1
g2
(lp1759
(lp1760
S'word: the, index: 22'
p1761
aatp1762
Rp1763
(dp1764
g14
Vdet
p1765
sbatp1766
Rp1767
(dp1768
g14
S'word: lion, index: 23'
p1769
sbatp1770
Rp1771
(dp1772
g14
Vnsubj
p1773
sbag0
(g1
g2
(lp1774
g0
(g1
g2
(lp1775
g0
(g1
g2
(lp1776
(lp1777
S'word: his, index: 26'
p1778
aatp1779
Rp1780
(dp1781
g14
Vposs
p1782
sbag0
(g1
g2
(lp1783
g0
(g1
g2
(lp1784
g0
(g1
g2
(lp1785
(lp1786
S'word: rear, index: 29'
p1787
aatp1788
Rp1789
(dp1790
g14
Vamod
p1791
sbatp1792
Rp1793
(dp1794
g14
S'word: feet, index: 30'
p1795
sbatp1796
Rp1797
(dp1798
g14
Vappos
p1799
sbatp1800
Rp1801
(dp1802
g14
S'word: vye, index: 27'
p1803
sbatp1804
Rp1805
(dp1806
g14
Vprep
p1807
sbatp1808
Rp1809
(dp1810
g14
S'word: is, index: 24'
p1811
sbatp1812
Rp1813
(dp1814
g14
Vconj
p1815
sbag0
(g1
g2
(lp1816
(lp1817
S'word: he, index: 11'
p1818
aatp1819
Rp1820
(dp1821
g14
Vnsubj
p1822
sbag0
(g1
g2
(lp1823
(lp1824
S'word: just, index: 12'
p1825
aatp1826
Rp1827
(dp1828
g14
Vadvmod
p1829
sbag0
(g1
g2
(lp1830
g0
(g1
g2
(lp1831
g0
(g1
g2
(lp1832
(lp1833
S'word: to, index: 14'
p1834
aatp1835
Rp1836
(dp1837
g14
Vaux
p1838
sbag0
(g1
g2
(lp1839
(lp1840
S'word: be, index: 15'
p1841
aatp1842
Rp1843
(dp1844
g14
Vaux
p1845
sbag0
(g1
g2
(lp1846
g0
(g1
g2
(lp1847
g0
(g1
g2
(lp1848
(lp1849
S'word: the, index: 18'
p1850
aatp1851
Rp1852
(dp1853
g14
Vdet
p1854
sbatp1855
Rp1856
(dp1857
g14
S'word: lion, index: 19'
p1858
sbatp1859
Rp1860
(dp1861
g14
Vprep
p1862
sbatp1863
Rp1864
(dp1865
g14
S'word: pointing, index: 16'
p1866
sbatp1867
Rp1868
(dp1869
g14
Vxcomp
p1870
sbag0
(g1
g2
(lp1871
g0
(g1
g2
(lp1872
g0
(g1
g2
(lp1873
g0
(g1
g2
(lp1874
g0
(g1
g2
(lp1875
(lp1876
S'word: the, index: 5'
p1877
aatp1878
Rp1879
(dp1880
g14
Vdet
p1881
sbag0
(g1
g2
(lp1882
g0
(g1
g2
(lp1883
g0
(g1
g2
(lp1884
(lp1885
S'word: the, index: 8'
p1886
aatp1887
Rp1888
(dp1889
g14
Vdet
p1890
sbatp1891
Rp1892
(dp1893
g14
S'word: lion, index: 9'
p1894
sbatp1895
Rp1896
(dp1897
g14
Vprep
p1898
sbatp1899
Rp1900
(dp1901
g14
S'word: cage, index: 6'
p1902
sbatp1903
Rp1904
(dp1905
g14
Vprep
p1906
sbag0
(g1
g2
(lp1907
(lp1908
S'word: the, index: 2'
p1909
aatp1910
Rp1911
(dp1912
g14
Vdet
p1913
sbatp1914
Rp1915
(dp1916
g14
S'word: man, index: 3'
p1917
sbatp1918
Rp1919
(dp1920
g14
Vccomp
p1921
sbatp1922
Rp1923
(dp1924
g14
S'word: seem, index: 13'
p1925
sbatp1926
Rp1927
(dp1928
g14
S'id: 12'
p1929
sbatp1930
Rp1931
(dp1932
g14
S'sentences'
p1933
sb.