ccopy_reg
_reconstructor
p0
(cnltk.tree
Tree
p1
c__builtin__
list
p2
(lp3
g0
(g1
g2
(lp4
g0
(g1
g2
(lp5
g0
(g1
g2
(lp6
g0
(g1
g2
(lp7
Vlook
p8
atp9
Rp10
(dp11
S'_label'
p12
VVB
p13
sbag0
(g1
g2
(lp14
g0
(g1
g2
(lp15
Vlike
p16
atp17
Rp18
(dp19
g12
VIN
p20
sbag0
(g1
g2
(lp21
g0
(g1
g2
(lp22
g0
(g1
g2
(lp23
Vthere
p24
atp25
Rp26
(dp27
g12
VEX
p28
sbatp29
Rp30
(dp31
g12
VNP
p32
sbag0
(g1
g2
(lp33
g0
(g1
g2
(lp34
V's
p35
atp36
Rp37
(dp38
g12
VVBZ
p39
sbag0
(g1
g2
(lp40
g0
(g1
g2
(lp41
Va
p42
atp43
Rp44
(dp45
g12
VDT
p46
sbag0
(g1
g2
(lp47
Vparade
p48
atp49
Rp50
(dp51
g12
VNN
p52
sbatp53
Rp54
(dp55
g12
VNP
p56
sbatp57
Rp58
(dp59
g12
VVP
p60
sbatp61
Rp62
(dp63
g12
VS
p64
sbatp65
Rp66
(dp67
g12
VSBAR
p68
sbatp69
Rp70
(dp71
g12
VVP
p72
sbag0
(g1
g2
(lp73
V.
p74
atp75
Rp76
(dp77
g12
V.
p78
sbatp79
Rp80
(dp81
g12
VS
p82
sbatp83
Rp84
(dp85
g12
S'id: 0'
p86
sbag0
(g1
g2
(lp87
g0
(g1
g2
(lp88
g0
(g1
g2
(lp89
g0
(g1
g2
(lp90
VThere
p91
atp92
Rp93
(dp94
g12
VEX
p95
sbatp96
Rp97
(dp98
g12
VNP
p99
sbag0
(g1
g2
(lp100
g0
(g1
g2
(lp101
V's
p102
atp103
Rp104
(dp105
g12
VVBZ
p106
sbag0
(g1
g2
(lp107
g0
(g1
g2
(lp108
Va
p109
atp110
Rp111
(dp112
g12
VDT
p113
sbag0
(g1
g2
(lp114
Vclown
p115
atp116
Rp117
(dp118
g12
VNN
p119
sbatp120
Rp121
(dp122
g12
VNP
p123
sbatp124
Rp125
(dp126
g12
VVP
p127
sbag0
(g1
g2
(lp128
V.
p129
atp130
Rp131
(dp132
g12
V.
p133
sbatp134
Rp135
(dp136
g12
VS
p137
sbatp138
Rp139
(dp140
g12
S'id: 1'
p141
sbag0
(g1
g2
(lp142
g0
(g1
g2
(lp143
g0
(g1
g2
(lp144
g0
(g1
g2
(lp145
VYes
p146
atp147
Rp148
(dp149
g12
VUH
p150
sbatp151
Rp152
(dp153
g12
VINTJ
p154
sbag0
(g1
g2
(lp155
V,
p156
atp157
Rp158
(dp159
g12
V,
p160
sbag0
(g1
g2
(lp161
g0
(g1
g2
(lp162
Vand
p163
atp164
Rp165
(dp166
g12
VCC
p167
sbag0
(g1
g2
(lp168
g0
(g1
g2
(lp169
g0
(g1
g2
(lp170
Va
p171
atp172
Rp173
(dp174
g12
VDT
p175
sbag0
(g1
g2
(lp176
Vgirl
p177
atp178
Rp179
(dp180
g12
VNN
p181
sbatp182
Rp183
(dp184
g12
VNP
p185
sbag0
(g1
g2
(lp186
V,
p187
atp188
Rp189
(dp190
g12
V,
p191
sbag0
(g1
g2
(lp192
g0
(g1
g2
(lp193
g0
(g1
g2
(lp194
Va
p195
atp196
Rp197
(dp198
g12
VDT
p199
sbag0
(g1
g2
(lp200
Vboy
p201
atp202
Rp203
(dp204
g12
VNN
p205
sbatp206
Rp207
(dp208
g12
VNP
p209
sbag0
(g1
g2
(lp210
g0
(g1
g2
(lp211
g0
(g1
g2
(lp212
Vdown
p213
atp214
Rp215
(dp216
g12
VIN
p217
sbatp218
Rp219
(dp220
g12
VADJP
p221
sbag0
(g1
g2
(lp222
g0
(g1
g2
(lp223
Vthere
p224
atp225
Rp226
(dp227
g12
VRB
p228
sbag0
(g1
g2
(lp229
V.
p230
atp231
Rp232
(dp233
g12
V.
p234
sbatp235
Rp236
(dp237
g12
VADVP
p238
sbatp239
Rp240
(dp241
g12
VRRC
p242
sbatp243
Rp244
(dp245
g12
VNP
p246
sbatp247
Rp248
(dp249
g12
VNP
p250
sbatp251
Rp252
(dp253
g12
VPP
p254
sbatp255
Rp256
(dp257
g12
VFRAG
p258
sbatp259
Rp260
(dp261
g12
S'id: 2'
p262
sbag0
(g1
g2
(lp263
g0
(g1
g2
(lp264
g0
(g1
g2
(lp265
g0
(g1
g2
(lp266
VThere
p267
atp268
Rp269
(dp270
g12
VEX
p271
sbatp272
Rp273
(dp274
g12
VNP
p275
sbag0
(g1
g2
(lp276
g0
(g1
g2
(lp277
V's
p278
atp279
Rp280
(dp281
g12
VVBZ
p282
sbag0
(g1
g2
(lp283
g0
(g1
g2
(lp284
g0
(g1
g2
(lp285
Vpeople
p286
atp287
Rp288
(dp289
g12
VNNS
p290
sbatp291
Rp292
(dp293
g12
VNP
p294
sbag0
(g1
g2
(lp295
g0
(g1
g2
(lp296
Vlike
p297
atp298
Rp299
(dp300
g12
VIN
p301
sbag0
(g1
g2
(lp302
g0
(g1
g2
(lp303
g0
(g1
g2
(lp304
Va
p305
atp306
Rp307
(dp308
g12
VDT
p309
sbag0
(g1
g2
(lp310
Vparade
p311
atp312
Rp313
(dp314
g12
VNN
p315
sbatp316
Rp317
(dp318
g12
VNP
p319
sbag0
(g1
g2
(lp320
g0
(g1
g2
(lp321
Vsitting
p322
atp323
Rp324
(dp325
g12
VVBG
p326
sbag0
(g1
g2
(lp327
g0
(g1
g2
(lp328
Von
p329
atp330
Rp331
(dp332
g12
VIN
p333
sbag0
(g1
g2
(lp334
g0
(g1
g2
(lp335
g0
(g1
g2
(lp336
Vthe
p337
atp338
Rp339
(dp340
g12
VDT
p341
sbag0
(g1
g2
(lp342
Voutside
p343
atp344
Rp345
(dp346
g12
VJJ
p347
sbatp348
Rp349
(dp350
g12
VNP
p351
sbag0
(g1
g2
(lp352
V,
p353
atp354
Rp355
(dp356
g12
V,
p357
sbag0
(g1
g2
(lp358
g0
(g1
g2
(lp359
Vsomebody
p360
atp361
Rp362
(dp363
g12
VNN
p364
sbatp365
Rp366
(dp367
g12
VNP
p368
sbatp369
Rp370
(dp371
g12
VNP
p372
sbatp373
Rp374
(dp375
g12
VPP
p376
sbag0
(g1
g2
(lp377
g0
(g1
g2
(lp378
g0
(g1
g2
(lp379
Vbe
p380
atp381
Rp382
(dp383
g12
VVB
p384
sbag0
(g1
g2
(lp385
g0
(g1
g2
(lp386
g0
(g1
g2
(lp387
Vwalking
p388
atp389
Rp390
(dp391
g12
VVBG
p392
sbag0
(g1
g2
(lp393
g0
(g1
g2
(lp394
Vthat
p395
atp396
Rp397
(dp398
g12
VIN
p399
sbag0
(g1
g2
(lp400
g0
(g1
g2
(lp401
Vtight
p402
atp403
Rp404
(dp405
g12
VJJ
p406
sbag0
(g1
g2
(lp407
Vrope
p408
atp409
Rp410
(dp411
g12
VNN
p412
sbatp413
Rp414
(dp415
g12
VNP
p416
sbatp417
Rp418
(dp419
g12
VPP
p420
sbatp421
Rp422
(dp423
g12
VVP
p424
sbatp425
Rp426
(dp427
g12
VS
p428
sbatp429
Rp430
(dp431
g12
VVP
p432
sbatp433
Rp434
(dp435
g12
VS
p436
sbatp437
Rp438
(dp439
g12
VVP
p440
sbatp441
Rp442
(dp443
g12
VNP
p444
sbatp445
Rp446
(dp447
g12
VPP
p448
sbatp449
Rp450
(dp451
g12
VNP
p452
sbatp453
Rp454
(dp455
g12
VVP
p456
sbag0
(g1
g2
(lp457
V.
p458
atp459
Rp460
(dp461
g12
V.
p462
sbatp463
Rp464
(dp465
g12
VS
p466
sbatp467
Rp468
(dp469
g12
S'id: 3'
p470
sbag0
(g1
g2
(lp471
g0
(g1
g2
(lp472
g0
(g1
g2
(lp473
g0
(g1
g2
(lp474
VThere
p475
atp476
Rp477
(dp478
g12
VEX
p479
sbatp480
Rp481
(dp482
g12
VNP
p483
sbag0
(g1
g2
(lp484
g0
(g1
g2
(lp485
V's
p486
atp487
Rp488
(dp489
g12
VVBZ
p490
sbag0
(g1
g2
(lp491
g0
(g1
g2
(lp492
Va
p493
atp494
Rp495
(dp496
g12
VDT
p497
sbag0
(g1
g2
(lp498
Vfemale
p499
atp500
Rp501
(dp502
g12
VJJ
p503
sbag0
(g1
g2
(lp504
Vclown
p505
atp506
Rp507
(dp508
g12
VNN
p509
sbatp510
Rp511
(dp512
g12
VNP
p513
sbatp514
Rp515
(dp516
g12
VVP
p517
sbag0
(g1
g2
(lp518
V.
p519
atp520
Rp521
(dp522
g12
V.
p523
sbatp524
Rp525
(dp526
g12
VS
p527
sbatp528
Rp529
(dp530
g12
S'id: 4'
p531
sbag0
(g1
g2
(lp532
g0
(g1
g2
(lp533
g0
(g1
g2
(lp534
g0
(g1
g2
(lp535
VThere
p536
atp537
Rp538
(dp539
g12
VEX
p540
sbatp541
Rp542
(dp543
g12
VNP
p544
sbag0
(g1
g2
(lp545
g0
(g1
g2
(lp546
V's
p547
atp548
Rp549
(dp550
g12
VVBZ
p551
sbag0
(g1
g2
(lp552
g0
(g1
g2
(lp553
Va
p554
atp555
Rp556
(dp557
g12
VDT
p558
sbag0
(g1
g2
(lp559
Vclown
p560
atp561
Rp562
(dp563
g12
VNN
p564
sbatp565
Rp566
(dp567
g12
VNP
p568
sbatp569
Rp570
(dp571
g12
VVP
p572
sbag0
(g1
g2
(lp573
V.
p574
atp575
Rp576
(dp577
g12
V.
p578
sbatp579
Rp580
(dp581
g12
VS
p582
sbatp583
Rp584
(dp585
g12
S'id: 5'
p586
sbag0
(g1
g2
(lp587
g0
(g1
g2
(lp588
g0
(g1
g2
(lp589
g0
(g1
g2
(lp590
VSomebody
p591
atp592
Rp593
(dp594
g12
VNN
p595
sbatp596
Rp597
(dp598
g12
VNP
p599
sbag0
(g1
g2
(lp600
g0
(g1
g2
(lp601
Vmight
p602
atp603
Rp604
(dp605
g12
VMD
p606
sbag0
(g1
g2
(lp607
g0
(g1
g2
(lp608
Vbe
p609
atp610
Rp611
(dp612
g12
VVB
p613
sbag0
(g1
g2
(lp614
g0
(g1
g2
(lp615
Vwalking
p616
atp617
Rp618
(dp619
g12
VVBG
p620
sbag0
(g1
g2
(lp621
g0
(g1
g2
(lp622
Vin
p623
atp624
Rp625
(dp626
g12
VIN
p627
sbag0
(g1
g2
(lp628
g0
(g1
g2
(lp629
Vthe
p630
atp631
Rp632
(dp633
g12
VDT
p634
sbag0
(g1
g2
(lp635
Vpark
p636
atp637
Rp638
(dp639
g12
VNN
p640
sbatp641
Rp642
(dp643
g12
VNP
p644
sbatp645
Rp646
(dp647
g12
VPP
p648
sbatp649
Rp650
(dp651
g12
VVP
p652
sbatp653
Rp654
(dp655
g12
VVP
p656
sbatp657
Rp658
(dp659
g12
VVP
p660
sbag0
(g1
g2
(lp661
V.
p662
atp663
Rp664
(dp665
g12
V.
p666
sbatp667
Rp668
(dp669
g12
VS
p670
sbatp671
Rp672
(dp673
g12
S'id: 6'
p674
sbag0
(g1
g2
(lp675
g0
(g1
g2
(lp676
g0
(g1
g2
(lp677
g0
(g1
g2
(lp678
VThere
p679
atp680
Rp681
(dp682
g12
VEX
p683
sbatp684
Rp685
(dp686
g12
VNP
p687
sbag0
(g1
g2
(lp688
g0
(g1
g2
(lp689
V's
p690
atp691
Rp692
(dp693
g12
VVBZ
p694
sbag0
(g1
g2
(lp695
g0
(g1
g2
(lp696
g0
(g1
g2
(lp697
Vsome
p698
atp699
Rp700
(dp701
g12
VDT
p702
sbag0
(g1
g2
(lp703
Vpeople
p704
atp705
Rp706
(dp707
g12
VNNS
p708
sbatp709
Rp710
(dp711
g12
VNP
p712
sbag0
(g1
g2
(lp713
g0
(g1
g2
(lp714
Vsitting
p715
atp716
Rp717
(dp718
g12
VVBG
p719
sbag0
(g1
g2
(lp720
g0
(g1
g2
(lp721
Von
p722
atp723
Rp724
(dp725
g12
VIN
p726
sbag0
(g1
g2
(lp727
g0
(g1
g2
(lp728
g0
(g1
g2
(lp729
Vthe
p730
atp731
Rp732
(dp733
g12
VDT
p734
sbatp735
Rp736
(dp737
g12
VNP
p738
sbag0
(g1
g2
(lp739
g0
(g1
g2
(lp740
g0
(g1
g2
(lp741
g0
(g1
g2
(lp742
Vdrum
p743
atp744
Rp745
(dp746
g12
VVBP
p747
sbatp748
Rp749
(dp750
g12
VVP
p751
sbatp752
Rp753
(dp754
g12
VS
p755
sbatp756
Rp757
(dp758
g12
VSBAR
p759
sbatp760
Rp761
(dp762
g12
VNP
p763
sbatp764
Rp765
(dp766
g12
VPP
p767
sbatp768
Rp769
(dp770
g12
VVP
p771
sbatp772
Rp773
(dp774
g12
VNP
p775
sbatp776
Rp777
(dp778
g12
VVP
p779
sbag0
(g1
g2
(lp780
V.
p781
atp782
Rp783
(dp784
g12
V.
p785
sbatp786
Rp787
(dp788
g12
VS
p789
sbatp790
Rp791
(dp792
g12
S'id: 7'
p793
sbag0
(g1
g2
(lp794
g0
(g1
g2
(lp795
g0
(g1
g2
(lp796
g0
(g1
g2
(lp797
VThere
p798
atp799
Rp800
(dp801
g12
VEX
p802
sbatp803
Rp804
(dp805
g12
VNP
p806
sbag0
(g1
g2
(lp807
g0
(g1
g2
(lp808
V's
p809
atp810
Rp811
(dp812
g12
VVBZ
p813
sbag0
(g1
g2
(lp814
g0
(g1
g2
(lp815
Vanother
p816
atp817
Rp818
(dp819
g12
VDT
p820
sbag0
(g1
g2
(lp821
Vclown
p822
atp823
Rp824
(dp825
g12
VNN
p826
sbatp827
Rp828
(dp829
g12
VNP
p830
sbatp831
Rp832
(dp833
g12
VVP
p834
sbag0
(g1
g2
(lp835
V.
p836
atp837
Rp838
(dp839
g12
V.
p840
sbatp841
Rp842
(dp843
g12
VS
p844
sbatp845
Rp846
(dp847
g12
S'id: 8'
p848
sbag0
(g1
g2
(lp849
g0
(g1
g2
(lp850
g0
(g1
g2
(lp851
g0
(g1
g2
(lp852
VThere
p853
atp854
Rp855
(dp856
g12
VEX
p857
sbatp858
Rp859
(dp860
g12
VNP
p861
sbag0
(g1
g2
(lp862
g0
(g1
g2
(lp863
V's
p864
atp865
Rp866
(dp867
g12
VVBZ
p868
sbag0
(g1
g2
(lp869
g0
(g1
g2
(lp870
g0
(g1
g2
(lp871
Va
p872
atp873
Rp874
(dp875
g12
VDT
p876
sbag0
(g1
g2
(lp877
Vnaybuluh
p878
atp879
Rp880
(dp881
g12
VNN
p882
sbatp883
Rp884
(dp885
g12
VNP
p886
sbag0
(g1
g2
(lp887
g0
(g1
g2
(lp888
Varound
p889
atp890
Rp891
(dp892
g12
VIN
p893
sbag0
(g1
g2
(lp894
g0
(g1
g2
(lp895
Vher
p896
atp897
Rp898
(dp899
g12
VPRP$
p900
sbag0
(g1
g2
(lp901
Vneck
p902
atp903
Rp904
(dp905
g12
VNN
p906
sbatp907
Rp908
(dp909
g12
VNP
p910
sbatp911
Rp912
(dp913
g12
VPP
p914
sbatp915
Rp916
(dp917
g12
VNP
p918
sbatp919
Rp920
(dp921
g12
VVP
p922
sbag0
(g1
g2
(lp923
V.
p924
atp925
Rp926
(dp927
g12
V.
p928
sbatp929
Rp930
(dp931
g12
VS
p932
sbatp933
Rp934
(dp935
g12
S'id: 9'
p936
sbag0
(g1
g2
(lp937
g0
(g1
g2
(lp938
g0
(g1
g2
(lp939
g0
(g1
g2
(lp940
VThere
p941
atp942
Rp943
(dp944
g12
VEX
p945
sbatp946
Rp947
(dp948
g12
VNP
p949
sbag0
(g1
g2
(lp950
g0
(g1
g2
(lp951
V's
p952
atp953
Rp954
(dp955
g12
VVBZ
p956
sbag0
(g1
g2
(lp957
g0
(g1
g2
(lp958
g0
(g1
g2
(lp959
Va
p960
atp961
Rp962
(dp963
g12
VDT
p964
sbag0
(g1
g2
(lp965
Vboy
p966
atp967
Rp968
(dp969
g12
VNN
p970
sbatp971
Rp972
(dp973
g12
VNP
p974
sbag0
(g1
g2
(lp975
g0
(g1
g2
(lp976
Vclapping
p977
atp978
Rp979
(dp980
g12
VVBG
p981
sbag0
(g1
g2
(lp982
g0
(g1
g2
(lp983
Vhis
p984
atp985
Rp986
(dp987
g12
VPRP$
p988
sbag0
(g1
g2
(lp989
Vhand
p990
atp991
Rp992
(dp993
g12
VNN
p994
sbatp995
Rp996
(dp997
g12
VNP
p998
sbatp999
Rp1000
(dp1001
g12
VVP
p1002
sbatp1003
Rp1004
(dp1005
g12
VNP
p1006
sbatp1007
Rp1008
(dp1009
g12
VVP
p1010
sbag0
(g1
g2
(lp1011
V.
p1012
atp1013
Rp1014
(dp1015
g12
V.
p1016
sbatp1017
Rp1018
(dp1019
g12
VS
p1020
sbatp1021
Rp1022
(dp1023
g12
S'id: 10'
p1024
sbag0
(g1
g2
(lp1025
g0
(g1
g2
(lp1026
g0
(g1
g2
(lp1027
g0
(g1
g2
(lp1028
VThere
p1029
atp1030
Rp1031
(dp1032
g12
VEX
p1033
sbatp1034
Rp1035
(dp1036
g12
VNP
p1037
sbag0
(g1
g2
(lp1038
g0
(g1
g2
(lp1039
V's
p1040
atp1041
Rp1042
(dp1043
g12
VVBZ
p1044
sbag0
(g1
g2
(lp1045
g0
(g1
g2
(lp1046
g0
(g1
g2
(lp1047
Vstars
p1048
atp1049
Rp1050
(dp1051
g12
VNNS
p1052
sbatp1053
Rp1054
(dp1055
g12
VNP
p1056
sbag0
(g1
g2
(lp1057
g0
(g1
g2
(lp1058
Von
p1059
atp1060
Rp1061
(dp1062
g12
VIN
p1063
sbag0
(g1
g2
(lp1064
g0
(g1
g2
(lp1065
Vthe
p1066
atp1067
Rp1068
(dp1069
g12
VDT
p1070
sbag0
(g1
g2
(lp1071
Vdrums
p1072
atp1073
Rp1074
(dp1075
g12
VNNS
p1076
sbatp1077
Rp1078
(dp1079
g12
VNP
p1080
sbatp1081
Rp1082
(dp1083
g12
VPP
p1084
sbatp1085
Rp1086
(dp1087
g12
VNP
p1088
sbatp1089
Rp1090
(dp1091
g12
VVP
p1092
sbag0
(g1
g2
(lp1093
V.
p1094
atp1095
Rp1096
(dp1097
g12
V.
p1098
sbatp1099
Rp1100
(dp1101
g12
VS
p1102
sbatp1103
Rp1104
(dp1105
g12
S'id: 11'
p1106
sbag0
(g1
g2
(lp1107
g0
(g1
g2
(lp1108
g0
(g1
g2
(lp1109
g0
(g1
g2
(lp1110
VThere
p1111
atp1112
Rp1113
(dp1114
g12
VEX
p1115
sbatp1116
Rp1117
(dp1118
g12
VNP
p1119
sbag0
(g1
g2
(lp1120
g0
(g1
g2
(lp1121
V's
p1122
atp1123
Rp1124
(dp1125
g12
VVBZ
p1126
sbag0
(g1
g2
(lp1127
g0
(g1
g2
(lp1128
Vanother
p1129
atp1130
Rp1131
(dp1132
g12
VDT
p1133
sbag0
(g1
g2
(lp1134
Vclown
p1135
atp1136
Rp1137
(dp1138
g12
VNN
p1139
sbatp1140
Rp1141
(dp1142
g12
VNP
p1143
sbatp1144
Rp1145
(dp1146
g12
VVP
p1147
sbag0
(g1
g2
(lp1148
V.
p1149
atp1150
Rp1151
(dp1152
g12
V.
p1153
sbatp1154
Rp1155
(dp1156
g12
VS
p1157
sbatp1158
Rp1159
(dp1160
g12
S'id: 12'
p1161
sbag0
(g1
g2
(lp1162
g0
(g1
g2
(lp1163
g0
(g1
g2
(lp1164
VAnd
p1165
atp1166
Rp1167
(dp1168
g12
VCC
p1169
sbag0
(g1
g2
(lp1170
g0
(g1
g2
(lp1171
g0
(g1
g2
(lp1172
Va
p1173
atp1174
Rp1175
(dp1176
g12
VDT
p1177
sbag0
(g1
g2
(lp1178
Vboy
p1179
atp1180
Rp1181
(dp1182
g12
VNN
p1183
sbatp1184
Rp1185
(dp1186
g12
VNP
p1187
sbag0
(g1
g2
(lp1188
Vdown
p1189
atp1190
Rp1191
(dp1192
g12
VIN
p1193
sbatp1194
Rp1195
(dp1196
g12
VADVP
p1197
sbag0
(g1
g2
(lp1198
g0
(g1
g2
(lp1199
g0
(g1
g2
(lp1200
Vthere
p1201
atp1202
Rp1203
(dp1204
g12
VEX
p1205
sbatp1206
Rp1207
(dp1208
g12
VNP
p1209
sbag0
(g1
g2
(lp1210
g0
(g1
g2
(lp1211
Vsmiling
p1212
atp1213
Rp1214
(dp1215
g12
VVBG
p1216
sbatp1217
Rp1218
(dp1219
g12
VVP
p1220
sbatp1221
Rp1222
(dp1223
g12
VS
p1224
sbag0
(g1
g2
(lp1225
V.
p1226
atp1227
Rp1228
(dp1229
g12
V.
p1230
sbatp1231
Rp1232
(dp1233
g12
VS
p1234
sbatp1235
Rp1236
(dp1237
g12
S'id: 13'
p1238
sbag0
(g1
g2
(lp1239
g0
(g1
g2
(lp1240
g0
(g1
g2
(lp1241
g0
(g1
g2
(lp1242
VThere
p1243
atp1244
Rp1245
(dp1246
g12
VEX
p1247
sbatp1248
Rp1249
(dp1250
g12
VNP
p1251
sbag0
(g1
g2
(lp1252
g0
(g1
g2
(lp1253
V's
p1254
atp1255
Rp1256
(dp1257
g12
VVBZ
p1258
sbag0
(g1
g2
(lp1259
g0
(g1
g2
(lp1260
g0
(g1
g2
(lp1261
Va
p1262
atp1263
Rp1264
(dp1265
g12
VDT
p1266
sbatp1267
Rp1268
(dp1269
g12
VNP
p1270
sbag0
(g1
g2
(lp1271
g0
(g1
g2
(lp1272
Vdrum
p1273
atp1274
Rp1275
(dp1276
g12
VVB
p1277
sbag0
(g1
g2
(lp1278
g0
(g1
g2
(lp1279
Vwith
p1280
atp1281
Rp1282
(dp1283
g12
VIN
p1284
sbag0
(g1
g2
(lp1285
g0
(g1
g2
(lp1286
g0
(g1
g2
(lp1287
Vstars
p1288
atp1289
Rp1290
(dp1291
g12
VNNS
p1292
sbatp1293
Rp1294
(dp1295
g12
VNP
p1296
sbag0
(g1
g2
(lp1297
g0
(g1
g2
(lp1298
Von
p1299
atp1300
Rp1301
(dp1302
g12
VIN
p1303
sbag0
(g1
g2
(lp1304
g0
(g1
g2
(lp1305
Vit
p1306
atp1307
Rp1308
(dp1309
g12
VPRP
p1310
sbatp1311
Rp1312
(dp1313
g12
VNP
p1314
sbatp1315
Rp1316
(dp1317
g12
VPP
p1318
sbatp1319
Rp1320
(dp1321
g12
VNP
p1322
sbatp1323
Rp1324
(dp1325
g12
VPP
p1326
sbatp1327
Rp1328
(dp1329
g12
VVP
p1330
sbatp1331
Rp1332
(dp1333
g12
VS
p1334
sbatp1335
Rp1336
(dp1337
g12
VVP
p1338
sbag0
(g1
g2
(lp1339
V.
p1340
atp1341
Rp1342
(dp1343
g12
V.
p1344
sbatp1345
Rp1346
(dp1347
g12
VS
p1348
sbatp1349
Rp1350
(dp1351
g12
S'id: 14'
p1352
sbag0
(g1
g2
(lp1353
g0
(g1
g2
(lp1354
g0
(g1
g2
(lp1355
g0
(g1
g2
(lp1356
g0
(g1
g2
(lp1357
VThere
p1358
atp1359
Rp1360
(dp1361
g12
VEX
p1362
sbatp1363
Rp1364
(dp1365
g12
VNP
p1366
sbag0
(g1
g2
(lp1367
g0
(g1
g2
(lp1368
V's
p1369
atp1370
Rp1371
(dp1372
g12
VVBZ
p1373
sbag0
(g1
g2
(lp1374
g0
(g1
g2
(lp1375
g0
(g1
g2
(lp1376
Va
p1377
atp1378
Rp1379
(dp1380
g12
VDT
p1381
sbag0
(g1
g2
(lp1382
Vclown
p1383
atp1384
Rp1385
(dp1386
g12
VNN
p1387
sbatp1388
Rp1389
(dp1390
g12
VNP
p1391
sbag0
(g1
g2
(lp1392
Vdown
p1393
atp1394
Rp1395
(dp1396
g12
VRB
p1397
sbatp1398
Rp1399
(dp1400
g12
VADVP
p1401
sbag0
(g1
g2
(lp1402
g0
(g1
g2
(lp1403
Vhere
p1404
atp1405
Rp1406
(dp1407
g12
VRB
p1408
sbatp1409
Rp1410
(dp1411
g12
VADVP
p1412
sbag0
(g1
g2
(lp1413
g0
(g1
g2
(lp1414
Vin
p1415
atp1416
Rp1417
(dp1418
g12
VIN
p1419
sbag0
(g1
g2
(lp1420
g0
(g1
g2
(lp1421
Vthe
p1422
atp1423
Rp1424
(dp1425
g12
VDT
p1426
sbag0
(g1
g2
(lp1427
Vcorner
p1428
atp1429
Rp1430
(dp1431
g12
VNN
p1432
sbatp1433
Rp1434
(dp1435
g12
VNP
p1436
sbatp1437
Rp1438
(dp1439
g12
VPP
p1440
sbatp1441
Rp1442
(dp1443
g12
VVP
p1444
sbatp1445
Rp1446
(dp1447
g12
VS
p1448
sbag0
(g1
g2
(lp1449
V,
p1450
atp1451
Rp1452
(dp1453
g12
V,
p1454
sbag0
(g1
g2
(lp1455
Vand
p1456
atp1457
Rp1458
(dp1459
g12
VCC
p1460
sbag0
(g1
g2
(lp1461
g0
(g1
g2
(lp1462
g0
(g1
g2
(lp1463
g0
(g1
g2
(lp1464
Vsomebody
p1465
atp1466
Rp1467
(dp1468
g12
VNN
p1469
sbatp1470
Rp1471
(dp1472
g12
VNP
p1473
sbag0
(g1
g2
(lp1474
g0
(g1
g2
(lp1475
Vup
p1476
atp1477
Rp1478
(dp1479
g12
VIN
p1480
sbag0
(g1
g2
(lp1481
g0
(g1
g2
(lp1482
Vtop
p1483
atp1484
Rp1485
(dp1486
g12
VNN
p1487
sbatp1488
Rp1489
(dp1490
g12
VNP
p1491
sbatp1492
Rp1493
(dp1494
g12
VPP
p1495
sbatp1496
Rp1497
(dp1498
g12
VNP
p1499
sbag0
(g1
g2
(lp1500
g0
(g1
g2
(lp1501
Vis
p1502
atp1503
Rp1504
(dp1505
g12
VVBZ
p1506
sbag0
(g1
g2
(lp1507
g0
(g1
g2
(lp1508
Vwalking
p1509
atp1510
Rp1511
(dp1512
g12
VVBG
p1513
sbag0
(g1
g2
(lp1514
g0
(g1
g2
(lp1515
Vthe
p1516
atp1517
Rp1518
(dp1519
g12
VDT
p1520
sbag0
(g1
g2
(lp1521
Vtight
p1522
atp1523
Rp1524
(dp1525
g12
VJJ
p1526
sbag0
(g1
g2
(lp1527
Vrope
p1528
atp1529
Rp1530
(dp1531
g12
VNN
p1532
sbatp1533
Rp1534
(dp1535
g12
VNP
p1536
sbatp1537
Rp1538
(dp1539
g12
VVP
p1540
sbatp1541
Rp1542
(dp1543
g12
VVP
p1544
sbatp1545
Rp1546
(dp1547
g12
VS
p1548
sbag0
(g1
g2
(lp1549
V.
p1550
atp1551
Rp1552
(dp1553
g12
V.
p1554
sbatp1555
Rp1556
(dp1557
g12
VS
p1558
sbatp1559
Rp1560
(dp1561
g12
S'id: 15'
p1562
sbag0
(g1
g2
(lp1563
g0
(g1
g2
(lp1564
g0
(g1
g2
(lp1565
g0
(g1
g2
(lp1566
VMan
p1567
atp1568
Rp1569
(dp1570
g12
VNN
p1571
sbatp1572
Rp1573
(dp1574
g12
VNP
p1575
sbag0
(g1
g2
(lp1576
g0
(g1
g2
(lp1577
Vplaying
p1578
atp1579
Rp1580
(dp1581
g12
VVBG
p1582
sbag0
(g1
g2
(lp1583
g0
(g1
g2
(lp1584
g0
(g1
g2
(lp1585
Vthe
p1586
atp1587
Rp1588
(dp1589
g12
VDT
p1590
sbatp1591
Rp1592
(dp1593
g12
VNP
p1594
sbag0
(g1
g2
(lp1595
g0
(g1
g2
(lp1596
Vdrum
p1597
atp1598
Rp1599
(dp1600
g12
VVB
p1601
sbag0
(g1
g2
(lp1602
g0
(g1
g2
(lp1603
Vwatching
p1604
atp1605
Rp1606
(dp1607
g12
VVBG
p1608
sbatp1609
Rp1610
(dp1611
g12
VVP
p1612
sbatp1613
Rp1614
(dp1615
g12
VVP
p1616
sbatp1617
Rp1618
(dp1619
g12
VS
p1620
sbatp1621
Rp1622
(dp1623
g12
VVP
p1624
sbag0
(g1
g2
(lp1625
V.
p1626
atp1627
Rp1628
(dp1629
g12
V.
p1630
sbatp1631
Rp1632
(dp1633
g12
VNP
p1634
sbatp1635
Rp1636
(dp1637
g12
S'id: 16'
p1638
sbag0
(g1
g2
(lp1639
g0
(g1
g2
(lp1640
g0
(g1
g2
(lp1641
g0
(g1
g2
(lp1642
VThere
p1643
atp1644
Rp1645
(dp1646
g12
VEX
p1647
sbatp1648
Rp1649
(dp1650
g12
VNP
p1651
sbag0
(g1
g2
(lp1652
g0
(g1
g2
(lp1653
V's
p1654
atp1655
Rp1656
(dp1657
g12
VVBZ
p1658
sbag0
(g1
g2
(lp1659
g0
(g1
g2
(lp1660
g0
(g1
g2
(lp1661
Va
p1662
atp1663
Rp1664
(dp1665
g12
VDT
p1666
sbag0
(g1
g2
(lp1667
Vlion
p1668
atp1669
Rp1670
(dp1671
g12
VNN
p1672
sbatp1673
Rp1674
(dp1675
g12
VNP
p1676
sbag0
(g1
g2
(lp1677
Vand
p1678
atp1679
Rp1680
(dp1681
g12
VCC
p1682
sbag0
(g1
g2
(lp1683
g0
(g1
g2
(lp1684
Va
p1685
atp1686
Rp1687
(dp1688
g12
VDT
p1689
sbag0
(g1
g2
(lp1690
Vclown
p1691
atp1692
Rp1693
(dp1694
g12
VNN
p1695
sbatp1696
Rp1697
(dp1698
g12
VNP
p1699
sbatp1700
Rp1701
(dp1702
g12
VNP
p1703
sbatp1704
Rp1705
(dp1706
g12
VVP
p1707
sbag0
(g1
g2
(lp1708
V.
p1709
atp1710
Rp1711
(dp1712
g12
V.
p1713
sbatp1714
Rp1715
(dp1716
g12
VS
p1717
sbatp1718
Rp1719
(dp1720
g12
S'id: 17'
p1721
sbag0
(g1
g2
(lp1722
g0
(g1
g2
(lp1723
g0
(g1
g2
(lp1724
g0
(g1
g2
(lp1725
VSomebody
p1726
atp1727
Rp1728
(dp1729
g12
VNN
p1730
sbatp1731
Rp1732
(dp1733
g12
VNP
p1734
sbag0
(g1
g2
(lp1735
g0
(g1
g2
(lp1736
Vpointing
p1737
atp1738
Rp1739
(dp1740
g12
VVBG
p1741
sbag0
(g1
g2
(lp1742
g0
(g1
g2
(lp1743
Vat
p1744
atp1745
Rp1746
(dp1747
g12
VIN
p1748
sbag0
(g1
g2
(lp1749
g0
(g1
g2
(lp1750
Vthe
p1751
atp1752
Rp1753
(dp1754
g12
VDT
p1755
sbag0
(g1
g2
(lp1756
Vlion
p1757
atp1758
Rp1759
(dp1760
g12
VNN
p1761
sbatp1762
Rp1763
(dp1764
g12
VNP
p1765
sbatp1766
Rp1767
(dp1768
g12
VPP
p1769
sbatp1770
Rp1771
(dp1772
g12
VVP
p1773
sbag0
(g1
g2
(lp1774
V.
p1775
atp1776
Rp1777
(dp1778
g12
V.
p1779
sbatp1780
Rp1781
(dp1782
g12
VNP
p1783
sbatp1784
Rp1785
(dp1786
g12
S'id: 18'
p1787
sbag0
(g1
g2
(lp1788
g0
(g1
g2
(lp1789
g0
(g1
g2
(lp1790
g0
(g1
g2
(lp1791
g0
(g1
g2
(lp1792
VAnd
p1793
atp1794
Rp1795
(dp1796
g12
VCC
p1797
sbag0
(g1
g2
(lp1798
g0
(g1
g2
(lp1799
g0
(g1
g2
(lp1800
Va
p1801
atp1802
Rp1803
(dp1804
g12
VDT
p1805
sbatp1806
Rp1807
(dp1808
g12
VNP
p1809
sbag0
(g1
g2
(lp1810
V,
p1811
atp1812
Rp1813
(dp1814
g12
V,
p1815
sbag0
(g1
g2
(lp1816
Vand
p1817
atp1818
Rp1819
(dp1820
g12
VCC
p1821
sbag0
(g1
g2
(lp1822
g0
(g1
g2
(lp1823
Va
p1824
atp1825
Rp1826
(dp1827
g12
VDT
p1828
sbatp1829
Rp1830
(dp1831
g12
VNP
p1832
sbatp1833
Rp1834
(dp1835
g12
VNP
p1836
sbag0
(g1
g2
(lp1837
V,
p1838
atp1839
Rp1840
(dp1841
g12
V,
p1842
sbag0
(g1
g2
(lp1843
Vand
p1844
atp1845
Rp1846
(dp1847
g12
VCC
p1848
sbag0
(g1
g2
(lp1849
g0
(g1
g2
(lp1850
Va
p1851
atp1852
Rp1853
(dp1854
g12
VDT
p1855
sbag0
(g1
g2
(lp1856
Vlion
p1857
atp1858
Rp1859
(dp1860
g12
VNN
p1861
sbatp1862
Rp1863
(dp1864
g12
VNP
p1865
sbatp1866
Rp1867
(dp1868
g12
VNP
p1869
sbag0
(g1
g2
(lp1870
g0
(g1
g2
(lp1871
Vdoing
p1872
atp1873
Rp1874
(dp1875
g12
VVBG
p1876
sbag0
(g1
g2
(lp1877
g0
(g1
g2
(lp1878
Vtricks
p1879
atp1880
Rp1881
(dp1882
g12
VNNS
p1883
sbatp1884
Rp1885
(dp1886
g12
VNP
p1887
sbatp1888
Rp1889
(dp1890
g12
VVP
p1891
sbatp1892
Rp1893
(dp1894
g12
VS
p1895
sbag0
(g1
g2
(lp1896
V.
p1897
atp1898
Rp1899
(dp1900
g12
V.
p1901
sbatp1902
Rp1903
(dp1904
g12
VS
p1905
sbatp1906
Rp1907
(dp1908
g12
S'id: 19'
p1909
sbatp1910
Rp1911
(dp1912
g12
S'sentences'
p1913
sb.