ccopy_reg
_reconstructor
p0
(cnltk.tree
Tree
p1
c__builtin__
list
p2
(lp3
g0
(g1
g2
(lp4
g0
(g1
g2
(lp5
g0
(g1
g2
(lp6
(lp7
S'word: oh, index: 1'
p8
aatp9
Rp10
(dp11
S'_label'
p12
Vdep
p13
sbag0
(g1
g2
(lp14
g0
(g1
g2
(lp15
g0
(g1
g2
(lp16
(lp17
S'word: my, index: 2'
p18
aatp19
Rp20
(dp21
g12
Vposs
p22
sbag0
(g1
g2
(lp23
(lp24
S'word: gosh, index: 3'
p25
aatp26
Rp27
(dp28
g12
Vamod
p29
sbatp30
Rp31
(dp32
g12
S'word: look, index: 4'
p33
sbatp34
Rp35
(dp36
g12
Vnpadvmod
p37
sbag0
(g1
g2
(lp38
(lp39
S'word: that, index: 6'
p40
aatp41
Rp42
(dp43
g12
Vpobj
p44
sbatp45
Rp46
(dp47
g12
S'word: at, index: 5'
p48
sbatp49
Rp50
(dp51
g12
S'id: 0'
p52
sbag0
(g1
g2
(lp53
g0
(g1
g2
(lp54
g0
(g1
g2
(lp55
g0
(g1
g2
(lp56
g0
(g1
g2
(lp57
(lp58
S"word: 's, index: 19"
p59
aatp60
Rp61
(dp62
g12
Vaux
p63
sbag0
(g1
g2
(lp64
g0
(g1
g2
(lp65
g0
(g1
g2
(lp66
(lp67
S'word: forth, index: 23'
p68
aatp69
Rp70
(dp71
g12
Vconj
p72
sbatp73
Rp74
(dp75
g12
S'word: back, index: 21'
p76
sbatp77
Rp78
(dp79
g12
Vadvmod
p80
sbag0
(g1
g2
(lp81
(lp82
S'word: forth, index: 23'
p83
aatp84
Rp85
(dp86
g12
Vadvmod
p87
sbag0
(g1
g2
(lp88
(lp89
S'word: he, index: 18'
p90
aatp91
Rp92
(dp93
g12
Vnsubj
p94
sbatp95
Rp96
(dp97
g12
S'word: doing, index: 20'
p98
sbatp99
Rp100
(dp101
g12
Vconj
p102
sbag0
(g1
g2
(lp103
g0
(g1
g2
(lp104
g0
(g1
g2
(lp105
(lp106
S'word: the, index: 5'
p107
aatp108
Rp109
(dp110
g12
Vdet
p111
sbatp112
Rp113
(dp114
g12
S'word: guy, index: 6'
p115
sbatp116
Rp117
(dp118
g12
Vprep
p119
sbag0
(g1
g2
(lp120
g0
(g1
g2
(lp121
g0
(g1
g2
(lp122
g96
atp123
Rp124
(dp125
g12
Vconj
p126
sbag0
(g1
g2
(lp127
(lp128
S'word: he, index: 9'
p129
aatp130
Rp131
(dp132
g12
Vnsubj
p133
sbag0
(g1
g2
(lp134
g0
(g1
g2
(lp135
g0
(g1
g2
(lp136
(lp137
S'word: forth, index: 13'
p138
aatp139
Rp140
(dp141
g12
Vconj
p142
sbatp143
Rp144
(dp145
g12
S'word: back, index: 11'
p146
sbatp147
Rp148
(dp149
g12
Vadvmod
p150
sbag0
(g1
g2
(lp151
(lp152
S'word: forth, index: 13'
p153
aatp154
Rp155
(dp156
g12
Vadvmod
p157
sbag0
(g1
g2
(lp158
(lp159
S'word: this, index: 15'
p160
aatp161
Rp162
(dp163
g12
Vprep
p164
sbatp165
Rp166
(dp167
g12
S"word: 's, index: 10"
p168
sbatp169
Rp170
(dp171
g12
Vconj
p172
sbag0
(g1
g2
(lp173
(lp174
S'word: you, index: 2'
p175
aatp176
Rp177
(dp178
g12
Vnsubj
p179
sbatp180
Rp181
(dp182
g12
S'word: looking, index: 3'
p183
sbatp184
Rp185
(dp186
g12
S'id: 1'
p187
sbag0
(g1
g2
(lp188
g0
(g1
g2
(lp189
g0
(g1
g2
(lp190
(lp191
S'word: they, index: 6'
p192
aatp193
Rp194
(dp195
g12
Vnsubj
p196
sbag0
(g1
g2
(lp197
(lp198
S"word: 're, index: 7"
p199
aatp200
Rp201
(dp202
g12
Vaux
p203
sbag0
(g1
g2
(lp204
(lp205
S'word: him, index: 10'
p206
aatp207
Rp208
(dp209
g12
Vprep
p210
sbag0
(g1
g2
(lp211
g0
(g1
g2
(lp212
g0
(g1
g2
(lp213
(lp214
S'word: because, index: 11'
p215
aatp216
Rp217
(dp218
g12
Vmark
p219
sbag0
(g1
g2
(lp220
(lp221
S'word: he, index: 12'
p222
aatp223
Rp224
(dp225
g12
Vnsubj
p226
sbag0
(g1
g2
(lp227
g0
(g1
g2
(lp228
g0
(g1
g2
(lp229
(lp230
S'word: like, index: 14'
p231
aatp232
Rp233
(dp234
g12
Vmark
p235
sbag0
(g1
g2
(lp236
(lp237
S'word: he, index: 15'
p238
aatp239
Rp240
(dp241
g12
Vnsubj
p242
sbag0
(g1
g2
(lp243
(lp244
S"word: 's, index: 16"
p245
aatp246
Rp247
(dp248
g12
Vcop
p249
sbag0
(g1
g2
(lp250
(lp251
S'word: really, index: 17'
p252
aatp253
Rp254
(dp255
g12
Vadvmod
p256
sbatp257
Rp258
(dp259
g12
S'word: good, index: 18'
p260
sbatp261
Rp262
(dp263
g12
Vadvcl
p264
sbatp265
Rp266
(dp267
g12
S'word: looks, index: 13'
p268
sbatp269
Rp270
(dp271
g12
Vadvcl
p272
sbag0
(g1
g2
(lp273
g0
(g1
g2
(lp274
g0
(g1
g2
(lp275
(lp276
S'word: He, index: 1'
p277
aatp278
Rp279
(dp280
g12
Vnsubj
p281
sbag0
(g1
g2
(lp282
(lp283
S"word: 's, index: 2"
p284
aatp285
Rp286
(dp287
g12
Vcop
p288
sbag0
(g1
g2
(lp289
(lp290
S'word: really, index: 3'
p291
aatp292
Rp293
(dp294
g12
Vadvmod
p295
sbatp296
Rp297
(dp298
g12
S'word: good, index: 4'
p299
sbatp300
Rp301
(dp302
g12
Vccomp
p303
sbatp304
Rp305
(dp306
g12
S'word: looking, index: 8'
p307
sbatp308
Rp309
(dp310
g12
S'id: 2'
p311
sbag0
(g1
g2
(lp312
g0
(g1
g2
(lp313
g0
(g1
g2
(lp314
(lp315
S'word: It, index: 1'
p316
aatp317
Rp318
(dp319
g12
Vnsubjpass
p320
sbag0
(g1
g2
(lp321
(lp322
S"word: 's, index: 2"
p323
aatp324
Rp325
(dp326
g12
Vauxpass
p327
sbag0
(g1
g2
(lp328
g0
(g1
g2
(lp329
g0
(g1
g2
(lp330
(lp331
S'word: two, index: 9'
p332
aatp333
Rp334
(dp335
g12
Vamod
p336
sbag0
(g1
g2
(lp337
g0
(g1
g2
(lp338
g0
(g1
g2
(lp339
g0
(g1
g2
(lp340
g0
(g1
g2
(lp341
(lp342
S'word: the, index: 13'
p343
aatp344
Rp345
(dp346
g12
Vdet
p347
sbag0
(g1
g2
(lp348
g0
(g1
g2
(lp349
g0
(g1
g2
(lp350
(lp351
S'word: the, index: 16'
p352
aatp353
Rp354
(dp355
g12
Vdet
p356
sbatp357
Rp358
(dp359
g12
S'word: quirl, index: 17'
p360
sbatp361
Rp362
(dp363
g12
Vconj
p364
sbatp365
Rp366
(dp367
g12
S'word: ma/man, index: 14'
p368
sbatp369
Rp370
(dp371
g12
Vprep
p372
sbag0
(g1
g2
(lp373
g358
atp374
Rp375
(dp376
g12
Vprep
p377
sbatp378
Rp379
(dp380
g12
S'word: two, index: 11'
p381
sbatp382
Rp383
(dp384
g12
Vappos
p385
sbag0
(g1
g2
(lp386
g0
(g1
g2
(lp387
g0
(g1
g2
(lp388
(lp389
S'word: an, index: 19'
p390
aatp391
Rp392
(dp393
g12
Vdet
p394
sbag0
(g1
g2
(lp395
(lp396
S'word: two, index: 20'
p397
aatp398
Rp399
(dp400
g12
Vnum
p401
sbag0
(g1
g2
(lp402
(lp403
S'word: little, index: 21'
p404
aatp405
Rp406
(dp407
g12
Vamod
p408
sbatp409
Rp410
(dp411
g12
S'word: ones, index: 22'
p412
sbatp413
Rp414
(dp415
g12
Vappos
p416
sbag0
(g1
g2
(lp417
(lp418
S'word: one, index: 7'
p419
aatp420
Rp421
(dp422
g12
Vamod
p423
sbatp424
Rp425
(dp426
g12
S'word: he, index: 5'
p427
sbatp428
Rp429
(dp430
g12
Vdep
p431
sbatp432
Rp433
(dp434
g12
S'word: got, index: 3'
p435
sbatp436
Rp437
(dp438
g12
S'id: 3'
p439
sbag0
(g1
g2
(lp440
g0
(g1
g2
(lp441
g0
(g1
g2
(lp442
(lp443
S'word: And, index: 1'
p444
aatp445
Rp446
(dp447
g12
Vcc
p448
sbag0
(g1
g2
(lp449
(lp450
S'word: they, index: 2'
p451
aatp452
Rp453
(dp454
g12
Vnsubj
p455
sbag0
(g1
g2
(lp456
(lp457
S"word: 're, index: 3"
p458
aatp459
Rp460
(dp461
g12
Vaux
p462
sbag0
(g1
g2
(lp463
(lp464
S'word: at, index: 5'
p465
aatp466
Rp467
(dp468
g12
Vprep
p469
sbatp470
Rp471
(dp472
g12
S'word: looking, index: 4'
p473
sbatp474
Rp475
(dp476
g12
S'id: 4'
p477
sbag0
(g1
g2
(lp478
g0
(g1
g2
(lp479
g0
(g1
g2
(lp480
(lp481
S'word: And, index: 1'
p482
aatp483
Rp484
(dp485
g12
Vcc
p486
sbag0
(g1
g2
(lp487
g0
(g1
g2
(lp488
g0
(g1
g2
(lp489
g0
(g1
g2
(lp490
g0
(g1
g2
(lp491
(lp492
S'word: a, index: 5'
p493
aatp494
Rp495
(dp496
g12
Vdet
p497
sbag0
(g1
g2
(lp498
g0
(g1
g2
(lp499
g0
(g1
g2
(lp500
(lp501
S'word: she, index: 7'
p502
aatp503
Rp504
(dp505
g12
Vnsubj
p506
sbag0
(g1
g2
(lp507
(lp508
S"word: 's, index: 8"
p509
aatp510
Rp511
(dp512
g12
Vaux
p513
sbag0
(g1
g2
(lp514
(lp515
S'word: at, index: 10'
p516
aatp517
Rp518
(dp519
g12
Vadvmod
p520
sbag0
(g1
g2
(lp521
g0
(g1
g2
(lp522
g0
(g1
g2
(lp523
(lp524
S'word: the, index: 13'
p525
aatp526
Rp527
(dp528
g12
Vdet
p529
sbatp530
Rp531
(dp532
g12
S'word: drawing, index: 14'
p533
sbatp534
Rp535
(dp536
g12
Vprep
p537
sbatp538
Rp539
(dp540
g12
S'word: looking, index: 9'
p541
sbatp542
Rp543
(dp544
g12
Vrcmod
p545
sbatp546
Rp547
(dp548
g12
S'word: sudden, index: 6'
p549
sbatp550
Rp551
(dp552
g12
Vprep
p553
sbatp554
Rp555
(dp556
g12
S'word: all, index: 3'
p557
sbatp558
Rp559
(dp560
g12
Vdep
p561
sbatp562
Rp563
(dp564
g12
S'word: then, index: 2'
p565
sbatp566
Rp567
(dp568
g12
S'id: 5'
p569
sbag0
(g1
g2
(lp570
g0
(g1
g2
(lp571
g0
(g1
g2
(lp572
(lp573
S'word: she, index: 2'
p574
aatp575
Rp576
(dp577
g12
Vnsubj
p578
sbag0
(g1
g2
(lp579
g0
(g1
g2
(lp580
g0
(g1
g2
(lp581
(lp582
S'word: forth, index: 6'
p583
aatp584
Rp585
(dp586
g12
Vconj
p587
sbatp588
Rp589
(dp590
g12
S'word: back, index: 4'
p591
sbatp592
Rp593
(dp594
g12
Vadvmod
p595
sbag0
(g1
g2
(lp596
(lp597
S'word: forth, index: 6'
p598
aatp599
Rp600
(dp601
g12
Vadvmod
p602
sbag0
(g1
g2
(lp603
(lp604
S'word: it, index: 8'
p605
aatp606
Rp607
(dp608
g12
Vprep
p609
sbag0
(g1
g2
(lp610
(lp611
S'word: And, index: 1'
p612
aatp613
Rp614
(dp615
g12
Vcc
p616
sbatp617
Rp618
(dp619
g12
S"word: 's, index: 3"
p620
sbatp621
Rp622
(dp623
g12
S'id: 6'
p624
sbag0
(g1
g2
(lp625
g0
(g1
g2
(lp626
g0
(g1
g2
(lp627
(lp628
S'word: And, index: 1'
p629
aatp630
Rp631
(dp632
g12
Vcc
p633
sbag0
(g1
g2
(lp634
(lp635
S'word: she, index: 2'
p636
aatp637
Rp638
(dp639
g12
Vnsubj
p640
sbag0
(g1
g2
(lp641
(lp642
S"word: 's, index: 3"
p643
aatp644
Rp645
(dp646
g12
Vcop
p647
sbag0
(g1
g2
(lp648
(lp649
S'word: really, index: 4'
p650
aatp651
Rp652
(dp653
g12
Vadvmod
p654
sbatp655
Rp656
(dp657
g12
S'word: good, index: 5'
p658
sbatp659
Rp660
(dp661
g12
S'id: 7'
p662
sbag0
(g1
g2
(lp663
g0
(g1
g2
(lp664
g0
(g1
g2
(lp665
(lp666
S'word: she, index: 8'
p667
aatp668
Rp669
(dp670
g12
Vnsubj
p671
sbag0
(g1
g2
(lp672
(lp673
S"word: 's, index: 9"
p674
aatp675
Rp676
(dp677
g12
Vcop
p678
sbag0
(g1
g2
(lp679
(lp680
S'word: the, index: 10'
p681
aatp682
Rp683
(dp684
g12
Vdet
p685
sbag0
(g1
g2
(lp686
g0
(g1
g2
(lp687
g0
(g1
g2
(lp688
(lp689
S'word: two, index: 13'
p690
aatp691
Rp692
(dp693
g12
Vnum
p694
sbag0
(g1
g2
(lp695
(lp696
S'word: little, index: 14'
p697
aatp698
Rp699
(dp700
g12
Vamod
p701
sbatp702
Rp703
(dp704
g12
S'word: ones, index: 15'
p705
sbatp706
Rp707
(dp708
g12
Vprep
p709
sbag0
(g1
g2
(lp710
g0
(g1
g2
(lp711
g0
(g1
g2
(lp712
(lp713
S'word: She, index: 1'
p714
aatp715
Rp716
(dp717
g12
Vnsubj
p718
sbag0
(g1
g2
(lp719
g0
(g1
g2
(lp720
g0
(g1
g2
(lp721
(lp722
S'word: she, index: 4'
p723
aatp724
Rp725
(dp726
g12
Vnsubj
p727
sbag0
(g1
g2
(lp728
(lp729
S'word: really, index: 6'
p730
aatp731
Rp732
(dp733
g12
Vadvmod
p734
sbatp735
Rp736
(dp737
g12
S"word: 's, index: 5"
p738
sbatp739
Rp740
(dp741
g12
Vccomp
p742
sbatp743
Rp744
(dp745
g12
S'word: is, index: 2'
p746
sbatp747
Rp748
(dp749
g12
Vccomp
p750
sbatp751
Rp752
(dp753
g12
S'word: girl, index: 11'
p754
sbatp755
Rp756
(dp757
g12
S'id: 8'
p758
sbag0
(g1
g2
(lp759
g0
(g1
g2
(lp760
g0
(g1
g2
(lp761
g0
(g1
g2
(lp762
g0
(g1
g2
(lp763
(lp764
S'word: picture, index: 12'
p765
aatp766
Rp767
(dp768
g12
Vdobj
p769
sbag0
(g1
g2
(lp770
g0
(g1
g2
(lp771
g0
(g1
g2
(lp772
(lp773
S'word: she, index: 15'
p774
aatp775
Rp776
(dp777
g12
Vnsubjpass
p778
sbag0
(g1
g2
(lp779
(lp780
S"word: 's, index: 16"
p781
aatp782
Rp783
(dp784
g12
Vauxpass
p785
sbag0
(g1
g2
(lp786
(lp787
S'word: stuff, index: 18'
p788
aatp789
Rp790
(dp791
g12
Vdobj
p792
sbag0
(g1
g2
(lp793
(lp794
S'word: here, index: 19'
p795
aatp796
Rp797
(dp798
g12
Vadvmod
p799
sbag0
(g1
g2
(lp800
g0
(g1
g2
(lp801
g0
(g1
g2
(lp802
g0
(g1
g2
(lp803
g0
(g1
g2
(lp804
(lp805
S'word: her, index: 29'
p806
aatp807
Rp808
(dp809
g12
Vprep
p810
sbag0
(g1
g2
(lp811
(lp812
S'word: right, index: 26'
p813
aatp814
Rp815
(dp816
g12
Vadvmod
p817
sbatp818
Rp819
(dp820
g12
S'word: now, index: 27'
p821
sbatp822
Rp823
(dp824
g12
Vadvmod
p825
sbag0
(g1
g2
(lp826
(lp827
S'word: so, index: 21'
p828
aatp829
Rp830
(dp831
g12
Vmark
p832
sbag0
(g1
g2
(lp833
(lp834
S'word: he, index: 22'
p835
aatp836
Rp837
(dp838
g12
Vnsubjpass
p839
sbag0
(g1
g2
(lp840
(lp841
S"word: 's, index: 23"
p842
aatp843
Rp844
(dp845
g12
Vauxpass
p846
sbag0
(g1
g2
(lp847
(lp848
S'word: some, index: 25'
p849
aatp850
Rp851
(dp852
g12
Vdobj
p853
sbatp854
Rp855
(dp856
g12
S'word: got, index: 24'
p857
sbatp858
Rp859
(dp860
g12
Vadvcl
p861
sbatp862
Rp863
(dp864
g12
S'word: got, index: 17'
p865
sbatp866
Rp867
(dp868
g12
Vconj
p869
sbag0
(g1
g2
(lp870
(lp871
S'word: he, index: 9'
p872
aatp873
Rp874
(dp875
g12
Vnsubjpass
p876
sbag0
(g1
g2
(lp877
(lp878
S"word: 's, index: 10"
p879
aatp880
Rp881
(dp882
g12
Vauxpass
p883
sbatp884
Rp885
(dp886
g12
S'word: got, index: 11'
p887
sbatp888
Rp889
(dp890
g12
Vconj
p891
sbag0
(g1
g2
(lp892
g863
atp893
Rp894
(dp895
g12
Vconj
p896
sbag0
(g1
g2
(lp897
(lp898
S'word: she, index: 2'
p899
aatp900
Rp901
(dp902
g12
Vnsubj
p903
sbag0
(g1
g2
(lp904
g0
(g1
g2
(lp905
g0
(g1
g2
(lp906
(lp907
S'word: the, index: 5'
p908
aatp909
Rp910
(dp911
g12
Vdet
p912
sbatp913
Rp914
(dp915
g12
S'word: ga, index: 6'
p916
sbatp917
Rp918
(dp919
g12
Vccomp
p920
sbatp921
Rp922
(dp923
g12
S'word: got, index: 3'
p924
sbatp925
Rp926
(dp927
g12
S'id: 9'
p928
sbag0
(g1
g2
(lp929
g0
(g1
g2
(lp930
g0
(g1
g2
(lp931
g0
(g1
g2
(lp932
g0
(g1
g2
(lp933
(lp934
S'word: they, index: 15'
p935
aatp936
Rp937
(dp938
g12
Vnsubj
p939
sbag0
(g1
g2
(lp940
(lp941
S"word: 're, index: 16"
p942
aatp943
Rp944
(dp945
g12
Vaux
p946
sbag0
(g1
g2
(lp947
g0
(g1
g2
(lp948
g0
(g1
g2
(lp949
(lp950
S'word: really, index: 18'
p951
aatp952
Rp953
(dp954
g12
Vadvmod
p955
sbatp956
Rp957
(dp958
g12
S'word: good, index: 19'
p959
sbatp960
Rp961
(dp962
g12
Vacomp
p963
sbatp964
Rp965
(dp966
g12
S'word: doing, index: 17'
p967
sbatp968
Rp969
(dp970
g12
Vconj
p971
sbag0
(g1
g2
(lp972
(lp973
S'word: then, index: 2'
p974
aatp975
Rp976
(dp977
g12
Vadvmod
p978
sbag0
(g1
g2
(lp979
g0
(g1
g2
(lp980
g0
(g1
g2
(lp981
(lp982
S'word: this, index: 3'
p983
aatp984
Rp985
(dp986
g12
Vdet
p987
sbatp988
Rp989
(dp990
g12
S'word: one, index: 4'
p991
sbatp992
Rp993
(dp994
g12
Vnsubj
p995
sbag0
(g1
g2
(lp996
(lp997
S'word: is, index: 5'
p998
aatp999
Rp1000
(dp1001
g12
Vcop
p1002
sbag0
(g1
g2
(lp1003
(lp1004
S'word: the, index: 6'
p1005
aatp1006
Rp1007
(dp1008
g12
Vdet
p1009
sbag0
(g1
g2
(lp1010
g0
(g1
g2
(lp1011
g0
(g1
g2
(lp1012
(lp1013
S'word: the, index: 9'
p1014
aatp1015
Rp1016
(dp1017
g12
Vdet
p1018
sbag0
(g1
g2
(lp1019
(lp1020
S'word: little, index: 10'
p1021
aatp1022
Rp1023
(dp1024
g12
Vamod
p1025
sbag0
(g1
g2
(lp1026
(lp1027
S'word: one, index: 11'
p1028
aatp1029
Rp1030
(dp1031
g12
Vnum
p1032
sbatp1033
Rp1034
(dp1035
g12
S'word: girl, index: 12'
p1036
sbatp1037
Rp1038
(dp1039
g12
Vprep
p1040
sbatp1041
Rp1042
(dp1043
g12
S'word: guy, index: 7'
p1044
sbatp1045
Rp1046
(dp1047
g12
S'id: 10'
p1048
sbag0
(g1
g2
(lp1049
g0
(g1
g2
(lp1050
g0
(g1
g2
(lp1051
(lp1052
S'word: He, index: 1'
p1053
aatp1054
Rp1055
(dp1056
g12
Vnsubj
p1057
sbag0
(g1
g2
(lp1058
g0
(g1
g2
(lp1059
g0
(g1
g2
(lp1060
(lp1061
S'word: to, index: 3'
p1062
aatp1063
Rp1064
(dp1065
g12
Vaux
p1066
sbag0
(g1
g2
(lp1067
g0
(g1
g2
(lp1068
g0
(g1
g2
(lp1069
(lp1070
S'word: if, index: 5'
p1071
aatp1072
Rp1073
(dp1074
g12
Vmark
p1075
sbag0
(g1
g2
(lp1076
(lp1077
S'word: he, index: 6'
p1078
aatp1079
Rp1080
(dp1081
g12
Vnsubjpass
p1082
sbag0
(g1
g2
(lp1083
(lp1084
S"word: 's, index: 7"
p1085
aatp1086
Rp1087
(dp1088
g12
Vauxpass
p1089
sbag0
(g1
g2
(lp1090
(lp1091
S'word: something, index: 9'
p1092
aatp1093
Rp1094
(dp1095
g12
Vdobj
p1096
sbag0
(g1
g2
(lp1097
(lp1098
S'word: her, index: 11'
p1099
aatp1100
Rp1101
(dp1102
g12
Vprep
p1103
sbatp1104
Rp1105
(dp1106
g12
S'word: got, index: 8'
p1107
sbatp1108
Rp1109
(dp1110
g12
Vadvcl
p1111
sbatp1112
Rp1113
(dp1114
g12
S'word: see, index: 4'
p1115
sbatp1116
Rp1117
(dp1118
g12
Vxcomp
p1119
sbatp1120
Rp1121
(dp1122
g12
S'word: wants, index: 2'
p1123
sbatp1124
Rp1125
(dp1126
g12
S'id: 11'
p1127
sbag0
(g1
g2
(lp1128
g0
(g1
g2
(lp1129
g0
(g1
g2
(lp1130
(lp1131
S'word: then, index: 5'
p1132
aatp1133
Rp1134
(dp1135
g12
Vadvmod
p1136
sbag0
(g1
g2
(lp1137
(lp1138
S'word: this, index: 6'
p1139
aatp1140
Rp1141
(dp1142
g12
Vnsubj
p1143
sbag0
(g1
g2
(lp1144
(lp1145
S'word: is, index: 7'
p1146
aatp1147
Rp1148
(dp1149
g12
Vcop
p1150
sbag0
(g1
g2
(lp1151
(lp1152
S'word: a, index: 8'
p1153
aatp1154
Rp1155
(dp1156
g12
Vdet
p1157
sbag0
(g1
g2
(lp1158
(lp1159
S'word: cat, index: 11'
p1160
aatp1161
Rp1162
(dp1163
g12
Vappos
p1164
sbag0
(g1
g2
(lp1165
g0
(g1
g2
(lp1166
g0
(g1
g2
(lp1167
(lp1168
S'word: it, index: 13'
p1169
aatp1170
Rp1171
(dp1172
g12
Vnsubj
p1173
sbag0
(g1
g2
(lp1174
(lp1175
S"word: 's, index: 14"
p1176
aatp1177
Rp1178
(dp1179
g12
Vcop
p1180
sbag0
(g1
g2
(lp1181
(lp1182
S'word: that, index: 17'
p1183
aatp1184
Rp1185
(dp1186
g12
Vprep
p1187
sbatp1188
Rp1189
(dp1190
g12
S'word: more, index: 15'
p1191
sbatp1192
Rp1193
(dp1194
g12
Vconj
p1195
sbag0
(g1
g2
(lp1196
(lp1197
S'word: then, index: 2'
p1198
aatp1199
Rp1200
(dp1201
g12
Vadvmod
p1202
sbatp1203
Rp1204
(dp1205
g12
S'word: cat, index: 9'
p1206
sbatp1207
Rp1208
(dp1209
g12
S'id: 12'
p1210
sbag0
(g1
g2
(lp1211
g0
(g1
g2
(lp1212
g0
(g1
g2
(lp1213
(lp1214
S'word: And, index: 1'
p1215
aatp1216
Rp1217
(dp1218
g12
Vcc
p1219
sbatp1220
Rp1221
(dp1222
g12
S'word: no, index: 3'
p1223
sbatp1224
Rp1225
(dp1226
g12
S'id: 13'
p1227
sbag0
(g1
g2
(lp1228
g0
(g1
g2
(lp1229
g0
(g1
g2
(lp1230
(lp1231
S'word: And, index: 1'
p1232
aatp1233
Rp1234
(dp1235
g12
Vcc
p1236
sbag0
(g1
g2
(lp1237
(lp1238
S'word: so, index: 2'
p1239
aatp1240
Rp1241
(dp1242
g12
Vadvmod
p1243
sbag0
(g1
g2
(lp1244
(lp1245
S'word: he, index: 3'
p1246
aatp1247
Rp1248
(dp1249
g12
Vnsubj
p1250
sbag0
(g1
g2
(lp1251
(lp1252
S"word: 's, index: 4"
p1253
aatp1254
Rp1255
(dp1256
g12
Vaux
p1257
sbag0
(g1
g2
(lp1258
g0
(g1
g2
(lp1259
g0
(g1
g2
(lp1260
g0
(g1
g2
(lp1261
g0
(g1
g2
(lp1262
(lp1263
S'word: back, index: 8'
p1264
aatp1265
Rp1266
(dp1267
g12
Vadvmod
p1268
sbag0
(g1
g2
(lp1269
(lp1270
S'word: an, index: 9'
p1271
aatp1272
Rp1273
(dp1274
g12
Vdep
p1275
sbatp1276
Rp1277
(dp1278
g12
S'word: forth, index: 10'
p1279
sbatp1280
Rp1281
(dp1282
g12
Vadvmod
p1283
sbag0
(g1
g2
(lp1284
(lp1285
S'word: it, index: 12'
p1286
aatp1287
Rp1288
(dp1289
g12
Vprep
p1290
sbag0
(g1
g2
(lp1291
g0
(g1
g2
(lp1292
g0
(g1
g2
(lp1293
(lp1294
S'word: because, index: 14'
p1295
aatp1296
Rp1297
(dp1298
g12
Vmark
p1299
sbag0
(g1
g2
(lp1300
(lp1301
S'word: he, index: 15'
p1302
aatp1303
Rp1304
(dp1305
g12
Vnsubj
p1306
sbag0
(g1
g2
(lp1307
g0
(g1
g2
(lp1308
g0
(g1
g2
(lp1309
(lp1310
S'word: he, index: 17'
p1311
aatp1312
Rp1313
(dp1314
g12
Vnsubjpass
p1315
sbag0
(g1
g2
(lp1316
(lp1317
S"word: 's, index: 18"
p1318
aatp1319
Rp1320
(dp1321
g12
Vauxpass
p1322
sbag0
(g1
g2
(lp1323
g0
(g1
g2
(lp1324
g0
(g1
g2
(lp1325
(lp1326
S'word: to, index: 20'
p1327
aatp1328
Rp1329
(dp1330
g12
Vaux
p1331
sbag0
(g1
g2
(lp1332
(lp1333
S'word: be, index: 21'
p1334
aatp1335
Rp1336
(dp1337
g12
Vcop
p1338
sbag0
(g1
g2
(lp1339
(lp1340
S'word: really, index: 22'
p1341
aatp1342
Rp1343
(dp1344
g12
Vadvmod
p1345
sbatp1346
Rp1347
(dp1348
g12
S'word: good, index: 23'
p1349
sbatp1350
Rp1351
(dp1352
g12
Vxcomp
p1353
sbatp1354
Rp1355
(dp1356
g12
S'word: supposed, index: 19'
p1357
sbatp1358
Rp1359
(dp1360
g12
Vccomp
p1361
sbatp1362
Rp1363
(dp1364
g12
S"word: 's, index: 16"
p1365
sbatp1366
Rp1367
(dp1368
g12
Vadvcl
p1369
sbag0
(g1
g2
(lp1370
(lp1371
S'word: na, index: 6'
p1372
aatp1373
Rp1374
(dp1375
g12
Vaux
p1376
sbatp1377
Rp1378
(dp1379
g12
S'word: be, index: 7'
p1380
sbatp1381
Rp1382
(dp1383
g12
Vxcomp
p1384
sbatp1385
Rp1386
(dp1387
g12
S'word: gon, index: 5'
p1388
sbatp1389
Rp1390
(dp1391
g12
S'id: 14'
p1392
sbatp1393
Rp1394
(dp1395
g12
S'sentences'
p1396
sb.