ccopy_reg
_reconstructor
p0
(cnltk.tree
Tree
p1
c__builtin__
list
p2
(lp3
g0
(g1
g2
(lp4
g0
(g1
g2
(lp5
g0
(g1
g2
(lp6
Vok
p7
atp8
Rp9
(dp10
S'_label'
p11
VNN
p12
sbag0
(g1
g2
(lp13
V.
p14
atp15
Rp16
(dp17
g11
V.
p18
sbatp19
Rp20
(dp21
g11
VNP
p22
sbatp23
Rp24
(dp25
g11
S'id: 0'
p26
sbag0
(g1
g2
(lp27
g0
(g1
g2
(lp28
g0
(g1
g2
(lp29
g0
(g1
g2
(lp30
VTwo
p31
atp32
Rp33
(dp34
g11
VCD
p35
sbag0
(g1
g2
(lp36
Vpeople
p37
atp38
Rp39
(dp40
g11
VNNS
p41
sbatp42
Rp43
(dp44
g11
VNP
p45
sbag0
(g1
g2
(lp46
g0
(g1
g2
(lp47
Vare
p48
atp49
Rp50
(dp51
g11
VVBP
p52
sbag0
(g1
g2
(lp53
g0
(g1
g2
(lp54
Vhaving
p55
atp56
Rp57
(dp58
g11
VVBG
p59
sbag0
(g1
g2
(lp60
g0
(g1
g2
(lp61
Va
p62
atp63
Rp64
(dp65
g11
VDT
p66
sbag0
(g1
g2
(lp67
Vpicnic
p68
atp69
Rp70
(dp71
g11
VNN
p72
sbatp73
Rp74
(dp75
g11
VNP
p76
sbatp77
Rp78
(dp79
g11
VVP
p80
sbatp81
Rp82
(dp83
g11
VVP
p84
sbag0
(g1
g2
(lp85
V.
p86
atp87
Rp88
(dp89
g11
V.
p90
sbatp91
Rp92
(dp93
g11
VS
p94
sbatp95
Rp96
(dp97
g11
S'id: 1'
p98
sbag0
(g1
g2
(lp99
g0
(g1
g2
(lp100
g0
(g1
g2
(lp101
g0
(g1
g2
(lp102
g0
(g1
g2
(lp103
Vhe
p104
atp105
Rp106
(dp107
g11
VPRP
p108
sbatp109
Rp110
(dp111
g11
VNP
p112
sbag0
(g1
g2
(lp113
g0
(g1
g2
(lp114
V's
p115
atp116
Rp117
(dp118
g11
VVBZ
p119
sbag0
(g1
g2
(lp120
g0
(g1
g2
(lp121
Vreading
p122
atp123
Rp124
(dp125
g11
VNN
p126
sbatp127
Rp128
(dp129
g11
VNP
p130
sbatp131
Rp132
(dp133
g11
VVP
p134
sbatp135
Rp136
(dp137
g11
VS
p138
sbag0
(g1
g2
(lp139
V,
p140
atp141
Rp142
(dp143
g11
V,
p144
sbag0
(g1
g2
(lp145
g0
(g1
g2
(lp146
Vshe
p147
atp148
Rp149
(dp150
g11
VPRP
p151
sbatp152
Rp153
(dp154
g11
VNP
p155
sbag0
(g1
g2
(lp156
g0
(g1
g2
(lp157
V's
p158
atp159
Rp160
(dp161
g11
VVBZ
p162
sbag0
(g1
g2
(lp163
g0
(g1
g2
(lp164
Vpouring
p165
atp166
Rp167
(dp168
g11
VVBG
p169
sbag0
(g1
g2
(lp170
g0
(g1
g2
(lp171
Vsomething
p172
atp173
Rp174
(dp175
g11
VNN
p176
sbatp177
Rp178
(dp179
g11
VNP
p180
sbag0
(g1
g2
(lp181
V,
p182
atp183
Rp184
(dp185
g11
V,
p186
sbag0
(g1
g2
(lp187
g0
(g1
g2
(lp188
g0
(g1
g2
(lp189
Vlook
p190
atp191
Rp192
(dp193
g11
VVB
p194
sbag0
(g1
g2
(lp195
g0
(g1
g2
(lp196
Vlike
p197
atp198
Rp199
(dp200
g11
VIN
p201
sbag0
(g1
g2
(lp202
g0
(g1
g2
(lp203
Vsandwiches
p204
atp205
Rp206
(dp207
g11
VNNS
p208
sbatp209
Rp210
(dp211
g11
VNP
p212
sbatp213
Rp214
(dp215
g11
VPP
p216
sbag0
(g1
g2
(lp217
g0
(g1
g2
(lp218
Vthere
p219
atp220
Rp221
(dp222
g11
VRB
p223
sbatp224
Rp225
(dp226
g11
VADVP
p227
sbatp228
Rp229
(dp230
g11
VVP
p231
sbatp232
Rp233
(dp234
g11
VS
p235
sbatp236
Rp237
(dp238
g11
VVP
p239
sbatp240
Rp241
(dp242
g11
VVP
p243
sbag0
(g1
g2
(lp244
V.
p245
atp246
Rp247
(dp248
g11
V.
p249
sbatp250
Rp251
(dp252
g11
VS
p253
sbatp254
Rp255
(dp256
g11
S'id: 2'
p257
sbag0
(g1
g2
(lp258
g0
(g1
g2
(lp259
g0
(g1
g2
(lp260
VAnd
p261
atp262
Rp263
(dp264
g11
VCC
p265
sbag0
(g1
g2
(lp266
g0
(g1
g2
(lp267
Vanother
p268
atp269
Rp270
(dp271
g11
VDT
p272
sbag0
(g1
g2
(lp273
Vkid
p274
atp275
Rp276
(dp277
g11
VNN
p278
sbag0
(g1
g2
(lp279
g0
(g1
g2
(lp280
g0
(g1
g2
(lp281
g0
(g1
g2
(lp282
Vflying
p283
atp284
Rp285
(dp286
g11
VVBG
p287
sbag0
(g1
g2
(lp288
g0
(g1
g2
(lp289
Va
p290
atp291
Rp292
(dp293
g11
VDT
p294
sbag0
(g1
g2
(lp295
Vkite
p296
atp297
Rp298
(dp299
g11
VNN
p300
sbatp301
Rp302
(dp303
g11
VNP
p304
sbatp305
Rp306
(dp307
g11
VVP
p308
sbatp309
Rp310
(dp311
g11
VS
p312
sbatp313
Rp314
(dp315
g11
VSBAR
p316
sbatp317
Rp318
(dp319
g11
VNP
p320
sbag0
(g1
g2
(lp321
V.
p322
atp323
Rp324
(dp325
g11
V.
p326
sbatp327
Rp328
(dp329
g11
VFRAG
p330
sbatp331
Rp332
(dp333
g11
S'id: 3'
p334
sbag0
(g1
g2
(lp335
g0
(g1
g2
(lp336
g0
(g1
g2
(lp337
g0
(g1
g2
(lp338
VSomeone
p339
atp340
Rp341
(dp342
g11
VNN
p343
sbag0
(g1
g2
(lp344
Velse
p345
atp346
Rp347
(dp348
g11
VRB
p349
sbatp350
Rp351
(dp352
g11
VNP
p353
sbag0
(g1
g2
(lp354
g0
(g1
g2
(lp355
Vover
p356
atp357
Rp358
(dp359
g11
VIN
p360
sbag0
(g1
g2
(lp361
g0
(g1
g2
(lp362
g0
(g1
g2
(lp363
g0
(g1
g2
(lp364
Vhere
p365
atp366
Rp367
(dp368
g11
VRB
p369
sbatp370
Rp371
(dp372
g11
VADVP
p373
sbag0
(g1
g2
(lp374
Vmaking
p375
atp376
Rp377
(dp378
g11
VVBG
p379
sbatp380
Rp381
(dp382
g11
VVP
p383
sbatp384
Rp385
(dp386
g11
VS
p387
sbag0
(g1
g2
(lp388
V,
p389
atp390
Rp391
(dp392
g11
V,
p393
sbag0
(g1
g2
(lp394
g0
(g1
g2
(lp395
g0
(g1
g2
(lp396
Va
p397
atp398
Rp399
(dp400
g11
VDT
p401
sbag0
(g1
g2
(lp402
Vdog
p403
atp404
Rp405
(dp406
g11
VNN
p407
sbatp408
Rp409
(dp410
g11
VNP
p411
sbag0
(g1
g2
(lp412
g0
(g1
g2
(lp413
Vrunning
p414
atp415
Rp416
(dp417
g11
VVBG
p418
sbag0
(g1
g2
(lp419
g0
(g1
g2
(lp420
Vwith
p421
atp422
Rp423
(dp424
g11
VIN
p425
sbag0
(g1
g2
(lp426
g0
(g1
g2
(lp427
g0
(g1
g2
(lp428
Vthe
p429
atp430
Rp431
(dp432
g11
VDT
p433
sbag0
(g1
g2
(lp434
Vguy
p435
atp436
Rp437
(dp438
g11
VNN
p439
sbatp440
Rp441
(dp442
g11
VNP
p443
sbag0
(g1
g2
(lp444
g0
(g1
g2
(lp445
Vflying
p446
atp447
Rp448
(dp449
g11
VVBG
p450
sbag0
(g1
g2
(lp451
g0
(g1
g2
(lp452
Vthe
p453
atp454
Rp455
(dp456
g11
VDT
p457
sbag0
(g1
g2
(lp458
Vkite
p459
atp460
Rp461
(dp462
g11
VNN
p463
sbatp464
Rp465
(dp466
g11
VNP
p467
sbatp468
Rp469
(dp470
g11
VVP
p471
sbatp472
Rp473
(dp474
g11
VNP
p475
sbatp476
Rp477
(dp478
g11
VPP
p479
sbatp480
Rp481
(dp482
g11
VVP
p483
sbatp484
Rp485
(dp486
g11
VNP
p487
sbatp488
Rp489
(dp490
g11
VPP
p491
sbag0
(g1
g2
(lp492
V.
p493
atp494
Rp495
(dp496
g11
V.
p497
sbatp498
Rp499
(dp500
g11
VNP
p501
sbatp502
Rp503
(dp504
g11
S'id: 4'
p505
sbag0
(g1
g2
(lp506
g0
(g1
g2
(lp507
g0
(g1
g2
(lp508
g0
(g1
g2
(lp509
VI
p510
atp511
Rp512
(dp513
g11
VPRP
p514
sbatp515
Rp516
(dp517
g11
VNP
p518
sbag0
(g1
g2
(lp519
g0
(g1
g2
(lp520
Vdo
p521
atp522
Rp523
(dp524
g11
VVBP
p525
sbag0
(g1
g2
(lp526
Vn't
p527
atp528
Rp529
(dp530
g11
VRB
p531
sbag0
(g1
g2
(lp532
g0
(g1
g2
(lp533
Vknow
p534
atp535
Rp536
(dp537
g11
VVB
p538
sbag0
(g1
g2
(lp539
g0
(g1
g2
(lp540
g0
(g1
g2
(lp541
Vwhat
p542
atp543
Rp544
(dp545
g11
VWP
p546
sbatp547
Rp548
(dp549
g11
VWHNP
p550
sbag0
(g1
g2
(lp551
g0
(g1
g2
(lp552
g0
(g1
g2
(lp553
Vshe
p554
atp555
Rp556
(dp557
g11
VPRP
p558
sbatp559
Rp560
(dp561
g11
VNP
p562
sbag0
(g1
g2
(lp563
g0
(g1
g2
(lp564
V's
p565
atp566
Rp567
(dp568
g11
VVBZ
p569
sbag0
(g1
g2
(lp570
g0
(g1
g2
(lp571
Vmaking
p572
atp573
Rp574
(dp575
g11
VVBG
p576
sbag0
(g1
g2
(lp577
g0
(g1
g2
(lp578
Vover
p579
atp580
Rp581
(dp582
g11
VIN
p583
sbag0
(g1
g2
(lp584
g0
(g1
g2
(lp585
Vthere
p586
atp587
Rp588
(dp589
g11
VRB
p590
sbatp591
Rp592
(dp593
g11
VNP
p594
sbatp595
Rp596
(dp597
g11
VPP
p598
sbatp599
Rp600
(dp601
g11
VVP
p602
sbatp603
Rp604
(dp605
g11
VVP
p606
sbatp607
Rp608
(dp609
g11
VS
p610
sbatp611
Rp612
(dp613
g11
VSBAR
p614
sbatp615
Rp616
(dp617
g11
VVP
p618
sbatp619
Rp620
(dp621
g11
VVP
p622
sbag0
(g1
g2
(lp623
V.
p624
atp625
Rp626
(dp627
g11
V.
p628
sbatp629
Rp630
(dp631
g11
VS
p632
sbatp633
Rp634
(dp635
g11
S'id: 5'
p636
sbag0
(g1
g2
(lp637
g0
(g1
g2
(lp638
g0
(g1
g2
(lp639
VOk
p640
atp641
Rp642
(dp643
g11
VNN
p644
sbag0
(g1
g2
(lp645
V.
p646
atp647
Rp648
(dp649
g11
V.
p650
sbatp651
Rp652
(dp653
g11
VNP
p654
sbatp655
Rp656
(dp657
g11
S'id: 6'
p658
sbag0
(g1
g2
(lp659
g0
(g1
g2
(lp660
g0
(g1
g2
(lp661
g0
(g1
g2
(lp662
g0
(g1
g2
(lp663
g0
(g1
g2
(lp664
VI
p665
atp666
Rp667
(dp668
g11
VPRP
p669
sbatp670
Rp671
(dp672
g11
VNP
p673
sbag0
(g1
g2
(lp674
g0
(g1
g2
(lp675
g0
(g1
g2
(lp676
g0
(g1
g2
(lp677
Vcan
p678
atp679
Rp680
(dp681
g11
VMD
p682
sbatp683
Rp684
(dp685
g11
VVP
p686
sbatp687
Rp688
(dp689
g11
VS
p690
sbatp691
Rp692
(dp693
g11
VSBAR
p694
sbatp695
Rp696
(dp697
g11
VNP
p698
sbag0
(g1
g2
(lp699
V,
p700
atp701
Rp702
(dp703
g11
V,
p704
sbag0
(g1
g2
(lp705
g0
(g1
g2
(lp706
Va
p707
atp708
Rp709
(dp710
g11
VDT
p711
sbag0
(g1
g2
(lp712
Vsailboat
p713
atp714
Rp715
(dp716
g11
VNN
p717
sbatp718
Rp719
(dp720
g11
VNP
p721
sbag0
(g1
g2
(lp722
V,
p723
atp724
Rp725
(dp726
g11
V,
p727
sbatp728
Rp729
(dp730
g11
VNP
p731
sbag0
(g1
g2
(lp732
g0
(g1
g2
(lp733
Vlooks
p734
atp735
Rp736
(dp737
g11
VVBZ
p738
sbag0
(g1
g2
(lp739
g0
(g1
g2
(lp740
Vlike
p741
atp742
Rp743
(dp744
g11
VIN
p745
sbag0
(g1
g2
(lp746
g0
(g1
g2
(lp747
g0
(g1
g2
(lp748
Va
p749
atp750
Rp751
(dp752
g11
VDT
p753
sbag0
(g1
g2
(lp754
Vsail
p755
atp756
Rp757
(dp758
g11
VNN
p759
sbag0
(g1
g2
(lp760
Vboat
p761
atp762
Rp763
(dp764
g11
VNN
p765
sbatp766
Rp767
(dp768
g11
VNP
p769
sbag0
(g1
g2
(lp770
g0
(g1
g2
(lp771
Vin
p772
atp773
Rp774
(dp775
g11
VIN
p776
sbag0
(g1
g2
(lp777
g0
(g1
g2
(lp778
Vthis
p779
atp780
Rp781
(dp782
g11
VDT
p783
sbag0
(g1
g2
(lp784
Vpicture
p785
atp786
Rp787
(dp788
g11
VNN
p789
sbatp790
Rp791
(dp792
g11
VNP
p793
sbatp794
Rp795
(dp796
g11
VPP
p797
sbatp798
Rp799
(dp800
g11
VNP
p801
sbatp802
Rp803
(dp804
g11
VPP
p805
sbatp806
Rp807
(dp808
g11
VVP
p809
sbag0
(g1
g2
(lp810
V.
p811
atp812
Rp813
(dp814
g11
V.
p815
sbatp816
Rp817
(dp818
g11
VS
p819
sbatp820
Rp821
(dp822
g11
S'id: 7'
p823
sbag0
(g1
g2
(lp824
g0
(g1
g2
(lp825
g0
(g1
g2
(lp826
g0
(g1
g2
(lp827
VGuy
p828
atp829
Rp830
(dp831
g11
VNNP
p832
sbatp833
Rp834
(dp835
g11
VNP
p836
sbag0
(g1
g2
(lp837
g0
(g1
g2
(lp838
g0
(g1
g2
(lp839
g0
(g1
g2
(lp840
Vback
p841
atp842
Rp843
(dp844
g11
VRB
p845
sbatp846
Rp847
(dp848
g11
VADVP
p849
sbag0
(g1
g2
(lp850
g0
(g1
g2
(lp851
Vhere
p852
atp853
Rp854
(dp855
g11
VRB
p856
sbatp857
Rp858
(dp859
g11
VADVP
p860
sbatp861
Rp862
(dp863
g11
VPRN
p864
sbag0
(g1
g2
(lp865
g0
(g1
g2
(lp866
Vfishing
p867
atp868
Rp869
(dp870
g11
VNN
p871
sbatp872
Rp873
(dp874
g11
VPP
p875
sbatp876
Rp877
(dp878
g11
VVP
p879
sbag0
(g1
g2
(lp880
V.
p881
atp882
Rp883
(dp884
g11
V.
p885
sbatp886
Rp887
(dp888
g11
VS
p889
sbatp890
Rp891
(dp892
g11
S'id: 8'
p893
sbag0
(g1
g2
(lp894
g0
(g1
g2
(lp895
g0
(g1
g2
(lp896
g0
(g1
g2
(lp897
VThey
p898
atp899
Rp900
(dp901
g11
VPRP
p902
sbatp903
Rp904
(dp905
g11
VNP
p906
sbag0
(g1
g2
(lp907
g0
(g1
g2
(lp908
Vgot
p909
atp910
Rp911
(dp912
g11
VVBD
p913
sbag0
(g1
g2
(lp914
g0
(g1
g2
(lp915
Vall
p916
atp917
Rp918
(dp919
g11
VPDT
p920
sbag0
(g1
g2
(lp921
Vthis
p922
atp923
Rp924
(dp925
g11
VDT
p926
sbatp927
Rp928
(dp929
g11
VNP
p930
sbag0
(g1
g2
(lp931
g0
(g1
g2
(lp932
Vby
p933
atp934
Rp935
(dp936
g11
VIN
p937
sbag0
(g1
g2
(lp938
g0
(g1
g2
(lp939
Vtheir
p940
atp941
Rp942
(dp943
g11
VPRP$
p944
sbag0
(g1
g2
(lp945
Vhouse
p946
atp947
Rp948
(dp949
g11
VNN
p950
sbatp951
Rp952
(dp953
g11
VNP
p954
sbatp955
Rp956
(dp957
g11
VPP
p958
sbatp959
Rp960
(dp961
g11
VVP
p962
sbag0
(g1
g2
(lp963
V.
p964
atp965
Rp966
(dp967
g11
V.
p968
sbatp969
Rp970
(dp971
g11
VS
p972
sbatp973
Rp974
(dp975
g11
S'id: 9'
p976
sbag0
(g1
g2
(lp977
g0
(g1
g2
(lp978
g0
(g1
g2
(lp979
g0
(g1
g2
(lp980
VA
p981
atp982
Rp983
(dp984
g11
VDT
p985
sbag0
(g1
g2
(lp986
Vcar
p987
atp988
Rp989
(dp990
g11
VNN
p991
sbatp992
Rp993
(dp994
g11
VNP
p995
sbag0
(g1
g2
(lp996
g0
(g1
g2
(lp997
Vin
p998
atp999
Rp1000
(dp1001
g11
VIN
p1002
sbag0
(g1
g2
(lp1003
g0
(g1
g2
(lp1004
Vthe
p1005
atp1006
Rp1007
(dp1008
g11
VDT
p1009
sbag0
(g1
g2
(lp1010
Vdriveway
p1011
atp1012
Rp1013
(dp1014
g11
VNN
p1015
sbatp1016
Rp1017
(dp1018
g11
VNP
p1019
sbatp1020
Rp1021
(dp1022
g11
VPP
p1023
sbag0
(g1
g2
(lp1024
V.
p1025
atp1026
Rp1027
(dp1028
g11
V.
p1029
sbatp1030
Rp1031
(dp1032
g11
VNP
p1033
sbatp1034
Rp1035
(dp1036
g11
S'id: 10'
p1037
sbag0
(g1
g2
(lp1038
g0
(g1
g2
(lp1039
g0
(g1
g2
(lp1040
g0
(g1
g2
(lp1041
VOk
p1042
atp1043
Rp1044
(dp1045
g11
VJJ
p1046
sbag0
(g1
g2
(lp1047
Vsandals
p1048
atp1049
Rp1050
(dp1051
g11
VNNS
p1052
sbatp1053
Rp1054
(dp1055
g11
VNP
p1056
sbag0
(g1
g2
(lp1057
g0
(g1
g2
(lp1058
Von
p1059
atp1060
Rp1061
(dp1062
g11
VIN
p1063
sbag0
(g1
g2
(lp1064
g0
(g1
g2
(lp1065
g0
(g1
g2
(lp1066
g0
(g1
g2
(lp1067
Vthe
p1068
atp1069
Rp1070
(dp1071
g11
VDT
p1072
sbatp1073
Rp1074
(dp1075
g11
VNP
p1076
sbag0
(g1
g2
(lp1077
V,
p1078
atp1079
Rp1080
(dp1081
g11
V,
p1082
sbag0
(g1
g2
(lp1083
g0
(g1
g2
(lp1084
Von
p1085
atp1086
Rp1087
(dp1088
g11
VIN
p1089
sbag0
(g1
g2
(lp1090
g0
(g1
g2
(lp1091
g0
(g1
g2
(lp1092
Vthe
p1093
atp1094
Rp1095
(dp1096
g11
VDT
p1097
sbag0
(g1
g2
(lp1098
Vtowel
p1099
atp1100
Rp1101
(dp1102
g11
VNN
p1103
sbatp1104
Rp1105
(dp1106
g11
VNP
p1107
sbag0
(g1
g2
(lp1108
g0
(g1
g2
(lp1109
Vthere
p1110
atp1111
Rp1112
(dp1113
g11
VRB
p1114
sbatp1115
Rp1116
(dp1117
g11
VADVP
p1118
sbatp1119
Rp1120
(dp1121
g11
VNP
p1122
sbatp1123
Rp1124
(dp1125
g11
VPP
p1126
sbatp1127
Rp1128
(dp1129
g11
VNP
p1130
sbag0
(g1
g2
(lp1131
V,
p1132
atp1133
Rp1134
(dp1135
g11
V,
p1136
sbag0
(g1
g2
(lp1137
g0
(g1
g2
(lp1138
Vas
p1139
atp1140
Rp1141
(dp1142
g11
VRB
p1143
sbag0
(g1
g2
(lp1144
Vwell
p1145
atp1146
Rp1147
(dp1148
g11
VRB
p1149
sbag0
(g1
g2
(lp1150
Vas
p1151
atp1152
Rp1153
(dp1154
g11
VIN
p1155
sbatp1156
Rp1157
(dp1158
g11
VCONJP
p1159
sbag0
(g1
g2
(lp1160
g0
(g1
g2
(lp1161
Va
p1162
atp1163
Rp1164
(dp1165
g11
VDT
p1166
sbag0
(g1
g2
(lp1167
Vradio
p1168
atp1169
Rp1170
(dp1171
g11
VNN
p1172
sbatp1173
Rp1174
(dp1175
g11
VNP
p1176
sbatp1177
Rp1178
(dp1179
g11
VNP
p1180
sbatp1181
Rp1182
(dp1183
g11
VPP
p1184
sbag0
(g1
g2
(lp1185
V.
p1186
atp1187
Rp1188
(dp1189
g11
V.
p1190
sbatp1191
Rp1192
(dp1193
g11
VNP
p1194
sbatp1195
Rp1196
(dp1197
g11
S'id: 11'
p1198
sbag0
(g1
g2
(lp1199
g0
(g1
g2
(lp1200
g0
(g1
g2
(lp1201
g0
(g1
g2
(lp1202
VHe
p1203
atp1204
Rp1205
(dp1206
g11
VPRP
p1207
sbatp1208
Rp1209
(dp1210
g11
VNP
p1211
sbag0
(g1
g2
(lp1212
g0
(g1
g2
(lp1213
V's
p1214
atp1215
Rp1216
(dp1217
g11
VVBZ
p1218
sbag0
(g1
g2
(lp1219
g0
(g1
g2
(lp1220
Vignoring
p1221
atp1222
Rp1223
(dp1224
g11
VVBG
p1225
sbag0
(g1
g2
(lp1226
g0
(g1
g2
(lp1227
Vher
p1228
atp1229
Rp1230
(dp1231
g11
VPRP
p1232
sbatp1233
Rp1234
(dp1235
g11
VNP
p1236
sbag0
(g1
g2
(lp1237
V,
p1238
atp1239
Rp1240
(dp1241
g11
V,
p1242
sbag0
(g1
g2
(lp1243
g0
(g1
g2
(lp1244
Vof
p1245
atp1246
Rp1247
(dp1248
g11
VIN
p1249
sbag0
(g1
g2
(lp1250
g0
(g1
g2
(lp1251
g0
(g1
g2
(lp1252
Vcourse
p1253
atp1254
Rp1255
(dp1256
g11
VNN
p1257
sbatp1258
Rp1259
(dp1260
g11
VNP
p1261
sbag0
(g1
g2
(lp1262
V,
p1263
atp1264
Rp1265
(dp1266
g11
V,
p1267
sbag0
(g1
g2
(lp1268
g0
(g1
g2
(lp1269
g0
(g1
g2
(lp1270
Vcause
p1271
atp1272
Rp1273
(dp1274
g11
VNN
p1275
sbatp1276
Rp1277
(dp1278
g11
VNP
p1279
sbag0
(g1
g2
(lp1280
g0
(g1
g2
(lp1281
g0
(g1
g2
(lp1282
g0
(g1
g2
(lp1283
Vhe
p1284
atp1285
Rp1286
(dp1287
g11
VPRP
p1288
sbatp1289
Rp1290
(dp1291
g11
VNP
p1292
sbag0
(g1
g2
(lp1293
g0
(g1
g2
(lp1294
V's
p1295
atp1296
Rp1297
(dp1298
g11
VVBZ
p1299
sbag0
(g1
g2
(lp1300
g0
(g1
g2
(lp1301
Vpretending
p1302
atp1303
Rp1304
(dp1305
g11
VVBG
p1306
sbag0
(g1
g2
(lp1307
g0
(g1
g2
(lp1308
g0
(g1
g2
(lp1309
Vto
p1310
atp1311
Rp1312
(dp1313
g11
VTO
p1314
sbag0
(g1
g2
(lp1315
g0
(g1
g2
(lp1316
Vbe
p1317
atp1318
Rp1319
(dp1320
g11
VVB
p1321
sbag0
(g1
g2
(lp1322
g0
(g1
g2
(lp1323
Vreading
p1324
atp1325
Rp1326
(dp1327
g11
VVBG
p1328
sbatp1329
Rp1330
(dp1331
g11
VVP
p1332
sbatp1333
Rp1334
(dp1335
g11
VVP
p1336
sbatp1337
Rp1338
(dp1339
g11
VVP
p1340
sbatp1341
Rp1342
(dp1343
g11
VS
p1344
sbatp1345
Rp1346
(dp1347
g11
VVP
p1348
sbatp1349
Rp1350
(dp1351
g11
VVP
p1352
sbatp1353
Rp1354
(dp1355
g11
VS
p1356
sbatp1357
Rp1358
(dp1359
g11
VSBAR
p1360
sbatp1361
Rp1362
(dp1363
g11
VNP
p1364
sbatp1365
Rp1366
(dp1367
g11
VNP
p1368
sbatp1369
Rp1370
(dp1371
g11
VPP
p1372
sbatp1373
Rp1374
(dp1375
g11
VVP
p1376
sbatp1377
Rp1378
(dp1379
g11
VVP
p1380
sbag0
(g1
g2
(lp1381
V.
p1382
atp1383
Rp1384
(dp1385
g11
V.
p1386
sbatp1387
Rp1388
(dp1389
g11
VS
p1390
sbatp1391
Rp1392
(dp1393
g11
S'id: 12'
p1394
sbag0
(g1
g2
(lp1395
g0
(g1
g2
(lp1396
g0
(g1
g2
(lp1397
g0
(g1
g2
(lp1398
VA
p1399
atp1400
Rp1401
(dp1402
g11
VDT
p1403
sbag0
(g1
g2
(lp1404
Vflag
p1405
atp1406
Rp1407
(dp1408
g11
VNN
p1409
sbatp1410
Rp1411
(dp1412
g11
VNP
p1413
sbag0
(g1
g2
(lp1414
g0
(g1
g2
(lp1415
Vflying
p1416
atp1417
Rp1418
(dp1419
g11
VVBG
p1420
sbatp1421
Rp1422
(dp1423
g11
VVP
p1424
sbag0
(g1
g2
(lp1425
V.
p1426
atp1427
Rp1428
(dp1429
g11
V.
p1430
sbatp1431
Rp1432
(dp1433
g11
VNP
p1434
sbatp1435
Rp1436
(dp1437
g11
S'id: 13'
p1438
sbag0
(g1
g2
(lp1439
g0
(g1
g2
(lp1440
g0
(g1
g2
(lp1441
g0
(g1
g2
(lp1442
VI
p1443
atp1444
Rp1445
(dp1446
g11
VPRP
p1447
sbatp1448
Rp1449
(dp1450
g11
VNP
p1451
sbag0
(g1
g2
(lp1452
g0
(g1
g2
(lp1453
Vdid
p1454
atp1455
Rp1456
(dp1457
g11
VVBD
p1458
sbag0
(g1
g2
(lp1459
g0
(g1
g2
(lp1460
Vsay
p1461
atp1462
Rp1463
(dp1464
g11
VVB
p1465
sbag0
(g1
g2
(lp1466
g0
(g1
g2
(lp1467
g0
(g1
g2
(lp1468
Vold
p1469
atp1470
Rp1471
(dp1472
g11
VJJ
p1473
sbag0
(g1
g2
(lp1474
Vdude
p1475
atp1476
Rp1477
(dp1478
g11
VNN
p1479
sbag0
(g1
g2
(lp1480
Vfishing
p1481
atp1482
Rp1483
(dp1484
g11
VNN
p1485
sbatp1486
Rp1487
(dp1488
g11
VNP
p1489
sbag0
(g1
g2
(lp1490
V,
p1491
atp1492
Rp1493
(dp1494
g11
V,
p1495
sbag0
(g1
g2
(lp1496
g0
(g1
g2
(lp1497
Vright
p1498
atp1499
Rp1500
(dp1501
g11
VNN
p1502
sbatp1503
Rp1504
(dp1505
g11
VNP
p1506
sbatp1507
Rp1508
(dp1509
g11
VNP
p1510
sbatp1511
Rp1512
(dp1513
g11
VVP
p1514
sbatp1515
Rp1516
(dp1517
g11
VVP
p1518
sbatp1519
Rp1520
(dp1521
g11
VS
p1522
sbatp1523
Rp1524
(dp1525
g11
S'id: 14'
p1526
sbatp1527
Rp1528
(dp1529
g11
S'sentences'
p1530
sb.