ccopy_reg
_reconstructor
p0
(cnltk.tree
Tree
p1
c__builtin__
list
p2
(lp3
g0
(g1
g2
(lp4
g0
(g1
g2
(lp5
g0
(g1
g2
(lp6
(lp7
S'word: The, index: 1'
p8
aatp9
Rp10
(dp11
S'_label'
p12
Vdet
p13
sbag0
(g1
g2
(lp14
(lp15
S'word: he, index: 17'
p16
aatp17
Rp18
(dp19
g12
Vconj
p20
sbag0
(g1
g2
(lp21
g0
(g1
g2
(lp22
g0
(g1
g2
(lp23
(lp24
S'word: he, index: 31'
p25
aatp26
Rp27
(dp28
g12
Vdep
p29
sbatp30
Rp31
(dp32
g12
S'word: it, index: 33'
p33
sbatp34
Rp35
(dp36
g12
Vconj
p37
sbag0
(g1
g2
(lp38
g0
(g1
g2
(lp39
g0
(g1
g2
(lp40
(lp41
S'word: he, index: 19'
p42
aatp43
Rp44
(dp45
g12
Vnsubj
p46
sbag0
(g1
g2
(lp47
(lp48
S"word: 's, index: 20"
p49
aatp50
Rp51
(dp52
g12
Vaux
p53
sbag0
(g1
g2
(lp54
g0
(g1
g2
(lp55
g0
(g1
g2
(lp56
(lp57
S'word: a, index: 23'
p58
aatp59
Rp60
(dp61
g12
Vdet
p62
sbatp63
Rp64
(dp65
g12
S'word: stoo, index: 24'
p66
sbatp67
Rp68
(dp69
g12
Vprep
p70
sbatp71
Rp72
(dp73
g12
S'word: standing, index: 21'
p74
sbatp75
Rp76
(dp77
g12
Vdep
p78
sbag0
(g1
g2
(lp79
g0
(g1
g2
(lp80
g0
(g1
g2
(lp81
(lp82
S'word: it, index: 35'
p83
aatp84
Rp85
(dp86
g12
Vnsubj
p87
sbag0
(g1
g2
(lp88
(lp89
S"word: 's, index: 36"
p90
aatp91
Rp92
(dp93
g12
Vaux
p94
sbatp95
Rp96
(dp97
g12
S'word: falling, index: 37'
p98
sbatp99
Rp100
(dp101
g12
Vconj
p102
sbag0
(g1
g2
(lp103
g0
(g1
g2
(lp104
g0
(g1
g2
(lp105
g0
(g1
g2
(lp106
g0
(g1
g2
(lp107
(lp108
S'word: the, index: 4'
p109
aatp110
Rp111
(dp112
g12
Vdet
p113
sbatp114
Rp115
(dp116
g12
S'word: boy, index: 5'
p117
sbatp118
Rp119
(dp120
g12
Vposs
p121
sbag0
(g1
g2
(lp122
g0
(g1
g2
(lp123
g0
(g1
g2
(lp124
(lp125
S'word: the, index: 8'
p126
aatp127
Rp128
(dp129
g12
Vdet
p130
sbag0
(g1
g2
(lp131
(lp132
S'word: cooking, index: 9'
p133
aatp134
Rp135
(dp136
g12
Vnn
p137
sbatp138
Rp139
(dp140
g12
S'word: jar, index: 10'
p141
sbatp142
Rp143
(dp144
g12
Vdep
p145
sbatp146
Rp147
(dp148
g12
S'word: raiding, index: 7'
p149
sbatp150
Rp151
(dp152
g12
Vappos
p153
sbag0
(g1
g2
(lp154
g0
(g1
g2
(lp155
g0
(g1
g2
(lp156
g0
(g1
g2
(lp157
g0
(g1
g2
(lp158
(lp159
S'word: a, index: 27'
p160
aatp161
Rp162
(dp163
g12
Vdet
p164
sbatp165
Rp166
(dp167
g12
S'word: stool, index: 28'
p168
sbatp169
Rp170
(dp171
g12
Vpobj
p172
sbatp173
Rp174
(dp175
g12
S'word: on, index: 26'
p176
sbatp177
Rp178
(dp179
g12
Vdep
p180
sbag0
(g1
g2
(lp181
g0
(g1
g2
(lp182
g0
(g1
g2
(lp183
(lp184
S'word: and, index: 14'
p185
aatp186
Rp187
(dp188
g12
Vcc
p189
sbatp190
Rp191
(dp192
g12
S'word: he, index: 15'
p193
sbatp194
Rp195
(dp196
g12
Vdep
p197
sbatp198
Rp199
(dp200
g12
S'word: boy, index: 2'
p201
sbatp202
Rp203
(dp204
g12
S'id: 0'
p205
sbag0
(g1
g2
(lp206
g0
(g1
g2
(lp207
g0
(g1
g2
(lp208
g0
(g1
g2
(lp209
g0
(g1
g2
(lp210
(lp211
S'word: the, index: 2'
p212
aatp213
Rp214
(dp215
g12
Vdet
p216
sbatp217
Rp218
(dp219
g12
S'word: girl, index: 3'
p220
sbatp221
Rp222
(dp223
g12
Vnsubj
p224
sbag0
(g1
g2
(lp225
(lp226
S'word: is, index: 4'
p227
aatp228
Rp229
(dp230
g12
Vaux
p231
sbag0
(g1
g2
(lp232
g0
(g1
g2
(lp233
g0
(g1
g2
(lp234
(lp235
S'word: she, index: 19'
p236
aatp237
Rp238
(dp239
g12
Vnsubj
p240
sbag0
(g1
g2
(lp241
(lp242
S'word: also, index: 20'
p243
aatp244
Rp245
(dp246
g12
Vadvmod
p247
sbag0
(g1
g2
(lp248
g0
(g1
g2
(lp249
g0
(g1
g2
(lp250
(lp251
S'word: a, index: 22'
p252
aatp253
Rp254
(dp255
g12
Vdet
p256
sbatp257
Rp258
(dp259
g12
S'word: cookie, index: 23'
p260
sbatp261
Rp262
(dp263
g12
Vdobj
p264
sbag0
(g1
g2
(lp265
g0
(g1
g2
(lp266
g0
(g1
g2
(lp267
(lp268
S'word: sh, index: 17'
p269
aatp270
Rp271
(dp272
g12
Vappos
p273
sbatp274
Rp275
(dp276
g12
S'word: sh, index: 15'
p277
sbatp278
Rp279
(dp280
g12
Vdep
p281
sbatp282
Rp283
(dp284
g12
S'word: got, index: 21'
p285
sbatp286
Rp287
(dp288
g12
Vconj
p289
sbag0
(g1
g2
(lp290
g0
(g1
g2
(lp291
g0
(g1
g2
(lp292
(lp293
S'word: him, index: 8'
p294
aatp295
Rp296
(dp297
g12
Vappos
p298
sbatp299
Rp300
(dp301
g12
S'word: him, index: 6'
p302
sbatp303
Rp304
(dp305
g12
Vdobj
p306
sbag0
(g1
g2
(lp307
g0
(g1
g2
(lp308
g0
(g1
g2
(lp309
(lp310
S'word: to, index: 10'
p311
aatp312
Rp313
(dp314
g12
Vaux
p315
sbag0
(g1
g2
(lp316
(lp317
S'word: be, index: 11'
p318
aatp319
Rp320
(dp321
g12
Vcop
p322
sbatp323
Rp324
(dp325
g12
S'word: quiet, index: 12'
p326
sbatp327
Rp328
(dp329
g12
Vxcomp
p330
sbatp331
Rp332
(dp333
g12
S'word: telling, index: 5'
p334
sbatp335
Rp336
(dp337
g12
S'id: 1'
p338
sbag0
(g1
g2
(lp339
g0
(g1
g2
(lp340
g0
(g1
g2
(lp341
g0
(g1
g2
(lp342
g0
(g1
g2
(lp343
(lp344
S'word: the, index: 9'
p345
aatp346
Rp347
(dp348
g12
Vdet
p349
sbag0
(g1
g2
(lp350
(lp351
S'word: overflowing, index: 12'
p352
aatp353
Rp354
(dp355
g12
Vamod
p356
sbatp357
Rp358
(dp359
g12
S'word: sink, index: 10'
p360
sbatp361
Rp362
(dp363
g12
Vappos
p364
sbag0
(g1
g2
(lp365
g0
(g1
g2
(lp366
g0
(g1
g2
(lp367
(lp368
S'word: the, index: 14'
p369
aatp370
Rp371
(dp372
g12
Vdet
p373
sbag0
(g1
g2
(lp374
(lp375
S"word: 's, index: 16"
p376
aatp377
Rp378
(dp379
g12
Vpossessive
p380
sbag0
(g1
g2
(lp381
(lp382
S'word: overflowing, index: 17'
p383
aatp384
Rp385
(dp386
g12
Vamod
p387
sbatp388
Rp389
(dp390
g12
S'word: sink, index: 15'
p391
sbatp392
Rp393
(dp394
g12
Vappos
p395
sbag0
(g1
g2
(lp396
g0
(g1
g2
(lp397
g0
(g1
g2
(lp398
g358
atp399
Rp400
(dp401
g12
Vconj
p402
sbag0
(g1
g2
(lp403
(lp404
S'word: the, index: 3'
p405
aatp406
Rp407
(dp408
g12
Vdet
p409
sbag0
(g1
g2
(lp410
g0
(g1
g2
(lp411
g0
(g1
g2
(lp412
(lp413
S'word: dishes, index: 6'
p414
aatp415
Rp416
(dp417
g12
Vdobj
p418
sbatp419
Rp420
(dp421
g12
S'word: washing, index: 5'
p422
sbatp423
Rp424
(dp425
g12
Vvmod
p426
sbatp427
Rp428
(dp429
g12
S'word: mom, index: 4'
p430
sbatp431
Rp432
(dp433
g12
Vappos
p434
sbatp435
Rp436
(dp437
g12
S'word: Ok, index: 1'
p438
sbatp439
Rp440
(dp441
g12
S'id: 2'
p442
sbag0
(g1
g2
(lp443
g0
(g1
g2
(lp444
g0
(g1
g2
(lp445
g0
(g1
g2
(lp446
g0
(g1
g2
(lp447
g0
(g1
g2
(lp448
g0
(g1
g2
(lp449
(lp450
S'word: whatever, index: 8'
p451
aatp452
Rp453
(dp454
g12
Vdet
p455
sbatp456
Rp457
(dp458
g12
S'word: color, index: 9'
p459
sbatp460
Rp461
(dp462
g12
Vdobj
p463
sbag0
(g1
g2
(lp464
(lp465
S'word: they, index: 10'
p466
aatp467
Rp468
(dp469
g12
Vnsubj
p470
sbatp471
Rp472
(dp473
g12
S'word: are, index: 11'
p474
sbatp475
Rp476
(dp477
g12
Vccomp
p478
sbag0
(g1
g2
(lp479
g0
(g1
g2
(lp480
g0
(g1
g2
(lp481
g0
(g1
g2
(lp482
g0
(g1
g2
(lp483
(lp484
S'word: the, index: 4'
p485
aatp486
Rp487
(dp488
g12
Vdet
p489
sbatp490
Rp491
(dp492
g12
S'word: curtians, index: 5'
p493
sbatp494
Rp495
(dp496
g12
Vconj
p497
sbatp498
Rp499
(dp500
g12
S'word: Ok, index: 1'
p501
sbatp502
Rp503
(dp504
g12
Vnsubj
p505
sbag0
(g1
g2
(lp506
g491
atp507
Rp508
(dp509
g12
Vnsubj
p510
sbatp511
Rp512
(dp513
g12
S'word: are, index: 6'
p514
sbatp515
Rp516
(dp517
g12
S'id: 3'
p518
sbag0
(g1
g2
(lp519
g0
(g1
g2
(lp520
g0
(g1
g2
(lp521
(lp522
S'word: And, index: 1'
p523
aatp524
Rp525
(dp526
g12
Vcc
p527
sbag0
(g1
g2
(lp528
(lp529
S'word: there, index: 2'
p530
aatp531
Rp532
(dp533
g12
Vexpl
p534
sbag0
(g1
g2
(lp535
(lp536
S'word: out, index: 4'
p537
aatp538
Rp539
(dp540
g12
Vprt
p541
sbag0
(g1
g2
(lp542
(lp543
S'word: outside, index: 6'
p544
aatp545
Rp546
(dp547
g12
Vadvmod
p548
sbatp549
Rp550
(dp551
g12
S'word: shrubery, index: 3'
p552
sbatp553
Rp554
(dp555
g12
S'id: 4'
p556
sbag0
(g1
g2
(lp557
g0
(g1
g2
(lp558
g0
(g1
g2
(lp559
(lp560
S'word: And, index: 1'
p561
aatp562
Rp563
(dp564
g12
Vcc
p565
sbag0
(g1
g2
(lp566
(lp567
S'word: and, index: 3'
p568
aatp569
Rp570
(dp571
g12
Vcc
p572
sbag0
(g1
g2
(lp573
(lp574
S'word: trees, index: 4'
p575
aatp576
Rp577
(dp578
g12
Vnsubj
p579
sbag0
(g1
g2
(lp580
(lp581
S'word: outside, index: 6'
p582
aatp583
Rp584
(dp585
g12
Vadvmod
p586
sbatp587
Rp588
(dp589
g12
S'word: are, index: 5'
p590
sbatp591
Rp592
(dp593
g12
S'id: 5'
p594
sbag0
(g1
g2
(lp595
tp596
Rp597
(dp598
g12
S'id: 6'
p599
sbag0
(g1
g2
(lp600
g0
(g1
g2
(lp601
g0
(g1
g2
(lp602
(lp603
S'word: no, index: 3'
p604
aatp605
Rp606
(dp607
g12
Vappos
p608
sbatp609
Rp610
(dp611
g12
S'word: braiden, index: 1'
p612
sbatp613
Rp614
(dp615
g12
S'id: 7'
p616
sbag0
(g1
g2
(lp617
g0
(g1
g2
(lp618
g0
(g1
g2
(lp619
(lp620
S'word: The, index: 1'
p621
aatp622
Rp623
(dp624
g12
Vdet
p625
sbag0
(g1
g2
(lp626
(lp627
S'word: cookie, index: 2'
p628
aatp629
Rp630
(dp631
g12
Vnn
p632
sbag0
(g1
g2
(lp633
(lp634
S'word: no, index: 5'
p635
aatp636
Rp637
(dp638
g12
Vappos
p639
sbatp640
Rp641
(dp642
g12
S'word: jar, index: 3'
p643
sbatp644
Rp645
(dp646
g12
S'id: 8'
p647
sbag0
(g1
g2
(lp648
g0
(g1
g2
(lp649
g0
(g1
g2
(lp650
g0
(g1
g2
(lp651
g0
(g1
g2
(lp652
(lp653
S"word: 's, index: 11"
p654
aatp655
Rp656
(dp657
g12
Vcop
p658
sbag0
(g1
g2
(lp659
(lp660
S'word: it, index: 10'
p661
aatp662
Rp663
(dp664
g12
Vnsubj
p665
sbatp666
Rp667
(dp668
g12
S'word: br, index: 12'
p669
sbatp670
Rp671
(dp672
g12
Vccomp
p673
sbag0
(g1
g2
(lp674
g0
(g1
g2
(lp675
g0
(g1
g2
(lp676
(lp677
S'word: the, index: 15'
p678
aatp679
Rp680
(dp681
g12
Vdet
p682
sbag0
(g1
g2
(lp683
(lp684
S'word: cookie, index: 16'
p685
aatp686
Rp687
(dp688
g12
Vnn
p689
sbag0
(g1
g2
(lp690
(lp691
S'word: it, index: 19'
p692
aatp693
Rp694
(dp695
g12
Vprep
p696
sbatp697
Rp698
(dp699
g12
S'word: jar, index: 17'
p700
sbatp701
Rp702
(dp703
g12
Vnsubj
p704
sbag0
(g1
g2
(lp705
g0
(g1
g2
(lp706
g0
(g1
g2
(lp707
g667
atp708
Rp709
(dp710
g12
Vconj
p711
sbag0
(g1
g2
(lp712
g0
(g1
g2
(lp713
g0
(g1
g2
(lp714
(lp715
S'word: The, index: 1'
p716
aatp717
Rp718
(dp719
g12
Vdet
p720
sbag0
(g1
g2
(lp721
(lp722
S'word: cookie, index: 2'
p723
aatp724
Rp725
(dp726
g12
Vnn
p727
sbatp728
Rp729
(dp730
g12
S'word: jar, index: 3'
p731
sbatp732
Rp733
(dp734
g12
Vnsubj
p735
sbag0
(g1
g2
(lp736
g0
(g1
g2
(lp737
g0
(g1
g2
(lp738
(lp739
S'word: the, index: 6'
p740
aatp741
Rp742
(dp743
g12
Vdet
p744
sbatp745
Rp746
(dp747
g12
S'word: inside, index: 7'
p748
sbatp749
Rp750
(dp751
g12
Vprep
p752
sbatp753
Rp754
(dp755
g12
S'word: is, index: 4'
p756
sbatp757
Rp758
(dp759
g12
Vccomp
p760
sbatp761
Rp762
(dp763
g12
S'word: broke, index: 14'
p764
sbatp765
Rp766
(dp767
g12
S'id: 9'
p768
sbag0
(g1
g2
(lp769
g0
(g1
g2
(lp770
g0
(g1
g2
(lp771
g0
(g1
g2
(lp772
g0
(g1
g2
(lp773
(lp774
S'word: a, index: 13'
p775
aatp776
Rp777
(dp778
g12
Vdet
p779
sbatp780
Rp781
(dp782
g12
S'word: while, index: 14'
p783
sbatp784
Rp785
(dp786
g12
Vprep
p787
sbag0
(g1
g2
(lp788
(lp789
S'word: And, index: 1'
p790
aatp791
Rp792
(dp793
g12
Vcc
p794
sbag0
(g1
g2
(lp795
g0
(g1
g2
(lp796
g0
(g1
g2
(lp797
g0
(g1
g2
(lp798
g0
(g1
g2
(lp799
(lp800
S'word: both, index: 5'
p801
aatp802
Rp803
(dp804
g12
Vdep
p805
sbatp806
Rp807
(dp808
g12
S'word: their, index: 4'
p809
sbatp810
Rp811
(dp812
g12
Vappos
p813
sbatp814
Rp815
(dp816
g12
S'word: he, index: 2'
p817
sbatp818
Rp819
(dp820
g12
Vnsubj
p821
sbag0
(g1
g2
(lp822
g0
(g1
g2
(lp823
g0
(g1
g2
(lp824
g0
(g1
g2
(lp825
g0
(g1
g2
(lp826
(lp827
S'word: outside, index: 10'
p828
aatp829
Rp830
(dp831
g12
Vpobj
p832
sbatp833
Rp834
(dp835
g12
S'word: for, index: 9'
p836
sbatp837
Rp838
(dp839
g12
Vdep
p840
sbatp841
Rp842
(dp843
g12
S'word: in, index: 7'
p844
sbatp845
Rp846
(dp847
g12
Vprep
p848
sbatp849
Rp850
(dp851
g12
S'word: dressed, index: 6'
p852
sbatp853
Rp854
(dp855
g12
S'id: 10'
p856
sbag0
(g1
g2
(lp857
g0
(g1
g2
(lp858
g0
(g1
g2
(lp859
(lp860
S'word: blouse, index: 17'
p861
aatp862
Rp863
(dp864
g12
Vpobj
p865
sbag0
(g1
g2
(lp866
g0
(g1
g2
(lp867
g0
(g1
g2
(lp868
g0
(g1
g2
(lp869
g0
(g1
g2
(lp870
(lp871
S'word: the, index: 3'
p872
aatp873
Rp874
(dp875
g12
Vdet
p876
sbatp877
Rp878
(dp879
g12
S'word: girl, index: 4'
p880
sbatp881
Rp882
(dp883
g12
Vnsubj
p884
sbag0
(g1
g2
(lp885
(lp886
S'word: has, index: 5'
p887
aatp888
Rp889
(dp890
g12
Vaux
p891
sbag0
(g1
g2
(lp892
g0
(g1
g2
(lp893
g0
(g1
g2
(lp894
(lp895
S'word: a, index: 7'
p896
aatp897
Rp898
(dp899
g12
Vdet
p900
sbatp901
Rp902
(dp903
g12
S'word: skirt, index: 8'
p904
sbatp905
Rp906
(dp907
g12
Vpobj
p908
sbatp909
Rp910
(dp911
g12
S'word: on, index: 6'
p912
sbatp913
Rp914
(dp915
g12
Vparataxis
p916
sbag0
(g1
g2
(lp917
g0
(g1
g2
(lp918
g0
(g1
g2
(lp919
(lp920
S'word: a, index: 35'
p921
aatp922
Rp923
(dp924
g12
Vprep
p925
sbag0
(g1
g2
(lp926
g0
(g1
g2
(lp927
g0
(g1
g2
(lp928
(lp929
S'word: the, index: 20'
p930
aatp931
Rp932
(dp933
g12
Vdet
p934
sbatp935
Rp936
(dp937
g12
S'word: boy, index: 21'
p938
sbatp939
Rp940
(dp941
g12
Vnsubj
p942
sbag0
(g1
g2
(lp943
g0
(g1
g2
(lp944
g0
(g1
g2
(lp945
g0
(g1
g2
(lp946
g0
(g1
g2
(lp947
(lp948
S'word: two, index: 39'
p949
aatp950
Rp951
(dp952
g12
Vnum
p953
sbatp954
Rp955
(dp956
g12
S'word: shoes, index: 40'
p957
sbatp958
Rp959
(dp960
g12
Vappos
p961
sbatp962
Rp963
(dp964
g12
S'word: march, index: 37'
p965
sbatp966
Rp967
(dp968
g12
Vdobj
p969
sbag0
(g1
g2
(lp970
g0
(g1
g2
(lp971
g0
(g1
g2
(lp972
(lp973
S'word: a, index: 35'
p974
aatp975
Rp976
(dp977
g12
Vconj
p978
sbag0
(g1
g2
(lp979
g0
(g1
g2
(lp980
g0
(g1
g2
(lp981
(lp982
S'word: a, index: 26'
p983
aatp984
Rp985
(dp986
g12
Vdet
p987
sbatp988
Rp989
(dp990
g12
S'word: shirt, index: 27'
p991
sbatp992
Rp993
(dp994
g12
Vconj
p995
sbag0
(g1
g2
(lp996
(lp997
S'word: a, index: 29'
p998
aatp999
Rp1000
(dp1001
g12
Vconj
p1002
sbag0
(g1
g2
(lp1003
(lp1004
S'word: a, index: 32'
p1005
aatp1006
Rp1007
(dp1008
g12
Vconj
p1009
sbatp1010
Rp1011
(dp1012
g12
S'word: a, index: 24'
p1013
sbatp1014
Rp1015
(dp1016
g12
Vprep
p1017
sbag0
(g1
g2
(lp1018
g989
atp1019
Rp1020
(dp1021
g12
Vprep
p1022
sbag0
(g1
g2
(lp1023
(lp1024
S'word: a, index: 29'
p1025
aatp1026
Rp1027
(dp1028
g12
Vprep
p1029
sbag0
(g1
g2
(lp1030
(lp1031
S'word: a, index: 32'
p1032
aatp1033
Rp1034
(dp1035
g12
Vprep
p1036
sbatp1037
Rp1038
(dp1039
g12
S'word: has, index: 22'
p1040
sbatp1041
Rp1042
(dp1043
g12
Vconj
p1044
sbag0
(g1
g2
(lp1045
g0
(g1
g2
(lp1046
g0
(g1
g2
(lp1047
(lp1048
S'word: the, index: 10'
p1049
aatp1050
Rp1051
(dp1052
g12
Vdet
p1053
sbatp1054
Rp1055
(dp1056
g12
S'word: girl, index: 11'
p1057
sbatp1058
Rp1059
(dp1060
g12
Vnsubj
p1061
sbag0
(g1
g2
(lp1062
(lp1063
S'word: has, index: 12'
p1064
aatp1065
Rp1066
(dp1067
g12
Vaux
p1068
sbag0
(g1
g2
(lp1069
g0
(g1
g2
(lp1070
g0
(g1
g2
(lp1071
(lp1072
S'word: blouse, index: 17'
p1073
aatp1074
Rp1075
(dp1076
g12
Vconj
p1077
sbag0
(g1
g2
(lp1078
(lp1079
S'word: a, index: 14'
p1080
aatp1081
Rp1082
(dp1083
g12
Vdet
p1084
sbatp1085
Rp1086
(dp1087
g12
S'word: skirt, index: 15'
p1088
sbatp1089
Rp1090
(dp1091
g12
Vpobj
p1092
sbatp1093
Rp1094
(dp1095
g12
S'word: on, index: 13'
p1096
sbatp1097
Rp1098
(dp1099
g12
S'id: 11'
p1100
sbag0
(g1
g2
(lp1101
g0
(g1
g2
(lp1102
g0
(g1
g2
(lp1103
g0
(g1
g2
(lp1104
g0
(g1
g2
(lp1105
(lp1106
S'word: ballet, index: 19'
p1107
aatp1108
Rp1109
(dp1110
g12
Vamod
p1111
sbatp1112
Rp1113
(dp1114
g12
S'word: shoes, index: 20'
p1115
sbatp1116
Rp1117
(dp1118
g12
Vprep
p1119
sbag0
(g1
g2
(lp1120
g0
(g1
g2
(lp1121
g0
(g1
g2
(lp1122
g0
(g1
g2
(lp1123
g0
(g1
g2
(lp1124
g0
(g1
g2
(lp1125
g0
(g1
g2
(lp1126
(lp1127
S'word: the, index: 3'
p1128
aatp1129
Rp1130
(dp1131
g12
Vdet
p1132
sbatp1133
Rp1134
(dp1135
g12
S'word: girl, index: 4'
p1136
sbatp1137
Rp1138
(dp1139
g12
Vnsubj
p1140
sbag0
(g1
g2
(lp1141
(lp1142
S'word: has, index: 5'
p1143
aatp1144
Rp1145
(dp1146
g12
Vaux
p1147
sbag0
(g1
g2
(lp1148
g0
(g1
g2
(lp1149
g0
(g1
g2
(lp1150
(lp1151
S'word: ballet, index: 7'
p1152
aatp1153
Rp1154
(dp1155
g12
Vamod
p1156
sbatp1157
Rp1158
(dp1159
g12
S'word: sh, index: 8'
p1160
sbatp1161
Rp1162
(dp1163
g12
Vpobj
p1164
sbatp1165
Rp1166
(dp1167
g12
S'word: on, index: 6'
p1168
sbatp1169
Rp1170
(dp1171
g12
Vparataxis
p1172
sbag0
(g1
g2
(lp1173
g0
(g1
g2
(lp1174
g0
(g1
g2
(lp1175
(lp1176
S'word: no, index: 10'
p1177
aatp1178
Rp1179
(dp1180
g12
Vneg
p1181
sbatp1182
Rp1183
(dp1184
g12
S'word: I, index: 11'
p1185
sbatp1186
Rp1187
(dp1188
g12
Vnsubj
p1189
sbag0
(g1
g2
(lp1190
(lp1191
S'word: do, index: 12'
p1192
aatp1193
Rp1194
(dp1195
g12
Vaux
p1196
sbag0
(g1
g2
(lp1197
(lp1198
S"word: n't, index: 13"
p1199
aatp1200
Rp1201
(dp1202
g12
Vneg
p1203
sbag0
(g1
g2
(lp1204
(lp1205
S'word: Ok, index: 1'
p1206
aatp1207
Rp1208
(dp1209
g12
Vnsubj
p1210
sbatp1211
Rp1212
(dp1213
g12
S'word: know, index: 14'
p1214
sbatp1215
Rp1216
(dp1217
g12
Vccomp
p1218
sbag0
(g1
g2
(lp1219
(lp1220
S'word: it, index: 16'
p1221
aatp1222
Rp1223
(dp1224
g12
Vnsubj
p1225
sbatp1226
Rp1227
(dp1228
g12
S'word: looks, index: 17'
p1229
sbatp1230
Rp1231
(dp1232
g12
S'id: 12'
p1233
sbatp1234
Rp1235
(dp1236
g12
S'sentences'
p1237
sb.