ccopy_reg
_reconstructor
p0
(cnltk.tree
Tree
p1
c__builtin__
list
p2
(lp3
g0
(g1
g2
(lp4
g0
(g1
g2
(lp5
g0
(g1
g2
(lp6
Vthe brish the brish bris brush the brish britch b
p7
atp8
Rp9
(dp10
S'_label'
p11
S'start: 9'
p12
sbatp13
Rp14
(dp15
g11
S'sent: 6'
p16
sbag0
(g1
g2
(lp17
g0
(g1
g2
(lp18
Vit
p19
atp20
Rp21
(dp22
g11
S'start: 1'
p23
sbatp24
Rp25
(dp26
g11
S'sent: 7'
p27
sbatp28
Rp29
(dp30
g11
S'id: 13'
p31
sbag0
(g1
g2
(lp32
g0
(g1
g2
(lp33
g0
(g1
g2
(lp34
Va home
p35
atp36
Rp37
(dp38
g11
S'start: 8'
p39
sbatp40
Rp41
(dp42
g11
S'sent: 7'
p43
sbag0
(g1
g2
(lp44
g0
(g1
g2
(lp45
Va
p46
atp47
Rp48
(dp49
g11
S'start: 12'
p50
sbatp51
Rp52
(dp53
g11
S'sent: 7'
p54
sbag0
(g1
g2
(lp55
g0
(g1
g2
(lp56
Va
p57
atp58
Rp59
(dp60
g11
S'start: 3'
p61
sbatp62
Rp63
(dp64
g11
S'sent: 10'
p65
sbag0
(g1
g2
(lp66
g0
(g1
g2
(lp67
Va
p68
atp69
Rp70
(dp71
g11
S'start: 6'
p72
sbatp73
Rp74
(dp75
g11
S'sent: 10'
p76
sbatp77
Rp78
(dp79
g11
S'id: 19'
p80
sbag0
(g1
g2
(lp81
g0
(g1
g2
(lp82
g0
(g1
g2
(lp83
Vtwo
p84
atp85
Rp86
(dp87
g11
S'start: 3'
p88
sbatp89
Rp90
(dp91
g11
S'sent: 8'
p92
sbag0
(g1
g2
(lp93
g0
(g1
g2
(lp94
Vtwo
p95
atp96
Rp97
(dp98
g11
S'start: 5'
p99
sbatp100
Rp101
(dp102
g11
S'sent: 8'
p103
sbag0
(g1
g2
(lp104
g0
(g1
g2
(lp105
Vit
p106
atp107
Rp108
(dp109
g11
S'start: 1'
p110
sbatp111
Rp112
(dp113
g11
S'sent: 9'
p114
sbatp115
Rp116
(dp117
g11
S'id: 25'
p118
sbag0
(g1
g2
(lp119
g0
(g1
g2
(lp120
g0
(g1
g2
(lp121
Va tree
p122
atp123
Rp124
(dp125
g11
S'start: 1'
p126
sbatp127
Rp128
(dp129
g11
S'sent: 11'
p130
sbag0
(g1
g2
(lp131
g0
(g1
g2
(lp132
Va tree
p133
atp134
Rp135
(dp136
g11
S'start: 4'
p137
sbatp138
Rp139
(dp140
g11
S'sent: 11'
p141
sbag0
(g1
g2
(lp142
g0
(g1
g2
(lp143
Va tree
p144
atp145
Rp146
(dp147
g11
S'start: 7'
p148
sbatp149
Rp150
(dp151
g11
S'sent: 11'
p152
sbatp153
Rp154
(dp155
g11
S'id: 33'
p156
sbatp157
Rp158
(dp159
g11
S'coreferences'
p160
sb.