ccopy_reg
_reconstructor
p0
(cnltk.tree
Tree
p1
c__builtin__
list
p2
(lp3
g0
(g1
g2
(lp4
g0
(g1
g2
(lp5
g0
(g1
g2
(lp6
Vthe boy
p7
atp8
Rp9
(dp10
S'_label'
p11
S'start: 1'
p12
sbatp13
Rp14
(dp15
g11
S'sent: 1'
p16
sbag0
(g1
g2
(lp17
g0
(g1
g2
(lp18
Vthe boy
p19
atp20
Rp21
(dp22
g11
S'start: 5'
p23
sbatp24
Rp25
(dp26
g11
S'sent: 2'
p27
sbag0
(g1
g2
(lp28
g0
(g1
g2
(lp29
VThe boy
p30
atp31
Rp32
(dp33
g11
S'start: 1'
p34
sbatp35
Rp36
(dp37
g11
S'sent: 3'
p38
sbag0
(g1
g2
(lp39
g0
(g1
g2
(lp40
VThe boy
p41
atp42
Rp43
(dp44
g11
S'start: 1'
p45
sbatp46
Rp47
(dp48
g11
S'sent: 22'
p49
sbatp50
Rp51
(dp52
g11
S'id: 1'
p53
sbag0
(g1
g2
(lp54
g0
(g1
g2
(lp55
g0
(g1
g2
(lp56
VThe dog
p57
atp58
Rp59
(dp60
g11
S'start: 1'
p61
sbatp62
Rp63
(dp64
g11
S'sent: 2'
p65
sbag0
(g1
g2
(lp66
g0
(g1
g2
(lp67
VThe dog
p68
atp69
Rp70
(dp71
g11
S'start: 1'
p72
sbatp73
Rp74
(dp75
g11
S'sent: 23'
p76
sbag0
(g1
g2
(lp77
g0
(g1
g2
(lp78
Vhe
p79
atp80
Rp81
(dp82
g11
S'start: 8'
p83
sbatp84
Rp85
(dp86
g11
S'sent: 23'
p87
sbatp88
Rp89
(dp90
g11
S'id: 3'
p91
sbag0
(g1
g2
(lp92
g0
(g1
g2
(lp93
g0
(g1
g2
(lp94
Vshorts on
p95
atp96
Rp97
(dp98
g11
S'start: 4'
p99
sbatp100
Rp101
(dp102
g11
S'sent: 3'
p103
sbag0
(g1
g2
(lp104
g0
(g1
g2
(lp105
Vshorts
p106
atp107
Rp108
(dp109
g11
S'start: 17'
p110
sbatp111
Rp112
(dp113
g11
S'sent: 16'
p114
sbatp115
Rp116
(dp117
g11
S'id: 7'
p118
sbag0
(g1
g2
(lp119
g0
(g1
g2
(lp120
g0
(g1
g2
(lp121
Vthe sailboat
p122
atp123
Rp124
(dp125
g11
S'start: 3'
p126
sbatp127
Rp128
(dp129
g11
S'sent: 6'
p130
sbag0
(g1
g2
(lp131
g0
(g1
g2
(lp132
Vit
p133
atp134
Rp135
(dp136
g11
S'start: 6'
p137
sbatp138
Rp139
(dp140
g11
S'sent: 6'
p141
sbag0
(g1
g2
(lp142
g0
(g1
g2
(lp143
Vnumber on the sail is the four seventy
p144
atp145
Rp146
(dp147
g11
S'start: 8'
p148
sbatp149
Rp150
(dp151
g11
S'sent: 6'
p152
sbag0
(g1
g2
(lp153
g0
(g1
g2
(lp154
Vthe sailboat
p155
atp156
Rp157
(dp158
g11
S'start: 15'
p159
sbatp160
Rp161
(dp162
g11
S'sent: 24'
p163
sbatp164
Rp165
(dp166
g11
S'id: 12'
p167
sbag0
(g1
g2
(lp168
g0
(g1
g2
(lp169
g0
(g1
g2
(lp170
Van older gentleman trying to fish
p171
atp172
Rp173
(dp174
g11
S'start: 3'
p175
sbatp176
Rp177
(dp178
g11
S'sent: 7'
p179
sbag0
(g1
g2
(lp180
g0
(g1
g2
(lp181
Vhe
p182
atp183
Rp184
(dp185
g11
S'start: 7'
p186
sbatp187
Rp188
(dp189
g11
S'sent: 8'
p190
sbatp191
Rp192
(dp193
g11
S'id: 17'
p194
sbag0
(g1
g2
(lp195
g0
(g1
g2
(lp196
g0
(g1
g2
(lp197
Vfront of the house
p198
atp199
Rp200
(dp201
g11
S'start: 7'
p202
sbatp203
Rp204
(dp205
g11
S'sent: 10'
p206
sbag0
(g1
g2
(lp207
g0
(g1
g2
(lp208
Vfront of the house , a rather large shrubbery
p209
atp210
Rp211
(dp212
g11
S'start: 7'
p213
sbatp214
Rp215
(dp216
g11
S'sent: 12'
p217
sbatp218
Rp219
(dp220
g11
S'id: 24'
p221
sbag0
(g1
g2
(lp222
g0
(g1
g2
(lp223
g0
(g1
g2
(lp224
Vthe house
p225
atp226
Rp227
(dp228
g11
S'start: 9'
p229
sbatp230
Rp231
(dp232
g11
S'sent: 10'
p233
sbag0
(g1
g2
(lp234
g0
(g1
g2
(lp235
Vthe house
p236
atp237
Rp238
(dp239
g11
S'start: 6'
p240
sbatp241
Rp242
(dp243
g11
S'sent: 11'
p244
sbag0
(g1
g2
(lp245
g0
(g1
g2
(lp246
Vthe house , a rather large shrubbery
p247
atp248
Rp249
(dp250
g11
S'start: 9'
p251
sbatp252
Rp253
(dp254
g11
S'sent: 12'
p255
sbag0
(g1
g2
(lp256
g0
(g1
g2
(lp257
Vthe house
p258
atp259
Rp260
(dp261
g11
S'start: 9'
p262
sbatp263
Rp264
(dp265
g11
S'sent: 12'
p266
sbag0
(g1
g2
(lp267
g0
(g1
g2
(lp268
Va rather large shrubbery
p269
atp270
Rp271
(dp272
g11
S'start: 12'
p273
sbatp274
Rp275
(dp276
g11
S'sent: 12'
p277
sbatp278
Rp279
(dp280
g11
S'id: 25'
p281
sbag0
(g1
g2
(lp282
g0
(g1
g2
(lp283
g0
(g1
g2
(lp284
VThe man 's
p285
atp286
Rp287
(dp288
g11
S'start: 1'
p289
sbatp290
Rp291
(dp292
g11
S'sent: 15'
p293
sbag0
(g1
g2
(lp294
g0
(g1
g2
(lp295
Vhe
p296
atp297
Rp298
(dp299
g11
S'start: 12'
p300
sbatp301
Rp302
(dp303
g11
S'sent: 15'
p304
sbag0
(g1
g2
(lp305
g0
(g1
g2
(lp306
Vhe
p307
atp308
Rp309
(dp310
g11
S'start: 16'
p311
sbatp312
Rp313
(dp314
g11
S'sent: 15'
p315
sbag0
(g1
g2
(lp316
g0
(g1
g2
(lp317
Vhe
p318
atp319
Rp320
(dp321
g11
S'start: 20'
p322
sbatp323
Rp324
(dp325
g11
S'sent: 15'
p326
sbag0
(g1
g2
(lp327
g0
(g1
g2
(lp328
Vhe
p329
atp330
Rp331
(dp332
g11
S'start: 24'
p333
sbatp334
Rp335
(dp336
g11
S'sent: 15'
p337
sbatp338
Rp339
(dp340
g11
S'id: 38'
p341
sbag0
(g1
g2
(lp342
g0
(g1
g2
(lp343
g0
(g1
g2
(lp344
VThe woman
p345
atp346
Rp347
(dp348
g11
S'start: 1'
p349
sbatp350
Rp351
(dp352
g11
S'sent: 16'
p353
sbag0
(g1
g2
(lp354
g0
(g1
g2
(lp355
Vshe
p356
atp357
Rp358
(dp359
g11
S'start: 10'
p360
sbatp361
Rp362
(dp363
g11
S'sent: 16'
p364
sbag0
(g1
g2
(lp365
g0
(g1
g2
(lp366
VThe woman
p367
atp368
Rp369
(dp370
g11
S'start: 1'
p371
sbatp372
Rp373
(dp374
g11
S'sent: 18'
p375
sbag0
(g1
g2
(lp376
g0
(g1
g2
(lp377
Vher
p378
atp379
Rp380
(dp381
g11
S'start: 4'
p382
sbatp383
Rp384
(dp385
g11
S'sent: 18'
p386
sbag0
(g1
g2
(lp387
g0
(g1
g2
(lp388
Vthe woman
p389
atp390
Rp391
(dp392
g11
S'start: 2'
p393
sbatp394
Rp395
(dp396
g11
S'sent: 20'
p397
sbag0
(g1
g2
(lp398
g0
(g1
g2
(lp399
Vshe
p400
atp401
Rp402
(dp403
g11
S'start: 13'
p404
sbatp405
Rp406
(dp407
g11
S'sent: 20'
p408
sbatp409
Rp410
(dp411
g11
S'id: 47'
p412
sbag0
(g1
g2
(lp413
g0
(g1
g2
(lp414
g0
(g1
g2
(lp415
Va glass of wine
p416
atp417
Rp418
(dp419
g11
S'start: 5'
p420
sbatp421
Rp422
(dp423
g11
S'sent: 16'
p424
sbag0
(g1
g2
(lp425
g0
(g1
g2
(lp426
Vthe glass
p427
atp428
Rp429
(dp430
g11
S'start: 8'
p431
sbatp432
Rp433
(dp434
g11
S'sent: 20'
p435
sbatp436
Rp437
(dp438
g11
S'id: 48'
p439
sbag0
(g1
g2
(lp440
g0
(g1
g2
(lp441
g0
(g1
g2
(lp442
VI
p443
atp444
Rp445
(dp446
g11
S'start: 6'
p447
sbatp448
Rp449
(dp450
g11
S'sent: 17'
p451
sbag0
(g1
g2
(lp452
g0
(g1
g2
(lp453
VI
p454
atp455
Rp456
(dp457
g11
S'start: 11'
p458
sbatp459
Rp460
(dp461
g11
S'sent: 23'
p462
sbatp463
Rp464
(dp465
g11
S'id: 53'
p466
sbag0
(g1
g2
(lp467
g0
(g1
g2
(lp468
g0
(g1
g2
(lp469
Va lunch
p470
atp471
Rp472
(dp473
g11
S'start: 3'
p474
sbatp475
Rp476
(dp477
g11
S'sent: 19'
p478
sbag0
(g1
g2
(lp479
g0
(g1
g2
(lp480
Va lunch bucket that
p481
atp482
Rp483
(dp484
g11
S'start: 6'
p485
sbatp486
Rp487
(dp488
g11
S'sent: 19'
p489
sbatp490
Rp491
(dp492
g11
S'id: 61'
p493
sbag0
(g1
g2
(lp494
g0
(g1
g2
(lp495
g0
(g1
g2
(lp496
Va collar
p497
atp498
Rp499
(dp500
g11
S'start: 4'
p501
sbatp502
Rp503
(dp504
g11
S'sent: 23'
p505
sbag0
(g1
g2
(lp506
g0
(g1
g2
(lp507
Vthe collar
p508
atp509
Rp510
(dp511
g11
S'start: 17'
p512
sbatp513
Rp514
(dp515
g11
S'sent: 23'
p516
sbatp517
Rp518
(dp519
g11
S'id: 73'
p520
sbag0
(g1
g2
(lp521
g0
(g1
g2
(lp522
g0
(g1
g2
(lp523
Vthe
p524
atp525
Rp526
(dp527
g11
S'start: 19'
p528
sbatp529
Rp530
(dp531
g11
S'sent: 23'
p532
sbag0
(g1
g2
(lp533
g0
(g1
g2
(lp534
Vthe bevisis
p535
atp536
Rp537
(dp538
g11
S'start: 21'
p539
sbatp540
Rp541
(dp542
g11
S'sent: 23'
p543
sbatp544
Rp545
(dp546
g11
S'id: 79'
p547
sbatp548
Rp549
(dp550
g11
S'coreferences'
p551
sb.