ccopy_reg
_reconstructor
p0
(cnltk.tree
Tree
p1
c__builtin__
list
p2
(lp3
g0
(g1
g2
(lp4
g0
(g1
g2
(lp5
g0
(g1
g2
(lp6
g0
(g1
g2
(lp7
Vair
p8
atp9
Rp10
(dp11
S'_label'
p12
VNN
p13
sbatp14
Rp15
(dp16
g12
VNP
p17
sbag0
(g1
g2
(lp18
g0
(g1
g2
(lp19
g0
(g1
g2
(lp20
Vthe
p21
atp22
Rp23
(dp24
g12
VDT
p25
sbag0
(g1
g2
(lp26
Vpeople
p27
atp28
Rp29
(dp30
g12
VNNS
p31
sbatp32
Rp33
(dp34
g12
VNP
p35
sbag0
(g1
g2
(lp36
V,
p37
atp38
Rp39
(dp40
g12
V,
p41
sbag0
(g1
g2
(lp42
g0
(g1
g2
(lp43
Va
p44
atp45
Rp46
(dp47
g12
VDT
p48
sbag0
(g1
g2
(lp49
Vcircus
p50
atp51
Rp52
(dp53
g12
VNN
p54
sbatp55
Rp56
(dp57
g12
VNP
p58
sbatp59
Rp60
(dp61
g12
VNP
p62
sbag0
(g1
g2
(lp63
V.
p64
atp65
Rp66
(dp67
g12
V.
p68
sbatp69
Rp70
(dp71
g12
VNP
p72
sbatp73
Rp74
(dp75
g12
S'id: 0'
p76
sbag0
(g1
g2
(lp77
g0
(g1
g2
(lp78
g0
(g1
g2
(lp79
VAnd
p80
atp81
Rp82
(dp83
g12
VCC
p84
sbag0
(g1
g2
(lp85
g0
(g1
g2
(lp86
Vthere
p87
atp88
Rp89
(dp90
g12
VEX
p91
sbatp92
Rp93
(dp94
g12
VNP
p95
sbag0
(g1
g2
(lp96
g0
(g1
g2
(lp97
V's
p98
atp99
Rp100
(dp101
g12
VVBZ
p102
sbag0
(g1
g2
(lp103
g0
(g1
g2
(lp104
g0
(g1
g2
(lp105
Va
p106
atp107
Rp108
(dp109
g12
VDT
p110
sbag0
(g1
g2
(lp111
Vman
p112
atp113
Rp114
(dp115
g12
VNN
p116
sbatp117
Rp118
(dp119
g12
VNP
p120
sbag0
(g1
g2
(lp121
g0
(g1
g2
(lp122
Vriding
p123
atp124
Rp125
(dp126
g12
VVBG
p127
sbag0
(g1
g2
(lp128
g0
(g1
g2
(lp129
Vthe
p130
atp131
Rp132
(dp133
g12
VDT
p134
sbag0
(g1
g2
(lp135
Vwahl
p136
atp137
Rp138
(dp139
g12
VNN
p140
sbatp141
Rp142
(dp143
g12
VNP
p144
sbag0
(g1
g2
(lp145
V,
p146
atp147
Rp148
(dp149
g12
V,
p150
sbag0
(g1
g2
(lp151
g0
(g1
g2
(lp152
Von
p153
atp154
Rp155
(dp156
g12
VIN
p157
sbag0
(g1
g2
(lp158
g0
(g1
g2
(lp159
Vthe
p160
atp161
Rp162
(dp163
g12
VDT
p164
sbag0
(g1
g2
(lp165
Vwater
p166
atp167
Rp168
(dp169
g12
VNN
p170
sbatp171
Rp172
(dp173
g12
VNP
p174
sbatp175
Rp176
(dp177
g12
VPP
p178
sbatp179
Rp180
(dp181
g12
VVP
p182
sbatp183
Rp184
(dp185
g12
VNP
p186
sbatp187
Rp188
(dp189
g12
VVP
p190
sbag0
(g1
g2
(lp191
V.
p192
atp193
Rp194
(dp195
g12
V.
p196
sbatp197
Rp198
(dp199
g12
VS
p200
sbatp201
Rp202
(dp203
g12
S'id: 1'
p204
sbag0
(g1
g2
(lp205
g0
(g1
g2
(lp206
g0
(g1
g2
(lp207
g0
(g1
g2
(lp208
VThere
p209
atp210
Rp211
(dp212
g12
VEX
p213
sbatp214
Rp215
(dp216
g12
VNP
p217
sbag0
(g1
g2
(lp218
g0
(g1
g2
(lp219
g0
(g1
g2
(lp220
g0
(g1
g2
(lp221
g0
(g1
g2
(lp222
Vpeople
p223
atp224
Rp225
(dp226
g12
VNNS
p227
sbatp228
Rp229
(dp230
g12
VNP
p231
sbag0
(g1
g2
(lp232
g0
(g1
g2
(lp233
g0
(g1
g2
(lp234
Vsitting
p235
atp236
Rp237
(dp238
g12
VVBG
p239
sbag0
(g1
g2
(lp240
g0
(g1
g2
(lp241
Vthere
p242
atp243
Rp244
(dp245
g12
VRB
p246
sbatp247
Rp248
(dp249
g12
VADVP
p250
sbatp251
Rp252
(dp253
g12
VVP
p254
sbag0
(g1
g2
(lp255
Vand
p256
atp257
Rp258
(dp259
g12
VCC
p260
sbag0
(g1
g2
(lp261
g0
(g1
g2
(lp262
Vlooking
p263
atp264
Rp265
(dp266
g12
VVBG
p267
sbag0
(g1
g2
(lp268
g0
(g1
g2
(lp269
Vat
p270
atp271
Rp272
(dp273
g12
VIN
p274
sbag0
(g1
g2
(lp275
g0
(g1
g2
(lp276
Vanything
p277
atp278
Rp279
(dp280
g12
VNN
p281
sbatp282
Rp283
(dp284
g12
VNP
p285
sbatp286
Rp287
(dp288
g12
VPP
p289
sbatp290
Rp291
(dp292
g12
VVP
p293
sbatp294
Rp295
(dp296
g12
VVP
p297
sbatp298
Rp299
(dp300
g12
VNP
p301
sbatp302
Rp303
(dp304
g12
VS
p305
sbatp306
Rp307
(dp308
g12
VVP
p309
sbag0
(g1
g2
(lp310
V.
p311
atp312
Rp313
(dp314
g12
V.
p315
sbatp316
Rp317
(dp318
g12
VS
p319
sbatp320
Rp321
(dp322
g12
S'id: 2'
p323
sbag0
(g1
g2
(lp324
g0
(g1
g2
(lp325
g0
(g1
g2
(lp326
g0
(g1
g2
(lp327
g0
(g1
g2
(lp328
VWhy
p329
atp330
Rp331
(dp332
g12
VWRB
p333
sbatp334
Rp335
(dp336
g12
VWHADVP
p337
sbag0
(g1
g2
(lp338
g0
(g1
g2
(lp339
g0
(g1
g2
(lp340
Vsitting
p341
atp342
Rp343
(dp344
g12
VVBG
p345
sbag0
(g1
g2
(lp346
g0
(g1
g2
(lp347
Vthere
p348
atp349
Rp350
(dp351
g12
VRB
p352
sbatp353
Rp354
(dp355
g12
VADVP
p356
sbatp357
Rp358
(dp359
g12
VVP
p360
sbatp361
Rp362
(dp363
g12
VS
p364
sbatp365
Rp366
(dp367
g12
VSBAR
p368
sbag0
(g1
g2
(lp369
g0
(g1
g2
(lp370
VI
p371
atp372
Rp373
(dp374
g12
VPRP
p375
sbatp376
Rp377
(dp378
g12
VNP
p379
sbag0
(g1
g2
(lp380
g0
(g1
g2
(lp381
Vhave
p382
atp383
Rp384
(dp385
g12
VVBP
p386
sbag0
(g1
g2
(lp387
g0
(g1
g2
(lp388
Vno
p389
atp390
Rp391
(dp392
g12
VDT
p393
sbag0
(g1
g2
(lp394
Videa
p395
atp396
Rp397
(dp398
g12
VNN
p399
sbatp400
Rp401
(dp402
g12
VNP
p403
sbag0
(g1
g2
(lp404
V,
p405
atp406
Rp407
(dp408
g12
V,
p409
sbag0
(g1
g2
(lp410
g0
(g1
g2
(lp411
Vmaybe
p412
atp413
Rp414
(dp415
g12
VRB
p416
sbag0
(g1
g2
(lp417
Vthat
p418
atp419
Rp420
(dp421
g12
VIN
p422
sbatp423
Rp424
(dp425
g12
VADVP
p426
sbatp427
Rp428
(dp429
g12
VVP
p430
sbag0
(g1
g2
(lp431
V.
p432
atp433
Rp434
(dp435
g12
V.
p436
sbatp437
Rp438
(dp439
g12
VS
p440
sbatp441
Rp442
(dp443
g12
S'id: 3'
p444
sbag0
(g1
g2
(lp445
g0
(g1
g2
(lp446
g0
(g1
g2
(lp447
g0
(g1
g2
(lp448
g0
(g1
g2
(lp449
VThere
p450
atp451
Rp452
(dp453
g12
VEX
p454
sbatp455
Rp456
(dp457
g12
VNP
p458
sbag0
(g1
g2
(lp459
g0
(g1
g2
(lp460
V's
p461
atp462
Rp463
(dp464
g12
VVBZ
p465
sbag0
(g1
g2
(lp466
g0
(g1
g2
(lp467
g0
(g1
g2
(lp468
Va
p469
atp470
Rp471
(dp472
g12
VDT
p473
sbag0
(g1
g2
(lp474
Vlayer
p475
atp476
Rp477
(dp478
g12
VNN
p479
sbatp480
Rp481
(dp482
g12
VNP
p483
sbag0
(g1
g2
(lp484
g0
(g1
g2
(lp485
Von
p486
atp487
Rp488
(dp489
g12
VIN
p490
sbag0
(g1
g2
(lp491
g0
(g1
g2
(lp492
g0
(g1
g2
(lp493
Vthe
p494
atp495
Rp496
(dp497
g12
VDT
p498
sbatp499
Rp500
(dp501
g12
VNP
p502
sbag0
(g1
g2
(lp503
V,
p504
atp505
Rp506
(dp507
g12
V,
p508
sbag0
(g1
g2
(lp509
g0
(g1
g2
(lp510
g0
(g1
g2
(lp511
Vpulling
p512
atp513
Rp514
(dp515
g12
VVBG
p516
sbatp517
Rp518
(dp519
g12
VNP
p520
sbag0
(g1
g2
(lp521
V,
p522
atp523
Rp524
(dp525
g12
V,
p526
sbag0
(g1
g2
(lp527
g0
(g1
g2
(lp528
Vthe
p529
atp530
Rp531
(dp532
g12
VDT
p533
sbatp534
Rp535
(dp536
g12
VNP
p537
sbatp538
Rp539
(dp540
g12
VNP
p541
sbatp542
Rp543
(dp544
g12
VNP
p545
sbatp546
Rp547
(dp548
g12
VPP
p549
sbatp550
Rp551
(dp552
g12
VNP
p553
sbatp554
Rp555
(dp556
g12
VVP
p557
sbatp558
Rp559
(dp560
g12
VS
p561
sbag0
(g1
g2
(lp562
V,
p563
atp564
Rp565
(dp566
g12
V,
p567
sbag0
(g1
g2
(lp568
g0
(g1
g2
(lp569
Vcur
p570
atp571
Rp572
(dp573
g12
VJJ
p574
sbag0
(g1
g2
(lp575
Vhorse
p576
atp577
Rp578
(dp579
g12
VNN
p580
sbatp581
Rp582
(dp583
g12
VNP
p584
sbag0
(g1
g2
(lp585
g0
(g1
g2
(lp586
Vis
p587
atp588
Rp589
(dp590
g12
VVBZ
p591
sbag0
(g1
g2
(lp592
g0
(g1
g2
(lp593
Von
p594
atp595
Rp596
(dp597
g12
VIN
p598
sbag0
(g1
g2
(lp599
g0
(g1
g2
(lp600
Vthis
p601
atp602
Rp603
(dp604
g12
VDT
p605
sbag0
(g1
g2
(lp606
Vwoman
p607
atp608
Rp609
(dp610
g12
VNN
p611
sbatp612
Rp613
(dp614
g12
VNP
p615
sbatp616
Rp617
(dp618
g12
VPP
p619
sbatp620
Rp621
(dp622
g12
VVP
p623
sbag0
(g1
g2
(lp624
V.
p625
atp626
Rp627
(dp628
g12
V.
p629
sbatp630
Rp631
(dp632
g12
VS
p633
sbatp634
Rp635
(dp636
g12
S'id: 4'
p637
sbag0
(g1
g2
(lp638
g0
(g1
g2
(lp639
g0
(g1
g2
(lp640
g0
(g1
g2
(lp641
g0
(g1
g2
(lp642
VThere
p643
atp644
Rp645
(dp646
g12
VEX
p647
sbatp648
Rp649
(dp650
g12
VNP
p651
sbag0
(g1
g2
(lp652
g0
(g1
g2
(lp653
V's
p654
atp655
Rp656
(dp657
g12
VVBZ
p658
sbag0
(g1
g2
(lp659
g0
(g1
g2
(lp660
Va
p661
atp662
Rp663
(dp664
g12
VDT
p665
sbatp666
Rp667
(dp668
g12
VNP
p669
sbatp670
Rp671
(dp672
g12
VVP
p673
sbatp674
Rp675
(dp676
g12
VS
p677
sbag0
(g1
g2
(lp678
g0
(g1
g2
(lp679
V,
p680
atp681
Rp682
(dp683
g12
V,
p684
sbag0
(g1
g2
(lp685
g0
(g1
g2
(lp686
g0
(g1
g2
(lp687
Vthere
p688
atp689
Rp690
(dp691
g12
VEX
p692
sbatp693
Rp694
(dp695
g12
VNP
p696
sbag0
(g1
g2
(lp697
g0
(g1
g2
(lp698
V's
p699
atp700
Rp701
(dp702
g12
VVBZ
p703
sbag0
(g1
g2
(lp704
g0
(g1
g2
(lp705
g0
(g1
g2
(lp706
Va
p707
atp708
Rp709
(dp710
g12
VDT
p711
sbag0
(g1
g2
(lp712
Vman
p713
atp714
Rp715
(dp716
g12
VNN
p717
sbatp718
Rp719
(dp720
g12
VNP
p721
sbag0
(g1
g2
(lp722
Vand
p723
atp724
Rp725
(dp726
g12
VCC
p727
sbag0
(g1
g2
(lp728
g0
(g1
g2
(lp729
Vtwo
p730
atp731
Rp732
(dp733
g12
VCD
p734
sbag0
(g1
g2
(lp735
Vfamily
p736
atp737
Rp738
(dp739
g12
VNN
p740
sbatp741
Rp742
(dp743
g12
VNP
p744
sbatp745
Rp746
(dp747
g12
VNP
p748
sbatp749
Rp750
(dp751
g12
VVP
p752
sbatp753
Rp754
(dp755
g12
VS
p756
sbag0
(g1
g2
(lp757
V,
p758
atp759
Rp760
(dp761
g12
V,
p762
sbatp763
Rp764
(dp765
g12
VPRN
p766
sbag0
(g1
g2
(lp767
Vand
p768
atp769
Rp770
(dp771
g12
VCC
p772
sbag0
(g1
g2
(lp773
g0
(g1
g2
(lp774
g0
(g1
g2
(lp775
Vsome
p776
atp777
Rp778
(dp779
g12
VDT
p780
sbag0
(g1
g2
(lp781
Vkids
p782
atp783
Rp784
(dp785
g12
VNNS
p786
sbatp787
Rp788
(dp789
g12
VNP
p790
sbag0
(g1
g2
(lp791
g0
(g1
g2
(lp792
Vthrowing
p793
atp794
Rp795
(dp796
g12
VVBG
p797
sbag0
(g1
g2
(lp798
g0
(g1
g2
(lp799
Vglasses
p800
atp801
Rp802
(dp803
g12
VNNS
p804
sbatp805
Rp806
(dp807
g12
VNP
p808
sbag0
(g1
g2
(lp809
g0
(g1
g2
(lp810
Von
p811
atp812
Rp813
(dp814
g12
VIN
p815
sbag0
(g1
g2
(lp816
g0
(g1
g2
(lp817
Vhim
p818
atp819
Rp820
(dp821
g12
VPRP
p822
sbatp823
Rp824
(dp825
g12
VNP
p826
sbatp827
Rp828
(dp829
g12
VPP
p830
sbatp831
Rp832
(dp833
g12
VVP
p834
sbatp835
Rp836
(dp837
g12
VS
p838
sbag0
(g1
g2
(lp839
V.
p840
atp841
Rp842
(dp843
g12
V.
p844
sbatp845
Rp846
(dp847
g12
VS
p848
sbatp849
Rp850
(dp851
g12
S'id: 5'
p852
sbag0
(g1
g2
(lp853
g0
(g1
g2
(lp854
g0
(g1
g2
(lp855
VAnd
p856
atp857
Rp858
(dp859
g12
VCC
p860
sbag0
(g1
g2
(lp861
g0
(g1
g2
(lp862
Vhere
p863
atp864
Rp865
(dp866
g12
VRB
p867
sbatp868
Rp869
(dp870
g12
VNP
p871
sbag0
(g1
g2
(lp872
g0
(g1
g2
(lp873
V's
p874
atp875
Rp876
(dp877
g12
VVBZ
p878
sbag0
(g1
g2
(lp879
g0
(g1
g2
(lp880
g0
(g1
g2
(lp881
Va
p882
atp883
Rp884
(dp885
g12
VDT
p886
sbag0
(g1
g2
(lp887
Vman
p888
atp889
Rp890
(dp891
g12
VNN
p892
sbatp893
Rp894
(dp895
g12
VNP
p896
sbag0
(g1
g2
(lp897
g0
(g1
g2
(lp898
Vthrowing
p899
atp900
Rp901
(dp902
g12
VVBG
p903
sbag0
(g1
g2
(lp904
g0
(g1
g2
(lp905
Von
p906
atp907
Rp908
(dp909
g12
VIN
p910
sbag0
(g1
g2
(lp911
g0
(g1
g2
(lp912
Vthe
p913
atp914
Rp915
(dp916
g12
VDT
p917
sbag0
(g1
g2
(lp918
Vkid
p919
atp920
Rp921
(dp922
g12
VNN
p923
sbatp924
Rp925
(dp926
g12
VNP
p927
sbatp928
Rp929
(dp930
g12
VPP
p931
sbatp932
Rp933
(dp934
g12
VVP
p935
sbatp936
Rp937
(dp938
g12
VNP
p939
sbatp940
Rp941
(dp942
g12
VVP
p943
sbag0
(g1
g2
(lp944
V.
p945
atp946
Rp947
(dp948
g12
V.
p949
sbatp950
Rp951
(dp952
g12
VS
p953
sbatp954
Rp955
(dp956
g12
S'id: 6'
p957
sbag0
(g1
g2
(lp958
g0
(g1
g2
(lp959
g0
(g1
g2
(lp960
g0
(g1
g2
(lp961
g0
(g1
g2
(lp962
g0
(g1
g2
(lp963
VHere
p964
atp965
Rp966
(dp967
g12
VRB
p968
sbatp969
Rp970
(dp971
g12
VNP
p972
sbag0
(g1
g2
(lp973
g0
(g1
g2
(lp974
V's
p975
atp976
Rp977
(dp978
g12
VVBZ
p979
sbag0
(g1
g2
(lp980
g0
(g1
g2
(lp981
g0
(g1
g2
(lp982
Vtwo
p983
atp984
Rp985
(dp986
g12
VCD
p987
sbag0
(g1
g2
(lp988
Vpeople
p989
atp990
Rp991
(dp992
g12
VNNS
p993
sbatp994
Rp995
(dp996
g12
VNP
p997
sbag0
(g1
g2
(lp998
g0
(g1
g2
(lp999
g0
(g1
g2
(lp1000
g0
(g1
g2
(lp1001
Vwatch
p1002
atp1003
Rp1004
(dp1005
g12
VVBP
p1006
sbag0
(g1
g2
(lp1007
g0
(g1
g2
(lp1008
Vthis
p1009
atp1010
Rp1011
(dp1012
g12
VDT
p1013
sbatp1014
Rp1015
(dp1016
g12
VNP
p1017
sbatp1018
Rp1019
(dp1020
g12
VVP
p1021
sbatp1022
Rp1023
(dp1024
g12
VS
p1025
sbatp1026
Rp1027
(dp1028
g12
VSBAR
p1029
sbatp1030
Rp1031
(dp1032
g12
VNP
p1033
sbatp1034
Rp1035
(dp1036
g12
VVP
p1037
sbatp1038
Rp1039
(dp1040
g12
VS
p1041
sbag0
(g1
g2
(lp1042
V,
p1043
atp1044
Rp1045
(dp1046
g12
V,
p1047
sbag0
(g1
g2
(lp1048
Vbut
p1049
atp1050
Rp1051
(dp1052
g12
VCC
p1053
sbag0
(g1
g2
(lp1054
g0
(g1
g2
(lp1055
g0
(g1
g2
(lp1056
g0
(g1
g2
(lp1057
Vno
p1058
atp1059
Rp1060
(dp1061
g12
VDT
p1062
sbag0
(g1
g2
(lp1063
Vone
p1064
atp1065
Rp1066
(dp1067
g12
VNN
p1068
sbatp1069
Rp1070
(dp1071
g12
VNP
p1072
sbag0
(g1
g2
(lp1073
g0
(g1
g2
(lp1074
Vseems
p1075
atp1076
Rp1077
(dp1078
g12
VVBZ
p1079
sbag0
(g1
g2
(lp1080
g0
(g1
g2
(lp1081
g0
(g1
g2
(lp1082
Vto
p1083
atp1084
Rp1085
(dp1086
g12
VTO
p1087
sbag0
(g1
g2
(lp1088
g0
(g1
g2
(lp1089
Vbe
p1090
atp1091
Rp1092
(dp1093
g12
VVB
p1094
sbag0
(g1
g2
(lp1095
g0
(g1
g2
(lp1096
Vtalking
p1097
atp1098
Rp1099
(dp1100
g12
VVBG
p1101
sbag0
(g1
g2
(lp1102
g0
(g1
g2
(lp1103
Vto
p1104
atp1105
Rp1106
(dp1107
g12
VTO
p1108
sbag0
(g1
g2
(lp1109
g0
(g1
g2
(lp1110
g0
(g1
g2
(lp1111
Vthe
p1112
atp1113
Rp1114
(dp1115
g12
VDT
p1116
sbag0
(g1
g2
(lp1117
Vamp
p1118
atp1119
Rp1120
(dp1121
g12
VNN
p1122
sbatp1123
Rp1124
(dp1125
g12
VNP
p1126
sbag0
(g1
g2
(lp1127
V,
p1128
atp1129
Rp1130
(dp1131
g12
V,
p1132
sbag0
(g1
g2
(lp1133
g0
(g1
g2
(lp1134
g0
(g1
g2
(lp1135
Vman
p1136
atp1137
Rp1138
(dp1139
g12
VNN
p1140
sbatp1141
Rp1142
(dp1143
g12
VNP
p1144
sbag0
(g1
g2
(lp1145
g0
(g1
g2
(lp1146
Vtrying
p1147
atp1148
Rp1149
(dp1150
g12
VVBG
p1151
sbag0
(g1
g2
(lp1152
g0
(g1
g2
(lp1153
g0
(g1
g2
(lp1154
Vto
p1155
atp1156
Rp1157
(dp1158
g12
VTO
p1159
sbag0
(g1
g2
(lp1160
g0
(g1
g2
(lp1161
g0
(g1
g2
(lp1162
Vkill
p1163
atp1164
Rp1165
(dp1166
g12
VVB
p1167
sbatp1168
Rp1169
(dp1170
g12
VVP
p1171
sbag0
(g1
g2
(lp1172
V,
p1173
atp1174
Rp1175
(dp1176
g12
V,
p1177
sbag0
(g1
g2
(lp1178
g0
(g1
g2
(lp1179
Vplay
p1180
atp1181
Rp1182
(dp1183
g12
VVB
p1184
sbag0
(g1
g2
(lp1185
g0
(g1
g2
(lp1186
Vwith
p1187
atp1188
Rp1189
(dp1190
g12
VIN
p1191
sbatp1192
Rp1193
(dp1194
g12
VPP
p1195
sbatp1196
Rp1197
(dp1198
g12
VVP
p1199
sbag0
(g1
g2
(lp1200
V,
p1201
atp1202
Rp1203
(dp1204
g12
V,
p1205
sbag0
(g1
g2
(lp1206
g0
(g1
g2
(lp1207
g0
(g1
g2
(lp1208
g0
(g1
g2
(lp1209
Vthe
p1210
atp1211
Rp1212
(dp1213
g12
VDT
p1214
sbatp1215
Rp1216
(dp1217
g12
VNP
p1218
sbag0
(g1
g2
(lp1219
V,
p1220
atp1221
Rp1222
(dp1223
g12
V,
p1224
sbag0
(g1
g2
(lp1225
g0
(g1
g2
(lp1226
Vwith
p1227
atp1228
Rp1229
(dp1230
g12
VIN
p1231
sbag0
(g1
g2
(lp1232
g0
(g1
g2
(lp1233
Vthe
p1234
atp1235
Rp1236
(dp1237
g12
VDT
p1238
sbatp1239
Rp1240
(dp1241
g12
VNP
p1242
sbatp1243
Rp1244
(dp1245
g12
VPP
p1246
sbag0
(g1
g2
(lp1247
V,
p1248
atp1249
Rp1250
(dp1251
g12
V,
p1252
sbatp1253
Rp1254
(dp1255
g12
VNP
p1256
sbag0
(g1
g2
(lp1257
g0
(g1
g2
(lp1258
Vwith
p1259
atp1260
Rp1261
(dp1262
g12
VIN
p1263
sbag0
(g1
g2
(lp1264
g0
(g1
g2
(lp1265
Vthe
p1266
atp1267
Rp1268
(dp1269
g12
VDT
p1270
sbag0
(g1
g2
(lp1271
Vline
p1272
atp1273
Rp1274
(dp1275
g12
VNN
p1276
sbatp1277
Rp1278
(dp1279
g12
VNP
p1280
sbatp1281
Rp1282
(dp1283
g12
VPP
p1284
sbatp1285
Rp1286
(dp1287
g12
VNP
p1288
sbatp1289
Rp1290
(dp1291
g12
VVP
p1292
sbatp1293
Rp1294
(dp1295
g12
VVP
p1296
sbatp1297
Rp1298
(dp1299
g12
VS
p1300
sbatp1301
Rp1302
(dp1303
g12
VVP
p1304
sbatp1305
Rp1306
(dp1307
g12
VNP
p1308
sbatp1309
Rp1310
(dp1311
g12
VNP
p1312
sbatp1313
Rp1314
(dp1315
g12
VPP
p1316
sbatp1317
Rp1318
(dp1319
g12
VVP
p1320
sbatp1321
Rp1322
(dp1323
g12
VVP
p1324
sbatp1325
Rp1326
(dp1327
g12
VVP
p1328
sbatp1329
Rp1330
(dp1331
g12
VS
p1332
sbatp1333
Rp1334
(dp1335
g12
VVP
p1336
sbatp1337
Rp1338
(dp1339
g12
VS
p1340
sbag0
(g1
g2
(lp1341
V,
p1342
atp1343
Rp1344
(dp1345
g12
V,
p1346
sbag0
(g1
g2
(lp1347
Vbut
p1348
atp1349
Rp1350
(dp1351
g12
VCC
p1352
sbag0
(g1
g2
(lp1353
g0
(g1
g2
(lp1354
g0
(g1
g2
(lp1355
Vhe
p1356
atp1357
Rp1358
(dp1359
g12
VPRP
p1360
sbatp1361
Rp1362
(dp1363
g12
VNP
p1364
sbag0
(g1
g2
(lp1365
g0
(g1
g2
(lp1366
V's
p1367
atp1368
Rp1369
(dp1370
g12
VVBZ
p1371
sbag0
(g1
g2
(lp1372
Vnot
p1373
atp1374
Rp1375
(dp1376
g12
VRB
p1377
sbag0
(g1
g2
(lp1378
g0
(g1
g2
(lp1379
Vdressing
p1380
atp1381
Rp1382
(dp1383
g12
VVBG
p1384
sbag0
(g1
g2
(lp1385
g0
(g1
g2
(lp1386
Vproperly
p1387
atp1388
Rp1389
(dp1390
g12
VRB
p1391
sbatp1392
Rp1393
(dp1394
g12
VADVP
p1395
sbatp1396
Rp1397
(dp1398
g12
VVP
p1399
sbatp1400
Rp1401
(dp1402
g12
VVP
p1403
sbatp1404
Rp1405
(dp1406
g12
VS
p1407
sbatp1408
Rp1409
(dp1410
g12
VS
p1411
sbatp1412
Rp1413
(dp1414
g12
VS
p1415
sbag0
(g1
g2
(lp1416
V,
p1417
atp1418
Rp1419
(dp1420
g12
V,
p1421
sbag0
(g1
g2
(lp1422
g0
(g1
g2
(lp1423
Vhe
p1424
atp1425
Rp1426
(dp1427
g12
VPRP
p1428
sbatp1429
Rp1430
(dp1431
g12
VNP
p1432
sbag0
(g1
g2
(lp1433
g0
(g1
g2
(lp1434
Vis
p1435
atp1436
Rp1437
(dp1438
g12
VVBZ
p1439
sbag0
(g1
g2
(lp1440
Vn't
p1441
atp1442
Rp1443
(dp1444
g12
VRB
p1445
sbag0
(g1
g2
(lp1446
g0
(g1
g2
(lp1447
Vwearing
p1448
atp1449
Rp1450
(dp1451
g12
VVBG
p1452
sbag0
(g1
g2
(lp1453
g0
(g1
g2
(lp1454
Vtheir
p1455
atp1456
Rp1457
(dp1458
g12
VPRP$
p1459
sbag0
(g1
g2
(lp1460
Voutfit
p1461
atp1462
Rp1463
(dp1464
g12
VNN
p1465
sbatp1466
Rp1467
(dp1468
g12
VNP
p1469
sbatp1470
Rp1471
(dp1472
g12
VVP
p1473
sbatp1474
Rp1475
(dp1476
g12
VVP
p1477
sbag0
(g1
g2
(lp1478
V.
p1479
atp1480
Rp1481
(dp1482
g12
V.
p1483
sbatp1484
Rp1485
(dp1486
g12
VS
p1487
sbatp1488
Rp1489
(dp1490
g12
S'id: 7'
p1491
sbag0
(g1
g2
(lp1492
g0
(g1
g2
(lp1493
g0
(g1
g2
(lp1494
g0
(g1
g2
(lp1495
VHe
p1496
atp1497
Rp1498
(dp1499
g12
VPRP
p1500
sbatp1501
Rp1502
(dp1503
g12
VNP
p1504
sbag0
(g1
g2
(lp1505
g0
(g1
g2
(lp1506
Vlooks
p1507
atp1508
Rp1509
(dp1510
g12
VVBZ
p1511
sbag0
(g1
g2
(lp1512
g0
(g1
g2
(lp1513
Vlike
p1514
atp1515
Rp1516
(dp1517
g12
VIN
p1518
sbag0
(g1
g2
(lp1519
g0
(g1
g2
(lp1520
g0
(g1
g2
(lp1521
Vhe
p1522
atp1523
Rp1524
(dp1525
g12
VPRP
p1526
sbatp1527
Rp1528
(dp1529
g12
VNP
p1530
sbag0
(g1
g2
(lp1531
g0
(g1
g2
(lp1532
Vtalks
p1533
atp1534
Rp1535
(dp1536
g12
VVBZ
p1537
sbag0
(g1
g2
(lp1538
g0
(g1
g2
(lp1539
Vto
p1540
atp1541
Rp1542
(dp1543
g12
VTO
p1544
sbag0
(g1
g2
(lp1545
g0
(g1
g2
(lp1546
g0
(g1
g2
(lp1547
Vpeople
p1548
atp1549
Rp1550
(dp1551
g12
VNNS
p1552
sbatp1553
Rp1554
(dp1555
g12
VNP
p1556
sbag0
(g1
g2
(lp1557
V,
p1558
atp1559
Rp1560
(dp1561
g12
V,
p1562
sbag0
(g1
g2
(lp1563
g0
(g1
g2
(lp1564
Va
p1565
atp1566
Rp1567
(dp1568
g12
VDT
p1569
sbag0
(g1
g2
(lp1570
Vpeacher
p1571
atp1572
Rp1573
(dp1574
g12
VNN
p1575
sbatp1576
Rp1577
(dp1578
g12
VNP
p1579
sbatp1580
Rp1581
(dp1582
g12
VNP
p1583
sbatp1584
Rp1585
(dp1586
g12
VPP
p1587
sbatp1588
Rp1589
(dp1590
g12
VVP
p1591
sbatp1592
Rp1593
(dp1594
g12
VS
p1595
sbatp1596
Rp1597
(dp1598
g12
VSBAR
p1599
sbatp1600
Rp1601
(dp1602
g12
VVP
p1603
sbag0
(g1
g2
(lp1604
V.
p1605
atp1606
Rp1607
(dp1608
g12
V.
p1609
sbatp1610
Rp1611
(dp1612
g12
VS
p1613
sbatp1614
Rp1615
(dp1616
g12
S'id: 8'
p1617
sbag0
(g1
g2
(lp1618
g0
(g1
g2
(lp1619
g0
(g1
g2
(lp1620
g0
(g1
g2
(lp1621
VThere
p1622
atp1623
Rp1624
(dp1625
g12
VEX
p1626
sbatp1627
Rp1628
(dp1629
g12
VNP
p1630
sbag0
(g1
g2
(lp1631
g0
(g1
g2
(lp1632
V's
p1633
atp1634
Rp1635
(dp1636
g12
VVBZ
p1637
sbag0
(g1
g2
(lp1638
g0
(g1
g2
(lp1639
g0
(g1
g2
(lp1640
Vtwo
p1641
atp1642
Rp1643
(dp1644
g12
VCD
p1645
sbag0
(g1
g2
(lp1646
Vpeople
p1647
atp1648
Rp1649
(dp1650
g12
VNNS
p1651
sbatp1652
Rp1653
(dp1654
g12
VNP
p1655
sbag0
(g1
g2
(lp1656
Vjust
p1657
atp1658
Rp1659
(dp1660
g12
VRB
p1661
sbatp1662
Rp1663
(dp1664
g12
VADVP
p1665
sbag0
(g1
g2
(lp1666
g0
(g1
g2
(lp1667
Vlooking
p1668
atp1669
Rp1670
(dp1671
g12
VVBG
p1672
sbag0
(g1
g2
(lp1673
g0
(g1
g2
(lp1674
Vat
p1675
atp1676
Rp1677
(dp1678
g12
VIN
p1679
sbag0
(g1
g2
(lp1680
g0
(g1
g2
(lp1681
Vthis
p1682
atp1683
Rp1684
(dp1685
g12
VDT
p1686
sbag0
(g1
g2
(lp1687
Vguy
p1688
atp1689
Rp1690
(dp1691
g12
VNN
p1692
sbatp1693
Rp1694
(dp1695
g12
VNP
p1696
sbatp1697
Rp1698
(dp1699
g12
VPP
p1700
sbag0
(g1
g2
(lp1701
g0
(g1
g2
(lp1702
Vnot
p1703
atp1704
Rp1705
(dp1706
g12
VRB
p1707
sbag0
(g1
g2
(lp1708
g0
(g1
g2
(lp1709
Vlooking
p1710
atp1711
Rp1712
(dp1713
g12
VVBG
p1714
sbag0
(g1
g2
(lp1715
g0
(g1
g2
(lp1716
Vat
p1717
atp1718
Rp1719
(dp1720
g12
VIN
p1721
sbag0
(g1
g2
(lp1722
g0
(g1
g2
(lp1723
Vthat
p1724
atp1725
Rp1726
(dp1727
g12
VDT
p1728
sbatp1729
Rp1730
(dp1731
g12
VNP
p1732
sbatp1733
Rp1734
(dp1735
g12
VPP
p1736
sbatp1737
Rp1738
(dp1739
g12
VVP
p1740
sbatp1741
Rp1742
(dp1743
g12
VS
p1744
sbatp1745
Rp1746
(dp1747
g12
VVP
p1748
sbatp1749
Rp1750
(dp1751
g12
VVP
p1752
sbag0
(g1
g2
(lp1753
V.
p1754
atp1755
Rp1756
(dp1757
g12
V.
p1758
sbatp1759
Rp1760
(dp1761
g12
VS
p1762
sbatp1763
Rp1764
(dp1765
g12
S'id: 9'
p1766
sbag0
(g1
g2
(lp1767
g0
(g1
g2
(lp1768
g0
(g1
g2
(lp1769
g0
(g1
g2
(lp1770
g0
(g1
g2
(lp1771
VNo
p1772
atp1773
Rp1774
(dp1775
g12
VDT
p1776
sbag0
(g1
g2
(lp1777
Vone
p1778
atp1779
Rp1780
(dp1781
g12
VNN
p1782
sbag0
(g1
g2
(lp1783
V's
p1784
atp1785
Rp1786
(dp1787
g12
VPOS
p1788
sbatp1789
Rp1790
(dp1791
g12
VNP
p1792
sbag0
(g1
g2
(lp1793
g0
(g1
g2
(lp1794
Vpaying
p1795
atp1796
Rp1797
(dp1798
g12
VVBG
p1799
sbag0
(g1
g2
(lp1800
g0
(g1
g2
(lp1801
Vto
p1802
atp1803
Rp1804
(dp1805
g12
VTO
p1806
sbag0
(g1
g2
(lp1807
g0
(g1
g2
(lp1808
g0
(g1
g2
(lp1809
Vthis
p1810
atp1811
Rp1812
(dp1813
g12
VDT
p1814
sbag0
(g1
g2
(lp1815
Vkid
p1816
atp1817
Rp1818
(dp1819
g12
VNN
p1820
sbatp1821
Rp1822
(dp1823
g12
VNP
p1824
sbag0
(g1
g2
(lp1825
g0
(g1
g2
(lp1826
Vat
p1827
atp1828
Rp1829
(dp1830
g12
VIN
p1831
sbag0
(g1
g2
(lp1832
Vall
p1833
atp1834
Rp1835
(dp1836
g12
VDT
p1837
sbatp1838
Rp1839
(dp1840
g12
VADVP
p1841
sbatp1842
Rp1843
(dp1844
g12
VNP
p1845
sbatp1846
Rp1847
(dp1848
g12
VPP
p1849
sbatp1850
Rp1851
(dp1852
g12
VVP
p1853
sbatp1854
Rp1855
(dp1856
g12
VS
p1857
sbag0
(g1
g2
(lp1858
V,
p1859
atp1860
Rp1861
(dp1862
g12
V,
p1863
sbag0
(g1
g2
(lp1864
g0
(g1
g2
(lp1865
Vshe
p1866
atp1867
Rp1868
(dp1869
g12
VPRP
p1870
sbatp1871
Rp1872
(dp1873
g12
VNP
p1874
sbag0
(g1
g2
(lp1875
g0
(g1
g2
(lp1876
V's
p1877
atp1878
Rp1879
(dp1880
g12
VVBZ
p1881
sbag0
(g1
g2
(lp1882
g0
(g1
g2
(lp1883
Vdoing
p1884
atp1885
Rp1886
(dp1887
g12
VVBG
p1888
sbag0
(g1
g2
(lp1889
g0
(g1
g2
(lp1890
Veverything
p1891
atp1892
Rp1893
(dp1894
g12
VNN
p1895
sbatp1896
Rp1897
(dp1898
g12
VNP
p1899
sbag0
(g1
g2
(lp1900
g0
(g1
g2
(lp1901
Vby
p1902
atp1903
Rp1904
(dp1905
g12
VIN
p1906
sbag0
(g1
g2
(lp1907
g0
(g1
g2
(lp1908
Vherselves
p1909
atp1910
Rp1911
(dp1912
g12
VNNS
p1913
sbatp1914
Rp1915
(dp1916
g12
VNP
p1917
sbatp1918
Rp1919
(dp1920
g12
VPP
p1921
sbatp1922
Rp1923
(dp1924
g12
VVP
p1925
sbatp1926
Rp1927
(dp1928
g12
VVP
p1929
sbag0
(g1
g2
(lp1930
V.
p1931
atp1932
Rp1933
(dp1934
g12
V.
p1935
sbatp1936
Rp1937
(dp1938
g12
VS
p1939
sbatp1940
Rp1941
(dp1942
g12
S'id: 10'
p1943
sbag0
(g1
g2
(lp1944
g0
(g1
g2
(lp1945
g0
(g1
g2
(lp1946
g0
(g1
g2
(lp1947
g0
(g1
g2
(lp1948
VThese
p1949
atp1950
Rp1951
(dp1952
g12
VDT
p1953
sbag0
(g1
g2
(lp1954
Vpeople
p1955
atp1956
Rp1957
(dp1958
g12
VNNS
p1959
sbatp1960
Rp1961
(dp1962
g12
VNP
p1963
sbag0
(g1
g2
(lp1964
g0
(g1
g2
(lp1965
Vget
p1966
atp1967
Rp1968
(dp1969
g12
VVBP
p1970
sbag0
(g1
g2
(lp1971
g0
(g1
g2
(lp1972
Vthrow
p1973
atp1974
Rp1975
(dp1976
g12
VVB
p1977
sbag0
(g1
g2
(lp1978
g0
(g1
g2
(lp1979
Vthis
p1980
atp1981
Rp1982
(dp1983
g12
VDT
p1984
sbag0
(g1
g2
(lp1985
Vbalown
p1986
atp1987
Rp1988
(dp1989
g12
VNN
p1990
sbatp1991
Rp1992
(dp1993
g12
VNP
p1994
sbatp1995
Rp1996
(dp1997
g12
VVP
p1998
sbatp1999
Rp2000
(dp2001
g12
VVP
p2002
sbatp2003
Rp2004
(dp2005
g12
VS
p2006
sbag0
(g1
g2
(lp2007
V,
p2008
atp2009
Rp2010
(dp2011
g12
V,
p2012
sbag0
(g1
g2
(lp2013
g0
(g1
g2
(lp2014
g0
(g1
g2
(lp2015
Vcone
p2016
atp2017
Rp2018
(dp2019
g12
VNN
p2020
sbatp2021
Rp2022
(dp2023
g12
VNP
p2024
sbag0
(g1
g2
(lp2025
V,
p2026
atp2027
Rp2028
(dp2029
g12
V,
p2030
sbag0
(g1
g2
(lp2031
g0
(g1
g2
(lp2032
g0
(g1
g2
(lp2033
Vwhatever
p2034
atp2035
Rp2036
(dp2037
g12
VWDT
p2038
sbatp2039
Rp2040
(dp2041
g12
VWHNP
p2042
sbag0
(g1
g2
(lp2043
g0
(g1
g2
(lp2044
g0
(g1
g2
(lp2045
Vhis
p2046
atp2047
Rp2048
(dp2049
g12
VPRP$
p2050
sbag0
(g1
g2
(lp2051
Vname
p2052
atp2053
Rp2054
(dp2055
g12
VNN
p2056
sbatp2057
Rp2058
(dp2059
g12
VNP
p2060
sbag0
(g1
g2
(lp2061
g0
(g1
g2
(lp2062
Vis
p2063
atp2064
Rp2065
(dp2066
g12
VVBZ
p2067
sbatp2068
Rp2069
(dp2070
g12
VVP
p2071
sbatp2072
Rp2073
(dp2074
g12
VS
p2075
sbatp2076
Rp2077
(dp2078
g12
VSBAR
p2079
sbag0
(g1
g2
(lp2080
V,
p2081
atp2082
Rp2083
(dp2084
g12
V,
p2085
sbatp2086
Rp2087
(dp2088
g12
VNP
p2089
sbag0
(g1
g2
(lp2090
g0
(g1
g2
(lp2091
Vis
p2092
atp2093
Rp2094
(dp2095
g12
VVBZ
p2096
sbag0
(g1
g2
(lp2097
g0
(g1
g2
(lp2098
Vthrowing
p2099
atp2100
Rp2101
(dp2102
g12
VVBG
p2103
sbag0
(g1
g2
(lp2104
g0
(g1
g2
(lp2105
Vat
p2106
atp2107
Rp2108
(dp2109
g12
VIN
p2110
sbag0
(g1
g2
(lp2111
g0
(g1
g2
(lp2112
g0
(g1
g2
(lp2113
Vthe
p2114
atp2115
Rp2116
(dp2117
g12
VDT
p2118
sbag0
(g1
g2
(lp2119
Vkids
p2120
atp2121
Rp2122
(dp2123
g12
VNNS
p2124
sbatp2125
Rp2126
(dp2127
g12
VNP
p2128
sbag0
(g1
g2
(lp2129
V,
p2130
atp2131
Rp2132
(dp2133
g12
V,
p2134
sbag0
(g1
g2
(lp2135
g0
(g1
g2
(lp2136
g0
(g1
g2
(lp2137
Veveryone
p2138
atp2139
Rp2140
(dp2141
g12
VNN
p2142
sbag0
(g1
g2
(lp2143
V's
p2144
atp2145
Rp2146
(dp2147
g12
VPOS
p2148
sbatp2149
Rp2150
(dp2151
g12
VNP
p2152
sbag0
(g1
g2
(lp2153
Vhappy
p2154
atp2155
Rp2156
(dp2157
g12
VJJ
p2158
sbatp2159
Rp2160
(dp2161
g12
VNP
p2162
sbatp2163
Rp2164
(dp2165
g12
VNP
p2166
sbatp2167
Rp2168
(dp2169
g12
VPP
p2170
sbag0
(g1
g2
(lp2171
g0
(g1
g2
(lp2172
Vwith
p2173
atp2174
Rp2175
(dp2176
g12
VIN
p2177
sbag0
(g1
g2
(lp2178
g0
(g1
g2
(lp2179
Vthat
p2180
atp2181
Rp2182
(dp2183
g12
VDT
p2184
sbatp2185
Rp2186
(dp2187
g12
VNP
p2188
sbatp2189
Rp2190
(dp2191
g12
VPP
p2192
sbatp2193
Rp2194
(dp2195
g12
VVP
p2196
sbatp2197
Rp2198
(dp2199
g12
VVP
p2200
sbag0
(g1
g2
(lp2201
V.
p2202
atp2203
Rp2204
(dp2205
g12
V.
p2206
sbatp2207
Rp2208
(dp2209
g12
VS
p2210
sbatp2211
Rp2212
(dp2213
g12
S'id: 11'
p2214
sbag0
(g1
g2
(lp2215
g0
(g1
g2
(lp2216
g0
(g1
g2
(lp2217
g0
(g1
g2
(lp2218
g0
(g1
g2
(lp2219
VThis
p2220
atp2221
Rp2222
(dp2223
g12
VDT
p2224
sbag0
(g1
g2
(lp2225
Vwoman
p2226
atp2227
Rp2228
(dp2229
g12
VNN
p2230
sbatp2231
Rp2232
(dp2233
g12
VNP
p2234
sbatp2235
Rp2236
(dp2237
g12
VS
p2238
sbag0
(g1
g2
(lp2239
V,
p2240
atp2241
Rp2242
(dp2243
g12
V,
p2244
sbag0
(g1
g2
(lp2245
g0
(g1
g2
(lp2246
g0
(g1
g2
(lp2247
VOK
p2248
atp2249
Rp2250
(dp2251
g12
VUH
p2252
sbatp2253
Rp2254
(dp2255
g12
VADVP
p2256
sbag0
(g1
g2
(lp2257
g0
(g1
g2
(lp2258
g0
(g1
g2
(lp2259
Vno
p2260
atp2261
Rp2262
(dp2263
g12
VDT
p2264
sbag0
(g1
g2
(lp2265
Vone
p2266
atp2267
Rp2268
(dp2269
g12
VNN
p2270
sbag0
(g1
g2
(lp2271
V's
p2272
atp2273
Rp2274
(dp2275
g12
VPOS
p2276
sbatp2277
Rp2278
(dp2279
g12
VNP
p2280
sbag0
(g1
g2
(lp2281
g0
(g1
g2
(lp2282
Vpaying
p2283
atp2284
Rp2285
(dp2286
g12
VVBG
p2287
sbag0
(g1
g2
(lp2288
g0
(g1
g2
(lp2289
Vthis
p2290
atp2291
Rp2292
(dp2293
g12
VDT
p2294
sbag0
(g1
g2
(lp2295
Vkid
p2296
atp2297
Rp2298
(dp2299
g12
VNN
p2300
sbatp2301
Rp2302
(dp2303
g12
VNP
p2304
sbatp2305
Rp2306
(dp2307
g12
VVP
p2308
sbatp2309
Rp2310
(dp2311
g12
VS
p2312
sbag0
(g1
g2
(lp2313
V,
p2314
atp2315
Rp2316
(dp2317
g12
V,
p2318
sbag0
(g1
g2
(lp2319
g0
(g1
g2
(lp2320
g0
(g1
g2
(lp2321
Vhe
p2322
atp2323
Rp2324
(dp2325
g12
VPRP
p2326
sbatp2327
Rp2328
(dp2329
g12
VNP
p2330
sbag0
(g1
g2
(lp2331
g0
(g1
g2
(lp2332
Vget
p2333
atp2334
Rp2335
(dp2336
g12
VVB
p2337
sbag0
(g1
g2
(lp2338
g0
(g1
g2
(lp2339
Vkilled
p2340
atp2341
Rp2342
(dp2343
g12
VVBN
p2344
sbag0
(g1
g2
(lp2345
g0
(g1
g2
(lp2346
Vby
p2347
atp2348
Rp2349
(dp2350
g12
VIN
p2351
sbag0
(g1
g2
(lp2352
g0
(g1
g2
(lp2353
g0
(g1
g2
(lp2354
Vthe
p2355
atp2356
Rp2357
(dp2358
g12
VDT
p2359
sbag0
(g1
g2
(lp2360
Vguy
p2361
atp2362
Rp2363
(dp2364
g12
VNN
p2365
sbatp2366
Rp2367
(dp2368
g12
VNP
p2369
sbag0
(g1
g2
(lp2370
g0
(g1
g2
(lp2371
g0
(g1
g2
(lp2372
g0
(g1
g2
(lp2373
Vhe
p2374
atp2375
Rp2376
(dp2377
g12
VPRP
p2378
sbatp2379
Rp2380
(dp2381
g12
VNP
p2382
sbag0
(g1
g2
(lp2383
g0
(g1
g2
(lp2384
Vdoes
p2385
atp2386
Rp2387
(dp2388
g12
VVBZ
p2389
sbag0
(g1
g2
(lp2390
Vn't
p2391
atp2392
Rp2393
(dp2394
g12
VRB
p2395
sbag0
(g1
g2
(lp2396
g0
(g1
g2
(lp2397
Vknow
p2398
atp2399
Rp2400
(dp2401
g12
VVB
p2402
sbag0
(g1
g2
(lp2403
V,
p2404
atp2405
Rp2406
(dp2407
g12
V,
p2408
sbag0
(g1
g2
(lp2409
g0
(g1
g2
(lp2410
Vby
p2411
atp2412
Rp2413
(dp2414
g12
VIN
p2415
sbag0
(g1
g2
(lp2416
g0
(g1
g2
(lp2417
Vthe
p2418
atp2419
Rp2420
(dp2421
g12
VDT
p2422
sbag0
(g1
g2
(lp2423
Vlion
p2424
atp2425
Rp2426
(dp2427
g12
VNN
p2428
sbatp2429
Rp2430
(dp2431
g12
VNP
p2432
sbatp2433
Rp2434
(dp2435
g12
VPP
p2436
sbatp2437
Rp2438
(dp2439
g12
VVP
p2440
sbatp2441
Rp2442
(dp2443
g12
VVP
p2444
sbatp2445
Rp2446
(dp2447
g12
VS
p2448
sbatp2449
Rp2450
(dp2451
g12
VSBAR
p2452
sbatp2453
Rp2454
(dp2455
g12
VNP
p2456
sbatp2457
Rp2458
(dp2459
g12
VPP
p2460
sbatp2461
Rp2462
(dp2463
g12
VVP
p2464
sbatp2465
Rp2466
(dp2467
g12
VVP
p2468
sbatp2469
Rp2470
(dp2471
g12
VS
p2472
sbatp2473
Rp2474
(dp2475
g12
VS
p2476
sbag0
(g1
g2
(lp2477
V.
p2478
atp2479
Rp2480
(dp2481
g12
V.
p2482
sbatp2483
Rp2484
(dp2485
g12
VS
p2486
sbatp2487
Rp2488
(dp2489
g12
S'id: 12'
p2490
sbag0
(g1
g2
(lp2491
g0
(g1
g2
(lp2492
g0
(g1
g2
(lp2493
g0
(g1
g2
(lp2494
VLook
p2495
atp2496
Rp2497
(dp2498
g12
VVB
p2499
sbag0
(g1
g2
(lp2500
g0
(g1
g2
(lp2501
Vlike
p2502
atp2503
Rp2504
(dp2505
g12
VIN
p2506
sbag0
(g1
g2
(lp2507
g0
(g1
g2
(lp2508
g0
(g1
g2
(lp2509
Va
p2510
atp2511
Rp2512
(dp2513
g12
VDT
p2514
sbag0
(g1
g2
(lp2515
Vperson
p2516
atp2517
Rp2518
(dp2519
g12
VNN
p2520
sbatp2521
Rp2522
(dp2523
g12
VNP
p2524
sbag0
(g1
g2
(lp2525
V,
p2526
atp2527
Rp2528
(dp2529
g12
V,
p2530
sbag0
(g1
g2
(lp2531
g0
(g1
g2
(lp2532
Vherdum
p2533
atp2534
Rp2535
(dp2536
g12
VNN
p2537
sbatp2538
Rp2539
(dp2540
g12
VNP
p2541
sbatp2542
Rp2543
(dp2544
g12
VNP
p2545
sbatp2546
Rp2547
(dp2548
g12
VPP
p2549
sbatp2550
Rp2551
(dp2552
g12
VVP
p2553
sbag0
(g1
g2
(lp2554
V.
p2555
atp2556
Rp2557
(dp2558
g12
V.
p2559
sbatp2560
Rp2561
(dp2562
g12
VS
p2563
sbatp2564
Rp2565
(dp2566
g12
S'id: 13'
p2567
sbag0
(g1
g2
(lp2568
g0
(g1
g2
(lp2569
g0
(g1
g2
(lp2570
g0
(g1
g2
(lp2571
VThis
p2572
atp2573
Rp2574
(dp2575
g12
VDT
p2576
sbag0
(g1
g2
(lp2577
Vtwo
p2578
atp2579
Rp2580
(dp2581
g12
VCD
p2582
sbag0
(g1
g2
(lp2583
Vpeople
p2584
atp2585
Rp2586
(dp2587
g12
VNNS
p2588
sbatp2589
Rp2590
(dp2591
g12
VNP
p2592
sbag0
(g1
g2
(lp2593
V,
p2594
atp2595
Rp2596
(dp2597
g12
V,
p2598
sbag0
(g1
g2
(lp2599
g0
(g1
g2
(lp2600
VI
p2601
atp2602
Rp2603
(dp2604
g12
VPRP
p2605
sbatp2606
Rp2607
(dp2608
g12
VNP
p2609
sbag0
(g1
g2
(lp2610
g0
(g1
g2
(lp2611
Vdont
p2612
atp2613
Rp2614
(dp2615
g12
VVBP
p2616
sbag0
(g1
g2
(lp2617
g0
(g1
g2
(lp2618
Vknow
p2619
atp2620
Rp2621
(dp2622
g12
VVB
p2623
sbag0
(g1
g2
(lp2624
g0
(g1
g2
(lp2625
g0
(g1
g2
(lp2626
Vwhy
p2627
atp2628
Rp2629
(dp2630
g12
VWRB
p2631
sbatp2632
Rp2633
(dp2634
g12
VWHADVP
p2635
sbag0
(g1
g2
(lp2636
g0
(g1
g2
(lp2637
g0
(g1
g2
(lp2638
Vthey
p2639
atp2640
Rp2641
(dp2642
g12
VPRP
p2643
sbatp2644
Rp2645
(dp2646
g12
VNP
p2647
sbag0
(g1
g2
(lp2648
g0
(g1
g2
(lp2649
V're
p2650
atp2651
Rp2652
(dp2653
g12
VVBP
p2654
sbag0
(g1
g2
(lp2655
g0
(g1
g2
(lp2656
Vdoing
p2657
atp2658
Rp2659
(dp2660
g12
VVBG
p2661
sbatp2662
Rp2663
(dp2664
g12
VVP
p2665
sbatp2666
Rp2667
(dp2668
g12
VVP
p2669
sbatp2670
Rp2671
(dp2672
g12
VS
p2673
sbatp2674
Rp2675
(dp2676
g12
VSBAR
p2677
sbatp2678
Rp2679
(dp2680
g12
VVP
p2681
sbatp2682
Rp2683
(dp2684
g12
VVP
p2685
sbag0
(g1
g2
(lp2686
V.
p2687
atp2688
Rp2689
(dp2690
g12
V.
p2691
sbatp2692
Rp2693
(dp2694
g12
VS
p2695
sbatp2696
Rp2697
(dp2698
g12
S'id: 14'
p2699
sbag0
(g1
g2
(lp2700
g0
(g1
g2
(lp2701
g0
(g1
g2
(lp2702
g0
(g1
g2
(lp2703
g0
(g1
g2
(lp2704
VLook
p2705
atp2706
Rp2707
(dp2708
g12
VVB
p2709
sbag0
(g1
g2
(lp2710
g0
(g1
g2
(lp2711
Vat
p2712
atp2713
Rp2714
(dp2715
g12
VIN
p2716
sbag0
(g1
g2
(lp2717
g0
(g1
g2
(lp2718
Vthis
p2719
atp2720
Rp2721
(dp2722
g12
VDT
p2723
sbag0
(g1
g2
(lp2724
Vkid
p2725
atp2726
Rp2727
(dp2728
g12
VNN
p2729
sbatp2730
Rp2731
(dp2732
g12
VNP
p2733
sbatp2734
Rp2735
(dp2736
g12
VPP
p2737
sbatp2738
Rp2739
(dp2740
g12
VVP
p2741
sbatp2742
Rp2743
(dp2744
g12
VS
p2745
sbag0
(g1
g2
(lp2746
V,
p2747
atp2748
Rp2749
(dp2750
g12
V,
p2751
sbag0
(g1
g2
(lp2752
g0
(g1
g2
(lp2753
Vshe
p2754
atp2755
Rp2756
(dp2757
g12
VPRP
p2758
sbatp2759
Rp2760
(dp2761
g12
VNP
p2762
sbag0
(g1
g2
(lp2763
g0
(g1
g2
(lp2764
V's
p2765
atp2766
Rp2767
(dp2768
g12
VVBZ
p2769
sbag0
(g1
g2
(lp2770
g0
(g1
g2
(lp2771
g0
(g1
g2
(lp2772
Vlook
p2773
atp2774
Rp2775
(dp2776
g12
VNN
p2777
sbatp2778
Rp2779
(dp2780
g12
VNP
p2781
sbag0
(g1
g2
(lp2782
g0
(g1
g2
(lp2783
Vat
p2784
atp2785
Rp2786
(dp2787
g12
VIN
p2788
sbag0
(g1
g2
(lp2789
g0
(g1
g2
(lp2790
Vthis
p2791
atp2792
Rp2793
(dp2794
g12
VDT
p2795
sbatp2796
Rp2797
(dp2798
g12
VNP
p2799
sbatp2800
Rp2801
(dp2802
g12
VPP
p2803
sbatp2804
Rp2805
(dp2806
g12
VNP
p2807
sbatp2808
Rp2809
(dp2810
g12
VVP
p2811
sbag0
(g1
g2
(lp2812
V.
p2813
atp2814
Rp2815
(dp2816
g12
V.
p2817
sbatp2818
Rp2819
(dp2820
g12
VS
p2821
sbatp2822
Rp2823
(dp2824
g12
S'id: 15'
p2825
sbag0
(g1
g2
(lp2826
g0
(g1
g2
(lp2827
g0
(g1
g2
(lp2828
g0
(g1
g2
(lp2829
g0
(g1
g2
(lp2830
VThere
p2831
atp2832
Rp2833
(dp2834
g12
VEX
p2835
sbatp2836
Rp2837
(dp2838
g12
VNP
p2839
sbag0
(g1
g2
(lp2840
g0
(g1
g2
(lp2841
V's
p2842
atp2843
Rp2844
(dp2845
g12
VVBZ
p2846
sbag0
(g1
g2
(lp2847
g0
(g1
g2
(lp2848
g0
(g1
g2
(lp2849
g0
(g1
g2
(lp2850
g0
(g1
g2
(lp2851
Vgon
p2852
atp2853
Rp2854
(dp2855
g12
VVBG
p2856
sbag0
(g1
g2
(lp2857
g0
(g1
g2
(lp2858
g0
(g1
g2
(lp2859
Vna
p2860
atp2861
Rp2862
(dp2863
g12
VTO
p2864
sbatp2865
Rp2866
(dp2867
g12
VVP
p2868
sbatp2869
Rp2870
(dp2871
g12
VS
p2872
sbatp2873
Rp2874
(dp2875
g12
VVP
p2876
sbag0
(g1
g2
(lp2877
g0
(g1
g2
(lp2878
g0
(g1
g2
(lp2879
Vlot
p2880
atp2881
Rp2882
(dp2883
g12
VNN
p2884
sbatp2885
Rp2886
(dp2887
g12
VNP
p2888
sbag0
(g1
g2
(lp2889
g0
(g1
g2
(lp2890
Va
p2891
atp2892
Rp2893
(dp2894
g12
VDT
p2895
sbag0
(g1
g2
(lp2896
Vwork
p2897
atp2898
Rp2899
(dp2900
g12
VNN
p2901
sbatp2902
Rp2903
(dp2904
g12
VNP
p2905
sbatp2906
Rp2907
(dp2908
g12
VNP-TMP
p2909
sbatp2910
Rp2911
(dp2912
g12
VS
p2913
sbatp2914
Rp2915
(dp2916
g12
VSBAR
p2917
sbag0
(g1
g2
(lp2918
V,
p2919
atp2920
Rp2921
(dp2922
g12
V,
p2923
sbag0
(g1
g2
(lp2924
Vand
p2925
atp2926
Rp2927
(dp2928
g12
VCC
p2929
sbag0
(g1
g2
(lp2930
g0
(g1
g2
(lp2931
g0
(g1
g2
(lp2932
g0
(g1
g2
(lp2933
Vseems
p2934
atp2935
Rp2936
(dp2937
g12
VVBZ
p2938
sbag0
(g1
g2
(lp2939
g0
(g1
g2
(lp2940
Vlike
p2941
atp2942
Rp2943
(dp2944
g12
VIN
p2945
sbag0
(g1
g2
(lp2946
g0
(g1
g2
(lp2947
g0
(g1
g2
(lp2948
Vnobody
p2949
atp2950
Rp2951
(dp2952
g12
VNN
p2953
sbag0
(g1
g2
(lp2954
V's
p2955
atp2956
Rp2957
(dp2958
g12
VPOS
p2959
sbatp2960
Rp2961
(dp2962
g12
VNP
p2963
sbag0
(g1
g2
(lp2964
g0
(g1
g2
(lp2965
Vlooking
p2966
atp2967
Rp2968
(dp2969
g12
VVBG
p2970
sbag0
(g1
g2
(lp2971
g0
(g1
g2
(lp2972
Vat
p2973
atp2974
Rp2975
(dp2976
g12
VIN
p2977
sbag0
(g1
g2
(lp2978
g0
(g1
g2
(lp2979
Vthem
p2980
atp2981
Rp2982
(dp2983
g12
VPRP
p2984
sbatp2985
Rp2986
(dp2987
g12
VNP
p2988
sbatp2989
Rp2990
(dp2991
g12
VPP
p2992
sbag0
(g1
g2
(lp2993
g0
(g1
g2
(lp2994
Vall
p2995
atp2996
Rp2997
(dp2998
g12
VDT
p2999
sbatp3000
Rp3001
(dp3002
g12
VADVP
p3003
sbatp3004
Rp3005
(dp3006
g12
VVP
p3007
sbatp3008
Rp3009
(dp3010
g12
VNP
p3011
sbatp3012
Rp3013
(dp3014
g12
VPP
p3015
sbatp3016
Rp3017
(dp3018
g12
VVP
p3019
sbatp3020
Rp3021
(dp3022
g12
VS
p3023
sbatp3024
Rp3025
(dp3026
g12
VSBAR
p3027
sbatp3028
Rp3029
(dp3030
g12
VSBAR
p3031
sbatp3032
Rp3033
(dp3034
g12
VVP
p3035
sbatp3036
Rp3037
(dp3038
g12
VS
p3039
sbag0
(g1
g2
(lp3040
V,
p3041
atp3042
Rp3043
(dp3044
g12
V,
p3045
sbag0
(g1
g2
(lp3046
Vand
p3047
atp3048
Rp3049
(dp3050
g12
VCC
p3051
sbag0
(g1
g2
(lp3052
g0
(g1
g2
(lp3053
g0
(g1
g2
(lp3054
Vthese
p3055
atp3056
Rp3057
(dp3058
g12
VDT
p3059
sbag0
(g1
g2
(lp3060
Vguys
p3061
atp3062
Rp3063
(dp3064
g12
VNNS
p3065
sbatp3066
Rp3067
(dp3068
g12
VNP
p3069
sbag0
(g1
g2
(lp3070
g0
(g1
g2
(lp3071
Vare
p3072
atp3073
Rp3074
(dp3075
g12
VVBP
p3076
sbag0
(g1
g2
(lp3077
g0
(g1
g2
(lp3078
Vlooking
p3079
atp3080
Rp3081
(dp3082
g12
VVBG
p3083
sbag0
(g1
g2
(lp3084
g0
(g1
g2
(lp3085
g0
(g1
g2
(lp3086
Vthat
p3087
atp3088
Rp3089
(dp3090
g12
VDT
p3091
sbag0
(g1
g2
(lp3092
Vway
p3093
atp3094
Rp3095
(dp3096
g12
VNN
p3097
sbatp3098
Rp3099
(dp3100
g12
VNP
p3101
sbag0
(g1
g2
(lp3102
V,
p3103
atp3104
Rp3105
(dp3106
g12
V,
p3107
sbag0
(g1
g2
(lp3108
Vand
p3109
atp3110
Rp3111
(dp3112
g12
VCC
p3113
sbag0
(g1
g2
(lp3114
g0
(g1
g2
(lp3115
g0
(g1
g2
(lp3116
Vno
p3117
atp3118
Rp3119
(dp3120
g12
VDT
p3121
sbag0
(g1
g2
(lp3122
Vone
p3123
atp3124
Rp3125
(dp3126
g12
VNN
p3127
sbag0
(g1
g2
(lp3128
V's
p3129
atp3130
Rp3131
(dp3132
g12
VPOS
p3133
sbatp3134
Rp3135
(dp3136
g12
VNP
p3137
sbag0
(g1
g2
(lp3138
Vpaying
p3139
atp3140
Rp3141
(dp3142
g12
VVBG
p3143
sbag0
(g1
g2
(lp3144
Vattention
p3145
atp3146
Rp3147
(dp3148
g12
VNN
p3149
sbatp3150
Rp3151
(dp3152
g12
VNP
p3153
sbatp3154
Rp3155
(dp3156
g12
VNP
p3157
sbag0
(g1
g2
(lp3158
g0
(g1
g2
(lp3159
Vto
p3160
atp3161
Rp3162
(dp3163
g12
VTO
p3164
sbag0
(g1
g2
(lp3165
g0
(g1
g2
(lp3166
Vit
p3167
atp3168
Rp3169
(dp3170
g12
VPRP
p3171
sbatp3172
Rp3173
(dp3174
g12
VNP
p3175
sbatp3176
Rp3177
(dp3178
g12
VPP
p3179
sbatp3180
Rp3181
(dp3182
g12
VVP
p3183
sbatp3184
Rp3185
(dp3186
g12
VVP
p3187
sbatp3188
Rp3189
(dp3190
g12
VS
p3191
sbag0
(g1
g2
(lp3192
V.
p3193
atp3194
Rp3195
(dp3196
g12
V.
p3197
sbatp3198
Rp3199
(dp3200
g12
VS
p3201
sbatp3202
Rp3203
(dp3204
g12
S'id: 16'
p3205
sbag0
(g1
g2
(lp3206
g0
(g1
g2
(lp3207
g0
(g1
g2
(lp3208
g0
(g1
g2
(lp3209
g0
(g1
g2
(lp3210
VThose
p3211
atp3212
Rp3213
(dp3214
g12
VDT
p3215
sbatp3216
Rp3217
(dp3218
g12
VNP
p3219
sbag0
(g1
g2
(lp3220
g0
(g1
g2
(lp3221
Vare
p3222
atp3223
Rp3224
(dp3225
g12
VVBP
p3226
sbag0
(g1
g2
(lp3227
g0
(g1
g2
(lp3228
g0
(g1
g2
(lp3229
Vthree
p3230
atp3231
Rp3232
(dp3233
g12
VCD
p3234
sbag0
(g1
g2
(lp3235
Vneat
p3236
atp3237
Rp3238
(dp3239
g12
VJJ
p3240
sbag0
(g1
g2
(lp3241
Vthings
p3242
atp3243
Rp3244
(dp3245
g12
VNNS
p3246
sbatp3247
Rp3248
(dp3249
g12
VNP
p3250
sbag0
(g1
g2
(lp3251
g0
(g1
g2
(lp3252
Vgoing
p3253
atp3254
Rp3255
(dp3256
g12
VVBG
p3257
sbag0
(g1
g2
(lp3258
g0
(g1
g2
(lp3259
Vhere
p3260
atp3261
Rp3262
(dp3263
g12
VRB
p3264
sbatp3265
Rp3266
(dp3267
g12
VADVP
p3268
sbatp3269
Rp3270
(dp3271
g12
VVP
p3272
sbatp3273
Rp3274
(dp3275
g12
VNP
p3276
sbatp3277
Rp3278
(dp3279
g12
VVP
p3280
sbatp3281
Rp3282
(dp3283
g12
VS
p3284
sbag0
(g1
g2
(lp3285
V,
p3286
atp3287
Rp3288
(dp3289
g12
V,
p3290
sbag0
(g1
g2
(lp3291
Vand
p3292
atp3293
Rp3294
(dp3295
g12
VCC
p3296
sbag0
(g1
g2
(lp3297
g0
(g1
g2
(lp3298
g0
(g1
g2
(lp3299
g0
(g1
g2
(lp3300
Vnobody
p3301
atp3302
Rp3303
(dp3304
g12
VNN
p3305
sbag0
(g1
g2
(lp3306
V's
p3307
atp3308
Rp3309
(dp3310
g12
VPOS
p3311
sbatp3312
Rp3313
(dp3314
g12
VNP
p3315
sbag0
(g1
g2
(lp3316
Vpaying
p3317
atp3318
Rp3319
(dp3320
g12
VVBG
p3321
sbag0
(g1
g2
(lp3322
Vattention
p3323
atp3324
Rp3325
(dp3326
g12
VNN
p3327
sbatp3328
Rp3329
(dp3330
g12
VNP
p3331
sbag0
(g1
g2
(lp3332
V,
p3333
atp3334
Rp3335
(dp3336
g12
V,
p3337
sbag0
(g1
g2
(lp3338
g0
(g1
g2
(lp3339
Vmust
p3340
atp3341
Rp3342
(dp3343
g12
VMD
p3344
sbag0
(g1
g2
(lp3345
g0
(g1
g2
(lp3346
Vmake
p3347
atp3348
Rp3349
(dp3350
g12
VVB
p3351
sbag0
(g1
g2
(lp3352
g0
(g1
g2
(lp3353
g0
(g1
g2
(lp3354
Vyou
p3355
atp3356
Rp3357
(dp3358
g12
VPRP
p3359
sbatp3360
Rp3361
(dp3362
g12
VNP
p3363
sbag0
(g1
g2
(lp3364
g0
(g1
g2
(lp3365
Vcrazy
p3366
atp3367
Rp3368
(dp3369
g12
VJJ
p3370
sbatp3371
Rp3372
(dp3373
g12
VADJP
p3374
sbatp3375
Rp3376
(dp3377
g12
VS
p3378
sbatp3379
Rp3380
(dp3381
g12
VVP
p3382
sbatp3383
Rp3384
(dp3385
g12
VVP
p3386
sbatp3387
Rp3388
(dp3389
g12
VS
p3390
sbag0
(g1
g2
(lp3391
V.
p3392
atp3393
Rp3394
(dp3395
g12
V.
p3396
sbatp3397
Rp3398
(dp3399
g12
VS
p3400
sbatp3401
Rp3402
(dp3403
g12
S'id: 17'
p3404
sbag0
(g1
g2
(lp3405
g0
(g1
g2
(lp3406
g0
(g1
g2
(lp3407
g0
(g1
g2
(lp3408
g0
(g1
g2
(lp3409
VNobody
p3410
atp3411
Rp3412
(dp3413
g12
VNN
p3414
sbag0
(g1
g2
(lp3415
Vlook
p3416
atp3417
Rp3418
(dp3419
g12
VNN
p3420
sbatp3421
Rp3422
(dp3423
g12
VNP
p3424
sbag0
(g1
g2
(lp3425
g0
(g1
g2
(lp3426
Vat
p3427
atp3428
Rp3429
(dp3430
g12
VIN
p3431
sbag0
(g1
g2
(lp3432
g0
(g1
g2
(lp3433
g0
(g1
g2
(lp3434
Vthis
p3435
atp3436
Rp3437
(dp3438
g12
VDT
p3439
sbatp3440
Rp3441
(dp3442
g12
VNP
p3443
sbag0
(g1
g2
(lp3444
V,
p3445
atp3446
Rp3447
(dp3448
g12
V,
p3449
sbag0
(g1
g2
(lp3450
g0
(g1
g2
(lp3451
Vthis
p3452
atp3453
Rp3454
(dp3455
g12
VDT
p3456
sbatp3457
Rp3458
(dp3459
g12
VNP
p3460
sbatp3461
Rp3462
(dp3463
g12
VNP
p3464
sbatp3465
Rp3466
(dp3467
g12
VPP
p3468
sbatp3469
Rp3470
(dp3471
g12
VNP
p3472
sbag0
(g1
g2
(lp3473
g0
(g1
g2
(lp3474
Vis
p3475
atp3476
Rp3477
(dp3478
g12
VVBZ
p3479
sbag0
(g1
g2
(lp3480
g0
(g1
g2
(lp3481
g0
(g1
g2
(lp3482
Vpretty
p3483
atp3484
Rp3485
(dp3486
g12
VRB
p3487
sbag0
(g1
g2
(lp3488
Vmuch
p3489
atp3490
Rp3491
(dp3492
g12
VJJ
p3493
sbatp3494
Rp3495
(dp3496
g12
VADJP
p3497
sbag0
(g1
g2
(lp3498
Vnothing
p3499
atp3500
Rp3501
(dp3502
g12
VNN
p3503
sbatp3504
Rp3505
(dp3506
g12
VNP
p3507
sbatp3508
Rp3509
(dp3510
g12
VVP
p3511
sbag0
(g1
g2
(lp3512
V.
p3513
atp3514
Rp3515
(dp3516
g12
V.
p3517
sbatp3518
Rp3519
(dp3520
g12
VS
p3521
sbatp3522
Rp3523
(dp3524
g12
S'id: 18'
p3525
sbag0
(g1
g2
(lp3526
g0
(g1
g2
(lp3527
g0
(g1
g2
(lp3528
g0
(g1
g2
(lp3529
VThis
p3530
atp3531
Rp3532
(dp3533
g12
VDT
p3534
sbatp3535
Rp3536
(dp3537
g12
VNP
p3538
sbag0
(g1
g2
(lp3539
g0
(g1
g2
(lp3540
Vis
p3541
atp3542
Rp3543
(dp3544
g12
VVBZ
p3545
sbag0
(g1
g2
(lp3546
g0
(g1
g2
(lp3547
Va
p3548
atp3549
Rp3550
(dp3551
g12
VDT
p3552
sbag0
(g1
g2
(lp3553
Vgood
p3554
atp3555
Rp3556
(dp3557
g12
VJJ
p3558
sbag0
(g1
g2
(lp3559
Vthing
p3560
atp3561
Rp3562
(dp3563
g12
VNN
p3564
sbag0
(g1
g2
(lp3565
g0
(g1
g2
(lp3566
g0
(g1
g2
(lp3567
Vto
p3568
atp3569
Rp3570
(dp3571
g12
VTO
p3572
sbag0
(g1
g2
(lp3573
g0
(g1
g2
(lp3574
Vdo
p3575
atp3576
Rp3577
(dp3578
g12
VVB
p3579
sbag0
(g1
g2
(lp3580
g0
(g1
g2
(lp3581
V,
p3582
atp3583
Rp3584
(dp3585
g12
V,
p3586
sbag0
(g1
g2
(lp3587
g0
(g1
g2
(lp3588
g0
(g1
g2
(lp3589
Vthis
p3590
atp3591
Rp3592
(dp3593
g12
VDT
p3594
sbatp3595
Rp3596
(dp3597
g12
VNP
p3598
sbag0
(g1
g2
(lp3599
g0
(g1
g2
(lp3600
Vis
p3601
atp3602
Rp3603
(dp3604
g12
VVBZ
p3605
sbag0
(g1
g2
(lp3606
g0
(g1
g2
(lp3607
Vtyphing
p3608
atp3609
Rp3610
(dp3611
g12
VNN
p3612
sbatp3613
Rp3614
(dp3615
g12
VNP
p3616
sbatp3617
Rp3618
(dp3619
g12
VVP
p3620
sbatp3621
Rp3622
(dp3623
g12
VS
p3624
sbag0
(g1
g2
(lp3625
V,
p3626
atp3627
Rp3628
(dp3629
g12
V,
p3630
sbatp3631
Rp3632
(dp3633
g12
VPRN
p3634
sbag0
(g1
g2
(lp3635
g0
(g1
g2
(lp3636
g0
(g1
g2
(lp3637
g0
(g1
g2
(lp3638
Vthis
p3639
atp3640
Rp3641
(dp3642
g12
VDT
p3643
sbatp3644
Rp3645
(dp3646
g12
VNP
p3647
sbag0
(g1
g2
(lp3648
g0
(g1
g2
(lp3649
Vis
p3650
atp3651
Rp3652
(dp3653
g12
VVBZ
p3654
sbag0
(g1
g2
(lp3655
g0
(g1
g2
(lp3656
g0
(g1
g2
(lp3657
Vnothing
p3658
atp3659
Rp3660
(dp3661
g12
VNN
p3662
sbatp3663
Rp3664
(dp3665
g12
VNP
p3666
sbag0
(g1
g2
(lp3667
V,
p3668
atp3669
Rp3670
(dp3671
g12
V,
p3672
sbag0
(g1
g2
(lp3673
g0
(g1
g2
(lp3674
g0
(g1
g2
(lp3675
g0
(g1
g2
(lp3676
Vnobody
p3677
atp3678
Rp3679
(dp3680
g12
VNN
p3681
sbag0
(g1
g2
(lp3682
V's
p3683
atp3684
Rp3685
(dp3686
g12
VPOS
p3687
sbatp3688
Rp3689
(dp3690
g12
VNP
p3691
sbag0
(g1
g2
(lp3692
Vpaying
p3693
atp3694
Rp3695
(dp3696
g12
VVBG
p3697
sbag0
(g1
g2
(lp3698
Vattention
p3699
atp3700
Rp3701
(dp3702
g12
VNN
p3703
sbatp3704
Rp3705
(dp3706
g12
VNP
p3707
sbag0
(g1
g2
(lp3708
g0
(g1
g2
(lp3709
Vto
p3710
atp3711
Rp3712
(dp3713
g12
VTO
p3714
sbag0
(g1
g2
(lp3715
g0
(g1
g2
(lp3716
Vhim
p3717
atp3718
Rp3719
(dp3720
g12
VPRP
p3721
sbatp3722
Rp3723
(dp3724
g12
VNP
p3725
sbatp3726
Rp3727
(dp3728
g12
VPP
p3729
sbatp3730
Rp3731
(dp3732
g12
VNP
p3733
sbatp3734
Rp3735
(dp3736
g12
VNP
p3737
sbatp3738
Rp3739
(dp3740
g12
VVP
p3741
sbatp3742
Rp3743
(dp3744
g12
VS
p3745
sbatp3746
Rp3747
(dp3748
g12
VSBAR
p3749
sbatp3750
Rp3751
(dp3752
g12
VVP
p3753
sbatp3754
Rp3755
(dp3756
g12
VVP
p3757
sbatp3758
Rp3759
(dp3760
g12
VS
p3761
sbatp3762
Rp3763
(dp3764
g12
VNP
p3765
sbatp3766
Rp3767
(dp3768
g12
VVP
p3769
sbag0
(g1
g2
(lp3770
V.
p3771
atp3772
Rp3773
(dp3774
g12
V.
p3775
sbatp3776
Rp3777
(dp3778
g12
VS
p3779
sbatp3780
Rp3781
(dp3782
g12
S'id: 19'
p3783
sbag0
(g1
g2
(lp3784
g0
(g1
g2
(lp3785
g0
(g1
g2
(lp3786
g0
(g1
g2
(lp3787
g0
(g1
g2
(lp3788
VThese
p3789
atp3790
Rp3791
(dp3792
g12
VDT
p3793
sbag0
(g1
g2
(lp3794
Vpeople
p3795
atp3796
Rp3797
(dp3798
g12
VNNS
p3799
sbatp3800
Rp3801
(dp3802
g12
VNP
p3803
sbag0
(g1
g2
(lp3804
g0
(g1
g2
(lp3805
Vdo
p3806
atp3807
Rp3808
(dp3809
g12
VVBP
p3810
sbag0
(g1
g2
(lp3811
Vn't
p3812
atp3813
Rp3814
(dp3815
g12
VRB
p3816
sbag0
(g1
g2
(lp3817
g0
(g1
g2
(lp3818
Vpay
p3819
atp3820
Rp3821
(dp3822
g12
VVB
p3823
sbag0
(g1
g2
(lp3824
g0
(g1
g2
(lp3825
Vattention
p3826
atp3827
Rp3828
(dp3829
g12
VNN
p3830
sbatp3831
Rp3832
(dp3833
g12
VNP
p3834
sbag0
(g1
g2
(lp3835
g0
(g1
g2
(lp3836
Vto
p3837
atp3838
Rp3839
(dp3840
g12
VTO
p3841
sbag0
(g1
g2
(lp3842
g0
(g1
g2
(lp3843
g0
(g1
g2
(lp3844
Vthis
p3845
atp3846
Rp3847
(dp3848
g12
VDT
p3849
sbag0
(g1
g2
(lp3850
Vthing
p3851
atp3852
Rp3853
(dp3854
g12
VNN
p3855
sbatp3856
Rp3857
(dp3858
g12
VNP
p3859
sbag0
(g1
g2
(lp3860
g0
(g1
g2
(lp3861
Vat
p3862
atp3863
Rp3864
(dp3865
g12
VIN
p3866
sbag0
(g1
g2
(lp3867
g0
(g1
g2
(lp3868
g0
(g1
g2
(lp3869
Vthe
p3870
atp3871
Rp3872
(dp3873
g12
VDT
p3874
sbag0
(g1
g2
(lp3875
Vcirc
p3876
atp3877
Rp3878
(dp3879
g12
VNN
p3880
sbatp3881
Rp3882
(dp3883
g12
VNP
p3884
sbag0
(g1
g2
(lp3885
V,
p3886
atp3887
Rp3888
(dp3889
g12
V,
p3890
sbag0
(g1
g2
(lp3891
g0
(g1
g2
(lp3892
Vthe
p3893
atp3894
Rp3895
(dp3896
g12
VDT
p3897
sbag0
(g1
g2
(lp3898
Vcircus
p3899
atp3900
Rp3901
(dp3902
g12
VNN
p3903
sbatp3904
Rp3905
(dp3906
g12
VNP
p3907
sbatp3908
Rp3909
(dp3910
g12
VNP
p3911
sbatp3912
Rp3913
(dp3914
g12
VPP
p3915
sbatp3916
Rp3917
(dp3918
g12
VNP
p3919
sbatp3920
Rp3921
(dp3922
g12
VPP
p3923
sbatp3924
Rp3925
(dp3926
g12
VVP
p3927
sbatp3928
Rp3929
(dp3930
g12
VVP
p3931
sbatp3932
Rp3933
(dp3934
g12
VS
p3935
sbag0
(g1
g2
(lp3936
V,
p3937
atp3938
Rp3939
(dp3940
g12
V,
p3941
sbag0
(g1
g2
(lp3942
g0
(g1
g2
(lp3943
Vnobody
p3944
atp3945
Rp3946
(dp3947
g12
VNN
p3948
sbatp3949
Rp3950
(dp3951
g12
VNP
p3952
sbag0
(g1
g2
(lp3953
g0
(g1
g2
(lp3954
Vcares
p3955
atp3956
Rp3957
(dp3958
g12
VVBZ
p3959
sbatp3960
Rp3961
(dp3962
g12
VVP
p3963
sbag0
(g1
g2
(lp3964
V.
p3965
atp3966
Rp3967
(dp3968
g12
V.
p3969
sbatp3970
Rp3971
(dp3972
g12
VS
p3973
sbatp3974
Rp3975
(dp3976
g12
S'id: 20'
p3977
sbag0
(g1
g2
(lp3978
g0
(g1
g2
(lp3979
g0
(g1
g2
(lp3980
g0
(g1
g2
(lp3981
g0
(g1
g2
(lp3982
VLooking
p3983
atp3984
Rp3985
(dp3986
g12
VVBG
p3987
sbag0
(g1
g2
(lp3988
g0
(g1
g2
(lp3989
Vat
p3990
atp3991
Rp3992
(dp3993
g12
VIN
p3994
sbag0
(g1
g2
(lp3995
g0
(g1
g2
(lp3996
g0
(g1
g2
(lp3997
Vthis
p3998
atp3999
Rp4000
(dp4001
g12
VDT
p4002
sbatp4003
Rp4004
(dp4005
g12
VNP
p4006
sbag0
(g1
g2
(lp4007
V,
p4008
atp4009
Rp4010
(dp4011
g12
V,
p4012
sbag0
(g1
g2
(lp4013
g0
(g1
g2
(lp4014
g0
(g1
g2
(lp4015
Vbig
p4016
atp4017
Rp4018
(dp4019
g12
VJJ
p4020
sbag0
(g1
g2
(lp4021
Vthings
p4022
atp4023
Rp4024
(dp4025
g12
VNNS
p4026
sbatp4027
Rp4028
(dp4029
g12
VNP
p4030
sbag0
(g1
g2
(lp4031
g0
(g1
g2
(lp4032
Vgoing
p4033
atp4034
Rp4035
(dp4036
g12
VVBG
p4037
sbag0
(g1
g2
(lp4038
g0
(g1
g2
(lp4039
Vhere
p4040
atp4041
Rp4042
(dp4043
g12
VRB
p4044
sbatp4045
Rp4046
(dp4047
g12
VADVP
p4048
sbatp4049
Rp4050
(dp4051
g12
VVP
p4052
sbatp4053
Rp4054
(dp4055
g12
VNP
p4056
sbatp4057
Rp4058
(dp4059
g12
VNP
p4060
sbatp4061
Rp4062
(dp4063
g12
VPP
p4064
sbatp4065
Rp4066
(dp4067
g12
VVP
p4068
sbatp4069
Rp4070
(dp4071
g12
VS
p4072
sbag0
(g1
g2
(lp4073
V,
p4074
atp4075
Rp4076
(dp4077
g12
V,
p4078
sbag0
(g1
g2
(lp4079
Vand
p4080
atp4081
Rp4082
(dp4083
g12
VCC
p4084
sbag0
(g1
g2
(lp4085
g0
(g1
g2
(lp4086
g0
(g1
g2
(lp4087
Vno
p4088
atp4089
Rp4090
(dp4091
g12
VDT
p4092
sbag0
(g1
g2
(lp4093
Vone
p4094
atp4095
Rp4096
(dp4097
g12
VNN
p4098
sbag0
(g1
g2
(lp4099
V's
p4100
atp4101
Rp4102
(dp4103
g12
VPOS
p4104
sbatp4105
Rp4106
(dp4107
g12
VNP
p4108
sbag0
(g1
g2
(lp4109
g0
(g1
g2
(lp4110
Vlooking
p4111
atp4112
Rp4113
(dp4114
g12
VVBG
p4115
sbatp4116
Rp4117
(dp4118
g12
VVP
p4119
sbatp4120
Rp4121
(dp4122
g12
VS
p4123
sbag0
(g1
g2
(lp4124
V.
p4125
atp4126
Rp4127
(dp4128
g12
V.
p4129
sbatp4130
Rp4131
(dp4132
g12
VS
p4133
sbatp4134
Rp4135
(dp4136
g12
S'id: 21'
p4137
sbatp4138
Rp4139
(dp4140
g12
S'sentences'
p4141
sb.