ccopy_reg
_reconstructor
p0
(cnltk.tree
Tree
p1
c__builtin__
list
p2
(lp3
g0
(g1
g2
(lp4
g0
(g1
g2
(lp5
g0
(g1
g2
(lp6
VOK
p7
atp8
Rp9
(dp10
S'_label'
p11
VUH
p12
sbag0
(g1
g2
(lp13
V.
p14
atp15
Rp16
(dp17
g11
V.
p18
sbatp19
Rp20
(dp21
g11
VINTJ
p22
sbatp23
Rp24
(dp25
g11
S'id: 0'
p26
sbag0
(g1
g2
(lp27
g0
(g1
g2
(lp28
g0
(g1
g2
(lp29
g0
(g1
g2
(lp30
VTwo
p31
atp32
Rp33
(dp34
g11
VCD
p35
sbatp36
Rp37
(dp38
g11
VNP
p39
sbag0
(g1
g2
(lp40
V,
p41
atp42
Rp43
(dp44
g11
V,
p45
sbag0
(g1
g2
(lp46
g0
(g1
g2
(lp47
g0
(g1
g2
(lp48
Vtwo
p49
atp50
Rp51
(dp52
g11
VCD
p53
sbatp54
Rp55
(dp56
g11
VNP
p57
sbag0
(g1
g2
(lp58
V,
p59
atp60
Rp61
(dp62
g11
V,
p63
sbag0
(g1
g2
(lp64
g0
(g1
g2
(lp65
Vtwo
p66
atp67
Rp68
(dp69
g11
VCD
p70
sbag0
(g1
g2
(lp71
Vpeople
p72
atp73
Rp74
(dp75
g11
VNNS
p76
sbatp77
Rp78
(dp79
g11
VNP
p80
sbatp81
Rp82
(dp83
g11
VNP
p84
sbag0
(g1
g2
(lp85
V.
p86
atp87
Rp88
(dp89
g11
V.
p90
sbatp91
Rp92
(dp93
g11
VNP
p94
sbatp95
Rp96
(dp97
g11
S'id: 1'
p98
sbag0
(g1
g2
(lp99
g0
(g1
g2
(lp100
g0
(g1
g2
(lp101
g0
(g1
g2
(lp102
VOne
p103
atp104
Rp105
(dp106
g11
VCD
p107
sbatp108
Rp109
(dp110
g11
VNP
p111
sbag0
(g1
g2
(lp112
g0
(g1
g2
(lp113
Vis
p114
atp115
Rp116
(dp117
g11
VVBZ
p118
sbag0
(g1
g2
(lp119
g0
(g1
g2
(lp120
Vsitting
p121
atp122
Rp123
(dp124
g11
VVBG
p125
sbatp126
Rp127
(dp128
g11
VVP
p129
sbatp130
Rp131
(dp132
g11
VVP
p133
sbag0
(g1
g2
(lp134
V.
p135
atp136
Rp137
(dp138
g11
V.
p139
sbatp140
Rp141
(dp142
g11
VS
p143
sbatp144
Rp145
(dp146
g11
S'id: 2'
p147
sbag0
(g1
g2
(lp148
g0
(g1
g2
(lp149
g0
(g1
g2
(lp150
g0
(g1
g2
(lp151
VOne
p152
atp153
Rp154
(dp155
g11
VCD
p156
sbag0
(g1
g2
(lp157
Vlady
p158
atp159
Rp160
(dp161
g11
VNN
p162
sbatp163
Rp164
(dp165
g11
VNP
p166
sbag0
(g1
g2
(lp167
g0
(g1
g2
(lp168
Vdrinking
p169
atp170
Rp171
(dp172
g11
VNN
p173
sbatp174
Rp175
(dp176
g11
VNP
p177
sbag0
(g1
g2
(lp178
V.
p179
atp180
Rp181
(dp182
g11
V.
p183
sbatp184
Rp185
(dp186
g11
VNP
p187
sbatp188
Rp189
(dp190
g11
S'id: 3'
p191
sbag0
(g1
g2
(lp192
g0
(g1
g2
(lp193
g0
(g1
g2
(lp194
g0
(g1
g2
(lp195
VPicked
p196
atp197
Rp198
(dp199
g11
VVBN
p200
sbag0
(g1
g2
(lp201
g0
(g1
g2
(lp202
g0
(g1
g2
(lp203
Vdigs
p204
atp205
Rp206
(dp207
g11
VNNS
p208
sbatp209
Rp210
(dp211
g11
VNP
p212
sbag0
(g1
g2
(lp213
g0
(g1
g2
(lp214
Vbasket
p215
atp216
Rp217
(dp218
g11
VNN
p219
sbatp220
Rp221
(dp222
g11
VADJP
p223
sbatp224
Rp225
(dp226
g11
VS
p227
sbatp228
Rp229
(dp230
g11
VVP
p231
sbag0
(g1
g2
(lp232
V.
p233
atp234
Rp235
(dp236
g11
V.
p237
sbatp238
Rp239
(dp240
g11
VS
p241
sbatp242
Rp243
(dp244
g11
S'id: 4'
p245
sbag0
(g1
g2
(lp246
g0
(g1
g2
(lp247
g0
(g1
g2
(lp248
g0
(g1
g2
(lp249
VClothe
p250
atp251
Rp252
(dp253
g11
VNNP
p254
sbag0
(g1
g2
(lp255
V,
p256
atp257
Rp258
(dp259
g11
V,
p260
sbatp261
Rp262
(dp263
g11
VNP
p264
sbag0
(g1
g2
(lp265
g0
(g1
g2
(lp266
Vclothe
p267
atp268
Rp269
(dp270
g11
VVBP
p271
sbatp272
Rp273
(dp274
g11
VVP
p275
sbag0
(g1
g2
(lp276
V.
p277
atp278
Rp279
(dp280
g11
V.
p281
sbatp282
Rp283
(dp284
g11
VS
p285
sbatp286
Rp287
(dp288
g11
S'id: 5'
p289
sbag0
(g1
g2
(lp290
g0
(g1
g2
(lp291
g0
(g1
g2
(lp292
g0
(g1
g2
(lp293
VTV
p294
atp295
Rp296
(dp297
g11
VNN
p298
sbatp299
Rp300
(dp301
g11
VNP
p302
sbag0
(g1
g2
(lp303
V,
p304
atp305
Rp306
(dp307
g11
V,
p308
sbag0
(g1
g2
(lp309
g0
(g1
g2
(lp310
Vno
p311
atp312
Rp313
(dp314
g11
VDT
p315
sbag0
(g1
g2
(lp316
Vstereo
p317
atp318
Rp319
(dp320
g11
VNN
p321
sbatp322
Rp323
(dp324
g11
VNP
p325
sbag0
(g1
g2
(lp326
V.
p327
atp328
Rp329
(dp330
g11
V.
p331
sbatp332
Rp333
(dp334
g11
VNP
p335
sbatp336
Rp337
(dp338
g11
S'id: 6'
p339
sbag0
(g1
g2
(lp340
g0
(g1
g2
(lp341
g0
(g1
g2
(lp342
g0
(g1
g2
(lp343
g0
(g1
g2
(lp344
VOne
p345
atp346
Rp347
(dp348
g11
VCD
p349
sbag0
(g1
g2
(lp350
Vman
p351
atp352
Rp353
(dp354
g11
VNN
p355
sbag0
(g1
g2
(lp356
Vbook
p357
atp358
Rp359
(dp360
g11
VNN
p361
sbatp362
Rp363
(dp364
g11
VNP
p365
sbag0
(g1
g2
(lp366
V,
p367
atp368
Rp369
(dp370
g11
V,
p371
sbag0
(g1
g2
(lp372
g0
(g1
g2
(lp373
Vone
p374
atp375
Rp376
(dp377
g11
VCD
p378
sbag0
(g1
g2
(lp379
Vman
p380
atp381
Rp382
(dp383
g11
VNN
p384
sbatp385
Rp386
(dp387
g11
VNP
p388
sbatp389
Rp390
(dp391
g11
VNP
p392
sbag0
(g1
g2
(lp393
g0
(g1
g2
(lp394
Vis
p395
atp396
Rp397
(dp398
g11
VVBZ
p399
sbag0
(g1
g2
(lp400
g0
(g1
g2
(lp401
Vglasses
p402
atp403
Rp404
(dp405
g11
VNNS
p406
sbatp407
Rp408
(dp409
g11
VNP
p410
sbatp411
Rp412
(dp413
g11
VVP
p414
sbag0
(g1
g2
(lp415
V.
p416
atp417
Rp418
(dp419
g11
V.
p420
sbatp421
Rp422
(dp423
g11
VS
p424
sbatp425
Rp426
(dp427
g11
S'id: 7'
p428
sbag0
(g1
g2
(lp429
g0
(g1
g2
(lp430
g0
(g1
g2
(lp431
g0
(g1
g2
(lp432
VBook
p433
atp434
Rp435
(dp436
g11
VNN
p437
sbatp438
Rp439
(dp440
g11
VNP
p441
sbag0
(g1
g2
(lp442
g0
(g1
g2
(lp443
Vis
p444
atp445
Rp446
(dp447
g11
VVBZ
p448
sbatp449
Rp450
(dp451
g11
VVP
p452
sbag0
(g1
g2
(lp453
V.
p454
atp455
Rp456
(dp457
g11
V.
p458
sbatp459
Rp460
(dp461
g11
VS
p462
sbatp463
Rp464
(dp465
g11
S'id: 8'
p466
sbag0
(g1
g2
(lp467
g0
(g1
g2
(lp468
g0
(g1
g2
(lp469
g0
(g1
g2
(lp470
VBig
p471
atp472
Rp473
(dp474
g11
VJJ
p475
sbag0
(g1
g2
(lp476
Vtree
p477
atp478
Rp479
(dp480
g11
VNN
p481
sbatp482
Rp483
(dp484
g11
VNP
p485
sbag0
(g1
g2
(lp486
g0
(g1
g2
(lp487
Vhouse
p488
atp489
Rp490
(dp491
g11
VNN
p492
sbatp493
Rp494
(dp495
g11
VNP
p496
sbag0
(g1
g2
(lp497
V.
p498
atp499
Rp500
(dp501
g11
V.
p502
sbatp503
Rp504
(dp505
g11
VNP
p506
sbatp507
Rp508
(dp509
g11
S'id: 9'
p510
sbag0
(g1
g2
(lp511
g0
(g1
g2
(lp512
g0
(g1
g2
(lp513
VFour
p514
atp515
Rp516
(dp517
g11
VCD
p518
sbag0
(g1
g2
(lp519
Vpanes
p520
atp521
Rp522
(dp523
g11
VNNS
p524
sbag0
(g1
g2
(lp525
V.
p526
atp527
Rp528
(dp529
g11
V.
p530
sbatp531
Rp532
(dp533
g11
VNP
p534
sbatp535
Rp536
(dp537
g11
S'id: 10'
p538
sbag0
(g1
g2
(lp539
g0
(g1
g2
(lp540
g0
(g1
g2
(lp541
g0
(g1
g2
(lp542
VDoor
p543
atp544
Rp545
(dp546
g11
VNNP
p547
sbatp548
Rp549
(dp550
g11
VADVP
p551
sbag0
(g1
g2
(lp552
V,
p553
atp554
Rp555
(dp556
g11
V,
p557
sbag0
(g1
g2
(lp558
g0
(g1
g2
(lp559
g0
(g1
g2
(lp560
Vgrass
p561
atp562
Rp563
(dp564
g11
VNN
p565
sbatp566
Rp567
(dp568
g11
VNP
p569
sbag0
(g1
g2
(lp570
V,
p571
atp572
Rp573
(dp574
g11
V,
p575
sbag0
(g1
g2
(lp576
g0
(g1
g2
(lp577
Vtrees
p578
atp579
Rp580
(dp581
g11
VNNS
p582
sbatp583
Rp584
(dp585
g11
VNP
p586
sbag0
(g1
g2
(lp587
V,
p588
atp589
Rp590
(dp591
g11
V,
p592
sbag0
(g1
g2
(lp593
g0
(g1
g2
(lp594
Vgrass
p595
atp596
Rp597
(dp598
g11
VNN
p599
sbatp600
Rp601
(dp602
g11
VNP
p603
sbag0
(g1
g2
(lp604
V,
p605
atp606
Rp607
(dp608
g11
V,
p609
sbag0
(g1
g2
(lp610
g0
(g1
g2
(lp611
Vdriveway
p612
atp613
Rp614
(dp615
g11
VNN
p616
sbatp617
Rp618
(dp619
g11
VNP
p620
sbatp621
Rp622
(dp623
g11
VNP
p624
sbag0
(g1
g2
(lp625
V.
p626
atp627
Rp628
(dp629
g11
V.
p630
sbatp631
Rp632
(dp633
g11
VX
p634
sbatp635
Rp636
(dp637
g11
S'id: 11'
p638
sbag0
(g1
g2
(lp639
g0
(g1
g2
(lp640
g0
(g1
g2
(lp641
g0
(g1
g2
(lp642
VOne
p643
atp644
Rp645
(dp646
g11
VCD
p647
sbatp648
Rp649
(dp650
g11
VNP
p651
sbag0
(g1
g2
(lp652
g0
(g1
g2
(lp653
g0
(g1
g2
(lp654
Va
p655
atp656
Rp657
(dp658
g11
VDT
p659
sbatp660
Rp661
(dp662
g11
VNP
p663
sbag0
(g1
g2
(lp664
V,
p665
atp666
Rp667
(dp668
g11
V,
p669
sbag0
(g1
g2
(lp670
g0
(g1
g2
(lp671
Vone
p672
atp673
Rp674
(dp675
g11
VCD
p676
sbag0
(g1
g2
(lp677
Vcar
p678
atp679
Rp680
(dp681
g11
VNN
p682
sbatp683
Rp684
(dp685
g11
VNP
p686
sbatp687
Rp688
(dp689
g11
VNP
p690
sbag0
(g1
g2
(lp691
V.
p692
atp693
Rp694
(dp695
g11
V.
p696
sbatp697
Rp698
(dp699
g11
VNP
p700
sbatp701
Rp702
(dp703
g11
S'id: 12'
p704
sbag0
(g1
g2
(lp705
g0
(g1
g2
(lp706
g0
(g1
g2
(lp707
g0
(g1
g2
(lp708
VOne
p709
atp710
Rp711
(dp712
g11
VCD
p713
sbatp714
Rp715
(dp716
g11
VNP
p717
sbag0
(g1
g2
(lp718
g0
(g1
g2
(lp719
Vkid
p720
atp721
Rp722
(dp723
g11
VNN
p724
sbatp725
Rp726
(dp727
g11
VNP
p728
sbag0
(g1
g2
(lp729
V.
p730
atp731
Rp732
(dp733
g11
V.
p734
sbatp735
Rp736
(dp737
g11
VNP
p738
sbatp739
Rp740
(dp741
g11
S'id: 13'
p742
sbag0
(g1
g2
(lp743
g0
(g1
g2
(lp744
g0
(g1
g2
(lp745
g0
(g1
g2
(lp746
VKite
p747
atp748
Rp749
(dp750
g11
VNN
p751
sbatp752
Rp753
(dp754
g11
VNP
p755
sbag0
(g1
g2
(lp756
V,
p757
atp758
Rp759
(dp760
g11
V,
p761
sbag0
(g1
g2
(lp762
g0
(g1
g2
(lp763
g0
(g1
g2
(lp764
Vkite
p765
atp766
Rp767
(dp768
g11
VNN
p769
sbatp770
Rp771
(dp772
g11
VNP
p773
sbag0
(g1
g2
(lp774
V,
p775
atp776
Rp777
(dp778
g11
V,
p779
sbag0
(g1
g2
(lp780
g0
(g1
g2
(lp781
Vkite
p782
atp783
Rp784
(dp785
g11
VNN
p786
sbatp787
Rp788
(dp789
g11
VNP
p790
sbatp791
Rp792
(dp793
g11
VNP
p794
sbag0
(g1
g2
(lp795
V.
p796
atp797
Rp798
(dp799
g11
V.
p800
sbatp801
Rp802
(dp803
g11
VNP
p804
sbatp805
Rp806
(dp807
g11
S'id: 14'
p808
sbag0
(g1
g2
(lp809
g0
(g1
g2
(lp810
g0
(g1
g2
(lp811
g0
(g1
g2
(lp812
VOne
p813
atp814
Rp815
(dp816
g11
VCD
p817
sbatp818
Rp819
(dp820
g11
VNP
p821
sbag0
(g1
g2
(lp822
g0
(g1
g2
(lp823
Vsailboat
p824
atp825
Rp826
(dp827
g11
VNN
p828
sbatp829
Rp830
(dp831
g11
VNP
p832
sbag0
(g1
g2
(lp833
V.
p834
atp835
Rp836
(dp837
g11
V.
p838
sbatp839
Rp840
(dp841
g11
VNP
p842
sbatp843
Rp844
(dp845
g11
S'id: 15'
p846
sbag0
(g1
g2
(lp847
g0
(g1
g2
(lp848
g0
(g1
g2
(lp849
g0
(g1
g2
(lp850
VTwo
p851
atp852
Rp853
(dp854
g11
VCD
p855
sbag0
(g1
g2
(lp856
Vpeople
p857
atp858
Rp859
(dp860
g11
VNNS
p861
sbatp862
Rp863
(dp864
g11
VNP
p865
sbag0
(g1
g2
(lp866
g0
(g1
g2
(lp867
Vsailing
p868
atp869
Rp870
(dp871
g11
VNN
p872
sbag0
(g1
g2
(lp873
Valone
p874
atp875
Rp876
(dp877
g11
VRB
p878
sbatp879
Rp880
(dp881
g11
VNP
p882
sbag0
(g1
g2
(lp883
V.
p884
atp885
Rp886
(dp887
g11
V.
p888
sbatp889
Rp890
(dp891
g11
VNP
p892
sbatp893
Rp894
(dp895
g11
S'id: 16'
p896
sbag0
(g1
g2
(lp897
g0
(g1
g2
(lp898
g0
(g1
g2
(lp899
g0
(g1
g2
(lp900
VOne
p901
atp902
Rp903
(dp904
g11
VCD
p905
sbag0
(g1
g2
(lp906
Vfis
p907
atp908
Rp909
(dp910
g11
VNN
p911
sbatp912
Rp913
(dp914
g11
VNP
p915
sbag0
(g1
g2
(lp916
V,
p917
atp918
Rp919
(dp920
g11
V,
p921
sbag0
(g1
g2
(lp922
g0
(g1
g2
(lp923
g0
(g1
g2
(lp924
Va
p925
atp926
Rp927
(dp928
g11
VDT
p929
sbag0
(g1
g2
(lp930
Vone
p931
atp932
Rp933
(dp934
g11
VCD
p935
sbag0
(g1
g2
(lp936
Vfis
p937
atp938
Rp939
(dp940
g11
VNN
p941
sbatp942
Rp943
(dp944
g11
VNP
p945
sbag0
(g1
g2
(lp946
g0
(g1
g2
(lp947
Vcatching
p948
atp949
Rp950
(dp951
g11
VVBG
p952
sbag0
(g1
g2
(lp953
g0
(g1
g2
(lp954
Vfis
p955
atp956
Rp957
(dp958
g11
VNN
p959
sbatp960
Rp961
(dp962
g11
VNP
p963
sbatp964
Rp965
(dp966
g11
VVP
p967
sbatp968
Rp969
(dp970
g11
VNP
p971
sbag0
(g1
g2
(lp972
V.
p973
atp974
Rp975
(dp976
g11
V.
p977
sbatp978
Rp979
(dp980
g11
VNP
p981
sbatp982
Rp983
(dp984
g11
S'id: 17'
p985
sbag0
(g1
g2
(lp986
g0
(g1
g2
(lp987
g0
(g1
g2
(lp988
g0
(g1
g2
(lp989
VOne
p990
atp991
Rp992
(dp993
g11
VCD
p994
sbag0
(g1
g2
(lp995
Vman
p996
atp997
Rp998
(dp999
g11
VNN
p1000
sbatp1001
Rp1002
(dp1003
g11
VNP
p1004
sbag0
(g1
g2
(lp1005
g0
(g1
g2
(lp1006
Vcast
p1007
atp1008
Rp1009
(dp1010
g11
VVBN
p1011
sbag0
(g1
g2
(lp1012
g0
(g1
g2
(lp1013
Vat
p1014
atp1015
Rp1016
(dp1017
g11
VIN
p1018
sbag0
(g1
g2
(lp1019
g0
(g1
g2
(lp1020
Vfis
p1021
atp1022
Rp1023
(dp1024
g11
VNN
p1025
sbatp1026
Rp1027
(dp1028
g11
VNP
p1029
sbatp1030
Rp1031
(dp1032
g11
VPP
p1033
sbatp1034
Rp1035
(dp1036
g11
VVP
p1037
sbag0
(g1
g2
(lp1038
V.
p1039
atp1040
Rp1041
(dp1042
g11
V.
p1043
sbatp1044
Rp1045
(dp1046
g11
VS
p1047
sbatp1048
Rp1049
(dp1050
g11
S'id: 18'
p1051
sbatp1052
Rp1053
(dp1054
g11
S'sentences'
p1055
sb.