ccopy_reg
_reconstructor
p0
(cnltk.tree
Tree
p1
c__builtin__
list
p2
(lp3
g0
(g1
g2
(lp4
g0
(g1
g2
(lp5
g0
(g1
g2
(lp6
(lp7
S'word: the, index: 1'
p8
aatp9
Rp10
(dp11
S'_label'
p12
Vtmod
p13
sbag0
(g1
g2
(lp14
g0
(g1
g2
(lp15
g0
(g1
g2
(lp16
(lp17
S'word: their, index: 3'
p18
aatp19
Rp20
(dp21
g12
Vposs
p22
sbatp23
Rp24
(dp25
g12
S'word: family, index: 4'
p26
sbatp27
Rp28
(dp29
g12
Vnsubj
p30
sbag0
(g1
g2
(lp31
(lp32
S'word: is, index: 5'
p33
aatp34
Rp35
(dp36
g12
Vaux
p37
sbag0
(g1
g2
(lp38
g0
(g1
g2
(lp39
g0
(g1
g2
(lp40
(lp41
S'word: a, index: 7'
p42
aatp43
Rp44
(dp45
g12
Vdet
p46
sbatp47
Rp48
(dp49
g12
S'word: circus, index: 8'
p50
sbatp51
Rp52
(dp53
g12
Vdobj
p54
sbatp55
Rp56
(dp57
g12
S'word: enjoying, index: 6'
p58
sbatp59
Rp60
(dp61
g12
S'id: 0'
p62
sbag0
(g1
g2
(lp63
g0
(g1
g2
(lp64
g0
(g1
g2
(lp65
g0
(g1
g2
(lp66
g0
(g1
g2
(lp67
(lp68
S'word: two, index: 2'
p69
aatp70
Rp71
(dp72
g12
Vnum
p73
sbatp74
Rp75
(dp76
g12
S'word: families, index: 3'
p77
sbatp78
Rp79
(dp80
g12
Vnsubj
p81
sbag0
(g1
g2
(lp82
(lp83
S'word: are, index: 4'
p84
aatp85
Rp86
(dp87
g12
Vcop
p88
sbag0
(g1
g2
(lp89
g0
(g1
g2
(lp90
g0
(g1
g2
(lp91
g0
(g1
g2
(lp92
g0
(g1
g2
(lp93
(lp94
S'word: the, index: 9'
p95
aatp96
Rp97
(dp98
g12
Vdet
p99
sbatp100
Rp101
(dp102
g12
S'word: picture, index: 10'
p103
sbatp104
Rp105
(dp106
g12
Vprep
p107
sbag0
(g1
g2
(lp108
g0
(g1
g2
(lp109
g0
(g1
g2
(lp110
(lp111
S'word: many, index: 13'
p112
aatp113
Rp114
(dp115
g12
Vamod
p116
sbatp117
Rp118
(dp119
g12
S'word: more, index: 14'
p120
sbatp121
Rp122
(dp123
g12
Vconj
p124
sbatp125
Rp126
(dp127
g12
S'word: three, index: 7'
p128
sbatp129
Rp130
(dp131
g12
Vdep
p132
sbag0
(g1
g2
(lp133
g118
atp134
Rp135
(dp136
g12
Vdep
p137
sbag0
(g1
g2
(lp138
(lp139
S'word: actually, index: 1'
p140
aatp141
Rp142
(dp143
g12
Vadvmod
p144
sbatp145
Rp146
(dp147
g12
S'word: unseen, index: 15'
p148
sbatp149
Rp150
(dp151
g12
S'id: 1'
p152
sbag0
(g1
g2
(lp153
g0
(g1
g2
(lp154
g0
(g1
g2
(lp155
g0
(g1
g2
(lp156
g0
(g1
g2
(lp157
(lp158
S'word: a, index: 7'
p159
aatp160
Rp161
(dp162
g12
Vdet
p163
sbag0
(g1
g2
(lp164
g0
(g1
g2
(lp165
g0
(g1
g2
(lp166
(lp167
S'word: also, index: 11'
p168
aatp169
Rp170
(dp171
g12
Vadvmod
p172
sbag0
(g1
g2
(lp173
(lp174
S'word: a, index: 12'
p175
aatp176
Rp177
(dp178
g12
Vdet
p179
sbag0
(g1
g2
(lp180
g0
(g1
g2
(lp181
g0
(g1
g2
(lp182
(lp183
S'word: a, index: 15'
p184
aatp185
Rp186
(dp187
g12
Vdet
p188
sbatp189
Rp190
(dp191
g12
S'word: horse, index: 16'
p192
sbatp193
Rp194
(dp195
g12
Vprep
p196
sbatp197
Rp198
(dp199
g12
S'word: lady, index: 13'
p200
sbatp201
Rp202
(dp203
g12
Vconj
p204
sbag0
(g1
g2
(lp205
g0
(g1
g2
(lp206
g0
(g1
g2
(lp207
g0
(g1
g2
(lp208
g0
(g1
g2
(lp209
(lp210
S'word: ballerina, index: 22'
p211
aatp212
Rp213
(dp214
g12
Vdep
p215
sbag0
(g1
g2
(lp216
(lp217
S'word: a, index: 19'
p218
aatp219
Rp220
(dp221
g12
Vdet
p222
sbag0
(g1
g2
(lp223
(lp224
S'word: ballet, index: 20'
p225
aatp226
Rp227
(dp228
g12
Vamod
p229
sbatp230
Rp231
(dp232
g12
S'word: suit, index: 23'
p233
sbatp234
Rp235
(dp236
g12
Vpobj
p237
sbatp238
Rp239
(dp240
g12
S'word: in, index: 18'
p241
sbatp242
Rp243
(dp244
g12
Vdep
p245
sbatp246
Rp247
(dp248
g12
S'word: juggler, index: 8'
p249
sbatp250
Rp251
(dp252
g12
Vccomp
p253
sbag0
(g1
g2
(lp254
g0
(g1
g2
(lp255
g0
(g1
g2
(lp256
(lp257
S'word: there, index: 26'
p258
aatp259
Rp260
(dp261
g12
Vexpl
p262
sbag0
(g1
g2
(lp263
g0
(g1
g2
(lp264
g0
(g1
g2
(lp265
(lp266
S'word: a, index: 28'
p267
aatp268
Rp269
(dp270
g12
Vdet
p271
sbag0
(g1
g2
(lp272
g0
(g1
g2
(lp273
g0
(g1
g2
(lp274
g0
(g1
g2
(lp275
g0
(g1
g2
(lp276
(lp277
S'word: the, index: 31'
p278
aatp279
Rp280
(dp281
g12
Vdet
p282
sbatp283
Rp284
(dp285
g12
S'word: lion, index: 32'
p286
sbatp287
Rp288
(dp289
g12
Vposs
p290
sbatp291
Rp292
(dp293
g12
S'word: den, index: 34'
p294
sbatp295
Rp296
(dp297
g12
Vprep
p298
sbag0
(g1
g2
(lp299
g0
(g1
g2
(lp300
g0
(g1
g2
(lp301
g0
(g1
g2
(lp302
g0
(g1
g2
(lp303
(lp304
S'word: the, index: 38'
p305
aatp306
Rp307
(dp308
g12
Vdet
p309
sbatp310
Rp311
(dp312
g12
S'word: lion, index: 39'
p313
sbatp314
Rp315
(dp316
g12
Viobj
p317
sbag0
(g1
g2
(lp318
(lp319
S'word: orders, index: 40'
p320
aatp321
Rp322
(dp323
g12
Vdobj
p324
sbag0
(g1
g2
(lp325
(lp326
S'word: that, index: 35'
p327
aatp328
Rp329
(dp330
g12
Vnsubj
p331
sbag0
(g1
g2
(lp332
(lp333
S'word: is, index: 36'
p334
aatp335
Rp336
(dp337
g12
Vaux
p338
sbatp339
Rp340
(dp341
g12
S'word: giving, index: 37'
p342
sbatp343
Rp344
(dp345
g12
Vrcmod
p346
sbatp347
Rp348
(dp349
g12
S'word: trainer, index: 29'
p350
sbatp351
Rp352
(dp353
g12
Vnsubj
p354
sbatp355
Rp356
(dp357
g12
S"word: 's, index: 27"
p358
sbatp359
Rp360
(dp361
g12
Vconj
p362
sbag0
(g1
g2
(lp363
g198
atp364
Rp365
(dp366
g12
Vccomp
p367
sbag0
(g1
g2
(lp368
(lp369
S'word: There, index: 1'
p370
aatp371
Rp372
(dp373
g12
Vexpl
p374
sbag0
(g1
g2
(lp375
g0
(g1
g2
(lp376
g0
(g1
g2
(lp377
g0
(g1
g2
(lp378
g0
(g1
g2
(lp379
(lp380
S'word: a, index: 3'
p381
aatp382
Rp383
(dp384
g12
Vdet
p385
sbatp386
Rp387
(dp388
g12
S'word: clown, index: 4'
p389
sbatp390
Rp391
(dp392
g12
Vnpadvmod
p393
sbatp394
Rp395
(dp396
g12
S'word: entertaining, index: 5'
p397
sbatp398
Rp399
(dp400
g12
Vacomp
p401
sbatp402
Rp403
(dp404
g12
S"word: 's, index: 2"
p405
sbatp406
Rp407
(dp408
g12
S'id: 2'
p409
sbag0
(g1
g2
(lp410
g0
(g1
g2
(lp411
g0
(g1
g2
(lp412
g0
(g1
g2
(lp413
g0
(g1
g2
(lp414
g0
(g1
g2
(lp415
g0
(g1
g2
(lp416
(lp417
S'word: her, index: 9'
p418
aatp419
Rp420
(dp421
g12
Vposs
p422
sbatp423
Rp424
(dp425
g12
S'word: dad, index: 10'
p426
sbatp427
Rp428
(dp429
g12
Vprep
p430
sbag0
(g1
g2
(lp431
(lp432
S'word: to, index: 12'
p433
aatp434
Rp435
(dp436
g12
Vaux
p437
sbag0
(g1
g2
(lp438
g0
(g1
g2
(lp439
g0
(g1
g2
(lp440
(lp441
S'word: the, index: 15'
p442
aatp443
Rp444
(dp445
g12
Vdet
p446
sbatp447
Rp448
(dp449
g12
S'word: clown, index: 16'
p450
sbatp451
Rp452
(dp453
g12
Vprep
p454
sbatp455
Rp456
(dp457
g12
S'word: look, index: 13'
p458
sbatp459
Rp460
(dp461
g12
Vxcomp
p462
sbag0
(g1
g2
(lp463
g0
(g1
g2
(lp464
g0
(g1
g2
(lp465
(lp466
S'word: The, index: 1'
p467
aatp468
Rp469
(dp470
g12
Vdet
p471
sbag0
(g1
g2
(lp472
(lp473
S'word: little, index: 2'
p474
aatp475
Rp476
(dp477
g12
Vamod
p478
sbatp479
Rp480
(dp481
g12
S'word: girl, index: 3'
p482
sbatp483
Rp484
(dp485
g12
Vnsubj
p486
sbag0
(g1
g2
(lp487
(lp488
S'word: is, index: 4'
p489
aatp490
Rp491
(dp492
g12
Vaux
p493
sbag0
(g1
g2
(lp494
(lp495
S'word: her, index: 6'
p496
aatp497
Rp498
(dp499
g12
Vdobj
p500
sbatp501
Rp502
(dp503
g12
S'word: pointing, index: 5'
p504
sbatp505
Rp506
(dp507
g12
S'id: 3'
p508
sbag0
(g1
g2
(lp509
g0
(g1
g2
(lp510
g0
(g1
g2
(lp511
g0
(g1
g2
(lp512
g0
(g1
g2
(lp513
(lp514
S'word: is, index: 13'
p515
aatp516
Rp517
(dp518
g12
Vaux
p519
sbag0
(g1
g2
(lp520
g0
(g1
g2
(lp521
g0
(g1
g2
(lp522
(lp523
S'word: to, index: 15'
p524
aatp525
Rp526
(dp527
g12
Vaux
p528
sbatp529
Rp530
(dp531
g12
S'word: catch, index: 16'
p532
sbatp533
Rp534
(dp535
g12
Vxcomp
p536
sbatp537
Rp538
(dp539
g12
S'word: trying, index: 14'
p540
sbatp541
Rp542
(dp543
g12
Vparataxis
p544
sbag0
(g1
g2
(lp545
g0
(g1
g2
(lp546
g0
(g1
g2
(lp547
(lp548
S'word: The, index: 1'
p549
aatp550
Rp551
(dp552
g12
Vdet
p553
sbag0
(g1
g2
(lp554
(lp555
S'word: little, index: 2'
p556
aatp557
Rp558
(dp559
g12
Vamod
p560
sbag0
(g1
g2
(lp561
g0
(g1
g2
(lp562
g0
(g1
g2
(lp563
(lp564
S'word: that, index: 4'
p565
aatp566
Rp567
(dp568
g12
Vnsubj
p569
sbag0
(g1
g2
(lp570
g0
(g1
g2
(lp571
g0
(g1
g2
(lp572
(lp573
S'word: the, index: 7'
p574
aatp575
Rp576
(dp577
g12
Vdet
p578
sbag0
(g1
g2
(lp579
(lp580
S'word: opposite, index: 8'
p581
aatp582
Rp583
(dp584
g12
Vamod
p585
sbatp586
Rp587
(dp588
g12
S'word: family, index: 9'
p589
sbatp590
Rp591
(dp592
g12
Vprep
p593
sbatp594
Rp595
(dp596
g12
S'word: belongs, index: 5'
p597
sbatp598
Rp599
(dp600
g12
Vrcmod
p601
sbatp602
Rp603
(dp604
g12
S'word: boy, index: 3'
p605
sbatp606
Rp607
(dp608
g12
Vnsubj
p609
sbag0
(g1
g2
(lp610
g0
(g1
g2
(lp611
g0
(g1
g2
(lp612
(lp613
S'word: some, index: 18'
p614
aatp615
Rp616
(dp617
g12
Vdet
p618
sbag0
(g1
g2
(lp619
g0
(g1
g2
(lp620
g0
(g1
g2
(lp621
(lp622
S'word: that, index: 20'
p623
aatp624
Rp625
(dp626
g12
Vmark
p627
sbag0
(g1
g2
(lp628
g0
(g1
g2
(lp629
g0
(g1
g2
(lp630
(lp631
S'word: the, index: 21'
p632
aatp633
Rp634
(dp635
g12
Vdet
p636
sbatp637
Rp638
(dp639
g12
S'word: clown, index: 22'
p640
sbatp641
Rp642
(dp643
g12
Vnsubjpass
p644
sbag0
(g1
g2
(lp645
(lp646
S'word: is, index: 23'
p647
aatp648
Rp649
(dp650
g12
Vauxpass
p651
sbag0
(g1
g2
(lp652
(lp653
S'word: out, index: 25'
p654
aatp655
Rp656
(dp657
g12
Vprt
p658
sbatp659
Rp660
(dp661
g12
S'word: thrown, index: 24'
p662
sbatp663
Rp664
(dp665
g12
Vdep
p666
sbatp667
Rp668
(dp669
g12
S'word: candy, index: 19'
p670
sbatp671
Rp672
(dp673
g12
Vdobj
p674
sbag0
(g1
g2
(lp675
(lp676
S'word: is, index: 10'
p677
aatp678
Rp679
(dp680
g12
Vaux
p681
sbatp682
Rp683
(dp684
g12
S'word: catching, index: 11'
p685
sbatp686
Rp687
(dp688
g12
S'id: 4'
p689
sbag0
(g1
g2
(lp690
g0
(g1
g2
(lp691
g0
(g1
g2
(lp692
(lp693
S'word: is, index: 16'
p694
aatp695
Rp696
(dp697
g12
Vaux
p698
sbag0
(g1
g2
(lp699
g0
(g1
g2
(lp700
g0
(g1
g2
(lp701
(lp702
S'word: The, index: 1'
p703
aatp704
Rp705
(dp706
g12
Vdet
p707
sbag0
(g1
g2
(lp708
(lp709
S'word: other, index: 2'
p710
aatp711
Rp712
(dp713
g12
Vamod
p714
sbag0
(g1
g2
(lp715
g0
(g1
g2
(lp716
g0
(g1
g2
(lp717
(lp718
S'word: the, index: 5'
p719
aatp720
Rp721
(dp722
g12
Vdet
p723
sbatp724
Rp725
(dp726
g12
S'word: crowd, index: 6'
p727
sbatp728
Rp729
(dp730
g12
Vprep
p731
sbag0
(g1
g2
(lp732
g0
(g1
g2
(lp733
g0
(g1
g2
(lp734
(lp735
S'word: that, index: 8'
p736
aatp737
Rp738
(dp739
g12
Vmark
p740
sbag0
(g1
g2
(lp741
(lp742
S'word: you, index: 9'
p743
aatp744
Rp745
(dp746
g12
Vnsubj
p747
sbag0
(g1
g2
(lp748
(lp749
S'word: can, index: 10'
p750
aatp751
Rp752
(dp753
g12
Vaux
p754
sbag0
(g1
g2
(lp755
g0
(g1
g2
(lp756
g0
(g1
g2
(lp757
(lp758
S'word: the, index: 13'
p759
aatp760
Rp761
(dp762
g12
Vdet
p763
sbatp764
Rp765
(dp766
g12
S'word: distance, index: 14'
p767
sbatp768
Rp769
(dp770
g12
Vprep
p771
sbatp772
Rp773
(dp774
g12
S'word: see, index: 11'
p775
sbatp776
Rp777
(dp778
g12
Vdep
p779
sbatp780
Rp781
(dp782
g12
S'word: people, index: 3'
p783
sbatp784
Rp785
(dp786
g12
Vnsubj
p787
sbag0
(g1
g2
(lp788
g0
(g1
g2
(lp789
g0
(g1
g2
(lp790
(lp791
S'word: the, index: 18'
p792
aatp793
Rp794
(dp795
g12
Vdet
p796
sbag0
(g1
g2
(lp797
(lp798
S'word: tight, index: 19'
p799
aatp800
Rp801
(dp802
g12
Vamod
p803
sbag0
(g1
g2
(lp804
g0
(g1
g2
(lp805
g0
(g1
g2
(lp806
(lp807
S'word: rape, index: 22'
p808
aatp809
Rp810
(dp811
g12
Vnn
p812
sbatp813
Rp814
(dp815
g12
S'word: worker, index: 23'
p816
sbatp817
Rp818
(dp819
g12
Vappos
p820
sbag0
(g1
g2
(lp821
g0
(g1
g2
(lp822
g0
(g1
g2
(lp823
(lp824
S'word: that, index: 25'
p825
aatp826
Rp827
(dp828
g12
Vmark
p829
sbag0
(g1
g2
(lp830
(lp831
S'word: which, index: 26'
p832
aatp833
Rp834
(dp835
g12
Vnsubj
p836
sbag0
(g1
g2
(lp837
(lp838
S'word: is, index: 27'
p839
aatp840
Rp841
(dp842
g12
Vcop
p843
sbag0
(g1
g2
(lp844
(lp845
S'word: a, index: 28'
p846
aatp847
Rp848
(dp849
g12
Vdet
p850
sbag0
(g1
g2
(lp851
g0
(g1
g2
(lp852
g0
(g1
g2
(lp853
g0
(g1
g2
(lp854
g0
(g1
g2
(lp855
(lp856
S'word: the, index: 32'
p857
aatp858
Rp859
(dp860
g12
Vdet
p861
sbag0
(g1
g2
(lp862
(lp863
S'word: tight, index: 33'
p864
aatp865
Rp866
(dp867
g12
Vamod
p868
sbatp869
Rp870
(dp871
g12
S'word: rope, index: 34'
p872
sbatp873
Rp874
(dp875
g12
Vprep
p876
sbatp877
Rp878
(dp879
g12
S'word: walk, index: 30'
p880
sbatp881
Rp882
(dp883
g12
Vdep
p884
sbatp885
Rp886
(dp887
g12
S'word: man, index: 29'
p888
sbatp889
Rp890
(dp891
g12
Vdep
p892
sbatp893
Rp894
(dp895
g12
S'word: rape, index: 20'
p896
sbatp897
Rp898
(dp899
g12
Vdobj
p900
sbatp901
Rp902
(dp903
g12
S'word: watching, index: 17'
p904
sbatp905
Rp906
(dp907
g12
S'id: 5'
p908
sbag0
(g1
g2
(lp909
g0
(g1
g2
(lp910
g0
(g1
g2
(lp911
g0
(g1
g2
(lp912
g0
(g1
g2
(lp913
(lp914
S'word: The, index: 1'
p915
aatp916
Rp917
(dp918
g12
Vdet
p919
sbatp920
Rp921
(dp922
g12
S'word: mom, index: 2'
p923
sbatp924
Rp925
(dp926
g12
Vnsubj
p927
sbag0
(g1
g2
(lp928
(lp929
S'word: is, index: 3'
p930
aatp931
Rp932
(dp933
g12
Vaux
p934
sbag0
(g1
g2
(lp935
g0
(g1
g2
(lp936
g0
(g1
g2
(lp937
(lp938
S'word: the, index: 5'
p939
aatp940
Rp941
(dp942
g12
Vdet
p943
sbag0
(g1
g2
(lp944
(lp945
S'word: little, index: 6'
p946
aatp947
Rp948
(dp949
g12
Vamod
p950
sbatp951
Rp952
(dp953
g12
S'word: girl, index: 7'
p954
sbatp955
Rp956
(dp957
g12
Vdobj
p958
sbag0
(g1
g2
(lp959
g0
(g1
g2
(lp960
g0
(g1
g2
(lp961
(lp962
S'word: she, index: 10'
p963
aatp964
Rp965
(dp966
g12
Vnsubj
p967
sbag0
(g1
g2
(lp968
(lp969
S'word: is, index: 11'
p970
aatp971
Rp972
(dp973
g12
Vaux
p974
sbag0
(g1
g2
(lp975
(lp976
S'word: is, index: 12'
p977
aatp978
Rp979
(dp980
g12
Vaux
p981
sbag0
(g1
g2
(lp982
g0
(g1
g2
(lp983
g0
(g1
g2
(lp984
(lp985
S'word: she, index: 10'
p986
aatp987
Rp988
(dp989
g12
Vnsubj
p990
sbag0
(g1
g2
(lp991
g0
(g1
g2
(lp992
g0
(g1
g2
(lp993
(lp994
S'word: too, index: 17'
p995
aatp996
Rp997
(dp998
g12
Vadvmod
p999
sbatp1000
Rp1001
(dp1002
g12
S'word: fun, index: 16'
p1003
sbatp1004
Rp1005
(dp1006
g12
Vdobj
p1007
sbatp1008
Rp1009
(dp1010
g12
S'word: having, index: 15'
p1011
sbatp1012
Rp1013
(dp1014
g12
Vconj
p1015
sbatp1016
Rp1017
(dp1018
g12
S'word: smiling, index: 13'
p1019
sbatp1020
Rp1021
(dp1022
g12
Vconj
p1023
sbag0
(g1
g2
(lp1024
g1009
atp1025
Rp1026
(dp1027
g12
Vconj
p1028
sbatp1029
Rp1030
(dp1031
g12
S'word: holding, index: 4'
p1032
sbatp1033
Rp1034
(dp1035
g12
S'id: 6'
p1036
sbag0
(g1
g2
(lp1037
g0
(g1
g2
(lp1038
g0
(g1
g2
(lp1039
(lp1040
S'word: are, index: 11'
p1041
aatp1042
Rp1043
(dp1044
g12
Vaux
p1045
sbag0
(g1
g2
(lp1046
g0
(g1
g2
(lp1047
g0
(g1
g2
(lp1048
g0
(g1
g2
(lp1049
g0
(g1
g2
(lp1050
(lp1051
S'word: you, index: 5'
p1052
aatp1053
Rp1054
(dp1055
g12
Vnsubj
p1056
sbag0
(g1
g2
(lp1057
(lp1058
S'word: can, index: 6'
p1059
aatp1060
Rp1061
(dp1062
g12
Vaux
p1063
sbag0
(g1
g2
(lp1064
g0
(g1
g2
(lp1065
g0
(g1
g2
(lp1066
(lp1067
S'word: their, index: 8'
p1068
aatp1069
Rp1070
(dp1071
g12
Vposs
p1072
sbatp1073
Rp1074
(dp1075
g12
S'word: faces, index: 9'
p1076
sbatp1077
Rp1078
(dp1079
g12
Vdobj
p1080
sbag0
(g1
g2
(lp1081
(lp1082
S'word: that, index: 4'
p1083
aatp1084
Rp1085
(dp1086
g12
Vmark
p1087
sbatp1088
Rp1089
(dp1090
g12
S'word: see, index: 7'
p1091
sbatp1092
Rp1093
(dp1094
g12
Vdep
p1095
sbag0
(g1
g2
(lp1096
(lp1097
S'word: All, index: 1'
p1098
aatp1099
Rp1100
(dp1101
g12
Vdet
p1102
sbatp1103
Rp1104
(dp1105
g12
S'word: people, index: 2'
p1106
sbatp1107
Rp1108
(dp1109
g12
Vnsubj
p1110
sbatp1111
Rp1112
(dp1113
g12
S'word: smiling, index: 12'
p1114
sbatp1115
Rp1116
(dp1117
g12
S'id: 7'
p1118
sbag0
(g1
g2
(lp1119
g0
(g1
g2
(lp1120
g0
(g1
g2
(lp1121
g0
(g1
g2
(lp1122
g0
(g1
g2
(lp1123
g0
(g1
g2
(lp1124
g0
(g1
g2
(lp1125
(lp1126
S'word: to, index: 11'
p1127
aatp1128
Rp1129
(dp1130
g12
Vaux
p1131
sbag0
(g1
g2
(lp1132
(lp1133
S'word: be, index: 12'
p1134
aatp1135
Rp1136
(dp1137
g12
Vaux
p1138
sbag0
(g1
g2
(lp1139
g0
(g1
g2
(lp1140
g0
(g1
g2
(lp1141
(lp1142
S'word: the, index: 14'
p1143
aatp1144
Rp1145
(dp1146
g12
Vdet
p1147
sbatp1148
Rp1149
(dp1150
g12
S'word: time, index: 15'
p1151
sbatp1152
Rp1153
(dp1154
g12
Vdobj
p1155
sbatp1156
Rp1157
(dp1158
g12
S'word: enjoy, index: 13'
p1159
sbatp1160
Rp1161
(dp1162
g12
Vxcomp
p1163
sbag0
(g1
g2
(lp1164
(lp1165
S'word: that, index: 3'
p1166
aatp1167
Rp1168
(dp1169
g12
Vmark
p1170
sbag0
(g1
g2
(lp1171
g0
(g1
g2
(lp1172
g0
(g1
g2
(lp1173
(lp1174
S'word: the, index: 4'
p1175
aatp1176
Rp1177
(dp1178
g12
Vdet
p1179
sbag0
(g1
g2
(lp1180
g0
(g1
g2
(lp1181
g0
(g1
g2
(lp1182
(lp1183
S'word: as, index: 8'
p1184
aatp1185
Rp1186
(dp1187
g12
Vadvmod
p1188
sbatp1189
Rp1190
(dp1191
g12
S'word: tha, index: 7'
p1192
sbatp1193
Rp1194
(dp1195
g12
Vappos
p1196
sbatp1197
Rp1198
(dp1199
g12
S'word: spectadas, index: 5'
p1200
sbatp1201
Rp1202
(dp1203
g12
Vnsubj
p1204
sbatp1205
Rp1206
(dp1207
g12
S'word: seem, index: 10'
p1208
sbatp1209
Rp1210
(dp1211
g12
Vccomp
p1212
sbag0
(g1
g2
(lp1213
(lp1214
S'word: And, index: 1'
p1215
aatp1216
Rp1217
(dp1218
g12
Vcc
p1219
sbatp1220
Rp1221
(dp1222
g12
S'word: seems, index: 2'
p1223
sbatp1224
Rp1225
(dp1226
g12
S'id: 8'
p1227
sbag0
(g1
g2
(lp1228
g0
(g1
g2
(lp1229
g0
(g1
g2
(lp1230
(lp1231
S'word: There, index: 1'
p1232
aatp1233
Rp1234
(dp1235
g12
Vexpl
p1236
sbatp1237
Rp1238
(dp1239
g12
S"word: 's, index: 2"
p1240
sbatp1241
Rp1242
(dp1243
g12
S'id: 9'
p1244
sbatp1245
Rp1246
(dp1247
g12
S'sentences'
p1248
sb.