ccopy_reg
_reconstructor
p0
(cnltk.tree
Tree
p1
c__builtin__
list
p2
(lp3
g0
(g1
g2
(lp4
g0
(g1
g2
(lp5
g0
(g1
g2
(lp6
g0
(g1
g2
(lp7
Vok
p8
atp9
Rp10
(dp11
S'_label'
p12
VJJ
p13
sbatp14
Rp15
(dp16
g12
VNP
p17
sbag0
(g1
g2
(lp18
g0
(g1
g2
(lp19
Vlet
p20
atp21
Rp22
(dp23
g12
VVB
p24
sbag0
(g1
g2
(lp25
g0
(g1
g2
(lp26
g0
(g1
g2
(lp27
V's
p28
atp29
Rp30
(dp31
g12
VPOS
p32
sbatp33
Rp34
(dp35
g12
VNP
p36
sbag0
(g1
g2
(lp37
g0
(g1
g2
(lp38
Vsee
p39
atp40
Rp41
(dp42
g12
VVB
p43
sbatp44
Rp45
(dp46
g12
VVP
p47
sbatp48
Rp49
(dp50
g12
VS
p51
sbatp52
Rp53
(dp54
g12
VVP
p55
sbag0
(g1
g2
(lp56
V.
p57
atp58
Rp59
(dp60
g12
V.
p61
sbatp62
Rp63
(dp64
g12
VS
p65
sbatp66
Rp67
(dp68
g12
S'id: 0'
p69
sbag0
(g1
g2
(lp70
g0
(g1
g2
(lp71
g0
(g1
g2
(lp72
g0
(g1
g2
(lp73
VI
p74
atp75
Rp76
(dp77
g12
VPRP
p78
sbatp79
Rp80
(dp81
g12
VNP
p82
sbag0
(g1
g2
(lp83
g0
(g1
g2
(lp84
Vknow
p85
atp86
Rp87
(dp88
g12
VVBP
p89
sbag0
(g1
g2
(lp90
g0
(g1
g2
(lp91
g0
(g1
g2
(lp92
Vwhat
p93
atp94
Rp95
(dp96
g12
VWP
p97
sbatp98
Rp99
(dp100
g12
VWHNP
p101
sbag0
(g1
g2
(lp102
g0
(g1
g2
(lp103
g0
(g1
g2
(lp104
Vit
p105
atp106
Rp107
(dp108
g12
VPRP
p109
sbatp110
Rp111
(dp112
g12
VNP
p113
sbag0
(g1
g2
(lp114
g0
(g1
g2
(lp115
Vis
p116
atp117
Rp118
(dp119
g12
VVBZ
p120
sbag0
(g1
g2
(lp121
g0
(g1
g2
(lp122
Vbut
p123
atp124
Rp125
(dp126
g12
VCC
p127
sbag0
(g1
g2
(lp128
g0
(g1
g2
(lp129
g0
(g1
g2
(lp130
VI
p131
atp132
Rp133
(dp134
g12
VPRP
p135
sbatp136
Rp137
(dp138
g12
VNP
p139
sbag0
(g1
g2
(lp140
g0
(g1
g2
(lp141
Vca
p142
atp143
Rp144
(dp145
g12
VMD
p146
sbag0
(g1
g2
(lp147
Vn't
p148
atp149
Rp150
(dp151
g12
VRB
p152
sbag0
(g1
g2
(lp153
g0
(g1
g2
(lp154
Vsay
p155
atp156
Rp157
(dp158
g12
VVB
p159
sbatp160
Rp161
(dp162
g12
VVP
p163
sbatp164
Rp165
(dp166
g12
VVP
p167
sbatp168
Rp169
(dp170
g12
VS
p171
sbatp172
Rp173
(dp174
g12
VSBAR
p175
sbatp176
Rp177
(dp178
g12
VVP
p179
sbatp180
Rp181
(dp182
g12
VS
p183
sbatp184
Rp185
(dp186
g12
VSBAR
p187
sbatp188
Rp189
(dp190
g12
VVP
p191
sbag0
(g1
g2
(lp192
V.
p193
atp194
Rp195
(dp196
g12
V.
p197
sbatp198
Rp199
(dp200
g12
VS
p201
sbatp202
Rp203
(dp204
g12
S'id: 1'
p205
sbag0
(g1
g2
(lp206
g0
(g1
g2
(lp207
g0
(g1
g2
(lp208
g0
(g1
g2
(lp209
VHorse
p210
atp211
Rp212
(dp213
g12
VNN
p214
sbatp215
Rp216
(dp217
g12
VNP
p218
sbag0
(g1
g2
(lp219
V,
p220
atp221
Rp222
(dp223
g12
V,
p224
sbag0
(g1
g2
(lp225
g0
(g1
g2
(lp226
VI
p227
atp228
Rp229
(dp230
g12
VPRP
p231
sbatp232
Rp233
(dp234
g12
VNP
p235
sbag0
(g1
g2
(lp236
g0
(g1
g2
(lp237
V'm
p238
atp239
Rp240
(dp241
g12
VVBP
p242
sbag0
(g1
g2
(lp243
g0
(g1
g2
(lp244
Vsaying
p245
atp246
Rp247
(dp248
g12
VVBG
p249
sbag0
(g1
g2
(lp250
g0
(g1
g2
(lp251
g0
(g1
g2
(lp252
Vhorse
p253
atp254
Rp255
(dp256
g12
VNN
p257
sbatp258
Rp259
(dp260
g12
VNP
p261
sbag0
(g1
g2
(lp262
V,
p263
atp264
Rp265
(dp266
g12
V,
p267
sbag0
(g1
g2
(lp268
Vnot
p269
atp270
Rp271
(dp272
g12
VRB
p273
sbag0
(g1
g2
(lp274
g0
(g1
g2
(lp275
Va
p276
atp277
Rp278
(dp279
g12
VDT
p280
sbag0
(g1
g2
(lp281
Vhorse
p282
atp283
Rp284
(dp285
g12
VNN
p286
sbatp287
Rp288
(dp289
g12
VNP
p290
sbatp291
Rp292
(dp293
g12
VNP
p294
sbatp295
Rp296
(dp297
g12
VVP
p298
sbatp299
Rp300
(dp301
g12
VVP
p302
sbag0
(g1
g2
(lp303
V.
p304
atp305
Rp306
(dp307
g12
V.
p308
sbatp309
Rp310
(dp311
g12
VS
p312
sbatp313
Rp314
(dp315
g12
S'id: 2'
p316
sbag0
(g1
g2
(lp317
g0
(g1
g2
(lp318
g0
(g1
g2
(lp319
g0
(g1
g2
(lp320
g0
(g1
g2
(lp321
g0
(g1
g2
(lp322
VWell
p323
atp324
Rp325
(dp326
g12
VRB
p327
sbatp328
Rp329
(dp330
g12
VADVP
p331
sbag0
(g1
g2
(lp332
g0
(g1
g2
(lp333
Vlet
p334
atp335
Rp336
(dp337
g12
VVB
p338
sbag0
(g1
g2
(lp339
g0
(g1
g2
(lp340
g0
(g1
g2
(lp341
V's
p342
atp343
Rp344
(dp345
g12
VPOS
p346
sbatp347
Rp348
(dp349
g12
VNP
p350
sbag0
(g1
g2
(lp351
g0
(g1
g2
(lp352
Vsee
p353
atp354
Rp355
(dp356
g12
VVB
p357
sbatp358
Rp359
(dp360
g12
VVP
p361
sbatp362
Rp363
(dp364
g12
VS
p365
sbatp366
Rp367
(dp368
g12
VVP
p369
sbatp370
Rp371
(dp372
g12
VS
p373
sbag0
(g1
g2
(lp374
V,
p375
atp376
Rp377
(dp378
g12
V,
p379
sbag0
(g1
g2
(lp380
g0
(g1
g2
(lp381
Vthe
p382
atp383
Rp384
(dp385
g12
VDT
p386
sbag0
(g1
g2
(lp387
Vman
p388
atp389
Rp390
(dp391
g12
VNN
p392
sbatp393
Rp394
(dp395
g12
VNP
p396
sbag0
(g1
g2
(lp397
g0
(g1
g2
(lp398
Vhas
p399
atp400
Rp401
(dp402
g12
VVBZ
p403
sbag0
(g1
g2
(lp404
g0
(g1
g2
(lp405
g0
(g1
g2
(lp406
Vthe
p407
atp408
Rp409
(dp410
g12
VDT
p411
sbag0
(g1
g2
(lp412
Vman
p413
atp414
Rp415
(dp416
g12
VNN
p417
sbatp418
Rp419
(dp420
g12
VNP
p421
sbag0
(g1
g2
(lp422
g0
(g1
g2
(lp423
g0
(g1
g2
(lp424
Vwho
p425
atp426
Rp427
(dp428
g12
VWP
p429
sbatp430
Rp431
(dp432
g12
VWHNP
p433
sbag0
(g1
g2
(lp434
g0
(g1
g2
(lp435
g0
(g1
g2
(lp436
Vis
p437
atp438
Rp439
(dp440
g12
VVBZ
p441
sbag0
(g1
g2
(lp442
g0
(g1
g2
(lp443
Vtrying
p444
atp445
Rp446
(dp447
g12
VVBG
p448
sbag0
(g1
g2
(lp449
g0
(g1
g2
(lp450
Vto
p451
atp452
Rp453
(dp454
g12
VTO
p455
sbag0
(g1
g2
(lp456
g0
(g1
g2
(lp457
Vscratch
p458
atp459
Rp460
(dp461
g12
VNN
p462
sbatp463
Rp464
(dp465
g12
VNP
p466
sbatp467
Rp468
(dp469
g12
VPP
p470
sbatp471
Rp472
(dp473
g12
VVP
p474
sbatp475
Rp476
(dp477
g12
VVP
p478
sbatp479
Rp480
(dp481
g12
VS
p482
sbatp483
Rp484
(dp485
g12
VSBAR
p486
sbatp487
Rp488
(dp489
g12
VNP
p490
sbatp491
Rp492
(dp493
g12
VVP
p494
sbatp495
Rp496
(dp497
g12
VS
p498
sbag0
(g1
g2
(lp499
g0
(g1
g2
(lp500
V,
p501
atp502
Rp503
(dp504
g12
V,
p505
sbag0
(g1
g2
(lp506
g0
(g1
g2
(lp507
g0
(g1
g2
(lp508
Vi
p509
atp510
Rp511
(dp512
g12
VFW
p513
sbatp514
Rp515
(dp516
g12
VNP
p517
sbag0
(g1
g2
(lp518
g0
(g1
g2
(lp519
Vknow
p520
atp521
Rp522
(dp523
g12
VVBP
p524
sbag0
(g1
g2
(lp525
g0
(g1
g2
(lp526
g0
(g1
g2
(lp527
Vwhat
p528
atp529
Rp530
(dp531
g12
VWP
p532
sbatp533
Rp534
(dp535
g12
VWHNP
p536
sbag0
(g1
g2
(lp537
g0
(g1
g2
(lp538
g0
(g1
g2
(lp539
Vit
p540
atp541
Rp542
(dp543
g12
VPRP
p544
sbatp545
Rp546
(dp547
g12
VNP
p548
sbag0
(g1
g2
(lp549
g0
(g1
g2
(lp550
Vis
p551
atp552
Rp553
(dp554
g12
VVBZ
p555
sbatp556
Rp557
(dp558
g12
VVP
p559
sbatp560
Rp561
(dp562
g12
VS
p563
sbatp564
Rp565
(dp566
g12
VSBAR
p567
sbatp568
Rp569
(dp570
g12
VVP
p571
sbatp572
Rp573
(dp574
g12
VS
p575
sbag0
(g1
g2
(lp576
V,
p577
atp578
Rp579
(dp580
g12
V,
p581
sbatp582
Rp583
(dp584
g12
VPRN
p585
sbag0
(g1
g2
(lp586
Vbut
p587
atp588
Rp589
(dp590
g12
VCC
p591
sbag0
(g1
g2
(lp592
g0
(g1
g2
(lp593
g0
(g1
g2
(lp594
VI
p595
atp596
Rp597
(dp598
g12
VPRP
p599
sbatp600
Rp601
(dp602
g12
VNP
p603
sbag0
(g1
g2
(lp604
g0
(g1
g2
(lp605
Vcant
p606
atp607
Rp608
(dp609
g12
VVBP
p610
sbag0
(g1
g2
(lp611
g0
(g1
g2
(lp612
Vsay
p613
atp614
Rp615
(dp616
g12
VVB
p617
sbag0
(g1
g2
(lp618
g0
(g1
g2
(lp619
Vit
p620
atp621
Rp622
(dp623
g12
VPRP
p624
sbatp625
Rp626
(dp627
g12
VNP
p628
sbatp629
Rp630
(dp631
g12
VVP
p632
sbatp633
Rp634
(dp635
g12
VVP
p636
sbatp637
Rp638
(dp639
g12
VS
p640
sbag0
(g1
g2
(lp641
V.
p642
atp643
Rp644
(dp645
g12
V.
p646
sbatp647
Rp648
(dp649
g12
VS
p650
sbatp651
Rp652
(dp653
g12
S'id: 3'
p654
sbag0
(g1
g2
(lp655
g0
(g1
g2
(lp656
VOther
p657
atp658
Rp659
(dp660
g12
VJJ
p661
sbag0
(g1
g2
(lp662
Vguy
p663
atp664
Rp665
(dp666
g12
VNN
p667
sbag0
(g1
g2
(lp668
Vwho
p669
atp670
Rp671
(dp672
g12
VWP
p673
sbag0
(g1
g2
(lp674
V's
p675
atp676
Rp677
(dp678
g12
VVBZ
p679
sbag0
(g1
g2
(lp680
Vwearing
p681
atp682
Rp683
(dp684
g12
VVBG
p685
sbag0
(g1
g2
(lp686
Vall
p687
atp688
Rp689
(dp690
g12
VPDT
p691
sbag0
(g1
g2
(lp692
Vthe
p693
atp694
Rp695
(dp696
g12
VDT
p697
sbag0
(g1
g2
(lp698
Vpaint
p699
atp700
Rp701
(dp702
g12
VNN
p703
sbag0
(g1
g2
(lp704
Von
p705
atp706
Rp707
(dp708
g12
VIN
p709
sbag0
(g1
g2
(lp710
Vhis
p711
atp712
Rp713
(dp714
g12
VPRP$
p715
sbag0
(g1
g2
(lp716
Vface
p717
atp718
Rp719
(dp720
g12
VNN
p721
sbag0
(g1
g2
(lp722
V,
p723
atp724
Rp725
(dp726
g12
V,
p727
sbag0
(g1
g2
(lp728
Vand
p729
atp730
Rp731
(dp732
g12
VCC
p733
sbag0
(g1
g2
(lp734
Vthe
p735
atp736
Rp737
(dp738
g12
VDT
p739
sbag0
(g1
g2
(lp740
Vbig
p741
atp742
Rp743
(dp744
g12
VJJ
p745
sbag0
(g1
g2
(lp746
Vfancy
p747
atp748
Rp749
(dp750
g12
VJJ
p751
sbag0
(g1
g2
(lp752
Vhair
p753
atp754
Rp755
(dp756
g12
VNN
p757
sbag0
(g1
g2
(lp758
V,
p759
atp760
Rp761
(dp762
g12
V,
p763
sbag0
(g1
g2
(lp764
Vand
p765
atp766
Rp767
(dp768
g12
VCC
p769
sbag0
(g1
g2
(lp770
Vall
p771
atp772
Rp773
(dp774
g12
VDT
p775
sbag0
(g1
g2
(lp776
V,
p777
atp778
Rp779
(dp780
g12
V,
p781
sbag0
(g1
g2
(lp782
Vhe
p783
atp784
Rp785
(dp786
g12
VPRP
p787
sbag0
(g1
g2
(lp788
V's
p789
atp790
Rp791
(dp792
g12
VVBZ
p793
sbag0
(g1
g2
(lp794
Vgot
p795
atp796
Rp797
(dp798
g12
VVBN
p799
sbag0
(g1
g2
(lp800
Vwater
p801
atp802
Rp803
(dp804
g12
VNN
p805
sbag0
(g1
g2
(lp806
V,
p807
atp808
Rp809
(dp810
g12
V,
p811
sbag0
(g1
g2
(lp812
Vand
p813
atp814
Rp815
(dp816
g12
VCC
p817
sbag0
(g1
g2
(lp818
Vhe
p819
atp820
Rp821
(dp822
g12
VPRP
p823
sbag0
(g1
g2
(lp824
V's
p825
atp826
Rp827
(dp828
g12
VVBZ
p829
sbag0
(g1
g2
(lp830
Vtrying
p831
atp832
Rp833
(dp834
g12
VVBG
p835
sbag0
(g1
g2
(lp836
Vto
p837
atp838
Rp839
(dp840
g12
VTO
p841
sbag0
(g1
g2
(lp842
Vput
p843
atp844
Rp845
(dp846
g12
VVB
p847
sbag0
(g1
g2
(lp848
Vthe
p849
atp850
Rp851
(dp852
g12
VDT
p853
sbag0
(g1
g2
(lp854
Vwater
p855
atp856
Rp857
(dp858
g12
VNN
p859
sbag0
(g1
g2
(lp860
Von
p861
atp862
Rp863
(dp864
g12
VIN
p865
sbag0
(g1
g2
(lp866
Vto
p867
atp868
Rp869
(dp870
g12
VTO
p871
sbag0
(g1
g2
(lp872
V,
p873
atp874
Rp875
(dp876
g12
V,
p877
sbag0
(g1
g2
(lp878
Vit
p879
atp880
Rp881
(dp882
g12
VPRP
p883
sbag0
(g1
g2
(lp884
Vlooks
p885
atp886
Rp887
(dp888
g12
VVBZ
p889
sbag0
(g1
g2
(lp890
Vlike
p891
atp892
Rp893
(dp894
g12
VIN
p895
sbag0
(g1
g2
(lp896
Vwater
p897
atp898
Rp899
(dp900
g12
VNN
p901
sbag0
(g1
g2
(lp902
Vbut
p903
atp904
Rp905
(dp906
g12
VCC
p907
sbag0
(g1
g2
(lp908
Vit
p909
atp910
Rp911
(dp912
g12
VPRP
p913
sbag0
(g1
g2
(lp914
V's
p915
atp916
Rp917
(dp918
g12
VVBZ
p919
sbag0
(g1
g2
(lp920
Vnot
p921
atp922
Rp923
(dp924
g12
VRB
p925
sbag0
(g1
g2
(lp926
V,
p927
atp928
Rp929
(dp930
g12
V,
p931
sbag0
(g1
g2
(lp932
Vit
p933
atp934
Rp935
(dp936
g12
VPRP
p937
sbag0
(g1
g2
(lp938
V's
p939
atp940
Rp941
(dp942
g12
VVBZ
p943
sbag0
(g1
g2
(lp944
Vsomething
p945
atp946
Rp947
(dp948
g12
VNN
p949
sbag0
(g1
g2
(lp950
Velse
p951
atp952
Rp953
(dp954
g12
VRB
p955
sbag0
(g1
g2
(lp956
V,
p957
atp958
Rp959
(dp960
g12
V,
p961
sbag0
(g1
g2
(lp962
Von
p963
atp964
Rp965
(dp966
g12
VIN
p967
sbag0
(g1
g2
(lp968
Vto
p969
atp970
Rp971
(dp972
g12
VTO
p973
sbag0
(g1
g2
(lp974
Vthe
p975
atp976
Rp977
(dp978
g12
VDT
p979
sbag0
(g1
g2
(lp980
Vboy
p981
atp982
Rp983
(dp984
g12
VNN
p985
sbag0
(g1
g2
(lp986
Vand
p987
atp988
Rp989
(dp990
g12
VCC
p991
sbag0
(g1
g2
(lp992
Vgirl
p993
atp994
Rp995
(dp996
g12
VNN
p997
sbag0
(g1
g2
(lp998
V,
p999
atp1000
Rp1001
(dp1002
g12
V,
p1003
sbag0
(g1
g2
(lp1004
Vand
p1005
atp1006
Rp1007
(dp1008
g12
VCC
p1009
sbag0
(g1
g2
(lp1010
Vthe
p1011
atp1012
Rp1013
(dp1014
g12
VDT
p1015
sbag0
(g1
g2
(lp1016
Vmother
p1017
atp1018
Rp1019
(dp1020
g12
VNN
p1021
sbag0
(g1
g2
(lp1022
V,
p1023
atp1024
Rp1025
(dp1026
g12
V,
p1027
sbag0
(g1
g2
(lp1028
Vand
p1029
atp1030
Rp1031
(dp1032
g12
VCC
p1033
sbag0
(g1
g2
(lp1034
Vthe
p1035
atp1036
Rp1037
(dp1038
g12
VDT
p1039
sbag0
(g1
g2
(lp1040
Vgirl
p1041
atp1042
Rp1043
(dp1044
g12
VNN
p1045
sbag0
(g1
g2
(lp1046
Vis
p1047
atp1048
Rp1049
(dp1050
g12
VVBZ
p1051
sbag0
(g1
g2
(lp1052
Vturned
p1053
atp1054
Rp1055
(dp1056
g12
VVBN
p1057
sbag0
(g1
g2
(lp1058
Varound
p1059
atp1060
Rp1061
(dp1062
g12
VRP
p1063
sbag0
(g1
g2
(lp1064
V,
p1065
atp1066
Rp1067
(dp1068
g12
V,
p1069
sbag0
(g1
g2
(lp1070
Vand
p1071
atp1072
Rp1073
(dp1074
g12
VCC
p1075
sbag0
(g1
g2
(lp1076
Vtwirling
p1077
atp1078
Rp1079
(dp1080
g12
VVBG
p1081
sbag0
(g1
g2
(lp1082
Varound
p1083
atp1084
Rp1085
(dp1086
g12
VRB
p1087
sbag0
(g1
g2
(lp1088
V.
p1089
atp1090
Rp1091
(dp1092
g12
V.
p1093
sbatp1094
Rp1095
(dp1096
g12
S'id: 4'
p1097
sbag0
(g1
g2
(lp1098
g0
(g1
g2
(lp1099
g0
(g1
g2
(lp1100
g0
(g1
g2
(lp1101
g0
(g1
g2
(lp1102
g0
(g1
g2
(lp1103
VA
p1104
atp1105
Rp1106
(dp1107
g12
VDT
p1108
sbag0
(g1
g2
(lp1109
Vman
p1110
atp1111
Rp1112
(dp1113
g12
VNN
p1114
sbatp1115
Rp1116
(dp1117
g12
VNP
p1118
sbag0
(g1
g2
(lp1119
g0
(g1
g2
(lp1120
Vup
p1121
atp1122
Rp1123
(dp1124
g12
VRB
p1125
sbag0
(g1
g2
(lp1126
Vabove
p1127
atp1128
Rp1129
(dp1130
g12
VRB
p1131
sbatp1132
Rp1133
(dp1134
g12
VADVP
p1135
sbag0
(g1
g2
(lp1136
g0
(g1
g2
(lp1137
Vis
p1138
atp1139
Rp1140
(dp1141
g12
VVBZ
p1142
sbag0
(g1
g2
(lp1143
g0
(g1
g2
(lp1144
Vclimbing
p1145
atp1146
Rp1147
(dp1148
g12
VVBG
p1149
sbag0
(g1
g2
(lp1150
g0
(g1
g2
(lp1151
Vup
p1152
atp1153
Rp1154
(dp1155
g12
VRP
p1156
sbatp1157
Rp1158
(dp1159
g12
VPRT
p1160
sbatp1161
Rp1162
(dp1163
g12
VVP
p1164
sbag0
(g1
g2
(lp1165
V,
p1166
atp1167
Rp1168
(dp1169
g12
V,
p1170
sbag0
(g1
g2
(lp1171
g0
(g1
g2
(lp1172
Vhigh
p1173
atp1174
Rp1175
(dp1176
g12
VJJ
p1177
sbag0
(g1
g2
(lp1178
Vup
p1179
atp1180
Rp1181
(dp1182
g12
VRB
p1183
sbatp1184
Rp1185
(dp1186
g12
VADVP
p1187
sbag0
(g1
g2
(lp1188
V,
p1189
atp1190
Rp1191
(dp1192
g12
V,
p1193
sbag0
(g1
g2
(lp1194
g0
(g1
g2
(lp1195
Vwhite
p1196
atp1197
Rp1198
(dp1199
g12
VJJ
p1200
sbatp1201
Rp1202
(dp1203
g12
VADJP
p1204
sbatp1205
Rp1206
(dp1207
g12
VVP
p1208
sbatp1209
Rp1210
(dp1211
g12
VS
p1212
sbag0
(g1
g2
(lp1213
V,
p1214
atp1215
Rp1216
(dp1217
g12
V,
p1218
sbag0
(g1
g2
(lp1219
g0
(g1
g2
(lp1220
Vwell
p1221
atp1222
Rp1223
(dp1224
g12
VRB
p1225
sbatp1226
Rp1227
(dp1228
g12
VADVP
p1229
sbag0
(g1
g2
(lp1230
g0
(g1
g2
(lp1231
g0
(g1
g2
(lp1232
VI
p1233
atp1234
Rp1235
(dp1236
g12
VPRP
p1237
sbatp1238
Rp1239
(dp1240
g12
VNP
p1241
sbag0
(g1
g2
(lp1242
g0
(g1
g2
(lp1243
Vca
p1244
atp1245
Rp1246
(dp1247
g12
VMD
p1248
sbag0
(g1
g2
(lp1249
Vn't
p1250
atp1251
Rp1252
(dp1253
g12
VRB
p1254
sbag0
(g1
g2
(lp1255
g0
(g1
g2
(lp1256
Vsay
p1257
atp1258
Rp1259
(dp1260
g12
VVB
p1261
sbag0
(g1
g2
(lp1262
g0
(g1
g2
(lp1263
Vit
p1264
atp1265
Rp1266
(dp1267
g12
VPRP
p1268
sbatp1269
Rp1270
(dp1271
g12
VNP
p1272
sbatp1273
Rp1274
(dp1275
g12
VVP
p1276
sbatp1277
Rp1278
(dp1279
g12
VVP
p1280
sbatp1281
Rp1282
(dp1283
g12
VS
p1284
sbatp1285
Rp1286
(dp1287
g12
VS
p1288
sbag0
(g1
g2
(lp1289
V,
p1290
atp1291
Rp1292
(dp1293
g12
V,
p1294
sbag0
(g1
g2
(lp1295
g0
(g1
g2
(lp1296
Vhe
p1297
atp1298
Rp1299
(dp1300
g12
VPRP
p1301
sbatp1302
Rp1303
(dp1304
g12
VNP
p1305
sbag0
(g1
g2
(lp1306
g0
(g1
g2
(lp1307
V's
p1308
atp1309
Rp1310
(dp1311
g12
VVBZ
p1312
sbag0
(g1
g2
(lp1313
g0
(g1
g2
(lp1314
Vwalking
p1315
atp1316
Rp1317
(dp1318
g12
VVBG
p1319
sbag0
(g1
g2
(lp1320
g0
(g1
g2
(lp1321
Vacross
p1322
atp1323
Rp1324
(dp1325
g12
VIN
p1326
sbag0
(g1
g2
(lp1327
g0
(g1
g2
(lp1328
Vthe
p1329
atp1330
Rp1331
(dp1332
g12
VDT
p1333
sbag0
(g1
g2
(lp1334
Vtop
p1335
atp1336
Rp1337
(dp1338
g12
VNN
p1339
sbatp1340
Rp1341
(dp1342
g12
VNP
p1343
sbatp1344
Rp1345
(dp1346
g12
VPP
p1347
sbatp1348
Rp1349
(dp1350
g12
VVP
p1351
sbatp1352
Rp1353
(dp1354
g12
VVP
p1355
sbag0
(g1
g2
(lp1356
V.
p1357
atp1358
Rp1359
(dp1360
g12
V.
p1361
sbatp1362
Rp1363
(dp1364
g12
VS
p1365
sbatp1366
Rp1367
(dp1368
g12
S'id: 5'
p1369
sbag0
(g1
g2
(lp1370
g0
(g1
g2
(lp1371
g0
(g1
g2
(lp1372
VAnd
p1373
atp1374
Rp1375
(dp1376
g12
VCC
p1377
sbag0
(g1
g2
(lp1378
g0
(g1
g2
(lp1379
Vin
p1380
atp1381
Rp1382
(dp1383
g12
VIN
p1384
sbag0
(g1
g2
(lp1385
g0
(g1
g2
(lp1386
Vthe
p1387
atp1388
Rp1389
(dp1390
g12
VDT
p1391
sbag0
(g1
g2
(lp1392
g0
(g1
g2
(lp1393
Vvery
p1394
atp1395
Rp1396
(dp1397
g12
VRB
p1398
sbag0
(g1
g2
(lp1399
Vfar
p1400
atp1401
Rp1402
(dp1403
g12
VRB
p1404
sbag0
(g1
g2
(lp1405
Vright
p1406
atp1407
Rp1408
(dp1409
g12
VJJ
p1410
sbatp1411
Rp1412
(dp1413
g12
VADJP
p1414
sbatp1415
Rp1416
(dp1417
g12
VNP
p1418
sbatp1419
Rp1420
(dp1421
g12
VPP
p1422
sbag0
(g1
g2
(lp1423
g0
(g1
g2
(lp1424
g0
(g1
g2
(lp1425
Vi
p1426
atp1427
Rp1428
(dp1429
g12
VFW
p1430
sbatp1431
Rp1432
(dp1433
g12
VNP
p1434
sbag0
(g1
g2
(lp1435
g0
(g1
g2
(lp1436
Vsee
p1437
atp1438
Rp1439
(dp1440
g12
VVB
p1441
sbag0
(g1
g2
(lp1442
g0
(g1
g2
(lp1443
g0
(g1
g2
(lp1444
Vthe
p1445
atp1446
Rp1447
(dp1448
g12
VDT
p1449
sbag0
(g1
g2
(lp1450
Vlady
p1451
atp1452
Rp1453
(dp1454
g12
VNN
p1455
sbag0
(g1
g2
(lp1456
V's
p1457
atp1458
Rp1459
(dp1460
g12
VPOS
p1461
sbatp1462
Rp1463
(dp1464
g12
VNP
p1465
sbag0
(g1
g2
(lp1466
g0
(g1
g2
(lp1467
Vriding
p1468
atp1469
Rp1470
(dp1471
g12
VVBG
p1472
sbag0
(g1
g2
(lp1473
g0
(g1
g2
(lp1474
Vthe
p1475
atp1476
Rp1477
(dp1478
g12
VDT
p1479
sbag0
(g1
g2
(lp1480
Vhorse
p1481
atp1482
Rp1483
(dp1484
g12
VNN
p1485
sbatp1486
Rp1487
(dp1488
g12
VNP
p1489
sbatp1490
Rp1491
(dp1492
g12
VVP
p1493
sbatp1494
Rp1495
(dp1496
g12
VS
p1497
sbatp1498
Rp1499
(dp1500
g12
VVP
p1501
sbatp1502
Rp1503
(dp1504
g12
VS
p1505
sbag0
(g1
g2
(lp1506
V,
p1507
atp1508
Rp1509
(dp1510
g12
V,
p1511
sbag0
(g1
g2
(lp1512
Vand
p1513
atp1514
Rp1515
(dp1516
g12
VCC
p1517
sbag0
(g1
g2
(lp1518
g0
(g1
g2
(lp1519
g0
(g1
g2
(lp1520
Vthe
p1521
atp1522
Rp1523
(dp1524
g12
VDT
p1525
sbag0
(g1
g2
(lp1526
Vhorse
p1527
atp1528
Rp1529
(dp1530
g12
VNN
p1531
sbatp1532
Rp1533
(dp1534
g12
VNP
p1535
sbag0
(g1
g2
(lp1536
g0
(g1
g2
(lp1537
Vis
p1538
atp1539
Rp1540
(dp1541
g12
VVBZ
p1542
sbag0
(g1
g2
(lp1543
g0
(g1
g2
(lp1544
Vjust
p1545
atp1546
Rp1547
(dp1548
g12
VRB
p1549
sbatp1550
Rp1551
(dp1552
g12
VADVP
p1553
sbag0
(g1
g2
(lp1554
g0
(g1
g2
(lp1555
Vwalking
p1556
atp1557
Rp1558
(dp1559
g12
VVBG
p1560
sbag0
(g1
g2
(lp1561
g0
(g1
g2
(lp1562
Varound
p1563
atp1564
Rp1565
(dp1566
g12
VRB
p1567
sbatp1568
Rp1569
(dp1570
g12
VADVP
p1571
sbatp1572
Rp1573
(dp1574
g12
VVP
p1575
sbatp1576
Rp1577
(dp1578
g12
VVP
p1579
sbatp1580
Rp1581
(dp1582
g12
VS
p1583
sbag0
(g1
g2
(lp1584
V.
p1585
atp1586
Rp1587
(dp1588
g12
V.
p1589
sbatp1590
Rp1591
(dp1592
g12
VS
p1593
sbatp1594
Rp1595
(dp1596
g12
S'id: 6'
p1597
sbag0
(g1
g2
(lp1598
g0
(g1
g2
(lp1599
g0
(g1
g2
(lp1600
VAnd
p1601
atp1602
Rp1603
(dp1604
g12
VCC
p1605
sbag0
(g1
g2
(lp1606
g0
(g1
g2
(lp1607
g0
(g1
g2
(lp1608
Vshe
p1609
atp1610
Rp1611
(dp1612
g12
VPRP
p1613
sbatp1614
Rp1615
(dp1616
g12
VNP
p1617
sbag0
(g1
g2
(lp1618
g0
(g1
g2
(lp1619
V's
p1620
atp1621
Rp1622
(dp1623
g12
VVBZ
p1624
sbag0
(g1
g2
(lp1625
g0
(g1
g2
(lp1626
Vgetting
p1627
atp1628
Rp1629
(dp1630
g12
VVBG
p1631
sbag0
(g1
g2
(lp1632
g0
(g1
g2
(lp1633
Vready
p1634
atp1635
Rp1636
(dp1637
g12
VJJ
p1638
sbag0
(g1
g2
(lp1639
g0
(g1
g2
(lp1640
g0
(g1
g2
(lp1641
Vto
p1642
atp1643
Rp1644
(dp1645
g12
VTO
p1646
sbag0
(g1
g2
(lp1647
g0
(g1
g2
(lp1648
Vgo
p1649
atp1650
Rp1651
(dp1652
g12
VVB
p1653
sbag0
(g1
g2
(lp1654
g0
(g1
g2
(lp1655
Vup
p1656
atp1657
Rp1658
(dp1659
g12
VRP
p1660
sbatp1661
Rp1662
(dp1663
g12
VPRT
p1664
sbag0
(g1
g2
(lp1665
g0
(g1
g2
(lp1666
Von
p1667
atp1668
Rp1669
(dp1670
g12
VIN
p1671
sbag0
(g1
g2
(lp1672
g0
(g1
g2
(lp1673
Vher
p1674
atp1675
Rp1676
(dp1677
g12
VPRP$
p1678
sbag0
(g1
g2
(lp1679
Vtoes
p1680
atp1681
Rp1682
(dp1683
g12
VNNS
p1684
sbatp1685
Rp1686
(dp1687
g12
VNP
p1688
sbatp1689
Rp1690
(dp1691
g12
VPP
p1692
sbatp1693
Rp1694
(dp1695
g12
VVP
p1696
sbatp1697
Rp1698
(dp1699
g12
VVP
p1700
sbatp1701
Rp1702
(dp1703
g12
VS
p1704
sbatp1705
Rp1706
(dp1707
g12
VADJP
p1708
sbatp1709
Rp1710
(dp1711
g12
VVP
p1712
sbatp1713
Rp1714
(dp1715
g12
VVP
p1716
sbatp1717
Rp1718
(dp1719
g12
VS
p1720
sbag0
(g1
g2
(lp1721
V,
p1722
atp1723
Rp1724
(dp1725
g12
V,
p1726
sbag0
(g1
g2
(lp1727
Vbut
p1728
atp1729
Rp1730
(dp1731
g12
VCC
p1732
sbag0
(g1
g2
(lp1733
g0
(g1
g2
(lp1734
g0
(g1
g2
(lp1735
g0
(g1
g2
(lp1736
Vshe
p1737
atp1738
Rp1739
(dp1740
g12
VPRP
p1741
sbatp1742
Rp1743
(dp1744
g12
VNP
p1745
sbag0
(g1
g2
(lp1746
g0
(g1
g2
(lp1747
V's
p1748
atp1749
Rp1750
(dp1751
g12
VVBZ
p1752
sbag0
(g1
g2
(lp1753
g0
(g1
g2
(lp1754
Vjust
p1755
atp1756
Rp1757
(dp1758
g12
VRB
p1759
sbatp1760
Rp1761
(dp1762
g12
VADVP
p1763
sbatp1764
Rp1765
(dp1766
g12
VVP
p1767
sbatp1768
Rp1769
(dp1770
g12
VS
p1771
sbag0
(g1
g2
(lp1772
V,
p1773
atp1774
Rp1775
(dp1776
g12
V,
p1777
sbag0
(g1
g2
(lp1778
Vbut
p1779
atp1780
Rp1781
(dp1782
g12
VCC
p1783
sbag0
(g1
g2
(lp1784
g0
(g1
g2
(lp1785
g0
(g1
g2
(lp1786
Vshe
p1787
atp1788
Rp1789
(dp1790
g12
VPRP
p1791
sbatp1792
Rp1793
(dp1794
g12
VNP
p1795
sbag0
(g1
g2
(lp1796
g0
(g1
g2
(lp1797
V's
p1798
atp1799
Rp1800
(dp1801
g12
VVBZ
p1802
sbag0
(g1
g2
(lp1803
g0
(g1
g2
(lp1804
Vjust
p1805
atp1806
Rp1807
(dp1808
g12
VRB
p1809
sbatp1810
Rp1811
(dp1812
g12
VADVP
p1813
sbag0
(g1
g2
(lp1814
g0
(g1
g2
(lp1815
Vsitting
p1816
atp1817
Rp1818
(dp1819
g12
VVBG
p1820
sbag0
(g1
g2
(lp1821
g0
(g1
g2
(lp1822
Vthere
p1823
atp1824
Rp1825
(dp1826
g12
VRB
p1827
sbatp1828
Rp1829
(dp1830
g12
VADVP
p1831
sbatp1832
Rp1833
(dp1834
g12
VVP
p1835
sbatp1836
Rp1837
(dp1838
g12
VVP
p1839
sbatp1840
Rp1841
(dp1842
g12
VS
p1843
sbatp1844
Rp1845
(dp1846
g12
VS
p1847
sbag0
(g1
g2
(lp1848
V.
p1849
atp1850
Rp1851
(dp1852
g12
V.
p1853
sbatp1854
Rp1855
(dp1856
g12
VS
p1857
sbatp1858
Rp1859
(dp1860
g12
S'id: 7'
p1861
sbag0
(g1
g2
(lp1862
g0
(g1
g2
(lp1863
g0
(g1
g2
(lp1864
g0
(g1
g2
(lp1865
VLet
p1866
atp1867
Rp1868
(dp1869
g12
VVB
p1870
sbag0
(g1
g2
(lp1871
g0
(g1
g2
(lp1872
g0
(g1
g2
(lp1873
V's
p1874
atp1875
Rp1876
(dp1877
g12
VPRP
p1878
sbatp1879
Rp1880
(dp1881
g12
VNP
p1882
sbag0
(g1
g2
(lp1883
g0
(g1
g2
(lp1884
Vsee
p1885
atp1886
Rp1887
(dp1888
g12
VVB
p1889
sbatp1890
Rp1891
(dp1892
g12
VVP
p1893
sbatp1894
Rp1895
(dp1896
g12
VS
p1897
sbatp1898
Rp1899
(dp1900
g12
VVP
p1901
sbag0
(g1
g2
(lp1902
V.
p1903
atp1904
Rp1905
(dp1906
g12
V.
p1907
sbatp1908
Rp1909
(dp1910
g12
VS
p1911
sbatp1912
Rp1913
(dp1914
g12
S'id: 8'
p1915
sbag0
(g1
g2
(lp1916
g0
(g1
g2
(lp1917
g0
(g1
g2
(lp1918
g0
(g1
g2
(lp1919
g0
(g1
g2
(lp1920
g0
(g1
g2
(lp1921
VPardon
p1922
atp1923
Rp1924
(dp1925
g12
VVB
p1926
sbag0
(g1
g2
(lp1927
g0
(g1
g2
(lp1928
Vme
p1929
atp1930
Rp1931
(dp1932
g12
VPRP
p1933
sbatp1934
Rp1935
(dp1936
g12
VNP
p1937
sbatp1938
Rp1939
(dp1940
g12
VVP
p1941
sbatp1942
Rp1943
(dp1944
g12
VS
p1945
sbag0
(g1
g2
(lp1946
V,
p1947
atp1948
Rp1949
(dp1950
g12
V,
p1951
sbag0
(g1
g2
(lp1952
g0
(g1
g2
(lp1953
VI
p1954
atp1955
Rp1956
(dp1957
g12
VPRP
p1958
sbatp1959
Rp1960
(dp1961
g12
VNP
p1962
sbag0
(g1
g2
(lp1963
g0
(g1
g2
(lp1964
Vknow
p1965
atp1966
Rp1967
(dp1968
g12
VVBP
p1969
sbag0
(g1
g2
(lp1970
g0
(g1
g2
(lp1971
g0
(g1
g2
(lp1972
Vwhat
p1973
atp1974
Rp1975
(dp1976
g12
VWP
p1977
sbatp1978
Rp1979
(dp1980
g12
VWHNP
p1981
sbag0
(g1
g2
(lp1982
g0
(g1
g2
(lp1983
g0
(g1
g2
(lp1984
Vit
p1985
atp1986
Rp1987
(dp1988
g12
VPRP
p1989
sbatp1990
Rp1991
(dp1992
g12
VNP
p1993
sbag0
(g1
g2
(lp1994
g0
(g1
g2
(lp1995
Vis
p1996
atp1997
Rp1998
(dp1999
g12
VVBZ
p2000
sbatp2001
Rp2002
(dp2003
g12
VVP
p2004
sbatp2005
Rp2006
(dp2007
g12
VS
p2008
sbatp2009
Rp2010
(dp2011
g12
VSBAR
p2012
sbatp2013
Rp2014
(dp2015
g12
VVP
p2016
sbatp2017
Rp2018
(dp2019
g12
VS
p2020
sbag0
(g1
g2
(lp2021
V,
p2022
atp2023
Rp2024
(dp2025
g12
V,
p2026
sbag0
(g1
g2
(lp2027
Vbut
p2028
atp2029
Rp2030
(dp2031
g12
VCC
p2032
sbag0
(g1
g2
(lp2033
g0
(g1
g2
(lp2034
g0
(g1
g2
(lp2035
VI
p2036
atp2037
Rp2038
(dp2039
g12
VPRP
p2040
sbatp2041
Rp2042
(dp2043
g12
VNP
p2044
sbag0
(g1
g2
(lp2045
g0
(g1
g2
(lp2046
Vcant
p2047
atp2048
Rp2049
(dp2050
g12
VVBP
p2051
sbag0
(g1
g2
(lp2052
g0
(g1
g2
(lp2053
Vsay
p2054
atp2055
Rp2056
(dp2057
g12
VVB
p2058
sbag0
(g1
g2
(lp2059
g0
(g1
g2
(lp2060
Vtheir
p2061
atp2062
Rp2063
(dp2064
g12
VPRP$
p2065
sbag0
(g1
g2
(lp2066
Vnames
p2067
atp2068
Rp2069
(dp2070
g12
VNNS
p2071
sbatp2072
Rp2073
(dp2074
g12
VNP
p2075
sbatp2076
Rp2077
(dp2078
g12
VVP
p2079
sbatp2080
Rp2081
(dp2082
g12
VVP
p2083
sbatp2084
Rp2085
(dp2086
g12
VS
p2087
sbag0
(g1
g2
(lp2088
V.
p2089
atp2090
Rp2091
(dp2092
g12
V.
p2093
sbatp2094
Rp2095
(dp2096
g12
VS
p2097
sbatp2098
Rp2099
(dp2100
g12
S'id: 9'
p2101
sbag0
(g1
g2
(lp2102
g0
(g1
g2
(lp2103
g0
(g1
g2
(lp2104
g0
(g1
g2
(lp2105
g0
(g1
g2
(lp2106
g0
(g1
g2
(lp2107
VOnly
p2108
atp2109
Rp2110
(dp2111
g12
VRB
p2112
sbag0
(g1
g2
(lp2113
Vthing
p2114
atp2115
Rp2116
(dp2117
g12
VNN
p2118
sbatp2119
Rp2120
(dp2121
g12
VNP
p2122
sbag0
(g1
g2
(lp2123
g0
(g1
g2
(lp2124
g0
(g1
g2
(lp2125
g0
(g1
g2
(lp2126
Vi
p2127
atp2128
Rp2129
(dp2130
g12
VFW
p2131
sbatp2132
Rp2133
(dp2134
g12
VNP
p2135
sbag0
(g1
g2
(lp2136
g0
(g1
g2
(lp2137
Vreally
p2138
atp2139
Rp2140
(dp2141
g12
VRB
p2142
sbatp2143
Rp2144
(dp2145
g12
VADVP
p2146
sbag0
(g1
g2
(lp2147
g0
(g1
g2
(lp2148
Vsay
p2149
atp2150
Rp2151
(dp2152
g12
VVB
p2153
sbatp2154
Rp2155
(dp2156
g12
VVP
p2157
sbatp2158
Rp2159
(dp2160
g12
VS
p2161
sbatp2162
Rp2163
(dp2164
g12
VSBAR
p2165
sbatp2166
Rp2167
(dp2168
g12
VNP
p2169
sbag0
(g1
g2
(lp2170
g0
(g1
g2
(lp2171
Vis
p2172
atp2173
Rp2174
(dp2175
g12
VVBZ
p2176
sbag0
(g1
g2
(lp2177
g0
(g1
g2
(lp2178
Vthe
p2179
atp2180
Rp2181
(dp2182
g12
VDT
p2183
sbag0
(g1
g2
(lp2184
Vhorse
p2185
atp2186
Rp2187
(dp2188
g12
VNN
p2189
sbatp2190
Rp2191
(dp2192
g12
VNP
p2193
sbatp2194
Rp2195
(dp2196
g12
VVP
p2197
sbatp2198
Rp2199
(dp2200
g12
VS
p2201
sbag0
(g1
g2
(lp2202
V,
p2203
atp2204
Rp2205
(dp2206
g12
V,
p2207
sbag0
(g1
g2
(lp2208
g0
(g1
g2
(lp2209
VI
p2210
atp2211
Rp2212
(dp2213
g12
VPRP
p2214
sbatp2215
Rp2216
(dp2217
g12
VNP
p2218
sbag0
(g1
g2
(lp2219
g0
(g1
g2
(lp2220
Vcant
p2221
atp2222
Rp2223
(dp2224
g12
VVBP
p2225
sbag0
(g1
g2
(lp2226
g0
(g1
g2
(lp2227
Vsay
p2228
atp2229
Rp2230
(dp2231
g12
VVB
p2232
sbag0
(g1
g2
(lp2233
g0
(g1
g2
(lp2234
Vhorse
p2235
atp2236
Rp2237
(dp2238
g12
VNN
p2239
sbatp2240
Rp2241
(dp2242
g12
VNP
p2243
sbatp2244
Rp2245
(dp2246
g12
VVP
p2247
sbatp2248
Rp2249
(dp2250
g12
VVP
p2251
sbag0
(g1
g2
(lp2252
V.
p2253
atp2254
Rp2255
(dp2256
g12
V.
p2257
sbatp2258
Rp2259
(dp2260
g12
VS
p2261
sbatp2262
Rp2263
(dp2264
g12
S'id: 10'
p2265
sbatp2266
Rp2267
(dp2268
g12
S'sentences'
p2269
sb.