ccopy_reg
_reconstructor
p0
(cnltk.tree
Tree
p1
c__builtin__
list
p2
(lp3
g0
(g1
g2
(lp4
g0
(g1
g2
(lp5
g0
(g1
g2
(lp6
Vwords
p7
atp8
Rp9
(dp10
S'_label'
p11
VNNS
p12
sbag0
(g1
g2
(lp13
V.
p14
atp15
Rp16
(dp17
g11
V.
p18
sbatp19
Rp20
(dp21
g11
VNP
p22
sbatp23
Rp24
(dp25
g11
S'id: 0'
p26
sbag0
(g1
g2
(lp27
g0
(g1
g2
(lp28
g0
(g1
g2
(lp29
g0
(g1
g2
(lp30
Vhere
p31
atp32
Rp33
(dp34
g11
VRB
p35
sbatp36
Rp37
(dp38
g11
VADVP
p39
sbag0
(g1
g2
(lp40
V,
p41
atp42
Rp43
(dp44
g11
V,
p45
sbag0
(g1
g2
(lp46
g0
(g1
g2
(lp47
Vhere
p48
atp49
Rp50
(dp51
g11
VRB
p52
sbatp53
Rp54
(dp55
g11
VADVP
p56
sbag0
(g1
g2
(lp57
V.
p58
atp59
Rp60
(dp61
g11
V.
p62
sbatp63
Rp64
(dp65
g11
VFRAG
p66
sbatp67
Rp68
(dp69
g11
S'id: 1'
p70
sbag0
(g1
g2
(lp71
g0
(g1
g2
(lp72
g0
(g1
g2
(lp73
g0
(g1
g2
(lp74
g0
(g1
g2
(lp75
Vthis
p76
atp77
Rp78
(dp79
g11
VDT
p80
sbatp81
Rp82
(dp83
g11
VNP
p84
sbag0
(g1
g2
(lp85
Vand
p86
atp87
Rp88
(dp89
g11
VCC
p90
sbag0
(g1
g2
(lp91
g0
(g1
g2
(lp92
Vthis
p93
atp94
Rp95
(dp96
g11
VDT
p97
sbatp98
Rp99
(dp100
g11
VNP
p101
sbatp102
Rp103
(dp104
g11
VNP
p105
sbag0
(g1
g2
(lp106
V.
p107
atp108
Rp109
(dp110
g11
V.
p111
sbatp112
Rp113
(dp114
g11
VNP
p115
sbatp116
Rp117
(dp118
g11
S'id: 2'
p119
sbag0
(g1
g2
(lp120
g0
(g1
g2
(lp121
g0
(g1
g2
(lp122
Vand
p123
atp124
Rp125
(dp126
g11
VCC
p127
sbag0
(g1
g2
(lp128
g0
(g1
g2
(lp129
Vhere
p130
atp131
Rp132
(dp133
g11
VRB
p134
sbatp135
Rp136
(dp137
g11
VADVP
p138
sbag0
(g1
g2
(lp139
V,
p140
atp141
Rp142
(dp143
g11
V,
p144
sbag0
(g1
g2
(lp145
g0
(g1
g2
(lp146
Vand
p147
atp148
Rp149
(dp150
g11
VCC
p151
sbag0
(g1
g2
(lp152
g0
(g1
g2
(lp153
Vhere
p154
atp155
Rp156
(dp157
g11
VRB
p158
sbatp159
Rp160
(dp161
g11
VNP
p162
sbatp163
Rp164
(dp165
g11
VPP
p166
sbag0
(g1
g2
(lp167
V.
p168
atp169
Rp170
(dp171
g11
V.
p172
sbatp173
Rp174
(dp175
g11
VFRAG
p176
sbatp177
Rp178
(dp179
g11
S'id: 3'
p180
sbatp181
Rp182
(dp183
g11
S'sentences'
p184
sb.