ccopy_reg
_reconstructor
p0
(cnltk.tree
Tree
p1
c__builtin__
list
p2
(lp3
g0
(g1
g2
(lp4
g0
(g1
g2
(lp5
g0
(g1
g2
(lp6
(lp7
S'word: this, index: 1'
p8
aatp9
Rp10
(dp11
S'_label'
p12
Vnsubj
p13
sbag0
(g1
g2
(lp14
g0
(g1
g2
(lp15
g0
(g1
g2
(lp16
g0
(g1
g2
(lp17
g0
(g1
g2
(lp18
(lp19
S'word: an, index: 6'
p20
aatp21
Rp22
(dp23
g12
Vdet
p24
sbag0
(g1
g2
(lp25
(lp26
S'word: old, index: 7'
p27
aatp28
Rp29
(dp30
g12
Vamod
p31
sbag0
(g1
g2
(lp32
(lp33
S'word: fashion, index: 8'
p34
aatp35
Rp36
(dp37
g12
Vnn
p38
sbatp39
Rp40
(dp41
g12
S'word: kitchen, index: 9'
p42
sbatp43
Rp44
(dp45
g12
Vprep
p46
sbatp47
Rp48
(dp49
g12
S'word: looks, index: 4'
p50
sbatp51
Rp52
(dp53
g12
Vdep
p54
sbatp55
Rp56
(dp57
g12
S'word: is, index: 2'
p58
sbatp59
Rp60
(dp61
g12
S'id: 0'
p62
sbag0
(g1
g2
(lp63
g0
(g1
g2
(lp64
g0
(g1
g2
(lp65
(lp66
S'word: there, index: 3'
p67
aatp68
Rp69
(dp70
g12
Vdep
p71
sbag0
(g1
g2
(lp72
g0
(g1
g2
(lp73
g0
(g1
g2
(lp74
g0
(g1
g2
(lp75
g0
(g1
g2
(lp76
(lp77
S'word: the, index: 6'
p78
aatp79
Rp80
(dp81
g12
Vdet
p82
sbatp83
Rp84
(dp85
g12
S'word: dishes, index: 7'
p86
sbatp87
Rp88
(dp89
g12
Vdobj
p90
sbatp91
Rp92
(dp93
g12
S'word: drying, index: 5'
p94
sbatp95
Rp96
(dp97
g12
Vvmod
p98
sbag0
(g1
g2
(lp99
(lp100
S"word: 's, index: 2"
p101
aatp102
Rp103
(dp104
g12
Vpossessive
p105
sbatp106
Rp107
(dp108
g12
S'word: Mom, index: 1'
p109
sbatp110
Rp111
(dp112
g12
S'id: 1'
p113
sbag0
(g1
g2
(lp114
g0
(g1
g2
(lp115
g0
(g1
g2
(lp116
g0
(g1
g2
(lp117
g0
(g1
g2
(lp118
(lp119
S'word: course, index: 9'
p120
aatp121
Rp122
(dp123
g12
Vprep
p124
sbag0
(g1
g2
(lp125
g0
(g1
g2
(lp126
g0
(g1
g2
(lp127
(lp128
S'word: the, index: 11'
p129
aatp130
Rp131
(dp132
g12
Vdet
p133
sbatp134
Rp135
(dp136
g12
S'word: kids, index: 12'
p137
sbatp138
Rp139
(dp140
g12
Vnsubj
p141
sbag0
(g1
g2
(lp142
g0
(g1
g2
(lp143
g0
(g1
g2
(lp144
(lp145
S'word: to, index: 14'
p146
aatp147
Rp148
(dp149
g12
Vaux
p150
sbag0
(g1
g2
(lp151
g0
(g1
g2
(lp152
g0
(g1
g2
(lp153
(lp154
S'word: the, index: 17'
p155
aatp156
Rp157
(dp158
g12
Vdet
p159
sbag0
(g1
g2
(lp160
(lp161
S'word: cookie, index: 18'
p162
aatp163
Rp164
(dp165
g12
Vnn
p166
sbatp167
Rp168
(dp169
g12
S'word: jar, index: 19'
p170
sbatp171
Rp172
(dp173
g12
Vprep
p174
sbatp175
Rp176
(dp177
g12
S'word: get, index: 15'
p178
sbatp179
Rp180
(dp181
g12
Vxcomp
p182
sbatp183
Rp184
(dp185
g12
S'word: wanted, index: 13'
p186
sbatp187
Rp188
(dp189
g12
Vconj
p190
sbag0
(g1
g2
(lp191
g0
(g1
g2
(lp192
g0
(g1
g2
(lp193
(lp194
S'word: The, index: 1'
p195
aatp196
Rp197
(dp198
g12
Vdet
p199
sbatp200
Rp201
(dp202
g12
S'word: sink, index: 2'
p203
sbatp204
Rp205
(dp206
g12
Vnsubj
p207
sbag0
(g1
g2
(lp208
(lp209
S'word: flowing, index: 5'
p210
aatp211
Rp212
(dp213
g12
Vprep
p214
sbatp215
Rp216
(dp217
g12
S'word: is, index: 3'
p218
sbatp219
Rp220
(dp221
g12
S'id: 2'
p222
sbag0
(g1
g2
(lp223
g0
(g1
g2
(lp224
g0
(g1
g2
(lp225
g0
(g1
g2
(lp226
g0
(g1
g2
(lp227
(lp228
S'word: The, index: 1'
p229
aatp230
Rp231
(dp232
g12
Vdet
p233
sbatp234
Rp235
(dp236
g12
S'word: cabinet, index: 2'
p237
sbatp238
Rp239
(dp240
g12
Vnsubj
p241
sbag0
(g1
g2
(lp242
(lp243
S'word: is, index: 3'
p244
aatp245
Rp246
(dp247
g12
Vcop
p248
sbatp249
Rp250
(dp251
g12
S'word: open, index: 4'
p252
sbatp253
Rp254
(dp255
g12
S'id: 3'
p256
sbag0
(g1
g2
(lp257
g0
(g1
g2
(lp258
g0
(g1
g2
(lp259
g0
(g1
g2
(lp260
g0
(g1
g2
(lp261
(lp262
S'word: as, index: 13'
p263
aatp264
Rp265
(dp266
g12
Vmark
p267
sbag0
(g1
g2
(lp268
(lp269
S'word: he, index: 14'
p270
aatp271
Rp272
(dp273
g12
Vnsubj
p274
sbag0
(g1
g2
(lp275
g0
(g1
g2
(lp276
g0
(g1
g2
(lp277
(lp278
S'word: a, index: 16'
p279
aatp280
Rp281
(dp282
g12
Vdet
p283
sbag0
(g1
g2
(lp284
g0
(g1
g2
(lp285
g0
(g1
g2
(lp286
(lp287
S'word: his, index: 19'
p288
aatp289
Rp290
(dp291
g12
Vposs
p292
sbag0
(g1
g2
(lp293
(lp294
S'word: little, index: 20'
p295
aatp296
Rp297
(dp298
g12
Vamod
p299
sbatp300
Rp301
(dp302
g12
S'word: sister, index: 21'
p303
sbatp304
Rp305
(dp306
g12
Vprep
p307
sbatp308
Rp309
(dp310
g12
S'word: cookie, index: 17'
p311
sbatp312
Rp313
(dp314
g12
Vdobj
p315
sbatp316
Rp317
(dp318
g12
S'word: grabs, index: 15'
p319
sbatp320
Rp321
(dp322
g12
Vadvcl
p323
sbag0
(g1
g2
(lp324
g0
(g1
g2
(lp325
g0
(g1
g2
(lp326
(lp327
S'word: The, index: 1'
p328
aatp329
Rp330
(dp331
g12
Vdet
p332
sbag0
(g1
g2
(lp333
(lp334
S"word: 's, index: 3"
p335
aatp336
Rp337
(dp338
g12
Vpossessive
p339
sbatp340
Rp341
(dp342
g12
S'word: boy, index: 2'
p343
sbatp344
Rp345
(dp346
g12
Vnsubj
p347
sbag0
(g1
g2
(lp348
g0
(g1
g2
(lp349
g0
(g1
g2
(lp350
g0
(g1
g2
(lp351
g0
(g1
g2
(lp352
(lp353
S'word: the, index: 6'
p354
aatp355
Rp356
(dp357
g12
Vdet
p358
sbag0
(g1
g2
(lp359
g0
(g1
g2
(lp360
g0
(g1
g2
(lp361
(lp362
S'word: the, index: 9'
p363
aatp364
Rp365
(dp366
g12
Vdet
p367
sbatp368
Rp369
(dp370
g12
S'word: stool, index: 10'
p371
sbatp372
Rp373
(dp374
g12
Vappos
p375
sbatp376
Rp377
(dp378
g12
S'word: stool, index: 7'
p379
sbatp380
Rp381
(dp382
g12
Vprep
p383
sbatp384
Rp385
(dp386
g12
S'word: up, index: 4'
p387
sbatp388
Rp389
(dp390
g12
Vadvmod
p391
sbag0
(g1
g2
(lp392
g0
(g1
g2
(lp393
g0
(g1
g2
(lp394
(lp395
S'word: who, index: 23'
p396
aatp397
Rp398
(dp399
g12
Vnsubj
p400
sbag0
(g1
g2
(lp401
(lp402
S'word: is, index: 24'
p403
aatp404
Rp405
(dp406
g12
Vcop
p407
sbag0
(g1
g2
(lp408
g0
(g1
g2
(lp409
g0
(g1
g2
(lp410
g0
(g1
g2
(lp411
g0
(g1
g2
(lp412
(lp413
S'word: the, index: 28'
p414
aatp415
Rp416
(dp417
g12
Vdet
p418
sbag0
(g1
g2
(lp419
g0
(g1
g2
(lp420
g0
(g1
g2
(lp421
(lp422
S'word: her, index: 31'
p423
aatp424
Rp425
(dp426
g12
Vposs
p427
sbag0
(g1
g2
(lp428
(lp429
S'word: outstretched, index: 32'
p430
aatp431
Rp432
(dp433
g12
Vamod
p434
sbatp435
Rp436
(dp437
g12
S'word: hand, index: 33'
p438
sbatp439
Rp440
(dp441
g12
Vprep
p442
sbatp443
Rp444
(dp445
g12
S'word: cookie, index: 29'
p446
sbatp447
Rp448
(dp449
g12
Vprep
p450
sbatp451
Rp452
(dp453
g12
S'word: reaching, index: 26'
p454
sbatp455
Rp456
(dp457
g12
Vxcomp
p458
sbatp459
Rp460
(dp461
g12
S'word: re, index: 25'
p462
sbatp463
Rp464
(dp465
g12
Vccomp
p466
sbag0
(g1
g2
(lp467
(lp468
S'word: is, index: 11'
p469
aatp470
Rp471
(dp472
g12
Vaux
p473
sbatp474
Rp475
(dp476
g12
S'word: falling, index: 12'
p477
sbatp478
Rp479
(dp480
g12
S'id: 4'
p481
sbag0
(g1
g2
(lp482
g0
(g1
g2
(lp483
g0
(g1
g2
(lp484
g0
(g1
g2
(lp485
g0
(g1
g2
(lp486
(lp487
S'word: Mom, index: 1'
p488
aatp489
Rp490
(dp491
g12
Vposs
p492
sbatp493
Rp494
(dp495
g12
S'word: feet, index: 3'
p496
sbatp497
Rp498
(dp499
g12
Vnsubj
p500
sbag0
(g1
g2
(lp501
(lp502
S'word: are, index: 4'
p503
aatp504
Rp505
(dp506
g12
Vaux
p507
sbag0
(g1
g2
(lp508
(lp509
S'word: getting, index: 5'
p510
aatp511
Rp512
(dp513
g12
Vdep
p514
sbatp515
Rp516
(dp517
g12
S'word: wet, index: 6'
p518
sbatp519
Rp520
(dp521
g12
S'id: 5'
p522
sbag0
(g1
g2
(lp523
g0
(g1
g2
(lp524
g0
(g1
g2
(lp525
g0
(g1
g2
(lp526
g0
(g1
g2
(lp527
g0
(g1
g2
(lp528
g0
(g1
g2
(lp529
(lp530
S'word: pull, index: 5'
p531
aatp532
Rp533
(dp534
g12
Vprep
p535
sbatp536
Rp537
(dp538
g12
S'word: kind, index: 3'
p539
sbatp540
Rp541
(dp542
g12
Vdobj
p543
sbatp544
Rp545
(dp546
g12
S'word: fashioned, index: 2'
p547
sbatp548
Rp549
(dp550
g12
Vvmod
p551
sbag0
(g1
g2
(lp552
g0
(g1
g2
(lp553
g0
(g1
g2
(lp554
(lp555
S'word: back, index: 6'
p556
aatp557
Rp558
(dp559
g12
Vdep
p560
sbatp561
Rp562
(dp563
g12
S'word: curtains, index: 7'
p564
sbatp565
Rp566
(dp567
g12
Vdep
p568
sbatp569
Rp570
(dp571
g12
S'word: Old, index: 1'
p572
sbatp573
Rp574
(dp575
g12
S'id: 6'
p576
sbag0
(g1
g2
(lp577
g0
(g1
g2
(lp578
g0
(g1
g2
(lp579
(lp580
S'word: it, index: 6'
p581
aatp582
Rp583
(dp584
g12
Vnsubj
p585
sbag0
(g1
g2
(lp586
(lp587
S'word: must, index: 7'
p588
aatp589
Rp590
(dp591
g12
Vaux
p592
sbag0
(g1
g2
(lp593
(lp594
S'word: be, index: 8'
p595
aatp596
Rp597
(dp598
g12
Vcop
p599
sbag0
(g1
g2
(lp600
(lp601
S'word: a, index: 9'
p602
aatp603
Rp604
(dp605
g12
Vdet
p606
sbag0
(g1
g2
(lp607
(lp608
S'word: nice, index: 10'
p609
aatp610
Rp611
(dp612
g12
Vamod
p613
sbag0
(g1
g2
(lp614
(lp615
S'word: spring, index: 11'
p616
aatp617
Rp618
(dp619
g12
Vnn
p620
sbag0
(g1
g2
(lp621
g0
(g1
g2
(lp622
g0
(g1
g2
(lp623
(lp624
S'word: there, index: 14'
p625
aatp626
Rp627
(dp628
g12
Vpobj
p629
sbatp630
Rp631
(dp632
g12
S'word: out, index: 13'
p633
sbatp634
Rp635
(dp636
g12
Vprep
p637
sbag0
(g1
g2
(lp638
g0
(g1
g2
(lp639
g0
(g1
g2
(lp640
(lp641
S'word: The, index: 1'
p642
aatp643
Rp644
(dp645
g12
Vdet
p646
sbag0
(g1
g2
(lp647
(lp648
S"word: 's, index: 3"
p649
aatp650
Rp651
(dp652
g12
Vpossessive
p653
sbag0
(g1
g2
(lp654
(lp655
S'word: open, index: 4'
p656
aatp657
Rp658
(dp659
g12
Vamod
p660
sbatp661
Rp662
(dp663
g12
S'word: window, index: 2'
p664
sbatp665
Rp666
(dp667
g12
Vccomp
p668
sbatp669
Rp670
(dp671
g12
S'word: day, index: 12'
p672
sbatp673
Rp674
(dp675
g12
S'id: 7'
p676
sbag0
(g1
g2
(lp677
g0
(g1
g2
(lp678
g0
(g1
g2
(lp679
g0
(g1
g2
(lp680
g0
(g1
g2
(lp681
(lp682
S'word: the, index: 9'
p683
aatp684
Rp685
(dp686
g12
Vdet
p687
sbag0
(g1
g2
(lp688
(lp689
S'word: dirty, index: 10'
p690
aatp691
Rp692
(dp693
g12
Vamod
p694
sbag0
(g1
g2
(lp695
g0
(g1
g2
(lp696
g0
(g1
g2
(lp697
(lp698
S'word: the, index: 14'
p699
aatp700
Rp701
(dp702
g12
Vdet
p703
sbag0
(g1
g2
(lp704
g0
(g1
g2
(lp705
g0
(g1
g2
(lp706
(lp707
S'word: that, index: 16'
p708
aatp709
Rp710
(dp711
g12
Vnsubj
p712
sbag0
(g1
g2
(lp713
(lp714
S"word: 's, index: 17"
p715
aatp716
Rp717
(dp718
g12
Vaux
p719
sbag0
(g1
g2
(lp720
g0
(g1
g2
(lp721
g0
(g1
g2
(lp722
(lp723
S'word: the, index: 20'
p724
aatp725
Rp726
(dp727
g12
Vdet
p728
sbatp729
Rp730
(dp731
g12
S'word: floor, index: 21'
p732
sbatp733
Rp734
(dp735
g12
Vprep
p736
sbatp737
Rp738
(dp739
g12
S'word: happening, index: 18'
p740
sbatp741
Rp742
(dp743
g12
Vrcmod
p744
sbatp745
Rp746
(dp747
g12
S'word: flood, index: 15'
p748
sbatp749
Rp750
(dp751
g12
Vconj
p752
sbatp753
Rp754
(dp755
g12
S'word: dishes, index: 11'
p756
sbatp757
Rp758
(dp759
g12
Vprep
p760
sbag0
(g1
g2
(lp761
g746
atp762
Rp763
(dp764
g12
Vprep
p765
sbag0
(g1
g2
(lp766
g0
(g1
g2
(lp767
g0
(g1
g2
(lp768
(lp769
S'word: The, index: 1'
p770
aatp771
Rp772
(dp773
g12
Vdet
p774
sbatp775
Rp776
(dp777
g12
S'word: kitchen, index: 2'
p778
sbatp779
Rp780
(dp781
g12
Vnsubj
p782
sbag0
(g1
g2
(lp783
g0
(g1
g2
(lp784
g0
(g1
g2
(lp785
(lp786
S'word: pretty, index: 4'
p787
aatp788
Rp789
(dp790
g12
Vadvmod
p791
sbatp792
Rp793
(dp794
g12
S'word: clean, index: 5'
p795
sbatp796
Rp797
(dp798
g12
Vacomp
p799
sbatp800
Rp801
(dp802
g12
S'word: looks, index: 3'
p803
sbatp804
Rp805
(dp806
g12
S'id: 8'
p807
sbag0
(g1
g2
(lp808
g0
(g1
g2
(lp809
g0
(g1
g2
(lp810
g0
(g1
g2
(lp811
g0
(g1
g2
(lp812
(lp813
S"word: 's, index: 2"
p814
aatp815
Rp816
(dp817
g12
Vnsubj
p818
sbag0
(g1
g2
(lp819
g0
(g1
g2
(lp820
g0
(g1
g2
(lp821
(lp822
S'word: mom, index: 4'
p823
aatp824
Rp825
(dp826
g12
Vnsubj
p827
sbag0
(g1
g2
(lp828
(lp829
S'word: does, index: 5'
p830
aatp831
Rp832
(dp833
g12
Vaux
p834
sbag0
(g1
g2
(lp835
(lp836
S"word: n't, index: 6"
p837
aatp838
Rp839
(dp840
g12
Vneg
p841
sbag0
(g1
g2
(lp842
g0
(g1
g2
(lp843
g0
(g1
g2
(lp844
(lp845
S'word: her, index: 8'
p846
aatp847
Rp848
(dp849
g12
Vposs
p850
sbatp851
Rp852
(dp853
g12
S'word: shoes, index: 9'
p854
sbatp855
Rp856
(dp857
g12
Vdobj
p858
sbatp859
Rp860
(dp861
g12
S'word: ruin, index: 7'
p862
sbatp863
Rp864
(dp865
g12
Vccomp
p866
sbatp867
Rp868
(dp869
g12
S'word: hope, index: 3'
p870
sbatp871
Rp872
(dp873
g12
Vccomp
p874
sbatp875
Rp876
(dp877
g12
S'word: Let, index: 1'
p878
sbatp879
Rp880
(dp881
g12
S'id: 9'
p882
sbag0
(g1
g2
(lp883
g0
(g1
g2
(lp884
g0
(g1
g2
(lp885
g0
(g1
g2
(lp886
g0
(g1
g2
(lp887
(lp888
S'word: mom, index: 3'
p889
aatp890
Rp891
(dp892
g12
Vprep
p893
sbatp894
Rp895
(dp896
g12
S'word: Looks, index: 1'
p897
sbatp898
Rp899
(dp900
g12
Vcsubj
p901
sbag0
(g1
g2
(lp902
(lp903
S'word: might, index: 4'
p904
aatp905
Rp906
(dp907
g12
Vaux
p908
sbag0
(g1
g2
(lp909
(lp910
S'word: be, index: 5'
p911
aatp912
Rp913
(dp914
g12
Vaux
p915
sbag0
(g1
g2
(lp916
g0
(g1
g2
(lp917
g0
(g1
g2
(lp918
(lp919
S'word: an, index: 7'
p920
aatp921
Rp922
(dp923
g12
Vdet
p924
sbatp925
Rp926
(dp927
g12
S'word: apron, index: 8'
p928
sbatp929
Rp930
(dp931
g12
Vdobj
p932
sbag0
(g1
g2
(lp933
(lp934
S'word: too, index: 9'
p935
aatp936
Rp937
(dp938
g12
Vadvmod
p939
sbatp940
Rp941
(dp942
g12
S'word: wearing, index: 6'
p943
sbatp944
Rp945
(dp946
g12
S'id: 10'
p947
sbag0
(g1
g2
(lp948
g0
(g1
g2
(lp949
g0
(g1
g2
(lp950
g0
(g1
g2
(lp951
g0
(g1
g2
(lp952
(lp953
S'word: Could, index: 1'
p954
aatp955
Rp956
(dp957
g12
Vaux
p958
sbag0
(g1
g2
(lp959
(lp960
S'word: be, index: 2'
p961
aatp962
Rp963
(dp964
g12
Vcop
p965
sbatp966
Rp967
(dp968
g12
S'word: summer, index: 3'
p969
sbatp970
Rp971
(dp972
g12
Vccomp
p973
sbag0
(g1
g2
(lp974
g0
(g1
g2
(lp975
g0
(g1
g2
(lp976
(lp977
S'word: fall, index: 7'
p978
aatp979
Rp980
(dp981
g12
Vappos
p982
sbatp983
Rp984
(dp985
g12
S'word: spring, index: 5'
p986
sbatp987
Rp988
(dp989
g12
Vnsubj
p990
sbag0
(g1
g2
(lp991
g0
(g1
g2
(lp992
g0
(g1
g2
(lp993
(lp994
S'word: the, index: 11'
p995
aatp996
Rp997
(dp998
g12
Vdet
p999
sbatp1000
Rp1001
(dp1002
g12
S'word: trees, index: 12'
p1003
sbatp1004
Rp1005
(dp1006
g12
Vprep
p1007
sbatp1008
Rp1009
(dp1010
g12
S'word: leaves, index: 9'
p1011
sbatp1012
Rp1013
(dp1014
g12
S'id: 11'
p1015
sbag0
(g1
g2
(lp1016
g0
(g1
g2
(lp1017
g0
(g1
g2
(lp1018
g0
(g1
g2
(lp1019
g0
(g1
g2
(lp1020
(lp1021
S'word: bowls, index: 5'
p1022
aatp1023
Rp1024
(dp1025
g12
Vdep
p1026
sbatp1027
Rp1028
(dp1029
g12
S'word: dirty, index: 4'
p1030
sbatp1031
Rp1032
(dp1033
g12
Vappos
p1034
sbag0
(g1
g2
(lp1035
g0
(g1
g2
(lp1036
g0
(g1
g2
(lp1037
(lp1038
S'word: the, index: 8'
p1039
aatp1040
Rp1041
(dp1042
g12
Vdet
p1043
sbatp1044
Rp1045
(dp1046
g12
S'word: counter, index: 9'
p1047
sbatp1048
Rp1049
(dp1050
g12
Vprep
p1051
sbag0
(g1
g2
(lp1052
g0
(g1
g2
(lp1053
g0
(g1
g2
(lp1054
(lp1055
S'word: one, index: 11'
p1056
aatp1057
Rp1058
(dp1059
g12
Vnum
p1060
sbag0
(g1
g2
(lp1061
(lp1062
S'word: dirty, index: 12'
p1063
aatp1064
Rp1065
(dp1066
g12
Vamod
p1067
sbag0
(g1
g2
(lp1068
g0
(g1
g2
(lp1069
g0
(g1
g2
(lp1070
(lp1071
S'word: the, index: 15'
p1072
aatp1073
Rp1074
(dp1075
g12
Vdet
p1076
sbatp1077
Rp1078
(dp1079
g12
S'word: counter, index: 16'
p1080
sbatp1081
Rp1082
(dp1083
g12
Vprep
p1084
sbatp1085
Rp1086
(dp1087
g12
S'word: plate, index: 13'
p1088
sbatp1089
Rp1090
(dp1091
g12
Vappos
p1092
sbag0
(g1
g2
(lp1093
(lp1094
S'word: Two, index: 1'
p1095
aatp1096
Rp1097
(dp1098
g12
Vnum
p1099
sbatp1100
Rp1101
(dp1102
g12
S'word: bowl, index: 2'
p1103
sbatp1104
Rp1105
(dp1106
g12
S'id: 12'
p1107
sbag0
(g1
g2
(lp1108
g0
(g1
g2
(lp1109
g0
(g1
g2
(lp1110
(lp1111
S'word: Not, index: 1'
p1112
aatp1113
Rp1114
(dp1115
g12
Vneg
p1116
sbag0
(g1
g2
(lp1117
(lp1118
S'word: much, index: 2'
p1119
aatp1120
Rp1121
(dp1122
g12
Vadvmod
p1123
sbag0
(g1
g2
(lp1124
(lp1125
S'word: to, index: 3'
p1126
aatp1127
Rp1128
(dp1129
g12
Vaux
p1130
sbag0
(g1
g2
(lp1131
(lp1132
S'word: this, index: 6'
p1133
aatp1134
Rp1135
(dp1136
g12
Vprep
p1137
sbatp1138
Rp1139
(dp1140
g12
S'word: say, index: 4'
p1141
sbatp1142
Rp1143
(dp1144
g12
S'id: 13'
p1145
sbag0
(g1
g2
(lp1146
g0
(g1
g2
(lp1147
g0
(g1
g2
(lp1148
g0
(g1
g2
(lp1149
g0
(g1
g2
(lp1150
(lp1151
S'word: Little, index: 1'
p1152
aatp1153
Rp1154
(dp1155
g12
Vamod
p1156
sbatp1157
Rp1158
(dp1159
g12
S'word: girl, index: 2'
p1160
sbatp1161
Rp1162
(dp1163
g12
Vnsubj
p1164
sbag0
(g1
g2
(lp1165
g0
(g1
g2
(lp1166
g0
(g1
g2
(lp1167
g0
(g1
g2
(lp1168
g0
(g1
g2
(lp1169
(lp1170
S'word: Jane, index: 10'
p1171
aatp1172
Rp1173
(dp1174
g12
Vnn
p1175
sbag0
(g1
g2
(lp1176
g0
(g1
g2
(lp1177
g0
(g1
g2
(lp1178
(lp1179
S'word: and, index: 7'
p1180
aatp1181
Rp1182
(dp1183
g12
Vcc
p1184
sbag0
(g1
g2
(lp1185
(lp1186
S'word: little, index: 8'
p1187
aatp1188
Rp1189
(dp1190
g12
Vdep
p1191
sbatp1192
Rp1193
(dp1194
g12
S'word: Mary, index: 9'
p1195
sbatp1196
Rp1197
(dp1198
g12
Vdep
p1199
sbatp1200
Rp1201
(dp1202
g12
S'word: sandals, index: 11'
p1203
sbatp1204
Rp1205
(dp1206
g12
Vprep
p1207
sbatp1208
Rp1209
(dp1210
g12
S'word: shorts, index: 4'
p1211
sbatp1212
Rp1213
(dp1214
g12
Vdobj
p1215
sbatp1216
Rp1217
(dp1218
g12
S'word: has, index: 3'
p1219
sbatp1220
Rp1221
(dp1222
g12
S'id: 14'
p1223
sbag0
(g1
g2
(lp1224
g0
(g1
g2
(lp1225
g0
(g1
g2
(lp1226
g0
(g1
g2
(lp1227
g0
(g1
g2
(lp1228
g0
(g1
g2
(lp1229
g0
(g1
g2
(lp1230
(lp1231
S'word: The, index: 1'
p1232
aatp1233
Rp1234
(dp1235
g12
Vdet
p1236
sbatp1237
Rp1238
(dp1239
g12
S'word: boy, index: 2'
p1240
sbatp1241
Rp1242
(dp1243
g12
Vnsubj
p1244
sbatp1245
Rp1246
(dp1247
g12
S'word: has, index: 3'
p1248
sbatp1249
Rp1250
(dp1251
g12
Vccomp
p1252
sbag0
(g1
g2
(lp1253
(lp1254
S'word: I, index: 5'
p1255
aatp1256
Rp1257
(dp1258
g12
Vnsubj
p1259
sbag0
(g1
g2
(lp1260
g0
(g1
g2
(lp1261
g0
(g1
g2
(lp1262
(lp1263
S'word: shorts, index: 9'
p1264
aatp1265
Rp1266
(dp1267
g12
Vdobj
p1268
sbag0
(g1
g2
(lp1269
(lp1270
S'word: on, index: 10'
p1271
aatp1272
Rp1273
(dp1274
g12
Vprep
p1275
sbatp1276
Rp1277
(dp1278
g12
S'word: know, index: 7'
p1279
sbatp1280
Rp1281
(dp1282
g12
Vxcomp
p1283
sbatp1284
Rp1285
(dp1286
g12
S'word: dont, index: 6'
p1287
sbatp1288
Rp1289
(dp1290
g12
S'id: 15'
p1291
sbag0
(g1
g2
(lp1292
g0
(g1
g2
(lp1293
g0
(g1
g2
(lp1294
(lp1295
S'word: Little, index: 1'
p1296
aatp1297
Rp1298
(dp1299
g12
Vamod
p1300
sbag0
(g1
g2
(lp1301
g0
(g1
g2
(lp1302
g0
(g1
g2
(lp1303
(lp1304
S'word: a, index: 4'
p1305
aatp1306
Rp1307
(dp1308
g12
Vdet
p1309
sbag0
(g1
g2
(lp1310
g0
(g1
g2
(lp1311
g0
(g1
g2
(lp1312
(lp1313
S'word: bare, index: 7'
p1314
aatp1315
Rp1316
(dp1317
g12
Vamod
p1318
sbag0
(g1
g2
(lp1319
(lp1320
S'word: leg, index: 8'
p1321
aatp1322
Rp1323
(dp1324
g12
Vnn
p1325
sbatp1326
Rp1327
(dp1328
g12
S'word: socks, index: 9'
p1329
sbatp1330
Rp1331
(dp1332
g12
Vappos
p1333
sbatp1334
Rp1335
(dp1336
g12
S'word: collar, index: 5'
p1337
sbatp1338
Rp1339
(dp1340
g12
Vprep
p1341
sbatp1342
Rp1343
(dp1344
g12
S'word: t-shirt, index: 2'
p1345
sbatp1346
Rp1347
(dp1348
g12
S'id: 16'
p1349
sbag0
(g1
g2
(lp1350
g0
(g1
g2
(lp1351
g0
(g1
g2
(lp1352
g0
(g1
g2
(lp1353
g0
(g1
g2
(lp1354
g0
(g1
g2
(lp1355
g0
(g1
g2
(lp1356
(lp1357
S'word: medium, index: 5'
p1358
aatp1359
Rp1360
(dp1361
g12
Vnn
p1362
sbag0
(g1
g2
(lp1363
g0
(g1
g2
(lp1364
g0
(g1
g2
(lp1365
g0
(g1
g2
(lp1366
g0
(g1
g2
(lp1367
(lp1368
S"word: 's, index: 9"
p1369
aatp1370
Rp1371
(dp1372
g12
Vnsubj
p1373
sbag0
(g1
g2
(lp1374
g0
(g1
g2
(lp1375
g0
(g1
g2
(lp1376
(lp1377
S'word: short, index: 11'
p1378
aatp1379
Rp1380
(dp1381
g12
Vamod
p1382
sbatp1383
Rp1384
(dp1385
g12
S'word: hair, index: 12'
p1386
sbatp1387
Rp1388
(dp1389
g12
Vdobj
p1390
sbatp1391
Rp1392
(dp1393
g12
S'word: got, index: 10'
p1394
sbatp1395
Rp1396
(dp1397
g12
Vrcmod
p1398
sbatp1399
Rp1400
(dp1401
g12
S'word: mom, index: 8'
p1402
sbatp1403
Rp1404
(dp1405
g12
Vappos
p1406
sbatp1407
Rp1408
(dp1409
g12
S'word: hair, index: 6'
p1410
sbatp1411
Rp1412
(dp1413
g12
Vprep
p1414
sbatp1415
Rp1416
(dp1417
g12
S'word: kind, index: 3'
p1418
sbatp1419
Rp1420
(dp1421
g12
Vdobj
p1422
sbag0
(g1
g2
(lp1423
(lp1424
S'word: Girl, index: 1'
p1425
aatp1426
Rp1427
(dp1428
g12
Vnsubj
p1429
sbatp1430
Rp1431
(dp1432
g12
S'word: has, index: 2'
p1433
sbatp1434
Rp1435
(dp1436
g12
S'id: 17'
p1437
sbag0
(g1
g2
(lp1438
g0
(g1
g2
(lp1439
g0
(g1
g2
(lp1440
g0
(g1
g2
(lp1441
g0
(g1
g2
(lp1442
(lp1443
S'word: two, index: 4'
p1444
aatp1445
Rp1446
(dp1447
g12
Vnum
p1448
sbag0
(g1
g2
(lp1449
(lp1450
S'word: kitchen, index: 5'
p1451
aatp1452
Rp1453
(dp1454
g12
Vnn
p1455
sbatp1456
Rp1457
(dp1458
g12
S'word: cabinets, index: 6'
p1459
sbatp1460
Rp1461
(dp1462
g12
Vdobj
p1463
sbag0
(g1
g2
(lp1464
g0
(g1
g2
(lp1465
g0
(g1
g2
(lp1466
(lp1467
S'word: the, index: 8'
p1468
aatp1469
Rp1470
(dp1471
g12
Vdet
p1472
sbag0
(g1
g2
(lp1473
(lp1474
S'word: left, index: 9'
p1475
aatp1476
Rp1477
(dp1478
g12
Vamod
p1479
sbatp1480
Rp1481
(dp1482
g12
S'word: side, index: 10'
p1483
sbatp1484
Rp1485
(dp1486
g12
Vprep
p1487
sbag0
(g1
g2
(lp1488
(lp1489
S'word: We, index: 1'
p1490
aatp1491
Rp1492
(dp1493
g12
Vnsubj
p1494
sbag0
(g1
g2
(lp1495
(lp1496
S"word: 've, index: 2"
p1497
aatp1498
Rp1499
(dp1500
g12
Vaux
p1501
sbatp1502
Rp1503
(dp1504
g12
S'word: got, index: 3'
p1505
sbatp1506
Rp1507
(dp1508
g12
S'id: 18'
p1509
sbag0
(g1
g2
(lp1510
g0
(g1
g2
(lp1511
g0
(g1
g2
(lp1512
g0
(g1
g2
(lp1513
g0
(g1
g2
(lp1514
(lp1515
S'word: the, index: 10'
p1516
aatp1517
Rp1518
(dp1519
g12
Vdet
p1520
sbag0
(g1
g2
(lp1521
(lp1522
S'word: left, index: 11'
p1523
aatp1524
Rp1525
(dp1526
g12
Vamod
p1527
sbag0
(g1
g2
(lp1528
g0
(g1
g2
(lp1529
g0
(g1
g2
(lp1530
(lp1531
S'word: the, index: 14'
p1532
aatp1533
Rp1534
(dp1535
g12
Vdet
p1536
sbatp1537
Rp1538
(dp1539
g12
S'word: sink, index: 15'
p1540
sbatp1541
Rp1542
(dp1543
g12
Vprep
p1544
sbag0
(g1
g2
(lp1545
g0
(g1
g2
(lp1546
g0
(g1
g2
(lp1547
(lp1548
S'word: no, index: 32'
p1549
aatp1550
Rp1551
(dp1552
g12
Vneg
p1553
sbag0
(g1
g2
(lp1554
g0
(g1
g2
(lp1555
g0
(g1
g2
(lp1556
(lp1557
S'word: the, index: 35'
p1558
aatp1559
Rp1560
(dp1561
g12
Vdet
p1562
sbatp1563
Rp1564
(dp1565
g12
S'word: window, index: 36'
p1566
sbatp1567
Rp1568
(dp1569
g12
Vprep
p1570
sbatp1571
Rp1572
(dp1573
g12
S'word: cabinets, index: 33'
p1574
sbatp1575
Rp1576
(dp1577
g12
Vappos
p1578
sbag0
(g1
g2
(lp1579
g0
(g1
g2
(lp1580
g0
(g1
g2
(lp1581
(lp1582
S'word: two, index: 17'
p1583
aatp1584
Rp1585
(dp1586
g12
Vnum
p1587
sbag0
(g1
g2
(lp1588
g0
(g1
g2
(lp1589
g0
(g1
g2
(lp1590
(lp1591
S'word: the, index: 20'
p1592
aatp1593
Rp1594
(dp1595
g12
Vdet
p1596
sbatp1597
Rp1598
(dp1599
g12
S'word: sink, index: 21'
p1600
sbatp1601
Rp1602
(dp1603
g12
Vprep
p1604
sbatp1605
Rp1606
(dp1607
g12
S'word: doors, index: 18'
p1608
sbatp1609
Rp1610
(dp1611
g12
Vappos
p1612
sbag0
(g1
g2
(lp1613
g0
(g1
g2
(lp1614
g0
(g1
g2
(lp1615
g0
(g1
g2
(lp1616
g0
(g1
g2
(lp1617
(lp1618
S'word: the, index: 26'
p1619
aatp1620
Rp1621
(dp1622
g12
Vdet
p1623
sbag0
(g1
g2
(lp1624
g0
(g1
g2
(lp1625
g0
(g1
g2
(lp1626
(lp1627
S'word: the, index: 29'
p1628
aatp1629
Rp1630
(dp1631
g12
Vdet
p1632
sbatp1633
Rp1634
(dp1635
g12
S'word: sink, index: 30'
p1636
sbatp1637
Rp1638
(dp1639
g12
Vprep
p1640
sbatp1641
Rp1642
(dp1643
g12
S'word: right, index: 27'
p1644
sbatp1645
Rp1646
(dp1647
g12
Vprep
p1648
sbag0
(g1
g2
(lp1649
(lp1650
S'word: two, index: 23'
p1651
aatp1652
Rp1653
(dp1654
g12
Vnum
p1655
sbatp1656
Rp1657
(dp1658
g12
S'word: doors, index: 24'
p1659
sbatp1660
Rp1661
(dp1662
g12
Vappos
p1663
sbatp1664
Rp1665
(dp1666
g12
S'word: side, index: 12'
p1667
sbatp1668
Rp1669
(dp1670
g12
Vprep
p1671
sbag0
(g1
g2
(lp1672
(lp1673
S'word: Then, index: 1'
p1674
aatp1675
Rp1676
(dp1677
g12
Vadvmod
p1678
sbag0
(g1
g2
(lp1679
(lp1680
S'word: we, index: 2'
p1681
aatp1682
Rp1683
(dp1684
g12
Vnsubj
p1685
sbag0
(g1
g2
(lp1686
(lp1687
S"word: 've, index: 3"
p1688
aatp1689
Rp1690
(dp1691
g12
Vaux
p1692
sbag0
(g1
g2
(lp1693
g0
(g1
g2
(lp1694
g0
(g1
g2
(lp1695
g0
(g1
g2
(lp1696
g0
(g1
g2
(lp1697
(lp1698
S'word: two, index: 7'
p1699
aatp1700
Rp1701
(dp1702
g12
Vnum
p1703
sbatp1704
Rp1705
(dp1706
g12
S'word: cabinets, index: 8'
p1707
sbatp1708
Rp1709
(dp1710
g12
Vprep
p1711
sbatp1712
Rp1713
(dp1714
g12
S'word: looks, index: 5'
p1715
sbatp1716
Rp1717
(dp1718
g12
Vdobj
p1719
sbatp1720
Rp1721
(dp1722
g12
S'word: got, index: 4'
p1723
sbatp1724
Rp1725
(dp1726
g12
S'id: 19'
p1727
sbag0
(g1
g2
(lp1728
g0
(g1
g2
(lp1729
g0
(g1
g2
(lp1730
g0
(g1
g2
(lp1731
g0
(g1
g2
(lp1732
(lp1733
S"word: 've, index: 12"
p1734
aatp1735
Rp1736
(dp1737
g12
Vaux
p1738
sbag0
(g1
g2
(lp1739
g0
(g1
g2
(lp1740
g0
(g1
g2
(lp1741
(lp1742
S'word: three, index: 14'
p1743
aatp1744
Rp1745
(dp1746
g12
Vnum
p1747
sbag0
(g1
g2
(lp1748
g0
(g1
g2
(lp1749
g0
(g1
g2
(lp1750
(lp1751
S'word: the, index: 17'
p1752
aatp1753
Rp1754
(dp1755
g12
Vdet
p1756
sbatp1757
Rp1758
(dp1759
g12
S'word: counter, index: 18'
p1760
sbatp1761
Rp1762
(dp1763
g12
Vprep
p1764
sbatp1765
Rp1766
(dp1767
g12
S'word: cabinets, index: 15'
p1768
sbatp1769
Rp1770
(dp1771
g12
Vdobj
p1772
sbag0
(g1
g2
(lp1773
g0
(g1
g2
(lp1774
g0
(g1
g2
(lp1775
g0
(g1
g2
(lp1776
g0
(g1
g2
(lp1777
(lp1778
S'word: where, index: 22'
p1779
aatp1780
Rp1781
(dp1782
g12
Vdep
p1783
sbatp1784
Rp1785
(dp1786
g12
S'word: left, index: 21'
p1787
sbatp1788
Rp1789
(dp1790
g12
Vvmod
p1791
sbatp1792
Rp1793
(dp1794
g12
S'word: the, index: 20'
p1795
sbatp1796
Rp1797
(dp1798
g12
Vprep
p1799
sbag0
(g1
g2
(lp1800
(lp1801
S'word: I, index: 11'
p1802
aatp1803
Rp1804
(dp1805
g12
Vnsubj
p1806
sbatp1807
Rp1808
(dp1809
g12
S'word: got, index: 13'
p1810
sbatp1811
Rp1812
(dp1813
g12
Vconj
p1814
sbag0
(g1
g2
(lp1815
(lp1816
S'word: I, index: 1'
p1817
aatp1818
Rp1819
(dp1820
g12
Vnsubj
p1821
sbag0
(g1
g2
(lp1822
(lp1823
S'word: do, index: 2'
p1824
aatp1825
Rp1826
(dp1827
g12
Vaux
p1828
sbag0
(g1
g2
(lp1829
(lp1830
S"word: n't, index: 3"
p1831
aatp1832
Rp1833
(dp1834
g12
Vneg
p1835
sbag0
(g1
g2
(lp1836
g0
(g1
g2
(lp1837
g0
(g1
g2
(lp1838
(lp1839
S'word: if, index: 5'
p1840
aatp1841
Rp1842
(dp1843
g12
Vmark
p1844
sbag0
(g1
g2
(lp1845
(lp1846
S'word: I, index: 6'
p1847
aatp1848
Rp1849
(dp1850
g12
Vnsubj
p1851
sbag0
(g1
g2
(lp1852
(lp1853
S'word: that, index: 8'
p1854
aatp1855
Rp1856
(dp1857
g12
Vadvmod
p1858
sbatp1859
Rp1860
(dp1861
g12
S'word: said, index: 7'
p1862
sbatp1863
Rp1864
(dp1865
g12
Vadvcl
p1866
sbag0
(g1
g2
(lp1867
g0
(g1
g2
(lp1868
g0
(g1
g2
(lp1869
g0
(g1
g2
(lp1870
g0
(g1
g2
(lp1871
(lp1872
S'word: the, index: 27'
p1873
aatp1874
Rp1875
(dp1876
g12
Vdet
p1877
sbatp1878
Rp1879
(dp1880
g12
S'word: cookies, index: 28'
p1881
sbatp1882
Rp1883
(dp1884
g12
Vdobj
p1885
sbag0
(g1
g2
(lp1886
g0
(g1
g2
(lp1887
g0
(g1
g2
(lp1888
(lp1889
S'word: the, index: 23'
p1890
aatp1891
Rp1892
(dp1893
g12
Vdet
p1894
sbag0
(g1
g2
(lp1895
(lp1896
S"word: 's, index: 25"
p1897
aatp1898
Rp1899
(dp1900
g12
Vpossessive
p1901
sbatp1902
Rp1903
(dp1904
g12
S'word: boy, index: 24'
p1905
sbatp1906
Rp1907
(dp1908
g12
Vnsubj
p1909
sbatp1910
Rp1911
(dp1912
g12
S'word: stealing, index: 26'
p1913
sbatp1914
Rp1915
(dp1916
g12
Vparataxis
p1917
sbatp1918
Rp1919
(dp1920
g12
S'word: know, index: 4'
p1921
sbatp1922
Rp1923
(dp1924
g12
S'id: 20'
p1925
sbatp1926
Rp1927
(dp1928
g12
S'sentences'
p1929
sb.