ccopy_reg
_reconstructor
p0
(cnltk.tree
Tree
p1
c__builtin__
list
p2
(lp3
g0
(g1
g2
(lp4
g0
(g1
g2
(lp5
g0
(g1
g2
(lp6
(lp7
S'word: yeah, index: 2'
p8
aatp9
Rp10
(dp11
S'_label'
p12
Vdep
p13
sbatp14
Rp15
(dp16
g12
S'word: o, index: 1'
p17
sbatp18
Rp19
(dp20
g12
S'id: 0'
p21
sbag0
(g1
g2
(lp22
g0
(g1
g2
(lp23
g0
(g1
g2
(lp24
(lp25
S'word: ta, index: 4'
p26
aatp27
Rp28
(dp29
g12
Vappos
p30
sbag0
(g1
g2
(lp31
(lp32
S'word: o., index: 1'
p33
aatp34
Rp35
(dp36
g12
Vnn
p37
sbatp38
Rp39
(dp40
g12
S'word: tikie, index: 2'
p41
sbatp42
Rp43
(dp44
g12
S'id: 1'
p45
sbag0
(g1
g2
(lp46
g0
(g1
g2
(lp47
g0
(g1
g2
(lp48
g0
(g1
g2
(lp49
g0
(g1
g2
(lp50
(lp51
S'word: ka, index: 6'
p52
aatp53
Rp54
(dp55
g12
Vnn
p56
sbag0
(g1
g2
(lp57
(lp58
S'word: ka, index: 7'
p59
aatp60
Rp61
(dp62
g12
Vdep
p63
sbag0
(g1
g2
(lp64
g0
(g1
g2
(lp65
g0
(g1
g2
(lp66
(lp67
S'word: kite, index: 8'
p68
aatp69
Rp70
(dp71
g12
Vnn
p72
sbag0
(g1
g2
(lp73
(lp74
S'word: kike, index: 9'
p75
aatp76
Rp77
(dp78
g12
Vnn
p79
sbatp80
Rp81
(dp82
g12
S'word: kike, index: 10'
p83
sbatp84
Rp85
(dp86
g12
Vdep
p87
sbag0
(g1
g2
(lp88
(lp89
S'word: ka, index: 3'
p90
aatp91
Rp92
(dp93
g12
Vnn
p94
sbag0
(g1
g2
(lp95
(lp96
S'word: ka, index: 4'
p97
aatp98
Rp99
(dp100
g12
Vnn
p101
sbag0
(g1
g2
(lp102
(lp103
S'word: ka, index: 5'
p104
aatp105
Rp106
(dp107
g12
Vnn
p108
sbatp109
Rp110
(dp111
g12
S'word: kite, index: 2'
p112
sbatp113
Rp114
(dp115
g12
Vdep
p116
sbatp117
Rp118
(dp119
g12
S'word: w., index: 1'
p120
sbatp121
Rp122
(dp123
g12
S'id: 2'
p124
sbag0
(g1
g2
(lp125
g0
(g1
g2
(lp126
g0
(g1
g2
(lp127
(lp128
S'word: shufa, index: 1'
p129
aatp130
Rp131
(dp132
g12
Vnn
p133
sbag0
(g1
g2
(lp134
(lp135
S'word: sss, index: 2'
p136
aatp137
Rp138
(dp139
g12
Vnn
p140
sbag0
(g1
g2
(lp141
(lp142
S'word: sifing, index: 3'
p143
aatp144
Rp145
(dp146
g12
Vnn
p147
sbag0
(g1
g2
(lp148
(lp149
S'word: sifing, index: 4'
p150
aatp151
Rp152
(dp153
g12
Vnn
p154
sbag0
(g1
g2
(lp155
g0
(g1
g2
(lp156
g0
(g1
g2
(lp157
(lp158
S'word: fishing, index: 7'
p159
aatp160
Rp161
(dp162
g12
Vdep
p163
sbatp164
Rp165
(dp166
g12
S'word: fishing, index: 6'
p167
sbatp168
Rp169
(dp170
g12
Vprep
p171
sbatp172
Rp173
(dp174
g12
S'word: fishing, index: 5'
p175
sbatp176
Rp177
(dp178
g12
S'id: 3'
p179
sbag0
(g1
g2
(lp180
g0
(g1
g2
(lp181
g0
(g1
g2
(lp182
g0
(g1
g2
(lp183
g0
(g1
g2
(lp184
(lp185
S'word: wa, index: 2'
p186
aatp187
Rp188
(dp189
g12
Vnn
p190
sbag0
(g1
g2
(lp191
(lp192
S'word: gog, index: 6'
p193
aatp194
Rp195
(dp196
g12
Vconj
p197
sbatp198
Rp199
(dp200
g12
S'word: wifing, index: 3'
p201
sbatp202
Rp203
(dp204
g12
Vdep
p205
sbag0
(g1
g2
(lp206
(lp207
S'word: gog, index: 6'
p208
aatp209
Rp210
(dp211
g12
Vdep
p212
sbatp213
Rp214
(dp215
g12
S'word: wa, index: 1'
p216
sbatp217
Rp218
(dp219
g12
S'id: 4'
p220
sbag0
(g1
g2
(lp221
g0
(g1
g2
(lp222
g0
(g1
g2
(lp223
g0
(g1
g2
(lp224
g0
(g1
g2
(lp225
(lp226
S'word: a, index: 1'
p227
aatp228
Rp229
(dp230
g12
Vdet
p231
sbag0
(g1
g2
(lp232
(lp233
S'word: bog, index: 2'
p234
aatp235
Rp236
(dp237
g12
Vnn
p238
sbag0
(g1
g2
(lp239
(lp240
S'word: dog, index: 3'
p241
aatp242
Rp243
(dp244
g12
Vnn
p245
sbag0
(g1
g2
(lp246
g0
(g1
g2
(lp247
g0
(g1
g2
(lp248
(lp249
S'word: a, index: 7'
p250
aatp251
Rp252
(dp253
g12
Vconj
p254
sbatp255
Rp256
(dp257
g12
S'word: dog, index: 5'
p258
sbatp259
Rp260
(dp261
g12
Vdep
p262
sbag0
(g1
g2
(lp263
(lp264
S'word: a, index: 7'
p265
aatp266
Rp267
(dp268
g12
Vdep
p269
sbatp270
Rp271
(dp272
g12
S'word: dog, index: 4'
p273
sbatp274
Rp275
(dp276
g12
Vtmod
p277
sbag0
(g1
g2
(lp278
(lp279
S'word: the, index: 20'
p280
aatp281
Rp282
(dp283
g12
Vdobj
p284
sbag0
(g1
g2
(lp285
g0
(g1
g2
(lp286
g0
(g1
g2
(lp287
g0
(g1
g2
(lp288
g0
(g1
g2
(lp289
(lp290
S'word: the, index: 15'
p291
aatp292
Rp293
(dp294
g12
Vdet
p295
sbag0
(g1
g2
(lp296
(lp297
S'word: brish, index: 16'
p298
aatp299
Rp300
(dp301
g12
Vamod
p302
sbag0
(g1
g2
(lp303
(lp304
S'word: britch, index: 17'
p305
aatp306
Rp307
(dp308
g12
Vnn
p309
sbatp310
Rp311
(dp312
g12
S'word: b, index: 18'
p313
sbatp314
Rp315
(dp316
g12
Vdep
p317
sbag0
(g1
g2
(lp318
(lp319
S'word: the, index: 9'
p320
aatp321
Rp322
(dp323
g12
Vdet
p324
sbag0
(g1
g2
(lp325
g0
(g1
g2
(lp326
g0
(g1
g2
(lp327
(lp328
S'word: the, index: 11'
p329
aatp330
Rp331
(dp332
g12
Vdet
p333
sbag0
(g1
g2
(lp334
(lp335
S'word: brish, index: 12'
p336
aatp337
Rp338
(dp339
g12
Vamod
p340
sbag0
(g1
g2
(lp341
(lp342
S'word: bris, index: 13'
p343
aatp344
Rp345
(dp346
g12
Vnn
p347
sbatp348
Rp349
(dp350
g12
S'word: brush, index: 14'
p351
sbatp352
Rp353
(dp354
g12
Vdep
p355
sbatp356
Rp357
(dp358
g12
S'word: brish, index: 10'
p359
sbatp360
Rp361
(dp362
g12
Vnsubj
p363
sbatp364
Rp365
(dp366
g12
S'word: britch, index: 19'
p367
sbatp368
Rp369
(dp370
g12
S'id: 5'
p371
sbag0
(g1
g2
(lp372
g0
(g1
g2
(lp373
g0
(g1
g2
(lp374
(lp375
S"word: 's, index: 2"
p376
aatp377
Rp378
(dp379
g12
Vcop
p380
sbag0
(g1
g2
(lp381
g0
(g1
g2
(lp382
g0
(g1
g2
(lp383
(lp384
S'word: claf, index: 18'
p385
aatp386
Rp387
(dp388
g12
Vnsubj
p389
sbag0
(g1
g2
(lp390
g0
(g1
g2
(lp391
g0
(g1
g2
(lp392
(lp393
S'word: cla, index: 20'
p394
aatp395
Rp396
(dp397
g12
Vnn
p398
sbag0
(g1
g2
(lp399
(lp400
S'word: cla, index: 21'
p401
aatp402
Rp403
(dp404
g12
Vnn
p405
sbag0
(g1
g2
(lp406
g0
(g1
g2
(lp407
g0
(g1
g2
(lp408
(lp409
S'word: clab, index: 23'
p410
aatp411
Rp412
(dp413
g12
Vnn
p414
sbag0
(g1
g2
(lp415
(lp416
S'word: k, index: 24'
p417
aatp418
Rp419
(dp420
g12
Vnn
p421
sbag0
(g1
g2
(lp422
(lp423
S'word: k, index: 25'
p424
aatp425
Rp426
(dp427
g12
Vnn
p428
sbag0
(g1
g2
(lp429
(lp430
S'word: clag, index: 26'
p431
aatp432
Rp433
(dp434
g12
Vnn
p435
sbag0
(g1
g2
(lp436
(lp437
S'word: clag, index: 27'
p438
aatp439
Rp440
(dp441
g12
Vnn
p442
sbag0
(g1
g2
(lp443
(lp444
S'word: clag, index: 28'
p445
aatp446
Rp447
(dp448
g12
Vnn
p449
sbatp450
Rp451
(dp452
g12
S'word: trag, index: 29'
p453
sbatp454
Rp455
(dp456
g12
Vdep
p457
sbatp458
Rp459
(dp460
g12
S'word: cla, index: 22'
p461
sbatp462
Rp463
(dp464
g12
Vdobj
p465
sbatp466
Rp467
(dp468
g12
S'word: claf, index: 19'
p469
sbatp470
Rp471
(dp472
g12
Vconj
p473
sbag0
(g1
g2
(lp474
g0
(g1
g2
(lp475
g0
(g1
g2
(lp476
g0
(g1
g2
(lp477
g0
(g1
g2
(lp478
(lp479
S'word: a, index: 5'
p480
aatp481
Rp482
(dp483
g12
Vdet
p484
sbag0
(g1
g2
(lp485
(lp486
S'word: mho, index: 6'
p487
aatp488
Rp489
(dp490
g12
Vnn
p491
sbag0
(g1
g2
(lp492
g0
(g1
g2
(lp493
g0
(g1
g2
(lp494
(lp495
S'word: a, index: 8'
p496
aatp497
Rp498
(dp499
g12
Vdet
p500
sbatp501
Rp502
(dp503
g12
S'word: home, index: 9'
p504
sbatp505
Rp506
(dp507
g12
Vdep
p508
sbag0
(g1
g2
(lp509
g0
(g1
g2
(lp510
g0
(g1
g2
(lp511
(lp512
S'word: a, index: 10'
p513
aatp514
Rp515
(dp516
g12
Vdet
p517
sbag0
(g1
g2
(lp518
(lp519
S'word: a, index: 12'
p520
aatp521
Rp522
(dp523
g12
Vdep
p524
sbatp525
Rp526
(dp527
g12
S'word: home, index: 11'
p528
sbatp529
Rp530
(dp531
g12
Vdep
p532
sbatp533
Rp534
(dp535
g12
S'word: mhome, index: 7'
p536
sbatp537
Rp538
(dp539
g12
Vnsubj
p540
sbag0
(g1
g2
(lp541
(lp542
S'word: ca, index: 13'
p543
aatp544
Rp545
(dp546
g12
Vaux
p547
sbag0
(g1
g2
(lp548
(lp549
S'word: a, index: 14'
p550
aatp551
Rp552
(dp553
g12
Vdet
p554
sbag0
(g1
g2
(lp555
(lp556
S'word: car, index: 15'
p557
aatp558
Rp559
(dp560
g12
Vnn
p561
sbatp562
Rp563
(dp564
g12
S'word: car, index: 16'
p565
sbatp566
Rp567
(dp568
g12
Vconj
p569
sbag0
(g1
g2
(lp570
(lp571
S'word: it, index: 1'
p572
aatp573
Rp574
(dp575
g12
Vnsubj
p576
sbatp577
Rp578
(dp579
g12
S'word: whooom, index: 3'
p580
sbatp581
Rp582
(dp583
g12
S'id: 6'
p584
sbag0
(g1
g2
(lp585
g0
(g1
g2
(lp586
g0
(g1
g2
(lp587
(lp588
S'word: two, index: 5'
p589
aatp590
Rp591
(dp592
g12
Vamod
p593
sbag0
(g1
g2
(lp594
(lp595
S'word: is, index: 1'
p596
aatp597
Rp598
(dp599
g12
Vcop
p600
sbag0
(g1
g2
(lp601
(lp602
S'word: a, index: 2'
p603
aatp604
Rp605
(dp606
g12
Vdet
p607
sbatp608
Rp609
(dp610
g12
S'word: two, index: 3'
p611
sbatp612
Rp613
(dp614
g12
S'id: 7'
p615
sbag0
(g1
g2
(lp616
g0
(g1
g2
(lp617
g0
(g1
g2
(lp618
(lp619
S'word: it, index: 1'
p620
aatp621
Rp622
(dp623
g12
Vnsubjpass
p624
sbag0
(g1
g2
(lp625
(lp626
S"word: 's, index: 2"
p627
aatp628
Rp629
(dp630
g12
Vauxpass
p631
sbatp632
Rp633
(dp634
g12
S'word: gone, index: 3'
p635
sbatp636
Rp637
(dp638
g12
S'id: 8'
p639
sbag0
(g1
g2
(lp640
g0
(g1
g2
(lp641
g0
(g1
g2
(lp642
g0
(g1
g2
(lp643
g0
(g1
g2
(lp644
(lp645
S'word: chew, index: 1'
p646
aatp647
Rp648
(dp649
g12
Vccomp
p650
sbag0
(g1
g2
(lp651
(lp652
S'word: a, index: 3'
p653
aatp654
Rp655
(dp656
g12
Vnsubj
p657
sbatp658
Rp659
(dp660
g12
S'word: chew, index: 4'
p661
sbatp662
Rp663
(dp664
g12
Vccomp
p665
sbag0
(g1
g2
(lp666
(lp667
S'word: a, index: 6'
p668
aatp669
Rp670
(dp671
g12
Vnsubj
p672
sbatp673
Rp674
(dp675
g12
S'word: chew, index: 7'
p676
sbatp677
Rp678
(dp679
g12
S'id: 9'
p680
sbag0
(g1
g2
(lp681
g0
(g1
g2
(lp682
g0
(g1
g2
(lp683
(lp684
S'word: a, index: 1'
p685
aatp686
Rp687
(dp688
g12
Vdet
p689
sbag0
(g1
g2
(lp690
g0
(g1
g2
(lp691
g0
(g1
g2
(lp692
(lp693
S'word: a, index: 4'
p694
aatp695
Rp696
(dp697
g12
Vdet
p698
sbatp699
Rp700
(dp701
g12
S'word: tree, index: 5'
p702
sbatp703
Rp704
(dp705
g12
Vappos
p706
sbag0
(g1
g2
(lp707
g0
(g1
g2
(lp708
g0
(g1
g2
(lp709
(lp710
S'word: a, index: 7'
p711
aatp712
Rp713
(dp714
g12
Vdet
p715
sbatp716
Rp717
(dp718
g12
S'word: tree, index: 8'
p719
sbatp720
Rp721
(dp722
g12
Vappos
p723
sbag0
(g1
g2
(lp724
(lp725
S'word: tree, index: 10'
p726
aatp727
Rp728
(dp729
g12
Vappos
p730
sbatp731
Rp732
(dp733
g12
S'word: tree, index: 2'
p734
sbatp735
Rp736
(dp737
g12
S'id: 10'
p738
sbag0
(g1
g2
(lp739
g0
(g1
g2
(lp740
g0
(g1
g2
(lp741
(lp742
S'word: a, index: 1'
p743
aatp744
Rp745
(dp746
g12
Vdet
p747
sbag0
(g1
g2
(lp748
g0
(g1
g2
(lp749
g0
(g1
g2
(lp750
(lp751
S'word: book, index: 3'
p752
aatp753
Rp754
(dp755
g12
Vnn
p756
sbatp757
Rp758
(dp759
g12
S'word: book, index: 4'
p760
sbatp761
Rp762
(dp763
g12
Vdep
p764
sbatp765
Rp766
(dp767
g12
S'word: book, index: 2'
p768
sbatp769
Rp770
(dp771
g12
S'id: 11'
p772
sbag0
(g1
g2
(lp773
g0
(g1
g2
(lp774
g0
(g1
g2
(lp775
(lp776
S'word: and, index: 1'
p777
aatp778
Rp779
(dp780
g12
Vcc
p781
sbatp782
Rp783
(dp784
g12
S'word: a, index: 2'
p785
sbatp786
Rp787
(dp788
g12
S'id: 12'
p789
sbag0
(g1
g2
(lp790
g0
(g1
g2
(lp791
g0
(g1
g2
(lp792
(lp793
S'word: A, index: 1'
p794
aatp795
Rp796
(dp797
g12
Vdet
p798
sbatp799
Rp800
(dp801
g12
S'word: blue, index: 2'
p802
sbatp803
Rp804
(dp805
g12
S'id: 13'
p806
sbag0
(g1
g2
(lp807
tp808
Rp809
(dp810
g12
S'id: 14'
p811
sbag0
(g1
g2
(lp812
g0
(g1
g2
(lp813
g0
(g1
g2
(lp814
g0
(g1
g2
(lp815
g0
(g1
g2
(lp816
(lp817
S'word: ma, index: 3'
p818
aatp819
Rp820
(dp821
g12
Vconj
p822
sbatp823
Rp824
(dp825
g12
S'word: woman, index: 1'
p826
sbatp827
Rp828
(dp829
g12
Vnn
p830
sbag0
(g1
g2
(lp831
(lp832
S'word: ma, index: 3'
p833
aatp834
Rp835
(dp836
g12
Vnn
p837
sbag0
(g1
g2
(lp838
(lp839
S'word: man, index: 4'
p840
aatp841
Rp842
(dp843
g12
Vnn
p844
sbag0
(g1
g2
(lp845
g0
(g1
g2
(lp846
g0
(g1
g2
(lp847
(lp848
S'word: glass, index: 6'
p849
aatp850
Rp851
(dp852
g12
Vnn
p853
sbag0
(g1
g2
(lp854
(lp855
S'word: glass, index: 7'
p856
aatp857
Rp858
(dp859
g12
Vnn
p860
sbatp861
Rp862
(dp863
g12
S'word: glasses, index: 8'
p864
sbatp865
Rp866
(dp867
g12
Vdep
p868
sbatp869
Rp870
(dp871
g12
S'word: man, index: 5'
p872
sbatp873
Rp874
(dp875
g12
S'id: 15'
p876
sbag0
(g1
g2
(lp877
g0
(g1
g2
(lp878
g0
(g1
g2
(lp879
g0
(g1
g2
(lp880
g0
(g1
g2
(lp881
(lp882
S'word: glates, index: 2'
p883
aatp884
Rp885
(dp886
g12
Vnn
p887
sbag0
(g1
g2
(lp888
(lp889
S'word: and, index: 4'
p890
aatp891
Rp892
(dp893
g12
Vadvmod
p894
sbag0
(g1
g2
(lp895
g0
(g1
g2
(lp896
g0
(g1
g2
(lp897
(lp898
S'word: ch, index: 6'
p899
aatp900
Rp901
(dp902
g12
Vnn
p903
sbag0
(g1
g2
(lp904
(lp905
S'word: chickie, index: 7'
p906
aatp907
Rp908
(dp909
g12
Vnn
p910
sbatp911
Rp912
(dp913
g12
S'word: chickie, index: 8'
p914
sbatp915
Rp916
(dp917
g12
Vappos
p918
sbatp919
Rp920
(dp921
g12
S'word: glates, index: 3'
p922
sbatp923
Rp924
(dp925
g12
Vdep
p926
sbatp927
Rp928
(dp929
g12
S'word: glates, index: 1'
p930
sbatp931
Rp932
(dp933
g12
S'id: 16'
p934
sbatp935
Rp936
(dp937
g12
S'sentences'
p938
sb.