ccopy_reg
_reconstructor
p0
(cnltk.tree
Tree
p1
c__builtin__
list
p2
(lp3
g0
(g1
g2
(lp4
g0
(g1
g2
(lp5
g0
(g1
g2
(lp6
Vthis
p7
atp8
Rp9
(dp10
S'_label'
p11
S'start: 2'
p12
sbatp13
Rp14
(dp15
g11
S'sent: 1'
p16
sbag0
(g1
g2
(lp17
g0
(g1
g2
(lp18
Vthis
p19
atp20
Rp21
(dp22
g11
S'start: 6'
p23
sbatp24
Rp25
(dp26
g11
S'sent: 1'
p27
sbag0
(g1
g2
(lp28
g0
(g1
g2
(lp29
Va beach house
p30
atp31
Rp32
(dp33
g11
S'start: 9'
p34
sbatp35
Rp36
(dp37
g11
S'sent: 1'
p38
sbag0
(g1
g2
(lp39
g0
(g1
g2
(lp40
Vthis
p41
atp42
Rp43
(dp44
g11
S'start: 14'
p45
sbatp46
Rp47
(dp48
g11
S'sent: 1'
p49
sbag0
(g1
g2
(lp50
g0
(g1
g2
(lp51
Va lake house it looks like
p52
atp53
Rp54
(dp55
g11
S'start: 16'
p56
sbatp57
Rp58
(dp59
g11
S'sent: 1'
p60
sbag0
(g1
g2
(lp61
g0
(g1
g2
(lp62
Vit
p63
atp64
Rp65
(dp66
g11
S'start: 19'
p67
sbatp68
Rp69
(dp70
g11
S'sent: 1'
p71
sbag0
(g1
g2
(lp72
g0
(g1
g2
(lp73
Vit
p74
atp75
Rp76
(dp77
g11
S'start: 2'
p78
sbatp79
Rp80
(dp81
g11
S'sent: 2'
p82
sbag0
(g1
g2
(lp83
g0
(g1
g2
(lp84
Vit
p85
atp86
Rp87
(dp88
g11
S'start: 10'
p89
sbatp90
Rp91
(dp92
g11
S'sent: 2'
p93
sbag0
(g1
g2
(lp94
g0
(g1
g2
(lp95
Vit
p96
atp97
Rp98
(dp99
g11
S'start: 36'
p100
sbatp101
Rp102
(dp103
g11
S'sent: 2'
p104
sbag0
(g1
g2
(lp105
g0
(g1
g2
(lp106
Vit
p107
atp108
Rp109
(dp110
g11
S'start: 41'
p111
sbatp112
Rp113
(dp114
g11
S'sent: 2'
p115
sbatp116
Rp117
(dp118
g11
S'id: 1'
p119
sbag0
(g1
g2
(lp120
g0
(g1
g2
(lp121
g0
(g1
g2
(lp122
Vhim
p123
atp124
Rp125
(dp126
g11
S'start: 27'
p127
sbatp128
Rp129
(dp130
g11
S'sent: 2'
p131
sbag0
(g1
g2
(lp132
g0
(g1
g2
(lp133
Vhe
p134
atp135
Rp136
(dp137
g11
S'start: 52'
p138
sbatp139
Rp140
(dp141
g11
S'sent: 2'
p142
sbatp143
Rp144
(dp145
g11
S'id: 13'
p146
sbag0
(g1
g2
(lp147
g0
(g1
g2
(lp148
g0
(g1
g2
(lp149
Vthe , the kite from going into the sky
p150
atp151
Rp152
(dp153
g11
S'start: 57'
p154
sbatp155
Rp156
(dp157
g11
S'sent: 2'
p158
sbag0
(g1
g2
(lp159
g0
(g1
g2
(lp160
Vthe
p161
atp162
Rp163
(dp164
g11
S'start: 57'
p165
sbatp166
Rp167
(dp168
g11
S'sent: 2'
p169
sbag0
(g1
g2
(lp170
g0
(g1
g2
(lp171
Vthe , on the
p172
atp173
Rp174
(dp175
g11
S'start: 7'
p176
sbatp177
Rp178
(dp179
g11
S'sent: 5'
p180
sbag0
(g1
g2
(lp181
g0
(g1
g2
(lp182
Vit
p183
atp184
Rp185
(dp186
g11
S'start: 41'
p187
sbatp188
Rp189
(dp190
g11
S'sent: 5'
p191
sbag0
(g1
g2
(lp192
g0
(g1
g2
(lp193
Va single car garage
p194
atp195
Rp196
(dp197
g11
S'start: 44'
p198
sbatp199
Rp200
(dp201
g11
S'sent: 5'
p202
sbag0
(g1
g2
(lp203
g0
(g1
g2
(lp204
Vthat
p205
atp206
Rp207
(dp208
g11
S'start: 8'
p209
sbatp210
Rp211
(dp212
g11
S'sent: 6'
p213
sbag0
(g1
g2
(lp214
g0
(g1
g2
(lp215
Va flag it might
p216
atp217
Rp218
(dp219
g11
S'start: 10'
p220
sbatp221
Rp222
(dp223
g11
S'sent: 6'
p224
sbag0
(g1
g2
(lp225
g0
(g1
g2
(lp226
Vit
p227
atp228
Rp229
(dp230
g11
S'start: 12'
p231
sbatp232
Rp233
(dp234
g11
S'sent: 6'
p235
sbag0
(g1
g2
(lp236
g0
(g1
g2
(lp237
Vits
p238
atp239
Rp240
(dp241
g11
S'start: 26'
p242
sbatp243
Rp244
(dp245
g11
S'sent: 6'
p246
sbag0
(g1
g2
(lp247
g0
(g1
g2
(lp248
VIt
p249
atp250
Rp251
(dp252
g11
S'start: 1'
p253
sbatp254
Rp255
(dp256
g11
S'sent: 7'
p257
sbatp258
Rp259
(dp260
g11
S'id: 20'
p261
sbag0
(g1
g2
(lp262
g0
(g1
g2
(lp263
g0
(g1
g2
(lp264
Vthe water on the lake
p265
atp266
Rp267
(dp268
g11
S'start: 3'
p269
sbatp270
Rp271
(dp272
g11
S'sent: 3'
p273
sbag0
(g1
g2
(lp274
g0
(g1
g2
(lp275
Vit
p276
atp277
Rp278
(dp279
g11
S'start: 35'
p280
sbatp281
Rp282
(dp283
g11
S'sent: 3'
p284
sbag0
(g1
g2
(lp285
g0
(g1
g2
(lp286
Vit
p287
atp288
Rp289
(dp290
g11
S'start: 40'
p291
sbatp292
Rp293
(dp294
g11
S'sent: 3'
p295
sbag0
(g1
g2
(lp296
g0
(g1
g2
(lp297
VThat
p298
atp299
Rp300
(dp301
g11
S'start: 1'
p302
sbatp303
Rp304
(dp305
g11
S'sent: 4'
p306
sbag0
(g1
g2
(lp307
g0
(g1
g2
(lp308
Vit
p309
atp310
Rp311
(dp312
g11
S'start: 15'
p313
sbatp314
Rp315
(dp316
g11
S'sent: 4'
p317
sbag0
(g1
g2
(lp318
g0
(g1
g2
(lp319
Vthe water
p320
atp321
Rp322
(dp323
g11
S'start: 19'
p324
sbatp325
Rp326
(dp327
g11
S'sent: 4'
p328
sbatp329
Rp330
(dp331
g11
S'id: 25'
p332
sbag0
(g1
g2
(lp333
g0
(g1
g2
(lp334
g0
(g1
g2
(lp335
Vthe lake
p336
atp337
Rp338
(dp339
g11
S'start: 6'
p340
sbatp341
Rp342
(dp343
g11
S'sent: 3'
p344
sbag0
(g1
g2
(lp345
g0
(g1
g2
(lp346
Vthe lake
p347
atp348
Rp349
(dp350
g11
S'start: 38'
p351
sbatp352
Rp353
(dp354
g11
S'sent: 4'
p355
sbatp356
Rp357
(dp358
g11
S'id: 26'
p359
sbag0
(g1
g2
(lp360
g0
(g1
g2
(lp361
g0
(g1
g2
(lp362
VI
p363
atp364
Rp365
(dp366
g11
S'start: 30'
p367
sbatp368
Rp369
(dp370
g11
S'sent: 3'
p371
sbag0
(g1
g2
(lp372
g0
(g1
g2
(lp373
VI
p374
atp375
Rp376
(dp377
g11
S'start: 1'
p378
sbatp379
Rp380
(dp381
g11
S'sent: 5'
p382
sbag0
(g1
g2
(lp383
g0
(g1
g2
(lp384
VI
p385
atp386
Rp387
(dp388
g11
S'start: 1'
p389
sbatp390
Rp391
(dp392
g11
S'sent: 6'
p393
sbag0
(g1
g2
(lp394
g0
(g1
g2
(lp395
VI
p396
atp397
Rp398
(dp399
g11
S'start: 34'
p400
sbatp401
Rp402
(dp403
g11
S'sent: 7'
p404
sbag0
(g1
g2
(lp405
g0
(g1
g2
(lp406
VI
p407
atp408
Rp409
(dp410
g11
S'start: 2'
p411
sbatp412
Rp413
(dp414
g11
S'sent: 8'
p415
sbag0
(g1
g2
(lp416
g0
(g1
g2
(lp417
VI
p418
atp419
Rp420
(dp421
g11
S'start: 1'
p422
sbatp423
Rp424
(dp425
g11
S'sent: 12'
p426
sbag0
(g1
g2
(lp427
g0
(g1
g2
(lp428
VI
p429
atp430
Rp431
(dp432
g11
S'start: 3'
p433
sbatp434
Rp435
(dp436
g11
S'sent: 12'
p437
sbag0
(g1
g2
(lp438
g0
(g1
g2
(lp439
Vmy
p440
atp441
Rp442
(dp443
g11
S'start: 10'
p444
sbatp445
Rp446
(dp447
g11
S'sent: 12'
p448
sbatp449
Rp450
(dp451
g11
S'id: 30'
p452
sbag0
(g1
g2
(lp453
g0
(g1
g2
(lp454
g0
(g1
g2
(lp455
Va guy
p456
atp457
Rp458
(dp459
g11
S'start: 3'
p460
sbatp461
Rp462
(dp463
g11
S'sent: 4'
p464
sbag0
(g1
g2
(lp465
g0
(g1
g2
(lp466
Vhe
p467
atp468
Rp469
(dp470
g11
S'start: 23'
p471
sbatp472
Rp473
(dp474
g11
S'sent: 4'
p475
sbag0
(g1
g2
(lp476
g0
(g1
g2
(lp477
Vhe
p478
atp479
Rp480
(dp481
g11
S'start: 31'
p482
sbatp483
Rp484
(dp485
g11
S'sent: 4'
p486
sbatp487
Rp488
(dp489
g11
S'id: 35'
p490
sbag0
(g1
g2
(lp491
g0
(g1
g2
(lp492
g0
(g1
g2
(lp493
Va fish
p494
atp495
Rp496
(dp497
g11
S'start: 34'
p498
sbatp499
Rp500
(dp501
g11
S'sent: 4'
p502
sbag0
(g1
g2
(lp503
g0
(g1
g2
(lp504
Vit
p505
atp506
Rp507
(dp508
g11
S'start: 42'
p509
sbatp510
Rp511
(dp512
g11
S'sent: 4'
p513
sbag0
(g1
g2
(lp514
g0
(g1
g2
(lp515
Vthe fish
p516
atp517
Rp518
(dp519
g11
S'start: 46'
p520
sbatp521
Rp522
(dp523
g11
S'sent: 4'
p524
sbatp525
Rp526
(dp527
g11
S'id: 42'
p528
sbag0
(g1
g2
(lp529
g0
(g1
g2
(lp530
g0
(g1
g2
(lp531
Vthey
p532
atp533
Rp534
(dp535
g11
S'start: 22'
p536
sbatp537
Rp538
(dp539
g11
S'sent: 6'
p540
sbag0
(g1
g2
(lp541
g0
(g1
g2
(lp542
Vthey
p543
atp544
Rp545
(dp546
g11
S'start: 29'
p547
sbatp548
Rp549
(dp550
g11
S'sent: 6'
p551
sbatp552
Rp553
(dp554
g11
S'id: 64'
p555
sbag0
(g1
g2
(lp556
g0
(g1
g2
(lp557
g0
(g1
g2
(lp558
Vmommy and daddy
p559
atp560
Rp561
(dp562
g11
S'start: 4'
p563
sbatp564
Rp565
(dp566
g11
S'sent: 7'
p567
sbag0
(g1
g2
(lp568
g0
(g1
g2
(lp569
Vthey
p570
atp571
Rp572
(dp573
g11
S'start: 15'
p574
sbatp575
Rp576
(dp577
g11
S'sent: 7'
p578
sbag0
(g1
g2
(lp579
g0
(g1
g2
(lp580
Vtheir
p581
atp582
Rp583
(dp584
g11
S'start: 18'
p585
sbatp586
Rp587
(dp588
g11
S'sent: 7'
p589
sbag0
(g1
g2
(lp590
g0
(g1
g2
(lp591
Vthey
p592
atp593
Rp594
(dp595
g11
S'start: 36'
p596
sbatp597
Rp598
(dp599
g11
S'sent: 7'
p600
sbag0
(g1
g2
(lp601
g0
(g1
g2
(lp602
Vtheir , got their leisure clothes on
p603
atp604
Rp605
(dp606
g11
S'start: 2'
p607
sbatp608
Rp609
(dp610
g11
S'sent: 9'
p611
sbag0
(g1
g2
(lp612
g0
(g1
g2
(lp613
Vtheir
p614
atp615
Rp616
(dp617
g11
S'start: 2'
p618
sbatp619
Rp620
(dp621
g11
S'sent: 9'
p622
sbag0
(g1
g2
(lp623
g0
(g1
g2
(lp624
Vtheir
p625
atp626
Rp627
(dp628
g11
S'start: 5'
p629
sbatp630
Rp631
(dp632
g11
S'sent: 9'
p633
sbatp634
Rp635
(dp636
g11
S'id: 68'
p637
sbag0
(g1
g2
(lp638
g0
(g1
g2
(lp639
g0
(g1
g2
(lp640
Vtheir sandals
p641
atp642
Rp643
(dp644
g11
S'start: 18'
p645
sbatp646
Rp647
(dp648
g11
S'sent: 7'
p649
sbag0
(g1
g2
(lp650
g0
(g1
g2
(lp651
Vthat
p652
atp653
Rp654
(dp655
g11
S'start: 7'
p656
sbatp657
Rp658
(dp659
g11
S'sent: 8'
p660
sbag0
(g1
g2
(lp661
g0
(g1
g2
(lp662
Vginger ale or beer , probably beer
p663
atp664
Rp665
(dp666
g11
S'start: 9'
p667
sbatp668
Rp669
(dp670
g11
S'sent: 8'
p671
sbag0
(g1
g2
(lp672
g0
(g1
g2
(lp673
Vginger ale or beer
p674
atp675
Rp676
(dp677
g11
S'start: 9'
p678
sbatp679
Rp680
(dp681
g11
S'sent: 8'
p682
sbatp683
Rp684
(dp685
g11
S'id: 71'
p686
sbag0
(g1
g2
(lp687
g0
(g1
g2
(lp688
g0
(g1
g2
(lp689
Va transistor type radio
p690
atp691
Rp692
(dp693
g11
S'start: 25'
p694
sbatp695
Rp696
(dp697
g11
S'sent: 7'
p698
sbag0
(g1
g2
(lp699
g0
(g1
g2
(lp700
Vit
p701
atp702
Rp703
(dp704
g11
S'start: 38'
p705
sbatp706
Rp707
(dp708
g11
S'sent: 7'
p709
sbatp710
Rp711
(dp712
g11
S'id: 74'
p713
sbag0
(g1
g2
(lp714
g0
(g1
g2
(lp715
g0
(g1
g2
(lp716
Va book
p717
atp718
Rp719
(dp720
g11
S'start: 4'
p721
sbatp722
Rp723
(dp724
g11
S'sent: 10'
p725
sbag0
(g1
g2
(lp726
g0
(g1
g2
(lp727
VThat
p728
atp729
Rp730
(dp731
g11
S'start: 1'
p732
sbatp733
Rp734
(dp735
g11
S'sent: 11'
p736
sbag0
(g1
g2
(lp737
g0
(g1
g2
(lp738
Vthe picnic basket
p739
atp740
Rp741
(dp742
g11
S'start: 3'
p743
sbatp744
Rp745
(dp746
g11
S'sent: 11'
p747
sbag0
(g1
g2
(lp748
g0
(g1
g2
(lp749
Vit
p750
atp751
Rp752
(dp753
g11
S'start: 8'
p754
sbatp755
Rp756
(dp757
g11
S'sent: 11'
p758
sbatp759
Rp760
(dp761
g11
S'id: 88'
p762
sbag0
(g1
g2
(lp763
g0
(g1
g2
(lp764
g0
(g1
g2
(lp765
Vthe doggie
p766
atp767
Rp768
(dp769
g11
S'start: 4'
p770
sbatp771
Rp772
(dp773
g11
S'sent: 13'
p774
sbag0
(g1
g2
(lp775
g0
(g1
g2
(lp776
Vhis
p777
atp778
Rp779
(dp780
g11
S'start: 8'
p781
sbatp782
Rp783
(dp784
g11
S'sent: 13'
p785
sbag0
(g1
g2
(lp786
g0
(g1
g2
(lp787
Vhe
p788
atp789
Rp790
(dp791
g11
S'start: 15'
p792
sbatp793
Rp794
(dp795
g11
S'sent: 13'
p796
sbag0
(g1
g2
(lp797
g0
(g1
g2
(lp798
Vhis
p799
atp800
Rp801
(dp802
g11
S'start: 18'
p803
sbatp804
Rp805
(dp806
g11
S'sent: 13'
p807
sbag0
(g1
g2
(lp808
g0
(g1
g2
(lp809
Vhe
p810
atp811
Rp812
(dp813
g11
S'start: 24'
p814
sbatp815
Rp816
(dp817
g11
S'sent: 13'
p818
sbag0
(g1
g2
(lp819
g0
(g1
g2
(lp820
Vhe
p821
atp822
Rp823
(dp824
g11
S'start: 27'
p825
sbatp826
Rp827
(dp828
g11
S'sent: 13'
p829
sbatp830
Rp831
(dp832
g11
S'id: 100'
p833
sbatp834
Rp835
(dp836
g11
S'coreferences'
p837
sb.