ccopy_reg
_reconstructor
p0
(cnltk.tree
Tree
p1
c__builtin__
list
p2
(lp3
g0
(g1
g2
(lp4
g0
(g1
g2
(lp5
g0
(g1
g2
(lp6
Voh
p7
atp8
Rp9
(dp10
S'_label'
p11
VUH
p12
sbag0
(g1
g2
(lp13
g0
(g1
g2
(lp14
Vman
p15
atp16
Rp17
(dp18
g11
VUH
p19
sbatp20
Rp21
(dp22
g11
VINTJ
p23
sbag0
(g1
g2
(lp24
V.
p25
atp26
Rp27
(dp28
g11
V.
p29
sbatp30
Rp31
(dp32
g11
VFRAG
p33
sbatp34
Rp35
(dp36
g11
S'id: 0'
p37
sbag0
(g1
g2
(lp38
g0
(g1
g2
(lp39
g0
(g1
g2
(lp40
g0
(g1
g2
(lp41
Vit
p42
atp43
Rp44
(dp45
g11
VPRP
p46
sbatp47
Rp48
(dp49
g11
VNP
p50
sbag0
(g1
g2
(lp51
g0
(g1
g2
(lp52
V's
p53
atp54
Rp55
(dp56
g11
VVBZ
p57
sbag0
(g1
g2
(lp58
g0
(g1
g2
(lp59
Va.
p60
atp61
Rp62
(dp63
g11
VRB
p64
sbatp65
Rp66
(dp67
g11
VADVP
p68
sbag0
(g1
g2
(lp69
g0
(g1
g2
(lp70
g0
(g1
g2
(lp71
g0
(g1
g2
(lp72
Vthere
p73
atp74
Rp75
(dp76
g11
VEX
p77
sbatp78
Rp79
(dp80
g11
VNP
p81
sbag0
(g1
g2
(lp82
g0
(g1
g2
(lp83
V's
p84
atp85
Rp86
(dp87
g11
VVBZ
p88
sbag0
(g1
g2
(lp89
g0
(g1
g2
(lp90
g0
(g1
g2
(lp91
Va.
p92
atp93
Rp94
(dp95
g11
VNN
p96
sbatp97
Rp98
(dp99
g11
VNP
p100
sbag0
(g1
g2
(lp101
g0
(g1
g2
(lp102
g0
(g1
g2
(lp103
g0
(g1
g2
(lp104
Vthere
p105
atp106
Rp107
(dp108
g11
VEX
p109
sbatp110
Rp111
(dp112
g11
VNP
p113
sbag0
(g1
g2
(lp114
g0
(g1
g2
(lp115
V's
p116
atp117
Rp118
(dp119
g11
VVBZ
p120
sbag0
(g1
g2
(lp121
g0
(g1
g2
(lp122
Va
p123
atp124
Rp125
(dp126
g11
VDT
p127
sbag0
(g1
g2
(lp128
Vcookie
p129
atp130
Rp131
(dp132
g11
VNN
p133
sbatp134
Rp135
(dp136
g11
VNP
p137
sbatp138
Rp139
(dp140
g11
VVP
p141
sbatp142
Rp143
(dp144
g11
VS
p145
sbatp146
Rp147
(dp148
g11
VSBAR
p149
sbatp150
Rp151
(dp152
g11
VNP
p153
sbatp154
Rp155
(dp156
g11
VVP
p157
sbatp158
Rp159
(dp160
g11
VS
p161
sbatp162
Rp163
(dp164
g11
VSBAR
p165
sbatp166
Rp167
(dp168
g11
VVP
p169
sbag0
(g1
g2
(lp170
V.
p171
atp172
Rp173
(dp174
g11
V.
p175
sbatp176
Rp177
(dp178
g11
VS
p179
sbatp180
Rp181
(dp182
g11
S'id: 1'
p183
sbag0
(g1
g2
(lp184
g0
(g1
g2
(lp185
g0
(g1
g2
(lp186
g0
(g1
g2
(lp187
g0
(g1
g2
(lp188
Vthere
p189
atp190
Rp191
(dp192
g11
VEX
p193
sbatp194
Rp195
(dp196
g11
VNP
p197
sbag0
(g1
g2
(lp198
g0
(g1
g2
(lp199
V's
p200
atp201
Rp202
(dp203
g11
VVBZ
p204
sbag0
(g1
g2
(lp205
g0
(g1
g2
(lp206
Va.
p207
atp208
Rp209
(dp210
g11
VNN
p211
sbag0
(g1
g2
(lp212
Vwater
p213
atp214
Rp215
(dp216
g11
VNN
p217
sbatp218
Rp219
(dp220
g11
VNP
p221
sbatp222
Rp223
(dp224
g11
VVP
p225
sbatp226
Rp227
(dp228
g11
VS
p229
sbag0
(g1
g2
(lp230
V,
p231
atp232
Rp233
(dp234
g11
V,
p235
sbag0
(g1
g2
(lp236
g0
(g1
g2
(lp237
Vit
p238
atp239
Rp240
(dp241
g11
VPRP
p242
sbatp243
Rp244
(dp245
g11
VNP
p246
sbag0
(g1
g2
(lp247
g0
(g1
g2
(lp248
V's
p249
atp250
Rp251
(dp252
g11
VVBZ
p253
sbag0
(g1
g2
(lp254
g0
(g1
g2
(lp255
Vgoing
p256
atp257
Rp258
(dp259
g11
VVBG
p260
sbag0
(g1
g2
(lp261
g0
(g1
g2
(lp262
Veverywhere
p263
atp264
Rp265
(dp266
g11
VRB
p267
sbatp268
Rp269
(dp270
g11
VADVP
p271
sbatp272
Rp273
(dp274
g11
VVP
p275
sbatp276
Rp277
(dp278
g11
VVP
p279
sbag0
(g1
g2
(lp280
V.
p281
atp282
Rp283
(dp284
g11
V.
p285
sbatp286
Rp287
(dp288
g11
VS
p289
sbatp290
Rp291
(dp292
g11
S'id: 2'
p293
sbag0
(g1
g2
(lp294
g0
(g1
g2
(lp295
g0
(g1
g2
(lp296
g0
(g1
g2
(lp297
Vand
p298
atp299
Rp300
(dp301
g11
VCC
p302
sbag0
(g1
g2
(lp303
g0
(g1
g2
(lp304
Vthere
p305
atp306
Rp307
(dp308
g11
VEX
p309
sbatp310
Rp311
(dp312
g11
VNP
p313
sbag0
(g1
g2
(lp314
g0
(g1
g2
(lp315
V's
p316
atp317
Rp318
(dp319
g11
VVBZ
p320
sbag0
(g1
g2
(lp321
g0
(g1
g2
(lp322
Va
p323
atp324
Rp325
(dp326
g11
VDT
p327
sbatp328
Rp329
(dp330
g11
VNP
p331
sbatp332
Rp333
(dp334
g11
VVP
p335
sbatp336
Rp337
(dp338
g11
VS
p339
sbag0
(g1
g2
(lp340
V,
p341
atp342
Rp343
(dp344
g11
V,
p345
sbag0
(g1
g2
(lp346
g0
(g1
g2
(lp347
VI
p348
atp349
Rp350
(dp351
g11
VPRP
p352
sbatp353
Rp354
(dp355
g11
VNP
p356
sbag0
(g1
g2
(lp357
g0
(g1
g2
(lp358
Vdo
p359
atp360
Rp361
(dp362
g11
VVBP
p363
sbag0
(g1
g2
(lp364
Vn't
p365
atp366
Rp367
(dp368
g11
VRB
p369
sbag0
(g1
g2
(lp370
g0
(g1
g2
(lp371
Vknow
p372
atp373
Rp374
(dp375
g11
VVB
p376
sbatp377
Rp378
(dp379
g11
VVP
p380
sbatp381
Rp382
(dp383
g11
VVP
p384
sbag0
(g1
g2
(lp385
V,
p386
atp387
Rp388
(dp389
g11
V,
p390
sbag0
(g1
g2
(lp391
g0
(g1
g2
(lp392
g0
(g1
g2
(lp393
Vits
p394
atp395
Rp396
(dp397
g11
VPRP$
p398
sbag0
(g1
g2
(lp399
g0
(g1
g2
(lp400
Va
p401
atp402
Rp403
(dp404
g11
VDT
p405
sbag0
(g1
g2
(lp406
g0
(g1
g2
(lp407
Vreally
p408
atp409
Rp410
(dp411
g11
VRB
p412
sbag0
(g1
g2
(lp413
Vgood
p414
atp415
Rp416
(dp417
g11
VJJ
p418
sbatp419
Rp420
(dp421
g11
VADJP
p422
sbatp423
Rp424
(dp425
g11
VNP
p426
sbatp427
Rp428
(dp429
g11
VNP
p430
sbatp431
Rp432
(dp433
g11
VX
p434
sbag0
(g1
g2
(lp435
V.
p436
atp437
Rp438
(dp439
g11
V.
p440
sbatp441
Rp442
(dp443
g11
VS
p444
sbatp445
Rp446
(dp447
g11
S'id: 3'
p448
sbag0
(g1
g2
(lp449
g0
(g1
g2
(lp450
g0
(g1
g2
(lp451
Vcookie
p452
atp453
Rp454
(dp455
g11
VNN
p456
sbag0
(g1
g2
(lp457
V.
p458
atp459
Rp460
(dp461
g11
V.
p462
sbatp463
Rp464
(dp465
g11
VNP
p466
sbatp467
Rp468
(dp469
g11
S'id: 4'
p470
sbag0
(g1
g2
(lp471
g0
(g1
g2
(lp472
g0
(g1
g2
(lp473
Va
p474
atp475
Rp476
(dp477
g11
VDT
p478
sbag0
(g1
g2
(lp479
Vcookie
p480
atp481
Rp482
(dp483
g11
VNN
p484
sbag0
(g1
g2
(lp485
V.
p486
atp487
Rp488
(dp489
g11
V.
p490
sbatp491
Rp492
(dp493
g11
VNP
p494
sbatp495
Rp496
(dp497
g11
S'id: 5'
p498
sbag0
(g1
g2
(lp499
g0
(g1
g2
(lp500
g0
(g1
g2
(lp501
g0
(g1
g2
(lp502
Vthat
p503
atp504
Rp505
(dp506
g11
VDT
p507
sbatp508
Rp509
(dp510
g11
VNP
p511
sbag0
(g1
g2
(lp512
g0
(g1
g2
(lp513
V's
p514
atp515
Rp516
(dp517
g11
VVBZ
p518
sbag0
(g1
g2
(lp519
g0
(g1
g2
(lp520
Vit
p521
atp522
Rp523
(dp524
g11
VPRP
p525
sbatp526
Rp527
(dp528
g11
VNP
p529
sbatp530
Rp531
(dp532
g11
VVP
p533
sbag0
(g1
g2
(lp534
V.
p535
atp536
Rp537
(dp538
g11
V.
p539
sbatp540
Rp541
(dp542
g11
VS
p543
sbatp544
Rp545
(dp546
g11
S'id: 6'
p547
sbag0
(g1
g2
(lp548
g0
(g1
g2
(lp549
g0
(g1
g2
(lp550
Vcookie
p551
atp552
Rp553
(dp554
g11
VNN
p555
sbag0
(g1
g2
(lp556
V.
p557
atp558
Rp559
(dp560
g11
V.
p561
sbatp562
Rp563
(dp564
g11
VNP
p565
sbatp566
Rp567
(dp568
g11
S'id: 7'
p569
sbag0
(g1
g2
(lp570
g0
(g1
g2
(lp571
g0
(g1
g2
(lp572
g0
(g1
g2
(lp573
Vthat
p574
atp575
Rp576
(dp577
g11
VDT
p578
sbatp579
Rp580
(dp581
g11
VNP
p582
sbag0
(g1
g2
(lp583
g0
(g1
g2
(lp584
V's
p585
atp586
Rp587
(dp588
g11
VVBZ
p589
sbag0
(g1
g2
(lp590
g0
(g1
g2
(lp591
Vit
p592
atp593
Rp594
(dp595
g11
VPRP
p596
sbatp597
Rp598
(dp599
g11
VNP
p600
sbatp601
Rp602
(dp603
g11
VVP
p604
sbag0
(g1
g2
(lp605
V.
p606
atp607
Rp608
(dp609
g11
V.
p610
sbatp611
Rp612
(dp613
g11
VS
p614
sbatp615
Rp616
(dp617
g11
S'id: 8'
p618
sbag0
(g1
g2
(lp619
g0
(g1
g2
(lp620
g0
(g1
g2
(lp621
g0
(g1
g2
(lp622
V8
p623
atp624
Rp625
(dp626
g11
VCD
p627
sbatp628
Rp629
(dp630
g11
VNP
p631
sbag0
(g1
g2
(lp632
g0
(g1
g2
(lp633
Vdawn
p634
atp635
Rp636
(dp637
g11
VNN
p638
sbatp639
Rp640
(dp641
g11
VNP
p642
sbag0
(g1
g2
(lp643
V.
p644
atp645
Rp646
(dp647
g11
V.
p648
sbatp649
Rp650
(dp651
g11
VNP
p652
sbatp653
Rp654
(dp655
g11
S'id: 9'
p656
sbatp657
Rp658
(dp659
g11
S'sentences'
p660
sb.