ccopy_reg
_reconstructor
p0
(cnltk.tree
Tree
p1
c__builtin__
list
p2
(lp3
g0
(g1
g2
(lp4
g0
(g1
g2
(lp5
g0
(g1
g2
(lp6
g0
(g1
g2
(lp7
g0
(g1
g2
(lp8
(lp9
S'word: the, index: 1'
p10
aatp11
Rp12
(dp13
S'_label'
p14
Vdet
p15
sbatp16
Rp17
(dp18
g14
S'word: sink, index: 2'
p19
sbatp20
Rp21
(dp22
g14
Vnsubj
p23
sbag0
(g1
g2
(lp24
(lp25
S'word: is, index: 3'
p26
aatp27
Rp28
(dp29
g14
Vaux
p30
sbatp31
Rp32
(dp33
g14
S'word: overflowing, index: 4'
p34
sbatp35
Rp36
(dp37
g14
S'id: 0'
p38
sbag0
(g1
g2
(lp39
g0
(g1
g2
(lp40
g0
(g1
g2
(lp41
(lp42
S'word: is, index: 3'
p43
aatp44
Rp45
(dp46
g14
Vaux
p47
sbag0
(g1
g2
(lp48
(lp49
S'word: out, index: 5'
p50
aatp51
Rp52
(dp53
g14
Vprt
p54
sbag0
(g1
g2
(lp55
g0
(g1
g2
(lp56
g0
(g1
g2
(lp57
(lp58
S'word: the, index: 6'
p59
aatp60
Rp61
(dp62
g14
Vdet
p63
sbatp64
Rp65
(dp66
g14
S'word: window, index: 7'
p67
sbatp68
Rp69
(dp70
g14
Vdobj
p71
sbag0
(g1
g2
(lp72
g0
(g1
g2
(lp73
g0
(g1
g2
(lp74
(lp75
S'word: The, index: 1'
p76
aatp77
Rp78
(dp79
g14
Vdet
p80
sbatp81
Rp82
(dp83
g14
S'word: woman, index: 2'
p84
sbatp85
Rp86
(dp87
g14
Vnsubj
p88
sbatp89
Rp90
(dp91
g14
S'word: looking, index: 4'
p92
sbatp93
Rp94
(dp95
g14
S'id: 1'
p96
sbag0
(g1
g2
(lp97
g0
(g1
g2
(lp98
g0
(g1
g2
(lp99
g0
(g1
g2
(lp100
g0
(g1
g2
(lp101
(lp102
S'word: a, index: 5'
p103
aatp104
Rp105
(dp106
g14
Vdet
p107
sbatp108
Rp109
(dp110
g14
S'word: kiki, index: 6'
p111
sbatp112
Rp113
(dp114
g14
Vdobj
p115
sbag0
(g1
g2
(lp116
g0
(g1
g2
(lp117
g0
(g1
g2
(lp118
(lp119
S'word: the, index: 8'
p120
aatp121
Rp122
(dp123
g14
Vdet
p124
sbag0
(g1
g2
(lp125
(lp126
S'word: candy, index: 9'
p127
aatp128
Rp129
(dp130
g14
Vnn
p131
sbatp132
Rp133
(dp134
g14
S'word: jar, index: 10'
p135
sbatp136
Rp137
(dp138
g14
Vprep
p139
sbag0
(g1
g2
(lp140
g0
(g1
g2
(lp141
g0
(g1
g2
(lp142
(lp143
S'word: he, index: 12'
p144
aatp145
Rp146
(dp147
g14
Vnsubj
p148
sbag0
(g1
g2
(lp149
(lp150
S"word: 's, index: 13"
p151
aatp152
Rp153
(dp154
g14
Vaux
p155
sbag0
(g1
g2
(lp156
(lp157
S'word: off, index: 15'
p158
aatp159
Rp160
(dp161
g14
Vprt
p162
sbag0
(g1
g2
(lp163
g0
(g1
g2
(lp164
g0
(g1
g2
(lp165
(lp166
S'word: the, index: 16'
p167
aatp168
Rp169
(dp170
g14
Vdet
p171
sbatp172
Rp173
(dp174
g14
S'word: stool, index: 17'
p175
sbatp176
Rp177
(dp178
g14
Vdobj
p179
sbatp180
Rp181
(dp182
g14
S'word: volling, index: 14'
p183
sbatp184
Rp185
(dp186
g14
Vparataxis
p187
sbag0
(g1
g2
(lp188
g0
(g1
g2
(lp189
g0
(g1
g2
(lp190
(lp191
S'word: The, index: 1'
p192
aatp193
Rp194
(dp195
g14
Vdet
p196
sbatp197
Rp198
(dp199
g14
S'word: boy, index: 2'
p200
sbatp201
Rp202
(dp203
g14
Vnsubj
p204
sbag0
(g1
g2
(lp205
(lp206
S'word: is, index: 3'
p207
aatp208
Rp209
(dp210
g14
Vaux
p211
sbag0
(g1
g2
(lp212
g0
(g1
g2
(lp213
g0
(g1
g2
(lp214
g0
(g1
g2
(lp215
g0
(g1
g2
(lp216
(lp217
S'word: his, index: 22'
p218
aatp219
Rp220
(dp221
g14
Vposs
p222
sbatp223
Rp224
(dp225
g14
S'word: sister, index: 23'
p226
sbatp227
Rp228
(dp229
g14
Vdobj
p230
sbag0
(g1
g2
(lp231
(lp232
S'word: one, index: 24'
p233
aatp234
Rp235
(dp236
g14
Vtmod
p237
sbag0
(g1
g2
(lp238
(lp239
S'word: he, index: 19'
p240
aatp241
Rp242
(dp243
g14
Vnsubj
p244
sbag0
(g1
g2
(lp245
(lp246
S"word: 's, index: 20"
p247
aatp248
Rp249
(dp250
g14
Vaux
p251
sbatp252
Rp253
(dp254
g14
S'word: handing, index: 21'
p255
sbatp256
Rp257
(dp258
g14
Vparataxis
p259
sbatp260
Rp261
(dp262
g14
S'word: getting, index: 4'
p263
sbatp264
Rp265
(dp266
g14
S'id: 2'
p267
sbag0
(g1
g2
(lp268
g0
(g1
g2
(lp269
g0
(g1
g2
(lp270
g0
(g1
g2
(lp271
g0
(g1
g2
(lp272
(lp273
S'word: the, index: 8'
p274
aatp275
Rp276
(dp277
g14
Vdet
p278
sbatp279
Rp280
(dp281
g14
S'word: counter, index: 9'
p282
sbatp283
Rp284
(dp285
g14
Vprep
p286
sbag0
(g1
g2
(lp287
g0
(g1
g2
(lp288
g0
(g1
g2
(lp289
(lp290
S'word: The, index: 1'
p291
aatp292
Rp293
(dp294
g14
Vdet
p295
sbatp296
Rp297
(dp298
g14
S'word: cups, index: 2'
p299
sbatp300
Rp301
(dp302
g14
Vnsubj
p303
sbag0
(g1
g2
(lp304
g0
(g1
g2
(lp305
g0
(g1
g2
(lp306
(lp307
S'word: the, index: 4'
p308
aatp309
Rp310
(dp311
g14
Vdet
p312
sbatp313
Rp314
(dp315
g14
S'word: plates, index: 5'
p316
sbatp317
Rp318
(dp319
g14
Vnsubj
p320
sbatp321
Rp322
(dp323
g14
S'word: are, index: 6'
p324
sbatp325
Rp326
(dp327
g14
S'id: 3'
p328
sbag0
(g1
g2
(lp329
g0
(g1
g2
(lp330
g0
(g1
g2
(lp331
(lp332
S'word: There, index: 1'
p333
aatp334
Rp335
(dp336
g14
Vexpl
p337
sbag0
(g1
g2
(lp338
g0
(g1
g2
(lp339
g0
(g1
g2
(lp340
(lp341
S'word: a, index: 3'
p342
aatp343
Rp344
(dp345
g14
Vdet
p346
sbag0
(g1
g2
(lp347
g0
(g1
g2
(lp348
g0
(g1
g2
(lp349
(lp350
S'word: that, index: 5'
p351
aatp352
Rp353
(dp354
g14
Vnsubj
p355
sbag0
(g1
g2
(lp356
g0
(g1
g2
(lp357
g0
(g1
g2
(lp358
(lp359
S'word: the, index: 8'
p360
aatp361
Rp362
(dp363
g14
Vdet
p364
sbag0
(g1
g2
(lp365
(lp366
S'word: back, index: 9'
p367
aatp368
Rp369
(dp370
g14
Vamod
p371
sbatp372
Rp373
(dp374
g14
S'word: door, index: 10'
p375
sbatp376
Rp377
(dp378
g14
Vprep
p379
sbatp380
Rp381
(dp382
g14
S'word: leads, index: 6'
p383
sbatp384
Rp385
(dp386
g14
Vrcmod
p387
sbatp388
Rp389
(dp390
g14
S'word: path, index: 4'
p391
sbatp392
Rp393
(dp394
g14
Vnsubj
p395
sbatp396
Rp397
(dp398
g14
S"word: 's, index: 2"
p399
sbatp400
Rp401
(dp402
g14
S'id: 4'
p403
sbag0
(g1
g2
(lp404
g0
(g1
g2
(lp405
g0
(g1
g2
(lp406
(lp407
S'word: A, index: 1'
p408
aatp409
Rp410
(dp411
g14
Vdet
p412
sbag0
(g1
g2
(lp413
g0
(g1
g2
(lp414
g0
(g1
g2
(lp415
(lp416
S'word: the, index: 4'
p417
aatp418
Rp419
(dp420
g14
Vdet
p421
sbatp422
Rp423
(dp424
g14
S'word: window, index: 5'
p425
sbatp426
Rp427
(dp428
g14
Vprep
p429
sbatp430
Rp431
(dp432
g14
S'word: tree, index: 2'
p433
sbatp434
Rp435
(dp436
g14
S'id: 5'
p437
sbag0
(g1
g2
(lp438
g0
(g1
g2
(lp439
g0
(g1
g2
(lp440
g0
(g1
g2
(lp441
g0
(g1
g2
(lp442
(lp443
S'word: The, index: 1'
p444
aatp445
Rp446
(dp447
g14
Vdet
p448
sbatp449
Rp450
(dp451
g14
S'word: woman, index: 2'
p452
sbatp453
Rp454
(dp455
g14
Vnsubj
p456
sbag0
(g1
g2
(lp457
g0
(g1
g2
(lp458
g0
(g1
g2
(lp459
(lp460
S'word: to, index: 4'
p461
aatp462
Rp463
(dp464
g14
Vaux
p465
sbag0
(g1
g2
(lp466
g0
(g1
g2
(lp467
g0
(g1
g2
(lp468
(lp469
S'word: high, index: 7'
p470
aatp471
Rp472
(dp473
g14
Vamod
p474
sbatp475
Rp476
(dp477
g14
S'word: heels, index: 8'
p478
sbatp479
Rp480
(dp481
g14
Vprep
p482
sbatp483
Rp484
(dp485
g14
S'word: have, index: 5'
p486
sbatp487
Rp488
(dp489
g14
Vxcomp
p490
sbatp491
Rp492
(dp493
g14
S'word: appears, index: 3'
p494
sbatp495
Rp496
(dp497
g14
S'id: 6'
p498
sbag0
(g1
g2
(lp499
g0
(g1
g2
(lp500
g0
(g1
g2
(lp501
g0
(g1
g2
(lp502
g0
(g1
g2
(lp503
(lp504
S'word: loafers, index: 7'
p505
aatp506
Rp507
(dp508
g14
Vprep
p509
sbag0
(g1
g2
(lp510
(lp511
S'word: to, index: 4'
p512
aatp513
Rp514
(dp515
g14
Vaux
p516
sbatp517
Rp518
(dp519
g14
S'word: have, index: 5'
p520
sbatp521
Rp522
(dp523
g14
Vxcomp
p524
sbag0
(g1
g2
(lp525
g0
(g1
g2
(lp526
g0
(g1
g2
(lp527
(lp528
S'word: The, index: 1'
p529
aatp530
Rp531
(dp532
g14
Vdet
p533
sbatp534
Rp535
(dp536
g14
S'word: girl, index: 2'
p537
sbatp538
Rp539
(dp540
g14
Vnsubj
p541
sbatp542
Rp543
(dp544
g14
S'word: appear, index: 3'
p545
sbatp546
Rp547
(dp548
g14
S'id: 7'
p549
sbag0
(g1
g2
(lp550
g0
(g1
g2
(lp551
g0
(g1
g2
(lp552
g0
(g1
g2
(lp553
g0
(g1
g2
(lp554
(lp555
S'word: The, index: 1'
p556
aatp557
Rp558
(dp559
g14
Vdet
p560
sbatp561
Rp562
(dp563
g14
S'word: boy, index: 2'
p564
sbatp565
Rp566
(dp567
g14
Vnsubj
p568
sbag0
(g1
g2
(lp569
g0
(g1
g2
(lp570
g0
(g1
g2
(lp571
(lp572
S'word: shorts, index: 10'
p573
aatp574
Rp575
(dp576
g14
Vprep
p577
sbag0
(g1
g2
(lp578
g0
(g1
g2
(lp579
g0
(g1
g2
(lp580
(lp581
S'word: polo, index: 13'
p582
aatp583
Rp584
(dp585
g14
Vnn
p586
sbatp587
Rp588
(dp589
g14
S'word: shirt, index: 14'
p590
sbatp591
Rp592
(dp593
g14
Vprep
p594
sbag0
(g1
g2
(lp595
(lp596
S'word: to, index: 4'
p597
aatp598
Rp599
(dp600
g14
Vaux
p601
sbag0
(g1
g2
(lp602
g0
(g1
g2
(lp603
g0
(g1
g2
(lp604
(lp605
S'word: shorts, index: 10'
p606
aatp607
Rp608
(dp609
g14
Vconj
p610
sbag0
(g1
g2
(lp611
g588
atp612
Rp613
(dp614
g14
Vconj
p615
sbatp616
Rp617
(dp618
g14
S'word: boot, index: 7'
p619
sbatp620
Rp621
(dp622
g14
Vprep
p623
sbatp624
Rp625
(dp626
g14
S'word: have, index: 5'
p627
sbatp628
Rp629
(dp630
g14
Vxcomp
p631
sbatp632
Rp633
(dp634
g14
S'word: appears, index: 3'
p635
sbatp636
Rp637
(dp638
g14
S'id: 8'
p639
sbag0
(g1
g2
(lp640
g0
(g1
g2
(lp641
g0
(g1
g2
(lp642
g0
(g1
g2
(lp643
g0
(g1
g2
(lp644
(lp645
S'word: The, index: 1'
p646
aatp647
Rp648
(dp649
g14
Vdet
p650
sbatp651
Rp652
(dp653
g14
S'word: girl, index: 2'
p654
sbatp655
Rp656
(dp657
g14
Vnsubj
p658
sbag0
(g1
g2
(lp659
g0
(g1
g2
(lp660
g0
(g1
g2
(lp661
(lp662
S'word: to, index: 4'
p663
aatp664
Rp665
(dp666
g14
Vaux
p667
sbag0
(g1
g2
(lp668
g0
(g1
g2
(lp669
g0
(g1
g2
(lp670
(lp671
S'word: a, index: 6'
p672
aatp673
Rp674
(dp675
g14
Vdet
p676
sbag0
(g1
g2
(lp677
g0
(g1
g2
(lp678
g0
(g1
g2
(lp679
(lp680
S'word: skirt, index: 12'
p681
aatp682
Rp683
(dp684
g14
Vprep
p685
sbag0
(g1
g2
(lp686
(lp687
S'word: a, index: 9'
p688
aatp689
Rp690
(dp691
g14
Vdet
p692
sbatp693
Rp694
(dp695
g14
S'word: blouse, index: 10'
p696
sbatp697
Rp698
(dp699
g14
Vappos
p700
sbatp701
Rp702
(dp703
g14
S'word: brow, index: 7'
p704
sbatp705
Rp706
(dp707
g14
Vdobj
p708
sbatp709
Rp710
(dp711
g14
S'word: have, index: 5'
p712
sbatp713
Rp714
(dp715
g14
Vxcomp
p716
sbatp717
Rp718
(dp719
g14
S'word: seem, index: 3'
p720
sbatp721
Rp722
(dp723
g14
S'id: 9'
p724
sbag0
(g1
g2
(lp725
g0
(g1
g2
(lp726
g0
(g1
g2
(lp727
g0
(g1
g2
(lp728
g0
(g1
g2
(lp729
(lp730
S'word: The, index: 1'
p731
aatp732
Rp733
(dp734
g14
Vdet
p735
sbatp736
Rp737
(dp738
g14
S'word: mother, index: 2'
p739
sbatp740
Rp741
(dp742
g14
Vnsubj
p743
sbag0
(g1
g2
(lp744
g0
(g1
g2
(lp745
g0
(g1
g2
(lp746
(lp747
S'word: to, index: 4'
p748
aatp749
Rp750
(dp751
g14
Vaux
p752
sbag0
(g1
g2
(lp753
g0
(g1
g2
(lp754
g0
(g1
g2
(lp755
(lp756
S'word: a, index: 6'
p757
aatp758
Rp759
(dp760
g14
Vdet
p761
sbatp762
Rp763
(dp764
g14
S'word: dress, index: 7'
p765
sbatp766
Rp767
(dp768
g14
Vdobj
p769
sbag0
(g1
g2
(lp770
(lp771
S'word: on, index: 8'
p772
aatp773
Rp774
(dp775
g14
Vprep
p776
sbatp777
Rp778
(dp779
g14
S'word: have, index: 5'
p780
sbatp781
Rp782
(dp783
g14
Vxcomp
p784
sbatp785
Rp786
(dp787
g14
S'word: seems, index: 3'
p788
sbatp789
Rp790
(dp791
g14
S'id: 10'
p792
sbag0
(g1
g2
(lp793
g0
(g1
g2
(lp794
g0
(g1
g2
(lp795
(lp796
S'word: The, index: 1'
p797
aatp798
Rp799
(dp800
g14
Vdet
p801
sbag0
(g1
g2
(lp802
(lp803
S"word: 's, index: 3"
p804
aatp805
Rp806
(dp807
g14
Vpossessive
p808
sbag0
(g1
g2
(lp809
g0
(g1
g2
(lp810
g0
(g1
g2
(lp811
g0
(g1
g2
(lp812
g0
(g1
g2
(lp813
(lp814
S'word: the, index: 6'
p815
aatp816
Rp817
(dp818
g14
Vdet
p819
sbag0
(g1
g2
(lp820
g0
(g1
g2
(lp821
g0
(g1
g2
(lp822
g0
(g1
g2
(lp823
g0
(g1
g2
(lp824
(lp825
S'word: the, index: 10'
p826
aatp827
Rp828
(dp829
g14
Vdet
p830
sbatp831
Rp832
(dp833
g14
S'word: sink, index: 11'
p834
sbatp835
Rp836
(dp837
g14
Vprep
p838
sbatp839
Rp840
(dp841
g14
S'word: overflowing, index: 8'
p842
sbatp843
Rp844
(dp845
g14
Vvmod
p846
sbatp847
Rp848
(dp849
g14
S'word: water, index: 7'
p850
sbatp851
Rp852
(dp853
g14
Vprep
p854
sbatp855
Rp856
(dp857
g14
S'word: dating, index: 4'
p858
sbatp859
Rp860
(dp861
g14
Vvmod
p862
sbatp863
Rp864
(dp865
g14
S'word: mother, index: 2'
p866
sbatp867
Rp868
(dp869
g14
S'id: 11'
p870
sbag0
(g1
g2
(lp871
g0
(g1
g2
(lp872
g0
(g1
g2
(lp873
g0
(g1
g2
(lp874
g0
(g1
g2
(lp875
(lp876
S'word: mar, index: 4'
p877
aatp878
Rp879
(dp880
g14
Vnsubj
p881
sbag0
(g1
g2
(lp882
g0
(g1
g2
(lp883
g0
(g1
g2
(lp884
(lp885
S'word: the, index: 6'
p886
aatp887
Rp888
(dp889
g14
Vdet
p890
sbag0
(g1
g2
(lp891
(lp892
S'word: work, index: 7'
p893
aatp894
Rp895
(dp896
g14
Vnn
p897
sbag0
(g1
g2
(lp898
g0
(g1
g2
(lp899
g0
(g1
g2
(lp900
(lp901
S'word: tar, index: 9'
p902
aatp903
Rp904
(dp905
g14
Vnn
p906
sbag0
(g1
g2
(lp907
(lp908
S'word: bal, index: 10'
p909
aatp910
Rp911
(dp912
g14
Vnn
p913
sbatp914
Rp915
(dp916
g14
S'word: af, index: 11'
p917
sbatp918
Rp919
(dp920
g14
Vdep
p921
sbatp922
Rp923
(dp924
g14
S'word: ki, index: 8'
p925
sbatp926
Rp927
(dp928
g14
Vdobj
p929
sbatp930
Rp931
(dp932
g14
S'word: has, index: 5'
p933
sbatp934
Rp935
(dp936
g14
Vccomp
p937
sbag0
(g1
g2
(lp938
g0
(g1
g2
(lp939
g0
(g1
g2
(lp940
(lp941
S'word: The, index: 1'
p942
aatp943
Rp944
(dp945
g14
Vdet
p946
sbatp947
Rp948
(dp949
g14
S'word: kiki, index: 2'
p950
sbatp951
Rp952
(dp953
g14
Vnsubj
p954
sbatp955
Rp956
(dp957
g14
S'word: tars, index: 3'
p958
sbatp959
Rp960
(dp961
g14
S'id: 12'
p962
sbag0
(g1
g2
(lp963
g0
(g1
g2
(lp964
g0
(g1
g2
(lp965
(lp966
S'word: The, index: 1'
p967
aatp968
Rp969
(dp970
g14
Vdet
p971
sbag0
(g1
g2
(lp972
g0
(g1
g2
(lp973
g0
(g1
g2
(lp974
g0
(g1
g2
(lp975
g0
(g1
g2
(lp976
(lp977
S'word: second, index: 7'
p978
aatp979
Rp980
(dp981
g14
Vamod
p982
sbag0
(g1
g2
(lp983
(lp984
S'word: the, index: 6'
p985
aatp986
Rp987
(dp988
g14
Vdet
p989
sbatp990
Rp991
(dp992
g14
S'word: shelf, index: 8'
p993
sbatp994
Rp995
(dp996
g14
Vprep
p997
sbag0
(g1
g2
(lp998
(lp999
S"word: 's, index: 4"
p1000
aatp1001
Rp1002
(dp1003
g14
Vpossessive
p1004
sbatp1005
Rp1006
(dp1007
g14
S'word: tar, index: 3'
p1008
sbatp1009
Rp1010
(dp1011
g14
Vdep
p1012
sbatp1013
Rp1014
(dp1015
g14
S'word: kiki, index: 2'
p1016
sbatp1017
Rp1018
(dp1019
g14
S'id: 13'
p1020
sbag0
(g1
g2
(lp1021
g0
(g1
g2
(lp1022
g0
(g1
g2
(lp1023
(lp1024
S'word: The, index: 1'
p1025
aatp1026
Rp1027
(dp1028
g14
Vnsubj
p1029
sbag0
(g1
g2
(lp1030
(lp1031
S'word: there, index: 3'
p1032
aatp1033
Rp1034
(dp1035
g14
Vexpl
p1036
sbag0
(g1
g2
(lp1037
g0
(g1
g2
(lp1038
g0
(g1
g2
(lp1039
g0
(g1
g2
(lp1040
g0
(g1
g2
(lp1041
(lp1042
S'word: the, index: 11'
p1043
aatp1044
Rp1045
(dp1046
g14
Vdet
p1047
sbatp1048
Rp1049
(dp1050
g14
S'word: kitchen, index: 12'
p1051
sbatp1052
Rp1053
(dp1054
g14
Vprep
p1055
sbag0
(g1
g2
(lp1056
(lp1057
S'word: to, index: 5'
p1058
aatp1059
Rp1060
(dp1061
g14
Vaux
p1062
sbag0
(g1
g2
(lp1063
(lp1064
S'word: be, index: 6'
p1065
aatp1066
Rp1067
(dp1068
g14
Vcop
p1069
sbag0
(g1
g2
(lp1070
(lp1071
S'word: three, index: 7'
p1072
aatp1073
Rp1074
(dp1075
g14
Vnum
p1076
sbag0
(g1
g2
(lp1077
(lp1078
S'word: upper, index: 8'
p1079
aatp1080
Rp1081
(dp1082
g14
Vamod
p1083
sbatp1084
Rp1085
(dp1086
g14
S'word: cabinets, index: 9'
p1087
sbatp1088
Rp1089
(dp1090
g14
Vxcomp
p1091
sbatp1092
Rp1093
(dp1094
g14
S'word: appears, index: 4'
p1095
sbatp1096
Rp1097
(dp1098
g14
S'id: 14'
p1099
sbag0
(g1
g2
(lp1100
g0
(g1
g2
(lp1101
g0
(g1
g2
(lp1102
(lp1103
S'word: The, index: 1'
p1104
aatp1105
Rp1106
(dp1107
g14
Vnsubj
p1108
sbag0
(g1
g2
(lp1109
(lp1110
S'word: there, index: 3'
p1111
aatp1112
Rp1113
(dp1114
g14
Vexpl
p1115
sbag0
(g1
g2
(lp1116
g0
(g1
g2
(lp1117
g0
(g1
g2
(lp1118
g0
(g1
g2
(lp1119
g0
(g1
g2
(lp1120
g0
(g1
g2
(lp1121
g0
(g1
g2
(lp1122
g0
(g1
g2
(lp1123
g0
(g1
g2
(lp1124
(lp1125
S'word: where, index: 17'
p1126
aatp1127
Rp1128
(dp1129
g14
Vadvmod
p1130
sbag0
(g1
g2
(lp1131
g0
(g1
g2
(lp1132
g0
(g1
g2
(lp1133
(lp1134
S'word: the, index: 18'
p1135
aatp1136
Rp1137
(dp1138
g14
Vdet
p1139
sbatp1140
Rp1141
(dp1142
g14
S'word: sink, index: 19'
p1143
sbatp1144
Rp1145
(dp1146
g14
Vnsubj
p1147
sbatp1148
Rp1149
(dp1150
g14
S'word: is, index: 20'
p1151
sbatp1152
Rp1153
(dp1154
g14
Vrcmod
p1155
sbatp1156
Rp1157
(dp1158
g14
S'word: the, index: 15'
p1159
sbatp1160
Rp1161
(dp1162
g14
Vprep
p1163
sbag0
(g1
g2
(lp1164
(lp1165
S'word: the, index: 12'
p1166
aatp1167
Rp1168
(dp1169
g14
Vdet
p1170
sbatp1171
Rp1172
(dp1173
g14
S'word: side, index: 13'
p1174
sbatp1175
Rp1176
(dp1177
g14
Vprep
p1178
sbag0
(g1
g2
(lp1179
(lp1180
S'word: to, index: 5'
p1181
aatp1182
Rp1183
(dp1184
g14
Vaux
p1185
sbag0
(g1
g2
(lp1186
(lp1187
S'word: be, index: 6'
p1188
aatp1189
Rp1190
(dp1191
g14
Vcop
p1192
sbag0
(g1
g2
(lp1193
(lp1194
S'word: two, index: 7'
p1195
aatp1196
Rp1197
(dp1198
g14
Vnum
p1199
sbag0
(g1
g2
(lp1200
(lp1201
S'word: six, index: 9'
p1202
aatp1203
Rp1204
(dp1205
g14
Vnum
p1206
sbatp1207
Rp1208
(dp1209
g14
S'word: doors, index: 10'
p1210
sbatp1211
Rp1212
(dp1213
g14
Vxcomp
p1214
sbatp1215
Rp1216
(dp1217
g14
S'word: appears, index: 4'
p1218
sbatp1219
Rp1220
(dp1221
g14
S'id: 15'
p1222
sbatp1223
Rp1224
(dp1225
g14
S'sentences'
p1226
sb.