ccopy_reg
_reconstructor
p0
(cnltk.tree
Tree
p1
c__builtin__
list
p2
(lp3
g0
(g1
g2
(lp4
g0
(g1
g2
(lp5
g0
(g1
g2
(lp6
g0
(g1
g2
(lp7
g0
(g1
g2
(lp8
VI
p9
atp10
Rp11
(dp12
S'_label'
p13
VPRP
p14
sbatp15
Rp16
(dp17
g13
VNP
p18
sbag0
(g1
g2
(lp19
g0
(g1
g2
(lp20
Vknow
p21
atp22
Rp23
(dp24
g13
VVBP
p25
sbag0
(g1
g2
(lp26
g0
(g1
g2
(lp27
g0
(g1
g2
(lp28
g0
(g1
g2
(lp29
Vthis
p30
atp31
Rp32
(dp33
g13
VDT
p34
sbag0
(g1
g2
(lp35
Vguy
p36
atp37
Rp38
(dp39
g13
VNN
p40
sbatp41
Rp42
(dp43
g13
VNP
p44
sbag0
(g1
g2
(lp45
g0
(g1
g2
(lp46
Vwas
p47
atp48
Rp49
(dp50
g13
VVBD
p51
sbag0
(g1
g2
(lp52
g0
(g1
g2
(lp53
Vup
p54
atp55
Rp56
(dp57
g13
VRB
p58
sbag0
(g1
g2
(lp59
g0
(g1
g2
(lp60
Vin
p61
atp62
Rp63
(dp64
g13
VIN
p65
sbag0
(g1
g2
(lp66
g0
(g1
g2
(lp67
Vthere
p68
atp69
Rp70
(dp71
g13
VRB
p72
sbatp73
Rp74
(dp75
g13
VADVP
p76
sbatp77
Rp78
(dp79
g13
VPP
p80
sbatp81
Rp82
(dp83
g13
VADVP
p84
sbatp85
Rp86
(dp87
g13
VVP
p88
sbatp89
Rp90
(dp91
g13
VS
p92
sbatp93
Rp94
(dp95
g13
VSBAR
p96
sbatp97
Rp98
(dp99
g13
VVP
p100
sbatp101
Rp102
(dp103
g13
VS
p104
sbag0
(g1
g2
(lp105
V,
p106
atp107
Rp108
(dp109
g13
V,
p110
sbag0
(g1
g2
(lp111
Vbut
p112
atp113
Rp114
(dp115
g13
VCC
p116
sbag0
(g1
g2
(lp117
g0
(g1
g2
(lp118
g0
(g1
g2
(lp119
Vthat
p120
atp121
Rp122
(dp123
g13
VDT
p124
sbatp125
Rp126
(dp127
g13
VNP
p128
sbag0
(g1
g2
(lp129
g0
(g1
g2
(lp130
V's
p131
atp132
Rp133
(dp134
g13
VVBZ
p135
sbag0
(g1
g2
(lp136
g0
(g1
g2
(lp137
Vcalled
p138
atp139
Rp140
(dp141
g13
VVBN
p142
sbag0
(g1
g2
(lp143
g0
(g1
g2
(lp144
g0
(g1
g2
(lp145
Vthe
p146
atp147
Rp148
(dp149
g13
VDT
p150
sbag0
(g1
g2
(lp151
Vfeed
p152
atp153
Rp154
(dp155
g13
VNN
p156
sbatp157
Rp158
(dp159
g13
VNP
p160
sbag0
(g1
g2
(lp161
V,
p162
atp163
Rp164
(dp165
g13
V,
p166
sbag0
(g1
g2
(lp167
g0
(g1
g2
(lp168
Vthe
p169
atp170
Rp171
(dp172
g13
VDT
p173
sbag0
(g1
g2
(lp174
Vcar
p175
atp176
Rp177
(dp178
g13
VNN
p179
sbatp180
Rp181
(dp182
g13
VNP
p183
sbatp184
Rp185
(dp186
g13
VNP
p187
sbatp188
Rp189
(dp190
g13
VVP
p191
sbatp192
Rp193
(dp194
g13
VVP
p195
sbatp196
Rp197
(dp198
g13
VS
p199
sbag0
(g1
g2
(lp200
V.
p201
atp202
Rp203
(dp204
g13
V.
p205
sbatp206
Rp207
(dp208
g13
VS
p209
sbatp210
Rp211
(dp212
g13
S'id: 0'
p213
sbag0
(g1
g2
(lp214
g0
(g1
g2
(lp215
g0
(g1
g2
(lp216
g0
(g1
g2
(lp217
VRight
p218
atp219
Rp220
(dp221
g13
VRB
p222
sbag0
(g1
g2
(lp223
Vthere
p224
atp225
Rp226
(dp227
g13
VRB
p228
sbatp229
Rp230
(dp231
g13
VADVP
p232
sbag0
(g1
g2
(lp233
V,
p234
atp235
Rp236
(dp237
g13
V,
p238
sbag0
(g1
g2
(lp239
g0
(g1
g2
(lp240
g0
(g1
g2
(lp241
Vmy
p242
atp243
Rp244
(dp245
g13
VPRP$
p246
sbag0
(g1
g2
(lp247
Vcare
p248
atp249
Rp250
(dp251
g13
VNN
p252
sbatp253
Rp254
(dp255
g13
VNP
p256
sbag0
(g1
g2
(lp257
V,
p258
atp259
Rp260
(dp261
g13
V,
p262
sbag0
(g1
g2
(lp263
g0
(g1
g2
(lp264
Vmy
p265
atp266
Rp267
(dp268
g13
VPRP$
p269
sbag0
(g1
g2
(lp270
Vcar
p271
atp272
Rp273
(dp274
g13
VNN
p275
sbatp276
Rp277
(dp278
g13
VNP
p279
sbag0
(g1
g2
(lp280
V,
p281
atp282
Rp283
(dp284
g13
V,
p285
sbag0
(g1
g2
(lp286
g0
(g1
g2
(lp287
Vmy
p288
atp289
Rp290
(dp291
g13
VPRP$
p292
sbag0
(g1
g2
(lp293
g0
(g1
g2
(lp294
g0
(g1
g2
(lp295
Vno
p296
atp297
Rp298
(dp299
g13
VDT
p300
sbatp301
Rp302
(dp303
g13
VNP
p304
sbag0
(g1
g2
(lp305
V,
p306
atp307
Rp308
(dp309
g13
V,
p310
sbag0
(g1
g2
(lp311
g0
(g1
g2
(lp312
Vmy
p313
atp314
Rp315
(dp316
g13
VPRP$
p317
sbag0
(g1
g2
(lp318
g0
(g1
g2
(lp319
g0
(g1
g2
(lp320
Vno
p321
atp322
Rp323
(dp324
g13
VDT
p325
sbatp326
Rp327
(dp328
g13
VNP
p329
sbag0
(g1
g2
(lp330
V,
p331
atp332
Rp333
(dp334
g13
V,
p335
sbag0
(g1
g2
(lp336
g0
(g1
g2
(lp337
Vmy
p338
atp339
Rp340
(dp341
g13
VPRP$
p342
sbag0
(g1
g2
(lp343
Vkey
p344
atp345
Rp346
(dp347
g13
VNN
p348
sbatp349
Rp350
(dp351
g13
VNP
p352
sbatp353
Rp354
(dp355
g13
VNP
p356
sbatp357
Rp358
(dp359
g13
VNP
p360
sbatp361
Rp362
(dp363
g13
VNP
p364
sbatp365
Rp366
(dp367
g13
VNP
p368
sbag0
(g1
g2
(lp369
V,
p370
atp371
Rp372
(dp373
g13
V,
p374
sbag0
(g1
g2
(lp375
g0
(g1
g2
(lp376
Vkey
p377
atp378
Rp379
(dp380
g13
VJJ
p381
sbatp382
Rp383
(dp384
g13
VNP
p385
sbatp386
Rp387
(dp388
g13
VNP
p389
sbag0
(g1
g2
(lp390
g0
(g1
g2
(lp391
Vknows
p392
atp393
Rp394
(dp395
g13
VVBZ
p396
sbag0
(g1
g2
(lp397
g0
(g1
g2
(lp398
Vabout
p399
atp400
Rp401
(dp402
g13
VIN
p403
sbag0
(g1
g2
(lp404
g0
(g1
g2
(lp405
Vthat
p406
atp407
Rp408
(dp409
g13
VDT
p410
sbatp411
Rp412
(dp413
g13
VNP
p414
sbatp415
Rp416
(dp417
g13
VPP
p418
sbatp419
Rp420
(dp421
g13
VVP
p422
sbag0
(g1
g2
(lp423
V.
p424
atp425
Rp426
(dp427
g13
V.
p428
sbatp429
Rp430
(dp431
g13
VS
p432
sbatp433
Rp434
(dp435
g13
S'id: 1'
p436
sbag0
(g1
g2
(lp437
g0
(g1
g2
(lp438
g0
(g1
g2
(lp439
g0
(g1
g2
(lp440
g0
(g1
g2
(lp441
VThe
p442
atp443
Rp444
(dp445
g13
VDT
p446
sbatp447
Rp448
(dp449
g13
VWHNP
p450
sbag0
(g1
g2
(lp451
g0
(g1
g2
(lp452
g0
(g1
g2
(lp453
Vhow
p454
atp455
Rp456
(dp457
g13
VWRB
p458
sbatp459
Rp460
(dp461
g13
VWHADVP
p462
sbatp463
Rp464
(dp465
g13
VFRAG
p466
sbatp467
Rp468
(dp469
g13
VSBAR
p470
sbag0
(g1
g2
(lp471
V,
p472
atp473
Rp474
(dp475
g13
V,
p476
sbag0
(g1
g2
(lp477
g0
(g1
g2
(lp478
g0
(g1
g2
(lp479
Vthe
p480
atp481
Rp482
(dp483
g13
VDT
p484
sbatp485
Rp486
(dp487
g13
VADVP
p488
sbag0
(g1
g2
(lp489
Vhow
p490
atp491
Rp492
(dp493
g13
VWRB
p494
sbatp495
Rp496
(dp497
g13
VWHADVP
p498
sbag0
(g1
g2
(lp499
V.
p500
atp501
Rp502
(dp503
g13
V.
p504
sbatp505
Rp506
(dp507
g13
VFRAG
p508
sbatp509
Rp510
(dp511
g13
S'id: 2'
p512
sbag0
(g1
g2
(lp513
g0
(g1
g2
(lp514
g0
(g1
g2
(lp515
VAnd
p516
atp517
Rp518
(dp519
g13
VCC
p520
sbag0
(g1
g2
(lp521
g0
(g1
g2
(lp522
g0
(g1
g2
(lp523
Vthis
p524
atp525
Rp526
(dp527
g13
VDT
p528
sbag0
(g1
g2
(lp529
Vthing
p530
atp531
Rp532
(dp533
g13
VNN
p534
sbatp535
Rp536
(dp537
g13
VNP
p538
sbag0
(g1
g2
(lp539
V,
p540
atp541
Rp542
(dp543
g13
V,
p544
sbag0
(g1
g2
(lp545
g0
(g1
g2
(lp546
Vthis
p547
atp548
Rp549
(dp550
g13
VDT
p551
sbag0
(g1
g2
(lp552
Vcar
p553
atp554
Rp555
(dp556
g13
VNN
p557
sbatp558
Rp559
(dp560
g13
VNP
p561
sbag0
(g1
g2
(lp562
V,
p563
atp564
Rp565
(dp566
g13
V,
p567
sbag0
(g1
g2
(lp568
g0
(g1
g2
(lp569
Vno
p570
atp571
Rp572
(dp573
g13
VDT
p574
sbag0
(g1
g2
(lp575
Vcare
p576
atp577
Rp578
(dp579
g13
VNN
p580
sbatp581
Rp582
(dp583
g13
VNP
p584
sbatp585
Rp586
(dp587
g13
VNP
p588
sbag0
(g1
g2
(lp589
V.
p590
atp591
Rp592
(dp593
g13
V.
p594
sbatp595
Rp596
(dp597
g13
VFRAG
p598
sbatp599
Rp600
(dp601
g13
S'id: 3'
p602
sbag0
(g1
g2
(lp603
g0
(g1
g2
(lp604
g0
(g1
g2
(lp605
g0
(g1
g2
(lp606
g0
(g1
g2
(lp607
VI
p608
atp609
Rp610
(dp611
g13
VPRP
p612
sbatp613
Rp614
(dp615
g13
VNP
p616
sbag0
(g1
g2
(lp617
g0
(g1
g2
(lp618
Vknow
p619
atp620
Rp621
(dp622
g13
VVBP
p623
sbag0
(g1
g2
(lp624
g0
(g1
g2
(lp625
g0
(g1
g2
(lp626
Vthis
p627
atp628
Rp629
(dp630
g13
VDT
p631
sbag0
(g1
g2
(lp632
Vguy
p633
atp634
Rp635
(dp636
g13
VNN
p637
sbag0
(g1
g2
(lp638
Vright
p639
atp640
Rp641
(dp642
g13
VNN
p643
sbatp644
Rp645
(dp646
g13
VNP
p647
sbag0
(g1
g2
(lp648
g0
(g1
g2
(lp649
Vin
p650
atp651
Rp652
(dp653
g13
VIN
p654
sbag0
(g1
g2
(lp655
g0
(g1
g2
(lp656
Vthere
p657
atp658
Rp659
(dp660
g13
VRB
p661
sbatp662
Rp663
(dp664
g13
VNP
p665
sbatp666
Rp667
(dp668
g13
VPP
p669
sbatp670
Rp671
(dp672
g13
VNP
p673
sbatp674
Rp675
(dp676
g13
VVP
p677
sbatp678
Rp679
(dp680
g13
VS
p681
sbag0
(g1
g2
(lp682
V,
p683
atp684
Rp685
(dp686
g13
V,
p687
sbag0
(g1
g2
(lp688
g0
(g1
g2
(lp689
Vthat
p690
atp691
Rp692
(dp693
g13
VDT
p694
sbatp695
Rp696
(dp697
g13
VNP
p698
sbag0
(g1
g2
(lp699
g0
(g1
g2
(lp700
V's
p701
atp702
Rp703
(dp704
g13
VVBZ
p705
sbag0
(g1
g2
(lp706
g0
(g1
g2
(lp707
Vcar
p708
atp709
Rp710
(dp711
g13
VNN
p712
sbatp713
Rp714
(dp715
g13
VNP
p716
sbatp717
Rp718
(dp719
g13
VVP
p720
sbag0
(g1
g2
(lp721
V.
p722
atp723
Rp724
(dp725
g13
V.
p726
sbatp727
Rp728
(dp729
g13
VS
p730
sbatp731
Rp732
(dp733
g13
S'id: 4'
p734
sbag0
(g1
g2
(lp735
g0
(g1
g2
(lp736
g0
(g1
g2
(lp737
g0
(g1
g2
(lp738
VI
p739
atp740
Rp741
(dp742
g13
VPRP
p743
sbatp744
Rp745
(dp746
g13
VNP
p747
sbag0
(g1
g2
(lp748
g0
(g1
g2
(lp749
Vknow
p750
atp751
Rp752
(dp753
g13
VVBP
p754
sbag0
(g1
g2
(lp755
g0
(g1
g2
(lp756
g0
(g1
g2
(lp757
Vthis
p758
atp759
Rp760
(dp761
g13
VDT
p762
sbag0
(g1
g2
(lp763
Vguy
p764
atp765
Rp766
(dp767
g13
VNN
p768
sbatp769
Rp770
(dp771
g13
VNP
p772
sbag0
(g1
g2
(lp773
g0
(g1
g2
(lp774
g0
(g1
g2
(lp775
Vthat
p776
atp777
Rp778
(dp779
g13
VWDT
p780
sbatp781
Rp782
(dp783
g13
VWHNP
p784
sbag0
(g1
g2
(lp785
g0
(g1
g2
(lp786
g0
(g1
g2
(lp787
V's
p788
atp789
Rp790
(dp791
g13
VVBZ
p792
sbag0
(g1
g2
(lp793
g0
(g1
g2
(lp794
Vthe
p795
atp796
Rp797
(dp798
g13
VDT
p799
sbatp800
Rp801
(dp802
g13
VNP
p803
sbatp804
Rp805
(dp806
g13
VVP
p807
sbatp808
Rp809
(dp810
g13
VS
p811
sbatp812
Rp813
(dp814
g13
VSBAR
p815
sbatp816
Rp817
(dp818
g13
VNP
p819
sbatp820
Rp821
(dp822
g13
VVP
p823
sbag0
(g1
g2
(lp824
V.
p825
atp826
Rp827
(dp828
g13
V.
p829
sbatp830
Rp831
(dp832
g13
VS
p833
sbatp834
Rp835
(dp836
g13
S'id: 5'
p837
sbag0
(g1
g2
(lp838
g0
(g1
g2
(lp839
g0
(g1
g2
(lp840
g0
(g1
g2
(lp841
g0
(g1
g2
(lp842
VI
p843
atp844
Rp845
(dp846
g13
VPRP
p847
sbatp848
Rp849
(dp850
g13
VNP
p851
sbag0
(g1
g2
(lp852
g0
(g1
g2
(lp853
Vknew
p854
atp855
Rp856
(dp857
g13
VVBD
p858
sbag0
(g1
g2
(lp859
g0
(g1
g2
(lp860
g0
(g1
g2
(lp861
Vthis
p862
atp863
Rp864
(dp865
g13
VDT
p866
sbag0
(g1
g2
(lp867
Vguy
p868
atp869
Rp870
(dp871
g13
VNN
p872
sbatp873
Rp874
(dp875
g13
VNP
p876
sbag0
(g1
g2
(lp877
g0
(g1
g2
(lp878
g0
(g1
g2
(lp879
Vthat
p880
atp881
Rp882
(dp883
g13
VWDT
p884
sbatp885
Rp886
(dp887
g13
VWHNP
p888
sbag0
(g1
g2
(lp889
g0
(g1
g2
(lp890
g0
(g1
g2
(lp891
V's
p892
atp893
Rp894
(dp895
g13
VVBZ
p896
sbag0
(g1
g2
(lp897
g0
(g1
g2
(lp898
Vca
p899
atp900
Rp901
(dp902
g13
VMD
p903
sbatp904
Rp905
(dp906
g13
VVP
p907
sbatp908
Rp909
(dp910
g13
VVP
p911
sbatp912
Rp913
(dp914
g13
VS
p915
sbatp916
Rp917
(dp918
g13
VSBAR
p919
sbatp920
Rp921
(dp922
g13
VNP
p923
sbatp924
Rp925
(dp926
g13
VVP
p927
sbatp928
Rp929
(dp930
g13
VS
p931
sbag0
(g1
g2
(lp932
V,
p933
atp934
Rp935
(dp936
g13
V,
p937
sbag0
(g1
g2
(lp938
g0
(g1
g2
(lp939
Vno
p940
atp941
Rp942
(dp943
g13
VDT
p944
sbag0
(g1
g2
(lp945
Vthat
p946
atp947
Rp948
(dp949
g13
VDT
p950
sbatp951
Rp952
(dp953
g13
VNP
p954
sbag0
(g1
g2
(lp955
g0
(g1
g2
(lp956
V's
p957
atp958
Rp959
(dp960
g13
VVBZ
p961
sbag0
(g1
g2
(lp962
g0
(g1
g2
(lp963
g0
(g1
g2
(lp964
Va
p965
atp966
Rp967
(dp968
g13
VDT
p969
sbag0
(g1
g2
(lp970
Vcow
p971
atp972
Rp973
(dp974
g13
VNN
p975
sbatp976
Rp977
(dp978
g13
VNP
p979
sbag0
(g1
g2
(lp980
V,
p981
atp982
Rp983
(dp984
g13
V,
p985
sbag0
(g1
g2
(lp986
g0
(g1
g2
(lp987
Vno
p988
atp989
Rp990
(dp991
g13
VDT
p992
sbatp993
Rp994
(dp995
g13
VNP
p996
sbatp997
Rp998
(dp999
g13
VNP
p1000
sbatp1001
Rp1002
(dp1003
g13
VVP
p1004
sbag0
(g1
g2
(lp1005
V.
p1006
atp1007
Rp1008
(dp1009
g13
V.
p1010
sbatp1011
Rp1012
(dp1013
g13
VS
p1014
sbatp1015
Rp1016
(dp1017
g13
S'id: 6'
p1018
sbag0
(g1
g2
(lp1019
g0
(g1
g2
(lp1020
g0
(g1
g2
(lp1021
g0
(g1
g2
(lp1022
VI
p1023
atp1024
Rp1025
(dp1026
g13
VPRP
p1027
sbatp1028
Rp1029
(dp1030
g13
VNP
p1031
sbag0
(g1
g2
(lp1032
g0
(g1
g2
(lp1033
Vknow
p1034
atp1035
Rp1036
(dp1037
g13
VVBP
p1038
sbag0
(g1
g2
(lp1039
g0
(g1
g2
(lp1040
g0
(g1
g2
(lp1041
Vthis
p1042
atp1043
Rp1044
(dp1045
g13
VDT
p1046
sbatp1047
Rp1048
(dp1049
g13
VNP
p1050
sbag0
(g1
g2
(lp1051
g0
(g1
g2
(lp1052
Vin
p1053
atp1054
Rp1055
(dp1056
g13
VIN
p1057
sbag0
(g1
g2
(lp1058
g0
(g1
g2
(lp1059
Vthere
p1060
atp1061
Rp1062
(dp1063
g13
VRB
p1064
sbatp1065
Rp1066
(dp1067
g13
VNP
p1068
sbatp1069
Rp1070
(dp1071
g13
VPP
p1072
sbatp1073
Rp1074
(dp1075
g13
VNP
p1076
sbatp1077
Rp1078
(dp1079
g13
VVP
p1080
sbag0
(g1
g2
(lp1081
V.
p1082
atp1083
Rp1084
(dp1085
g13
V.
p1086
sbatp1087
Rp1088
(dp1089
g13
VS
p1090
sbatp1091
Rp1092
(dp1093
g13
S'id: 7'
p1094
sbag0
(g1
g2
(lp1095
g0
(g1
g2
(lp1096
g0
(g1
g2
(lp1097
g0
(g1
g2
(lp1098
VThis
p1099
atp1100
Rp1101
(dp1102
g13
VDT
p1103
sbag0
(g1
g2
(lp1104
Vguy
p1105
atp1106
Rp1107
(dp1108
g13
VNN
p1109
sbag0
(g1
g2
(lp1110
g0
(g1
g2
(lp1111
g0
(g1
g2
(lp1112
g0
(g1
g2
(lp1113
g0
(g1
g2
(lp1114
V's
p1115
atp1116
Rp1117
(dp1118
g13
VPOS
p1119
sbatp1120
Rp1121
(dp1122
g13
VNP
p1123
sbatp1124
Rp1125
(dp1126
g13
VS
p1127
sbag0
(g1
g2
(lp1128
V,
p1129
atp1130
Rp1131
(dp1132
g13
V,
p1133
sbag0
(g1
g2
(lp1134
g0
(g1
g2
(lp1135
Vforgot
p1136
atp1137
Rp1138
(dp1139
g13
VVBD
p1140
sbag0
(g1
g2
(lp1141
g0
(g1
g2
(lp1142
g0
(g1
g2
(lp1143
Vwhat
p1144
atp1145
Rp1146
(dp1147
g13
VWP
p1148
sbatp1149
Rp1150
(dp1151
g13
VWHNP
p1152
sbag0
(g1
g2
(lp1153
g0
(g1
g2
(lp1154
g0
(g1
g2
(lp1155
Vhe
p1156
atp1157
Rp1158
(dp1159
g13
VPRP
p1160
sbatp1161
Rp1162
(dp1163
g13
VNP
p1164
sbag0
(g1
g2
(lp1165
g0
(g1
g2
(lp1166
g0
(g1
g2
(lp1167
Vsays
p1168
atp1169
Rp1170
(dp1171
g13
VVBZ
p1172
sbatp1173
Rp1174
(dp1175
g13
VVP
p1176
sbag0
(g1
g2
(lp1177
V,
p1178
atp1179
Rp1180
(dp1181
g13
V,
p1182
sbag0
(g1
g2
(lp1183
g0
(g1
g2
(lp1184
g0
(g1
g2
(lp1185
Vcar
p1186
atp1187
Rp1188
(dp1189
g13
VNN
p1190
sbatp1191
Rp1192
(dp1193
g13
VNP
p1194
sbag0
(g1
g2
(lp1195
V,
p1196
atp1197
Rp1198
(dp1199
g13
V,
p1200
sbag0
(g1
g2
(lp1201
g0
(g1
g2
(lp1202
g0
(g1
g2
(lp1203
Vcar
p1204
atp1205
Rp1206
(dp1207
g13
VNN
p1208
sbag0
(g1
g2
(lp1209
Vno
p1210
atp1211
Rp1212
(dp1213
g13
VRB
p1214
sbatp1215
Rp1216
(dp1217
g13
VNP
p1218
sbag0
(g1
g2
(lp1219
V,
p1220
atp1221
Rp1222
(dp1223
g13
V,
p1224
sbag0
(g1
g2
(lp1225
g0
(g1
g2
(lp1226
Vcow
p1227
atp1228
Rp1229
(dp1230
g13
VNN
p1231
sbatp1232
Rp1233
(dp1234
g13
VNP
p1235
sbatp1236
Rp1237
(dp1238
g13
VNP
p1239
sbatp1240
Rp1241
(dp1242
g13
VNP
p1243
sbatp1244
Rp1245
(dp1246
g13
VVP
p1247
sbatp1248
Rp1249
(dp1250
g13
VS
p1251
sbatp1252
Rp1253
(dp1254
g13
VSBAR
p1255
sbatp1256
Rp1257
(dp1258
g13
VVP
p1259
sbatp1260
Rp1261
(dp1262
g13
VS
p1263
sbatp1264
Rp1265
(dp1266
g13
VSBAR
p1267
sbatp1268
Rp1269
(dp1270
g13
VNP
p1271
sbatp1272
Rp1273
(dp1274
g13
VFRAG
p1275
sbatp1276
Rp1277
(dp1278
g13
S'id: 8'
p1279
sbatp1280
Rp1281
(dp1282
g13
S'sentences'
p1283
sb.