ccopy_reg
_reconstructor
p0
(cnltk.tree
Tree
p1
c__builtin__
list
p2
(lp3
g0
(g1
g2
(lp4
g0
(g1
g2
(lp5
g0
(g1
g2
(lp6
(lp7
S'word: It, index: 1'
p8
aatp9
Rp10
(dp11
S'_label'
p12
Vnsubj
p13
sbag0
(g1
g2
(lp14
(lp15
S"word: 's, index: 2"
p16
aatp17
Rp18
(dp19
g12
Vcop
p20
sbag0
(g1
g2
(lp21
(lp22
S'word: a, index: 3'
p23
aatp24
Rp25
(dp26
g12
Vdet
p27
sbag0
(g1
g2
(lp28
(lp29
S'word: puna, index: 4'
p30
aatp31
Rp32
(dp33
g12
Vnn
p34
sbag0
(g1
g2
(lp35
g0
(g1
g2
(lp36
g0
(g1
g2
(lp37
(lp38
S'word: the, index: 7'
p39
aatp40
Rp41
(dp42
g12
Vdet
p43
sbatp44
Rp45
(dp46
g12
S'word: circus, index: 8'
p47
sbatp48
Rp49
(dp50
g12
Vprep
p51
sbatp52
Rp53
(dp54
g12
S'word: day, index: 5'
p55
sbatp56
Rp57
(dp58
g12
S'id: 0'
p59
sbag0
(g1
g2
(lp60
g0
(g1
g2
(lp61
g0
(g1
g2
(lp62
(lp63
S'word: has, index: 3'
p64
aatp65
Rp66
(dp67
g12
Vaux
p68
sbag0
(g1
g2
(lp69
g0
(g1
g2
(lp70
g0
(g1
g2
(lp71
(lp72
S'word: is, index: 51'
p73
aatp74
Rp75
(dp76
g12
Vaux
p77
sbag0
(g1
g2
(lp78
g0
(g1
g2
(lp79
g0
(g1
g2
(lp80
(lp81
S'word: na, index: 53'
p82
aatp83
Rp84
(dp85
g12
Vaux
p86
sbag0
(g1
g2
(lp87
g0
(g1
g2
(lp88
g0
(g1
g2
(lp89
g0
(g1
g2
(lp90
g0
(g1
g2
(lp91
(lp92
S'word: his, index: 57'
p93
aatp94
Rp95
(dp96
g12
Vposs
p97
sbag0
(g1
g2
(lp98
(lp99
S'word: some, index: 59'
p100
aatp101
Rp102
(dp103
g12
Vdep
p104
sbatp105
Rp106
(dp107
g12
S'word: sister, index: 58'
p108
sbatp109
Rp110
(dp111
g12
Vappos
p112
sbatp113
Rp114
(dp115
g12
S'word: his, index: 55'
p116
sbatp117
Rp118
(dp119
g12
Viobj
p120
sbag0
(g1
g2
(lp121
g0
(g1
g2
(lp122
g0
(g1
g2
(lp123
(lp124
S'word: some, index: 61'
p125
aatp126
Rp127
(dp128
g12
Vdet
p129
sbatp130
Rp131
(dp132
g12
S'word: candy, index: 62'
p133
sbatp134
Rp135
(dp136
g12
Vdobj
p137
sbatp138
Rp139
(dp140
g12
S'word: give, index: 54'
p141
sbatp142
Rp143
(dp144
g12
Vxcomp
p145
sbag0
(g1
g2
(lp146
g0
(g1
g2
(lp147
g0
(g1
g2
(lp148
(lp149
S'word: the, index: 48'
p150
aatp151
Rp152
(dp153
g12
Vdet
p154
sbag0
(g1
g2
(lp155
(lp156
S'word: little, index: 49'
p157
aatp158
Rp159
(dp160
g12
Vamod
p161
sbatp162
Rp163
(dp164
g12
S'word: squirt, index: 50'
p165
sbatp166
Rp167
(dp168
g12
Vnsubj
p169
sbatp170
Rp171
(dp172
g12
S'word: gon, index: 52'
p173
sbatp174
Rp175
(dp176
g12
Vparataxis
p177
sbag0
(g1
g2
(lp178
g0
(g1
g2
(lp179
g0
(g1
g2
(lp180
(lp181
S'word: the, index: 5'
p182
aatp183
Rp184
(dp185
g12
Vdet
p186
sbag0
(g1
g2
(lp187
(lp188
S'word: little, index: 6'
p189
aatp190
Rp191
(dp192
g12
Vamod
p193
sbag0
(g1
g2
(lp194
g0
(g1
g2
(lp195
g0
(g1
g2
(lp196
(lp197
S'word: a, index: 9'
p198
aatp199
Rp200
(dp201
g12
Vdet
p202
sbatp203
Rp204
(dp205
g12
S'word: ride, index: 10'
p206
sbatp207
Rp208
(dp209
g12
Vprep
p210
sbatp211
Rp212
(dp213
g12
S'word: sister, index: 7'
p214
sbatp215
Rp216
(dp217
g12
Vdobj
p218
sbag0
(g1
g2
(lp219
g0
(g1
g2
(lp220
g0
(g1
g2
(lp221
(lp222
S'word: he, index: 25'
p223
aatp224
Rp225
(dp226
g12
Vnsubj
p227
sbag0
(g1
g2
(lp228
(lp229
S"word: 's, index: 26"
p230
aatp231
Rp232
(dp233
g12
Vaux
p234
sbatp235
Rp236
(dp237
g12
S'word: catching, index: 27'
p238
sbatp239
Rp240
(dp241
g12
Vconj
p242
sbag0
(g1
g2
(lp243
(lp244
S'word: so, index: 47'
p245
aatp246
Rp247
(dp248
g12
Vdep
p249
sbag0
(g1
g2
(lp250
g0
(g1
g2
(lp251
g0
(g1
g2
(lp252
g0
(g1
g2
(lp253
g0
(g1
g2
(lp254
(lp255
S'word: the, index: 20'
p256
aatp257
Rp258
(dp259
g12
Vdet
p260
sbag0
(g1
g2
(lp261
(lp262
S'word: little, index: 21'
p263
aatp264
Rp265
(dp266
g12
Vamod
p267
sbatp268
Rp269
(dp270
g12
S'word: boy, index: 22'
p271
sbatp272
Rp273
(dp274
g12
Vprep
p275
sbag0
(g1
g2
(lp276
g236
atp277
Rp278
(dp279
g12
Vconj
p280
sbag0
(g1
g2
(lp281
g0
(g1
g2
(lp282
g0
(g1
g2
(lp283
(lp284
S'word: she, index: 40'
p285
aatp286
Rp287
(dp288
g12
Vnsubj
p289
sbag0
(g1
g2
(lp290
(lp291
S'word: ca, index: 41'
p292
aatp293
Rp294
(dp295
g12
Vaux
p296
sbag0
(g1
g2
(lp297
(lp298
S"word: n't, index: 42"
p299
aatp300
Rp301
(dp302
g12
Vneg
p303
sbag0
(g1
g2
(lp304
g0
(g1
g2
(lp305
g0
(g1
g2
(lp306
(lp307
S'word: any, index: 44'
p308
aatp309
Rp310
(dp311
g12
Vdet
p312
sbatp313
Rp314
(dp315
g12
S'word: candy, index: 45'
p316
sbatp317
Rp318
(dp319
g12
Vdobj
p320
sbatp321
Rp322
(dp323
g12
S'word: catch, index: 43'
p324
sbatp325
Rp326
(dp327
g12
Vconj
p328
sbag0
(g1
g2
(lp329
g0
(g1
g2
(lp330
g0
(g1
g2
(lp331
(lp332
S'word: the, index: 13'
p333
aatp334
Rp335
(dp336
g12
Vdet
p337
sbatp338
Rp339
(dp340
g12
S'word: clown, index: 14'
p341
sbatp342
Rp343
(dp344
g12
Vnsubj
p345
sbag0
(g1
g2
(lp346
(lp347
S'word: is, index: 15'
p348
aatp349
Rp350
(dp351
g12
Vaux
p352
sbag0
(g1
g2
(lp353
g0
(g1
g2
(lp354
g0
(g1
g2
(lp355
g0
(g1
g2
(lp356
g0
(g1
g2
(lp357
g0
(g1
g2
(lp358
g0
(g1
g2
(lp359
(lp360
S'word: the, index: 34'
p361
aatp362
Rp363
(dp364
g12
Vdet
p365
sbatp366
Rp367
(dp368
g12
S'word: mama, index: 35'
p369
sbatp370
Rp371
(dp372
g12
Vposs
p373
sbatp374
Rp375
(dp376
g12
S'word: hand, index: 37'
p377
sbatp378
Rp379
(dp380
g12
Vprep
p381
sbag0
(g1
g2
(lp382
g322
atp383
Rp384
(dp385
g12
Vconj
p386
sbag0
(g1
g2
(lp387
g0
(g1
g2
(lp388
g0
(g1
g2
(lp389
(lp390
S'word: the, index: 29'
p391
aatp392
Rp393
(dp394
g12
Vdet
p395
sbag0
(g1
g2
(lp396
(lp397
S'word: little, index: 30'
p398
aatp399
Rp400
(dp401
g12
Vamod
p402
sbatp403
Rp404
(dp405
g12
S'word: sister, index: 31'
p406
sbatp407
Rp408
(dp409
g12
Vnsubj
p410
sbatp411
Rp412
(dp413
g12
S'word: is, index: 32'
p414
sbatp415
Rp416
(dp417
g12
Vconj
p418
sbag0
(g1
g2
(lp419
(lp420
S'word: out, index: 17'
p421
aatp422
Rp423
(dp424
g12
Vprt
p425
sbag0
(g1
g2
(lp426
(lp427
S'word: candy, index: 18'
p428
aatp429
Rp430
(dp431
g12
Vdobj
p432
sbatp433
Rp434
(dp435
g12
S'word: giving, index: 16'
p436
sbatp437
Rp438
(dp439
g12
Vconj
p440
sbag0
(g1
g2
(lp441
g412
atp442
Rp443
(dp444
g12
Vconj
p445
sbag0
(g1
g2
(lp446
g0
(g1
g2
(lp447
g0
(g1
g2
(lp448
(lp449
S'word: The, index: 1'
p450
aatp451
Rp452
(dp453
g12
Vdet
p454
sbatp455
Rp456
(dp457
g12
S'word: brother, index: 2'
p458
sbatp459
Rp460
(dp461
g12
Vnsubj
p462
sbatp463
Rp464
(dp465
g12
S'word: taken, index: 4'
p466
sbatp467
Rp468
(dp469
g12
S'id: 1'
p470
sbag0
(g1
g2
(lp471
g0
(g1
g2
(lp472
g0
(g1
g2
(lp473
g0
(g1
g2
(lp474
g0
(g1
g2
(lp475
g0
(g1
g2
(lp476
g0
(g1
g2
(lp477
(lp478
S'word: the, index: 13'
p479
aatp480
Rp481
(dp482
g12
Vdet
p483
sbatp484
Rp485
(dp486
g12
S'word: brother, index: 14'
p487
sbatp488
Rp489
(dp490
g12
Vpobj
p491
sbatp492
Rp493
(dp494
g12
S'word: with, index: 12'
p495
sbatp496
Rp497
(dp498
g12
Vdep
p499
sbag0
(g1
g2
(lp500
(lp501
S'word: she, index: 16'
p502
aatp503
Rp504
(dp505
g12
Vnsubj
p506
sbag0
(g1
g2
(lp507
(lp508
S'word: And, index: 1'
p509
aatp510
Rp511
(dp512
g12
Vcc
p513
sbag0
(g1
g2
(lp514
g0
(g1
g2
(lp515
g0
(g1
g2
(lp516
(lp517
S'word: some, index: 18'
p518
aatp519
Rp520
(dp521
g12
Vdet
p522
sbatp523
Rp524
(dp525
g12
S'word: candy, index: 19'
p526
sbatp527
Rp528
(dp529
g12
Vdobj
p530
sbag0
(g1
g2
(lp531
g0
(g1
g2
(lp532
g0
(g1
g2
(lp533
(lp534
S'word: the, index: 3'
p535
aatp536
Rp537
(dp538
g12
Vdet
p539
sbag0
(g1
g2
(lp540
g0
(g1
g2
(lp541
g0
(g1
g2
(lp542
g0
(g1
g2
(lp543
g0
(g1
g2
(lp544
g0
(g1
g2
(lp545
g0
(g1
g2
(lp546
(lp547
S'word: the, index: 8'
p548
aatp549
Rp550
(dp551
g12
Vdet
p552
sbag0
(g1
g2
(lp553
(lp554
S'word: little, index: 9'
p555
aatp556
Rp557
(dp558
g12
Vamod
p559
sbatp560
Rp561
(dp562
g12
S'word: boy, index: 10'
p563
sbatp564
Rp565
(dp566
g12
Vprep
p567
sbatp568
Rp569
(dp570
g12
S'word: here, index: 6'
p571
sbatp572
Rp573
(dp574
g12
Vpobj
p575
sbatp576
Rp577
(dp578
g12
S'word: over, index: 5'
p579
sbatp580
Rp581
(dp582
g12
Vprep
p583
sbatp584
Rp585
(dp586
g12
S'word: one, index: 4'
p587
sbatp588
Rp589
(dp590
g12
Vtmod
p591
sbag0
(g1
g2
(lp592
(lp593
S'word: too, index: 20'
p594
aatp595
Rp596
(dp597
g12
Vadvmod
p598
sbatp599
Rp600
(dp601
g12
S'word: wants, index: 17'
p602
sbatp603
Rp604
(dp605
g12
S'id: 2'
p606
sbag0
(g1
g2
(lp607
g0
(g1
g2
(lp608
g0
(g1
g2
(lp609
g0
(g1
g2
(lp610
g0
(g1
g2
(lp611
(lp612
S'word: I, index: 9'
p613
aatp614
Rp615
(dp616
g12
Vnsubj
p617
sbag0
(g1
g2
(lp618
(lp619
S'word: do, index: 10'
p620
aatp621
Rp622
(dp623
g12
Vaux
p624
sbag0
(g1
g2
(lp625
(lp626
S"word: n't, index: 11"
p627
aatp628
Rp629
(dp630
g12
Vneg
p631
sbag0
(g1
g2
(lp632
g0
(g1
g2
(lp633
g0
(g1
g2
(lp634
(lp635
S'word: what, index: 13'
p636
aatp637
Rp638
(dp639
g12
Vdobj
p640
sbag0
(g1
g2
(lp641
(lp642
S'word: he, index: 14'
p643
aatp644
Rp645
(dp646
g12
Vnsubj
p647
sbag0
(g1
g2
(lp648
(lp649
S'word: is, index: 15'
p650
aatp651
Rp652
(dp653
g12
Vcop
p654
sbag0
(g1
g2
(lp655
(lp656
S'word: something, index: 19'
p657
aatp658
Rp659
(dp660
g12
Vconj
p661
sbatp662
Rp663
(dp664
g12
S'word: magician, index: 17'
p665
sbatp666
Rp667
(dp668
g12
Vccomp
p669
sbag0
(g1
g2
(lp670
(lp671
S'word: something, index: 19'
p672
aatp673
Rp674
(dp675
g12
Vccomp
p676
sbatp677
Rp678
(dp679
g12
S'word: know, index: 12'
p680
sbatp681
Rp682
(dp683
g12
Vparataxis
p684
sbag0
(g1
g2
(lp685
(lp686
S'word: And, index: 1'
p687
aatp688
Rp689
(dp690
g12
Vcc
p691
sbag0
(g1
g2
(lp692
g0
(g1
g2
(lp693
g0
(g1
g2
(lp694
(lp695
S'word: the, index: 2'
p696
aatp697
Rp698
(dp699
g12
Vdet
p700
sbag0
(g1
g2
(lp701
(lp702
S'word: circus, index: 3'
p703
aatp704
Rp705
(dp706
g12
Vnn
p707
sbag0
(g1
g2
(lp708
(lp709
S'word: something, index: 7'
p710
aatp711
Rp712
(dp713
g12
Vconj
p714
sbatp715
Rp716
(dp717
g12
S'word: clown, index: 4'
p718
sbatp719
Rp720
(dp721
g12
Vnsubj
p722
sbag0
(g1
g2
(lp723
(lp724
S'word: he, index: 21'
p725
aatp726
Rp727
(dp728
g12
Vnsubj
p729
sbag0
(g1
g2
(lp730
(lp731
S'word: something, index: 7'
p732
aatp733
Rp734
(dp735
g12
Vnsubj
p736
sbag0
(g1
g2
(lp737
g0
(g1
g2
(lp738
g0
(g1
g2
(lp739
g0
(g1
g2
(lp740
g0
(g1
g2
(lp741
(lp742
S'word: that, index: 26'
p743
aatp744
Rp745
(dp746
g12
Vdet
p747
sbatp748
Rp749
(dp750
g12
S'word: lion, index: 27'
p751
sbatp752
Rp753
(dp754
g12
Vprep
p755
sbatp756
Rp757
(dp758
g12
S'word: talking, index: 24'
p759
sbatp760
Rp761
(dp762
g12
Vprepc
p763
sbatp764
Rp765
(dp766
g12
S"word: 's, index: 22"
p767
sbatp768
Rp769
(dp770
g12
S'id: 3'
p771
sbag0
(g1
g2
(lp772
g0
(g1
g2
(lp773
g0
(g1
g2
(lp774
g0
(g1
g2
(lp775
g0
(g1
g2
(lp776
(lp777
S'word: that, index: 10'
p778
aatp779
Rp780
(dp781
g12
Vdet
p782
sbag0
(g1
g2
(lp783
(lp784
S'word: lion, index: 11'
p785
aatp786
Rp787
(dp788
g12
Vnn
p789
sbatp790
Rp791
(dp792
g12
S'word: face, index: 12'
p793
sbatp794
Rp795
(dp796
g12
Vprep
p797
sbag0
(g1
g2
(lp798
g0
(g1
g2
(lp799
g0
(g1
g2
(lp800
(lp801
S'word: that, index: 14'
p802
aatp803
Rp804
(dp805
g12
Vmark
p806
sbag0
(g1
g2
(lp807
(lp808
S'word: lion, index: 15'
p809
aatp810
Rp811
(dp812
g12
Vnsubj
p813
sbatp814
Rp815
(dp816
g12
S'word: go, index: 16'
p817
sbatp818
Rp819
(dp820
g12
Vccomp
p821
sbag0
(g1
g2
(lp822
(lp823
S'word: If, index: 1'
p824
aatp825
Rp826
(dp827
g12
Vmark
p828
sbag0
(g1
g2
(lp829
(lp830
S'word: you, index: 2'
p831
aatp832
Rp833
(dp834
g12
Vnsubj
p835
sbag0
(g1
g2
(lp836
g0
(g1
g2
(lp837
g0
(g1
g2
(lp838
g0
(g1
g2
(lp839
g0
(g1
g2
(lp840
(lp841
S'word: na, index: 19'
p842
aatp843
Rp844
(dp845
g12
Vaux
p846
sbag0
(g1
g2
(lp847
(lp848
S'word: him, index: 21'
p849
aatp850
Rp851
(dp852
g12
Vdobj
p853
sbatp854
Rp855
(dp856
g12
S'word: attack, index: 20'
p857
sbatp858
Rp859
(dp860
g12
Vxcomp
p861
sbatp862
Rp863
(dp864
g12
S'word: gon, index: 18'
p865
sbatp866
Rp867
(dp868
g12
Vxcomp
p869
sbag0
(g1
g2
(lp870
(lp871
S'word: do, index: 3'
p872
aatp873
Rp874
(dp875
g12
Vaux
p876
sbag0
(g1
g2
(lp877
(lp878
S"word: n't, index: 4"
p879
aatp880
Rp881
(dp882
g12
Vneg
p883
sbag0
(g1
g2
(lp884
g0
(g1
g2
(lp885
g0
(g1
g2
(lp886
(lp887
S'word: his, index: 6'
p888
aatp889
Rp890
(dp891
g12
Vposs
p892
sbatp893
Rp894
(dp895
g12
S'word: hand, index: 7'
p896
sbatp897
Rp898
(dp899
g12
Vdobj
p900
sbatp901
Rp902
(dp903
g12
S'word: get, index: 5'
p904
sbatp905
Rp906
(dp907
g12
S'id: 4'
p908
sbag0
(g1
g2
(lp909
g0
(g1
g2
(lp910
g0
(g1
g2
(lp911
g0
(g1
g2
(lp912
g0
(g1
g2
(lp913
(lp914
S'word: a, index: 13'
p915
aatp916
Rp917
(dp918
g12
Vdet
p919
sbag0
(g1
g2
(lp920
(lp921
S'word: good, index: 14'
p922
aatp923
Rp924
(dp925
g12
Vamod
p926
sbatp927
Rp928
(dp929
g12
S'word: job, index: 15'
p930
sbatp931
Rp932
(dp933
g12
Vdep
p934
sbag0
(g1
g2
(lp935
g0
(g1
g2
(lp936
g0
(g1
g2
(lp937
(lp938
S'word: And, index: 1'
p939
aatp940
Rp941
(dp942
g12
Vcc
p943
sbag0
(g1
g2
(lp944
g0
(g1
g2
(lp945
g0
(g1
g2
(lp946
g0
(g1
g2
(lp947
g0
(g1
g2
(lp948
(lp949
S'word: just, index: 2'
p950
aatp951
Rp952
(dp953
g12
Vadvmod
p954
sbag0
(g1
g2
(lp955
(lp956
S'word: a, index: 3'
p957
aatp958
Rp959
(dp960
g12
Vdet
p961
sbatp962
Rp963
(dp964
g12
S'word: joker, index: 4'
p965
sbatp966
Rp967
(dp968
g12
Vnpadvmod
p969
sbag0
(g1
g2
(lp970
(lp971
S'word: there, index: 6'
p972
aatp973
Rp974
(dp975
g12
Vadvmod
p976
sbatp977
Rp978
(dp979
g12
S'word: up, index: 5'
p980
sbatp981
Rp982
(dp983
g12
Vdep
p984
sbag0
(g1
g2
(lp985
(lp986
S'word: tight, index: 7'
p987
aatp988
Rp989
(dp990
g12
Vamod
p991
sbatp992
Rp993
(dp994
g12
S'word: rope, index: 8'
p995
sbatp996
Rp997
(dp998
g12
Vdep
p999
sbag0
(g1
g2
(lp1000
(lp1001
S'word: he, index: 10'
p1002
aatp1003
Rp1004
(dp1005
g12
Vnsubj
p1006
sbag0
(g1
g2
(lp1007
(lp1008
S"word: 's, index: 11"
p1009
aatp1010
Rp1011
(dp1012
g12
Vcop
p1013
sbatp1014
Rp1015
(dp1016
g12
S'word: doin, index: 12'
p1017
sbatp1018
Rp1019
(dp1020
g12
S'id: 5'
p1021
sbag0
(g1
g2
(lp1022
g0
(g1
g2
(lp1023
g0
(g1
g2
(lp1024
(lp1025
S'word: are, index: 18'
p1026
aatp1027
Rp1028
(dp1029
g12
Vaux
p1030
sbag0
(g1
g2
(lp1031
g0
(g1
g2
(lp1032
g0
(g1
g2
(lp1033
(lp1034
S'word: the, index: 21'
p1035
aatp1036
Rp1037
(dp1038
g12
Vdet
p1039
sbatp1040
Rp1041
(dp1042
g12
S'word: bench, index: 22'
p1043
sbatp1044
Rp1045
(dp1046
g12
Vprep
p1047
sbag0
(g1
g2
(lp1048
(lp1049
S'word: him, index: 24'
p1050
aatp1051
Rp1052
(dp1053
g12
Vprep
p1054
sbag0
(g1
g2
(lp1055
g0
(g1
g2
(lp1056
g0
(g1
g2
(lp1057
(lp1058
S'word: him, index: 27'
p1059
aatp1060
Rp1061
(dp1062
g12
Vdobj
p1063
sbatp1064
Rp1065
(dp1066
g12
S'word: watching, index: 26'
p1067
sbatp1068
Rp1069
(dp1070
g12
Vvmod
p1071
sbag0
(g1
g2
(lp1072
g0
(g1
g2
(lp1073
g0
(g1
g2
(lp1074
(lp1075
S"word: 's, index: 2"
p1076
aatp1077
Rp1078
(dp1079
g12
Vpossessive
p1080
sbag0
(g1
g2
(lp1081
(lp1082
S'word: sitting, index: 3'
p1083
aatp1084
Rp1085
(dp1086
g12
Vamod
p1087
sbag0
(g1
g2
(lp1088
(lp1089
S'word: there, index: 4'
p1090
aatp1091
Rp1092
(dp1093
g12
Vadvmod
p1094
sbag0
(g1
g2
(lp1095
(lp1096
S'word: one, index: 6'
p1097
aatp1098
Rp1099
(dp1100
g12
Vamod
p1101
sbag0
(g1
g2
(lp1102
g0
(g1
g2
(lp1103
g0
(g1
g2
(lp1104
(lp1105
S'word: there, index: 10'
p1106
aatp1107
Rp1108
(dp1109
g12
Vconj
p1110
sbag0
(g1
g2
(lp1111
(lp1112
S'word: four, index: 12'
p1113
aatp1114
Rp1115
(dp1116
g12
Vconj
p1117
sbag0
(g1
g2
(lp1118
(lp1119
S'word: four, index: 14'
p1120
aatp1121
Rp1122
(dp1123
g12
Vconj
p1124
sbag0
(g1
g2
(lp1125
g0
(g1
g2
(lp1126
g0
(g1
g2
(lp1127
(lp1128
S'word: two, index: 16'
p1129
aatp1130
Rp1131
(dp1132
g12
Vnum
p1133
sbatp1134
Rp1135
(dp1136
g12
S'word: peoples, index: 17'
p1137
sbatp1138
Rp1139
(dp1140
g12
Vconj
p1141
sbatp1142
Rp1143
(dp1144
g12
S'word: two, index: 8'
p1145
sbatp1146
Rp1147
(dp1148
g12
Vappos
p1149
sbag0
(g1
g2
(lp1150
(lp1151
S'word: there, index: 10'
p1152
aatp1153
Rp1154
(dp1155
g12
Vappos
p1156
sbag0
(g1
g2
(lp1157
(lp1158
S'word: four, index: 12'
p1159
aatp1160
Rp1161
(dp1162
g12
Vappos
p1163
sbag0
(g1
g2
(lp1164
(lp1165
S'word: four, index: 14'
p1166
aatp1167
Rp1168
(dp1169
g12
Vappos
p1170
sbag0
(g1
g2
(lp1171
g1135
atp1172
Rp1173
(dp1174
g12
Vappos
p1175
sbatp1176
Rp1177
(dp1178
g12
S'word: Everybody, index: 1'
p1179
sbatp1180
Rp1181
(dp1182
g12
Vnsubj
p1183
sbatp1184
Rp1185
(dp1186
g12
S'word: sitting, index: 19'
p1187
sbatp1188
Rp1189
(dp1190
g12
S'id: 6'
p1191
sbag0
(g1
g2
(lp1192
g0
(g1
g2
(lp1193
g0
(g1
g2
(lp1194
g0
(g1
g2
(lp1195
g0
(g1
g2
(lp1196
(lp1197
S'word: the, index: 5'
p1198
aatp1199
Rp1200
(dp1201
g12
Vdet
p1202
sbag0
(g1
g2
(lp1203
(lp1204
S'word: something, index: 9'
p1205
aatp1206
Rp1207
(dp1208
g12
Vconj
p1209
sbag0
(g1
g2
(lp1210
g0
(g1
g2
(lp1211
g0
(g1
g2
(lp1212
(lp1213
S'word: is, index: 10'
p1214
aatp1215
Rp1216
(dp1217
g12
Vaux
p1218
sbag0
(g1
g2
(lp1219
g0
(g1
g2
(lp1220
g0
(g1
g2
(lp1221
(lp1222
S'word: pony, index: 14'
p1223
aatp1224
Rp1225
(dp1226
g12
Vappos
p1227
sbag0
(g1
g2
(lp1228
(lp1229
S'word: there, index: 17'
p1230
aatp1231
Rp1232
(dp1233
g12
Vprep
p1234
sbatp1235
Rp1236
(dp1237
g12
S'word: the, index: 12'
p1238
sbatp1239
Rp1240
(dp1241
g12
Vdobj
p1242
sbatp1243
Rp1244
(dp1245
g12
S'word: riding, index: 11'
p1246
sbatp1247
Rp1248
(dp1249
g12
Vrcmod
p1250
sbatp1251
Rp1252
(dp1253
g12
S'word: mermaid, index: 6'
p1254
sbatp1255
Rp1256
(dp1257
g12
Vdobj
p1258
sbag0
(g1
g2
(lp1259
(lp1260
S'word: something, index: 9'
p1261
aatp1262
Rp1263
(dp1264
g12
Vdobj
p1265
sbag0
(g1
g2
(lp1266
(lp1267
S'word: And, index: 1'
p1268
aatp1269
Rp1270
(dp1271
g12
Vcc
p1272
sbag0
(g1
g2
(lp1273
(lp1274
S'word: what, index: 3'
p1275
aatp1276
Rp1277
(dp1278
g12
Vnsubj
p1279
sbatp1280
Rp1281
(dp1282
g12
S'word: said, index: 4'
p1283
sbatp1284
Rp1285
(dp1286
g12
S'id: 7'
p1287
sbag0
(g1
g2
(lp1288
g0
(g1
g2
(lp1289
g0
(g1
g2
(lp1290
(lp1291
S'word: should, index: 8'
p1292
aatp1293
Rp1294
(dp1295
g12
Vaux
p1296
sbag0
(g1
g2
(lp1297
(lp1298
S'word: be, index: 9'
p1299
aatp1300
Rp1301
(dp1302
g12
Vcop
p1303
sbag0
(g1
g2
(lp1304
(lp1305
S'word: two, index: 10'
p1306
aatp1307
Rp1308
(dp1309
g12
Vnum
p1310
sbag0
(g1
g2
(lp1311
g0
(g1
g2
(lp1312
g0
(g1
g2
(lp1313
(lp1314
S'word: this, index: 13'
p1315
aatp1316
Rp1317
(dp1318
g12
Vnsubj
p1319
sbag0
(g1
g2
(lp1320
g0
(g1
g2
(lp1321
g0
(g1
g2
(lp1322
(lp1323
S'word: to, index: 15'
p1324
aatp1325
Rp1326
(dp1327
g12
Vaux
p1328
sbag0
(g1
g2
(lp1329
(lp1330
S'word: be, index: 16'
p1331
aatp1332
Rp1333
(dp1334
g12
Vcop
p1335
sbag0
(g1
g2
(lp1336
(lp1337
S'word: a, index: 17'
p1338
aatp1339
Rp1340
(dp1341
g12
Vdet
p1342
sbag0
(g1
g2
(lp1343
(lp1344
S'word: warm, index: 18'
p1345
aatp1346
Rp1347
(dp1348
g12
Vamod
p1349
sbag0
(g1
g2
(lp1350
g0
(g1
g2
(lp1351
g0
(g1
g2
(lp1352
g0
(g1
g2
(lp1353
g0
(g1
g2
(lp1354
(lp1355
S'word: short, index: 24'
p1356
aatp1357
Rp1358
(dp1359
g12
Vamod
p1360
sbatp1361
Rp1362
(dp1363
g12
S'word: sleeves, index: 25'
p1364
sbatp1365
Rp1366
(dp1367
g12
Vpobj
p1368
sbag0
(g1
g2
(lp1369
(lp1370
S'word: because, index: 20'
p1371
aatp1372
Rp1373
(dp1374
g12
Vmark
p1375
sbag0
(g1
g2
(lp1376
(lp1377
S'word: everyone, index: 21'
p1378
aatp1379
Rp1380
(dp1381
g12
Vnsubj
p1382
sbag0
(g1
g2
(lp1383
(lp1384
S'word: has, index: 22'
p1385
aatp1386
Rp1387
(dp1388
g12
Vaux
p1389
sbatp1390
Rp1391
(dp1392
g12
S'word: on, index: 23'
p1393
sbatp1394
Rp1395
(dp1396
g12
Vadvcl
p1397
sbatp1398
Rp1399
(dp1400
g12
S'word: day, index: 19'
p1401
sbatp1402
Rp1403
(dp1404
g12
Vxcomp
p1405
sbatp1406
Rp1407
(dp1408
g12
S'word: seems, index: 14'
p1409
sbatp1410
Rp1411
(dp1412
g12
Vconj
p1413
sbag0
(g1
g2
(lp1414
g0
(g1
g2
(lp1415
g0
(g1
g2
(lp1416
(lp1417
S'word: his, index: 3'
p1418
aatp1419
Rp1420
(dp1421
g12
Vposs
p1422
sbatp1423
Rp1424
(dp1425
g12
S'word: area, index: 4'
p1426
sbatp1427
Rp1428
(dp1429
g12
Vprep
p1430
sbag0
(g1
g2
(lp1431
(lp1432
S'word: there, index: 7'
p1433
aatp1434
Rp1435
(dp1436
g12
Vexpl
p1437
sbatp1438
Rp1439
(dp1440
g12
S'word: X., index: 11'
p1441
sbatp1442
Rp1443
(dp1444
g12
S'id: 8'
p1445
sbag0
(g1
g2
(lp1446
g0
(g1
g2
(lp1447
g0
(g1
g2
(lp1448
(lp1449
S"word: 's, index: 11"
p1450
aatp1451
Rp1452
(dp1453
g12
Vaux
p1454
sbag0
(g1
g2
(lp1455
g0
(g1
g2
(lp1456
g0
(g1
g2
(lp1457
(lp1458
S'word: a, index: 13'
p1459
aatp1460
Rp1461
(dp1462
g12
Vdet
p1463
sbag0
(g1
g2
(lp1464
(lp1465
S'word: good, index: 14'
p1466
aatp1467
Rp1468
(dp1469
g12
Vamod
p1470
sbag0
(g1
g2
(lp1471
g0
(g1
g2
(lp1472
g0
(g1
g2
(lp1473
(lp1474
S'word: the, index: 17'
p1475
aatp1476
Rp1477
(dp1478
g12
Vdet
p1479
sbatp1480
Rp1481
(dp1482
g12
S'word: circus, index: 18'
p1483
sbatp1484
Rp1485
(dp1486
g12
Vprep
p1487
sbatp1488
Rp1489
(dp1490
g12
S'word: time, index: 15'
p1491
sbatp1492
Rp1493
(dp1494
g12
Vdobj
p1495
sbag0
(g1
g2
(lp1496
(lp1497
S'word: And, index: 1'
p1498
aatp1499
Rp1500
(dp1501
g12
Vcc
p1502
sbag0
(g1
g2
(lp1503
g0
(g1
g2
(lp1504
g0
(g1
g2
(lp1505
(lp1506
S'word: little, index: 2'
p1507
aatp1508
Rp1509
(dp1510
g12
Vamod
p1511
sbag0
(g1
g2
(lp1512
g0
(g1
g2
(lp1513
g0
(g1
g2
(lp1514
g0
(g1
g2
(lp1515
g0
(g1
g2
(lp1516
(lp1517
S'word: the, index: 5'
p1518
aatp1519
Rp1520
(dp1521
g12
Vdet
p1522
sbatp1523
Rp1524
(dp1525
g12
S'word: mother, index: 6'
p1526
sbatp1527
Rp1528
(dp1529
g12
Vposs
p1530
sbag0
(g1
g2
(lp1531
(lp1532
S'word: she, index: 10'
p1533
aatp1534
Rp1535
(dp1536
g12
Vappos
p1537
sbatp1538
Rp1539
(dp1540
g12
S'word: holding, index: 8'
p1541
sbatp1542
Rp1543
(dp1544
g12
Vappos
p1545
sbatp1546
Rp1547
(dp1548
g12
S'word: girl, index: 3'
p1549
sbatp1550
Rp1551
(dp1552
g12
Vnsubj
p1553
sbatp1554
Rp1555
(dp1556
g12
S'word: having, index: 12'
p1557
sbatp1558
Rp1559
(dp1560
g12
S'id: 9'
p1561
sbag0
(g1
g2
(lp1562
g0
(g1
g2
(lp1563
g0
(g1
g2
(lp1564
g0
(g1
g2
(lp1565
g0
(g1
g2
(lp1566
(lp1567
S'word: the, index: 2'
p1568
aatp1569
Rp1570
(dp1571
g12
Vdet
p1572
sbatp1573
Rp1574
(dp1575
g12
S'word: mama, index: 3'
p1576
sbatp1577
Rp1578
(dp1579
g12
Vnsubj
p1580
sbag0
(g1
g2
(lp1581
g0
(g1
g2
(lp1582
g0
(g1
g2
(lp1583
(lp1584
S'word: na, index: 5'
p1585
aatp1586
Rp1587
(dp1588
g12
Vaux
p1589
sbag0
(g1
g2
(lp1590
g0
(g1
g2
(lp1591
g0
(g1
g2
(lp1592
g0
(g1
g2
(lp1593
g0
(g1
g2
(lp1594
(lp1595
S'word: soon, index: 15'
p1596
aatp1597
Rp1598
(dp1599
g12
Vadvmod
p1600
sbag0
(g1
g2
(lp1601
(lp1602
S'word: as, index: 16'
p1603
aatp1604
Rp1605
(dp1606
g12
Vmark
p1607
sbag0
(g1
g2
(lp1608
(lp1609
S'word: she, index: 17'
p1610
aatp1611
Rp1612
(dp1613
g12
Vnsubj
p1614
sbag0
(g1
g2
(lp1615
(lp1616
S'word: home, index: 19'
p1617
aatp1618
Rp1619
(dp1620
g12
Vdobj
p1621
sbatp1622
Rp1623
(dp1624
g12
S'word: get, index: 18'
p1625
sbatp1626
Rp1627
(dp1628
g12
Vadvcl
p1629
sbag0
(g1
g2
(lp1630
(lp1631
S'word: to, index: 7'
p1632
aatp1633
Rp1634
(dp1635
g12
Vaux
p1636
sbag0
(g1
g2
(lp1637
(lp1638
S'word: her, index: 9'
p1639
aatp1640
Rp1641
(dp1642
g12
Vdobj
p1643
sbag0
(g1
g2
(lp1644
(lp1645
S'word: bed, index: 11'
p1646
aatp1647
Rp1648
(dp1649
g12
Vprep
p1650
sbag0
(g1
g2
(lp1651
(lp1652
S'word: soon, index: 13'
p1653
aatp1654
Rp1655
(dp1656
g12
Vadvmod
p1657
sbatp1658
Rp1659
(dp1660
g12
S'word: put, index: 8'
p1661
sbatp1662
Rp1663
(dp1664
g12
Vxcomp
p1665
sbatp1666
Rp1667
(dp1668
g12
S'word: have, index: 6'
p1669
sbatp1670
Rp1671
(dp1672
g12
Vxcomp
p1673
sbag0
(g1
g2
(lp1674
g0
(g1
g2
(lp1675
g0
(g1
g2
(lp1676
(lp1677
S'word: she, index: 22'
p1678
aatp1679
Rp1680
(dp1681
g12
Vnsubj
p1682
sbag0
(g1
g2
(lp1683
g0
(g1
g2
(lp1684
g0
(g1
g2
(lp1685
(lp1686
S'word: like, index: 24'
p1687
aatp1688
Rp1689
(dp1690
g12
Vmark
p1691
sbag0
(g1
g2
(lp1692
(lp1693
S'word: she, index: 25'
p1694
aatp1695
Rp1696
(dp1697
g12
Vnsubj
p1698
sbatp1699
Rp1700
(dp1701
g12
S'word: tired, index: 26'
p1702
sbatp1703
Rp1704
(dp1705
g12
Vadvcl
p1706
sbatp1707
Rp1708
(dp1709
g12
S'word: look, index: 23'
p1710
sbatp1711
Rp1712
(dp1713
g12
Vconj
p1714
sbatp1715
Rp1716
(dp1717
g12
S'word: gon, index: 4'
p1718
sbatp1719
Rp1720
(dp1721
g12
S'id: 10'
p1722
sbag0
(g1
g2
(lp1723
g0
(g1
g2
(lp1724
g0
(g1
g2
(lp1725
(lp1726
S'word: And, index: 1'
p1727
aatp1728
Rp1729
(dp1730
g12
Vcc
p1731
sbag0
(g1
g2
(lp1732
g0
(g1
g2
(lp1733
g0
(g1
g2
(lp1734
(lp1735
S'word: up, index: 18'
p1736
aatp1737
Rp1738
(dp1739
g12
Vprt
p1740
sbag0
(g1
g2
(lp1741
g0
(g1
g2
(lp1742
g0
(g1
g2
(lp1743
(lp1744
S'word: her, index: 20'
p1745
aatp1746
Rp1747
(dp1748
g12
Vposs
p1749
sbag0
(g1
g2
(lp1750
(lp1751
S'word: two, index: 21'
p1752
aatp1753
Rp1754
(dp1755
g12
Vnum
p1756
sbatp1757
Rp1758
(dp1759
g12
S'word: feet, index: 22'
p1760
sbatp1761
Rp1762
(dp1763
g12
Vprep
p1764
sbag0
(g1
g2
(lp1765
(lp1766
S'word: she, index: 15'
p1767
aatp1768
Rp1769
(dp1770
g12
Vnsubj
p1771
sbag0
(g1
g2
(lp1772
(lp1773
S'word: can, index: 16'
p1774
aatp1775
Rp1776
(dp1777
g12
Vaux
p1778
sbatp1779
Rp1780
(dp1781
g12
S'word: stand, index: 17'
p1782
sbatp1783
Rp1784
(dp1785
g12
Vdep
p1786
sbag0
(g1
g2
(lp1787
(lp1788
S'word: that, index: 2'
p1789
aatp1790
Rp1791
(dp1792
g12
Vdet
p1793
sbag0
(g1
g2
(lp1794
(lp1795
S'word: oldest, index: 3'
p1796
aatp1797
Rp1798
(dp1799
g12
Vamod
p1800
sbag0
(g1
g2
(lp1801
(lp1802
S'word: little, index: 4'
p1803
aatp1804
Rp1805
(dp1806
g12
Vamod
p1807
sbag0
(g1
g2
(lp1808
g0
(g1
g2
(lp1809
g0
(g1
g2
(lp1810
(lp1811
S'word: she, index: 6'
p1812
aatp1813
Rp1814
(dp1815
g12
Vnsubj
p1816
sbag0
(g1
g2
(lp1817
g0
(g1
g2
(lp1818
g0
(g1
g2
(lp1819
(lp1820
S'word: she, index: 9'
p1821
aatp1822
Rp1823
(dp1824
g12
Vnsubj
p1825
sbag0
(g1
g2
(lp1826
(lp1827
S"word: 's, index: 10"
p1828
aatp1829
Rp1830
(dp1831
g12
Vcop
p1832
sbag0
(g1
g2
(lp1833
(lp1834
S'word: not, index: 11'
p1835
aatp1836
Rp1837
(dp1838
g12
Vneg
p1839
sbag0
(g1
g2
(lp1840
g0
(g1
g2
(lp1841
g0
(g1
g2
(lp1842
(lp1843
S'word: too, index: 12'
p1844
aatp1845
Rp1846
(dp1847
g12
Vadvmod
p1848
sbatp1849
Rp1850
(dp1851
g12
S'word: tired, index: 13'
p1852
sbatp1853
Rp1854
(dp1855
g12
Vamod
p1856
sbatp1857
Rp1858
(dp1859
g12
S'word: cause, index: 14'
p1860
sbatp1861
Rp1862
(dp1863
g12
Vccomp
p1864
sbatp1865
Rp1866
(dp1867
g12
S'word: is, index: 7'
p1868
sbatp1869
Rp1870
(dp1871
g12
Vrcmod
p1872
sbatp1873
Rp1874
(dp1875
g12
S'word: girl, index: 5'
p1876
sbatp1877
Rp1878
(dp1879
g12
S'id: 11'
p1880
sbag0
(g1
g2
(lp1881
g0
(g1
g2
(lp1882
g0
(g1
g2
(lp1883
g0
(g1
g2
(lp1884
g0
(g1
g2
(lp1885
g0
(g1
g2
(lp1886
g0
(g1
g2
(lp1887
g0
(g1
g2
(lp1888
g0
(g1
g2
(lp1889
(lp1890
S'word: those, index: 7'
p1891
aatp1892
Rp1893
(dp1894
g12
Vdet
p1895
sbag0
(g1
g2
(lp1896
g0
(g1
g2
(lp1897
g0
(g1
g2
(lp1898
(lp1899
S'word: four, index: 10'
p1900
aatp1901
Rp1902
(dp1903
g12
Vnum
p1904
sbag0
(g1
g2
(lp1905
(lp1906
S'word: little, index: 11'
p1907
aatp1908
Rp1909
(dp1910
g12
Vamod
p1911
sbatp1912
Rp1913
(dp1914
g12
S'word: bo, index: 12'
p1915
sbatp1916
Rp1917
(dp1918
g12
Vappos
p1919
sbatp1920
Rp1921
(dp1922
g12
S'word: fo, index: 8'
p1923
sbatp1924
Rp1925
(dp1926
g12
Vpobj
p1927
sbatp1928
Rp1929
(dp1930
g12
S'word: with, index: 6'
p1931
sbatp1932
Rp1933
(dp1934
g12
Vdep
p1935
sbag0
(g1
g2
(lp1936
g0
(g1
g2
(lp1937
g0
(g1
g2
(lp1938
g0
(g1
g2
(lp1939
g0
(g1
g2
(lp1940
(lp1941
S'word: there, index: 16'
p1942
aatp1943
Rp1944
(dp1945
g12
Vpobj
p1946
sbatp1947
Rp1948
(dp1949
g12
S'word: in, index: 15'
p1950
sbatp1951
Rp1952
(dp1953
g12
Vprep
p1954
sbatp1955
Rp1956
(dp1957
g12
S'word: bows, index: 14'
p1958
sbatp1959
Rp1960
(dp1961
g12
Vdep
p1962
sbatp1963
Rp1964
(dp1965
g12
S'word: pretty, index: 4'
p1966
sbatp1967
Rp1968
(dp1969
g12
Vadvmod
p1970
sbag0
(g1
g2
(lp1971
g0
(g1
g2
(lp1972
g0
(g1
g2
(lp1973
(lp1974
S'word: Her, index: 1'
p1975
aatp1976
Rp1977
(dp1978
g12
Vposs
p1979
sbatp1980
Rp1981
(dp1982
g12
S'word: hair, index: 2'
p1983
sbatp1984
Rp1985
(dp1986
g12
Vnsubj
p1987
sbatp1988
Rp1989
(dp1990
g12
S'word: is, index: 3'
p1991
sbatp1992
Rp1993
(dp1994
g12
S'id: 12'
p1995
sbag0
(g1
g2
(lp1996
g0
(g1
g2
(lp1997
g0
(g1
g2
(lp1998
(lp1999
S'word: And, index: 1'
p2000
aatp2001
Rp2002
(dp2003
g12
Vcc
p2004
sbag0
(g1
g2
(lp2005
(lp2006
S'word: I, index: 2'
p2007
aatp2008
Rp2009
(dp2010
g12
Vnsubj
p2011
sbag0
(g1
g2
(lp2012
g0
(g1
g2
(lp2013
g0
(g1
g2
(lp2014
g0
(g1
g2
(lp2015
g0
(g1
g2
(lp2016
(lp2017
S'word: one, index: 7'
p2018
aatp2019
Rp2020
(dp2021
g12
Vnum
p2022
sbag0
(g1
g2
(lp2023
g0
(g1
g2
(lp2024
g0
(g1
g2
(lp2025
(lp2026
S'word: her, index: 10'
p2027
aatp2028
Rp2029
(dp2030
g12
Vposs
p2031
sbatp2032
Rp2033
(dp2034
g12
S'word: hair, index: 11'
p2035
sbatp2036
Rp2037
(dp2038
g12
Vprep
p2039
sbatp2040
Rp2041
(dp2042
g12
S'word: bow, index: 8'
p2043
sbatp2044
Rp2045
(dp2046
g12
Vdobj
p2047
sbag0
(g1
g2
(lp2048
g0
(g1
g2
(lp2049
g0
(g1
g2
(lp2050
(lp2051
S'word: the, index: 4'
p2052
aatp2053
Rp2054
(dp2055
g12
Vdet
p2056
sbatp2057
Rp2058
(dp2059
g12
S'word: baby, index: 5'
p2060
sbatp2061
Rp2062
(dp2063
g12
Vnsubj
p2064
sbatp2065
Rp2066
(dp2067
g12
S'word: has, index: 6'
p2068
sbatp2069
Rp2070
(dp2071
g12
Vccomp
p2072
sbatp2073
Rp2074
(dp2075
g12
S'word: think, index: 3'
p2076
sbatp2077
Rp2078
(dp2079
g12
S'id: 13'
p2080
sbag0
(g1
g2
(lp2081
g0
(g1
g2
(lp2082
g0
(g1
g2
(lp2083
(lp2084
S'word: And, index: 1'
p2085
aatp2086
Rp2087
(dp2088
g12
Vcc
p2089
sbag0
(g1
g2
(lp2090
g0
(g1
g2
(lp2091
g0
(g1
g2
(lp2092
(lp2093
S'word: the, index: 2'
p2094
aatp2095
Rp2096
(dp2097
g12
Vdet
p2098
sbag0
(g1
g2
(lp2099
(lp2100
S'word: brother, index: 3'
p2101
aatp2102
Rp2103
(dp2104
g12
Vnn
p2105
sbag0
(g1
g2
(lp2106
(lp2107
S'word: little, index: 4'
p2108
aatp2109
Rp2110
(dp2111
g12
Vamod
p2112
sbatp2113
Rp2114
(dp2115
g12
S'word: brother, index: 5'
p2116
sbatp2117
Rp2118
(dp2119
g12
Vnsubj
p2120
sbag0
(g1
g2
(lp2121
(lp2122
S'word: still, index: 7'
p2123
aatp2124
Rp2125
(dp2126
g12
Vadvmod
p2127
sbatp2128
Rp2129
(dp2130
g12
S'word: is, index: 6'
p2131
sbatp2132
Rp2133
(dp2134
g12
S'id: 14'
p2135
sbatp2136
Rp2137
(dp2138
g12
S'sentences'
p2139
sb.