ccopy_reg
_reconstructor
p0
(cnltk.tree
Tree
p1
c__builtin__
list
p2
(lp3
g0
(g1
g2
(lp4
g0
(g1
g2
(lp5
g0
(g1
g2
(lp6
g0
(g1
g2
(lp7
g0
(g1
g2
(lp8
g0
(g1
g2
(lp9
Vthe
p10
atp11
Rp12
(dp13
S'_label'
p14
VDT
p15
sbag0
(g1
g2
(lp16
Vclown
p17
atp18
Rp19
(dp20
g14
VNN
p21
sbag0
(g1
g2
(lp22
V's
p23
atp24
Rp25
(dp26
g14
VPOS
p27
sbatp28
Rp29
(dp30
g14
VNP
p31
sbag0
(g1
g2
(lp32
Vspreading
p33
atp34
Rp35
(dp36
g14
VNN
p37
sbag0
(g1
g2
(lp38
Vconfetti
p39
atp40
Rp41
(dp42
g14
VNN
p43
sbatp44
Rp45
(dp46
g14
VNP
p47
sbag0
(g1
g2
(lp48
g0
(g1
g2
(lp49
Vall
p50
atp51
Rp52
(dp53
g14
VDT
p54
sbag0
(g1
g2
(lp55
Vover
p56
atp57
Rp58
(dp59
g14
VIN
p60
sbatp61
Rp62
(dp63
g14
VADVP
p64
sbatp65
Rp66
(dp67
g14
VNP
p68
sbag0
(g1
g2
(lp69
g0
(g1
g2
(lp70
V,
p71
atp72
Rp73
(dp74
g14
V,
p75
sbag0
(g1
g2
(lp76
g0
(g1
g2
(lp77
Vover
p78
atp79
Rp80
(dp81
g14
VIN
p82
sbatp83
Rp84
(dp85
g14
VPP
p86
sbag0
(g1
g2
(lp87
V,
p88
atp89
Rp90
(dp91
g14
V,
p92
sbatp93
Rp94
(dp95
g14
VPRN
p96
sbag0
(g1
g2
(lp97
g0
(g1
g2
(lp98
Vover
p99
atp100
Rp101
(dp102
g14
VIN
p103
sbag0
(g1
g2
(lp104
g0
(g1
g2
(lp105
Vthe
p106
atp107
Rp108
(dp109
g14
VDT
p110
sbag0
(g1
g2
(lp111
Vkids
p112
atp113
Rp114
(dp115
g14
VNNS
p116
sbatp117
Rp118
(dp119
g14
VNP
p120
sbatp121
Rp122
(dp123
g14
VPP
p124
sbag0
(g1
g2
(lp125
V.
p126
atp127
Rp128
(dp129
g14
V.
p130
sbatp131
Rp132
(dp133
g14
VNP
p134
sbatp135
Rp136
(dp137
g14
S'id: 0'
p138
sbag0
(g1
g2
(lp139
g0
(g1
g2
(lp140
g0
(g1
g2
(lp141
VAnd
p142
atp143
Rp144
(dp145
g14
VCC
p146
sbag0
(g1
g2
(lp147
g0
(g1
g2
(lp148
g0
(g1
g2
(lp149
Vthe
p150
atp151
Rp152
(dp153
g14
VDT
p154
sbag0
(g1
g2
(lp155
Vkids
p156
atp157
Rp158
(dp159
g14
VNNS
p160
sbatp161
Rp162
(dp163
g14
VNP
p164
sbag0
(g1
g2
(lp165
g0
(g1
g2
(lp166
Vare
p167
atp168
Rp169
(dp170
g14
VVBP
p171
sbag0
(g1
g2
(lp172
g0
(g1
g2
(lp173
Vhappy
p174
atp175
Rp176
(dp177
g14
VJJ
p178
sbag0
(g1
g2
(lp179
g0
(g1
g2
(lp180
Vabout
p181
atp182
Rp183
(dp184
g14
VIN
p185
sbag0
(g1
g2
(lp186
g0
(g1
g2
(lp187
Vit
p188
atp189
Rp190
(dp191
g14
VPRP
p192
sbatp193
Rp194
(dp195
g14
VNP
p196
sbatp197
Rp198
(dp199
g14
VPP
p200
sbatp201
Rp202
(dp203
g14
VADJP
p204
sbatp205
Rp206
(dp207
g14
VVP
p208
sbatp209
Rp210
(dp211
g14
VS
p212
sbag0
(g1
g2
(lp213
V,
p214
atp215
Rp216
(dp217
g14
V,
p218
sbag0
(g1
g2
(lp219
Vbut
p220
atp221
Rp222
(dp223
g14
VCC
p224
sbag0
(g1
g2
(lp225
g0
(g1
g2
(lp226
g0
(g1
g2
(lp227
Vthe
p228
atp229
Rp230
(dp231
g14
VDT
p232
sbag0
(g1
g2
(lp233
Vclowns
p234
atp235
Rp236
(dp237
g14
VNNS
p238
sbatp239
Rp240
(dp241
g14
VNP
p242
sbag0
(g1
g2
(lp243
g0
(g1
g2
(lp244
Vare
p245
atp246
Rp247
(dp248
g14
VVBP
p249
sbag0
(g1
g2
(lp250
g0
(g1
g2
(lp251
Vdressed
p252
atp253
Rp254
(dp255
g14
VVBN
p256
sbag0
(g1
g2
(lp257
g0
(g1
g2
(lp258
Vin
p259
atp260
Rp261
(dp262
g14
VIN
p263
sbag0
(g1
g2
(lp264
g0
(g1
g2
(lp265
Vlike
p266
atp267
Rp268
(dp269
g14
VIN
p270
sbatp271
Rp272
(dp273
g14
VPP
p274
sbatp275
Rp276
(dp277
g14
VPP
p278
sbag0
(g1
g2
(lp279
V,
p280
atp281
Rp282
(dp283
g14
V,
p284
sbag0
(g1
g2
(lp285
g0
(g1
g2
(lp286
Vlike
p287
atp288
Rp289
(dp290
g14
VIN
p291
sbag0
(g1
g2
(lp292
g0
(g1
g2
(lp293
Vbrosts
p294
atp295
Rp296
(dp297
g14
VNNS
p298
sbatp299
Rp300
(dp301
g14
VNP
p302
sbatp303
Rp304
(dp305
g14
VPP
p306
sbatp307
Rp308
(dp309
g14
VVP
p310
sbatp311
Rp312
(dp313
g14
VVP
p314
sbatp315
Rp316
(dp317
g14
VS
p318
sbag0
(g1
g2
(lp319
V.
p320
atp321
Rp322
(dp323
g14
V.
p324
sbatp325
Rp326
(dp327
g14
VS
p328
sbatp329
Rp330
(dp331
g14
S'id: 1'
p332
sbag0
(g1
g2
(lp333
g0
(g1
g2
(lp334
g0
(g1
g2
(lp335
VAnd
p336
atp337
Rp338
(dp339
g14
VCC
p340
sbag0
(g1
g2
(lp341
g0
(g1
g2
(lp342
g0
(g1
g2
(lp343
Vthey
p344
atp345
Rp346
(dp347
g14
VPRP
p348
sbatp349
Rp350
(dp351
g14
VNP
p352
sbag0
(g1
g2
(lp353
g0
(g1
g2
(lp354
Vhave
p355
atp356
Rp357
(dp358
g14
VVBP
p359
sbag0
(g1
g2
(lp360
g0
(g1
g2
(lp361
g0
(g1
g2
(lp362
g0
(g1
g2
(lp363
Vgloves
p364
atp365
Rp366
(dp367
g14
VNNS
p368
sbatp369
Rp370
(dp371
g14
VNP
p372
sbag0
(g1
g2
(lp373
g0
(g1
g2
(lp374
Von
p375
atp376
Rp377
(dp378
g14
VIN
p379
sbag0
(g1
g2
(lp380
g0
(g1
g2
(lp381
Vtheir
p382
atp383
Rp384
(dp385
g14
VPRP$
p386
sbag0
(g1
g2
(lp387
Vhands
p388
atp389
Rp390
(dp391
g14
VNNS
p392
sbatp393
Rp394
(dp395
g14
VNP
p396
sbatp397
Rp398
(dp399
g14
VPP
p400
sbatp401
Rp402
(dp403
g14
VNP
p404
sbag0
(g1
g2
(lp405
V,
p406
atp407
Rp408
(dp409
g14
V,
p410
sbag0
(g1
g2
(lp411
Vand
p412
atp413
Rp414
(dp415
g14
VCC
p416
sbag0
(g1
g2
(lp417
g0
(g1
g2
(lp418
g0
(g1
g2
(lp419
Vhats
p420
atp421
Rp422
(dp423
g14
VNNS
p424
sbatp425
Rp426
(dp427
g14
VNP
p428
sbag0
(g1
g2
(lp429
g0
(g1
g2
(lp430
Von
p431
atp432
Rp433
(dp434
g14
VIN
p435
sbag0
(g1
g2
(lp436
g0
(g1
g2
(lp437
g0
(g1
g2
(lp438
Vtheir
p439
atp440
Rp441
(dp442
g14
VPRP$
p443
sbag0
(g1
g2
(lp444
Vhead
p445
atp446
Rp447
(dp448
g14
VNN
p449
sbatp450
Rp451
(dp452
g14
VNP
p453
sbag0
(g1
g2
(lp454
V,
p455
atp456
Rp457
(dp458
g14
V,
p459
sbag0
(g1
g2
(lp460
g0
(g1
g2
(lp461
g0
(g1
g2
(lp462
Vhats
p463
atp464
Rp465
(dp466
g14
VNNS
p467
sbatp468
Rp469
(dp470
g14
VNP
p471
sbag0
(g1
g2
(lp472
g0
(g1
g2
(lp473
Von
p474
atp475
Rp476
(dp477
g14
VIN
p478
sbag0
(g1
g2
(lp479
g0
(g1
g2
(lp480
Vthe
p481
atp482
Rp483
(dp484
g14
VDT
p485
sbag0
(g1
g2
(lp486
Vhead
p487
atp488
Rp489
(dp490
g14
VNN
p491
sbatp492
Rp493
(dp494
g14
VNP
p495
sbatp496
Rp497
(dp498
g14
VPP
p499
sbatp500
Rp501
(dp502
g14
VNP
p503
sbatp504
Rp505
(dp506
g14
VNP
p507
sbatp508
Rp509
(dp510
g14
VPP
p511
sbatp512
Rp513
(dp514
g14
VNP
p515
sbatp516
Rp517
(dp518
g14
VNP
p519
sbatp520
Rp521
(dp522
g14
VVP
p523
sbatp524
Rp525
(dp526
g14
VS
p527
sbag0
(g1
g2
(lp528
V,
p529
atp530
Rp531
(dp532
g14
V,
p533
sbag0
(g1
g2
(lp534
Vand
p535
atp536
Rp537
(dp538
g14
VCC
p539
sbag0
(g1
g2
(lp540
V,
p541
atp542
Rp543
(dp544
g14
V,
p545
sbag0
(g1
g2
(lp546
Vand
p547
atp548
Rp549
(dp550
g14
VCC
p551
sbag0
(g1
g2
(lp552
g0
(g1
g2
(lp553
g0
(g1
g2
(lp554
Vthey
p555
atp556
Rp557
(dp558
g14
VPRP
p559
sbatp560
Rp561
(dp562
g14
VNP
p563
sbag0
(g1
g2
(lp564
g0
(g1
g2
(lp565
V've
p566
atp567
Rp568
(dp569
g14
VVBP
p570
sbag0
(g1
g2
(lp571
g0
(g1
g2
(lp572
Vgot
p573
atp574
Rp575
(dp576
g14
VVBN
p577
sbag0
(g1
g2
(lp578
g0
(g1
g2
(lp579
Vmakeup
p580
atp581
Rp582
(dp583
g14
VNN
p584
sbatp585
Rp586
(dp587
g14
VNP
p588
sbag0
(g1
g2
(lp589
g0
(g1
g2
(lp590
Von
p591
atp592
Rp593
(dp594
g14
VIN
p595
sbag0
(g1
g2
(lp596
g0
(g1
g2
(lp597
V,
p598
atp599
Rp600
(dp601
g14
V,
p602
sbag0
(g1
g2
(lp603
Vand
p604
atp605
Rp606
(dp607
g14
VCC
p608
sbag0
(g1
g2
(lp609
g0
(g1
g2
(lp610
g0
(g1
g2
(lp611
Vthe
p612
atp613
Rp614
(dp615
g14
VDT
p616
sbatp617
Rp618
(dp619
g14
VNP
p620
sbag0
(g1
g2
(lp621
V,
p622
atp623
Rp624
(dp625
g14
V,
p626
sbag0
(g1
g2
(lp627
g0
(g1
g2
(lp628
Vthe
p629
atp630
Rp631
(dp632
g14
VDT
p633
sbag0
(g1
g2
(lp634
Vnose
p635
atp636
Rp637
(dp638
g14
VNN
p639
sbatp640
Rp641
(dp642
g14
VNP
p643
sbatp644
Rp645
(dp646
g14
VNP
p647
sbatp648
Rp649
(dp650
g14
VPRN
p651
sbatp652
Rp653
(dp654
g14
VPP
p655
sbag0
(g1
g2
(lp656
g0
(g1
g2
(lp657
Von
p658
atp659
Rp660
(dp661
g14
VIN
p662
sbatp663
Rp664
(dp665
g14
VPP
p666
sbatp667
Rp668
(dp669
g14
VVP
p670
sbatp671
Rp672
(dp673
g14
VVP
p674
sbatp675
Rp676
(dp677
g14
VS
p678
sbag0
(g1
g2
(lp679
V.
p680
atp681
Rp682
(dp683
g14
V.
p684
sbatp685
Rp686
(dp687
g14
VS
p688
sbatp689
Rp690
(dp691
g14
S'id: 2'
p692
sbag0
(g1
g2
(lp693
g0
(g1
g2
(lp694
g0
(g1
g2
(lp695
Vok
p696
atp697
Rp698
(dp699
g14
VNN
p700
sbag0
(g1
g2
(lp701
V.
p702
atp703
Rp704
(dp705
g14
V.
p706
sbatp707
Rp708
(dp709
g14
VNP
p710
sbatp711
Rp712
(dp713
g14
S'id: 3'
p714
sbag0
(g1
g2
(lp715
g0
(g1
g2
(lp716
g0
(g1
g2
(lp717
g0
(g1
g2
(lp718
g0
(g1
g2
(lp719
VIn
p720
atp721
Rp722
(dp723
g14
VIN
p724
sbag0
(g1
g2
(lp725
g0
(g1
g2
(lp726
g0
(g1
g2
(lp727
Vthe
p728
atp729
Rp730
(dp731
g14
VDT
p732
sbag0
(g1
g2
(lp733
Vlion
p734
atp735
Rp736
(dp737
g14
VNN
p738
sbatp739
Rp740
(dp741
g14
VNP
p742
sbag0
(g1
g2
(lp743
V,
p744
atp745
Rp746
(dp747
g14
V,
p748
sbag0
(g1
g2
(lp749
g0
(g1
g2
(lp750
Vin
p751
atp752
Rp753
(dp754
g14
VIN
p755
sbag0
(g1
g2
(lp756
g0
(g1
g2
(lp757
Va
p758
atp759
Rp760
(dp761
g14
VDT
p762
sbag0
(g1
g2
(lp763
Vcage
p764
atp765
Rp766
(dp767
g14
VNN
p768
sbatp769
Rp770
(dp771
g14
VNP
p772
sbatp773
Rp774
(dp775
g14
VPP
p776
sbatp777
Rp778
(dp779
g14
VNP
p780
sbatp781
Rp782
(dp783
g14
VPP
p784
sbag0
(g1
g2
(lp785
g0
(g1
g2
(lp786
V,
p787
atp788
Rp789
(dp790
g14
V,
p791
sbag0
(g1
g2
(lp792
Vand
p793
atp794
Rp795
(dp796
g14
VCC
p797
sbag0
(g1
g2
(lp798
g0
(g1
g2
(lp799
g0
(g1
g2
(lp800
Vhe
p801
atp802
Rp803
(dp804
g14
VPRP
p805
sbatp806
Rp807
(dp808
g14
VNP
p809
sbag0
(g1
g2
(lp810
g0
(g1
g2
(lp811
V's
p812
atp813
Rp814
(dp815
g14
VVBZ
p816
sbag0
(g1
g2
(lp817
g0
(g1
g2
(lp818
Va
p819
atp820
Rp821
(dp822
g14
VDT
p823
sbatp824
Rp825
(dp826
g14
VNP
p827
sbatp828
Rp829
(dp830
g14
VVP
p831
sbatp832
Rp833
(dp834
g14
VS
p835
sbag0
(g1
g2
(lp836
V,
p837
atp838
Rp839
(dp840
g14
V,
p841
sbatp842
Rp843
(dp844
g14
VPRN
p845
sbag0
(g1
g2
(lp846
g0
(g1
g2
(lp847
Vhe
p848
atp849
Rp850
(dp851
g14
VPRP
p852
sbatp853
Rp854
(dp855
g14
VNP
p856
sbag0
(g1
g2
(lp857
g0
(g1
g2
(lp858
V's
p859
atp860
Rp861
(dp862
g14
VVBZ
p863
sbag0
(g1
g2
(lp864
g0
(g1
g2
(lp865
Va
p866
atp867
Rp868
(dp869
g14
VDT
p870
sbatp871
Rp872
(dp873
g14
VNP
p874
sbatp875
Rp876
(dp877
g14
VVP
p878
sbatp879
Rp880
(dp881
g14
VS
p882
sbag0
(g1
g2
(lp883
V,
p884
atp885
Rp886
(dp887
g14
V,
p888
sbag0
(g1
g2
(lp889
g0
(g1
g2
(lp890
Vhe
p891
atp892
Rp893
(dp894
g14
VPRP
p895
sbatp896
Rp897
(dp898
g14
VNP
p899
sbag0
(g1
g2
(lp900
g0
(g1
g2
(lp901
V's
p902
atp903
Rp904
(dp905
g14
VVBZ
p906
sbatp907
Rp908
(dp909
g14
VVP
p910
sbag0
(g1
g2
(lp911
V.
p912
atp913
Rp914
(dp915
g14
V.
p916
sbatp917
Rp918
(dp919
g14
VS
p920
sbatp921
Rp922
(dp923
g14
S'id: 4'
p924
sbag0
(g1
g2
(lp925
g0
(g1
g2
(lp926
g0
(g1
g2
(lp927
g0
(g1
g2
(lp928
VThere
p929
atp930
Rp931
(dp932
g14
VRB
p933
sbatp934
Rp935
(dp936
g14
VADVP
p937
sbag0
(g1
g2
(lp938
V,
p939
atp940
Rp941
(dp942
g14
V,
p943
sbag0
(g1
g2
(lp944
g0
(g1
g2
(lp945
Vthere
p946
atp947
Rp948
(dp949
g14
VRB
p950
sbatp951
Rp952
(dp953
g14
VADVP
p954
sbag0
(g1
g2
(lp955
V,
p956
atp957
Rp958
(dp959
g14
V,
p960
sbag0
(g1
g2
(lp961
g0
(g1
g2
(lp962
g0
(g1
g2
(lp963
Vthere
p964
atp965
Rp966
(dp967
g14
VEX
p968
sbatp969
Rp970
(dp971
g14
VNP
p972
sbag0
(g1
g2
(lp973
g0
(g1
g2
(lp974
g0
(g1
g2
(lp975
g0
(g1
g2
(lp976
g0
(g1
g2
(lp977
Vduckling
p978
atp979
Rp980
(dp981
g14
VNN
p982
sbatp983
Rp984
(dp985
g14
VNP
p986
sbag0
(g1
g2
(lp987
V,
p988
atp989
Rp990
(dp991
g14
V,
p992
sbag0
(g1
g2
(lp993
g0
(g1
g2
(lp994
Vno
p995
atp996
Rp997
(dp998
g14
VDT
p999
sbag0
(g1
g2
(lp1000
g0
(g1
g2
(lp1001
Vthere
p1002
atp1003
Rp1004
(dp1005
g14
VRB
p1006
sbatp1007
Rp1008
(dp1009
g14
VNP
p1010
sbag0
(g1
g2
(lp1011
V,
p1012
atp1013
Rp1014
(dp1015
g14
V,
p1016
sbag0
(g1
g2
(lp1017
g0
(g1
g2
(lp1018
g0
(g1
g2
(lp1019
Vthere
p1020
atp1021
Rp1022
(dp1023
g14
VEX
p1024
sbatp1025
Rp1026
(dp1027
g14
VNP
p1028
sbag0
(g1
g2
(lp1029
g0
(g1
g2
(lp1030
Vpoles
p1031
atp1032
Rp1033
(dp1034
g14
VNNS
p1035
sbatp1036
Rp1037
(dp1038
g14
VNP
p1039
sbatp1040
Rp1041
(dp1042
g14
VNP
p1043
sbatp1044
Rp1045
(dp1046
g14
VNP
p1047
sbatp1048
Rp1049
(dp1050
g14
VNP
p1051
sbag0
(g1
g2
(lp1052
Von
p1053
atp1054
Rp1055
(dp1056
g14
VIN
p1057
sbag0
(g1
g2
(lp1058
g0
(g1
g2
(lp1059
Vthe
p1060
atp1061
Rp1062
(dp1063
g14
VDT
p1064
sbag0
(g1
g2
(lp1065
g0
(g1
g2
(lp1066
V,
p1067
atp1068
Rp1069
(dp1070
g14
V,
p1071
sbag0
(g1
g2
(lp1072
Von
p1073
atp1074
Rp1075
(dp1076
g14
VIN
p1077
sbag0
(g1
g2
(lp1078
Vthe
p1079
atp1080
Rp1081
(dp1082
g14
VDT
p1083
sbag0
(g1
g2
(lp1084
V,
p1085
atp1086
Rp1087
(dp1088
g14
V,
p1089
sbatp1090
Rp1091
(dp1092
g14
VPRN
p1093
sbatp1094
Rp1095
(dp1096
g14
VNP
p1097
sbatp1098
Rp1099
(dp1100
g14
VPP
p1101
sbag0
(g1
g2
(lp1102
g0
(g1
g2
(lp1103
g0
(g1
g2
(lp1104
Vwhere
p1105
atp1106
Rp1107
(dp1108
g14
VWRB
p1109
sbatp1110
Rp1111
(dp1112
g14
VWHADVP
p1113
sbag0
(g1
g2
(lp1114
g0
(g1
g2
(lp1115
g0
(g1
g2
(lp1116
Vthey
p1117
atp1118
Rp1119
(dp1120
g14
VPRP
p1121
sbatp1122
Rp1123
(dp1124
g14
VNP
p1125
sbag0
(g1
g2
(lp1126
g0
(g1
g2
(lp1127
Vwalk
p1128
atp1129
Rp1130
(dp1131
g14
VVBP
p1132
sbatp1133
Rp1134
(dp1135
g14
VVP
p1136
sbatp1137
Rp1138
(dp1139
g14
VS
p1140
sbatp1141
Rp1142
(dp1143
g14
VSBAR
p1144
sbatp1145
Rp1146
(dp1147
g14
VPP
p1148
sbatp1149
Rp1150
(dp1151
g14
VS
p1152
sbag0
(g1
g2
(lp1153
V,
p1154
atp1155
Rp1156
(dp1157
g14
V,
p1158
sbag0
(g1
g2
(lp1159
Vand
p1160
atp1161
Rp1162
(dp1163
g14
VCC
p1164
sbag0
(g1
g2
(lp1165
g0
(g1
g2
(lp1166
g0
(g1
g2
(lp1167
Vthey
p1168
atp1169
Rp1170
(dp1171
g14
VPRP
p1172
sbatp1173
Rp1174
(dp1175
g14
VNP
p1176
sbag0
(g1
g2
(lp1177
g0
(g1
g2
(lp1178
Vwalk
p1179
atp1180
Rp1181
(dp1182
g14
VVBP
p1183
sbag0
(g1
g2
(lp1184
g0
(g1
g2
(lp1185
Vin
p1186
atp1187
Rp1188
(dp1189
g14
VIN
p1190
sbag0
(g1
g2
(lp1191
g0
(g1
g2
(lp1192
Vleotards
p1193
atp1194
Rp1195
(dp1196
g14
VNNS
p1197
sbatp1198
Rp1199
(dp1200
g14
VNP
p1201
sbatp1202
Rp1203
(dp1204
g14
VPP
p1205
sbatp1206
Rp1207
(dp1208
g14
VVP
p1209
sbatp1210
Rp1211
(dp1212
g14
VS
p1213
sbag0
(g1
g2
(lp1214
V.
p1215
atp1216
Rp1217
(dp1218
g14
V.
p1219
sbatp1220
Rp1221
(dp1222
g14
VS
p1223
sbatp1224
Rp1225
(dp1226
g14
S'id: 5'
p1227
sbag0
(g1
g2
(lp1228
g0
(g1
g2
(lp1229
g0
(g1
g2
(lp1230
VAnd
p1231
atp1232
Rp1233
(dp1234
g14
VCC
p1235
sbag0
(g1
g2
(lp1236
g0
(g1
g2
(lp1237
g0
(g1
g2
(lp1238
Vtheir
p1239
atp1240
Rp1241
(dp1242
g14
VPRP$
p1243
sbag0
(g1
g2
(lp1244
Vhorses
p1245
atp1246
Rp1247
(dp1248
g14
VNNS
p1249
sbatp1250
Rp1251
(dp1252
g14
VNP
p1253
sbag0
(g1
g2
(lp1254
g0
(g1
g2
(lp1255
Vare
p1256
atp1257
Rp1258
(dp1259
g14
VVBP
p1260
sbag0
(g1
g2
(lp1261
g0
(g1
g2
(lp1262
Vin
p1263
atp1264
Rp1265
(dp1266
g14
VIN
p1267
sbag0
(g1
g2
(lp1268
g0
(g1
g2
(lp1269
Vto
p1270
atp1271
Rp1272
(dp1273
g14
VTO
p1274
sbatp1275
Rp1276
(dp1277
g14
VPP
p1278
sbatp1279
Rp1280
(dp1281
g14
VPP
p1282
sbatp1283
Rp1284
(dp1285
g14
VVP
p1286
sbatp1287
Rp1288
(dp1289
g14
VS
p1290
sbag0
(g1
g2
(lp1291
V,
p1292
atp1293
Rp1294
(dp1295
g14
V,
p1296
sbag0
(g1
g2
(lp1297
Vand
p1298
atp1299
Rp1300
(dp1301
g14
VCC
p1302
sbag0
(g1
g2
(lp1303
g0
(g1
g2
(lp1304
g0
(g1
g2
(lp1305
Vtheir
p1306
atp1307
Rp1308
(dp1309
g14
VPRP$
p1310
sbatp1311
Rp1312
(dp1313
g14
VNP
p1314
sbag0
(g1
g2
(lp1315
g0
(g1
g2
(lp1316
Vdressed
p1317
atp1318
Rp1319
(dp1320
g14
VVBN
p1321
sbag0
(g1
g2
(lp1322
g0
(g1
g2
(lp1323
Vin
p1324
atp1325
Rp1326
(dp1327
g14
VIN
p1328
sbag0
(g1
g2
(lp1329
g0
(g1
g2
(lp1330
g0
(g1
g2
(lp1331
Vleotard
p1332
atp1333
Rp1334
(dp1335
g14
VNN
p1336
sbatp1337
Rp1338
(dp1339
g14
VNP
p1340
sbag0
(g1
g2
(lp1341
V,
p1342
atp1343
Rp1344
(dp1345
g14
V,
p1346
sbag0
(g1
g2
(lp1347
g0
(g1
g2
(lp1348
g0
(g1
g2
(lp1349
Vleotards
p1350
atp1351
Rp1352
(dp1353
g14
VNNS
p1354
sbatp1355
Rp1356
(dp1357
g14
VNP
p1358
sbag0
(g1
g2
(lp1359
g0
(g1
g2
(lp1360
Vfor
p1361
atp1362
Rp1363
(dp1364
g14
VIN
p1365
sbag0
(g1
g2
(lp1366
g0
(g1
g2
(lp1367
Vballet
p1368
atp1369
Rp1370
(dp1371
g14
VJJ
p1372
sbatp1373
Rp1374
(dp1375
g14
VNP
p1376
sbatp1377
Rp1378
(dp1379
g14
VPP
p1380
sbatp1381
Rp1382
(dp1383
g14
VNP
p1384
sbatp1385
Rp1386
(dp1387
g14
VNP
p1388
sbatp1389
Rp1390
(dp1391
g14
VPP
p1392
sbatp1393
Rp1394
(dp1395
g14
VVP
p1396
sbatp1397
Rp1398
(dp1399
g14
VS
p1400
sbag0
(g1
g2
(lp1401
V.
p1402
atp1403
Rp1404
(dp1405
g14
V.
p1406
sbatp1407
Rp1408
(dp1409
g14
VS
p1410
sbatp1411
Rp1412
(dp1413
g14
S'id: 6'
p1414
sbag0
(g1
g2
(lp1415
g0
(g1
g2
(lp1416
g0
(g1
g2
(lp1417
Vgosh
p1418
atp1419
Rp1420
(dp1421
g14
VNN
p1422
sbag0
(g1
g2
(lp1423
V.
p1424
atp1425
Rp1426
(dp1427
g14
V.
p1428
sbatp1429
Rp1430
(dp1431
g14
VNP
p1432
sbatp1433
Rp1434
(dp1435
g14
S'id: 7'
p1436
sbag0
(g1
g2
(lp1437
g0
(g1
g2
(lp1438
g0
(g1
g2
(lp1439
g0
(g1
g2
(lp1440
VHe
p1441
atp1442
Rp1443
(dp1444
g14
VPRP
p1445
sbatp1446
Rp1447
(dp1448
g14
VNP
p1449
sbag0
(g1
g2
(lp1450
g0
(g1
g2
(lp1451
V's
p1452
atp1453
Rp1454
(dp1455
g14
VVBZ
p1456
sbag0
(g1
g2
(lp1457
g0
(g1
g2
(lp1458
g0
(g1
g2
(lp1459
Vgot
p1460
atp1461
Rp1462
(dp1463
g14
VVBN
p1464
sbag0
(g1
g2
(lp1465
g0
(g1
g2
(lp1466
Von
p1467
atp1468
Rp1469
(dp1470
g14
VIN
p1471
sbag0
(g1
g2
(lp1472
g0
(g1
g2
(lp1473
Vpants
p1474
atp1475
Rp1476
(dp1477
g14
VNNS
p1478
sbatp1479
Rp1480
(dp1481
g14
VNP
p1482
sbatp1483
Rp1484
(dp1485
g14
VPP
p1486
sbatp1487
Rp1488
(dp1489
g14
VVP
p1490
sbag0
(g1
g2
(lp1491
V,
p1492
atp1493
Rp1494
(dp1495
g14
V,
p1496
sbag0
(g1
g2
(lp1497
Vand
p1498
atp1499
Rp1500
(dp1501
g14
VCC
p1502
sbag0
(g1
g2
(lp1503
g0
(g1
g2
(lp1504
g0
(g1
g2
(lp1505
Vlong
p1506
atp1507
Rp1508
(dp1509
g14
VRB
p1510
sbag0
(g1
g2
(lp1511
g0
(g1
g2
(lp1512
g0
(g1
g2
(lp1513
Vpants
p1514
atp1515
Rp1516
(dp1517
g14
VNNS
p1518
sbatp1519
Rp1520
(dp1521
g14
VNP
p1522
sbag0
(g1
g2
(lp1523
V,
p1524
atp1525
Rp1526
(dp1527
g14
V,
p1528
sbag0
(g1
g2
(lp1529
Vand
p1530
atp1531
Rp1532
(dp1533
g14
VCC
p1534
sbag0
(g1
g2
(lp1535
g0
(g1
g2
(lp1536
Va
p1537
atp1538
Rp1539
(dp1540
g14
VDT
p1541
sbag0
(g1
g2
(lp1542
Vcoat
p1543
atp1544
Rp1545
(dp1546
g14
VNN
p1547
sbatp1548
Rp1549
(dp1550
g14
VNP
p1551
sbag0
(g1
g2
(lp1552
V,
p1553
atp1554
Rp1555
(dp1556
g14
V,
p1557
sbatp1558
Rp1559
(dp1560
g14
VNP
p1561
sbatp1562
Rp1563
(dp1564
g14
VADVP
p1565
sbag0
(g1
g2
(lp1566
g0
(g1
g2
(lp1567
Vno
p1568
atp1569
Rp1570
(dp1571
g14
VDT
p1572
sbag0
(g1
g2
(lp1573
Va
p1574
atp1575
Rp1576
(dp1577
g14
VDT
p1578
sbag0
(g1
g2
(lp1579
Vcoat
p1580
atp1581
Rp1582
(dp1583
g14
VNN
p1584
sbatp1585
Rp1586
(dp1587
g14
VNP
p1588
sbag0
(g1
g2
(lp1589
g0
(g1
g2
(lp1590
Vfor
p1591
atp1592
Rp1593
(dp1594
g14
VIN
p1595
sbag0
(g1
g2
(lp1596
g0
(g1
g2
(lp1597
Vthe
p1598
atp1599
Rp1600
(dp1601
g14
VDT
p1602
sbatp1603
Rp1604
(dp1605
g14
VNP
p1606
sbatp1607
Rp1608
(dp1609
g14
VPP
p1610
sbatp1611
Rp1612
(dp1613
g14
VVP
p1614
sbatp1615
Rp1616
(dp1617
g14
VVP
p1618
sbatp1619
Rp1620
(dp1621
g14
VVP
p1622
sbag0
(g1
g2
(lp1623
V.
p1624
atp1625
Rp1626
(dp1627
g14
V.
p1628
sbatp1629
Rp1630
(dp1631
g14
VS
p1632
sbatp1633
Rp1634
(dp1635
g14
S'id: 8'
p1636
sbatp1637
Rp1638
(dp1639
g14
S'sentences'
p1640
sb.