ccopy_reg
_reconstructor
p0
(cnltk.tree
Tree
p1
c__builtin__
list
p2
(lp3
g0
(g1
g2
(lp4
g0
(g1
g2
(lp5
g0
(g1
g2
(lp6
(lp7
S'word: I, index: 1'
p8
aatp9
Rp10
(dp11
S'_label'
p12
Vnsubj
p13
sbag0
(g1
g2
(lp14
g0
(g1
g2
(lp15
g0
(g1
g2
(lp16
g0
(g1
g2
(lp17
g0
(g1
g2
(lp18
(lp19
S'word: this, index: 3'
p20
aatp21
Rp22
(dp23
g12
Vdet
p24
sbatp25
Rp26
(dp27
g12
S'word: guy, index: 4'
p28
sbatp29
Rp30
(dp31
g12
Vnsubj
p32
sbag0
(g1
g2
(lp33
g0
(g1
g2
(lp34
g0
(g1
g2
(lp35
g0
(g1
g2
(lp36
g0
(g1
g2
(lp37
(lp38
S'word: there, index: 8'
p39
aatp40
Rp41
(dp42
g12
Vpcomp
p43
sbatp44
Rp45
(dp46
g12
S'word: in, index: 7'
p47
sbatp48
Rp49
(dp50
g12
Vprep
p51
sbatp52
Rp53
(dp54
g12
S'word: up, index: 6'
p55
sbatp56
Rp57
(dp58
g12
Vadvmod
p59
sbatp60
Rp61
(dp62
g12
S'word: was, index: 5'
p63
sbatp64
Rp65
(dp66
g12
Vccomp
p67
sbag0
(g1
g2
(lp68
g0
(g1
g2
(lp69
g0
(g1
g2
(lp70
(lp71
S'word: that, index: 11'
p72
aatp73
Rp74
(dp75
g12
Vnsubjpass
p76
sbag0
(g1
g2
(lp77
(lp78
S"word: 's, index: 12"
p79
aatp80
Rp81
(dp82
g12
Vauxpass
p83
sbag0
(g1
g2
(lp84
g0
(g1
g2
(lp85
g0
(g1
g2
(lp86
g0
(g1
g2
(lp87
g0
(g1
g2
(lp88
(lp89
S'word: the, index: 17'
p90
aatp91
Rp92
(dp93
g12
Vdet
p94
sbatp95
Rp96
(dp97
g12
S'word: car, index: 18'
p98
sbatp99
Rp100
(dp101
g12
Vappos
p102
sbag0
(g1
g2
(lp103
(lp104
S'word: the, index: 14'
p105
aatp106
Rp107
(dp108
g12
Vdet
p109
sbatp110
Rp111
(dp112
g12
S'word: feed, index: 15'
p113
sbatp114
Rp115
(dp116
g12
Vdobj
p117
sbatp118
Rp119
(dp120
g12
S'word: called, index: 13'
p121
sbatp122
Rp123
(dp124
g12
Vconj
p125
sbatp126
Rp127
(dp128
g12
S'word: know, index: 2'
p129
sbatp130
Rp131
(dp132
g12
S'id: 0'
p133
sbag0
(g1
g2
(lp134
g0
(g1
g2
(lp135
g0
(g1
g2
(lp136
g0
(g1
g2
(lp137
g0
(g1
g2
(lp138
(lp139
S'word: key, index: 19'
p140
aatp141
Rp142
(dp143
g12
Vappos
p144
sbag0
(g1
g2
(lp145
(lp146
S'word: my, index: 4'
p147
aatp148
Rp149
(dp150
g12
Vposs
p151
sbag0
(g1
g2
(lp152
g0
(g1
g2
(lp153
g0
(g1
g2
(lp154
(lp155
S'word: my, index: 7'
p156
aatp157
Rp158
(dp159
g12
Vposs
p160
sbatp161
Rp162
(dp163
g12
S'word: car, index: 8'
p164
sbatp165
Rp166
(dp167
g12
Vappos
p168
sbag0
(g1
g2
(lp169
g0
(g1
g2
(lp170
g0
(g1
g2
(lp171
(lp172
S'word: my, index: 10'
p173
aatp174
Rp175
(dp176
g12
Vposs
p177
sbag0
(g1
g2
(lp178
g0
(g1
g2
(lp179
g0
(g1
g2
(lp180
(lp181
S'word: my, index: 13'
p182
aatp183
Rp184
(dp185
g12
Vposs
p186
sbag0
(g1
g2
(lp187
g0
(g1
g2
(lp188
g0
(g1
g2
(lp189
(lp190
S'word: my, index: 16'
p191
aatp192
Rp193
(dp194
g12
Vposs
p195
sbatp196
Rp197
(dp198
g12
S'word: key, index: 17'
p199
sbatp200
Rp201
(dp202
g12
Vappos
p203
sbatp204
Rp205
(dp206
g12
S'word: no, index: 14'
p207
sbatp208
Rp209
(dp210
g12
Vappos
p211
sbatp212
Rp213
(dp214
g12
S'word: no, index: 11'
p215
sbatp216
Rp217
(dp218
g12
Vappos
p219
sbatp220
Rp221
(dp222
g12
S'word: care, index: 5'
p223
sbatp224
Rp225
(dp226
g12
Vnsubj
p227
sbag0
(g1
g2
(lp228
(lp229
S'word: that, index: 22'
p230
aatp231
Rp232
(dp233
g12
Vprep
p234
sbag0
(g1
g2
(lp235
g0
(g1
g2
(lp236
g0
(g1
g2
(lp237
(lp238
S'word: Right, index: 1'
p239
aatp240
Rp241
(dp242
g12
Vadvmod
p243
sbatp244
Rp245
(dp246
g12
S'word: there, index: 2'
p247
sbatp248
Rp249
(dp250
g12
Vadvmod
p251
sbatp252
Rp253
(dp254
g12
S'word: knows, index: 20'
p255
sbatp256
Rp257
(dp258
g12
S'id: 1'
p259
sbag0
(g1
g2
(lp260
g0
(g1
g2
(lp261
g0
(g1
g2
(lp262
(lp263
S'word: The, index: 1'
p264
aatp265
Rp266
(dp267
g12
Vdep
p268
sbag0
(g1
g2
(lp269
g0
(g1
g2
(lp270
g0
(g1
g2
(lp271
(lp272
S'word: the, index: 4'
p273
aatp274
Rp275
(dp276
g12
Vadvmod
p277
sbatp278
Rp279
(dp280
g12
S'word: how, index: 5'
p281
sbatp282
Rp283
(dp284
g12
Vdep
p285
sbatp286
Rp287
(dp288
g12
S'word: how, index: 2'
p289
sbatp290
Rp291
(dp292
g12
S'id: 2'
p293
sbag0
(g1
g2
(lp294
g0
(g1
g2
(lp295
g0
(g1
g2
(lp296
g0
(g1
g2
(lp297
g0
(g1
g2
(lp298
(lp299
S'word: no, index: 8'
p300
aatp301
Rp302
(dp303
g12
Vneg
p304
sbatp305
Rp306
(dp307
g12
S'word: care, index: 9'
p308
sbatp309
Rp310
(dp311
g12
Vappos
p312
sbag0
(g1
g2
(lp313
(lp314
S'word: And, index: 1'
p315
aatp316
Rp317
(dp318
g12
Vcc
p319
sbag0
(g1
g2
(lp320
(lp321
S'word: this, index: 2'
p322
aatp323
Rp324
(dp325
g12
Vdet
p326
sbag0
(g1
g2
(lp327
g0
(g1
g2
(lp328
g0
(g1
g2
(lp329
(lp330
S'word: this, index: 5'
p331
aatp332
Rp333
(dp334
g12
Vdet
p335
sbatp336
Rp337
(dp338
g12
S'word: car, index: 6'
p339
sbatp340
Rp341
(dp342
g12
Vappos
p343
sbatp344
Rp345
(dp346
g12
S'word: thing, index: 3'
p347
sbatp348
Rp349
(dp350
g12
S'id: 3'
p351
sbag0
(g1
g2
(lp352
g0
(g1
g2
(lp353
g0
(g1
g2
(lp354
g0
(g1
g2
(lp355
g0
(g1
g2
(lp356
(lp357
S'word: I, index: 1'
p358
aatp359
Rp360
(dp361
g12
Vnsubj
p362
sbag0
(g1
g2
(lp363
g0
(g1
g2
(lp364
g0
(g1
g2
(lp365
(lp366
S'word: this, index: 3'
p367
aatp368
Rp369
(dp370
g12
Vdet
p371
sbag0
(g1
g2
(lp372
(lp373
S'word: guy, index: 4'
p374
aatp375
Rp376
(dp377
g12
Vnn
p378
sbag0
(g1
g2
(lp379
g0
(g1
g2
(lp380
g0
(g1
g2
(lp381
(lp382
S'word: there, index: 7'
p383
aatp384
Rp385
(dp386
g12
Vpobj
p387
sbatp388
Rp389
(dp390
g12
S'word: in, index: 6'
p391
sbatp392
Rp393
(dp394
g12
Vprep
p395
sbatp396
Rp397
(dp398
g12
S'word: right, index: 5'
p399
sbatp400
Rp401
(dp402
g12
Vdobj
p403
sbatp404
Rp405
(dp406
g12
S'word: know, index: 2'
p407
sbatp408
Rp409
(dp410
g12
Vccomp
p411
sbag0
(g1
g2
(lp412
(lp413
S'word: that, index: 9'
p414
aatp415
Rp416
(dp417
g12
Vnsubj
p418
sbag0
(g1
g2
(lp419
(lp420
S"word: 's, index: 10"
p421
aatp422
Rp423
(dp424
g12
Vcop
p425
sbatp426
Rp427
(dp428
g12
S'word: car, index: 11'
p429
sbatp430
Rp431
(dp432
g12
S'id: 4'
p433
sbag0
(g1
g2
(lp434
g0
(g1
g2
(lp435
g0
(g1
g2
(lp436
(lp437
S'word: I, index: 1'
p438
aatp439
Rp440
(dp441
g12
Vnsubj
p442
sbag0
(g1
g2
(lp443
g0
(g1
g2
(lp444
g0
(g1
g2
(lp445
(lp446
S'word: this, index: 3'
p447
aatp448
Rp449
(dp450
g12
Vdet
p451
sbag0
(g1
g2
(lp452
g0
(g1
g2
(lp453
g0
(g1
g2
(lp454
(lp455
S'word: that, index: 5'
p456
aatp457
Rp458
(dp459
g12
Vnsubj
p460
sbag0
(g1
g2
(lp461
(lp462
S"word: 's, index: 6"
p463
aatp464
Rp465
(dp466
g12
Vcop
p467
sbatp468
Rp469
(dp470
g12
S'word: the, index: 7'
p471
sbatp472
Rp473
(dp474
g12
Vrcmod
p475
sbatp476
Rp477
(dp478
g12
S'word: guy, index: 4'
p479
sbatp480
Rp481
(dp482
g12
Vdobj
p483
sbatp484
Rp485
(dp486
g12
S'word: know, index: 2'
p487
sbatp488
Rp489
(dp490
g12
S'id: 5'
p491
sbag0
(g1
g2
(lp492
g0
(g1
g2
(lp493
g0
(g1
g2
(lp494
g0
(g1
g2
(lp495
g0
(g1
g2
(lp496
g0
(g1
g2
(lp497
g0
(g1
g2
(lp498
(lp499
S'word: this, index: 3'
p500
aatp501
Rp502
(dp503
g12
Vdet
p504
sbag0
(g1
g2
(lp505
g0
(g1
g2
(lp506
g0
(g1
g2
(lp507
(lp508
S'word: that, index: 5'
p509
aatp510
Rp511
(dp512
g12
Vnsubj
p513
sbag0
(g1
g2
(lp514
(lp515
S"word: 's, index: 6"
p516
aatp517
Rp518
(dp519
g12
Vaux
p520
sbatp521
Rp522
(dp523
g12
S'word: ca, index: 7'
p524
sbatp525
Rp526
(dp527
g12
Vrcmod
p528
sbatp529
Rp530
(dp531
g12
S'word: guy, index: 4'
p532
sbatp533
Rp534
(dp535
g12
Vdobj
p536
sbag0
(g1
g2
(lp537
(lp538
S'word: I, index: 1'
p539
aatp540
Rp541
(dp542
g12
Vnsubj
p543
sbatp544
Rp545
(dp546
g12
S'word: knew, index: 2'
p547
sbatp548
Rp549
(dp550
g12
Vccomp
p551
sbag0
(g1
g2
(lp552
g0
(g1
g2
(lp553
g0
(g1
g2
(lp554
(lp555
S'word: no, index: 9'
p556
aatp557
Rp558
(dp559
g12
Vdep
p560
sbatp561
Rp562
(dp563
g12
S'word: that, index: 10'
p564
sbatp565
Rp566
(dp567
g12
Vnsubj
p568
sbag0
(g1
g2
(lp569
(lp570
S"word: 's, index: 11"
p571
aatp572
Rp573
(dp574
g12
Vcop
p575
sbag0
(g1
g2
(lp576
(lp577
S'word: a, index: 12'
p578
aatp579
Rp580
(dp581
g12
Vdet
p582
sbag0
(g1
g2
(lp583
(lp584
S'word: no, index: 15'
p585
aatp586
Rp587
(dp588
g12
Vappos
p589
sbatp590
Rp591
(dp592
g12
S'word: cow, index: 13'
p593
sbatp594
Rp595
(dp596
g12
S'id: 6'
p597
sbag0
(g1
g2
(lp598
g0
(g1
g2
(lp599
g0
(g1
g2
(lp600
(lp601
S'word: I, index: 1'
p602
aatp603
Rp604
(dp605
g12
Vnsubj
p606
sbag0
(g1
g2
(lp607
g0
(g1
g2
(lp608
g0
(g1
g2
(lp609
g0
(g1
g2
(lp610
g0
(g1
g2
(lp611
(lp612
S'word: there, index: 5'
p613
aatp614
Rp615
(dp616
g12
Vpobj
p617
sbatp618
Rp619
(dp620
g12
S'word: in, index: 4'
p621
sbatp622
Rp623
(dp624
g12
Vprep
p625
sbatp626
Rp627
(dp628
g12
S'word: this, index: 3'
p629
sbatp630
Rp631
(dp632
g12
Vdobj
p633
sbatp634
Rp635
(dp636
g12
S'word: know, index: 2'
p637
sbatp638
Rp639
(dp640
g12
S'id: 7'
p641
sbag0
(g1
g2
(lp642
g0
(g1
g2
(lp643
g0
(g1
g2
(lp644
(lp645
S'word: This, index: 1'
p646
aatp647
Rp648
(dp649
g12
Vdet
p650
sbag0
(g1
g2
(lp651
g0
(g1
g2
(lp652
g0
(g1
g2
(lp653
g0
(g1
g2
(lp654
g0
(g1
g2
(lp655
g0
(g1
g2
(lp656
g0
(g1
g2
(lp657
g0
(g1
g2
(lp658
g0
(g1
g2
(lp659
(lp660
S'word: no, index: 13'
p661
aatp662
Rp663
(dp664
g12
Vadvmod
p665
sbag0
(g1
g2
(lp666
(lp667
S'word: cow, index: 15'
p668
aatp669
Rp670
(dp671
g12
Vappos
p672
sbatp673
Rp674
(dp675
g12
S'word: car, index: 12'
p676
sbatp677
Rp678
(dp679
g12
Vappos
p680
sbatp681
Rp682
(dp683
g12
S'word: car, index: 10'
p684
sbatp685
Rp686
(dp687
g12
Vdobj
p688
sbag0
(g1
g2
(lp689
(lp690
S'word: what, index: 6'
p691
aatp692
Rp693
(dp694
g12
Vdobj
p695
sbag0
(g1
g2
(lp696
(lp697
S'word: he, index: 7'
p698
aatp699
Rp700
(dp701
g12
Vnsubj
p702
sbatp703
Rp704
(dp705
g12
S'word: says, index: 8'
p706
sbatp707
Rp708
(dp709
g12
Vccomp
p710
sbag0
(g1
g2
(lp711
(lp712
S"word: 's, index: 3"
p713
aatp714
Rp715
(dp716
g12
Vccomp
p717
sbatp718
Rp719
(dp720
g12
S'word: forgot, index: 5'
p721
sbatp722
Rp723
(dp724
g12
Vccomp
p725
sbatp726
Rp727
(dp728
g12
S'word: guy, index: 2'
p729
sbatp730
Rp731
(dp732
g12
S'id: 8'
p733
sbatp734
Rp735
(dp736
g12
S'sentences'
p737
sb.