ccopy_reg
_reconstructor
p0
(cnltk.tree
Tree
p1
c__builtin__
list
p2
(lp3
g0
(g1
g2
(lp4
g0
(g1
g2
(lp5
g0
(g1
g2
(lp6
Vthey
p7
atp8
Rp9
(dp10
S'_label'
p11
S'start: 3'
p12
sbatp13
Rp14
(dp15
g11
S'sent: 1'
p16
sbag0
(g1
g2
(lp17
g0
(g1
g2
(lp18
VThey
p19
atp20
Rp21
(dp22
g11
S'start: 1'
p23
sbatp24
Rp25
(dp26
g11
S'sent: 3'
p27
sbatp28
Rp29
(dp30
g11
S'id: 1'
p31
sbag0
(g1
g2
(lp32
g0
(g1
g2
(lp33
g0
(g1
g2
(lp34
Va a lion in a cage
p35
atp36
Rp37
(dp38
g11
S'start: 2'
p39
sbatp40
Rp41
(dp42
g11
S'sent: 2'
p43
sbag0
(g1
g2
(lp44
g0
(g1
g2
(lp45
Vthe lion
p46
atp47
Rp48
(dp49
g11
S'start: 8'
p50
sbatp51
Rp52
(dp53
g11
S'sent: 13'
p54
sbag0
(g1
g2
(lp55
g0
(g1
g2
(lp56
Vthe lion
p57
atp58
Rp59
(dp60
g11
S'start: 18'
p61
sbatp62
Rp63
(dp64
g11
S'sent: 13'
p65
sbag0
(g1
g2
(lp66
g0
(g1
g2
(lp67
Vthe lion
p68
atp69
Rp70
(dp71
g11
S'start: 22'
p72
sbatp73
Rp74
(dp75
g11
S'sent: 13'
p76
sbatp77
Rp78
(dp79
g11
S'id: 3'
p80
sbag0
(g1
g2
(lp81
g0
(g1
g2
(lp82
g0
(g1
g2
(lp83
Va man with a tuxedo on
p84
atp85
Rp86
(dp87
g11
S'start: 10'
p88
sbatp89
Rp90
(dp91
g11
S'sent: 2'
p92
sbag0
(g1
g2
(lp93
g0
(g1
g2
(lp94
Vthe man
p95
atp96
Rp97
(dp98
g11
S'start: 13'
p99
sbatp100
Rp101
(dp102
g11
S'sent: 3'
p103
sbag0
(g1
g2
(lp104
g0
(g1
g2
(lp105
Vhis
p106
atp107
Rp108
(dp109
g11
S'start: 29'
p110
sbatp111
Rp112
(dp113
g11
S'sent: 3'
p114
sbatp115
Rp116
(dp117
g11
S'id: 5'
p118
sbag0
(g1
g2
(lp119
g0
(g1
g2
(lp120
g0
(g1
g2
(lp121
Va , a wire running over the thing
p122
atp123
Rp124
(dp125
g11
S'start: 3'
p126
sbatp127
Rp128
(dp129
g11
S'sent: 3'
p130
sbag0
(g1
g2
(lp131
g0
(g1
g2
(lp132
Va
p133
atp134
Rp135
(dp136
g11
S'start: 3'
p137
sbatp138
Rp139
(dp140
g11
S'sent: 3'
p141
sbag0
(g1
g2
(lp142
g0
(g1
g2
(lp143
Va wire running over the thing
p144
atp145
Rp146
(dp147
g11
S'start: 5'
p148
sbatp149
Rp150
(dp151
g11
S'sent: 3'
p152
sbag0
(g1
g2
(lp153
g0
(g1
g2
(lp154
Vthe wire
p155
atp156
Rp157
(dp158
g11
S'start: 19'
p159
sbatp160
Rp161
(dp162
g11
S'sent: 3'
p163
sbag0
(g1
g2
(lp164
g0
(g1
g2
(lp165
Va , a , a bar in his hand
p166
atp167
Rp168
(dp169
g11
S'start: 22'
p170
sbatp171
Rp172
(dp173
g11
S'sent: 3'
p174
sbag0
(g1
g2
(lp175
g0
(g1
g2
(lp176
Va
p177
atp178
Rp179
(dp180
g11
S'start: 22'
p181
sbatp182
Rp183
(dp184
g11
S'sent: 3'
p185
sbag0
(g1
g2
(lp186
g0
(g1
g2
(lp187
Va , a bar in his hand
p188
atp189
Rp190
(dp191
g11
S'start: 24'
p192
sbatp193
Rp194
(dp195
g11
S'sent: 3'
p196
sbag0
(g1
g2
(lp197
g0
(g1
g2
(lp198
Va
p199
atp200
Rp201
(dp202
g11
S'start: 24'
p203
sbatp204
Rp205
(dp206
g11
S'sent: 3'
p207
sbag0
(g1
g2
(lp208
g0
(g1
g2
(lp209
Va bar in his hand
p210
atp211
Rp212
(dp213
g11
S'start: 26'
p214
sbatp215
Rp216
(dp217
g11
S'sent: 3'
p218
sbag0
(g1
g2
(lp219
g0
(g1
g2
(lp220
Vit
p221
atp222
Rp223
(dp224
g11
S'start: 7'
p225
sbatp226
Rp227
(dp228
g11
S'sent: 4'
p229
sbag0
(g1
g2
(lp230
g0
(g1
g2
(lp231
Vtwo
p232
atp233
Rp234
(dp235
g11
S'start: 9'
p236
sbatp237
Rp238
(dp239
g11
S'sent: 4'
p240
sbag0
(g1
g2
(lp241
g0
(g1
g2
(lp242
Vtwo
p243
atp244
Rp245
(dp246
g11
S'start: 34'
p247
sbatp248
Rp249
(dp250
g11
S'sent: 13'
p251
sbatp252
Rp253
(dp254
g11
S'id: 8'
p255
sbag0
(g1
g2
(lp256
g0
(g1
g2
(lp257
g0
(g1
g2
(lp258
Vhis hand
p259
atp260
Rp261
(dp262
g11
S'start: 29'
p263
sbatp264
Rp265
(dp266
g11
S'sent: 3'
p267
sbag0
(g1
g2
(lp268
g0
(g1
g2
(lp269
Vhis hand
p270
atp271
Rp272
(dp273
g11
S'start: 13'
p274
sbatp275
Rp276
(dp277
g11
S'sent: 8'
p278
sbag0
(g1
g2
(lp279
g0
(g1
g2
(lp280
Vhis hand that he
p281
atp282
Rp283
(dp284
g11
S'start: 25'
p285
sbatp286
Rp287
(dp288
g11
S'sent: 9'
p289
sbatp290
Rp291
(dp292
g11
S'id: 19'
p293
sbag0
(g1
g2
(lp294
g0
(g1
g2
(lp295
g0
(g1
g2
(lp296
Vthe lungly lady
p297
atp298
Rp299
(dp300
g11
S'start: 18'
p301
sbatp302
Rp303
(dp304
g11
S'sent: 4'
p305
sbag0
(g1
g2
(lp306
g0
(g1
g2
(lp307
Vshe
p308
atp309
Rp310
(dp311
g11
S'start: 30'
p312
sbatp313
Rp314
(dp315
g11
S'sent: 4'
p316
sbatp317
Rp318
(dp319
g11
S'id: 28'
p320
sbag0
(g1
g2
(lp321
g0
(g1
g2
(lp322
g0
(g1
g2
(lp323
Va horse
p324
atp325
Rp326
(dp327
g11
S'start: 22'
p328
sbatp329
Rp330
(dp331
g11
S'sent: 4'
p332
sbag0
(g1
g2
(lp333
g0
(g1
g2
(lp334
Va
p335
atp336
Rp337
(dp338
g11
S'start: 32'
p339
sbatp340
Rp341
(dp342
g11
S'sent: 4'
p343
sbag0
(g1
g2
(lp344
g0
(g1
g2
(lp345
Va , a plower stickig
p346
atp347
Rp348
(dp349
g11
S'start: 6'
p350
sbatp351
Rp352
(dp353
g11
S'sent: 12'
p354
sbatp355
Rp356
(dp357
g11
S'id: 29'
p358
sbag0
(g1
g2
(lp359
g0
(g1
g2
(lp360
g0
(g1
g2
(lp361
Va little ballerina
p362
atp363
Rp364
(dp365
g11
S'start: 35'
p366
sbatp367
Rp368
(dp369
g11
S'sent: 4'
p370
sbag0
(g1
g2
(lp371
g0
(g1
g2
(lp372
Vthe ballerina
p373
atp374
Rp375
(dp376
g11
S'start: 2'
p377
sbatp378
Rp379
(dp380
g11
S'sent: 11'
p381
sbag0
(g1
g2
(lp382
g0
(g1
g2
(lp383
Vshe
p384
atp385
Rp386
(dp387
g11
S'start: 5'
p388
sbatp389
Rp390
(dp391
g11
S'sent: 11'
p392
sbatp393
Rp394
(dp395
g11
S'id: 34'
p396
sbag0
(g1
g2
(lp397
g0
(g1
g2
(lp398
g0
(g1
g2
(lp399
Vthe clown
p400
atp401
Rp402
(dp403
g11
S'start: 2'
p404
sbatp405
Rp406
(dp407
g11
S'sent: 5'
p408
sbag0
(g1
g2
(lp409
g0
(g1
g2
(lp410
Vhe
p411
atp412
Rp413
(dp414
g11
S'start: 6'
p415
sbatp416
Rp417
(dp418
g11
S'sent: 5'
p419
sbag0
(g1
g2
(lp420
g0
(g1
g2
(lp421
Vthe clown
p422
atp423
Rp424
(dp425
g11
S'start: 22'
p426
sbatp427
Rp428
(dp429
g11
S'sent: 7'
p430
sbag0
(g1
g2
(lp431
g0
(g1
g2
(lp432
Vthe clown
p433
atp434
Rp435
(dp436
g11
S'start: 29'
p437
sbatp438
Rp439
(dp440
g11
S'sent: 7'
p441
sbag0
(g1
g2
(lp442
g0
(g1
g2
(lp443
VThe clown
p444
atp445
Rp446
(dp447
g11
S'start: 1'
p448
sbatp449
Rp450
(dp451
g11
S'sent: 9'
p452
sbag0
(g1
g2
(lp453
g0
(g1
g2
(lp454
Vhis
p455
atp456
Rp457
(dp458
g11
S'start: 17'
p459
sbatp460
Rp461
(dp462
g11
S'sent: 9'
p463
sbag0
(g1
g2
(lp464
g0
(g1
g2
(lp465
Vhis
p466
atp467
Rp468
(dp469
g11
S'start: 25'
p470
sbatp471
Rp472
(dp473
g11
S'sent: 9'
p474
sbag0
(g1
g2
(lp475
g0
(g1
g2
(lp476
Vhe
p477
atp478
Rp479
(dp480
g11
S'start: 28'
p481
sbatp482
Rp483
(dp484
g11
S'sent: 9'
p485
sbag0
(g1
g2
(lp486
g0
(g1
g2
(lp487
VHe
p488
atp489
Rp490
(dp491
g11
S'start: 1'
p492
sbatp493
Rp494
(dp495
g11
S'sent: 10'
p496
sbag0
(g1
g2
(lp497
g0
(g1
g2
(lp498
Vthe clown
p499
atp500
Rp501
(dp502
g11
S'start: 2'
p503
sbatp504
Rp505
(dp506
g11
S'sent: 12'
p507
sbag0
(g1
g2
(lp508
g0
(g1
g2
(lp509
Vhis
p510
atp511
Rp512
(dp513
g11
S'start: 12'
p514
sbatp515
Rp516
(dp517
g11
S'sent: 12'
p518
sbatp519
Rp520
(dp521
g11
S'id: 35'
p522
sbag0
(g1
g2
(lp523
g0
(g1
g2
(lp524
g0
(g1
g2
(lp525
Vsome popcorn
p526
atp527
Rp528
(dp529
g11
S'start: 11'
p530
sbatp531
Rp532
(dp533
g11
S'sent: 5'
p534
sbag0
(g1
g2
(lp535
g0
(g1
g2
(lp536
Vit
p537
atp538
Rp539
(dp540
g11
S'start: 3'
p541
sbatp542
Rp543
(dp544
g11
S'sent: 6'
p545
sbatp546
Rp547
(dp548
g11
S'id: 38'
p549
sbag0
(g1
g2
(lp550
g0
(g1
g2
(lp551
g0
(g1
g2
(lp552
VSeem like it
p553
atp554
Rp555
(dp556
g11
S'start: 1'
p557
sbatp558
Rp559
(dp560
g11
S'sent: 6'
p561
sbag0
(g1
g2
(lp562
g0
(g1
g2
(lp563
Va lady
p564
atp565
Rp566
(dp567
g11
S'start: 5'
p568
sbatp569
Rp570
(dp571
g11
S'sent: 6'
p572
sbag0
(g1
g2
(lp573
g0
(g1
g2
(lp574
Vhis lady
p575
atp576
Rp577
(dp578
g11
S'start: 5'
p579
sbatp580
Rp581
(dp582
g11
S'sent: 8'
p583
sbatp584
Rp585
(dp586
g11
S'id: 42'
p587
sbag0
(g1
g2
(lp588
g0
(g1
g2
(lp589
g0
(g1
g2
(lp590
Va lady , and a baby
p591
atp592
Rp593
(dp594
g11
S'start: 5'
p595
sbatp596
Rp597
(dp598
g11
S'sent: 6'
p599
sbag0
(g1
g2
(lp600
g0
(g1
g2
(lp601
Vhis lady and a baby
p602
atp603
Rp604
(dp605
g11
S'start: 5'
p606
sbatp607
Rp608
(dp609
g11
S'sent: 8'
p610
sbatp611
Rp612
(dp613
g11
S'id: 45'
p614
sbag0
(g1
g2
(lp615
g0
(g1
g2
(lp616
g0
(g1
g2
(lp617
Va baby
p618
atp619
Rp620
(dp621
g11
S'start: 9'
p622
sbatp623
Rp624
(dp625
g11
S'sent: 6'
p626
sbag0
(g1
g2
(lp627
g0
(g1
g2
(lp628
Va baby
p629
atp630
Rp631
(dp632
g11
S'start: 8'
p633
sbatp634
Rp635
(dp636
g11
S'sent: 8'
p637
sbatp638
Rp639
(dp640
g11
S'id: 47'
p641
sbag0
(g1
g2
(lp642
g0
(g1
g2
(lp643
g0
(g1
g2
(lp644
Va man
p645
atp646
Rp647
(dp648
g11
S'start: 7'
p649
sbatp650
Rp651
(dp652
g11
S'sent: 7'
p653
sbag0
(g1
g2
(lp654
g0
(g1
g2
(lp655
Vhis
p656
atp657
Rp658
(dp659
g11
S'start: 10'
p660
sbatp661
Rp662
(dp663
g11
S'sent: 7'
p664
sbag0
(g1
g2
(lp665
g0
(g1
g2
(lp666
Va man
p667
atp668
Rp669
(dp670
g11
S'start: 13'
p671
sbatp672
Rp673
(dp674
g11
S'sent: 7'
p675
sbag0
(g1
g2
(lp676
g0
(g1
g2
(lp677
Vhis
p678
atp679
Rp680
(dp681
g11
S'start: 5'
p682
sbatp683
Rp684
(dp685
g11
S'sent: 8'
p686
sbatp687
Rp688
(dp689
g11
S'id: 51'
p690
sbag0
(g1
g2
(lp691
g0
(g1
g2
(lp692
g0
(g1
g2
(lp693
Vhis daughter
p694
atp695
Rp696
(dp697
g11
S'start: 10'
p698
sbatp699
Rp700
(dp701
g11
S'sent: 7'
p702
sbag0
(g1
g2
(lp703
g0
(g1
g2
(lp704
Vshe
p705
atp706
Rp707
(dp708
g11
S'start: 25'
p709
sbatp710
Rp711
(dp712
g11
S'sent: 7'
p713
sbatp714
Rp715
(dp716
g11
S'id: 53'
p717
sbag0
(g1
g2
(lp718
g0
(g1
g2
(lp719
g0
(g1
g2
(lp720
VThe young man with his lady and a baby
p721
atp722
Rp723
(dp724
g11
S'start: 1'
p725
sbatp726
Rp727
(dp728
g11
S'sent: 8'
p729
sbag0
(g1
g2
(lp730
g0
(g1
g2
(lp731
Vhe
p732
atp733
Rp734
(dp735
g11
S'start: 11'
p736
sbatp737
Rp738
(dp739
g11
S'sent: 8'
p740
sbag0
(g1
g2
(lp741
g0
(g1
g2
(lp742
Vhis
p743
atp744
Rp745
(dp746
g11
S'start: 13'
p747
sbatp748
Rp749
(dp750
g11
S'sent: 8'
p751
sbag0
(g1
g2
(lp752
g0
(g1
g2
(lp753
Vhe
p754
atp755
Rp756
(dp757
g11
S'start: 16'
p758
sbatp759
Rp760
(dp761
g11
S'sent: 8'
p762
sbatp763
Rp764
(dp765
g11
S'id: 61'
p766
sbag0
(g1
g2
(lp767
g0
(g1
g2
(lp768
g0
(g1
g2
(lp769
Va little short dress
p770
atp771
Rp772
(dp773
g11
S'start: 7'
p774
sbatp775
Rp776
(dp777
g11
S'sent: 11'
p778
sbag0
(g1
g2
(lp779
g0
(g1
g2
(lp780
Vit
p781
atp782
Rp783
(dp784
g11
S'start: 15'
p785
sbatp786
Rp787
(dp788
g11
S'sent: 11'
p789
sbatp790
Rp791
(dp792
g11
S'id: 91'
p793
sbag0
(g1
g2
(lp794
g0
(g1
g2
(lp795
g0
(g1
g2
(lp796
Va
p797
atp798
Rp799
(dp800
g11
S'start: 6'
p801
sbatp802
Rp803
(dp804
g11
S'sent: 12'
p805
sbag0
(g1
g2
(lp806
g0
(g1
g2
(lp807
Va plower stickig
p808
atp809
Rp810
(dp811
g11
S'start: 8'
p812
sbatp813
Rp814
(dp815
g11
S'sent: 12'
p816
sbatp817
Rp818
(dp819
g11
S'id: 95'
p820
sbag0
(g1
g2
(lp821
g0
(g1
g2
(lp822
g0
(g1
g2
(lp823
Vthe man in the cage with the lion
p824
atp825
Rp826
(dp827
g11
S'start: 2'
p828
sbatp829
Rp830
(dp831
g11
S'sent: 13'
p832
sbag0
(g1
g2
(lp833
g0
(g1
g2
(lp834
Vhe
p835
atp836
Rp837
(dp838
g11
S'start: 11'
p839
sbatp840
Rp841
(dp842
g11
S'sent: 13'
p843
sbag0
(g1
g2
(lp844
g0
(g1
g2
(lp845
Vhis
p846
atp847
Rp848
(dp849
g11
S'start: 26'
p850
sbatp851
Rp852
(dp853
g11
S'sent: 13'
p854
sbatp855
Rp856
(dp857
g11
S'id: 100'
p858
sbag0
(g1
g2
(lp859
g0
(g1
g2
(lp860
g0
(g1
g2
(lp861
Vhis vye
p862
atp863
Rp864
(dp865
g11
S'start: 26'
p866
sbatp867
Rp868
(dp869
g11
S'sent: 13'
p870
sbag0
(g1
g2
(lp871
g0
(g1
g2
(lp872
Vhis
p873
atp874
Rp875
(dp876
g11
S'start: 33'
p877
sbatp878
Rp879
(dp880
g11
S'sent: 13'
p881
sbatp882
Rp883
(dp884
g11
S'id: 107'
p885
sbatp886
Rp887
(dp888
g11
S'coreferences'
p889
sb.