ccopy_reg
_reconstructor
p0
(cnltk.tree
Tree
p1
c__builtin__
list
p2
(lp3
g0
(g1
g2
(lp4
g0
(g1
g2
(lp5
g0
(g1
g2
(lp6
VI
p7
atp8
Rp9
(dp10
S'_label'
p11
S'start: 1'
p12
sbatp13
Rp14
(dp15
g11
S'sent: 2'
p16
sbag0
(g1
g2
(lp17
g0
(g1
g2
(lp18
VI
p19
atp20
Rp21
(dp22
g11
S'start: 4'
p23
sbatp24
Rp25
(dp26
g11
S'sent: 5'
p27
sbag0
(g1
g2
(lp28
g0
(g1
g2
(lp29
VI
p30
atp31
Rp32
(dp33
g11
S'start: 13'
p34
sbatp35
Rp36
(dp37
g11
S'sent: 5'
p38
sbag0
(g1
g2
(lp39
g0
(g1
g2
(lp40
VI
p41
atp42
Rp43
(dp44
g11
S'start: 2'
p45
sbatp46
Rp47
(dp48
g11
S'sent: 6'
p49
sbatp50
Rp51
(dp52
g11
S'id: 2'
p53
sbag0
(g1
g2
(lp54
g0
(g1
g2
(lp55
g0
(g1
g2
(lp56
Va cookie jar
p57
atp58
Rp59
(dp60
g11
S'start: 6'
p61
sbatp62
Rp63
(dp64
g11
S'sent: 2'
p65
sbag0
(g1
g2
(lp66
g0
(g1
g2
(lp67
Vthe cookie jar
p68
atp69
Rp70
(dp71
g11
S'start: 8'
p72
sbatp73
Rp74
(dp75
g11
S'sent: 7'
p76
sbag0
(g1
g2
(lp77
g0
(g1
g2
(lp78
Vit
p79
atp80
Rp81
(dp82
g11
S'start: 3'
p83
sbatp84
Rp85
(dp86
g11
S'sent: 8'
p87
sbatp88
Rp89
(dp90
g11
S'id: 4'
p91
sbag0
(g1
g2
(lp92
g0
(g1
g2
(lp93
g0
(g1
g2
(lp94
VThat lady
p95
atp96
Rp97
(dp98
g11
S'start: 1'
p99
sbatp100
Rp101
(dp102
g11
S'sent: 3'
p103
sbag0
(g1
g2
(lp104
g0
(g1
g2
(lp105
Vthe lady 's
p106
atp107
Rp108
(dp109
g11
S'start: 2'
p110
sbatp111
Rp112
(dp113
g11
S'sent: 4'
p114
sbag0
(g1
g2
(lp115
g0
(g1
g2
(lp116
Vshe
p117
atp118
Rp119
(dp120
g11
S'start: 12'
p121
sbatp122
Rp123
(dp124
g11
S'sent: 4'
p125
sbatp126
Rp127
(dp128
g11
S'id: 7'
p129
sbag0
(g1
g2
(lp130
g0
(g1
g2
(lp131
g0
(g1
g2
(lp132
Vthe girl
p133
atp134
Rp135
(dp136
g11
S'start: 12'
p137
sbatp138
Rp139
(dp140
g11
S'sent: 3'
p141
sbag0
(g1
g2
(lp142
g0
(g1
g2
(lp143
Vher
p144
atp145
Rp146
(dp147
g11
S'start: 17'
p148
sbatp149
Rp150
(dp151
g11
S'sent: 3'
p152
sbatp153
Rp154
(dp155
g11
S'id: 10'
p156
sbag0
(g1
g2
(lp157
g0
(g1
g2
(lp158
g0
(g1
g2
(lp159
Va
p160
atp161
Rp162
(dp163
g11
S'start: 15'
p164
sbatp165
Rp166
(dp167
g11
S'sent: 4'
p168
sbag0
(g1
g2
(lp169
g0
(g1
g2
(lp170
Vthey
p171
atp172
Rp173
(dp174
g11
S'start: 18'
p175
sbatp176
Rp177
(dp178
g11
S'sent: 5'
p179
sbag0
(g1
g2
(lp180
g0
(g1
g2
(lp181
Vthey
p182
atp183
Rp184
(dp185
g11
S'start: 25'
p186
sbatp187
Rp188
(dp189
g11
S'sent: 5'
p190
sbatp191
Rp192
(dp193
g11
S'id: 18'
p194
sbag0
(g1
g2
(lp195
g0
(g1
g2
(lp196
g0
(g1
g2
(lp197
Vhe
p198
atp199
Rp200
(dp201
g11
S'start: 6'
p202
sbatp203
Rp204
(dp205
g11
S'sent: 8'
p206
sbag0
(g1
g2
(lp207
g0
(g1
g2
(lp208
Vhis
p209
atp210
Rp211
(dp212
g11
S'start: 17'
p213
sbatp214
Rp215
(dp216
g11
S'sent: 8'
p217
sbatp218
Rp219
(dp220
g11
S'id: 33'
p221
sbag0
(g1
g2
(lp222
g0
(g1
g2
(lp223
g0
(g1
g2
(lp224
Vone cookie
p225
atp226
Rp227
(dp228
g11
S'start: 10'
p229
sbatp230
Rp231
(dp232
g11
S'sent: 8'
p233
sbag0
(g1
g2
(lp234
g0
(g1
g2
(lp235
Vthe cookie
p236
atp237
Rp238
(dp239
g11
S'start: 22'
p240
sbatp241
Rp242
(dp243
g11
S'sent: 8'
p244
sbatp245
Rp246
(dp247
g11
S'id: 34'
p248
sbag0
(g1
g2
(lp249
g0
(g1
g2
(lp250
g0
(g1
g2
(lp251
Vanother
p252
atp253
Rp254
(dp255
g11
S'start: 15'
p256
sbatp257
Rp258
(dp259
g11
S'sent: 8'
p260
sbag0
(g1
g2
(lp261
g0
(g1
g2
(lp262
Vhis sister 's
p263
atp264
Rp265
(dp266
g11
S'start: 17'
p267
sbatp268
Rp269
(dp270
g11
S'sent: 8'
p271
sbatp272
Rp273
(dp274
g11
S'id: 36'
p275
sbatp276
Rp277
(dp278
g11
S'coreferences'
p279
sb.