ccopy_reg
_reconstructor
p0
(cnltk.tree
Tree
p1
c__builtin__
list
p2
(lp3
g0
(g1
g2
(lp4
g0
(g1
g2
(lp5
g0
(g1
g2
(lp6
g0
(g1
g2
(lp7
g0
(g1
g2
(lp8
Vthat
p9
atp10
Rp11
(dp12
S'_label'
p13
VDT
p14
sbatp15
Rp16
(dp17
g13
VNP
p18
sbag0
(g1
g2
(lp19
g0
(g1
g2
(lp20
V's
p21
atp22
Rp23
(dp24
g13
VVBZ
p25
sbag0
(g1
g2
(lp26
g0
(g1
g2
(lp27
Va
p28
atp29
Rp30
(dp31
g13
VDT
p32
sbatp33
Rp34
(dp35
g13
VNP
p36
sbatp37
Rp38
(dp39
g13
VVP
p40
sbatp41
Rp42
(dp43
g13
VS
p44
sbag0
(g1
g2
(lp45
V,
p46
atp47
Rp48
(dp49
g13
V,
p50
sbag0
(g1
g2
(lp51
g0
(g1
g2
(lp52
Va
p53
atp54
Rp55
(dp56
g13
VDT
p57
sbag0
(g1
g2
(lp58
Vfamilies
p59
atp60
Rp61
(dp62
g13
VNNS
p63
sbatp64
Rp65
(dp66
g13
VNP
p67
sbag0
(g1
g2
(lp68
g0
(g1
g2
(lp69
Vare
p70
atp71
Rp72
(dp73
g13
VVBP
p74
sbag0
(g1
g2
(lp75
g0
(g1
g2
(lp76
Vat
p77
atp78
Rp79
(dp80
g13
VIN
p81
sbag0
(g1
g2
(lp82
g0
(g1
g2
(lp83
Vthe
p84
atp85
Rp86
(dp87
g13
VDT
p88
sbag0
(g1
g2
(lp89
Vcircus
p90
atp91
Rp92
(dp93
g13
VNN
p94
sbatp95
Rp96
(dp97
g13
VNP
p98
sbatp99
Rp100
(dp101
g13
VPP
p102
sbatp103
Rp104
(dp105
g13
VVP
p106
sbag0
(g1
g2
(lp107
V.
p108
atp109
Rp110
(dp111
g13
V.
p112
sbatp113
Rp114
(dp115
g13
VS
p116
sbatp117
Rp118
(dp119
g13
S'id: 0'
p120
sbag0
(g1
g2
(lp121
g0
(g1
g2
(lp122
g0
(g1
g2
(lp123
g0
(g1
g2
(lp124
VThere
p125
atp126
Rp127
(dp128
g13
VEX
p129
sbatp130
Rp131
(dp132
g13
VNP
p133
sbag0
(g1
g2
(lp134
g0
(g1
g2
(lp135
V's
p136
atp137
Rp138
(dp139
g13
VVBZ
p140
sbag0
(g1
g2
(lp141
V,
p142
atp143
Rp144
(dp145
g13
V,
p146
sbag0
(g1
g2
(lp147
g0
(g1
g2
(lp148
g0
(g1
g2
(lp149
g0
(g1
g2
(lp150
Vthere
p151
atp152
Rp153
(dp154
g13
VEX
p155
sbatp156
Rp157
(dp158
g13
VNP
p159
sbag0
(g1
g2
(lp160
g0
(g1
g2
(lp161
V's
p162
atp163
Rp164
(dp165
g13
VVBZ
p166
sbag0
(g1
g2
(lp167
g0
(g1
g2
(lp168
Va
p169
atp170
Rp171
(dp172
g13
VDT
p173
sbag0
(g1
g2
(lp174
Vclown
p175
atp176
Rp177
(dp178
g13
VNN
p179
sbatp180
Rp181
(dp182
g13
VNP
p183
sbatp184
Rp185
(dp186
g13
VVP
p187
sbatp188
Rp189
(dp190
g13
VS
p191
sbatp192
Rp193
(dp194
g13
VSBAR
p195
sbatp196
Rp197
(dp198
g13
VVP
p199
sbag0
(g1
g2
(lp200
V.
p201
atp202
Rp203
(dp204
g13
V.
p205
sbatp206
Rp207
(dp208
g13
VS
p209
sbatp210
Rp211
(dp212
g13
S'id: 1'
p213
sbag0
(g1
g2
(lp214
g0
(g1
g2
(lp215
g0
(g1
g2
(lp216
g0
(g1
g2
(lp217
g0
(g1
g2
(lp218
VThere
p219
atp220
Rp221
(dp222
g13
VEX
p223
sbatp224
Rp225
(dp226
g13
VNP
p227
sbag0
(g1
g2
(lp228
g0
(g1
g2
(lp229
V's
p230
atp231
Rp232
(dp233
g13
VVBZ
p234
sbag0
(g1
g2
(lp235
g0
(g1
g2
(lp236
Va
p237
atp238
Rp239
(dp240
g13
VDT
p241
sbatp242
Rp243
(dp244
g13
VNP
p245
sbatp246
Rp247
(dp248
g13
VVP
p249
sbatp250
Rp251
(dp252
g13
VS
p253
sbag0
(g1
g2
(lp254
V,
p255
atp256
Rp257
(dp258
g13
V,
p259
sbag0
(g1
g2
(lp260
g0
(g1
g2
(lp261
Vthere
p262
atp263
Rp264
(dp265
g13
VEX
p266
sbatp267
Rp268
(dp269
g13
VNP
p270
sbag0
(g1
g2
(lp271
g0
(g1
g2
(lp272
V's
p273
atp274
Rp275
(dp276
g13
VVBZ
p277
sbag0
(g1
g2
(lp278
g0
(g1
g2
(lp279
g0
(g1
g2
(lp280
Va
p281
atp282
Rp283
(dp284
g13
VDT
p285
sbag0
(g1
g2
(lp286
Vlion
p287
atp288
Rp289
(dp290
g13
VNN
p291
sbatp292
Rp293
(dp294
g13
VNP
p295
sbag0
(g1
g2
(lp296
Vtamer
p297
atp298
Rp299
(dp300
g13
VJJR
p301
sbatp302
Rp303
(dp304
g13
VADJP
p305
sbatp306
Rp307
(dp308
g13
VVP
p309
sbag0
(g1
g2
(lp310
V.
p311
atp312
Rp313
(dp314
g13
V.
p315
sbatp316
Rp317
(dp318
g13
VS
p319
sbatp320
Rp321
(dp322
g13
S'id: 2'
p323
sbag0
(g1
g2
(lp324
g0
(g1
g2
(lp325
g0
(g1
g2
(lp326
VAnd
p327
atp328
Rp329
(dp330
g13
VCC
p331
sbag0
(g1
g2
(lp332
g0
(g1
g2
(lp333
g0
(g1
g2
(lp334
Valso
p335
atp336
Rp337
(dp338
g13
VRB
p339
sbag0
(g1
g2
(lp340
Va
p341
atp342
Rp343
(dp344
g13
VDT
p345
sbatp346
Rp347
(dp348
g13
VNP
p349
sbag0
(g1
g2
(lp350
V,
p351
atp352
Rp353
(dp354
g13
V,
p355
sbag0
(g1
g2
(lp356
g0
(g1
g2
(lp357
Va
p358
atp359
Rp360
(dp361
g13
VDT
p362
sbatp363
Rp364
(dp365
g13
VNP
p366
sbag0
(g1
g2
(lp367
V,
p368
atp369
Rp370
(dp371
g13
V,
p372
sbag0
(g1
g2
(lp373
g0
(g1
g2
(lp374
g0
(g1
g2
(lp375
g0
(g1
g2
(lp376
Va
p377
atp378
Rp379
(dp380
g13
VDT
p381
sbag0
(g1
g2
(lp382
g0
(g1
g2
(lp383
V,
p384
atp385
Rp386
(dp387
g13
V,
p388
sbag0
(g1
g2
(lp389
g0
(g1
g2
(lp390
Va
p391
atp392
Rp393
(dp394
g13
VDT
p395
sbatp396
Rp397
(dp398
g13
VADVP
p399
sbag0
(g1
g2
(lp400
V,
p401
atp402
Rp403
(dp404
g13
V,
p405
sbatp406
Rp407
(dp408
g13
VPRN
p409
sbatp410
Rp411
(dp412
g13
VADJP
p413
sbag0
(g1
g2
(lp414
Va
p415
atp416
Rp417
(dp418
g13
VDT
p419
sbatp420
Rp421
(dp422
g13
VNP
p423
sbag0
(g1
g2
(lp424
V,
p425
atp426
Rp427
(dp428
g13
V,
p429
sbag0
(g1
g2
(lp430
g0
(g1
g2
(lp431
g0
(g1
g2
(lp432
Va
p433
atp434
Rp435
(dp436
g13
VDT
p437
sbag0
(g1
g2
(lp438
Vwoman
p439
atp440
Rp441
(dp442
g13
VNN
p443
sbatp444
Rp445
(dp446
g13
VNP
p447
sbag0
(g1
g2
(lp448
g0
(g1
g2
(lp449
Vin
p450
atp451
Rp452
(dp453
g13
VIN
p454
sbag0
(g1
g2
(lp455
g0
(g1
g2
(lp456
V,
p457
atp458
Rp459
(dp460
g13
V,
p461
sbag0
(g1
g2
(lp462
g0
(g1
g2
(lp463
g0
(g1
g2
(lp464
Vriding
p465
atp466
Rp467
(dp468
g13
VVBG
p469
sbag0
(g1
g2
(lp470
g0
(g1
g2
(lp471
Va
p472
atp473
Rp474
(dp475
g13
VDT
p476
sbag0
(g1
g2
(lp477
Vhorse
p478
atp479
Rp480
(dp481
g13
VNN
p482
sbatp483
Rp484
(dp485
g13
VNP
p486
sbatp487
Rp488
(dp489
g13
VVP
p490
sbatp491
Rp492
(dp493
g13
VS
p494
sbag0
(g1
g2
(lp495
V,
p496
atp497
Rp498
(dp499
g13
V,
p500
sbatp501
Rp502
(dp503
g13
VPRN
p504
sbag0
(g1
g2
(lp505
g0
(g1
g2
(lp506
g0
(g1
g2
(lp507
Va
p508
atp509
Rp510
(dp511
g13
VDT
p512
sbag0
(g1
g2
(lp513
Vballerina
p514
atp515
Rp516
(dp517
g13
VNN
p518
sbatp519
Rp520
(dp521
g13
VNP
p522
sbag0
(g1
g2
(lp523
g0
(g1
g2
(lp524
Vor
p525
atp526
Rp527
(dp528
g13
VCC
p529
sbag0
(g1
g2
(lp530
g0
(g1
g2
(lp531
Vwhatever
p532
atp533
Rp534
(dp535
g13
VWDT
p536
sbatp537
Rp538
(dp539
g13
VNP
p540
sbatp541
Rp542
(dp543
g13
VPP
p544
sbatp545
Rp546
(dp547
g13
VNP
p548
sbatp549
Rp550
(dp551
g13
VPP
p552
sbatp553
Rp554
(dp555
g13
VNP
p556
sbatp557
Rp558
(dp559
g13
VNP
p560
sbatp561
Rp562
(dp563
g13
VNP
p564
sbag0
(g1
g2
(lp565
V.
p566
atp567
Rp568
(dp569
g13
V.
p570
sbatp571
Rp572
(dp573
g13
VFRAG
p574
sbatp575
Rp576
(dp577
g13
S'id: 3'
p578
sbag0
(g1
g2
(lp579
g0
(g1
g2
(lp580
g0
(g1
g2
(lp581
VAnd
p582
atp583
Rp584
(dp585
g13
VCC
p586
sbag0
(g1
g2
(lp587
g0
(g1
g2
(lp588
g0
(g1
g2
(lp589
Vtype
p590
atp591
Rp592
(dp593
g13
VNN
p594
sbatp595
Rp596
(dp597
g13
VNP
p598
sbag0
(g1
g2
(lp599
g0
(g1
g2
(lp600
Vrope
p601
atp602
Rp603
(dp604
g13
VNN
p605
sbag0
(g1
g2
(lp606
g0
(g1
g2
(lp607
Vwalker
p608
atp609
Rp610
(dp611
g13
VNN
p612
sbatp613
Rp614
(dp615
g13
VNP
p616
sbatp617
Rp618
(dp619
g13
VPP
p620
sbatp621
Rp622
(dp623
g13
VNP
p624
sbag0
(g1
g2
(lp625
V.
p626
atp627
Rp628
(dp629
g13
V.
p630
sbatp631
Rp632
(dp633
g13
VFRAG
p634
sbatp635
Rp636
(dp637
g13
S'id: 4'
p638
sbag0
(g1
g2
(lp639
g0
(g1
g2
(lp640
g0
(g1
g2
(lp641
g0
(g1
g2
(lp642
g0
(g1
g2
(lp643
VThere
p644
atp645
Rp646
(dp647
g13
VEX
p648
sbatp649
Rp650
(dp651
g13
VNP
p652
sbag0
(g1
g2
(lp653
g0
(g1
g2
(lp654
V's
p655
atp656
Rp657
(dp658
g13
VVBZ
p659
sbag0
(g1
g2
(lp660
g0
(g1
g2
(lp661
Va
p662
atp663
Rp664
(dp665
g13
VDT
p666
sbatp667
Rp668
(dp669
g13
VNP
p670
sbatp671
Rp672
(dp673
g13
VVP
p674
sbatp675
Rp676
(dp677
g13
VS
p678
sbag0
(g1
g2
(lp679
V,
p680
atp681
Rp682
(dp683
g13
V,
p684
sbag0
(g1
g2
(lp685
g0
(g1
g2
(lp686
g0
(g1
g2
(lp687
Vthere
p688
atp689
Rp690
(dp691
g13
VEX
p692
sbatp693
Rp694
(dp695
g13
VNP
p696
sbag0
(g1
g2
(lp697
g0
(g1
g2
(lp698
V's
p699
atp700
Rp701
(dp702
g13
VVBZ
p703
sbag0
(g1
g2
(lp704
g0
(g1
g2
(lp705
g0
(g1
g2
(lp706
Va
p707
atp708
Rp709
(dp710
g13
VDT
p711
sbag0
(g1
g2
(lp712
Vwife
p713
atp714
Rp715
(dp716
g13
VNN
p717
sbatp718
Rp719
(dp720
g13
VNP
p721
sbag0
(g1
g2
(lp722
Vand
p723
atp724
Rp725
(dp726
g13
VCC
p727
sbag0
(g1
g2
(lp728
g0
(g1
g2
(lp729
g0
(g1
g2
(lp730
Va
p731
atp732
Rp733
(dp734
g13
VDT
p735
sbag0
(g1
g2
(lp736
Vman
p737
atp738
Rp739
(dp740
g13
VNN
p741
sbatp742
Rp743
(dp744
g13
VNP
p745
sbag0
(g1
g2
(lp746
V,
p747
atp748
Rp749
(dp750
g13
V,
p751
sbag0
(g1
g2
(lp752
g0
(g1
g2
(lp753
Va
p754
atp755
Rp756
(dp757
g13
VDT
p758
sbag0
(g1
g2
(lp759
Vman
p760
atp761
Rp762
(dp763
g13
VNN
p764
sbatp765
Rp766
(dp767
g13
VNP
p768
sbag0
(g1
g2
(lp769
Vand
p770
atp771
Rp772
(dp773
g13
VCC
p774
sbag0
(g1
g2
(lp775
g0
(g1
g2
(lp776
Va
p777
atp778
Rp779
(dp780
g13
VDT
p781
sbag0
(g1
g2
(lp782
Vwoman
p783
atp784
Rp785
(dp786
g13
VNN
p787
sbatp788
Rp789
(dp790
g13
VNP
p791
sbatp792
Rp793
(dp794
g13
VNP
p795
sbatp796
Rp797
(dp798
g13
VNP
p799
sbatp800
Rp801
(dp802
g13
VVP
p803
sbatp804
Rp805
(dp806
g13
VS
p807
sbag0
(g1
g2
(lp808
V,
p809
atp810
Rp811
(dp812
g13
V,
p813
sbag0
(g1
g2
(lp814
g0
(g1
g2
(lp815
g0
(g1
g2
(lp816
Vshe
p817
atp818
Rp819
(dp820
g13
VPRP
p821
sbatp822
Rp823
(dp824
g13
VNP
p825
sbag0
(g1
g2
(lp826
g0
(g1
g2
(lp827
V's
p828
atp829
Rp830
(dp831
g13
VVBZ
p832
sbag0
(g1
g2
(lp833
g0
(g1
g2
(lp834
Vgot
p835
atp836
Rp837
(dp838
g13
VVBN
p839
sbag0
(g1
g2
(lp840
g0
(g1
g2
(lp841
Vtwo
p842
atp843
Rp844
(dp845
g13
VCD
p846
sbag0
(g1
g2
(lp847
Vkids
p848
atp849
Rp850
(dp851
g13
VNNS
p852
sbatp853
Rp854
(dp855
g13
VNP
p856
sbatp857
Rp858
(dp859
g13
VVP
p860
sbatp861
Rp862
(dp863
g13
VVP
p864
sbatp865
Rp866
(dp867
g13
VS
p868
sbag0
(g1
g2
(lp869
Vand
p870
atp871
Rp872
(dp873
g13
VCC
p874
sbag0
(g1
g2
(lp875
g0
(g1
g2
(lp876
g0
(g1
g2
(lp877
Vhe
p878
atp879
Rp880
(dp881
g13
VPRP
p882
sbatp883
Rp884
(dp885
g13
VNP
p886
sbag0
(g1
g2
(lp887
g0
(g1
g2
(lp888
V's
p889
atp890
Rp891
(dp892
g13
VVBZ
p893
sbag0
(g1
g2
(lp894
g0
(g1
g2
(lp895
Vgot
p896
atp897
Rp898
(dp899
g13
VVBD
p900
sbag0
(g1
g2
(lp901
g0
(g1
g2
(lp902
Vanother
p903
atp904
Rp905
(dp906
g13
VDT
p907
sbatp908
Rp909
(dp910
g13
VNP
p911
sbatp912
Rp913
(dp914
g13
VVP
p915
sbatp916
Rp917
(dp918
g13
VVP
p919
sbatp920
Rp921
(dp922
g13
VS
p923
sbag0
(g1
g2
(lp924
V.
p925
atp926
Rp927
(dp928
g13
V.
p929
sbatp930
Rp931
(dp932
g13
VS
p933
sbatp934
Rp935
(dp936
g13
S'id: 5'
p937
sbag0
(g1
g2
(lp938
g0
(g1
g2
(lp939
g0
(g1
g2
(lp940
g0
(g1
g2
(lp941
VThere
p942
atp943
Rp944
(dp945
g13
VEX
p946
sbatp947
Rp948
(dp949
g13
VNP
p950
sbag0
(g1
g2
(lp951
g0
(g1
g2
(lp952
V's
p953
atp954
Rp955
(dp956
g13
VVBZ
p957
sbag0
(g1
g2
(lp958
g0
(g1
g2
(lp959
g0
(g1
g2
(lp960
Vone
p961
atp962
Rp963
(dp964
g13
VCD
p965
sbag0
(g1
g2
(lp966
V,
p967
atp968
Rp969
(dp970
g13
V,
p971
sbag0
(g1
g2
(lp972
Vtwo
p973
atp974
Rp975
(dp976
g13
VCD
p977
sbag0
(g1
g2
(lp978
V,
p979
atp980
Rp981
(dp982
g13
V,
p983
sbag0
(g1
g2
(lp984
Vthree
p985
atp986
Rp987
(dp988
g13
VCD
p989
sbag0
(g1
g2
(lp990
V,
p991
atp992
Rp993
(dp994
g13
V,
p995
sbag0
(g1
g2
(lp996
Vfour
p997
atp998
Rp999
(dp1000
g13
VCD
p1001
sbag0
(g1
g2
(lp1002
V,
p1003
atp1004
Rp1005
(dp1006
g13
V,
p1007
sbag0
(g1
g2
(lp1008
Vfive
p1009
atp1010
Rp1011
(dp1012
g13
VCD
p1013
sbag0
(g1
g2
(lp1014
Vpeople
p1015
atp1016
Rp1017
(dp1018
g13
VNNS
p1019
sbatp1020
Rp1021
(dp1022
g13
VNP
p1023
sbag0
(g1
g2
(lp1024
g0
(g1
g2
(lp1025
Vwatching
p1026
atp1027
Rp1028
(dp1029
g13
VVBG
p1030
sbag0
(g1
g2
(lp1031
g0
(g1
g2
(lp1032
Vthe
p1033
atp1034
Rp1035
(dp1036
g13
VDT
p1037
sbag0
(g1
g2
(lp1038
Vtype
p1039
atp1040
Rp1041
(dp1042
g13
VNN
p1043
sbag0
(g1
g2
(lp1044
Vrope
p1045
atp1046
Rp1047
(dp1048
g13
VNN
p1049
sbag0
(g1
g2
(lp1050
Vwalker
p1051
atp1052
Rp1053
(dp1054
g13
VNN
p1055
sbatp1056
Rp1057
(dp1058
g13
VNP
p1059
sbatp1060
Rp1061
(dp1062
g13
VVP
p1063
sbatp1064
Rp1065
(dp1066
g13
VNP
p1067
sbatp1068
Rp1069
(dp1070
g13
VVP
p1071
sbag0
(g1
g2
(lp1072
V.
p1073
atp1074
Rp1075
(dp1076
g13
V.
p1077
sbatp1078
Rp1079
(dp1080
g13
VS
p1081
sbatp1082
Rp1083
(dp1084
g13
S'id: 6'
p1085
sbag0
(g1
g2
(lp1086
g0
(g1
g2
(lp1087
g0
(g1
g2
(lp1088
g0
(g1
g2
(lp1089
g0
(g1
g2
(lp1090
VThere
p1091
atp1092
Rp1093
(dp1094
g13
VEX
p1095
sbatp1096
Rp1097
(dp1098
g13
VNP
p1099
sbag0
(g1
g2
(lp1100
g0
(g1
g2
(lp1101
V's
p1102
atp1103
Rp1104
(dp1105
g13
VVBZ
p1106
sbag0
(g1
g2
(lp1107
g0
(g1
g2
(lp1108
Va
p1109
atp1110
Rp1111
(dp1112
g13
VDT
p1113
sbatp1114
Rp1115
(dp1116
g13
VNP
p1117
sbatp1118
Rp1119
(dp1120
g13
VVP
p1121
sbatp1122
Rp1123
(dp1124
g13
VS
p1125
sbag0
(g1
g2
(lp1126
V,
p1127
atp1128
Rp1129
(dp1130
g13
V,
p1131
sbag0
(g1
g2
(lp1132
g0
(g1
g2
(lp1133
Vthere
p1134
atp1135
Rp1136
(dp1137
g13
VEX
p1138
sbatp1139
Rp1140
(dp1141
g13
VNP
p1142
sbag0
(g1
g2
(lp1143
g0
(g1
g2
(lp1144
V's
p1145
atp1146
Rp1147
(dp1148
g13
VVBZ
p1149
sbag0
(g1
g2
(lp1150
g0
(g1
g2
(lp1151
g0
(g1
g2
(lp1152
Va
p1153
atp1154
Rp1155
(dp1156
g13
VDT
p1157
sbag0
(g1
g2
(lp1158
Vman
p1159
atp1160
Rp1161
(dp1162
g13
VNN
p1163
sbatp1164
Rp1165
(dp1166
g13
VNP
p1167
sbag0
(g1
g2
(lp1168
V,
p1169
atp1170
Rp1171
(dp1172
g13
V,
p1173
sbag0
(g1
g2
(lp1174
g0
(g1
g2
(lp1175
Va
p1176
atp1177
Rp1178
(dp1179
g13
VDT
p1180
sbatp1181
Rp1182
(dp1183
g13
VNP
p1184
sbag0
(g1
g2
(lp1185
V,
p1186
atp1187
Rp1188
(dp1189
g13
V,
p1190
sbag0
(g1
g2
(lp1191
g0
(g1
g2
(lp1192
Va
p1193
atp1194
Rp1195
(dp1196
g13
VDT
p1197
sbag0
(g1
g2
(lp1198
Vlion
p1199
atp1200
Rp1201
(dp1202
g13
VNN
p1203
sbag0
(g1
g2
(lp1204
Vtamer
p1205
atp1206
Rp1207
(dp1208
g13
VJJR
p1209
sbatp1210
Rp1211
(dp1212
g13
VNP
p1213
sbag0
(g1
g2
(lp1214
V,
p1215
atp1216
Rp1217
(dp1218
g13
V,
p1219
sbag0
(g1
g2
(lp1220
g0
(g1
g2
(lp1221
Vinside
p1222
atp1223
Rp1224
(dp1225
g13
VIN
p1226
sbag0
(g1
g2
(lp1227
g0
(g1
g2
(lp1228
Va
p1229
atp1230
Rp1231
(dp1232
g13
VDT
p1233
sbag0
(g1
g2
(lp1234
g0
(g1
g2
(lp1235
V,
p1236
atp1237
Rp1238
(dp1239
g13
V,
p1240
sbag0
(g1
g2
(lp1241
g0
(g1
g2
(lp1242
Vinside
p1243
atp1244
Rp1245
(dp1246
g13
VIN
p1247
sbag0
(g1
g2
(lp1248
g0
(g1
g2
(lp1249
Vof
p1250
atp1251
Rp1252
(dp1253
g13
VIN
p1254
sbag0
(g1
g2
(lp1255
g0
(g1
g2
(lp1256
Va
p1257
atp1258
Rp1259
(dp1260
g13
VDT
p1261
sbag0
(g1
g2
(lp1262
Venclosure
p1263
atp1264
Rp1265
(dp1266
g13
VNN
p1267
sbatp1268
Rp1269
(dp1270
g13
VNP
p1271
sbatp1272
Rp1273
(dp1274
g13
VPP
p1275
sbatp1276
Rp1277
(dp1278
g13
VPP
p1279
sbatp1280
Rp1281
(dp1282
g13
VPRN
p1283
sbatp1284
Rp1285
(dp1286
g13
VNP
p1287
sbatp1288
Rp1289
(dp1290
g13
VPP
p1291
sbatp1292
Rp1293
(dp1294
g13
VNP
p1295
sbatp1296
Rp1297
(dp1298
g13
VVP
p1299
sbag0
(g1
g2
(lp1300
V.
p1301
atp1302
Rp1303
(dp1304
g13
V.
p1305
sbatp1306
Rp1307
(dp1308
g13
VS
p1309
sbatp1310
Rp1311
(dp1312
g13
S'id: 7'
p1313
sbag0
(g1
g2
(lp1314
g0
(g1
g2
(lp1315
g0
(g1
g2
(lp1316
g0
(g1
g2
(lp1317
VThe
p1318
atp1319
Rp1320
(dp1321
g13
VDT
p1322
sbag0
(g1
g2
(lp1323
Vcotton
p1324
atp1325
Rp1326
(dp1327
g13
VNN
p1328
sbatp1329
Rp1330
(dp1331
g13
VNP
p1332
sbag0
(g1
g2
(lp1333
g0
(g1
g2
(lp1334
V,
p1335
atp1336
Rp1337
(dp1338
g13
V,
p1339
sbag0
(g1
g2
(lp1340
g0
(g1
g2
(lp1341
g0
(g1
g2
(lp1342
Vthe
p1343
atp1344
Rp1345
(dp1346
g13
VDT
p1347
sbag0
(g1
g2
(lp1348
Vclown
p1349
atp1350
Rp1351
(dp1352
g13
VNN
p1353
sbatp1354
Rp1355
(dp1356
g13
VNP
p1357
sbag0
(g1
g2
(lp1358
g0
(g1
g2
(lp1359
Vis
p1360
atp1361
Rp1362
(dp1363
g13
VVBZ
p1364
sbag0
(g1
g2
(lp1365
g0
(g1
g2
(lp1366
g0
(g1
g2
(lp1367
Va
p1368
atp1369
Rp1370
(dp1371
g13
VDT
p1372
sbatp1373
Rp1374
(dp1375
g13
VNP
p1376
sbag0
(g1
g2
(lp1377
V,
p1378
atp1379
Rp1380
(dp1381
g13
V,
p1382
sbag0
(g1
g2
(lp1383
g0
(g1
g2
(lp1384
g0
(g1
g2
(lp1385
g0
(g1
g2
(lp1386
Vis
p1387
atp1388
Rp1389
(dp1390
g13
VVBZ
p1391
sbag0
(g1
g2
(lp1392
g0
(g1
g2
(lp1393
g0
(g1
g2
(lp1394
Va
p1395
atp1396
Rp1397
(dp1398
g13
VDT
p1399
sbag0
(g1
g2
(lp1400
Vthrowing
p1401
atp1402
Rp1403
(dp1404
g13
VVBG
p1405
sbag0
(g1
g2
(lp1406
Vconfetti
p1407
atp1408
Rp1409
(dp1410
g13
VNN
p1411
sbatp1412
Rp1413
(dp1414
g13
VNP
p1415
sbag0
(g1
g2
(lp1416
g0
(g1
g2
(lp1417
Vat
p1418
atp1419
Rp1420
(dp1421
g13
VIN
p1422
sbag0
(g1
g2
(lp1423
g0
(g1
g2
(lp1424
g0
(g1
g2
(lp1425
Vthe
p1426
atp1427
Rp1428
(dp1429
g13
VDT
p1430
sbag0
(g1
g2
(lp1431
Vboy
p1432
atp1433
Rp1434
(dp1435
g13
VNN
p1436
sbatp1437
Rp1438
(dp1439
g13
VNP
p1440
sbag0
(g1
g2
(lp1441
g0
(g1
g2
(lp1442
Vin
p1443
atp1444
Rp1445
(dp1446
g13
VIN
p1447
sbag0
(g1
g2
(lp1448
g0
(g1
g2
(lp1449
Vthe
p1450
atp1451
Rp1452
(dp1453
g13
VDT
p1454
sbatp1455
Rp1456
(dp1457
g13
VNP
p1458
sbatp1459
Rp1460
(dp1461
g13
VPP
p1462
sbatp1463
Rp1464
(dp1465
g13
VNP
p1466
sbatp1467
Rp1468
(dp1469
g13
VPP
p1470
sbatp1471
Rp1472
(dp1473
g13
VNP
p1474
sbatp1475
Rp1476
(dp1477
g13
VVP
p1478
sbatp1479
Rp1480
(dp1481
g13
VS
p1482
sbatp1483
Rp1484
(dp1485
g13
VSBAR
p1486
sbatp1487
Rp1488
(dp1489
g13
VNP
p1490
sbatp1491
Rp1492
(dp1493
g13
VVP
p1494
sbatp1495
Rp1496
(dp1497
g13
VS
p1498
sbag0
(g1
g2
(lp1499
V,
p1500
atp1501
Rp1502
(dp1503
g13
V,
p1504
sbatp1505
Rp1506
(dp1507
g13
VPRN
p1508
sbag0
(g1
g2
(lp1509
g0
(g1
g2
(lp1510
Vmakes
p1511
atp1512
Rp1513
(dp1514
g13
VVBZ
p1515
sbag0
(g1
g2
(lp1516
g0
(g1
g2
(lp1517
g0
(g1
g2
(lp1518
Vme
p1519
atp1520
Rp1521
(dp1522
g13
VPRP
p1523
sbatp1524
Rp1525
(dp1526
g13
VNP
p1527
sbag0
(g1
g2
(lp1528
g0
(g1
g2
(lp1529
Vthink
p1530
atp1531
Rp1532
(dp1533
g13
VVB
p1534
sbag0
(g1
g2
(lp1535
g0
(g1
g2
(lp1536
g0
(g1
g2
(lp1537
g0
(g1
g2
(lp1538
Vit
p1539
atp1540
Rp1541
(dp1542
g13
VPRP
p1543
sbatp1544
Rp1545
(dp1546
g13
VNP
p1547
sbag0
(g1
g2
(lp1548
g0
(g1
g2
(lp1549
V's
p1550
atp1551
Rp1552
(dp1553
g13
VVBZ
p1554
sbag0
(g1
g2
(lp1555
g0
(g1
g2
(lp1556
Vwater
p1557
atp1558
Rp1559
(dp1560
g13
VNN
p1561
sbatp1562
Rp1563
(dp1564
g13
VNP
p1565
sbatp1566
Rp1567
(dp1568
g13
VVP
p1569
sbatp1570
Rp1571
(dp1572
g13
VS
p1573
sbatp1574
Rp1575
(dp1576
g13
VSBAR
p1577
sbatp1578
Rp1579
(dp1580
g13
VVP
p1581
sbatp1582
Rp1583
(dp1584
g13
VS
p1585
sbatp1586
Rp1587
(dp1588
g13
VVP
p1589
sbag0
(g1
g2
(lp1590
V.
p1591
atp1592
Rp1593
(dp1594
g13
V.
p1595
sbatp1596
Rp1597
(dp1598
g13
VS
p1599
sbatp1600
Rp1601
(dp1602
g13
S'id: 8'
p1603
sbag0
(g1
g2
(lp1604
g0
(g1
g2
(lp1605
g0
(g1
g2
(lp1606
g0
(g1
g2
(lp1607
VThe
p1608
atp1609
Rp1610
(dp1611
g13
VDT
p1612
sbatp1613
Rp1614
(dp1615
g13
VNP
p1616
sbag0
(g1
g2
(lp1617
V,
p1618
atp1619
Rp1620
(dp1621
g13
V,
p1622
sbag0
(g1
g2
(lp1623
g0
(g1
g2
(lp1624
g0
(g1
g2
(lp1625
g0
(g1
g2
(lp1626
Vthe
p1627
atp1628
Rp1629
(dp1630
g13
VDT
p1631
sbatp1632
Rp1633
(dp1634
g13
VNP
p1635
sbag0
(g1
g2
(lp1636
V,
p1637
atp1638
Rp1639
(dp1640
g13
V,
p1641
sbag0
(g1
g2
(lp1642
g0
(g1
g2
(lp1643
Vthe
p1644
atp1645
Rp1646
(dp1647
g13
VDT
p1648
sbatp1649
Rp1650
(dp1651
g13
VNP
p1652
sbag0
(g1
g2
(lp1653
V,
p1654
atp1655
Rp1656
(dp1657
g13
V,
p1658
sbag0
(g1
g2
(lp1659
g0
(g1
g2
(lp1660
Vthe
p1661
atp1662
Rp1663
(dp1664
g13
VDT
p1665
sbatp1666
Rp1667
(dp1668
g13
VNP
p1669
sbag0
(g1
g2
(lp1670
V,
p1671
atp1672
Rp1673
(dp1674
g13
V,
p1675
sbag0
(g1
g2
(lp1676
g0
(g1
g2
(lp1677
Vthe
p1678
atp1679
Rp1680
(dp1681
g13
VDT
p1682
sbatp1683
Rp1684
(dp1685
g13
VNP
p1686
sbag0
(g1
g2
(lp1687
V,
p1688
atp1689
Rp1690
(dp1691
g13
V,
p1692
sbag0
(g1
g2
(lp1693
g0
(g1
g2
(lp1694
Vthe
p1695
atp1696
Rp1697
(dp1698
g13
VDT
p1699
sbag0
(g1
g2
(lp1700
Vgirl
p1701
atp1702
Rp1703
(dp1704
g13
VNN
p1705
sbatp1706
Rp1707
(dp1708
g13
VNP
p1709
sbag0
(g1
g2
(lp1710
Vor
p1711
atp1712
Rp1713
(dp1714
g13
VCC
p1715
sbag0
(g1
g2
(lp1716
g0
(g1
g2
(lp1717
Vballerina
p1718
atp1719
Rp1720
(dp1721
g13
VNN
p1722
sbatp1723
Rp1724
(dp1725
g13
VNP
p1726
sbatp1727
Rp1728
(dp1729
g13
VNP
p1730
sbag0
(g1
g2
(lp1731
V,
p1732
atp1733
Rp1734
(dp1735
g13
V,
p1736
sbag0
(g1
g2
(lp1737
Vor
p1738
atp1739
Rp1740
(dp1741
g13
VCC
p1742
sbag0
(g1
g2
(lp1743
g0
(g1
g2
(lp1744
g0
(g1
g2
(lp1745
Vmount
p1746
atp1747
Rp1748
(dp1749
g13
VVB
p1750
sbag0
(g1
g2
(lp1751
g0
(g1
g2
(lp1752
g0
(g1
g2
(lp1753
g0
(g1
g2
(lp1754
V,
p1755
atp1756
Rp1757
(dp1758
g13
V,
p1759
sbag0
(g1
g2
(lp1760
Vor
p1761
atp1762
Rp1763
(dp1764
g13
VCC
p1765
sbag0
(g1
g2
(lp1766
g0
(g1
g2
(lp1767
Vwhatever
p1768
atp1769
Rp1770
(dp1771
g13
VWDT
p1772
sbatp1773
Rp1774
(dp1775
g13
VWHNP
p1776
sbag0
(g1
g2
(lp1777
V,
p1778
atp1779
Rp1780
(dp1781
g13
V,
p1782
sbatp1783
Rp1784
(dp1785
g13
VPRN
p1786
sbag0
(g1
g2
(lp1787
g0
(g1
g2
(lp1788
g0
(g1
g2
(lp1789
Vshe
p1790
atp1791
Rp1792
(dp1793
g13
VPRP
p1794
sbatp1795
Rp1796
(dp1797
g13
VNP
p1798
sbag0
(g1
g2
(lp1799
g0
(g1
g2
(lp1800
Vis
p1801
atp1802
Rp1803
(dp1804
g13
VVBZ
p1805
sbag0
(g1
g2
(lp1806
V,
p1807
atp1808
Rp1809
(dp1810
g13
V,
p1811
sbag0
(g1
g2
(lp1812
g0
(g1
g2
(lp1813
g0
(g1
g2
(lp1814
g0
(g1
g2
(lp1815
Vshe
p1816
atp1817
Rp1818
(dp1819
g13
VPRP
p1820
sbatp1821
Rp1822
(dp1823
g13
VNP
p1824
sbag0
(g1
g2
(lp1825
g0
(g1
g2
(lp1826
V's
p1827
atp1828
Rp1829
(dp1830
g13
VVBZ
p1831
sbag0
(g1
g2
(lp1832
g0
(g1
g2
(lp1833
Vriding
p1834
atp1835
Rp1836
(dp1837
g13
VVBG
p1838
sbatp1839
Rp1840
(dp1841
g13
VVP
p1842
sbatp1843
Rp1844
(dp1845
g13
VVP
p1846
sbatp1847
Rp1848
(dp1849
g13
VS
p1850
sbatp1851
Rp1852
(dp1853
g13
VSBAR
p1854
sbatp1855
Rp1856
(dp1857
g13
VVP
p1858
sbatp1859
Rp1860
(dp1861
g13
VS
p1862
sbatp1863
Rp1864
(dp1865
g13
VSBAR
p1866
sbag0
(g1
g2
(lp1867
V,
p1868
atp1869
Rp1870
(dp1871
g13
V,
p1872
sbag0
(g1
g2
(lp1873
g0
(g1
g2
(lp1874
Vshe
p1875
atp1876
Rp1877
(dp1878
g13
VPRP
p1879
sbatp1880
Rp1881
(dp1882
g13
VNP
p1883
sbag0
(g1
g2
(lp1884
g0
(g1
g2
(lp1885
V's
p1886
atp1887
Rp1888
(dp1889
g13
VVBZ
p1890
sbag0
(g1
g2
(lp1891
g0
(g1
g2
(lp1892
Vriding
p1893
atp1894
Rp1895
(dp1896
g13
VVBG
p1897
sbag0
(g1
g2
(lp1898
g0
(g1
g2
(lp1899
Vthe
p1900
atp1901
Rp1902
(dp1903
g13
VDT
p1904
sbag0
(g1
g2
(lp1905
Vhorse
p1906
atp1907
Rp1908
(dp1909
g13
VNN
p1910
sbatp1911
Rp1912
(dp1913
g13
VNP
p1914
sbatp1915
Rp1916
(dp1917
g13
VVP
p1918
sbatp1919
Rp1920
(dp1921
g13
VVP
p1922
sbatp1923
Rp1924
(dp1925
g13
VS
p1926
sbatp1927
Rp1928
(dp1929
g13
VVP
p1930
sbag0
(g1
g2
(lp1931
g0
(g1
g2
(lp1932
Vin
p1933
atp1934
Rp1935
(dp1936
g13
VIN
p1937
sbag0
(g1
g2
(lp1938
g0
(g1
g2
(lp1939
Va
p1940
atp1941
Rp1942
(dp1943
g13
VDT
p1944
sbag0
(g1
g2
(lp1945
Vcircle
p1946
atp1947
Rp1948
(dp1949
g13
VNN
p1950
sbatp1951
Rp1952
(dp1953
g13
VNP
p1954
sbatp1955
Rp1956
(dp1957
g13
VPP
p1958
sbatp1959
Rp1960
(dp1961
g13
VNP
p1962
sbatp1963
Rp1964
(dp1965
g13
VNP
p1966
sbag0
(g1
g2
(lp1967
V,
p1968
atp1969
Rp1970
(dp1971
g13
V,
p1972
sbag0
(g1
g2
(lp1973
g0
(g1
g2
(lp1974
Varound
p1975
atp1976
Rp1977
(dp1978
g13
VIN
p1979
sbag0
(g1
g2
(lp1980
g0
(g1
g2
(lp1981
Vcircles
p1982
atp1983
Rp1984
(dp1985
g13
VNNS
p1986
sbatp1987
Rp1988
(dp1989
g13
VNP
p1990
sbatp1991
Rp1992
(dp1993
g13
VPP
p1994
sbag0
(g1
g2
(lp1995
V.
p1996
atp1997
Rp1998
(dp1999
g13
V.
p2000
sbatp2001
Rp2002
(dp2003
g13
VNP
p2004
sbatp2005
Rp2006
(dp2007
g13
S'id: 9'
p2008
sbag0
(g1
g2
(lp2009
g0
(g1
g2
(lp2010
g0
(g1
g2
(lp2011
g0
(g1
g2
(lp2012
VI
p2013
atp2014
Rp2015
(dp2016
g13
VPRP
p2017
sbatp2018
Rp2019
(dp2020
g13
VNP
p2021
sbag0
(g1
g2
(lp2022
g0
(g1
g2
(lp2023
Vdo
p2024
atp2025
Rp2026
(dp2027
g13
VVBP
p2028
sbag0
(g1
g2
(lp2029
Vn't
p2030
atp2031
Rp2032
(dp2033
g13
VRB
p2034
sbag0
(g1
g2
(lp2035
g0
(g1
g2
(lp2036
Vknow
p2037
atp2038
Rp2039
(dp2040
g13
VVB
p2041
sbag0
(g1
g2
(lp2042
g0
(g1
g2
(lp2043
g0
(g1
g2
(lp2044
Vwhat
p2045
atp2046
Rp2047
(dp2048
g13
VWP
p2049
sbatp2050
Rp2051
(dp2052
g13
VNP
p2053
sbag0
(g1
g2
(lp2054
g0
(g1
g2
(lp2055
Velse
p2056
atp2057
Rp2058
(dp2059
g13
VRB
p2060
sbatp2061
Rp2062
(dp2063
g13
VADJP
p2064
sbag0
(g1
g2
(lp2065
g0
(g1
g2
(lp2066
g0
(g1
g2
(lp2067
Vto
p2068
atp2069
Rp2070
(dp2071
g13
VTO
p2072
sbag0
(g1
g2
(lp2073
g0
(g1
g2
(lp2074
Vsay
p2075
atp2076
Rp2077
(dp2078
g13
VVB
p2079
sbatp2080
Rp2081
(dp2082
g13
VVP
p2083
sbatp2084
Rp2085
(dp2086
g13
VVP
p2087
sbatp2088
Rp2089
(dp2090
g13
VS
p2091
sbatp2092
Rp2093
(dp2094
g13
VS
p2095
sbatp2096
Rp2097
(dp2098
g13
VVP
p2099
sbatp2100
Rp2101
(dp2102
g13
VVP
p2103
sbag0
(g1
g2
(lp2104
V.
p2105
atp2106
Rp2107
(dp2108
g13
V.
p2109
sbatp2110
Rp2111
(dp2112
g13
VS
p2113
sbatp2114
Rp2115
(dp2116
g13
S'id: 10'
p2117
sbag0
(g1
g2
(lp2118
g0
(g1
g2
(lp2119
g0
(g1
g2
(lp2120
g0
(g1
g2
(lp2121
VDo
p2122
atp2123
Rp2124
(dp2125
g13
VVBP
p2126
sbag0
(g1
g2
(lp2127
Vn't
p2128
atp2129
Rp2130
(dp2131
g13
VRB
p2132
sbag0
(g1
g2
(lp2133
g0
(g1
g2
(lp2134
Vknow
p2135
atp2136
Rp2137
(dp2138
g13
VVB
p2139
sbag0
(g1
g2
(lp2140
g0
(g1
g2
(lp2141
g0
(g1
g2
(lp2142
Vwhat
p2143
atp2144
Rp2145
(dp2146
g13
VWP
p2147
sbatp2148
Rp2149
(dp2150
g13
VNP
p2151
sbag0
(g1
g2
(lp2152
g0
(g1
g2
(lp2153
Velse
p2154
atp2155
Rp2156
(dp2157
g13
VRB
p2158
sbatp2159
Rp2160
(dp2161
g13
VADJP
p2162
sbag0
(g1
g2
(lp2163
g0
(g1
g2
(lp2164
g0
(g1
g2
(lp2165
Vto
p2166
atp2167
Rp2168
(dp2169
g13
VTO
p2170
sbag0
(g1
g2
(lp2171
g0
(g1
g2
(lp2172
Vsay
p2173
atp2174
Rp2175
(dp2176
g13
VVB
p2177
sbatp2178
Rp2179
(dp2180
g13
VVP
p2181
sbatp2182
Rp2183
(dp2184
g13
VVP
p2185
sbatp2186
Rp2187
(dp2188
g13
VS
p2189
sbatp2190
Rp2191
(dp2192
g13
VS
p2193
sbatp2194
Rp2195
(dp2196
g13
VVP
p2197
sbatp2198
Rp2199
(dp2200
g13
VVP
p2201
sbag0
(g1
g2
(lp2202
V.
p2203
atp2204
Rp2205
(dp2206
g13
V.
p2207
sbatp2208
Rp2209
(dp2210
g13
VS
p2211
sbatp2212
Rp2213
(dp2214
g13
S'id: 11'
p2215
sbag0
(g1
g2
(lp2216
g0
(g1
g2
(lp2217
g0
(g1
g2
(lp2218
g0
(g1
g2
(lp2219
g0
(g1
g2
(lp2220
VMy
p2221
atp2222
Rp2223
(dp2224
g13
VPRP$
p2225
sbag0
(g1
g2
(lp2226
Vtime
p2227
atp2228
Rp2229
(dp2230
g13
VNN
p2231
sbatp2232
Rp2233
(dp2234
g13
VNP
p2235
sbag0
(g1
g2
(lp2236
g0
(g1
g2
(lp2237
Vup
p2238
atp2239
Rp2240
(dp2241
g13
VRP
p2242
sbatp2243
Rp2244
(dp2245
g13
VADVP
p2246
sbatp2247
Rp2248
(dp2249
g13
VNP
p2250
sbag0
(g1
g2
(lp2251
Vyet
p2252
atp2253
Rp2254
(dp2255
g13
VRB
p2256
sbatp2257
Rp2258
(dp2259
g13
VADVP
p2260
sbatp2261
Rp2262
(dp2263
g13
S'id: 12'
p2264
sbatp2265
Rp2266
(dp2267
g13
S'sentences'
p2268
sb.