ccopy_reg
_reconstructor
p0
(cnltk.tree
Tree
p1
c__builtin__
list
p2
(lp3
g0
(g1
g2
(lp4
g0
(g1
g2
(lp5
g0
(g1
g2
(lp6
g0
(g1
g2
(lp7
g0
(g1
g2
(lp8
g0
(g1
g2
(lp9
Voh
p10
atp11
Rp12
(dp13
S'_label'
p14
VUH
p15
sbatp16
Rp17
(dp18
g14
VINTJ
p19
sbag0
(g1
g2
(lp20
g0
(g1
g2
(lp21
Vkitchen
p22
atp23
Rp24
(dp25
g14
VNN
p26
sbatp27
Rp28
(dp29
g14
VNP
p30
sbatp31
Rp32
(dp33
g14
VNP
p34
sbatp35
Rp36
(dp37
g14
VVP
p38
sbag0
(g1
g2
(lp39
V.
p40
atp41
Rp42
(dp43
g14
V.
p44
sbatp45
Rp46
(dp47
g14
VS
p48
sbatp49
Rp50
(dp51
g14
S'id: 0'
p52
sbag0
(g1
g2
(lp53
g0
(g1
g2
(lp54
g0
(g1
g2
(lp55
g0
(g1
g2
(lp56
g0
(g1
g2
(lp57
VI
p58
atp59
Rp60
(dp61
g14
VPRP
p62
sbatp63
Rp64
(dp65
g14
VNP
p66
sbag0
(g1
g2
(lp67
g0
(g1
g2
(lp68
Vsee
p69
atp70
Rp71
(dp72
g14
VVBP
p73
sbag0
(g1
g2
(lp74
g0
(g1
g2
(lp75
g0
(g1
g2
(lp76
Vpeople
p77
atp78
Rp79
(dp80
g14
VNNS
p81
sbatp82
Rp83
(dp84
g14
VNP
p85
sbag0
(g1
g2
(lp86
g0
(g1
g2
(lp87
Vgetting
p88
atp89
Rp90
(dp91
g14
VVBG
p92
sbag0
(g1
g2
(lp93
g0
(g1
g2
(lp94
Vinto
p95
atp96
Rp97
(dp98
g14
VIN
p99
sbag0
(g1
g2
(lp100
g0
(g1
g2
(lp101
Va
p102
atp103
Rp104
(dp105
g14
VDT
p106
sbag0
(g1
g2
(lp107
Vcookie
p108
atp109
Rp110
(dp111
g14
VNN
p112
sbag0
(g1
g2
(lp113
Vjar
p114
atp115
Rp116
(dp117
g14
VNN
p118
sbatp119
Rp120
(dp121
g14
VNP
p122
sbatp123
Rp124
(dp125
g14
VPP
p126
sbag0
(g1
g2
(lp127
V,
p128
atp129
Rp130
(dp131
g14
V,
p132
sbag0
(g1
g2
(lp133
g0
(g1
g2
(lp134
Vwith
p135
atp136
Rp137
(dp138
g14
VIN
p139
sbag0
(g1
g2
(lp140
g0
(g1
g2
(lp141
g0
(g1
g2
(lp142
Va
p143
atp144
Rp145
(dp146
g14
VDT
p147
sbag0
(g1
g2
(lp148
Vjewel
p149
atp150
Rp151
(dp152
g14
VNN
p153
sbag0
(g1
g2
(lp154
Vkind
p155
atp156
Rp157
(dp158
g14
VNN
p159
sbatp160
Rp161
(dp162
g14
VNP
p163
sbag0
(g1
g2
(lp164
g0
(g1
g2
(lp165
Vof
p166
atp167
Rp168
(dp169
g14
VIN
p170
sbag0
(g1
g2
(lp171
g0
(g1
g2
(lp172
Vtrippin
p173
atp174
Rp175
(dp176
g14
VNN
p177
sbatp178
Rp179
(dp180
g14
VNP
p181
sbatp182
Rp183
(dp184
g14
VPP
p185
sbatp186
Rp187
(dp188
g14
VNP
p189
sbatp190
Rp191
(dp192
g14
VPP
p193
sbag0
(g1
g2
(lp194
g0
(g1
g2
(lp195
Vover
p196
atp197
Rp198
(dp199
g14
VIN
p200
sbatp201
Rp202
(dp203
g14
VPP
p204
sbatp205
Rp206
(dp207
g14
VVP
p208
sbatp209
Rp210
(dp211
g14
VS
p212
sbatp213
Rp214
(dp215
g14
VVP
p216
sbatp217
Rp218
(dp219
g14
VS
p220
sbag0
(g1
g2
(lp221
V,
p222
atp223
Rp224
(dp225
g14
V,
p226
sbag0
(g1
g2
(lp227
Vand
p228
atp229
Rp230
(dp231
g14
VCC
p232
sbag0
(g1
g2
(lp233
g0
(g1
g2
(lp234
g0
(g1
g2
(lp235
Va
p236
atp237
Rp238
(dp239
g14
VDT
p240
sbag0
(g1
g2
(lp241
Vsink
p242
atp243
Rp244
(dp245
g14
VNN
p246
sbatp247
Rp248
(dp249
g14
VNP
p250
sbag0
(g1
g2
(lp251
g0
(g1
g2
(lp252
Vis
p253
atp254
Rp255
(dp256
g14
VVBZ
p257
sbag0
(g1
g2
(lp258
g0
(g1
g2
(lp259
Vover
p260
atp261
Rp262
(dp263
g14
VIN
p264
sbatp265
Rp266
(dp267
g14
VADJP
p268
sbatp269
Rp270
(dp271
g14
VVP
p272
sbatp273
Rp274
(dp275
g14
VS
p276
sbag0
(g1
g2
(lp277
V.
p278
atp279
Rp280
(dp281
g14
V.
p282
sbatp283
Rp284
(dp285
g14
VS
p286
sbatp287
Rp288
(dp289
g14
S'id: 1'
p290
sbag0
(g1
g2
(lp291
g0
(g1
g2
(lp292
g0
(g1
g2
(lp293
g0
(g1
g2
(lp294
g0
(g1
g2
(lp295
VThat
p296
atp297
Rp298
(dp299
g14
VDT
p300
sbag0
(g1
g2
(lp301
Vlady
p302
atp303
Rp304
(dp305
g14
VNN
p306
sbatp307
Rp308
(dp309
g14
VNP
p310
sbag0
(g1
g2
(lp311
g0
(g1
g2
(lp312
Vis
p313
atp314
Rp315
(dp316
g14
VVBZ
p317
sbag0
(g1
g2
(lp318
g0
(g1
g2
(lp319
Vin
p320
atp321
Rp322
(dp323
g14
VIN
p324
sbag0
(g1
g2
(lp325
g0
(g1
g2
(lp326
g0
(g1
g2
(lp327
Vtrouble
p328
atp329
Rp330
(dp331
g14
VNN
p332
sbatp333
Rp334
(dp335
g14
VNP
p336
sbag0
(g1
g2
(lp337
V,
p338
atp339
Rp340
(dp341
g14
V,
p342
sbag0
(g1
g2
(lp343
g0
(g1
g2
(lp344
Vboy
p345
atp346
Rp347
(dp348
g14
VNN
p349
sbag0
(g1
g2
(lp350
Vo
p351
atp352
Rp353
(dp354
g14
VNN
p355
sbag0
(g1
g2
(lp356
Vboy
p357
atp358
Rp359
(dp360
g14
VNN
p361
sbatp362
Rp363
(dp364
g14
VNP
p365
sbatp366
Rp367
(dp368
g14
VNP
p369
sbatp370
Rp371
(dp372
g14
VPP
p373
sbatp374
Rp375
(dp376
g14
VVP
p377
sbatp378
Rp379
(dp380
g14
VS
p381
sbag0
(g1
g2
(lp382
V,
p383
atp384
Rp385
(dp386
g14
V,
p387
sbag0
(g1
g2
(lp388
Vand
p389
atp390
Rp391
(dp392
g14
VCC
p393
sbag0
(g1
g2
(lp394
g0
(g1
g2
(lp395
g0
(g1
g2
(lp396
Vthe
p397
atp398
Rp399
(dp400
g14
VDT
p401
sbag0
(g1
g2
(lp402
Vgirl
p403
atp404
Rp405
(dp406
g14
VNN
p407
sbatp408
Rp409
(dp410
g14
VNP
p411
sbag0
(g1
g2
(lp412
g0
(g1
g2
(lp413
Vis
p414
atp415
Rp416
(dp417
g14
VVBZ
p418
sbag0
(g1
g2
(lp419
g0
(g1
g2
(lp420
Vgiggling
p421
atp422
Rp423
(dp424
g14
VVBG
p425
sbag0
(g1
g2
(lp426
g0
(g1
g2
(lp427
Vbecause
p428
atp429
Rp430
(dp431
g14
VIN
p432
sbag0
(g1
g2
(lp433
g0
(g1
g2
(lp434
g0
(g1
g2
(lp435
Vher
p436
atp437
Rp438
(dp439
g14
VPRP$
p440
sbag0
(g1
g2
(lp441
Vbrother
p442
atp443
Rp444
(dp445
g14
VNN
p446
sbatp447
Rp448
(dp449
g14
VNP
p450
sbag0
(g1
g2
(lp451
g0
(g1
g2
(lp452
Vis
p453
atp454
Rp455
(dp456
g14
VVBZ
p457
sbag0
(g1
g2
(lp458
g0
(g1
g2
(lp459
Von
p460
atp461
Rp462
(dp463
g14
VIN
p464
sbag0
(g1
g2
(lp465
g0
(g1
g2
(lp466
Vtrouble
p467
atp468
Rp469
(dp470
g14
VNN
p471
sbatp472
Rp473
(dp474
g14
VNP
p475
sbatp476
Rp477
(dp478
g14
VPP
p479
sbatp480
Rp481
(dp482
g14
VVP
p483
sbatp484
Rp485
(dp486
g14
VS
p487
sbatp488
Rp489
(dp490
g14
VSBAR
p491
sbatp492
Rp493
(dp494
g14
VVP
p495
sbatp496
Rp497
(dp498
g14
VVP
p499
sbatp500
Rp501
(dp502
g14
VS
p503
sbag0
(g1
g2
(lp504
V.
p505
atp506
Rp507
(dp508
g14
V.
p509
sbatp510
Rp511
(dp512
g14
VS
p513
sbatp514
Rp515
(dp516
g14
S'id: 2'
p517
sbag0
(g1
g2
(lp518
g0
(g1
g2
(lp519
g0
(g1
g2
(lp520
VAnd
p521
atp522
Rp523
(dp524
g14
VCC
p525
sbag0
(g1
g2
(lp526
g0
(g1
g2
(lp527
g0
(g1
g2
(lp528
g0
(g1
g2
(lp529
Vthe
p530
atp531
Rp532
(dp533
g14
VDT
p534
sbag0
(g1
g2
(lp535
Vlady
p536
atp537
Rp538
(dp539
g14
VNN
p540
sbag0
(g1
g2
(lp541
V's
p542
atp543
Rp544
(dp545
g14
VPOS
p546
sbatp547
Rp548
(dp549
g14
VNP
p550
sbag0
(g1
g2
(lp551
Vwalking
p552
atp553
Rp554
(dp555
g14
VNN
p556
sbatp557
Rp558
(dp559
g14
VNP
p560
sbag0
(g1
g2
(lp561
g0
(g1
g2
(lp562
Vin
p563
atp564
Rp565
(dp566
g14
VIN
p567
sbag0
(g1
g2
(lp568
g0
(g1
g2
(lp569
g0
(g1
g2
(lp570
Va
p571
atp572
Rp573
(dp574
g14
VDT
p575
sbag0
(g1
g2
(lp576
Vpuddle
p577
atp578
Rp579
(dp580
g14
VNN
p581
sbatp582
Rp583
(dp584
g14
VNP
p585
sbag0
(g1
g2
(lp586
g0
(g1
g2
(lp587
Vof
p588
atp589
Rp590
(dp591
g14
VIN
p592
sbag0
(g1
g2
(lp593
g0
(g1
g2
(lp594
g0
(g1
g2
(lp595
Vwater
p596
atp597
Rp598
(dp599
g14
VNN
p600
sbatp601
Rp602
(dp603
g14
VNP
p604
sbag0
(g1
g2
(lp605
V,
p606
atp607
Rp608
(dp609
g14
V,
p610
sbag0
(g1
g2
(lp611
g0
(g1
g2
(lp612
g0
(g1
g2
(lp613
g0
(g1
g2
(lp614
Vshe
p615
atp616
Rp617
(dp618
g14
VPRP
p619
sbatp620
Rp621
(dp622
g14
VNP
p623
sbag0
(g1
g2
(lp624
g0
(g1
g2
(lp625
Vbetter
p626
atp627
Rp628
(dp629
g14
VJJR
p630
sbatp631
Rp632
(dp633
g14
VADVP
p634
sbag0
(g1
g2
(lp635
g0
(g1
g2
(lp636
Vget
p637
atp638
Rp639
(dp640
g14
VVB
p641
sbag0
(g1
g2
(lp642
g0
(g1
g2
(lp643
Va
p644
atp645
Rp646
(dp647
g14
VDT
p648
sbatp649
Rp650
(dp651
g14
VNP
p652
sbatp653
Rp654
(dp655
g14
VVP
p656
sbatp657
Rp658
(dp659
g14
VS
p660
sbatp661
Rp662
(dp663
g14
VSBAR
p664
sbatp665
Rp666
(dp667
g14
VNP
p668
sbatp669
Rp670
(dp671
g14
VPP
p672
sbatp673
Rp674
(dp675
g14
VNP
p676
sbatp677
Rp678
(dp679
g14
VPP
p680
sbatp681
Rp682
(dp683
g14
VNP
p684
sbag0
(g1
g2
(lp685
g0
(g1
g2
(lp686
Vmop
p687
atp688
Rp689
(dp690
g14
VVB
p691
sbatp692
Rp693
(dp694
g14
VVP
p695
sbag0
(g1
g2
(lp696
V.
p697
atp698
Rp699
(dp700
g14
V.
p701
sbatp702
Rp703
(dp704
g14
VS
p705
sbatp706
Rp707
(dp708
g14
S'id: 3'
p709
sbag0
(g1
g2
(lp710
g0
(g1
g2
(lp711
g0
(g1
g2
(lp712
g0
(g1
g2
(lp713
g0
(g1
g2
(lp714
VAnd
p715
atp716
Rp717
(dp718
g14
VCC
p719
sbag0
(g1
g2
(lp720
V,
p721
atp722
Rp723
(dp724
g14
V,
p725
sbag0
(g1
g2
(lp726
Vand
p727
atp728
Rp729
(dp730
g14
VCC
p731
sbag0
(g1
g2
(lp732
g0
(g1
g2
(lp733
VI
p734
atp735
Rp736
(dp737
g14
VPRP
p738
sbatp739
Rp740
(dp741
g14
VNP
p742
sbag0
(g1
g2
(lp743
g0
(g1
g2
(lp744
Vsee
p745
atp746
Rp747
(dp748
g14
VVBP
p749
sbag0
(g1
g2
(lp750
g0
(g1
g2
(lp751
Vsome
p752
atp753
Rp754
(dp755
g14
VDT
p756
sbag0
(g1
g2
(lp757
Vdishes
p758
atp759
Rp760
(dp761
g14
VNNS
p762
sbatp763
Rp764
(dp765
g14
VNP
p766
sbag0
(g1
g2
(lp767
g0
(g1
g2
(lp768
Von
p769
atp770
Rp771
(dp772
g14
VIN
p773
sbag0
(g1
g2
(lp774
g0
(g1
g2
(lp775
Vthe
p776
atp777
Rp778
(dp779
g14
VDT
p780
sbag0
(g1
g2
(lp781
Vside
p782
atp783
Rp784
(dp785
g14
VNN
p786
sbatp787
Rp788
(dp789
g14
VNP
p790
sbatp791
Rp792
(dp793
g14
VPP
p794
sbatp795
Rp796
(dp797
g14
VVP
p798
sbatp799
Rp800
(dp801
g14
VS
p802
sbag0
(g1
g2
(lp803
V,
p804
atp805
Rp806
(dp807
g14
V,
p808
sbag0
(g1
g2
(lp809
Vand
p810
atp811
Rp812
(dp813
g14
VCC
p814
sbag0
(g1
g2
(lp815
g0
(g1
g2
(lp816
g0
(g1
g2
(lp817
VI
p818
atp819
Rp820
(dp821
g14
VPRP
p822
sbatp823
Rp824
(dp825
g14
VNP
p826
sbag0
(g1
g2
(lp827
g0
(g1
g2
(lp828
Vdo
p829
atp830
Rp831
(dp832
g14
VVBP
p833
sbag0
(g1
g2
(lp834
Vn't
p835
atp836
Rp837
(dp838
g14
VRB
p839
sbag0
(g1
g2
(lp840
g0
(g1
g2
(lp841
Vknow
p842
atp843
Rp844
(dp845
g14
VVB
p846
sbag0
(g1
g2
(lp847
g0
(g1
g2
(lp848
Vwhether
p849
atp850
Rp851
(dp852
g14
VIN
p853
sbag0
(g1
g2
(lp854
g0
(g1
g2
(lp855
g0
(g1
g2
(lp856
Vthey
p857
atp858
Rp859
(dp860
g14
VPRP
p861
sbatp862
Rp863
(dp864
g14
VNP
p865
sbag0
(g1
g2
(lp866
g0
(g1
g2
(lp867
Vare
p868
atp869
Rp870
(dp871
g14
VVBP
p872
sbag0
(g1
g2
(lp873
g0
(g1
g2
(lp874
Vclean
p875
atp876
Rp877
(dp878
g14
VJJ
p879
sbag0
(g1
g2
(lp880
Vor
p881
atp882
Rp883
(dp884
g14
VCC
p885
sbag0
(g1
g2
(lp886
Vdirty
p887
atp888
Rp889
(dp890
g14
VJJ
p891
sbatp892
Rp893
(dp894
g14
VADJP
p895
sbatp896
Rp897
(dp898
g14
VVP
p899
sbatp900
Rp901
(dp902
g14
VS
p903
sbatp904
Rp905
(dp906
g14
VSBAR
p907
sbatp908
Rp909
(dp910
g14
VVP
p911
sbatp912
Rp913
(dp914
g14
VVP
p915
sbatp916
Rp917
(dp918
g14
VS
p919
sbatp920
Rp921
(dp922
g14
VS
p923
sbag0
(g1
g2
(lp924
V,
p925
atp926
Rp927
(dp928
g14
V,
p929
sbag0
(g1
g2
(lp930
Vbut
p931
atp932
Rp933
(dp934
g14
VCC
p935
sbag0
(g1
g2
(lp936
g0
(g1
g2
(lp937
g0
(g1
g2
(lp938
Vthey
p939
atp940
Rp941
(dp942
g14
VPRP
p943
sbatp944
Rp945
(dp946
g14
VNP
p947
sbag0
(g1
g2
(lp948
g0
(g1
g2
(lp949
V're
p950
atp951
Rp952
(dp953
g14
VVBP
p954
sbag0
(g1
g2
(lp955
g0
(g1
g2
(lp956
Vprobably
p957
atp958
Rp959
(dp960
g14
VRB
p961
sbatp962
Rp963
(dp964
g14
VADVP
p965
sbag0
(g1
g2
(lp966
g0
(g1
g2
(lp967
Vclean
p968
atp969
Rp970
(dp971
g14
VJJ
p972
sbatp973
Rp974
(dp975
g14
VADJP
p976
sbatp977
Rp978
(dp979
g14
VVP
p980
sbatp981
Rp982
(dp983
g14
VS
p984
sbag0
(g1
g2
(lp985
V.
p986
atp987
Rp988
(dp989
g14
V.
p990
sbatp991
Rp992
(dp993
g14
VS
p994
sbatp995
Rp996
(dp997
g14
S'id: 4'
p998
sbag0
(g1
g2
(lp999
g0
(g1
g2
(lp1000
g0
(g1
g2
(lp1001
VAnd
p1002
atp1003
Rp1004
(dp1005
g14
VCC
p1006
sbag0
(g1
g2
(lp1007
g0
(g1
g2
(lp1008
VI
p1009
atp1010
Rp1011
(dp1012
g14
VPRP
p1013
sbatp1014
Rp1015
(dp1016
g14
VNP
p1017
sbag0
(g1
g2
(lp1018
g0
(g1
g2
(lp1019
Vsee
p1020
atp1021
Rp1022
(dp1023
g14
VVBP
p1024
sbag0
(g1
g2
(lp1025
g0
(g1
g2
(lp1026
g0
(g1
g2
(lp1027
Va
p1028
atp1029
Rp1030
(dp1031
g14
VDT
p1032
sbag0
(g1
g2
(lp1033
Vkitchen
p1034
atp1035
Rp1036
(dp1037
g14
VNN
p1038
sbag0
(g1
g2
(lp1039
Vcounter
p1040
atp1041
Rp1042
(dp1043
g14
VNN
p1044
sbatp1045
Rp1046
(dp1047
g14
VNP
p1048
sbag0
(g1
g2
(lp1049
g0
(g1
g2
(lp1050
g0
(g1
g2
(lp1051
Vthat
p1052
atp1053
Rp1054
(dp1055
g14
VWDT
p1056
sbatp1057
Rp1058
(dp1059
g14
VWHNP
p1060
sbag0
(g1
g2
(lp1061
g0
(g1
g2
(lp1062
g0
(g1
g2
(lp1063
V's
p1064
atp1065
Rp1066
(dp1067
g14
VVBZ
p1068
sbag0
(g1
g2
(lp1069
g0
(g1
g2
(lp1070
g0
(g1
g2
(lp1071
g0
(g1
g2
(lp1072
Va
p1073
atp1074
Rp1075
(dp1076
g14
VDT
p1077
sbag0
(g1
g2
(lp1078
Vlittle
p1079
atp1080
Rp1081
(dp1082
g14
VJJ
p1083
sbatp1084
Rp1085
(dp1086
g14
VNP
p1087
sbag0
(g1
g2
(lp1088
Vcluttered
p1089
atp1090
Rp1091
(dp1092
g14
VJJ
p1093
sbatp1094
Rp1095
(dp1096
g14
VADJP
p1097
sbag0
(g1
g2
(lp1098
V,
p1099
atp1100
Rp1101
(dp1102
g14
V,
p1103
sbag0
(g1
g2
(lp1104
Vbut
p1105
atp1106
Rp1107
(dp1108
g14
VCC
p1109
sbag0
(g1
g2
(lp1110
g0
(g1
g2
(lp1111
Vnot
p1112
atp1113
Rp1114
(dp1115
g14
VRB
p1116
sbag0
(g1
g2
(lp1117
Vbad
p1118
atp1119
Rp1120
(dp1121
g14
VJJ
p1122
sbatp1123
Rp1124
(dp1125
g14
VADJP
p1126
sbatp1127
Rp1128
(dp1129
g14
VADJP
p1130
sbatp1131
Rp1132
(dp1133
g14
VVP
p1134
sbatp1135
Rp1136
(dp1137
g14
VS
p1138
sbatp1139
Rp1140
(dp1141
g14
VSBAR
p1142
sbatp1143
Rp1144
(dp1145
g14
VNP
p1146
sbatp1147
Rp1148
(dp1149
g14
VVP
p1150
sbag0
(g1
g2
(lp1151
V.
p1152
atp1153
Rp1154
(dp1155
g14
V.
p1156
sbatp1157
Rp1158
(dp1159
g14
VS
p1160
sbatp1161
Rp1162
(dp1163
g14
S'id: 5'
p1164
sbag0
(g1
g2
(lp1165
g0
(g1
g2
(lp1166
g0
(g1
g2
(lp1167
VAnd
p1168
atp1169
Rp1170
(dp1171
g14
VCC
p1172
sbag0
(g1
g2
(lp1173
g0
(g1
g2
(lp1174
g0
(g1
g2
(lp1175
g0
(g1
g2
(lp1176
Vthe
p1177
atp1178
Rp1179
(dp1180
g14
VDT
p1181
sbag0
(g1
g2
(lp1182
Vcurtains
p1183
atp1184
Rp1185
(dp1186
g14
VNNS
p1187
sbatp1188
Rp1189
(dp1190
g14
VNP
p1191
sbag0
(g1
g2
(lp1192
g0
(g1
g2
(lp1193
Vare
p1194
atp1195
Rp1196
(dp1197
g14
VVBP
p1198
sbag0
(g1
g2
(lp1199
g0
(g1
g2
(lp1200
Vnice
p1201
atp1202
Rp1203
(dp1204
g14
VJJ
p1205
sbatp1206
Rp1207
(dp1208
g14
VADJP
p1209
sbatp1210
Rp1211
(dp1212
g14
VVP
p1213
sbatp1214
Rp1215
(dp1216
g14
VS
p1217
sbag0
(g1
g2
(lp1218
V,
p1219
atp1220
Rp1221
(dp1222
g14
V,
p1223
sbag0
(g1
g2
(lp1224
Vand
p1225
atp1226
Rp1227
(dp1228
g14
VCC
p1229
sbag0
(g1
g2
(lp1230
g0
(g1
g2
(lp1231
g0
(g1
g2
(lp1232
Vthe
p1233
atp1234
Rp1235
(dp1236
g14
VDT
p1237
sbag0
(g1
g2
(lp1238
Vcookie
p1239
atp1240
Rp1241
(dp1242
g14
VNN
p1243
sbag0
(g1
g2
(lp1244
Vjar
p1245
atp1246
Rp1247
(dp1248
g14
VNN
p1249
sbatp1250
Rp1251
(dp1252
g14
VNP
p1253
sbag0
(g1
g2
(lp1254
g0
(g1
g2
(lp1255
Vis
p1256
atp1257
Rp1258
(dp1259
g14
VVBZ
p1260
sbag0
(g1
g2
(lp1261
g0
(g1
g2
(lp1262
Vfull
p1263
atp1264
Rp1265
(dp1266
g14
VJJ
p1267
sbatp1268
Rp1269
(dp1270
g14
VADJP
p1271
sbag0
(g1
g2
(lp1272
g0
(g1
g2
(lp1273
V,
p1274
atp1275
Rp1276
(dp1277
g14
V,
p1278
sbag0
(g1
g2
(lp1279
Vbut
p1280
atp1281
Rp1282
(dp1283
g14
VCC
p1284
sbag0
(g1
g2
(lp1285
g0
(g1
g2
(lp1286
Vnot
p1287
atp1288
Rp1289
(dp1290
g14
VRB
p1291
sbatp1292
Rp1293
(dp1294
g14
VADVP
p1295
sbatp1296
Rp1297
(dp1298
g14
VPRN
p1299
sbatp1300
Rp1301
(dp1302
g14
VVP
p1303
sbatp1304
Rp1305
(dp1306
g14
VS
p1307
sbatp1308
Rp1309
(dp1310
g14
VS
p1311
sbag0
(g1
g2
(lp1312
V,
p1313
atp1314
Rp1315
(dp1316
g14
V,
p1317
sbag0
(g1
g2
(lp1318
Vbut
p1319
atp1320
Rp1321
(dp1322
g14
VCC
p1323
sbag0
(g1
g2
(lp1324
g0
(g1
g2
(lp1325
g0
(g1
g2
(lp1326
Vgoing
p1327
atp1328
Rp1329
(dp1330
g14
VVBG
p1331
sbag0
(g1
g2
(lp1332
g0
(g1
g2
(lp1333
Vempty
p1334
atp1335
Rp1336
(dp1337
g14
VJJ
p1338
sbatp1339
Rp1340
(dp1341
g14
VADJP
p1342
sbatp1343
Rp1344
(dp1345
g14
VVP
p1346
sbatp1347
Rp1348
(dp1349
g14
VS
p1350
sbag0
(g1
g2
(lp1351
V.
p1352
atp1353
Rp1354
(dp1355
g14
V.
p1356
sbatp1357
Rp1358
(dp1359
g14
VS
p1360
sbatp1361
Rp1362
(dp1363
g14
S'id: 6'
p1364
sbag0
(g1
g2
(lp1365
g0
(g1
g2
(lp1366
g0
(g1
g2
(lp1367
g0
(g1
g2
(lp1368
g0
(g1
g2
(lp1369
Vok
p1370
atp1371
Rp1372
(dp1373
g14
VNN
p1374
sbatp1375
Rp1376
(dp1377
g14
VNP
p1378
sbag0
(g1
g2
(lp1379
Vand
p1380
atp1381
Rp1382
(dp1383
g14
VCC
p1384
sbag0
(g1
g2
(lp1385
g0
(g1
g2
(lp1386
Vit
p1387
atp1388
Rp1389
(dp1390
g14
VPRP
p1391
sbatp1392
Rp1393
(dp1394
g14
VNP
p1395
sbatp1396
Rp1397
(dp1398
g14
VNP
p1399
sbag0
(g1
g2
(lp1400
g0
(g1
g2
(lp1401
Vlooks
p1402
atp1403
Rp1404
(dp1405
g14
VVBZ
p1406
sbag0
(g1
g2
(lp1407
g0
(g1
g2
(lp1408
Vlike
p1409
atp1410
Rp1411
(dp1412
g14
VIN
p1413
sbag0
(g1
g2
(lp1414
g0
(g1
g2
(lp1415
g0
(g1
g2
(lp1416
Vhe
p1417
atp1418
Rp1419
(dp1420
g14
VPRP
p1421
sbatp1422
Rp1423
(dp1424
g14
VNP
p1425
sbag0
(g1
g2
(lp1426
g0
(g1
g2
(lp1427
V's
p1428
atp1429
Rp1430
(dp1431
g14
VVBZ
p1432
sbag0
(g1
g2
(lp1433
g0
(g1
g2
(lp1434
g0
(g1
g2
(lp1435
Valready
p1436
atp1437
Rp1438
(dp1439
g14
VRB
p1440
sbatp1441
Rp1442
(dp1443
g14
VADVP
p1444
sbag0
(g1
g2
(lp1445
Vgot
p1446
atp1447
Rp1448
(dp1449
g14
VVBN
p1450
sbag0
(g1
g2
(lp1451
g0
(g1
g2
(lp1452
g0
(g1
g2
(lp1453
Vone
p1454
atp1455
Rp1456
(dp1457
g14
VCD
p1458
sbag0
(g1
g2
(lp1459
Vcookie
p1460
atp1461
Rp1462
(dp1463
g14
VNN
p1464
sbatp1465
Rp1466
(dp1467
g14
VNP
p1468
sbag0
(g1
g2
(lp1469
Vand
p1470
atp1471
Rp1472
(dp1473
g14
VCC
p1474
sbag0
(g1
g2
(lp1475
g0
(g1
g2
(lp1476
Vheading
p1477
atp1478
Rp1479
(dp1480
g14
VVBG
p1481
sbag0
(g1
g2
(lp1482
g0
(g1
g2
(lp1483
Vfor
p1484
atp1485
Rp1486
(dp1487
g14
VIN
p1488
sbag0
(g1
g2
(lp1489
g0
(g1
g2
(lp1490
g0
(g1
g2
(lp1491
g0
(g1
g2
(lp1492
Vanother
p1493
atp1494
Rp1495
(dp1496
g14
VDT
p1497
sbatp1498
Rp1499
(dp1500
g14
VNP
p1501
sbag0
(g1
g2
(lp1502
V,
p1503
atp1504
Rp1505
(dp1506
g14
V,
p1507
sbag0
(g1
g2
(lp1508
g0
(g1
g2
(lp1509
g0
(g1
g2
(lp1510
Vhis
p1511
atp1512
Rp1513
(dp1514
g14
VPRP$
p1515
sbag0
(g1
g2
(lp1516
Vsister
p1517
atp1518
Rp1519
(dp1520
g14
VNN
p1521
sbatp1522
Rp1523
(dp1524
g14
VNP
p1525
sbag0
(g1
g2
(lp1526
V's
p1527
atp1528
Rp1529
(dp1530
g14
VPOS
p1531
sbatp1532
Rp1533
(dp1534
g14
VNP
p1535
sbatp1536
Rp1537
(dp1538
g14
VNP
p1539
sbag0
(g1
g2
(lp1540
g0
(g1
g2
(lp1541
Vreaching
p1542
atp1543
Rp1544
(dp1545
g14
VVBG
p1546
sbag0
(g1
g2
(lp1547
g0
(g1
g2
(lp1548
Vfor
p1549
atp1550
Rp1551
(dp1552
g14
VIN
p1553
sbag0
(g1
g2
(lp1554
g0
(g1
g2
(lp1555
Vthe
p1556
atp1557
Rp1558
(dp1559
g14
VDT
p1560
sbag0
(g1
g2
(lp1561
Vcookie
p1562
atp1563
Rp1564
(dp1565
g14
VNN
p1566
sbatp1567
Rp1568
(dp1569
g14
VNP
p1570
sbatp1571
Rp1572
(dp1573
g14
VPP
p1574
sbatp1575
Rp1576
(dp1577
g14
VVP
p1578
sbatp1579
Rp1580
(dp1581
g14
VS
p1582
sbatp1583
Rp1584
(dp1585
g14
VPP
p1586
sbag0
(g1
g2
(lp1587
g0
(g1
g2
(lp1588
Vtoo
p1589
atp1590
Rp1591
(dp1592
g14
VRB
p1593
sbatp1594
Rp1595
(dp1596
g14
VADVP
p1597
sbatp1598
Rp1599
(dp1600
g14
VVP
p1601
sbatp1602
Rp1603
(dp1604
g14
VUCP
p1605
sbatp1606
Rp1607
(dp1608
g14
VVP
p1609
sbatp1610
Rp1611
(dp1612
g14
VVP
p1613
sbatp1614
Rp1615
(dp1616
g14
VS
p1617
sbatp1618
Rp1619
(dp1620
g14
VSBAR
p1621
sbatp1622
Rp1623
(dp1624
g14
VVP
p1625
sbag0
(g1
g2
(lp1626
V.
p1627
atp1628
Rp1629
(dp1630
g14
V.
p1631
sbatp1632
Rp1633
(dp1634
g14
VS
p1635
sbatp1636
Rp1637
(dp1638
g14
S'id: 7'
p1639
sbag0
(g1
g2
(lp1640
g0
(g1
g2
(lp1641
g0
(g1
g2
(lp1642
g0
(g1
g2
(lp1643
VHow
p1644
atp1645
Rp1646
(dp1647
g14
VWRB
p1648
sbatp1649
Rp1650
(dp1651
g14
VWHADVP
p1652
sbag0
(g1
g2
(lp1653
g0
(g1
g2
(lp1654
g0
(g1
g2
(lp1655
Vabout
p1656
atp1657
Rp1658
(dp1659
g14
VRB
p1660
sbatp1661
Rp1662
(dp1663
g14
VADVP
p1664
sbag0
(g1
g2
(lp1665
Vthat
p1666
atp1667
Rp1668
(dp1669
g14
VIN
p1670
sbatp1671
Rp1672
(dp1673
g14
VPP
p1674
sbatp1675
Rp1676
(dp1677
g14
VFRAG
p1678
sbatp1679
Rp1680
(dp1681
g14
S'id: 8'
p1682
sbatp1683
Rp1684
(dp1685
g14
S'sentences'
p1686
sb.