ccopy_reg
_reconstructor
p0
(cnltk.tree
Tree
p1
c__builtin__
list
p2
(lp3
g0
(g1
g2
(lp4
g0
(g1
g2
(lp5
g0
(g1
g2
(lp6
g0
(g1
g2
(lp7
VOh
p8
atp9
Rp10
(dp11
S'_label'
p12
VUH
p13
sbatp14
Rp15
(dp16
g12
VINTJ
p17
sbag0
(g1
g2
(lp18
g0
(g1
g2
(lp19
Vboy
p20
atp21
Rp22
(dp23
g12
VUH
p24
sbatp25
Rp26
(dp27
g12
VINTJ
p28
sbag0
(g1
g2
(lp29
V,
p30
atp31
Rp32
(dp33
g12
V,
p34
sbag0
(g1
g2
(lp35
g0
(g1
g2
(lp36
Vthis
p37
atp38
Rp39
(dp40
g12
VDT
p41
sbatp42
Rp43
(dp44
g12
VNP
p45
sbag0
(g1
g2
(lp46
g0
(g1
g2
(lp47
Vis
p48
atp49
Rp50
(dp51
g12
VVBZ
p52
sbag0
(g1
g2
(lp53
g0
(g1
g2
(lp54
Va
p55
atp56
Rp57
(dp58
g12
VDT
p59
sbag0
(g1
g2
(lp60
Vbusy
p61
atp62
Rp63
(dp64
g12
VJJ
p65
sbag0
(g1
g2
(lp66
Vone
p67
atp68
Rp69
(dp70
g12
VCD
p71
sbatp72
Rp73
(dp74
g12
VNP
p75
sbatp76
Rp77
(dp78
g12
VVP
p79
sbag0
(g1
g2
(lp80
V.
p81
atp82
Rp83
(dp84
g12
V.
p85
sbatp86
Rp87
(dp88
g12
VS
p89
sbatp90
Rp91
(dp92
g12
S'id: 0'
p93
sbag0
(g1
g2
(lp94
g0
(g1
g2
(lp95
g0
(g1
g2
(lp96
g0
(g1
g2
(lp97
g0
(g1
g2
(lp98
VThis
p99
atp100
Rp101
(dp102
g12
VDT
p103
sbatp104
Rp105
(dp106
g12
VNP
p107
sbag0
(g1
g2
(lp108
g0
(g1
g2
(lp109
Vis
p110
atp111
Rp112
(dp113
g12
VVBZ
p114
sbag0
(g1
g2
(lp115
g0
(g1
g2
(lp116
Va
p117
atp118
Rp119
(dp120
g12
VDT
p121
sbatp122
Rp123
(dp124
g12
VNP
p125
sbatp126
Rp127
(dp128
g12
VVP
p129
sbatp130
Rp131
(dp132
g12
VS
p133
sbag0
(g1
g2
(lp134
V,
p135
atp136
Rp137
(dp138
g12
V,
p139
sbag0
(g1
g2
(lp140
g0
(g1
g2
(lp141
Vlooks
p142
atp143
Rp144
(dp145
g12
VVBZ
p146
sbag0
(g1
g2
(lp147
g0
(g1
g2
(lp148
Vlike
p149
atp150
Rp151
(dp152
g12
VIN
p153
sbag0
(g1
g2
(lp154
g0
(g1
g2
(lp155
g0
(g1
g2
(lp156
Va
p157
atp158
Rp159
(dp160
g12
VDT
p161
sbag0
(g1
g2
(lp162
Vcircus
p163
atp164
Rp165
(dp166
g12
VNN
p167
sbatp168
Rp169
(dp170
g12
VNP
p171
sbag0
(g1
g2
(lp172
Vor
p173
atp174
Rp175
(dp176
g12
VCC
p177
sbag0
(g1
g2
(lp178
g0
(g1
g2
(lp179
Va
p180
atp181
Rp182
(dp183
g12
VDT
p184
sbag0
(g1
g2
(lp185
Vcarnival
p186
atp187
Rp188
(dp189
g12
VNN
p190
sbatp191
Rp192
(dp193
g12
VNP
p194
sbatp195
Rp196
(dp197
g12
VNP
p198
sbag0
(g1
g2
(lp199
V,
p200
atp201
Rp202
(dp203
g12
V,
p204
sbag0
(g1
g2
(lp205
g0
(g1
g2
(lp206
Vprobably
p207
atp208
Rp209
(dp210
g12
VRB
p211
sbatp212
Rp213
(dp214
g12
VADVP
p215
sbatp216
Rp217
(dp218
g12
VPP
p219
sbatp220
Rp221
(dp222
g12
VVP
p223
sbag0
(g1
g2
(lp224
g0
(g1
g2
(lp225
Va
p226
atp227
Rp228
(dp229
g12
VDT
p230
sbag0
(g1
g2
(lp231
Vcircus
p232
atp233
Rp234
(dp235
g12
VNN
p236
sbatp237
Rp238
(dp239
g12
VNP
p240
sbag0
(g1
g2
(lp241
V.
p242
atp243
Rp244
(dp245
g12
V.
p246
sbatp247
Rp248
(dp249
g12
VSINV
p250
sbatp251
Rp252
(dp253
g12
S'id: 1'
p254
sbag0
(g1
g2
(lp255
g0
(g1
g2
(lp256
g0
(g1
g2
(lp257
g0
(g1
g2
(lp258
g0
(g1
g2
(lp259
g0
(g1
g2
(lp260
VThere
p261
atp262
Rp263
(dp264
g12
VEX
p265
sbatp266
Rp267
(dp268
g12
VNP
p269
sbag0
(g1
g2
(lp270
g0
(g1
g2
(lp271
Vis
p272
atp273
Rp274
(dp275
g12
VVBZ
p276
sbag0
(g1
g2
(lp277
g0
(g1
g2
(lp278
g0
(g1
g2
(lp279
Va
p280
atp281
Rp282
(dp283
g12
VDT
p284
sbag0
(g1
g2
(lp285
Vhigh
p286
atp287
Rp288
(dp289
g12
VJJ
p290
sbag0
(g1
g2
(lp291
Vwire
p292
atp293
Rp294
(dp295
g12
VNN
p296
sbag0
(g1
g2
(lp297
Vbalancer
p298
atp299
Rp300
(dp301
g12
VNN
p302
sbatp303
Rp304
(dp305
g12
VNP
p306
sbag0
(g1
g2
(lp307
g0
(g1
g2
(lp308
Vout
p309
atp310
Rp311
(dp312
g12
VIN
p313
sbag0
(g1
g2
(lp314
g0
(g1
g2
(lp315
Vthere
p316
atp317
Rp318
(dp319
g12
VRB
p320
sbatp321
Rp322
(dp323
g12
VNP
p324
sbatp325
Rp326
(dp327
g12
VPP
p328
sbatp329
Rp330
(dp331
g12
VNP
p332
sbatp333
Rp334
(dp335
g12
VVP
p336
sbatp337
Rp338
(dp339
g12
VS
p340
sbag0
(g1
g2
(lp341
V,
p342
atp343
Rp344
(dp345
g12
V,
p346
sbag0
(g1
g2
(lp347
Vand
p348
atp349
Rp350
(dp351
g12
VCC
p352
sbag0
(g1
g2
(lp353
g0
(g1
g2
(lp354
g0
(g1
g2
(lp355
Vhe
p356
atp357
Rp358
(dp359
g12
VPRP
p360
sbatp361
Rp362
(dp363
g12
VNP
p364
sbag0
(g1
g2
(lp365
g0
(g1
g2
(lp366
V's
p367
atp368
Rp369
(dp370
g12
VVBZ
p371
sbatp372
Rp373
(dp374
g12
VVP
p375
sbatp376
Rp377
(dp378
g12
VS
p379
sbatp380
Rp381
(dp382
g12
VS
p383
sbag0
(g1
g2
(lp384
g0
(g1
g2
(lp385
Vgot
p386
atp387
Rp388
(dp389
g12
VVBD
p390
sbatp391
Rp392
(dp393
g12
VVP
p394
sbag0
(g1
g2
(lp395
g0
(g1
g2
(lp396
g0
(g1
g2
(lp397
Vhis
p398
atp399
Rp400
(dp401
g12
VPRP$
p402
sbag0
(g1
g2
(lp403
Vpole
p404
atp405
Rp406
(dp407
g12
VNN
p408
sbatp409
Rp410
(dp411
g12
VNP
p412
sbag0
(g1
g2
(lp413
V,
p414
atp415
Rp416
(dp417
g12
V,
p418
sbag0
(g1
g2
(lp419
g0
(g1
g2
(lp420
g0
(g1
g2
(lp421
Vhis
p422
atp423
Rp424
(dp425
g12
VPRP$
p426
sbag0
(g1
g2
(lp427
Vlong
p428
atp429
Rp430
(dp431
g12
VJJ
p432
sbag0
(g1
g2
(lp433
Vpole
p434
atp435
Rp436
(dp437
g12
VNN
p438
sbatp439
Rp440
(dp441
g12
VNP
p442
sbag0
(g1
g2
(lp443
g0
(g1
g2
(lp444
g0
(g1
g2
(lp445
Vthat
p446
atp447
Rp448
(dp449
g12
VWDT
p450
sbatp451
Rp452
(dp453
g12
VWHNP
p454
sbag0
(g1
g2
(lp455
g0
(g1
g2
(lp456
g0
(g1
g2
(lp457
Vhelps
p458
atp459
Rp460
(dp461
g12
VVBZ
p462
sbag0
(g1
g2
(lp463
g0
(g1
g2
(lp464
g0
(g1
g2
(lp465
Vhim
p466
atp467
Rp468
(dp469
g12
VPRP
p470
sbatp471
Rp472
(dp473
g12
VNP
p474
sbag0
(g1
g2
(lp475
g0
(g1
g2
(lp476
Vkeep
p477
atp478
Rp479
(dp480
g12
VVB
p481
sbag0
(g1
g2
(lp482
g0
(g1
g2
(lp483
Vhis
p484
atp485
Rp486
(dp487
g12
VPRP$
p488
sbag0
(g1
g2
(lp489
Vbalance
p490
atp491
Rp492
(dp493
g12
VNN
p494
sbatp495
Rp496
(dp497
g12
VNP
p498
sbatp499
Rp500
(dp501
g12
VVP
p502
sbatp503
Rp504
(dp505
g12
VS
p506
sbatp507
Rp508
(dp509
g12
VVP
p510
sbatp511
Rp512
(dp513
g12
VS
p514
sbatp515
Rp516
(dp517
g12
VSBAR
p518
sbatp519
Rp520
(dp521
g12
VNP
p522
sbatp523
Rp524
(dp525
g12
VNP
p526
sbag0
(g1
g2
(lp527
V.
p528
atp529
Rp530
(dp531
g12
V.
p532
sbatp533
Rp534
(dp535
g12
VSINV
p536
sbatp537
Rp538
(dp539
g12
S'id: 2'
p540
sbag0
(g1
g2
(lp541
g0
(g1
g2
(lp542
g0
(g1
g2
(lp543
g0
(g1
g2
(lp544
VThere
p545
atp546
Rp547
(dp548
g12
VEX
p549
sbatp550
Rp551
(dp552
g12
VNP
p553
sbag0
(g1
g2
(lp554
g0
(g1
g2
(lp555
Vis
p556
atp557
Rp558
(dp559
g12
VVBZ
p560
sbag0
(g1
g2
(lp561
g0
(g1
g2
(lp562
g0
(g1
g2
(lp563
Vthe
p564
atp565
Rp566
(dp567
g12
VDT
p568
sbag0
(g1
g2
(lp569
Vhorse
p570
atp571
Rp572
(dp573
g12
VNN
p574
sbatp575
Rp576
(dp577
g12
VNP
p578
sbag0
(g1
g2
(lp579
g0
(g1
g2
(lp580
g0
(g1
g2
(lp581
Vthat
p582
atp583
Rp584
(dp585
g12
VWDT
p586
sbatp587
Rp588
(dp589
g12
VWHNP
p590
sbag0
(g1
g2
(lp591
g0
(g1
g2
(lp592
g0
(g1
g2
(lp593
Vruns
p594
atp595
Rp596
(dp597
g12
VVBZ
p598
sbag0
(g1
g2
(lp599
g0
(g1
g2
(lp600
Varound
p601
atp602
Rp603
(dp604
g12
VIN
p605
sbatp606
Rp607
(dp608
g12
VPRT
p609
sbag0
(g1
g2
(lp610
g0
(g1
g2
(lp611
Vin
p612
atp613
Rp614
(dp615
g12
VIN
p616
sbag0
(g1
g2
(lp617
Vthe
p618
atp619
Rp620
(dp621
g12
VDT
p622
sbatp623
Rp624
(dp625
g12
VADVP
p626
sbag0
(g1
g2
(lp627
V,
p628
atp629
Rp630
(dp631
g12
V,
p632
sbag0
(g1
g2
(lp633
g0
(g1
g2
(lp634
Vin
p635
atp636
Rp637
(dp638
g12
VIN
p639
sbag0
(g1
g2
(lp640
g0
(g1
g2
(lp641
g0
(g1
g2
(lp642
g0
(g1
g2
(lp643
Vthe
p644
atp645
Rp646
(dp647
g12
VDT
p648
sbag0
(g1
g2
(lp649
Vinside
p650
atp651
Rp652
(dp653
g12
VNN
p654
sbatp655
Rp656
(dp657
g12
VNP
p658
sbag0
(g1
g2
(lp659
g0
(g1
g2
(lp660
Vof
p661
atp662
Rp663
(dp664
g12
VIN
p665
sbag0
(g1
g2
(lp666
g0
(g1
g2
(lp667
Vthe
p668
atp669
Rp670
(dp671
g12
VDT
p672
sbag0
(g1
g2
(lp673
Vcircle
p674
atp675
Rp676
(dp677
g12
VNN
p678
sbatp679
Rp680
(dp681
g12
VNP
p682
sbatp683
Rp684
(dp685
g12
VPP
p686
sbatp687
Rp688
(dp689
g12
VNP
p690
sbag0
(g1
g2
(lp691
g0
(g1
g2
(lp692
V,
p693
atp694
Rp695
(dp696
g12
V,
p697
sbag0
(g1
g2
(lp698
g0
(g1
g2
(lp699
Vand
p700
atp701
Rp702
(dp703
g12
VCC
p704
sbag0
(g1
g2
(lp705
g0
(g1
g2
(lp706
Vthe
p707
atp708
Rp709
(dp710
g12
VDT
p711
sbag0
(g1
g2
(lp712
Vthe
p713
atp714
Rp715
(dp716
g12
VDT
p717
sbag0
(g1
g2
(lp718
Vgirl
p719
atp720
Rp721
(dp722
g12
VNN
p723
sbatp724
Rp725
(dp726
g12
VNP
p727
sbag0
(g1
g2
(lp728
g0
(g1
g2
(lp729
Vis
p730
atp731
Rp732
(dp733
g12
VVBZ
p734
sbag0
(g1
g2
(lp735
g0
(g1
g2
(lp736
Vriding
p737
atp738
Rp739
(dp740
g12
VVBG
p741
sbag0
(g1
g2
(lp742
g0
(g1
g2
(lp743
Vthe
p744
atp745
Rp746
(dp747
g12
VDT
p748
sbag0
(g1
g2
(lp749
Vhorse
p750
atp751
Rp752
(dp753
g12
VNN
p754
sbatp755
Rp756
(dp757
g12
VNP
p758
sbatp759
Rp760
(dp761
g12
VVP
p762
sbatp763
Rp764
(dp765
g12
VVP
p766
sbatp767
Rp768
(dp769
g12
VS
p770
sbag0
(g1
g2
(lp771
V,
p772
atp773
Rp774
(dp775
g12
V,
p776
sbatp777
Rp778
(dp779
g12
VPRN
p780
sbag0
(g1
g2
(lp781
Vand
p782
atp783
Rp784
(dp785
g12
VCC
p786
sbag0
(g1
g2
(lp787
V,
p788
atp789
Rp790
(dp791
g12
V,
p792
sbag0
(g1
g2
(lp793
Vand
p794
atp795
Rp796
(dp797
g12
VCC
p798
sbag0
(g1
g2
(lp799
V,
p800
atp801
Rp802
(dp803
g12
V,
p804
sbag0
(g1
g2
(lp805
Vand
p806
atp807
Rp808
(dp809
g12
VCC
p810
sbag0
(g1
g2
(lp811
g0
(g1
g2
(lp812
g0
(g1
g2
(lp813
Vshe
p814
atp815
Rp816
(dp817
g12
VPRP
p818
sbatp819
Rp820
(dp821
g12
VNP
p822
sbag0
(g1
g2
(lp823
g0
(g1
g2
(lp824
g0
(g1
g2
(lp825
g0
(g1
g2
(lp826
Vbalances
p827
atp828
Rp829
(dp830
g12
VVBZ
p831
sbag0
(g1
g2
(lp832
g0
(g1
g2
(lp833
Vwhile
p834
atp835
Rp836
(dp837
g12
VIN
p838
sbag0
(g1
g2
(lp839
g0
(g1
g2
(lp840
g0
(g1
g2
(lp841
Vthe
p842
atp843
Rp844
(dp845
g12
VDT
p846
sbag0
(g1
g2
(lp847
Vhorse
p848
atp849
Rp850
(dp851
g12
VNN
p852
sbatp853
Rp854
(dp855
g12
VNP
p856
sbag0
(g1
g2
(lp857
g0
(g1
g2
(lp858
Vis
p859
atp860
Rp861
(dp862
g12
VVBZ
p863
sbag0
(g1
g2
(lp864
g0
(g1
g2
(lp865
Vgoing
p866
atp867
Rp868
(dp869
g12
VVBG
p870
sbag0
(g1
g2
(lp871
g0
(g1
g2
(lp872
Varound
p873
atp874
Rp875
(dp876
g12
VIN
p877
sbag0
(g1
g2
(lp878
Vthe
p879
atp880
Rp881
(dp882
g12
VDT
p883
sbatp884
Rp885
(dp886
g12
VADVP
p887
sbag0
(g1
g2
(lp888
V,
p889
atp890
Rp891
(dp892
g12
V,
p893
sbag0
(g1
g2
(lp894
g0
(g1
g2
(lp895
Varound
p896
atp897
Rp898
(dp899
g12
VIN
p900
sbag0
(g1
g2
(lp901
g0
(g1
g2
(lp902
Vthe
p903
atp904
Rp905
(dp906
g12
VDT
p907
sbag0
(g1
g2
(lp908
Vcircle
p909
atp910
Rp911
(dp912
g12
VNN
p913
sbatp914
Rp915
(dp916
g12
VNP
p917
sbatp918
Rp919
(dp920
g12
VPP
p921
sbatp922
Rp923
(dp924
g12
VVP
p925
sbatp926
Rp927
(dp928
g12
VVP
p929
sbatp930
Rp931
(dp932
g12
VS
p933
sbatp934
Rp935
(dp936
g12
VSBAR
p937
sbatp938
Rp939
(dp940
g12
VVP
p941
sbatp942
Rp943
(dp944
g12
VS
p945
sbatp946
Rp947
(dp948
g12
VSBAR
p949
sbatp950
Rp951
(dp952
g12
VNP
p953
sbatp954
Rp955
(dp956
g12
VNP
p957
sbatp958
Rp959
(dp960
g12
VPP
p961
sbatp962
Rp963
(dp964
g12
VVP
p965
sbatp966
Rp967
(dp968
g12
VS
p969
sbatp970
Rp971
(dp972
g12
VSBAR
p973
sbatp974
Rp975
(dp976
g12
VNP
p977
sbatp978
Rp979
(dp980
g12
VVP
p981
sbag0
(g1
g2
(lp982
V.
p983
atp984
Rp985
(dp986
g12
V.
p987
sbatp988
Rp989
(dp990
g12
VS
p991
sbatp992
Rp993
(dp994
g12
S'id: 3'
p995
sbag0
(g1
g2
(lp996
g0
(g1
g2
(lp997
VThere
p998
atp999
Rp1000
(dp1001
g12
VEX
p1002
sbag0
(g1
g2
(lp1003
V's
p1004
atp1005
Rp1006
(dp1007
g12
VVBZ
p1008
sbag0
(g1
g2
(lp1009
Vthe
p1010
atp1011
Rp1012
(dp1013
g12
VDT
p1014
sbag0
(g1
g2
(lp1015
Vclown
p1016
atp1017
Rp1018
(dp1019
g12
VNN
p1020
sbag0
(g1
g2
(lp1021
Vthere
p1022
atp1023
Rp1024
(dp1025
g12
VRB
p1026
sbag0
(g1
g2
(lp1027
V,
p1028
atp1029
Rp1030
(dp1031
g12
V,
p1032
sbag0
(g1
g2
(lp1033
Vand
p1034
atp1035
Rp1036
(dp1037
g12
VCC
p1038
sbag0
(g1
g2
(lp1039
Vhe
p1040
atp1041
Rp1042
(dp1043
g12
VPRP
p1044
sbag0
(g1
g2
(lp1045
V's
p1046
atp1047
Rp1048
(dp1049
g12
VVBZ
p1050
sbag0
(g1
g2
(lp1051
Vgot
p1052
atp1053
Rp1054
(dp1055
g12
VVBN
p1056
sbag0
(g1
g2
(lp1057
Von
p1058
atp1059
Rp1060
(dp1061
g12
VIN
p1062
sbag0
(g1
g2
(lp1063
Va
p1064
atp1065
Rp1066
(dp1067
g12
VDT
p1068
sbag0
(g1
g2
(lp1069
Vnice
p1070
atp1071
Rp1072
(dp1073
g12
VJJ
p1074
sbag0
(g1
g2
(lp1075
Vlooking
p1076
atp1077
Rp1078
(dp1079
g12
VVBG
p1080
sbag0
(g1
g2
(lp1081
Vsh/sh
p1082
atp1083
Rp1084
(dp1085
g12
VJJ
p1086
sbag0
(g1
g2
(lp1087
Vpair
p1088
atp1089
Rp1090
(dp1091
g12
VNN
p1092
sbag0
(g1
g2
(lp1093
Vof
p1094
atp1095
Rp1096
(dp1097
g12
VIN
p1098
sbag0
(g1
g2
(lp1099
Vstriped
p1100
atp1101
Rp1102
(dp1103
g12
VJJ
p1104
sbag0
(g1
g2
(lp1105
Vpants
p1106
atp1107
Rp1108
(dp1109
g12
VNNS
p1110
sbag0
(g1
g2
(lp1111
Vwith
p1112
atp1113
Rp1114
(dp1115
g12
VIN
p1116
sbag0
(g1
g2
(lp1117
Vflowers
p1118
atp1119
Rp1120
(dp1121
g12
VNNS
p1122
sbag0
(g1
g2
(lp1123
Von
p1124
atp1125
Rp1126
(dp1127
g12
VIN
p1128
sbag0
(g1
g2
(lp1129
Vhis
p1130
atp1131
Rp1132
(dp1133
g12
VPRP$
p1134
sbag0
(g1
g2
(lp1135
Vtie
p1136
atp1137
Rp1138
(dp1139
g12
VNN
p1140
sbag0
(g1
g2
(lp1141
V,
p1142
atp1143
Rp1144
(dp1145
g12
V,
p1146
sbag0
(g1
g2
(lp1147
Vand
p1148
atp1149
Rp1150
(dp1151
g12
VCC
p1152
sbag0
(g1
g2
(lp1153
Vhe
p1154
atp1155
Rp1156
(dp1157
g12
VPRP
p1158
sbag0
(g1
g2
(lp1159
V's
p1160
atp1161
Rp1162
(dp1163
g12
VVBZ
p1164
sbag0
(g1
g2
(lp1165
Vgot
p1166
atp1167
Rp1168
(dp1169
g12
VVBD
p1170
sbag0
(g1
g2
(lp1171
Vhis
p1172
atp1173
Rp1174
(dp1175
g12
VPRP$
p1176
sbag0
(g1
g2
(lp1177
Vred
p1178
atp1179
Rp1180
(dp1181
g12
VJJ
p1182
sbag0
(g1
g2
(lp1183
Vnose
p1184
atp1185
Rp1186
(dp1187
g12
VNN
p1188
sbag0
(g1
g2
(lp1189
Von
p1190
atp1191
Rp1192
(dp1193
g12
VIN
p1194
sbag0
(g1
g2
(lp1195
Vthere
p1196
atp1197
Rp1198
(dp1199
g12
VRB
p1200
sbag0
(g1
g2
(lp1201
V,
p1202
atp1203
Rp1204
(dp1205
g12
V,
p1206
sbag0
(g1
g2
(lp1207
Vand
p1208
atp1209
Rp1210
(dp1211
g12
VCC
p1212
sbag0
(g1
g2
(lp1213
Vhis
p1214
atp1215
Rp1216
(dp1217
g12
VPRP$
p1218
sbag0
(g1
g2
(lp1219
Vgarb
p1220
atp1221
Rp1222
(dp1223
g12
VNN
p1224
sbag0
(g1
g2
(lp1225
Vand
p1226
atp1227
Rp1228
(dp1229
g12
VCC
p1230
sbag0
(g1
g2
(lp1231
Veverything
p1232
atp1233
Rp1234
(dp1235
g12
VNN
p1236
sbag0
(g1
g2
(lp1237
V,
p1238
atp1239
Rp1240
(dp1241
g12
V,
p1242
sbag0
(g1
g2
(lp1243
Vand
p1244
atp1245
Rp1246
(dp1247
g12
VCC
p1248
sbag0
(g1
g2
(lp1249
Vhe
p1250
atp1251
Rp1252
(dp1253
g12
VPRP
p1254
sbag0
(g1
g2
(lp1255
V's
p1256
atp1257
Rp1258
(dp1259
g12
VVBZ
p1260
sbag0
(g1
g2
(lp1261
Vgot
p1262
atp1263
Rp1264
(dp1265
g12
VVBD
p1266
sbag0
(g1
g2
(lp1267
Va
p1268
atp1269
Rp1270
(dp1271
g12
VDT
p1272
sbag0
(g1
g2
(lp1273
Vlittle
p1274
atp1275
Rp1276
(dp1277
g12
VJJ
p1278
sbag0
(g1
g2
(lp1279
Vflower
p1280
atp1281
Rp1282
(dp1283
g12
VNN
p1284
sbag0
(g1
g2
(lp1285
Vcoming
p1286
atp1287
Rp1288
(dp1289
g12
VVBG
p1290
sbag0
(g1
g2
(lp1291
Vout
p1292
atp1293
Rp1294
(dp1295
g12
VIN
p1296
sbag0
(g1
g2
(lp1297
Vof
p1298
atp1299
Rp1300
(dp1301
g12
VIN
p1302
sbag0
(g1
g2
(lp1303
Vhis
p1304
atp1305
Rp1306
(dp1307
g12
VPRP$
p1308
sbag0
(g1
g2
(lp1309
Vhat
p1310
atp1311
Rp1312
(dp1313
g12
VNN
p1314
sbag0
(g1
g2
(lp1315
Vthere
p1316
atp1317
Rp1318
(dp1319
g12
VRB
p1320
sbag0
(g1
g2
(lp1321
V,
p1322
atp1323
Rp1324
(dp1325
g12
V,
p1326
sbag0
(g1
g2
(lp1327
Vand
p1328
atp1329
Rp1330
(dp1331
g12
VCC
p1332
sbag0
(g1
g2
(lp1333
Vhe
p1334
atp1335
Rp1336
(dp1337
g12
VPRP
p1338
sbag0
(g1
g2
(lp1339
V's
p1340
atp1341
Rp1342
(dp1343
g12
VVBZ
p1344
sbag0
(g1
g2
(lp1345
Vgot
p1346
atp1347
Rp1348
(dp1349
g12
VVBD
p1350
sbag0
(g1
g2
(lp1351
Vsomething
p1352
atp1353
Rp1354
(dp1355
g12
VNN
p1356
sbag0
(g1
g2
(lp1357
Vprobably
p1358
atp1359
Rp1360
(dp1361
g12
VRB
p1362
sbag0
(g1
g2
(lp1363
Vlike
p1364
atp1365
Rp1366
(dp1367
g12
VIN
p1368
sbag0
(g1
g2
(lp1369
Vpopcorn
p1370
atp1371
Rp1372
(dp1373
g12
VNN
p1374
sbag0
(g1
g2
(lp1375
Vor
p1376
atp1377
Rp1378
(dp1379
g12
VCC
p1380
sbag0
(g1
g2
(lp1381
Vsomething
p1382
atp1383
Rp1384
(dp1385
g12
VNN
p1386
sbag0
(g1
g2
(lp1387
Vcoming
p1388
atp1389
Rp1390
(dp1391
g12
VVBG
p1392
sbag0
(g1
g2
(lp1393
Vout
p1394
atp1395
Rp1396
(dp1397
g12
VIN
p1398
sbag0
(g1
g2
(lp1399
Vof
p1400
atp1401
Rp1402
(dp1403
g12
VIN
p1404
sbag0
(g1
g2
(lp1405
Vthe
p1406
atp1407
Rp1408
(dp1409
g12
VDT
p1410
sbag0
(g1
g2
(lp1411
Vpail
p1412
atp1413
Rp1414
(dp1415
g12
VNN
p1416
sbag0
(g1
g2
(lp1417
Vthere
p1418
atp1419
Rp1420
(dp1421
g12
VRB
p1422
sbag0
(g1
g2
(lp1423
V.
p1424
atp1425
Rp1426
(dp1427
g12
V.
p1428
sbatp1429
Rp1430
(dp1431
g12
S'id: 4'
p1432
sbag0
(g1
g2
(lp1433
g0
(g1
g2
(lp1434
g0
(g1
g2
(lp1435
g0
(g1
g2
(lp1436
g0
(g1
g2
(lp1437
g0
(g1
g2
(lp1438
VThere
p1439
atp1440
Rp1441
(dp1442
g12
VEX
p1443
sbatp1444
Rp1445
(dp1446
g12
VNP
p1447
sbag0
(g1
g2
(lp1448
g0
(g1
g2
(lp1449
V's
p1450
atp1451
Rp1452
(dp1453
g12
VVBZ
p1454
sbag0
(g1
g2
(lp1455
g0
(g1
g2
(lp1456
g0
(g1
g2
(lp1457
Va
p1458
atp1459
Rp1460
(dp1461
g12
VDT
p1462
sbag0
(g1
g2
(lp1463
Vlion
p1464
atp1465
Rp1466
(dp1467
g12
VNN
p1468
sbatp1469
Rp1470
(dp1471
g12
VNP
p1472
sbag0
(g1
g2
(lp1473
g0
(g1
g2
(lp1474
Vin
p1475
atp1476
Rp1477
(dp1478
g12
VIN
p1479
sbag0
(g1
g2
(lp1480
g0
(g1
g2
(lp1481
Vthe
p1482
atp1483
Rp1484
(dp1485
g12
VDT
p1486
sbag0
(g1
g2
(lp1487
Vcage
p1488
atp1489
Rp1490
(dp1491
g12
VNN
p1492
sbatp1493
Rp1494
(dp1495
g12
VNP
p1496
sbatp1497
Rp1498
(dp1499
g12
VPP
p1500
sbatp1501
Rp1502
(dp1503
g12
VNP
p1504
sbag0
(g1
g2
(lp1505
g0
(g1
g2
(lp1506
Vthere
p1507
atp1508
Rp1509
(dp1510
g12
VRB
p1511
sbatp1512
Rp1513
(dp1514
g12
VADVP
p1515
sbatp1516
Rp1517
(dp1518
g12
VVP
p1519
sbatp1520
Rp1521
(dp1522
g12
VS
p1523
sbag0
(g1
g2
(lp1524
V,
p1525
atp1526
Rp1527
(dp1528
g12
V,
p1529
sbag0
(g1
g2
(lp1530
Vand
p1531
atp1532
Rp1533
(dp1534
g12
VCC
p1535
sbag0
(g1
g2
(lp1536
g0
(g1
g2
(lp1537
g0
(g1
g2
(lp1538
Vhe
p1539
atp1540
Rp1541
(dp1542
g12
VPRP
p1543
sbatp1544
Rp1545
(dp1546
g12
VNP
p1547
sbag0
(g1
g2
(lp1548
g0
(g1
g2
(lp1549
V's
p1550
atp1551
Rp1552
(dp1553
g12
VVBZ
p1554
sbag0
(g1
g2
(lp1555
g0
(g1
g2
(lp1556
Vup
p1557
atp1558
Rp1559
(dp1560
g12
VRP
p1561
sbatp1562
Rp1563
(dp1564
g12
VADVP
p1565
sbag0
(g1
g2
(lp1566
g0
(g1
g2
(lp1567
Von
p1568
atp1569
Rp1570
(dp1571
g12
VIN
p1572
sbag0
(g1
g2
(lp1573
g0
(g1
g2
(lp1574
g0
(g1
g2
(lp1575
Vone
p1576
atp1577
Rp1578
(dp1579
g12
VCD
p1580
sbatp1581
Rp1582
(dp1583
g12
VNP
p1584
sbag0
(g1
g2
(lp1585
g0
(g1
g2
(lp1586
Vof
p1587
atp1588
Rp1589
(dp1590
g12
VIN
p1591
sbag0
(g1
g2
(lp1592
g0
(g1
g2
(lp1593
Vthose
p1594
atp1595
Rp1596
(dp1597
g12
VDT
p1598
sbatp1599
Rp1600
(dp1601
g12
VNP
p1602
sbatp1603
Rp1604
(dp1605
g12
VPP
p1606
sbatp1607
Rp1608
(dp1609
g12
VNP
p1610
sbatp1611
Rp1612
(dp1613
g12
VPP
p1614
sbatp1615
Rp1616
(dp1617
g12
VVP
p1618
sbatp1619
Rp1620
(dp1621
g12
VS
p1622
sbatp1623
Rp1624
(dp1625
g12
VS
p1626
sbag0
(g1
g2
(lp1627
g0
(g1
g2
(lp1628
V,
p1629
atp1630
Rp1631
(dp1632
g12
V,
p1633
sbag0
(g1
g2
(lp1634
g0
(g1
g2
(lp1635
g0
(g1
g2
(lp1636
VI
p1637
atp1638
Rp1639
(dp1640
g12
VPRP
p1641
sbatp1642
Rp1643
(dp1644
g12
VNP
p1645
sbag0
(g1
g2
(lp1646
g0
(g1
g2
(lp1647
Vdo
p1648
atp1649
Rp1650
(dp1651
g12
VVBP
p1652
sbag0
(g1
g2
(lp1653
Vn't
p1654
atp1655
Rp1656
(dp1657
g12
VRB
p1658
sbag0
(g1
g2
(lp1659
g0
(g1
g2
(lp1660
Vknow
p1661
atp1662
Rp1663
(dp1664
g12
VVB
p1665
sbag0
(g1
g2
(lp1666
g0
(g1
g2
(lp1667
g0
(g1
g2
(lp1668
Vwhat
p1669
atp1670
Rp1671
(dp1672
g12
VWP
p1673
sbatp1674
Rp1675
(dp1676
g12
VWHNP
p1677
sbag0
(g1
g2
(lp1678
g0
(g1
g2
(lp1679
g0
(g1
g2
(lp1680
Vyou
p1681
atp1682
Rp1683
(dp1684
g12
VPRP
p1685
sbatp1686
Rp1687
(dp1688
g12
VNP
p1689
sbag0
(g1
g2
(lp1690
g0
(g1
g2
(lp1691
Vcall
p1692
atp1693
Rp1694
(dp1695
g12
VVBP
p1696
sbag0
(g1
g2
(lp1697
g0
(g1
g2
(lp1698
Vthem
p1699
atp1700
Rp1701
(dp1702
g12
VPRP
p1703
sbatp1704
Rp1705
(dp1706
g12
VNP
p1707
sbatp1708
Rp1709
(dp1710
g12
VVP
p1711
sbatp1712
Rp1713
(dp1714
g12
VS
p1715
sbatp1716
Rp1717
(dp1718
g12
VSBAR
p1719
sbatp1720
Rp1721
(dp1722
g12
VVP
p1723
sbatp1724
Rp1725
(dp1726
g12
VVP
p1727
sbatp1728
Rp1729
(dp1730
g12
VS
p1731
sbag0
(g1
g2
(lp1732
V,
p1733
atp1734
Rp1735
(dp1736
g12
V,
p1737
sbatp1738
Rp1739
(dp1740
g12
VPRN
p1741
sbag0
(g1
g2
(lp1742
Vbut
p1743
atp1744
Rp1745
(dp1746
g12
VCC
p1747
sbag0
(g1
g2
(lp1748
g0
(g1
g2
(lp1749
g0
(g1
g2
(lp1750
Vit
p1751
atp1752
Rp1753
(dp1754
g12
VPRP
p1755
sbatp1756
Rp1757
(dp1758
g12
VNP
p1759
sbag0
(g1
g2
(lp1760
g0
(g1
g2
(lp1761
V's
p1762
atp1763
Rp1764
(dp1765
g12
VVBZ
p1766
sbag0
(g1
g2
(lp1767
g0
(g1
g2
(lp1768
Vlike
p1769
atp1770
Rp1771
(dp1772
g12
VIN
p1773
sbag0
(g1
g2
(lp1774
g0
(g1
g2
(lp1775
g0
(g1
g2
(lp1776
Va
p1777
atp1778
Rp1779
(dp1780
g12
VDT
p1781
sbag0
(g1
g2
(lp1782
Vtub
p1783
atp1784
Rp1785
(dp1786
g12
VNN
p1787
sbatp1788
Rp1789
(dp1790
g12
VNP
p1791
sbag0
(g1
g2
(lp1792
V,
p1793
atp1794
Rp1795
(dp1796
g12
V,
p1797
sbag0
(g1
g2
(lp1798
g0
(g1
g2
(lp1799
Va
p1800
atp1801
Rp1802
(dp1803
g12
VDT
p1804
sbag0
(g1
g2
(lp1805
g0
(g1
g2
(lp1806
Va
p1807
atp1808
Rp1809
(dp1810
g12
VDT
p1811
sbag0
(g1
g2
(lp1812
Vround
p1813
atp1814
Rp1815
(dp1816
g12
VNN
p1817
sbatp1818
Rp1819
(dp1820
g12
VNP
p1821
sbag0
(g1
g2
(lp1822
Vtub
p1823
atp1824
Rp1825
(dp1826
g12
VNN
p1827
sbatp1828
Rp1829
(dp1830
g12
VNP
p1831
sbatp1832
Rp1833
(dp1834
g12
VNP
p1835
sbatp1836
Rp1837
(dp1838
g12
VPP
p1839
sbatp1840
Rp1841
(dp1842
g12
VVP
p1843
sbatp1844
Rp1845
(dp1846
g12
VS
p1847
sbag0
(g1
g2
(lp1848
V.
p1849
atp1850
Rp1851
(dp1852
g12
V.
p1853
sbatp1854
Rp1855
(dp1856
g12
VS
p1857
sbatp1858
Rp1859
(dp1860
g12
S'id: 5'
p1861
sbag0
(g1
g2
(lp1862
g0
(g1
g2
(lp1863
g0
(g1
g2
(lp1864
VAnd
p1865
atp1866
Rp1867
(dp1868
g12
VCC
p1869
sbag0
(g1
g2
(lp1870
g0
(g1
g2
(lp1871
g0
(g1
g2
(lp1872
Vhe
p1873
atp1874
Rp1875
(dp1876
g12
VPRP
p1877
sbatp1878
Rp1879
(dp1880
g12
VNP
p1881
sbag0
(g1
g2
(lp1882
V,
p1883
atp1884
Rp1885
(dp1886
g12
V,
p1887
sbag0
(g1
g2
(lp1888
g0
(g1
g2
(lp1889
Vthe
p1890
atp1891
Rp1892
(dp1893
g12
VDT
p1894
sbag0
(g1
g2
(lp1895
Vlion
p1896
atp1897
Rp1898
(dp1899
g12
VNN
p1900
sbatp1901
Rp1902
(dp1903
g12
VNP
p1904
sbag0
(g1
g2
(lp1905
g0
(g1
g2
(lp1906
Vsits
p1907
atp1908
Rp1909
(dp1910
g12
VVBZ
p1911
sbag0
(g1
g2
(lp1912
g0
(g1
g2
(lp1913
Von
p1914
atp1915
Rp1916
(dp1917
g12
VIN
p1918
sbag0
(g1
g2
(lp1919
g0
(g1
g2
(lp1920
Vthat
p1921
atp1922
Rp1923
(dp1924
g12
VDT
p1925
sbatp1926
Rp1927
(dp1928
g12
VNP
p1929
sbatp1930
Rp1931
(dp1932
g12
VPP
p1933
sbatp1934
Rp1935
(dp1936
g12
VVP
p1937
sbatp1938
Rp1939
(dp1940
g12
VS
p1941
sbag0
(g1
g2
(lp1942
V,
p1943
atp1944
Rp1945
(dp1946
g12
V,
p1947
sbag0
(g1
g2
(lp1948
Vand
p1949
atp1950
Rp1951
(dp1952
g12
VCC
p1953
sbag0
(g1
g2
(lp1954
g0
(g1
g2
(lp1955
g0
(g1
g2
(lp1956
Vhe
p1957
atp1958
Rp1959
(dp1960
g12
VPRP
p1961
sbatp1962
Rp1963
(dp1964
g12
VNP
p1965
sbag0
(g1
g2
(lp1966
g0
(g1
g2
(lp1967
Vbalances
p1968
atp1969
Rp1970
(dp1971
g12
VVBZ
p1972
sbag0
(g1
g2
(lp1973
g0
(g1
g2
(lp1974
g0
(g1
g2
(lp1975
Vhimself
p1976
atp1977
Rp1978
(dp1979
g12
VPRP
p1980
sbatp1981
Rp1982
(dp1983
g12
VNP
p1984
sbag0
(g1
g2
(lp1985
g0
(g1
g2
(lp1986
Vupright
p1987
atp1988
Rp1989
(dp1990
g12
VJJ
p1991
sbatp1992
Rp1993
(dp1994
g12
VADJP
p1995
sbatp1996
Rp1997
(dp1998
g12
VS
p1999
sbatp2000
Rp2001
(dp2002
g12
VVP
p2003
sbatp2004
Rp2005
(dp2006
g12
VS
p2007
sbag0
(g1
g2
(lp2008
V.
p2009
atp2010
Rp2011
(dp2012
g12
V.
p2013
sbatp2014
Rp2015
(dp2016
g12
VS
p2017
sbatp2018
Rp2019
(dp2020
g12
S'id: 6'
p2021
sbag0
(g1
g2
(lp2022
g0
(g1
g2
(lp2023
g0
(g1
g2
(lp2024
VAnd
p2025
atp2026
Rp2027
(dp2028
g12
VCC
p2029
sbag0
(g1
g2
(lp2030
g0
(g1
g2
(lp2031
g0
(g1
g2
(lp2032
Vthe
p2033
atp2034
Rp2035
(dp2036
g12
VDT
p2037
sbag0
(g1
g2
(lp2038
Vlion
p2039
atp2040
Rp2041
(dp2042
g12
VNN
p2043
sbag0
(g1
g2
(lp2044
Vtamer
p2045
atp2046
Rp2047
(dp2048
g12
VJJR
p2049
sbatp2050
Rp2051
(dp2052
g12
VNP
p2053
sbag0
(g1
g2
(lp2054
g0
(g1
g2
(lp2055
V,
p2056
atp2057
Rp2058
(dp2059
g12
V,
p2060
sbag0
(g1
g2
(lp2061
Vor
p2062
atp2063
Rp2064
(dp2065
g12
VCC
p2066
sbag0
(g1
g2
(lp2067
g0
(g1
g2
(lp2068
g0
(g1
g2
(lp2069
Vhe
p2070
atp2071
Rp2072
(dp2073
g12
VPRP
p2074
sbatp2075
Rp2076
(dp2077
g12
VNP
p2078
sbag0
(g1
g2
(lp2079
g0
(g1
g2
(lp2080
Vcould
p2081
atp2082
Rp2083
(dp2084
g12
VMD
p2085
sbag0
(g1
g2
(lp2086
g0
(g1
g2
(lp2087
Vbe
p2088
atp2089
Rp2090
(dp2091
g12
VVB
p2092
sbag0
(g1
g2
(lp2093
g0
(g1
g2
(lp2094
Vthe
p2095
atp2096
Rp2097
(dp2098
g12
VDT
p2099
sbag0
(g1
g2
(lp2100
Vactual
p2101
atp2102
Rp2103
(dp2104
g12
VJJ
p2105
sbatp2106
Rp2107
(dp2108
g12
VNP
p2109
sbatp2110
Rp2111
(dp2112
g12
VVP
p2113
sbatp2114
Rp2115
(dp2116
g12
VVP
p2117
sbatp2118
Rp2119
(dp2120
g12
VS
p2121
sbag0
(g1
g2
(lp2122
V,
p2123
atp2124
Rp2125
(dp2126
g12
V,
p2127
sbatp2128
Rp2129
(dp2130
g12
VPRN
p2131
sbag0
(g1
g2
(lp2132
g0
(g1
g2
(lp2133
Vno
p2134
atp2135
Rp2136
(dp2137
g12
VDT
p2138
sbag0
(g1
g2
(lp2139
Vhe
p2140
atp2141
Rp2142
(dp2143
g12
VPRP
p2144
sbatp2145
Rp2146
(dp2147
g12
VNP
p2148
sbag0
(g1
g2
(lp2149
g0
(g1
g2
(lp2150
V's
p2151
atp2152
Rp2153
(dp2154
g12
VVBZ
p2155
sbag0
(g1
g2
(lp2156
g0
(g1
g2
(lp2157
Vthe
p2158
atp2159
Rp2160
(dp2161
g12
VDT
p2162
sbatp2163
Rp2164
(dp2165
g12
VNP
p2166
sbatp2167
Rp2168
(dp2169
g12
VVP
p2170
sbatp2171
Rp2172
(dp2173
g12
VS
p2174
sbag0
(g1
g2
(lp2175
g0
(g1
g2
(lp2176
V,
p2177
atp2178
Rp2179
(dp2180
g12
V,
p2181
sbag0
(g1
g2
(lp2182
g0
(g1
g2
(lp2183
g0
(g1
g2
(lp2184
Vhe
p2185
atp2186
Rp2187
(dp2188
g12
VPRP
p2189
sbatp2190
Rp2191
(dp2192
g12
VNP
p2193
sbag0
(g1
g2
(lp2194
g0
(g1
g2
(lp2195
V's
p2196
atp2197
Rp2198
(dp2199
g12
VVBZ
p2200
sbag0
(g1
g2
(lp2201
g0
(g1
g2
(lp2202
Vthe
p2203
atp2204
Rp2205
(dp2206
g12
VDT
p2207
sbatp2208
Rp2209
(dp2210
g12
VNP
p2211
sbatp2212
Rp2213
(dp2214
g12
VVP
p2215
sbatp2216
Rp2217
(dp2218
g12
VS
p2219
sbag0
(g1
g2
(lp2220
V,
p2221
atp2222
Rp2223
(dp2224
g12
V,
p2225
sbatp2226
Rp2227
(dp2228
g12
VPRN
p2229
sbag0
(g1
g2
(lp2230
g0
(g1
g2
(lp2231
g0
(g1
g2
(lp2232
Vhe
p2233
atp2234
Rp2235
(dp2236
g12
VPRP
p2237
sbatp2238
Rp2239
(dp2240
g12
VNP
p2241
sbag0
(g1
g2
(lp2242
g0
(g1
g2
(lp2243
V's
p2244
atp2245
Rp2246
(dp2247
g12
VVBZ
p2248
sbag0
(g1
g2
(lp2249
g0
(g1
g2
(lp2250
Vthe
p2251
atp2252
Rp2253
(dp2254
g12
VDT
p2255
sbag0
(g1
g2
(lp2256
Vguy
p2257
atp2258
Rp2259
(dp2260
g12
VNN
p2261
sbatp2262
Rp2263
(dp2264
g12
VNP
p2265
sbag0
(g1
g2
(lp2266
g0
(g1
g2
(lp2267
Vthat
p2268
atp2269
Rp2270
(dp2271
g12
VIN
p2272
sbag0
(g1
g2
(lp2273
g0
(g1
g2
(lp2274
g0
(g1
g2
(lp2275
Vthat
p2276
atp2277
Rp2278
(dp2279
g12
VDT
p2280
sbatp2281
Rp2282
(dp2283
g12
VNP
p2284
sbag0
(g1
g2
(lp2285
g0
(g1
g2
(lp2286
V's
p2287
atp2288
Rp2289
(dp2290
g12
VVBZ
p2291
sbag0
(g1
g2
(lp2292
g0
(g1
g2
(lp2293
g0
(g1
g2
(lp2294
g0
(g1
g2
(lp2295
Vthe
p2296
atp2297
Rp2298
(dp2299
g12
VDT
p2300
sbag0
(g1
g2
(lp2301
VEMC
p2302
atp2303
Rp2304
(dp2305
g12
VNNP
p2306
sbatp2307
Rp2308
(dp2309
g12
VNP
p2310
sbag0
(g1
g2
(lp2311
V,
p2312
atp2313
Rp2314
(dp2315
g12
V,
p2316
sbag0
(g1
g2
(lp2317
g0
(g1
g2
(lp2318
g0
(g1
g2
(lp2319
Vwhat
p2320
atp2321
Rp2322
(dp2323
g12
VWP
p2324
sbatp2325
Rp2326
(dp2327
g12
VWHNP
p2328
sbag0
(g1
g2
(lp2329
g0
(g1
g2
(lp2330
g0
(g1
g2
(lp2331
Vdo
p2332
atp2333
Rp2334
(dp2335
g12
VVBP
p2336
sbag0
(g1
g2
(lp2337
g0
(g1
g2
(lp2338
g0
(g1
g2
(lp2339
Vthey
p2340
atp2341
Rp2342
(dp2343
g12
VPRP
p2344
sbatp2345
Rp2346
(dp2347
g12
VNP
p2348
sbag0
(g1
g2
(lp2349
g0
(g1
g2
(lp2350
Vcall
p2351
atp2352
Rp2353
(dp2354
g12
VVB
p2355
sbag0
(g1
g2
(lp2356
g0
(g1
g2
(lp2357
Vthem
p2358
atp2359
Rp2360
(dp2361
g12
VPRP
p2362
sbatp2363
Rp2364
(dp2365
g12
VNP
p2366
sbag0
(g1
g2
(lp2367
g0
(g1
g2
(lp2368
Vfor
p2369
atp2370
Rp2371
(dp2372
g12
VIN
p2373
sbag0
(g1
g2
(lp2374
g0
(g1
g2
(lp2375
Vthe
p2376
atp2377
Rp2378
(dp2379
g12
VDT
p2380
sbatp2381
Rp2382
(dp2383
g12
VNP
p2384
sbatp2385
Rp2386
(dp2387
g12
VPP
p2388
sbatp2389
Rp2390
(dp2391
g12
VVP
p2392
sbatp2393
Rp2394
(dp2395
g12
VS
p2396
sbatp2397
Rp2398
(dp2399
g12
VVP
p2400
sbatp2401
Rp2402
(dp2403
g12
VS
p2404
sbatp2405
Rp2406
(dp2407
g12
VSBAR
p2408
sbag0
(g1
g2
(lp2409
V,
p2410
atp2411
Rp2412
(dp2413
g12
V,
p2414
sbatp2415
Rp2416
(dp2417
g12
VNP
p2418
sbag0
(g1
g2
(lp2419
g0
(g1
g2
(lp2420
Vfor
p2421
atp2422
Rp2423
(dp2424
g12
VIN
p2425
sbag0
(g1
g2
(lp2426
g0
(g1
g2
(lp2427
Vthe
p2428
atp2429
Rp2430
(dp2431
g12
VDT
p2432
sbag0
(g1
g2
(lp2433
Vcarnival
p2434
atp2435
Rp2436
(dp2437
g12
VNN
p2438
sbatp2439
Rp2440
(dp2441
g12
VNP
p2442
sbatp2443
Rp2444
(dp2445
g12
VPP
p2446
sbatp2447
Rp2448
(dp2449
g12
VNP
p2450
sbatp2451
Rp2452
(dp2453
g12
VVP
p2454
sbatp2455
Rp2456
(dp2457
g12
VS
p2458
sbatp2459
Rp2460
(dp2461
g12
VSBAR
p2462
sbatp2463
Rp2464
(dp2465
g12
VVP
p2466
sbatp2467
Rp2468
(dp2469
g12
VS
p2470
sbag0
(g1
g2
(lp2471
V.
p2472
atp2473
Rp2474
(dp2475
g12
V.
p2476
sbatp2477
Rp2478
(dp2479
g12
VS
p2480
sbatp2481
Rp2482
(dp2483
g12
S'id: 7'
p2484
sbag0
(g1
g2
(lp2485
g0
(g1
g2
(lp2486
g0
(g1
g2
(lp2487
g0
(g1
g2
(lp2488
VI
p2489
atp2490
Rp2491
(dp2492
g12
VPRP
p2493
sbatp2494
Rp2495
(dp2496
g12
VNP
p2497
sbag0
(g1
g2
(lp2498
g0
(g1
g2
(lp2499
Vforgot
p2500
atp2501
Rp2502
(dp2503
g12
VVBD
p2504
sbag0
(g1
g2
(lp2505
g0
(g1
g2
(lp2506
g0
(g1
g2
(lp2507
Vwhat
p2508
atp2509
Rp2510
(dp2511
g12
VWP
p2512
sbatp2513
Rp2514
(dp2515
g12
VWHNP
p2516
sbag0
(g1
g2
(lp2517
g0
(g1
g2
(lp2518
g0
(g1
g2
(lp2519
Vyou
p2520
atp2521
Rp2522
(dp2523
g12
VPRP
p2524
sbatp2525
Rp2526
(dp2527
g12
VNP
p2528
sbag0
(g1
g2
(lp2529
g0
(g1
g2
(lp2530
Vcall
p2531
atp2532
Rp2533
(dp2534
g12
VVBP
p2535
sbag0
(g1
g2
(lp2536
g0
(g1
g2
(lp2537
Vthem
p2538
atp2539
Rp2540
(dp2541
g12
VPRP
p2542
sbatp2543
Rp2544
(dp2545
g12
VNP
p2546
sbatp2547
Rp2548
(dp2549
g12
VVP
p2550
sbatp2551
Rp2552
(dp2553
g12
VS
p2554
sbatp2555
Rp2556
(dp2557
g12
VSBAR
p2558
sbatp2559
Rp2560
(dp2561
g12
VVP
p2562
sbag0
(g1
g2
(lp2563
V.
p2564
atp2565
Rp2566
(dp2567
g12
V.
p2568
sbatp2569
Rp2570
(dp2571
g12
VS
p2572
sbatp2573
Rp2574
(dp2575
g12
S'id: 8'
p2576
sbag0
(g1
g2
(lp2577
g0
(g1
g2
(lp2578
g0
(g1
g2
(lp2579
VBut
p2580
atp2581
Rp2582
(dp2583
g12
VCC
p2584
sbag0
(g1
g2
(lp2585
g0
(g1
g2
(lp2586
Vanyway
p2587
atp2588
Rp2589
(dp2590
g12
VRB
p2591
sbatp2592
Rp2593
(dp2594
g12
VADVP
p2595
sbag0
(g1
g2
(lp2596
g0
(g1
g2
(lp2597
V,
p2598
atp2599
Rp2600
(dp2601
g12
V,
p2602
sbag0
(g1
g2
(lp2603
g0
(g1
g2
(lp2604
g0
(g1
g2
(lp2605
Vhe
p2606
atp2607
Rp2608
(dp2609
g12
VPRP
p2610
sbatp2611
Rp2612
(dp2613
g12
VNP
p2614
sbag0
(g1
g2
(lp2615
g0
(g1
g2
(lp2616
V's
p2617
atp2618
Rp2619
(dp2620
g12
VVBZ
p2621
sbatp2622
Rp2623
(dp2624
g12
VVP
p2625
sbatp2626
Rp2627
(dp2628
g12
VS
p2629
sbag0
(g1
g2
(lp2630
V,
p2631
atp2632
Rp2633
(dp2634
g12
V,
p2635
sbatp2636
Rp2637
(dp2638
g12
VPRN
p2639
sbag0
(g1
g2
(lp2640
g0
(g1
g2
(lp2641
Vhe
p2642
atp2643
Rp2644
(dp2645
g12
VPRP
p2646
sbatp2647
Rp2648
(dp2649
g12
VNP
p2650
sbag0
(g1
g2
(lp2651
g0
(g1
g2
(lp2652
V's
p2653
atp2654
Rp2655
(dp2656
g12
VVBZ
p2657
sbag0
(g1
g2
(lp2658
g0
(g1
g2
(lp2659
Vworking
p2660
atp2661
Rp2662
(dp2663
g12
VVBG
p2664
sbag0
(g1
g2
(lp2665
g0
(g1
g2
(lp2666
Vwith
p2667
atp2668
Rp2669
(dp2670
g12
VIN
p2671
sbag0
(g1
g2
(lp2672
g0
(g1
g2
(lp2673
Vthe
p2674
atp2675
Rp2676
(dp2677
g12
VDT
p2678
sbag0
(g1
g2
(lp2679
Vlion
p2680
atp2681
Rp2682
(dp2683
g12
VNN
p2684
sbatp2685
Rp2686
(dp2687
g12
VNP
p2688
sbatp2689
Rp2690
(dp2691
g12
VPP
p2692
sbag0
(g1
g2
(lp2693
V,
p2694
atp2695
Rp2696
(dp2697
g12
V,
p2698
sbag0
(g1
g2
(lp2699
g0
(g1
g2
(lp2700
g0
(g1
g2
(lp2701
Vto
p2702
atp2703
Rp2704
(dp2705
g12
VTO
p2706
sbag0
(g1
g2
(lp2707
g0
(g1
g2
(lp2708
Vmake
p2709
atp2710
Rp2711
(dp2712
g12
VVB
p2713
sbag0
(g1
g2
(lp2714
g0
(g1
g2
(lp2715
g0
(g1
g2
(lp2716
Vsure
p2717
atp2718
Rp2719
(dp2720
g12
VJJ
p2721
sbag0
(g1
g2
(lp2722
g0
(g1
g2
(lp2723
g0
(g1
g2
(lp2724
g0
(g1
g2
(lp2725
Vhe
p2726
atp2727
Rp2728
(dp2729
g12
VPRP
p2730
sbatp2731
Rp2732
(dp2733
g12
VNP
p2734
sbag0
(g1
g2
(lp2735
g0
(g1
g2
(lp2736
V's
p2737
atp2738
Rp2739
(dp2740
g12
VVBZ
p2741
sbag0
(g1
g2
(lp2742
g0
(g1
g2
(lp2743
g0
(g1
g2
(lp2744
Vtame
p2745
atp2746
Rp2747
(dp2748
g12
VJJ
p2749
sbatp2750
Rp2751
(dp2752
g12
VNP
p2753
sbag0
(g1
g2
(lp2754
Vand
p2755
atp2756
Rp2757
(dp2758
g12
VCC
p2759
sbag0
(g1
g2
(lp2760
g0
(g1
g2
(lp2761
Veverything
p2762
atp2763
Rp2764
(dp2765
g12
VNN
p2766
sbatp2767
Rp2768
(dp2769
g12
VNP
p2770
sbatp2771
Rp2772
(dp2773
g12
VNP
p2774
sbatp2775
Rp2776
(dp2777
g12
VVP
p2778
sbatp2779
Rp2780
(dp2781
g12
VS
p2782
sbatp2783
Rp2784
(dp2785
g12
VSBAR
p2786
sbatp2787
Rp2788
(dp2789
g12
VADJP
p2790
sbag0
(g1
g2
(lp2791
V,
p2792
atp2793
Rp2794
(dp2795
g12
V,
p2796
sbag0
(g1
g2
(lp2797
Vand
p2798
atp2799
Rp2800
(dp2801
g12
VCC
p2802
sbag0
(g1
g2
(lp2803
g0
(g1
g2
(lp2804
Ventertaining
p2805
atp2806
Rp2807
(dp2808
g12
VVBG
p2809
sbatp2810
Rp2811
(dp2812
g12
VADJP
p2813
sbatp2814
Rp2815
(dp2816
g12
VADJP
p2817
sbag0
(g1
g2
(lp2818
g0
(g1
g2
(lp2819
Vthe
p2820
atp2821
Rp2822
(dp2823
g12
VDT
p2824
sbag0
(g1
g2
(lp2825
Vfolks
p2826
atp2827
Rp2828
(dp2829
g12
VNNS
p2830
sbatp2831
Rp2832
(dp2833
g12
VNP
p2834
sbatp2835
Rp2836
(dp2837
g12
VVP
p2838
sbatp2839
Rp2840
(dp2841
g12
VVP
p2842
sbatp2843
Rp2844
(dp2845
g12
VS
p2846
sbatp2847
Rp2848
(dp2849
g12
VVP
p2850
sbatp2851
Rp2852
(dp2853
g12
VVP
p2854
sbag0
(g1
g2
(lp2855
V.
p2856
atp2857
Rp2858
(dp2859
g12
V.
p2860
sbatp2861
Rp2862
(dp2863
g12
VS
p2864
sbatp2865
Rp2866
(dp2867
g12
S'id: 9'
p2868
sbag0
(g1
g2
(lp2869
g0
(g1
g2
(lp2870
g0
(g1
g2
(lp2871
g0
(g1
g2
(lp2872
VThere
p2873
atp2874
Rp2875
(dp2876
g12
VEX
p2877
sbatp2878
Rp2879
(dp2880
g12
VNP
p2881
sbag0
(g1
g2
(lp2882
g0
(g1
g2
(lp2883
Vis
p2884
atp2885
Rp2886
(dp2887
g12
VVBZ
p2888
sbag0
(g1
g2
(lp2889
g0
(g1
g2
(lp2890
g0
(g1
g2
(lp2891
Va
p2892
atp2893
Rp2894
(dp2895
g12
VDT
p2896
sbatp2897
Rp2898
(dp2899
g12
VNP
p2900
sbag0
(g1
g2
(lp2901
V,
p2902
atp2903
Rp2904
(dp2905
g12
V,
p2906
sbag0
(g1
g2
(lp2907
g0
(g1
g2
(lp2908
Va
p2909
atp2910
Rp2911
(dp2912
g12
VDT
p2913
sbag0
(g1
g2
(lp2914
Vgrandstand
p2915
atp2916
Rp2917
(dp2918
g12
VNN
p2919
sbatp2920
Rp2921
(dp2922
g12
VNP
p2923
sbatp2924
Rp2925
(dp2926
g12
VNP
p2927
sbatp2928
Rp2929
(dp2930
g12
VVP
p2931
sbag0
(g1
g2
(lp2932
V.
p2933
atp2934
Rp2935
(dp2936
g12
V.
p2937
sbatp2938
Rp2939
(dp2940
g12
VS
p2941
sbatp2942
Rp2943
(dp2944
g12
S'id: 10'
p2945
sbag0
(g1
g2
(lp2946
g0
(g1
g2
(lp2947
g0
(g1
g2
(lp2948
VAnd
p2949
atp2950
Rp2951
(dp2952
g12
VCC
p2953
sbag0
(g1
g2
(lp2954
g0
(g1
g2
(lp2955
g0
(g1
g2
(lp2956
Vthere
p2957
atp2958
Rp2959
(dp2960
g12
VEX
p2961
sbatp2962
Rp2963
(dp2964
g12
VNP
p2965
sbag0
(g1
g2
(lp2966
g0
(g1
g2
(lp2967
V's
p2968
atp2969
Rp2970
(dp2971
g12
VVBZ
p2972
sbag0
(g1
g2
(lp2973
g0
(g1
g2
(lp2974
g0
(g1
g2
(lp2975
Vthe
p2976
atp2977
Rp2978
(dp2979
g12
VDT
p2980
sbatp2981
Rp2982
(dp2983
g12
VNP
p2984
sbag0
(g1
g2
(lp2985
g0
(g1
g2
(lp2986
g0
(g1
g2
(lp2987
g0
(g1
g2
(lp2988
Voutlines
p2989
atp2990
Rp2991
(dp2992
g12
VVBZ
p2993
sbag0
(g1
g2
(lp2994
g0
(g1
g2
(lp2995
Vof
p2996
atp2997
Rp2998
(dp2999
g12
VIN
p3000
sbag0
(g1
g2
(lp3001
g0
(g1
g2
(lp3002
Vthe
p3003
atp3004
Rp3005
(dp3006
g12
VDT
p3007
sbag0
(g1
g2
(lp3008
Vpeople
p3009
atp3010
Rp3011
(dp3012
g12
VNNS
p3013
sbatp3014
Rp3015
(dp3016
g12
VNP
p3017
sbatp3018
Rp3019
(dp3020
g12
VPP
p3021
sbatp3022
Rp3023
(dp3024
g12
VVP
p3025
sbatp3026
Rp3027
(dp3028
g12
VS
p3029
sbatp3030
Rp3031
(dp3032
g12
VSBAR
p3033
sbatp3034
Rp3035
(dp3036
g12
VNP
p3037
sbatp3038
Rp3039
(dp3040
g12
VVP
p3041
sbatp3042
Rp3043
(dp3044
g12
VS
p3045
sbag0
(g1
g2
(lp3046
g0
(g1
g2
(lp3047
V,
p3048
atp3049
Rp3050
(dp3051
g12
V,
p3052
sbag0
(g1
g2
(lp3053
g0
(g1
g2
(lp3054
g0
(g1
g2
(lp3055
Vthey
p3056
atp3057
Rp3058
(dp3059
g12
VPRP
p3060
sbatp3061
Rp3062
(dp3063
g12
VNP
p3064
sbag0
(g1
g2
(lp3065
g0
(g1
g2
(lp3066
V're
p3067
atp3068
Rp3069
(dp3070
g12
VVBP
p3071
sbag0
(g1
g2
(lp3072
g0
(g1
g2
(lp3073
Vactually
p3074
atp3075
Rp3076
(dp3077
g12
VRB
p3078
sbatp3079
Rp3080
(dp3081
g12
VADVP
p3082
sbag0
(g1
g2
(lp3083
g0
(g1
g2
(lp3084
Vwatching
p3085
atp3086
Rp3087
(dp3088
g12
VVBG
p3089
sbag0
(g1
g2
(lp3090
g0
(g1
g2
(lp3091
g0
(g1
g2
(lp3092
Vthe
p3093
atp3094
Rp3095
(dp3096
g12
VDT
p3097
sbatp3098
Rp3099
(dp3100
g12
VNP
p3101
sbag0
(g1
g2
(lp3102
V,
p3103
atp3104
Rp3105
(dp3106
g12
V,
p3107
sbag0
(g1
g2
(lp3108
g0
(g1
g2
(lp3109
Vthe
p3110
atp3111
Rp3112
(dp3113
g12
VDT
p3114
sbatp3115
Rp3116
(dp3117
g12
VNP
p3118
sbag0
(g1
g2
(lp3119
V,
p3120
atp3121
Rp3122
(dp3123
g12
V,
p3124
sbag0
(g1
g2
(lp3125
g0
(g1
g2
(lp3126
Vthe
p3127
atp3128
Rp3129
(dp3130
g12
VDT
p3131
sbatp3132
Rp3133
(dp3134
g12
VNP
p3135
sbag0
(g1
g2
(lp3136
V,
p3137
atp3138
Rp3139
(dp3140
g12
V,
p3141
sbag0
(g1
g2
(lp3142
g0
(g1
g2
(lp3143
Vthe
p3144
atp3145
Rp3146
(dp3147
g12
VDT
p3148
sbag0
(g1
g2
(lp3149
Vcircus
p3150
atp3151
Rp3152
(dp3153
g12
VNN
p3154
sbatp3155
Rp3156
(dp3157
g12
VNP
p3158
sbag0
(g1
g2
(lp3159
V,
p3160
atp3161
Rp3162
(dp3163
g12
V,
p3164
sbag0
(g1
g2
(lp3165
g0
(g1
g2
(lp3166
Vthe
p3167
atp3168
Rp3169
(dp3170
g12
VDT
p3171
sbag0
(g1
g2
(lp3172
Vthree
p3173
atp3174
Rp3175
(dp3176
g12
VCD
p3177
sbag0
(g1
g2
(lp3178
Vring
p3179
atp3180
Rp3181
(dp3182
g12
VNN
p3183
sbag0
(g1
g2
(lp3184
Vcircus
p3185
atp3186
Rp3187
(dp3188
g12
VNN
p3189
sbatp3190
Rp3191
(dp3192
g12
VNP
p3193
sbatp3194
Rp3195
(dp3196
g12
VNP
p3197
sbatp3198
Rp3199
(dp3200
g12
VVP
p3201
sbatp3202
Rp3203
(dp3204
g12
VVP
p3205
sbatp3206
Rp3207
(dp3208
g12
VS
p3209
sbag0
(g1
g2
(lp3210
V,
p3211
atp3212
Rp3213
(dp3214
g12
V,
p3215
sbatp3216
Rp3217
(dp3218
g12
VPRN
p3219
sbag0
(g1
g2
(lp3220
Vor
p3221
atp3222
Rp3223
(dp3224
g12
VCC
p3225
sbag0
(g1
g2
(lp3226
g0
(g1
g2
(lp3227
g0
(g1
g2
(lp3228
Vit
p3229
atp3230
Rp3231
(dp3232
g12
VPRP
p3233
sbatp3234
Rp3235
(dp3236
g12
VNP
p3237
sbag0
(g1
g2
(lp3238
g0
(g1
g2
(lp3239
V's
p3240
atp3241
Rp3242
(dp3243
g12
VVBZ
p3244
sbag0
(g1
g2
(lp3245
g0
(g1
g2
(lp3246
Vactually
p3247
atp3248
Rp3249
(dp3250
g12
VRB
p3251
sbatp3252
Rp3253
(dp3254
g12
VADVP
p3255
sbag0
(g1
g2
(lp3256
g0
(g1
g2
(lp3257
Va
p3258
atp3259
Rp3260
(dp3261
g12
VDT
p3262
sbag0
(g1
g2
(lp3263
Vone
p3264
atp3265
Rp3266
(dp3267
g12
VCD
p3268
sbag0
(g1
g2
(lp3269
Vring
p3270
atp3271
Rp3272
(dp3273
g12
VNN
p3274
sbag0
(g1
g2
(lp3275
Vcircus
p3276
atp3277
Rp3278
(dp3279
g12
VNN
p3280
sbatp3281
Rp3282
(dp3283
g12
VNP
p3284
sbatp3285
Rp3286
(dp3287
g12
VVP
p3288
sbatp3289
Rp3290
(dp3291
g12
VS
p3292
sbag0
(g1
g2
(lp3293
V.
p3294
atp3295
Rp3296
(dp3297
g12
V.
p3298
sbatp3299
Rp3300
(dp3301
g12
VS
p3302
sbatp3303
Rp3304
(dp3305
g12
S'id: 11'
p3306
sbag0
(g1
g2
(lp3307
g0
(g1
g2
(lp3308
g0
(g1
g2
(lp3309
VAnd
p3310
atp3311
Rp3312
(dp3313
g12
VCC
p3314
sbag0
(g1
g2
(lp3315
g0
(g1
g2
(lp3316
Vthose
p3317
atp3318
Rp3319
(dp3320
g12
VDT
p3321
sbatp3322
Rp3323
(dp3324
g12
VNP
p3325
sbag0
(g1
g2
(lp3326
g0
(g1
g2
(lp3327
Vare
p3328
atp3329
Rp3330
(dp3331
g12
VVBP
p3332
sbag0
(g1
g2
(lp3333
g0
(g1
g2
(lp3334
g0
(g1
g2
(lp3335
g0
(g1
g2
(lp3336
Vthe
p3337
atp3338
Rp3339
(dp3340
g12
VDT
p3341
sbag0
(g1
g2
(lp3342
Vpeople
p3343
atp3344
Rp3345
(dp3346
g12
VNNS
p3347
sbatp3348
Rp3349
(dp3350
g12
VNP
p3351
sbag0
(g1
g2
(lp3352
g0
(g1
g2
(lp3353
g0
(g1
g2
(lp3354
Vthat
p3355
atp3356
Rp3357
(dp3358
g12
VWDT
p3359
sbatp3360
Rp3361
(dp3362
g12
VWHNP
p3363
sbag0
(g1
g2
(lp3364
g0
(g1
g2
(lp3365
g0
(g1
g2
(lp3366
Vare
p3367
atp3368
Rp3369
(dp3370
g12
VVBP
p3371
sbag0
(g1
g2
(lp3372
g0
(g1
g2
(lp3373
Vwatching
p3374
atp3375
Rp3376
(dp3377
g12
VVBG
p3378
sbatp3379
Rp3380
(dp3381
g12
VVP
p3382
sbatp3383
Rp3384
(dp3385
g12
VVP
p3386
sbatp3387
Rp3388
(dp3389
g12
VS
p3390
sbatp3391
Rp3392
(dp3393
g12
VSBAR
p3394
sbatp3395
Rp3396
(dp3397
g12
VNP
p3398
sbag0
(g1
g2
(lp3399
V,
p3400
atp3401
Rp3402
(dp3403
g12
V,
p3404
sbag0
(g1
g2
(lp3405
g0
(g1
g2
(lp3406
Vtheir
p3407
atp3408
Rp3409
(dp3410
g12
VPRP$
p3411
sbag0
(g1
g2
(lp3412
g0
(g1
g2
(lp3413
g0
(g1
g2
(lp3414
Vthe
p3415
atp3416
Rp3417
(dp3418
g12
VDT
p3419
sbatp3420
Rp3421
(dp3422
g12
VNP
p3423
sbag0
(g1
g2
(lp3424
V,
p3425
atp3426
Rp3427
(dp3428
g12
V,
p3429
sbag0
(g1
g2
(lp3430
g0
(g1
g2
(lp3431
Vthe
p3432
atp3433
Rp3434
(dp3435
g12
VDT
p3436
sbag0
(g1
g2
(lp3437
Vfans
p3438
atp3439
Rp3440
(dp3441
g12
VNNS
p3442
sbatp3443
Rp3444
(dp3445
g12
VNP
p3446
sbatp3447
Rp3448
(dp3449
g12
VNP
p3450
sbatp3451
Rp3452
(dp3453
g12
VNP
p3454
sbatp3455
Rp3456
(dp3457
g12
VNP
p3458
sbatp3459
Rp3460
(dp3461
g12
VVP
p3462
sbag0
(g1
g2
(lp3463
V.
p3464
atp3465
Rp3466
(dp3467
g12
V.
p3468
sbatp3469
Rp3470
(dp3471
g12
VS
p3472
sbatp3473
Rp3474
(dp3475
g12
S'id: 12'
p3476
sbag0
(g1
g2
(lp3477
g0
(g1
g2
(lp3478
g0
(g1
g2
(lp3479
VAnd
p3480
atp3481
Rp3482
(dp3483
g12
VCC
p3484
sbag0
(g1
g2
(lp3485
g0
(g1
g2
(lp3486
g0
(g1
g2
(lp3487
Vthen
p3488
atp3489
Rp3490
(dp3491
g12
VRB
p3492
sbatp3493
Rp3494
(dp3495
g12
VADVP
p3496
sbag0
(g1
g2
(lp3497
g0
(g1
g2
(lp3498
g0
(g1
g2
(lp3499
Vyou
p3500
atp3501
Rp3502
(dp3503
g12
VPRP
p3504
sbatp3505
Rp3506
(dp3507
g12
VNP
p3508
sbag0
(g1
g2
(lp3509
g0
(g1
g2
(lp3510
Vhave
p3511
atp3512
Rp3513
(dp3514
g12
VVBP
p3515
sbatp3516
Rp3517
(dp3518
g12
VVP
p3519
sbatp3520
Rp3521
(dp3522
g12
VS
p3523
sbatp3524
Rp3525
(dp3526
g12
VSBAR
p3527
sbag0
(g1
g2
(lp3528
V,
p3529
atp3530
Rp3531
(dp3532
g12
V,
p3533
sbag0
(g1
g2
(lp3534
g0
(g1
g2
(lp3535
Vlooks
p3536
atp3537
Rp3538
(dp3539
g12
VVBZ
p3540
sbag0
(g1
g2
(lp3541
g0
(g1
g2
(lp3542
Vlike
p3543
atp3544
Rp3545
(dp3546
g12
VIN
p3547
sbag0
(g1
g2
(lp3548
g0
(g1
g2
(lp3549
Vmother
p3550
atp3551
Rp3552
(dp3553
g12
VNN
p3554
sbatp3555
Rp3556
(dp3557
g12
VNP
p3558
sbatp3559
Rp3560
(dp3561
g12
VPP
p3562
sbatp3563
Rp3564
(dp3565
g12
VVP
p3566
sbatp3567
Rp3568
(dp3569
g12
VS
p3570
sbatp3571
Rp3572
(dp3573
g12
S'id: 13'
p3574
sbatp3575
Rp3576
(dp3577
g12
S'sentences'
p3578
sb.