ccopy_reg
_reconstructor
p0
(cnltk.tree
Tree
p1
c__builtin__
list
p2
(lp3
g0
(g1
g2
(lp4
g0
(g1
g2
(lp5
g0
(g1
g2
(lp6
g0
(g1
g2
(lp7
g0
(g1
g2
(lp8
(lp9
S'word: the, index: 1'
p10
aatp11
Rp12
(dp13
S'_label'
p14
Vdet
p15
sbatp16
Rp17
(dp18
g14
S'word: clown, index: 2'
p19
sbatp20
Rp21
(dp22
g14
Vnsubj
p23
sbag0
(g1
g2
(lp24
(lp25
S'word: kafait, index: 5'
p26
aatp27
Rp28
(dp29
g14
Vprep
p30
sbatp31
Rp32
(dp33
g14
S'word: is, index: 3'
p34
sbatp35
Rp36
(dp37
g14
S'id: 0'
p38
sbag0
(g1
g2
(lp39
g0
(g1
g2
(lp40
g0
(g1
g2
(lp41
g0
(g1
g2
(lp42
g0
(g1
g2
(lp43
g0
(g1
g2
(lp44
g0
(g1
g2
(lp45
(lp46
S'word: a, index: 19'
p47
aatp48
Rp49
(dp50
g14
Vdet
p51
sbag0
(g1
g2
(lp52
(lp53
S'word: little, index: 20'
p54
aatp55
Rp56
(dp57
g14
Vamod
p58
sbag0
(g1
g2
(lp59
g0
(g1
g2
(lp60
g0
(g1
g2
(lp61
(lp62
S'word: clown, index: 24'
p63
aatp64
Rp65
(dp66
g14
Vprep
p67
sbatp68
Rp69
(dp70
g14
S'word: pointing, index: 22'
p71
sbatp72
Rp73
(dp74
g14
Vvmod
p75
sbatp76
Rp77
(dp78
g14
S'word: girl, index: 21'
p79
sbatp80
Rp81
(dp82
g14
Vprep
p83
sbag0
(g1
g2
(lp84
(lp85
S'word: the, index: 16'
p86
aatp87
Rp88
(dp89
g14
Vdet
p90
sbatp91
Rp92
(dp93
g14
S'word: hand, index: 17'
p94
sbatp95
Rp96
(dp97
g14
Vdobj
p98
sbag0
(g1
g2
(lp99
g0
(g1
g2
(lp100
g0
(g1
g2
(lp101
g0
(g1
g2
(lp102
g0
(g1
g2
(lp103
(lp104
S'word: little, index: 4'
p105
aatp106
Rp107
(dp108
g14
Vamod
p109
sbag0
(g1
g2
(lp110
g0
(g1
g2
(lp111
g0
(g1
g2
(lp112
g0
(g1
g2
(lp113
g0
(g1
g2
(lp114
(lp115
S'word: a, index: 7'
p116
aatp117
Rp118
(dp119
g14
Vdet
p120
sbatp121
Rp122
(dp123
g14
S'word: lady, index: 8'
p124
sbatp125
Rp126
(dp127
g14
Vposs
p128
sbag0
(g1
g2
(lp129
(lp130
S'word: holding, index: 10'
p131
aatp132
Rp133
(dp134
g14
Vamod
p135
sbag0
(g1
g2
(lp136
g0
(g1
g2
(lp137
g0
(g1
g2
(lp138
(lp139
S'word: a, index: 11'
p140
aatp141
Rp142
(dp143
g14
Vdet
p144
sbatp145
Rp146
(dp147
g14
S'word: little, index: 12'
p148
sbatp149
Rp150
(dp151
g14
Vamod
p152
sbatp153
Rp154
(dp155
g14
S'word: girl, index: 13'
p156
sbatp157
Rp158
(dp159
g14
Vappos
p160
sbatp161
Rp162
(dp163
g14
S'word: boy, index: 5'
p164
sbatp165
Rp166
(dp167
g14
Vappos
p168
sbag0
(g1
g2
(lp169
(lp170
S'word: The, index: 1'
p171
aatp172
Rp173
(dp174
g14
Vdet
p175
sbatp176
Rp177
(dp178
g14
S'word: bo, index: 2'
p179
sbatp180
Rp181
(dp182
g14
Vnsubj
p183
sbatp184
Rp185
(dp186
g14
S'word: has, index: 15'
p187
sbatp188
Rp189
(dp190
g14
S'id: 1'
p191
sbag0
(g1
g2
(lp192
g0
(g1
g2
(lp193
g0
(g1
g2
(lp194
(lp195
S'word: Clown, index: 1'
p196
aatp197
Rp198
(dp199
g14
Vnsubj
p200
sbag0
(g1
g2
(lp201
g0
(g1
g2
(lp202
g0
(g1
g2
(lp203
(lp204
S'word: bald, index: 3'
p205
aatp206
Rp207
(dp208
g14
Vamod
p209
sbatp210
Rp211
(dp212
g14
S'word: hat, index: 4'
p213
sbatp214
Rp215
(dp216
g14
Vdobj
p217
sbatp218
Rp219
(dp220
g14
S'word: has, index: 2'
p221
sbatp222
Rp223
(dp224
g14
S'id: 2'
p225
sbag0
(g1
g2
(lp226
g0
(g1
g2
(lp227
g0
(g1
g2
(lp228
g0
(g1
g2
(lp229
g0
(g1
g2
(lp230
g0
(g1
g2
(lp231
g0
(g1
g2
(lp232
(lp233
S'word: is, index: 10'
p234
aatp235
Rp236
(dp237
g14
Vcop
p238
sbag0
(g1
g2
(lp239
(lp240
S'word: rather, index: 11'
p241
aatp242
Rp243
(dp244
g14
Vadvmod
p245
sbag0
(g1
g2
(lp246
g0
(g1
g2
(lp247
g0
(g1
g2
(lp248
g0
(g1
g2
(lp249
g0
(g1
g2
(lp250
(lp251
S'word: his, index: 14'
p252
aatp253
Rp254
(dp255
g14
Vposs
p256
sbatp257
Rp258
(dp259
g14
S'word: hair, index: 15'
p260
sbatp261
Rp262
(dp263
g14
Vnsubj
p264
sbag0
(g1
g2
(lp265
g0
(g1
g2
(lp266
g0
(g1
g2
(lp267
g0
(g1
g2
(lp268
g0
(g1
g2
(lp269
(lp270
S'word: his, index: 18'
p271
aatp272
Rp273
(dp274
g14
Vposs
p275
sbatp276
Rp277
(dp278
g14
S'word: hair, index: 19'
p279
sbatp280
Rp281
(dp282
g14
Vnsubj
p283
sbag0
(g1
g2
(lp284
(lp285
S'word: in, index: 21'
p286
aatp287
Rp288
(dp289
g14
Vprep
p290
sbatp291
Rp292
(dp293
g14
S'word: is, index: 20'
p294
sbatp295
Rp296
(dp297
g14
Vccomp
p298
sbatp299
Rp300
(dp301
g14
S'word: is, index: 16'
p302
sbatp303
Rp304
(dp305
g14
Vdep
p306
sbag0
(g1
g2
(lp307
g0
(g1
g2
(lp308
g0
(g1
g2
(lp309
g0
(g1
g2
(lp310
g0
(g1
g2
(lp311
(lp312
S'word: a, index: 25'
p313
aatp314
Rp315
(dp316
g14
Vdet
p317
sbag0
(g1
g2
(lp318
(lp319
S'word: mesh, index: 26'
p320
aatp321
Rp322
(dp323
g14
Vnn
p324
sbatp325
Rp326
(dp327
g14
S'word: site, index: 27'
p328
sbatp329
Rp330
(dp331
g14
Vprep
p332
sbatp333
Rp334
(dp335
g14
S'word: looks, index: 23'
p336
sbatp337
Rp338
(dp339
g14
Vccomp
p340
sbatp341
Rp342
(dp343
g14
S'word: large, index: 12'
p344
sbatp345
Rp346
(dp347
g14
Vrcmod
p348
sbag0
(g1
g2
(lp349
(lp350
S'word: a, index: 8'
p351
aatp352
Rp353
(dp354
g14
Vdet
p355
sbatp356
Rp357
(dp358
g14
S'word: nose, index: 9'
p359
sbatp360
Rp361
(dp362
g14
Vdobj
p363
sbag0
(g1
g2
(lp364
g0
(g1
g2
(lp365
g0
(g1
g2
(lp366
(lp367
S'word: He, index: 1'
p368
aatp369
Rp370
(dp371
g14
Vnsubj
p372
sbag0
(g1
g2
(lp373
g0
(g1
g2
(lp374
g0
(g1
g2
(lp375
(lp376
S'word: bright, index: 3'
p377
aatp378
Rp379
(dp380
g14
Vamod
p381
sbatp382
Rp383
(dp384
g14
S'word: re, index: 4'
p385
sbatp386
Rp387
(dp388
g14
Vdobj
p389
sbatp390
Rp391
(dp392
g14
S'word: has, index: 2'
p393
sbatp394
Rp395
(dp396
g14
Vccomp
p397
sbag0
(g1
g2
(lp398
(lp399
S'word: he, index: 6'
p400
aatp401
Rp402
(dp403
g14
Vnsubj
p404
sbatp405
Rp406
(dp407
g14
S'word: has, index: 7'
p408
sbatp409
Rp410
(dp411
g14
S'id: 3'
p412
sbag0
(g1
g2
(lp413
g0
(g1
g2
(lp414
g0
(g1
g2
(lp415
g0
(g1
g2
(lp416
g0
(g1
g2
(lp417
(lp418
S'word: he, index: 12'
p419
aatp420
Rp421
(dp422
g14
Vnsubj
p423
sbag0
(g1
g2
(lp424
(lp425
S'word: has, index: 13'
p426
aatp427
Rp428
(dp429
g14
Vaux
p430
sbatp431
Rp432
(dp433
g14
S'word: suspender, index: 14'
p434
sbatp435
Rp436
(dp437
g14
Vparataxis
p438
sbag0
(g1
g2
(lp439
(lp440
S'word: He, index: 1'
p441
aatp442
Rp443
(dp444
g14
Vnsubj
p445
sbag0
(g1
g2
(lp446
g0
(g1
g2
(lp447
g0
(g1
g2
(lp448
(lp449
S'word: a, index: 3'
p450
aatp451
Rp452
(dp453
g14
Vdet
p454
sbag0
(g1
g2
(lp455
(lp456
S'word: clown, index: 4'
p457
aatp458
Rp459
(dp460
g14
Vnn
p461
sbatp462
Rp463
(dp464
g14
S'word: foot/filn, index: 5'
p465
sbatp466
Rp467
(dp468
g14
Vdobj
p469
sbag0
(g1
g2
(lp470
g0
(g1
g2
(lp471
g0
(g1
g2
(lp472
(lp473
S'word: he, index: 7'
p474
aatp475
Rp476
(dp477
g14
Vnsubj
p478
sbag0
(g1
g2
(lp479
g0
(g1
g2
(lp480
g0
(g1
g2
(lp481
(lp482
S'word: a, index: 9'
p483
aatp484
Rp485
(dp486
g14
Vdet
p487
sbatp488
Rp489
(dp490
g14
S'word: tie, index: 10'
p491
sbatp492
Rp493
(dp494
g14
Vdobj
p495
sbatp496
Rp497
(dp498
g14
S'word: has, index: 8'
p499
sbatp500
Rp501
(dp502
g14
Vparataxis
p503
sbatp504
Rp505
(dp506
g14
S'word: has, index: 2'
p507
sbatp508
Rp509
(dp510
g14
S'id: 4'
p511
sbag0
(g1
g2
(lp512
g0
(g1
g2
(lp513
g0
(g1
g2
(lp514
g0
(g1
g2
(lp515
g0
(g1
g2
(lp516
g0
(g1
g2
(lp517
g0
(g1
g2
(lp518
(lp519
S'word: The, index: 1'
p520
aatp521
Rp522
(dp523
g14
Vdet
p524
sbag0
(g1
g2
(lp525
(lp526
S"word: 's, index: 3"
p527
aatp528
Rp529
(dp530
g14
Vpossessive
p531
sbatp532
Rp533
(dp534
g14
S'word: man, index: 2'
p535
sbatp536
Rp537
(dp538
g14
Vnsubj
p539
sbag0
(g1
g2
(lp540
g0
(g1
g2
(lp541
g0
(g1
g2
(lp542
(lp543
S'word: the, index: 6'
p544
aatp545
Rp546
(dp547
g14
Vdet
p548
sbatp549
Rp550
(dp551
g14
S'word: lion, index: 7'
p552
sbatp553
Rp554
(dp555
g14
Vprep
p556
sbatp557
Rp558
(dp559
g14
S'word: working, index: 4'
p560
sbatp561
Rp562
(dp563
g14
Vvmod
p564
sbag0
(g1
g2
(lp565
g0
(g1
g2
(lp566
g0
(g1
g2
(lp567
(lp568
S'word: the, index: 9'
p569
aatp570
Rp571
(dp572
g14
Vdet
p573
sbatp574
Rp575
(dp576
g14
S'word: lion, index: 10'
p577
sbatp578
Rp579
(dp580
g14
Vnsubj
p581
sbag0
(g1
g2
(lp582
(lp583
S'word: is, index: 11'
p584
aatp585
Rp586
(dp587
g14
Vaux
p588
sbag0
(g1
g2
(lp589
g0
(g1
g2
(lp590
g0
(g1
g2
(lp591
(lp592
S'word: up, index: 15'
p593
aatp594
Rp595
(dp596
g14
Vprt
p597
sbag0
(g1
g2
(lp598
g0
(g1
g2
(lp599
g0
(g1
g2
(lp600
(lp601
S'word: her, index: 16'
p602
aatp603
Rp604
(dp605
g14
Vposs
p606
sbatp607
Rp608
(dp609
g14
S'word: paw, index: 17'
p610
sbatp611
Rp612
(dp613
g14
Vdobj
p614
sbag0
(g1
g2
(lp615
g0
(g1
g2
(lp616
g0
(g1
g2
(lp617
g0
(g1
g2
(lp618
g0
(g1
g2
(lp619
g0
(g1
g2
(lp620
g0
(g1
g2
(lp621
(lp622
S'word: the, index: 20'
p623
aatp624
Rp625
(dp626
g14
Vdet
p627
sbag0
(g1
g2
(lp628
g0
(g1
g2
(lp629
g0
(g1
g2
(lp630
(lp631
S'word: the, index: 23'
p632
aatp633
Rp634
(dp635
g14
Vdet
p636
sbatp637
Rp638
(dp639
g14
S'word: gentleman, index: 24'
p640
sbatp641
Rp642
(dp643
g14
Vprep
p644
sbatp645
Rp646
(dp647
g14
S'word: direction, index: 21'
p648
sbatp649
Rp650
(dp651
g14
Vpobj
p652
sbatp653
Rp654
(dp655
g14
S'word: to, index: 19'
p656
sbatp657
Rp658
(dp659
g14
Vpcomp
p660
sbatp661
Rp662
(dp663
g14
S'word: on, index: 18'
p664
sbatp665
Rp666
(dp667
g14
Vprep
p668
sbatp669
Rp670
(dp671
g14
S'word: moving, index: 14'
p672
sbatp673
Rp674
(dp675
g14
Vvmod
p676
sbatp677
Rp678
(dp679
g14
S'word: going, index: 12'
p680
sbatp681
Rp682
(dp683
g14
S'id: 5'
p684
sbag0
(g1
g2
(lp685
g0
(g1
g2
(lp686
g0
(g1
g2
(lp687
g0
(g1
g2
(lp688
g0
(g1
g2
(lp689
(lp690
S'word: a, index: 3'
p691
aatp692
Rp693
(dp694
g14
Vdet
p695
sbatp696
Rp697
(dp698
g14
S'word: cap, index: 4'
p699
sbatp700
Rp701
(dp702
g14
Vdobj
p703
sbag0
(g1
g2
(lp704
(lp705
S'word: on, index: 5'
p706
aatp707
Rp708
(dp709
g14
Vprep
p710
sbag0
(g1
g2
(lp711
g0
(g1
g2
(lp712
g0
(g1
g2
(lp713
(lp714
S'word: he, index: 8'
p715
aatp716
Rp717
(dp718
g14
Vnsubj
p719
sbag0
(g1
g2
(lp720
(lp721
S'word: also, index: 9'
p722
aatp723
Rp724
(dp725
g14
Vadvmod
p726
sbag0
(g1
g2
(lp727
g0
(g1
g2
(lp728
g0
(g1
g2
(lp729
(lp730
S'word: black, index: 11'
p731
aatp732
Rp733
(dp734
g14
Vamod
p735
sbag0
(g1
g2
(lp736
(lp737
S'word: jacket, index: 14'
p738
aatp739
Rp740
(dp741
g14
Vconj
p742
sbag0
(g1
g2
(lp743
g0
(g1
g2
(lp744
g0
(g1
g2
(lp745
g0
(g1
g2
(lp746
g0
(g1
g2
(lp747
(lp748
S'word: a, index: 17'
p749
aatp750
Rp751
(dp752
g14
Vdet
p753
sbatp754
Rp755
(dp756
g14
S'word: tux, index: 18'
p757
sbatp758
Rp759
(dp760
g14
Vpobj
p761
sbag0
(g1
g2
(lp762
(lp763
S'word: that, index: 15'
p764
aatp765
Rp766
(dp767
g14
Vdep
p768
sbatp769
Rp770
(dp771
g14
S'word: like, index: 16'
p772
sbatp773
Rp774
(dp775
g14
Vrcmod
p776
sbatp777
Rp778
(dp779
g14
S'word: pants, index: 12'
p780
sbatp781
Rp782
(dp783
g14
Vdobj
p784
sbag0
(g1
g2
(lp785
(lp786
S'word: jacket, index: 14'
p787
aatp788
Rp789
(dp790
g14
Vdobj
p791
sbatp792
Rp793
(dp794
g14
S'word: has, index: 10'
p795
sbatp796
Rp797
(dp798
g14
Vconj
p799
sbag0
(g1
g2
(lp800
(lp801
S'word: Gentleman, index: 1'
p802
aatp803
Rp804
(dp805
g14
Vnsubj
p806
sbatp807
Rp808
(dp809
g14
S'word: has, index: 2'
p810
sbatp811
Rp812
(dp813
g14
S'id: 6'
p814
sbag0
(g1
g2
(lp815
g0
(g1
g2
(lp816
g0
(g1
g2
(lp817
g0
(g1
g2
(lp818
g0
(g1
g2
(lp819
g0
(g1
g2
(lp820
g0
(g1
g2
(lp821
(lp822
S'word: a, index: 8'
p823
aatp824
Rp825
(dp826
g14
Vdet
p827
sbag0
(g1
g2
(lp828
(lp829
S'word: spotted, index: 9'
p830
aatp831
Rp832
(dp833
g14
Vamod
p834
sbatp835
Rp836
(dp837
g14
S'word: holder, index: 10'
p838
sbatp839
Rp840
(dp841
g14
Vappos
p842
sbatp843
Rp844
(dp845
g14
S'word: a, index: 6'
p846
sbatp847
Rp848
(dp849
g14
Vprep
p850
sbag0
(g1
g2
(lp851
g0
(g1
g2
(lp852
g0
(g1
g2
(lp853
(lp854
S'word: The, index: 1'
p855
aatp856
Rp857
(dp858
g14
Vdet
p859
sbatp860
Rp861
(dp862
g14
S'word: lion, index: 2'
p863
sbatp864
Rp865
(dp866
g14
Vnsubj
p867
sbag0
(g1
g2
(lp868
(lp869
S'word: is, index: 3'
p870
aatp871
Rp872
(dp873
g14
Vaux
p874
sbatp875
Rp876
(dp877
g14
S'word: sitting, index: 4'
p878
sbatp879
Rp880
(dp881
g14
S'id: 7'
p882
sbag0
(g1
g2
(lp883
g0
(g1
g2
(lp884
g0
(g1
g2
(lp885
(lp886
S'word: It, index: 1'
p887
aatp888
Rp889
(dp890
g14
Vnsubj
p891
sbag0
(g1
g2
(lp892
g0
(g1
g2
(lp893
g0
(g1
g2
(lp894
(lp895
S'word: cluh, index: 8'
p896
aatp897
Rp898
(dp899
g14
Vprep
p900
sbag0
(g1
g2
(lp901
g0
(g1
g2
(lp902
g0
(g1
g2
(lp903
g0
(g1
g2
(lp904
g0
(g1
g2
(lp905
(lp906
S'word: the, index: 12'
p907
aatp908
Rp909
(dp910
g14
Vdet
p911
sbatp912
Rp913
(dp914
g14
S'word: lion, index: 13'
p915
sbatp916
Rp917
(dp918
g14
Vdep
p919
sbag0
(g1
g2
(lp920
g0
(g1
g2
(lp921
g0
(g1
g2
(lp922
(lp923
S'word: the, index: 15'
p924
aatp925
Rp926
(dp927
g14
Vdet
p928
sbatp929
Rp930
(dp931
g14
S'word: trainer, index: 16'
p932
sbatp933
Rp934
(dp935
g14
Vconj
p936
sbatp937
Rp938
(dp939
g14
S'word: case, index: 11'
p940
sbatp941
Rp942
(dp943
g14
Vprep
p944
sbag0
(g1
g2
(lp945
g930
atp946
Rp947
(dp948
g14
Vprep
p949
sbag0
(g1
g2
(lp950
(lp951
S'word: that, index: 3'
p952
aatp953
Rp954
(dp955
g14
Vmark
p956
sbag0
(g1
g2
(lp957
(lp958
S'word: there, index: 4'
p959
aatp960
Rp961
(dp962
g14
Vexpl
p963
sbag0
(g1
g2
(lp964
(lp965
S'word: seventy, index: 5'
p966
aatp967
Rp968
(dp969
g14
Vnum
p970
sbatp971
Rp972
(dp973
g14
S'word: bars, index: 6'
p974
sbatp975
Rp976
(dp977
g14
Vccomp
p978
sbatp979
Rp980
(dp981
g14
S'word: appears, index: 2'
p982
sbatp983
Rp984
(dp985
g14
S'id: 8'
p986
sbag0
(g1
g2
(lp987
g0
(g1
g2
(lp988
g0
(g1
g2
(lp989
g0
(g1
g2
(lp990
g0
(g1
g2
(lp991
(lp992
S'word: The, index: 1'
p993
aatp994
Rp995
(dp996
g14
Vdet
p997
sbatp998
Rp999
(dp1000
g14
S'word: cage, index: 2'
p1001
sbatp1002
Rp1003
(dp1004
g14
Vnsubj
p1005
sbag0
(g1
g2
(lp1006
g0
(g1
g2
(lp1007
g0
(g1
g2
(lp1008
(lp1009
S'word: a, index: 4'
p1010
aatp1011
Rp1012
(dp1013
g14
Vdet
p1014
sbatp1015
Rp1016
(dp1017
g14
S'word: cover, index: 5'
p1018
sbatp1019
Rp1020
(dp1021
g14
Vdobj
p1022
sbatp1023
Rp1024
(dp1025
g14
S'word: has, index: 3'
p1026
sbatp1027
Rp1028
(dp1029
g14
S'id: 9'
p1030
sbag0
(g1
g2
(lp1031
g0
(g1
g2
(lp1032
g0
(g1
g2
(lp1033
g0
(g1
g2
(lp1034
g0
(g1
g2
(lp1035
g0
(g1
g2
(lp1036
g0
(g1
g2
(lp1037
(lp1038
S'word: four, index: 16'
p1039
aatp1040
Rp1041
(dp1042
g14
Vnum
p1043
sbag0
(g1
g2
(lp1044
g0
(g1
g2
(lp1045
g0
(g1
g2
(lp1046
(lp1047
S'word: that, index: 18'
p1048
aatp1049
Rp1050
(dp1051
g14
Vnsubj
p1052
sbag0
(g1
g2
(lp1053
g0
(g1
g2
(lp1054
g0
(g1
g2
(lp1055
(lp1056
S'word: a, index: 21'
p1057
aatp1058
Rp1059
(dp1060
g14
Vdet
p1061
sbatp1062
Rp1063
(dp1064
g14
S'word: picture, index: 22'
p1065
sbatp1066
Rp1067
(dp1068
g14
Vprep
p1069
sbatp1070
Rp1071
(dp1072
g14
S'word: appear, index: 19'
p1073
sbatp1074
Rp1075
(dp1076
g14
Vrcmod
p1077
sbatp1078
Rp1079
(dp1080
g14
S'word: stars, index: 17'
p1081
sbatp1082
Rp1083
(dp1084
g14
Vappos
p1085
sbatp1086
Rp1087
(dp1088
g14
S'word: fi, index: 14'
p1089
sbatp1090
Rp1091
(dp1092
g14
Vdobj
p1093
sbag0
(g1
g2
(lp1094
(lp1095
S'word: The, index: 1'
p1096
aatp1097
Rp1098
(dp1099
g14
Vnsubj
p1100
sbag0
(g1
g2
(lp1101
g0
(g1
g2
(lp1102
g0
(g1
g2
(lp1103
(lp1104
S'word: there, index: 3'
p1105
aatp1106
Rp1107
(dp1108
g14
Vexpl
p1109
sbag0
(g1
g2
(lp1110
g0
(g1
g2
(lp1111
g0
(g1
g2
(lp1112
(lp1113
S'word: a, index: 5'
p1114
aatp1115
Rp1116
(dp1117
g14
Vdet
p1118
sbag0
(g1
g2
(lp1119
g0
(g1
g2
(lp1120
g0
(g1
g2
(lp1121
(lp1122
S'word: the, index: 8'
p1123
aatp1124
Rp1125
(dp1126
g14
Vdet
p1127
sbatp1128
Rp1129
(dp1130
g14
S'word: circle, index: 9'
p1131
sbatp1132
Rp1133
(dp1134
g14
Vprep
p1135
sbatp1136
Rp1137
(dp1138
g14
S'word: woman, index: 6'
p1139
sbatp1140
Rp1141
(dp1142
g14
Vnsubj
p1143
sbatp1144
Rp1145
(dp1146
g14
S"word: 's, index: 4"
p1147
sbatp1148
Rp1149
(dp1150
g14
Vparataxis
p1151
sbag0
(g1
g2
(lp1152
g0
(g1
g2
(lp1153
g0
(g1
g2
(lp1154
(lp1155
S'word: the, index: 11'
p1156
aatp1157
Rp1158
(dp1159
g14
Vdet
p1160
sbatp1161
Rp1162
(dp1163
g14
S'word: circle, index: 12'
p1164
sbatp1165
Rp1166
(dp1167
g14
Vnsubj
p1168
sbatp1169
Rp1170
(dp1171
g14
S'word: has, index: 13'
p1172
sbatp1173
Rp1174
(dp1175
g14
S'id: 10'
p1176
sbag0
(g1
g2
(lp1177
g0
(g1
g2
(lp1178
g0
(g1
g2
(lp1179
g0
(g1
g2
(lp1180
g0
(g1
g2
(lp1181
(lp1182
S'word: The, index: 1'
p1183
aatp1184
Rp1185
(dp1186
g14
Vdet
p1187
sbatp1188
Rp1189
(dp1190
g14
S'word: lady, index: 2'
p1191
sbatp1192
Rp1193
(dp1194
g14
Vnsubj
p1195
sbag0
(g1
g2
(lp1196
(lp1197
S'word: is, index: 3'
p1198
aatp1199
Rp1200
(dp1201
g14
Vaux
p1202
sbag0
(g1
g2
(lp1203
g0
(g1
g2
(lp1204
g0
(g1
g2
(lp1205
(lp1206
S'word: the, index: 5'
p1207
aatp1208
Rp1209
(dp1210
g14
Vdet
p1211
sbatp1212
Rp1213
(dp1214
g14
S'word: horse, index: 6'
p1215
sbatp1216
Rp1217
(dp1218
g14
Vdobj
p1219
sbag0
(g1
g2
(lp1220
g0
(g1
g2
(lp1221
g0
(g1
g2
(lp1222
(lp1223
S'word: while, index: 8'
p1224
aatp1225
Rp1226
(dp1227
g14
Vmark
p1228
sbag0
(g1
g2
(lp1229
(lp1230
S'word: she, index: 9'
p1231
aatp1232
Rp1233
(dp1234
g14
Vnsubj
p1235
sbatp1236
Rp1237
(dp1238
g14
S'word: bend, index: 10'
p1239
sbatp1240
Rp1241
(dp1242
g14
Vadvcl
p1243
sbag0
(g1
g2
(lp1244
g0
(g1
g2
(lp1245
g0
(g1
g2
(lp1246
g1189
atp1247
Rp1248
(dp1249
g14
Vnsubj
p1250
sbag0
(g1
g2
(lp1251
g0
(g1
g2
(lp1252
g0
(g1
g2
(lp1253
(lp1254
S'word: her, index: 13'
p1255
aatp1256
Rp1257
(dp1258
g14
Vposs
p1259
sbatp1260
Rp1261
(dp1262
g14
S'word: knees, index: 14'
p1263
sbatp1264
Rp1265
(dp1266
g14
Vdobj
p1267
sbatp1268
Rp1269
(dp1270
g14
S'word: bends, index: 12'
p1271
sbatp1272
Rp1273
(dp1274
g14
Vconj
p1275
sbag0
(g1
g2
(lp1276
g0
(g1
g2
(lp1277
g0
(g1
g2
(lp1278
g1189
atp1279
Rp1280
(dp1281
g14
Vnsubj
p1282
sbag0
(g1
g2
(lp1283
g0
(g1
g2
(lp1284
g0
(g1
g2
(lp1285
(lp1286
S'word: her, index: 17'
p1287
aatp1288
Rp1289
(dp1290
g14
Vposs
p1291
sbatp1292
Rp1293
(dp1294
g14
S'word: arms, index: 18'
p1295
sbatp1296
Rp1297
(dp1298
g14
Vdobj
p1299
sbag0
(g1
g2
(lp1300
(lp1301
S'word: us, index: 20'
p1302
aatp1303
Rp1304
(dp1305
g14
Vprep
p1306
sbatp1307
Rp1308
(dp1309
g14
S'word: holds, index: 16'
p1310
sbatp1311
Rp1312
(dp1313
g14
Vconj
p1314
sbatp1315
Rp1316
(dp1317
g14
S'word: riding, index: 4'
p1318
sbatp1319
Rp1320
(dp1321
g14
S'id: 11'
p1322
sbag0
(g1
g2
(lp1323
g0
(g1
g2
(lp1324
g0
(g1
g2
(lp1325
(lp1326
S'word: two, index: 4'
p1327
aatp1328
Rp1329
(dp1330
g14
Vamod
p1331
sbag0
(g1
g2
(lp1332
(lp1333
S'word: three, index: 6'
p1334
aatp1335
Rp1336
(dp1337
g14
Vamod
p1338
sbag0
(g1
g2
(lp1339
(lp1340
S'word: four, index: 8'
p1341
aatp1342
Rp1343
(dp1344
g14
Vamod
p1345
sbag0
(g1
g2
(lp1346
(lp1347
S'word: five, index: 10'
p1348
aatp1349
Rp1350
(dp1351
g14
Vamod
p1352
sbag0
(g1
g2
(lp1353
(lp1354
S'word: five, index: 12'
p1355
aatp1356
Rp1357
(dp1358
g14
Vamod
p1359
sbag0
(g1
g2
(lp1360
g0
(g1
g2
(lp1361
g0
(g1
g2
(lp1362
(lp1363
S'word: five, index: 14'
p1364
aatp1365
Rp1366
(dp1367
g14
Vnum
p1368
sbatp1369
Rp1370
(dp1371
g14
S'word: stretchers, index: 15'
p1372
sbatp1373
Rp1374
(dp1375
g14
Vappos
p1376
sbag0
(g1
g2
(lp1377
(lp1378
S'word: There, index: 1'
p1379
aatp1380
Rp1381
(dp1382
g14
Vexpl
p1383
sbag0
(g1
g2
(lp1384
g0
(g1
g2
(lp1385
g0
(g1
g2
(lp1386
(lp1387
S'word: her, index: 20'
p1388
aatp1389
Rp1390
(dp1391
g14
Vdobj
p1392
sbag0
(g1
g2
(lp1393
(lp1394
S'word: which, index: 17'
p1395
aatp1396
Rp1397
(dp1398
g14
Vnsubj
p1399
sbag0
(g1
g2
(lp1400
(lp1401
S'word: me, index: 19'
p1402
aatp1403
Rp1404
(dp1405
g14
Viobj
p1406
sbatp1407
Rp1408
(dp1409
g14
S'word: give, index: 18'
p1410
sbatp1411
Rp1412
(dp1413
g14
Vrcmod
p1414
sbatp1415
Rp1416
(dp1417
g14
S'word: one, index: 2'
p1418
sbatp1419
Rp1420
(dp1421
g14
S'id: 12'
p1422
sbag0
(g1
g2
(lp1423
g0
(g1
g2
(lp1424
g0
(g1
g2
(lp1425
g0
(g1
g2
(lp1426
g0
(g1
g2
(lp1427
(lp1428
S'word: The, index: 1'
p1429
aatp1430
Rp1431
(dp1432
g14
Vdet
p1433
sbatp1434
Rp1435
(dp1436
g14
S'word: horse, index: 2'
p1437
sbatp1438
Rp1439
(dp1440
g14
Vnsubj
p1441
sbag0
(g1
g2
(lp1442
(lp1443
S'word: is, index: 3'
p1444
aatp1445
Rp1446
(dp1447
g14
Vaux
p1448
sbag0
(g1
g2
(lp1449
g0
(g1
g2
(lp1450
g0
(g1
g2
(lp1451
g0
(g1
g2
(lp1452
g0
(g1
g2
(lp1453
(lp1454
S'word: the, index: 7'
p1455
aatp1456
Rp1457
(dp1458
g14
Vdet
p1459
sbatp1460
Rp1461
(dp1462
g14
S'word: lady, index: 8'
p1463
sbatp1464
Rp1465
(dp1466
g14
Vdobj
p1467
sbag0
(g1
g2
(lp1468
(lp1469
S'word: to, index: 5'
p1470
aatp1471
Rp1472
(dp1473
g14
Vaux
p1474
sbatp1475
Rp1476
(dp1477
g14
S'word: help, index: 6'
p1478
sbatp1479
Rp1480
(dp1481
g14
Vxcomp
p1482
sbatp1483
Rp1484
(dp1485
g14
S'word: trotting, index: 4'
p1486
sbatp1487
Rp1488
(dp1489
g14
S'id: 13'
p1490
sbag0
(g1
g2
(lp1491
g0
(g1
g2
(lp1492
g0
(g1
g2
(lp1493
g0
(g1
g2
(lp1494
g0
(g1
g2
(lp1495
(lp1496
S'word: The, index: 1'
p1497
aatp1498
Rp1499
(dp1500
g14
Vdet
p1501
sbatp1502
Rp1503
(dp1504
g14
S'word: man, index: 2'
p1505
sbatp1506
Rp1507
(dp1508
g14
Vnsubj
p1509
sbag0
(g1
g2
(lp1510
(lp1511
S'word: is, index: 3'
p1512
aatp1513
Rp1514
(dp1515
g14
Vaux
p1516
sbag0
(g1
g2
(lp1517
g0
(g1
g2
(lp1518
g0
(g1
g2
(lp1519
(lp1520
S'word: the, index: 6'
p1521
aatp1522
Rp1523
(dp1524
g14
Vdet
p1525
sbag0
(g1
g2
(lp1526
(lp1527
S'word: i, index: 7'
p1528
aatp1529
Rp1530
(dp1531
g14
Vnn
p1532
sbatp1533
Rp1534
(dp1535
g14
S'word: wire, index: 8'
p1536
sbatp1537
Rp1538
(dp1539
g14
Vprep
p1540
sbatp1541
Rp1542
(dp1543
g14
S'word: balancing, index: 4'
p1544
sbatp1545
Rp1546
(dp1547
g14
S'id: 14'
p1548
sbag0
(g1
g2
(lp1549
g0
(g1
g2
(lp1550
g0
(g1
g2
(lp1551
(lp1552
S'word: He, index: 1'
p1553
aatp1554
Rp1555
(dp1556
g14
Vnsubj
p1557
sbag0
(g1
g2
(lp1558
(lp1559
S"word: 's, index: 2"
p1560
aatp1561
Rp1562
(dp1563
g14
Vaux
p1564
sbag0
(g1
g2
(lp1565
g0
(g1
g2
(lp1566
g0
(g1
g2
(lp1567
(lp1568
S'word: a, index: 4'
p1569
aatp1570
Rp1571
(dp1572
g14
Vdet
p1573
sbag0
(g1
g2
(lp1574
(lp1575
S'word: complete, index: 5'
p1576
aatp1577
Rp1578
(dp1579
g14
Vamod
p1580
sbag0
(g1
g2
(lp1581
(lp1582
S'word: black, index: 6'
p1583
aatp1584
Rp1585
(dp1586
g14
Vamod
p1587
sbatp1588
Rp1589
(dp1590
g14
S'word: suit, index: 7'
p1591
sbatp1592
Rp1593
(dp1594
g14
Vdobj
p1595
sbatp1596
Rp1597
(dp1598
g14
S'word: wearing, index: 3'
p1599
sbatp1600
Rp1601
(dp1602
g14
S'id: 15'
p1603
sbatp1604
Rp1605
(dp1606
g14
S'sentences'
p1607
sb.