ccopy_reg
_reconstructor
p0
(cnltk.tree
Tree
p1
c__builtin__
list
p2
(lp3
g0
(g1
g2
(lp4
g0
(g1
g2
(lp5
g0
(g1
g2
(lp6
g0
(g1
g2
(lp7
Vok
p8
atp9
Rp10
(dp11
S'_label'
p12
VJJ
p13
sbatp14
Rp15
(dp16
g12
VNP
p17
sbag0
(g1
g2
(lp18
g0
(g1
g2
(lp19
Vseem
p20
atp21
Rp22
(dp23
g12
VVBP
p24
sbag0
(g1
g2
(lp25
g0
(g1
g2
(lp26
Vlike
p27
atp28
Rp29
(dp30
g12
VIN
p31
sbag0
(g1
g2
(lp32
g0
(g1
g2
(lp33
g0
(g1
g2
(lp34
Vwe
p35
atp36
Rp37
(dp38
g12
VPRP
p39
sbatp40
Rp41
(dp42
g12
VNP
p43
sbag0
(g1
g2
(lp44
g0
(g1
g2
(lp45
V're
p46
atp47
Rp48
(dp49
g12
VVBP
p50
sbag0
(g1
g2
(lp51
g0
(g1
g2
(lp52
Vat
p53
atp54
Rp55
(dp56
g12
VIN
p57
sbag0
(g1
g2
(lp58
Va
p59
atp60
Rp61
(dp62
g12
VDT
p63
sbatp64
Rp65
(dp66
g12
VADVP
p67
sbag0
(g1
g2
(lp68
V,
p69
atp70
Rp71
(dp72
g12
V,
p73
sbag0
(g1
g2
(lp74
g0
(g1
g2
(lp75
Von
p76
atp77
Rp78
(dp79
g12
VIN
p80
sbag0
(g1
g2
(lp81
g0
(g1
g2
(lp82
Va
p83
atp84
Rp85
(dp86
g12
VDT
p87
sbag0
(g1
g2
(lp88
Vlake
p89
atp90
Rp91
(dp92
g12
VNN
p93
sbatp94
Rp95
(dp96
g12
VNP
p97
sbatp98
Rp99
(dp100
g12
VPP
p101
sbatp102
Rp103
(dp104
g12
VVP
p105
sbatp106
Rp107
(dp108
g12
VS
p109
sbatp110
Rp111
(dp112
g12
VSBAR
p113
sbatp114
Rp115
(dp116
g12
VVP
p117
sbag0
(g1
g2
(lp118
V.
p119
atp120
Rp121
(dp122
g12
V.
p123
sbatp124
Rp125
(dp126
g12
VS
p127
sbatp128
Rp129
(dp130
g12
S'id: 0'
p131
sbag0
(g1
g2
(lp132
g0
(g1
g2
(lp133
g0
(g1
g2
(lp134
g0
(g1
g2
(lp135
VThere
p136
atp137
Rp138
(dp139
g12
VEX
p140
sbatp141
Rp142
(dp143
g12
VNP
p144
sbag0
(g1
g2
(lp145
g0
(g1
g2
(lp146
V's
p147
atp148
Rp149
(dp150
g12
VVBZ
p151
sbag0
(g1
g2
(lp152
g0
(g1
g2
(lp153
Vabout
p154
atp155
Rp156
(dp157
g12
VIN
p158
sbag0
(g1
g2
(lp159
g0
(g1
g2
(lp160
g0
(g1
g2
(lp161
Vone
p162
atp163
Rp164
(dp165
g12
VCD
p166
sbatp167
Rp168
(dp169
g12
VNP
p170
sbag0
(g1
g2
(lp171
V,
p172
atp173
Rp174
(dp175
g12
V,
p176
sbag0
(g1
g2
(lp177
g0
(g1
g2
(lp178
Vtwo
p179
atp180
Rp181
(dp182
g12
VCD
p183
sbatp184
Rp185
(dp186
g12
VNP
p187
sbag0
(g1
g2
(lp188
V,
p189
atp190
Rp191
(dp192
g12
V,
p193
sbag0
(g1
g2
(lp194
g0
(g1
g2
(lp195
Vfive
p196
atp197
Rp198
(dp199
g12
VCD
p200
sbag0
(g1
g2
(lp201
Vpeople
p202
atp203
Rp204
(dp205
g12
VNNS
p206
sbatp207
Rp208
(dp209
g12
VNP
p210
sbag0
(g1
g2
(lp211
V,
p212
atp213
Rp214
(dp215
g12
V,
p216
sbag0
(g1
g2
(lp217
Vand
p218
atp219
Rp220
(dp221
g12
VCC
p222
sbag0
(g1
g2
(lp223
g0
(g1
g2
(lp224
Va
p225
atp226
Rp227
(dp228
g12
VDT
p229
sbag0
(g1
g2
(lp230
Vdog
p231
atp232
Rp233
(dp234
g12
VNN
p235
sbatp236
Rp237
(dp238
g12
VNP
p239
sbatp240
Rp241
(dp242
g12
VNP
p243
sbatp244
Rp245
(dp246
g12
VPP
p247
sbatp248
Rp249
(dp250
g12
VVP
p251
sbag0
(g1
g2
(lp252
V.
p253
atp254
Rp255
(dp256
g12
V.
p257
sbatp258
Rp259
(dp260
g12
VS
p261
sbatp262
Rp263
(dp264
g12
S'id: 1'
p265
sbag0
(g1
g2
(lp266
g0
(g1
g2
(lp267
g0
(g1
g2
(lp268
g0
(g1
g2
(lp269
VThere
p270
atp271
Rp272
(dp273
g12
VEX
p274
sbatp275
Rp276
(dp277
g12
VNP
p278
sbag0
(g1
g2
(lp279
g0
(g1
g2
(lp280
V's
p281
atp282
Rp283
(dp284
g12
VVBZ
p285
sbag0
(g1
g2
(lp286
g0
(g1
g2
(lp287
g0
(g1
g2
(lp288
Vone
p289
atp290
Rp291
(dp292
g12
VCD
p293
sbag0
(g1
g2
(lp294
Vcouple
p295
atp296
Rp297
(dp298
g12
VNN
p299
sbatp300
Rp301
(dp302
g12
VNP
p303
sbag0
(g1
g2
(lp304
g0
(g1
g2
(lp305
g0
(g1
g2
(lp306
Vthat
p307
atp308
Rp309
(dp310
g12
VWDT
p311
sbatp312
Rp313
(dp314
g12
VWHNP
p315
sbag0
(g1
g2
(lp316
g0
(g1
g2
(lp317
g0
(g1
g2
(lp318
V's
p319
atp320
Rp321
(dp322
g12
VVBZ
p323
sbag0
(g1
g2
(lp324
g0
(g1
g2
(lp325
Vsitting
p326
atp327
Rp328
(dp329
g12
VVBG
p330
sbag0
(g1
g2
(lp331
g0
(g1
g2
(lp332
Von
p333
atp334
Rp335
(dp336
g12
VIN
p337
sbag0
(g1
g2
(lp338
g0
(g1
g2
(lp339
g0
(g1
g2
(lp340
Vthe
p341
atp342
Rp343
(dp344
g12
VDT
p345
sbag0
(g1
g2
(lp346
Vlake
p347
atp348
Rp349
(dp350
g12
VNN
p351
sbatp352
Rp353
(dp354
g12
VNP
p355
sbag0
(g1
g2
(lp356
g0
(g1
g2
(lp357
Von
p358
atp359
Rp360
(dp361
g12
VIN
p362
sbag0
(g1
g2
(lp363
g0
(g1
g2
(lp364
Va
p365
atp366
Rp367
(dp368
g12
VDT
p369
sbag0
(g1
g2
(lp370
Vblanket
p371
atp372
Rp373
(dp374
g12
VNN
p375
sbatp376
Rp377
(dp378
g12
VNP
p379
sbatp380
Rp381
(dp382
g12
VPP
p383
sbatp384
Rp385
(dp386
g12
VNP
p387
sbatp388
Rp389
(dp390
g12
VPP
p391
sbag0
(g1
g2
(lp392
g0
(g1
g2
(lp393
Vwith
p394
atp395
Rp396
(dp397
g12
VIN
p398
sbag0
(g1
g2
(lp399
g0
(g1
g2
(lp400
g0
(g1
g2
(lp401
Va
p402
atp403
Rp404
(dp405
g12
VDT
p406
sbag0
(g1
g2
(lp407
Vpicnic
p408
atp409
Rp410
(dp411
g12
VNN
p412
sbag0
(g1
g2
(lp413
Vbasket
p414
atp415
Rp416
(dp417
g12
VNN
p418
sbatp419
Rp420
(dp421
g12
VNP
p422
sbag0
(g1
g2
(lp423
Vand
p424
atp425
Rp426
(dp427
g12
VCC
p428
sbag0
(g1
g2
(lp429
g0
(g1
g2
(lp430
Va
p431
atp432
Rp433
(dp434
g12
VDT
p435
sbag0
(g1
g2
(lp436
Vradio
p437
atp438
Rp439
(dp440
g12
VNN
p441
sbatp442
Rp443
(dp444
g12
VNP
p445
sbatp446
Rp447
(dp448
g12
VNP
p449
sbatp450
Rp451
(dp452
g12
VPP
p453
sbatp454
Rp455
(dp456
g12
VVP
p457
sbatp458
Rp459
(dp460
g12
VVP
p461
sbatp462
Rp463
(dp464
g12
VS
p465
sbatp466
Rp467
(dp468
g12
VSBAR
p469
sbatp470
Rp471
(dp472
g12
VNP
p473
sbatp474
Rp475
(dp476
g12
VVP
p477
sbag0
(g1
g2
(lp478
V.
p479
atp480
Rp481
(dp482
g12
V.
p483
sbatp484
Rp485
(dp486
g12
VS
p487
sbatp488
Rp489
(dp490
g12
S'id: 2'
p491
sbag0
(g1
g2
(lp492
g0
(g1
g2
(lp493
g0
(g1
g2
(lp494
g0
(g1
g2
(lp495
VThe
p496
atp497
Rp498
(dp499
g12
VDT
p500
sbag0
(g1
g2
(lp501
Vlady
p502
atp503
Rp504
(dp505
g12
VNN
p506
sbatp507
Rp508
(dp509
g12
VNP
p510
sbag0
(g1
g2
(lp511
g0
(g1
g2
(lp512
Vis
p513
atp514
Rp515
(dp516
g12
VVBZ
p517
sbag0
(g1
g2
(lp518
g0
(g1
g2
(lp519
Vre
p520
atp521
Rp522
(dp523
g12
VNN
p524
sbatp525
Rp526
(dp527
g12
VNP
p528
sbag0
(g1
g2
(lp529
V,
p530
atp531
Rp532
(dp533
g12
V,
p534
sbag0
(g1
g2
(lp535
g0
(g1
g2
(lp536
g0
(g1
g2
(lp537
Vpouring
p538
atp539
Rp540
(dp541
g12
VVBG
p542
sbag0
(g1
g2
(lp543
g0
(g1
g2
(lp544
Va
p545
atp546
Rp547
(dp548
g12
VDT
p549
sbag0
(g1
g2
(lp550
Vsomething
p551
atp552
Rp553
(dp554
g12
VNN
p555
sbatp556
Rp557
(dp558
g12
VNP
p559
sbag0
(g1
g2
(lp560
g0
(g1
g2
(lp561
Vout
p562
atp563
Rp564
(dp565
g12
VIN
p566
sbatp567
Rp568
(dp569
g12
VPRT
p570
sbag0
(g1
g2
(lp571
g0
(g1
g2
(lp572
Vof
p573
atp574
Rp575
(dp576
g12
VIN
p577
sbag0
(g1
g2
(lp578
g0
(g1
g2
(lp579
Va
p580
atp581
Rp582
(dp583
g12
VDT
p584
sbag0
(g1
g2
(lp585
Vbottle
p586
atp587
Rp588
(dp589
g12
VNN
p590
sbatp591
Rp592
(dp593
g12
VNP
p594
sbatp595
Rp596
(dp597
g12
VPP
p598
sbatp599
Rp600
(dp601
g12
VVP
p602
sbatp603
Rp604
(dp605
g12
VS
p606
sbatp607
Rp608
(dp609
g12
VVP
p610
sbag0
(g1
g2
(lp611
V.
p612
atp613
Rp614
(dp615
g12
V.
p616
sbatp617
Rp618
(dp619
g12
VS
p620
sbatp621
Rp622
(dp623
g12
S'id: 3'
p624
sbag0
(g1
g2
(lp625
g0
(g1
g2
(lp626
g0
(g1
g2
(lp627
g0
(g1
g2
(lp628
VThe
p629
atp630
Rp631
(dp632
g12
VDT
p633
sbag0
(g1
g2
(lp634
Vman
p635
atp636
Rp637
(dp638
g12
VNN
p639
sbatp640
Rp641
(dp642
g12
VNP
p643
sbag0
(g1
g2
(lp644
g0
(g1
g2
(lp645
Vis
p646
atp647
Rp648
(dp649
g12
VVBZ
p650
sbag0
(g1
g2
(lp651
g0
(g1
g2
(lp652
Vreading
p653
atp654
Rp655
(dp656
g12
VVBG
p657
sbag0
(g1
g2
(lp658
g0
(g1
g2
(lp659
Va
p660
atp661
Rp662
(dp663
g12
VDT
p664
sbag0
(g1
g2
(lp665
Vbook
p666
atp667
Rp668
(dp669
g12
VNN
p670
sbatp671
Rp672
(dp673
g12
VNP
p674
sbatp675
Rp676
(dp677
g12
VVP
p678
sbatp679
Rp680
(dp681
g12
VVP
p682
sbag0
(g1
g2
(lp683
V.
p684
atp685
Rp686
(dp687
g12
V.
p688
sbatp689
Rp690
(dp691
g12
VS
p692
sbatp693
Rp694
(dp695
g12
S'id: 4'
p696
sbag0
(g1
g2
(lp697
g0
(g1
g2
(lp698
g0
(g1
g2
(lp699
g0
(g1
g2
(lp700
VThere
p701
atp702
Rp703
(dp704
g12
VEX
p705
sbatp706
Rp707
(dp708
g12
VNP
p709
sbag0
(g1
g2
(lp710
g0
(g1
g2
(lp711
V's
p712
atp713
Rp714
(dp715
g12
VVBZ
p716
sbag0
(g1
g2
(lp717
g0
(g1
g2
(lp718
g0
(g1
g2
(lp719
Va
p720
atp721
Rp722
(dp723
g12
VDT
p724
sbag0
(g1
g2
(lp725
Vcar
p726
atp727
Rp728
(dp729
g12
VNN
p730
sbatp731
Rp732
(dp733
g12
VNP
p734
sbag0
(g1
g2
(lp735
g0
(g1
g2
(lp736
Vparked
p737
atp738
Rp739
(dp740
g12
VVBN
p741
sbag0
(g1
g2
(lp742
g0
(g1
g2
(lp743
Vin
p744
atp745
Rp746
(dp747
g12
VIN
p748
sbag0
(g1
g2
(lp749
g0
(g1
g2
(lp750
Vthe
p751
atp752
Rp753
(dp754
g12
VDT
p755
sbag0
(g1
g2
(lp756
Vgarage
p757
atp758
Rp759
(dp760
g12
VNN
p761
sbatp762
Rp763
(dp764
g12
VNP
p765
sbatp766
Rp767
(dp768
g12
VPP
p769
sbag0
(g1
g2
(lp770
V,
p771
atp772
Rp773
(dp774
g12
V,
p775
sbag0
(g1
g2
(lp776
g0
(g1
g2
(lp777
Vwith
p778
atp779
Rp780
(dp781
g12
VIN
p782
sbag0
(g1
g2
(lp783
g0
(g1
g2
(lp784
g0
(g1
g2
(lp785
Va
p786
atp787
Rp788
(dp789
g12
VDT
p790
sbag0
(g1
g2
(lp791
Vbig
p792
atp793
Rp794
(dp795
g12
VJJ
p796
sbag0
(g1
g2
(lp797
Vtree
p798
atp799
Rp800
(dp801
g12
VNN
p802
sbatp803
Rp804
(dp805
g12
VNP
p806
sbag0
(g1
g2
(lp807
g0
(g1
g2
(lp808
Vin
p809
atp810
Rp811
(dp812
g12
VIN
p813
sbag0
(g1
g2
(lp814
g0
(g1
g2
(lp815
Vthe
p816
atp817
Rp818
(dp819
g12
VDT
p820
sbag0
(g1
g2
(lp821
Vfront
p822
atp823
Rp824
(dp825
g12
VNN
p826
sbag0
(g1
g2
(lp827
Vyard
p828
atp829
Rp830
(dp831
g12
VNN
p832
sbatp833
Rp834
(dp835
g12
VNP
p836
sbatp837
Rp838
(dp839
g12
VPP
p840
sbatp841
Rp842
(dp843
g12
VNP
p844
sbatp845
Rp846
(dp847
g12
VPP
p848
sbatp849
Rp850
(dp851
g12
VVP
p852
sbatp853
Rp854
(dp855
g12
VNP
p856
sbatp857
Rp858
(dp859
g12
VVP
p860
sbag0
(g1
g2
(lp861
V.
p862
atp863
Rp864
(dp865
g12
V.
p866
sbatp867
Rp868
(dp869
g12
VS
p870
sbatp871
Rp872
(dp873
g12
S'id: 5'
p874
sbag0
(g1
g2
(lp875
g0
(g1
g2
(lp876
g0
(g1
g2
(lp877
g0
(g1
g2
(lp878
VThey
p879
atp880
Rp881
(dp882
g12
VPRP
p883
sbatp884
Rp885
(dp886
g12
VNP
p887
sbag0
(g1
g2
(lp888
g0
(g1
g2
(lp889
Vhave
p890
atp891
Rp892
(dp893
g12
VVBP
p894
sbag0
(g1
g2
(lp895
g0
(g1
g2
(lp896
Va
p897
atp898
Rp899
(dp900
g12
VDT
p901
sbag0
(g1
g2
(lp902
Vflag
p903
atp904
Rp905
(dp906
g12
VNN
p907
sbag0
(g1
g2
(lp908
Vpole
p909
atp910
Rp911
(dp912
g12
VNN
p913
sbatp914
Rp915
(dp916
g12
VNP
p917
sbag0
(g1
g2
(lp918
g0
(g1
g2
(lp919
Vto
p920
atp921
Rp922
(dp923
g12
VTO
p924
sbag0
(g1
g2
(lp925
g0
(g1
g2
(lp926
g0
(g1
g2
(lp927
Vthe
p928
atp929
Rp930
(dp931
g12
VDT
p932
sbag0
(g1
g2
(lp933
Vright
p934
atp935
Rp936
(dp937
g12
VNN
p938
sbatp939
Rp940
(dp941
g12
VNP
p942
sbag0
(g1
g2
(lp943
g0
(g1
g2
(lp944
Vof
p945
atp946
Rp947
(dp948
g12
VIN
p949
sbag0
(g1
g2
(lp950
g0
(g1
g2
(lp951
Vthe
p952
atp953
Rp954
(dp955
g12
VDT
p956
sbag0
(g1
g2
(lp957
Vhouse
p958
atp959
Rp960
(dp961
g12
VNN
p962
sbatp963
Rp964
(dp965
g12
VNP
p966
sbatp967
Rp968
(dp969
g12
VPP
p970
sbatp971
Rp972
(dp973
g12
VNP
p974
sbatp975
Rp976
(dp977
g12
VPP
p978
sbatp979
Rp980
(dp981
g12
VVP
p982
sbag0
(g1
g2
(lp983
V.
p984
atp985
Rp986
(dp987
g12
V.
p988
sbatp989
Rp990
(dp991
g12
VS
p992
sbatp993
Rp994
(dp995
g12
S'id: 6'
p996
sbag0
(g1
g2
(lp997
g0
(g1
g2
(lp998
g0
(g1
g2
(lp999
g0
(g1
g2
(lp1000
g0
(g1
g2
(lp1001
VThere
p1002
atp1003
Rp1004
(dp1005
g12
VEX
p1006
sbatp1007
Rp1008
(dp1009
g12
VNP
p1010
sbag0
(g1
g2
(lp1011
g0
(g1
g2
(lp1012
g0
(g1
g2
(lp1013
g0
(g1
g2
(lp1014
Valso
p1015
atp1016
Rp1017
(dp1018
g12
VRB
p1019
sbag0
(g1
g2
(lp1020
Va
p1021
atp1022
Rp1023
(dp1024
g12
VDT
p1025
sbag0
(g1
g2
(lp1026
Vman
p1027
atp1028
Rp1029
(dp1030
g12
VNN
p1031
sbag0
(g1
g2
(lp1032
Vstanding
p1033
atp1034
Rp1035
(dp1036
g12
VNN
p1037
sbatp1038
Rp1039
(dp1040
g12
VNP
p1041
sbag0
(g1
g2
(lp1042
g0
(g1
g2
(lp1043
Von
p1044
atp1045
Rp1046
(dp1047
g12
VIN
p1048
sbag0
(g1
g2
(lp1049
g0
(g1
g2
(lp1050
Vthe
p1051
atp1052
Rp1053
(dp1054
g12
VDT
p1055
sbag0
(g1
g2
(lp1056
Vdeck
p1057
atp1058
Rp1059
(dp1060
g12
VNN
p1061
sbatp1062
Rp1063
(dp1064
g12
VNP
p1065
sbatp1066
Rp1067
(dp1068
g12
VPP
p1069
sbag0
(g1
g2
(lp1070
V,
p1071
atp1072
Rp1073
(dp1074
g12
V,
p1075
sbag0
(g1
g2
(lp1076
g0
(g1
g2
(lp1077
Von
p1078
atp1079
Rp1080
(dp1081
g12
VIN
p1082
sbag0
(g1
g2
(lp1083
g0
(g1
g2
(lp1084
Vthe
p1085
atp1086
Rp1087
(dp1088
g12
VDT
p1089
sbag0
(g1
g2
(lp1090
Vdeck
p1091
atp1092
Rp1093
(dp1094
g12
VNN
p1095
sbatp1096
Rp1097
(dp1098
g12
VNP
p1099
sbatp1100
Rp1101
(dp1102
g12
VPP
p1103
sbag0
(g1
g2
(lp1104
g0
(g1
g2
(lp1105
Vof
p1106
atp1107
Rp1108
(dp1109
g12
VIN
p1110
sbag0
(g1
g2
(lp1111
g0
(g1
g2
(lp1112
Vthe
p1113
atp1114
Rp1115
(dp1116
g12
VDT
p1117
sbag0
(g1
g2
(lp1118
Vlake
p1119
atp1120
Rp1121
(dp1122
g12
VNN
p1123
sbatp1124
Rp1125
(dp1126
g12
VNP
p1127
sbatp1128
Rp1129
(dp1130
g12
VPP
p1131
sbatp1132
Rp1133
(dp1134
g12
VNP
p1135
sbag0
(g1
g2
(lp1136
g0
(g1
g2
(lp1137
V,
p1138
atp1139
Rp1140
(dp1141
g12
V,
p1142
sbag0
(g1
g2
(lp1143
g0
(g1
g2
(lp1144
Vwith
p1145
atp1146
Rp1147
(dp1148
g12
VIN
p1149
sbag0
(g1
g2
(lp1150
g0
(g1
g2
(lp1151
Vthe
p1152
atp1153
Rp1154
(dp1155
g12
VDT
p1156
sbag0
(g1
g2
(lp1157
Vfishing
p1158
atp1159
Rp1160
(dp1161
g12
VNN
p1162
sbag0
(g1
g2
(lp1163
Vpole
p1164
atp1165
Rp1166
(dp1167
g12
VNN
p1168
sbatp1169
Rp1170
(dp1171
g12
VNP
p1172
sbatp1173
Rp1174
(dp1175
g12
VPP
p1176
sbag0
(g1
g2
(lp1177
V,
p1178
atp1179
Rp1180
(dp1181
g12
V,
p1182
sbatp1183
Rp1184
(dp1185
g12
VPRN
p1186
sbatp1187
Rp1188
(dp1189
g12
VVP
p1190
sbatp1191
Rp1192
(dp1193
g12
VS
p1194
sbag0
(g1
g2
(lp1195
Vand
p1196
atp1197
Rp1198
(dp1199
g12
VCC
p1200
sbag0
(g1
g2
(lp1201
g0
(g1
g2
(lp1202
g0
(g1
g2
(lp1203
Vthere
p1204
atp1205
Rp1206
(dp1207
g12
VEX
p1208
sbatp1209
Rp1210
(dp1211
g12
VNP
p1212
sbag0
(g1
g2
(lp1213
g0
(g1
g2
(lp1214
V's
p1215
atp1216
Rp1217
(dp1218
g12
VVBZ
p1219
sbag0
(g1
g2
(lp1220
g0
(g1
g2
(lp1221
g0
(g1
g2
(lp1222
Vfish
p1223
atp1224
Rp1225
(dp1226
g12
VNN
p1227
sbatp1228
Rp1229
(dp1230
g12
VNP
p1231
sbag0
(g1
g2
(lp1232
g0
(g1
g2
(lp1233
Von
p1234
atp1235
Rp1236
(dp1237
g12
VIN
p1238
sbag0
(g1
g2
(lp1239
g0
(g1
g2
(lp1240
Vit
p1241
atp1242
Rp1243
(dp1244
g12
VPRP
p1245
sbatp1246
Rp1247
(dp1248
g12
VNP
p1249
sbatp1250
Rp1251
(dp1252
g12
VPP
p1253
sbatp1254
Rp1255
(dp1256
g12
VNP
p1257
sbatp1258
Rp1259
(dp1260
g12
VVP
p1261
sbatp1262
Rp1263
(dp1264
g12
VS
p1265
sbag0
(g1
g2
(lp1266
V.
p1267
atp1268
Rp1269
(dp1270
g12
V.
p1271
sbatp1272
Rp1273
(dp1274
g12
VS
p1275
sbatp1276
Rp1277
(dp1278
g12
S'id: 7'
p1279
sbag0
(g1
g2
(lp1280
g0
(g1
g2
(lp1281
g0
(g1
g2
(lp1282
g0
(g1
g2
(lp1283
VAnd
p1284
atp1285
Rp1286
(dp1287
g12
VCC
p1288
sbag0
(g1
g2
(lp1289
g0
(g1
g2
(lp1290
Vthere
p1291
atp1292
Rp1293
(dp1294
g12
VEX
p1295
sbatp1296
Rp1297
(dp1298
g12
VNP
p1299
sbag0
(g1
g2
(lp1300
g0
(g1
g2
(lp1301
V's
p1302
atp1303
Rp1304
(dp1305
g12
VVBZ
p1306
sbag0
(g1
g2
(lp1307
g0
(g1
g2
(lp1308
g0
(g1
g2
(lp1309
Va
p1310
atp1311
Rp1312
(dp1313
g12
VDT
p1314
sbag0
(g1
g2
(lp1315
Vyoung
p1316
atp1317
Rp1318
(dp1319
g12
VJJ
p1320
sbag0
(g1
g2
(lp1321
Vman
p1322
atp1323
Rp1324
(dp1325
g12
VNN
p1326
sbag0
(g1
g2
(lp1327
Vplaying
p1328
atp1329
Rp1330
(dp1331
g12
VNN
p1332
sbatp1333
Rp1334
(dp1335
g12
VNP
p1336
sbag0
(g1
g2
(lp1337
g0
(g1
g2
(lp1338
Vin
p1339
atp1340
Rp1341
(dp1342
g12
VIN
p1343
sbag0
(g1
g2
(lp1344
g0
(g1
g2
(lp1345
Vthe
p1346
atp1347
Rp1348
(dp1349
g12
VDT
p1350
sbatp1351
Rp1352
(dp1353
g12
VNP
p1354
sbatp1355
Rp1356
(dp1357
g12
VPP
p1358
sbatp1359
Rp1360
(dp1361
g12
VNP
p1362
sbag0
(g1
g2
(lp1363
V,
p1364
atp1365
Rp1366
(dp1367
g12
V,
p1368
sbag0
(g1
g2
(lp1369
g0
(g1
g2
(lp1370
g0
(g1
g2
(lp1371
Vflying
p1372
atp1373
Rp1374
(dp1375
g12
VVBG
p1376
sbag0
(g1
g2
(lp1377
g0
(g1
g2
(lp1378
Va
p1379
atp1380
Rp1381
(dp1382
g12
VDT
p1383
sbag0
(g1
g2
(lp1384
Vkite
p1385
atp1386
Rp1387
(dp1388
g12
VNN
p1389
sbatp1390
Rp1391
(dp1392
g12
VNP
p1393
sbatp1394
Rp1395
(dp1396
g12
VVP
p1397
sbatp1398
Rp1399
(dp1400
g12
VS
p1401
sbatp1402
Rp1403
(dp1404
g12
VVP
p1405
sbatp1406
Rp1407
(dp1408
g12
VS
p1409
sbag0
(g1
g2
(lp1410
V,
p1411
atp1412
Rp1413
(dp1414
g12
V,
p1415
sbag0
(g1
g2
(lp1416
g0
(g1
g2
(lp1417
Vhe
p1418
atp1419
Rp1420
(dp1421
g12
VPRP
p1422
sbatp1423
Rp1424
(dp1425
g12
VNP
p1426
sbag0
(g1
g2
(lp1427
g0
(g1
g2
(lp1428
Vhas
p1429
atp1430
Rp1431
(dp1432
g12
VVBZ
p1433
sbag0
(g1
g2
(lp1434
g0
(g1
g2
(lp1435
g0
(g1
g2
(lp1436
Vthe
p1437
atp1438
Rp1439
(dp1440
g12
VDT
p1441
sbag0
(g1
g2
(lp1442
Vdog
p1443
atp1444
Rp1445
(dp1446
g12
VNN
p1447
sbatp1448
Rp1449
(dp1450
g12
VNP
p1451
sbag0
(g1
g2
(lp1452
g0
(g1
g2
(lp1453
Vtrailing
p1454
atp1455
Rp1456
(dp1457
g12
VVBG
p1458
sbag0
(g1
g2
(lp1459
g0
(g1
g2
(lp1460
Vhim
p1461
atp1462
Rp1463
(dp1464
g12
VPRP
p1465
sbatp1466
Rp1467
(dp1468
g12
VNP
p1469
sbatp1470
Rp1471
(dp1472
g12
VVP
p1473
sbatp1474
Rp1475
(dp1476
g12
VNP
p1477
sbatp1478
Rp1479
(dp1480
g12
VVP
p1481
sbag0
(g1
g2
(lp1482
V.
p1483
atp1484
Rp1485
(dp1486
g12
V.
p1487
sbatp1488
Rp1489
(dp1490
g12
VS
p1491
sbatp1492
Rp1493
(dp1494
g12
S'id: 8'
p1495
sbag0
(g1
g2
(lp1496
g0
(g1
g2
(lp1497
g0
(g1
g2
(lp1498
VAnd
p1499
atp1500
Rp1501
(dp1502
g12
VCC
p1503
sbag0
(g1
g2
(lp1504
g0
(g1
g2
(lp1505
Vthere
p1506
atp1507
Rp1508
(dp1509
g12
VEX
p1510
sbatp1511
Rp1512
(dp1513
g12
VNP
p1514
sbag0
(g1
g2
(lp1515
g0
(g1
g2
(lp1516
V's
p1517
atp1518
Rp1519
(dp1520
g12
VVBZ
p1521
sbag0
(g1
g2
(lp1522
g0
(g1
g2
(lp1523
g0
(g1
g2
(lp1524
Va
p1525
atp1526
Rp1527
(dp1528
g12
VDT
p1529
sbag0
(g1
g2
(lp1530
Vgirl
p1531
atp1532
Rp1533
(dp1534
g12
VNN
p1535
sbatp1536
Rp1537
(dp1538
g12
VNP
p1539
sbag0
(g1
g2
(lp1540
g0
(g1
g2
(lp1541
Vto
p1542
atp1543
Rp1544
(dp1545
g12
VTO
p1546
sbag0
(g1
g2
(lp1547
g0
(g1
g2
(lp1548
Vhis
p1549
atp1550
Rp1551
(dp1552
g12
VPRP$
p1553
sbag0
(g1
g2
(lp1554
Vright
p1555
atp1556
Rp1557
(dp1558
g12
VNN
p1559
sbatp1560
Rp1561
(dp1562
g12
VNP
p1563
sbatp1564
Rp1565
(dp1566
g12
VPP
p1567
sbatp1568
Rp1569
(dp1570
g12
VNP
p1571
sbag0
(g1
g2
(lp1572
V,
p1573
atp1574
Rp1575
(dp1576
g12
V,
p1577
sbag0
(g1
g2
(lp1578
g0
(g1
g2
(lp1579
Vin
p1580
atp1581
Rp1582
(dp1583
g12
VIN
p1584
sbag0
(g1
g2
(lp1585
g0
(g1
g2
(lp1586
g0
(g1
g2
(lp1587
g0
(g1
g2
(lp1588
Vthe
p1589
atp1590
Rp1591
(dp1592
g12
VDT
p1593
sbag0
(g1
g2
(lp1594
Vsa
p1595
atp1596
Rp1597
(dp1598
g12
VNN
p1599
sbatp1600
Rp1601
(dp1602
g12
VNP
p1603
sbag0
(g1
g2
(lp1604
V,
p1605
atp1606
Rp1607
(dp1608
g12
V,
p1609
sbag0
(g1
g2
(lp1610
g0
(g1
g2
(lp1611
Vbuilding
p1612
atp1613
Rp1614
(dp1615
g12
VVBG
p1616
sbag0
(g1
g2
(lp1617
g0
(g1
g2
(lp1618
Va
p1619
atp1620
Rp1621
(dp1622
g12
VDT
p1623
sbag0
(g1
g2
(lp1624
Vsand
p1625
atp1626
Rp1627
(dp1628
g12
VNN
p1629
sbatp1630
Rp1631
(dp1632
g12
VNP
p1633
sbatp1634
Rp1635
(dp1636
g12
VVP
p1637
sbag0
(g1
g2
(lp1638
V,
p1639
atp1640
Rp1641
(dp1642
g12
V,
p1643
sbatp1644
Rp1645
(dp1646
g12
VNP
p1647
sbag0
(g1
g2
(lp1648
g0
(g1
g2
(lp1649
Vlook
p1650
atp1651
Rp1652
(dp1653
g12
VVB
p1654
sbag0
(g1
g2
(lp1655
g0
(g1
g2
(lp1656
Vlike
p1657
atp1658
Rp1659
(dp1660
g12
VIN
p1661
sbag0
(g1
g2
(lp1662
g0
(g1
g2
(lp1663
g0
(g1
g2
(lp1664
Vplaying
p1665
atp1666
Rp1667
(dp1668
g12
VVBG
p1669
sbag0
(g1
g2
(lp1670
g0
(g1
g2
(lp1671
Vin
p1672
atp1673
Rp1674
(dp1675
g12
VIN
p1676
sbag0
(g1
g2
(lp1677
g0
(g1
g2
(lp1678
g0
(g1
g2
(lp1679
Vthe
p1680
atp1681
Rp1682
(dp1683
g12
VDT
p1684
sbag0
(g1
g2
(lp1685
Vsand
p1686
atp1687
Rp1688
(dp1689
g12
VNN
p1690
sbatp1691
Rp1692
(dp1693
g12
VNP
p1694
sbag0
(g1
g2
(lp1695
g0
(g1
g2
(lp1696
Vwith
p1697
atp1698
Rp1699
(dp1700
g12
VIN
p1701
sbag0
(g1
g2
(lp1702
g0
(g1
g2
(lp1703
g0
(g1
g2
(lp1704
Va
p1705
atp1706
Rp1707
(dp1708
g12
VDT
p1709
sbatp1710
Rp1711
(dp1712
g12
VNP
p1713
sbag0
(g1
g2
(lp1714
V,
p1715
atp1716
Rp1717
(dp1718
g12
V,
p1719
sbag0
(g1
g2
(lp1720
g0
(g1
g2
(lp1721
Va
p1722
atp1723
Rp1724
(dp1725
g12
VDT
p1726
sbag0
(g1
g2
(lp1727
Vbucket
p1728
atp1729
Rp1730
(dp1731
g12
VNN
p1732
sbatp1733
Rp1734
(dp1735
g12
VNP
p1736
sbag0
(g1
g2
(lp1737
Vand
p1738
atp1739
Rp1740
(dp1741
g12
VCC
p1742
sbag0
(g1
g2
(lp1743
g0
(g1
g2
(lp1744
Va
p1745
atp1746
Rp1747
(dp1748
g12
VDT
p1749
sbag0
(g1
g2
(lp1750
Vshovel
p1751
atp1752
Rp1753
(dp1754
g12
VNN
p1755
sbatp1756
Rp1757
(dp1758
g12
VNP
p1759
sbatp1760
Rp1761
(dp1762
g12
VNP
p1763
sbatp1764
Rp1765
(dp1766
g12
VPP
p1767
sbatp1768
Rp1769
(dp1770
g12
VNP
p1771
sbatp1772
Rp1773
(dp1774
g12
VPP
p1775
sbatp1776
Rp1777
(dp1778
g12
VVP
p1779
sbatp1780
Rp1781
(dp1782
g12
VS
p1783
sbatp1784
Rp1785
(dp1786
g12
VPP
p1787
sbatp1788
Rp1789
(dp1790
g12
VVP
p1791
sbatp1792
Rp1793
(dp1794
g12
VS
p1795
sbatp1796
Rp1797
(dp1798
g12
VSBAR
p1799
sbatp1800
Rp1801
(dp1802
g12
VVP
p1803
sbag0
(g1
g2
(lp1804
V.
p1805
atp1806
Rp1807
(dp1808
g12
V.
p1809
sbatp1810
Rp1811
(dp1812
g12
VS
p1813
sbatp1814
Rp1815
(dp1816
g12
S'id: 9'
p1817
sbag0
(g1
g2
(lp1818
g0
(g1
g2
(lp1819
g0
(g1
g2
(lp1820
VAnd
p1821
atp1822
Rp1823
(dp1824
g12
VCC
p1825
sbag0
(g1
g2
(lp1826
g0
(g1
g2
(lp1827
Vthen
p1828
atp1829
Rp1830
(dp1831
g12
VRB
p1832
sbatp1833
Rp1834
(dp1835
g12
VADVP
p1836
sbag0
(g1
g2
(lp1837
g0
(g1
g2
(lp1838
Vare
p1839
atp1840
Rp1841
(dp1842
g12
VVBP
p1843
sbag0
(g1
g2
(lp1844
g0
(g1
g2
(lp1845
Vinst
p1846
atp1847
Rp1848
(dp1849
g12
VNN
p1850
sbatp1851
Rp1852
(dp1853
g12
VNP
p1854
sbatp1855
Rp1856
(dp1857
g12
VVP
p1858
sbag0
(g1
g2
(lp1859
V,
p1860
atp1861
Rp1862
(dp1863
g12
V,
p1864
sbag0
(g1
g2
(lp1865
g0
(g1
g2
(lp1866
g0
(g1
g2
(lp1867
Vin
p1868
atp1869
Rp1870
(dp1871
g12
VIN
p1872
sbag0
(g1
g2
(lp1873
g0
(g1
g2
(lp1874
Vthe
p1875
atp1876
Rp1877
(dp1878
g12
VDT
p1879
sbag0
(g1
g2
(lp1880
Vlake
p1881
atp1882
Rp1883
(dp1884
g12
VNN
p1885
sbatp1886
Rp1887
(dp1888
g12
VNP
p1889
sbatp1890
Rp1891
(dp1892
g12
VPP
p1893
sbag0
(g1
g2
(lp1894
V,
p1895
atp1896
Rp1897
(dp1898
g12
V,
p1899
sbag0
(g1
g2
(lp1900
g0
(g1
g2
(lp1901
Vthere
p1902
atp1903
Rp1904
(dp1905
g12
VEX
p1906
sbatp1907
Rp1908
(dp1909
g12
VNP
p1910
sbag0
(g1
g2
(lp1911
g0
(g1
g2
(lp1912
V's
p1913
atp1914
Rp1915
(dp1916
g12
VVBZ
p1917
sbag0
(g1
g2
(lp1918
g0
(g1
g2
(lp1919
g0
(g1
g2
(lp1920
Va
p1921
atp1922
Rp1923
(dp1924
g12
VDT
p1925
sbag0
(g1
g2
(lp1926
Vsailboat
p1927
atp1928
Rp1929
(dp1930
g12
VNN
p1931
sbatp1932
Rp1933
(dp1934
g12
VNP
p1935
sbag0
(g1
g2
(lp1936
g0
(g1
g2
(lp1937
Vwith
p1938
atp1939
Rp1940
(dp1941
g12
VIN
p1942
sbag0
(g1
g2
(lp1943
g0
(g1
g2
(lp1944
g0
(g1
g2
(lp1945
Vtwo
p1946
atp1947
Rp1948
(dp1949
g12
VCD
p1950
sbag0
(g1
g2
(lp1951
Vpeople
p1952
atp1953
Rp1954
(dp1955
g12
VNNS
p1956
sbatp1957
Rp1958
(dp1959
g12
VNP
p1960
sbag0
(g1
g2
(lp1961
g0
(g1
g2
(lp1962
Von
p1963
atp1964
Rp1965
(dp1966
g12
VIN
p1967
sbag0
(g1
g2
(lp1968
g0
(g1
g2
(lp1969
Vit
p1970
atp1971
Rp1972
(dp1973
g12
VPRP
p1974
sbatp1975
Rp1976
(dp1977
g12
VNP
p1978
sbatp1979
Rp1980
(dp1981
g12
VPP
p1982
sbatp1983
Rp1984
(dp1985
g12
VNP
p1986
sbatp1987
Rp1988
(dp1989
g12
VPP
p1990
sbatp1991
Rp1992
(dp1993
g12
VNP
p1994
sbatp1995
Rp1996
(dp1997
g12
VVP
p1998
sbatp1999
Rp2000
(dp2001
g12
VS
p2002
sbag0
(g1
g2
(lp2003
V.
p2004
atp2005
Rp2006
(dp2007
g12
V.
p2008
sbatp2009
Rp2010
(dp2011
g12
VS
p2012
sbatp2013
Rp2014
(dp2015
g12
S'id: 10'
p2016
sbag0
(g1
g2
(lp2017
g0
(g1
g2
(lp2018
g0
(g1
g2
(lp2019
VAnd
p2020
atp2021
Rp2022
(dp2023
g12
VCC
p2024
sbag0
(g1
g2
(lp2025
g0
(g1
g2
(lp2026
g0
(g1
g2
(lp2027
Vthe
p2028
atp2029
Rp2030
(dp2031
g12
VDT
p2032
sbatp2033
Rp2034
(dp2035
g12
VNP
p2036
sbag0
(g1
g2
(lp2037
V,
p2038
atp2039
Rp2040
(dp2041
g12
V,
p2042
sbag0
(g1
g2
(lp2043
g0
(g1
g2
(lp2044
g0
(g1
g2
(lp2045
Vthe
p2046
atp2047
Rp2048
(dp2049
g12
VDT
p2050
sbag0
(g1
g2
(lp2051
Vlittle
p2052
atp2053
Rp2054
(dp2055
g12
VJJ
p2056
sbag0
(g1
g2
(lp2057
Vgirl
p2058
atp2059
Rp2060
(dp2061
g12
VNN
p2062
sbatp2063
Rp2064
(dp2065
g12
VNP
p2066
sbag0
(g1
g2
(lp2067
V,
p2068
atp2069
Rp2070
(dp2071
g12
V,
p2072
sbag0
(g1
g2
(lp2073
g0
(g1
g2
(lp2074
Vshe
p2075
atp2076
Rp2077
(dp2078
g12
VPRP
p2079
sbatp2080
Rp2081
(dp2082
g12
VNP
p2083
sbatp2084
Rp2085
(dp2086
g12
VNP
p2087
sbatp2088
Rp2089
(dp2090
g12
VNP
p2091
sbag0
(g1
g2
(lp2092
g0
(g1
g2
(lp2093
Vseem
p2094
atp2095
Rp2096
(dp2097
g12
VVBP
p2098
sbag0
(g1
g2
(lp2099
g0
(g1
g2
(lp2100
g0
(g1
g2
(lp2101
Vto
p2102
atp2103
Rp2104
(dp2105
g12
VTO
p2106
sbag0
(g1
g2
(lp2107
g0
(g1
g2
(lp2108
Vbe
p2109
atp2110
Rp2111
(dp2112
g12
VVB
p2113
sbag0
(g1
g2
(lp2114
g0
(g1
g2
(lp2115
Vbuilding
p2116
atp2117
Rp2118
(dp2119
g12
VVBG
p2120
sbag0
(g1
g2
(lp2121
g0
(g1
g2
(lp2122
Va
p2123
atp2124
Rp2125
(dp2126
g12
VDT
p2127
sbag0
(g1
g2
(lp2128
Vsandcastle
p2129
atp2130
Rp2131
(dp2132
g12
VNN
p2133
sbatp2134
Rp2135
(dp2136
g12
VNP
p2137
sbatp2138
Rp2139
(dp2140
g12
VVP
p2141
sbatp2142
Rp2143
(dp2144
g12
VVP
p2145
sbatp2146
Rp2147
(dp2148
g12
VVP
p2149
sbatp2150
Rp2151
(dp2152
g12
VS
p2153
sbatp2154
Rp2155
(dp2156
g12
VVP
p2157
sbag0
(g1
g2
(lp2158
V.
p2159
atp2160
Rp2161
(dp2162
g12
V.
p2163
sbatp2164
Rp2165
(dp2166
g12
VS
p2167
sbatp2168
Rp2169
(dp2170
g12
S'id: 11'
p2171
sbag0
(g1
g2
(lp2172
g0
(g1
g2
(lp2173
g0
(g1
g2
(lp2174
VAnd
p2175
atp2176
Rp2177
(dp2178
g12
VCC
p2179
sbag0
(g1
g2
(lp2180
g0
(g1
g2
(lp2181
g0
(g1
g2
(lp2182
Vthe
p2183
atp2184
Rp2185
(dp2186
g12
VDT
p2187
sbag0
(g1
g2
(lp2188
Vman
p2189
atp2190
Rp2191
(dp2192
g12
VNN
p2193
sbatp2194
Rp2195
(dp2196
g12
VNP
p2197
sbag0
(g1
g2
(lp2198
g0
(g1
g2
(lp2199
g0
(g1
g2
(lp2200
Vthat
p2201
atp2202
Rp2203
(dp2204
g12
VWDT
p2205
sbatp2206
Rp2207
(dp2208
g12
VWHNP
p2209
sbag0
(g1
g2
(lp2210
g0
(g1
g2
(lp2211
g0
(g1
g2
(lp2212
V's
p2213
atp2214
Rp2215
(dp2216
g12
VVBZ
p2217
sbag0
(g1
g2
(lp2218
g0
(g1
g2
(lp2219
Vout
p2220
atp2221
Rp2222
(dp2223
g12
VRP
p2224
sbatp2225
Rp2226
(dp2227
g12
VADVP
p2228
sbag0
(g1
g2
(lp2229
g0
(g1
g2
(lp2230
Vin
p2231
atp2232
Rp2233
(dp2234
g12
VIN
p2235
sbag0
(g1
g2
(lp2236
g0
(g1
g2
(lp2237
Vthe
p2238
atp2239
Rp2240
(dp2241
g12
VDT
p2242
sbag0
(g1
g2
(lp2243
Vlake
p2244
atp2245
Rp2246
(dp2247
g12
VNN
p2248
sbag0
(g1
g2
(lp2249
Vfishing
p2250
atp2251
Rp2252
(dp2253
g12
VNN
p2254
sbatp2255
Rp2256
(dp2257
g12
VNP
p2258
sbatp2259
Rp2260
(dp2261
g12
VPP
p2262
sbatp2263
Rp2264
(dp2265
g12
VVP
p2266
sbatp2267
Rp2268
(dp2269
g12
VS
p2270
sbatp2271
Rp2272
(dp2273
g12
VSBAR
p2274
sbatp2275
Rp2276
(dp2277
g12
VNP
p2278
sbag0
(g1
g2
(lp2279
V,
p2280
atp2281
Rp2282
(dp2283
g12
V,
p2284
sbag0
(g1
g2
(lp2285
g0
(g1
g2
(lp2286
Vseem
p2287
atp2288
Rp2289
(dp2290
g12
VVBP
p2291
sbag0
(g1
g2
(lp2292
g0
(g1
g2
(lp2293
Vlike
p2294
atp2295
Rp2296
(dp2297
g12
VIN
p2298
sbag0
(g1
g2
(lp2299
g0
(g1
g2
(lp2300
g0
(g1
g2
(lp2301
Vhe
p2302
atp2303
Rp2304
(dp2305
g12
VPRP
p2306
sbatp2307
Rp2308
(dp2309
g12
VNP
p2310
sbag0
(g1
g2
(lp2311
g0
(g1
g2
(lp2312
V's
p2313
atp2314
Rp2315
(dp2316
g12
VVBZ
p2317
sbag0
(g1
g2
(lp2318
g0
(g1
g2
(lp2319
Vhappy
p2320
atp2321
Rp2322
(dp2323
g12
VJJ
p2324
sbatp2325
Rp2326
(dp2327
g12
VADJP
p2328
sbag0
(g1
g2
(lp2329
g0
(g1
g2
(lp2330
Vthat
p2331
atp2332
Rp2333
(dp2334
g12
VIN
p2335
sbag0
(g1
g2
(lp2336
g0
(g1
g2
(lp2337
g0
(g1
g2
(lp2338
Vhe
p2339
atp2340
Rp2341
(dp2342
g12
VPRP
p2343
sbatp2344
Rp2345
(dp2346
g12
VNP
p2347
sbag0
(g1
g2
(lp2348
g0
(g1
g2
(lp2349
V's
p2350
atp2351
Rp2352
(dp2353
g12
VVBZ
p2354
sbag0
(g1
g2
(lp2355
g0
(g1
g2
(lp2356
Vcatching
p2357
atp2358
Rp2359
(dp2360
g12
VVBG
p2361
sbag0
(g1
g2
(lp2362
g0
(g1
g2
(lp2363
Vfish
p2364
atp2365
Rp2366
(dp2367
g12
VNN
p2368
sbatp2369
Rp2370
(dp2371
g12
VNP
p2372
sbatp2373
Rp2374
(dp2375
g12
VVP
p2376
sbatp2377
Rp2378
(dp2379
g12
VVP
p2380
sbatp2381
Rp2382
(dp2383
g12
VS
p2384
sbatp2385
Rp2386
(dp2387
g12
VSBAR
p2388
sbatp2389
Rp2390
(dp2391
g12
VVP
p2392
sbatp2393
Rp2394
(dp2395
g12
VS
p2396
sbatp2397
Rp2398
(dp2399
g12
VSBAR
p2400
sbatp2401
Rp2402
(dp2403
g12
VVP
p2404
sbag0
(g1
g2
(lp2405
V.
p2406
atp2407
Rp2408
(dp2409
g12
V.
p2410
sbatp2411
Rp2412
(dp2413
g12
VS
p2414
sbatp2415
Rp2416
(dp2417
g12
S'id: 12'
p2418
sbag0
(g1
g2
(lp2419
g0
(g1
g2
(lp2420
g0
(g1
g2
(lp2421
VAnd
p2422
atp2423
Rp2424
(dp2425
g12
VCC
p2426
sbag0
(g1
g2
(lp2427
g0
(g1
g2
(lp2428
Vthe
p2429
atp2430
Rp2431
(dp2432
g12
VDT
p2433
sbag0
(g1
g2
(lp2434
Vdog
p2435
atp2436
Rp2437
(dp2438
g12
VNN
p2439
sbatp2440
Rp2441
(dp2442
g12
VNP
p2443
sbag0
(g1
g2
(lp2444
g0
(g1
g2
(lp2445
Vseem
p2446
atp2447
Rp2448
(dp2449
g12
VVBP
p2450
sbag0
(g1
g2
(lp2451
g0
(g1
g2
(lp2452
Vlike
p2453
atp2454
Rp2455
(dp2456
g12
VIN
p2457
sbag0
(g1
g2
(lp2458
g0
(g1
g2
(lp2459
g0
(g1
g2
(lp2460
Vhe
p2461
atp2462
Rp2463
(dp2464
g12
VPRP
p2465
sbatp2466
Rp2467
(dp2468
g12
VNP
p2469
sbag0
(g1
g2
(lp2470
g0
(g1
g2
(lp2471
V's
p2472
atp2473
Rp2474
(dp2475
g12
VVBZ
p2476
sbag0
(g1
g2
(lp2477
g0
(g1
g2
(lp2478
Vhappy
p2479
atp2480
Rp2481
(dp2482
g12
VJJ
p2483
sbatp2484
Rp2485
(dp2486
g12
VADJP
p2487
sbag0
(g1
g2
(lp2488
g0
(g1
g2
(lp2489
g0
(g1
g2
(lp2490
Vrunning
p2491
atp2492
Rp2493
(dp2494
g12
VVBG
p2495
sbag0
(g1
g2
(lp2496
g0
(g1
g2
(lp2497
Vbehind
p2498
atp2499
Rp2500
(dp2501
g12
VIN
p2502
sbag0
(g1
g2
(lp2503
g0
(g1
g2
(lp2504
Vthe
p2505
atp2506
Rp2507
(dp2508
g12
VDT
p2509
sbag0
(g1
g2
(lp2510
Vlittle
p2511
atp2512
Rp2513
(dp2514
g12
VJJ
p2515
sbag0
(g1
g2
(lp2516
Vboy
p2517
atp2518
Rp2519
(dp2520
g12
VNN
p2521
sbatp2522
Rp2523
(dp2524
g12
VNP
p2525
sbatp2526
Rp2527
(dp2528
g12
VPP
p2529
sbatp2530
Rp2531
(dp2532
g12
VVP
p2533
sbatp2534
Rp2535
(dp2536
g12
VS
p2537
sbatp2538
Rp2539
(dp2540
g12
VVP
p2541
sbatp2542
Rp2543
(dp2544
g12
VS
p2545
sbatp2546
Rp2547
(dp2548
g12
VSBAR
p2549
sbatp2550
Rp2551
(dp2552
g12
VVP
p2553
sbag0
(g1
g2
(lp2554
V.
p2555
atp2556
Rp2557
(dp2558
g12
V.
p2559
sbatp2560
Rp2561
(dp2562
g12
VS
p2563
sbatp2564
Rp2565
(dp2566
g12
S'id: 13'
p2567
sbag0
(g1
g2
(lp2568
g0
(g1
g2
(lp2569
g0
(g1
g2
(lp2570
VAnd
p2571
atp2572
Rp2573
(dp2574
g12
VCC
p2575
sbag0
(g1
g2
(lp2576
g0
(g1
g2
(lp2577
g0
(g1
g2
(lp2578
Vthe
p2579
atp2580
Rp2581
(dp2582
g12
VDT
p2583
sbag0
(g1
g2
(lp2584
Vpeople
p2585
atp2586
Rp2587
(dp2588
g12
VNNS
p2589
sbatp2590
Rp2591
(dp2592
g12
VNP
p2593
sbag0
(g1
g2
(lp2594
g0
(g1
g2
(lp2595
Vin
p2596
atp2597
Rp2598
(dp2599
g12
VIN
p2600
sbag0
(g1
g2
(lp2601
g0
(g1
g2
(lp2602
g0
(g1
g2
(lp2603
Vthe
p2604
atp2605
Rp2606
(dp2607
g12
VDT
p2608
sbag0
(g1
g2
(lp2609
Vpicture
p2610
atp2611
Rp2612
(dp2613
g12
VNN
p2614
sbatp2615
Rp2616
(dp2617
g12
VNP
p2618
sbag0
(g1
g2
(lp2619
V,
p2620
atp2621
Rp2622
(dp2623
g12
V,
p2624
sbag0
(g1
g2
(lp2625
g0
(g1
g2
(lp2626
g0
(g1
g2
(lp2627
Vthe
p2628
atp2629
Rp2630
(dp2631
g12
VDT
p2632
sbag0
(g1
g2
(lp2633
Vlady
p2634
atp2635
Rp2636
(dp2637
g12
VNN
p2638
sbatp2639
Rp2640
(dp2641
g12
VNP
p2642
sbag0
(g1
g2
(lp2643
V,
p2644
atp2645
Rp2646
(dp2647
g12
V,
p2648
sbag0
(g1
g2
(lp2649
g0
(g1
g2
(lp2650
g0
(g1
g2
(lp2651
Vthe
p2652
atp2653
Rp2654
(dp2655
g12
VDT
p2656
sbag0
(g1
g2
(lp2657
Vman
p2658
atp2659
Rp2660
(dp2661
g12
VNN
p2662
sbag0
(g1
g2
(lp2663
V's
p2664
atp2665
Rp2666
(dp2667
g12
VPOS
p2668
sbatp2669
Rp2670
(dp2671
g12
VNP
p2672
sbag0
(g1
g2
(lp2673
Vshoes
p2674
atp2675
Rp2676
(dp2677
g12
VNNS
p2678
sbatp2679
Rp2680
(dp2681
g12
VNP
p2682
sbatp2683
Rp2684
(dp2685
g12
VNP
p2686
sbatp2687
Rp2688
(dp2689
g12
VNP
p2690
sbatp2691
Rp2692
(dp2693
g12
VPP
p2694
sbatp2695
Rp2696
(dp2697
g12
VNP
p2698
sbag0
(g1
g2
(lp2699
g0
(g1
g2
(lp2700
Vis
p2701
atp2702
Rp2703
(dp2704
g12
VVBZ
p2705
sbag0
(g1
g2
(lp2706
g0
(g1
g2
(lp2707
Vto
p2708
atp2709
Rp2710
(dp2711
g12
VTO
p2712
sbag0
(g1
g2
(lp2713
g0
(g1
g2
(lp2714
Vhis
p2715
atp2716
Rp2717
(dp2718
g12
VPRP$
p2719
sbag0
(g1
g2
(lp2720
Vright
p2721
atp2722
Rp2723
(dp2724
g12
VNN
p2725
sbatp2726
Rp2727
(dp2728
g12
VNP
p2729
sbatp2730
Rp2731
(dp2732
g12
VPP
p2733
sbatp2734
Rp2735
(dp2736
g12
VVP
p2737
sbag0
(g1
g2
(lp2738
V.
p2739
atp2740
Rp2741
(dp2742
g12
V.
p2743
sbatp2744
Rp2745
(dp2746
g12
VS
p2747
sbatp2748
Rp2749
(dp2750
g12
S'id: 14'
p2751
sbag0
(g1
g2
(lp2752
g0
(g1
g2
(lp2753
g0
(g1
g2
(lp2754
VAnd
p2755
atp2756
Rp2757
(dp2758
g12
VCC
p2759
sbag0
(g1
g2
(lp2760
g0
(g1
g2
(lp2761
Va
p2762
atp2763
Rp2764
(dp2765
g12
VDT
p2766
sbatp2767
Rp2768
(dp2769
g12
VNP
p2770
sbag0
(g1
g2
(lp2771
V,
p2772
atp2773
Rp2774
(dp2775
g12
V,
p2776
sbag0
(g1
g2
(lp2777
g0
(g1
g2
(lp2778
g0
(g1
g2
(lp2779
g0
(g1
g2
(lp2780
Vthat
p2781
atp2782
Rp2783
(dp2784
g12
VDT
p2785
sbatp2786
Rp2787
(dp2788
g12
VNP
p2789
sbag0
(g1
g2
(lp2790
g0
(g1
g2
(lp2791
V's
p2792
atp2793
Rp2794
(dp2795
g12
VVBZ
p2796
sbag0
(g1
g2
(lp2797
g0
(g1
g2
(lp2798
Vabout
p2799
atp2800
Rp2801
(dp2802
g12
VIN
p2803
sbag0
(g1
g2
(lp2804
g0
(g1
g2
(lp2805
Veverything
p2806
atp2807
Rp2808
(dp2809
g12
VNN
p2810
sbatp2811
Rp2812
(dp2813
g12
VNP
p2814
sbatp2815
Rp2816
(dp2817
g12
VPP
p2818
sbatp2819
Rp2820
(dp2821
g12
VVP
p2822
sbatp2823
Rp2824
(dp2825
g12
VS
p2826
sbatp2827
Rp2828
(dp2829
g12
VPRN
p2830
sbag0
(g1
g2
(lp2831
g0
(g1
g2
(lp2832
VI
p2833
atp2834
Rp2835
(dp2836
g12
VPRP
p2837
sbatp2838
Rp2839
(dp2840
g12
VNP
p2841
sbag0
(g1
g2
(lp2842
g0
(g1
g2
(lp2843
Vcan
p2844
atp2845
Rp2846
(dp2847
g12
VMD
p2848
sbag0
(g1
g2
(lp2849
g0
(g1
g2
(lp2850
Vsee
p2851
atp2852
Rp2853
(dp2854
g12
VVB
p2855
sbag0
(g1
g2
(lp2856
g0
(g1
g2
(lp2857
Vin
p2858
atp2859
Rp2860
(dp2861
g12
VIN
p2862
sbag0
(g1
g2
(lp2863
g0
(g1
g2
(lp2864
Vthere
p2865
atp2866
Rp2867
(dp2868
g12
VRB
p2869
sbatp2870
Rp2871
(dp2872
g12
VNP
p2873
sbatp2874
Rp2875
(dp2876
g12
VPP
p2877
sbatp2878
Rp2879
(dp2880
g12
VVP
p2881
sbatp2882
Rp2883
(dp2884
g12
VVP
p2885
sbag0
(g1
g2
(lp2886
V.
p2887
atp2888
Rp2889
(dp2890
g12
V.
p2891
sbatp2892
Rp2893
(dp2894
g12
VS
p2895
sbatp2896
Rp2897
(dp2898
g12
S'id: 15'
p2899
sbag0
(g1
g2
(lp2900
g0
(g1
g2
(lp2901
g0
(g1
g2
(lp2902
g0
(g1
g2
(lp2903
VTwo
p2904
atp2905
Rp2906
(dp2907
g12
VCD
p2908
sbag0
(g1
g2
(lp2909
Vminutes
p2910
atp2911
Rp2912
(dp2913
g12
VNNS
p2914
sbatp2915
Rp2916
(dp2917
g12
VNP
p2918
sbag0
(g1
g2
(lp2919
g0
(g1
g2
(lp2920
Va
p2921
atp2922
Rp2923
(dp2924
g12
VDT
p2925
sbag0
(g1
g2
(lp2926
Vlong
p2927
atp2928
Rp2929
(dp2930
g12
VJJ
p2931
sbag0
(g1
g2
(lp2932
Vtime
p2933
atp2934
Rp2935
(dp2936
g12
VNN
p2937
sbatp2938
Rp2939
(dp2940
g12
VNP
p2941
sbatp2942
Rp2943
(dp2944
g12
VNP
p2945
sbatp2946
Rp2947
(dp2948
g12
S'id: 16'
p2949
sbatp2950
Rp2951
(dp2952
g12
S'sentences'
p2953
sb.