ccopy_reg
_reconstructor
p0
(cnltk.tree
Tree
p1
c__builtin__
list
p2
(lp3
g0
(g1
g2
(lp4
g0
(g1
g2
(lp5
g0
(g1
g2
(lp6
(lp7
S'word: I, index: 1'
p8
aatp9
Rp10
(dp11
S'_label'
p12
Vnsubj
p13
sbag0
(g1
g2
(lp14
g0
(g1
g2
(lp15
g0
(g1
g2
(lp16
g0
(g1
g2
(lp17
g0
(g1
g2
(lp18
(lp19
S'word: a, index: 3'
p20
aatp21
Rp22
(dp23
g12
Vdet
p24
sbag0
(g1
g2
(lp25
(lp26
S"word: 's, index: 5"
p27
aatp28
Rp29
(dp30
g12
Vpossessive
p31
sbatp32
Rp33
(dp34
g12
S'word: kid, index: 4'
p35
sbatp36
Rp37
(dp38
g12
Vnsubj
p39
sbag0
(g1
g2
(lp40
g0
(g1
g2
(lp41
g0
(g1
g2
(lp42
(lp43
S'word: na, index: 7'
p44
aatp45
Rp46
(dp47
g12
Vaux
p48
sbatp49
Rp50
(dp51
g12
S'word: fall, index: 8'
p52
sbatp53
Rp54
(dp55
g12
Vxcomp
p56
sbatp57
Rp58
(dp59
g12
S'word: gon, index: 6'
p60
sbatp61
Rp62
(dp63
g12
Vdep
p64
sbatp65
Rp66
(dp67
g12
S'word: see, index: 2'
p68
sbatp69
Rp70
(dp71
g12
S'id: 0'
p72
sbag0
(g1
g2
(lp73
g0
(g1
g2
(lp74
g0
(g1
g2
(lp75
g0
(g1
g2
(lp76
g0
(g1
g2
(lp77
(lp78
S'word: the, index: 4'
p79
aatp80
Rp81
(dp82
g12
Vdet
p83
sbag0
(g1
g2
(lp84
g0
(g1
g2
(lp85
g0
(g1
g2
(lp86
(lp87
S'word: the, index: 7'
p88
aatp89
Rp90
(dp91
g12
Vdet
p92
sbatp93
Rp94
(dp95
g12
S'word: cookie, index: 8'
p96
sbatp97
Rp98
(dp99
g12
Vappos
p100
sbatp101
Rp102
(dp103
g12
S'word: cook, index: 5'
p104
sbatp105
Rp106
(dp107
g12
Vdobj
p108
sbag0
(g1
g2
(lp109
g0
(g1
g2
(lp110
g0
(g1
g2
(lp111
(lp112
S'word: it, index: 11'
p113
aatp114
Rp115
(dp116
g12
Vdobj
p117
sbag0
(g1
g2
(lp118
g0
(g1
g2
(lp119
g0
(g1
g2
(lp120
(lp121
S'word: the, index: 13'
p122
aatp123
Rp124
(dp125
g12
Vdet
p126
sbatp127
Rp128
(dp129
g12
S'word: girl, index: 14'
p130
sbatp131
Rp132
(dp133
g12
Vprep
p134
sbag0
(g1
g2
(lp135
(lp136
S'word: hes, index: 2'
p137
aatp138
Rp139
(dp140
g12
Vnsubj
p141
sbatp142
Rp143
(dp144
g12
S'word: give, index: 10'
p145
sbatp146
Rp147
(dp148
g12
Vconj
p149
sbag0
(g1
g2
(lp150
(lp151
S'word: hes, index: 2'
p152
aatp153
Rp154
(dp155
g12
Vnsubj
p156
sbatp157
Rp158
(dp159
g12
S'word: found, index: 3'
p160
sbatp161
Rp162
(dp163
g12
S'id: 1'
p164
sbag0
(g1
g2
(lp165
g0
(g1
g2
(lp166
g0
(g1
g2
(lp167
(lp168
S'word: and, index: 1'
p169
aatp170
Rp171
(dp172
g12
Vcc
p173
sbag0
(g1
g2
(lp174
(lp175
S'word: the, index: 2'
p176
aatp177
Rp178
(dp179
g12
Vdet
p180
sbag0
(g1
g2
(lp181
g0
(g1
g2
(lp182
g0
(g1
g2
(lp183
g0
(g1
g2
(lp184
g0
(g1
g2
(lp185
g0
(g1
g2
(lp186
g0
(g1
g2
(lp187
(lp188
S'word: the, index: 8'
p189
aatp190
Rp191
(dp192
g12
Vdet
p193
sbatp194
Rp195
(dp196
g12
S'word: sink, index: 9'
p197
sbatp198
Rp199
(dp200
g12
Vdobj
p201
sbatp202
Rp203
(dp204
g12
S'word: flowding, index: 7'
p205
sbatp206
Rp207
(dp208
g12
Vprepc
p209
sbatp210
Rp211
(dp212
g12
S'word: over, index: 4'
p213
sbatp214
Rp215
(dp216
g12
Vccomp
p217
sbatp218
Rp219
(dp220
g12
S'word: mother, index: 3'
p221
sbatp222
Rp223
(dp224
g12
S'id: 2'
p225
sbag0
(g1
g2
(lp226
g0
(g1
g2
(lp227
g0
(g1
g2
(lp228
g0
(g1
g2
(lp229
g0
(g1
g2
(lp230
(lp231
S'word: she, index: 9'
p232
aatp233
Rp234
(dp235
g12
Vnsubj
p236
sbag0
(g1
g2
(lp237
(lp238
S'word: might, index: 10'
p239
aatp240
Rp241
(dp242
g12
Vaux
p243
sbatp244
Rp245
(dp246
g12
S'word: fall, index: 11'
p247
sbatp248
Rp249
(dp250
g12
Vconj
p251
sbag0
(g1
g2
(lp252
(lp253
S'word: shes, index: 2'
p254
aatp255
Rp256
(dp257
g12
Vnsubj
p258
sbag0
(g1
g2
(lp259
g0
(g1
g2
(lp260
g0
(g1
g2
(lp261
(lp262
S'word: dishes, index: 6'
p263
aatp264
Rp265
(dp266
g12
Vappos
p267
sbatp268
Rp269
(dp270
g12
S'word: clo, index: 4'
p271
sbatp272
Rp273
(dp274
g12
Vdobj
p275
sbatp276
Rp277
(dp278
g12
S'word: drying, index: 3'
p279
sbatp280
Rp281
(dp282
g12
S'id: 3'
p283
sbag0
(g1
g2
(lp284
g0
(g1
g2
(lp285
g0
(g1
g2
(lp286
g0
(g1
g2
(lp287
g0
(g1
g2
(lp288
g0
(g1
g2
(lp289
g0
(g1
g2
(lp290
(lp291
S'word: the, index: 3'
p292
aatp293
Rp294
(dp295
g12
Vdet
p296
sbatp297
Rp298
(dp299
g12
S'word: grass, index: 4'
p300
sbatp301
Rp302
(dp303
g12
Vprep
p304
sbatp305
Rp306
(dp307
g12
S'word: looks, index: 1'
p308
sbatp309
Rp310
(dp311
g12
Vnsubj
p312
sbag0
(g1
g2
(lp313
(lp314
S'word: is, index: 5'
p315
aatp316
Rp317
(dp318
g12
Vcop
p319
sbag0
(g1
g2
(lp320
g0
(g1
g2
(lp321
g0
(g1
g2
(lp322
(lp323
S'word: good, index: 9'
p324
aatp325
Rp326
(dp327
g12
Vacomp
p328
sbatp329
Rp330
(dp331
g12
S'word: maintained, index: 8'
p332
sbatp333
Rp334
(dp335
g12
Vrcmod
p336
sbatp337
Rp338
(dp339
g12
S'word: mel, index: 6'
p340
sbatp341
Rp342
(dp343
g12
S'id: 4'
p344
sbag0
(g1
g2
(lp345
g0
(g1
g2
(lp346
g0
(g1
g2
(lp347
(lp348
S'word: the, index: 1'
p349
aatp350
Rp351
(dp352
g12
Vdet
p353
sbag0
(g1
g2
(lp354
(lp355
S'word: mother, index: 17'
p356
aatp357
Rp358
(dp359
g12
Vappos
p360
sbag0
(g1
g2
(lp361
g0
(g1
g2
(lp362
g0
(g1
g2
(lp363
(lp364
S'word: the, index: 4'
p365
aatp366
Rp367
(dp368
g12
Vdet
p369
sbatp370
Rp371
(dp372
g12
S'word: fa, index: 5'
p373
sbatp374
Rp375
(dp376
g12
Vconj
p377
sbag0
(g1
g2
(lp378
g0
(g1
g2
(lp379
g0
(g1
g2
(lp380
(lp381
S'word: the, index: 20'
p382
aatp383
Rp384
(dp385
g12
Vdet
p386
sbatp387
Rp388
(dp389
g12
S'word: kids, index: 21'
p390
sbatp391
Rp392
(dp393
g12
Vappos
p394
sbag0
(g1
g2
(lp395
g0
(g1
g2
(lp396
g0
(g1
g2
(lp397
(lp398
S'word: mother, index: 17'
p399
aatp400
Rp401
(dp402
g12
Vconj
p403
sbag0
(g1
g2
(lp404
g388
atp405
Rp406
(dp407
g12
Vconj
p408
sbag0
(g1
g2
(lp409
(lp410
S'word: no, index: 7'
p411
aatp412
Rp413
(dp414
g12
Vneg
p415
sbag0
(g1
g2
(lp416
(lp417
S'word: the, index: 8'
p418
aatp419
Rp420
(dp421
g12
Vdet
p422
sbag0
(g1
g2
(lp423
(lp424
S"word: 's, index: 10"
p425
aatp426
Rp427
(dp428
g12
Vpossessive
p429
sbag0
(g1
g2
(lp430
(lp431
S'word: not, index: 11'
p432
aatp433
Rp434
(dp435
g12
Vneg
p436
sbag0
(g1
g2
(lp437
(lp438
S'word: even, index: 12'
p439
aatp440
Rp441
(dp442
g12
Vadvmod
p443
sbag0
(g1
g2
(lp444
(lp445
S'word: them, index: 14'
p446
aatp447
Rp448
(dp449
g12
Vprep
p450
sbatp451
Rp452
(dp453
g12
S'word: father, index: 9'
p454
sbatp455
Rp456
(dp457
g12
Vappos
p458
sbatp459
Rp460
(dp461
g12
S'word: mother, index: 2'
p462
sbatp463
Rp464
(dp465
g12
S'id: 5'
p466
sbag0
(g1
g2
(lp467
g0
(g1
g2
(lp468
g0
(g1
g2
(lp469
(lp470
S'word: what, index: 3'
p471
aatp472
Rp473
(dp474
g12
Vnsubj
p475
sbag0
(g1
g2
(lp476
(lp477
S'word: is, index: 4'
p478
aatp479
Rp480
(dp481
g12
Vcop
p482
sbag0
(g1
g2
(lp483
(lp484
S'word: oh, index: 1'
p485
aatp486
Rp487
(dp488
g12
Vdep
p489
sbatp490
Rp491
(dp492
g12
S'word: that, index: 5'
p493
sbatp494
Rp495
(dp496
g12
S'id: 6'
p497
sbatp498
Rp499
(dp500
g12
S'sentences'
p501
sb.