ccopy_reg
_reconstructor
p0
(cnltk.tree
Tree
p1
c__builtin__
list
p2
(lp3
g0
(g1
g2
(lp4
g0
(g1
g2
(lp5
g0
(g1
g2
(lp6
(lp7
S'word: Oh, index: 1'
p8
aatp9
Rp10
(dp11
S'_label'
p12
Vdiscourse
p13
sbag0
(g1
g2
(lp14
(lp15
S'word: boy, index: 2'
p16
aatp17
Rp18
(dp19
g12
Vdiscourse
p20
sbag0
(g1
g2
(lp21
(lp22
S'word: this, index: 4'
p23
aatp24
Rp25
(dp26
g12
Vnsubj
p27
sbag0
(g1
g2
(lp28
(lp29
S'word: is, index: 5'
p30
aatp31
Rp32
(dp33
g12
Vcop
p34
sbag0
(g1
g2
(lp35
(lp36
S'word: a, index: 6'
p37
aatp38
Rp39
(dp40
g12
Vdet
p41
sbag0
(g1
g2
(lp42
(lp43
S'word: busy, index: 7'
p44
aatp45
Rp46
(dp47
g12
Vamod
p48
sbatp49
Rp50
(dp51
g12
S'word: one, index: 8'
p52
sbatp53
Rp54
(dp55
g12
S'id: 0'
p56
sbag0
(g1
g2
(lp57
g0
(g1
g2
(lp58
g0
(g1
g2
(lp59
g0
(g1
g2
(lp60
g0
(g1
g2
(lp61
(lp62
S'word: This, index: 1'
p63
aatp64
Rp65
(dp66
g12
Vnsubj
p67
sbag0
(g1
g2
(lp68
(lp69
S'word: is, index: 2'
p70
aatp71
Rp72
(dp73
g12
Vcop
p74
sbatp75
Rp76
(dp77
g12
S'word: a, index: 3'
p78
sbatp79
Rp80
(dp81
g12
Vccomp
p82
sbag0
(g1
g2
(lp83
g0
(g1
g2
(lp84
g0
(g1
g2
(lp85
(lp86
S'word: a, index: 7'
p87
aatp88
Rp89
(dp90
g12
Vdet
p91
sbag0
(g1
g2
(lp92
g0
(g1
g2
(lp93
g0
(g1
g2
(lp94
(lp95
S'word: a, index: 10'
p96
aatp97
Rp98
(dp99
g12
Vdet
p100
sbatp101
Rp102
(dp103
g12
S'word: carnival, index: 11'
p104
sbatp105
Rp106
(dp107
g12
Vconj
p108
sbatp109
Rp110
(dp111
g12
S'word: circus, index: 8'
p112
sbatp113
Rp114
(dp115
g12
Vprep
p116
sbag0
(g1
g2
(lp117
g102
atp118
Rp119
(dp120
g12
Vprep
p121
sbag0
(g1
g2
(lp122
(lp123
S'word: probably, index: 13'
p124
aatp125
Rp126
(dp127
g12
Vadvmod
p128
sbag0
(g1
g2
(lp129
g0
(g1
g2
(lp130
g0
(g1
g2
(lp131
(lp132
S'word: a, index: 14'
p133
aatp134
Rp135
(dp136
g12
Vdet
p137
sbatp138
Rp139
(dp140
g12
S'word: circus, index: 15'
p141
sbatp142
Rp143
(dp144
g12
Vnsubj
p145
sbatp146
Rp147
(dp148
g12
S'word: looks, index: 5'
p149
sbatp150
Rp151
(dp152
g12
S'id: 1'
p153
sbag0
(g1
g2
(lp154
g0
(g1
g2
(lp155
g0
(g1
g2
(lp156
g0
(g1
g2
(lp157
g0
(g1
g2
(lp158
(lp159
S'word: he, index: 11'
p160
aatp161
Rp162
(dp163
g12
Vnsubj
p164
sbatp165
Rp166
(dp167
g12
S"word: 's, index: 12"
p168
sbatp169
Rp170
(dp171
g12
Vdep
p172
sbag0
(g1
g2
(lp173
g0
(g1
g2
(lp174
g0
(g1
g2
(lp175
(lp176
S'word: his, index: 14'
p177
aatp178
Rp179
(dp180
g12
Vposs
p181
sbag0
(g1
g2
(lp182
g0
(g1
g2
(lp183
g0
(g1
g2
(lp184
(lp185
S'word: his, index: 17'
p186
aatp187
Rp188
(dp189
g12
Vposs
p190
sbag0
(g1
g2
(lp191
(lp192
S'word: long, index: 18'
p193
aatp194
Rp195
(dp196
g12
Vamod
p197
sbag0
(g1
g2
(lp198
g0
(g1
g2
(lp199
g0
(g1
g2
(lp200
g0
(g1
g2
(lp201
g0
(g1
g2
(lp202
(lp203
S'word: him, index: 22'
p204
aatp205
Rp206
(dp207
g12
Vnsubj
p208
sbag0
(g1
g2
(lp209
g0
(g1
g2
(lp210
g0
(g1
g2
(lp211
(lp212
S'word: his, index: 24'
p213
aatp214
Rp215
(dp216
g12
Vposs
p217
sbatp218
Rp219
(dp220
g12
S'word: balance, index: 25'
p221
sbatp222
Rp223
(dp224
g12
Vdobj
p225
sbatp226
Rp227
(dp228
g12
S'word: keep, index: 23'
p229
sbatp230
Rp231
(dp232
g12
Vccomp
p233
sbag0
(g1
g2
(lp234
(lp235
S'word: that, index: 20'
p236
aatp237
Rp238
(dp239
g12
Vnsubj
p240
sbatp241
Rp242
(dp243
g12
S'word: helps, index: 21'
p244
sbatp245
Rp246
(dp247
g12
Vrcmod
p248
sbatp249
Rp250
(dp251
g12
S'word: pole, index: 19'
p252
sbatp253
Rp254
(dp255
g12
Vappos
p256
sbatp257
Rp258
(dp259
g12
S'word: pole, index: 15'
p260
sbatp261
Rp262
(dp263
g12
Vnsubj
p264
sbag0
(g1
g2
(lp265
g0
(g1
g2
(lp266
g0
(g1
g2
(lp267
g0
(g1
g2
(lp268
g0
(g1
g2
(lp269
g0
(g1
g2
(lp270
g0
(g1
g2
(lp271
(lp272
S'word: there, index: 8'
p273
aatp274
Rp275
(dp276
g12
Vpobj
p277
sbatp278
Rp279
(dp280
g12
S'word: out, index: 7'
p281
sbatp282
Rp283
(dp284
g12
Vprep
p285
sbag0
(g1
g2
(lp286
(lp287
S'word: a, index: 3'
p288
aatp289
Rp290
(dp291
g12
Vdet
p292
sbag0
(g1
g2
(lp293
(lp294
S'word: high, index: 4'
p295
aatp296
Rp297
(dp298
g12
Vamod
p299
sbag0
(g1
g2
(lp300
(lp301
S'word: wire, index: 5'
p302
aatp303
Rp304
(dp305
g12
Vnn
p306
sbatp307
Rp308
(dp309
g12
S'word: balancer, index: 6'
p310
sbatp311
Rp312
(dp313
g12
Vnsubj
p314
sbag0
(g1
g2
(lp315
g166
atp316
Rp317
(dp318
g12
Vconj
p319
sbag0
(g1
g2
(lp320
(lp321
S'word: There, index: 1'
p322
aatp323
Rp324
(dp325
g12
Vexpl
p326
sbatp327
Rp328
(dp329
g12
S'word: is, index: 2'
p330
sbatp331
Rp332
(dp333
g12
Vdep
p334
sbatp335
Rp336
(dp337
g12
S'word: got, index: 13'
p338
sbatp339
Rp340
(dp341
g12
S'id: 2'
p342
sbag0
(g1
g2
(lp343
g0
(g1
g2
(lp344
g0
(g1
g2
(lp345
(lp346
S'word: There, index: 1'
p347
aatp348
Rp349
(dp350
g12
Vexpl
p351
sbag0
(g1
g2
(lp352
g0
(g1
g2
(lp353
g0
(g1
g2
(lp354
(lp355
S'word: the, index: 3'
p356
aatp357
Rp358
(dp359
g12
Vdet
p360
sbag0
(g1
g2
(lp361
g0
(g1
g2
(lp362
g0
(g1
g2
(lp363
g0
(g1
g2
(lp364
g0
(g1
g2
(lp365
(lp366
S'word: the, index: 12'
p367
aatp368
Rp369
(dp370
g12
Vdet
p371
sbag0
(g1
g2
(lp372
g0
(g1
g2
(lp373
g0
(g1
g2
(lp374
(lp375
S'word: the, index: 15'
p376
aatp377
Rp378
(dp379
g12
Vdet
p380
sbatp381
Rp382
(dp383
g12
S'word: circle, index: 16'
p384
sbatp385
Rp386
(dp387
g12
Vprep
p388
sbag0
(g1
g2
(lp389
g0
(g1
g2
(lp390
g0
(g1
g2
(lp391
g0
(g1
g2
(lp392
g0
(g1
g2
(lp393
g0
(g1
g2
(lp394
g0
(g1
g2
(lp395
g0
(g1
g2
(lp396
g0
(g1
g2
(lp397
(lp398
S'word: the, index: 43'
p399
aatp400
Rp401
(dp402
g12
Vdet
p403
sbatp404
Rp405
(dp406
g12
S'word: circle, index: 44'
p407
sbatp408
Rp409
(dp410
g12
Vprep
p411
sbag0
(g1
g2
(lp412
(lp413
S'word: while, index: 34'
p414
aatp415
Rp416
(dp417
g12
Vmark
p418
sbag0
(g1
g2
(lp419
g0
(g1
g2
(lp420
g0
(g1
g2
(lp421
(lp422
S'word: the, index: 35'
p423
aatp424
Rp425
(dp426
g12
Vdet
p427
sbatp428
Rp429
(dp430
g12
S'word: horse, index: 36'
p431
sbatp432
Rp433
(dp434
g12
Vnsubj
p435
sbag0
(g1
g2
(lp436
(lp437
S'word: is, index: 37'
p438
aatp439
Rp440
(dp441
g12
Vaux
p442
sbag0
(g1
g2
(lp443
g0
(g1
g2
(lp444
g0
(g1
g2
(lp445
(lp446
S'word: the, index: 40'
p447
aatp448
Rp449
(dp450
g12
Vdep
p451
sbatp452
Rp453
(dp454
g12
S'word: around, index: 39'
p455
sbatp456
Rp457
(dp458
g12
Vadvmod
p459
sbatp460
Rp461
(dp462
g12
S'word: going, index: 38'
p463
sbatp464
Rp465
(dp466
g12
Vadvcl
p467
sbatp468
Rp469
(dp470
g12
S'word: balances, index: 33'
p471
sbatp472
Rp473
(dp474
g12
Vrcmod
p475
sbatp476
Rp477
(dp478
g12
S'word: she, index: 32'
p479
sbatp480
Rp481
(dp482
g12
Vconj
p483
sbag0
(g1
g2
(lp484
g0
(g1
g2
(lp485
g0
(g1
g2
(lp486
g0
(g1
g2
(lp487
g0
(g1
g2
(lp488
(lp489
S'word: the, index: 24'
p490
aatp491
Rp492
(dp493
g12
Vdet
p494
sbatp495
Rp496
(dp497
g12
S'word: horse, index: 25'
p498
sbatp499
Rp500
(dp501
g12
Vdobj
p502
sbag0
(g1
g2
(lp503
(lp504
S'word: and, index: 18'
p505
aatp506
Rp507
(dp508
g12
Vcc
p509
sbag0
(g1
g2
(lp510
g0
(g1
g2
(lp511
g0
(g1
g2
(lp512
(lp513
S'word: the, index: 19'
p514
aatp515
Rp516
(dp517
g12
Vpredet
p518
sbag0
(g1
g2
(lp519
(lp520
S'word: the, index: 20'
p521
aatp522
Rp523
(dp524
g12
Vdet
p525
sbatp526
Rp527
(dp528
g12
S'word: girl, index: 21'
p529
sbatp530
Rp531
(dp532
g12
Vnsubj
p533
sbag0
(g1
g2
(lp534
(lp535
S'word: is, index: 22'
p536
aatp537
Rp538
(dp539
g12
Vaux
p540
sbatp541
Rp542
(dp543
g12
S'word: riding, index: 23'
p544
sbatp545
Rp546
(dp547
g12
Vdep
p548
sbatp549
Rp550
(dp551
g12
S'word: inside, index: 13'
p552
sbatp553
Rp554
(dp555
g12
Vprep
p556
sbag0
(g1
g2
(lp557
g477
atp558
Rp559
(dp560
g12
Vprep
p561
sbag0
(g1
g2
(lp562
(lp563
S'word: that, index: 5'
p564
aatp565
Rp566
(dp567
g12
Vnsubj
p568
sbag0
(g1
g2
(lp569
(lp570
S'word: around, index: 7'
p571
aatp572
Rp573
(dp574
g12
Vprt
p575
sbag0
(g1
g2
(lp576
g0
(g1
g2
(lp577
g0
(g1
g2
(lp578
(lp579
S'word: the, index: 9'
p580
aatp581
Rp582
(dp583
g12
Vdep
p584
sbatp585
Rp586
(dp587
g12
S'word: in, index: 8'
p588
sbatp589
Rp590
(dp591
g12
Vadvmod
p592
sbatp593
Rp594
(dp595
g12
S'word: runs, index: 6'
p596
sbatp597
Rp598
(dp599
g12
Vrcmod
p600
sbatp601
Rp602
(dp603
g12
S'word: horse, index: 4'
p604
sbatp605
Rp606
(dp607
g12
Vnsubj
p608
sbatp609
Rp610
(dp611
g12
S'word: is, index: 2'
p612
sbatp613
Rp614
(dp615
g12
S'id: 3'
p616
sbag0
(g1
g2
(lp617
g0
(g1
g2
(lp618
g0
(g1
g2
(lp619
(lp620
S'word: There, index: 1'
p621
aatp622
Rp623
(dp624
g12
Vdep
p625
sbag0
(g1
g2
(lp626
(lp627
S"word: 's, index: 2"
p628
aatp629
Rp630
(dp631
g12
Vdep
p632
sbag0
(g1
g2
(lp633
(lp634
S'word: the, index: 3'
p635
aatp636
Rp637
(dp638
g12
Vdep
p639
sbag0
(g1
g2
(lp640
(lp641
S'word: clown, index: 4'
p642
aatp643
Rp644
(dp645
g12
Vdep
p646
sbag0
(g1
g2
(lp647
(lp648
S'word: there, index: 5'
p649
aatp650
Rp651
(dp652
g12
Vdep
p653
sbag0
(g1
g2
(lp654
(lp655
S'word: and, index: 7'
p656
aatp657
Rp658
(dp659
g12
Vcc
p660
sbag0
(g1
g2
(lp661
(lp662
S'word: he, index: 8'
p663
aatp664
Rp665
(dp666
g12
Vdep
p667
sbag0
(g1
g2
(lp668
(lp669
S"word: 's, index: 9"
p670
aatp671
Rp672
(dp673
g12
Vdep
p674
sbag0
(g1
g2
(lp675
(lp676
S'word: got, index: 10'
p677
aatp678
Rp679
(dp680
g12
Vdep
p681
sbag0
(g1
g2
(lp682
(lp683
S'word: on, index: 11'
p684
aatp685
Rp686
(dp687
g12
Vdep
p688
sbag0
(g1
g2
(lp689
(lp690
S'word: a, index: 12'
p691
aatp692
Rp693
(dp694
g12
Vdep
p695
sbag0
(g1
g2
(lp696
(lp697
S'word: nice, index: 13'
p698
aatp699
Rp700
(dp701
g12
Vdep
p702
sbag0
(g1
g2
(lp703
(lp704
S'word: looking, index: 14'
p705
aatp706
Rp707
(dp708
g12
Vdep
p709
sbag0
(g1
g2
(lp710
(lp711
S'word: sh/sh, index: 15'
p712
aatp713
Rp714
(dp715
g12
Vdep
p716
sbag0
(g1
g2
(lp717
(lp718
S'word: pair, index: 16'
p719
aatp720
Rp721
(dp722
g12
Vdep
p723
sbag0
(g1
g2
(lp724
(lp725
S'word: of, index: 17'
p726
aatp727
Rp728
(dp729
g12
Vdep
p730
sbag0
(g1
g2
(lp731
(lp732
S'word: striped, index: 18'
p733
aatp734
Rp735
(dp736
g12
Vdep
p737
sbag0
(g1
g2
(lp738
(lp739
S'word: pants, index: 19'
p740
aatp741
Rp742
(dp743
g12
Vdep
p744
sbag0
(g1
g2
(lp745
(lp746
S'word: with, index: 20'
p747
aatp748
Rp749
(dp750
g12
Vdep
p751
sbag0
(g1
g2
(lp752
(lp753
S'word: flowers, index: 21'
p754
aatp755
Rp756
(dp757
g12
Vdep
p758
sbag0
(g1
g2
(lp759
(lp760
S'word: on, index: 22'
p761
aatp762
Rp763
(dp764
g12
Vdep
p765
sbag0
(g1
g2
(lp766
(lp767
S'word: his, index: 23'
p768
aatp769
Rp770
(dp771
g12
Vdep
p772
sbag0
(g1
g2
(lp773
(lp774
S'word: tie, index: 24'
p775
aatp776
Rp777
(dp778
g12
Vdep
p779
sbag0
(g1
g2
(lp780
(lp781
S'word: and, index: 26'
p782
aatp783
Rp784
(dp785
g12
Vcc
p786
sbag0
(g1
g2
(lp787
(lp788
S'word: he, index: 27'
p789
aatp790
Rp791
(dp792
g12
Vdep
p793
sbag0
(g1
g2
(lp794
(lp795
S"word: 's, index: 28"
p796
aatp797
Rp798
(dp799
g12
Vdep
p800
sbag0
(g1
g2
(lp801
(lp802
S'word: got, index: 29'
p803
aatp804
Rp805
(dp806
g12
Vdep
p807
sbag0
(g1
g2
(lp808
(lp809
S'word: his, index: 30'
p810
aatp811
Rp812
(dp813
g12
Vdep
p814
sbag0
(g1
g2
(lp815
(lp816
S'word: red, index: 31'
p817
aatp818
Rp819
(dp820
g12
Vdep
p821
sbag0
(g1
g2
(lp822
(lp823
S'word: nose, index: 32'
p824
aatp825
Rp826
(dp827
g12
Vdep
p828
sbag0
(g1
g2
(lp829
(lp830
S'word: on, index: 33'
p831
aatp832
Rp833
(dp834
g12
Vdep
p835
sbag0
(g1
g2
(lp836
(lp837
S'word: there, index: 34'
p838
aatp839
Rp840
(dp841
g12
Vdep
p842
sbag0
(g1
g2
(lp843
(lp844
S'word: and, index: 36'
p845
aatp846
Rp847
(dp848
g12
Vcc
p849
sbag0
(g1
g2
(lp850
(lp851
S'word: his, index: 37'
p852
aatp853
Rp854
(dp855
g12
Vdep
p856
sbag0
(g1
g2
(lp857
(lp858
S'word: garb, index: 38'
p859
aatp860
Rp861
(dp862
g12
Vdep
p863
sbag0
(g1
g2
(lp864
(lp865
S'word: and, index: 39'
p866
aatp867
Rp868
(dp869
g12
Vcc
p870
sbag0
(g1
g2
(lp871
(lp872
S'word: everything, index: 40'
p873
aatp874
Rp875
(dp876
g12
Vdep
p877
sbag0
(g1
g2
(lp878
(lp879
S'word: and, index: 42'
p880
aatp881
Rp882
(dp883
g12
Vcc
p884
sbag0
(g1
g2
(lp885
(lp886
S'word: he, index: 43'
p887
aatp888
Rp889
(dp890
g12
Vdep
p891
sbag0
(g1
g2
(lp892
(lp893
S"word: 's, index: 44"
p894
aatp895
Rp896
(dp897
g12
Vdep
p898
sbag0
(g1
g2
(lp899
(lp900
S'word: got, index: 45'
p901
aatp902
Rp903
(dp904
g12
Vdep
p905
sbag0
(g1
g2
(lp906
(lp907
S'word: a, index: 46'
p908
aatp909
Rp910
(dp911
g12
Vdep
p912
sbag0
(g1
g2
(lp913
(lp914
S'word: little, index: 47'
p915
aatp916
Rp917
(dp918
g12
Vdep
p919
sbag0
(g1
g2
(lp920
(lp921
S'word: flower, index: 48'
p922
aatp923
Rp924
(dp925
g12
Vdep
p926
sbag0
(g1
g2
(lp927
(lp928
S'word: coming, index: 49'
p929
aatp930
Rp931
(dp932
g12
Vdep
p933
sbag0
(g1
g2
(lp934
(lp935
S'word: out, index: 50'
p936
aatp937
Rp938
(dp939
g12
Vdep
p940
sbag0
(g1
g2
(lp941
(lp942
S'word: of, index: 51'
p943
aatp944
Rp945
(dp946
g12
Vdep
p947
sbag0
(g1
g2
(lp948
(lp949
S'word: his, index: 52'
p950
aatp951
Rp952
(dp953
g12
Vdep
p954
sbag0
(g1
g2
(lp955
(lp956
S'word: hat, index: 53'
p957
aatp958
Rp959
(dp960
g12
Vdep
p961
sbag0
(g1
g2
(lp962
(lp963
S'word: there, index: 54'
p964
aatp965
Rp966
(dp967
g12
Vdep
p968
sbag0
(g1
g2
(lp969
(lp970
S'word: and, index: 56'
p971
aatp972
Rp973
(dp974
g12
Vcc
p975
sbag0
(g1
g2
(lp976
(lp977
S'word: he, index: 57'
p978
aatp979
Rp980
(dp981
g12
Vdep
p982
sbag0
(g1
g2
(lp983
(lp984
S"word: 's, index: 58"
p985
aatp986
Rp987
(dp988
g12
Vdep
p989
sbag0
(g1
g2
(lp990
(lp991
S'word: got, index: 59'
p992
aatp993
Rp994
(dp995
g12
Vdep
p996
sbag0
(g1
g2
(lp997
(lp998
S'word: something, index: 60'
p999
aatp1000
Rp1001
(dp1002
g12
Vdep
p1003
sbag0
(g1
g2
(lp1004
(lp1005
S'word: probably, index: 61'
p1006
aatp1007
Rp1008
(dp1009
g12
Vdep
p1010
sbag0
(g1
g2
(lp1011
(lp1012
S'word: like, index: 62'
p1013
aatp1014
Rp1015
(dp1016
g12
Vdep
p1017
sbag0
(g1
g2
(lp1018
(lp1019
S'word: popcorn, index: 63'
p1020
aatp1021
Rp1022
(dp1023
g12
Vdep
p1024
sbag0
(g1
g2
(lp1025
(lp1026
S'word: or, index: 64'
p1027
aatp1028
Rp1029
(dp1030
g12
Vcc
p1031
sbag0
(g1
g2
(lp1032
(lp1033
S'word: something, index: 65'
p1034
aatp1035
Rp1036
(dp1037
g12
Vdep
p1038
sbag0
(g1
g2
(lp1039
(lp1040
S'word: coming, index: 66'
p1041
aatp1042
Rp1043
(dp1044
g12
Vdep
p1045
sbag0
(g1
g2
(lp1046
(lp1047
S'word: out, index: 67'
p1048
aatp1049
Rp1050
(dp1051
g12
Vdep
p1052
sbag0
(g1
g2
(lp1053
(lp1054
S'word: of, index: 68'
p1055
aatp1056
Rp1057
(dp1058
g12
Vdep
p1059
sbag0
(g1
g2
(lp1060
(lp1061
S'word: the, index: 69'
p1062
aatp1063
Rp1064
(dp1065
g12
Vdet
p1066
sbag0
(g1
g2
(lp1067
(lp1068
S'word: pail, index: 70'
p1069
aatp1070
Rp1071
(dp1072
g12
Vdep
p1073
sbatp1074
Rp1075
(dp1076
g12
S'word: there, index: 71'
p1077
sbatp1078
Rp1079
(dp1080
g12
S'id: 4'
p1081
sbag0
(g1
g2
(lp1082
g0
(g1
g2
(lp1083
g0
(g1
g2
(lp1084
(lp1085
S'word: There, index: 1'
p1086
aatp1087
Rp1088
(dp1089
g12
Vexpl
p1090
sbag0
(g1
g2
(lp1091
g0
(g1
g2
(lp1092
g0
(g1
g2
(lp1093
(lp1094
S'word: a, index: 3'
p1095
aatp1096
Rp1097
(dp1098
g12
Vdet
p1099
sbag0
(g1
g2
(lp1100
g0
(g1
g2
(lp1101
g0
(g1
g2
(lp1102
(lp1103
S'word: the, index: 6'
p1104
aatp1105
Rp1106
(dp1107
g12
Vdet
p1108
sbatp1109
Rp1110
(dp1111
g12
S'word: cage, index: 7'
p1112
sbatp1113
Rp1114
(dp1115
g12
Vprep
p1116
sbatp1117
Rp1118
(dp1119
g12
S'word: lion, index: 4'
p1120
sbatp1121
Rp1122
(dp1123
g12
Vnsubj
p1124
sbag0
(g1
g2
(lp1125
g0
(g1
g2
(lp1126
g0
(g1
g2
(lp1127
(lp1128
S'word: I, index: 19'
p1129
aatp1130
Rp1131
(dp1132
g12
Vnsubj
p1133
sbag0
(g1
g2
(lp1134
(lp1135
S'word: do, index: 20'
p1136
aatp1137
Rp1138
(dp1139
g12
Vaux
p1140
sbag0
(g1
g2
(lp1141
(lp1142
S"word: n't, index: 21"
p1143
aatp1144
Rp1145
(dp1146
g12
Vneg
p1147
sbag0
(g1
g2
(lp1148
g0
(g1
g2
(lp1149
g0
(g1
g2
(lp1150
(lp1151
S'word: what, index: 23'
p1152
aatp1153
Rp1154
(dp1155
g12
Vdobj
p1156
sbag0
(g1
g2
(lp1157
(lp1158
S'word: you, index: 24'
p1159
aatp1160
Rp1161
(dp1162
g12
Vnsubj
p1163
sbag0
(g1
g2
(lp1164
(lp1165
S'word: them, index: 26'
p1166
aatp1167
Rp1168
(dp1169
g12
Vdobj
p1170
sbatp1171
Rp1172
(dp1173
g12
S'word: call, index: 25'
p1174
sbatp1175
Rp1176
(dp1177
g12
Vccomp
p1178
sbatp1179
Rp1180
(dp1181
g12
S'word: know, index: 22'
p1182
sbatp1183
Rp1184
(dp1185
g12
Vdep
p1186
sbag0
(g1
g2
(lp1187
(lp1188
S'word: there, index: 8'
p1189
aatp1190
Rp1191
(dp1192
g12
Vadvmod
p1193
sbag0
(g1
g2
(lp1194
g0
(g1
g2
(lp1195
g0
(g1
g2
(lp1196
g0
(g1
g2
(lp1197
g0
(g1
g2
(lp1198
(lp1199
S'word: those, index: 17'
p1200
aatp1201
Rp1202
(dp1203
g12
Vprep
p1204
sbatp1205
Rp1206
(dp1207
g12
S'word: one, index: 15'
p1208
sbatp1209
Rp1210
(dp1211
g12
Vprep
p1212
sbag0
(g1
g2
(lp1213
(lp1214
S'word: he, index: 11'
p1215
aatp1216
Rp1217
(dp1218
g12
Vnsubj
p1219
sbag0
(g1
g2
(lp1220
(lp1221
S'word: up, index: 13'
p1222
aatp1223
Rp1224
(dp1225
g12
Vadvmod
p1226
sbatp1227
Rp1228
(dp1229
g12
S"word: 's, index: 12"
p1230
sbatp1231
Rp1232
(dp1233
g12
Vconj
p1234
sbag0
(g1
g2
(lp1235
g0
(g1
g2
(lp1236
g0
(g1
g2
(lp1237
g0
(g1
g2
(lp1238
g0
(g1
g2
(lp1239
(lp1240
S'word: a, index: 32'
p1241
aatp1242
Rp1243
(dp1244
g12
Vdet
p1245
sbag0
(g1
g2
(lp1246
g0
(g1
g2
(lp1247
g0
(g1
g2
(lp1248
(lp1249
S'word: a, index: 35'
p1250
aatp1251
Rp1252
(dp1253
g12
Vdet
p1254
sbag0
(g1
g2
(lp1255
g0
(g1
g2
(lp1256
g0
(g1
g2
(lp1257
(lp1258
S'word: a, index: 36'
p1259
aatp1260
Rp1261
(dp1262
g12
Vdet
p1263
sbatp1264
Rp1265
(dp1266
g12
S'word: round, index: 37'
p1267
sbatp1268
Rp1269
(dp1270
g12
Vnn
p1271
sbatp1272
Rp1273
(dp1274
g12
S'word: tub, index: 38'
p1275
sbatp1276
Rp1277
(dp1278
g12
Vappos
p1279
sbatp1280
Rp1281
(dp1282
g12
S'word: tub, index: 33'
p1283
sbatp1284
Rp1285
(dp1286
g12
Vprep
p1287
sbag0
(g1
g2
(lp1288
(lp1289
S'word: it, index: 29'
p1290
aatp1291
Rp1292
(dp1293
g12
Vnsubj
p1294
sbatp1295
Rp1296
(dp1297
g12
S"word: 's, index: 30"
p1298
sbatp1299
Rp1300
(dp1301
g12
Vconj
p1302
sbatp1303
Rp1304
(dp1305
g12
S"word: 's, index: 2"
p1306
sbatp1307
Rp1308
(dp1309
g12
S'id: 5'
p1310
sbag0
(g1
g2
(lp1311
g0
(g1
g2
(lp1312
g0
(g1
g2
(lp1313
(lp1314
S'word: he, index: 2'
p1315
aatp1316
Rp1317
(dp1318
g12
Vnsubj
p1319
sbag0
(g1
g2
(lp1320
g0
(g1
g2
(lp1321
g0
(g1
g2
(lp1322
(lp1323
S'word: the, index: 4'
p1324
aatp1325
Rp1326
(dp1327
g12
Vdet
p1328
sbatp1329
Rp1330
(dp1331
g12
S'word: lion, index: 5'
p1332
sbatp1333
Rp1334
(dp1335
g12
Vnsubj
p1336
sbag0
(g1
g2
(lp1337
(lp1338
S'word: that, index: 8'
p1339
aatp1340
Rp1341
(dp1342
g12
Vprep
p1343
sbag0
(g1
g2
(lp1344
g0
(g1
g2
(lp1345
g0
(g1
g2
(lp1346
(lp1347
S'word: he, index: 11'
p1348
aatp1349
Rp1350
(dp1351
g12
Vnsubj
p1352
sbag0
(g1
g2
(lp1353
g0
(g1
g2
(lp1354
g0
(g1
g2
(lp1355
(lp1356
S'word: himself, index: 13'
p1357
aatp1358
Rp1359
(dp1360
g12
Vnsubj
p1361
sbatp1362
Rp1363
(dp1364
g12
S'word: upright, index: 14'
p1365
sbatp1366
Rp1367
(dp1368
g12
Vxcomp
p1369
sbatp1370
Rp1371
(dp1372
g12
S'word: balances, index: 12'
p1373
sbatp1374
Rp1375
(dp1376
g12
Vconj
p1377
sbatp1378
Rp1379
(dp1380
g12
S'word: sits, index: 6'
p1381
sbatp1382
Rp1383
(dp1384
g12
S'id: 6'
p1385
sbag0
(g1
g2
(lp1386
g0
(g1
g2
(lp1387
g0
(g1
g2
(lp1388
g0
(g1
g2
(lp1389
g0
(g1
g2
(lp1390
(lp1391
S'word: he, index: 22'
p1392
aatp1393
Rp1394
(dp1395
g12
Vnsubj
p1396
sbag0
(g1
g2
(lp1397
(lp1398
S"word: 's, index: 23"
p1399
aatp1400
Rp1401
(dp1402
g12
Vcop
p1403
sbag0
(g1
g2
(lp1404
(lp1405
S'word: the, index: 24'
p1406
aatp1407
Rp1408
(dp1409
g12
Vdet
p1410
sbag0
(g1
g2
(lp1411
g0
(g1
g2
(lp1412
g0
(g1
g2
(lp1413
(lp1414
S'word: that, index: 26'
p1415
aatp1416
Rp1417
(dp1418
g12
Vmark
p1419
sbag0
(g1
g2
(lp1420
g0
(g1
g2
(lp1421
g0
(g1
g2
(lp1422
(lp1423
S'word: the, index: 41'
p1424
aatp1425
Rp1426
(dp1427
g12
Vdet
p1428
sbatp1429
Rp1430
(dp1431
g12
S'word: carnival, index: 42'
p1432
sbatp1433
Rp1434
(dp1435
g12
Vprep
p1436
sbag0
(g1
g2
(lp1437
(lp1438
S'word: that, index: 27'
p1439
aatp1440
Rp1441
(dp1442
g12
Vnsubj
p1443
sbag0
(g1
g2
(lp1444
(lp1445
S"word: 's, index: 28"
p1446
aatp1447
Rp1448
(dp1449
g12
Vcop
p1450
sbag0
(g1
g2
(lp1451
(lp1452
S'word: the, index: 29'
p1453
aatp1454
Rp1455
(dp1456
g12
Vdet
p1457
sbag0
(g1
g2
(lp1458
g0
(g1
g2
(lp1459
g0
(g1
g2
(lp1460
(lp1461
S'word: what, index: 32'
p1462
aatp1463
Rp1464
(dp1465
g12
Vnsubj
p1466
sbag0
(g1
g2
(lp1467
g0
(g1
g2
(lp1468
g0
(g1
g2
(lp1469
(lp1470
S'word: the, index: 38'
p1471
aatp1472
Rp1473
(dp1474
g12
Vprep
p1475
sbag0
(g1
g2
(lp1476
(lp1477
S'word: they, index: 34'
p1478
aatp1479
Rp1480
(dp1481
g12
Vnsubj
p1482
sbag0
(g1
g2
(lp1483
(lp1484
S'word: them, index: 36'
p1485
aatp1486
Rp1487
(dp1488
g12
Vdobj
p1489
sbatp1490
Rp1491
(dp1492
g12
S'word: call, index: 35'
p1493
sbatp1494
Rp1495
(dp1496
g12
Vccomp
p1497
sbatp1498
Rp1499
(dp1500
g12
S'word: do, index: 33'
p1501
sbatp1502
Rp1503
(dp1504
g12
Vrcmod
p1505
sbatp1506
Rp1507
(dp1508
g12
S'word: EMC, index: 30'
p1509
sbatp1510
Rp1511
(dp1512
g12
Vccomp
p1513
sbatp1514
Rp1515
(dp1516
g12
S'word: guy, index: 25'
p1517
sbatp1518
Rp1519
(dp1520
g12
Vparataxis
p1521
sbag0
(g1
g2
(lp1522
g0
(g1
g2
(lp1523
g0
(g1
g2
(lp1524
(lp1525
S'word: or, index: 6'
p1526
aatp1527
Rp1528
(dp1529
g12
Vcc
p1530
sbag0
(g1
g2
(lp1531
(lp1532
S'word: he, index: 7'
p1533
aatp1534
Rp1535
(dp1536
g12
Vnsubj
p1537
sbag0
(g1
g2
(lp1538
(lp1539
S'word: could, index: 8'
p1540
aatp1541
Rp1542
(dp1543
g12
Vaux
p1544
sbag0
(g1
g2
(lp1545
(lp1546
S'word: be, index: 9'
p1547
aatp1548
Rp1549
(dp1550
g12
Vcop
p1551
sbag0
(g1
g2
(lp1552
(lp1553
S'word: the, index: 10'
p1554
aatp1555
Rp1556
(dp1557
g12
Vdet
p1558
sbatp1559
Rp1560
(dp1561
g12
S'word: actual, index: 11'
p1562
sbatp1563
Rp1564
(dp1565
g12
Vparataxis
p1566
sbag0
(g1
g2
(lp1567
g0
(g1
g2
(lp1568
g0
(g1
g2
(lp1569
(lp1570
S'word: no, index: 13'
p1571
aatp1572
Rp1573
(dp1574
g12
Vneg
p1575
sbatp1576
Rp1577
(dp1578
g12
S'word: he, index: 14'
p1579
sbatp1580
Rp1581
(dp1582
g12
Vnsubj
p1583
sbag0
(g1
g2
(lp1584
(lp1585
S"word: 's, index: 15"
p1586
aatp1587
Rp1588
(dp1589
g12
Vcop
p1590
sbag0
(g1
g2
(lp1591
(lp1592
S'word: And, index: 1'
p1593
aatp1594
Rp1595
(dp1596
g12
Vcc
p1597
sbag0
(g1
g2
(lp1598
g0
(g1
g2
(lp1599
g0
(g1
g2
(lp1600
(lp1601
S'word: the, index: 2'
p1602
aatp1603
Rp1604
(dp1605
g12
Vdet
p1606
sbag0
(g1
g2
(lp1607
(lp1608
S'word: lion, index: 3'
p1609
aatp1610
Rp1611
(dp1612
g12
Vdep
p1613
sbatp1614
Rp1615
(dp1616
g12
S'word: tamer, index: 4'
p1617
sbatp1618
Rp1619
(dp1620
g12
Vnsubj
p1621
sbag0
(g1
g2
(lp1622
g0
(g1
g2
(lp1623
g0
(g1
g2
(lp1624
(lp1625
S'word: he, index: 18'
p1626
aatp1627
Rp1628
(dp1629
g12
Vnsubj
p1630
sbag0
(g1
g2
(lp1631
(lp1632
S"word: 's, index: 19"
p1633
aatp1634
Rp1635
(dp1636
g12
Vcop
p1637
sbatp1638
Rp1639
(dp1640
g12
S'word: the, index: 20'
p1641
sbatp1642
Rp1643
(dp1644
g12
Vdep
p1645
sbatp1646
Rp1647
(dp1648
g12
S'word: the, index: 16'
p1649
sbatp1650
Rp1651
(dp1652
g12
S'id: 7'
p1653
sbag0
(g1
g2
(lp1654
g0
(g1
g2
(lp1655
g0
(g1
g2
(lp1656
(lp1657
S'word: I, index: 1'
p1658
aatp1659
Rp1660
(dp1661
g12
Vnsubj
p1662
sbag0
(g1
g2
(lp1663
g0
(g1
g2
(lp1664
g0
(g1
g2
(lp1665
(lp1666
S'word: what, index: 3'
p1667
aatp1668
Rp1669
(dp1670
g12
Vdobj
p1671
sbag0
(g1
g2
(lp1672
(lp1673
S'word: you, index: 4'
p1674
aatp1675
Rp1676
(dp1677
g12
Vnsubj
p1678
sbag0
(g1
g2
(lp1679
(lp1680
S'word: them, index: 6'
p1681
aatp1682
Rp1683
(dp1684
g12
Vdobj
p1685
sbatp1686
Rp1687
(dp1688
g12
S'word: call, index: 5'
p1689
sbatp1690
Rp1691
(dp1692
g12
Vccomp
p1693
sbatp1694
Rp1695
(dp1696
g12
S'word: forgot, index: 2'
p1697
sbatp1698
Rp1699
(dp1700
g12
S'id: 8'
p1701
sbag0
(g1
g2
(lp1702
g0
(g1
g2
(lp1703
g0
(g1
g2
(lp1704
g0
(g1
g2
(lp1705
g0
(g1
g2
(lp1706
(lp1707
S'word: the, index: 11'
p1708
aatp1709
Rp1710
(dp1711
g12
Vdet
p1712
sbatp1713
Rp1714
(dp1715
g12
S'word: lion, index: 12'
p1716
sbatp1717
Rp1718
(dp1719
g12
Vprep
p1720
sbag0
(g1
g2
(lp1721
g0
(g1
g2
(lp1722
g0
(g1
g2
(lp1723
(lp1724
S'word: to, index: 14'
p1725
aatp1726
Rp1727
(dp1728
g12
Vaux
p1729
sbag0
(g1
g2
(lp1730
g0
(g1
g2
(lp1731
g0
(g1
g2
(lp1732
g0
(g1
g2
(lp1733
g0
(g1
g2
(lp1734
(lp1735
S'word: he, index: 17'
p1736
aatp1737
Rp1738
(dp1739
g12
Vnsubj
p1740
sbag0
(g1
g2
(lp1741
(lp1742
S"word: 's, index: 18"
p1743
aatp1744
Rp1745
(dp1746
g12
Vcop
p1747
sbag0
(g1
g2
(lp1748
(lp1749
S'word: everything, index: 21'
p1750
aatp1751
Rp1752
(dp1753
g12
Vconj
p1754
sbatp1755
Rp1756
(dp1757
g12
S'word: tame, index: 19'
p1758
sbatp1759
Rp1760
(dp1761
g12
Vccomp
p1762
sbag0
(g1
g2
(lp1763
(lp1764
S'word: everything, index: 21'
p1765
aatp1766
Rp1767
(dp1768
g12
Vccomp
p1769
sbag0
(g1
g2
(lp1770
(lp1771
S'word: entertaining, index: 24'
p1772
aatp1773
Rp1774
(dp1775
g12
Vconj
p1776
sbatp1777
Rp1778
(dp1779
g12
S'word: sure, index: 16'
p1780
sbatp1781
Rp1782
(dp1783
g12
Vacomp
p1784
sbag0
(g1
g2
(lp1785
(lp1786
S'word: entertaining, index: 24'
p1787
aatp1788
Rp1789
(dp1790
g12
Vacomp
p1791
sbag0
(g1
g2
(lp1792
g0
(g1
g2
(lp1793
g0
(g1
g2
(lp1794
(lp1795
S'word: the, index: 25'
p1796
aatp1797
Rp1798
(dp1799
g12
Vdet
p1800
sbatp1801
Rp1802
(dp1803
g12
S'word: folks, index: 26'
p1804
sbatp1805
Rp1806
(dp1807
g12
Vdobj
p1808
sbatp1809
Rp1810
(dp1811
g12
S'word: make, index: 15'
p1812
sbatp1813
Rp1814
(dp1815
g12
Vxcomp
p1816
sbag0
(g1
g2
(lp1817
(lp1818
S'word: But, index: 1'
p1819
aatp1820
Rp1821
(dp1822
g12
Vcc
p1823
sbag0
(g1
g2
(lp1824
(lp1825
S'word: anyway, index: 2'
p1826
aatp1827
Rp1828
(dp1829
g12
Vadvmod
p1830
sbag0
(g1
g2
(lp1831
g0
(g1
g2
(lp1832
g0
(g1
g2
(lp1833
(lp1834
S'word: he, index: 4'
p1835
aatp1836
Rp1837
(dp1838
g12
Vnsubj
p1839
sbatp1840
Rp1841
(dp1842
g12
S"word: 's, index: 5"
p1843
sbatp1844
Rp1845
(dp1846
g12
Vparataxis
p1847
sbag0
(g1
g2
(lp1848
(lp1849
S'word: he, index: 7'
p1850
aatp1851
Rp1852
(dp1853
g12
Vnsubj
p1854
sbag0
(g1
g2
(lp1855
(lp1856
S"word: 's, index: 8"
p1857
aatp1858
Rp1859
(dp1860
g12
Vaux
p1861
sbatp1862
Rp1863
(dp1864
g12
S'word: working, index: 9'
p1865
sbatp1866
Rp1867
(dp1868
g12
S'id: 9'
p1869
sbag0
(g1
g2
(lp1870
g0
(g1
g2
(lp1871
g0
(g1
g2
(lp1872
(lp1873
S'word: There, index: 1'
p1874
aatp1875
Rp1876
(dp1877
g12
Vexpl
p1878
sbag0
(g1
g2
(lp1879
g0
(g1
g2
(lp1880
g0
(g1
g2
(lp1881
g0
(g1
g2
(lp1882
g0
(g1
g2
(lp1883
(lp1884
S'word: a, index: 5'
p1885
aatp1886
Rp1887
(dp1888
g12
Vdet
p1889
sbatp1890
Rp1891
(dp1892
g12
S'word: grandstand, index: 6'
p1893
sbatp1894
Rp1895
(dp1896
g12
Vappos
p1897
sbatp1898
Rp1899
(dp1900
g12
S'word: a, index: 3'
p1901
sbatp1902
Rp1903
(dp1904
g12
Vnsubj
p1905
sbatp1906
Rp1907
(dp1908
g12
S'word: is, index: 2'
p1909
sbatp1910
Rp1911
(dp1912
g12
S'id: 10'
p1913
sbag0
(g1
g2
(lp1914
g0
(g1
g2
(lp1915
g0
(g1
g2
(lp1916
(lp1917
S'word: there, index: 2'
p1918
aatp1919
Rp1920
(dp1921
g12
Vexpl
p1922
sbag0
(g1
g2
(lp1923
g0
(g1
g2
(lp1924
g0
(g1
g2
(lp1925
(lp1926
S'word: one, index: 33'
p1927
aatp1928
Rp1929
(dp1930
g12
Vnum
p1931
sbag0
(g1
g2
(lp1932
(lp1933
S'word: ring, index: 34'
p1934
aatp1935
Rp1936
(dp1937
g12
Vnn
p1938
sbag0
(g1
g2
(lp1939
(lp1940
S'word: it, index: 29'
p1941
aatp1942
Rp1943
(dp1944
g12
Vnsubj
p1945
sbag0
(g1
g2
(lp1946
(lp1947
S"word: 's, index: 30"
p1948
aatp1949
Rp1950
(dp1951
g12
Vcop
p1952
sbag0
(g1
g2
(lp1953
(lp1954
S'word: actually, index: 31'
p1955
aatp1956
Rp1957
(dp1958
g12
Vadvmod
p1959
sbag0
(g1
g2
(lp1960
(lp1961
S'word: a, index: 32'
p1962
aatp1963
Rp1964
(dp1965
g12
Vdet
p1966
sbatp1967
Rp1968
(dp1969
g12
S'word: circus, index: 35'
p1970
sbatp1971
Rp1972
(dp1973
g12
Vconj
p1974
sbag0
(g1
g2
(lp1975
g0
(g1
g2
(lp1976
g0
(g1
g2
(lp1977
g0
(g1
g2
(lp1978
g0
(g1
g2
(lp1979
g0
(g1
g2
(lp1980
g0
(g1
g2
(lp1981
(lp1982
S'word: the, index: 7'
p1983
aatp1984
Rp1985
(dp1986
g12
Vdet
p1987
sbatp1988
Rp1989
(dp1990
g12
S'word: people, index: 8'
p1991
sbatp1992
Rp1993
(dp1994
g12
Vprep
p1995
sbatp1996
Rp1997
(dp1998
g12
S'word: outlines, index: 5'
p1999
sbatp2000
Rp2001
(dp2002
g12
Vrcmod
p2003
sbatp2004
Rp2005
(dp2006
g12
S'word: the, index: 4'
p2007
sbatp2008
Rp2009
(dp2010
g12
Vnsubj
p2011
sbag0
(g1
g2
(lp2012
g0
(g1
g2
(lp2013
g0
(g1
g2
(lp2014
(lp2015
S'word: they, index: 10'
p2016
aatp2017
Rp2018
(dp2019
g12
Vnsubj
p2020
sbag0
(g1
g2
(lp2021
(lp2022
S"word: 're, index: 11"
p2023
aatp2024
Rp2025
(dp2026
g12
Vaux
p2027
sbag0
(g1
g2
(lp2028
(lp2029
S'word: actually, index: 12'
p2030
aatp2031
Rp2032
(dp2033
g12
Vadvmod
p2034
sbag0
(g1
g2
(lp2035
g0
(g1
g2
(lp2036
g0
(g1
g2
(lp2037
(lp2038
S'word: the, index: 18'
p2039
aatp2040
Rp2041
(dp2042
g12
Vappos
p2043
sbag0
(g1
g2
(lp2044
g0
(g1
g2
(lp2045
g0
(g1
g2
(lp2046
(lp2047
S'word: the, index: 20'
p2048
aatp2049
Rp2050
(dp2051
g12
Vdet
p2052
sbatp2053
Rp2054
(dp2055
g12
S'word: circus, index: 21'
p2056
sbatp2057
Rp2058
(dp2059
g12
Vappos
p2060
sbag0
(g1
g2
(lp2061
g0
(g1
g2
(lp2062
g0
(g1
g2
(lp2063
(lp2064
S'word: the, index: 23'
p2065
aatp2066
Rp2067
(dp2068
g12
Vdet
p2069
sbag0
(g1
g2
(lp2070
(lp2071
S'word: three, index: 24'
p2072
aatp2073
Rp2074
(dp2075
g12
Vnum
p2076
sbag0
(g1
g2
(lp2077
(lp2078
S'word: ring, index: 25'
p2079
aatp2080
Rp2081
(dp2082
g12
Vnn
p2083
sbatp2084
Rp2085
(dp2086
g12
S'word: circus, index: 26'
p2087
sbatp2088
Rp2089
(dp2090
g12
Vappos
p2091
sbag0
(g1
g2
(lp2092
(lp2093
S'word: the, index: 16'
p2094
aatp2095
Rp2096
(dp2097
g12
Vappos
p2098
sbatp2099
Rp2100
(dp2101
g12
S'word: the, index: 14'
p2102
sbatp2103
Rp2104
(dp2105
g12
Vdobj
p2106
sbatp2107
Rp2108
(dp2109
g12
S'word: watching, index: 13'
p2110
sbatp2111
Rp2112
(dp2113
g12
Vdep
p2114
sbatp2115
Rp2116
(dp2117
g12
S"word: 's, index: 3"
p2118
sbatp2119
Rp2120
(dp2121
g12
S'id: 11'
p2122
sbag0
(g1
g2
(lp2123
g0
(g1
g2
(lp2124
g0
(g1
g2
(lp2125
(lp2126
S'word: the, index: 4'
p2127
aatp2128
Rp2129
(dp2130
g12
Vdet
p2131
sbag0
(g1
g2
(lp2132
g0
(g1
g2
(lp2133
g0
(g1
g2
(lp2134
(lp2135
S'word: that, index: 6'
p2136
aatp2137
Rp2138
(dp2139
g12
Vnsubj
p2140
sbag0
(g1
g2
(lp2141
(lp2142
S'word: are, index: 7'
p2143
aatp2144
Rp2145
(dp2146
g12
Vaux
p2147
sbatp2148
Rp2149
(dp2150
g12
S'word: watching, index: 8'
p2151
sbatp2152
Rp2153
(dp2154
g12
Vrcmod
p2155
sbag0
(g1
g2
(lp2156
g0
(g1
g2
(lp2157
g0
(g1
g2
(lp2158
(lp2159
S'word: their, index: 10'
p2160
aatp2161
Rp2162
(dp2163
g12
Vposs
p2164
sbag0
(g1
g2
(lp2165
g0
(g1
g2
(lp2166
g0
(g1
g2
(lp2167
(lp2168
S'word: the, index: 13'
p2169
aatp2170
Rp2171
(dp2172
g12
Vdet
p2173
sbatp2174
Rp2175
(dp2176
g12
S'word: fans, index: 14'
p2177
sbatp2178
Rp2179
(dp2180
g12
Vappos
p2181
sbatp2182
Rp2183
(dp2184
g12
S'word: the, index: 11'
p2185
sbatp2186
Rp2187
(dp2188
g12
Vappos
p2189
sbag0
(g1
g2
(lp2190
(lp2191
S'word: And, index: 1'
p2192
aatp2193
Rp2194
(dp2195
g12
Vcc
p2196
sbag0
(g1
g2
(lp2197
(lp2198
S'word: those, index: 2'
p2199
aatp2200
Rp2201
(dp2202
g12
Vnsubj
p2203
sbag0
(g1
g2
(lp2204
(lp2205
S'word: are, index: 3'
p2206
aatp2207
Rp2208
(dp2209
g12
Vcop
p2210
sbatp2211
Rp2212
(dp2213
g12
S'word: people, index: 5'
p2214
sbatp2215
Rp2216
(dp2217
g12
S'id: 12'
p2218
sbag0
(g1
g2
(lp2219
g0
(g1
g2
(lp2220
g0
(g1
g2
(lp2221
(lp2222
S'word: mother, index: 8'
p2223
aatp2224
Rp2225
(dp2226
g12
Vprep
p2227
sbag0
(g1
g2
(lp2228
(lp2229
S'word: And, index: 1'
p2230
aatp2231
Rp2232
(dp2233
g12
Vcc
p2234
sbag0
(g1
g2
(lp2235
g0
(g1
g2
(lp2236
g0
(g1
g2
(lp2237
(lp2238
S'word: then, index: 2'
p2239
aatp2240
Rp2241
(dp2242
g12
Vadvmod
p2243
sbag0
(g1
g2
(lp2244
(lp2245
S'word: you, index: 3'
p2246
aatp2247
Rp2248
(dp2249
g12
Vnsubj
p2250
sbatp2251
Rp2252
(dp2253
g12
S'word: have, index: 4'
p2254
sbatp2255
Rp2256
(dp2257
g12
Vdep
p2258
sbatp2259
Rp2260
(dp2261
g12
S'word: looks, index: 6'
p2262
sbatp2263
Rp2264
(dp2265
g12
S'id: 13'
p2266
sbatp2267
Rp2268
(dp2269
g12
S'sentences'
p2270
sb.