ccopy_reg
_reconstructor
p0
(cnltk.tree
Tree
p1
c__builtin__
list
p2
(lp3
g0
(g1
g2
(lp4
g0
(g1
g2
(lp5
g0
(g1
g2
(lp6
g0
(g1
g2
(lp7
Vok
p8
atp9
Rp10
(dp11
S'_label'
p12
VNN
p13
sbatp14
Rp15
(dp16
g12
VNP
p17
sbag0
(g1
g2
(lp18
g0
(g1
g2
(lp19
VI
p20
atp21
Rp22
(dp23
g12
VPRP
p24
sbatp25
Rp26
(dp27
g12
VNP
p28
sbag0
(g1
g2
(lp29
g0
(g1
g2
(lp30
Vsaw
p31
atp32
Rp33
(dp34
g12
VVBD
p35
sbag0
(g1
g2
(lp36
g0
(g1
g2
(lp37
Vthis
p38
atp39
Rp40
(dp41
g12
VDT
p42
sbag0
(g1
g2
(lp43
Vyesterday
p44
atp45
Rp46
(dp47
g12
VNN
p48
sbatp49
Rp50
(dp51
g12
VNP-TMP
p52
sbatp53
Rp54
(dp55
g12
VVP
p56
sbag0
(g1
g2
(lp57
V.
p58
atp59
Rp60
(dp61
g12
V.
p62
sbatp63
Rp64
(dp65
g12
VS
p66
sbatp67
Rp68
(dp69
g12
S'id: 0'
p70
sbag0
(g1
g2
(lp71
g0
(g1
g2
(lp72
g0
(g1
g2
(lp73
g0
(g1
g2
(lp74
g0
(g1
g2
(lp75
Vthere
p76
atp77
Rp78
(dp79
g12
VEX
p80
sbatp81
Rp82
(dp83
g12
VNP
p84
sbag0
(g1
g2
(lp85
g0
(g1
g2
(lp86
V's
p87
atp88
Rp89
(dp90
g12
VVBZ
p91
sbag0
(g1
g2
(lp92
g0
(g1
g2
(lp93
Va
p94
atp95
Rp96
(dp97
g12
VDT
p98
sbag0
(g1
g2
(lp99
Vlittle
p100
atp101
Rp102
(dp103
g12
VJJ
p104
sbag0
(g1
g2
(lp105
Vgirl
p106
atp107
Rp108
(dp109
g12
VNN
p110
sbatp111
Rp112
(dp113
g12
VNP
p114
sbatp115
Rp116
(dp117
g12
VVP
p118
sbatp119
Rp120
(dp121
g12
VS
p122
sbag0
(g1
g2
(lp123
V,
p124
atp125
Rp126
(dp127
g12
V,
p128
sbag0
(g1
g2
(lp129
Vand
p130
atp131
Rp132
(dp133
g12
VCC
p134
sbag0
(g1
g2
(lp135
g0
(g1
g2
(lp136
g0
(g1
g2
(lp137
Vshe
p138
atp139
Rp140
(dp141
g12
VPRP
p142
sbatp143
Rp144
(dp145
g12
VNP
p146
sbag0
(g1
g2
(lp147
g0
(g1
g2
(lp148
V's
p149
atp150
Rp151
(dp152
g12
VVBZ
p153
sbag0
(g1
g2
(lp154
g0
(g1
g2
(lp155
Vgetting
p156
atp157
Rp158
(dp159
g12
VVBG
p160
sbag0
(g1
g2
(lp161
g0
(g1
g2
(lp162
g0
(g1
g2
(lp163
Vthis
p164
atp165
Rp166
(dp167
g12
VDT
p168
sbatp169
Rp170
(dp171
g12
VNP
p172
sbag0
(g1
g2
(lp173
g0
(g1
g2
(lp174
Vin
p175
atp176
Rp177
(dp178
g12
VIN
p179
sbag0
(g1
g2
(lp180
g0
(g1
g2
(lp181
Vthe
p182
atp183
Rp184
(dp185
g12
VDT
p186
sbag0
(g1
g2
(lp187
Vsand
p188
atp189
Rp190
(dp191
g12
VNN
p192
sbatp193
Rp194
(dp195
g12
VNP
p196
sbatp197
Rp198
(dp199
g12
VPP
p200
sbatp201
Rp202
(dp203
g12
VNP
p204
sbatp205
Rp206
(dp207
g12
VVP
p208
sbatp209
Rp210
(dp211
g12
VVP
p212
sbatp213
Rp214
(dp215
g12
VS
p216
sbag0
(g1
g2
(lp217
V.
p218
atp219
Rp220
(dp221
g12
V.
p222
sbatp223
Rp224
(dp225
g12
VS
p226
sbatp227
Rp228
(dp229
g12
S'id: 1'
p230
sbag0
(g1
g2
(lp231
g0
(g1
g2
(lp232
g0
(g1
g2
(lp233
Vand
p234
atp235
Rp236
(dp237
g12
VCC
p238
sbag0
(g1
g2
(lp239
g0
(g1
g2
(lp240
Vthat
p241
atp242
Rp243
(dp244
g12
VDT
p245
sbatp246
Rp247
(dp248
g12
VNP
p249
sbag0
(g1
g2
(lp250
g0
(g1
g2
(lp251
V's
p252
atp253
Rp254
(dp255
g12
VVBZ
p256
sbag0
(g1
g2
(lp257
g0
(g1
g2
(lp258
Vappell
p259
atp260
Rp261
(dp262
g12
VNN
p263
sbatp264
Rp265
(dp266
g12
VNP
p267
sbatp268
Rp269
(dp270
g12
VVP
p271
sbag0
(g1
g2
(lp272
V.
p273
atp274
Rp275
(dp276
g12
V.
p277
sbatp278
Rp279
(dp280
g12
VS
p281
sbatp282
Rp283
(dp284
g12
S'id: 2'
p285
sbag0
(g1
g2
(lp286
g0
(g1
g2
(lp287
g0
(g1
g2
(lp288
VAnd
p289
atp290
Rp291
(dp292
g12
VCC
p293
sbag0
(g1
g2
(lp294
g0
(g1
g2
(lp295
Vthat
p296
atp297
Rp298
(dp299
g12
VDT
p300
sbatp301
Rp302
(dp303
g12
VNP
p304
sbag0
(g1
g2
(lp305
g0
(g1
g2
(lp306
V's
p307
atp308
Rp309
(dp310
g12
VVBZ
p311
sbag0
(g1
g2
(lp312
g0
(g1
g2
(lp313
g0
(g1
g2
(lp314
Vc-a-t-e-n
p315
atp316
Rp317
(dp318
g12
VNN
p319
sbatp320
Rp321
(dp322
g12
VNP
p323
sbag0
(g1
g2
(lp324
V,
p325
atp326
Rp327
(dp328
g12
V,
p329
sbag0
(g1
g2
(lp330
g0
(g1
g2
(lp331
Vabanden
p332
atp333
Rp334
(dp335
g12
VNN
p336
sbatp337
Rp338
(dp339
g12
VNP
p340
sbatp341
Rp342
(dp343
g12
VNP
p344
sbatp345
Rp346
(dp347
g12
VVP
p348
sbag0
(g1
g2
(lp349
V.
p350
atp351
Rp352
(dp353
g12
V.
p354
sbatp355
Rp356
(dp357
g12
VS
p358
sbatp359
Rp360
(dp361
g12
S'id: 3'
p362
sbag0
(g1
g2
(lp363
g0
(g1
g2
(lp364
g0
(g1
g2
(lp365
VAnd
p366
atp367
Rp368
(dp369
g12
VCC
p370
sbag0
(g1
g2
(lp371
g0
(g1
g2
(lp372
Vthat
p373
atp374
Rp375
(dp376
g12
VDT
p377
sbatp378
Rp379
(dp380
g12
VNP
p381
sbag0
(g1
g2
(lp382
g0
(g1
g2
(lp383
V's
p384
atp385
Rp386
(dp387
g12
VVBZ
p388
sbag0
(g1
g2
(lp389
g0
(g1
g2
(lp390
g0
(g1
g2
(lp391
Va
p392
atp393
Rp394
(dp395
g12
VDT
p396
sbatp397
Rp398
(dp399
g12
VNP
p400
sbag0
(g1
g2
(lp401
V,
p402
atp403
Rp404
(dp405
g12
V,
p406
sbag0
(g1
g2
(lp407
g0
(g1
g2
(lp408
g0
(g1
g2
(lp409
Vthat
p410
atp411
Rp412
(dp413
g12
VDT
p414
sbatp415
Rp416
(dp417
g12
VWHNP
p418
sbag0
(g1
g2
(lp419
g0
(g1
g2
(lp420
g0
(g1
g2
(lp421
V's
p422
atp423
Rp424
(dp425
g12
VVBZ
p426
sbag0
(g1
g2
(lp427
g0
(g1
g2
(lp428
g0
(g1
g2
(lp429
Va
p430
atp431
Rp432
(dp433
g12
VDT
p434
sbatp435
Rp436
(dp437
g12
VNP
p438
sbag0
(g1
g2
(lp439
V,
p440
atp441
Rp442
(dp443
g12
V,
p444
sbag0
(g1
g2
(lp445
g0
(g1
g2
(lp446
g0
(g1
g2
(lp447
Vthat
p448
atp449
Rp450
(dp451
g12
VDT
p452
sbatp453
Rp454
(dp455
g12
VWHNP
p456
sbag0
(g1
g2
(lp457
g0
(g1
g2
(lp458
g0
(g1
g2
(lp459
V's
p460
atp461
Rp462
(dp463
g12
VVBZ
p464
sbag0
(g1
g2
(lp465
g0
(g1
g2
(lp466
g0
(g1
g2
(lp467
Va
p468
atp469
Rp470
(dp471
g12
VDT
p472
sbatp473
Rp474
(dp475
g12
VNP
p476
sbag0
(g1
g2
(lp477
V,
p478
atp479
Rp480
(dp481
g12
V,
p482
sbag0
(g1
g2
(lp483
Vlittle
p484
atp485
Rp486
(dp487
g12
VJJ
p488
sbag0
(g1
g2
(lp489
Vman
p490
atp491
Rp492
(dp493
g12
VNN
p494
sbatp495
Rp496
(dp497
g12
VNP
p498
sbag0
(g1
g2
(lp499
g0
(g1
g2
(lp500
Vthere
p501
atp502
Rp503
(dp504
g12
VRB
p505
sbatp506
Rp507
(dp508
g12
VADVP
p509
sbatp510
Rp511
(dp512
g12
VVP
p513
sbatp514
Rp515
(dp516
g12
VS
p517
sbatp518
Rp519
(dp520
g12
VSBAR
p521
sbatp522
Rp523
(dp524
g12
VNP
p525
sbatp526
Rp527
(dp528
g12
VVP
p529
sbatp530
Rp531
(dp532
g12
VS
p533
sbatp534
Rp535
(dp536
g12
VSBAR
p537
sbatp538
Rp539
(dp540
g12
VNP
p541
sbatp542
Rp543
(dp544
g12
VVP
p545
sbag0
(g1
g2
(lp546
V.
p547
atp548
Rp549
(dp550
g12
V.
p551
sbatp552
Rp553
(dp554
g12
VS
p555
sbatp556
Rp557
(dp558
g12
S'id: 4'
p559
sbag0
(g1
g2
(lp560
g0
(g1
g2
(lp561
g0
(g1
g2
(lp562
g0
(g1
g2
(lp563
Vhe
p564
atp565
Rp566
(dp567
g12
VPRP
p568
sbatp569
Rp570
(dp571
g12
VNP
p572
sbag0
(g1
g2
(lp573
g0
(g1
g2
(lp574
V's
p575
atp576
Rp577
(dp578
g12
VVBZ
p579
sbag0
(g1
g2
(lp580
g0
(g1
g2
(lp581
Vactually
p582
atp583
Rp584
(dp585
g12
VRB
p586
sbatp587
Rp588
(dp589
g12
VADVP
p590
sbag0
(g1
g2
(lp591
g0
(g1
g2
(lp592
Va
p593
atp594
Rp595
(dp596
g12
VDT
p597
sbag0
(g1
g2
(lp598
Vbigger
p599
atp600
Rp601
(dp602
g12
VJJR
p603
sbag0
(g1
g2
(lp604
Vman
p605
atp606
Rp607
(dp608
g12
VNN
p609
sbatp610
Rp611
(dp612
g12
VNP
p613
sbatp614
Rp615
(dp616
g12
VVP
p617
sbag0
(g1
g2
(lp618
V.
p619
atp620
Rp621
(dp622
g12
V.
p623
sbatp624
Rp625
(dp626
g12
VS
p627
sbatp628
Rp629
(dp630
g12
S'id: 5'
p631
sbag0
(g1
g2
(lp632
g0
(g1
g2
(lp633
g0
(g1
g2
(lp634
Vand
p635
atp636
Rp637
(dp638
g12
VCC
p639
sbag0
(g1
g2
(lp640
g0
(g1
g2
(lp641
Vthat
p642
atp643
Rp644
(dp645
g12
VDT
p646
sbatp647
Rp648
(dp649
g12
VNP
p650
sbag0
(g1
g2
(lp651
g0
(g1
g2
(lp652
V's
p653
atp654
Rp655
(dp656
g12
VVBZ
p657
sbag0
(g1
g2
(lp658
g0
(g1
g2
(lp659
g0
(g1
g2
(lp660
Vki
p661
atp662
Rp663
(dp664
g12
VNN
p665
sbatp666
Rp667
(dp668
g12
VNP
p669
sbag0
(g1
g2
(lp670
V,
p671
atp672
Rp673
(dp674
g12
V,
p675
sbag0
(g1
g2
(lp676
g0
(g1
g2
(lp677
Vkite
p678
atp679
Rp680
(dp681
g12
VNN
p682
sbatp683
Rp684
(dp685
g12
VNP
p686
sbatp687
Rp688
(dp689
g12
VNP
p690
sbatp691
Rp692
(dp693
g12
VVP
p694
sbag0
(g1
g2
(lp695
V.
p696
atp697
Rp698
(dp699
g12
V.
p700
sbatp701
Rp702
(dp703
g12
VS
p704
sbatp705
Rp706
(dp707
g12
S'id: 6'
p708
sbag0
(g1
g2
(lp709
g0
(g1
g2
(lp710
g0
(g1
g2
(lp711
Vand
p712
atp713
Rp714
(dp715
g12
VCC
p716
sbag0
(g1
g2
(lp717
g0
(g1
g2
(lp718
Vthat
p719
atp720
Rp721
(dp722
g12
VDT
p723
sbatp724
Rp725
(dp726
g12
VNP
p727
sbag0
(g1
g2
(lp728
g0
(g1
g2
(lp729
V's
p730
atp731
Rp732
(dp733
g12
VVBZ
p734
sbag0
(g1
g2
(lp735
g0
(g1
g2
(lp736
Vhis
p737
atp738
Rp739
(dp740
g12
VPRP$
p741
sbag0
(g1
g2
(lp742
Vdog
p743
atp744
Rp745
(dp746
g12
VNN
p747
sbatp748
Rp749
(dp750
g12
VNP
p751
sbatp752
Rp753
(dp754
g12
VVP
p755
sbag0
(g1
g2
(lp756
V.
p757
atp758
Rp759
(dp760
g12
V.
p761
sbatp762
Rp763
(dp764
g12
VS
p765
sbatp766
Rp767
(dp768
g12
S'id: 7'
p769
sbag0
(g1
g2
(lp770
g0
(g1
g2
(lp771
g0
(g1
g2
(lp772
g0
(g1
g2
(lp773
Vand
p774
atp775
Rp776
(dp777
g12
VCC
p778
sbag0
(g1
g2
(lp779
g0
(g1
g2
(lp780
Vthat
p781
atp782
Rp783
(dp784
g12
VDT
p785
sbatp786
Rp787
(dp788
g12
VNP
p789
sbag0
(g1
g2
(lp790
g0
(g1
g2
(lp791
V's
p792
atp793
Rp794
(dp795
g12
VVBZ
p796
sbag0
(g1
g2
(lp797
g0
(g1
g2
(lp798
Vhis
p799
atp800
Rp801
(dp802
g12
VPRP$
p803
sbag0
(g1
g2
(lp804
Vmom
p805
atp806
Rp807
(dp808
g12
VNN
p809
sbatp810
Rp811
(dp812
g12
VNP
p813
sbatp814
Rp815
(dp816
g12
VVP
p817
sbatp818
Rp819
(dp820
g12
VS
p821
sbag0
(g1
g2
(lp822
V,
p823
atp824
Rp825
(dp826
g12
V,
p827
sbag0
(g1
g2
(lp828
g0
(g1
g2
(lp829
Vthat
p830
atp831
Rp832
(dp833
g12
VDT
p834
sbatp835
Rp836
(dp837
g12
VNP
p838
sbag0
(g1
g2
(lp839
g0
(g1
g2
(lp840
V's
p841
atp842
Rp843
(dp844
g12
VVBZ
p845
sbag0
(g1
g2
(lp846
g0
(g1
g2
(lp847
Vhis
p848
atp849
Rp850
(dp851
g12
VPRP$
p852
sbag0
(g1
g2
(lp853
Vdad
p854
atp855
Rp856
(dp857
g12
VNN
p858
sbatp859
Rp860
(dp861
g12
VNP
p862
sbatp863
Rp864
(dp865
g12
VVP
p866
sbag0
(g1
g2
(lp867
V.
p868
atp869
Rp870
(dp871
g12
V.
p872
sbatp873
Rp874
(dp875
g12
VS
p876
sbatp877
Rp878
(dp879
g12
S'id: 8'
p880
sbag0
(g1
g2
(lp881
g0
(g1
g2
(lp882
g0
(g1
g2
(lp883
g0
(g1
g2
(lp884
g0
(g1
g2
(lp885
Vthere
p886
atp887
Rp888
(dp889
g12
VEX
p890
sbatp891
Rp892
(dp893
g12
VNP
p894
sbag0
(g1
g2
(lp895
g0
(g1
g2
(lp896
V's
p897
atp898
Rp899
(dp900
g12
VVBZ
p901
sbag0
(g1
g2
(lp902
g0
(g1
g2
(lp903
g0
(g1
g2
(lp904
Vshoes
p905
atp906
Rp907
(dp908
g12
VNNS
p909
sbatp910
Rp911
(dp912
g12
VNP
p913
sbag0
(g1
g2
(lp914
V,
p915
atp916
Rp917
(dp918
g12
V,
p919
sbag0
(g1
g2
(lp920
Vand
p921
atp922
Rp923
(dp924
g12
VCC
p925
sbag0
(g1
g2
(lp926
g0
(g1
g2
(lp927
Vthe
p928
atp929
Rp930
(dp931
g12
VDT
p932
sbag0
(g1
g2
(lp933
Vman
p934
atp935
Rp936
(dp937
g12
VNN
p938
sbatp939
Rp940
(dp941
g12
VNP
p942
sbatp943
Rp944
(dp945
g12
VNP
p946
sbatp947
Rp948
(dp949
g12
VVP
p950
sbatp951
Rp952
(dp953
g12
VS
p954
sbag0
(g1
g2
(lp955
V,
p956
atp957
Rp958
(dp959
g12
V,
p960
sbag0
(g1
g2
(lp961
g0
(g1
g2
(lp962
g0
(g1
g2
(lp963
Vthere
p964
atp965
Rp966
(dp967
g12
VEX
p968
sbatp969
Rp970
(dp971
g12
VNP
p972
sbag0
(g1
g2
(lp973
g0
(g1
g2
(lp974
g0
(g1
g2
(lp975
Vout
p976
atp977
Rp978
(dp979
g12
VRP
p980
sbatp981
Rp982
(dp983
g12
VADVP
p984
sbatp985
Rp986
(dp987
g12
VVP
p988
sbatp989
Rp990
(dp991
g12
VS
p992
sbag0
(g1
g2
(lp993
V.
p994
atp995
Rp996
(dp997
g12
V.
p998
sbatp999
Rp1000
(dp1001
g12
VS
p1002
sbatp1003
Rp1004
(dp1005
g12
S'id: 9'
p1006
sbag0
(g1
g2
(lp1007
g0
(g1
g2
(lp1008
g0
(g1
g2
(lp1009
g0
(g1
g2
(lp1010
Vand
p1011
atp1012
Rp1013
(dp1014
g12
VCC
p1015
sbag0
(g1
g2
(lp1016
g0
(g1
g2
(lp1017
Vthat
p1018
atp1019
Rp1020
(dp1021
g12
VDT
p1022
sbatp1023
Rp1024
(dp1025
g12
VNP
p1026
sbag0
(g1
g2
(lp1027
g0
(g1
g2
(lp1028
V's
p1029
atp1030
Rp1031
(dp1032
g12
VVBZ
p1033
sbag0
(g1
g2
(lp1034
g0
(g1
g2
(lp1035
Vhis
p1036
atp1037
Rp1038
(dp1039
g12
VPRP$
p1040
sbag0
(g1
g2
(lp1041
Vwoman
p1042
atp1043
Rp1044
(dp1045
g12
VNN
p1046
sbatp1047
Rp1048
(dp1049
g12
VNP
p1050
sbatp1051
Rp1052
(dp1053
g12
VVP
p1054
sbatp1055
Rp1056
(dp1057
g12
VS
p1058
sbag0
(g1
g2
(lp1059
V,
p1060
atp1061
Rp1062
(dp1063
g12
V,
p1064
sbag0
(g1
g2
(lp1065
Vand
p1066
atp1067
Rp1068
(dp1069
g12
VCC
p1070
sbag0
(g1
g2
(lp1071
g0
(g1
g2
(lp1072
g0
(g1
g2
(lp1073
Vshe
p1074
atp1075
Rp1076
(dp1077
g12
VPRP
p1078
sbatp1079
Rp1080
(dp1081
g12
VNP
p1082
sbag0
(g1
g2
(lp1083
g0
(g1
g2
(lp1084
V's
p1085
atp1086
Rp1087
(dp1088
g12
VVBZ
p1089
sbag0
(g1
g2
(lp1090
g0
(g1
g2
(lp1091
Vgot
p1092
atp1093
Rp1094
(dp1095
g12
VVBD
p1096
sbag0
(g1
g2
(lp1097
g0
(g1
g2
(lp1098
Vher
p1099
atp1100
Rp1101
(dp1102
g12
VPRP$
p1103
sbag0
(g1
g2
(lp1104
Vkids
p1105
atp1106
Rp1107
(dp1108
g12
VNNS
p1109
sbatp1110
Rp1111
(dp1112
g12
VNP
p1113
sbag0
(g1
g2
(lp1114
g0
(g1
g2
(lp1115
Vout
p1116
atp1117
Rp1118
(dp1119
g12
VIN
p1120
sbag0
(g1
g2
(lp1121
Vthere
p1122
atp1123
Rp1124
(dp1125
g12
VRB
p1126
sbatp1127
Rp1128
(dp1129
g12
VADVP
p1130
sbag0
(g1
g2
(lp1131
g0
(g1
g2
(lp1132
Vthat
p1133
atp1134
Rp1135
(dp1136
g12
VIN
p1137
sbag0
(g1
g2
(lp1138
g0
(g1
g2
(lp1139
g0
(g1
g2
(lp1140
Vshe
p1141
atp1142
Rp1143
(dp1144
g12
VPRP
p1145
sbatp1146
Rp1147
(dp1148
g12
VNP
p1149
sbag0
(g1
g2
(lp1150
g0
(g1
g2
(lp1151
V's
p1152
atp1153
Rp1154
(dp1155
g12
VVBZ
p1156
sbag0
(g1
g2
(lp1157
g0
(g1
g2
(lp1158
Vsitting
p1159
atp1160
Rp1161
(dp1162
g12
VVBG
p1163
sbatp1164
Rp1165
(dp1166
g12
VVP
p1167
sbatp1168
Rp1169
(dp1170
g12
VVP
p1171
sbatp1172
Rp1173
(dp1174
g12
VS
p1175
sbatp1176
Rp1177
(dp1178
g12
VSBAR
p1179
sbatp1180
Rp1181
(dp1182
g12
VVP
p1183
sbatp1184
Rp1185
(dp1186
g12
VVP
p1187
sbatp1188
Rp1189
(dp1190
g12
VS
p1191
sbag0
(g1
g2
(lp1192
V.
p1193
atp1194
Rp1195
(dp1196
g12
V.
p1197
sbatp1198
Rp1199
(dp1200
g12
VS
p1201
sbatp1202
Rp1203
(dp1204
g12
S'id: 10'
p1205
sbag0
(g1
g2
(lp1206
g0
(g1
g2
(lp1207
g0
(g1
g2
(lp1208
Vand
p1209
atp1210
Rp1211
(dp1212
g12
VCC
p1213
sbag0
(g1
g2
(lp1214
g0
(g1
g2
(lp1215
Vthat
p1216
atp1217
Rp1218
(dp1219
g12
VDT
p1220
sbatp1221
Rp1222
(dp1223
g12
VNP
p1224
sbag0
(g1
g2
(lp1225
g0
(g1
g2
(lp1226
V's
p1227
atp1228
Rp1229
(dp1230
g12
VVBZ
p1231
sbag0
(g1
g2
(lp1232
g0
(g1
g2
(lp1233
Vpicnic
p1234
atp1235
Rp1236
(dp1237
g12
VNN
p1238
sbatp1239
Rp1240
(dp1241
g12
VNP
p1242
sbatp1243
Rp1244
(dp1245
g12
VVP
p1246
sbag0
(g1
g2
(lp1247
V.
p1248
atp1249
Rp1250
(dp1251
g12
V.
p1252
sbatp1253
Rp1254
(dp1255
g12
VS
p1256
sbatp1257
Rp1258
(dp1259
g12
S'id: 11'
p1260
sbag0
(g1
g2
(lp1261
g0
(g1
g2
(lp1262
g0
(g1
g2
(lp1263
Vand
p1264
atp1265
Rp1266
(dp1267
g12
VCC
p1268
sbag0
(g1
g2
(lp1269
g0
(g1
g2
(lp1270
Vthat
p1271
atp1272
Rp1273
(dp1274
g12
VDT
p1275
sbatp1276
Rp1277
(dp1278
g12
VNP
p1279
sbag0
(g1
g2
(lp1280
g0
(g1
g2
(lp1281
V's
p1282
atp1283
Rp1284
(dp1285
g12
VVBZ
p1286
sbag0
(g1
g2
(lp1287
g0
(g1
g2
(lp1288
Vin
p1289
atp1290
Rp1291
(dp1292
g12
VIN
p1293
sbag0
(g1
g2
(lp1294
g0
(g1
g2
(lp1295
Va
p1296
atp1297
Rp1298
(dp1299
g12
VDT
p1300
sbag0
(g1
g2
(lp1301
Vbutton
p1302
atp1303
Rp1304
(dp1305
g12
VNN
p1306
sbatp1307
Rp1308
(dp1309
g12
VNP
p1310
sbatp1311
Rp1312
(dp1313
g12
VPP
p1314
sbatp1315
Rp1316
(dp1317
g12
VVP
p1318
sbag0
(g1
g2
(lp1319
V.
p1320
atp1321
Rp1322
(dp1323
g12
V.
p1324
sbatp1325
Rp1326
(dp1327
g12
VS
p1328
sbatp1329
Rp1330
(dp1331
g12
S'id: 12'
p1332
sbag0
(g1
g2
(lp1333
g0
(g1
g2
(lp1334
g0
(g1
g2
(lp1335
g0
(g1
g2
(lp1336
Vand
p1337
atp1338
Rp1339
(dp1340
g12
VCC
p1341
sbag0
(g1
g2
(lp1342
g0
(g1
g2
(lp1343
Vthat
p1344
atp1345
Rp1346
(dp1347
g12
VDT
p1348
sbatp1349
Rp1350
(dp1351
g12
VNP
p1352
sbag0
(g1
g2
(lp1353
g0
(g1
g2
(lp1354
V's
p1355
atp1356
Rp1357
(dp1358
g12
VVBZ
p1359
sbag0
(g1
g2
(lp1360
g0
(g1
g2
(lp1361
Vin
p1362
atp1363
Rp1364
(dp1365
g12
VIN
p1366
sbag0
(g1
g2
(lp1367
g0
(g1
g2
(lp1368
Vthe
p1369
atp1370
Rp1371
(dp1372
g12
VDT
p1373
sbag0
(g1
g2
(lp1374
Vwine
p1375
atp1376
Rp1377
(dp1378
g12
VNN
p1379
sbatp1380
Rp1381
(dp1382
g12
VNP
p1383
sbatp1384
Rp1385
(dp1386
g12
VPP
p1387
sbatp1388
Rp1389
(dp1390
g12
VVP
p1391
sbatp1392
Rp1393
(dp1394
g12
VS
p1395
sbag0
(g1
g2
(lp1396
V,
p1397
atp1398
Rp1399
(dp1400
g12
V,
p1401
sbag0
(g1
g2
(lp1402
g0
(g1
g2
(lp1403
Vthat
p1404
atp1405
Rp1406
(dp1407
g12
VDT
p1408
sbatp1409
Rp1410
(dp1411
g12
VNP
p1412
sbag0
(g1
g2
(lp1413
g0
(g1
g2
(lp1414
V's
p1415
atp1416
Rp1417
(dp1418
g12
VVBZ
p1419
sbag0
(g1
g2
(lp1420
g0
(g1
g2
(lp1421
Vtheir
p1422
atp1423
Rp1424
(dp1425
g12
VPRP$
p1426
sbag0
(g1
g2
(lp1427
Vwater
p1428
atp1429
Rp1430
(dp1431
g12
VNN
p1432
sbatp1433
Rp1434
(dp1435
g12
VNP
p1436
sbag0
(g1
g2
(lp1437
V,
p1438
atp1439
Rp1440
(dp1441
g12
V,
p1442
sbag0
(g1
g2
(lp1443
g0
(g1
g2
(lp1444
g0
(g1
g2
(lp1445
Vgiving
p1446
atp1447
Rp1448
(dp1449
g12
VVBG
p1450
sbag0
(g1
g2
(lp1451
g0
(g1
g2
(lp1452
Vthem
p1453
atp1454
Rp1455
(dp1456
g12
VPRP
p1457
sbatp1458
Rp1459
(dp1460
g12
VNP
p1461
sbag0
(g1
g2
(lp1462
g0
(g1
g2
(lp1463
Vsomething
p1464
atp1465
Rp1466
(dp1467
g12
VNN
p1468
sbag0
(g1
g2
(lp1469
g0
(g1
g2
(lp1470
g0
(g1
g2
(lp1471
Vto
p1472
atp1473
Rp1474
(dp1475
g12
VTO
p1476
sbag0
(g1
g2
(lp1477
g0
(g1
g2
(lp1478
Vdrink
p1479
atp1480
Rp1481
(dp1482
g12
VVB
p1483
sbatp1484
Rp1485
(dp1486
g12
VVP
p1487
sbatp1488
Rp1489
(dp1490
g12
VVP
p1491
sbatp1492
Rp1493
(dp1494
g12
VS
p1495
sbatp1496
Rp1497
(dp1498
g12
VNP
p1499
sbatp1500
Rp1501
(dp1502
g12
VVP
p1503
sbatp1504
Rp1505
(dp1506
g12
VS
p1507
sbatp1508
Rp1509
(dp1510
g12
VVP
p1511
sbag0
(g1
g2
(lp1512
V.
p1513
atp1514
Rp1515
(dp1516
g12
V.
p1517
sbatp1518
Rp1519
(dp1520
g12
VS
p1521
sbatp1522
Rp1523
(dp1524
g12
S'id: 13'
p1525
sbag0
(g1
g2
(lp1526
g0
(g1
g2
(lp1527
g0
(g1
g2
(lp1528
Vand
p1529
atp1530
Rp1531
(dp1532
g12
VCC
p1533
sbag0
(g1
g2
(lp1534
g0
(g1
g2
(lp1535
Vthat
p1536
atp1537
Rp1538
(dp1539
g12
VDT
p1540
sbatp1541
Rp1542
(dp1543
g12
VNP
p1544
sbag0
(g1
g2
(lp1545
g0
(g1
g2
(lp1546
V's
p1547
atp1548
Rp1549
(dp1550
g12
VVBZ
p1551
sbag0
(g1
g2
(lp1552
g0
(g1
g2
(lp1553
g0
(g1
g2
(lp1554
Va
p1555
atp1556
Rp1557
(dp1558
g12
VDT
p1559
sbag0
(g1
g2
(lp1560
Vp-o-o-k
p1561
atp1562
Rp1563
(dp1564
g12
VNN
p1565
sbatp1566
Rp1567
(dp1568
g12
VNP
p1569
sbag0
(g1
g2
(lp1570
V,
p1571
atp1572
Rp1573
(dp1574
g12
V,
p1575
sbag0
(g1
g2
(lp1576
g0
(g1
g2
(lp1577
g0
(g1
g2
(lp1578
Vbook
p1579
atp1580
Rp1581
(dp1582
g12
VNN
p1583
sbatp1584
Rp1585
(dp1586
g12
VNP
p1587
sbag0
(g1
g2
(lp1588
V,
p1589
atp1590
Rp1591
(dp1592
g12
V,
p1593
sbag0
(g1
g2
(lp1594
g0
(g1
g2
(lp1595
Va
p1596
atp1597
Rp1598
(dp1599
g12
VDT
p1600
sbag0
(g1
g2
(lp1601
Vbook
p1602
atp1603
Rp1604
(dp1605
g12
VNN
p1606
sbatp1607
Rp1608
(dp1609
g12
VNP
p1610
sbatp1611
Rp1612
(dp1613
g12
VNP
p1614
sbatp1615
Rp1616
(dp1617
g12
VNP
p1618
sbatp1619
Rp1620
(dp1621
g12
VVP
p1622
sbag0
(g1
g2
(lp1623
V.
p1624
atp1625
Rp1626
(dp1627
g12
V.
p1628
sbatp1629
Rp1630
(dp1631
g12
VS
p1632
sbatp1633
Rp1634
(dp1635
g12
S'id: 14'
p1636
sbag0
(g1
g2
(lp1637
g0
(g1
g2
(lp1638
g0
(g1
g2
(lp1639
Vand
p1640
atp1641
Rp1642
(dp1643
g12
VCC
p1644
sbag0
(g1
g2
(lp1645
g0
(g1
g2
(lp1646
Vthere
p1647
atp1648
Rp1649
(dp1650
g12
VEX
p1651
sbatp1652
Rp1653
(dp1654
g12
VNP
p1655
sbag0
(g1
g2
(lp1656
g0
(g1
g2
(lp1657
V's
p1658
atp1659
Rp1660
(dp1661
g12
VVBZ
p1662
sbag0
(g1
g2
(lp1663
g0
(g1
g2
(lp1664
Vhis
p1665
atp1666
Rp1667
(dp1668
g12
VPRP$
p1669
sbag0
(g1
g2
(lp1670
Veyes
p1671
atp1672
Rp1673
(dp1674
g12
VNNS
p1675
sbatp1676
Rp1677
(dp1678
g12
VNP
p1679
sbatp1680
Rp1681
(dp1682
g12
VVP
p1683
sbag0
(g1
g2
(lp1684
V.
p1685
atp1686
Rp1687
(dp1688
g12
V.
p1689
sbatp1690
Rp1691
(dp1692
g12
VS
p1693
sbatp1694
Rp1695
(dp1696
g12
S'id: 15'
p1697
sbag0
(g1
g2
(lp1698
g0
(g1
g2
(lp1699
g0
(g1
g2
(lp1700
Vand
p1701
atp1702
Rp1703
(dp1704
g12
VCC
p1705
sbag0
(g1
g2
(lp1706
g0
(g1
g2
(lp1707
Vthere
p1708
atp1709
Rp1710
(dp1711
g12
VEX
p1712
sbatp1713
Rp1714
(dp1715
g12
VNP
p1716
sbag0
(g1
g2
(lp1717
g0
(g1
g2
(lp1718
V's
p1719
atp1720
Rp1721
(dp1722
g12
VVBZ
p1723
sbag0
(g1
g2
(lp1724
g0
(g1
g2
(lp1725
g0
(g1
g2
(lp1726
Va
p1727
atp1728
Rp1729
(dp1730
g12
VDT
p1731
sbag0
(g1
g2
(lp1732
Vman
p1733
atp1734
Rp1735
(dp1736
g12
VNN
p1737
sbatp1738
Rp1739
(dp1740
g12
VNP
p1741
sbag0
(g1
g2
(lp1742
g0
(g1
g2
(lp1743
Vin
p1744
atp1745
Rp1746
(dp1747
g12
VIN
p1748
sbag0
(g1
g2
(lp1749
g0
(g1
g2
(lp1750
Vthe
p1751
atp1752
Rp1753
(dp1754
g12
VDT
p1755
sbag0
(g1
g2
(lp1756
Vfish
p1757
atp1758
Rp1759
(dp1760
g12
VNN
p1761
sbatp1762
Rp1763
(dp1764
g12
VNP
p1765
sbatp1766
Rp1767
(dp1768
g12
VPP
p1769
sbatp1770
Rp1771
(dp1772
g12
VNP
p1773
sbatp1774
Rp1775
(dp1776
g12
VVP
p1777
sbag0
(g1
g2
(lp1778
V.
p1779
atp1780
Rp1781
(dp1782
g12
V.
p1783
sbatp1784
Rp1785
(dp1786
g12
VS
p1787
sbatp1788
Rp1789
(dp1790
g12
S'id: 16'
p1791
sbag0
(g1
g2
(lp1792
g0
(g1
g2
(lp1793
g0
(g1
g2
(lp1794
g0
(g1
g2
(lp1795
Vand
p1796
atp1797
Rp1798
(dp1799
g12
VCC
p1800
sbag0
(g1
g2
(lp1801
g0
(g1
g2
(lp1802
Vthere
p1803
atp1804
Rp1805
(dp1806
g12
VEX
p1807
sbatp1808
Rp1809
(dp1810
g12
VNP
p1811
sbag0
(g1
g2
(lp1812
g0
(g1
g2
(lp1813
V's
p1814
atp1815
Rp1816
(dp1817
g12
VVBZ
p1818
sbag0
(g1
g2
(lp1819
g0
(g1
g2
(lp1820
g0
(g1
g2
(lp1821
Va
p1822
atp1823
Rp1824
(dp1825
g12
VDT
p1826
sbag0
(g1
g2
(lp1827
Vboat
p1828
atp1829
Rp1830
(dp1831
g12
VNN
p1832
sbatp1833
Rp1834
(dp1835
g12
VNP
p1836
sbag0
(g1
g2
(lp1837
g0
(g1
g2
(lp1838
Vin
p1839
atp1840
Rp1841
(dp1842
g12
VIN
p1843
sbag0
(g1
g2
(lp1844
g0
(g1
g2
(lp1845
Vthe
p1846
atp1847
Rp1848
(dp1849
g12
VDT
p1850
sbatp1851
Rp1852
(dp1853
g12
VNP
p1854
sbatp1855
Rp1856
(dp1857
g12
VPP
p1858
sbatp1859
Rp1860
(dp1861
g12
VNP
p1862
sbatp1863
Rp1864
(dp1865
g12
VVP
p1866
sbatp1867
Rp1868
(dp1869
g12
VS
p1870
sbag0
(g1
g2
(lp1871
g0
(g1
g2
(lp1872
V,
p1873
atp1874
Rp1875
(dp1876
g12
V,
p1877
sbag0
(g1
g2
(lp1878
g0
(g1
g2
(lp1879
g0
(g1
g2
(lp1880
Vit
p1881
atp1882
Rp1883
(dp1884
g12
VPRP
p1885
sbatp1886
Rp1887
(dp1888
g12
VNP
p1889
sbag0
(g1
g2
(lp1890
g0
(g1
g2
(lp1891
V's
p1892
atp1893
Rp1894
(dp1895
g12
VVBZ
p1896
sbag0
(g1
g2
(lp1897
g0
(g1
g2
(lp1898
g0
(g1
g2
(lp1899
Vthat
p1900
atp1901
Rp1902
(dp1903
g12
VDT
p1904
sbatp1905
Rp1906
(dp1907
g12
VWHNP
p1908
sbag0
(g1
g2
(lp1909
g0
(g1
g2
(lp1910
g0
(g1
g2
(lp1911
V's
p1912
atp1913
Rp1914
(dp1915
g12
VVBZ
p1916
sbag0
(g1
g2
(lp1917
g0
(g1
g2
(lp1918
Vin
p1919
atp1920
Rp1921
(dp1922
g12
VIN
p1923
sbag0
(g1
g2
(lp1924
g0
(g1
g2
(lp1925
g0
(g1
g2
(lp1926
Va
p1927
atp1928
Rp1929
(dp1930
g12
VDT
p1931
sbag0
(g1
g2
(lp1932
Vsail
p1933
atp1934
Rp1935
(dp1936
g12
VNN
p1937
sbatp1938
Rp1939
(dp1940
g12
VNP
p1941
sbag0
(g1
g2
(lp1942
V,
p1943
atp1944
Rp1945
(dp1946
g12
V,
p1947
sbag0
(g1
g2
(lp1948
g0
(g1
g2
(lp1949
Vsailing
p1950
atp1951
Rp1952
(dp1953
g12
VNN
p1954
sbatp1955
Rp1956
(dp1957
g12
VNP
p1958
sbatp1959
Rp1960
(dp1961
g12
VNP
p1962
sbatp1963
Rp1964
(dp1965
g12
VPP
p1966
sbatp1967
Rp1968
(dp1969
g12
VVP
p1970
sbatp1971
Rp1972
(dp1973
g12
VS
p1974
sbatp1975
Rp1976
(dp1977
g12
VSBAR
p1978
sbatp1979
Rp1980
(dp1981
g12
VVP
p1982
sbatp1983
Rp1984
(dp1985
g12
VS
p1986
sbag0
(g1
g2
(lp1987
V,
p1988
atp1989
Rp1990
(dp1991
g12
V,
p1992
sbatp1993
Rp1994
(dp1995
g12
VPRN
p1996
sbag0
(g1
g2
(lp1997
Vand
p1998
atp1999
Rp2000
(dp2001
g12
VCC
p2002
sbag0
(g1
g2
(lp2003
g0
(g1
g2
(lp2004
g0
(g1
g2
(lp2005
Vthat
p2006
atp2007
Rp2008
(dp2009
g12
VDT
p2010
sbatp2011
Rp2012
(dp2013
g12
VNP
p2014
sbag0
(g1
g2
(lp2015
g0
(g1
g2
(lp2016
V's
p2017
atp2018
Rp2019
(dp2020
g12
VVBZ
p2021
sbag0
(g1
g2
(lp2022
g0
(g1
g2
(lp2023
Vin
p2024
atp2025
Rp2026
(dp2027
g12
VIN
p2028
sbag0
(g1
g2
(lp2029
g0
(g1
g2
(lp2030
Vthe
p2031
atp2032
Rp2033
(dp2034
g12
VDT
p2035
sbag0
(g1
g2
(lp2036
Vwater
p2037
atp2038
Rp2039
(dp2040
g12
VNN
p2041
sbatp2042
Rp2043
(dp2044
g12
VNP
p2045
sbatp2046
Rp2047
(dp2048
g12
VPP
p2049
sbatp2050
Rp2051
(dp2052
g12
VVP
p2053
sbatp2054
Rp2055
(dp2056
g12
VS
p2057
sbag0
(g1
g2
(lp2058
V.
p2059
atp2060
Rp2061
(dp2062
g12
V.
p2063
sbatp2064
Rp2065
(dp2066
g12
VS
p2067
sbatp2068
Rp2069
(dp2070
g12
S'id: 17'
p2071
sbag0
(g1
g2
(lp2072
g0
(g1
g2
(lp2073
g0
(g1
g2
(lp2074
g0
(g1
g2
(lp2075
Vthat
p2076
atp2077
Rp2078
(dp2079
g12
VDT
p2080
sbatp2081
Rp2082
(dp2083
g12
VNP
p2084
sbag0
(g1
g2
(lp2085
g0
(g1
g2
(lp2086
V's
p2087
atp2088
Rp2089
(dp2090
g12
VVBZ
p2091
sbag0
(g1
g2
(lp2092
g0
(g1
g2
(lp2093
Vtheir
p2094
atp2095
Rp2096
(dp2097
g12
VPRP$
p2098
sbag0
(g1
g2
(lp2099
Vhouse
p2100
atp2101
Rp2102
(dp2103
g12
VNN
p2104
sbatp2105
Rp2106
(dp2107
g12
VNP
p2108
sbatp2109
Rp2110
(dp2111
g12
VVP
p2112
sbag0
(g1
g2
(lp2113
V.
p2114
atp2115
Rp2116
(dp2117
g12
V.
p2118
sbatp2119
Rp2120
(dp2121
g12
VS
p2122
sbatp2123
Rp2124
(dp2125
g12
S'id: 18'
p2126
sbag0
(g1
g2
(lp2127
g0
(g1
g2
(lp2128
g0
(g1
g2
(lp2129
Vand
p2130
atp2131
Rp2132
(dp2133
g12
VCC
p2134
sbag0
(g1
g2
(lp2135
g0
(g1
g2
(lp2136
Vthere
p2137
atp2138
Rp2139
(dp2140
g12
VEX
p2141
sbatp2142
Rp2143
(dp2144
g12
VNP
p2145
sbag0
(g1
g2
(lp2146
g0
(g1
g2
(lp2147
V's
p2148
atp2149
Rp2150
(dp2151
g12
VVBZ
p2152
sbag0
(g1
g2
(lp2153
g0
(g1
g2
(lp2154
Vtheir
p2155
atp2156
Rp2157
(dp2158
g12
VPRP$
p2159
sbag0
(g1
g2
(lp2160
Vcar
p2161
atp2162
Rp2163
(dp2164
g12
VNN
p2165
sbatp2166
Rp2167
(dp2168
g12
VNP
p2169
sbatp2170
Rp2171
(dp2172
g12
VVP
p2173
sbag0
(g1
g2
(lp2174
V.
p2175
atp2176
Rp2177
(dp2178
g12
V.
p2179
sbatp2180
Rp2181
(dp2182
g12
VS
p2183
sbatp2184
Rp2185
(dp2186
g12
S'id: 19'
p2187
sbag0
(g1
g2
(lp2188
g0
(g1
g2
(lp2189
g0
(g1
g2
(lp2190
Vand
p2191
atp2192
Rp2193
(dp2194
g12
VCC
p2195
sbag0
(g1
g2
(lp2196
g0
(g1
g2
(lp2197
Vthat
p2198
atp2199
Rp2200
(dp2201
g12
VDT
p2202
sbatp2203
Rp2204
(dp2205
g12
VNP
p2206
sbag0
(g1
g2
(lp2207
g0
(g1
g2
(lp2208
V's
p2209
atp2210
Rp2211
(dp2212
g12
VVBZ
p2213
sbag0
(g1
g2
(lp2214
g0
(g1
g2
(lp2215
g0
(g1
g2
(lp2216
Vwhere
p2217
atp2218
Rp2219
(dp2220
g12
VWRB
p2221
sbatp2222
Rp2223
(dp2224
g12
VWHADVP
p2225
sbag0
(g1
g2
(lp2226
g0
(g1
g2
(lp2227
g0
(g1
g2
(lp2228
Vthey
p2229
atp2230
Rp2231
(dp2232
g12
VPRP
p2233
sbatp2234
Rp2235
(dp2236
g12
VNP
p2237
sbag0
(g1
g2
(lp2238
g0
(g1
g2
(lp2239
V're
p2240
atp2241
Rp2242
(dp2243
g12
VVBP
p2244
sbag0
(g1
g2
(lp2245
g0
(g1
g2
(lp2246
Vdriving
p2247
atp2248
Rp2249
(dp2250
g12
VVBG
p2251
sbatp2252
Rp2253
(dp2254
g12
VVP
p2255
sbatp2256
Rp2257
(dp2258
g12
VVP
p2259
sbatp2260
Rp2261
(dp2262
g12
VS
p2263
sbatp2264
Rp2265
(dp2266
g12
VSBAR
p2267
sbatp2268
Rp2269
(dp2270
g12
VVP
p2271
sbag0
(g1
g2
(lp2272
V.
p2273
atp2274
Rp2275
(dp2276
g12
V.
p2277
sbatp2278
Rp2279
(dp2280
g12
VS
p2281
sbatp2282
Rp2283
(dp2284
g12
S'id: 20'
p2285
sbag0
(g1
g2
(lp2286
g0
(g1
g2
(lp2287
g0
(g1
g2
(lp2288
Vand
p2289
atp2290
Rp2291
(dp2292
g12
VCC
p2293
sbag0
(g1
g2
(lp2294
V,
p2295
atp2296
Rp2297
(dp2298
g12
V,
p2299
sbag0
(g1
g2
(lp2300
g0
(g1
g2
(lp2301
Vthere
p2302
atp2303
Rp2304
(dp2305
g12
VEX
p2306
sbatp2307
Rp2308
(dp2309
g12
VNP
p2310
sbag0
(g1
g2
(lp2311
g0
(g1
g2
(lp2312
V's
p2313
atp2314
Rp2315
(dp2316
g12
VVBZ
p2317
sbag0
(g1
g2
(lp2318
g0
(g1
g2
(lp2319
Va
p2320
atp2321
Rp2322
(dp2323
g12
VDT
p2324
sbag0
(g1
g2
(lp2325
Vf-l-a-g
p2326
atp2327
Rp2328
(dp2329
g12
VJJ
p2330
sbag0
(g1
g2
(lp2331
Vflag
p2332
atp2333
Rp2334
(dp2335
g12
VNN
p2336
sbatp2337
Rp2338
(dp2339
g12
VNP
p2340
sbag0
(g1
g2
(lp2341
g0
(g1
g2
(lp2342
g0
(g1
g2
(lp2343
Vup
p2344
atp2345
Rp2346
(dp2347
g12
VRB
p2348
sbatp2349
Rp2350
(dp2351
g12
VADVP
p2352
sbag0
(g1
g2
(lp2353
g0
(g1
g2
(lp2354
Vin
p2355
atp2356
Rp2357
(dp2358
g12
VIN
p2359
sbag0
(g1
g2
(lp2360
g0
(g1
g2
(lp2361
g0
(g1
g2
(lp2362
g0
(g1
g2
(lp2363
Vthe
p2364
atp2365
Rp2366
(dp2367
g12
VDT
p2368
sbag0
(g1
g2
(lp2369
Vair
p2370
atp2371
Rp2372
(dp2373
g12
VNN
p2374
sbatp2375
Rp2376
(dp2377
g12
VNP
p2378
sbag0
(g1
g2
(lp2379
V,
p2380
atp2381
Rp2382
(dp2383
g12
V,
p2384
sbag0
(g1
g2
(lp2385
Vand
p2386
atp2387
Rp2388
(dp2389
g12
VCC
p2390
sbag0
(g1
g2
(lp2391
g0
(g1
g2
(lp2392
Vthis
p2393
atp2394
Rp2395
(dp2396
g12
VDT
p2397
sbag0
(g1
g2
(lp2398
Vman
p2399
atp2400
Rp2401
(dp2402
g12
VNN
p2403
sbatp2404
Rp2405
(dp2406
g12
VNP
p2407
sbag0
(g1
g2
(lp2408
Van
p2409
atp2410
Rp2411
(dp2412
g12
VDT
p2413
sbatp2414
Rp2415
(dp2416
g12
VNP
p2417
sbag0
(g1
g2
(lp2418
g0
(g1
g2
(lp2419
Vis
p2420
atp2421
Rp2422
(dp2423
g12
VVBZ
p2424
sbatp2425
Rp2426
(dp2427
g12
VVP
p2428
sbatp2429
Rp2430
(dp2431
g12
VS
p2432
sbatp2433
Rp2434
(dp2435
g12
VSBAR
p2436
sbag0
(g1
g2
(lp2437
V,
p2438
atp2439
Rp2440
(dp2441
g12
V,
p2442
sbag0
(g1
g2
(lp2443
g0
(g1
g2
(lp2444
Vin
p2445
atp2446
Rp2447
(dp2448
g12
VIN
p2449
sbag0
(g1
g2
(lp2450
g0
(g1
g2
(lp2451
Vthe
p2452
atp2453
Rp2454
(dp2455
g12
VDT
p2456
sbag0
(g1
g2
(lp2457
g0
(g1
g2
(lp2458
g0
(g1
g2
(lp2459
Vup
p2460
atp2461
Rp2462
(dp2463
g12
VRB
p2464
sbag0
(g1
g2
(lp2465
Vhere
p2466
atp2467
Rp2468
(dp2469
g12
VRB
p2470
sbatp2471
Rp2472
(dp2473
g12
VADVP
p2474
sbag0
(g1
g2
(lp2475
V,
p2476
atp2477
Rp2478
(dp2479
g12
V,
p2480
sbag0
(g1
g2
(lp2481
g0
(g1
g2
(lp2482
g0
(g1
g2
(lp2483
Vup
p2484
atp2485
Rp2486
(dp2487
g12
VRB
p2488
sbatp2489
Rp2490
(dp2491
g12
VADVP
p2492
sbag0
(g1
g2
(lp2493
Vin
p2494
atp2495
Rp2496
(dp2497
g12
VIN
p2498
sbag0
(g1
g2
(lp2499
g0
(g1
g2
(lp2500
g0
(g1
g2
(lp2501
Vthe
p2502
atp2503
Rp2504
(dp2505
g12
VDT
p2506
sbag0
(g1
g2
(lp2507
Vw-h-a-r
p2508
atp2509
Rp2510
(dp2511
g12
VNN
p2512
sbatp2513
Rp2514
(dp2515
g12
VNP
p2516
sbag0
(g1
g2
(lp2517
V,
p2518
atp2519
Rp2520
(dp2521
g12
V,
p2522
sbag0
(g1
g2
(lp2523
g0
(g1
g2
(lp2524
Vwhar
p2525
atp2526
Rp2527
(dp2528
g12
VNN
p2529
sbatp2530
Rp2531
(dp2532
g12
VNP
p2533
sbag0
(g1
g2
(lp2534
V,
p2535
atp2536
Rp2537
(dp2538
g12
V,
p2539
sbatp2540
Rp2541
(dp2542
g12
VNP
p2543
sbatp2544
Rp2545
(dp2546
g12
VPP
p2547
sbatp2548
Rp2549
(dp2550
g12
VUCP
p2551
sbag0
(g1
g2
(lp2552
Vwharf
p2553
atp2554
Rp2555
(dp2556
g12
VNN
p2557
sbatp2558
Rp2559
(dp2560
g12
VNP
p2561
sbatp2562
Rp2563
(dp2564
g12
VPP
p2565
sbatp2566
Rp2567
(dp2568
g12
VADVP
p2569
sbatp2570
Rp2571
(dp2572
g12
VVP
p2573
sbag0
(g1
g2
(lp2574
V.
p2575
atp2576
Rp2577
(dp2578
g12
V.
p2579
sbatp2580
Rp2581
(dp2582
g12
VS
p2583
sbatp2584
Rp2585
(dp2586
g12
S'id: 21'
p2587
sbag0
(g1
g2
(lp2588
g0
(g1
g2
(lp2589
g0
(g1
g2
(lp2590
Vand
p2591
atp2592
Rp2593
(dp2594
g12
VCC
p2595
sbag0
(g1
g2
(lp2596
g0
(g1
g2
(lp2597
Vthat
p2598
atp2599
Rp2600
(dp2601
g12
VDT
p2602
sbatp2603
Rp2604
(dp2605
g12
VNP
p2606
sbag0
(g1
g2
(lp2607
g0
(g1
g2
(lp2608
V's
p2609
atp2610
Rp2611
(dp2612
g12
VVBZ
p2613
sbag0
(g1
g2
(lp2614
g0
(g1
g2
(lp2615
Vin
p2616
atp2617
Rp2618
(dp2619
g12
VIN
p2620
sbag0
(g1
g2
(lp2621
g0
(g1
g2
(lp2622
Vthe
p2623
atp2624
Rp2625
(dp2626
g12
VDT
p2627
sbag0
(g1
g2
(lp2628
Vfishing
p2629
atp2630
Rp2631
(dp2632
g12
VNN
p2633
sbatp2634
Rp2635
(dp2636
g12
VNP
p2637
sbatp2638
Rp2639
(dp2640
g12
VPP
p2641
sbatp2642
Rp2643
(dp2644
g12
VVP
p2645
sbag0
(g1
g2
(lp2646
V.
p2647
atp2648
Rp2649
(dp2650
g12
V.
p2651
sbatp2652
Rp2653
(dp2654
g12
VS
p2655
sbatp2656
Rp2657
(dp2658
g12
S'id: 22'
p2659
sbag0
(g1
g2
(lp2660
g0
(g1
g2
(lp2661
g0
(g1
g2
(lp2662
Vand
p2663
atp2664
Rp2665
(dp2666
g12
VCC
p2667
sbag0
(g1
g2
(lp2668
g0
(g1
g2
(lp2669
Vthat
p2670
atp2671
Rp2672
(dp2673
g12
VDT
p2674
sbatp2675
Rp2676
(dp2677
g12
VNP
p2678
sbag0
(g1
g2
(lp2679
g0
(g1
g2
(lp2680
V's
p2681
atp2682
Rp2683
(dp2684
g12
VVBZ
p2685
sbag0
(g1
g2
(lp2686
g0
(g1
g2
(lp2687
Vhis
p2688
atp2689
Rp2690
(dp2691
g12
VPRP$
p2692
sbag0
(g1
g2
(lp2693
Vboy
p2694
atp2695
Rp2696
(dp2697
g12
VNN
p2698
sbatp2699
Rp2700
(dp2701
g12
VNP
p2702
sbatp2703
Rp2704
(dp2705
g12
VVP
p2706
sbag0
(g1
g2
(lp2707
V.
p2708
atp2709
Rp2710
(dp2711
g12
V.
p2712
sbatp2713
Rp2714
(dp2715
g12
VS
p2716
sbatp2717
Rp2718
(dp2719
g12
S'id: 23'
p2720
sbag0
(g1
g2
(lp2721
g0
(g1
g2
(lp2722
g0
(g1
g2
(lp2723
Vand
p2724
atp2725
Rp2726
(dp2727
g12
VCC
p2728
sbag0
(g1
g2
(lp2729
g0
(g1
g2
(lp2730
Vthat
p2731
atp2732
Rp2733
(dp2734
g12
VDT
p2735
sbatp2736
Rp2737
(dp2738
g12
VNP
p2739
sbag0
(g1
g2
(lp2740
g0
(g1
g2
(lp2741
V's
p2742
atp2743
Rp2744
(dp2745
g12
VVBZ
p2746
sbag0
(g1
g2
(lp2747
g0
(g1
g2
(lp2748
Vhis
p2749
atp2750
Rp2751
(dp2752
g12
VPRP$
p2753
sbag0
(g1
g2
(lp2754
Vlittle
p2755
atp2756
Rp2757
(dp2758
g12
VJJ
p2759
sbag0
(g1
g2
(lp2760
Vdog
p2761
atp2762
Rp2763
(dp2764
g12
VNN
p2765
sbatp2766
Rp2767
(dp2768
g12
VNP
p2769
sbatp2770
Rp2771
(dp2772
g12
VVP
p2773
sbag0
(g1
g2
(lp2774
V.
p2775
atp2776
Rp2777
(dp2778
g12
V.
p2779
sbatp2780
Rp2781
(dp2782
g12
VS
p2783
sbatp2784
Rp2785
(dp2786
g12
S'id: 24'
p2787
sbag0
(g1
g2
(lp2788
g0
(g1
g2
(lp2789
g0
(g1
g2
(lp2790
g0
(g1
g2
(lp2791
Vthat
p2792
atp2793
Rp2794
(dp2795
g12
VDT
p2796
sbatp2797
Rp2798
(dp2799
g12
VNP
p2800
sbag0
(g1
g2
(lp2801
g0
(g1
g2
(lp2802
V's
p2803
atp2804
Rp2805
(dp2806
g12
VVBZ
p2807
sbag0
(g1
g2
(lp2808
g0
(g1
g2
(lp2809
g0
(g1
g2
(lp2810
g0
(g1
g2
(lp2811
Vhis
p2812
atp2813
Rp2814
(dp2815
g12
VPRP$
p2816
sbag0
(g1
g2
(lp2817
Vdog
p2818
atp2819
Rp2820
(dp2821
g12
VNN
p2822
sbag0
(g1
g2
(lp2823
Vlook
p2824
atp2825
Rp2826
(dp2827
g12
VNN
p2828
sbatp2829
Rp2830
(dp2831
g12
VNP
p2832
sbag0
(g1
g2
(lp2833
V,
p2834
atp2835
Rp2836
(dp2837
g12
V,
p2838
sbag0
(g1
g2
(lp2839
g0
(g1
g2
(lp2840
Vright
p2841
atp2842
Rp2843
(dp2844
g12
VRB
p2845
sbag0
(g1
g2
(lp2846
Vthere
p2847
atp2848
Rp2849
(dp2850
g12
VRB
p2851
sbatp2852
Rp2853
(dp2854
g12
VADVP
p2855
sbatp2856
Rp2857
(dp2858
g12
VNP
p2859
sbag0
(g1
g2
(lp2860
V,
p2861
atp2862
Rp2863
(dp2864
g12
V,
p2865
sbag0
(g1
g2
(lp2866
g0
(g1
g2
(lp2867
g0
(g1
g2
(lp2868
Vlittle
p2869
atp2870
Rp2871
(dp2872
g12
VRB
p2873
sbatp2874
Rp2875
(dp2876
g12
VNP
p2877
sbag0
(g1
g2
(lp2878
V,
p2879
atp2880
Rp2881
(dp2882
g12
V,
p2883
sbag0
(g1
g2
(lp2884
g0
(g1
g2
(lp2885
Vl-e-c
p2886
atp2887
Rp2888
(dp2889
g12
VJJ
p2890
sbag0
(g1
g2
(lp2891
Vcleegle
p2892
atp2893
Rp2894
(dp2895
g12
VNN
p2896
sbatp2897
Rp2898
(dp2899
g12
VNP
p2900
sbatp2901
Rp2902
(dp2903
g12
VNP
p2904
sbatp2905
Rp2906
(dp2907
g12
VNP
p2908
sbatp2909
Rp2910
(dp2911
g12
VVP
p2912
sbatp2913
Rp2914
(dp2915
g12
VS
p2916
sbatp2917
Rp2918
(dp2919
g12
S'id: 25'
p2920
sbatp2921
Rp2922
(dp2923
g12
S'sentences'
p2924
sb.