ccopy_reg
_reconstructor
p0
(cnltk.tree
Tree
p1
c__builtin__
list
p2
(lp3
g0
(g1
g2
(lp4
g0
(g1
g2
(lp5
g0
(g1
g2
(lp6
g0
(g1
g2
(lp7
VMama
p8
atp9
Rp10
(dp11
S'_label'
p12
VNN
p13
sbatp14
Rp15
(dp16
g12
VNP
p17
sbag0
(g1
g2
(lp18
g0
(g1
g2
(lp19
Vwishing
p20
atp21
Rp22
(dp23
g12
VVBG
p24
sbag0
(g1
g2
(lp25
g0
(g1
g2
(lp26
Vdishes
p27
atp28
Rp29
(dp30
g12
VNNS
p31
sbatp32
Rp33
(dp34
g12
VNP
p35
sbatp36
Rp37
(dp38
g12
VVP
p39
sbag0
(g1
g2
(lp40
V.
p41
atp42
Rp43
(dp44
g12
V.
p45
sbatp46
Rp47
(dp48
g12
VNP
p49
sbatp50
Rp51
(dp52
g12
S'id: 0'
p53
sbag0
(g1
g2
(lp54
g0
(g1
g2
(lp55
g0
(g1
g2
(lp56
g0
(g1
g2
(lp57
g0
(g1
g2
(lp58
VThere
p59
atp60
Rp61
(dp62
g12
VEX
p63
sbatp64
Rp65
(dp66
g12
VNP
p67
sbag0
(g1
g2
(lp68
g0
(g1
g2
(lp69
V's
p70
atp71
Rp72
(dp73
g12
VVBZ
p74
sbag0
(g1
g2
(lp75
g0
(g1
g2
(lp76
g0
(g1
g2
(lp77
Va
p78
atp79
Rp80
(dp81
g12
VDT
p82
sbatp83
Rp84
(dp85
g12
VNP
p86
sbag0
(g1
g2
(lp87
g0
(g1
g2
(lp88
V,
p89
atp90
Rp91
(dp92
g12
V,
p93
sbag0
(g1
g2
(lp94
g0
(g1
g2
(lp95
g0
(g1
g2
(lp96
Vthere
p97
atp98
Rp99
(dp100
g12
VEX
p101
sbatp102
Rp103
(dp104
g12
VNP
p105
sbag0
(g1
g2
(lp106
g0
(g1
g2
(lp107
V's
p108
atp109
Rp110
(dp111
g12
VVBZ
p112
sbag0
(g1
g2
(lp113
g0
(g1
g2
(lp114
g0
(g1
g2
(lp115
Va
p116
atp117
Rp118
(dp119
g12
VDT
p120
sbag0
(g1
g2
(lp121
Vkids
p122
atp123
Rp124
(dp125
g12
VNNS
p126
sbatp127
Rp128
(dp129
g12
VNP
p130
sbag0
(g1
g2
(lp131
Vand
p132
atp133
Rp134
(dp135
g12
VCC
p136
sbag0
(g1
g2
(lp137
g0
(g1
g2
(lp138
Va
p139
atp140
Rp141
(dp142
g12
VDT
p143
sbag0
(g1
g2
(lp144
Vbar
p145
atp146
Rp147
(dp148
g12
VNN
p149
sbatp150
Rp151
(dp152
g12
VNP
p153
sbatp154
Rp155
(dp156
g12
VNP
p157
sbatp158
Rp159
(dp160
g12
VVP
p161
sbatp162
Rp163
(dp164
g12
VS
p165
sbag0
(g1
g2
(lp166
V,
p167
atp168
Rp169
(dp170
g12
V,
p171
sbatp172
Rp173
(dp174
g12
VPRN
p175
sbag0
(g1
g2
(lp176
Vand
p177
atp178
Rp179
(dp180
g12
VCC
p181
sbag0
(g1
g2
(lp182
g0
(g1
g2
(lp183
Va
p184
atp185
Rp186
(dp187
g12
VDT
p188
sbag0
(g1
g2
(lp189
Vgirl
p190
atp191
Rp192
(dp193
g12
VNN
p194
sbatp195
Rp196
(dp197
g12
VNP
p198
sbatp199
Rp200
(dp201
g12
VNP
p202
sbatp203
Rp204
(dp205
g12
VVP
p206
sbatp207
Rp208
(dp209
g12
VS
p210
sbag0
(g1
g2
(lp211
V,
p212
atp213
Rp214
(dp215
g12
V,
p216
sbag0
(g1
g2
(lp217
Vand
p218
atp219
Rp220
(dp221
g12
VCC
p222
sbag0
(g1
g2
(lp223
g0
(g1
g2
(lp224
g0
(g1
g2
(lp225
Vtrying
p226
atp227
Rp228
(dp229
g12
VVBG
p230
sbag0
(g1
g2
(lp231
g0
(g1
g2
(lp232
g0
(g1
g2
(lp233
Vto
p234
atp235
Rp236
(dp237
g12
VTO
p238
sbag0
(g1
g2
(lp239
g0
(g1
g2
(lp240
Vsee
p241
atp242
Rp243
(dp244
g12
VVB
p245
sbag0
(g1
g2
(lp246
g0
(g1
g2
(lp247
Vthe
p248
atp249
Rp250
(dp251
g12
VDT
p252
sbag0
(g1
g2
(lp253
Vcookies
p254
atp255
Rp256
(dp257
g12
VNNS
p258
sbatp259
Rp260
(dp261
g12
VNP
p262
sbatp263
Rp264
(dp265
g12
VVP
p266
sbatp267
Rp268
(dp269
g12
VVP
p270
sbatp271
Rp272
(dp273
g12
VS
p274
sbatp275
Rp276
(dp277
g12
VVP
p278
sbatp279
Rp280
(dp281
g12
VS
p282
sbag0
(g1
g2
(lp283
V.
p284
atp285
Rp286
(dp287
g12
V.
p288
sbatp289
Rp290
(dp291
g12
VS
p292
sbatp293
Rp294
(dp295
g12
S'id: 1'
p296
sbag0
(g1
g2
(lp297
g0
(g1
g2
(lp298
g0
(g1
g2
(lp299
VAnd
p300
atp301
Rp302
(dp303
g12
VCC
p304
sbag0
(g1
g2
(lp305
g0
(g1
g2
(lp306
g0
(g1
g2
(lp307
Vthe
p308
atp309
Rp310
(dp311
g12
VDT
p312
sbag0
(g1
g2
(lp313
Vlittle
p314
atp315
Rp316
(dp317
g12
VJJ
p318
sbag0
(g1
g2
(lp319
Vgirl
p320
atp321
Rp322
(dp323
g12
VNN
p324
sbatp325
Rp326
(dp327
g12
VNP
p328
sbag0
(g1
g2
(lp329
V,
p330
atp331
Rp332
(dp333
g12
V,
p334
sbag0
(g1
g2
(lp335
g0
(g1
g2
(lp336
g0
(g1
g2
(lp337
Vthe
p338
atp339
Rp340
(dp341
g12
VDT
p342
sbag0
(g1
g2
(lp343
Vtake
p344
atp345
Rp346
(dp347
g12
VNN
p348
sbatp349
Rp350
(dp351
g12
VNP
p352
sbag0
(g1
g2
(lp353
g0
(g1
g2
(lp354
Vin
p355
atp356
Rp357
(dp358
g12
VIN
p359
sbag0
(g1
g2
(lp360
g0
(g1
g2
(lp361
g0
(g1
g2
(lp362
Vthe
p363
atp364
Rp365
(dp366
g12
VDT
p367
sbag0
(g1
g2
(lp368
Vkitchen
p369
atp370
Rp371
(dp372
g12
VNN
p373
sbatp374
Rp375
(dp376
g12
VNP
p377
sbag0
(g1
g2
(lp378
V,
p379
atp380
Rp381
(dp382
g12
V,
p383
sbag0
(g1
g2
(lp384
g0
(g1
g2
(lp385
Vwater
p386
atp387
Rp388
(dp389
g12
VNN
p390
sbag0
(g1
g2
(lp391
Vflowing
p392
atp393
Rp394
(dp395
g12
VVBG
p396
sbatp397
Rp398
(dp399
g12
VNP
p400
sbag0
(g1
g2
(lp401
V,
p402
atp403
Rp404
(dp405
g12
V,
p406
sbag0
(g1
g2
(lp407
g0
(g1
g2
(lp408
g0
(g1
g2
(lp409
Vwater
p410
atp411
Rp412
(dp413
g12
VNN
p414
sbatp415
Rp416
(dp417
g12
VNP
p418
sbag0
(g1
g2
(lp419
g0
(g1
g2
(lp420
Vflowing
p421
atp422
Rp423
(dp424
g12
VVBG
p425
sbag0
(g1
g2
(lp426
g0
(g1
g2
(lp427
Von
p428
atp429
Rp430
(dp431
g12
VIN
p432
sbag0
(g1
g2
(lp433
g0
(g1
g2
(lp434
Vthe
p435
atp436
Rp437
(dp438
g12
VDT
p439
sbag0
(g1
g2
(lp440
Vfloor
p441
atp442
Rp443
(dp444
g12
VNN
p445
sbatp446
Rp447
(dp448
g12
VNP
p449
sbatp450
Rp451
(dp452
g12
VPP
p453
sbatp454
Rp455
(dp456
g12
VVP
p457
sbatp458
Rp459
(dp460
g12
VNP
p461
sbatp462
Rp463
(dp464
g12
VNP
p465
sbatp466
Rp467
(dp468
g12
VPP
p469
sbatp470
Rp471
(dp472
g12
VNP
p473
sbatp474
Rp475
(dp476
g12
VNP
p477
sbag0
(g1
g2
(lp478
V.
p479
atp480
Rp481
(dp482
g12
V.
p483
sbatp484
Rp485
(dp486
g12
VFRAG
p487
sbatp488
Rp489
(dp490
g12
S'id: 2'
p491
sbag0
(g1
g2
(lp492
g0
(g1
g2
(lp493
g0
(g1
g2
(lp494
g0
(g1
g2
(lp495
Vyou
p496
atp497
Rp498
(dp499
g12
VPRP
p500
sbatp501
Rp502
(dp503
g12
VNP
p504
sbag0
(g1
g2
(lp505
g0
(g1
g2
(lp506
Vgot
p507
atp508
Rp509
(dp510
g12
VVBD
p511
sbag0
(g1
g2
(lp512
g0
(g1
g2
(lp513
g0
(g1
g2
(lp514
Va
p515
atp516
Rp517
(dp518
g12
VDT
p519
sbag0
(g1
g2
(lp520
Vbeb
p521
atp522
Rp523
(dp524
g12
VNN
p525
sbatp526
Rp527
(dp528
g12
VNP
p529
sbag0
(g1
g2
(lp530
V,
p531
atp532
Rp533
(dp534
g12
V,
p535
sbag0
(g1
g2
(lp536
g0
(g1
g2
(lp537
Vberry
p538
atp539
Rp540
(dp541
g12
VNN
p542
sbag0
(g1
g2
(lp543
Vnice
p544
atp545
Rp546
(dp547
g12
VJJ
p548
sbag0
(g1
g2
(lp549
Vkitchen
p550
atp551
Rp552
(dp553
g12
VNN
p554
sbatp555
Rp556
(dp557
g12
VNP
p558
sbatp559
Rp560
(dp561
g12
VNP
p562
sbatp563
Rp564
(dp565
g12
VVP
p566
sbag0
(g1
g2
(lp567
V.
p568
atp569
Rp570
(dp571
g12
V.
p572
sbatp573
Rp574
(dp575
g12
VS
p576
sbatp577
Rp578
(dp579
g12
S'id: 3'
p580
sbag0
(g1
g2
(lp581
g0
(g1
g2
(lp582
g0
(g1
g2
(lp583
g0
(g1
g2
(lp584
VYou
p585
atp586
Rp587
(dp588
g12
VPRP
p589
sbatp590
Rp591
(dp592
g12
VNP
p593
sbag0
(g1
g2
(lp594
g0
(g1
g2
(lp595
Vhave
p596
atp597
Rp598
(dp599
g12
VVBP
p600
sbag0
(g1
g2
(lp601
g0
(g1
g2
(lp602
g0
(g1
g2
(lp603
Vsome
p604
atp605
Rp606
(dp607
g12
VDT
p608
sbag0
(g1
g2
(lp609
Vplates
p610
atp611
Rp612
(dp613
g12
VNNS
p614
sbatp615
Rp616
(dp617
g12
VNP
p618
sbag0
(g1
g2
(lp619
V,
p620
atp621
Rp622
(dp623
g12
V,
p624
sbag0
(g1
g2
(lp625
Vand
p626
atp627
Rp628
(dp629
g12
VCC
p630
sbag0
(g1
g2
(lp631
g0
(g1
g2
(lp632
Vpots
p633
atp634
Rp635
(dp636
g12
VNNS
p637
sbatp638
Rp639
(dp640
g12
VNP
p641
sbag0
(g1
g2
(lp642
V,
p643
atp644
Rp645
(dp646
g12
V,
p647
sbag0
(g1
g2
(lp648
g0
(g1
g2
(lp649
Vplates
p650
atp651
Rp652
(dp653
g12
VNNS
p654
sbatp655
Rp656
(dp657
g12
VNP
p658
sbag0
(g1
g2
(lp659
V,
p660
atp661
Rp662
(dp663
g12
V,
p664
sbag0
(g1
g2
(lp665
Vand
p666
atp667
Rp668
(dp669
g12
VCC
p670
sbag0
(g1
g2
(lp671
g0
(g1
g2
(lp672
Vcups
p673
atp674
Rp675
(dp676
g12
VNNS
p677
sbatp678
Rp679
(dp680
g12
VNP
p681
sbatp682
Rp683
(dp684
g12
VNP
p685
sbatp686
Rp687
(dp688
g12
VVP
p689
sbag0
(g1
g2
(lp690
V.
p691
atp692
Rp693
(dp694
g12
V.
p695
sbatp696
Rp697
(dp698
g12
VS
p699
sbatp700
Rp701
(dp702
g12
S'id: 4'
p703
sbag0
(g1
g2
(lp704
g0
(g1
g2
(lp705
g0
(g1
g2
(lp706
g0
(g1
g2
(lp707
g0
(g1
g2
(lp708
Vno
p709
atp710
Rp711
(dp712
g12
VDT
p713
sbatp714
Rp715
(dp716
g12
VNP
p717
sbag0
(g1
g2
(lp718
V,
p719
atp720
Rp721
(dp722
g12
V,
p723
sbag0
(g1
g2
(lp724
g0
(g1
g2
(lp725
g0
(g1
g2
(lp726
Vpa
p727
atp728
Rp729
(dp730
g12
VNN
p731
sbatp732
Rp733
(dp734
g12
VNP
p735
sbag0
(g1
g2
(lp736
V,
p737
atp738
Rp739
(dp740
g12
V,
p741
sbag0
(g1
g2
(lp742
g0
(g1
g2
(lp743
g0
(g1
g2
(lp744
Vwhat
p745
atp746
Rp747
(dp748
g12
VWP
p749
sbatp750
Rp751
(dp752
g12
VWHNP
p753
sbag0
(g1
g2
(lp754
g0
(g1
g2
(lp755
g0
(g1
g2
(lp756
Vis
p757
atp758
Rp759
(dp760
g12
VVBZ
p761
sbatp762
Rp763
(dp764
g12
VVP
p765
sbatp766
Rp767
(dp768
g12
VS
p769
sbatp770
Rp771
(dp772
g12
VSBAR
p773
sbatp774
Rp775
(dp776
g12
VNP
p777
sbatp778
Rp779
(dp780
g12
VNP
p781
sbatp782
Rp783
(dp784
g12
VFRAG
p785
sbatp786
Rp787
(dp788
g12
S'id: 5'
p789
sbatp790
Rp791
(dp792
g12
S'sentences'
p793
sb.