ccopy_reg
_reconstructor
p0
(cnltk.tree
Tree
p1
c__builtin__
list
p2
(lp3
g0
(g1
g2
(lp4
g0
(g1
g2
(lp5
g0
(g1
g2
(lp6
(lp7
S'word: cookie, index: 1'
p8
aatp9
Rp10
(dp11
S'_label'
p12
Vnn
p13
sbag0
(g1
g2
(lp14
(lp15
S'word: cookie, index: 2'
p16
aatp17
Rp18
(dp19
g12
Vnn
p20
sbag0
(g1
g2
(lp21
g0
(g1
g2
(lp22
g0
(g1
g2
(lp23
(lp24
S'word: a, index: 6'
p25
aatp26
Rp27
(dp28
g12
Vdet
p29
sbag0
(g1
g2
(lp30
(lp31
S'word: melted, index: 7'
p32
aatp33
Rp34
(dp35
g12
Vamod
p36
sbag0
(g1
g2
(lp37
(lp38
S'word: ww, index: 8'
p39
aatp40
Rp41
(dp42
g12
Vnn
p43
sbatp44
Rp45
(dp46
g12
S'word: water, index: 9'
p47
sbatp48
Rp49
(dp50
g12
Vconj
p51
sbag0
(g1
g2
(lp52
g0
(g1
g2
(lp53
g0
(g1
g2
(lp54
g0
(g1
g2
(lp55
g0
(g1
g2
(lp56
(lp57
S'word: tink, index: 16'
p58
aatp59
Rp60
(dp61
g12
Vnn
p62
sbag0
(g1
g2
(lp63
(lp64
S'word: tink, index: 17'
p65
aatp66
Rp67
(dp68
g12
Vnn
p69
sbag0
(g1
g2
(lp70
(lp71
S'word: tink, index: 18'
p72
aatp73
Rp74
(dp75
g12
Vnn
p76
sbag0
(g1
g2
(lp77
(lp78
S'word: the, index: 13'
p79
aatp80
Rp81
(dp82
g12
Vdet
p83
sbag0
(g1
g2
(lp84
(lp85
S'word: tink, index: 14'
p86
aatp87
Rp88
(dp89
g12
Vamod
p90
sbag0
(g1
g2
(lp91
(lp92
S'word: tink, index: 15'
p93
aatp94
Rp95
(dp96
g12
Vnn
p97
sbatp98
Rp99
(dp100
g12
S'word: trink, index: 19'
p101
sbatp102
Rp103
(dp104
g12
Vprep
p105
sbatp106
Rp107
(dp108
g12
S'word: water, index: 11'
p109
sbatp110
Rp111
(dp112
g12
Vdep
p113
sbatp114
Rp115
(dp116
g12
S'word: cookie, index: 3'
p117
sbatp118
Rp119
(dp120
g12
S'id: 0'
p121
sbag0
(g1
g2
(lp122
g0
(g1
g2
(lp123
g0
(g1
g2
(lp124
g0
(g1
g2
(lp125
g0
(g1
g2
(lp126
g0
(g1
g2
(lp127
g0
(g1
g2
(lp128
(lp129
S'word: deshes, index: 2'
p130
aatp131
Rp132
(dp133
g12
Vnn
p134
sbatp135
Rp136
(dp137
g12
S'word: dd, index: 3'
p138
sbatp139
Rp140
(dp141
g12
Vnsubj
p142
sbag0
(g1
g2
(lp143
g0
(g1
g2
(lp144
g0
(g1
g2
(lp145
(lp146
S'word: deshes, index: 5'
p147
aatp148
Rp149
(dp150
g12
Vnsubj
p151
sbag0
(g1
g2
(lp152
g0
(g1
g2
(lp153
g0
(g1
g2
(lp154
g0
(g1
g2
(lp155
g0
(g1
g2
(lp156
(lp157
S'word: deshes, index: 7'
p158
aatp159
Rp160
(dp161
g12
Vamod
p162
sbatp163
Rp164
(dp165
g12
S'word: deshes, index: 8'
p166
sbatp167
Rp168
(dp169
g12
Vnsubj
p170
sbag0
(g1
g2
(lp171
(lp172
S'word: deshes, index: 10'
p173
aatp174
Rp175
(dp176
g12
Vdobj
p177
sbatp178
Rp179
(dp180
g12
S'word: deshes, index: 9'
p181
sbatp182
Rp183
(dp184
g12
Vccomp
p185
sbatp186
Rp187
(dp188
g12
S'word: ddd, index: 6'
p189
sbatp190
Rp191
(dp192
g12
Vccomp
p193
sbatp194
Rp195
(dp196
g12
S'word: deshes, index: 4'
p197
sbatp198
Rp199
(dp200
g12
Vccomp
p201
sbatp202
Rp203
(dp204
g12
S'word: washes, index: 1'
p205
sbatp206
Rp207
(dp208
g12
S'id: 1'
p209
sbag0
(g1
g2
(lp210
g0
(g1
g2
(lp211
g0
(g1
g2
(lp212
(lp213
S'word: fall, index: 6'
p214
aatp215
Rp216
(dp217
g12
Vdep
p218
sbag0
(g1
g2
(lp219
g0
(g1
g2
(lp220
g0
(g1
g2
(lp221
g0
(g1
g2
(lp222
g0
(g1
g2
(lp223
(lp224
S'word: cookie, index: 10'
p225
aatp226
Rp227
(dp228
g12
Vconj
p229
sbatp230
Rp231
(dp232
g12
S'word: fall, index: 8'
p233
sbatp234
Rp235
(dp236
g12
Vnn
p237
sbag0
(g1
g2
(lp238
(lp239
S'word: cookie, index: 10'
p240
aatp241
Rp242
(dp243
g12
Vnn
p244
sbag0
(g1
g2
(lp245
g0
(g1
g2
(lp246
g0
(g1
g2
(lp247
(lp248
S'word: tookie, index: 13'
p249
aatp250
Rp251
(dp252
g12
Vnn
p253
sbatp254
Rp255
(dp256
g12
S'word: tookie, index: 14'
p257
sbatp258
Rp259
(dp260
g12
Vconj
p261
sbatp262
Rp263
(dp264
g12
S'word: cookie, index: 11'
p265
sbatp266
Rp267
(dp268
g12
Vdobj
p269
sbag0
(g1
g2
(lp270
g255
atp271
Rp272
(dp273
g12
Vdobj
p274
sbag0
(g1
g2
(lp275
g0
(g1
g2
(lp276
g0
(g1
g2
(lp277
g0
(g1
g2
(lp278
g0
(g1
g2
(lp279
(lp280
S'word: tf, index: 3'
p281
aatp282
Rp283
(dp284
g12
Vnn
p285
sbag0
(g1
g2
(lp286
(lp287
S'word: ff, index: 4'
p288
aatp289
Rp290
(dp291
g12
Vnn
p292
sbatp293
Rp294
(dp295
g12
S'word: fall, index: 5'
p296
sbatp297
Rp298
(dp299
g12
Vconj
p300
sbatp301
Rp302
(dp303
g12
S'word: cookie, index: 1'
p304
sbatp305
Rp306
(dp307
g12
Vnsubj
p308
sbag0
(g1
g2
(lp309
g294
atp310
Rp311
(dp312
g12
Vnsubj
p313
sbatp314
Rp315
(dp316
g12
S'word: fall, index: 7'
p317
sbatp318
Rp319
(dp320
g12
S'id: 2'
p321
sbag0
(g1
g2
(lp322
g0
(g1
g2
(lp323
g0
(g1
g2
(lp324
(lp325
S'word: and, index: 1'
p326
aatp327
Rp328
(dp329
g12
Vcc
p330
sbag0
(g1
g2
(lp331
(lp332
S'word: the, index: 2'
p333
aatp334
Rp335
(dp336
g12
Vdet
p337
sbag0
(g1
g2
(lp338
(lp339
S'word: bell, index: 3'
p340
aatp341
Rp342
(dp343
g12
Vnn
p344
sbag0
(g1
g2
(lp345
g0
(g1
g2
(lp346
g0
(g1
g2
(lp347
g0
(g1
g2
(lp348
g0
(g1
g2
(lp349
(lp350
S'word: a, index: 9'
p351
aatp352
Rp353
(dp354
g12
Vdet
p355
sbag0
(g1
g2
(lp356
g0
(g1
g2
(lp357
g0
(g1
g2
(lp358
(lp359
S'word: cookie, index: 11'
p360
aatp361
Rp362
(dp363
g12
Vnn
p364
sbatp365
Rp366
(dp367
g12
S'word: cookies, index: 12'
p368
sbatp369
Rp370
(dp371
g12
Vdep
p372
sbatp373
Rp374
(dp375
g12
S'word: girl, index: 10'
p376
sbatp377
Rp378
(dp379
g12
Vdep
p380
sbag0
(g1
g2
(lp381
(lp382
S'word: boy, index: 5'
p383
aatp384
Rp385
(dp386
g12
Vnn
p387
sbag0
(g1
g2
(lp388
(lp389
S'word: and, index: 8'
p390
aatp391
Rp392
(dp393
g12
Vcc
p394
sbatp395
Rp396
(dp397
g12
S'word: boy, index: 6'
p398
sbatp399
Rp400
(dp401
g12
Vdep
p402
sbatp403
Rp404
(dp405
g12
S'word: bo, index: 4'
p406
sbatp407
Rp408
(dp409
g12
S'id: 3'
p410
sbag0
(g1
g2
(lp411
g0
(g1
g2
(lp412
g0
(g1
g2
(lp413
g0
(g1
g2
(lp414
g0
(g1
g2
(lp415
(lp416
S'word: kk, index: 1'
p417
aatp418
Rp419
(dp420
g12
Vnn
p421
sbatp422
Rp423
(dp424
g12
S'word: fall, index: 2'
p425
sbatp426
Rp427
(dp428
g12
Vnsubj
p429
sbag0
(g1
g2
(lp430
(lp431
S'word: fall, index: 3'
p432
aatp433
Rp434
(dp435
g12
Vdep
p436
sbag0
(g1
g2
(lp437
(lp438
S'word: fall, index: 6'
p439
aatp440
Rp441
(dp442
g12
Vprep
p443
sbatp444
Rp445
(dp446
g12
S'word: fall, index: 4'
p447
sbatp448
Rp449
(dp450
g12
S'id: 4'
p451
sbag0
(g1
g2
(lp452
g0
(g1
g2
(lp453
g0
(g1
g2
(lp454
(lp455
S'word: wa, index: 1'
p456
aatp457
Rp458
(dp459
g12
Vnn
p460
sbag0
(g1
g2
(lp461
g0
(g1
g2
(lp462
g0
(g1
g2
(lp463
(lp464
S'word: dising, index: 3'
p465
aatp466
Rp467
(dp468
g12
Vamod
p469
sbag0
(g1
g2
(lp470
(lp471
S'word: di, index: 5'
p472
aatp473
Rp474
(dp475
g12
Vdep
p476
sbatp477
Rp478
(dp479
g12
S'word: water, index: 4'
p480
sbatp481
Rp482
(dp483
g12
Vdep
p484
sbag0
(g1
g2
(lp485
g0
(g1
g2
(lp486
g0
(g1
g2
(lp487
g0
(g1
g2
(lp488
g0
(g1
g2
(lp489
(lp490
S'word: di, index: 7'
p491
aatp492
Rp493
(dp494
g12
Vnn
p495
sbag0
(g1
g2
(lp496
(lp497
S'word: di, index: 8'
p498
aatp499
Rp500
(dp501
g12
Vnn
p502
sbatp503
Rp504
(dp505
g12
S'word: dish, index: 9'
p506
sbatp507
Rp508
(dp509
g12
Vdep
p510
sbag0
(g1
g2
(lp511
(lp512
S'word: dishes, index: 10'
p513
aatp514
Rp515
(dp516
g12
Vdep
p517
sbatp518
Rp519
(dp520
g12
S'word: da, index: 6'
p521
sbatp522
Rp523
(dp524
g12
Vdep
p525
sbatp526
Rp527
(dp528
g12
S'word: water, index: 2'
p529
sbatp530
Rp531
(dp532
g12
S'id: 5'
p533
sbag0
(g1
g2
(lp534
g0
(g1
g2
(lp535
g0
(g1
g2
(lp536
g0
(g1
g2
(lp537
g0
(g1
g2
(lp538
(lp539
S'word: mom, index: 2'
p540
aatp541
Rp542
(dp543
g12
Vnn
p544
sbag0
(g1
g2
(lp545
(lp546
S'word: mum, index: 3'
p547
aatp548
Rp549
(dp550
g12
Vnn
p551
sbag0
(g1
g2
(lp552
(lp553
S'word: disie, index: 4'
p554
aatp555
Rp556
(dp557
g12
Vnn
p558
sbag0
(g1
g2
(lp559
(lp560
S'word: disie, index: 5'
p561
aatp562
Rp563
(dp564
g12
Vnn
p565
sbag0
(g1
g2
(lp566
(lp567
S'word: cat, index: 1'
p568
aatp569
Rp570
(dp571
g12
Vnn
p572
sbatp573
Rp574
(dp575
g12
S'word: dishes, index: 6'
p576
sbatp577
Rp578
(dp579
g12
Vnsubj
p580
sbatp581
Rp582
(dp583
g12
S'word: ca, index: 7'
p584
sbatp585
Rp586
(dp587
g12
S'id: 6'
p588
sbag0
(g1
g2
(lp589
g0
(g1
g2
(lp590
g0
(g1
g2
(lp591
g0
(g1
g2
(lp592
g0
(g1
g2
(lp593
(lp594
S'word: cooe, index: 5'
p595
aatp596
Rp597
(dp598
g12
Vnn
p599
sbag0
(g1
g2
(lp600
(lp601
S'word: cacooe, index: 6'
p602
aatp603
Rp604
(dp605
g12
Vnn
p606
sbag0
(g1
g2
(lp607
(lp608
S'word: cuuee, index: 7'
p609
aatp610
Rp611
(dp612
g12
Vnn
p613
sbatp614
Rp615
(dp616
g12
S'word: cuuee, index: 8'
p617
sbatp618
Rp619
(dp620
g12
Vdep
p621
sbag0
(g1
g2
(lp622
(lp623
S'word: kwager, index: 1'
p624
aatp625
Rp626
(dp627
g12
Vnn
p628
sbag0
(g1
g2
(lp629
(lp630
S'word: co, index: 2'
p631
aatp632
Rp633
(dp634
g12
Vnn
p635
sbag0
(g1
g2
(lp636
(lp637
S'word: coo, index: 3'
p638
aatp639
Rp640
(dp641
g12
Vnn
p642
sbatp643
Rp644
(dp645
g12
S'word: coo, index: 4'
p646
sbatp647
Rp648
(dp649
g12
S'id: 7'
p650
sbag0
(g1
g2
(lp651
g0
(g1
g2
(lp652
g0
(g1
g2
(lp653
g0
(g1
g2
(lp654
g0
(g1
g2
(lp655
(lp656
S'word: a, index: 11'
p657
aatp658
Rp659
(dp660
g12
Vnsubj
p661
sbag0
(g1
g2
(lp662
(lp663
S'word: bowl, index: 13'
p664
aatp665
Rp666
(dp667
g12
Vdobj
p668
sbag0
(g1
g2
(lp669
g0
(g1
g2
(lp670
g0
(g1
g2
(lp671
(lp672
S'word: a, index: 14'
p673
aatp674
Rp675
(dp676
g12
Vdet
p677
sbag0
(g1
g2
(lp678
g0
(g1
g2
(lp679
g0
(g1
g2
(lp680
(lp681
S'word: a, index: 17'
p682
aatp683
Rp684
(dp685
g12
Vdet
p686
sbag0
(g1
g2
(lp687
(lp688
S'word: gi, index: 18'
p689
aatp690
Rp691
(dp692
g12
Vnn
p693
sbag0
(g1
g2
(lp694
(lp695
S'word: dish, index: 19'
p696
aatp697
Rp698
(dp699
g12
Vnn
p700
sbag0
(g1
g2
(lp701
(lp702
S'word: dish, index: 20'
p703
aatp704
Rp705
(dp706
g12
Vnn
p707
sbag0
(g1
g2
(lp708
(lp709
S'word: dish, index: 21'
p710
aatp711
Rp712
(dp713
g12
Vnn
p714
sbag0
(g1
g2
(lp715
(lp716
S'word: dish, index: 22'
p717
aatp718
Rp719
(dp720
g12
Vnn
p721
sbatp722
Rp723
(dp724
g12
S'word: dish, index: 23'
p725
sbatp726
Rp727
(dp728
g12
Vappos
p729
sbatp730
Rp731
(dp732
g12
S'word: bowl, index: 15'
p733
sbatp734
Rp735
(dp736
g12
Vtmod
p737
sbatp738
Rp739
(dp740
g12
S'word: bowls, index: 12'
p741
sbatp742
Rp743
(dp744
g12
Vccomp
p745
sbag0
(g1
g2
(lp746
g0
(g1
g2
(lp747
g0
(g1
g2
(lp748
g0
(g1
g2
(lp749
g0
(g1
g2
(lp750
g0
(g1
g2
(lp751
g0
(g1
g2
(lp752
(lp753
S'word: f, index: 6'
p754
aatp755
Rp756
(dp757
g12
Vnn
p758
sbatp759
Rp760
(dp761
g12
S'word: f, index: 7'
p762
sbatp763
Rp764
(dp765
g12
Vadvmod
p766
sbatp767
Rp768
(dp769
g12
S'word: free, index: 8'
p770
sbatp771
Rp772
(dp773
g12
Vrcmod
p774
sbag0
(g1
g2
(lp775
(lp776
S'word: dish, index: 1'
p777
aatp778
Rp779
(dp780
g12
Vnn
p781
sbag0
(g1
g2
(lp782
(lp783
S'word: dish, index: 4'
p784
aatp785
Rp786
(dp787
g12
Vprep
p788
sbatp789
Rp790
(dp791
g12
S'word: dish, index: 2'
p792
sbatp793
Rp794
(dp795
g12
Vnsubj
p796
sbatp797
Rp798
(dp799
g12
S'word: bowl, index: 10'
p800
sbatp801
Rp802
(dp803
g12
S'id: 8'
p804
sbag0
(g1
g2
(lp805
g0
(g1
g2
(lp806
g0
(g1
g2
(lp807
(lp808
S'word: and, index: 1'
p809
aatp810
Rp811
(dp812
g12
Vcc
p813
sbag0
(g1
g2
(lp814
(lp815
S'word: a, index: 2'
p816
aatp817
Rp818
(dp819
g12
Vdet
p820
sbag0
(g1
g2
(lp821
(lp822
S'word: sunny, index: 3'
p823
aatp824
Rp825
(dp826
g12
Vamod
p827
sbag0
(g1
g2
(lp828
g0
(g1
g2
(lp829
g0
(g1
g2
(lp830
(lp831
S'word: a, index: 5'
p832
aatp833
Rp834
(dp835
g12
Vdet
p836
sbag0
(g1
g2
(lp837
(lp838
S'word: sss, index: 6'
p839
aatp840
Rp841
(dp842
g12
Vnn
p843
sbag0
(g1
g2
(lp844
(lp845
S'word: dot, index: 7'
p846
aatp847
Rp848
(dp849
g12
Vnn
p850
sbatp851
Rp852
(dp853
g12
S'word: da, index: 8'
p854
sbatp855
Rp856
(dp857
g12
Vdep
p858
sbatp859
Rp860
(dp861
g12
S'word: an, index: 4'
p862
sbatp863
Rp864
(dp865
g12
S'id: 9'
p866
sbag0
(g1
g2
(lp867
g0
(g1
g2
(lp868
g0
(g1
g2
(lp869
g0
(g1
g2
(lp870
g0
(g1
g2
(lp871
g0
(g1
g2
(lp872
g0
(g1
g2
(lp873
(lp874
S'word: a, index: 15'
p875
aatp876
Rp877
(dp878
g12
Vdet
p879
sbatp880
Rp881
(dp882
g12
S'word: window, index: 16'
p883
sbatp884
Rp885
(dp886
g12
Vdep
p887
sbag0
(g1
g2
(lp888
(lp889
S'word: the, index: 13'
p890
aatp891
Rp892
(dp893
g12
Vdep
p894
sbatp895
Rp896
(dp897
g12
S'word: the, index: 14'
p898
sbatp899
Rp900
(dp901
g12
Vdep
p902
sbag0
(g1
g2
(lp903
(lp904
S'word: ga, index: 1'
p905
aatp906
Rp907
(dp908
g12
Vnn
p909
sbag0
(g1
g2
(lp910
(lp911
S'word: ga, index: 2'
p912
aatp913
Rp914
(dp915
g12
Vnn
p916
sbag0
(g1
g2
(lp917
(lp918
S'word: ga, index: 3'
p919
aatp920
Rp921
(dp922
g12
Vnn
p923
sbag0
(g1
g2
(lp924
g0
(g1
g2
(lp925
g0
(g1
g2
(lp926
g896
atp927
Rp928
(dp929
g12
Vconj
p930
sbag0
(g1
g2
(lp931
(lp932
S'word: a, index: 5'
p933
aatp934
Rp935
(dp936
g12
Vdet
p937
sbag0
(g1
g2
(lp938
(lp939
S'word: gakin, index: 6'
p940
aatp941
Rp942
(dp943
g12
Vnn
p944
sbag0
(g1
g2
(lp945
g0
(g1
g2
(lp946
g0
(g1
g2
(lp947
(lp948
S'word: a, index: 8'
p949
aatp950
Rp951
(dp952
g12
Vdet
p953
sbag0
(g1
g2
(lp954
(lp955
S'word: grokin, index: 9'
p956
aatp957
Rp958
(dp959
g12
Vamod
p960
sbag0
(g1
g2
(lp961
(lp962
S'word: gakin, index: 10'
p963
aatp964
Rp965
(dp966
g12
Vnn
p967
sbatp968
Rp969
(dp970
g12
S'word: a., index: 11'
p971
sbatp972
Rp973
(dp974
g12
Vdep
p975
sbatp976
Rp977
(dp978
g12
S'word: gakin, index: 7'
p979
sbatp980
Rp981
(dp982
g12
Vdep
p983
sbatp984
Rp985
(dp986
g12
S'word: gakin, index: 4'
p987
sbatp988
Rp989
(dp990
g12
S'id: 10'
p991
sbag0
(g1
g2
(lp992
g0
(g1
g2
(lp993
g0
(g1
g2
(lp994
g0
(g1
g2
(lp995
g0
(g1
g2
(lp996
(lp997
S'word: w, index: 1'
p998
aatp999
Rp1000
(dp1001
g12
Vnn
p1002
sbag0
(g1
g2
(lp1003
(lp1004
S'word: w, index: 2'
p1005
aatp1006
Rp1007
(dp1008
g12
Vnn
p1009
sbatp1010
Rp1011
(dp1012
g12
S'word: windows, index: 3'
p1013
sbatp1014
Rp1015
(dp1016
g12
Vnsubj
p1017
sbatp1018
Rp1019
(dp1020
g12
S'word: and, index: 4'
p1021
sbatp1022
Rp1023
(dp1024
g12
S'id: 11'
p1025
sbag0
(g1
g2
(lp1026
tp1027
Rp1028
(dp1029
g12
S'id: 12'
p1030
sbag0
(g1
g2
(lp1031
g0
(g1
g2
(lp1032
g0
(g1
g2
(lp1033
g0
(g1
g2
(lp1034
g0
(g1
g2
(lp1035
(lp1036
S'word: capis, index: 2'
p1037
aatp1038
Rp1039
(dp1040
g12
Vnn
p1041
sbag0
(g1
g2
(lp1042
(lp1043
S'word: ga, index: 3'
p1044
aatp1045
Rp1046
(dp1047
g12
Vnn
p1048
sbag0
(g1
g2
(lp1049
(lp1050
S'word: gappa, index: 4'
p1051
aatp1052
Rp1053
(dp1054
g12
Vnn
p1055
sbatp1056
Rp1057
(dp1058
g12
S'word: gappa, index: 5'
p1059
sbatp1060
Rp1061
(dp1062
g12
Vdep
p1063
sbatp1064
Rp1065
(dp1066
g12
S'word: cap, index: 1'
p1067
sbatp1068
Rp1069
(dp1070
g12
S'id: 13'
p1071
sbag0
(g1
g2
(lp1072
tp1073
Rp1074
(dp1075
g12
S'id: 14'
p1076
sbatp1077
Rp1078
(dp1079
g12
S'sentences'
p1080
sb.