ccopy_reg
_reconstructor
p0
(cnltk.tree
Tree
p1
c__builtin__
list
p2
(lp3
g0
(g1
g2
(lp4
tp5
Rp6
(dp7
S'_label'
p8
S'id: 0'
p9
sbag0
(g1
g2
(lp10
g0
(g1
g2
(lp11
g0
(g1
g2
(lp12
g0
(g1
g2
(lp13
g0
(g1
g2
(lp14
(lp15
S'word: way, index: 7'
p16
aatp17
Rp18
(dp19
g8
Vdep
p20
sbag0
(g1
g2
(lp21
(lp22
S'word: big, index: 8'
p23
aatp24
Rp25
(dp26
g8
Vamod
p27
sbatp28
Rp29
(dp30
g8
S'word: waiting, index: 9'
p31
sbatp32
Rp33
(dp34
g8
Vconj
p35
sbag0
(g1
g2
(lp36
(lp37
S'word: That, index: 1'
p38
aatp39
Rp40
(dp41
g8
Vnsubj
p42
sbag0
(g1
g2
(lp43
(lp44
S"word: 's, index: 2"
p45
aatp46
Rp47
(dp48
g8
Vcop
p49
sbatp50
Rp51
(dp52
g8
S'word: man, index: 3'
p53
sbatp54
Rp55
(dp56
g8
S'id: 1'
p57
sbag0
(g1
g2
(lp58
g0
(g1
g2
(lp59
g0
(g1
g2
(lp60
(lp61
S'word: And, index: 1'
p62
aatp63
Rp64
(dp65
g8
Vcc
p66
sbag0
(g1
g2
(lp67
(lp68
S'word: the, index: 2'
p69
aatp70
Rp71
(dp72
g8
Vdet
p73
sbag0
(g1
g2
(lp74
(lp75
S'word: the, index: 5'
p76
aatp77
Rp78
(dp79
g8
Vprep
p80
sbatp81
Rp82
(dp83
g8
S'word: cup, index: 3'
p84
sbatp85
Rp86
(dp87
g8
S'id: 2'
p88
sbag0
(g1
g2
(lp89
g0
(g1
g2
(lp90
g0
(g1
g2
(lp91
g0
(g1
g2
(lp92
g0
(g1
g2
(lp93
g0
(g1
g2
(lp94
g0
(g1
g2
(lp95
(lp96
S'word: a, index: 6'
p97
aatp98
Rp99
(dp100
g8
Vdet
p101
sbag0
(g1
g2
(lp102
(lp103
S'word: so, index: 7'
p104
aatp105
Rp106
(dp107
g8
Vadvmod
p108
sbatp109
Rp110
(dp111
g8
S'word: cup, index: 8'
p112
sbatp113
Rp114
(dp115
g8
Vdep
p116
sbatp117
Rp118
(dp119
g8
S'word: drinking, index: 10'
p120
sbatp121
Rp122
(dp123
g8
Vparataxis
p124
sbag0
(g1
g2
(lp125
g0
(g1
g2
(lp126
g0
(g1
g2
(lp127
(lp128
S'word: a, index: 1'
p129
aatp130
Rp131
(dp132
g8
Vdet
p133
sbatp134
Rp135
(dp136
g8
S'word: man, index: 2'
p137
sbatp138
Rp139
(dp140
g8
Vnsubj
p141
sbag0
(g1
g2
(lp142
(lp143
S'word: is, index: 3'
p144
aatp145
Rp146
(dp147
g8
Vaux
p148
sbatp149
Rp150
(dp151
g8
S'word: drinking, index: 4'
p152
sbatp153
Rp154
(dp155
g8
S'id: 3'
p156
sbag0
(g1
g2
(lp157
g0
(g1
g2
(lp158
g0
(g1
g2
(lp159
(lp160
S'word: And, index: 1'
p161
aatp162
Rp163
(dp164
g8
Vcc
p165
sbag0
(g1
g2
(lp166
g0
(g1
g2
(lp167
g0
(g1
g2
(lp168
(lp169
S'word: the, index: 2'
p170
aatp171
Rp172
(dp173
g8
Vdet
p174
sbatp175
Rp176
(dp177
g8
S'word: man, index: 3'
p178
sbatp179
Rp180
(dp181
g8
Vnsubj
p182
sbag0
(g1
g2
(lp183
(lp184
S'word: is, index: 4'
p185
aatp186
Rp187
(dp188
g8
Vcop
p189
sbag0
(g1
g2
(lp190
g0
(g1
g2
(lp191
g0
(g1
g2
(lp192
(lp193
S'word: the, index: 5'
p194
aatp195
Rp196
(dp197
g8
Vdet
p198
sbatp199
Rp200
(dp201
g8
S'word: arm, index: 6'
p202
sbatp203
Rp204
(dp205
g8
Vposs
p206
sbatp207
Rp208
(dp209
g8
S'word: louw, index: 8'
p210
sbatp211
Rp212
(dp213
g8
S'id: 4'
p214
sbag0
(g1
g2
(lp215
g0
(g1
g2
(lp216
g0
(g1
g2
(lp217
g0
(g1
g2
(lp218
g0
(g1
g2
(lp219
(lp220
S'word: The, index: 1'
p221
aatp222
Rp223
(dp224
g8
Vdet
p225
sbatp226
Rp227
(dp228
g8
S'word: kite, index: 2'
p229
sbatp230
Rp231
(dp232
g8
Vnsubj
p233
sbag0
(g1
g2
(lp234
g0
(g1
g2
(lp235
g0
(g1
g2
(lp236
g0
(g1
g2
(lp237
g0
(g1
g2
(lp238
(lp239
S'word: girl, index: 8'
p240
aatp241
Rp242
(dp243
g8
Vnn
p244
sbag0
(g1
g2
(lp245
g0
(g1
g2
(lp246
g0
(g1
g2
(lp247
g0
(g1
g2
(lp248
g0
(g1
g2
(lp249
(lp250
S'word: the, index: 12'
p251
aatp252
Rp253
(dp254
g8
Vdet
p255
sbatp256
Rp257
(dp258
g8
S'word: yard, index: 13'
p259
sbatp260
Rp261
(dp262
g8
Vdep
p263
sbatp264
Rp265
(dp266
g8
S'word: one, index: 11'
p267
sbatp268
Rp269
(dp270
g8
Vappos
p271
sbatp272
Rp273
(dp274
g8
S'word: ans, index: 9'
p275
sbatp276
Rp277
(dp278
g8
Vconj
p279
sbatp280
Rp281
(dp282
g8
S'word: girl, index: 5'
p283
sbatp284
Rp285
(dp286
g8
Vprep
p287
sbag0
(g1
g2
(lp288
g273
atp289
Rp290
(dp291
g8
Vprep
p292
sbatp293
Rp294
(dp295
g8
S'word: is, index: 3'
p296
sbatp297
Rp298
(dp299
g8
S'id: 5'
p300
sbag0
(g1
g2
(lp301
g0
(g1
g2
(lp302
g0
(g1
g2
(lp303
g0
(g1
g2
(lp304
g0
(g1
g2
(lp305
(lp306
S'word: girl, index: 4'
p307
aatp308
Rp309
(dp310
g8
Vnsubj
p311
sbag0
(g1
g2
(lp312
(lp313
S'word: is, index: 5'
p314
aatp315
Rp316
(dp317
g8
Vcop
p318
sbatp319
Rp320
(dp321
g8
S'word: ok, index: 7'
p322
sbatp323
Rp324
(dp325
g8
Vccomp
p326
sbag0
(g1
g2
(lp327
(lp328
S'word: Somebody, index: 1'
p329
aatp330
Rp331
(dp332
g8
Vnsubj
p333
sbatp334
Rp335
(dp336
g8
S'word: is, index: 2'
p337
sbatp338
Rp339
(dp340
g8
S'id: 6'
p341
sbag0
(g1
g2
(lp342
g0
(g1
g2
(lp343
g0
(g1
g2
(lp344
g0
(g1
g2
(lp345
g0
(g1
g2
(lp346
(lp347
S'word: The, index: 1'
p348
aatp349
Rp350
(dp351
g8
Vdet
p352
sbatp353
Rp354
(dp355
g8
S'word: arm, index: 2'
p356
sbatp357
Rp358
(dp359
g8
Vposs
p360
sbatp361
Rp362
(dp363
g8
S'word: shower, index: 4'
p364
sbatp365
Rp366
(dp367
g8
S'id: 7'
p368
sbag0
(g1
g2
(lp369
g0
(g1
g2
(lp370
g0
(g1
g2
(lp371
g0
(g1
g2
(lp372
g0
(g1
g2
(lp373
(lp374
S'word: is, index: 8'
p375
aatp376
Rp377
(dp378
g8
Vcop
p379
sbag0
(g1
g2
(lp380
(lp381
S'word: the, index: 12'
p382
aatp383
Rp384
(dp385
g8
Vconj
p386
sbag0
(g1
g2
(lp387
(lp388
S'word: the, index: 4'
p389
aatp390
Rp391
(dp392
g8
Vnsubj
p393
sbag0
(g1
g2
(lp394
g0
(g1
g2
(lp395
g0
(g1
g2
(lp396
(lp397
S'word: the, index: 6'
p398
aatp399
Rp400
(dp401
g8
Vdet
p402
sbatp403
Rp404
(dp405
g8
S'word: man, index: 7'
p406
sbatp407
Rp408
(dp409
g8
Vnsubj
p410
sbatp411
Rp412
(dp413
g8
S'word: hor, index: 9'
p414
sbatp415
Rp416
(dp417
g8
Vparataxis
p418
sbag0
(g1
g2
(lp419
(lp420
S'word: the, index: 12'
p421
aatp422
Rp423
(dp424
g8
Vparataxis
p425
sbag0
(g1
g2
(lp426
(lp427
S'word: do, index: 14'
p428
aatp429
Rp430
(dp431
g8
Vaux
p432
sbag0
(g1
g2
(lp433
(lp434
S"word: n't, index: 15"
p435
aatp436
Rp437
(dp438
g8
Vneg
p439
sbag0
(g1
g2
(lp440
(lp441
S'word: And, index: 1'
p442
aatp443
Rp444
(dp445
g8
Vcc
p446
sbag0
(g1
g2
(lp447
(lp448
S'word: they, index: 2'
p449
aatp450
Rp451
(dp452
g8
Vnsubj
p453
sbag0
(g1
g2
(lp454
g0
(g1
g2
(lp455
g0
(g1
g2
(lp456
(lp457
S'word: the, index: 18'
p458
aatp459
Rp460
(dp461
g8
Vdet
p462
sbatp463
Rp464
(dp465
g8
S'word: yard, index: 19'
p466
sbatp467
Rp468
(dp469
g8
Vdep
p470
sbatp471
Rp472
(dp473
g8
S'word: know, index: 16'
p474
sbatp475
Rp476
(dp477
g8
S'id: 8'
p478
sbag0
(g1
g2
(lp479
g0
(g1
g2
(lp480
g0
(g1
g2
(lp481
g0
(g1
g2
(lp482
g0
(g1
g2
(lp483
(lp484
S'word: the, index: 11'
p485
aatp486
Rp487
(dp488
g8
Vdet
p489
sbatp490
Rp491
(dp492
g8
S'word: yard, index: 12'
p493
sbatp494
Rp495
(dp496
g8
Vnsubj
p497
sbag0
(g1
g2
(lp498
g0
(g1
g2
(lp499
g0
(g1
g2
(lp500
(lp501
S'word: If, index: 1'
p502
aatp503
Rp504
(dp505
g8
Vmark
p506
sbag0
(g1
g2
(lp507
g0
(g1
g2
(lp508
g0
(g1
g2
(lp509
(lp510
S'word: a, index: 2'
p511
aatp512
Rp513
(dp514
g8
Vdet
p515
sbatp516
Rp517
(dp518
g8
S'word: man, index: 3'
p519
sbatp520
Rp521
(dp522
g8
Vnsubj
p523
sbag0
(g1
g2
(lp524
g0
(g1
g2
(lp525
g0
(g1
g2
(lp526
(lp527
S'word: man, index: 6'
p528
aatp529
Rp530
(dp531
g8
Vnsubj
p532
sbatp533
Rp534
(dp535
g8
S'word: is, index: 7'
p536
sbatp537
Rp538
(dp539
g8
Vccomp
p540
sbatp541
Rp542
(dp543
g8
S'word: is, index: 4'
p544
sbatp545
Rp546
(dp547
g8
Vadvcl
p548
sbag0
(g1
g2
(lp549
g0
(g1
g2
(lp550
g0
(g1
g2
(lp551
g491
atp552
Rp553
(dp554
g8
Vconj
p555
sbatp556
Rp557
(dp558
g8
S'word: drinking, index: 9'
p559
sbatp560
Rp561
(dp562
g8
Vnsubj
p563
sbatp564
Rp565
(dp566
g8
S'word: is, index: 13'
p567
sbatp568
Rp569
(dp570
g8
S'id: 9'
p571
sbatp572
Rp573
(dp574
g8
S'sentences'
p575
sb.