ccopy_reg
_reconstructor
p0
(cnltk.tree
Tree
p1
c__builtin__
list
p2
(lp3
g0
(g1
g2
(lp4
g0
(g1
g2
(lp5
g0
(g1
g2
(lp6
g0
(g1
g2
(lp7
VIt
p8
atp9
Rp10
(dp11
S'_label'
p12
VPRP
p13
sbatp14
Rp15
(dp16
g12
VNP
p17
sbag0
(g1
g2
(lp18
g0
(g1
g2
(lp19
V's
p20
atp21
Rp22
(dp23
g12
VVBZ
p24
sbag0
(g1
g2
(lp25
g0
(g1
g2
(lp26
g0
(g1
g2
(lp27
Vtrains
p28
atp29
Rp30
(dp31
g12
VNNS
p32
sbatp33
Rp34
(dp35
g12
VNP
p36
sbag0
(g1
g2
(lp37
V,
p38
atp39
Rp40
(dp41
g12
V,
p42
sbag0
(g1
g2
(lp43
g0
(g1
g2
(lp44
Vtrain
p45
atp46
Rp47
(dp48
g12
VNN
p49
sbatp50
Rp51
(dp52
g12
VNP
p53
sbatp54
Rp55
(dp56
g12
VNP
p57
sbatp58
Rp59
(dp60
g12
VVP
p61
sbag0
(g1
g2
(lp62
V.
p63
atp64
Rp65
(dp66
g12
V.
p67
sbatp68
Rp69
(dp70
g12
VS
p71
sbatp72
Rp73
(dp74
g12
S'id: 0'
p75
sbag0
(g1
g2
(lp76
g0
(g1
g2
(lp77
g0
(g1
g2
(lp78
g0
(g1
g2
(lp79
g0
(g1
g2
(lp80
VIt
p81
atp82
Rp83
(dp84
g12
VPRP
p85
sbatp86
Rp87
(dp88
g12
VNP
p89
sbag0
(g1
g2
(lp90
g0
(g1
g2
(lp91
Vpay
p92
atp93
Rp94
(dp95
g12
VVBP
p96
sbag0
(g1
g2
(lp97
V,
p98
atp99
Rp100
(dp101
g12
V,
p102
sbag0
(g1
g2
(lp103
g0
(g1
g2
(lp104
g0
(g1
g2
(lp105
Vpaid
p106
atp107
Rp108
(dp109
g12
VVBN
p110
sbatp111
Rp112
(dp113
g12
VVP
p114
sbatp115
Rp116
(dp117
g12
VS
p118
sbatp119
Rp120
(dp121
g12
VVP
p122
sbatp123
Rp124
(dp125
g12
VS
p126
sbag0
(g1
g2
(lp127
V,
p128
atp129
Rp130
(dp131
g12
V,
p132
sbag0
(g1
g2
(lp133
Vand
p134
atp135
Rp136
(dp137
g12
VCC
p138
sbag0
(g1
g2
(lp139
g0
(g1
g2
(lp140
Vthen
p141
atp142
Rp143
(dp144
g12
VRB
p145
sbag0
(g1
g2
(lp146
g0
(g1
g2
(lp147
Voutside
p148
atp149
Rp150
(dp151
g12
VJJ
p152
sbatp153
Rp154
(dp155
g12
VADVP
p156
sbatp157
Rp158
(dp159
g12
VFRAG
p160
sbag0
(g1
g2
(lp161
V.
p162
atp163
Rp164
(dp165
g12
V.
p166
sbatp167
Rp168
(dp169
g12
VS
p170
sbatp171
Rp172
(dp173
g12
S'id: 1'
p174
sbag0
(g1
g2
(lp175
g0
(g1
g2
(lp176
g0
(g1
g2
(lp177
g0
(g1
g2
(lp178
VThis
p179
atp180
Rp181
(dp182
g12
VDT
p183
sbatp184
Rp185
(dp186
g12
VNP
p187
sbag0
(g1
g2
(lp188
g0
(g1
g2
(lp189
Vhere
p190
atp191
Rp192
(dp193
g12
VRB
p194
sbatp195
Rp196
(dp197
g12
VADVP
p198
sbag0
(g1
g2
(lp199
V.
p200
atp201
Rp202
(dp203
g12
V.
p204
sbatp205
Rp206
(dp207
g12
VFRAG
p208
sbatp209
Rp210
(dp211
g12
S'id: 2'
p212
sbag0
(g1
g2
(lp213
g0
(g1
g2
(lp214
g0
(g1
g2
(lp215
g0
(g1
g2
(lp216
g0
(g1
g2
(lp217
VFiftay
p218
atp219
Rp220
(dp221
g12
VNNP
p222
sbag0
(g1
g2
(lp223
VGirl
p224
atp225
Rp226
(dp227
g12
VNNP
p228
sbatp229
Rp230
(dp231
g12
VNP
p232
sbag0
(g1
g2
(lp233
Vand
p234
atp235
Rp236
(dp237
g12
VCC
p238
sbag0
(g1
g2
(lp239
g0
(g1
g2
(lp240
Va
p241
atp242
Rp243
(dp244
g12
VDT
p245
sbag0
(g1
g2
(lp246
Vboy
p247
atp248
Rp249
(dp250
g12
VNN
p251
sbatp252
Rp253
(dp254
g12
VNP
p255
sbatp256
Rp257
(dp258
g12
VNP
p259
sbag0
(g1
g2
(lp260
V.
p261
atp262
Rp263
(dp264
g12
V.
p265
sbatp266
Rp267
(dp268
g12
VNP
p269
sbatp270
Rp271
(dp272
g12
S'id: 3'
p273
sbag0
(g1
g2
(lp274
g0
(g1
g2
(lp275
g0
(g1
g2
(lp276
g0
(g1
g2
(lp277
VSee
p278
atp279
Rp280
(dp281
g12
VVB
p282
sbag0
(g1
g2
(lp283
g0
(g1
g2
(lp284
Vradio
p285
atp286
Rp287
(dp288
g12
VNN
p289
sbatp290
Rp291
(dp292
g12
VNP
p293
sbatp294
Rp295
(dp296
g12
VVP
p297
sbag0
(g1
g2
(lp298
V.
p299
atp300
Rp301
(dp302
g12
V.
p303
sbatp304
Rp305
(dp306
g12
VS
p307
sbatp308
Rp309
(dp310
g12
S'id: 4'
p311
sbag0
(g1
g2
(lp312
g0
(g1
g2
(lp313
g0
(g1
g2
(lp314
g0
(g1
g2
(lp315
VBall
p316
atp317
Rp318
(dp319
g12
VNNP
p320
sbatp321
Rp322
(dp323
g12
VNP
p324
sbag0
(g1
g2
(lp325
V.
p326
atp327
Rp328
(dp329
g12
V.
p330
sbatp331
Rp332
(dp333
g12
VFRAG
p334
sbatp335
Rp336
(dp337
g12
S'id: 5'
p338
sbag0
(g1
g2
(lp339
g0
(g1
g2
(lp340
g0
(g1
g2
(lp341
g0
(g1
g2
(lp342
VHere
p343
atp344
Rp345
(dp346
g12
VRB
p347
sbatp348
Rp349
(dp350
g12
VADVP
p351
sbag0
(g1
g2
(lp352
g0
(g1
g2
(lp353
Vgot
p354
atp355
Rp356
(dp357
g12
VVBD
p358
sbatp359
Rp360
(dp361
g12
VVP
p362
sbag0
(g1
g2
(lp363
g0
(g1
g2
(lp364
Va
p365
atp366
Rp367
(dp368
g12
VDT
p369
sbag0
(g1
g2
(lp370
Vboy
p371
atp372
Rp373
(dp374
g12
VNN
p375
sbag0
(g1
g2
(lp376
g0
(g1
g2
(lp377
g0
(g1
g2
(lp378
Vthat
p379
atp380
Rp381
(dp382
g12
VWDT
p383
sbatp384
Rp385
(dp386
g12
VWHNP
p387
sbag0
(g1
g2
(lp388
g0
(g1
g2
(lp389
g0
(g1
g2
(lp390
Vflying
p391
atp392
Rp393
(dp394
g12
VVBG
p395
sbag0
(g1
g2
(lp396
g0
(g1
g2
(lp397
Va
p398
atp399
Rp400
(dp401
g12
VDT
p402
sbag0
(g1
g2
(lp403
Vgiant
p404
atp405
Rp406
(dp407
g12
VJJ
p408
sbag0
(g1
g2
(lp409
Vkite
p410
atp411
Rp412
(dp413
g12
VNN
p414
sbatp415
Rp416
(dp417
g12
VNP
p418
sbatp419
Rp420
(dp421
g12
VVP
p422
sbatp423
Rp424
(dp425
g12
VS
p426
sbatp427
Rp428
(dp429
g12
VSBAR
p430
sbatp431
Rp432
(dp433
g12
VNP
p434
sbag0
(g1
g2
(lp435
V.
p436
atp437
Rp438
(dp439
g12
V.
p440
sbatp441
Rp442
(dp443
g12
VSINV
p444
sbatp445
Rp446
(dp447
g12
S'id: 6'
p448
sbag0
(g1
g2
(lp449
g0
(g1
g2
(lp450
g0
(g1
g2
(lp451
VAnd
p452
atp453
Rp454
(dp455
g12
VCC
p456
sbag0
(g1
g2
(lp457
g0
(g1
g2
(lp458
g0
(g1
g2
(lp459
VRunning
p460
atp461
Rp462
(dp463
g12
VVBG
p464
sbag0
(g1
g2
(lp465
g0
(g1
g2
(lp466
Vall
p467
atp468
Rp469
(dp470
g12
VDT
p471
sbag0
(g1
g2
(lp472
Vday
p473
atp474
Rp475
(dp476
g12
VNN
p477
sbag0
(g1
g2
(lp478
Vdog
p479
atp480
Rp481
(dp482
g12
VNN
p483
sbatp484
Rp485
(dp486
g12
VNP
p487
sbatp488
Rp489
(dp490
g12
VVP
p491
sbatp492
Rp493
(dp494
g12
VS
p495
sbag0
(g1
g2
(lp496
V,
p497
atp498
Rp499
(dp500
g12
V,
p501
sbag0
(g1
g2
(lp502
g0
(g1
g2
(lp503
Vdog
p504
atp505
Rp506
(dp507
g12
VNN
p508
sbatp509
Rp510
(dp511
g12
VNP
p512
sbag0
(g1
g2
(lp513
g0
(g1
g2
(lp514
Vtry
p515
atp516
Rp517
(dp518
g12
VVBP
p519
sbag0
(g1
g2
(lp520
g0
(g1
g2
(lp521
Vto
p522
atp523
Rp524
(dp525
g12
VTO
p526
sbatp527
Rp528
(dp529
g12
VPP
p530
sbag0
(g1
g2
(lp531
V,
p532
atp533
Rp534
(dp535
g12
V,
p536
sbag0
(g1
g2
(lp537
g0
(g1
g2
(lp538
Vin
p539
atp540
Rp541
(dp542
g12
VIN
p543
sbag0
(g1
g2
(lp544
g0
(g1
g2
(lp545
g0
(g1
g2
(lp546
Vdog
p547
atp548
Rp549
(dp550
g12
VNN
p551
sbatp552
Rp553
(dp554
g12
VNP
p555
sbag0
(g1
g2
(lp556
g0
(g1
g2
(lp557
Vdo
p558
atp559
Rp560
(dp561
g12
VVBP
p562
sbatp563
Rp564
(dp565
g12
VVP
p566
sbatp567
Rp568
(dp569
g12
VS
p570
sbatp571
Rp572
(dp573
g12
VSBAR
p574
sbatp575
Rp576
(dp577
g12
VVP
p578
sbag0
(g1
g2
(lp579
V.
p580
atp581
Rp582
(dp583
g12
V.
p584
sbatp585
Rp586
(dp587
g12
VS
p588
sbatp589
Rp590
(dp591
g12
S'id: 7'
p592
sbag0
(g1
g2
(lp593
g0
(g1
g2
(lp594
g0
(g1
g2
(lp595
VHere
p596
atp597
Rp598
(dp599
g12
VRB
p600
sbag0
(g1
g2
(lp601
g0
(g1
g2
(lp602
Vboy
p603
atp604
Rp605
(dp606
g12
VNN
p607
sbatp608
Rp609
(dp610
g12
VNP
p611
sbag0
(g1
g2
(lp612
V,
p613
atp614
Rp615
(dp616
g12
V,
p617
sbag0
(g1
g2
(lp618
g0
(g1
g2
(lp619
Vsandcastle
p620
atp621
Rp622
(dp623
g12
VNN
p624
sbatp625
Rp626
(dp627
g12
VNP
p628
sbag0
(g1
g2
(lp629
V.
p630
atp631
Rp632
(dp633
g12
V.
p634
sbatp635
Rp636
(dp637
g12
VFRAG
p638
sbatp639
Rp640
(dp641
g12
S'id: 8'
p642
sbag0
(g1
g2
(lp643
g0
(g1
g2
(lp644
g0
(g1
g2
(lp645
g0
(g1
g2
(lp646
g0
(g1
g2
(lp647
VHere
p648
atp649
Rp650
(dp651
g12
VRB
p652
sbatp653
Rp654
(dp655
g12
VADVP
p656
sbag0
(g1
g2
(lp657
V,
p658
atp659
Rp660
(dp661
g12
V,
p662
sbag0
(g1
g2
(lp663
g0
(g1
g2
(lp664
Vgot
p665
atp666
Rp667
(dp668
g12
VVBD
p669
sbag0
(g1
g2
(lp670
g0
(g1
g2
(lp671
Vfishing
p672
atp673
Rp674
(dp675
g12
VNN
p676
sbatp677
Rp678
(dp679
g12
VNP
p680
sbatp681
Rp682
(dp683
g12
VVP
p684
sbatp685
Rp686
(dp687
g12
VS
p688
sbag0
(g1
g2
(lp689
V,
p690
atp691
Rp692
(dp693
g12
V,
p694
sbag0
(g1
g2
(lp695
g0
(g1
g2
(lp696
Vhe
p697
atp698
Rp699
(dp700
g12
VPRP
p701
sbatp702
Rp703
(dp704
g12
VNP
p705
sbag0
(g1
g2
(lp706
g0
(g1
g2
(lp707
Vcaught
p708
atp709
Rp710
(dp711
g12
VVBD
p712
sbag0
(g1
g2
(lp713
g0
(g1
g2
(lp714
Vone
p715
atp716
Rp717
(dp718
g12
VCD
p719
sbatp720
Rp721
(dp722
g12
VNP
p723
sbatp724
Rp725
(dp726
g12
VVP
p727
sbag0
(g1
g2
(lp728
V.
p729
atp730
Rp731
(dp732
g12
V.
p733
sbatp734
Rp735
(dp736
g12
VS
p737
sbatp738
Rp739
(dp740
g12
S'id: 9'
p741
sbag0
(g1
g2
(lp742
g0
(g1
g2
(lp743
g0
(g1
g2
(lp744
g0
(g1
g2
(lp745
g0
(g1
g2
(lp746
VSailboat
p747
atp748
Rp749
(dp750
g12
VNNP
p751
sbatp752
Rp753
(dp754
g12
VNP
p755
sbag0
(g1
g2
(lp756
V,
p757
atp758
Rp759
(dp760
g12
V,
p761
sbag0
(g1
g2
(lp762
Vand
p763
atp764
Rp765
(dp766
g12
VCC
p767
sbag0
(g1
g2
(lp768
g0
(g1
g2
(lp769
Vtwo
p770
atp771
Rp772
(dp773
g12
VCD
p774
sbag0
(g1
g2
(lp775
Vpeople
p776
atp777
Rp778
(dp779
g12
VNNS
p780
sbatp781
Rp782
(dp783
g12
VNP
p784
sbatp785
Rp786
(dp787
g12
VNP
p788
sbag0
(g1
g2
(lp789
g0
(g1
g2
(lp790
Vrabing
p791
atp792
Rp793
(dp794
g12
VVBG
p795
sbatp796
Rp797
(dp798
g12
VVP
p799
sbag0
(g1
g2
(lp800
V.
p801
atp802
Rp803
(dp804
g12
V.
p805
sbatp806
Rp807
(dp808
g12
VNP
p809
sbatp810
Rp811
(dp812
g12
S'id: 10'
p813
sbag0
(g1
g2
(lp814
g0
(g1
g2
(lp815
g0
(g1
g2
(lp816
g0
(g1
g2
(lp817
VHouse
p818
atp819
Rp820
(dp821
g12
VNNP
p822
sbatp823
Rp824
(dp825
g12
VNP
p826
sbag0
(g1
g2
(lp827
V.
p828
atp829
Rp830
(dp831
g12
V.
p832
sbatp833
Rp834
(dp835
g12
VFRAG
p836
sbatp837
Rp838
(dp839
g12
S'id: 11'
p840
sbag0
(g1
g2
(lp841
g0
(g1
g2
(lp842
g0
(g1
g2
(lp843
g0
(g1
g2
(lp844
VIn
p845
atp846
Rp847
(dp848
g12
VIN
p849
sbag0
(g1
g2
(lp850
g0
(g1
g2
(lp851
Vthe
p852
atp853
Rp854
(dp855
g12
VDT
p856
sbatp857
Rp858
(dp859
g12
VNP
p860
sbatp861
Rp862
(dp863
g12
VPP
p864
sbag0
(g1
g2
(lp865
V.
p866
atp867
Rp868
(dp869
g12
V.
p870
sbatp871
Rp872
(dp873
g12
VFRAG
p874
sbatp875
Rp876
(dp877
g12
S'id: 12'
p878
sbag0
(g1
g2
(lp879
g0
(g1
g2
(lp880
g0
(g1
g2
(lp881
g0
(g1
g2
(lp882
VBank
p883
atp884
Rp885
(dp886
g12
VNNP
p887
sbatp888
Rp889
(dp890
g12
VNP
p891
sbag0
(g1
g2
(lp892
V.
p893
atp894
Rp895
(dp896
g12
V.
p897
sbatp898
Rp899
(dp900
g12
VFRAG
p901
sbatp902
Rp903
(dp904
g12
S'id: 13'
p905
sbag0
(g1
g2
(lp906
g0
(g1
g2
(lp907
g0
(g1
g2
(lp908
g0
(g1
g2
(lp909
VIs
p910
atp911
Rp912
(dp913
g12
VVBZ
p914
sbag0
(g1
g2
(lp915
g0
(g1
g2
(lp916
Vone
p917
atp918
Rp919
(dp920
g12
VCD
p921
sbag0
(g1
g2
(lp922
Vhouse
p923
atp924
Rp925
(dp926
g12
VNN
p927
sbatp928
Rp929
(dp930
g12
VNP
p931
sbatp932
Rp933
(dp934
g12
VVP
p935
sbag0
(g1
g2
(lp936
V.
p937
atp938
Rp939
(dp940
g12
V.
p941
sbatp942
Rp943
(dp944
g12
VS
p945
sbatp946
Rp947
(dp948
g12
S'id: 14'
p949
sbatp950
Rp951
(dp952
g12
S'sentences'
p953
sb.