ccopy_reg
_reconstructor
p0
(cnltk.tree
Tree
p1
c__builtin__
list
p2
(lp3
g0
(g1
g2
(lp4
g0
(g1
g2
(lp5
g0
(g1
g2
(lp6
Vand two
p7
atp8
Rp9
(dp10
S'_label'
p11
S'start: 15'
p12
sbatp13
Rp14
(dp15
g11
S'sent: 3'
p16
sbag0
(g1
g2
(lp17
g0
(g1
g2
(lp18
Vit
p19
atp20
Rp21
(dp22
g11
S'start: 1'
p23
sbatp24
Rp25
(dp26
g11
S'sent: 4'
p27
sbatp28
Rp29
(dp30
g11
S'id: 10'
p31
sbag0
(g1
g2
(lp32
g0
(g1
g2
(lp33
g0
(g1
g2
(lp34
Va way wa k cane a k cane walking
p35
atp36
Rp37
(dp38
g11
S'start: 7'
p39
sbatp40
Rp41
(dp42
g11
S'sent: 6'
p43
sbag0
(g1
g2
(lp44
g0
(g1
g2
(lp45
Vit
p46
atp47
Rp48
(dp49
g11
S'start: 38'
p50
sbatp51
Rp52
(dp53
g11
S'sent: 6'
p54
sbatp55
Rp56
(dp57
g11
S'id: 16'
p58
sbag0
(g1
g2
(lp59
g0
(g1
g2
(lp60
g0
(g1
g2
(lp61
Vgirl girl
p62
atp63
Rp64
(dp65
g11
S'start: 21'
p66
sbatp67
Rp68
(dp69
g11
S'sent: 6'
p70
sbag0
(g1
g2
(lp71
g0
(g1
g2
(lp72
Vgirl girl
p73
atp74
Rp75
(dp76
g11
S'start: 23'
p77
sbatp78
Rp79
(dp80
g11
S'sent: 6'
p81
sbag0
(g1
g2
(lp82
g0
(g1
g2
(lp83
Vgirl girl
p84
atp85
Rp86
(dp87
g11
S'start: 41'
p88
sbatp89
Rp90
(dp91
g11
S'sent: 6'
p92
sbatp93
Rp94
(dp95
g11
S'id: 19'
p96
sbag0
(g1
g2
(lp97
g0
(g1
g2
(lp98
g0
(g1
g2
(lp99
Vthe a
p100
atp101
Rp102
(dp103
g11
S'start: 25'
p104
sbatp105
Rp106
(dp107
g11
S'sent: 6'
p108
sbag0
(g1
g2
(lp109
g0
(g1
g2
(lp110
Vthe a
p111
atp112
Rp113
(dp114
g11
S'start: 28'
p115
sbatp116
Rp117
(dp118
g11
S'sent: 6'
p119
sbag0
(g1
g2
(lp120
g0
(g1
g2
(lp121
Vthe a
p122
atp123
Rp124
(dp125
g11
S'start: 31'
p126
sbatp127
Rp128
(dp129
g11
S'sent: 6'
p130
sbatp131
Rp132
(dp133
g11
S'id: 22'
p134
sbag0
(g1
g2
(lp135
g0
(g1
g2
(lp136
g0
(g1
g2
(lp137
Vthe
p138
atp139
Rp140
(dp141
g11
S'start: 2'
p142
sbatp143
Rp144
(dp145
g11
S'sent: 7'
p146
sbag0
(g1
g2
(lp147
g0
(g1
g2
(lp148
Vit
p149
atp150
Rp151
(dp152
g11
S'start: 7'
p153
sbatp154
Rp155
(dp156
g11
S'sent: 7'
p157
sbag0
(g1
g2
(lp158
g0
(g1
g2
(lp159
Vit
p160
atp161
Rp162
(dp163
g11
S'start: 3'
p164
sbatp165
Rp166
(dp167
g11
S'sent: 8'
p168
sbag0
(g1
g2
(lp169
g0
(g1
g2
(lp170
Vit
p171
atp172
Rp173
(dp174
g11
S'start: 7'
p175
sbatp176
Rp177
(dp178
g11
S'sent: 8'
p179
sbatp180
Rp181
(dp182
g11
S'id: 29'
p183
sbatp184
Rp185
(dp186
g11
S'coreferences'
p187
sb.