ccopy_reg
_reconstructor
p0
(cnltk.tree
Tree
p1
c__builtin__
list
p2
(lp3
g0
(g1
g2
(lp4
g0
(g1
g2
(lp5
g0
(g1
g2
(lp6
(lp7
S'word: All, index: 1'
p8
aatp9
Rp10
(dp11
S'_label'
p12
Vdet
p13
sbatp14
Rp15
(dp16
g12
S'word: right, index: 2'
p17
sbatp18
Rp19
(dp20
g12
S'id: 0'
p21
sbag0
(g1
g2
(lp22
g0
(g1
g2
(lp23
g0
(g1
g2
(lp24
g0
(g1
g2
(lp25
g0
(g1
g2
(lp26
(lp27
S'word: a, index: 3'
p28
aatp29
Rp30
(dp31
g12
Vdet
p32
sbag0
(g1
g2
(lp33
(lp34
S'word: nice, index: 4'
p35
aatp36
Rp37
(dp38
g12
Vamod
p39
sbag0
(g1
g2
(lp40
g0
(g1
g2
(lp41
g0
(g1
g2
(lp42
g0
(g1
g2
(lp43
g0
(g1
g2
(lp44
(lp45
S'word: nineteen, index: 6'
p46
aatp47
Rp48
(dp49
g12
Vnum
p50
sbatp51
Rp52
(dp53
g12
S'word: fifties, index: 7'
p54
sbatp55
Rp56
(dp57
g12
Vdep
p58
sbatp59
Rp60
(dp61
g12
S'word: little, index: 5'
p62
sbatp63
Rp64
(dp65
g12
Vamod
p66
sbag0
(g1
g2
(lp67
g0
(g1
g2
(lp68
g0
(g1
g2
(lp69
g0
(g1
g2
(lp70
g0
(g1
g2
(lp71
g0
(g1
g2
(lp72
g0
(g1
g2
(lp73
(lp74
S'word: the, index: 12'
p75
aatp76
Rp77
(dp78
g12
Vdet
p79
sbatp80
Rp81
(dp82
g12
S'word: sink, index: 13'
p83
sbatp84
Rp85
(dp86
g12
Vprep
p87
sbatp88
Rp89
(dp90
g12
S'word: dishes, index: 10'
p91
sbatp92
Rp93
(dp94
g12
Vdobj
p95
sbatp96
Rp97
(dp98
g12
S'word: doing, index: 9'
p99
sbatp100
Rp101
(dp102
g12
Vvmod
p103
sbatp104
Rp105
(dp106
g12
S'word: housewife, index: 8'
p107
sbatp108
Rp109
(dp110
g12
Vdobj
p111
sbag0
(g1
g2
(lp112
g0
(g1
g2
(lp113
g0
(g1
g2
(lp114
g0
(g1
g2
(lp115
g0
(g1
g2
(lp116
(lp117
S'word: does, index: 35'
p118
aatp119
Rp120
(dp121
g12
Vaux
p122
sbag0
(g1
g2
(lp123
(lp124
S"word: n't, index: 36"
p125
aatp126
Rp127
(dp128
g12
Vneg
p129
sbag0
(g1
g2
(lp130
g0
(g1
g2
(lp131
g0
(g1
g2
(lp132
(lp133
S'word: to, index: 38'
p134
aatp135
Rp136
(dp137
g12
Vaux
p138
sbag0
(g1
g2
(lp139
(lp140
S'word: be, index: 39'
p141
aatp142
Rp143
(dp144
g12
Vcop
p145
sbag0
(g1
g2
(lp146
(lp147
S'word: too, index: 40'
p148
aatp149
Rp150
(dp151
g12
Vadvmod
p152
sbatp153
Rp154
(dp155
g12
S'word: concerned, index: 41'
p156
sbatp157
Rp158
(dp159
g12
Vxcomp
p160
sbag0
(g1
g2
(lp161
(lp162
S'word: she, index: 34'
p163
aatp164
Rp165
(dp166
g12
Vnsubj
p167
sbatp168
Rp169
(dp170
g12
S'word: seem, index: 37'
p171
sbatp172
Rp173
(dp174
g12
Vconj
p175
sbag0
(g1
g2
(lp176
(lp177
S'word: it, index: 24'
p178
aatp179
Rp180
(dp181
g12
Vnsubj
p182
sbag0
(g1
g2
(lp183
(lp184
S"word: 's, index: 25"
p185
aatp186
Rp187
(dp188
g12
Vaux
p189
sbag0
(g1
g2
(lp190
g0
(g1
g2
(lp191
g0
(g1
g2
(lp192
g0
(g1
g2
(lp193
g0
(g1
g2
(lp194
(lp195
S'word: her, index: 27'
p196
aatp197
Rp198
(dp199
g12
Vposs
p200
sbag0
(g1
g2
(lp201
(lp202
S'word: nice, index: 28'
p203
aatp204
Rp205
(dp206
g12
Vamod
p207
sbatp208
Rp209
(dp210
g12
S'word: shoes, index: 29'
p211
sbatp212
Rp213
(dp214
g12
Vnsubj
p215
sbag0
(g1
g2
(lp216
(lp217
S'word: all, index: 30'
p218
aatp219
Rp220
(dp221
g12
Vdet
p222
sbatp223
Rp224
(dp225
g12
S'word: wet, index: 31'
p226
sbatp227
Rp228
(dp229
g12
Vxcomp
p230
sbatp231
Rp232
(dp233
g12
S'word: getting, index: 26'
p234
sbatp235
Rp236
(dp237
g12
Vconj
p238
sbag0
(g1
g2
(lp239
(lp240
S'word: We, index: 1'
p241
aatp242
Rp243
(dp244
g12
Vnsubj
p245
sbag0
(g1
g2
(lp246
g0
(g1
g2
(lp247
g0
(g1
g2
(lp248
g0
(g1
g2
(lp249
g0
(g1
g2
(lp250
(lp251
S'word: the, index: 19'
p252
aatp253
Rp254
(dp255
g12
Vdet
p256
sbag0
(g1
g2
(lp257
(lp258
S'word: sink, index: 20'
p259
aatp260
Rp261
(dp262
g12
Vnn
p263
sbatp264
Rp265
(dp266
g12
S'word: overflow, index: 21'
p267
sbatp268
Rp269
(dp270
g12
Vdobj
p271
sbag0
(g1
g2
(lp272
g169
atp273
Rp274
(dp275
g12
Vconj
p276
sbag0
(g1
g2
(lp277
g232
atp278
Rp279
(dp280
g12
Vconj
p281
sbag0
(g1
g2
(lp282
(lp283
S'word: she, index: 16'
p284
aatp285
Rp286
(dp287
g12
Vnsubj
p288
sbag0
(g1
g2
(lp289
(lp290
S'word: is, index: 17'
p291
aatp292
Rp293
(dp294
g12
Vaux
p295
sbatp296
Rp297
(dp298
g12
S'word: letting, index: 18'
p299
sbatp300
Rp301
(dp302
g12
Vconj
p303
sbatp304
Rp305
(dp306
g12
S'word: have, index: 2'
p307
sbatp308
Rp309
(dp310
g12
S'id: 1'
p311
sbag0
(g1
g2
(lp312
g0
(g1
g2
(lp313
g0
(g1
g2
(lp314
g0
(g1
g2
(lp315
g0
(g1
g2
(lp316
(lp317
S'word: off, index: 23'
p318
aatp319
Rp320
(dp321
g12
Vprt
p322
sbag0
(g1
g2
(lp323
g0
(g1
g2
(lp324
g0
(g1
g2
(lp325
(lp326
S'word: the, index: 24'
p327
aatp328
Rp329
(dp330
g12
Vdet
p331
sbatp332
Rp333
(dp334
g12
S'word: stool, index: 25'
p335
sbatp336
Rp337
(dp338
g12
Vdobj
p339
sbag0
(g1
g2
(lp340
(lp341
S'word: to, index: 21'
p342
aatp343
Rp344
(dp345
g12
Vaux
p346
sbatp347
Rp348
(dp349
g12
S'word: fall, index: 22'
p350
sbatp351
Rp352
(dp353
g12
Vxcomp
p354
sbag0
(g1
g2
(lp355
g0
(g1
g2
(lp356
g0
(g1
g2
(lp357
(lp358
S'word: are, index: 6'
p359
aatp360
Rp361
(dp362
g12
Vaux
p363
sbag0
(g1
g2
(lp364
(lp365
S'word: cookies, index: 8'
p366
aatp367
Rp368
(dp369
g12
Vdobj
p370
sbag0
(g1
g2
(lp371
g0
(g1
g2
(lp372
g0
(g1
g2
(lp373
(lp374
S'word: the, index: 11'
p375
aatp376
Rp377
(dp378
g12
Vdet
p379
sbag0
(g1
g2
(lp380
(lp381
S'word: cookie, index: 12'
p382
aatp383
Rp384
(dp385
g12
Vnn
p386
sbatp387
Rp388
(dp389
g12
S'word: jar, index: 13'
p390
sbatp391
Rp392
(dp393
g12
Vprep
p394
sbag0
(g1
g2
(lp395
(lp396
S'word: While, index: 1'
p397
aatp398
Rp399
(dp400
g12
Vmark
p401
sbag0
(g1
g2
(lp402
g0
(g1
g2
(lp403
g0
(g1
g2
(lp404
(lp405
S'word: her, index: 2'
p406
aatp407
Rp408
(dp409
g12
Vposs
p410
sbag0
(g1
g2
(lp411
(lp412
S'word: daughter, index: 5'
p413
aatp414
Rp415
(dp416
g12
Vconj
p417
sbatp418
Rp419
(dp420
g12
S'word: son, index: 3'
p421
sbatp422
Rp423
(dp424
g12
Vnsubj
p425
sbag0
(g1
g2
(lp426
(lp427
S'word: daughter, index: 5'
p428
aatp429
Rp430
(dp431
g12
Vnsubj
p432
sbatp433
Rp434
(dp435
g12
S'word: getting, index: 7'
p436
sbatp437
Rp438
(dp439
g12
Vadvcl
p440
sbag0
(g1
g2
(lp441
(lp442
S'word: but, index: 15'
p443
aatp444
Rp445
(dp446
g12
Vcc
p447
sbag0
(g1
g2
(lp448
g0
(g1
g2
(lp449
g0
(g1
g2
(lp450
(lp451
S'word: the, index: 16'
p452
aatp453
Rp454
(dp455
g12
Vdet
p456
sbatp457
Rp458
(dp459
g12
S'word: son, index: 17'
p460
sbatp461
Rp462
(dp463
g12
Vnsubj
p464
sbag0
(g1
g2
(lp465
(lp466
S'word: is, index: 18'
p467
aatp468
Rp469
(dp470
g12
Vcop
p471
sbag0
(g1
g2
(lp472
(lp473
S'word: about, index: 19'
p474
aatp475
Rp476
(dp477
g12
Vdep
p478
sbatp479
Rp480
(dp481
g12
S'word: ready, index: 20'
p482
sbatp483
Rp484
(dp485
g12
S'id: 2'
p486
sbag0
(g1
g2
(lp487
g0
(g1
g2
(lp488
g0
(g1
g2
(lp489
g0
(g1
g2
(lp490
g0
(g1
g2
(lp491
(lp492
S'word: it, index: 11'
p493
aatp494
Rp495
(dp496
g12
Vnsubj
p497
sbag0
(g1
g2
(lp498
g0
(g1
g2
(lp499
g0
(g1
g2
(lp500
(lp501
S'word: like, index: 13'
p502
aatp503
Rp504
(dp505
g12
Vmark
p506
sbag0
(g1
g2
(lp507
(lp508
S'word: it, index: 14'
p509
aatp510
Rp511
(dp512
g12
Vnsubj
p513
sbag0
(g1
g2
(lp514
(lp515
S"word: 's, index: 15"
p516
aatp517
Rp518
(dp519
g12
Vcop
p520
sbag0
(g1
g2
(lp521
(lp522
S'word: a, index: 16'
p523
aatp524
Rp525
(dp526
g12
Vdet
p527
sbag0
(g1
g2
(lp528
(lp529
S'word: nice, index: 17'
p530
aatp531
Rp532
(dp533
g12
Vamod
p534
sbag0
(g1
g2
(lp535
(lp536
S'word: outside, index: 19'
p537
aatp538
Rp539
(dp540
g12
Vadvmod
p541
sbatp542
Rp543
(dp544
g12
S'word: day, index: 18'
p545
sbatp546
Rp547
(dp548
g12
Vadvcl
p549
sbatp550
Rp551
(dp552
g12
S'word: looks, index: 12'
p553
sbatp554
Rp555
(dp556
g12
Vconj
p557
sbag0
(g1
g2
(lp558
g0
(g1
g2
(lp559
g0
(g1
g2
(lp560
(lp561
S'word: the, index: 3'
p562
aatp563
Rp564
(dp565
g12
Vdet
p566
sbatp567
Rp568
(dp569
g12
S'word: window, index: 4'
p570
sbatp571
Rp572
(dp573
g12
Vnsubj
p574
sbag0
(g1
g2
(lp575
g0
(g1
g2
(lp576
g0
(g1
g2
(lp577
(lp578
S'word: to, index: 6'
p579
aatp580
Rp581
(dp582
g12
Vaux
p583
sbag0
(g1
g2
(lp584
(lp585
S'word: be, index: 7'
p586
aatp587
Rp588
(dp589
g12
Vcop
p590
sbatp591
Rp592
(dp593
g12
S'word: open, index: 8'
p594
sbatp595
Rp596
(dp597
g12
Vxcomp
p598
sbatp599
Rp600
(dp601
g12
S'word: appears, index: 5'
p602
sbatp603
Rp604
(dp605
g12
S'id: 3'
p606
sbag0
(g1
g2
(lp607
g0
(g1
g2
(lp608
g0
(g1
g2
(lp609
g0
(g1
g2
(lp610
g0
(g1
g2
(lp611
(lp612
S'word: The, index: 1'
p613
aatp614
Rp615
(dp616
g12
Vdet
p617
sbatp618
Rp619
(dp620
g12
S'word: girl, index: 2'
p621
sbatp622
Rp623
(dp624
g12
Vnsubj
p625
sbag0
(g1
g2
(lp626
(lp627
S'word: is, index: 3'
p628
aatp629
Rp630
(dp631
g12
Vaux
p632
sbag0
(g1
g2
(lp633
g0
(g1
g2
(lp634
g0
(g1
g2
(lp635
(lp636
S'word: a, index: 5'
p637
aatp638
Rp639
(dp640
g12
Vdet
p641
sbag0
(g1
g2
(lp642
g0
(g1
g2
(lp643
g0
(g1
g2
(lp644
(lp645
S'word: her, index: 10'
p646
aatp647
Rp648
(dp649
g12
Vposs
p650
sbatp651
Rp652
(dp653
g12
S'word: mother, index: 11'
p654
sbatp655
Rp656
(dp657
g12
Vprep
p658
sbatp659
Rp660
(dp661
g12
S'word: dress, index: 6'
p662
sbatp663
Rp664
(dp665
g12
Vdobj
p666
sbatp667
Rp668
(dp669
g12
S'word: wearing, index: 4'
p670
sbatp671
Rp672
(dp673
g12
S'id: 4'
p674
sbag0
(g1
g2
(lp675
g0
(g1
g2
(lp676
g0
(g1
g2
(lp677
(lp678
S'word: leave, index: 15'
p679
aatp680
Rp681
(dp682
g12
Vprep
p683
sbag0
(g1
g2
(lp684
g0
(g1
g2
(lp685
g0
(g1
g2
(lp686
(lp687
S'word: beaver, index: 18'
p688
aatp689
Rp690
(dp691
g12
Vprep
p692
sbatp693
Rp694
(dp695
g12
S'word: it, index: 16'
p696
sbatp697
Rp698
(dp699
g12
Vnsubj
p700
sbag0
(g1
g2
(lp701
g0
(g1
g2
(lp702
g0
(g1
g2
(lp703
g0
(g1
g2
(lp704
g0
(g1
g2
(lp705
(lp706
S'word: The, index: 1'
p707
aatp708
Rp709
(dp710
g12
Vdet
p711
sbatp712
Rp713
(dp714
g12
S'word: boy, index: 2'
p715
sbatp716
Rp717
(dp718
g12
Vnsubj
p719
sbag0
(g1
g2
(lp720
(lp721
S'word: is, index: 3'
p722
aatp723
Rp724
(dp725
g12
Vaux
p726
sbag0
(g1
g2
(lp727
g0
(g1
g2
(lp728
g0
(g1
g2
(lp729
(lp730
S'word: a, index: 5'
p731
aatp732
Rp733
(dp734
g12
Vdet
p735
sbag0
(g1
g2
(lp736
(lp737
S'word: nice, index: 6'
p738
aatp739
Rp740
(dp741
g12
Vamod
p742
sbag0
(g1
g2
(lp743
(lp744
S'word: little, index: 7'
p745
aatp746
Rp747
(dp748
g12
Vamod
p749
sbatp750
Rp751
(dp752
g12
S'word: shorts, index: 8'
p753
sbatp754
Rp755
(dp756
g12
Vdobj
p757
sbatp758
Rp759
(dp760
g12
S'word: wearing, index: 4'
p761
sbatp762
Rp763
(dp764
g12
Vccomp
p765
sbag0
(g1
g2
(lp766
g0
(g1
g2
(lp767
g0
(g1
g2
(lp768
(lp769
S'word: stuff, index: 13'
p770
aatp771
Rp772
(dp773
g12
Vprep
p774
sbatp775
Rp776
(dp777
g12
S'word: me, index: 11'
p778
sbatp779
Rp780
(dp781
g12
Vdobj
p782
sbatp783
Rp784
(dp785
g12
S'word: reminds, index: 10'
p786
sbatp787
Rp788
(dp789
g12
S'id: 5'
p790
sbag0
(g1
g2
(lp791
g0
(g1
g2
(lp792
g0
(g1
g2
(lp793
g0
(g1
g2
(lp794
g0
(g1
g2
(lp795
g0
(g1
g2
(lp796
g0
(g1
g2
(lp797
(lp798
S'word: the, index: 17'
p799
aatp800
Rp801
(dp802
g12
Vdet
p803
sbatp804
Rp805
(dp806
g12
S'word: lawns, index: 18'
p807
sbatp808
Rp809
(dp810
g12
Vnsubj
p811
sbag0
(g1
g2
(lp812
g0
(g1
g2
(lp813
g0
(g1
g2
(lp814
(lp815
S'word: to, index: 20'
p816
aatp817
Rp818
(dp819
g12
Vaux
p820
sbatp821
Rp822
(dp823
g12
S'word: be, index: 21'
p824
sbatp825
Rp826
(dp827
g12
Vxcomp
p828
sbag0
(g1
g2
(lp829
g0
(g1
g2
(lp830
g0
(g1
g2
(lp831
(lp832
S'word: neatly, index: 23'
p833
aatp834
Rp835
(dp836
g12
Vadvmod
p837
sbatp838
Rp839
(dp840
g12
S'word: kept, index: 24'
p841
sbatp842
Rp843
(dp844
g12
Vdep
p845
sbatp846
Rp847
(dp848
g12
S'word: appear, index: 19'
p849
sbatp850
Rp851
(dp852
g12
Vconj
p853
sbag0
(g1
g2
(lp854
g0
(g1
g2
(lp855
g0
(g1
g2
(lp856
(lp857
S'word: in, index: 3'
p858
aatp859
Rp860
(dp861
g12
Vmark
p862
sbag0
(g1
g2
(lp863
g0
(g1
g2
(lp864
g0
(g1
g2
(lp865
(lp866
S'word: a, index: 4'
p867
aatp868
Rp869
(dp870
g12
Vdet
p871
sbatp872
Rp873
(dp874
g12
S'word: tree, index: 5'
p875
sbatp876
Rp877
(dp878
g12
Vnsubj
p879
sbag0
(g1
g2
(lp880
(lp881
S'word: neighborhood, index: 7'
p882
aatp883
Rp884
(dp885
g12
Vdobj
p886
sbatp887
Rp888
(dp889
g12
S'word: lined, index: 6'
p890
sbatp891
Rp892
(dp893
g12
Vadvcl
p894
sbag0
(g1
g2
(lp895
g0
(g1
g2
(lp896
g0
(g1
g2
(lp897
g847
atp898
Rp899
(dp900
g12
Vconj
p901
sbag0
(g1
g2
(lp902
g0
(g1
g2
(lp903
g0
(g1
g2
(lp904
(lp905
S'word: the, index: 10'
p906
aatp907
Rp908
(dp909
g12
Vdet
p910
sbatp911
Rp912
(dp913
g12
S'word: houses, index: 11'
p914
sbatp915
Rp916
(dp917
g12
Vnsubj
p918
sbag0
(g1
g2
(lp919
g0
(g1
g2
(lp920
g0
(g1
g2
(lp921
(lp922
S'word: to, index: 13'
p923
aatp924
Rp925
(dp926
g12
Vaux
p927
sbatp928
Rp929
(dp930
g12
S'word: be, index: 14'
p931
sbatp932
Rp933
(dp934
g12
Vxcomp
p935
sbatp936
Rp937
(dp938
g12
S'word: appear, index: 12'
p939
sbatp940
Rp941
(dp942
g12
Vconj
p943
sbag0
(g1
g2
(lp944
(lp945
S'word: They, index: 1'
p946
aatp947
Rp948
(dp949
g12
Vnsubj
p950
sbatp951
Rp952
(dp953
g12
S'word: live, index: 2'
p954
sbatp955
Rp956
(dp957
g12
S'id: 6'
p958
sbag0
(g1
g2
(lp959
g0
(g1
g2
(lp960
g0
(g1
g2
(lp961
g0
(g1
g2
(lp962
g0
(g1
g2
(lp963
(lp964
S'word: fully, index: 5'
p965
aatp966
Rp967
(dp968
g12
Vadvmod
p969
sbag0
(g1
g2
(lp970
(lp971
S'word: to, index: 3'
p972
aatp973
Rp974
(dp975
g12
Vaux
p976
sbag0
(g1
g2
(lp977
(lp978
S'word: be, index: 4'
p979
aatp980
Rp981
(dp982
g12
Vcop
p983
sbatp984
Rp985
(dp986
g12
S'word: mature, index: 6'
p987
sbatp988
Rp989
(dp990
g12
Vxcomp
p991
sbag0
(g1
g2
(lp992
(lp993
S'word: Trees, index: 1'
p994
aatp995
Rp996
(dp997
g12
Vnsubj
p998
sbatp999
Rp1000
(dp1001
g12
S'word: appear, index: 2'
p1002
sbatp1003
Rp1004
(dp1005
g12
S'id: 7'
p1006
sbag0
(g1
g2
(lp1007
g0
(g1
g2
(lp1008
g0
(g1
g2
(lp1009
g0
(g1
g2
(lp1010
g0
(g1
g2
(lp1011
(lp1012
S'word: nor, index: 15'
p1013
aatp1014
Rp1015
(dp1016
g12
Vnsubj
p1017
sbag0
(g1
g2
(lp1018
g0
(g1
g2
(lp1019
g0
(g1
g2
(lp1020
(lp1021
S'word: they, index: 17'
p1022
aatp1023
Rp1024
(dp1025
g12
Vnsubj
p1026
sbag0
(g1
g2
(lp1027
g0
(g1
g2
(lp1028
g0
(g1
g2
(lp1029
(lp1030
S'word: a, index: 19'
p1031
aatp1032
Rp1033
(dp1034
g12
Vdet
p1035
sbatp1036
Rp1037
(dp1038
g12
S'word: stove, index: 20'
p1039
sbatp1040
Rp1041
(dp1042
g12
Vdobj
p1043
sbatp1044
Rp1045
(dp1046
g12
S'word: have, index: 18'
p1047
sbatp1048
Rp1049
(dp1050
g12
Vccomp
p1051
sbatp1052
Rp1053
(dp1054
g12
S'word: do, index: 16'
p1055
sbatp1056
Rp1057
(dp1058
g12
Vconj
p1059
sbag0
(g1
g2
(lp1060
(lp1061
S'word: They, index: 1'
p1062
aatp1063
Rp1064
(dp1065
g12
Vnsubj
p1066
sbag0
(g1
g2
(lp1067
(lp1068
S'word: do, index: 2'
p1069
aatp1070
Rp1071
(dp1072
g12
Vaux
p1073
sbag0
(g1
g2
(lp1074
(lp1075
S"word: n't, index: 3"
p1076
aatp1077
Rp1078
(dp1079
g12
Vneg
p1080
sbag0
(g1
g2
(lp1081
g0
(g1
g2
(lp1082
g0
(g1
g2
(lp1083
g0
(g1
g2
(lp1084
g0
(g1
g2
(lp1085
g0
(g1
g2
(lp1086
g0
(g1
g2
(lp1087
(lp1088
S'word: the, index: 10'
p1089
aatp1090
Rp1091
(dp1092
g12
Vdet
p1093
sbatp1094
Rp1095
(dp1096
g12
S'word: kitchen, index: 11'
p1097
sbatp1098
Rp1099
(dp1100
g12
Vprep
p1101
sbatp1102
Rp1103
(dp1104
g12
S'word: appliances, index: 8'
p1105
sbatp1106
Rp1107
(dp1108
g12
Vprep
p1109
sbag0
(g1
g2
(lp1110
(lp1111
S'word: a, index: 5'
p1112
aatp1113
Rp1114
(dp1115
g12
Vdet
p1116
sbatp1117
Rp1118
(dp1119
g12
S'word: lot, index: 6'
p1120
sbatp1121
Rp1122
(dp1123
g12
Vdobj
p1124
sbatp1125
Rp1126
(dp1127
g12
S'word: have, index: 4'
p1128
sbatp1129
Rp1130
(dp1131
g12
S'id: 8'
p1132
sbatp1133
Rp1134
(dp1135
g12
S'sentences'
p1136
sb.