ccopy_reg
_reconstructor
p0
(cnltk.tree
Tree
p1
c__builtin__
list
p2
(lp3
g0
(g1
g2
(lp4
g0
(g1
g2
(lp5
g0
(g1
g2
(lp6
g0
(g1
g2
(lp7
g0
(g1
g2
(lp8
g0
(g1
g2
(lp9
g0
(g1
g2
(lp10
(lp11
S'word: to, index: 33'
p12
aatp13
Rp14
(dp15
S'_label'
p16
Vaux
p17
sbag0
(g1
g2
(lp18
(lp19
S'word: over, index: 35'
p20
aatp21
Rp22
(dp23
g16
Vprt
p24
sbatp25
Rp26
(dp27
g16
S'word: fall, index: 34'
p28
sbatp29
Rp30
(dp31
g16
Vxcomp
p32
sbag0
(g1
g2
(lp33
g0
(g1
g2
(lp34
g0
(g1
g2
(lp35
(lp36
S'word: the, index: 29'
p37
aatp38
Rp39
(dp40
g16
Vdet
p41
sbatp42
Rp43
(dp44
g16
S'word: stool, index: 30'
p45
sbatp46
Rp47
(dp48
g16
Vnsubj
p49
sbag0
(g1
g2
(lp50
(lp51
S'word: is, index: 31'
p52
aatp53
Rp54
(dp55
g16
Vaux
p56
sbatp57
Rp58
(dp59
g16
S'word: about, index: 32'
p60
sbatp61
Rp62
(dp63
g16
Vconj
p64
sbag0
(g1
g2
(lp65
g0
(g1
g2
(lp66
g0
(g1
g2
(lp67
(lp68
S'word: the, index: 1'
p69
aatp70
Rp71
(dp72
g16
Vdet
p73
sbatp74
Rp75
(dp76
g16
S'word: mother, index: 2'
p77
sbatp78
Rp79
(dp80
g16
Vnsubj
p81
sbag0
(g1
g2
(lp82
(lp83
S'word: is, index: 3'
p84
aatp85
Rp86
(dp87
g16
Vaux
p88
sbag0
(g1
g2
(lp89
g0
(g1
g2
(lp90
g0
(g1
g2
(lp91
g58
atp92
Rp93
(dp94
g16
Vconj
p95
sbag0
(g1
g2
(lp96
(lp97
S'word: he, index: 17'
p98
aatp99
Rp100
(dp101
g16
Vnsubj
p102
sbag0
(g1
g2
(lp103
(lp104
S'word: did, index: 18'
p105
aatp106
Rp107
(dp108
g16
Vaux
p109
sbag0
(g1
g2
(lp110
(lp111
S"word: n't, index: 19"
p112
aatp113
Rp114
(dp115
g16
Vneg
p116
sbag0
(g1
g2
(lp117
g0
(g1
g2
(lp118
g0
(g1
g2
(lp119
(lp120
S'word: he, index: 21'
p121
aatp122
Rp123
(dp124
g16
Vnsubj
p125
sbag0
(g1
g2
(lp126
g0
(g1
g2
(lp127
g0
(g1
g2
(lp128
(lp129
S'word: the, index: 24'
p130
aatp131
Rp132
(dp133
g16
Vdet
p134
sbatp135
Rp136
(dp137
g16
S'word: stool, index: 25'
p138
sbatp139
Rp140
(dp141
g16
Vprep
p142
sbag0
(g1
g2
(lp143
(lp144
S'word: improperly, index: 26'
p145
aatp146
Rp147
(dp148
g16
Vadvmod
p149
sbatp150
Rp151
(dp152
g16
S"word: 's, index: 22"
p153
sbatp154
Rp155
(dp156
g16
Vccomp
p157
sbatp158
Rp159
(dp160
g16
S'word: realize, index: 20'
p161
sbatp162
Rp163
(dp164
g16
Vconj
p165
sbag0
(g1
g2
(lp166
(lp167
S'word: dishes, index: 5'
p168
aatp169
Rp170
(dp171
g16
Vdobj
p172
sbag0
(g1
g2
(lp173
g0
(g1
g2
(lp174
g0
(g1
g2
(lp175
g0
(g1
g2
(lp176
g0
(g1
g2
(lp177
(lp178
S'word: the, index: 7'
p179
aatp180
Rp181
(dp182
g16
Vdet
p183
sbatp184
Rp185
(dp186
g16
S'word: children, index: 8'
p187
sbatp188
Rp189
(dp190
g16
Vnsubj
p191
sbag0
(g1
g2
(lp192
g0
(g1
g2
(lp193
g0
(g1
g2
(lp194
(lp195
S'word: the, index: 11'
p196
aatp197
Rp198
(dp199
g16
Vdet
p200
sbag0
(g1
g2
(lp201
g0
(g1
g2
(lp202
g0
(g1
g2
(lp203
(lp204
S'word: cookies, index: 14'
p205
aatp206
Rp207
(dp208
g16
Vdobj
p209
sbatp210
Rp211
(dp212
g16
S'word: getting, index: 13'
p213
sbatp214
Rp215
(dp216
g16
Vvmod
p217
sbatp218
Rp219
(dp220
g16
S'word: cabinet, index: 12'
p221
sbatp222
Rp223
(dp224
g16
Vprep
p225
sbatp226
Rp227
(dp228
g16
S'word: are, index: 9'
p229
sbatp230
Rp231
(dp232
g16
Vdep
p233
sbatp234
Rp235
(dp236
g16
S'word: washing, index: 4'
p237
sbatp238
Rp239
(dp240
g16
S'id: 0'
p241
sbag0
(g1
g2
(lp242
g0
(g1
g2
(lp243
g0
(g1
g2
(lp244
g0
(g1
g2
(lp245
g0
(g1
g2
(lp246
(lp247
S'word: the, index: 2'
p248
aatp249
Rp250
(dp251
g16
Vdet
p252
sbatp253
Rp254
(dp255
g16
S'word: mother, index: 3'
p256
sbatp257
Rp258
(dp259
g16
Vnsubj
p260
sbag0
(g1
g2
(lp261
(lp262
S'word: is, index: 4'
p263
aatp264
Rp265
(dp266
g16
Vaux
p267
sbag0
(g1
g2
(lp268
g0
(g1
g2
(lp269
g0
(g1
g2
(lp270
(lp271
S'word: a, index: 6'
p272
aatp273
Rp274
(dp275
g16
Vdet
p276
sbag0
(g1
g2
(lp277
(lp278
S'word: big, index: 7'
p279
aatp280
Rp281
(dp282
g16
Vamod
p283
sbatp284
Rp285
(dp286
g16
S'word: mess, index: 8'
p287
sbatp288
Rp289
(dp290
g16
Vdobj
p291
sbag0
(g1
g2
(lp292
g0
(g1
g2
(lp293
g0
(g1
g2
(lp294
(lp295
S'word: all, index: 10'
p296
aatp297
Rp298
(dp299
g16
Vpredet
p300
sbag0
(g1
g2
(lp301
(lp302
S'word: the, index: 11'
p303
aatp304
Rp305
(dp306
g16
Vdet
p307
sbag0
(g1
g2
(lp308
g0
(g1
g2
(lp309
g0
(g1
g2
(lp310
g0
(g1
g2
(lp311
g0
(g1
g2
(lp312
(lp313
S'word: the, index: 15'
p314
aatp315
Rp316
(dp317
g16
Vdet
p318
sbatp319
Rp320
(dp321
g16
S'word: floor, index: 16'
p322
sbatp323
Rp324
(dp325
g16
Vprep
p326
sbatp327
Rp328
(dp329
g16
S'word: going, index: 13'
p330
sbatp331
Rp332
(dp333
g16
Vvmod
p334
sbatp335
Rp336
(dp337
g16
S'word: water, index: 12'
p338
sbatp339
Rp340
(dp341
g16
Vprep
p342
sbag0
(g1
g2
(lp343
(lp344
S'word: And, index: 1'
p345
aatp346
Rp347
(dp348
g16
Vcc
p349
sbatp350
Rp351
(dp352
g16
S'word: making, index: 5'
p353
sbatp354
Rp355
(dp356
g16
S'id: 1'
p357
sbag0
(g1
g2
(lp358
g0
(g1
g2
(lp359
g0
(g1
g2
(lp360
g0
(g1
g2
(lp361
g0
(g1
g2
(lp362
(lp363
S'word: they, index: 7'
p364
aatp365
Rp366
(dp367
g16
Vnsubj
p368
sbag0
(g1
g2
(lp369
(lp370
S"word: 're, index: 8"
p371
aatp372
Rp373
(dp374
g16
Vcop
p375
sbag0
(g1
g2
(lp376
(lp377
S'word: very, index: 9'
p378
aatp379
Rp380
(dp381
g16
Vadvmod
p382
sbatp383
Rp384
(dp385
g16
S'word: messy, index: 10'
p386
sbatp387
Rp388
(dp389
g16
Vdep
p390
sbag0
(g1
g2
(lp391
(lp392
S'word: They, index: 1'
p393
aatp394
Rp395
(dp396
g16
Vnsubj
p397
sbag0
(g1
g2
(lp398
g0
(g1
g2
(lp399
g0
(g1
g2
(lp400
(lp401
S'word: obviously, index: 13'
p402
aatp403
Rp404
(dp405
g16
Vadvmod
p406
sbag0
(g1
g2
(lp407
(lp408
S'word: they, index: 14'
p409
aatp410
Rp411
(dp412
g16
Vnsubj
p413
sbag0
(g1
g2
(lp414
(lp415
S'word: do, index: 15'
p416
aatp417
Rp418
(dp419
g16
Vaux
p420
sbag0
(g1
g2
(lp421
(lp422
S"word: n't, index: 16"
p423
aatp424
Rp425
(dp426
g16
Vneg
p427
sbag0
(g1
g2
(lp428
(lp429
S'word: it, index: 18'
p430
aatp431
Rp432
(dp433
g16
Vdobj
p434
sbatp435
Rp436
(dp437
g16
S'word: know, index: 17'
p438
sbatp439
Rp440
(dp441
g16
Vconj
p442
sbag0
(g1
g2
(lp443
g0
(g1
g2
(lp444
g0
(g1
g2
(lp445
(lp446
S'word: an, index: 3'
p447
aatp448
Rp449
(dp450
g16
Vdet
p451
sbag0
(g1
g2
(lp452
(lp453
S'word: interesting, index: 4'
p454
aatp455
Rp456
(dp457
g16
Vamod
p458
sbatp459
Rp460
(dp461
g16
S'word: family, index: 5'
p462
sbatp463
Rp464
(dp465
g16
Vdobj
p466
sbatp467
Rp468
(dp469
g16
S'word: have, index: 2'
p470
sbatp471
Rp472
(dp473
g16
S'id: 2'
p474
sbag0
(g1
g2
(lp475
g0
(g1
g2
(lp476
g0
(g1
g2
(lp477
(lp478
S'word: And, index: 1'
p479
aatp480
Rp481
(dp482
g16
Vcc
p483
sbag0
(g1
g2
(lp484
(lp485
S'word: what, index: 2'
p486
aatp487
Rp488
(dp489
g16
Vnsubj
p490
sbag0
(g1
g2
(lp491
(lp492
S"word: 's, index: 3"
p493
aatp494
Rp495
(dp496
g16
Vcop
p497
sbatp498
Rp499
(dp500
g16
S'word: that, index: 4'
p501
sbatp502
Rp503
(dp504
g16
S'id: 3'
p505
sbatp506
Rp507
(dp508
g16
S'sentences'
p509
sb.