ccopy_reg
_reconstructor
p0
(cnltk.tree
Tree
p1
c__builtin__
list
p2
(lp3
g0
(g1
g2
(lp4
g0
(g1
g2
(lp5
g0
(g1
g2
(lp6
(lp7
S'word: there, index: 1'
p8
aatp9
Rp10
(dp11
S'_label'
p12
Vexpl
p13
sbag0
(g1
g2
(lp14
g0
(g1
g2
(lp15
g0
(g1
g2
(lp16
(lp17
S'word: there, index: 4'
p18
aatp19
Rp20
(dp21
g12
Vexpl
p22
sbag0
(g1
g2
(lp23
g0
(g1
g2
(lp24
g0
(g1
g2
(lp25
(lp26
S'word: a, index: 6'
p27
aatp28
Rp29
(dp30
g12
Vdet
p31
sbatp32
Rp33
(dp34
g12
S'word: lion, index: 7'
p35
sbatp36
Rp37
(dp38
g12
Vnsubj
p39
sbatp40
Rp41
(dp42
g12
S"word: 's, index: 5"
p43
sbatp44
Rp45
(dp46
g12
Vdep
p47
sbag0
(g1
g2
(lp48
g0
(g1
g2
(lp49
g0
(g1
g2
(lp50
(lp51
S'word: there, index: 10'
p52
aatp53
Rp54
(dp55
g12
Vexpl
p56
sbag0
(g1
g2
(lp57
g0
(g1
g2
(lp58
g0
(g1
g2
(lp59
(lp60
S'word: a, index: 12'
p61
aatp62
Rp63
(dp64
g12
Vdet
p65
sbag0
(g1
g2
(lp66
g0
(g1
g2
(lp67
g0
(g1
g2
(lp68
g0
(g1
g2
(lp69
g0
(g1
g2
(lp70
g0
(g1
g2
(lp71
g0
(g1
g2
(lp72
(lp73
S'word: the, index: 19'
p74
aatp75
Rp76
(dp77
g12
Vdet
p78
sbatp79
Rp80
(dp81
g12
S'word: lion, index: 20'
p82
sbatp83
Rp84
(dp85
g12
Vprep
p86
sbatp87
Rp88
(dp89
g12
S'word: charge, index: 17'
p90
sbatp91
Rp92
(dp93
g12
Vprep
p94
sbag0
(g1
g2
(lp95
(lp96
S'word: who, index: 14'
p97
aatp98
Rp99
(dp100
g12
Vnsubj
p101
sbatp102
Rp103
(dp104
g12
S"word: 's, index: 15"
p105
sbatp106
Rp107
(dp108
g12
Vrcmod
p109
sbatp110
Rp111
(dp112
g12
S'word: man, index: 13'
p113
sbatp114
Rp115
(dp116
g12
Vnsubj
p117
sbatp118
Rp119
(dp120
g12
S"word: 's, index: 11"
p121
sbatp122
Rp123
(dp124
g12
Vconj
p125
sbatp126
Rp127
(dp128
g12
S'word: are, index: 2'
p129
sbatp130
Rp131
(dp132
g12
S'id: 0'
p133
sbag0
(g1
g2
(lp134
g0
(g1
g2
(lp135
g0
(g1
g2
(lp136
g0
(g1
g2
(lp137
g0
(g1
g2
(lp138
(lp139
S'word: two, index: 3'
p140
aatp141
Rp142
(dp143
g12
Vnum
p144
sbag0
(g1
g2
(lp145
(lp146
S'word: little, index: 4'
p147
aatp148
Rp149
(dp150
g12
Vamod
p151
sbag0
(g1
g2
(lp152
(lp153
S'word: black, index: 5'
p154
aatp155
Rp156
(dp157
g12
Vamod
p158
sbatp159
Rp160
(dp161
g12
S'word: children, index: 6'
p162
sbatp163
Rp164
(dp165
g12
Vdep
p166
sbag0
(g1
g2
(lp167
g0
(g1
g2
(lp168
g0
(g1
g2
(lp169
(lp170
S'word: the, index: 8'
p171
aatp172
Rp173
(dp174
g12
Vdet
p175
sbag0
(g1
g2
(lp176
(lp177
S'word: left, index: 9'
p178
aatp179
Rp180
(dp181
g12
Vamod
p182
sbag0
(g1
g2
(lp183
(lp184
S'word: hand, index: 10'
p185
aatp186
Rp187
(dp188
g12
Vnn
p189
sbag0
(g1
g2
(lp190
g0
(g1
g2
(lp191
g0
(g1
g2
(lp192
(lp193
S'word: the, index: 13'
p194
aatp195
Rp196
(dp197
g12
Vdet
p198
sbatp199
Rp200
(dp201
g12
S'word: screen, index: 14'
p202
sbatp203
Rp204
(dp205
g12
Vprep
p206
sbatp207
Rp208
(dp209
g12
S'word: side, index: 11'
p210
sbatp211
Rp212
(dp213
g12
Vprep
p214
sbag0
(g1
g2
(lp215
(lp216
S'word: And, index: 1'
p217
aatp218
Rp219
(dp220
g12
Vcc
p221
sbatp222
Rp223
(dp224
g12
S'word: there, index: 2'
p225
sbatp226
Rp227
(dp228
g12
S'id: 1'
p229
sbag0
(g1
g2
(lp230
g0
(g1
g2
(lp231
g0
(g1
g2
(lp232
g0
(g1
g2
(lp233
g0
(g1
g2
(lp234
g0
(g1
g2
(lp235
g0
(g1
g2
(lp236
(lp237
S'word: his, index: 25'
p238
aatp239
Rp240
(dp241
g12
Vposs
p242
sbatp243
Rp244
(dp245
g12
S'word: bouquet, index: 26'
p246
sbatp247
Rp248
(dp249
g12
Vprep
p250
sbatp251
Rp252
(dp253
g12
S'word: flowers, index: 23'
p254
sbatp255
Rp256
(dp257
g12
Vnsubj
p258
sbag0
(g1
g2
(lp259
g0
(g1
g2
(lp260
g0
(g1
g2
(lp261
(lp262
S'word: him, index: 17'
p263
aatp264
Rp265
(dp266
g12
Vprep
p267
sbag0
(g1
g2
(lp268
(lp269
S'word: stripes, index: 20'
p270
aatp271
Rp272
(dp273
g12
Vconj
p274
sbatp275
Rp276
(dp277
g12
S'word: circles, index: 15'
p278
sbatp279
Rp280
(dp281
g12
Vnsubj
p282
sbag0
(g1
g2
(lp283
(lp284
S'word: And, index: 1'
p285
aatp286
Rp287
(dp288
g12
Vcc
p289
sbag0
(g1
g2
(lp290
(lp291
S'word: there, index: 2'
p292
aatp293
Rp294
(dp295
g12
Vexpl
p296
sbag0
(g1
g2
(lp297
g0
(g1
g2
(lp298
g0
(g1
g2
(lp299
g252
atp300
Rp301
(dp302
g12
Vconj
p303
sbag0
(g1
g2
(lp304
g0
(g1
g2
(lp305
g0
(g1
g2
(lp306
(lp307
S'word: a, index: 6'
p308
aatp309
Rp310
(dp311
g12
Vdet
p312
sbag0
(g1
g2
(lp313
(lp314
S'word: popcorn, index: 7'
p315
aatp316
Rp317
(dp318
g12
Vnn
p319
sbag0
(g1
g2
(lp320
g0
(g1
g2
(lp321
g0
(g1
g2
(lp322
(lp323
S'word: a, index: 10'
p324
aatp325
Rp326
(dp327
g12
Vdet
p328
sbag0
(g1
g2
(lp329
(lp330
S'word: on, index: 12'
p331
aatp332
Rp333
(dp334
g12
Vprep
p335
sbatp336
Rp337
(dp338
g12
S'word: hat, index: 11'
p339
sbatp340
Rp341
(dp342
g12
Vprep
p343
sbatp344
Rp345
(dp346
g12
S'word: man, index: 8'
p347
sbatp348
Rp349
(dp350
g12
Vappos
p351
sbag0
(g1
g2
(lp352
g0
(g1
g2
(lp353
g0
(g1
g2
(lp354
(lp355
S'word: his, index: 29'
p356
aatp357
Rp358
(dp359
g12
Vposs
p360
sbatp361
Rp362
(dp363
g12
S'word: tie, index: 30'
p364
sbatp365
Rp366
(dp367
g12
Vprep
p368
sbag0
(g1
g2
(lp369
g276
atp370
Rp371
(dp372
g12
Vconj
p373
sbag0
(g1
g2
(lp374
(lp375
S'word: stripes, index: 20'
p376
aatp377
Rp378
(dp379
g12
Vconj
p380
sbatp381
Rp382
(dp383
g12
S'word: a, index: 4'
p384
sbatp385
Rp386
(dp387
g12
Vnsubj
p388
sbatp389
Rp390
(dp391
g12
S"word: 's, index: 3"
p392
sbatp393
Rp394
(dp395
g12
S'id: 2'
p396
sbag0
(g1
g2
(lp397
g0
(g1
g2
(lp398
g0
(g1
g2
(lp399
g0
(g1
g2
(lp400
g0
(g1
g2
(lp401
(lp402
S'word: there, index: 10'
p403
aatp404
Rp405
(dp406
g12
Vexpl
p407
sbag0
(g1
g2
(lp408
g0
(g1
g2
(lp409
g0
(g1
g2
(lp410
(lp411
S'word: a, index: 12'
p412
aatp413
Rp414
(dp415
g12
Vdet
p416
sbatp417
Rp418
(dp419
g12
S'word: lady, index: 13'
p420
sbatp421
Rp422
(dp423
g12
Vnsubj
p424
sbatp425
Rp426
(dp427
g12
S"word: 's, index: 11"
p428
sbatp429
Rp430
(dp431
g12
Vrcmod
p432
sbag0
(g1
g2
(lp433
(lp434
S'word: And, index: 1'
p435
aatp436
Rp437
(dp438
g12
Vcc
p439
sbag0
(g1
g2
(lp440
(lp441
S'word: there, index: 2'
p442
aatp443
Rp444
(dp445
g12
Vexpl
p446
sbag0
(g1
g2
(lp447
g0
(g1
g2
(lp448
g0
(g1
g2
(lp449
(lp450
S'word: a, index: 16'
p451
aatp452
Rp453
(dp454
g12
Vdet
p455
sbag0
(g1
g2
(lp456
(lp457
S'word: young, index: 17'
p458
aatp459
Rp460
(dp461
g12
Vamod
p462
sbag0
(g1
g2
(lp463
g0
(g1
g2
(lp464
g0
(g1
g2
(lp465
(lp466
S'word: a, index: 21'
p467
aatp468
Rp469
(dp470
g12
Vdet
p471
sbag0
(g1
g2
(lp472
(lp473
S'word: young, index: 22'
p474
aatp475
Rp476
(dp477
g12
Vamod
p478
sbatp479
Rp480
(dp481
g12
S'word: girl, index: 23'
p482
sbatp483
Rp484
(dp485
g12
Vconj
p486
sbatp487
Rp488
(dp489
g12
S'word: boy, index: 18'
p490
sbatp491
Rp492
(dp493
g12
Vdep
p494
sbag0
(g1
g2
(lp495
(lp496
S'word: three, index: 3'
p497
aatp498
Rp499
(dp500
g12
Vnum
p501
sbag0
(g1
g2
(lp502
(lp503
S'word: family, index: 4'
p504
aatp505
Rp506
(dp507
g12
Vnn
p508
sbag0
(g1
g2
(lp509
g480
atp510
Rp511
(dp512
g12
Vdep
p513
sbag0
(g1
g2
(lp514
g0
(g1
g2
(lp515
g0
(g1
g2
(lp516
(lp517
S'word: the, index: 7'
p518
aatp519
Rp520
(dp521
g12
Vdet
p522
sbatp523
Rp524
(dp525
g12
S'word: right, index: 8'
p526
sbatp527
Rp528
(dp529
g12
Vprep
p530
sbatp531
Rp532
(dp533
g12
S'word: members, index: 5'
p534
sbatp535
Rp536
(dp537
g12
S'id: 3'
p538
sbag0
(g1
g2
(lp539
g0
(g1
g2
(lp540
g0
(g1
g2
(lp541
(lp542
S'word: There, index: 1'
p543
aatp544
Rp545
(dp546
g12
Vexpl
p547
sbag0
(g1
g2
(lp548
g0
(g1
g2
(lp549
g0
(g1
g2
(lp550
(lp551
S'word: a, index: 3'
p552
aatp553
Rp554
(dp555
g12
Vdet
p556
sbag0
(g1
g2
(lp557
(lp558
S'word: high, index: 4'
p559
aatp560
Rp561
(dp562
g12
Vamod
p563
sbag0
(g1
g2
(lp564
(lp565
S'word: wire, index: 5'
p566
aatp567
Rp568
(dp569
g12
Vnn
p570
sbag0
(g1
g2
(lp571
g0
(g1
g2
(lp572
g0
(g1
g2
(lp573
(lp574
S'word: across, index: 8'
p575
aatp576
Rp577
(dp578
g12
Vdep
p579
sbag0
(g1
g2
(lp580
g0
(g1
g2
(lp581
g0
(g1
g2
(lp582
g0
(g1
g2
(lp583
g0
(g1
g2
(lp584
g0
(g1
g2
(lp585
g0
(g1
g2
(lp586
(lp587
S'word: the, index: 14'
p588
aatp589
Rp590
(dp591
g12
Vdet
p592
sbag0
(g1
g2
(lp593
(lp594
S'word: little, index: 15'
p595
aatp596
Rp597
(dp598
g12
Vamod
p599
sbatp600
Rp601
(dp602
g12
S'word: braids, index: 16'
p603
sbatp604
Rp605
(dp606
g12
Vprep
p607
sbag0
(g1
g2
(lp608
g0
(g1
g2
(lp609
g0
(g1
g2
(lp610
(lp611
S'word: that, index: 17'
p612
aatp613
Rp614
(dp615
g12
Vnsubj
p616
sbag0
(g1
g2
(lp617
(lp618
S'word: the, index: 21'
p619
aatp620
Rp621
(dp622
g12
Vadvmod
p623
sbag0
(g1
g2
(lp624
g0
(g1
g2
(lp625
g0
(g1
g2
(lp626
g0
(g1
g2
(lp627
g0
(g1
g2
(lp628
(lp629
S'word: the, index: 25'
p630
aatp631
Rp632
(dp633
g12
Vdet
p634
sbatp635
Rp636
(dp637
g12
S'word: scenery, index: 26'
p638
sbatp639
Rp640
(dp641
g12
Vappos
p642
sbatp643
Rp644
(dp645
g12
S'word: the, index: 23'
p646
sbatp647
Rp648
(dp649
g12
Vprep
p650
sbatp651
Rp652
(dp653
g12
S'word: goes, index: 18'
p654
sbatp655
Rp656
(dp657
g12
Vrcmod
p658
sbatp659
Rp660
(dp661
g12
S'word: one, index: 12'
p662
sbatp663
Rp664
(dp665
g12
Vappos
p666
sbatp667
Rp668
(dp669
g12
S'word: little, index: 10'
p670
sbatp671
Rp672
(dp673
g12
Vprep
p674
sbatp675
Rp676
(dp677
g12
S'word: going, index: 7'
p678
sbatp679
Rp680
(dp681
g12
Vvmod
p682
sbatp683
Rp684
(dp685
g12
S'word: person, index: 6'
p686
sbatp687
Rp688
(dp689
g12
Vnsubj
p690
sbatp691
Rp692
(dp693
g12
S'word: is, index: 2'
p694
sbatp695
Rp696
(dp697
g12
S'id: 4'
p698
sbag0
(g1
g2
(lp699
g0
(g1
g2
(lp700
g0
(g1
g2
(lp701
(lp702
S'word: then, index: 2'
p703
aatp704
Rp705
(dp706
g12
Vadvmod
p707
sbag0
(g1
g2
(lp708
g0
(g1
g2
(lp709
g0
(g1
g2
(lp710
(lp711
S'word: she, index: 17'
p712
aatp713
Rp714
(dp715
g12
Vnsubj
p716
sbag0
(g1
g2
(lp717
g0
(g1
g2
(lp718
g0
(g1
g2
(lp719
(lp720
S'word: her, index: 19'
p721
aatp722
Rp723
(dp724
g12
Vposs
p725
sbatp726
Rp727
(dp728
g12
S'word: hands, index: 20'
p729
sbatp730
Rp731
(dp732
g12
Vdobj
p733
sbag0
(g1
g2
(lp734
g0
(g1
g2
(lp735
g0
(g1
g2
(lp736
(lp737
S'word: straight, index: 22'
p738
aatp739
Rp740
(dp741
g12
Vdep
p742
sbatp743
Rp744
(dp745
g12
S'word: out, index: 21'
p746
sbatp747
Rp748
(dp749
g12
Vprep
p750
sbatp751
Rp752
(dp753
g12
S'word: has, index: 18'
p754
sbatp755
Rp756
(dp757
g12
Vconj
p758
sbag0
(g1
g2
(lp759
(lp760
S'word: there, index: 3'
p761
aatp762
Rp763
(dp764
g12
Vexpl
p765
sbag0
(g1
g2
(lp766
g0
(g1
g2
(lp767
g0
(g1
g2
(lp768
(lp769
S'word: a, index: 5'
p770
aatp771
Rp772
(dp773
g12
Vdet
p774
sbag0
(g1
g2
(lp775
g0
(g1
g2
(lp776
g0
(g1
g2
(lp777
g0
(g1
g2
(lp778
g0
(g1
g2
(lp779
(lp780
S'word: a, index: 8'
p781
aatp782
Rp783
(dp784
g12
Vdet
p785
sbag0
(g1
g2
(lp786
g0
(g1
g2
(lp787
g0
(g1
g2
(lp788
(lp789
S'word: a, index: 11'
p790
aatp791
Rp792
(dp793
g12
Vdet
p794
sbag0
(g1
g2
(lp795
(lp796
S'word: fancy, index: 12'
p797
aatp798
Rp799
(dp800
g12
Vamod
p801
sbatp802
Rp803
(dp804
g12
S'word: dress, index: 13'
p805
sbatp806
Rp807
(dp808
g12
Vprep
p809
sbatp810
Rp811
(dp812
g12
S'word: horse, index: 9'
p813
sbatp814
Rp815
(dp816
g12
Vdobj
p817
sbag0
(g1
g2
(lp818
(lp819
S'word: on, index: 14'
p820
aatp821
Rp822
(dp823
g12
Vprep
p824
sbatp825
Rp826
(dp827
g12
S'word: riding, index: 7'
p828
sbatp829
Rp830
(dp831
g12
Vvmod
p832
sbatp833
Rp834
(dp835
g12
S'word: lady, index: 6'
p836
sbatp837
Rp838
(dp839
g12
Vnsubj
p840
sbatp841
Rp842
(dp843
g12
S'word: is, index: 4'
p844
sbatp845
Rp846
(dp847
g12
S'id: 5'
p848
sbag0
(g1
g2
(lp849
g0
(g1
g2
(lp850
g0
(g1
g2
(lp851
g0
(g1
g2
(lp852
g0
(g1
g2
(lp853
(lp854
S'word: then, index: 2'
p855
aatp856
Rp857
(dp858
g12
Vadvmod
p859
sbag0
(g1
g2
(lp860
(lp861
S'word: there, index: 3'
p862
aatp863
Rp864
(dp865
g12
Vexpl
p866
sbag0
(g1
g2
(lp867
g0
(g1
g2
(lp868
g0
(g1
g2
(lp869
(lp870
S'word: some, index: 5'
p871
aatp872
Rp873
(dp874
g12
Vdet
p875
sbatp876
Rp877
(dp878
g12
S'word: children, index: 6'
p879
sbatp880
Rp881
(dp882
g12
Vnsubj
p883
sbag0
(g1
g2
(lp884
(lp885
S'word: And, index: 1'
p886
aatp887
Rp888
(dp889
g12
Vcc
p890
sbatp891
Rp892
(dp893
g12
S'word: are, index: 4'
p894
sbatp895
Rp896
(dp897
g12
Vccomp
p898
sbag0
(g1
g2
(lp899
(lp900
S'word: I, index: 8'
p901
aatp902
Rp903
(dp904
g12
Vnsubj
p905
sbag0
(g1
g2
(lp906
(lp907
S'word: not, index: 10'
p908
aatp909
Rp910
(dp911
g12
Vneg
p912
sbag0
(g1
g2
(lp913
g0
(g1
g2
(lp914
g0
(g1
g2
(lp915
g0
(g1
g2
(lp916
g0
(g1
g2
(lp917
(lp918
S'word: they, index: 18'
p919
aatp920
Rp921
(dp922
g12
Vnsubj
p923
sbag0
(g1
g2
(lp924
g0
(g1
g2
(lp925
g0
(g1
g2
(lp926
(lp927
S'word: as, index: 20'
p928
aatp929
Rp930
(dp931
g12
Vmark
p932
sbag0
(g1
g2
(lp933
(lp934
S'word: if, index: 21'
p935
aatp936
Rp937
(dp938
g12
Vmark
p939
sbag0
(g1
g2
(lp940
(lp941
S'word: they, index: 22'
p942
aatp943
Rp944
(dp945
g12
Vnsubj
p946
sbag0
(g1
g2
(lp947
(lp948
S'word: kids, index: 25'
p949
aatp950
Rp951
(dp952
g12
Vprep
p953
sbatp954
Rp955
(dp956
g12
S'word: are, index: 23'
p957
sbatp958
Rp959
(dp960
g12
Vadvcl
p961
sbag0
(g1
g2
(lp962
g0
(g1
g2
(lp963
g0
(g1
g2
(lp964
(lp965
S'word: who, index: 12'
p966
aatp967
Rp968
(dp969
g12
Vdobj
p970
sbag0
(g1
g2
(lp971
(lp972
S'word: they, index: 13'
p973
aatp974
Rp975
(dp976
g12
Vnsubj
p977
sbag0
(g1
g2
(lp978
(lp979
S'word: they, index: 17'
p980
aatp981
Rp982
(dp983
g12
Vconj
p984
sbatp985
Rp986
(dp987
g12
S'word: are, index: 14'
p988
sbatp989
Rp990
(dp991
g12
Vadvcl
p992
sbag0
(g1
g2
(lp993
(lp994
S'word: they, index: 17'
p995
aatp996
Rp997
(dp998
g12
Vadvcl
p999
sbatp1000
Rp1001
(dp1002
g12
S'word: look, index: 19'
p1003
sbatp1004
Rp1005
(dp1006
g12
Vccomp
p1007
sbatp1008
Rp1009
(dp1010
g12
S'word: sure, index: 11'
p1011
sbatp1012
Rp1013
(dp1014
g12
Vacomp
p1015
sbatp1016
Rp1017
(dp1018
g12
S"word: 'm, index: 9"
p1019
sbatp1020
Rp1021
(dp1022
g12
S'id: 6'
p1023
sbag0
(g1
g2
(lp1024
g0
(g1
g2
(lp1025
g0
(g1
g2
(lp1026
g0
(g1
g2
(lp1027
g0
(g1
g2
(lp1028
(lp1029
S"word: 's, index: 5"
p1030
aatp1031
Rp1032
(dp1033
g12
Vcop
p1034
sbag0
(g1
g2
(lp1035
(lp1036
S'word: that, index: 4'
p1037
aatp1038
Rp1039
(dp1040
g12
Vnsubj
p1041
sbatp1042
Rp1043
(dp1044
g12
S'word: all, index: 6'
p1045
sbatp1046
Rp1047
(dp1048
g12
Vccomp
p1049
sbag0
(g1
g2
(lp1050
(lp1051
S'word: And, index: 1'
p1052
aatp1053
Rp1054
(dp1055
g12
Vcc
p1056
sbag0
(g1
g2
(lp1057
(lp1058
S'word: I, index: 2'
p1059
aatp1060
Rp1061
(dp1062
g12
Vnsubj
p1063
sbatp1064
Rp1065
(dp1066
g12
S'word: guess, index: 3'
p1067
sbatp1068
Rp1069
(dp1070
g12
S'id: 7'
p1071
sbag0
(g1
g2
(lp1072
tp1073
Rp1074
(dp1075
g12
S'id: 8'
p1076
sbatp1077
Rp1078
(dp1079
g12
S'sentences'
p1080
sb.