ccopy_reg
_reconstructor
p0
(cnltk.tree
Tree
p1
c__builtin__
list
p2
(lp3
g0
(g1
g2
(lp4
tp5
Rp6
(dp7
S'_label'
p8
S'id: 0'
p9
sbag0
(g1
g2
(lp10
g0
(g1
g2
(lp11
g0
(g1
g2
(lp12
(lp13
S'word: the, index: 3'
p14
aatp15
Rp16
(dp17
g8
Vdet
p18
sbag0
(g1
g2
(lp19
(lp20
S'word: This, index: 1'
p21
aatp22
Rp23
(dp24
g8
Vnsubj
p25
sbag0
(g1
g2
(lp26
(lp27
S'word: is, index: 2'
p28
aatp29
Rp30
(dp31
g8
Vcop
p32
sbatp33
Rp34
(dp35
g8
S'word: circus, index: 4'
p36
sbatp37
Rp38
(dp39
g8
S'id: 1'
p40
sbag0
(g1
g2
(lp41
g0
(g1
g2
(lp42
g0
(g1
g2
(lp43
g0
(g1
g2
(lp44
g0
(g1
g2
(lp45
(lp46
S'word: the, index: 22'
p47
aatp48
Rp49
(dp50
g8
Vdet
p51
sbatp52
Rp53
(dp54
g8
S'word: clown, index: 23'
p55
sbatp56
Rp57
(dp58
g8
Vprep
p59
sbag0
(g1
g2
(lp60
g0
(g1
g2
(lp61
g0
(g1
g2
(lp62
g0
(g1
g2
(lp63
g0
(g1
g2
(lp64
(lp65
S'word: his, index: 11'
p66
aatp67
Rp68
(dp69
g8
Vposs
p70
sbatp71
Rp72
(dp73
g8
S'word: daughter, index: 12'
p74
sbatp75
Rp76
(dp77
g8
Vnsubj
p78
sbag0
(g1
g2
(lp79
g0
(g1
g2
(lp80
g0
(g1
g2
(lp81
(lp82
S'word: the, index: 15'
p83
aatp84
Rp85
(dp86
g8
Vdet
p87
sbatp88
Rp89
(dp90
g8
S'word: clown, index: 16'
p91
sbatp92
Rp93
(dp94
g8
Vprep
p95
sbatp96
Rp97
(dp98
g8
S'word: looking, index: 13'
p99
sbatp100
Rp101
(dp102
g8
Vccomp
p103
sbag0
(g1
g2
(lp104
(lp105
S'word: she, index: 18'
p106
aatp107
Rp108
(dp109
g8
Vnsubj
p110
sbag0
(g1
g2
(lp111
(lp112
S'word: is, index: 19'
p113
aatp114
Rp115
(dp116
g8
Vaux
p117
sbag0
(g1
g2
(lp118
g0
(g1
g2
(lp119
g0
(g1
g2
(lp120
g0
(g1
g2
(lp121
g0
(g1
g2
(lp122
(lp123
S'word: a, index: 6'
p124
aatp125
Rp126
(dp127
g8
Vdet
p128
sbag0
(g1
g2
(lp129
(lp130
S'word: black, index: 7'
p131
aatp132
Rp133
(dp134
g8
Vamod
p135
sbatp136
Rp137
(dp138
g8
S'word: male, index: 8'
p139
sbatp140
Rp141
(dp142
g8
Vdobj
p143
sbag0
(g1
g2
(lp144
g97
atp145
Rp146
(dp147
g8
Vconj
p148
sbag0
(g1
g2
(lp149
g0
(g1
g2
(lp150
g0
(g1
g2
(lp151
(lp152
S'word: all, index: 3'
p153
aatp154
Rp155
(dp156
g8
Vprep
p157
sbatp158
Rp159
(dp160
g8
S'word: First, index: 1'
p161
sbatp162
Rp163
(dp164
g8
Vtmod
p165
sbag0
(g1
g2
(lp166
(lp167
S'word: you, index: 4'
p168
aatp169
Rp170
(dp171
g8
Vnsubj
p172
sbatp173
Rp174
(dp175
g8
S'word: have, index: 5'
p176
sbatp177
Rp178
(dp179
g8
Vccomp
p180
sbatp181
Rp182
(dp183
g8
S'word: pointing, index: 20'
p184
sbatp185
Rp186
(dp187
g8
S'id: 2'
p188
sbag0
(g1
g2
(lp189
g0
(g1
g2
(lp190
g0
(g1
g2
(lp191
g0
(g1
g2
(lp192
g0
(g1
g2
(lp193
(lp194
S'word: a, index: 9'
p195
aatp196
Rp197
(dp198
g8
Vdet
p199
sbag0
(g1
g2
(lp200
(lp201
S'word: lion, index: 10'
p202
aatp203
Rp204
(dp205
g8
Vnn
p206
sbatp207
Rp208
(dp209
g8
S'word: trainer, index: 11'
p210
sbatp211
Rp212
(dp213
g8
Vnsubj
p214
sbag0
(g1
g2
(lp215
g0
(g1
g2
(lp216
g0
(g1
g2
(lp217
(lp218
S'word: the, index: 14'
p219
aatp220
Rp221
(dp222
g8
Vdet
p223
sbatp224
Rp225
(dp226
g8
S'word: lion, index: 15'
p227
sbatp228
Rp229
(dp230
g8
Vnsubj
p231
sbag0
(g1
g2
(lp232
g0
(g1
g2
(lp233
g0
(g1
g2
(lp234
(lp235
S'word: the, index: 2'
p236
aatp237
Rp238
(dp239
g8
Vdet
p240
sbatp241
Rp242
(dp243
g8
S'word: cage, index: 3'
p244
sbatp245
Rp246
(dp247
g8
Vprep
p248
sbag0
(g1
g2
(lp249
(lp250
S'word: there, index: 5'
p251
aatp252
Rp253
(dp254
g8
Vexpl
p255
sbag0
(g1
g2
(lp256
g0
(g1
g2
(lp257
g0
(g1
g2
(lp258
g0
(g1
g2
(lp259
g0
(g1
g2
(lp260
(lp261
S'word: a, index: 25'
p262
aatp263
Rp264
(dp265
g8
Vdet
p266
sbatp267
Rp268
(dp269
g8
S'word: box, index: 26'
p270
sbatp271
Rp272
(dp273
g8
Vprep
p274
sbag0
(g1
g2
(lp275
g0
(g1
g2
(lp276
g0
(g1
g2
(lp277
(lp278
S'word: the, index: 18'
p279
aatp280
Rp281
(dp282
g8
Vdet
p283
sbatp284
Rp285
(dp286
g8
S'word: lion, index: 19'
p287
sbatp288
Rp289
(dp290
g8
Vnsubj
p291
sbag0
(g1
g2
(lp292
(lp293
S'word: is, index: 20'
p294
aatp295
Rp296
(dp297
g8
Vaux
p298
sbatp299
Rp300
(dp301
g8
S'word: sitting, index: 21'
p302
sbatp303
Rp304
(dp305
g8
Vconj
p306
sbag0
(g1
g2
(lp307
g0
(g1
g2
(lp308
g0
(g1
g2
(lp309
g208
atp310
Rp311
(dp312
g8
Vconj
p313
sbag0
(g1
g2
(lp314
g225
atp315
Rp316
(dp317
g8
Vconj
p318
sbatp319
Rp320
(dp321
g8
S'word: the, index: 7'
p322
sbatp323
Rp324
(dp325
g8
Vnsubj
p326
sbatp327
Rp328
(dp329
g8
S"word: 's, index: 6"
p330
sbatp331
Rp332
(dp333
g8
S'id: 3'
p334
sbag0
(g1
g2
(lp335
g0
(g1
g2
(lp336
g0
(g1
g2
(lp337
g0
(g1
g2
(lp338
g0
(g1
g2
(lp339
(lp340
S'word: The, index: 1'
p341
aatp342
Rp343
(dp344
g8
Vdet
p345
sbatp346
Rp347
(dp348
g8
S'word: clown, index: 2'
p349
sbatp350
Rp351
(dp352
g8
Vnsubj
p353
sbag0
(g1
g2
(lp354
g0
(g1
g2
(lp355
g0
(g1
g2
(lp356
g0
(g1
g2
(lp357
g0
(g1
g2
(lp358
g0
(g1
g2
(lp359
g0
(g1
g2
(lp360
(lp361
S'word: the, index: 13'
p362
aatp363
Rp364
(dp365
g8
Vdet
p366
sbatp367
Rp368
(dp369
g8
S'word: children, index: 14'
p370
sbatp371
Rp372
(dp373
g8
Vprep
p374
sbag0
(g1
g2
(lp375
g0
(g1
g2
(lp376
g0
(g1
g2
(lp377
g0
(g1
g2
(lp378
g0
(g1
g2
(lp379
(lp380
S'word: potato, index: 10'
p381
aatp382
Rp383
(dp384
g8
Vconj
p385
sbatp386
Rp387
(dp388
g8
S'word: popcorn, index: 8'
p389
sbatp390
Rp391
(dp392
g8
Vnn
p393
sbag0
(g1
g2
(lp394
(lp395
S'word: potato, index: 10'
p396
aatp397
Rp398
(dp399
g8
Vnn
p400
sbatp401
Rp402
(dp403
g8
S'word: chip, index: 11'
p404
sbatp405
Rp406
(dp407
g8
Vdobj
p408
sbatp409
Rp410
(dp411
g8
S'word: throwing, index: 7'
p412
sbatp413
Rp414
(dp415
g8
Vprepc
p416
sbatp417
Rp418
(dp419
g8
S'word: look, index: 5'
p420
sbatp421
Rp422
(dp423
g8
Vdep
p424
sbatp425
Rp426
(dp427
g8
S'word: is, index: 3'
p428
sbatp429
Rp430
(dp431
g8
S'id: 4'
p432
sbag0
(g1
g2
(lp433
g0
(g1
g2
(lp434
g0
(g1
g2
(lp435
g0
(g1
g2
(lp436
g0
(g1
g2
(lp437
(lp438
S'word: her, index: 14'
p439
aatp440
Rp441
(dp442
g8
Vposs
p443
sbatp444
Rp445
(dp446
g8
S'word: son, index: 15'
p447
sbatp448
Rp449
(dp450
g8
Vprep
p451
sbag0
(g1
g2
(lp452
g0
(g1
g2
(lp453
g0
(g1
g2
(lp454
(lp455
S'word: the, index: 2'
p456
aatp457
Rp458
(dp459
g8
Vdet
p460
sbatp461
Rp462
(dp463
g8
S'word: right, index: 3'
p464
sbatp465
Rp466
(dp467
g8
Vprep
p468
sbag0
(g1
g2
(lp469
g0
(g1
g2
(lp470
g0
(g1
g2
(lp471
g445
atp472
Rp473
(dp474
g8
Vconj
p475
sbag0
(g1
g2
(lp476
(lp477
S'word: a, index: 7'
p478
aatp479
Rp480
(dp481
g8
Vdet
p482
sbag0
(g1
g2
(lp483
g0
(g1
g2
(lp484
g0
(g1
g2
(lp485
(lp486
S'word: a, index: 10'
p487
aatp488
Rp489
(dp490
g8
Vdet
p491
sbatp492
Rp493
(dp494
g8
S'word: daughter, index: 11'
p495
sbatp496
Rp497
(dp498
g8
Vconj
p499
sbatp500
Rp501
(dp502
g8
S'word: mother, index: 8'
p503
sbatp504
Rp505
(dp506
g8
Vprep
p507
sbag0
(g1
g2
(lp508
g493
atp509
Rp510
(dp511
g8
Vprep
p512
sbatp513
Rp514
(dp515
g8
S'word: look, index: 5'
p516
sbatp517
Rp518
(dp519
g8
S'id: 5'
p520
sbag0
(g1
g2
(lp521
g0
(g1
g2
(lp522
g0
(g1
g2
(lp523
g0
(g1
g2
(lp524
g0
(g1
g2
(lp525
(lp526
S'word: The, index: 1'
p527
aatp528
Rp529
(dp530
g8
Vdet
p531
sbatp532
Rp533
(dp534
g8
S'word: cloud, index: 2'
p535
sbatp536
Rp537
(dp538
g8
Vnsubj
p539
sbag0
(g1
g2
(lp540
g0
(g1
g2
(lp541
g0
(g1
g2
(lp542
(lp543
S'word: a, index: 4'
p544
aatp545
Rp546
(dp547
g8
Vdet
p548
sbag0
(g1
g2
(lp549
g0
(g1
g2
(lp550
g0
(g1
g2
(lp551
(lp552
S'word: his, index: 7'
p553
aatp554
Rp555
(dp556
g8
Vposs
p557
sbatp558
Rp559
(dp560
g8
S'word: head, index: 8'
p561
sbatp562
Rp563
(dp564
g8
Vprep
p565
sbatp566
Rp567
(dp568
g8
S'word: hat, index: 5'
p569
sbatp570
Rp571
(dp572
g8
Vdobj
p573
sbatp574
Rp575
(dp576
g8
S'word: has, index: 3'
p577
sbatp578
Rp579
(dp580
g8
S'id: 6'
p581
sbag0
(g1
g2
(lp582
g0
(g1
g2
(lp583
g0
(g1
g2
(lp584
g0
(g1
g2
(lp585
g0
(g1
g2
(lp586
(lp587
S'word: a, index: 5'
p588
aatp589
Rp590
(dp591
g8
Vdet
p592
sbag0
(g1
g2
(lp593
g0
(g1
g2
(lp594
g0
(g1
g2
(lp595
g0
(g1
g2
(lp596
g0
(g1
g2
(lp597
(lp598
S'word: a, index: 9'
p599
aatp600
Rp601
(dp602
g8
Vdet
p603
sbatp604
Rp605
(dp606
g8
S'word: tightrope, index: 10'
p607
sbatp608
Rp609
(dp610
g8
Vprep
p611
sbatp612
Rp613
(dp614
g8
S'word: walking, index: 7'
p615
sbatp616
Rp617
(dp618
g8
Vvmod
p619
sbatp620
Rp621
(dp622
g8
S'word: man, index: 6'
p623
sbatp624
Rp625
(dp626
g8
Vnsubj
p627
sbag0
(g1
g2
(lp628
(lp629
S'word: top, index: 2'
p630
aatp631
Rp632
(dp633
g8
Vprep
p634
sbag0
(g1
g2
(lp635
(lp636
S'word: there, index: 3'
p637
aatp638
Rp639
(dp640
g8
Vexpl
p641
sbatp642
Rp643
(dp644
g8
S"word: 's, index: 4"
p645
sbatp646
Rp647
(dp648
g8
S'id: 7'
p649
sbag0
(g1
g2
(lp650
g0
(g1
g2
(lp651
g0
(g1
g2
(lp652
g0
(g1
g2
(lp653
g0
(g1
g2
(lp654
g0
(g1
g2
(lp655
g0
(g1
g2
(lp656
(lp657
S'word: her, index: 25'
p658
aatp659
Rp660
(dp661
g8
Vposs
p662
sbatp663
Rp664
(dp665
g8
S'word: balance, index: 26'
p666
sbatp667
Rp668
(dp669
g8
Vdobj
p670
sbag0
(g1
g2
(lp671
(lp672
S'word: where, index: 21'
p673
aatp674
Rp675
(dp676
g8
Vadvmod
p677
sbag0
(g1
g2
(lp678
(lp679
S'word: she, index: 22'
p680
aatp681
Rp682
(dp683
g8
Vnsubj
p684
sbag0
(g1
g2
(lp685
(lp686
S"word: 's, index: 23"
p687
aatp688
Rp689
(dp690
g8
Vaux
p691
sbatp692
Rp693
(dp694
g8
S'word: keeping, index: 24'
p695
sbatp696
Rp697
(dp698
g8
Vprepc
p699
sbag0
(g1
g2
(lp700
g0
(g1
g2
(lp701
g0
(g1
g2
(lp702
(lp703
S'word: her, index: 16'
p704
aatp705
Rp706
(dp707
g8
Vposs
p708
sbatp709
Rp710
(dp711
g8
S'word: hand, index: 17'
p712
sbatp713
Rp714
(dp715
g8
Vnsubjpass
p716
sbag0
(g1
g2
(lp717
(lp718
S'word: is, index: 18'
p719
aatp720
Rp721
(dp722
g8
Vauxpass
p723
sbag0
(g1
g2
(lp724
g0
(g1
g2
(lp725
g0
(g1
g2
(lp726
(lp727
S'word: And, index: 1'
p728
aatp729
Rp730
(dp731
g8
Vcc
p732
sbag0
(g1
g2
(lp733
(lp734
S'word: there, index: 2'
p735
aatp736
Rp737
(dp738
g8
Vexpl
p739
sbag0
(g1
g2
(lp740
g0
(g1
g2
(lp741
g0
(g1
g2
(lp742
g0
(g1
g2
(lp743
g0
(g1
g2
(lp744
(lp745
S'word: next, index: 8'
p746
aatp747
Rp748
(dp749
g8
Vamod
p750
sbag0
(g1
g2
(lp751
g0
(g1
g2
(lp752
g0
(g1
g2
(lp753
(lp754
S'word: who, index: 10'
p755
aatp756
Rp757
(dp758
g8
Vnsubj
p759
sbag0
(g1
g2
(lp760
(lp761
S"word: 's, index: 11"
p762
aatp763
Rp764
(dp765
g8
Vaux
p766
sbag0
(g1
g2
(lp767
g0
(g1
g2
(lp768
g0
(g1
g2
(lp769
(lp770
S'word: a, index: 13'
p771
aatp772
Rp773
(dp774
g8
Vdet
p775
sbatp776
Rp777
(dp778
g8
S'word: horse, index: 14'
p779
sbatp780
Rp781
(dp782
g8
Vdobj
p783
sbatp784
Rp785
(dp786
g8
S'word: riding, index: 12'
p787
sbatp788
Rp789
(dp790
g8
Vrcmod
p791
sbag0
(g1
g2
(lp792
(lp793
S'word: the, index: 7'
p794
aatp795
Rp796
(dp797
g8
Vdet
p798
sbatp799
Rp800
(dp801
g8
S'word: rings, index: 9'
p802
sbatp803
Rp804
(dp805
g8
Vprep
p806
sbag0
(g1
g2
(lp807
(lp808
S'word: a, index: 4'
p809
aatp810
Rp811
(dp812
g8
Vdet
p813
sbatp814
Rp815
(dp816
g8
S'word: lady, index: 5'
p817
sbatp818
Rp819
(dp820
g8
Vnsubj
p821
sbatp822
Rp823
(dp824
g8
S"word: 's, index: 3"
p825
sbatp826
Rp827
(dp828
g8
Vccomp
p829
sbatp830
Rp831
(dp832
g8
S'word: stretched, index: 19'
p833
sbatp834
Rp835
(dp836
g8
S'id: 8'
p837
sbag0
(g1
g2
(lp838
g0
(g1
g2
(lp839
g0
(g1
g2
(lp840
g0
(g1
g2
(lp841
g0
(g1
g2
(lp842
(lp843
S'word: five, index: 11'
p844
aatp845
Rp846
(dp847
g8
Vnum
p848
sbag0
(g1
g2
(lp849
(lp850
S'word: maybe, index: 13'
p851
aatp852
Rp853
(dp854
g8
Vadvmod
p855
sbag0
(g1
g2
(lp856
(lp857
S'word: six, index: 14'
p858
aatp859
Rp860
(dp861
g8
Vnum
p862
sbag0
(g1
g2
(lp863
g0
(g1
g2
(lp864
g0
(g1
g2
(lp865
(lp866
S'word: her, index: 17'
p867
aatp868
Rp869
(dp870
g8
Vdobj
p871
sbag0
(g1
g2
(lp872
g0
(g1
g2
(lp873
g0
(g1
g2
(lp874
g0
(g1
g2
(lp875
g0
(g1
g2
(lp876
(lp877
S'word: the, index: 19'
p878
aatp879
Rp880
(dp881
g8
Vdet
p882
sbag0
(g1
g2
(lp883
(lp884
S'word: the, index: 22'
p885
aatp886
Rp887
(dp888
g8
Vdep
p889
sbatp890
Rp891
(dp892
g8
S'word: on, index: 21'
p893
sbatp894
Rp895
(dp896
g8
Vpobj
p897
sbatp898
Rp899
(dp900
g8
S'word: on, index: 18'
p901
sbatp902
Rp903
(dp904
g8
Vprep
p905
sbag0
(g1
g2
(lp906
g0
(g1
g2
(lp907
g0
(g1
g2
(lp908
(lp909
S'word: the, index: 25'
p910
aatp911
Rp912
(dp913
g8
Vdet
p914
sbatp915
Rp916
(dp917
g8
S'word: horse, index: 26'
p918
sbatp919
Rp920
(dp921
g8
Vprep
p922
sbatp923
Rp924
(dp925
g8
S'word: watching, index: 16'
p926
sbatp927
Rp928
(dp929
g8
Vvmod
p930
sbag0
(g1
g2
(lp931
(lp932
S'word: one, index: 3'
p933
aatp934
Rp935
(dp936
g8
Vnum
p937
sbag0
(g1
g2
(lp938
(lp939
S'word: two, index: 5'
p940
aatp941
Rp942
(dp943
g8
Vnum
p944
sbag0
(g1
g2
(lp945
(lp946
S'word: three, index: 7'
p947
aatp948
Rp949
(dp950
g8
Vnum
p951
sbag0
(g1
g2
(lp952
(lp953
S'word: four, index: 9'
p954
aatp955
Rp956
(dp957
g8
Vnum
p958
sbatp959
Rp960
(dp961
g8
S'word: people, index: 15'
p962
sbatp963
Rp964
(dp965
g8
Vnsubj
p966
sbag0
(g1
g2
(lp967
(lp968
S'word: There, index: 1'
p969
aatp970
Rp971
(dp972
g8
Vexpl
p973
sbatp974
Rp975
(dp976
g8
S'word: are, index: 2'
p977
sbatp978
Rp979
(dp980
g8
S'id: 9'
p981
sbag0
(g1
g2
(lp982
g0
(g1
g2
(lp983
g0
(g1
g2
(lp984
g0
(g1
g2
(lp985
g0
(g1
g2
(lp986
g0
(g1
g2
(lp987
g0
(g1
g2
(lp988
(lp989
S'word: The, index: 1'
p990
aatp991
Rp992
(dp993
g8
Vdet
p994
sbatp995
Rp996
(dp997
g8
S'word: clown, index: 2'
p998
sbatp999
Rp1000
(dp1001
g8
Vnsubj
p1002
sbag0
(g1
g2
(lp1003
g0
(g1
g2
(lp1004
g0
(g1
g2
(lp1005
(lp1006
S'word: a, index: 4'
p1007
aatp1008
Rp1009
(dp1010
g8
Vdet
p1011
sbatp1012
Rp1013
(dp1014
g8
S'word: rib, index: 5'
p1015
sbatp1016
Rp1017
(dp1018
g8
Vdobj
p1019
sbatp1020
Rp1021
(dp1022
g8
S'word: has, index: 3'
p1023
sbatp1024
Rp1025
(dp1026
g8
Vccomp
p1027
sbag0
(g1
g2
(lp1028
g0
(g1
g2
(lp1029
g0
(g1
g2
(lp1030
(lp1031
S'word: the, index: 7'
p1032
aatp1033
Rp1034
(dp1035
g8
Vdet
p1036
sbatp1037
Rp1038
(dp1039
g8
S'word: clown, index: 8'
p1040
sbatp1041
Rp1042
(dp1043
g8
Vnsubj
p1044
sbag0
(g1
g2
(lp1045
g0
(g1
g2
(lp1046
g0
(g1
g2
(lp1047
g0
(g1
g2
(lp1048
g0
(g1
g2
(lp1049
(lp1050
S'word: his, index: 13'
p1051
aatp1052
Rp1053
(dp1054
g8
Vposs
p1055
sbatp1056
Rp1057
(dp1058
g8
S'word: hat, index: 14'
p1059
sbatp1060
Rp1061
(dp1062
g8
Vprep
p1063
sbag0
(g1
g2
(lp1064
(lp1065
S'word: a, index: 10'
p1066
aatp1067
Rp1068
(dp1069
g8
Vdet
p1070
sbatp1071
Rp1072
(dp1073
g8
S'word: flower, index: 11'
p1074
sbatp1075
Rp1076
(dp1077
g8
Vdobj
p1078
sbatp1079
Rp1080
(dp1081
g8
S'word: has, index: 9'
p1082
sbatp1083
Rp1084
(dp1085
g8
S'id: 10'
p1086
sbag0
(g1
g2
(lp1087
g0
(g1
g2
(lp1088
g0
(g1
g2
(lp1089
g0
(g1
g2
(lp1090
g0
(g1
g2
(lp1091
(lp1092
S'word: The, index: 1'
p1093
aatp1094
Rp1095
(dp1096
g8
Vdet
p1097
sbag0
(g1
g2
(lp1098
(lp1099
S'word: little, index: 2'
p1100
aatp1101
Rp1102
(dp1103
g8
Vamod
p1104
sbag0
(g1
g2
(lp1105
(lp1106
S"word: 's, index: 4"
p1107
aatp1108
Rp1109
(dp1110
g8
Vpossessive
p1111
sbag0
(g1
g2
(lp1112
g0
(g1
g2
(lp1113
g0
(g1
g2
(lp1114
g0
(g1
g2
(lp1115
g0
(g1
g2
(lp1116
g0
(g1
g2
(lp1117
g0
(g1
g2
(lp1118
(lp1119
S'word: the, index: 16'
p1120
aatp1121
Rp1122
(dp1123
g8
Vdet
p1124
sbatp1125
Rp1126
(dp1127
g8
S'word: clown, index: 17'
p1128
sbatp1129
Rp1130
(dp1131
g8
Vprep
p1132
sbag0
(g1
g2
(lp1133
g0
(g1
g2
(lp1134
g0
(g1
g2
(lp1135
(lp1136
S'word: the, index: 7'
p1137
aatp1138
Rp1139
(dp1140
g8
Vdet
p1141
sbag0
(g1
g2
(lp1142
g0
(g1
g2
(lp1143
g0
(g1
g2
(lp1144
(lp1145
S'word: the, index: 10'
p1146
aatp1147
Rp1148
(dp1149
g8
Vdet
p1150
sbag0
(g1
g2
(lp1151
(lp1152
S'word: black, index: 11'
p1153
aatp1154
Rp1155
(dp1156
g8
Vamod
p1157
sbag0
(g1
g2
(lp1158
(lp1159
S"word: 's, index: 13"
p1160
aatp1161
Rp1162
(dp1163
g8
Vpossessive
p1164
sbatp1165
Rp1166
(dp1167
g8
S'word: girl, index: 12'
p1168
sbatp1169
Rp1170
(dp1171
g8
Vappos
p1172
sbatp1173
Rp1174
(dp1175
g8
S'word: clown, index: 8'
p1176
sbatp1177
Rp1178
(dp1179
g8
Vnsubj
p1180
sbatp1181
Rp1182
(dp1183
g8
S'word: pointing, index: 14'
p1184
sbatp1185
Rp1186
(dp1187
g8
Vprepc
p1188
sbatp1189
Rp1190
(dp1191
g8
S'word: pointing, index: 5'
p1192
sbatp1193
Rp1194
(dp1195
g8
Vvmod
p1196
sbatp1197
Rp1198
(dp1199
g8
S'word: girl, index: 3'
p1200
sbatp1201
Rp1202
(dp1203
g8
Vnsubj
p1204
sbag0
(g1
g2
(lp1205
(lp1206
S'word: she, index: 19'
p1207
aatp1208
Rp1209
(dp1210
g8
Vnsubj
p1211
sbag0
(g1
g2
(lp1212
g0
(g1
g2
(lp1213
g0
(g1
g2
(lp1214
g0
(g1
g2
(lp1215
g0
(g1
g2
(lp1216
(lp1217
S'word: her, index: 23'
p1218
aatp1219
Rp1220
(dp1221
g8
Vposs
p1222
sbatp1223
Rp1224
(dp1225
g8
S'word: hair, index: 24'
p1226
sbatp1227
Rp1228
(dp1229
g8
Vprep
p1230
sbatp1231
Rp1232
(dp1233
g8
S'word: bows, index: 21'
p1234
sbatp1235
Rp1236
(dp1237
g8
Vdobj
p1238
sbatp1239
Rp1240
(dp1241
g8
S'word: has, index: 20'
p1242
sbatp1243
Rp1244
(dp1245
g8
S'id: 11'
p1246
sbag0
(g1
g2
(lp1247
g0
(g1
g2
(lp1248
g0
(g1
g2
(lp1249
(lp1250
S'word: them, index: 22'
p1251
aatp1252
Rp1253
(dp1254
g8
Vprep
p1255
sbag0
(g1
g2
(lp1256
g0
(g1
g2
(lp1257
g0
(g1
g2
(lp1258
g0
(g1
g2
(lp1259
g0
(g1
g2
(lp1260
(lp1261
S'word: who, index: 4'
p1262
aatp1263
Rp1264
(dp1265
g8
Vnsubj
p1266
sbag0
(g1
g2
(lp1267
(lp1268
S"word: 's, index: 5"
p1269
aatp1270
Rp1271
(dp1272
g8
Vaux
p1273
sbag0
(g1
g2
(lp1274
g0
(g1
g2
(lp1275
g0
(g1
g2
(lp1276
(lp1277
S'word: to, index: 7'
p1278
aatp1279
Rp1280
(dp1281
g8
Vaux
p1282
sbag0
(g1
g2
(lp1283
(lp1284
S'word: like, index: 9'
p1285
aatp1286
Rp1287
(dp1288
g8
Vprep
p1289
sbatp1290
Rp1291
(dp1292
g8
S'word: look, index: 8'
p1293
sbatp1294
Rp1295
(dp1296
g8
Vxcomp
p1297
sbag0
(g1
g2
(lp1298
g0
(g1
g2
(lp1299
g0
(g1
g2
(lp1300
g0
(g1
g2
(lp1301
g0
(g1
g2
(lp1302
(lp1303
S'word: to, index: 12'
p1304
aatp1305
Rp1306
(dp1307
g8
Vaux
p1308
sbag0
(g1
g2
(lp1309
g0
(g1
g2
(lp1310
g0
(g1
g2
(lp1311
(lp1312
S'word: the, index: 14'
p1313
aatp1314
Rp1315
(dp1316
g8
Vdet
p1317
sbatp1318
Rp1319
(dp1320
g8
S'word: popcorn, index: 15'
p1321
sbatp1322
Rp1323
(dp1324
g8
Vdobj
p1325
sbag0
(g1
g2
(lp1326
g0
(g1
g2
(lp1327
g0
(g1
g2
(lp1328
(lp1329
S'word: the, index: 17'
p1330
aatp1331
Rp1332
(dp1333
g8
Vdet
p1334
sbatp1335
Rp1336
(dp1337
g8
S'word: clown, index: 18'
p1338
sbatp1339
Rp1340
(dp1341
g8
Vprep
p1342
sbatp1343
Rp1344
(dp1345
g8
S'word: catch, index: 13'
p1346
sbatp1347
Rp1348
(dp1349
g8
Vxcomp
p1350
sbatp1351
Rp1352
(dp1353
g8
S'word: trying, index: 11'
p1354
sbatp1355
Rp1356
(dp1357
g8
Vdep
p1358
sbatp1359
Rp1360
(dp1361
g8
S'word: trying, index: 6'
p1362
sbatp1363
Rp1364
(dp1365
g8
Vrcmod
p1366
sbag0
(g1
g2
(lp1367
(lp1368
S'word: The, index: 1'
p1369
aatp1370
Rp1371
(dp1372
g8
Vdet
p1373
sbag0
(g1
g2
(lp1374
(lp1375
S'word: little, index: 2'
p1376
aatp1377
Rp1378
(dp1379
g8
Vamod
p1380
sbatp1381
Rp1382
(dp1383
g8
S'word: boy, index: 3'
p1384
sbatp1385
Rp1386
(dp1387
g8
Vnsubj
p1388
sbag0
(g1
g2
(lp1389
(lp1390
S'word: is, index: 19'
p1391
aatp1392
Rp1393
(dp1394
g8
Vaux
p1395
sbatp1396
Rp1397
(dp1398
g8
S'word: throwing, index: 20'
p1399
sbatp1400
Rp1401
(dp1402
g8
S'id: 12'
p1403
sbag0
(g1
g2
(lp1404
g0
(g1
g2
(lp1405
g0
(g1
g2
(lp1406
(lp1407
S'word: he, index: 9'
p1408
aatp1409
Rp1410
(dp1411
g8
Vnsubj
p1412
sbag0
(g1
g2
(lp1413
g0
(g1
g2
(lp1414
g0
(g1
g2
(lp1415
(lp1416
S'word: striped, index: 11'
p1417
aatp1418
Rp1419
(dp1420
g8
Vamod
p1421
sbatp1422
Rp1423
(dp1424
g8
S'word: pants, index: 12'
p1425
sbatp1426
Rp1427
(dp1428
g8
Vdobj
p1429
sbag0
(g1
g2
(lp1430
g0
(g1
g2
(lp1431
g0
(g1
g2
(lp1432
g0
(g1
g2
(lp1433
g0
(g1
g2
(lp1434
(lp1435
S'word: The, index: 1'
p1436
aatp1437
Rp1438
(dp1439
g8
Vdet
p1440
sbag0
(g1
g2
(lp1441
(lp1442
S'word: clown, index: 2'
p1443
aatp1444
Rp1445
(dp1446
g8
Vnn
p1447
sbatp1448
Rp1449
(dp1450
g8
S'word: tie, index: 3'
p1451
sbatp1452
Rp1453
(dp1454
g8
Vnsubj
p1455
sbag0
(g1
g2
(lp1456
g0
(g1
g2
(lp1457
g0
(g1
g2
(lp1458
(lp1459
S'word: it, index: 7'
p1460
aatp1461
Rp1462
(dp1463
g8
Vprep
p1464
sbatp1465
Rp1466
(dp1467
g8
S'word: flowers, index: 5'
p1468
sbatp1469
Rp1470
(dp1471
g8
Vdobj
p1472
sbatp1473
Rp1474
(dp1475
g8
S'word: has, index: 4'
p1476
sbatp1477
Rp1478
(dp1479
g8
Vccomp
p1480
sbatp1481
Rp1482
(dp1483
g8
S'word: has, index: 10'
p1484
sbatp1485
Rp1486
(dp1487
g8
S'id: 13'
p1488
sbag0
(g1
g2
(lp1489
g0
(g1
g2
(lp1490
g0
(g1
g2
(lp1491
g0
(g1
g2
(lp1492
g0
(g1
g2
(lp1493
g0
(g1
g2
(lp1494
g0
(g1
g2
(lp1495
(lp1496
S'word: it, index: 20'
p1497
aatp1498
Rp1499
(dp1500
g8
Vprep
p1501
sbatp1502
Rp1503
(dp1504
g8
S'word: flying, index: 18'
p1505
sbatp1506
Rp1507
(dp1508
g8
Vvmod
p1509
sbatp1510
Rp1511
(dp1512
g8
S'word: birds, index: 17'
p1513
sbatp1514
Rp1515
(dp1516
g8
Vprep
p1517
sbag0
(g1
g2
(lp1518
g0
(g1
g2
(lp1519
g0
(g1
g2
(lp1520
(lp1521
S'word: The, index: 1'
p1522
aatp1523
Rp1524
(dp1525
g8
Vdet
p1526
sbag0
(g1
g2
(lp1527
g0
(g1
g2
(lp1528
g0
(g1
g2
(lp1529
g0
(g1
g2
(lp1530
g0
(g1
g2
(lp1531
(lp1532
S'word: shirt, index: 12'
p1533
aatp1534
Rp1535
(dp1536
g8
Vconj
p1537
sbag0
(g1
g2
(lp1538
(lp1539
S'word: a, index: 9'
p1540
aatp1541
Rp1542
(dp1543
g8
Vdet
p1544
sbatp1545
Rp1546
(dp1547
g8
S'word: dress, index: 10'
p1548
sbatp1549
Rp1550
(dp1551
g8
Vdobj
p1552
sbag0
(g1
g2
(lp1553
(lp1554
S'word: shirt, index: 12'
p1555
aatp1556
Rp1557
(dp1558
g8
Vdobj
p1559
sbag0
(g1
g2
(lp1560
(lp1561
S'word: on, index: 13'
p1562
aatp1563
Rp1564
(dp1565
g8
Vprep
p1566
sbag0
(g1
g2
(lp1567
g0
(g1
g2
(lp1568
g0
(g1
g2
(lp1569
(lp1570
S'word: the, index: 4'
p1571
aatp1572
Rp1573
(dp1574
g8
Vdet
p1575
sbatp1576
Rp1577
(dp1578
g8
S'word: leh/right, index: 5'
p1579
sbatp1580
Rp1581
(dp1582
g8
Vprep
p1583
sbag0
(g1
g2
(lp1584
(lp1585
S'word: she, index: 7'
p1586
aatp1587
Rp1588
(dp1589
g8
Vnsubj
p1590
sbatp1591
Rp1592
(dp1593
g8
S'word: has, index: 8'
p1594
sbatp1595
Rp1596
(dp1597
g8
Vrcmod
p1598
sbatp1599
Rp1600
(dp1601
g8
S'word: lady, index: 2'
p1602
sbatp1603
Rp1604
(dp1605
g8
Vdep
p1606
sbatp1607
Rp1608
(dp1609
g8
S'word: look, index: 15'
p1610
sbatp1611
Rp1612
(dp1613
g8
S'id: 14'
p1614
sbag0
(g1
g2
(lp1615
g0
(g1
g2
(lp1616
g0
(g1
g2
(lp1617
g0
(g1
g2
(lp1618
g0
(g1
g2
(lp1619
(lp1620
S'word: The, index: 1'
p1621
aatp1622
Rp1623
(dp1624
g8
Vdet
p1625
sbag0
(g1
g2
(lp1626
g0
(g1
g2
(lp1627
g0
(g1
g2
(lp1628
g0
(g1
g2
(lp1629
g0
(g1
g2
(lp1630
(lp1631
S'word: the, index: 4'
p1632
aatp1633
Rp1634
(dp1635
g8
Vdet
p1636
sbatp1637
Rp1638
(dp1639
g8
S'word: horse, index: 5'
p1640
sbatp1641
Rp1642
(dp1643
g8
Vdobj
p1644
sbatp1645
Rp1646
(dp1647
g8
S'word: riding, index: 3'
p1648
sbatp1649
Rp1650
(dp1651
g8
Vvmod
p1652
sbatp1653
Rp1654
(dp1655
g8
S'word: lady, index: 2'
p1656
sbatp1657
Rp1658
(dp1659
g8
Vnsubj
p1660
sbag0
(g1
g2
(lp1661
g0
(g1
g2
(lp1662
g0
(g1
g2
(lp1663
(lp1664
S'word: a, index: 7'
p1665
aatp1666
Rp1667
(dp1668
g8
Vdet
p1669
sbatp1670
Rp1671
(dp1672
g8
S'word: tutu, index: 8'
p1673
sbatp1674
Rp1675
(dp1676
g8
Vdobj
p1677
sbag0
(g1
g2
(lp1678
(lp1679
S'word: on, index: 9'
p1680
aatp1681
Rp1682
(dp1683
g8
Vprep
p1684
sbatp1685
Rp1686
(dp1687
g8
S'word: has, index: 6'
p1688
sbatp1689
Rp1690
(dp1691
g8
S'id: 15'
p1692
sbag0
(g1
g2
(lp1693
g0
(g1
g2
(lp1694
g0
(g1
g2
(lp1695
(lp1696
S'word: I, index: 18'
p1697
aatp1698
Rp1699
(dp1700
g8
Vnsubj
p1701
sbag0
(g1
g2
(lp1702
(lp1703
S'word: do, index: 19'
p1704
aatp1705
Rp1706
(dp1707
g8
Vaux
p1708
sbag0
(g1
g2
(lp1709
(lp1710
S"word: n't, index: 20"
p1711
aatp1712
Rp1713
(dp1714
g8
Vneg
p1715
sbag0
(g1
g2
(lp1716
(lp1717
S'word: what, index: 22'
p1718
aatp1719
Rp1720
(dp1721
g8
Vdobj
p1722
sbag0
(g1
g2
(lp1723
g0
(g1
g2
(lp1724
g0
(g1
g2
(lp1725
g0
(g1
g2
(lp1726
g0
(g1
g2
(lp1727
(lp1728
S'word: a, index: 14'
p1729
aatp1730
Rp1731
(dp1732
g8
Vdet
p1733
sbag0
(g1
g2
(lp1734
(lp1735
S'word: tuxedo, index: 15'
p1736
aatp1737
Rp1738
(dp1739
g8
Vnn
p1740
sbatp1741
Rp1742
(dp1743
g8
S'word: coat, index: 16'
p1744
sbatp1745
Rp1746
(dp1747
g8
Vdobj
p1748
sbag0
(g1
g2
(lp1749
g0
(g1
g2
(lp1750
g0
(g1
g2
(lp1751
(lp1752
S'word: The, index: 1'
p1753
aatp1754
Rp1755
(dp1756
g8
Vdet
p1757
sbag0
(g1
g2
(lp1758
g0
(g1
g2
(lp1759
g0
(g1
g2
(lp1760
(lp1761
S'word: the, index: 4'
p1762
aatp1763
Rp1764
(dp1765
g8
Vdet
p1766
sbag0
(g1
g2
(lp1767
(lp1768
S'word: lion, index: 5'
p1769
aatp1770
Rp1771
(dp1772
g8
Vnn
p1773
sbatp1774
Rp1775
(dp1776
g8
S'word: cage, index: 6'
p1777
sbatp1778
Rp1779
(dp1780
g8
Vprep
p1781
sbatp1782
Rp1783
(dp1784
g8
S'word: man, index: 2'
p1785
sbatp1786
Rp1787
(dp1788
g8
Vnsubj
p1789
sbag0
(g1
g2
(lp1790
(lp1791
S'word: is, index: 7'
p1792
aatp1793
Rp1794
(dp1795
g8
Vaux
p1796
sbag0
(g1
g2
(lp1797
g0
(g1
g2
(lp1798
g0
(g1
g2
(lp1799
g1742
atp1800
Rp1801
(dp1802
g8
Vconj
p1803
sbag0
(g1
g2
(lp1804
(lp1805
S'word: a, index: 9'
p1806
aatp1807
Rp1808
(dp1809
g8
Vdet
p1810
sbag0
(g1
g2
(lp1811
(lp1812
S'word: top, index: 10'
p1813
aatp1814
Rp1815
(dp1816
g8
Vamod
p1817
sbatp1818
Rp1819
(dp1820
g8
S'word: hat, index: 11'
p1821
sbatp1822
Rp1823
(dp1824
g8
Vdobj
p1825
sbatp1826
Rp1827
(dp1828
g8
S'word: wearing, index: 8'
p1829
sbatp1830
Rp1831
(dp1832
g8
Vccomp
p1833
sbag0
(g1
g2
(lp1834
g0
(g1
g2
(lp1835
g0
(g1
g2
(lp1836
(lp1837
S'word: kinda, index: 23'
p1838
aatp1839
Rp1840
(dp1841
g8
Vnn
p1842
sbag0
(g1
g2
(lp1843
g0
(g1
g2
(lp1844
g0
(g1
g2
(lp1845
(lp1846
S'word: it, index: 25'
p1847
aatp1848
Rp1849
(dp1850
g8
Vnsubjpass
p1851
sbag0
(g1
g2
(lp1852
(lp1853
S"word: 's, index: 26"
p1854
aatp1855
Rp1856
(dp1857
g8
Vauxpass
p1858
sbatp1859
Rp1860
(dp1861
g8
S'word: called, index: 27'
p1862
sbatp1863
Rp1864
(dp1865
g8
Vrcmod
p1866
sbatp1867
Rp1868
(dp1869
g8
S'word: coat, index: 24'
p1870
sbatp1871
Rp1872
(dp1873
g8
Vtmod
p1874
sbatp1875
Rp1876
(dp1877
g8
S'word: know, index: 21'
p1878
sbatp1879
Rp1880
(dp1881
g8
S'id: 16'
p1882
sbag0
(g1
g2
(lp1883
g0
(g1
g2
(lp1884
g0
(g1
g2
(lp1885
g0
(g1
g2
(lp1886
g0
(g1
g2
(lp1887
(lp1888
S'word: his, index: 5'
p1889
aatp1890
Rp1891
(dp1892
g8
Vposs
p1893
sbag0
(g1
g2
(lp1894
(lp1895
S'word: back, index: 6'
p1896
aatp1897
Rp1898
(dp1899
g8
Vamod
p1900
sbatp1901
Rp1902
(dp1903
g8
S'word: legs, index: 7'
p1904
sbatp1905
Rp1906
(dp1907
g8
Vprep
p1908
sbag0
(g1
g2
(lp1909
g0
(g1
g2
(lp1910
g0
(g1
g2
(lp1911
(lp1912
S'word: he, index: 10'
p1913
aatp1914
Rp1915
(dp1916
g8
Vnsubj
p1917
sbag0
(g1
g2
(lp1918
g0
(g1
g2
(lp1919
g0
(g1
g2
(lp1920
g0
(g1
g2
(lp1921
g0
(g1
g2
(lp1922
g0
(g1
g2
(lp1923
g0
(g1
g2
(lp1924
(lp1925
S'word: the, index: 17'
p1926
aatp1927
Rp1928
(dp1929
g8
Vdet
p1930
sbag0
(g1
g2
(lp1931
(lp1932
S'word: lion, index: 18'
p1933
aatp1934
Rp1935
(dp1936
g8
Vdep
p1937
sbatp1938
Rp1939
(dp1940
g8
S'word: tamer, index: 19'
p1941
sbatp1942
Rp1943
(dp1944
g8
Vnsubj
p1945
sbag0
(g1
g2
(lp1946
(lp1947
S'word: is, index: 20'
p1948
aatp1949
Rp1950
(dp1951
g8
Vaux
p1952
sbag0
(g1
g2
(lp1953
(lp1954
S'word: him, index: 22'
p1955
aatp1956
Rp1957
(dp1958
g8
Vdobj
p1959
sbag0
(g1
g2
(lp1960
g0
(g1
g2
(lp1961
g0
(g1
g2
(lp1962
(lp1963
S'word: to, index: 23'
p1964
aatp1965
Rp1966
(dp1967
g8
Vaux
p1968
sbag0
(g1
g2
(lp1969
g0
(g1
g2
(lp1970
g0
(g1
g2
(lp1971
(lp1972
S'word: up, index: 27'
p1973
aatp1974
Rp1975
(dp1976
g8
Vprt
p1977
sbatp1978
Rp1979
(dp1980
g8
S'word: rise, index: 26'
p1981
sbatp1982
Rp1983
(dp1984
g8
Vdep
p1985
sbatp1986
Rp1987
(dp1988
g8
S'word: do, index: 24'
p1989
sbatp1990
Rp1991
(dp1992
g8
Vxcomp
p1993
sbag0
(g1
g2
(lp1994
(lp1995
S'word: what, index: 16'
p1996
aatp1997
Rp1998
(dp1999
g8
Vdobj
p2000
sbatp2001
Rp2002
(dp2003
g8
S'word: telling, index: 21'
p2004
sbatp2005
Rp2006
(dp2007
g8
Vccomp
p2008
sbag0
(g1
g2
(lp2009
(lp2010
S'word: he, index: 13'
p2011
aatp2012
Rp2013
(dp2014
g8
Vnsubj
p2015
sbag0
(g1
g2
(lp2016
(lp2017
S"word: 's, index: 14"
p2018
aatp2019
Rp2020
(dp2021
g8
Vaux
p2022
sbatp2023
Rp2024
(dp2025
g8
S'word: doing, index: 15'
p2026
sbatp2027
Rp2028
(dp2029
g8
Vccomp
p2030
sbag0
(g1
g2
(lp2031
g0
(g1
g2
(lp2032
g0
(g1
g2
(lp2033
(lp2034
S'word: he, index: 30'
p2035
aatp2036
Rp2037
(dp2038
g8
Vnsubj
p2039
sbag0
(g1
g2
(lp2040
(lp2041
S"word: 's, index: 31"
p2042
aatp2043
Rp2044
(dp2045
g8
Vaux
p2046
sbag0
(g1
g2
(lp2047
(lp2048
S'word: up, index: 33'
p2049
aatp2050
Rp2051
(dp2052
g8
Vprt
p2053
sbatp2054
Rp2055
(dp2056
g8
S'word: rising, index: 32'
p2057
sbatp2058
Rp2059
(dp2060
g8
Vconj
p2061
sbatp2062
Rp2063
(dp2064
g8
S"word: 's, index: 11"
p2065
sbatp2066
Rp2067
(dp2068
g8
Vconj
p2069
sbag0
(g1
g2
(lp2070
g2055
atp2071
Rp2072
(dp2073
g8
Vconj
p2074
sbag0
(g1
g2
(lp2075
g0
(g1
g2
(lp2076
g0
(g1
g2
(lp2077
(lp2078
S'word: The, index: 1'
p2079
aatp2080
Rp2081
(dp2082
g8
Vdet
p2083
sbatp2084
Rp2085
(dp2086
g8
S'word: lion, index: 2'
p2087
sbatp2088
Rp2089
(dp2090
g8
Vnsubj
p2091
sbatp2092
Rp2093
(dp2094
g8
S'word: is, index: 3'
p2095
sbatp2096
Rp2097
(dp2098
g8
S'id: 17'
p2099
sbag0
(g1
g2
(lp2100
g0
(g1
g2
(lp2101
g0
(g1
g2
(lp2102
(lp2103
S'word: like, index: 2'
p2104
aatp2105
Rp2106
(dp2107
g8
Vprep
p2108
sbatp2109
Rp2110
(dp2111
g8
S'word: Look, index: 1'
p2112
sbatp2113
Rp2114
(dp2115
g8
S'id: 18'
p2116
sbatp2117
Rp2118
(dp2119
g8
S'sentences'
p2120
sb.