ccopy_reg
_reconstructor
p0
(cnltk.tree
Tree
p1
c__builtin__
list
p2
(lp3
g0
(g1
g2
(lp4
g0
(g1
g2
(lp5
g0
(g1
g2
(lp6
(lp7
S'word: Oh, index: 1'
p8
aatp9
Rp10
(dp11
S'_label'
p12
Vdiscourse
p13
sbag0
(g1
g2
(lp14
(lp15
S'word: this, index: 2'
p16
aatp17
Rp18
(dp19
g12
Vnsubj
p20
sbag0
(g1
g2
(lp21
g0
(g1
g2
(lp22
g0
(g1
g2
(lp23
(lp24
S'word: a, index: 16'
p25
aatp26
Rp27
(dp28
g12
Vdet
p29
sbag0
(g1
g2
(lp30
(lp31
S'word: lake, index: 17'
p32
aatp33
Rp34
(dp35
g12
Vnn
p36
sbag0
(g1
g2
(lp37
g0
(g1
g2
(lp38
g0
(g1
g2
(lp39
(lp40
S'word: it, index: 19'
p41
aatp42
Rp43
(dp44
g12
Vnsubj
p45
sbag0
(g1
g2
(lp46
(lp47
S'word: like, index: 21'
p48
aatp49
Rp50
(dp51
g12
Vprep
p52
sbatp53
Rp54
(dp55
g12
S'word: looks, index: 20'
p56
sbatp57
Rp58
(dp59
g12
Vrcmod
p60
sbag0
(g1
g2
(lp61
(lp62
S'word: this, index: 14'
p63
aatp64
Rp65
(dp66
g12
Vnsubj
p67
sbag0
(g1
g2
(lp68
(lp69
S'word: is, index: 15'
p70
aatp71
Rp72
(dp73
g12
Vcop
p74
sbatp75
Rp76
(dp77
g12
S'word: house, index: 18'
p78
sbatp79
Rp80
(dp81
g12
Vconj
p82
sbag0
(g1
g2
(lp83
g0
(g1
g2
(lp84
g0
(g1
g2
(lp85
(lp86
S'word: like, index: 4'
p87
aatp88
Rp89
(dp90
g12
Vmark
p91
sbag0
(g1
g2
(lp92
(lp93
S'word: this, index: 6'
p94
aatp95
Rp96
(dp97
g12
Vnsubj
p98
sbag0
(g1
g2
(lp99
(lp100
S'word: is, index: 7'
p101
aatp102
Rp103
(dp104
g12
Vcop
p105
sbag0
(g1
g2
(lp106
(lp107
S'word: not, index: 8'
p108
aatp109
Rp110
(dp111
g12
Vneg
p112
sbag0
(g1
g2
(lp113
(lp114
S'word: a, index: 9'
p115
aatp116
Rp117
(dp118
g12
Vdet
p119
sbag0
(g1
g2
(lp120
(lp121
S'word: beach, index: 10'
p122
aatp123
Rp124
(dp125
g12
Vnn
p126
sbatp127
Rp128
(dp129
g12
S'word: house, index: 11'
p130
sbatp131
Rp132
(dp133
g12
Vadvcl
p134
sbatp135
Rp136
(dp137
g12
S'word: looks, index: 3'
p138
sbatp139
Rp140
(dp141
g12
S'id: 0'
p142
sbag0
(g1
g2
(lp143
g0
(g1
g2
(lp144
g0
(g1
g2
(lp145
g0
(g1
g2
(lp146
g0
(g1
g2
(lp147
g0
(g1
g2
(lp148
g0
(g1
g2
(lp149
(lp150
S'word: probably, index: 17'
p151
aatp152
Rp153
(dp154
g12
Vadvmod
p155
sbag0
(g1
g2
(lp156
(lp157
S'word: too, index: 18'
p158
aatp159
Rp160
(dp161
g12
Vadvmod
p162
sbatp163
Rp164
(dp165
g12
S'word: litle/ob, index: 19'
p166
sbatp167
Rp168
(dp169
g12
Vamod
p170
sbag0
(g1
g2
(lp171
(lp172
S'word: little, index: 20'
p173
aatp174
Rp175
(dp176
g12
Vamod
p177
sbag0
(g1
g2
(lp178
g0
(g1
g2
(lp179
g0
(g1
g2
(lp180
(lp181
S'word: though, index: 35'
p182
aatp183
Rp184
(dp185
g12
Vmark
p186
sbag0
(g1
g2
(lp187
(lp188
S'word: it, index: 36'
p189
aatp190
Rp191
(dp192
g12
Vnsubj
p193
sbag0
(g1
g2
(lp194
g0
(g1
g2
(lp195
g0
(g1
g2
(lp196
(lp197
S'word: a, index: 38'
p198
aatp199
Rp200
(dp201
g12
Vdet
p202
sbag0
(g1
g2
(lp203
(lp204
S'word: it, index: 41'
p205
aatp206
Rp207
(dp208
g12
Vprep
p209
sbatp210
Rp211
(dp212
g12
S'word: tail, index: 39'
p213
sbatp214
Rp215
(dp216
g12
Vdobj
p217
sbag0
(g1
g2
(lp218
g0
(g1
g2
(lp219
g0
(g1
g2
(lp220
(lp221
S'word: it, index: 36'
p222
aatp223
Rp224
(dp225
g12
Vnsubj
p226
sbag0
(g1
g2
(lp227
(lp228
S'word: also, index: 44'
p229
aatp230
Rp231
(dp232
g12
Vadvmod
p233
sbag0
(g1
g2
(lp234
g0
(g1
g2
(lp235
g0
(g1
g2
(lp236
(lp237
S'word: a, index: 46'
p238
aatp239
Rp240
(dp241
g12
Vdet
p242
sbag0
(g1
g2
(lp243
g0
(g1
g2
(lp244
g0
(g1
g2
(lp245
g0
(g1
g2
(lp246
g0
(g1
g2
(lp247
(lp248
S'word: that, index: 51'
p249
aatp250
Rp251
(dp252
g12
Vmark
p253
sbag0
(g1
g2
(lp254
(lp255
S'word: he, index: 52'
p256
aatp257
Rp258
(dp259
g12
Vnsubj
p260
sbag0
(g1
g2
(lp261
(lp262
S'word: can, index: 53'
p263
aatp264
Rp265
(dp266
g12
Vaux
p267
sbag0
(g1
g2
(lp268
g0
(g1
g2
(lp269
g0
(g1
g2
(lp270
(lp271
S'word: he, index: 52'
p272
aatp273
Rp274
(dp275
g12
Vnsubj
p276
sbatp277
Rp278
(dp279
g12
S'word: keep, index: 56'
p280
sbatp281
Rp282
(dp283
g12
Vconj
p284
sbag0
(g1
g2
(lp285
g0
(g1
g2
(lp286
g0
(g1
g2
(lp287
g0
(g1
g2
(lp288
g0
(g1
g2
(lp289
(lp290
S'word: the, index: 59'
p291
aatp292
Rp293
(dp294
g12
Vdet
p295
sbag0
(g1
g2
(lp296
g0
(g1
g2
(lp297
g0
(g1
g2
(lp298
g0
(g1
g2
(lp299
g0
(g1
g2
(lp300
(lp301
S'word: the, index: 64'
p302
aatp303
Rp304
(dp305
g12
Vdet
p306
sbatp307
Rp308
(dp309
g12
S'word: sky, index: 65'
p310
sbatp311
Rp312
(dp313
g12
Vprep
p314
sbatp315
Rp316
(dp317
g12
S'word: going, index: 62'
p318
sbatp319
Rp320
(dp321
g12
Vprepc
p322
sbatp323
Rp324
(dp325
g12
S'word: kite, index: 60'
p326
sbatp327
Rp328
(dp329
g12
Vappos
p330
sbatp331
Rp332
(dp333
g12
S'word: the, index: 57'
p334
sbatp335
Rp336
(dp337
g12
Vdobj
p338
sbag0
(g1
g2
(lp339
(lp340
S'word: so, index: 50'
p341
aatp342
Rp343
(dp344
g12
Vadvmod
p345
sbatp346
Rp347
(dp348
g12
S'word: guide, index: 54'
p349
sbatp350
Rp351
(dp352
g12
Vadvcl
p353
sbag0
(g1
g2
(lp354
g278
atp355
Rp356
(dp357
g12
Vadvcl
p358
sbag0
(g1
g2
(lp359
(lp360
S'word: around, index: 49'
p361
aatp362
Rp363
(dp364
g12
Vadvmod
p365
sbatp366
Rp367
(dp368
g12
S'word: wrapped, index: 48'
p369
sbatp370
Rp371
(dp372
g12
Vrcmod
p373
sbatp374
Rp375
(dp376
g12
S'word: cord, index: 47'
p377
sbatp378
Rp379
(dp380
g12
Vdobj
p381
sbatp382
Rp383
(dp384
g12
S'word: has, index: 45'
p385
sbatp386
Rp387
(dp388
g12
Vconj
p389
sbag0
(g1
g2
(lp390
(lp391
S'word: even, index: 34'
p392
aatp393
Rp394
(dp395
g12
Vadvmod
p396
sbatp397
Rp398
(dp399
g12
S'word: has, index: 37'
p400
sbatp401
Rp402
(dp403
g12
Vadvcl
p404
sbag0
(g1
g2
(lp405
g0
(g1
g2
(lp406
g0
(g1
g2
(lp407
g0
(g1
g2
(lp408
g0
(g1
g2
(lp409
(lp410
S'word: the, index: 24'
p411
aatp412
Rp413
(dp414
g12
Vdet
p415
sbatp416
Rp417
(dp418
g12
S'word: spring, index: 25'
p419
sbatp420
Rp421
(dp422
g12
Vprep
p423
sbatp424
Rp425
(dp426
g12
S'word: late, index: 22'
p427
sbatp428
Rp429
(dp430
g12
Vamod
p431
sbag0
(g1
g2
(lp432
(lp433
S'word: even, index: 8'
p434
aatp435
Rp436
(dp437
g12
Vadvmod
p438
sbag0
(g1
g2
(lp439
(lp440
S'word: though, index: 9'
p441
aatp442
Rp443
(dp444
g12
Vmark
p445
sbag0
(g1
g2
(lp446
(lp447
S'word: it, index: 10'
p448
aatp449
Rp450
(dp451
g12
Vnsubj
p452
sbag0
(g1
g2
(lp453
(lp454
S"word: 's, index: 11"
p455
aatp456
Rp457
(dp458
g12
Vcop
p459
sbag0
(g1
g2
(lp460
g383
atp461
Rp462
(dp463
g12
Vadvcl
p464
sbag0
(g1
g2
(lp465
g0
(g1
g2
(lp466
g0
(g1
g2
(lp467
g164
atp468
Rp469
(dp470
g12
Vconj
p471
sbag0
(g1
g2
(lp472
g0
(g1
g2
(lp473
g0
(g1
g2
(lp474
(lp475
S'word: a, index: 12'
p476
aatp477
Rp478
(dp479
g12
Vdet
p480
sbatp481
Rp482
(dp483
g12
S'word: little, index: 13'
p484
sbatp485
Rp486
(dp487
g12
Vnpadvmod
p488
sbatp489
Rp490
(dp491
g12
S'word: early, index: 14'
p492
sbatp493
Rp494
(dp495
g12
Vamod
p496
sbag0
(g1
g2
(lp497
g0
(g1
g2
(lp498
g0
(g1
g2
(lp499
(lp500
S'word: for, index: 26'
p501
aatp502
Rp503
(dp504
g12
Vmark
p505
sbag0
(g1
g2
(lp506
(lp507
S'word: him, index: 27'
p508
aatp509
Rp510
(dp511
g12
Vnsubj
p512
sbag0
(g1
g2
(lp513
(lp514
S'word: to, index: 28'
p515
aatp516
Rp517
(dp518
g12
Vaux
p519
sbag0
(g1
g2
(lp520
(lp521
S'word: be, index: 29'
p522
aatp523
Rp524
(dp525
g12
Vaux
p526
sbag0
(g1
g2
(lp527
g0
(g1
g2
(lp528
g0
(g1
g2
(lp529
(lp530
S'word: a, index: 31'
p531
aatp532
Rp533
(dp534
g12
Vdet
p535
sbatp536
Rp537
(dp538
g12
S'word: kite, index: 32'
p539
sbatp540
Rp541
(dp542
g12
Vdobj
p543
sbatp544
Rp545
(dp546
g12
S'word: flying, index: 30'
p547
sbatp548
Rp549
(dp550
g12
Vadvcl
p551
sbatp552
Rp553
(dp554
g12
S'word: bit, index: 21'
p555
sbatp556
Rp557
(dp558
g12
Vadvcl
p559
sbag0
(g1
g2
(lp560
g0
(g1
g2
(lp561
g0
(g1
g2
(lp562
(lp563
S'word: the, index: 5'
p564
aatp565
Rp566
(dp567
g12
Vdet
p568
sbatp569
Rp570
(dp571
g12
S'word: summertime, index: 6'
p572
sbatp573
Rp574
(dp575
g12
Vprep
p576
sbag0
(g1
g2
(lp577
(lp578
S'word: And, index: 1'
p579
aatp580
Rp581
(dp582
g12
Vcc
p583
sbag0
(g1
g2
(lp584
(lp585
S'word: it, index: 2'
p586
aatp587
Rp588
(dp589
g12
Vnsubj
p590
sbatp591
Rp592
(dp593
g12
S"word: 's, index: 3"
p594
sbatp595
Rp596
(dp597
g12
S'id: 1'
p598
sbag0
(g1
g2
(lp599
g0
(g1
g2
(lp600
g0
(g1
g2
(lp601
g0
(g1
g2
(lp602
g0
(g1
g2
(lp603
(lp604
S'word: it, index: 40'
p605
aatp606
Rp607
(dp608
g12
Vnsubj
p609
sbag0
(g1
g2
(lp610
(lp611
S'word: for, index: 42'
p612
aatp613
Rp614
(dp615
g12
Vprep
p616
sbatp617
Rp618
(dp619
g12
S"word: 's, index: 41"
p620
sbatp621
Rp622
(dp623
g12
Vconj
p624
sbag0
(g1
g2
(lp625
g0
(g1
g2
(lp626
g0
(g1
g2
(lp627
(lp628
S'word: there, index: 10'
p629
aatp630
Rp631
(dp632
g12
Vexpl
p633
sbag0
(g1
g2
(lp634
g0
(g1
g2
(lp635
g0
(g1
g2
(lp636
(lp637
S'word: a, index: 12'
p638
aatp639
Rp640
(dp641
g12
Vdet
p642
sbatp643
Rp644
(dp645
g12
S'word: sailboat, index: 13'
p646
sbatp647
Rp648
(dp649
g12
Vnsubj
p650
sbag0
(g1
g2
(lp651
g0
(g1
g2
(lp652
g0
(g1
g2
(lp653
(lp654
S'word: there, index: 16'
p655
aatp656
Rp657
(dp658
g12
Vexpl
p659
sbag0
(g1
g2
(lp660
g0
(g1
g2
(lp661
g0
(g1
g2
(lp662
(lp663
S'word: there, index: 22'
p664
aatp665
Rp666
(dp667
g12
Vprep
p668
sbag0
(g1
g2
(lp669
g0
(g1
g2
(lp670
g0
(g1
g2
(lp671
(lp672
S'word: the, index: 24'
p673
aatp674
Rp675
(dp676
g12
Vdet
p677
sbag0
(g1
g2
(lp678
g0
(g1
g2
(lp679
g0
(g1
g2
(lp680
(lp681
S'word: four, index: 26'
p682
aatp683
Rp684
(dp685
g12
Vnumber
p686
sbag0
(g1
g2
(lp687
(lp688
S'word: zero, index: 28'
p689
aatp690
Rp691
(dp692
g12
Vdep
p693
sbatp694
Rp695
(dp696
g12
S'word: seven, index: 27'
p697
sbatp698
Rp699
(dp700
g12
Vdep
p701
sbatp702
Rp703
(dp704
g12
S'word: number, index: 25'
p705
sbatp706
Rp707
(dp708
g12
Vprep
p709
sbag0
(g1
g2
(lp710
(lp711
S'word: a, index: 18'
p712
aatp713
Rp714
(dp715
g12
Vdet
p716
sbag0
(g1
g2
(lp717
(lp718
S'word: special, index: 19'
p719
aatp720
Rp721
(dp722
g12
Vamod
p723
sbatp724
Rp725
(dp726
g12
S'word: number, index: 20'
p727
sbatp728
Rp729
(dp730
g12
Vnsubj
p731
sbatp732
Rp733
(dp734
g12
S"word: 's, index: 17"
p735
sbatp736
Rp737
(dp738
g12
Vconj
p739
sbatp740
Rp741
(dp742
g12
S"word: 's, index: 11"
p743
sbatp744
Rp745
(dp746
g12
Vconj
p747
sbag0
(g1
g2
(lp748
(lp749
S'word: There, index: 1'
p750
aatp751
Rp752
(dp753
g12
Vexpl
p754
sbag0
(g1
g2
(lp755
g733
atp756
Rp757
(dp758
g12
Vconj
p759
sbag0
(g1
g2
(lp760
g0
(g1
g2
(lp761
g0
(g1
g2
(lp762
(lp763
S'word: I, index: 30'
p764
aatp765
Rp766
(dp767
g12
Vnsubj
p768
sbag0
(g1
g2
(lp769
(lp770
S'word: do, index: 31'
p771
aatp772
Rp773
(dp774
g12
Vaux
p775
sbag0
(g1
g2
(lp776
(lp777
S"word: n't, index: 32"
p778
aatp779
Rp780
(dp781
g12
Vneg
p782
sbag0
(g1
g2
(lp783
g0
(g1
g2
(lp784
g0
(g1
g2
(lp785
(lp786
S'word: what, index: 34'
p787
aatp788
Rp789
(dp790
g12
Vprep
p791
sbag0
(g1
g2
(lp792
(lp793
S'word: it, index: 35'
p794
aatp795
Rp796
(dp797
g12
Vnsubj
p798
sbatp799
Rp800
(dp801
g12
S"word: 's, index: 36"
p802
sbatp803
Rp804
(dp805
g12
Vccomp
p806
sbatp807
Rp808
(dp809
g12
S'word: know, index: 33'
p810
sbatp811
Rp812
(dp813
g12
Vdep
p814
sbag0
(g1
g2
(lp815
g0
(g1
g2
(lp816
g0
(g1
g2
(lp817
g0
(g1
g2
(lp818
g0
(g1
g2
(lp819
(lp820
S'word: the, index: 6'
p821
aatp822
Rp823
(dp824
g12
Vdet
p825
sbatp826
Rp827
(dp828
g12
S'word: lake, index: 7'
p829
sbatp830
Rp831
(dp832
g12
Vprep
p833
sbag0
(g1
g2
(lp834
(lp835
S'word: the, index: 3'
p836
aatp837
Rp838
(dp839
g12
Vdet
p840
sbatp841
Rp842
(dp843
g12
S'word: water, index: 4'
p844
sbatp845
Rp846
(dp847
g12
Vnsubj
p848
sbatp849
Rp850
(dp851
g12
S"word: 's, index: 2"
p852
sbatp853
Rp854
(dp855
g12
S'id: 2'
p856
sbag0
(g1
g2
(lp857
g0
(g1
g2
(lp858
g0
(g1
g2
(lp859
g0
(g1
g2
(lp860
g0
(g1
g2
(lp861
g0
(g1
g2
(lp862
g0
(g1
g2
(lp863
(lp864
S'word: a, index: 26'
p865
aatp866
Rp867
(dp868
g12
Vdet
p869
sbag0
(g1
g2
(lp870
(lp871
S'word: fishing, index: 27'
p872
aatp873
Rp874
(dp875
g12
Vnn
p876
sbatp877
Rp878
(dp879
g12
S'word: pole, index: 28'
p880
sbatp881
Rp882
(dp883
g12
Vdobj
p884
sbag0
(g1
g2
(lp885
g0
(g1
g2
(lp886
g0
(g1
g2
(lp887
(lp888
S'word: it, index: 42'
p889
aatp890
Rp891
(dp892
g12
Vnsubj
p893
sbag0
(g1
g2
(lp894
(lp895
S"word: 's, index: 43"
p896
aatp897
Rp898
(dp899
g12
Vaux
p900
sbag0
(g1
g2
(lp901
g0
(g1
g2
(lp902
g0
(g1
g2
(lp903
(lp904
S'word: as, index: 45'
p905
aatp906
Rp907
(dp908
g12
Vmark
p909
sbag0
(g1
g2
(lp910
g0
(g1
g2
(lp911
g0
(g1
g2
(lp912
(lp913
S'word: the, index: 46'
p914
aatp915
Rp916
(dp917
g12
Vdet
p918
sbatp919
Rp920
(dp921
g12
S'word: fish, index: 47'
p922
sbatp923
Rp924
(dp925
g12
Vnsubj
p926
sbag0
(g1
g2
(lp927
(lp928
S'word: is, index: 48'
p929
aatp930
Rp931
(dp932
g12
Vaux
p933
sbag0
(g1
g2
(lp934
(lp935
S'word: there, index: 51'
p936
aatp937
Rp938
(dp939
g12
Vprep
p940
sbatp941
Rp942
(dp943
g12
S'word: messing, index: 49'
p944
sbatp945
Rp946
(dp947
g12
Vadvcl
p948
sbatp949
Rp950
(dp951
g12
S'word: splashing, index: 44'
p952
sbatp953
Rp954
(dp955
g12
Vconj
p956
sbag0
(g1
g2
(lp957
g0
(g1
g2
(lp958
g0
(g1
g2
(lp959
g950
atp960
Rp961
(dp962
g12
Vconj
p963
sbag0
(g1
g2
(lp964
(lp965
S'word: he, index: 31'
p966
aatp967
Rp968
(dp969
g12
Vnsubj
p970
sbag0
(g1
g2
(lp971
(lp972
S"word: 's, index: 32"
p973
aatp974
Rp975
(dp976
g12
Vaux
p977
sbag0
(g1
g2
(lp978
g0
(g1
g2
(lp979
g0
(g1
g2
(lp980
(lp981
S'word: a, index: 34'
p982
aatp983
Rp984
(dp985
g12
Vdet
p986
sbatp987
Rp988
(dp989
g12
S'word: fish, index: 35'
p990
sbatp991
Rp992
(dp993
g12
Vnpadvmod
p994
sbag0
(g1
g2
(lp995
g0
(g1
g2
(lp996
g0
(g1
g2
(lp997
(lp998
S'word: the, index: 38'
p999
aatp1000
Rp1001
(dp1002
g12
Vdet
p1003
sbatp1004
Rp1005
(dp1006
g12
S'word: lake, index: 39'
p1007
sbatp1008
Rp1009
(dp1010
g12
Vprep
p1011
sbatp1012
Rp1013
(dp1014
g12
S'word: pulling, index: 33'
p1015
sbatp1016
Rp1017
(dp1018
g12
Vconj
p1019
sbag0
(g1
g2
(lp1020
(lp1021
S'word: he, index: 23'
p1022
aatp1023
Rp1024
(dp1025
g12
Vnsubjpass
p1026
sbag0
(g1
g2
(lp1027
(lp1028
S"word: 's, index: 24"
p1029
aatp1030
Rp1031
(dp1032
g12
Vauxpass
p1033
sbatp1034
Rp1035
(dp1036
g12
S'word: got, index: 25'
p1037
sbatp1038
Rp1039
(dp1040
g12
Vconj
p1041
sbag0
(g1
g2
(lp1042
(lp1043
S'word: That, index: 1'
p1044
aatp1045
Rp1046
(dp1047
g12
Vnsubj
p1048
sbag0
(g1
g2
(lp1049
g0
(g1
g2
(lp1050
g0
(g1
g2
(lp1051
g1035
atp1052
Rp1053
(dp1054
g12
Vconj
p1055
sbag0
(g1
g2
(lp1056
(lp1057
S'word: it, index: 15'
p1058
aatp1059
Rp1060
(dp1061
g12
Vnsubj
p1062
sbag0
(g1
g2
(lp1063
(lp1064
S"word: 's, index: 16"
p1065
aatp1066
Rp1067
(dp1068
g12
Vaux
p1069
sbag0
(g1
g2
(lp1070
g1013
atp1071
Rp1072
(dp1073
g12
Vconj
p1074
sbag0
(g1
g2
(lp1075
g0
(g1
g2
(lp1076
g0
(g1
g2
(lp1077
(lp1078
S'word: the, index: 19'
p1079
aatp1080
Rp1081
(dp1082
g12
Vdet
p1083
sbatp1084
Rp1085
(dp1086
g12
S'word: water, index: 20'
p1087
sbatp1088
Rp1089
(dp1090
g12
Vprep
p1091
sbatp1092
Rp1093
(dp1094
g12
S'word: extending, index: 17'
p1095
sbatp1096
Rp1097
(dp1098
g12
Vconj
p1099
sbag0
(g1
g2
(lp1100
(lp1101
S"word: 's, index: 2"
p1102
aatp1103
Rp1104
(dp1105
g12
Vcop
p1106
sbag0
(g1
g2
(lp1107
(lp1108
S'word: a, index: 3'
p1109
aatp1110
Rp1111
(dp1112
g12
Vdet
p1113
sbag0
(g1
g2
(lp1114
g0
(g1
g2
(lp1115
g0
(g1
g2
(lp1116
g0
(g1
g2
(lp1117
g0
(g1
g2
(lp1118
(lp1119
S'word: the, index: 10'
p1120
aatp1121
Rp1122
(dp1123
g12
Vdet
p1124
sbag0
(g1
g2
(lp1125
(lp1126
S'word: and, index: 12'
p1127
aatp1128
Rp1129
(dp1130
g12
Vcc
p1131
sbatp1132
Rp1133
(dp1134
g12
S'word: dock, index: 11'
p1135
sbatp1136
Rp1137
(dp1138
g12
Vprep
p1139
sbag0
(g1
g2
(lp1140
(lp1141
S'word: that, index: 6'
p1142
aatp1143
Rp1144
(dp1145
g12
Vnsubj
p1146
sbag0
(g1
g2
(lp1147
(lp1148
S"word: 's, index: 7"
p1149
aatp1150
Rp1151
(dp1152
g12
Vcop
p1153
sbatp1154
Rp1155
(dp1156
g12
S'word: there, index: 8'
p1157
sbatp1158
Rp1159
(dp1160
g12
Vrcmod
p1161
sbatp1162
Rp1163
(dp1164
g12
S'word: guy, index: 4'
p1165
sbatp1166
Rp1167
(dp1168
g12
S'id: 3'
p1169
sbag0
(g1
g2
(lp1170
g0
(g1
g2
(lp1171
g0
(g1
g2
(lp1172
g0
(g1
g2
(lp1173
g0
(g1
g2
(lp1174
(lp1175
S'word: cut, index: 28'
p1176
aatp1177
Rp1178
(dp1179
g12
Vnn
p1180
sbag0
(g1
g2
(lp1181
(lp1182
S'word: a, index: 25'
p1183
aatp1184
Rp1185
(dp1186
g12
Vdet
p1187
sbag0
(g1
g2
(lp1188
g0
(g1
g2
(lp1189
g0
(g1
g2
(lp1190
(lp1191
S'word: nice, index: 26'
p1192
aatp1193
Rp1194
(dp1195
g12
Vamod
p1196
sbatp1197
Rp1198
(dp1199
g12
S'word: clean, index: 27'
p1200
sbatp1201
Rp1202
(dp1203
g12
Vamod
p1204
sbatp1205
Rp1206
(dp1207
g12
S'word: house, index: 29'
p1208
sbatp1209
Rp1210
(dp1211
g12
Vdobj
p1212
sbag0
(g1
g2
(lp1213
g0
(g1
g2
(lp1214
g0
(g1
g2
(lp1215
(lp1216
S'word: a, index: 44'
p1217
aatp1218
Rp1219
(dp1220
g12
Vdet
p1221
sbag0
(g1
g2
(lp1222
(lp1223
S'word: single, index: 45'
p1224
aatp1225
Rp1226
(dp1227
g12
Vamod
p1228
sbag0
(g1
g2
(lp1229
(lp1230
S'word: car, index: 46'
p1231
aatp1232
Rp1233
(dp1234
g12
Vnn
p1235
sbag0
(g1
g2
(lp1236
(lp1237
S'word: although, index: 40'
p1238
aatp1239
Rp1240
(dp1241
g12
Vmark
p1242
sbag0
(g1
g2
(lp1243
(lp1244
S'word: it, index: 41'
p1245
aatp1246
Rp1247
(dp1248
g12
Vnsubj
p1249
sbag0
(g1
g2
(lp1250
(lp1251
S"word: 's, index: 42"
p1252
aatp1253
Rp1254
(dp1255
g12
Vcop
p1256
sbag0
(g1
g2
(lp1257
(lp1258
S'word: only, index: 43'
p1259
aatp1260
Rp1261
(dp1262
g12
Vadvmod
p1263
sbatp1264
Rp1265
(dp1266
g12
S'word: garage, index: 47'
p1267
sbatp1268
Rp1269
(dp1270
g12
Vadvcl
p1271
sbag0
(g1
g2
(lp1272
(lp1273
S'word: I, index: 1'
p1274
aatp1275
Rp1276
(dp1277
g12
Vnsubj
p1278
sbag0
(g1
g2
(lp1279
g0
(g1
g2
(lp1280
g0
(g1
g2
(lp1281
(lp1282
S'word: a, index: 32'
p1283
aatp1284
Rp1285
(dp1286
g12
Vdet
p1287
sbag0
(g1
g2
(lp1288
(lp1289
S'word: nice, index: 33'
p1290
aatp1291
Rp1292
(dp1293
g12
Vamod
p1294
sbag0
(g1
g2
(lp1295
g0
(g1
g2
(lp1296
g0
(g1
g2
(lp1297
g0
(g1
g2
(lp1298
g0
(g1
g2
(lp1299
(lp1300
S'word: the, index: 37'
p1301
aatp1302
Rp1303
(dp1304
g12
Vdet
p1305
sbatp1306
Rp1307
(dp1308
g12
S'word: garage, index: 38'
p1309
sbatp1310
Rp1311
(dp1312
g12
Vprep
p1313
sbatp1314
Rp1315
(dp1316
g12
S'word: parked, index: 35'
p1317
sbatp1318
Rp1319
(dp1320
g12
Vvmod
p1321
sbatp1322
Rp1323
(dp1324
g12
S'word: car, index: 34'
p1325
sbatp1326
Rp1327
(dp1328
g12
Vdobj
p1329
sbag0
(g1
g2
(lp1330
g0
(g1
g2
(lp1331
g0
(g1
g2
(lp1332
g1206
atp1333
Rp1334
(dp1335
g12
Vconj
p1336
sbag0
(g1
g2
(lp1337
g0
(g1
g2
(lp1338
g0
(g1
g2
(lp1339
(lp1340
S'word: the, index: 13'
p1341
aatp1342
Rp1343
(dp1344
g12
Vdet
p1345
sbag0
(g1
g2
(lp1346
(lp1347
S'word: big, index: 14'
p1348
aatp1349
Rp1350
(dp1351
g12
Vamod
p1352
sbag0
(g1
g2
(lp1353
g0
(g1
g2
(lp1354
g0
(g1
g2
(lp1355
(lp1356
S'word: there, index: 17'
p1357
aatp1358
Rp1359
(dp1360
g12
Vpobj
p1361
sbatp1362
Rp1363
(dp1364
g12
S'word: out, index: 16'
p1365
sbatp1366
Rp1367
(dp1368
g12
Vprep
p1369
sbag0
(g1
g2
(lp1370
g0
(g1
g2
(lp1371
g0
(g1
g2
(lp1372
(lp1373
S'word: nice, index: 20'
p1374
aatp1375
Rp1376
(dp1377
g12
Vamod
p1378
sbag0
(g1
g2
(lp1379
(lp1380
S'word: everything, index: 23'
p1381
aatp1382
Rp1383
(dp1384
g12
Vconj
p1385
sbatp1386
Rp1387
(dp1388
g12
S'word: bushes, index: 21'
p1389
sbatp1390
Rp1391
(dp1392
g12
Vconj
p1393
sbag0
(g1
g2
(lp1394
(lp1395
S'word: everything, index: 23'
p1396
aatp1397
Rp1398
(dp1399
g12
Vconj
p1400
sbatp1401
Rp1402
(dp1403
g12
S'word: tree, index: 15'
p1404
sbatp1405
Rp1406
(dp1407
g12
Vprep
p1408
sbag0
(g1
g2
(lp1409
g1323
atp1410
Rp1411
(dp1412
g12
Vconj
p1413
sbag0
(g1
g2
(lp1414
(lp1415
S'word: the, index: 3'
p1416
aatp1417
Rp1418
(dp1419
g12
Vdet
p1420
sbag0
(g1
g2
(lp1421
(lp1422
S'word: pretty, index: 4'
p1423
aatp1424
Rp1425
(dp1426
g12
Vamod
p1427
sbag0
(g1
g2
(lp1428
g1387
atp1429
Rp1430
(dp1431
g12
Vprep
p1432
sbag0
(g1
g2
(lp1433
g0
(g1
g2
(lp1434
g0
(g1
g2
(lp1435
g0
(g1
g2
(lp1436
g0
(g1
g2
(lp1437
(lp1438
S'word: the, index: 7'
p1439
aatp1440
Rp1441
(dp1442
g12
Vdet
p1443
sbag0
(g1
g2
(lp1444
(lp1445
S'word: the, index: 10'
p1446
aatp1447
Rp1448
(dp1449
g12
Vdep
p1450
sbatp1451
Rp1452
(dp1453
g12
S'word: on, index: 9'
p1454
sbatp1455
Rp1456
(dp1457
g12
Vpobj
p1458
sbatp1459
Rp1460
(dp1461
g12
S'word: on, index: 6'
p1462
sbatp1463
Rp1464
(dp1465
g12
Vprep
p1466
sbatp1467
Rp1468
(dp1469
g12
S'word: leaves, index: 5'
p1470
sbatp1471
Rp1472
(dp1473
g12
Vdobj
p1474
sbatp1475
Rp1476
(dp1477
g12
S'word: see, index: 2'
p1478
sbatp1479
Rp1480
(dp1481
g12
S'id: 4'
p1482
sbag0
(g1
g2
(lp1483
g0
(g1
g2
(lp1484
g0
(g1
g2
(lp1485
(lp1486
S'word: I, index: 1'
p1487
aatp1488
Rp1489
(dp1490
g12
Vnsubj
p1491
sbag0
(g1
g2
(lp1492
g0
(g1
g2
(lp1493
g0
(g1
g2
(lp1494
(lp1495
S'word: might, index: 15'
p1496
aatp1497
Rp1498
(dp1499
g12
Vaux
p1500
sbag0
(g1
g2
(lp1501
(lp1502
S'word: be, index: 16'
p1503
aatp1504
Rp1505
(dp1506
g12
Vcop
p1507
sbag0
(g1
g2
(lp1508
(lp1509
S'word: special, index: 18'
p1510
aatp1511
Rp1512
(dp1513
g12
Vamod
p1514
sbag0
(g1
g2
(lp1515
(lp1516
S'word: that, index: 19'
p1517
aatp1518
Rp1519
(dp1520
g12
Vrcmod
p1521
sbag0
(g1
g2
(lp1522
(lp1523
S'word: what, index: 5'
p1524
aatp1525
Rp1526
(dp1527
g12
Vnsubj
p1528
sbag0
(g1
g2
(lp1529
g0
(g1
g2
(lp1530
g0
(g1
g2
(lp1531
(lp1532
S'word: that, index: 21'
p1533
aatp1534
Rp1535
(dp1536
g12
Vmark
p1537
sbag0
(g1
g2
(lp1538
(lp1539
S'word: they, index: 22'
p1540
aatp1541
Rp1542
(dp1543
g12
Vnsubj
p1544
sbatp1545
Rp1546
(dp1547
g12
S'word: call, index: 23'
p1548
sbatp1549
Rp1550
(dp1551
g12
Vccomp
p1552
sbag0
(g1
g2
(lp1553
g0
(g1
g2
(lp1554
g0
(g1
g2
(lp1555
g0
(g1
g2
(lp1556
g0
(g1
g2
(lp1557
(lp1558
S'word: where, index: 28'
p1559
aatp1560
Rp1561
(dp1562
g12
Vadvmod
p1563
sbag0
(g1
g2
(lp1564
(lp1565
S'word: they, index: 29'
p1566
aatp1567
Rp1568
(dp1569
g12
Vnsubj
p1570
sbatp1571
Rp1572
(dp1573
g12
S'word: live, index: 30'
p1574
sbatp1575
Rp1576
(dp1577
g12
Vprepc
p1578
sbatp1579
Rp1580
(dp1581
g12
S'word: its, index: 26'
p1582
sbatp1583
Rp1584
(dp1585
g12
Vconj
p1586
sbag0
(g1
g2
(lp1587
g0
(g1
g2
(lp1588
g0
(g1
g2
(lp1589
(lp1590
S'word: that, index: 6'
p1591
aatp1592
Rp1593
(dp1594
g12
Vmark
p1595
sbag0
(g1
g2
(lp1596
(lp1597
S'word: that, index: 8'
p1598
aatp1599
Rp1600
(dp1601
g12
Vnsubj
p1602
sbag0
(g1
g2
(lp1603
(lp1604
S"word: 's, index: 9"
p1605
aatp1606
Rp1607
(dp1608
g12
Vcop
p1609
sbag0
(g1
g2
(lp1610
(lp1611
S'word: a, index: 10'
p1612
aatp1613
Rp1614
(dp1615
g12
Vdet
p1616
sbag0
(g1
g2
(lp1617
g0
(g1
g2
(lp1618
g0
(g1
g2
(lp1619
(lp1620
S'word: it, index: 12'
p1621
aatp1622
Rp1623
(dp1624
g12
Vnsubj
p1625
sbatp1626
Rp1627
(dp1628
g12
S'word: might, index: 13'
p1629
sbatp1630
Rp1631
(dp1632
g12
Vrcmod
p1633
sbatp1634
Rp1635
(dp1636
g12
S'word: flag, index: 11'
p1637
sbatp1638
Rp1639
(dp1640
g12
Vccomp
p1641
sbatp1642
Rp1643
(dp1644
g12
S'word: something, index: 17'
p1645
sbatp1646
Rp1647
(dp1648
g12
Vccomp
p1649
sbag0
(g1
g2
(lp1650
(lp1651
S'word: do, index: 2'
p1652
aatp1653
Rp1654
(dp1655
g12
Vaux
p1656
sbag0
(g1
g2
(lp1657
(lp1658
S"word: n't, index: 3"
p1659
aatp1660
Rp1661
(dp1662
g12
Vneg
p1663
sbag0
(g1
g2
(lp1664
g1580
atp1665
Rp1666
(dp1667
g12
Vccomp
p1668
sbatp1669
Rp1670
(dp1671
g12
S'word: know, index: 4'
p1672
sbatp1673
Rp1674
(dp1675
g12
S'id: 5'
p1676
sbag0
(g1
g2
(lp1677
g0
(g1
g2
(lp1678
g0
(g1
g2
(lp1679
g0
(g1
g2
(lp1680
g0
(g1
g2
(lp1681
(lp1682
S'word: like, index: 3'
p1683
aatp1684
Rp1685
(dp1686
g12
Vmark
p1687
sbag0
(g1
g2
(lp1688
g0
(g1
g2
(lp1689
g0
(g1
g2
(lp1690
(lp1691
S'word: daddy, index: 6'
p1692
aatp1693
Rp1694
(dp1695
g12
Vconj
p1696
sbatp1697
Rp1698
(dp1699
g12
S'word: mommy, index: 4'
p1700
sbatp1701
Rp1702
(dp1703
g12
Vnsubj
p1704
sbag0
(g1
g2
(lp1705
(lp1706
S'word: daddy, index: 6'
p1707
aatp1708
Rp1709
(dp1710
g12
Vnsubj
p1711
sbag0
(g1
g2
(lp1712
(lp1713
S'word: are, index: 7'
p1714
aatp1715
Rp1716
(dp1717
g12
Vaux
p1718
sbag0
(g1
g2
(lp1719
(lp1720
S'word: there, index: 9'
p1721
aatp1722
Rp1723
(dp1724
g12
Vadvmod
p1725
sbag0
(g1
g2
(lp1726
g0
(g1
g2
(lp1727
g0
(g1
g2
(lp1728
g0
(g1
g2
(lp1729
g0
(g1
g2
(lp1730
(lp1731
S'word: a, index: 11'
p1732
aatp1733
Rp1734
(dp1735
g12
Vdet
p1736
sbag0
(g1
g2
(lp1737
(lp1738
S'word: tuh, index: 12'
p1739
aatp1740
Rp1741
(dp1742
g12
Vnn
p1743
sbatp1744
Rp1745
(dp1746
g12
S'word: picnic, index: 13'
p1747
sbatp1748
Rp1749
(dp1750
g12
Vdobj
p1751
sbatp1752
Rp1753
(dp1754
g12
S'word: doing, index: 10'
p1755
sbatp1756
Rp1757
(dp1758
g12
Vvmod
p1759
sbatp1760
Rp1761
(dp1762
g12
S'word: sitting, index: 8'
p1763
sbatp1764
Rp1765
(dp1766
g12
Vadvcl
p1767
sbag0
(g1
g2
(lp1768
g0
(g1
g2
(lp1769
g0
(g1
g2
(lp1770
(lp1771
S'word: there, index: 23'
p1772
aatp1773
Rp1774
(dp1775
g12
Vexpl
p1776
sbag0
(g1
g2
(lp1777
g0
(g1
g2
(lp1778
g0
(g1
g2
(lp1779
(lp1780
S'word: a, index: 25'
p1781
aatp1782
Rp1783
(dp1784
g12
Vdet
p1785
sbag0
(g1
g2
(lp1786
(lp1787
S'word: transistor, index: 26'
p1788
aatp1789
Rp1790
(dp1791
g12
Vnn
p1792
sbag0
(g1
g2
(lp1793
(lp1794
S'word: type, index: 27'
p1795
aatp1796
Rp1797
(dp1798
g12
Vnn
p1799
sbag0
(g1
g2
(lp1800
g0
(g1
g2
(lp1801
g0
(g1
g2
(lp1802
g0
(g1
g2
(lp1803
g0
(g1
g2
(lp1804
(lp1805
S'word: I, index: 34'
p1806
aatp1807
Rp1808
(dp1809
g12
Vnsubj
p1810
sbag0
(g1
g2
(lp1811
g0
(g1
g2
(lp1812
g0
(g1
g2
(lp1813
(lp1814
S'word: they, index: 36'
p1815
aatp1816
Rp1817
(dp1818
g12
Vnsubj
p1819
sbag0
(g1
g2
(lp1820
(lp1821
S'word: it, index: 38'
p1822
aatp1823
Rp1824
(dp1825
g12
Vdobj
p1826
sbatp1827
Rp1828
(dp1829
g12
S'word: call, index: 37'
p1830
sbatp1831
Rp1832
(dp1833
g12
Vccomp
p1834
sbatp1835
Rp1836
(dp1837
g12
S'word: guess, index: 35'
p1838
sbatp1839
Rp1840
(dp1841
g12
Vrcmod
p1842
sbag0
(g1
g2
(lp1843
(lp1844
S'word: a, index: 31'
p1845
aatp1846
Rp1847
(dp1848
g12
Vdet
p1849
sbag0
(g1
g2
(lp1850
(lp1851
S'word: boom, index: 32'
p1852
aatp1853
Rp1854
(dp1855
g12
Vnn
p1856
sbatp1857
Rp1858
(dp1859
g12
S'word: box, index: 33'
p1860
sbatp1861
Rp1862
(dp1863
g12
Vconj
p1864
sbatp1865
Rp1866
(dp1867
g12
S'word: radio, index: 28'
p1868
sbatp1869
Rp1870
(dp1871
g12
Vnsubj
p1872
sbag0
(g1
g2
(lp1873
g1858
atp1874
Rp1875
(dp1876
g12
Vnsubj
p1877
sbatp1878
Rp1879
(dp1880
g12
S"word: 's, index: 24"
p1881
sbatp1882
Rp1883
(dp1884
g12
Vconj
p1885
sbag0
(g1
g2
(lp1886
(lp1887
S'word: It, index: 1'
p1888
aatp1889
Rp1890
(dp1891
g12
Vnsubj
p1892
sbag0
(g1
g2
(lp1893
g0
(g1
g2
(lp1894
g0
(g1
g2
(lp1895
g0
(g1
g2
(lp1896
g0
(g1
g2
(lp1897
(lp1898
S'word: their, index: 18'
p1899
aatp1900
Rp1901
(dp1902
g12
Vposs
p1903
sbatp1904
Rp1905
(dp1906
g12
S'word: sandals, index: 19'
p1907
sbatp1908
Rp1909
(dp1910
g12
Vdobj
p1911
sbag0
(g1
g2
(lp1912
(lp1913
S'word: on, index: 20'
p1914
aatp1915
Rp1916
(dp1917
g12
Vprep
p1918
sbag0
(g1
g2
(lp1919
(lp1920
S'word: they, index: 15'
p1921
aatp1922
Rp1923
(dp1924
g12
Vnsubj
p1925
sbag0
(g1
g2
(lp1926
(lp1927
S'word: both, index: 16'
p1928
aatp1929
Rp1930
(dp1931
g12
Vadvmod
p1932
sbatp1933
Rp1934
(dp1935
g12
S'word: have, index: 17'
p1936
sbatp1937
Rp1938
(dp1939
g12
Vccomp
p1940
sbatp1941
Rp1942
(dp1943
g12
S'word: looks, index: 2'
p1944
sbatp1945
Rp1946
(dp1947
g12
S'id: 6'
p1948
sbag0
(g1
g2
(lp1949
g0
(g1
g2
(lp1950
g0
(g1
g2
(lp1951
g0
(g1
g2
(lp1952
g0
(g1
g2
(lp1953
(lp1954
S'word: if, index: 6'
p1955
aatp1956
Rp1957
(dp1958
g12
Vmark
p1959
sbag0
(g1
g2
(lp1960
(lp1961
S'word: that, index: 7'
p1962
aatp1963
Rp1964
(dp1965
g12
Vnsubj
p1966
sbag0
(g1
g2
(lp1967
(lp1968
S"word: 's, index: 8"
p1969
aatp1970
Rp1971
(dp1972
g12
Vcop
p1973
sbag0
(g1
g2
(lp1974
(lp1975
S'word: ginger, index: 9'
p1976
aatp1977
Rp1978
(dp1979
g12
Vnn
p1980
sbag0
(g1
g2
(lp1981
(lp1982
S'word: beer, index: 12'
p1983
aatp1984
Rp1985
(dp1986
g12
Vconj
p1987
sbag0
(g1
g2
(lp1988
(lp1989
S'word: probably, index: 14'
p1990
aatp1991
Rp1992
(dp1993
g12
Vadvmod
p1994
sbag0
(g1
g2
(lp1995
(lp1996
S'word: beer, index: 15'
p1997
aatp1998
Rp1999
(dp2000
g12
Vdep
p2001
sbatp2002
Rp2003
(dp2004
g12
S'word: ale, index: 10'
p2005
sbatp2006
Rp2007
(dp2008
g12
Vadvcl
p2009
sbag0
(g1
g2
(lp2010
(lp2011
S'word: beer, index: 12'
p2012
aatp2013
Rp2014
(dp2015
g12
Vadvcl
p2016
sbag0
(g1
g2
(lp2017
(lp2018
S'word: And, index: 1'
p2019
aatp2020
Rp2021
(dp2022
g12
Vcc
p2023
sbag0
(g1
g2
(lp2024
(lp2025
S'word: I, index: 2'
p2026
aatp2027
Rp2028
(dp2029
g12
Vnsubj
p2030
sbag0
(g1
g2
(lp2031
(lp2032
S'word: do, index: 3'
p2033
aatp2034
Rp2035
(dp2036
g12
Vaux
p2037
sbag0
(g1
g2
(lp2038
(lp2039
S"word: n't, index: 4"
p2040
aatp2041
Rp2042
(dp2043
g12
Vneg
p2044
sbatp2045
Rp2046
(dp2047
g12
S'word: know, index: 5'
p2048
sbatp2049
Rp2050
(dp2051
g12
S'id: 7'
p2052
sbag0
(g1
g2
(lp2053
g0
(g1
g2
(lp2054
g0
(g1
g2
(lp2055
(lp2056
S'word: And, index: 1'
p2057
aatp2058
Rp2059
(dp2060
g12
Vcc
p2061
sbag0
(g1
g2
(lp2062
g0
(g1
g2
(lp2063
g0
(g1
g2
(lp2064
(lp2065
S'word: on, index: 8'
p2066
aatp2067
Rp2068
(dp2069
g12
Vprep
p2070
sbag0
(g1
g2
(lp2071
g0
(g1
g2
(lp2072
g0
(g1
g2
(lp2073
(lp2074
S'word: their, index: 5'
p2075
aatp2076
Rp2077
(dp2078
g12
Vposs
p2079
sbag0
(g1
g2
(lp2080
(lp2081
S'word: leisure, index: 6'
p2082
aatp2083
Rp2084
(dp2085
g12
Vnn
p2086
sbatp2087
Rp2088
(dp2089
g12
S'word: clothes, index: 7'
p2090
sbatp2091
Rp2092
(dp2093
g12
Vdobj
p2094
sbatp2095
Rp2096
(dp2097
g12
S'word: got, index: 4'
p2098
sbatp2099
Rp2100
(dp2101
g12
Vrcmod
p2102
sbatp2103
Rp2104
(dp2105
g12
S'word: their, index: 2'
p2106
sbatp2107
Rp2108
(dp2109
g12
S'id: 8'
p2110
sbag0
(g1
g2
(lp2111
g0
(g1
g2
(lp2112
g0
(g1
g2
(lp2113
(lp2114
S'word: He, index: 1'
p2115
aatp2116
Rp2117
(dp2118
g12
Vnsubj
p2119
sbag0
(g1
g2
(lp2120
(lp2121
S"word: 's, index: 2"
p2122
aatp2123
Rp2124
(dp2125
g12
Vaux
p2126
sbag0
(g1
g2
(lp2127
g0
(g1
g2
(lp2128
g0
(g1
g2
(lp2129
(lp2130
S'word: a, index: 4'
p2131
aatp2132
Rp2133
(dp2134
g12
Vdet
p2135
sbatp2136
Rp2137
(dp2138
g12
S'word: book, index: 5'
p2139
sbatp2140
Rp2141
(dp2142
g12
Vdobj
p2143
sbatp2144
Rp2145
(dp2146
g12
S'word: reading, index: 3'
p2147
sbatp2148
Rp2149
(dp2150
g12
S'id: 9'
p2151
sbag0
(g1
g2
(lp2152
g0
(g1
g2
(lp2153
g0
(g1
g2
(lp2154
(lp2155
S'word: That, index: 1'
p2156
aatp2157
Rp2158
(dp2159
g12
Vnsubj
p2160
sbag0
(g1
g2
(lp2161
(lp2162
S"word: 's, index: 2"
p2163
aatp2164
Rp2165
(dp2166
g12
Vcop
p2167
sbag0
(g1
g2
(lp2168
(lp2169
S'word: the, index: 3'
p2170
aatp2171
Rp2172
(dp2173
g12
Vdet
p2174
sbag0
(g1
g2
(lp2175
(lp2176
S'word: picnic, index: 4'
p2177
aatp2178
Rp2179
(dp2180
g12
Vnn
p2181
sbag0
(g1
g2
(lp2182
g0
(g1
g2
(lp2183
g0
(g1
g2
(lp2184
g0
(g1
g2
(lp2185
g0
(g1
g2
(lp2186
(lp2187
S'word: hot, index: 14'
p2188
aatp2189
Rp2190
(dp2191
g12
Vamod
p2192
sbag0
(g1
g2
(lp2193
(lp2194
S'word: hamburgers, index: 17'
p2195
aatp2196
Rp2197
(dp2198
g12
Vconj
p2199
sbatp2200
Rp2201
(dp2202
g12
S'word: dogs, index: 15'
p2203
sbatp2204
Rp2205
(dp2206
g12
Vprep
p2207
sbag0
(g1
g2
(lp2208
(lp2209
S'word: it, index: 8'
p2210
aatp2211
Rp2212
(dp2213
g12
Vnsubj
p2214
sbag0
(g1
g2
(lp2215
(lp2216
S"word: 's, index: 9"
p2217
aatp2218
Rp2219
(dp2220
g12
Vcop
p2221
sbag0
(g1
g2
(lp2222
g0
(g1
g2
(lp2223
g0
(g1
g2
(lp2224
g2201
atp2225
Rp2226
(dp2227
g12
Vconj
p2228
sbag0
(g1
g2
(lp2229
(lp2230
S'word: hamburgers, index: 17'
p2231
aatp2232
Rp2233
(dp2234
g12
Vconj
p2235
sbatp2236
Rp2237
(dp2238
g12
S'word: sandwiches, index: 12'
p2239
sbatp2240
Rp2241
(dp2242
g12
Vprep
p2243
sbatp2244
Rp2245
(dp2246
g12
S'word: full, index: 10'
p2247
sbatp2248
Rp2249
(dp2250
g12
Vconj
p2251
sbatp2252
Rp2253
(dp2254
g12
S'word: basket, index: 5'
p2255
sbatp2256
Rp2257
(dp2258
g12
S'id: 10'
p2259
sbag0
(g1
g2
(lp2260
g0
(g1
g2
(lp2261
g0
(g1
g2
(lp2262
(lp2263
S'word: I, index: 1'
p2264
aatp2265
Rp2266
(dp2267
g12
Vnsubj
p2268
sbag0
(g1
g2
(lp2269
g0
(g1
g2
(lp2270
g0
(g1
g2
(lp2271
(lp2272
S'word: I, index: 3'
p2273
aatp2274
Rp2275
(dp2276
g12
Vnsubj
p2277
sbag0
(g1
g2
(lp2278
(lp2279
S"word: 've, index: 4"
p2280
aatp2281
Rp2282
(dp2283
g12
Vaux
p2284
sbag0
(g1
g2
(lp2285
(lp2286
S'word: never, index: 5'
p2287
aatp2288
Rp2289
(dp2290
g12
Vneg
p2291
sbag0
(g1
g2
(lp2292
g0
(g1
g2
(lp2293
g0
(g1
g2
(lp2294
(lp2295
S'word: so, index: 7'
p2296
aatp2297
Rp2298
(dp2299
g12
Vadvmod
p2300
sbatp2301
Rp2302
(dp2303
g12
S'word: many, index: 8'
p2304
sbatp2305
Rp2306
(dp2307
g12
Vacomp
p2308
sbag0
(g1
g2
(lp2309
g0
(g1
g2
(lp2310
g0
(g1
g2
(lp2311
(lp2312
S'word: my, index: 10'
p2313
aatp2314
Rp2315
(dp2316
g12
Vposs
p2317
sbatp2318
Rp2319
(dp2320
g12
S'word: life, index: 11'
p2321
sbatp2322
Rp2323
(dp2324
g12
Vprep
p2325
sbatp2326
Rp2327
(dp2328
g12
S'word: seen, index: 6'
p2329
sbatp2330
Rp2331
(dp2332
g12
Vccomp
p2333
sbatp2334
Rp2335
(dp2336
g12
S'word: mean, index: 2'
p2337
sbatp2338
Rp2339
(dp2340
g12
S'id: 11'
p2341
sbag0
(g1
g2
(lp2342
g0
(g1
g2
(lp2343
g0
(g1
g2
(lp2344
g0
(g1
g2
(lp2345
g0
(g1
g2
(lp2346
(lp2347
S'word: the, index: 4'
p2348
aatp2349
Rp2350
(dp2351
g12
Vdet
p2352
sbatp2353
Rp2354
(dp2355
g12
S'word: doggie, index: 5'
p2356
sbatp2357
Rp2358
(dp2359
g12
Vnsubj
p2360
sbag0
(g1
g2
(lp2361
g0
(g1
g2
(lp2362
g0
(g1
g2
(lp2363
g0
(g1
g2
(lp2364
g0
(g1
g2
(lp2365
(lp2366
S'word: his, index: 8'
p2367
aatp2368
Rp2369
(dp2370
g12
Vposs
p2371
sbatp2372
Rp2373
(dp2374
g12
S'word: name, index: 9'
p2375
sbatp2376
Rp2377
(dp2378
g12
Vnsubj
p2379
sbag0
(g1
g2
(lp2380
(lp2381
S'word: is, index: 10'
p2382
aatp2383
Rp2384
(dp2385
g12
Vcop
p2386
sbag0
(g1
g2
(lp2387
(lp2388
S'word: obviously, index: 11'
p2389
aatp2390
Rp2391
(dp2392
g12
Vadvmod
p2393
sbatp2394
Rp2395
(dp2396
g12
S'word: Bowzer, index: 12'
p2397
sbatp2398
Rp2399
(dp2400
g12
Vconj
p2401
sbag0
(g1
g2
(lp2402
g0
(g1
g2
(lp2403
g0
(g1
g2
(lp2404
(lp2405
S'word: he, index: 15'
p2406
aatp2407
Rp2408
(dp2409
g12
Vnsubj
p2410
sbag0
(g1
g2
(lp2411
g0
(g1
g2
(lp2412
g0
(g1
g2
(lp2413
(lp2414
S'word: on, index: 20'
p2415
aatp2416
Rp2417
(dp2418
g12
Vprep
p2419
sbag0
(g1
g2
(lp2420
g0
(g1
g2
(lp2421
g0
(g1
g2
(lp2422
(lp2423
S'word: which, index: 22'
p2424
aatp2425
Rp2426
(dp2427
g12
Vnsubj
p2428
sbag0
(g1
g2
(lp2429
g0
(g1
g2
(lp2430
g0
(g1
g2
(lp2431
(lp2432
S'word: he, index: 24'
p2433
aatp2434
Rp2435
(dp2436
g12
Vnsubj
p2437
sbag0
(g1
g2
(lp2438
g0
(g1
g2
(lp2439
g0
(g1
g2
(lp2440
(lp2441
S'word: he, index: 27'
p2442
aatp2443
Rp2444
(dp2445
g12
Vnsubj
p2446
sbag0
(g1
g2
(lp2447
g0
(g1
g2
(lp2448
g0
(g1
g2
(lp2449
(lp2450
S'word: good, index: 30'
p2451
aatp2452
Rp2453
(dp2454
g12
Vamod
p2455
sbatp2456
Rp2457
(dp2458
g12
S'word: shape, index: 31'
p2459
sbatp2460
Rp2461
(dp2462
g12
Vprep
p2463
sbag0
(g1
g2
(lp2464
(lp2465
S'word: so, index: 32'
p2466
aatp2467
Rp2468
(dp2469
g12
Vadvmod
p2470
sbatp2471
Rp2472
(dp2473
g12
S"word: 's, index: 28"
p2474
sbatp2475
Rp2476
(dp2477
g12
Vccomp
p2478
sbatp2479
Rp2480
(dp2481
g12
S"word: 's, index: 25"
p2482
sbatp2483
Rp2484
(dp2485
g12
Vccomp
p2486
sbatp2487
Rp2488
(dp2489
g12
S'word: means, index: 23'
p2490
sbatp2491
Rp2492
(dp2493
g12
Vdep
p2494
sbag0
(g1
g2
(lp2495
g0
(g1
g2
(lp2496
g0
(g1
g2
(lp2497
(lp2498
S'word: his, index: 18'
p2499
aatp2500
Rp2501
(dp2502
g12
Vposs
p2503
sbatp2504
Rp2505
(dp2506
g12
S'word: tag, index: 19'
p2507
sbatp2508
Rp2509
(dp2510
g12
Vdobj
p2511
sbatp2512
Rp2513
(dp2514
g12
S'word: got, index: 17'
p2515
sbatp2516
Rp2517
(dp2518
g12
Vdep
p2519
sbatp2520
Rp2521
(dp2522
g12
S"word: 's, index: 16"
p2523
sbatp2524
Rp2525
(dp2526
g12
Vconj
p2527
sbag0
(g1
g2
(lp2528
(lp2529
S'word: there, index: 2'
p2530
aatp2531
Rp2532
(dp2533
g12
Vexpl
p2534
sbatp2535
Rp2536
(dp2537
g12
S"word: 's, index: 3"
p2538
sbatp2539
Rp2540
(dp2541
g12
S'id: 12'
p2542
sbatp2543
Rp2544
(dp2545
g12
S'sentences'
p2546
sb.