ccopy_reg
_reconstructor
p0
(cnltk.tree
Tree
p1
c__builtin__
list
p2
(lp3
g0
(g1
g2
(lp4
g0
(g1
g2
(lp5
g0
(g1
g2
(lp6
(lp7
S'word: ok, index: 1'
p8
aatp9
Rp10
(dp11
S'_label'
p12
Vnsubj
p13
sbag0
(g1
g2
(lp14
g0
(g1
g2
(lp15
g0
(g1
g2
(lp16
(lp17
S'word: like, index: 3'
p18
aatp19
Rp20
(dp21
g12
Vmark
p22
sbag0
(g1
g2
(lp23
(lp24
S'word: we, index: 4'
p25
aatp26
Rp27
(dp28
g12
Vnsubj
p29
sbag0
(g1
g2
(lp30
g0
(g1
g2
(lp31
g0
(g1
g2
(lp32
(lp33
S'word: a, index: 7'
p34
aatp35
Rp36
(dp37
g12
Vpobj
p38
sbatp39
Rp40
(dp41
g12
S'word: at, index: 6'
p42
sbatp43
Rp44
(dp45
g12
Vadvmod
p46
sbag0
(g1
g2
(lp47
g0
(g1
g2
(lp48
g0
(g1
g2
(lp49
(lp50
S'word: a, index: 10'
p51
aatp52
Rp53
(dp54
g12
Vdet
p55
sbatp56
Rp57
(dp58
g12
S'word: lake, index: 11'
p59
sbatp60
Rp61
(dp62
g12
Vprep
p63
sbatp64
Rp65
(dp66
g12
S"word: 're, index: 5"
p67
sbatp68
Rp69
(dp70
g12
Vadvcl
p71
sbatp72
Rp73
(dp74
g12
S'word: seem, index: 2'
p75
sbatp76
Rp77
(dp78
g12
S'id: 0'
p79
sbag0
(g1
g2
(lp80
g0
(g1
g2
(lp81
g0
(g1
g2
(lp82
g0
(g1
g2
(lp83
g0
(g1
g2
(lp84
(lp85
S'word: two, index: 6'
p86
aatp87
Rp88
(dp89
g12
Vconj
p90
sbag0
(g1
g2
(lp91
g0
(g1
g2
(lp92
g0
(g1
g2
(lp93
(lp94
S'word: five, index: 8'
p95
aatp96
Rp97
(dp98
g12
Vnum
p99
sbatp100
Rp101
(dp102
g12
S'word: people, index: 9'
p103
sbatp104
Rp105
(dp106
g12
Vconj
p107
sbag0
(g1
g2
(lp108
g0
(g1
g2
(lp109
g0
(g1
g2
(lp110
(lp111
S'word: a, index: 12'
p112
aatp113
Rp114
(dp115
g12
Vdet
p116
sbatp117
Rp118
(dp119
g12
S'word: dog, index: 13'
p120
sbatp121
Rp122
(dp123
g12
Vconj
p124
sbatp125
Rp126
(dp127
g12
S'word: one, index: 4'
p128
sbatp129
Rp130
(dp131
g12
Vprep
p132
sbag0
(g1
g2
(lp133
(lp134
S'word: two, index: 6'
p135
aatp136
Rp137
(dp138
g12
Vprep
p139
sbag0
(g1
g2
(lp140
g101
atp141
Rp142
(dp143
g12
Vprep
p144
sbag0
(g1
g2
(lp145
g118
atp146
Rp147
(dp148
g12
Vprep
p149
sbag0
(g1
g2
(lp150
(lp151
S'word: There, index: 1'
p152
aatp153
Rp154
(dp155
g12
Vexpl
p156
sbatp157
Rp158
(dp159
g12
S"word: 's, index: 2"
p160
sbatp161
Rp162
(dp163
g12
S'id: 1'
p164
sbag0
(g1
g2
(lp165
g0
(g1
g2
(lp166
g0
(g1
g2
(lp167
(lp168
S'word: There, index: 1'
p169
aatp170
Rp171
(dp172
g12
Vexpl
p173
sbag0
(g1
g2
(lp174
g0
(g1
g2
(lp175
g0
(g1
g2
(lp176
g0
(g1
g2
(lp177
g0
(g1
g2
(lp178
(lp179
S"word: 's, index: 6"
p180
aatp181
Rp182
(dp183
g12
Vaux
p184
sbag0
(g1
g2
(lp185
g0
(g1
g2
(lp186
g0
(g1
g2
(lp187
(lp188
S'word: the, index: 9'
p189
aatp190
Rp191
(dp192
g12
Vdet
p193
sbag0
(g1
g2
(lp194
g0
(g1
g2
(lp195
g0
(g1
g2
(lp196
(lp197
S'word: a, index: 12'
p198
aatp199
Rp200
(dp201
g12
Vdet
p202
sbatp203
Rp204
(dp205
g12
S'word: blanket, index: 13'
p206
sbatp207
Rp208
(dp209
g12
Vprep
p210
sbatp211
Rp212
(dp213
g12
S'word: lake, index: 10'
p214
sbatp215
Rp216
(dp217
g12
Vprep
p218
sbag0
(g1
g2
(lp219
g0
(g1
g2
(lp220
g0
(g1
g2
(lp221
(lp222
S'word: a, index: 15'
p223
aatp224
Rp225
(dp226
g12
Vdet
p227
sbag0
(g1
g2
(lp228
(lp229
S'word: picnic, index: 16'
p230
aatp231
Rp232
(dp233
g12
Vnn
p234
sbag0
(g1
g2
(lp235
g0
(g1
g2
(lp236
g0
(g1
g2
(lp237
(lp238
S'word: a, index: 19'
p239
aatp240
Rp241
(dp242
g12
Vdet
p243
sbatp244
Rp245
(dp246
g12
S'word: radio, index: 20'
p247
sbatp248
Rp249
(dp250
g12
Vconj
p251
sbatp252
Rp253
(dp254
g12
S'word: basket, index: 17'
p255
sbatp256
Rp257
(dp258
g12
Vprep
p259
sbag0
(g1
g2
(lp260
g245
atp261
Rp262
(dp263
g12
Vprep
p264
sbag0
(g1
g2
(lp265
(lp266
S'word: that, index: 5'
p267
aatp268
Rp269
(dp270
g12
Vnsubj
p271
sbatp272
Rp273
(dp274
g12
S'word: sitting, index: 7'
p275
sbatp276
Rp277
(dp278
g12
Vrcmod
p279
sbag0
(g1
g2
(lp280
(lp281
S'word: one, index: 3'
p282
aatp283
Rp284
(dp285
g12
Vnum
p286
sbatp287
Rp288
(dp289
g12
S'word: couple, index: 4'
p290
sbatp291
Rp292
(dp293
g12
Vnsubj
p294
sbatp295
Rp296
(dp297
g12
S"word: 's, index: 2"
p298
sbatp299
Rp300
(dp301
g12
S'id: 2'
p302
sbag0
(g1
g2
(lp303
g0
(g1
g2
(lp304
g0
(g1
g2
(lp305
g0
(g1
g2
(lp306
g0
(g1
g2
(lp307
(lp308
S'word: The, index: 1'
p309
aatp310
Rp311
(dp312
g12
Vdet
p313
sbatp314
Rp315
(dp316
g12
S'word: lady, index: 2'
p317
sbatp318
Rp319
(dp320
g12
Vnsubj
p321
sbag0
(g1
g2
(lp322
(lp323
S'word: is, index: 3'
p324
aatp325
Rp326
(dp327
g12
Vcop
p328
sbag0
(g1
g2
(lp329
g0
(g1
g2
(lp330
g0
(g1
g2
(lp331
g0
(g1
g2
(lp332
g0
(g1
g2
(lp333
(lp334
S'word: a, index: 11'
p335
aatp336
Rp337
(dp338
g12
Vdet
p339
sbatp340
Rp341
(dp342
g12
S'word: bottle, index: 12'
p343
sbatp344
Rp345
(dp346
g12
Vprep
p347
sbag0
(g1
g2
(lp348
g0
(g1
g2
(lp349
g0
(g1
g2
(lp350
(lp351
S'word: a, index: 7'
p352
aatp353
Rp354
(dp355
g12
Vdet
p356
sbatp357
Rp358
(dp359
g12
S'word: something, index: 8'
p360
sbatp361
Rp362
(dp363
g12
Vdobj
p364
sbatp365
Rp366
(dp367
g12
S'word: pouring, index: 6'
p368
sbatp369
Rp370
(dp371
g12
Vvmod
p372
sbatp373
Rp374
(dp375
g12
S'word: re, index: 4'
p376
sbatp377
Rp378
(dp379
g12
S'id: 3'
p380
sbag0
(g1
g2
(lp381
g0
(g1
g2
(lp382
g0
(g1
g2
(lp383
g0
(g1
g2
(lp384
g0
(g1
g2
(lp385
(lp386
S'word: The, index: 1'
p387
aatp388
Rp389
(dp390
g12
Vdet
p391
sbatp392
Rp393
(dp394
g12
S'word: man, index: 2'
p395
sbatp396
Rp397
(dp398
g12
Vnsubj
p399
sbag0
(g1
g2
(lp400
(lp401
S'word: is, index: 3'
p402
aatp403
Rp404
(dp405
g12
Vaux
p406
sbag0
(g1
g2
(lp407
g0
(g1
g2
(lp408
g0
(g1
g2
(lp409
(lp410
S'word: a, index: 5'
p411
aatp412
Rp413
(dp414
g12
Vdet
p415
sbatp416
Rp417
(dp418
g12
S'word: book, index: 6'
p419
sbatp420
Rp421
(dp422
g12
Vdobj
p423
sbatp424
Rp425
(dp426
g12
S'word: reading, index: 4'
p427
sbatp428
Rp429
(dp430
g12
S'id: 4'
p431
sbag0
(g1
g2
(lp432
g0
(g1
g2
(lp433
g0
(g1
g2
(lp434
(lp435
S'word: There, index: 1'
p436
aatp437
Rp438
(dp439
g12
Vexpl
p440
sbag0
(g1
g2
(lp441
g0
(g1
g2
(lp442
g0
(g1
g2
(lp443
(lp444
S'word: a, index: 3'
p445
aatp446
Rp447
(dp448
g12
Vdet
p449
sbag0
(g1
g2
(lp450
g0
(g1
g2
(lp451
g0
(g1
g2
(lp452
g0
(g1
g2
(lp453
g0
(g1
g2
(lp454
(lp455
S'word: the, index: 7'
p456
aatp457
Rp458
(dp459
g12
Vdet
p460
sbatp461
Rp462
(dp463
g12
S'word: garage, index: 8'
p464
sbatp465
Rp466
(dp467
g12
Vprep
p468
sbag0
(g1
g2
(lp469
g0
(g1
g2
(lp470
g0
(g1
g2
(lp471
g0
(g1
g2
(lp472
g0
(g1
g2
(lp473
(lp474
S'word: the, index: 15'
p475
aatp476
Rp477
(dp478
g12
Vdet
p479
sbag0
(g1
g2
(lp480
(lp481
S'word: front, index: 16'
p482
aatp483
Rp484
(dp485
g12
Vnn
p486
sbatp487
Rp488
(dp489
g12
S'word: yard, index: 17'
p490
sbatp491
Rp492
(dp493
g12
Vprep
p494
sbag0
(g1
g2
(lp495
(lp496
S'word: a, index: 11'
p497
aatp498
Rp499
(dp500
g12
Vdet
p501
sbag0
(g1
g2
(lp502
(lp503
S'word: big, index: 12'
p504
aatp505
Rp506
(dp507
g12
Vamod
p508
sbatp509
Rp510
(dp511
g12
S'word: tree, index: 13'
p512
sbatp513
Rp514
(dp515
g12
Vprep
p516
sbatp517
Rp518
(dp519
g12
S'word: parked, index: 5'
p520
sbatp521
Rp522
(dp523
g12
Vvmod
p524
sbatp525
Rp526
(dp527
g12
S'word: car, index: 4'
p528
sbatp529
Rp530
(dp531
g12
Vnsubj
p532
sbatp533
Rp534
(dp535
g12
S"word: 's, index: 2"
p536
sbatp537
Rp538
(dp539
g12
S'id: 5'
p540
sbag0
(g1
g2
(lp541
g0
(g1
g2
(lp542
g0
(g1
g2
(lp543
g0
(g1
g2
(lp544
g0
(g1
g2
(lp545
(lp546
S'word: a, index: 3'
p547
aatp548
Rp549
(dp550
g12
Vdet
p551
sbag0
(g1
g2
(lp552
(lp553
S'word: flag, index: 4'
p554
aatp555
Rp556
(dp557
g12
Vnn
p558
sbatp559
Rp560
(dp561
g12
S'word: pole, index: 5'
p562
sbatp563
Rp564
(dp565
g12
Vdobj
p566
sbag0
(g1
g2
(lp567
g0
(g1
g2
(lp568
g0
(g1
g2
(lp569
(lp570
S'word: the, index: 7'
p571
aatp572
Rp573
(dp574
g12
Vdet
p575
sbag0
(g1
g2
(lp576
g0
(g1
g2
(lp577
g0
(g1
g2
(lp578
(lp579
S'word: the, index: 10'
p580
aatp581
Rp582
(dp583
g12
Vdet
p584
sbatp585
Rp586
(dp587
g12
S'word: house, index: 11'
p588
sbatp589
Rp590
(dp591
g12
Vprep
p592
sbatp593
Rp594
(dp595
g12
S'word: right, index: 8'
p596
sbatp597
Rp598
(dp599
g12
Vprep
p600
sbag0
(g1
g2
(lp601
(lp602
S'word: They, index: 1'
p603
aatp604
Rp605
(dp606
g12
Vnsubj
p607
sbatp608
Rp609
(dp610
g12
S'word: have, index: 2'
p611
sbatp612
Rp613
(dp614
g12
S'id: 6'
p615
sbag0
(g1
g2
(lp616
g0
(g1
g2
(lp617
g0
(g1
g2
(lp618
g0
(g1
g2
(lp619
g0
(g1
g2
(lp620
(lp621
S'word: the, index: 7'
p622
aatp623
Rp624
(dp625
g12
Vdet
p626
sbatp627
Rp628
(dp629
g12
S'word: deck, index: 8'
p630
sbatp631
Rp632
(dp633
g12
Vprep
p634
sbag0
(g1
g2
(lp635
g0
(g1
g2
(lp636
g0
(g1
g2
(lp637
(lp638
S'word: there, index: 23'
p639
aatp640
Rp641
(dp642
g12
Vexpl
p643
sbag0
(g1
g2
(lp644
g0
(g1
g2
(lp645
g0
(g1
g2
(lp646
(lp647
S'word: it, index: 27'
p648
aatp649
Rp650
(dp651
g12
Vprep
p652
sbatp653
Rp654
(dp655
g12
S'word: fish, index: 25'
p656
sbatp657
Rp658
(dp659
g12
Vnsubj
p660
sbatp661
Rp662
(dp663
g12
S"word: 's, index: 24"
p664
sbatp665
Rp666
(dp667
g12
Vconj
p668
sbag0
(g1
g2
(lp669
g0
(g1
g2
(lp670
g0
(g1
g2
(lp671
(lp672
S'word: the, index: 11'
p673
aatp674
Rp675
(dp676
g12
Vdet
p677
sbatp678
Rp679
(dp680
g12
S'word: deck, index: 12'
p681
sbatp682
Rp683
(dp684
g12
Vprep
p685
sbag0
(g1
g2
(lp686
g0
(g1
g2
(lp687
g0
(g1
g2
(lp688
(lp689
S'word: the, index: 14'
p690
aatp691
Rp692
(dp693
g12
Vdet
p694
sbatp695
Rp696
(dp697
g12
S'word: lake, index: 15'
p698
sbatp699
Rp700
(dp701
g12
Vprep
p702
sbag0
(g1
g2
(lp703
(lp704
S'word: There, index: 1'
p705
aatp706
Rp707
(dp708
g12
Vexpl
p709
sbag0
(g1
g2
(lp710
g0
(g1
g2
(lp711
g0
(g1
g2
(lp712
g0
(g1
g2
(lp713
g0
(g1
g2
(lp714
(lp715
S'word: the, index: 18'
p716
aatp717
Rp718
(dp719
g12
Vdet
p720
sbag0
(g1
g2
(lp721
(lp722
S'word: fishing, index: 19'
p723
aatp724
Rp725
(dp726
g12
Vnn
p727
sbatp728
Rp729
(dp730
g12
S'word: pole, index: 20'
p731
sbatp732
Rp733
(dp734
g12
Vpobj
p735
sbatp736
Rp737
(dp738
g12
S'word: with, index: 17'
p739
sbatp740
Rp741
(dp742
g12
Vdep
p743
sbag0
(g1
g2
(lp744
(lp745
S'word: also, index: 2'
p746
aatp747
Rp748
(dp749
g12
Vadvmod
p750
sbag0
(g1
g2
(lp751
(lp752
S'word: a, index: 3'
p753
aatp754
Rp755
(dp756
g12
Vdet
p757
sbag0
(g1
g2
(lp758
(lp759
S'word: man, index: 4'
p760
aatp761
Rp762
(dp763
g12
Vnn
p764
sbatp765
Rp766
(dp767
g12
S'word: standing, index: 5'
p768
sbatp769
Rp770
(dp771
g12
S'id: 7'
p772
sbag0
(g1
g2
(lp773
g0
(g1
g2
(lp774
g0
(g1
g2
(lp775
(lp776
S'word: he, index: 15'
p777
aatp778
Rp779
(dp780
g12
Vnsubj
p781
sbag0
(g1
g2
(lp782
g0
(g1
g2
(lp783
g0
(g1
g2
(lp784
(lp785
S'word: the, index: 17'
p786
aatp787
Rp788
(dp789
g12
Vdet
p790
sbag0
(g1
g2
(lp791
g0
(g1
g2
(lp792
g0
(g1
g2
(lp793
(lp794
S'word: him, index: 20'
p795
aatp796
Rp797
(dp798
g12
Vdobj
p799
sbatp800
Rp801
(dp802
g12
S'word: trailing, index: 19'
p803
sbatp804
Rp805
(dp806
g12
Vvmod
p807
sbatp808
Rp809
(dp810
g12
S'word: dog, index: 18'
p811
sbatp812
Rp813
(dp814
g12
Vdobj
p815
sbag0
(g1
g2
(lp816
g0
(g1
g2
(lp817
g0
(g1
g2
(lp818
g0
(g1
g2
(lp819
g0
(g1
g2
(lp820
g0
(g1
g2
(lp821
g0
(g1
g2
(lp822
(lp823
S'word: a, index: 12'
p824
aatp825
Rp826
(dp827
g12
Vdet
p828
sbatp829
Rp830
(dp831
g12
S'word: kite, index: 13'
p832
sbatp833
Rp834
(dp835
g12
Vdobj
p836
sbatp837
Rp838
(dp839
g12
S'word: flying, index: 11'
p840
sbatp841
Rp842
(dp843
g12
Vvmod
p844
sbag0
(g1
g2
(lp845
(lp846
S'word: And, index: 1'
p847
aatp848
Rp849
(dp850
g12
Vcc
p851
sbag0
(g1
g2
(lp852
(lp853
S'word: there, index: 2'
p854
aatp855
Rp856
(dp857
g12
Vexpl
p858
sbag0
(g1
g2
(lp859
g0
(g1
g2
(lp860
g0
(g1
g2
(lp861
(lp862
S'word: the, index: 9'
p863
aatp864
Rp865
(dp866
g12
Vprep
p867
sbag0
(g1
g2
(lp868
(lp869
S'word: a, index: 4'
p870
aatp871
Rp872
(dp873
g12
Vdet
p874
sbag0
(g1
g2
(lp875
(lp876
S'word: young, index: 5'
p877
aatp878
Rp879
(dp880
g12
Vamod
p881
sbag0
(g1
g2
(lp882
(lp883
S'word: man, index: 6'
p884
aatp885
Rp886
(dp887
g12
Vnn
p888
sbatp889
Rp890
(dp891
g12
S'word: playing, index: 7'
p892
sbatp893
Rp894
(dp895
g12
Vnsubj
p896
sbatp897
Rp898
(dp899
g12
S"word: 's, index: 3"
p900
sbatp901
Rp902
(dp903
g12
Vccomp
p904
sbatp905
Rp906
(dp907
g12
S'word: has, index: 16'
p908
sbatp909
Rp910
(dp911
g12
S'id: 8'
p912
sbag0
(g1
g2
(lp913
g0
(g1
g2
(lp914
g0
(g1
g2
(lp915
(lp916
S'word: And, index: 1'
p917
aatp918
Rp919
(dp920
g12
Vcc
p921
sbag0
(g1
g2
(lp922
(lp923
S'word: there, index: 2'
p924
aatp925
Rp926
(dp927
g12
Vexpl
p928
sbag0
(g1
g2
(lp929
g0
(g1
g2
(lp930
g0
(g1
g2
(lp931
g0
(g1
g2
(lp932
g0
(g1
g2
(lp933
(lp934
S'word: the, index: 11'
p935
aatp936
Rp937
(dp938
g12
Vdet
p939
sbag0
(g1
g2
(lp940
g0
(g1
g2
(lp941
g0
(g1
g2
(lp942
g0
(g1
g2
(lp943
g0
(g1
g2
(lp944
(lp945
S'word: a, index: 15'
p946
aatp947
Rp948
(dp949
g12
Vdet
p950
sbatp951
Rp952
(dp953
g12
S'word: sand, index: 16'
p954
sbatp955
Rp956
(dp957
g12
Vdobj
p958
sbatp959
Rp960
(dp961
g12
S'word: building, index: 14'
p962
sbatp963
Rp964
(dp965
g12
Vvmod
p966
sbatp967
Rp968
(dp969
g12
S'word: sa, index: 12'
p970
sbatp971
Rp972
(dp973
g12
Vnsubj
p974
sbag0
(g1
g2
(lp975
g0
(g1
g2
(lp976
g0
(g1
g2
(lp977
g0
(g1
g2
(lp978
g0
(g1
g2
(lp979
g0
(g1
g2
(lp980
g0
(g1
g2
(lp981
(lp982
S'word: a, index: 27'
p983
aatp984
Rp985
(dp986
g12
Vdet
p987
sbatp988
Rp989
(dp990
g12
S'word: bucket, index: 28'
p991
sbatp992
Rp993
(dp994
g12
Vprep
p995
sbag0
(g1
g2
(lp996
g0
(g1
g2
(lp997
g0
(g1
g2
(lp998
(lp999
S'word: a, index: 30'
p1000
aatp1001
Rp1002
(dp1003
g12
Vdet
p1004
sbatp1005
Rp1006
(dp1007
g12
S'word: shovel, index: 31'
p1008
sbatp1009
Rp1010
(dp1011
g12
Vprep
p1012
sbag0
(g1
g2
(lp1013
(lp1014
S'word: the, index: 22'
p1015
aatp1016
Rp1017
(dp1018
g12
Vdet
p1019
sbag0
(g1
g2
(lp1020
g0
(g1
g2
(lp1021
g0
(g1
g2
(lp1022
g989
atp1023
Rp1024
(dp1025
g12
Vconj
p1026
sbag0
(g1
g2
(lp1027
g1006
atp1028
Rp1029
(dp1030
g12
Vconj
p1031
sbatp1032
Rp1033
(dp1034
g12
S'word: a, index: 25'
p1035
sbatp1036
Rp1037
(dp1038
g12
Vprep
p1039
sbatp1040
Rp1041
(dp1042
g12
S'word: sand, index: 23'
p1043
sbatp1044
Rp1045
(dp1046
g12
Vprep
p1047
sbatp1048
Rp1049
(dp1050
g12
S'word: playing, index: 20'
p1051
sbatp1052
Rp1053
(dp1054
g12
Vprepc
p1055
sbag0
(g1
g2
(lp1056
(lp1057
S'word: in, index: 10'
p1058
aatp1059
Rp1060
(dp1061
g12
Vmark
p1062
sbatp1063
Rp1064
(dp1065
g12
S'word: look, index: 18'
p1066
sbatp1067
Rp1068
(dp1069
g12
Vadvcl
p1070
sbag0
(g1
g2
(lp1071
g0
(g1
g2
(lp1072
g0
(g1
g2
(lp1073
(lp1074
S'word: a, index: 4'
p1075
aatp1076
Rp1077
(dp1078
g12
Vdet
p1079
sbag0
(g1
g2
(lp1080
g0
(g1
g2
(lp1081
g0
(g1
g2
(lp1082
(lp1083
S'word: his, index: 7'
p1084
aatp1085
Rp1086
(dp1087
g12
Vposs
p1088
sbatp1089
Rp1090
(dp1091
g12
S'word: right, index: 8'
p1092
sbatp1093
Rp1094
(dp1095
g12
Vprep
p1096
sbatp1097
Rp1098
(dp1099
g12
S'word: girl, index: 5'
p1100
sbatp1101
Rp1102
(dp1103
g12
Vnsubj
p1104
sbatp1105
Rp1106
(dp1107
g12
S"word: 's, index: 3"
p1108
sbatp1109
Rp1110
(dp1111
g12
S'id: 9'
p1112
sbag0
(g1
g2
(lp1113
g0
(g1
g2
(lp1114
g0
(g1
g2
(lp1115
(lp1116
S'word: And, index: 1'
p1117
aatp1118
Rp1119
(dp1120
g12
Vcc
p1121
sbag0
(g1
g2
(lp1122
(lp1123
S'word: then, index: 2'
p1124
aatp1125
Rp1126
(dp1127
g12
Vadvmod
p1128
sbag0
(g1
g2
(lp1129
(lp1130
S'word: are, index: 3'
p1131
aatp1132
Rp1133
(dp1134
g12
Vcop
p1135
sbag0
(g1
g2
(lp1136
g0
(g1
g2
(lp1137
g0
(g1
g2
(lp1138
g0
(g1
g2
(lp1139
g0
(g1
g2
(lp1140
(lp1141
S'word: the, index: 7'
p1142
aatp1143
Rp1144
(dp1145
g12
Vdet
p1146
sbatp1147
Rp1148
(dp1149
g12
S'word: lake, index: 8'
p1150
sbatp1151
Rp1152
(dp1153
g12
Vprep
p1154
sbag0
(g1
g2
(lp1155
(lp1156
S'word: there, index: 10'
p1157
aatp1158
Rp1159
(dp1160
g12
Vexpl
p1161
sbag0
(g1
g2
(lp1162
g0
(g1
g2
(lp1163
g0
(g1
g2
(lp1164
g0
(g1
g2
(lp1165
g0
(g1
g2
(lp1166
(lp1167
S'word: two, index: 15'
p1168
aatp1169
Rp1170
(dp1171
g12
Vnum
p1172
sbag0
(g1
g2
(lp1173
(lp1174
S'word: it, index: 18'
p1175
aatp1176
Rp1177
(dp1178
g12
Vprep
p1179
sbatp1180
Rp1181
(dp1182
g12
S'word: people, index: 16'
p1183
sbatp1184
Rp1185
(dp1186
g12
Vprep
p1187
sbag0
(g1
g2
(lp1188
(lp1189
S'word: a, index: 12'
p1190
aatp1191
Rp1192
(dp1193
g12
Vdet
p1194
sbatp1195
Rp1196
(dp1197
g12
S'word: sailboat, index: 13'
p1198
sbatp1199
Rp1200
(dp1201
g12
Vnsubj
p1202
sbatp1203
Rp1204
(dp1205
g12
S"word: 's, index: 11"
p1206
sbatp1207
Rp1208
(dp1209
g12
Vccomp
p1210
sbatp1211
Rp1212
(dp1213
g12
S'word: inst, index: 4'
p1214
sbatp1215
Rp1216
(dp1217
g12
S'id: 10'
p1218
sbag0
(g1
g2
(lp1219
g0
(g1
g2
(lp1220
g0
(g1
g2
(lp1221
(lp1222
S'word: And, index: 1'
p1223
aatp1224
Rp1225
(dp1226
g12
Vcc
p1227
sbag0
(g1
g2
(lp1228
g0
(g1
g2
(lp1229
g0
(g1
g2
(lp1230
g0
(g1
g2
(lp1231
g0
(g1
g2
(lp1232
(lp1233
S'word: the, index: 4'
p1234
aatp1235
Rp1236
(dp1237
g12
Vdet
p1238
sbag0
(g1
g2
(lp1239
(lp1240
S'word: little, index: 5'
p1241
aatp1242
Rp1243
(dp1244
g12
Vamod
p1245
sbag0
(g1
g2
(lp1246
(lp1247
S'word: she, index: 8'
p1248
aatp1249
Rp1250
(dp1251
g12
Vappos
p1252
sbatp1253
Rp1254
(dp1255
g12
S'word: girl, index: 6'
p1256
sbatp1257
Rp1258
(dp1259
g12
Vappos
p1260
sbatp1261
Rp1262
(dp1263
g12
S'word: the, index: 2'
p1264
sbatp1265
Rp1266
(dp1267
g12
Vnsubj
p1268
sbag0
(g1
g2
(lp1269
g0
(g1
g2
(lp1270
g0
(g1
g2
(lp1271
(lp1272
S'word: to, index: 10'
p1273
aatp1274
Rp1275
(dp1276
g12
Vaux
p1277
sbag0
(g1
g2
(lp1278
(lp1279
S'word: be, index: 11'
p1280
aatp1281
Rp1282
(dp1283
g12
Vaux
p1284
sbag0
(g1
g2
(lp1285
g0
(g1
g2
(lp1286
g0
(g1
g2
(lp1287
(lp1288
S'word: a, index: 13'
p1289
aatp1290
Rp1291
(dp1292
g12
Vdet
p1293
sbatp1294
Rp1295
(dp1296
g12
S'word: sandcastle, index: 14'
p1297
sbatp1298
Rp1299
(dp1300
g12
Vdobj
p1301
sbatp1302
Rp1303
(dp1304
g12
S'word: building, index: 12'
p1305
sbatp1306
Rp1307
(dp1308
g12
Vxcomp
p1309
sbatp1310
Rp1311
(dp1312
g12
S'word: seem, index: 9'
p1313
sbatp1314
Rp1315
(dp1316
g12
S'id: 11'
p1317
sbag0
(g1
g2
(lp1318
g0
(g1
g2
(lp1319
g0
(g1
g2
(lp1320
g0
(g1
g2
(lp1321
g0
(g1
g2
(lp1322
g0
(g1
g2
(lp1323
g0
(g1
g2
(lp1324
(lp1325
S'word: fish, index: 21'
p1326
aatp1327
Rp1328
(dp1329
g12
Vdobj
p1330
sbag0
(g1
g2
(lp1331
(lp1332
S'word: that, index: 17'
p1333
aatp1334
Rp1335
(dp1336
g12
Vmark
p1337
sbag0
(g1
g2
(lp1338
(lp1339
S'word: he, index: 18'
p1340
aatp1341
Rp1342
(dp1343
g12
Vnsubj
p1344
sbag0
(g1
g2
(lp1345
(lp1346
S"word: 's, index: 19"
p1347
aatp1348
Rp1349
(dp1350
g12
Vaux
p1351
sbatp1352
Rp1353
(dp1354
g12
S'word: catching, index: 20'
p1355
sbatp1356
Rp1357
(dp1358
g12
Vccomp
p1359
sbag0
(g1
g2
(lp1360
(lp1361
S'word: like, index: 13'
p1362
aatp1363
Rp1364
(dp1365
g12
Vmark
p1366
sbag0
(g1
g2
(lp1367
(lp1368
S'word: he, index: 14'
p1369
aatp1370
Rp1371
(dp1372
g12
Vnsubj
p1373
sbag0
(g1
g2
(lp1374
(lp1375
S"word: 's, index: 15"
p1376
aatp1377
Rp1378
(dp1379
g12
Vcop
p1380
sbatp1381
Rp1382
(dp1383
g12
S'word: happy, index: 16'
p1384
sbatp1385
Rp1386
(dp1387
g12
Vadvcl
p1388
sbag0
(g1
g2
(lp1389
(lp1390
S'word: And, index: 1'
p1391
aatp1392
Rp1393
(dp1394
g12
Vcc
p1395
sbag0
(g1
g2
(lp1396
g0
(g1
g2
(lp1397
g0
(g1
g2
(lp1398
g0
(g1
g2
(lp1399
g0
(g1
g2
(lp1400
(lp1401
S'word: that, index: 4'
p1402
aatp1403
Rp1404
(dp1405
g12
Vnsubj
p1406
sbag0
(g1
g2
(lp1407
(lp1408
S'word: out, index: 6'
p1409
aatp1410
Rp1411
(dp1412
g12
Vadvmod
p1413
sbag0
(g1
g2
(lp1414
g0
(g1
g2
(lp1415
g0
(g1
g2
(lp1416
(lp1417
S'word: the, index: 8'
p1418
aatp1419
Rp1420
(dp1421
g12
Vdet
p1422
sbag0
(g1
g2
(lp1423
(lp1424
S'word: lake, index: 9'
p1425
aatp1426
Rp1427
(dp1428
g12
Vnn
p1429
sbatp1430
Rp1431
(dp1432
g12
S'word: fishing, index: 10'
p1433
sbatp1434
Rp1435
(dp1436
g12
Vprep
p1437
sbatp1438
Rp1439
(dp1440
g12
S"word: 's, index: 5"
p1441
sbatp1442
Rp1443
(dp1444
g12
Vrcmod
p1445
sbag0
(g1
g2
(lp1446
(lp1447
S'word: the, index: 2'
p1448
aatp1449
Rp1450
(dp1451
g12
Vdet
p1452
sbatp1453
Rp1454
(dp1455
g12
S'word: man, index: 3'
p1456
sbatp1457
Rp1458
(dp1459
g12
Vnsubj
p1460
sbatp1461
Rp1462
(dp1463
g12
S'word: seem, index: 12'
p1464
sbatp1465
Rp1466
(dp1467
g12
S'id: 12'
p1468
sbag0
(g1
g2
(lp1469
g0
(g1
g2
(lp1470
g0
(g1
g2
(lp1471
g0
(g1
g2
(lp1472
g0
(g1
g2
(lp1473
(lp1474
S"word: 's, index: 7"
p1475
aatp1476
Rp1477
(dp1478
g12
Vcop
p1479
sbag0
(g1
g2
(lp1480
g0
(g1
g2
(lp1481
g0
(g1
g2
(lp1482
g0
(g1
g2
(lp1483
g0
(g1
g2
(lp1484
(lp1485
S'word: the, index: 11'
p1486
aatp1487
Rp1488
(dp1489
g12
Vdet
p1490
sbag0
(g1
g2
(lp1491
(lp1492
S'word: little, index: 12'
p1493
aatp1494
Rp1495
(dp1496
g12
Vamod
p1497
sbatp1498
Rp1499
(dp1500
g12
S'word: boy, index: 13'
p1501
sbatp1502
Rp1503
(dp1504
g12
Vprep
p1505
sbatp1506
Rp1507
(dp1508
g12
S'word: running, index: 9'
p1509
sbatp1510
Rp1511
(dp1512
g12
Vxcomp
p1513
sbag0
(g1
g2
(lp1514
(lp1515
S'word: like, index: 5'
p1516
aatp1517
Rp1518
(dp1519
g12
Vmark
p1520
sbag0
(g1
g2
(lp1521
(lp1522
S'word: he, index: 6'
p1523
aatp1524
Rp1525
(dp1526
g12
Vnsubj
p1527
sbatp1528
Rp1529
(dp1530
g12
S'word: happy, index: 8'
p1531
sbatp1532
Rp1533
(dp1534
g12
Vadvcl
p1535
sbag0
(g1
g2
(lp1536
(lp1537
S'word: And, index: 1'
p1538
aatp1539
Rp1540
(dp1541
g12
Vcc
p1542
sbag0
(g1
g2
(lp1543
g0
(g1
g2
(lp1544
g0
(g1
g2
(lp1545
(lp1546
S'word: the, index: 2'
p1547
aatp1548
Rp1549
(dp1550
g12
Vdet
p1551
sbatp1552
Rp1553
(dp1554
g12
S'word: dog, index: 3'
p1555
sbatp1556
Rp1557
(dp1558
g12
Vnsubj
p1559
sbatp1560
Rp1561
(dp1562
g12
S'word: seem, index: 4'
p1563
sbatp1564
Rp1565
(dp1566
g12
S'id: 13'
p1567
sbag0
(g1
g2
(lp1568
g0
(g1
g2
(lp1569
g0
(g1
g2
(lp1570
(lp1571
S'word: And, index: 1'
p1572
aatp1573
Rp1574
(dp1575
g12
Vcc
p1576
sbag0
(g1
g2
(lp1577
g0
(g1
g2
(lp1578
g0
(g1
g2
(lp1579
(lp1580
S'word: his, index: 17'
p1581
aatp1582
Rp1583
(dp1584
g12
Vposs
p1585
sbatp1586
Rp1587
(dp1588
g12
S'word: right, index: 18'
p1589
sbatp1590
Rp1591
(dp1592
g12
Vprep
p1593
sbag0
(g1
g2
(lp1594
g0
(g1
g2
(lp1595
g0
(g1
g2
(lp1596
(lp1597
S'word: the, index: 2'
p1598
aatp1599
Rp1600
(dp1601
g12
Vdet
p1602
sbag0
(g1
g2
(lp1603
g0
(g1
g2
(lp1604
g0
(g1
g2
(lp1605
(lp1606
S'word: the, index: 5'
p1607
aatp1608
Rp1609
(dp1610
g12
Vdet
p1611
sbag0
(g1
g2
(lp1612
g0
(g1
g2
(lp1613
g0
(g1
g2
(lp1614
g0
(g1
g2
(lp1615
g0
(g1
g2
(lp1616
g0
(g1
g2
(lp1617
g0
(g1
g2
(lp1618
(lp1619
S'word: the, index: 11'
p1620
aatp1621
Rp1622
(dp1623
g12
Vdet
p1624
sbatp1625
Rp1626
(dp1627
g12
S'word: man, index: 12'
p1628
sbatp1629
Rp1630
(dp1631
g12
Vposs
p1632
sbatp1633
Rp1634
(dp1635
g12
S'word: shoes, index: 14'
p1636
sbatp1637
Rp1638
(dp1639
g12
Vappos
p1640
sbag0
(g1
g2
(lp1641
(lp1642
S'word: the, index: 8'
p1643
aatp1644
Rp1645
(dp1646
g12
Vdet
p1647
sbatp1648
Rp1649
(dp1650
g12
S'word: lady, index: 9'
p1651
sbatp1652
Rp1653
(dp1654
g12
Vappos
p1655
sbatp1656
Rp1657
(dp1658
g12
S'word: picture, index: 6'
p1659
sbatp1660
Rp1661
(dp1662
g12
Vprep
p1663
sbatp1664
Rp1665
(dp1666
g12
S'word: people, index: 3'
p1667
sbatp1668
Rp1669
(dp1670
g12
Vnsubj
p1671
sbatp1672
Rp1673
(dp1674
g12
S'word: is, index: 15'
p1675
sbatp1676
Rp1677
(dp1678
g12
S'id: 14'
p1679
sbag0
(g1
g2
(lp1680
g0
(g1
g2
(lp1681
g0
(g1
g2
(lp1682
(lp1683
S'word: And, index: 1'
p1684
aatp1685
Rp1686
(dp1687
g12
Vcc
p1688
sbag0
(g1
g2
(lp1689
(lp1690
S'word: a, index: 2'
p1691
aatp1692
Rp1693
(dp1694
g12
Vnsubj
p1695
sbag0
(g1
g2
(lp1696
g0
(g1
g2
(lp1697
g0
(g1
g2
(lp1698
(lp1699
S'word: that, index: 4'
p1700
aatp1701
Rp1702
(dp1703
g12
Vnsubj
p1704
sbag0
(g1
g2
(lp1705
(lp1706
S'word: everything, index: 7'
p1707
aatp1708
Rp1709
(dp1710
g12
Vprep
p1711
sbatp1712
Rp1713
(dp1714
g12
S"word: 's, index: 5"
p1715
sbatp1716
Rp1717
(dp1718
g12
Vparataxis
p1719
sbag0
(g1
g2
(lp1720
(lp1721
S'word: I, index: 8'
p1722
aatp1723
Rp1724
(dp1725
g12
Vnsubj
p1726
sbag0
(g1
g2
(lp1727
(lp1728
S'word: can, index: 9'
p1729
aatp1730
Rp1731
(dp1732
g12
Vaux
p1733
sbag0
(g1
g2
(lp1734
g0
(g1
g2
(lp1735
g0
(g1
g2
(lp1736
(lp1737
S'word: there, index: 12'
p1738
aatp1739
Rp1740
(dp1741
g12
Vpobj
p1742
sbatp1743
Rp1744
(dp1745
g12
S'word: in, index: 11'
p1746
sbatp1747
Rp1748
(dp1749
g12
Vprep
p1750
sbatp1751
Rp1752
(dp1753
g12
S'word: see, index: 10'
p1754
sbatp1755
Rp1756
(dp1757
g12
S'id: 15'
p1758
sbag0
(g1
g2
(lp1759
g0
(g1
g2
(lp1760
g0
(g1
g2
(lp1761
(lp1762
S'word: Two, index: 1'
p1763
aatp1764
Rp1765
(dp1766
g12
Vnum
p1767
sbag0
(g1
g2
(lp1768
g0
(g1
g2
(lp1769
g0
(g1
g2
(lp1770
(lp1771
S'word: a, index: 3'
p1772
aatp1773
Rp1774
(dp1775
g12
Vdet
p1776
sbag0
(g1
g2
(lp1777
(lp1778
S'word: long, index: 4'
p1779
aatp1780
Rp1781
(dp1782
g12
Vamod
p1783
sbatp1784
Rp1785
(dp1786
g12
S'word: time, index: 5'
p1787
sbatp1788
Rp1789
(dp1790
g12
Vdep
p1791
sbatp1792
Rp1793
(dp1794
g12
S'word: minutes, index: 2'
p1795
sbatp1796
Rp1797
(dp1798
g12
S'id: 16'
p1799
sbatp1800
Rp1801
(dp1802
g12
S'sentences'
p1803
sb.