ccopy_reg
_reconstructor
p0
(cnltk.tree
Tree
p1
c__builtin__
list
p2
(lp3
g0
(g1
g2
(lp4
g0
(g1
g2
(lp5
g0
(g1
g2
(lp6
g0
(g1
g2
(lp7
Vthat
p8
atp9
Rp10
(dp11
S'_label'
p12
VDT
p13
sbatp14
Rp15
(dp16
g12
VNP
p17
sbag0
(g1
g2
(lp18
g0
(g1
g2
(lp19
V's
p20
atp21
Rp22
(dp23
g12
VVBZ
p24
sbag0
(g1
g2
(lp25
g0
(g1
g2
(lp26
g0
(g1
g2
(lp27
Vthe
p28
atp29
Rp30
(dp31
g12
VDT
p32
sbag0
(g1
g2
(lp33
Vmom
p34
atp35
Rp36
(dp37
g12
VNN
p38
sbatp39
Rp40
(dp41
g12
VNP
p42
sbag0
(g1
g2
(lp43
V,
p44
atp45
Rp46
(dp47
g12
V,
p48
sbag0
(g1
g2
(lp49
g0
(g1
g2
(lp50
Vthe
p51
atp52
Rp53
(dp54
g12
VDT
p55
sbatp56
Rp57
(dp58
g12
VNP
p59
sbag0
(g1
g2
(lp60
V,
p61
atp62
Rp63
(dp64
g12
V,
p65
sbag0
(g1
g2
(lp66
g0
(g1
g2
(lp67
Vthe
p68
atp69
Rp70
(dp71
g12
VDT
p72
sbatp73
Rp74
(dp75
g12
VNP
p76
sbag0
(g1
g2
(lp77
V,
p78
atp79
Rp80
(dp81
g12
V,
p82
sbag0
(g1
g2
(lp83
g0
(g1
g2
(lp84
Vthe
p85
atp86
Rp87
(dp88
g12
VDT
p89
sbag0
(g1
g2
(lp90
Vson
p91
atp92
Rp93
(dp94
g12
VNN
p95
sbatp96
Rp97
(dp98
g12
VNP
p99
sbag0
(g1
g2
(lp100
V,
p101
atp102
Rp103
(dp104
g12
V,
p105
sbag0
(g1
g2
(lp106
Vand
p107
atp108
Rp109
(dp110
g12
VCC
p111
sbag0
(g1
g2
(lp112
g0
(g1
g2
(lp113
g0
(g1
g2
(lp114
Vthe
p115
atp116
Rp117
(dp118
g12
VDT
p119
sbatp120
Rp121
(dp122
g12
VNP
p123
sbag0
(g1
g2
(lp124
V,
p125
atp126
Rp127
(dp128
g12
V,
p129
sbag0
(g1
g2
(lp130
g0
(g1
g2
(lp131
Vthe
p132
atp133
Rp134
(dp135
g12
VDT
p136
sbag0
(g1
g2
(lp137
Vgirl
p138
atp139
Rp140
(dp141
g12
VNN
p142
sbatp143
Rp144
(dp145
g12
VNP
p146
sbatp147
Rp148
(dp149
g12
VNP
p150
sbatp151
Rp152
(dp153
g12
VNP
p154
sbatp155
Rp156
(dp157
g12
VVP
p158
sbag0
(g1
g2
(lp159
V.
p160
atp161
Rp162
(dp163
g12
V.
p164
sbatp165
Rp166
(dp167
g12
VS
p168
sbatp169
Rp170
(dp171
g12
S'id: 0'
p172
sbag0
(g1
g2
(lp173
g0
(g1
g2
(lp174
g0
(g1
g2
(lp175
g0
(g1
g2
(lp176
VThere
p177
atp178
Rp179
(dp180
g12
VEX
p181
sbatp182
Rp183
(dp184
g12
VNP
p185
sbag0
(g1
g2
(lp186
g0
(g1
g2
(lp187
g0
(g1
g2
(lp188
g0
(g1
g2
(lp189
Vthe
p190
atp191
Rp192
(dp193
g12
VDT
p194
sbag0
(g1
g2
(lp195
Vcookie
p196
atp197
Rp198
(dp199
g12
VNN
p200
sbatp201
Rp202
(dp203
g12
VNP
p204
sbag0
(g1
g2
(lp205
V,
p206
atp207
Rp208
(dp209
g12
V,
p210
sbag0
(g1
g2
(lp211
g0
(g1
g2
(lp212
g0
(g1
g2
(lp213
Vthere
p214
atp215
Rp216
(dp217
g12
VEX
p218
sbatp219
Rp220
(dp221
g12
VNP
p222
sbag0
(g1
g2
(lp223
g0
(g1
g2
(lp224
Vthe
p225
atp226
Rp227
(dp228
g12
VDT
p229
sbag0
(g1
g2
(lp230
Vwater
p231
atp232
Rp233
(dp234
g12
VNN
p235
sbatp236
Rp237
(dp238
g12
VNP
p239
sbatp240
Rp241
(dp242
g12
VNP
p243
sbag0
(g1
g2
(lp244
V,
p245
atp246
Rp247
(dp248
g12
V,
p249
sbag0
(g1
g2
(lp250
g0
(g1
g2
(lp251
g0
(g1
g2
(lp252
g0
(g1
g2
(lp253
Vthey
p254
atp255
Rp256
(dp257
g12
VPRP
p258
sbatp259
Rp260
(dp261
g12
VNP
p262
sbag0
(g1
g2
(lp263
g0
(g1
g2
(lp264
V're
p265
atp266
Rp267
(dp268
g12
VVBP
p269
sbag0
(g1
g2
(lp270
g0
(g1
g2
(lp271
Vthrowing
p272
atp273
Rp274
(dp275
g12
VVBG
p276
sbag0
(g1
g2
(lp277
g0
(g1
g2
(lp278
Vit
p279
atp280
Rp281
(dp282
g12
VPRP
p283
sbatp284
Rp285
(dp286
g12
VNP
p287
sbatp288
Rp289
(dp290
g12
VVP
p291
sbatp292
Rp293
(dp294
g12
VVP
p295
sbatp296
Rp297
(dp298
g12
VS
p299
sbatp300
Rp301
(dp302
g12
VSBAR
p303
sbatp304
Rp305
(dp306
g12
VNP
p307
sbag0
(g1
g2
(lp308
g0
(g1
g2
(lp309
g0
(g1
g2
(lp310
Vout
p311
atp312
Rp313
(dp314
g12
VRP
p315
sbatp316
Rp317
(dp318
g12
VADVP
p319
sbag0
(g1
g2
(lp320
g0
(g1
g2
(lp321
Vnow
p322
atp323
Rp324
(dp325
g12
VRB
p326
sbatp327
Rp328
(dp329
g12
VADVP
p330
sbatp331
Rp332
(dp333
g12
VPRN
p334
sbatp335
Rp336
(dp337
g12
VVP
p338
sbag0
(g1
g2
(lp339
V.
p340
atp341
Rp342
(dp343
g12
V.
p344
sbatp345
Rp346
(dp347
g12
VS
p348
sbatp349
Rp350
(dp351
g12
S'id: 1'
p352
sbag0
(g1
g2
(lp353
g0
(g1
g2
(lp354
g0
(g1
g2
(lp355
g0
(g1
g2
(lp356
VShe
p357
atp358
Rp359
(dp360
g12
VPRP
p361
sbatp362
Rp363
(dp364
g12
VNP
p365
sbag0
(g1
g2
(lp366
g0
(g1
g2
(lp367
V's
p368
atp369
Rp370
(dp371
g12
VVBZ
p372
sbag0
(g1
g2
(lp373
g0
(g1
g2
(lp374
Vin
p375
atp376
Rp377
(dp378
g12
VIN
p379
sbag0
(g1
g2
(lp380
g0
(g1
g2
(lp381
Vthere
p382
atp383
Rp384
(dp385
g12
VEX
p386
sbatp387
Rp388
(dp389
g12
VNP
p390
sbatp391
Rp392
(dp393
g12
VPP
p394
sbag0
(g1
g2
(lp395
g0
(g1
g2
(lp396
g0
(g1
g2
(lp397
g0
(g1
g2
(lp398
Vwasher
p399
atp400
Rp401
(dp402
g12
VNN
p403
sbag0
(g1
g2
(lp404
V's
p405
atp406
Rp407
(dp408
g12
VPOS
p409
sbatp410
Rp411
(dp412
g12
VNP
p413
sbag0
(g1
g2
(lp414
Vwaste
p415
atp416
Rp417
(dp418
g12
VNN
p419
sbag0
(g1
g2
(lp420
Vp-a-p-e
p421
atp422
Rp423
(dp424
g12
VJJ
p425
sbag0
(g1
g2
(lp426
Vpay
p427
atp428
Rp429
(dp430
g12
VNN
p431
sbatp432
Rp433
(dp434
g12
VNP
p435
sbag0
(g1
g2
(lp436
V,
p437
atp438
Rp439
(dp440
g12
V,
p441
sbag0
(g1
g2
(lp442
g0
(g1
g2
(lp443
g0
(g1
g2
(lp444
Vpaple
p445
atp446
Rp447
(dp448
g12
VNN
p449
sbatp450
Rp451
(dp452
g12
VNP
p453
sbag0
(g1
g2
(lp454
V,
p455
atp456
Rp457
(dp458
g12
V,
p459
sbag0
(g1
g2
(lp460
g0
(g1
g2
(lp461
Vpay
p462
atp463
Rp464
(dp465
g12
VNN
p466
sbatp467
Rp468
(dp469
g12
VNP
p470
sbatp471
Rp472
(dp473
g12
VNP
p474
sbatp475
Rp476
(dp477
g12
VNP
p478
sbatp479
Rp480
(dp481
g12
VVP
p482
sbag0
(g1
g2
(lp483
V.
p484
atp485
Rp486
(dp487
g12
V.
p488
sbatp489
Rp490
(dp491
g12
VS
p492
sbatp493
Rp494
(dp495
g12
S'id: 2'
p496
sbag0
(g1
g2
(lp497
g0
(g1
g2
(lp498
g0
(g1
g2
(lp499
g0
(g1
g2
(lp500
VThere
p501
atp502
Rp503
(dp504
g12
VEX
p505
sbatp506
Rp507
(dp508
g12
VNP
p509
sbag0
(g1
g2
(lp510
g0
(g1
g2
(lp511
g0
(g1
g2
(lp512
Vout
p513
atp514
Rp515
(dp516
g12
VRP
p517
sbag0
(g1
g2
(lp518
g0
(g1
g2
(lp519
Vin
p520
atp521
Rp522
(dp523
g12
VIN
p524
sbag0
(g1
g2
(lp525
g0
(g1
g2
(lp526
Vthe
p527
atp528
Rp529
(dp530
g12
VDT
p531
sbag0
(g1
g2
(lp532
Vhouse
p533
atp534
Rp535
(dp536
g12
VNN
p537
sbatp538
Rp539
(dp540
g12
VNP
p541
sbatp542
Rp543
(dp544
g12
VPP
p545
sbatp546
Rp547
(dp548
g12
VADVP
p549
sbatp550
Rp551
(dp552
g12
VVP
p553
sbag0
(g1
g2
(lp554
V.
p555
atp556
Rp557
(dp558
g12
V.
p559
sbatp560
Rp561
(dp562
g12
VS
p563
sbatp564
Rp565
(dp566
g12
S'id: 3'
p567
sbag0
(g1
g2
(lp568
g0
(g1
g2
(lp569
g0
(g1
g2
(lp570
VAnd
p571
atp572
Rp573
(dp574
g12
VCC
p575
sbag0
(g1
g2
(lp576
g0
(g1
g2
(lp577
g0
(g1
g2
(lp578
Vnow
p579
atp580
Rp581
(dp582
g12
VRB
p583
sbatp584
Rp585
(dp586
g12
VNP
p587
sbag0
(g1
g2
(lp588
g0
(g1
g2
(lp589
g0
(g1
g2
(lp590
Vthe
p591
atp592
Rp593
(dp594
g12
VDT
p595
sbag0
(g1
g2
(lp596
Vwater
p597
atp598
Rp599
(dp600
g12
VNN
p601
sbatp602
Rp603
(dp604
g12
VNP
p605
sbag0
(g1
g2
(lp606
Vdownstairs
p607
atp608
Rp609
(dp610
g12
VNNS
p611
sbatp612
Rp613
(dp614
g12
VNP
p615
sbatp616
Rp617
(dp618
g12
VNP
p619
sbag0
(g1
g2
(lp620
V.
p621
atp622
Rp623
(dp624
g12
V.
p625
sbatp626
Rp627
(dp628
g12
VFRAG
p629
sbatp630
Rp631
(dp632
g12
S'id: 4'
p633
sbag0
(g1
g2
(lp634
g0
(g1
g2
(lp635
g0
(g1
g2
(lp636
g0
(g1
g2
(lp637
VUp
p638
atp639
Rp640
(dp641
g12
VIN
p642
sbag0
(g1
g2
(lp643
g0
(g1
g2
(lp644
Vhere
p645
atp646
Rp647
(dp648
g12
VRB
p649
sbatp650
Rp651
(dp652
g12
VNP
p653
sbatp654
Rp655
(dp656
g12
VPP
p657
sbag0
(g1
g2
(lp658
V,
p659
atp660
Rp661
(dp662
g12
V,
p663
sbag0
(g1
g2
(lp664
g0
(g1
g2
(lp665
Vthere
p666
atp667
Rp668
(dp669
g12
VEX
p670
sbatp671
Rp672
(dp673
g12
VNP
p674
sbag0
(g1
g2
(lp675
g0
(g1
g2
(lp676
V's
p677
atp678
Rp679
(dp680
g12
VVBZ
p681
sbag0
(g1
g2
(lp682
g0
(g1
g2
(lp683
Vthe
p684
atp685
Rp686
(dp687
g12
VDT
p688
sbag0
(g1
g2
(lp689
Vson
p690
atp691
Rp692
(dp693
g12
VNN
p694
sbatp695
Rp696
(dp697
g12
VNP
p698
sbatp699
Rp700
(dp701
g12
VVP
p702
sbag0
(g1
g2
(lp703
V.
p704
atp705
Rp706
(dp707
g12
V.
p708
sbatp709
Rp710
(dp711
g12
VS
p712
sbatp713
Rp714
(dp715
g12
S'id: 5'
p716
sbag0
(g1
g2
(lp717
g0
(g1
g2
(lp718
g0
(g1
g2
(lp719
g0
(g1
g2
(lp720
g0
(g1
g2
(lp721
VNow
p722
atp723
Rp724
(dp725
g12
VRB
p726
sbatp727
Rp728
(dp729
g12
VADVP
p730
sbag0
(g1
g2
(lp731
g0
(g1
g2
(lp732
Vhe
p733
atp734
Rp735
(dp736
g12
VPRP
p737
sbatp738
Rp739
(dp740
g12
VNP
p741
sbag0
(g1
g2
(lp742
g0
(g1
g2
(lp743
V's
p744
atp745
Rp746
(dp747
g12
VVBZ
p748
sbag0
(g1
g2
(lp749
g0
(g1
g2
(lp750
Vpushing
p751
atp752
Rp753
(dp754
g12
VVBG
p755
sbag0
(g1
g2
(lp756
g0
(g1
g2
(lp757
Vdown
p758
atp759
Rp760
(dp761
g12
VRP
p762
sbatp763
Rp764
(dp765
g12
VPRT
p766
sbag0
(g1
g2
(lp767
g0
(g1
g2
(lp768
Vhis
p769
atp770
Rp771
(dp772
g12
VPRP$
p773
sbatp774
Rp775
(dp776
g12
VNP
p777
sbatp778
Rp779
(dp780
g12
VVP
p781
sbatp782
Rp783
(dp784
g12
VVP
p785
sbatp786
Rp787
(dp788
g12
VS
p789
sbag0
(g1
g2
(lp790
V,
p791
atp792
Rp793
(dp794
g12
V,
p795
sbag0
(g1
g2
(lp796
g0
(g1
g2
(lp797
g0
(g1
g2
(lp798
g0
(g1
g2
(lp799
Vis
p800
atp801
Rp802
(dp803
g12
VVBZ
p804
sbag0
(g1
g2
(lp805
g0
(g1
g2
(lp806
Vright
p807
atp808
Rp809
(dp810
g12
VRB
p811
sbag0
(g1
g2
(lp812
Vthere
p813
atp814
Rp815
(dp816
g12
VRB
p817
sbatp818
Rp819
(dp820
g12
VADVP
p821
sbag0
(g1
g2
(lp822
g0
(g1
g2
(lp823
g0
(g1
g2
(lp824
Vchurch
p825
atp826
Rp827
(dp828
g12
VNN
p829
sbatp830
Rp831
(dp832
g12
VNP
p833
sbag0
(g1
g2
(lp834
V,
p835
atp836
Rp837
(dp838
g12
V,
p839
sbag0
(g1
g2
(lp840
Vnot
p841
atp842
Rp843
(dp844
g12
VRB
p845
sbag0
(g1
g2
(lp846
g0
(g1
g2
(lp847
Va
p848
atp849
Rp850
(dp851
g12
VDT
p852
sbag0
(g1
g2
(lp853
Vchurch
p854
atp855
Rp856
(dp857
g12
VNN
p858
sbatp859
Rp860
(dp861
g12
VNP
p862
sbatp863
Rp864
(dp865
g12
VNP
p866
sbatp867
Rp868
(dp869
g12
VVP
p870
sbatp871
Rp872
(dp873
g12
VS
p874
sbag0
(g1
g2
(lp875
V,
p876
atp877
Rp878
(dp879
g12
V,
p880
sbag0
(g1
g2
(lp881
g0
(g1
g2
(lp882
Vit
p883
atp884
Rp885
(dp886
g12
VPRP
p887
sbatp888
Rp889
(dp890
g12
VNP
p891
sbag0
(g1
g2
(lp892
g0
(g1
g2
(lp893
V's
p894
atp895
Rp896
(dp897
g12
VVBZ
p898
sbag0
(g1
g2
(lp899
g0
(g1
g2
(lp900
g0
(g1
g2
(lp901
Va
p902
atp903
Rp904
(dp905
g12
VDT
p906
sbag0
(g1
g2
(lp907
Vcosh
p908
atp909
Rp910
(dp911
g12
VNN
p912
sbatp913
Rp914
(dp915
g12
VNP
p916
sbag0
(g1
g2
(lp917
V,
p918
atp919
Rp920
(dp921
g12
V,
p922
sbag0
(g1
g2
(lp923
g0
(g1
g2
(lp924
Vs-t-o-o
p925
atp926
Rp927
(dp928
g12
VJJ
p929
sbag0
(g1
g2
(lp930
Vstool
p931
atp932
Rp933
(dp934
g12
VNN
p935
sbatp936
Rp937
(dp938
g12
VNP
p939
sbag0
(g1
g2
(lp940
V,
p941
atp942
Rp943
(dp944
g12
V,
p945
sbag0
(g1
g2
(lp946
Vand
p947
atp948
Rp949
(dp950
g12
VCC
p951
sbag0
(g1
g2
(lp952
g0
(g1
g2
(lp953
Vnow
p954
atp955
Rp956
(dp957
g12
VRB
p958
sbatp959
Rp960
(dp961
g12
VADVP
p962
sbag0
(g1
g2
(lp963
g0
(g1
g2
(lp964
g0
(g1
g2
(lp965
g0
(g1
g2
(lp966
Vshe
p967
atp968
Rp969
(dp970
g12
VPRP
p971
sbatp972
Rp973
(dp974
g12
VNP
p975
sbag0
(g1
g2
(lp976
g0
(g1
g2
(lp977
Vsay
p978
atp979
Rp980
(dp981
g12
VVBP
p982
sbag0
(g1
g2
(lp983
g0
(g1
g2
(lp984
Vha
p985
atp986
Rp987
(dp988
g12
VNN
p989
sbag0
(g1
g2
(lp990
Vha
p991
atp992
Rp993
(dp994
g12
VNN
p995
sbatp996
Rp997
(dp998
g12
VNP
p999
sbatp1000
Rp1001
(dp1002
g12
VVP
p1003
sbatp1004
Rp1005
(dp1006
g12
VS
p1007
sbatp1008
Rp1009
(dp1010
g12
VSBAR
p1011
sbatp1012
Rp1013
(dp1014
g12
VNP
p1015
sbatp1016
Rp1017
(dp1018
g12
VVP
p1019
sbatp1020
Rp1021
(dp1022
g12
VS
p1023
sbag0
(g1
g2
(lp1024
V,
p1025
atp1026
Rp1027
(dp1028
g12
V,
p1029
sbag0
(g1
g2
(lp1030
Vand
p1031
atp1032
Rp1033
(dp1034
g12
VCC
p1035
sbag0
(g1
g2
(lp1036
g0
(g1
g2
(lp1037
g0
(g1
g2
(lp1038
Vshe
p1039
atp1040
Rp1041
(dp1042
g12
VPRP
p1043
sbatp1044
Rp1045
(dp1046
g12
VNP
p1047
sbag0
(g1
g2
(lp1048
g0
(g1
g2
(lp1049
g0
(g1
g2
(lp1050
Vup
p1051
atp1052
Rp1053
(dp1054
g12
VRB
p1055
sbag0
(g1
g2
(lp1056
Vthere
p1057
atp1058
Rp1059
(dp1060
g12
VRB
p1061
sbatp1062
Rp1063
(dp1064
g12
VADVP
p1065
sbag0
(g1
g2
(lp1066
g0
(g1
g2
(lp1067
Vwith
p1068
atp1069
Rp1070
(dp1071
g12
VIN
p1072
sbag0
(g1
g2
(lp1073
g0
(g1
g2
(lp1074
Vher
p1075
atp1076
Rp1077
(dp1078
g12
VPRP$
p1079
sbag0
(g1
g2
(lp1080
Vhand
p1081
atp1082
Rp1083
(dp1084
g12
VNN
p1085
sbatp1086
Rp1087
(dp1088
g12
VNP
p1089
sbatp1090
Rp1091
(dp1092
g12
VPP
p1093
sbatp1094
Rp1095
(dp1096
g12
VADJP
p1097
sbatp1098
Rp1099
(dp1100
g12
VS
p1101
sbag0
(g1
g2
(lp1102
V.
p1103
atp1104
Rp1105
(dp1106
g12
V.
p1107
sbatp1108
Rp1109
(dp1110
g12
VS
p1111
sbatp1112
Rp1113
(dp1114
g12
S'id: 6'
p1115
sbag0
(g1
g2
(lp1116
g0
(g1
g2
(lp1117
g0
(g1
g2
(lp1118
VAnd
p1119
atp1120
Rp1121
(dp1122
g12
VCC
p1123
sbag0
(g1
g2
(lp1124
g0
(g1
g2
(lp1125
Vthey
p1126
atp1127
Rp1128
(dp1129
g12
VPRP
p1130
sbatp1131
Rp1132
(dp1133
g12
VNP
p1134
sbag0
(g1
g2
(lp1135
g0
(g1
g2
(lp1136
Vcant
p1137
atp1138
Rp1139
(dp1140
g12
VVBP
p1141
sbag0
(g1
g2
(lp1142
g0
(g1
g2
(lp1143
g0
(g1
g2
(lp1144
Vsee
p1145
atp1146
Rp1147
(dp1148
g12
VVB
p1149
sbag0
(g1
g2
(lp1150
g0
(g1
g2
(lp1151
g0
(g1
g2
(lp1152
Vwhatever
p1153
atp1154
Rp1155
(dp1156
g12
VWDT
p1157
sbatp1158
Rp1159
(dp1160
g12
VNP
p1161
sbag0
(g1
g2
(lp1162
g0
(g1
g2
(lp1163
Vshe
p1164
atp1165
Rp1166
(dp1167
g12
VPRP
p1168
sbatp1169
Rp1170
(dp1171
g12
VNP
p1172
sbatp1173
Rp1174
(dp1175
g12
VS
p1176
sbatp1177
Rp1178
(dp1179
g12
VVP
p1180
sbatp1181
Rp1182
(dp1183
g12
VS
p1184
sbatp1185
Rp1186
(dp1187
g12
VVP
p1188
sbag0
(g1
g2
(lp1189
V.
p1190
atp1191
Rp1192
(dp1193
g12
V.
p1194
sbatp1195
Rp1196
(dp1197
g12
VS
p1198
sbatp1199
Rp1200
(dp1201
g12
S'id: 7'
p1202
sbag0
(g1
g2
(lp1203
g0
(g1
g2
(lp1204
g0
(g1
g2
(lp1205
g0
(g1
g2
(lp1206
VSo
p1207
atp1208
Rp1209
(dp1210
g12
VRB
p1211
sbatp1212
Rp1213
(dp1214
g12
VADVP
p1215
sbag0
(g1
g2
(lp1216
V,
p1217
atp1218
Rp1219
(dp1220
g12
V,
p1221
sbag0
(g1
g2
(lp1222
Vand
p1223
atp1224
Rp1225
(dp1226
g12
VCC
p1227
sbag0
(g1
g2
(lp1228
g0
(g1
g2
(lp1229
Vso
p1230
atp1231
Rp1232
(dp1233
g12
VRB
p1234
sbatp1235
Rp1236
(dp1237
g12
VADVP
p1238
sbag0
(g1
g2
(lp1239
V,
p1240
atp1241
Rp1242
(dp1243
g12
V,
p1244
sbag0
(g1
g2
(lp1245
g0
(g1
g2
(lp1246
Vnow
p1247
atp1248
Rp1249
(dp1250
g12
VRB
p1251
sbatp1252
Rp1253
(dp1254
g12
VADVP
p1255
sbag0
(g1
g2
(lp1256
g0
(g1
g2
(lp1257
g0
(g1
g2
(lp1258
Vthey
p1259
atp1260
Rp1261
(dp1262
g12
VPRP
p1263
sbatp1264
Rp1265
(dp1266
g12
VNP
p1267
sbag0
(g1
g2
(lp1268
g0
(g1
g2
(lp1269
g0
(g1
g2
(lp1270
Vtaking
p1271
atp1272
Rp1273
(dp1274
g12
VVBG
p1275
sbag0
(g1
g2
(lp1276
g0
(g1
g2
(lp1277
Vtheir
p1278
atp1279
Rp1280
(dp1281
g12
VPRP$
p1282
sbag0
(g1
g2
(lp1283
Vcookies
p1284
atp1285
Rp1286
(dp1287
g12
VNNS
p1288
sbatp1289
Rp1290
(dp1291
g12
VNP
p1292
sbatp1293
Rp1294
(dp1295
g12
VVP
p1296
sbag0
(g1
g2
(lp1297
V,
p1298
atp1299
Rp1300
(dp1301
g12
V,
p1302
sbag0
(g1
g2
(lp1303
Vand
p1304
atp1305
Rp1306
(dp1307
g12
VCC
p1308
sbag0
(g1
g2
(lp1309
g0
(g1
g2
(lp1310
Vthinking
p1311
atp1312
Rp1313
(dp1314
g12
VVBG
p1315
sbag0
(g1
g2
(lp1316
g0
(g1
g2
(lp1317
Vthey
p1318
atp1319
Rp1320
(dp1321
g12
VPRP
p1322
sbatp1323
Rp1324
(dp1325
g12
VNP
p1326
sbatp1327
Rp1328
(dp1329
g12
VVP
p1330
sbatp1331
Rp1332
(dp1333
g12
VVP
p1334
sbatp1335
Rp1336
(dp1337
g12
VNP
p1338
sbag0
(g1
g2
(lp1339
g0
(g1
g2
(lp1340
Vcan
p1341
atp1342
Rp1343
(dp1344
g12
VMD
p1345
sbag0
(g1
g2
(lp1346
g0
(g1
g2
(lp1347
Veat
p1348
atp1349
Rp1350
(dp1351
g12
VVB
p1352
sbag0
(g1
g2
(lp1353
g0
(g1
g2
(lp1354
Veverything
p1355
atp1356
Rp1357
(dp1358
g12
VNN
p1359
sbatp1360
Rp1361
(dp1362
g12
VNP
p1363
sbatp1364
Rp1365
(dp1366
g12
VVP
p1367
sbatp1368
Rp1369
(dp1370
g12
VVP
p1371
sbag0
(g1
g2
(lp1372
V.
p1373
atp1374
Rp1375
(dp1376
g12
V.
p1377
sbatp1378
Rp1379
(dp1380
g12
VS
p1381
sbatp1382
Rp1383
(dp1384
g12
S'id: 8'
p1385
sbag0
(g1
g2
(lp1386
g0
(g1
g2
(lp1387
g0
(g1
g2
(lp1388
g0
(g1
g2
(lp1389
VAnd
p1390
atp1391
Rp1392
(dp1393
g12
VCC
p1394
sbag0
(g1
g2
(lp1395
V,
p1396
atp1397
Rp1398
(dp1399
g12
V,
p1400
sbag0
(g1
g2
(lp1401
g0
(g1
g2
(lp1402
g0
(g1
g2
(lp1403
Vso
p1404
atp1405
Rp1406
(dp1407
g12
VRB
p1408
sbag0
(g1
g2
(lp1409
Vnow
p1410
atp1411
Rp1412
(dp1413
g12
VRB
p1414
sbag0
(g1
g2
(lp1415
Vwell
p1416
atp1417
Rp1418
(dp1419
g12
VRB
p1420
sbatp1421
Rp1422
(dp1423
g12
VADVP
p1424
sbag0
(g1
g2
(lp1425
g0
(g1
g2
(lp1426
g0
(g1
g2
(lp1427
Vshe
p1428
atp1429
Rp1430
(dp1431
g12
VPRP
p1432
sbatp1433
Rp1434
(dp1435
g12
VNP
p1436
sbag0
(g1
g2
(lp1437
g0
(g1
g2
(lp1438
V's
p1439
atp1440
Rp1441
(dp1442
g12
VVBZ
p1443
sbag0
(g1
g2
(lp1444
g0
(g1
g2
(lp1445
Vgot
p1446
atp1447
Rp1448
(dp1449
g12
VVBD
p1450
sbag0
(g1
g2
(lp1451
g0
(g1
g2
(lp1452
Vher
p1453
atp1454
Rp1455
(dp1456
g12
VPRP$
p1457
sbag0
(g1
g2
(lp1458
Vshoes
p1459
atp1460
Rp1461
(dp1462
g12
VNNS
p1463
sbatp1464
Rp1465
(dp1466
g12
VNP
p1467
sbatp1468
Rp1469
(dp1470
g12
VVP
p1471
sbatp1472
Rp1473
(dp1474
g12
VVP
p1475
sbatp1476
Rp1477
(dp1478
g12
VS
p1479
sbatp1480
Rp1481
(dp1482
g12
VSBAR
p1483
sbag0
(g1
g2
(lp1484
V,
p1485
atp1486
Rp1487
(dp1488
g12
V,
p1489
sbag0
(g1
g2
(lp1490
g0
(g1
g2
(lp1491
Vhe
p1492
atp1493
Rp1494
(dp1495
g12
VPRP
p1496
sbatp1497
Rp1498
(dp1499
g12
VNP
p1500
sbag0
(g1
g2
(lp1501
g0
(g1
g2
(lp1502
Vgot
p1503
atp1504
Rp1505
(dp1506
g12
VVBD
p1507
sbag0
(g1
g2
(lp1508
g0
(g1
g2
(lp1509
Vthat
p1510
atp1511
Rp1512
(dp1513
g12
VIN
p1514
sbatp1515
Rp1516
(dp1517
g12
VADVP
p1518
sbatp1519
Rp1520
(dp1521
g12
VVP
p1522
sbatp1523
Rp1524
(dp1525
g12
VS
p1526
sbag0
(g1
g2
(lp1527
V,
p1528
atp1529
Rp1530
(dp1531
g12
V,
p1532
sbag0
(g1
g2
(lp1533
Vand
p1534
atp1535
Rp1536
(dp1537
g12
VCC
p1538
sbag0
(g1
g2
(lp1539
g0
(g1
g2
(lp1540
g0
(g1
g2
(lp1541
Vit
p1542
atp1543
Rp1544
(dp1545
g12
VPRP
p1546
sbatp1547
Rp1548
(dp1549
g12
VNP
p1550
sbag0
(g1
g2
(lp1551
g0
(g1
g2
(lp1552
Vpretty
p1553
atp1554
Rp1555
(dp1556
g12
VRB
p1557
sbag0
(g1
g2
(lp1558
Vbad
p1559
atp1560
Rp1561
(dp1562
g12
VJJ
p1563
sbatp1564
Rp1565
(dp1566
g12
VADJP
p1567
sbatp1568
Rp1569
(dp1570
g12
VS
p1571
sbag0
(g1
g2
(lp1572
V.
p1573
atp1574
Rp1575
(dp1576
g12
V.
p1577
sbatp1578
Rp1579
(dp1580
g12
VS
p1581
sbatp1582
Rp1583
(dp1584
g12
S'id: 9'
p1585
sbag0
(g1
g2
(lp1586
g0
(g1
g2
(lp1587
g0
(g1
g2
(lp1588
g0
(g1
g2
(lp1589
g0
(g1
g2
(lp1590
VThey
p1591
atp1592
Rp1593
(dp1594
g12
VPRP
p1595
sbatp1596
Rp1597
(dp1598
g12
VNP
p1599
sbag0
(g1
g2
(lp1600
g0
(g1
g2
(lp1601
V're
p1602
atp1603
Rp1604
(dp1605
g12
VVBP
p1606
sbag0
(g1
g2
(lp1607
g0
(g1
g2
(lp1608
Vnice
p1609
atp1610
Rp1611
(dp1612
g12
VJJ
p1613
sbatp1614
Rp1615
(dp1616
g12
VADJP
p1617
sbatp1618
Rp1619
(dp1620
g12
VVP
p1621
sbatp1622
Rp1623
(dp1624
g12
VS
p1625
sbag0
(g1
g2
(lp1626
V,
p1627
atp1628
Rp1629
(dp1630
g12
V,
p1631
sbag0
(g1
g2
(lp1632
Vand
p1633
atp1634
Rp1635
(dp1636
g12
VCC
p1637
sbag0
(g1
g2
(lp1638
g0
(g1
g2
(lp1639
g0
(g1
g2
(lp1640
Vthat
p1641
atp1642
Rp1643
(dp1644
g12
VDT
p1645
sbatp1646
Rp1647
(dp1648
g12
VNP
p1649
sbag0
(g1
g2
(lp1650
g0
(g1
g2
(lp1651
V's
p1652
atp1653
Rp1654
(dp1655
g12
VVBZ
p1656
sbag0
(g1
g2
(lp1657
g0
(g1
g2
(lp1658
Vhis
p1659
atp1660
Rp1661
(dp1662
g12
VPRP$
p1663
sbag0
(g1
g2
(lp1664
Vmom
p1665
atp1666
Rp1667
(dp1668
g12
VNN
p1669
sbatp1670
Rp1671
(dp1672
g12
VNP
p1673
sbatp1674
Rp1675
(dp1676
g12
VVP
p1677
sbatp1678
Rp1679
(dp1680
g12
VS
p1681
sbag0
(g1
g2
(lp1682
V.
p1683
atp1684
Rp1685
(dp1686
g12
V.
p1687
sbatp1688
Rp1689
(dp1690
g12
VS
p1691
sbatp1692
Rp1693
(dp1694
g12
S'id: 10'
p1695
sbag0
(g1
g2
(lp1696
g0
(g1
g2
(lp1697
g0
(g1
g2
(lp1698
g0
(g1
g2
(lp1699
VSo
p1700
atp1701
Rp1702
(dp1703
g12
VRB
p1704
sbatp1705
Rp1706
(dp1707
g12
VADVP
p1708
sbag0
(g1
g2
(lp1709
V,
p1710
atp1711
Rp1712
(dp1713
g12
V,
p1714
sbag0
(g1
g2
(lp1715
g0
(g1
g2
(lp1716
Vand
p1717
atp1718
Rp1719
(dp1720
g12
VCC
p1721
sbag0
(g1
g2
(lp1722
g0
(g1
g2
(lp1723
Vthat
p1724
atp1725
Rp1726
(dp1727
g12
VDT
p1728
sbatp1729
Rp1730
(dp1731
g12
VNP
p1732
sbag0
(g1
g2
(lp1733
g0
(g1
g2
(lp1734
V's
p1735
atp1736
Rp1737
(dp1738
g12
VVBZ
p1739
sbatp1740
Rp1741
(dp1742
g12
VVP
p1743
sbatp1744
Rp1745
(dp1746
g12
VS
p1747
sbag0
(g1
g2
(lp1748
V,
p1749
atp1750
Rp1751
(dp1752
g12
V,
p1753
sbag0
(g1
g2
(lp1754
Vand
p1755
atp1756
Rp1757
(dp1758
g12
VCC
p1759
sbag0
(g1
g2
(lp1760
g0
(g1
g2
(lp1761
g0
(g1
g2
(lp1762
Vthat
p1763
atp1764
Rp1765
(dp1766
g12
VDT
p1767
sbatp1768
Rp1769
(dp1770
g12
VNP
p1771
sbag0
(g1
g2
(lp1772
g0
(g1
g2
(lp1773
V's
p1774
atp1775
Rp1776
(dp1777
g12
VVBZ
p1778
sbag0
(g1
g2
(lp1779
g0
(g1
g2
(lp1780
Vin
p1781
atp1782
Rp1783
(dp1784
g12
VIN
p1785
sbag0
(g1
g2
(lp1786
g0
(g1
g2
(lp1787
Vhis
p1788
atp1789
Rp1790
(dp1791
g12
VPRP$
p1792
sbatp1793
Rp1794
(dp1795
g12
VNP
p1796
sbatp1797
Rp1798
(dp1799
g12
VPP
p1800
sbatp1801
Rp1802
(dp1803
g12
VVP
p1804
sbatp1805
Rp1806
(dp1807
g12
VS
p1808
sbag0
(g1
g2
(lp1809
V,
p1810
atp1811
Rp1812
(dp1813
g12
V,
p1814
sbag0
(g1
g2
(lp1815
g0
(g1
g2
(lp1816
g0
(g1
g2
(lp1817
Vhis
p1818
atp1819
Rp1820
(dp1821
g12
VPRP$
p1822
sbatp1823
Rp1824
(dp1825
g12
VNP
p1826
sbag0
(g1
g2
(lp1827
V,
p1828
atp1829
Rp1830
(dp1831
g12
V,
p1832
sbag0
(g1
g2
(lp1833
g0
(g1
g2
(lp1834
Vyeah
p1835
atp1836
Rp1837
(dp1838
g12
VRB
p1839
sbatp1840
Rp1841
(dp1842
g12
VADVP
p1843
sbag0
(g1
g2
(lp1844
V,
p1845
atp1846
Rp1847
(dp1848
g12
V,
p1849
sbag0
(g1
g2
(lp1850
g0
(g1
g2
(lp1851
Vthat
p1852
atp1853
Rp1854
(dp1855
g12
VDT
p1856
sbatp1857
Rp1858
(dp1859
g12
VNP
p1860
sbag0
(g1
g2
(lp1861
g0
(g1
g2
(lp1862
V's
p1863
atp1864
Rp1865
(dp1866
g12
VVBZ
p1867
sbag0
(g1
g2
(lp1868
g0
(g1
g2
(lp1869
Vdown
p1870
atp1871
Rp1872
(dp1873
g12
VRB
p1874
sbatp1875
Rp1876
(dp1877
g12
VADVP
p1878
sbag0
(g1
g2
(lp1879
V,
p1880
atp1881
Rp1882
(dp1883
g12
V,
p1884
sbag0
(g1
g2
(lp1885
g0
(g1
g2
(lp1886
Vup
p1887
atp1888
Rp1889
(dp1890
g12
VRB
p1891
sbag0
(g1
g2
(lp1892
Vhere
p1893
atp1894
Rp1895
(dp1896
g12
VRB
p1897
sbatp1898
Rp1899
(dp1900
g12
VADVP
p1901
sbatp1902
Rp1903
(dp1904
g12
VVP
p1905
sbatp1906
Rp1907
(dp1908
g12
VS
p1909
sbag0
(g1
g2
(lp1910
V,
p1911
atp1912
Rp1913
(dp1914
g12
V,
p1915
sbag0
(g1
g2
(lp1916
Vand
p1917
atp1918
Rp1919
(dp1920
g12
VCC
p1921
sbag0
(g1
g2
(lp1922
g0
(g1
g2
(lp1923
g0
(g1
g2
(lp1924
Vup
p1925
atp1926
Rp1927
(dp1928
g12
VRB
p1929
sbag0
(g1
g2
(lp1930
Vhere
p1931
atp1932
Rp1933
(dp1934
g12
VRB
p1935
sbatp1936
Rp1937
(dp1938
g12
VADVP
p1939
sbag0
(g1
g2
(lp1940
V,
p1941
atp1942
Rp1943
(dp1944
g12
V,
p1945
sbag0
(g1
g2
(lp1946
g0
(g1
g2
(lp1947
Vthat
p1948
atp1949
Rp1950
(dp1951
g12
VDT
p1952
sbatp1953
Rp1954
(dp1955
g12
VNP
p1956
sbag0
(g1
g2
(lp1957
g0
(g1
g2
(lp1958
V's
p1959
atp1960
Rp1961
(dp1962
g12
VVBZ
p1963
sbag0
(g1
g2
(lp1964
g0
(g1
g2
(lp1965
g0
(g1
g2
(lp1966
g0
(g1
g2
(lp1967
Vchi
p1968
atp1969
Rp1970
(dp1971
g12
VNN
p1972
sbatp1973
Rp1974
(dp1975
g12
VNP
p1976
sbag0
(g1
g2
(lp1977
g0
(g1
g2
(lp1978
V-
p1979
atp1980
Rp1981
(dp1982
g12
V:
p1983
sbag0
(g1
g2
(lp1984
Vnot
p1985
atp1986
Rp1987
(dp1988
g12
VRB
p1989
sbag0
(g1
g2
(lp1990
g0
(g1
g2
(lp1991
Vchicken
p1992
atp1993
Rp1994
(dp1995
g12
VNN
p1996
sbag0
(g1
g2
(lp1997
V,
p1998
atp1999
Rp2000
(dp2001
g12
V,
p2002
sbag0
(g1
g2
(lp2003
Vc-a-b-i
p2004
atp2005
Rp2006
(dp2007
g12
VNN
p2008
sbag0
(g1
g2
(lp2009
V,
p2010
atp2011
Rp2012
(dp2013
g12
V,
p2014
sbag0
(g1
g2
(lp2015
Vcabi
p2016
atp2017
Rp2018
(dp2019
g12
VNN
p2020
sbatp2021
Rp2022
(dp2023
g12
VNP
p2024
sbatp2025
Rp2026
(dp2027
g12
VPRN
p2028
sbatp2029
Rp2030
(dp2031
g12
VNP
p2032
sbag0
(g1
g2
(lp2033
V,
p2034
atp2035
Rp2036
(dp2037
g12
V,
p2038
sbag0
(g1
g2
(lp2039
g0
(g1
g2
(lp2040
g0
(g1
g2
(lp2041
Vcable
p2042
atp2043
Rp2044
(dp2045
g12
VNN
p2046
sbatp2047
Rp2048
(dp2049
g12
VNP
p2050
sbag0
(g1
g2
(lp2051
V,
p2052
atp2053
Rp2054
(dp2055
g12
V,
p2056
sbag0
(g1
g2
(lp2057
g0
(g1
g2
(lp2058
Vtable
p2059
atp2060
Rp2061
(dp2062
g12
VNN
p2063
sbatp2064
Rp2065
(dp2066
g12
VNP
p2067
sbatp2068
Rp2069
(dp2070
g12
VNP
p2071
sbatp2072
Rp2073
(dp2074
g12
VNP
p2075
sbatp2076
Rp2077
(dp2078
g12
VVP
p2079
sbatp2080
Rp2081
(dp2082
g12
VS
p2083
sbag0
(g1
g2
(lp2084
V.
p2085
atp2086
Rp2087
(dp2088
g12
V.
p2089
sbatp2090
Rp2091
(dp2092
g12
VS
p2093
sbatp2094
Rp2095
(dp2096
g12
S'id: 11'
p2097
sbag0
(g1
g2
(lp2098
g0
(g1
g2
(lp2099
g0
(g1
g2
(lp2100
VAnd
p2101
atp2102
Rp2103
(dp2104
g12
VCC
p2105
sbag0
(g1
g2
(lp2106
g0
(g1
g2
(lp2107
g0
(g1
g2
(lp2108
g0
(g1
g2
(lp2109
Vthere
p2110
atp2111
Rp2112
(dp2113
g12
VEX
p2114
sbatp2115
Rp2116
(dp2117
g12
VNP
p2118
sbag0
(g1
g2
(lp2119
g0
(g1
g2
(lp2120
Vout
p2121
atp2122
Rp2123
(dp2124
g12
VRP
p2125
sbatp2126
Rp2127
(dp2128
g12
VADVP
p2129
sbatp2130
Rp2131
(dp2132
g12
VNP
p2133
sbag0
(g1
g2
(lp2134
g0
(g1
g2
(lp2135
Vin
p2136
atp2137
Rp2138
(dp2139
g12
VIN
p2140
sbag0
(g1
g2
(lp2141
g0
(g1
g2
(lp2142
g0
(g1
g2
(lp2143
Vthe
p2144
atp2145
Rp2146
(dp2147
g12
VDT
p2148
sbag0
(g1
g2
(lp2149
Vwater
p2150
atp2151
Rp2152
(dp2153
g12
VNN
p2154
sbatp2155
Rp2156
(dp2157
g12
VNP
p2158
sbag0
(g1
g2
(lp2159
V,
p2160
atp2161
Rp2162
(dp2163
g12
V,
p2164
sbag0
(g1
g2
(lp2165
g0
(g1
g2
(lp2166
Voutside
p2167
atp2168
Rp2169
(dp2170
g12
VNN
p2171
sbatp2172
Rp2173
(dp2174
g12
VNP
p2175
sbatp2176
Rp2177
(dp2178
g12
VNP
p2179
sbatp2180
Rp2181
(dp2182
g12
VPP
p2183
sbatp2184
Rp2185
(dp2186
g12
VNP
p2187
sbag0
(g1
g2
(lp2188
V.
p2189
atp2190
Rp2191
(dp2192
g12
V.
p2193
sbatp2194
Rp2195
(dp2196
g12
VFRAG
p2197
sbatp2198
Rp2199
(dp2200
g12
S'id: 12'
p2201
sbag0
(g1
g2
(lp2202
g0
(g1
g2
(lp2203
g0
(g1
g2
(lp2204
g0
(g1
g2
(lp2205
VThere
p2206
atp2207
Rp2208
(dp2209
g12
VEX
p2210
sbatp2211
Rp2212
(dp2213
g12
VNP
p2214
sbag0
(g1
g2
(lp2215
g0
(g1
g2
(lp2216
V's
p2217
atp2218
Rp2219
(dp2220
g12
VVBZ
p2221
sbag0
(g1
g2
(lp2222
g0
(g1
g2
(lp2223
Va
p2224
atp2225
Rp2226
(dp2227
g12
VDT
p2228
sbag0
(g1
g2
(lp2229
Vtree
p2230
atp2231
Rp2232
(dp2233
g12
VNN
p2234
sbatp2235
Rp2236
(dp2237
g12
VNP
p2238
sbatp2239
Rp2240
(dp2241
g12
VVP
p2242
sbag0
(g1
g2
(lp2243
V.
p2244
atp2245
Rp2246
(dp2247
g12
V.
p2248
sbatp2249
Rp2250
(dp2251
g12
VS
p2252
sbatp2253
Rp2254
(dp2255
g12
S'id: 13'
p2256
sbag0
(g1
g2
(lp2257
g0
(g1
g2
(lp2258
g0
(g1
g2
(lp2259
g0
(g1
g2
(lp2260
VThat
p2261
atp2262
Rp2263
(dp2264
g12
VDT
p2265
sbatp2266
Rp2267
(dp2268
g12
VNP
p2269
sbag0
(g1
g2
(lp2270
g0
(g1
g2
(lp2271
V's
p2272
atp2273
Rp2274
(dp2275
g12
VVBZ
p2276
sbag0
(g1
g2
(lp2277
g0
(g1
g2
(lp2278
Vthe
p2279
atp2280
Rp2281
(dp2282
g12
VDT
p2283
sbag0
(g1
g2
(lp2284
Vgrass
p2285
atp2286
Rp2287
(dp2288
g12
VNN
p2289
sbatp2290
Rp2291
(dp2292
g12
VNP
p2293
sbatp2294
Rp2295
(dp2296
g12
VVP
p2297
sbag0
(g1
g2
(lp2298
V.
p2299
atp2300
Rp2301
(dp2302
g12
V.
p2303
sbatp2304
Rp2305
(dp2306
g12
VS
p2307
sbatp2308
Rp2309
(dp2310
g12
S'id: 14'
p2311
sbag0
(g1
g2
(lp2312
g0
(g1
g2
(lp2313
g0
(g1
g2
(lp2314
g0
(g1
g2
(lp2315
VThat
p2316
atp2317
Rp2318
(dp2319
g12
VDT
p2320
sbatp2321
Rp2322
(dp2323
g12
VNP
p2324
sbag0
(g1
g2
(lp2325
g0
(g1
g2
(lp2326
V's
p2327
atp2328
Rp2329
(dp2330
g12
VVBZ
p2331
sbag0
(g1
g2
(lp2332
g0
(g1
g2
(lp2333
g0
(g1
g2
(lp2334
Vpretty
p2335
atp2336
Rp2337
(dp2338
g12
VRB
p2339
sbag0
(g1
g2
(lp2340
Vmuch
p2341
atp2342
Rp2343
(dp2344
g12
VJJ
p2345
sbatp2346
Rp2347
(dp2348
g12
VADJP
p2349
sbag0
(g1
g2
(lp2350
Veverything
p2351
atp2352
Rp2353
(dp2354
g12
VNN
p2355
sbatp2356
Rp2357
(dp2358
g12
VNP
p2359
sbatp2360
Rp2361
(dp2362
g12
VVP
p2363
sbag0
(g1
g2
(lp2364
V.
p2365
atp2366
Rp2367
(dp2368
g12
V.
p2369
sbatp2370
Rp2371
(dp2372
g12
VS
p2373
sbatp2374
Rp2375
(dp2376
g12
S'id: 15'
p2377
sbag0
(g1
g2
(lp2378
g0
(g1
g2
(lp2379
g0
(g1
g2
(lp2380
g0
(g1
g2
(lp2381
VShe
p2382
atp2383
Rp2384
(dp2385
g12
VPRP
p2386
sbatp2387
Rp2388
(dp2389
g12
VNP
p2390
sbag0
(g1
g2
(lp2391
g0
(g1
g2
(lp2392
V's
p2393
atp2394
Rp2395
(dp2396
g12
VVBZ
p2397
sbatp2398
Rp2399
(dp2400
g12
VVP
p2401
sbatp2402
Rp2403
(dp2404
g12
VS
p2405
sbatp2406
Rp2407
(dp2408
g12
S'id: 16'
p2409
sbatp2410
Rp2411
(dp2412
g12
S'sentences'
p2413
sb.