ccopy_reg
_reconstructor
p0
(cnltk.tree
Tree
p1
c__builtin__
list
p2
(lp3
g0
(g1
g2
(lp4
g0
(g1
g2
(lp5
g0
(g1
g2
(lp6
VThe boy
p7
atp8
Rp9
(dp10
S'_label'
p11
S'start: 1'
p12
sbatp13
Rp14
(dp15
g11
S'sent: 1'
p16
sbag0
(g1
g2
(lp17
g0
(g1
g2
(lp18
Vhis
p19
atp20
Rp21
(dp22
g11
S'start: 14'
p23
sbatp24
Rp25
(dp26
g11
S'sent: 1'
p27
sbag0
(g1
g2
(lp28
g0
(g1
g2
(lp29
Vhe
p30
atp31
Rp32
(dp33
g11
S'start: 3'
p34
sbatp35
Rp36
(dp37
g11
S'sent: 2'
p38
sbag0
(g1
g2
(lp39
g0
(g1
g2
(lp40
Vhe
p41
atp42
Rp43
(dp44
g11
S'start: 11'
p45
sbatp46
Rp47
(dp48
g11
S'sent: 2'
p49
sbag0
(g1
g2
(lp50
g0
(g1
g2
(lp51
Vabout to fall
p52
atp53
Rp54
(dp55
g11
S'start: 13'
p56
sbatp57
Rp58
(dp59
g11
S'sent: 2'
p60
sbatp61
Rp62
(dp63
g11
S'id: 1'
p64
sbag0
(g1
g2
(lp65
g0
(g1
g2
(lp66
g0
(g1
g2
(lp67
Vthe mama 's
p68
atp69
Rp70
(dp71
g11
S'start: 2'
p72
sbatp73
Rp74
(dp75
g11
S'sent: 3'
p76
sbag0
(g1
g2
(lp77
g0
(g1
g2
(lp78
Vshe
p79
atp80
Rp81
(dp82
g11
S'start: 10'
p83
sbatp84
Rp85
(dp86
g11
S'sent: 3'
p87
sbag0
(g1
g2
(lp88
g0
(g1
g2
(lp89
Vshe
p90
atp91
Rp92
(dp93
g11
S'start: 19'
p94
sbatp95
Rp96
(dp97
g11
S'sent: 3'
p98
sbag0
(g1
g2
(lp99
g0
(g1
g2
(lp100
Vshe
p101
atp102
Rp103
(dp104
g11
S'start: 2'
p105
sbatp106
Rp107
(dp108
g11
S'sent: 4'
p109
sbag0
(g1
g2
(lp110
g0
(g1
g2
(lp111
Vshe
p112
atp113
Rp114
(dp115
g11
S'start: 5'
p116
sbatp117
Rp118
(dp119
g11
S'sent: 4'
p120
sbag0
(g1
g2
(lp121
g0
(g1
g2
(lp122
Vshe
p123
atp124
Rp125
(dp126
g11
S'start: 14'
p127
sbatp128
Rp129
(dp130
g11
S'sent: 4'
p131
sbag0
(g1
g2
(lp132
g0
(g1
g2
(lp133
Vshe
p134
atp135
Rp136
(dp137
g11
S'start: 29'
p138
sbatp139
Rp140
(dp141
g11
S'sent: 4'
p142
sbag0
(g1
g2
(lp143
g0
(g1
g2
(lp144
Vher
p145
atp146
Rp147
(dp148
g11
S'start: 5'
p149
sbatp150
Rp151
(dp152
g11
S'sent: 6'
p153
sbag0
(g1
g2
(lp154
g0
(g1
g2
(lp155
VShe
p156
atp157
Rp158
(dp159
g11
S'start: 1'
p160
sbatp161
Rp162
(dp163
g11
S'sent: 9'
p164
sbag0
(g1
g2
(lp165
g0
(g1
g2
(lp166
Vshe
p167
atp168
Rp169
(dp170
g11
S'start: 12'
p171
sbatp172
Rp173
(dp174
g11
S'sent: 9'
p175
sbag0
(g1
g2
(lp176
g0
(g1
g2
(lp177
VShe
p178
atp179
Rp180
(dp181
g11
S'start: 1'
p182
sbatp183
Rp184
(dp185
g11
S'sent: 10'
p186
sbag0
(g1
g2
(lp187
g0
(g1
g2
(lp188
Va just finishing up supper
p189
atp190
Rp191
(dp192
g11
S'start: 6'
p193
sbatp194
Rp195
(dp196
g11
S'sent: 10'
p197
sbatp198
Rp199
(dp200
g11
S'id: 10'
p201
sbag0
(g1
g2
(lp202
g0
(g1
g2
(lp203
g0
(g1
g2
(lp204
Vthe dishes
p205
atp206
Rp207
(dp208
g11
S'start: 6'
p209
sbatp210
Rp211
(dp212
g11
S'sent: 3'
p213
sbag0
(g1
g2
(lp214
g0
(g1
g2
(lp215
Vdishes
p216
atp217
Rp218
(dp219
g11
S'start: 10'
p220
sbatp221
Rp222
(dp223
g11
S'sent: 4'
p224
sbag0
(g1
g2
(lp225
g0
(g1
g2
(lp226
Vthat
p227
atp228
Rp229
(dp230
g11
S'start: 2'
p231
sbatp232
Rp233
(dp234
g11
S'sent: 5'
p235
sbatp236
Rp237
(dp238
g11
S'id: 11'
p239
sbag0
(g1
g2
(lp240
g0
(g1
g2
(lp241
g0
(g1
g2
(lp242
Vthe floor
p243
atp244
Rp245
(dp246
g11
S'start: 15'
p247
sbatp248
Rp249
(dp250
g11
S'sent: 3'
p251
sbag0
(g1
g2
(lp252
g0
(g1
g2
(lp253
Vthe floor
p254
atp255
Rp256
(dp257
g11
S'start: 26'
p258
sbatp259
Rp260
(dp261
g11
S'sent: 4'
p262
sbatp263
Rp264
(dp265
g11
S'id: 13'
p266
sbag0
(g1
g2
(lp267
g0
(g1
g2
(lp268
g0
(g1
g2
(lp269
Vthe little boy
p270
atp271
Rp272
(dp273
g11
S'start: 37'
p274
sbatp275
Rp276
(dp277
g11
S'sent: 4'
p278
sbag0
(g1
g2
(lp279
g0
(g1
g2
(lp280
Vthe little boy
p281
atp282
Rp283
(dp284
g11
S'start: 4'
p285
sbatp286
Rp287
(dp288
g11
S'sent: 7'
p289
sbag0
(g1
g2
(lp290
g0
(g1
g2
(lp291
Vhis
p292
atp293
Rp294
(dp295
g11
S'start: 21'
p296
sbatp297
Rp298
(dp299
g11
S'sent: 7'
p300
sbatp301
Rp302
(dp303
g11
S'id: 23'
p304
sbag0
(g1
g2
(lp305
g0
(g1
g2
(lp306
g0
(g1
g2
(lp307
Vshoes
p308
atp309
Rp310
(dp311
g11
S'start: 9'
p312
sbatp313
Rp314
(dp315
g11
S'sent: 6'
p316
sbag0
(g1
g2
(lp317
g0
(g1
g2
(lp318
Vshoes
p319
atp320
Rp321
(dp322
g11
S'start: 18'
p323
sbatp324
Rp325
(dp326
g11
S'sent: 7'
p327
sbatp328
Rp329
(dp330
g11
S'id: 32'
p331
sbag0
(g1
g2
(lp332
g0
(g1
g2
(lp333
g0
(g1
g2
(lp334
Vta turn that water off
p335
atp336
Rp337
(dp338
g11
S'start: 5'
p339
sbatp340
Rp341
(dp342
g11
S'sent: 9'
p343
sbag0
(g1
g2
(lp344
g0
(g1
g2
(lp345
Vit
p346
atp347
Rp348
(dp349
g11
S'start: 3'
p350
sbatp351
Rp352
(dp353
g11
S'sent: 11'
p354
sbatp355
Rp356
(dp357
g11
S'id: 43'
p358
sbatp359
Rp360
(dp361
g11
S'coreferences'
p362
sb.