ccopy_reg
_reconstructor
p0
(cnltk.tree
Tree
p1
c__builtin__
list
p2
(lp3
g0
(g1
g2
(lp4
g0
(g1
g2
(lp5
g0
(g1
g2
(lp6
(lp7
S'word: boy, index: 2'
p8
aatp9
Rp10
(dp11
S'_label'
p12
Vdiscourse
p13
sbatp14
Rp15
(dp16
g12
S'word: oh, index: 1'
p17
sbatp18
Rp19
(dp20
g12
S'id: 0'
p21
sbag0
(g1
g2
(lp22
g0
(g1
g2
(lp23
g0
(g1
g2
(lp24
(lp25
S'word: woman, index: 4'
p26
aatp27
Rp28
(dp29
g12
Vnsubj
p30
sbag0
(g1
g2
(lp31
(lp32
S'word: were, index: 5'
p33
aatp34
Rp35
(dp36
g12
Vcop
p37
sbag0
(g1
g2
(lp38
g0
(g1
g2
(lp39
g0
(g1
g2
(lp40
g0
(g1
g2
(lp41
g0
(g1
g2
(lp42
(lp43
S'word: the, index: 8'
p44
aatp45
Rp46
(dp47
g12
Vpredet
p48
sbag0
(g1
g2
(lp49
(lp50
S'word: the, index: 9'
p51
aatp52
Rp53
(dp54
g12
Vdet
p55
sbatp56
Rp57
(dp58
g12
S'word: wine, index: 10'
p59
sbatp60
Rp61
(dp62
g12
Vdobj
p63
sbag0
(g1
g2
(lp64
g0
(g1
g2
(lp65
g0
(g1
g2
(lp66
g0
(g1
g2
(lp67
g0
(g1
g2
(lp68
(lp69
S'word: the, index: 15'
p70
aatp71
Rp72
(dp73
g12
Vdet
p74
sbatp75
Rp76
(dp77
g12
S'word: music, index: 16'
p78
sbatp79
Rp80
(dp81
g12
Vprep
p82
sbatp83
Rp84
(dp85
g12
S'word: listen, index: 13'
p86
sbatp87
Rp88
(dp89
g12
Vconj
p90
sbatp91
Rp92
(dp93
g12
S'word: poring, index: 7'
p94
sbatp95
Rp96
(dp97
g12
Vdep
p98
sbag0
(g1
g2
(lp99
g84
atp100
Rp101
(dp102
g12
Vdep
p103
sbag0
(g1
g2
(lp104
g0
(g1
g2
(lp105
g0
(g1
g2
(lp106
(lp107
S'word: woman, index: 4'
p108
aatp109
Rp110
(dp111
g12
Vconj
p112
sbag0
(g1
g2
(lp113
(lp114
S'word: The, index: 1'
p115
aatp116
Rp117
(dp118
g12
Vdet
p119
sbatp120
Rp121
(dp122
g12
S'word: man, index: 2'
p123
sbatp124
Rp125
(dp126
g12
Vnsubj
p127
sbatp128
Rp129
(dp130
g12
S'word: a, index: 6'
p131
sbatp132
Rp133
(dp134
g12
S'id: 1'
p135
sbag0
(g1
g2
(lp136
g0
(g1
g2
(lp137
g0
(g1
g2
(lp138
(lp139
S'word: outside, index: 14'
p140
aatp141
Rp142
(dp143
g12
Vprep
p144
sbag0
(g1
g2
(lp145
(lp146
S'word: The, index: 1'
p147
aatp148
Rp149
(dp150
g12
Vdet
p151
sbag0
(g1
g2
(lp152
g0
(g1
g2
(lp153
g0
(g1
g2
(lp154
g0
(g1
g2
(lp155
g0
(g1
g2
(lp156
(lp157
S'word: is, index: 6'
p158
aatp159
Rp160
(dp161
g12
Vcop
p162
sbag0
(g1
g2
(lp163
(lp164
S'word: the, index: 7'
p165
aatp166
Rp167
(dp168
g12
Vdet
p169
sbag0
(g1
g2
(lp170
g0
(g1
g2
(lp171
g0
(g1
g2
(lp172
g0
(g1
g2
(lp173
g0
(g1
g2
(lp174
(lp175
S'word: car, index: 11'
p176
aatp177
Rp178
(dp179
g12
Vpobj
p180
sbatp181
Rp182
(dp183
g12
S'word: with, index: 10'
p184
sbatp185
Rp186
(dp187
g12
Vpcomp
p188
sbatp189
Rp190
(dp191
g12
S'word: in, index: 9'
p192
sbatp193
Rp194
(dp195
g12
Vprep
p196
sbatp197
Rp198
(dp199
g12
S'word: car, index: 8'
p200
sbatp201
Rp202
(dp203
g12
Vrcmod
p204
sbag0
(g1
g2
(lp205
(lp206
S'word: the, index: 4'
p207
aatp208
Rp209
(dp210
g12
Vdet
p211
sbatp212
Rp213
(dp214
g12
S'word: house, index: 5'
p215
sbatp216
Rp217
(dp218
g12
Vappos
p219
sbatp220
Rp221
(dp222
g12
S'word: house, index: 2'
p223
sbatp224
Rp225
(dp226
g12
S'id: 2'
p227
sbag0
(g1
g2
(lp228
g0
(g1
g2
(lp229
g0
(g1
g2
(lp230
g0
(g1
g2
(lp231
g0
(g1
g2
(lp232
(lp233
S'word: is, index: 9'
p234
aatp235
Rp236
(dp237
g12
Vcop
p238
sbatp239
Rp240
(dp241
g12
S'word: ok, index: 10'
p242
sbatp243
Rp244
(dp245
g12
Vrcmod
p246
sbag0
(g1
g2
(lp247
g0
(g1
g2
(lp248
g0
(g1
g2
(lp249
(lp250
S'word: The, index: 1'
p251
aatp252
Rp253
(dp254
g12
Vdet
p255
sbatp256
Rp257
(dp258
g12
S'word: tress, index: 2'
p259
sbatp260
Rp261
(dp262
g12
Vnsubj
p263
sbag0
(g1
g2
(lp264
(lp265
S'word: is, index: 3'
p266
aatp267
Rp268
(dp269
g12
Vcop
p270
sbag0
(g1
g2
(lp271
(lp272
S'word: a, index: 4'
p273
aatp274
Rp275
(dp276
g12
Vdet
p277
sbag0
(g1
g2
(lp278
(lp279
S'word: blooming, index: 5'
p280
aatp281
Rp282
(dp283
g12
Vamod
p284
sbag0
(g1
g2
(lp285
(lp286
S'word: blue, index: 7'
p287
aatp288
Rp289
(dp290
g12
Vamod
p291
sbatp292
Rp293
(dp294
g12
S'word: tree, index: 8'
p295
sbatp296
Rp297
(dp298
g12
S'id: 3'
p299
sbag0
(g1
g2
(lp300
g0
(g1
g2
(lp301
g0
(g1
g2
(lp302
g0
(g1
g2
(lp303
g0
(g1
g2
(lp304
(lp305
S'word: a, index: 13'
p306
aatp307
Rp308
(dp309
g12
Vdet
p310
sbag0
(g1
g2
(lp311
(lp312
S'word: run, index: 14'
p313
aatp314
Rp315
(dp316
g12
Vnn
p317
sbatp318
Rp319
(dp320
g12
S'word: dog, index: 15'
p321
sbatp322
Rp323
(dp324
g12
Vconj
p325
sbag0
(g1
g2
(lp326
g0
(g1
g2
(lp327
g0
(g1
g2
(lp328
(lp329
S'word: A, index: 1'
p330
aatp331
Rp332
(dp333
g12
Vdet
p334
sbag0
(g1
g2
(lp335
g0
(g1
g2
(lp336
g0
(g1
g2
(lp337
(lp338
S'word: a, index: 5'
p339
aatp340
Rp341
(dp342
g12
Vpredet
p343
sbag0
(g1
g2
(lp344
(lp345
S'word: the, index: 6'
p346
aatp347
Rp348
(dp349
g12
Vdet
p350
sbatp351
Rp352
(dp353
g12
S'word: boy, index: 7'
p354
sbatp355
Rp356
(dp357
g12
Vconj
p358
sbatp359
Rp360
(dp361
g12
S'word: flag, index: 2'
p362
sbatp363
Rp364
(dp365
g12
Vnsubj
p366
sbag0
(g1
g2
(lp367
g352
atp368
Rp369
(dp370
g12
Vnsubj
p371
sbag0
(g1
g2
(lp372
(lp373
S'word: is, index: 8'
p374
aatp375
Rp376
(dp377
g12
Vcop
p378
sbag0
(g1
g2
(lp379
(lp380
S'word: a, index: 9'
p381
aatp382
Rp383
(dp384
g12
Vdet
p385
sbatp386
Rp387
(dp388
g12
S'word: kite, index: 10'
p389
sbatp390
Rp391
(dp392
g12
S'id: 4'
p393
sbag0
(g1
g2
(lp394
g0
(g1
g2
(lp395
g0
(g1
g2
(lp396
(lp397
S'word: Sandcastle, index: 1'
p398
aatp399
Rp400
(dp401
g12
Vnsubj
p402
sbag0
(g1
g2
(lp403
(lp404
S'word: is, index: 2'
p405
aatp406
Rp407
(dp408
g12
Vcop
p409
sbag0
(g1
g2
(lp410
(lp411
S'word: a, index: 3'
p412
aatp413
Rp414
(dp415
g12
Vdet
p416
sbatp417
Rp418
(dp419
g12
S'word: woman, index: 4'
p420
sbatp421
Rp422
(dp423
g12
S'id: 5'
p424
sbag0
(g1
g2
(lp425
g0
(g1
g2
(lp426
g0
(g1
g2
(lp427
g0
(g1
g2
(lp428
g0
(g1
g2
(lp429
(lp430
S'word: child, index: 4'
p431
aatp432
Rp433
(dp434
g12
Vappos
p435
sbag0
(g1
g2
(lp436
(lp437
S'word: A, index: 1'
p438
aatp439
Rp440
(dp441
g12
Vdet
p442
sbatp443
Rp444
(dp445
g12
S'word: child, index: 2'
p446
sbatp447
Rp448
(dp449
g12
Vnsubj
p450
sbag0
(g1
g2
(lp451
(lp452
S'word: is, index: 5'
p453
aatp454
Rp455
(dp456
g12
Vcop
p457
sbag0
(g1
g2
(lp458
(lp459
S'word: a, index: 6'
p460
aatp461
Rp462
(dp463
g12
Vdet
p464
sbatp465
Rp466
(dp467
g12
S'word: castle, index: 7'
p468
sbatp469
Rp470
(dp471
g12
S'id: 6'
p472
sbag0
(g1
g2
(lp473
g0
(g1
g2
(lp474
g0
(g1
g2
(lp475
g0
(g1
g2
(lp476
g0
(g1
g2
(lp477
(lp478
S'word: In, index: 1'
p479
aatp480
Rp481
(dp482
g12
Vmark
p483
sbag0
(g1
g2
(lp484
g0
(g1
g2
(lp485
g0
(g1
g2
(lp486
(lp487
S'word: a, index: 2'
p488
aatp489
Rp490
(dp491
g12
Vdet
p492
sbatp493
Rp494
(dp495
g12
S'word: fishing, index: 3'
p496
sbatp497
Rp498
(dp499
g12
Vnsubj
p500
sbag0
(g1
g2
(lp501
(lp502
S'word: is, index: 4'
p503
aatp504
Rp505
(dp506
g12
Vcop
p507
sbatp508
Rp509
(dp510
g12
S'word: a, index: 5'
p511
sbatp512
Rp513
(dp514
g12
Vadvcl
p515
sbag0
(g1
g2
(lp516
g0
(g1
g2
(lp517
g0
(g1
g2
(lp518
g0
(g1
g2
(lp519
g0
(g1
g2
(lp520
(lp521
S'word: a, index: 9'
p522
aatp523
Rp524
(dp525
g12
Vdet
p526
sbag0
(g1
g2
(lp527
g0
(g1
g2
(lp528
g0
(g1
g2
(lp529
(lp530
S'word: a, index: 12'
p531
aatp532
Rp533
(dp534
g12
Vdet
p535
sbatp536
Rp537
(dp538
g12
S'word: dock, index: 13'
p539
sbatp540
Rp541
(dp542
g12
Vprep
p543
sbag0
(g1
g2
(lp544
g0
(g1
g2
(lp545
g0
(g1
g2
(lp546
(lp547
S'word: a, index: 16'
p548
aatp549
Rp550
(dp551
g12
Vdet
p552
sbatp553
Rp554
(dp555
g12
S'word: sail, index: 17'
p556
sbatp557
Rp558
(dp559
g12
Vconj
p560
sbatp561
Rp562
(dp563
g12
S'word: fish, index: 10'
p564
sbatp565
Rp566
(dp567
g12
Vprep
p568
sbag0
(g1
g2
(lp569
g554
atp570
Rp571
(dp572
g12
Vprep
p573
sbatp574
Rp575
(dp576
g12
S'word: caught, index: 7'
p577
sbatp578
Rp579
(dp580
g12
Vdep
p581
sbag0
(g1
g2
(lp582
g0
(g1
g2
(lp583
g0
(g1
g2
(lp584
(lp585
S'word: away, index: 24'
p586
aatp587
Rp588
(dp589
g12
Vadvmod
p590
sbatp591
Rp592
(dp593
g12
S'word: sailing, index: 23'
p594
sbatp595
Rp596
(dp597
g12
Vvmod
p598
sbag0
(g1
g2
(lp599
(lp600
S'word: is, index: 19'
p601
aatp602
Rp603
(dp604
g12
Vcop
p605
sbag0
(g1
g2
(lp606
(lp607
S'word: a, index: 20'
p608
aatp609
Rp610
(dp611
g12
Vdet
p612
sbatp613
Rp614
(dp615
g12
S'word: sail, index: 21'
p616
sbatp617
Rp618
(dp619
g12
S'id: 7'
p620
sbag0
(g1
g2
(lp621
g0
(g1
g2
(lp622
g0
(g1
g2
(lp623
(lp624
S'word: it, index: 2'
p625
aatp626
Rp627
(dp628
g12
Vdobj
p629
sbatp630
Rp631
(dp632
g12
S'word: Thats, index: 1'
p633
sbatp634
Rp635
(dp636
g12
S'id: 8'
p637
sbatp638
Rp639
(dp640
g12
S'sentences'
p641
sb.