ccopy_reg
_reconstructor
p0
(cnltk.tree
Tree
p1
c__builtin__
list
p2
(lp3
g0
(g1
g2
(lp4
g0
(g1
g2
(lp5
g0
(g1
g2
(lp6
g0
(g1
g2
(lp7
g0
(g1
g2
(lp8
(lp9
S'word: The, index: 1'
p10
aatp11
Rp12
(dp13
S'_label'
p14
Vdet
p15
sbatp16
Rp17
(dp18
g14
S'word: boy, index: 2'
p19
sbatp20
Rp21
(dp22
g14
Vnsubj
p23
sbag0
(g1
g2
(lp24
(lp25
S'word: is, index: 3'
p26
aatp27
Rp28
(dp29
g14
Vaux
p30
sbag0
(g1
g2
(lp31
(lp32
S'word: cookies, index: 5'
p33
aatp34
Rp35
(dp36
g14
Vdobj
p37
sbag0
(g1
g2
(lp38
g0
(g1
g2
(lp39
g0
(g1
g2
(lp40
(lp41
S'word: the, index: 8'
p42
aatp43
Rp44
(dp45
g14
Vdet
p46
sbag0
(g1
g2
(lp47
(lp48
S'word: cookie, index: 9'
p49
aatp50
Rp51
(dp52
g14
Vnn
p53
sbatp54
Rp55
(dp56
g14
S'word: jar, index: 10'
p57
sbatp58
Rp59
(dp60
g14
Vprep
p61
sbag0
(g1
g2
(lp62
g0
(g1
g2
(lp63
g0
(g1
g2
(lp64
(lp65
S'word: to, index: 11'
p66
aatp67
Rp68
(dp69
g14
Vaux
p70
sbag0
(g1
g2
(lp71
g0
(g1
g2
(lp72
g0
(g1
g2
(lp73
(lp74
S'word: his, index: 14'
p75
aatp76
Rp77
(dp78
g14
Vposs
p79
sbatp80
Rp81
(dp82
g14
S'word: sister, index: 15'
p83
sbatp84
Rp85
(dp86
g14
Vprep
p87
sbatp88
Rp89
(dp90
g14
S'word: give, index: 12'
p91
sbatp92
Rp93
(dp94
g14
Vvmod
p95
sbatp96
Rp97
(dp98
g14
S'word: stealing, index: 4'
p99
sbatp100
Rp101
(dp102
g14
S'id: 0'
p103
sbag0
(g1
g2
(lp104
g0
(g1
g2
(lp105
g0
(g1
g2
(lp106
(lp107
S'word: he, index: 3'
p108
aatp109
Rp110
(dp111
g14
Vnsubj
p112
sbag0
(g1
g2
(lp113
(lp114
S'word: up, index: 5'
p115
aatp116
Rp117
(dp118
g14
Vadvmod
p119
sbag0
(g1
g2
(lp120
g0
(g1
g2
(lp121
g0
(g1
g2
(lp122
(lp123
S'word: a, index: 7'
p124
aatp125
Rp126
(dp127
g14
Vdet
p128
sbatp129
Rp130
(dp131
g14
S'word: stool, index: 8'
p132
sbatp133
Rp134
(dp135
g14
Vprep
p136
sbag0
(g1
g2
(lp137
g0
(g1
g2
(lp138
g0
(g1
g2
(lp139
(lp140
S'word: he, index: 11'
p141
aatp142
Rp143
(dp144
g14
Vnsubj
p145
sbag0
(g1
g2
(lp146
(lp147
S"word: 's, index: 12"
p148
aatp149
Rp150
(dp151
g14
Vcop
p152
sbag0
(g1
g2
(lp153
g0
(g1
g2
(lp154
g0
(g1
g2
(lp155
(lp156
S'word: to, index: 14'
p157
aatp158
Rp159
(dp160
g14
Vaux
p161
sbatp162
Rp163
(dp164
g14
S'word: fall, index: 15'
p165
sbatp166
Rp167
(dp168
g14
Vdep
p169
sbatp170
Rp171
(dp172
g14
S'word: about, index: 13'
p173
sbatp174
Rp175
(dp176
g14
Vconj
p177
sbag0
(g1
g2
(lp178
(lp179
S'word: Up, index: 1'
p180
aatp181
Rp182
(dp183
g14
Vprep
p184
sbatp185
Rp186
(dp187
g14
S"word: 's, index: 4"
p188
sbatp189
Rp190
(dp191
g14
S'id: 1'
p192
sbag0
(g1
g2
(lp193
g0
(g1
g2
(lp194
g0
(g1
g2
(lp195
g0
(g1
g2
(lp196
g0
(g1
g2
(lp197
g0
(g1
g2
(lp198
g0
(g1
g2
(lp199
(lp200
S'word: the, index: 23'
p201
aatp202
Rp203
(dp204
g14
Vdet
p205
sbatp206
Rp207
(dp208
g14
S'word: children, index: 24'
p209
sbatp210
Rp211
(dp212
g14
Vdobj
p213
sbag0
(g1
g2
(lp214
(lp215
S'word: she, index: 19'
p216
aatp217
Rp218
(dp219
g14
Vnsubj
p220
sbag0
(g1
g2
(lp221
(lp222
S"word: 's, index: 20"
p223
aatp224
Rp225
(dp226
g14
Vaux
p227
sbag0
(g1
g2
(lp228
(lp229
S'word: not, index: 21'
p230
aatp231
Rp232
(dp233
g14
Vneg
p234
sbatp235
Rp236
(dp237
g14
S'word: noticing, index: 22'
p238
sbatp239
Rp240
(dp241
g14
Vconj
p242
sbag0
(g1
g2
(lp243
g0
(g1
g2
(lp244
g0
(g1
g2
(lp245
(lp246
S'word: the, index: 6'
p247
aatp248
Rp249
(dp250
g14
Vdet
p251
sbatp252
Rp253
(dp254
g14
S'word: dishes, index: 7'
p255
sbatp256
Rp257
(dp258
g14
Vdobj
p259
sbag0
(g1
g2
(lp260
g0
(g1
g2
(lp261
g0
(g1
g2
(lp262
g236
atp263
Rp264
(dp265
g14
Vconj
p266
sbag0
(g1
g2
(lp267
(lp268
S'word: she, index: 10'
p269
aatp270
Rp271
(dp272
g14
Vnsubj
p273
sbag0
(g1
g2
(lp274
(lp275
S'word: water, index: 12'
p276
aatp277
Rp278
(dp279
g14
Vdobj
p280
sbag0
(g1
g2
(lp281
(lp282
S'word: all, index: 13'
p283
aatp284
Rp285
(dp286
g14
Vdep
p287
sbag0
(g1
g2
(lp288
g0
(g1
g2
(lp289
g0
(g1
g2
(lp290
(lp291
S'word: the, index: 15'
p292
aatp293
Rp294
(dp295
g14
Vdet
p296
sbatp297
Rp298
(dp299
g14
S'word: floor, index: 16'
p300
sbatp301
Rp302
(dp303
g14
Vprep
p304
sbatp305
Rp306
(dp307
g14
S'word: wasting, index: 11'
p308
sbatp309
Rp310
(dp311
g14
Vconj
p312
sbag0
(g1
g2
(lp313
g0
(g1
g2
(lp314
g0
(g1
g2
(lp315
(lp316
S'word: the, index: 2'
p317
aatp318
Rp319
(dp320
g14
Vdet
p321
sbag0
(g1
g2
(lp322
(lp323
S"word: 's, index: 4"
p324
aatp325
Rp326
(dp327
g14
Vpossessive
p328
sbatp329
Rp330
(dp331
g14
S'word: mama, index: 3'
p332
sbatp333
Rp334
(dp335
g14
Vnsubj
p336
sbatp337
Rp338
(dp339
g14
S'word: washing, index: 5'
p340
sbatp341
Rp342
(dp343
g14
S'id: 2'
p344
sbag0
(g1
g2
(lp345
g0
(g1
g2
(lp346
g0
(g1
g2
(lp347
g0
(g1
g2
(lp348
g0
(g1
g2
(lp349
(lp350
S'word: dishes, index: 10'
p351
aatp352
Rp353
(dp354
g14
Vdobj
p355
sbag0
(g1
g2
(lp356
(lp357
S'word: she, index: 2'
p358
aatp359
Rp360
(dp361
g14
Vnsubj
p362
sbatp363
Rp364
(dp365
g14
S'word: drying, index: 9'
p366
sbatp367
Rp368
(dp369
g14
Vconj
p370
sbag0
(g1
g2
(lp371
g0
(g1
g2
(lp372
g0
(g1
g2
(lp373
(lp374
S'word: she, index: 29'
p375
aatp376
Rp377
(dp378
g14
Vnsubj
p379
sbag0
(g1
g2
(lp380
(lp381
S"word: 'll, index: 30"
p382
aatp383
Rp384
(dp385
g14
Vaux
p386
sbag0
(g1
g2
(lp387
g0
(g1
g2
(lp388
g0
(g1
g2
(lp389
g0
(g1
g2
(lp390
g0
(g1
g2
(lp391
(lp392
S'word: the, index: 34'
p393
aatp394
Rp395
(dp396
g14
Vdet
p397
sbag0
(g1
g2
(lp398
g0
(g1
g2
(lp399
g0
(g1
g2
(lp400
(lp401
S'word: the, index: 37'
p402
aatp403
Rp404
(dp405
g14
Vdet
p406
sbag0
(g1
g2
(lp407
(lp408
S'word: little, index: 38'
p409
aatp410
Rp411
(dp412
g14
Vamod
p413
sbatp414
Rp415
(dp416
g14
S'word: boy, index: 39'
p417
sbatp418
Rp419
(dp420
g14
Vprep
p421
sbatp422
Rp423
(dp424
g14
S'word: floor, index: 35'
p425
sbatp426
Rp427
(dp428
g14
Vprep
p429
sbatp430
Rp431
(dp432
g14
S'word: down, index: 32'
p433
sbatp434
Rp435
(dp436
g14
Vadvmod
p437
sbag0
(g1
g2
(lp438
(lp439
S'word: too, index: 40'
p440
aatp441
Rp442
(dp443
g14
Vadvmod
p444
sbatp445
Rp446
(dp447
g14
S'word: be, index: 31'
p448
sbatp449
Rp450
(dp451
g14
Vconj
p452
sbag0
(g1
g2
(lp453
g0
(g1
g2
(lp454
g0
(g1
g2
(lp455
g0
(g1
g2
(lp456
g0
(g1
g2
(lp457
(lp458
S'word: the, index: 43'
p459
aatp460
Rp461
(dp462
g14
Vdet
p463
sbatp464
Rp465
(dp466
g14
S'word: girl, index: 44'
p467
sbatp468
Rp469
(dp470
g14
Vnsubj
p471
sbag0
(g1
g2
(lp472
(lp473
S'word: is, index: 45'
p474
aatp475
Rp476
(dp477
g14
Vcop
p478
sbag0
(g1
g2
(lp479
(lp480
S'word: the, index: 46'
p481
aatp482
Rp483
(dp484
g14
Vdet
p485
sbag0
(g1
g2
(lp486
(lp487
S'word: only, index: 47'
p488
aatp489
Rp490
(dp491
g14
Vquantmod
p492
sbag0
(g1
g2
(lp493
g0
(g1
g2
(lp494
g0
(g1
g2
(lp495
(lp496
S'word: that, index: 49'
p497
aatp498
Rp499
(dp500
g14
Vnsubj
p501
sbag0
(g1
g2
(lp502
(lp503
S"word: 's, index: 50"
p504
aatp505
Rp506
(dp507
g14
Vaux
p508
sbag0
(g1
g2
(lp509
g0
(g1
g2
(lp510
g0
(g1
g2
(lp511
(lp512
S'word: na, index: 52'
p513
aatp514
Rp515
(dp516
g14
Vaux
p517
sbag0
(g1
g2
(lp518
(lp519
S'word: be, index: 53'
p520
aatp521
Rp522
(dp523
g14
Vaux
p524
sbatp525
Rp526
(dp527
g14
S'word: standing, index: 54'
p528
sbatp529
Rp530
(dp531
g14
Vxcomp
p532
sbatp533
Rp534
(dp535
g14
S'word: gon, index: 51'
p536
sbatp537
Rp538
(dp539
g14
Vrcmod
p540
sbatp541
Rp542
(dp543
g14
S'word: one, index: 48'
p544
sbatp545
Rp546
(dp547
g14
Vconj
p548
sbag0
(g1
g2
(lp549
(lp550
S'word: she, index: 2'
p551
aatp552
Rp553
(dp554
g14
Vnsubj
p555
sbag0
(g1
g2
(lp556
g0
(g1
g2
(lp557
g0
(g1
g2
(lp558
g0
(g1
g2
(lp559
g0
(g1
g2
(lp560
(lp561
S'word: if, index: 13'
p562
aatp563
Rp564
(dp565
g14
Vmark
p566
sbag0
(g1
g2
(lp567
(lp568
S'word: she, index: 14'
p569
aatp570
Rp571
(dp572
g14
Vnsubj
p573
sbag0
(g1
g2
(lp574
(lp575
S"word: 's, index: 15"
p576
aatp577
Rp578
(dp579
g14
Vcop
p580
sbag0
(g1
g2
(lp581
(lp582
S'word: not, index: 16'
p583
aatp584
Rp585
(dp586
g14
Vneg
p587
sbatp588
Rp589
(dp590
g14
S'word: careful, index: 17'
p591
sbatp592
Rp593
(dp594
g14
Vadvcl
p595
sbag0
(g1
g2
(lp596
(lp597
S'word: mother, index: 19'
p598
aatp599
Rp600
(dp601
g14
Vnsubj
p602
sbag0
(g1
g2
(lp603
(lp604
S'word: is, index: 20'
p605
aatp606
Rp607
(dp608
g14
Vaux
p609
sbag0
(g1
g2
(lp610
g0
(g1
g2
(lp611
g0
(g1
g2
(lp612
g0
(g1
g2
(lp613
g0
(g1
g2
(lp614
(lp615
S'word: the, index: 26'
p616
aatp617
Rp618
(dp619
g14
Vdet
p620
sbatp621
Rp622
(dp623
g14
S'word: floor, index: 27'
p624
sbatp625
Rp626
(dp627
g14
Vprep
p628
sbag0
(g1
g2
(lp629
(lp630
S'word: na, index: 22'
p631
aatp632
Rp633
(dp634
g14
Vaux
p635
sbag0
(g1
g2
(lp636
(lp637
S'word: down, index: 24'
p638
aatp639
Rp640
(dp641
g14
Vprt
p642
sbatp643
Rp644
(dp645
g14
S'word: slide, index: 23'
p646
sbatp647
Rp648
(dp649
g14
Vxcomp
p650
sbatp651
Rp652
(dp653
g14
S'word: gon, index: 21'
p654
sbatp655
Rp656
(dp657
g14
Vconj
p658
sbag0
(g1
g2
(lp659
g0
(g1
g2
(lp660
g0
(g1
g2
(lp661
(lp662
S'word: she, index: 5'
p663
aatp664
Rp665
(dp666
g14
Vnsubj
p667
sbag0
(g1
g2
(lp668
(lp669
S"word: 's, index: 6"
p670
aatp671
Rp672
(dp673
g14
Vcop
p674
sbatp675
Rp676
(dp677
g14
S'word: watchin, index: 7'
p678
sbatp679
Rp680
(dp681
g14
Vccomp
p682
sbatp683
Rp684
(dp685
g14
S"word: 's, index: 3"
p686
sbatp687
Rp688
(dp689
g14
S'id: 3'
p690
sbag0
(g1
g2
(lp691
g0
(g1
g2
(lp692
g0
(g1
g2
(lp693
(lp694
S'word: And, index: 1'
p695
aatp696
Rp697
(dp698
g14
Vcc
p699
sbag0
(g1
g2
(lp700
(lp701
S'word: that, index: 2'
p702
aatp703
Rp704
(dp705
g14
Vnsubj
p706
sbag0
(g1
g2
(lp707
(lp708
S"word: 's, index: 3"
p709
aatp710
Rp711
(dp712
g14
Vcop
p713
sbag0
(g1
g2
(lp714
g0
(g1
g2
(lp715
g0
(g1
g2
(lp716
(lp717
S'word: I, index: 5'
p718
aatp719
Rp720
(dp721
g14
Vnsubj
p722
sbag0
(g1
g2
(lp723
g0
(g1
g2
(lp724
g0
(g1
g2
(lp725
(lp726
S'word: the, index: 8'
p727
aatp728
Rp729
(dp730
g14
Vdet
p731
sbatp732
Rp733
(dp734
g14
S'word: picture, index: 9'
p735
sbatp736
Rp737
(dp738
g14
Vprep
p739
sbatp740
Rp741
(dp742
g14
S'word: know, index: 6'
p743
sbatp744
Rp745
(dp746
g14
Vrcmod
p747
sbatp748
Rp749
(dp750
g14
S'word: all, index: 4'
p751
sbatp752
Rp753
(dp754
g14
S'id: 4'
p755
sbag0
(g1
g2
(lp756
g0
(g1
g2
(lp757
g0
(g1
g2
(lp758
(lp759
S'word: And, index: 1'
p760
aatp761
Rp762
(dp763
g14
Vcc
p764
sbag0
(g1
g2
(lp765
(lp766
S'word: mother, index: 2'
p767
aatp768
Rp769
(dp770
g14
Vnsubj
p771
sbag0
(g1
g2
(lp772
(lp773
S'word: has, index: 3'
p774
aatp775
Rp776
(dp777
g14
Vaux
p778
sbag0
(g1
g2
(lp779
g0
(g1
g2
(lp780
g0
(g1
g2
(lp781
(lp782
S'word: her, index: 5'
p783
aatp784
Rp785
(dp786
g14
Vposs
p787
sbag0
(g1
g2
(lp788
(lp789
S'word: nice, index: 6'
p790
aatp791
Rp792
(dp793
g14
Vamod
p794
sbag0
(g1
g2
(lp795
(lp796
S'word: shoes, index: 9'
p797
aatp798
Rp799
(dp800
g14
Vconj
p801
sbatp802
Rp803
(dp804
g14
S'word: dress, index: 7'
p805
sbatp806
Rp807
(dp808
g14
Vpobj
p809
sbag0
(g1
g2
(lp810
(lp811
S'word: shoes, index: 9'
p812
aatp813
Rp814
(dp815
g14
Vpobj
p816
sbatp817
Rp818
(dp819
g14
S'word: on, index: 4'
p820
sbatp821
Rp822
(dp823
g14
S'id: 5'
p824
sbag0
(g1
g2
(lp825
g0
(g1
g2
(lp826
g0
(g1
g2
(lp827
g0
(g1
g2
(lp828
g0
(g1
g2
(lp829
(lp830
S'word: like, index: 3'
p831
aatp832
Rp833
(dp834
g14
Vmark
p835
sbag0
(g1
g2
(lp836
g0
(g1
g2
(lp837
g0
(g1
g2
(lp838
(lp839
S'word: the, index: 4'
p840
aatp841
Rp842
(dp843
g14
Vdet
p844
sbag0
(g1
g2
(lp845
(lp846
S'word: little, index: 5'
p847
aatp848
Rp849
(dp850
g14
Vamod
p851
sbatp852
Rp853
(dp854
g14
S'word: boy, index: 6'
p855
sbatp856
Rp857
(dp858
g14
Vnsubj
p859
sbag0
(g1
g2
(lp860
(lp861
S'word: has, index: 7'
p862
aatp863
Rp864
(dp865
g14
Vaux
p866
sbag0
(g1
g2
(lp867
g0
(g1
g2
(lp868
g0
(g1
g2
(lp869
g0
(g1
g2
(lp870
g0
(g1
g2
(lp871
(lp872
S'word: his, index: 21'
p873
aatp874
Rp875
(dp876
g14
Vposs
p877
sbatp878
Rp879
(dp880
g14
S'word: hair, index: 22'
p881
sbatp882
Rp883
(dp884
g14
Vconj
p885
sbag0
(g1
g2
(lp886
(lp887
S'word: a, index: 9'
p888
aatp889
Rp890
(dp891
g14
Vdet
p892
sbag0
(g1
g2
(lp893
(lp894
S'word: socks, index: 12'
p895
aatp896
Rp897
(dp898
g14
Vprep
p899
sbag0
(g1
g2
(lp900
g0
(g1
g2
(lp901
g0
(g1
g2
(lp902
(lp903
S'word: shoes, index: 18'
p904
aatp905
Rp906
(dp907
g14
Vprep
p908
sbag0
(g1
g2
(lp909
g879
atp910
Rp911
(dp912
g14
Vconj
p913
sbag0
(g1
g2
(lp914
(lp915
S'word: a, index: 15'
p916
aatp917
Rp918
(dp919
g14
Vdet
p920
sbatp921
Rp922
(dp923
g14
S'word: pair, index: 16'
p924
sbatp925
Rp926
(dp927
g14
Vconj
p928
sbatp929
Rp930
(dp931
g14
S'word: pair, index: 10'
p932
sbatp933
Rp934
(dp935
g14
Vpobj
p936
sbag0
(g1
g2
(lp937
g922
atp938
Rp939
(dp940
g14
Vpobj
p941
sbatp942
Rp943
(dp944
g14
S'word: on, index: 8'
p945
sbatp946
Rp947
(dp948
g14
Vadvcl
p949
sbag0
(g1
g2
(lp950
(lp951
S'word: And, index: 1'
p952
aatp953
Rp954
(dp955
g14
Vcc
p956
sbatp957
Rp958
(dp959
g14
S'word: look, index: 2'
p960
sbatp961
Rp962
(dp963
g14
S'id: 6'
p964
sbag0
(g1
g2
(lp965
g0
(g1
g2
(lp966
g0
(g1
g2
(lp967
(lp968
S'word: nicely, index: 6'
p969
aatp970
Rp971
(dp972
g14
Vadvmod
p973
sbag0
(g1
g2
(lp974
g0
(g1
g2
(lp975
g0
(g1
g2
(lp976
(lp977
S'word: them, index: 3'
p978
aatp979
Rp980
(dp981
g14
Vprep
p982
sbatp983
Rp984
(dp985
g14
S'word: All, index: 1'
p986
sbatp987
Rp988
(dp989
g14
Vnsubj
p990
sbag0
(g1
g2
(lp991
(lp992
S'word: have, index: 4'
p993
aatp994
Rp995
(dp996
g14
Vaux
p997
sbatp998
Rp999
(dp1000
g14
S'word: combed, index: 5'
p1001
sbatp1002
Rp1003
(dp1004
g14
S'id: 7'
p1005
sbag0
(g1
g2
(lp1006
g0
(g1
g2
(lp1007
g0
(g1
g2
(lp1008
g0
(g1
g2
(lp1009
g0
(g1
g2
(lp1010
(lp1011
S'word: unless, index: 11'
p1012
aatp1013
Rp1014
(dp1015
g14
Vmark
p1016
sbag0
(g1
g2
(lp1017
(lp1018
S'word: she, index: 12'
p1019
aatp1020
Rp1021
(dp1022
g14
Vnsubj
p1023
sbag0
(g1
g2
(lp1024
g0
(g1
g2
(lp1025
g0
(g1
g2
(lp1026
g0
(g1
g2
(lp1027
g0
(g1
g2
(lp1028
(lp1029
S'word: na, index: 15'
p1030
aatp1031
Rp1032
(dp1033
g14
Vaux
p1034
sbag0
(g1
g2
(lp1035
g0
(g1
g2
(lp1036
g0
(g1
g2
(lp1037
(lp1038
S'word: a, index: 17'
p1039
aatp1040
Rp1041
(dp1042
g14
Vdet
p1043
sbag0
(g1
g2
(lp1044
(lp1045
S'word: high, index: 18'
p1046
aatp1047
Rp1048
(dp1049
g14
Vamod
p1050
sbag0
(g1
g2
(lp1051
(lp1052
S'word: water, index: 19'
p1053
aatp1054
Rp1055
(dp1056
g14
Vnn
p1057
sbatp1058
Rp1059
(dp1060
g14
S'word: bill, index: 20'
p1061
sbatp1062
Rp1063
(dp1064
g14
Vdobj
p1065
sbag0
(g1
g2
(lp1066
(lp1067
S'word: too, index: 21'
p1068
aatp1069
Rp1070
(dp1071
g14
Vadvmod
p1072
sbatp1073
Rp1074
(dp1075
g14
S'word: have, index: 16'
p1076
sbatp1077
Rp1078
(dp1079
g14
Vxcomp
p1080
sbatp1081
Rp1082
(dp1083
g14
S'word: gon, index: 14'
p1084
sbatp1085
Rp1086
(dp1087
g14
Vxcomp
p1088
sbatp1089
Rp1090
(dp1091
g14
S'word: have, index: 13'
p1092
sbatp1093
Rp1094
(dp1095
g14
Vdep
p1096
sbag0
(g1
g2
(lp1097
(lp1098
S'word: She, index: 1'
p1099
aatp1100
Rp1101
(dp1102
g14
Vnsubj
p1103
sbag0
(g1
g2
(lp1104
g0
(g1
g2
(lp1105
g0
(g1
g2
(lp1106
(lp1107
S'word: na, index: 3'
p1108
aatp1109
Rp1110
(dp1111
g14
Vaux
p1112
sbag0
(g1
g2
(lp1113
g0
(g1
g2
(lp1114
g0
(g1
g2
(lp1115
g0
(g1
g2
(lp1116
g0
(g1
g2
(lp1117
(lp1118
S'word: water, index: 8'
p1119
aatp1120
Rp1121
(dp1122
g14
Vdep
p1123
sbag0
(g1
g2
(lp1124
(lp1125
S'word: that, index: 7'
p1126
aatp1127
Rp1128
(dp1129
g14
Vdep
p1130
sbatp1131
Rp1132
(dp1133
g14
S'word: off, index: 9'
p1134
sbatp1135
Rp1136
(dp1137
g14
Vrcmod
p1138
sbag0
(g1
g2
(lp1139
(lp1140
S'word: ta, index: 5'
p1141
aatp1142
Rp1143
(dp1144
g14
Vnn
p1145
sbatp1146
Rp1147
(dp1148
g14
S'word: turn, index: 6'
p1149
sbatp1150
Rp1151
(dp1152
g14
Vdobj
p1153
sbatp1154
Rp1155
(dp1156
g14
S'word: have, index: 4'
p1157
sbatp1158
Rp1159
(dp1160
g14
Vxcomp
p1161
sbatp1162
Rp1163
(dp1164
g14
S'word: gon, index: 2'
p1165
sbatp1166
Rp1167
(dp1168
g14
S'id: 8'
p1169
sbag0
(g1
g2
(lp1170
g0
(g1
g2
(lp1171
g0
(g1
g2
(lp1172
(lp1173
S'word: She, index: 1'
p1174
aatp1175
Rp1176
(dp1177
g14
Vnsubj
p1178
sbag0
(g1
g2
(lp1179
(lp1180
S'word: there, index: 3'
p1181
aatp1182
Rp1183
(dp1184
g14
Vexpl
p1185
sbag0
(g1
g2
(lp1186
(lp1187
S'word: must, index: 4'
p1188
aatp1189
Rp1190
(dp1191
g14
Vaux
p1192
sbag0
(g1
g2
(lp1193
(lp1194
S'word: be, index: 5'
p1195
aatp1196
Rp1197
(dp1198
g14
Vcop
p1199
sbag0
(g1
g2
(lp1200
(lp1201
S'word: a, index: 6'
p1202
aatp1203
Rp1204
(dp1205
g14
Vdet
p1206
sbag0
(g1
g2
(lp1207
g0
(g1
g2
(lp1208
g0
(g1
g2
(lp1209
(lp1210
S'word: up, index: 9'
p1211
aatp1212
Rp1213
(dp1214
g14
Vprt
p1215
sbag0
(g1
g2
(lp1216
(lp1217
S'word: supper, index: 10'
p1218
aatp1219
Rp1220
(dp1221
g14
Vdobj
p1222
sbatp1223
Rp1224
(dp1225
g14
S'word: finishing, index: 8'
p1226
sbatp1227
Rp1228
(dp1229
g14
Vvmod
p1230
sbatp1231
Rp1232
(dp1233
g14
S'word: just, index: 7'
p1234
sbatp1235
Rp1236
(dp1237
g14
S'id: 9'
p1238
sbag0
(g1
g2
(lp1239
g0
(g1
g2
(lp1240
g0
(g1
g2
(lp1241
(lp1242
S'word: is, index: 2'
p1243
aatp1244
Rp1245
(dp1246
g14
Vcop
p1247
sbag0
(g1
g2
(lp1248
(lp1249
S'word: it, index: 3'
p1250
aatp1251
Rp1252
(dp1253
g14
Vnsubj
p1254
sbatp1255
Rp1256
(dp1257
g14
S'word: What, index: 1'
p1258
sbatp1259
Rp1260
(dp1261
g14
S'id: 10'
p1262
sbatp1263
Rp1264
(dp1265
g14
S'sentences'
p1266
sb.