ccopy_reg
_reconstructor
p0
(cnltk.tree
Tree
p1
c__builtin__
list
p2
(lp3
g0
(g1
g2
(lp4
g0
(g1
g2
(lp5
g0
(g1
g2
(lp6
VOk
p7
atp8
Rp9
(dp10
S'_label'
p11
VNN
p12
sbag0
(g1
g2
(lp13
V.
p14
atp15
Rp16
(dp17
g11
V.
p18
sbatp19
Rp20
(dp21
g11
VNP
p22
sbatp23
Rp24
(dp25
g11
S'id: 0'
p26
sbag0
(g1
g2
(lp27
g0
(g1
g2
(lp28
g0
(g1
g2
(lp29
g0
(g1
g2
(lp30
VCall
p31
atp32
Rp33
(dp34
g11
VVB
p35
sbatp36
Rp37
(dp38
g11
VVP
p39
sbag0
(g1
g2
(lp40
V.
p41
atp42
Rp43
(dp44
g11
V.
p45
sbatp46
Rp47
(dp48
g11
VS
p49
sbatp50
Rp51
(dp52
g11
S'id: 1'
p53
sbag0
(g1
g2
(lp54
g0
(g1
g2
(lp55
g0
(g1
g2
(lp56
g0
(g1
g2
(lp57
g0
(g1
g2
(lp58
VI
p59
atp60
Rp61
(dp62
g11
VPRP
p63
sbatp64
Rp65
(dp66
g11
VNP
p67
sbag0
(g1
g2
(lp68
g0
(g1
g2
(lp69
Vjust
p70
atp71
Rp72
(dp73
g11
VRB
p74
sbatp75
Rp76
(dp77
g11
VADVP
p78
sbag0
(g1
g2
(lp79
g0
(g1
g2
(lp80
Vput
p81
atp82
Rp83
(dp84
g11
VVBD
p85
sbag0
(g1
g2
(lp86
g0
(g1
g2
(lp87
Vthe
p88
atp89
Rp90
(dp91
g11
VDT
p92
sbatp93
Rp94
(dp95
g11
VNP
p96
sbatp97
Rp98
(dp99
g11
VVP
p100
sbatp101
Rp102
(dp103
g11
VS
p104
sbag0
(g1
g2
(lp105
V,
p106
atp107
Rp108
(dp109
g11
V,
p110
sbag0
(g1
g2
(lp111
g0
(g1
g2
(lp112
VI
p113
atp114
Rp115
(dp116
g11
VPRP
p117
sbatp118
Rp119
(dp120
g11
VNP
p121
sbag0
(g1
g2
(lp122
g0
(g1
g2
(lp123
Vdo
p124
atp125
Rp126
(dp127
g11
VVBP
p128
sbag0
(g1
g2
(lp129
Vn't
p130
atp131
Rp132
(dp133
g11
VRB
p134
sbag0
(g1
g2
(lp135
g0
(g1
g2
(lp136
Vknow
p137
atp138
Rp139
(dp140
g11
VVB
p141
sbag0
(g1
g2
(lp142
g0
(g1
g2
(lp143
g0
(g1
g2
(lp144
Vwhat
p145
atp146
Rp147
(dp148
g11
VWP
p149
sbatp150
Rp151
(dp152
g11
VWHNP
p153
sbag0
(g1
g2
(lp154
g0
(g1
g2
(lp155
g0
(g1
g2
(lp156
Vit
p157
atp158
Rp159
(dp160
g11
VPRP
p161
sbatp162
Rp163
(dp164
g11
VNP
p165
sbag0
(g1
g2
(lp166
g0
(g1
g2
(lp167
Vis
p168
atp169
Rp170
(dp171
g11
VVBZ
p172
sbatp173
Rp174
(dp175
g11
VVP
p176
sbatp177
Rp178
(dp179
g11
VS
p180
sbatp181
Rp182
(dp183
g11
VSBAR
p184
sbatp185
Rp186
(dp187
g11
VVP
p188
sbatp189
Rp190
(dp191
g11
VVP
p192
sbag0
(g1
g2
(lp193
V.
p194
atp195
Rp196
(dp197
g11
V.
p198
sbatp199
Rp200
(dp201
g11
VS
p202
sbatp203
Rp204
(dp205
g11
S'id: 2'
p206
sbag0
(g1
g2
(lp207
g0
(g1
g2
(lp208
g0
(g1
g2
(lp209
g0
(g1
g2
(lp210
VA
p211
atp212
Rp213
(dp214
g11
VDT
p215
sbag0
(g1
g2
(lp216
Vcall
p217
atp218
Rp219
(dp220
g11
VNN
p221
sbatp222
Rp223
(dp224
g11
VNP
p225
sbag0
(g1
g2
(lp226
g0
(g1
g2
(lp227
V,
p228
atp229
Rp230
(dp231
g11
V,
p232
sbag0
(g1
g2
(lp233
g0
(g1
g2
(lp234
g0
(g1
g2
(lp235
VI
p236
atp237
Rp238
(dp239
g11
VPRP
p240
sbatp241
Rp242
(dp243
g11
VNP
p244
sbag0
(g1
g2
(lp245
g0
(g1
g2
(lp246
Vca
p247
atp248
Rp249
(dp250
g11
VMD
p251
sbag0
(g1
g2
(lp252
Vn't
p253
atp254
Rp255
(dp256
g11
VRB
p257
sbatp258
Rp259
(dp260
g11
VVP
p261
sbatp262
Rp263
(dp264
g11
VS
p265
sbag0
(g1
g2
(lp266
V,
p267
atp268
Rp269
(dp270
g11
V,
p271
sbatp272
Rp273
(dp274
g11
VPRN
p275
sbag0
(g1
g2
(lp276
g0
(g1
g2
(lp277
Vca
p278
atp279
Rp280
(dp281
g11
VMD
p282
sbag0
(g1
g2
(lp283
Vn't
p284
atp285
Rp286
(dp287
g11
VRB
p288
sbag0
(g1
g2
(lp289
g0
(g1
g2
(lp290
Vdid
p291
atp292
Rp293
(dp294
g11
VVBD
p295
sbag0
(g1
g2
(lp296
g0
(g1
g2
(lp297
Vthat
p298
atp299
Rp300
(dp301
g11
VDT
p302
sbatp303
Rp304
(dp305
g11
VNP
p306
sbatp307
Rp308
(dp309
g11
VVP
p310
sbatp311
Rp312
(dp313
g11
VVP
p314
sbag0
(g1
g2
(lp315
V.
p316
atp317
Rp318
(dp319
g11
V.
p320
sbatp321
Rp322
(dp323
g11
VS
p324
sbatp325
Rp326
(dp327
g11
S'id: 3'
p328
sbag0
(g1
g2
(lp329
g0
(g1
g2
(lp330
g0
(g1
g2
(lp331
g0
(g1
g2
(lp332
VI
p333
atp334
Rp335
(dp336
g11
VPRP
p337
sbatp338
Rp339
(dp340
g11
VNP
p341
sbag0
(g1
g2
(lp342
g0
(g1
g2
(lp343
Vca
p344
atp345
Rp346
(dp347
g11
VMD
p348
sbag0
(g1
g2
(lp349
Vn't
p350
atp351
Rp352
(dp353
g11
VRB
p354
sbatp355
Rp356
(dp357
g11
VVP
p358
sbag0
(g1
g2
(lp359
g0
(g1
g2
(lp360
g0
(g1
g2
(lp361
Vwhat
p362
atp363
Rp364
(dp365
g11
VWP
p366
sbatp367
Rp368
(dp369
g11
VWHNP
p370
sbag0
(g1
g2
(lp371
g0
(g1
g2
(lp372
g0
(g1
g2
(lp373
Vthat
p374
atp375
Rp376
(dp377
g11
VDT
p378
sbatp379
Rp380
(dp381
g11
VNP
p382
sbag0
(g1
g2
(lp383
g0
(g1
g2
(lp384
Vis
p385
atp386
Rp387
(dp388
g11
VVBZ
p389
sbatp390
Rp391
(dp392
g11
VVP
p393
sbatp394
Rp395
(dp396
g11
VS
p397
sbatp398
Rp399
(dp400
g11
VSBAR
p401
sbag0
(g1
g2
(lp402
V.
p403
atp404
Rp405
(dp406
g11
V.
p407
sbatp408
Rp409
(dp410
g11
VS
p411
sbatp412
Rp413
(dp414
g11
S'id: 4'
p415
sbag0
(g1
g2
(lp416
g0
(g1
g2
(lp417
g0
(g1
g2
(lp418
g0
(g1
g2
(lp419
g0
(g1
g2
(lp420
Vthis
p421
atp422
Rp423
(dp424
g11
VDT
p425
sbatp426
Rp427
(dp428
g11
VNP
p429
sbag0
(g1
g2
(lp430
g0
(g1
g2
(lp431
g0
(g1
g2
(lp432
g0
(g1
g2
(lp433
g0
(g1
g2
(lp434
Vguy
p435
atp436
Rp437
(dp438
g11
VNN
p439
sbatp440
Rp441
(dp442
g11
VNP
p443
sbag0
(g1
g2
(lp444
V,
p445
atp446
Rp447
(dp448
g11
V,
p449
sbag0
(g1
g2
(lp450
g0
(g1
g2
(lp451
g0
(g1
g2
(lp452
Vthat
p453
atp454
Rp455
(dp456
g11
VWDT
p457
sbatp458
Rp459
(dp460
g11
VWHNP
p461
sbag0
(g1
g2
(lp462
g0
(g1
g2
(lp463
g0
(g1
g2
(lp464
Vright
p465
atp466
Rp467
(dp468
g11
VRB
p469
sbatp470
Rp471
(dp472
g11
VADJP
p473
sbatp474
Rp475
(dp476
g11
VS
p477
sbatp478
Rp479
(dp480
g11
VSBAR
p481
sbatp482
Rp483
(dp484
g11
VNP
p485
sbatp486
Rp487
(dp488
g11
VS
p489
sbatp490
Rp491
(dp492
g11
VSBAR
p493
sbatp494
Rp495
(dp496
g11
VNP
p497
sbag0
(g1
g2
(lp498
g0
(g1
g2
(lp499
g0
(g1
g2
(lp500
Vthere
p501
atp502
Rp503
(dp504
g11
VEX
p505
sbatp506
Rp507
(dp508
g11
VNP
p509
sbag0
(g1
g2
(lp510
g0
(g1
g2
(lp511
g0
(g1
g2
(lp512
Vthat
p513
atp514
Rp515
(dp516
g11
VWDT
p517
sbatp518
Rp519
(dp520
g11
VWHNP
p521
sbatp522
Rp523
(dp524
g11
VSBAR
p525
sbatp526
Rp527
(dp528
g11
VNP
p529
sbag0
(g1
g2
(lp530
V.
p531
atp532
Rp533
(dp534
g11
V.
p535
sbatp536
Rp537
(dp538
g11
VNP
p539
sbatp540
Rp541
(dp542
g11
S'id: 5'
p543
sbag0
(g1
g2
(lp544
g0
(g1
g2
(lp545
g0
(g1
g2
(lp546
g0
(g1
g2
(lp547
Vanything
p548
atp549
Rp550
(dp551
g11
VNN
p552
sbag0
(g1
g2
(lp553
Velse
p554
atp555
Rp556
(dp557
g11
VRB
p558
sbatp559
Rp560
(dp561
g11
VNP
p562
sbag0
(g1
g2
(lp563
g0
(g1
g2
(lp564
g0
(g1
g2
(lp565
Vwhat
p566
atp567
Rp568
(dp569
g11
VWP
p570
sbatp571
Rp572
(dp573
g11
VWHNP
p574
sbag0
(g1
g2
(lp575
g0
(g1
g2
(lp576
g0
(g1
g2
(lp577
VI
p578
atp579
Rp580
(dp581
g11
VPRP
p582
sbatp583
Rp584
(dp585
g11
VNP
p586
sbag0
(g1
g2
(lp587
g0
(g1
g2
(lp588
Vsupposed
p589
atp590
Rp591
(dp592
g11
VVBD
p593
sbag0
(g1
g2
(lp594
g0
(g1
g2
(lp595
g0
(g1
g2
(lp596
Vto
p597
atp598
Rp599
(dp600
g11
VTO
p601
sbag0
(g1
g2
(lp602
g0
(g1
g2
(lp603
Vdo
p604
atp605
Rp606
(dp607
g11
VVB
p608
sbatp609
Rp610
(dp611
g11
VVP
p612
sbatp613
Rp614
(dp615
g11
VVP
p616
sbatp617
Rp618
(dp619
g11
VS
p620
sbatp621
Rp622
(dp623
g11
VVP
p624
sbatp625
Rp626
(dp627
g11
VS
p628
sbatp629
Rp630
(dp631
g11
VSBAR
p632
sbatp633
Rp634
(dp635
g11
VFRAG
p636
sbatp637
Rp638
(dp639
g11
S'id: 6'
p640
sbatp641
Rp642
(dp643
g11
S'sentences'
p644
sb.