ccopy_reg
_reconstructor
p0
(cnltk.tree
Tree
p1
c__builtin__
list
p2
(lp3
g0
(g1
g2
(lp4
g0
(g1
g2
(lp5
g0
(g1
g2
(lp6
Vthe
p7
atp8
Rp9
(dp10
S'_label'
p11
S'start: 1'
p12
sbatp13
Rp14
(dp15
g11
S'sent: 1'
p16
sbag0
(g1
g2
(lp17
g0
(g1
g2
(lp18
VThe
p19
atp20
Rp21
(dp22
g11
S'start: 1'
p23
sbatp24
Rp25
(dp26
g11
S'sent: 3'
p27
sbag0
(g1
g2
(lp28
g0
(g1
g2
(lp29
Vthe
p30
atp31
Rp32
(dp33
g11
S'start: 7'
p34
sbatp35
Rp36
(dp37
g11
S'sent: 3'
p38
sbag0
(g1
g2
(lp39
g0
(g1
g2
(lp40
Vthe
p41
atp42
Rp43
(dp44
g11
S'start: 3'
p45
sbatp46
Rp47
(dp48
g11
S'sent: 7'
p49
sbag0
(g1
g2
(lp50
g0
(g1
g2
(lp51
Vthe girl and
p52
atp53
Rp54
(dp55
g11
S'start: 5'
p56
sbatp57
Rp58
(dp59
g11
S'sent: 7'
p60
sbatp61
Rp62
(dp63
g11
S'id: 1'
p64
sbag0
(g1
g2
(lp65
g0
(g1
g2
(lp66
g0
(g1
g2
(lp67
Vthe walking
p68
atp69
Rp70
(dp71
g11
S'start: 4'
p72
sbatp73
Rp74
(dp75
g11
S'sent: 2'
p76
sbag0
(g1
g2
(lp77
g0
(g1
g2
(lp78
Vthe rar
p79
atp80
Rp81
(dp82
g11
S'start: 7'
p83
sbatp84
Rp85
(dp86
g11
S'sent: 2'
p87
sbatp88
Rp89
(dp90
g11
S'id: 8'
p91
sbag0
(g1
g2
(lp92
g0
(g1
g2
(lp93
g0
(g1
g2
(lp94
Vno
p95
atp96
Rp97
(dp98
g11
S'start: 18'
p99
sbatp100
Rp101
(dp102
g11
S'sent: 5'
p103
sbag0
(g1
g2
(lp104
g0
(g1
g2
(lp105
Vthe ildern
p106
atp107
Rp108
(dp109
g11
S'start: 22'
p110
sbatp111
Rp112
(dp113
g11
S'sent: 5'
p114
sbatp115
Rp116
(dp117
g11
S'id: 26'
p118
sbatp119
Rp120
(dp121
g11
S'coreferences'
p122
sb.