ccopy_reg
_reconstructor
p0
(cnltk.tree
Tree
p1
c__builtin__
list
p2
(lp3
g0
(g1
g2
(lp4
g0
(g1
g2
(lp5
g0
(g1
g2
(lp6
g0
(g1
g2
(lp7
Vlook
p8
atp9
Rp10
(dp11
S'_label'
p12
VVB
p13
sbag0
(g1
g2
(lp14
g0
(g1
g2
(lp15
Vlike
p16
atp17
Rp18
(dp19
g12
VIN
p20
sbag0
(g1
g2
(lp21
g0
(g1
g2
(lp22
Va
p23
atp24
Rp25
(dp26
g12
VDT
p27
sbag0
(g1
g2
(lp28
Vnice
p29
atp30
Rp31
(dp32
g12
VJJ
p33
sbag0
(g1
g2
(lp34
g0
(g1
g2
(lp35
g0
(g1
g2
(lp36
Va
p37
atp38
Rp39
(dp40
g12
VDT
p41
sbag0
(g1
g2
(lp42
Vhouse
p43
atp44
Rp45
(dp46
g12
VNN
p47
sbatp48
Rp49
(dp50
g12
VNP
p51
sbag0
(g1
g2
(lp52
g0
(g1
g2
(lp53
Von
p54
atp55
Rp56
(dp57
g12
VIN
p58
sbag0
(g1
g2
(lp59
g0
(g1
g2
(lp60
Vthe
p61
atp62
Rp63
(dp64
g12
VDT
p65
sbag0
(g1
g2
(lp66
Vlake
p67
atp68
Rp69
(dp70
g12
VNN
p71
sbatp72
Rp73
(dp74
g12
VNP
p75
sbatp76
Rp77
(dp78
g12
VPP
p79
sbatp80
Rp81
(dp82
g12
VNP
p83
sbatp84
Rp85
(dp86
g12
VNP
p87
sbatp88
Rp89
(dp90
g12
VPP
p91
sbatp92
Rp93
(dp94
g12
VVP
p95
sbag0
(g1
g2
(lp96
V.
p97
atp98
Rp99
(dp100
g12
V.
p101
sbatp102
Rp103
(dp104
g12
VS
p105
sbatp106
Rp107
(dp108
g12
S'id: 0'
p109
sbag0
(g1
g2
(lp110
g0
(g1
g2
(lp111
g0
(g1
g2
(lp112
g0
(g1
g2
(lp113
VEverybody
p114
atp115
Rp116
(dp117
g12
VNN
p118
sbag0
(g1
g2
(lp119
g0
(g1
g2
(lp120
g0
(g1
g2
(lp121
V's
p122
atp123
Rp124
(dp125
g12
VPOS
p126
sbatp127
Rp128
(dp129
g12
VNP
p130
sbag0
(g1
g2
(lp131
g0
(g1
g2
(lp132
Vhaving
p133
atp134
Rp135
(dp136
g12
VVBG
p137
sbag0
(g1
g2
(lp138
g0
(g1
g2
(lp139
Vfun
p140
atp141
Rp142
(dp143
g12
VNN
p144
sbatp145
Rp146
(dp147
g12
VNP
p148
sbag0
(g1
g2
(lp149
g0
(g1
g2
(lp150
Vat
p151
atp152
Rp153
(dp154
g12
VIN
p155
sbag0
(g1
g2
(lp156
g0
(g1
g2
(lp157
Vthe
p158
atp159
Rp160
(dp161
g12
VDT
p162
sbag0
(g1
g2
(lp163
Vlake
p164
atp165
Rp166
(dp167
g12
VNN
p168
sbatp169
Rp170
(dp171
g12
VNP
p172
sbatp173
Rp174
(dp175
g12
VPP
p176
sbatp177
Rp178
(dp179
g12
VVP
p180
sbatp181
Rp182
(dp183
g12
VS
p184
sbatp185
Rp186
(dp187
g12
VVP
p188
sbag0
(g1
g2
(lp189
V.
p190
atp191
Rp192
(dp193
g12
V.
p194
sbatp195
Rp196
(dp197
g12
VS
p198
sbatp199
Rp200
(dp201
g12
S'id: 1'
p202
sbag0
(g1
g2
(lp203
g0
(g1
g2
(lp204
g0
(g1
g2
(lp205
g0
(g1
g2
(lp206
VBoy
p207
atp208
Rp209
(dp210
g12
VNN
p211
sbatp212
Rp213
(dp214
g12
VNP
p215
sbag0
(g1
g2
(lp216
g0
(g1
g2
(lp217
Vflying
p218
atp219
Rp220
(dp221
g12
VVBG
p222
sbag0
(g1
g2
(lp223
g0
(g1
g2
(lp224
Va
p225
atp226
Rp227
(dp228
g12
VDT
p229
sbag0
(g1
g2
(lp230
Vkite
p231
atp232
Rp233
(dp234
g12
VNN
p235
sbatp236
Rp237
(dp238
g12
VNP
p239
sbag0
(g1
g2
(lp240
V,
p241
atp242
Rp243
(dp244
g12
V,
p245
sbag0
(g1
g2
(lp246
g0
(g1
g2
(lp247
Vwhile
p248
atp249
Rp250
(dp251
g12
VIN
p252
sbag0
(g1
g2
(lp253
g0
(g1
g2
(lp254
g0
(g1
g2
(lp255
Vhis
p256
atp257
Rp258
(dp259
g12
VPRP$
p260
sbag0
(g1
g2
(lp261
Vmother
p262
atp263
Rp264
(dp265
g12
VNN
p266
sbatp267
Rp268
(dp269
g12
VNP
p270
sbag0
(g1
g2
(lp271
g0
(g1
g2
(lp272
Vis
p273
atp274
Rp275
(dp276
g12
VVBZ
p277
sbag0
(g1
g2
(lp278
g0
(g1
g2
(lp279
Vpouring
p280
atp281
Rp282
(dp283
g12
VVBG
p284
sbag0
(g1
g2
(lp285
g0
(g1
g2
(lp286
Va
p287
atp288
Rp289
(dp290
g12
VDT
p291
sbag0
(g1
g2
(lp292
Vdrink
p293
atp294
Rp295
(dp296
g12
VNN
p297
sbatp298
Rp299
(dp300
g12
VNP
p301
sbag0
(g1
g2
(lp302
g0
(g1
g2
(lp303
V,
p304
atp305
Rp306
(dp307
g12
V,
p308
sbag0
(g1
g2
(lp309
g0
(g1
g2
(lp310
g0
(g1
g2
(lp311
VI
p312
atp313
Rp314
(dp315
g12
VPRP
p316
sbatp317
Rp318
(dp319
g12
VNP
p320
sbag0
(g1
g2
(lp321
g0
(g1
g2
(lp322
Vguess
p323
atp324
Rp325
(dp326
g12
VVBP
p327
sbatp328
Rp329
(dp330
g12
VVP
p331
sbatp332
Rp333
(dp334
g12
VS
p335
sbag0
(g1
g2
(lp336
V,
p337
atp338
Rp339
(dp340
g12
V,
p341
sbatp342
Rp343
(dp344
g12
VPRN
p345
sbag0
(g1
g2
(lp346
g0
(g1
g2
(lp347
Vfor
p348
atp349
Rp350
(dp351
g12
VIN
p352
sbag0
(g1
g2
(lp353
g0
(g1
g2
(lp354
Vthe
p355
atp356
Rp357
(dp358
g12
VDT
p359
sbag0
(g1
g2
(lp360
Vfather
p361
atp362
Rp363
(dp364
g12
VNN
p365
sbatp366
Rp367
(dp368
g12
VNP
p369
sbatp370
Rp371
(dp372
g12
VPP
p373
sbatp374
Rp375
(dp376
g12
VVP
p377
sbatp378
Rp379
(dp380
g12
VVP
p381
sbatp382
Rp383
(dp384
g12
VS
p385
sbatp386
Rp387
(dp388
g12
VSBAR
p389
sbatp390
Rp391
(dp392
g12
VVP
p393
sbag0
(g1
g2
(lp394
V.
p395
atp396
Rp397
(dp398
g12
V.
p399
sbatp400
Rp401
(dp402
g12
VNP
p403
sbatp404
Rp405
(dp406
g12
S'id: 2'
p407
sbag0
(g1
g2
(lp408
g0
(g1
g2
(lp409
g0
(g1
g2
(lp410
g0
(g1
g2
(lp411
VThey
p412
atp413
Rp414
(dp415
g12
VPRP
p416
sbatp417
Rp418
(dp419
g12
VNP
p420
sbag0
(g1
g2
(lp421
g0
(g1
g2
(lp422
V're
p423
atp424
Rp425
(dp426
g12
VVBP
p427
sbag0
(g1
g2
(lp428
g0
(g1
g2
(lp429
Vsitting
p430
atp431
Rp432
(dp433
g12
VVBG
p434
sbag0
(g1
g2
(lp435
g0
(g1
g2
(lp436
Vdown
p437
atp438
Rp439
(dp440
g12
VRP
p441
sbatp442
Rp443
(dp444
g12
VPRT
p445
sbag0
(g1
g2
(lp446
g0
(g1
g2
(lp447
Von
p448
atp449
Rp450
(dp451
g12
VIN
p452
sbag0
(g1
g2
(lp453
g0
(g1
g2
(lp454
Vthe
p455
atp456
Rp457
(dp458
g12
VDT
p459
sbag0
(g1
g2
(lp460
Vblanket
p461
atp462
Rp463
(dp464
g12
VNN
p465
sbag0
(g1
g2
(lp466
Vreading
p467
atp468
Rp469
(dp470
g12
VNN
p471
sbatp472
Rp473
(dp474
g12
VNP
p475
sbatp476
Rp477
(dp478
g12
VPP
p479
sbag0
(g1
g2
(lp480
V,
p481
atp482
Rp483
(dp484
g12
V,
p485
sbag0
(g1
g2
(lp486
g0
(g1
g2
(lp487
Vwhile
p488
atp489
Rp490
(dp491
g12
VIN
p492
sbag0
(g1
g2
(lp493
g0
(g1
g2
(lp494
g0
(g1
g2
(lp495
Vthey
p496
atp497
Rp498
(dp499
g12
VPRP
p500
sbatp501
Rp502
(dp503
g12
VNP
p504
sbag0
(g1
g2
(lp505
g0
(g1
g2
(lp506
Vlisten
p507
atp508
Rp509
(dp510
g12
VVBP
p511
sbag0
(g1
g2
(lp512
g0
(g1
g2
(lp513
Vto
p514
atp515
Rp516
(dp517
g12
VTO
p518
sbag0
(g1
g2
(lp519
g0
(g1
g2
(lp520
Vthe
p521
atp522
Rp523
(dp524
g12
VDT
p525
sbag0
(g1
g2
(lp526
Vradio
p527
atp528
Rp529
(dp530
g12
VNN
p531
sbatp532
Rp533
(dp534
g12
VNP
p535
sbatp536
Rp537
(dp538
g12
VPP
p539
sbatp540
Rp541
(dp542
g12
VVP
p543
sbatp544
Rp545
(dp546
g12
VS
p547
sbatp548
Rp549
(dp550
g12
VSBAR
p551
sbatp552
Rp553
(dp554
g12
VVP
p555
sbatp556
Rp557
(dp558
g12
VVP
p559
sbag0
(g1
g2
(lp560
V.
p561
atp562
Rp563
(dp564
g12
V.
p565
sbatp566
Rp567
(dp568
g12
VS
p569
sbatp570
Rp571
(dp572
g12
S'id: 3'
p573
sbag0
(g1
g2
(lp574
g0
(g1
g2
(lp575
g0
(g1
g2
(lp576
g0
(g1
g2
(lp577
VI
p578
atp579
Rp580
(dp581
g12
VPRP
p582
sbatp583
Rp584
(dp585
g12
VNP
p586
sbag0
(g1
g2
(lp587
g0
(g1
g2
(lp588
Vguess
p589
atp590
Rp591
(dp592
g12
VVBP
p593
sbag0
(g1
g2
(lp594
g0
(g1
g2
(lp595
g0
(g1
g2
(lp596
Vshe
p597
atp598
Rp599
(dp600
g12
VPRP
p601
sbatp602
Rp603
(dp604
g12
VNP
p605
sbag0
(g1
g2
(lp606
g0
(g1
g2
(lp607
Vdoing
p608
atp609
Rp610
(dp611
g12
VVBG
p612
sbag0
(g1
g2
(lp613
g0
(g1
g2
(lp614
Vthat
p615
atp616
Rp617
(dp618
g12
VIN
p619
sbag0
(g1
g2
(lp620
Vbefore
p621
atp622
Rp623
(dp624
g12
VIN
p625
sbag0
(g1
g2
(lp626
g0
(g1
g2
(lp627
g0
(g1
g2
(lp628
Vshe
p629
atp630
Rp631
(dp632
g12
VPRP
p633
sbatp634
Rp635
(dp636
g12
VNP
p637
sbag0
(g1
g2
(lp638
g0
(g1
g2
(lp639
Vopen
p640
atp641
Rp642
(dp643
g12
VVB
p644
sbag0
(g1
g2
(lp645
g0
(g1
g2
(lp646
Vup
p647
atp648
Rp649
(dp650
g12
VRP
p651
sbatp652
Rp653
(dp654
g12
VPRT
p655
sbag0
(g1
g2
(lp656
g0
(g1
g2
(lp657
Vthe
p658
atp659
Rp660
(dp661
g12
VDT
p662
sbag0
(g1
g2
(lp663
Vpicnic
p664
atp665
Rp666
(dp667
g12
VNN
p668
sbag0
(g1
g2
(lp669
Vbasket
p670
atp671
Rp672
(dp673
g12
VNN
p674
sbatp675
Rp676
(dp677
g12
VNP
p678
sbatp679
Rp680
(dp681
g12
VVP
p682
sbatp683
Rp684
(dp685
g12
VS
p686
sbatp687
Rp688
(dp689
g12
VSBAR
p690
sbatp691
Rp692
(dp693
g12
VVP
p694
sbatp695
Rp696
(dp697
g12
VS
p698
sbatp699
Rp700
(dp701
g12
VVP
p702
sbag0
(g1
g2
(lp703
V.
p704
atp705
Rp706
(dp707
g12
V.
p708
sbatp709
Rp710
(dp711
g12
VS
p712
sbatp713
Rp714
(dp715
g12
S'id: 4'
p716
sbag0
(g1
g2
(lp717
g0
(g1
g2
(lp718
g0
(g1
g2
(lp719
g0
(g1
g2
(lp720
g0
(g1
g2
(lp721
VThere
p722
atp723
Rp724
(dp725
g12
VEX
p726
sbatp727
Rp728
(dp729
g12
VNP
p730
sbag0
(g1
g2
(lp731
g0
(g1
g2
(lp732
Va
p733
atp734
Rp735
(dp736
g12
VDT
p737
sbag0
(g1
g2
(lp738
Vman
p739
atp740
Rp741
(dp742
g12
VNN
p743
sbatp744
Rp745
(dp746
g12
VNP
p747
sbatp748
Rp749
(dp750
g12
VNP-TMP
p751
sbag0
(g1
g2
(lp752
g0
(g1
g2
(lp753
Von
p754
atp755
Rp756
(dp757
g12
VIN
p758
sbag0
(g1
g2
(lp759
g0
(g1
g2
(lp760
Vthe
p761
atp762
Rp763
(dp764
g12
VDT
p765
sbag0
(g1
g2
(lp766
Vdock
p767
atp768
Rp769
(dp770
g12
VNN
p771
sbag0
(g1
g2
(lp772
Vfishing
p773
atp774
Rp775
(dp776
g12
VNN
p777
sbatp778
Rp779
(dp780
g12
VNP
p781
sbatp782
Rp783
(dp784
g12
VPP
p785
sbag0
(g1
g2
(lp786
V,
p787
atp788
Rp789
(dp790
g12
V,
p791
sbag0
(g1
g2
(lp792
g0
(g1
g2
(lp793
Vhe
p794
atp795
Rp796
(dp797
g12
VPRP
p798
sbatp799
Rp800
(dp801
g12
VNP
p802
sbag0
(g1
g2
(lp803
g0
(g1
g2
(lp804
Vdone
p805
atp806
Rp807
(dp808
g12
VVBD
p809
sbag0
(g1
g2
(lp810
g0
(g1
g2
(lp811
Vcaught
p812
atp813
Rp814
(dp815
g12
VVBN
p816
sbag0
(g1
g2
(lp817
g0
(g1
g2
(lp818
Va
p819
atp820
Rp821
(dp822
g12
VDT
p823
sbag0
(g1
g2
(lp824
Vfish
p825
atp826
Rp827
(dp828
g12
VNN
p829
sbatp830
Rp831
(dp832
g12
VNP
p833
sbatp834
Rp835
(dp836
g12
VVP
p837
sbatp838
Rp839
(dp840
g12
VVP
p841
sbag0
(g1
g2
(lp842
V.
p843
atp844
Rp845
(dp846
g12
V.
p847
sbatp848
Rp849
(dp850
g12
VS
p851
sbatp852
Rp853
(dp854
g12
S'id: 5'
p855
sbag0
(g1
g2
(lp856
g0
(g1
g2
(lp857
g0
(g1
g2
(lp858
VAnd
p859
atp860
Rp861
(dp862
g12
VCC
p863
sbag0
(g1
g2
(lp864
g0
(g1
g2
(lp865
g0
(g1
g2
(lp866
Vthe
p867
atp868
Rp869
(dp870
g12
VDT
p871
sbag0
(g1
g2
(lp872
Vboy
p873
atp874
Rp875
(dp876
g12
VNN
p877
sbatp878
Rp879
(dp880
g12
VNP
p881
sbag0
(g1
g2
(lp882
g0
(g1
g2
(lp883
g0
(g1
g2
(lp884
Vthat
p885
atp886
Rp887
(dp888
g12
VWDT
p889
sbatp890
Rp891
(dp892
g12
VWHNP
p893
sbag0
(g1
g2
(lp894
g0
(g1
g2
(lp895
g0
(g1
g2
(lp896
V's
p897
atp898
Rp899
(dp900
g12
VVBZ
p901
sbag0
(g1
g2
(lp902
g0
(g1
g2
(lp903
Vflying
p904
atp905
Rp906
(dp907
g12
VVBG
p908
sbag0
(g1
g2
(lp909
g0
(g1
g2
(lp910
Va
p911
atp912
Rp913
(dp914
g12
VDT
p915
sbag0
(g1
g2
(lp916
Vkite
p917
atp918
Rp919
(dp920
g12
VNN
p921
sbatp922
Rp923
(dp924
g12
VNP
p925
sbatp926
Rp927
(dp928
g12
VVP
p929
sbatp930
Rp931
(dp932
g12
VVP
p933
sbatp934
Rp935
(dp936
g12
VS
p937
sbatp938
Rp939
(dp940
g12
VSBAR
p941
sbatp942
Rp943
(dp944
g12
VNP
p945
sbag0
(g1
g2
(lp946
g0
(g1
g2
(lp947
Vgot
p948
atp949
Rp950
(dp951
g12
VVBD
p952
sbag0
(g1
g2
(lp953
g0
(g1
g2
(lp954
g0
(g1
g2
(lp955
Va
p956
atp957
Rp958
(dp959
g12
VDT
p960
sbag0
(g1
g2
(lp961
Vdog
p962
atp963
Rp964
(dp965
g12
VNN
p966
sbatp967
Rp968
(dp969
g12
VNP
p970
sbag0
(g1
g2
(lp971
g0
(g1
g2
(lp972
g0
(g1
g2
(lp973
Vthat
p974
atp975
Rp976
(dp977
g12
VWDT
p978
sbatp979
Rp980
(dp981
g12
VWHNP
p982
sbag0
(g1
g2
(lp983
g0
(g1
g2
(lp984
g0
(g1
g2
(lp985
V's
p986
atp987
Rp988
(dp989
g12
VVBZ
p990
sbag0
(g1
g2
(lp991
g0
(g1
g2
(lp992
Vrunning
p993
atp994
Rp995
(dp996
g12
VVBG
p997
sbag0
(g1
g2
(lp998
g0
(g1
g2
(lp999
Vafter
p1000
atp1001
Rp1002
(dp1003
g12
VIN
p1004
sbag0
(g1
g2
(lp1005
g0
(g1
g2
(lp1006
Vhim
p1007
atp1008
Rp1009
(dp1010
g12
VPRP
p1011
sbatp1012
Rp1013
(dp1014
g12
VNP
p1015
sbatp1016
Rp1017
(dp1018
g12
VPP
p1019
sbatp1020
Rp1021
(dp1022
g12
VVP
p1023
sbatp1024
Rp1025
(dp1026
g12
VVP
p1027
sbatp1028
Rp1029
(dp1030
g12
VS
p1031
sbatp1032
Rp1033
(dp1034
g12
VSBAR
p1035
sbatp1036
Rp1037
(dp1038
g12
VNP
p1039
sbatp1040
Rp1041
(dp1042
g12
VVP
p1043
sbag0
(g1
g2
(lp1044
V.
p1045
atp1046
Rp1047
(dp1048
g12
V.
p1049
sbatp1050
Rp1051
(dp1052
g12
VS
p1053
sbatp1054
Rp1055
(dp1056
g12
S'id: 6'
p1057
sbag0
(g1
g2
(lp1058
g0
(g1
g2
(lp1059
g0
(g1
g2
(lp1060
g0
(g1
g2
(lp1061
g0
(g1
g2
(lp1062
VThen
p1063
atp1064
Rp1065
(dp1066
g12
VRB
p1067
sbatp1068
Rp1069
(dp1070
g12
VADVP
p1071
sbag0
(g1
g2
(lp1072
g0
(g1
g2
(lp1073
Vthe
p1074
atp1075
Rp1076
(dp1077
g12
VDT
p1078
sbag0
(g1
g2
(lp1079
Vother
p1080
atp1081
Rp1082
(dp1083
g12
VJJ
p1084
sbag0
(g1
g2
(lp1085
Vgirl
p1086
atp1087
Rp1088
(dp1089
g12
VNN
p1090
sbatp1091
Rp1092
(dp1093
g12
VNP
p1094
sbag0
(g1
g2
(lp1095
g0
(g1
g2
(lp1096
Vis
p1097
atp1098
Rp1099
(dp1100
g12
VVBZ
p1101
sbag0
(g1
g2
(lp1102
g0
(g1
g2
(lp1103
Vbuilding
p1104
atp1105
Rp1106
(dp1107
g12
VVBG
p1108
sbag0
(g1
g2
(lp1109
g0
(g1
g2
(lp1110
Va
p1111
atp1112
Rp1113
(dp1114
g12
VDT
p1115
sbag0
(g1
g2
(lp1116
Vsandcastle
p1117
atp1118
Rp1119
(dp1120
g12
VNN
p1121
sbatp1122
Rp1123
(dp1124
g12
VNP
p1125
sbatp1126
Rp1127
(dp1128
g12
VVP
p1129
sbatp1130
Rp1131
(dp1132
g12
VVP
p1133
sbatp1134
Rp1135
(dp1136
g12
VS
p1137
sbag0
(g1
g2
(lp1138
V,
p1139
atp1140
Rp1141
(dp1142
g12
V,
p1143
sbag0
(g1
g2
(lp1144
g0
(g1
g2
(lp1145
Vshe
p1146
atp1147
Rp1148
(dp1149
g12
VPRP
p1150
sbatp1151
Rp1152
(dp1153
g12
VNP
p1154
sbag0
(g1
g2
(lp1155
g0
(g1
g2
(lp1156
Vgot
p1157
atp1158
Rp1159
(dp1160
g12
VVBD
p1161
sbag0
(g1
g2
(lp1162
g0
(g1
g2
(lp1163
g0
(g1
g2
(lp1164
Va
p1165
atp1166
Rp1167
(dp1168
g12
VDT
p1169
sbag0
(g1
g2
(lp1170
Vshovel
p1171
atp1172
Rp1173
(dp1174
g12
VNN
p1175
sbatp1176
Rp1177
(dp1178
g12
VNP
p1179
sbag0
(g1
g2
(lp1180
Vand
p1181
atp1182
Rp1183
(dp1184
g12
VCC
p1185
sbag0
(g1
g2
(lp1186
g0
(g1
g2
(lp1187
Va
p1188
atp1189
Rp1190
(dp1191
g12
VDT
p1192
sbag0
(g1
g2
(lp1193
Vbucket
p1194
atp1195
Rp1196
(dp1197
g12
VNN
p1198
sbatp1199
Rp1200
(dp1201
g12
VNP
p1202
sbatp1203
Rp1204
(dp1205
g12
VNP
p1206
sbag0
(g1
g2
(lp1207
g0
(g1
g2
(lp1208
Vout
p1209
atp1210
Rp1211
(dp1212
g12
VIN
p1213
sbag0
(g1
g2
(lp1214
g0
(g1
g2
(lp1215
Vthere
p1216
atp1217
Rp1218
(dp1219
g12
VRB
p1220
sbatp1221
Rp1222
(dp1223
g12
VNP
p1224
sbatp1225
Rp1226
(dp1227
g12
VPP
p1228
sbatp1229
Rp1230
(dp1231
g12
VVP
p1232
sbag0
(g1
g2
(lp1233
V.
p1234
atp1235
Rp1236
(dp1237
g12
V.
p1238
sbatp1239
Rp1240
(dp1241
g12
VS
p1242
sbatp1243
Rp1244
(dp1245
g12
S'id: 7'
p1246
sbag0
(g1
g2
(lp1247
g0
(g1
g2
(lp1248
g0
(g1
g2
(lp1249
VAnd
p1250
atp1251
Rp1252
(dp1253
g12
VCC
p1254
sbag0
(g1
g2
(lp1255
g0
(g1
g2
(lp1256
g0
(g1
g2
(lp1257
Vthe
p1258
atp1259
Rp1260
(dp1261
g12
VDT
p1262
sbag0
(g1
g2
(lp1263
Vhouse
p1264
atp1265
Rp1266
(dp1267
g12
VNN
p1268
sbatp1269
Rp1270
(dp1271
g12
VNP
p1272
sbag0
(g1
g2
(lp1273
V,
p1274
atp1275
Rp1276
(dp1277
g12
V,
p1278
sbag0
(g1
g2
(lp1279
g0
(g1
g2
(lp1280
Vthe
p1281
atp1282
Rp1283
(dp1284
g12
VDT
p1285
sbag0
(g1
g2
(lp1286
Vcars
p1287
atp1288
Rp1289
(dp1290
g12
VNNS
p1291
sbatp1292
Rp1293
(dp1294
g12
VNP
p1295
sbatp1296
Rp1297
(dp1298
g12
VNP
p1299
sbag0
(g1
g2
(lp1300
g0
(g1
g2
(lp1301
Vparked
p1302
atp1303
Rp1304
(dp1305
g12
VVBD
p1306
sbag0
(g1
g2
(lp1307
g0
(g1
g2
(lp1308
Vat
p1309
atp1310
Rp1311
(dp1312
g12
VIN
p1313
sbag0
(g1
g2
(lp1314
g0
(g1
g2
(lp1315
g0
(g1
g2
(lp1316
Vthe
p1317
atp1318
Rp1319
(dp1320
g12
VDT
p1321
sbag0
(g1
g2
(lp1322
Vhouse
p1323
atp1324
Rp1325
(dp1326
g12
VNN
p1327
sbatp1328
Rp1329
(dp1330
g12
VNP
p1331
sbag0
(g1
g2
(lp1332
g0
(g1
g2
(lp1333
Vwith
p1334
atp1335
Rp1336
(dp1337
g12
VIN
p1338
sbag0
(g1
g2
(lp1339
g0
(g1
g2
(lp1340
Va
p1341
atp1342
Rp1343
(dp1344
g12
VDT
p1345
sbag0
(g1
g2
(lp1346
Vflag
p1347
atp1348
Rp1349
(dp1350
g12
VNN
p1351
sbag0
(g1
g2
(lp1352
Vpole
p1353
atp1354
Rp1355
(dp1356
g12
VNN
p1357
sbatp1358
Rp1359
(dp1360
g12
VNP
p1361
sbatp1362
Rp1363
(dp1364
g12
VPP
p1365
sbatp1366
Rp1367
(dp1368
g12
VNP
p1369
sbatp1370
Rp1371
(dp1372
g12
VPP
p1373
sbag0
(g1
g2
(lp1374
g0
(g1
g2
(lp1375
Von
p1376
atp1377
Rp1378
(dp1379
g12
VIN
p1380
sbag0
(g1
g2
(lp1381
g0
(g1
g2
(lp1382
Vit
p1383
atp1384
Rp1385
(dp1386
g12
VPRP
p1387
sbatp1388
Rp1389
(dp1390
g12
VNP
p1391
sbatp1392
Rp1393
(dp1394
g12
VPP
p1395
sbag0
(g1
g2
(lp1396
V,
p1397
atp1398
Rp1399
(dp1400
g12
V,
p1401
sbag0
(g1
g2
(lp1402
g0
(g1
g2
(lp1403
Vwith
p1404
atp1405
Rp1406
(dp1407
g12
VIN
p1408
sbag0
(g1
g2
(lp1409
g0
(g1
g2
(lp1410
g0
(g1
g2
(lp1411
g0
(g1
g2
(lp1412
Va
p1413
atp1414
Rp1415
(dp1416
g12
VDT
p1417
sbag0
(g1
g2
(lp1418
Vflag
p1419
atp1420
Rp1421
(dp1422
g12
VNN
p1423
sbatp1424
Rp1425
(dp1426
g12
VNP
p1427
sbag0
(g1
g2
(lp1428
g0
(g1
g2
(lp1429
Vflying
p1430
atp1431
Rp1432
(dp1433
g12
VVBG
p1434
sbatp1435
Rp1436
(dp1437
g12
VVP
p1438
sbatp1439
Rp1440
(dp1441
g12
VNP
p1442
sbag0
(g1
g2
(lp1443
V,
p1444
atp1445
Rp1446
(dp1447
g12
V,
p1448
sbag0
(g1
g2
(lp1449
g0
(g1
g2
(lp1450
g0
(g1
g2
(lp1451
Vflag
p1452
atp1453
Rp1454
(dp1455
g12
VNN
p1456
sbatp1457
Rp1458
(dp1459
g12
VNP
p1460
sbag0
(g1
g2
(lp1461
g0
(g1
g2
(lp1462
Vflying
p1463
atp1464
Rp1465
(dp1466
g12
VVBG
p1467
sbag0
(g1
g2
(lp1468
g0
(g1
g2
(lp1469
Vlike
p1470
atp1471
Rp1472
(dp1473
g12
VIN
p1474
sbag0
(g1
g2
(lp1475
g0
(g1
g2
(lp1476
g0
(g1
g2
(lp1477
Vit
p1478
atp1479
Rp1480
(dp1481
g12
VPRP
p1482
sbatp1483
Rp1484
(dp1485
g12
VNP
p1486
sbag0
(g1
g2
(lp1487
g0
(g1
g2
(lp1488
V's
p1489
atp1490
Rp1491
(dp1492
g12
VVBZ
p1493
sbag0
(g1
g2
(lp1494
g0
(g1
g2
(lp1495
Va
p1496
atp1497
Rp1498
(dp1499
g12
VDT
p1500
sbag0
(g1
g2
(lp1501
Vlittle
p1502
atp1503
Rp1504
(dp1505
g12
VJJ
p1506
sbag0
(g1
g2
(lp1507
Vwindy
p1508
atp1509
Rp1510
(dp1511
g12
VJJ
p1512
sbag0
(g1
g2
(lp1513
Voutside
p1514
atp1515
Rp1516
(dp1517
g12
VNN
p1518
sbatp1519
Rp1520
(dp1521
g12
VNP
p1522
sbatp1523
Rp1524
(dp1525
g12
VVP
p1526
sbatp1527
Rp1528
(dp1529
g12
VS
p1530
sbatp1531
Rp1532
(dp1533
g12
VSBAR
p1534
sbatp1535
Rp1536
(dp1537
g12
VVP
p1538
sbatp1539
Rp1540
(dp1541
g12
VNP
p1542
sbatp1543
Rp1544
(dp1545
g12
VNP
p1546
sbatp1547
Rp1548
(dp1549
g12
VPP
p1550
sbatp1551
Rp1552
(dp1553
g12
VVP
p1554
sbag0
(g1
g2
(lp1555
V.
p1556
atp1557
Rp1558
(dp1559
g12
V.
p1560
sbatp1561
Rp1562
(dp1563
g12
VS
p1564
sbatp1565
Rp1566
(dp1567
g12
S'id: 8'
p1568
sbag0
(g1
g2
(lp1569
g0
(g1
g2
(lp1570
g0
(g1
g2
(lp1571
VAnd
p1572
atp1573
Rp1574
(dp1575
g12
VCC
p1576
sbag0
(g1
g2
(lp1577
g0
(g1
g2
(lp1578
Vthey
p1579
atp1580
Rp1581
(dp1582
g12
VPRP
p1583
sbatp1584
Rp1585
(dp1586
g12
VNP
p1587
sbag0
(g1
g2
(lp1588
g0
(g1
g2
(lp1589
Vgot
p1590
atp1591
Rp1592
(dp1593
g12
VVBD
p1594
sbag0
(g1
g2
(lp1595
g0
(g1
g2
(lp1596
g0
(g1
g2
(lp1597
Va
p1598
atp1599
Rp1600
(dp1601
g12
VDT
p1602
sbag0
(g1
g2
(lp1603
Vfella
p1604
atp1605
Rp1606
(dp1607
g12
VNN
p1608
sbatp1609
Rp1610
(dp1611
g12
VNP
p1612
sbag0
(g1
g2
(lp1613
V,
p1614
atp1615
Rp1616
(dp1617
g12
V,
p1618
sbag0
(g1
g2
(lp1619
g0
(g1
g2
(lp1620
Vtwo
p1621
atp1622
Rp1623
(dp1624
g12
VCD
p1625
sbag0
(g1
g2
(lp1626
Vfellas
p1627
atp1628
Rp1629
(dp1630
g12
VNNS
p1631
sbatp1632
Rp1633
(dp1634
g12
VNP
p1635
sbag0
(g1
g2
(lp1636
V,
p1637
atp1638
Rp1639
(dp1640
g12
V,
p1641
sbatp1642
Rp1643
(dp1644
g12
VNP
p1645
sbag0
(g1
g2
(lp1646
g0
(g1
g2
(lp1647
g0
(g1
g2
(lp1648
g0
(g1
g2
(lp1649
Vtwo
p1650
atp1651
Rp1652
(dp1653
g12
VCD
p1654
sbag0
(g1
g2
(lp1655
Vpeople
p1656
atp1657
Rp1658
(dp1659
g12
VNNS
p1660
sbatp1661
Rp1662
(dp1663
g12
VNP
p1664
sbag0
(g1
g2
(lp1665
Vout
p1666
atp1667
Rp1668
(dp1669
g12
VIN
p1670
sbatp1671
Rp1672
(dp1673
g12
VADVP
p1674
sbag0
(g1
g2
(lp1675
Vin
p1676
atp1677
Rp1678
(dp1679
g12
VIN
p1680
sbag0
(g1
g2
(lp1681
g0
(g1
g2
(lp1682
Va
p1683
atp1684
Rp1685
(dp1686
g12
VDT
p1687
sbag0
(g1
g2
(lp1688
Vboat
p1689
atp1690
Rp1691
(dp1692
g12
VNN
p1693
sbatp1694
Rp1695
(dp1696
g12
VNP
p1697
sbatp1698
Rp1699
(dp1700
g12
VPP
p1701
sbatp1702
Rp1703
(dp1704
g12
VVP
p1705
sbag0
(g1
g2
(lp1706
V.
p1707
atp1708
Rp1709
(dp1710
g12
V.
p1711
sbatp1712
Rp1713
(dp1714
g12
VS
p1715
sbatp1716
Rp1717
(dp1718
g12
S'id: 9'
p1719
sbag0
(g1
g2
(lp1720
g0
(g1
g2
(lp1721
g0
(g1
g2
(lp1722
g0
(g1
g2
(lp1723
VThey
p1724
atp1725
Rp1726
(dp1727
g12
VPRP
p1728
sbatp1729
Rp1730
(dp1731
g12
VNP
p1732
sbag0
(g1
g2
(lp1733
g0
(g1
g2
(lp1734
V're
p1735
atp1736
Rp1737
(dp1738
g12
VVBP
p1739
sbag0
(g1
g2
(lp1740
g0
(g1
g2
(lp1741
Vsailing
p1742
atp1743
Rp1744
(dp1745
g12
VVBG
p1746
sbag0
(g1
g2
(lp1747
g0
(g1
g2
(lp1748
Vup
p1749
atp1750
Rp1751
(dp1752
g12
VRP
p1753
sbag0
(g1
g2
(lp1754
Vand
p1755
atp1756
Rp1757
(dp1758
g12
VCC
p1759
sbag0
(g1
g2
(lp1760
Vdown
p1761
atp1762
Rp1763
(dp1764
g12
VRP
p1765
sbatp1766
Rp1767
(dp1768
g12
VPRT
p1769
sbag0
(g1
g2
(lp1770
g0
(g1
g2
(lp1771
Vthe
p1772
atp1773
Rp1774
(dp1775
g12
VDT
p1776
sbag0
(g1
g2
(lp1777
Vlake
p1778
atp1779
Rp1780
(dp1781
g12
VNN
p1782
sbatp1783
Rp1784
(dp1785
g12
VNP
p1786
sbatp1787
Rp1788
(dp1789
g12
VVP
p1790
sbatp1791
Rp1792
(dp1793
g12
VVP
p1794
sbag0
(g1
g2
(lp1795
V.
p1796
atp1797
Rp1798
(dp1799
g12
V.
p1800
sbatp1801
Rp1802
(dp1803
g12
VS
p1804
sbatp1805
Rp1806
(dp1807
g12
S'id: 10'
p1808
sbag0
(g1
g2
(lp1809
g0
(g1
g2
(lp1810
g0
(g1
g2
(lp1811
g0
(g1
g2
(lp1812
VLook
p1813
atp1814
Rp1815
(dp1816
g12
VVB
p1817
sbag0
(g1
g2
(lp1818
g0
(g1
g2
(lp1819
Vlike
p1820
atp1821
Rp1822
(dp1823
g12
VIN
p1824
sbag0
(g1
g2
(lp1825
g0
(g1
g2
(lp1826
g0
(g1
g2
(lp1827
Vthe
p1828
atp1829
Rp1830
(dp1831
g12
VDT
p1832
sbag0
(g1
g2
(lp1833
Vwater
p1834
atp1835
Rp1836
(dp1837
g12
VNN
p1838
sbatp1839
Rp1840
(dp1841
g12
VNP
p1842
sbag0
(g1
g2
(lp1843
g0
(g1
g2
(lp1844
Vis
p1845
atp1846
Rp1847
(dp1848
g12
VVBZ
p1849
sbag0
(g1
g2
(lp1850
g0
(g1
g2
(lp1851
Vdown
p1852
atp1853
Rp1854
(dp1855
g12
VIN
p1856
sbag0
(g1
g2
(lp1857
g0
(g1
g2
(lp1858
Va
p1859
atp1860
Rp1861
(dp1862
g12
VDT
p1863
sbag0
(g1
g2
(lp1864
Vlittle
p1865
atp1866
Rp1867
(dp1868
g12
VJJ
p1869
sbag0
(g1
g2
(lp1870
Vbit
p1871
atp1872
Rp1873
(dp1874
g12
VNN
p1875
sbatp1876
Rp1877
(dp1878
g12
VNP
p1879
sbatp1880
Rp1881
(dp1882
g12
VPP
p1883
sbag0
(g1
g2
(lp1884
g0
(g1
g2
(lp1885
Vtoo
p1886
atp1887
Rp1888
(dp1889
g12
VRB
p1890
sbatp1891
Rp1892
(dp1893
g12
VADVP
p1894
sbatp1895
Rp1896
(dp1897
g12
VVP
p1898
sbatp1899
Rp1900
(dp1901
g12
VS
p1902
sbatp1903
Rp1904
(dp1905
g12
VSBAR
p1906
sbatp1907
Rp1908
(dp1909
g12
VVP
p1910
sbag0
(g1
g2
(lp1911
V.
p1912
atp1913
Rp1914
(dp1915
g12
V.
p1916
sbatp1917
Rp1918
(dp1919
g12
VS
p1920
sbatp1921
Rp1922
(dp1923
g12
S'id: 11'
p1924
sbag0
(g1
g2
(lp1925
g0
(g1
g2
(lp1926
g0
(g1
g2
(lp1927
g0
(g1
g2
(lp1928
VWater
p1929
atp1930
Rp1931
(dp1932
g12
VNNP
p1933
sbatp1934
Rp1935
(dp1936
g12
VNP
p1937
sbag0
(g1
g2
(lp1938
g0
(g1
g2
(lp1939
Vaint
p1940
atp1941
Rp1942
(dp1943
g12
VVB
p1944
sbag0
(g1
g2
(lp1945
g0
(g1
g2
(lp1946
Vup
p1947
atp1948
Rp1949
(dp1950
g12
VRP
p1951
sbatp1952
Rp1953
(dp1954
g12
VPRT
p1955
sbag0
(g1
g2
(lp1956
g0
(g1
g2
(lp1957
g0
(g1
g2
(lp1958
Vas
p1959
atp1960
Rp1961
(dp1962
g12
VRB
p1963
sbag0
(g1
g2
(lp1964
Vhigh
p1965
atp1966
Rp1967
(dp1968
g12
VJJ
p1969
sbatp1970
Rp1971
(dp1972
g12
VADVP
p1973
sbag0
(g1
g2
(lp1974
Vas
p1975
atp1976
Rp1977
(dp1978
g12
VIN
p1979
sbag0
(g1
g2
(lp1980
g0
(g1
g2
(lp1981
g0
(g1
g2
(lp1982
Vit
p1983
atp1984
Rp1985
(dp1986
g12
VPRP
p1987
sbatp1988
Rp1989
(dp1990
g12
VNP
p1991
sbag0
(g1
g2
(lp1992
g0
(g1
g2
(lp1993
Vshould
p1994
atp1995
Rp1996
(dp1997
g12
VMD
p1998
sbag0
(g1
g2
(lp1999
g0
(g1
g2
(lp2000
Vbe
p2001
atp2002
Rp2003
(dp2004
g12
VVB
p2005
sbatp2006
Rp2007
(dp2008
g12
VVP
p2009
sbatp2010
Rp2011
(dp2012
g12
VVP
p2013
sbatp2014
Rp2015
(dp2016
g12
VS
p2017
sbatp2018
Rp2019
(dp2020
g12
VSBAR
p2021
sbatp2022
Rp2023
(dp2024
g12
VVP
p2025
sbag0
(g1
g2
(lp2026
V.
p2027
atp2028
Rp2029
(dp2030
g12
V.
p2031
sbatp2032
Rp2033
(dp2034
g12
VS
p2035
sbatp2036
Rp2037
(dp2038
g12
S'id: 12'
p2039
sbag0
(g1
g2
(lp2040
g0
(g1
g2
(lp2041
g0
(g1
g2
(lp2042
VAnd
p2043
atp2044
Rp2045
(dp2046
g12
VCC
p2047
sbag0
(g1
g2
(lp2048
g0
(g1
g2
(lp2049
Vpretty
p2050
atp2051
Rp2052
(dp2053
g12
VRB
p2054
sbag0
(g1
g2
(lp2055
g0
(g1
g2
(lp2056
Vgood
p2057
atp2058
Rp2059
(dp2060
g12
VJJ
p2061
sbag0
(g1
g2
(lp2062
Vday
p2063
atp2064
Rp2065
(dp2066
g12
VNN
p2067
sbatp2068
Rp2069
(dp2070
g12
VNP
p2071
sbatp2072
Rp2073
(dp2074
g12
VADVP
p2075
sbag0
(g1
g2
(lp2076
V.
p2077
atp2078
Rp2079
(dp2080
g12
V.
p2081
sbatp2082
Rp2083
(dp2084
g12
VFRAG
p2085
sbatp2086
Rp2087
(dp2088
g12
S'id: 13'
p2089
sbag0
(g1
g2
(lp2090
g0
(g1
g2
(lp2091
g0
(g1
g2
(lp2092
g0
(g1
g2
(lp2093
VEverybody
p2094
atp2095
Rp2096
(dp2097
g12
VNN
p2098
sbatp2099
Rp2100
(dp2101
g12
VNP
p2102
sbag0
(g1
g2
(lp2103
g0
(g1
g2
(lp2104
Vhaving
p2105
atp2106
Rp2107
(dp2108
g12
VVBG
p2109
sbag0
(g1
g2
(lp2110
g0
(g1
g2
(lp2111
Vfun
p2112
atp2113
Rp2114
(dp2115
g12
VNN
p2116
sbatp2117
Rp2118
(dp2119
g12
VNP
p2120
sbatp2121
Rp2122
(dp2123
g12
VVP
p2124
sbag0
(g1
g2
(lp2125
V.
p2126
atp2127
Rp2128
(dp2129
g12
V.
p2130
sbatp2131
Rp2132
(dp2133
g12
VNP
p2134
sbatp2135
Rp2136
(dp2137
g12
S'id: 14'
p2138
sbag0
(g1
g2
(lp2139
g0
(g1
g2
(lp2140
g0
(g1
g2
(lp2141
g0
(g1
g2
(lp2142
g0
(g1
g2
(lp2143
g0
(g1
g2
(lp2144
VMan
p2145
atp2146
Rp2147
(dp2148
g12
VNN
p2149
sbag0
(g1
g2
(lp2150
V's
p2151
atp2152
Rp2153
(dp2154
g12
VPOS
p2155
sbatp2156
Rp2157
(dp2158
g12
VNP
p2159
sbag0
(g1
g2
(lp2160
Vwearing
p2161
atp2162
Rp2163
(dp2164
g12
VVBG
p2165
sbag0
(g1
g2
(lp2166
Vglasses
p2167
atp2168
Rp2169
(dp2170
g12
VNNS
p2171
sbatp2172
Rp2173
(dp2174
g12
VNP
p2175
sbag0
(g1
g2
(lp2176
V,
p2177
atp2178
Rp2179
(dp2180
g12
V,
p2181
sbag0
(g1
g2
(lp2182
Vand
p2183
atp2184
Rp2185
(dp2186
g12
VCC
p2187
sbag0
(g1
g2
(lp2188
g0
(g1
g2
(lp2189
g0
(g1
g2
(lp2190
Vhe
p2191
atp2192
Rp2193
(dp2194
g12
VPRP
p2195
sbatp2196
Rp2197
(dp2198
g12
VNP
p2199
sbag0
(g1
g2
(lp2200
g0
(g1
g2
(lp2201
Vthe
p2202
atp2203
Rp2204
(dp2205
g12
VDT
p2206
sbag0
(g1
g2
(lp2207
g0
(g1
g2
(lp2208
Vonly
p2209
atp2210
Rp2211
(dp2212
g12
VRB
p2213
sbag0
(g1
g2
(lp2214
Vone
p2215
atp2216
Rp2217
(dp2218
g12
VCD
p2219
sbatp2220
Rp2221
(dp2222
g12
VQP
p2223
sbatp2224
Rp2225
(dp2226
g12
VNP
p2227
sbatp2228
Rp2229
(dp2230
g12
VNP
p2231
sbatp2232
Rp2233
(dp2234
g12
VNP
p2235
sbag0
(g1
g2
(lp2236
g0
(g1
g2
(lp2237
g0
(g1
g2
(lp2238
Vwearing
p2239
atp2240
Rp2241
(dp2242
g12
VVBG
p2243
sbag0
(g1
g2
(lp2244
Vglasses
p2245
atp2246
Rp2247
(dp2248
g12
VNNS
p2249
sbatp2250
Rp2251
(dp2252
g12
VNP
p2253
sbag0
(g1
g2
(lp2254
g0
(g1
g2
(lp2255
Vtoo
p2256
atp2257
Rp2258
(dp2259
g12
VRB
p2260
sbatp2261
Rp2262
(dp2263
g12
VADVP
p2264
sbatp2265
Rp2266
(dp2267
g12
VNP
p2268
sbag0
(g1
g2
(lp2269
V.
p2270
atp2271
Rp2272
(dp2273
g12
V.
p2274
sbatp2275
Rp2276
(dp2277
g12
VNP
p2278
sbatp2279
Rp2280
(dp2281
g12
S'id: 15'
p2282
sbag0
(g1
g2
(lp2283
g0
(g1
g2
(lp2284
g0
(g1
g2
(lp2285
g0
(g1
g2
(lp2286
VEverybody
p2287
atp2288
Rp2289
(dp2290
g12
VNN
p2291
sbag0
(g1
g2
(lp2292
Velse
p2293
atp2294
Rp2295
(dp2296
g12
VRB
p2297
sbatp2298
Rp2299
(dp2300
g12
VNP
p2301
sbag0
(g1
g2
(lp2302
g0
(g1
g2
(lp2303
Vis
p2304
atp2305
Rp2306
(dp2307
g12
VVBZ
p2308
sbatp2309
Rp2310
(dp2311
g12
VVP
p2312
sbatp2313
Rp2314
(dp2315
g12
VFRAG
p2316
sbatp2317
Rp2318
(dp2319
g12
S'id: 16'
p2320
sbatp2321
Rp2322
(dp2323
g12
S'sentences'
p2324
sb.