ccopy_reg
_reconstructor
p0
(cnltk.tree
Tree
p1
c__builtin__
list
p2
(lp3
g0
(g1
g2
(lp4
g0
(g1
g2
(lp5
g0
(g1
g2
(lp6
VThe boy
p7
atp8
Rp9
(dp10
S'_label'
p11
S'start: 1'
p12
sbatp13
Rp14
(dp15
g11
S'sent: 1'
p16
sbag0
(g1
g2
(lp17
g0
(g1
g2
(lp18
Vthe boy 's
p19
atp20
Rp21
(dp22
g11
S'start: 4'
p23
sbatp24
Rp25
(dp26
g11
S'sent: 1'
p27
sbag0
(g1
g2
(lp28
g0
(g1
g2
(lp29
Vhe
p30
atp31
Rp32
(dp33
g11
S'start: 15'
p34
sbatp35
Rp36
(dp37
g11
S'sent: 1'
p38
sbag0
(g1
g2
(lp39
g0
(g1
g2
(lp40
Vhe
p41
atp42
Rp43
(dp44
g11
S'start: 17'
p45
sbatp46
Rp47
(dp48
g11
S'sent: 1'
p49
sbag0
(g1
g2
(lp50
g0
(g1
g2
(lp51
Vhe
p52
atp53
Rp54
(dp55
g11
S'start: 19'
p56
sbatp57
Rp58
(dp59
g11
S'sent: 1'
p60
sbag0
(g1
g2
(lp61
g0
(g1
g2
(lp62
Vhe
p63
atp64
Rp65
(dp66
g11
S'start: 31'
p67
sbatp68
Rp69
(dp70
g11
S'sent: 1'
p71
sbag0
(g1
g2
(lp72
g0
(g1
g2
(lp73
Vhim , him
p74
atp75
Rp76
(dp77
g11
S'start: 6'
p78
sbatp79
Rp80
(dp81
g11
S'sent: 2'
p82
sbag0
(g1
g2
(lp83
g0
(g1
g2
(lp84
Vhim
p85
atp86
Rp87
(dp88
g11
S'start: 6'
p89
sbatp90
Rp91
(dp92
g11
S'sent: 2'
p93
sbag0
(g1
g2
(lp94
g0
(g1
g2
(lp95
Vhim
p96
atp97
Rp98
(dp99
g11
S'start: 8'
p100
sbatp101
Rp102
(dp103
g11
S'sent: 2'
p104
sbag0
(g1
g2
(lp105
g0
(g1
g2
(lp106
Vthe boy
p107
atp108
Rp109
(dp110
g11
S'start: 20'
p111
sbatp112
Rp113
(dp114
g11
S'sent: 12'
p115
sbatp116
Rp117
(dp118
g11
S'id: 4'
p119
sbag0
(g1
g2
(lp120
g0
(g1
g2
(lp121
g0
(g1
g2
(lp122
Vthe boy 's raiding the cooking jar
p123
atp124
Rp125
(dp126
g11
S'start: 4'
p127
sbatp128
Rp129
(dp130
g11
S'sent: 1'
p131
sbag0
(g1
g2
(lp132
g0
(g1
g2
(lp133
Vit
p134
atp135
Rp136
(dp137
g11
S'start: 33'
p138
sbatp139
Rp140
(dp141
g11
S'sent: 1'
p142
sbag0
(g1
g2
(lp143
g0
(g1
g2
(lp144
Vit
p145
atp146
Rp147
(dp148
g11
S'start: 35'
p149
sbatp150
Rp151
(dp152
g11
S'sent: 1'
p153
sbatp154
Rp155
(dp156
g11
S'id: 5'
p157
sbag0
(g1
g2
(lp158
g0
(g1
g2
(lp159
g0
(g1
g2
(lp160
Vthe girl
p161
atp162
Rp163
(dp164
g11
S'start: 2'
p165
sbatp166
Rp167
(dp168
g11
S'sent: 2'
p169
sbag0
(g1
g2
(lp170
g0
(g1
g2
(lp171
Vshe
p172
atp173
Rp174
(dp175
g11
S'start: 19'
p176
sbatp177
Rp178
(dp179
g11
S'sent: 2'
p180
sbag0
(g1
g2
(lp181
g0
(g1
g2
(lp182
Vthe girl
p183
atp184
Rp185
(dp186
g11
S'start: 3'
p187
sbatp188
Rp189
(dp190
g11
S'sent: 12'
p191
sbag0
(g1
g2
(lp192
g0
(g1
g2
(lp193
Vthe girl
p194
atp195
Rp196
(dp197
g11
S'start: 10'
p198
sbatp199
Rp200
(dp201
g11
S'sent: 12'
p202
sbag0
(g1
g2
(lp203
g0
(g1
g2
(lp204
Vthe girl
p205
atp206
Rp207
(dp208
g11
S'start: 3'
p209
sbatp210
Rp211
(dp212
g11
S'sent: 13'
p213
sbag0
(g1
g2
(lp214
g0
(g1
g2
(lp215
Vno I
p216
atp217
Rp218
(dp219
g11
S'start: 10'
p220
sbatp221
Rp222
(dp223
g11
S'sent: 13'
p224
sbatp225
Rp226
(dp227
g11
S'id: 17'
p228
sbag0
(g1
g2
(lp229
g0
(g1
g2
(lp230
g0
(g1
g2
(lp231
VOk
p232
atp233
Rp234
(dp235
g11
S'start: 1'
p236
sbatp237
Rp238
(dp239
g11
S'sent: 3'
p240
sbag0
(g1
g2
(lp241
g0
(g1
g2
(lp242
Vthe sink 's overflowing
p243
atp244
Rp245
(dp246
g11
S'start: 9'
p247
sbatp248
Rp249
(dp250
g11
S'sent: 3'
p251
sbag0
(g1
g2
(lp252
g0
(g1
g2
(lp253
Vthe sink 's overflowing
p254
atp255
Rp256
(dp257
g11
S'start: 14'
p258
sbatp259
Rp260
(dp261
g11
S'sent: 3'
p262
sbag0
(g1
g2
(lp263
g0
(g1
g2
(lp264
VOk
p265
atp266
Rp267
(dp268
g11
S'start: 1'
p269
sbatp270
Rp271
(dp272
g11
S'sent: 4'
p273
sbag0
(g1
g2
(lp274
g0
(g1
g2
(lp275
VOk
p276
atp277
Rp278
(dp279
g11
S'start: 1'
p280
sbatp281
Rp282
(dp283
g11
S'sent: 13'
p284
sbag0
(g1
g2
(lp285
g0
(g1
g2
(lp286
Vit
p287
atp288
Rp289
(dp290
g11
S'start: 16'
p291
sbatp292
Rp293
(dp294
g11
S'sent: 13'
p295
sbatp296
Rp297
(dp298
g11
S'id: 30'
p299
sbag0
(g1
g2
(lp300
g0
(g1
g2
(lp301
g0
(g1
g2
(lp302
Vthe curtians
p303
atp304
Rp305
(dp306
g11
S'start: 4'
p307
sbatp308
Rp309
(dp310
g11
S'sent: 4'
p311
sbag0
(g1
g2
(lp312
g0
(g1
g2
(lp313
Vthey
p314
atp315
Rp316
(dp317
g11
S'start: 10'
p318
sbatp319
Rp320
(dp321
g11
S'sent: 4'
p322
sbatp323
Rp324
(dp325
g11
S'id: 34'
p326
sbag0
(g1
g2
(lp327
g0
(g1
g2
(lp328
g0
(g1
g2
(lp329
Vbraiden , no .
p330
atp331
Rp332
(dp333
g11
S'start: 1'
p334
sbatp335
Rp336
(dp337
g11
S'sent: 8'
p338
sbag0
(g1
g2
(lp339
g0
(g1
g2
(lp340
Vno
p341
atp342
Rp343
(dp344
g11
S'start: 3'
p345
sbatp346
Rp347
(dp348
g11
S'sent: 8'
p349
sbag0
(g1
g2
(lp350
g0
(g1
g2
(lp351
Vno
p352
atp353
Rp354
(dp355
g11
S'start: 5'
p356
sbatp357
Rp358
(dp359
g11
S'sent: 9'
p360
sbag0
(g1
g2
(lp361
g0
(g1
g2
(lp362
Vhe , their both
p363
atp364
Rp365
(dp366
g11
S'start: 2'
p367
sbatp368
Rp369
(dp370
g11
S'sent: 11'
p371
sbag0
(g1
g2
(lp372
g0
(g1
g2
(lp373
Vhe
p374
atp375
Rp376
(dp377
g11
S'start: 2'
p378
sbatp379
Rp380
(dp381
g11
S'sent: 11'
p382
sbatp383
Rp384
(dp385
g11
S'id: 37'
p386
sbag0
(g1
g2
(lp387
g0
(g1
g2
(lp388
g0
(g1
g2
(lp389
VThe cookie jar , no .
p390
atp391
Rp392
(dp393
g11
S'start: 1'
p394
sbatp395
Rp396
(dp397
g11
S'sent: 9'
p398
sbag0
(g1
g2
(lp399
g0
(g1
g2
(lp400
VThe cookie jar
p401
atp402
Rp403
(dp404
g11
S'start: 1'
p405
sbatp406
Rp407
(dp408
g11
S'sent: 9'
p409
sbag0
(g1
g2
(lp410
g0
(g1
g2
(lp411
VThe cookie jar
p412
atp413
Rp414
(dp415
g11
S'start: 1'
p416
sbatp417
Rp418
(dp419
g11
S'sent: 10'
p420
sbag0
(g1
g2
(lp421
g0
(g1
g2
(lp422
Vit
p423
atp424
Rp425
(dp426
g11
S'start: 10'
p427
sbatp428
Rp429
(dp430
g11
S'sent: 10'
p431
sbag0
(g1
g2
(lp432
g0
(g1
g2
(lp433
Vthe cookie jar on it
p434
atp435
Rp436
(dp437
g11
S'start: 15'
p438
sbatp439
Rp440
(dp441
g11
S'sent: 10'
p442
sbag0
(g1
g2
(lp443
g0
(g1
g2
(lp444
Vit
p445
atp446
Rp447
(dp448
g11
S'start: 19'
p449
sbatp450
Rp451
(dp452
g11
S'sent: 10'
p453
sbatp454
Rp455
(dp456
g11
S'id: 39'
p457
sbag0
(g1
g2
(lp458
g0
(g1
g2
(lp459
g0
(g1
g2
(lp460
Va skirt
p461
atp462
Rp463
(dp464
g11
S'start: 7'
p465
sbatp466
Rp467
(dp468
g11
S'sent: 12'
p469
sbag0
(g1
g2
(lp470
g0
(g1
g2
(lp471
Va
p472
atp473
Rp474
(dp475
g11
S'start: 24'
p476
sbatp477
Rp478
(dp479
g11
S'sent: 12'
p480
sbag0
(g1
g2
(lp481
g0
(g1
g2
(lp482
Va
p483
atp484
Rp485
(dp486
g11
S'start: 29'
p487
sbatp488
Rp489
(dp490
g11
S'sent: 12'
p491
sbag0
(g1
g2
(lp492
g0
(g1
g2
(lp493
Va
p494
atp495
Rp496
(dp497
g11
S'start: 32'
p498
sbatp499
Rp500
(dp501
g11
S'sent: 12'
p502
sbag0
(g1
g2
(lp503
g0
(g1
g2
(lp504
Va
p505
atp506
Rp507
(dp508
g11
S'start: 35'
p509
sbatp510
Rp511
(dp512
g11
S'sent: 12'
p513
sbatp514
Rp515
(dp516
g11
S'id: 55'
p517
sbag0
(g1
g2
(lp518
g0
(g1
g2
(lp519
g0
(g1
g2
(lp520
Vmarch
p521
atp522
Rp523
(dp524
g11
S'start: 37'
p525
sbatp526
Rp527
(dp528
g11
S'sent: 12'
p529
sbag0
(g1
g2
(lp530
g0
(g1
g2
(lp531
Vtwo shoes
p532
atp533
Rp534
(dp535
g11
S'start: 39'
p536
sbatp537
Rp538
(dp539
g11
S'sent: 12'
p540
sbatp541
Rp542
(dp543
g11
S'id: 66'
p544
sbatp545
Rp546
(dp547
g11
S'coreferences'
p548
sb.