ccopy_reg
_reconstructor
p0
(cnltk.tree
Tree
p1
c__builtin__
list
p2
(lp3
g0
(g1
g2
(lp4
g0
(g1
g2
(lp5
g0
(g1
g2
(lp6
g0
(g1
g2
(lp7
g0
(g1
g2
(lp8
(lp9
S'word: The, index: 1'
p10
aatp11
Rp12
(dp13
S'_label'
p14
Vdet
p15
sbatp16
Rp17
(dp18
g14
S'word: girl, index: 2'
p19
sbatp20
Rp21
(dp22
g14
Vnsubj
p23
sbag0
(g1
g2
(lp24
g0
(g1
g2
(lp25
g0
(g1
g2
(lp26
(lp27
S'word: he, index: 17'
p28
aatp29
Rp30
(dp31
g14
Vnsubj
p32
sbag0
(g1
g2
(lp33
(lp34
S'word: it, index: 20'
p35
aatp36
Rp37
(dp38
g14
Vprep
p39
sbag0
(g1
g2
(lp40
g0
(g1
g2
(lp41
g0
(g1
g2
(lp42
(lp43
S'word: he, index: 23'
p44
aatp45
Rp46
(dp47
g14
Vnsubj
p48
sbag0
(g1
g2
(lp49
g0
(g1
g2
(lp50
g0
(g1
g2
(lp51
(lp52
S'word: na, index: 25'
p53
aatp54
Rp55
(dp56
g14
Vaux
p57
sbag0
(g1
g2
(lp58
(lp59
S'word: down, index: 27'
p60
aatp61
Rp62
(dp63
g14
Vprt
p64
sbatp65
Rp66
(dp67
g14
S'word: fall, index: 26'
p68
sbatp69
Rp70
(dp71
g14
Vxcomp
p72
sbatp73
Rp74
(dp75
g14
S'word: gon, index: 24'
p76
sbatp77
Rp78
(dp79
g14
Vconj
p80
sbatp81
Rp82
(dp83
g14
S'word: reach, index: 18'
p84
sbatp85
Rp86
(dp87
g14
Vconj
p88
sbag0
(g1
g2
(lp89
g0
(g1
g2
(lp90
g0
(g1
g2
(lp91
(lp92
S'word: her, index: 4'
p93
aatp94
Rp95
(dp96
g14
Vposs
p97
sbatp98
Rp99
(dp100
g14
S'word: brother, index: 5'
p101
sbatp102
Rp103
(dp104
g14
Vdobj
p105
sbag0
(g1
g2
(lp106
g74
atp107
Rp108
(dp109
g14
Vconj
p110
sbag0
(g1
g2
(lp111
g0
(g1
g2
(lp112
g0
(g1
g2
(lp113
(lp114
S'word: the, index: 8'
p115
aatp116
Rp117
(dp118
g14
Vdet
p119
sbag0
(g1
g2
(lp120
(lp121
S'word: cookie, index: 9'
p122
aatp123
Rp124
(dp125
g14
Vnn
p126
sbatp127
Rp128
(dp129
g14
S'word: jar, index: 10'
p130
sbatp131
Rp132
(dp133
g14
Vprep
p134
sbag0
(g1
g2
(lp135
g0
(g1
g2
(lp136
g0
(g1
g2
(lp137
(lp138
S'word: he, index: 12'
p139
aatp140
Rp141
(dp142
g14
Vnsubj
p143
sbag0
(g1
g2
(lp144
(lp145
S'word: it, index: 14'
p146
aatp147
Rp148
(dp149
g14
Vdobj
p150
sbatp151
Rp152
(dp153
g14
S'word: get, index: 13'
p154
sbatp155
Rp156
(dp157
g14
Vdep
p158
sbatp159
Rp160
(dp161
g14
S'word: getting, index: 3'
p162
sbatp163
Rp164
(dp165
g14
S'id: 0'
p166
sbag0
(g1
g2
(lp167
g0
(g1
g2
(lp168
g0
(g1
g2
(lp169
(lp170
S'word: is, index: 3'
p171
aatp172
Rp173
(dp174
g14
Vaux
p175
sbag0
(g1
g2
(lp176
g0
(g1
g2
(lp177
g0
(g1
g2
(lp178
(lp179
S'word: her, index: 5'
p180
aatp181
Rp182
(dp183
g14
Vposs
p184
sbatp185
Rp186
(dp187
g14
S'word: dishes, index: 6'
p188
sbatp189
Rp190
(dp191
g14
Vdobj
p192
sbag0
(g1
g2
(lp193
g0
(g1
g2
(lp194
g0
(g1
g2
(lp195
g0
(g1
g2
(lp196
g0
(g1
g2
(lp197
(lp198
S'word: the, index: 20'
p199
aatp200
Rp201
(dp202
g14
Vdet
p203
sbag0
(g1
g2
(lp204
(lp205
S'word: dishes, index: 23'
p206
aatp207
Rp208
(dp209
g14
Vconj
p210
sbag0
(g1
g2
(lp211
(lp212
S'word: all, index: 24'
p213
aatp214
Rp215
(dp216
g14
Vadvmod
p217
sbag0
(g1
g2
(lp218
g0
(g1
g2
(lp219
g0
(g1
g2
(lp220
(lp221
S'word: the, index: 26'
p222
aatp223
Rp224
(dp225
g14
Vdet
p226
sbatp227
Rp228
(dp229
g14
S'word: place, index: 27'
p230
sbatp231
Rp232
(dp233
g14
Vprep
p234
sbatp235
Rp236
(dp237
g14
S'word: pots, index: 21'
p238
sbatp239
Rp240
(dp241
g14
Vdobj
p242
sbag0
(g1
g2
(lp243
(lp244
S'word: over, index: 9'
p245
aatp246
Rp247
(dp248
g14
Vadvmod
p249
sbag0
(g1
g2
(lp250
g0
(g1
g2
(lp251
g0
(g1
g2
(lp252
g236
atp253
Rp254
(dp255
g14
Vconj
p256
sbag0
(g1
g2
(lp257
(lp258
S'word: dishes, index: 23'
p259
aatp260
Rp261
(dp262
g14
Vconj
p263
sbag0
(g1
g2
(lp264
(lp265
S'word: the, index: 11'
p266
aatp267
Rp268
(dp269
g14
Vdet
p270
sbag0
(g1
g2
(lp271
g0
(g1
g2
(lp272
g0
(g1
g2
(lp273
g0
(g1
g2
(lp274
g0
(g1
g2
(lp275
(lp276
S'word: the, index: 16'
p277
aatp278
Rp279
(dp280
g14
Vdet
p281
sbatp282
Rp283
(dp284
g14
S'word: ground, index: 17'
p285
sbatp286
Rp287
(dp288
g14
Vprep
p289
sbatp290
Rp291
(dp292
g14
S'word: fall, index: 14'
p293
sbatp294
Rp295
(dp296
g14
Vconj
p297
sbatp298
Rp299
(dp300
g14
S'word: sink, index: 12'
p301
sbatp302
Rp303
(dp304
g14
Vdobj
p305
sbag0
(g1
g2
(lp306
g291
atp307
Rp308
(dp309
g14
Vdobj
p310
sbag0
(g1
g2
(lp311
g0
(g1
g2
(lp312
g0
(g1
g2
(lp313
(lp314
S'word: Her, index: 1'
p315
aatp316
Rp317
(dp318
g14
Vposs
p319
sbatp320
Rp321
(dp322
g14
S'word: mother, index: 2'
p323
sbatp324
Rp325
(dp326
g14
Vnsubj
p327
sbatp328
Rp329
(dp330
g14
S'word: run, index: 10'
p331
sbatp332
Rp333
(dp334
g14
Vconj
p335
sbag0
(g1
g2
(lp336
g321
atp337
Rp338
(dp339
g14
Vnsubj
p340
sbag0
(g1
g2
(lp341
g0
(g1
g2
(lp342
g0
(g1
g2
(lp343
g0
(g1
g2
(lp344
g0
(g1
g2
(lp345
(lp346
S'word: the, index: 31'
p347
aatp348
Rp349
(dp350
g14
Vdobj
p351
sbatp352
Rp353
(dp354
g14
S'word: washing, index: 30'
p355
sbatp356
Rp357
(dp358
g14
Vvmod
p359
sbag0
(g1
g2
(lp360
(lp361
S'word: she, index: 33'
p362
aatp363
Rp364
(dp365
g14
Vnsubj
p366
sbatp367
Rp368
(dp369
g14
S'word: rees, index: 34'
p370
sbatp371
Rp372
(dp373
g14
Vconj
p374
sbatp375
Rp376
(dp377
g14
S'word: washing, index: 4'
p378
sbatp379
Rp380
(dp381
g14
S'id: 1'
p382
sbag0
(g1
g2
(lp383
g0
(g1
g2
(lp384
g0
(g1
g2
(lp385
g0
(g1
g2
(lp386
g0
(g1
g2
(lp387
g0
(g1
g2
(lp388
g0
(g1
g2
(lp389
(lp390
S'word: that, index: 7'
p391
aatp392
Rp393
(dp394
g14
Vmark
p395
sbag0
(g1
g2
(lp396
(lp397
S'word: it, index: 8'
p398
aatp399
Rp400
(dp401
g14
Vnsubj
p402
sbag0
(g1
g2
(lp403
(lp404
S"word: 's, index: 9"
p405
aatp406
Rp407
(dp408
g14
Vaux
p409
sbag0
(g1
g2
(lp410
(lp411
S'word: over, index: 11'
p412
aatp413
Rp414
(dp415
g14
Vprt
p416
sbatp417
Rp418
(dp419
g14
S'word: running, index: 10'
p420
sbatp421
Rp422
(dp423
g14
Vdep
p424
sbatp425
Rp426
(dp427
g14
S'word: notice, index: 6'
p428
sbatp429
Rp430
(dp431
g14
Vconj
p432
sbag0
(g1
g2
(lp433
g0
(g1
g2
(lp434
g0
(g1
g2
(lp435
(lp436
S'word: the, index: 2'
p437
aatp438
Rp439
(dp440
g14
Vdet
p441
sbatp442
Rp443
(dp444
g14
S'word: dishes, index: 3'
p445
sbatp446
Rp447
(dp448
g14
Vdep
p449
sbatp450
Rp451
(dp452
g14
S'word: Rise, index: 1'
p453
sbatp454
Rp455
(dp456
g14
S'id: 2'
p457
sbag0
(g1
g2
(lp458
g0
(g1
g2
(lp459
g0
(g1
g2
(lp460
(lp461
S'word: And, index: 1'
p462
aatp463
Rp464
(dp465
g14
Vcc
p466
sbag0
(g1
g2
(lp467
(lp468
S'word: trees, index: 2'
p469
aatp470
Rp471
(dp472
g14
Vnsubj
p473
sbag0
(g1
g2
(lp474
(lp475
S'word: I, index: 4'
p476
aatp477
Rp478
(dp479
g14
Vnsubj
p480
sbag0
(g1
g2
(lp481
g0
(g1
g2
(lp482
g0
(g1
g2
(lp483
(lp484
S'word: the, index: 6'
p485
aatp486
Rp487
(dp488
g14
Vdet
p489
sbag0
(g1
g2
(lp490
g0
(g1
g2
(lp491
g0
(g1
g2
(lp492
(lp493
S'word: about, index: 9'
p494
aatp495
Rp496
(dp497
g14
Vadvmod
p498
sbag0
(g1
g2
(lp499
g0
(g1
g2
(lp500
g0
(g1
g2
(lp501
(lp502
S'word: the, index: 12'
p503
aatp504
Rp505
(dp506
g14
Vdet
p507
sbatp508
Rp509
(dp510
g14
S'word: tree, index: 13'
p511
sbatp512
Rp513
(dp514
g14
Vprep
p515
sbatp516
Rp517
(dp518
g14
S'word: talking, index: 8'
p519
sbatp520
Rp521
(dp522
g14
Vvmod
p523
sbatp524
Rp525
(dp526
g14
S'word: man, index: 7'
p527
sbatp528
Rp529
(dp530
g14
Vdobj
p531
sbatp532
Rp533
(dp534
g14
S'word: see, index: 5'
p535
sbatp536
Rp537
(dp538
g14
S'id: 3'
p539
sbag0
(g1
g2
(lp540
g0
(g1
g2
(lp541
g0
(g1
g2
(lp542
g0
(g1
g2
(lp543
g0
(g1
g2
(lp544
(lp545
S'word: a, index: 15'
p546
aatp547
Rp548
(dp549
g14
Vdet
p550
sbatp551
Rp552
(dp553
g14
S'word: cookie, index: 16'
p554
sbatp555
Rp556
(dp557
g14
Vdobj
p558
sbag0
(g1
g2
(lp559
(lp560
S'word: And, index: 1'
p561
aatp562
Rp563
(dp564
g14
Vcc
p565
sbag0
(g1
g2
(lp566
g0
(g1
g2
(lp567
g0
(g1
g2
(lp568
g0
(g1
g2
(lp569
g0
(g1
g2
(lp570
(lp571
S'word: she, index: 13'
p572
aatp573
Rp574
(dp575
g14
Vpobj
p576
sbatp577
Rp578
(dp579
g14
S'word: because, index: 12'
p580
sbatp581
Rp582
(dp583
g14
Vdep
p584
sbag0
(g1
g2
(lp585
(lp586
S'word: and, index: 3'
p587
aatp588
Rp589
(dp590
g14
Vcc
p591
sbag0
(g1
g2
(lp592
(lp593
S'word: the, index: 4'
p594
aatp595
Rp596
(dp597
g14
Vdet
p598
sbag0
(g1
g2
(lp599
(lp600
S'word: little, index: 5'
p601
aatp602
Rp603
(dp604
g14
Vamod
p605
sbag0
(g1
g2
(lp606
g0
(g1
g2
(lp607
g0
(g1
g2
(lp608
(lp609
S'word: it, index: 10'
p610
aatp611
Rp612
(dp613
g14
Vprep
p614
sbatp615
Rp616
(dp617
g14
S'word: laughing, index: 8'
p618
sbatp619
Rp620
(dp621
g14
Vvmod
p622
sbatp623
Rp624
(dp625
g14
S'word: girl, index: 6'
p626
sbatp627
Rp628
(dp629
g14
Vcsubj
p630
sbatp631
Rp632
(dp633
g14
S'word: want, index: 14'
p634
sbatp635
Rp636
(dp637
g14
S'id: 4'
p638
sbag0
(g1
g2
(lp639
g0
(g1
g2
(lp640
g0
(g1
g2
(lp641
(lp642
S'word: And, index: 1'
p643
aatp644
Rp645
(dp646
g14
Vcc
p647
sbag0
(g1
g2
(lp648
(lp649
S'word: a, index: 2'
p650
aatp651
Rp652
(dp653
g14
Vdet
p654
sbag0
(g1
g2
(lp655
g0
(g1
g2
(lp656
g0
(g1
g2
(lp657
(lp658
S'word: a, index: 5'
p659
aatp660
Rp661
(dp662
g14
Vdet
p663
sbag0
(g1
g2
(lp664
g0
(g1
g2
(lp665
g0
(g1
g2
(lp666
g0
(g1
g2
(lp667
g0
(g1
g2
(lp668
(lp669
S'word: porder, index: 15'
p670
aatp671
Rp672
(dp673
g14
Vnn
p674
sbag0
(g1
g2
(lp675
(lp676
S'word: a, index: 14'
p677
aatp678
Rp679
(dp680
g14
Vdet
p681
sbatp682
Rp683
(dp684
g14
S'word: water, index: 16'
p685
sbatp686
Rp687
(dp688
g14
Vappos
p689
sbag0
(g1
g2
(lp690
(lp691
S'word: the, index: 9'
p692
aatp693
Rp694
(dp695
g14
Vdet
p696
sbag0
(g1
g2
(lp697
(lp698
S'word: mother, index: 10'
p699
aatp700
Rp701
(dp702
g14
Vnn
p703
sbag0
(g1
g2
(lp704
(lp705
S'word: down, index: 12'
p706
aatp707
Rp708
(dp709
g14
Vadvmod
p710
sbatp711
Rp712
(dp713
g14
S'word: steppin, index: 11'
p714
sbatp715
Rp716
(dp717
g14
Vconj
p718
sbatp719
Rp720
(dp721
g14
S'word: stih, index: 6'
p722
sbatp723
Rp724
(dp725
g14
Vprep
p726
sbag0
(g1
g2
(lp727
g712
atp728
Rp729
(dp730
g14
Vprep
p731
sbatp732
Rp733
(dp734
g14
S'word: potter, index: 3'
p735
sbatp736
Rp737
(dp738
g14
S'id: 5'
p739
sbag0
(g1
g2
(lp740
g0
(g1
g2
(lp741
g0
(g1
g2
(lp742
(lp743
S'word: she, index: 2'
p744
aatp745
Rp746
(dp747
g14
Vnsubj
p748
sbag0
(g1
g2
(lp749
g0
(g1
g2
(lp750
g0
(g1
g2
(lp751
(lp752
S'word: she, index: 4'
p753
aatp754
Rp755
(dp756
g14
Vdep
p757
sbag0
(g1
g2
(lp758
(lp759
S'word: out, index: 6'
p760
aatp761
Rp762
(dp763
g14
Vprt
p764
sbag0
(g1
g2
(lp765
g0
(g1
g2
(lp766
g0
(g1
g2
(lp767
(lp768
S'word: the, index: 7'
p769
aatp770
Rp771
(dp772
g14
Vdet
p773
sbatp774
Rp775
(dp776
g14
S'word: window, index: 8'
p777
sbatp778
Rp779
(dp780
g14
Vdobj
p781
sbatp782
Rp783
(dp784
g14
S'word: looking, index: 5'
p785
sbatp786
Rp787
(dp788
g14
Vccomp
p789
sbag0
(g1
g2
(lp790
g0
(g1
g2
(lp791
g0
(g1
g2
(lp792
(lp793
S'word: her, index: 10'
p794
aatp795
Rp796
(dp797
g14
Vposs
p798
sbatp799
Rp800
(dp801
g14
S'word: mind, index: 11'
p802
sbatp803
Rp804
(dp805
g14
Vnsubj
p806
sbag0
(g1
g2
(lp807
(lp808
S'word: is, index: 12'
p809
aatp810
Rp811
(dp812
g14
Vcop
p813
sbag0
(g1
g2
(lp814
(lp815
S'word: somewhere, index: 13'
p816
aatp817
Rp818
(dp819
g14
Vadvmod
p820
sbag0
(g1
g2
(lp821
(lp822
S'word: And, index: 1'
p823
aatp824
Rp825
(dp826
g14
Vcc
p827
sbatp828
Rp829
(dp830
g14
S'word: else, index: 14'
p831
sbatp832
Rp833
(dp834
g14
S'id: 6'
p835
sbag0
(g1
g2
(lp836
g0
(g1
g2
(lp837
g0
(g1
g2
(lp838
g0
(g1
g2
(lp839
g0
(g1
g2
(lp840
(lp841
S'word: The, index: 1'
p842
aatp843
Rp844
(dp845
g14
Vdet
p846
sbatp847
Rp848
(dp849
g14
S'word: windows, index: 2'
p850
sbatp851
Rp852
(dp853
g14
Vnsubj
p854
sbag0
(g1
g2
(lp855
(lp856
S'word: is, index: 3'
p857
aatp858
Rp859
(dp860
g14
Vcop
p861
sbatp862
Rp863
(dp864
g14
S'word: open, index: 4'
p865
sbatp866
Rp867
(dp868
g14
S'id: 7'
p869
sbag0
(g1
g2
(lp870
g0
(g1
g2
(lp871
g0
(g1
g2
(lp872
(lp873
S'word: And, index: 1'
p874
aatp875
Rp876
(dp877
g14
Vcc
p878
sbag0
(g1
g2
(lp879
(lp880
S'word: nice, index: 3'
p881
aatp882
Rp883
(dp884
g14
Vamod
p885
sbatp886
Rp887
(dp888
g14
S'word: house, index: 4'
p889
sbatp890
Rp891
(dp892
g14
S'id: 8'
p893
sbatp894
Rp895
(dp896
g14
S'sentences'
p897
sb.