ccopy_reg
_reconstructor
p0
(cnltk.tree
Tree
p1
c__builtin__
list
p2
(lp3
g0
(g1
g2
(lp4
g0
(g1
g2
(lp5
g0
(g1
g2
(lp6
g0
(g1
g2
(lp7
g0
(g1
g2
(lp8
(lp9
S'word: the, index: 2'
p10
aatp11
Rp12
(dp13
S'_label'
p14
Vdet
p15
sbag0
(g1
g2
(lp16
g0
(g1
g2
(lp17
g0
(g1
g2
(lp18
(lp19
S'word: a, index: 5'
p20
aatp21
Rp22
(dp23
g14
Vdet
p24
sbatp25
Rp26
(dp27
g14
S'word: circus, index: 6'
p28
sbatp29
Rp30
(dp31
g14
Vappos
p32
sbatp33
Rp34
(dp35
g14
S'word: people, index: 3'
p36
sbatp37
Rp38
(dp39
g14
Vdep
p40
sbatp41
Rp42
(dp43
g14
S'word: air, index: 1'
p44
sbatp45
Rp46
(dp47
g14
S'id: 0'
p48
sbag0
(g1
g2
(lp49
g0
(g1
g2
(lp50
g0
(g1
g2
(lp51
g0
(g1
g2
(lp52
g0
(g1
g2
(lp53
(lp54
S'word: a, index: 4'
p55
aatp56
Rp57
(dp58
g14
Vdet
p59
sbag0
(g1
g2
(lp60
g0
(g1
g2
(lp61
g0
(g1
g2
(lp62
g0
(g1
g2
(lp63
g0
(g1
g2
(lp64
(lp65
S'word: the, index: 7'
p66
aatp67
Rp68
(dp69
g14
Vdet
p70
sbatp71
Rp72
(dp73
g14
S'word: wahl, index: 8'
p74
sbatp75
Rp76
(dp77
g14
Vdobj
p78
sbag0
(g1
g2
(lp79
g0
(g1
g2
(lp80
g0
(g1
g2
(lp81
(lp82
S'word: the, index: 11'
p83
aatp84
Rp85
(dp86
g14
Vdet
p87
sbatp88
Rp89
(dp90
g14
S'word: water, index: 12'
p91
sbatp92
Rp93
(dp94
g14
Vprep
p95
sbatp96
Rp97
(dp98
g14
S'word: riding, index: 6'
p99
sbatp100
Rp101
(dp102
g14
Vvmod
p103
sbatp104
Rp105
(dp106
g14
S'word: man, index: 5'
p107
sbatp108
Rp109
(dp110
g14
Vnsubj
p111
sbag0
(g1
g2
(lp112
(lp113
S'word: And, index: 1'
p114
aatp115
Rp116
(dp117
g14
Vcc
p118
sbag0
(g1
g2
(lp119
(lp120
S'word: there, index: 2'
p121
aatp122
Rp123
(dp124
g14
Vexpl
p125
sbatp126
Rp127
(dp128
g14
S"word: 's, index: 3"
p129
sbatp130
Rp131
(dp132
g14
S'id: 1'
p133
sbag0
(g1
g2
(lp134
g0
(g1
g2
(lp135
g0
(g1
g2
(lp136
g0
(g1
g2
(lp137
g0
(g1
g2
(lp138
(lp139
S'word: anything, index: 8'
p140
aatp141
Rp142
(dp143
g14
Vprep
p144
sbatp145
Rp146
(dp147
g14
S'word: looking, index: 6'
p148
sbatp149
Rp150
(dp151
g14
Vdep
p152
sbag0
(g1
g2
(lp153
(lp154
S'word: There, index: 1'
p155
aatp156
Rp157
(dp158
g14
Vexpl
p159
sbag0
(g1
g2
(lp160
g0
(g1
g2
(lp161
g0
(g1
g2
(lp162
g146
atp163
Rp164
(dp165
g14
Vconj
p166
sbag0
(g1
g2
(lp167
(lp168
S'word: there, index: 4'
p169
aatp170
Rp171
(dp172
g14
Vadvmod
p173
sbatp174
Rp175
(dp176
g14
S'word: sitting, index: 3'
p177
sbatp178
Rp179
(dp180
g14
Vdep
p181
sbatp182
Rp183
(dp184
g14
S'word: people, index: 2'
p185
sbatp186
Rp187
(dp188
g14
S'id: 2'
p189
sbag0
(g1
g2
(lp190
g0
(g1
g2
(lp191
g0
(g1
g2
(lp192
g0
(g1
g2
(lp193
g0
(g1
g2
(lp194
(lp195
S'word: maybe, index: 9'
p196
aatp197
Rp198
(dp199
g14
Vadvmod
p200
sbatp201
Rp202
(dp203
g14
S'word: that, index: 10'
p204
sbatp205
Rp206
(dp207
g14
Vadvmod
p208
sbag0
(g1
g2
(lp209
g0
(g1
g2
(lp210
g0
(g1
g2
(lp211
(lp212
S'word: Why, index: 1'
p213
aatp214
Rp215
(dp216
g14
Vadvmod
p217
sbag0
(g1
g2
(lp218
(lp219
S'word: there, index: 3'
p220
aatp221
Rp222
(dp223
g14
Vadvmod
p224
sbatp225
Rp226
(dp227
g14
S'word: sitting, index: 2'
p228
sbatp229
Rp230
(dp231
g14
Vadvcl
p232
sbag0
(g1
g2
(lp233
(lp234
S'word: I, index: 4'
p235
aatp236
Rp237
(dp238
g14
Vnsubj
p239
sbag0
(g1
g2
(lp240
g0
(g1
g2
(lp241
g0
(g1
g2
(lp242
(lp243
S'word: no, index: 6'
p244
aatp245
Rp246
(dp247
g14
Vneg
p248
sbatp249
Rp250
(dp251
g14
S'word: idea, index: 7'
p252
sbatp253
Rp254
(dp255
g14
Vdobj
p256
sbatp257
Rp258
(dp259
g14
S'word: have, index: 5'
p260
sbatp261
Rp262
(dp263
g14
S'id: 3'
p264
sbag0
(g1
g2
(lp265
g0
(g1
g2
(lp266
g0
(g1
g2
(lp267
g0
(g1
g2
(lp268
g0
(g1
g2
(lp269
(lp270
S'word: cur, index: 12'
p271
aatp272
Rp273
(dp274
g14
Vamod
p275
sbatp276
Rp277
(dp278
g14
S'word: horse, index: 13'
p279
sbatp280
Rp281
(dp282
g14
Vnsubj
p283
sbag0
(g1
g2
(lp284
g0
(g1
g2
(lp285
g0
(g1
g2
(lp286
(lp287
S'word: this, index: 16'
p288
aatp289
Rp290
(dp291
g14
Vdet
p292
sbatp293
Rp294
(dp295
g14
S'word: woman, index: 17'
p296
sbatp297
Rp298
(dp299
g14
Vprep
p300
sbag0
(g1
g2
(lp301
g0
(g1
g2
(lp302
g0
(g1
g2
(lp303
(lp304
S'word: There, index: 1'
p305
aatp306
Rp307
(dp308
g14
Vexpl
p309
sbag0
(g1
g2
(lp310
g0
(g1
g2
(lp311
g0
(g1
g2
(lp312
(lp313
S'word: a, index: 3'
p314
aatp315
Rp316
(dp317
g14
Vdet
p318
sbag0
(g1
g2
(lp319
g0
(g1
g2
(lp320
g0
(g1
g2
(lp321
g0
(g1
g2
(lp322
g0
(g1
g2
(lp323
(lp324
S'word: the, index: 10'
p325
aatp326
Rp327
(dp328
g14
Vappos
p329
sbatp330
Rp331
(dp332
g14
S'word: pulling, index: 8'
p333
sbatp334
Rp335
(dp336
g14
Vappos
p337
sbatp338
Rp339
(dp340
g14
S'word: the, index: 6'
p341
sbatp342
Rp343
(dp344
g14
Vprep
p345
sbatp346
Rp347
(dp348
g14
S'word: layer, index: 4'
p349
sbatp350
Rp351
(dp352
g14
Vnsubj
p353
sbatp354
Rp355
(dp356
g14
S"word: 's, index: 2"
p357
sbatp358
Rp359
(dp360
g14
Vccomp
p361
sbatp362
Rp363
(dp364
g14
S'word: is, index: 14'
p365
sbatp366
Rp367
(dp368
g14
S'id: 4'
p369
sbag0
(g1
g2
(lp370
g0
(g1
g2
(lp371
g0
(g1
g2
(lp372
g0
(g1
g2
(lp373
g0
(g1
g2
(lp374
g0
(g1
g2
(lp375
g0
(g1
g2
(lp376
(lp377
S'word: some, index: 14'
p378
aatp379
Rp380
(dp381
g14
Vdet
p382
sbatp383
Rp384
(dp385
g14
S'word: kids, index: 15'
p386
sbatp387
Rp388
(dp389
g14
Vnsubj
p390
sbag0
(g1
g2
(lp391
(lp392
S'word: glasses, index: 17'
p393
aatp394
Rp395
(dp396
g14
Vdobj
p397
sbag0
(g1
g2
(lp398
(lp399
S'word: him, index: 19'
p400
aatp401
Rp402
(dp403
g14
Vprep
p404
sbatp405
Rp406
(dp407
g14
S'word: throwing, index: 16'
p408
sbatp409
Rp410
(dp411
g14
Vconj
p412
sbag0
(g1
g2
(lp413
(lp414
S'word: There, index: 1'
p415
aatp416
Rp417
(dp418
g14
Vexpl
p419
sbag0
(g1
g2
(lp420
(lp421
S'word: a, index: 3'
p422
aatp423
Rp424
(dp425
g14
Vnsubj
p426
sbag0
(g1
g2
(lp427
g0
(g1
g2
(lp428
g0
(g1
g2
(lp429
(lp430
S'word: there, index: 5'
p431
aatp432
Rp433
(dp434
g14
Vexpl
p435
sbag0
(g1
g2
(lp436
g0
(g1
g2
(lp437
g0
(g1
g2
(lp438
(lp439
S'word: a, index: 7'
p440
aatp441
Rp442
(dp443
g14
Vdet
p444
sbag0
(g1
g2
(lp445
g0
(g1
g2
(lp446
g0
(g1
g2
(lp447
(lp448
S'word: two, index: 10'
p449
aatp450
Rp451
(dp452
g14
Vnum
p453
sbatp454
Rp455
(dp456
g14
S'word: family, index: 11'
p457
sbatp458
Rp459
(dp460
g14
Vconj
p461
sbatp462
Rp463
(dp464
g14
S'word: man, index: 8'
p465
sbatp466
Rp467
(dp468
g14
Vnsubj
p469
sbag0
(g1
g2
(lp470
g455
atp471
Rp472
(dp473
g14
Vnsubj
p474
sbatp475
Rp476
(dp477
g14
S"word: 's, index: 6"
p478
sbatp479
Rp480
(dp481
g14
Vdep
p482
sbatp483
Rp484
(dp485
g14
S"word: 's, index: 2"
p486
sbatp487
Rp488
(dp489
g14
S'id: 5'
p490
sbag0
(g1
g2
(lp491
g0
(g1
g2
(lp492
g0
(g1
g2
(lp493
(lp494
S'word: here, index: 2'
p495
aatp496
Rp497
(dp498
g14
Vnsubj
p499
sbag0
(g1
g2
(lp500
(lp501
S"word: 's, index: 3"
p502
aatp503
Rp504
(dp505
g14
Vcop
p506
sbag0
(g1
g2
(lp507
(lp508
S'word: a, index: 4'
p509
aatp510
Rp511
(dp512
g14
Vdet
p513
sbag0
(g1
g2
(lp514
g0
(g1
g2
(lp515
g0
(g1
g2
(lp516
g0
(g1
g2
(lp517
g0
(g1
g2
(lp518
(lp519
S'word: the, index: 8'
p520
aatp521
Rp522
(dp523
g14
Vdet
p524
sbatp525
Rp526
(dp527
g14
S'word: kid, index: 9'
p528
sbatp529
Rp530
(dp531
g14
Vprep
p532
sbatp533
Rp534
(dp535
g14
S'word: throwing, index: 6'
p536
sbatp537
Rp538
(dp539
g14
Vvmod
p540
sbag0
(g1
g2
(lp541
(lp542
S'word: And, index: 1'
p543
aatp544
Rp545
(dp546
g14
Vcc
p547
sbatp548
Rp549
(dp550
g14
S'word: man, index: 5'
p551
sbatp552
Rp553
(dp554
g14
S'id: 6'
p555
sbag0
(g1
g2
(lp556
g0
(g1
g2
(lp557
g0
(g1
g2
(lp558
g0
(g1
g2
(lp559
g0
(g1
g2
(lp560
g0
(g1
g2
(lp561
g0
(g1
g2
(lp562
(lp563
S'word: he, index: 37'
p564
aatp565
Rp566
(dp567
g14
Vnsubj
p568
sbag0
(g1
g2
(lp569
(lp570
S"word: 's, index: 38"
p571
aatp572
Rp573
(dp574
g14
Vaux
p575
sbag0
(g1
g2
(lp576
(lp577
S'word: not, index: 39'
p578
aatp579
Rp580
(dp581
g14
Vneg
p582
sbag0
(g1
g2
(lp583
(lp584
S'word: properly, index: 41'
p585
aatp586
Rp587
(dp588
g14
Vadvmod
p589
sbatp590
Rp591
(dp592
g14
S'word: dressing, index: 40'
p593
sbatp594
Rp595
(dp596
g14
Vconj
p597
sbag0
(g1
g2
(lp598
g0
(g1
g2
(lp599
g0
(g1
g2
(lp600
(lp601
S'word: no, index: 9'
p602
aatp603
Rp604
(dp605
g14
Vneg
p606
sbatp607
Rp608
(dp609
g14
S'word: one, index: 10'
p610
sbatp611
Rp612
(dp613
g14
Vnsubj
p614
sbag0
(g1
g2
(lp615
g0
(g1
g2
(lp616
g0
(g1
g2
(lp617
(lp618
S'word: to, index: 12'
p619
aatp620
Rp621
(dp622
g14
Vaux
p623
sbag0
(g1
g2
(lp624
(lp625
S'word: be, index: 13'
p626
aatp627
Rp628
(dp629
g14
Vaux
p630
sbag0
(g1
g2
(lp631
g0
(g1
g2
(lp632
g0
(g1
g2
(lp633
(lp634
S'word: the, index: 16'
p635
aatp636
Rp637
(dp638
g14
Vdet
p639
sbag0
(g1
g2
(lp640
g0
(g1
g2
(lp641
g0
(g1
g2
(lp642
g0
(g1
g2
(lp643
g0
(g1
g2
(lp644
g0
(g1
g2
(lp645
g0
(g1
g2
(lp646
(lp647
S'word: to, index: 21'
p648
aatp649
Rp650
(dp651
g14
Vaux
p652
sbag0
(g1
g2
(lp653
g0
(g1
g2
(lp654
g0
(g1
g2
(lp655
(lp656
S'word: with, index: 25'
p657
aatp658
Rp659
(dp660
g14
Vprep
p661
sbatp662
Rp663
(dp664
g14
S'word: play, index: 24'
p665
sbatp666
Rp667
(dp668
g14
Vdep
p669
sbag0
(g1
g2
(lp670
g0
(g1
g2
(lp671
g0
(g1
g2
(lp672
(lp673
S'word: the, index: 30'
p674
aatp675
Rp676
(dp677
g14
Vprep
p678
sbag0
(g1
g2
(lp679
g0
(g1
g2
(lp680
g0
(g1
g2
(lp681
(lp682
S'word: the, index: 33'
p683
aatp684
Rp685
(dp686
g14
Vdet
p687
sbatp688
Rp689
(dp690
g14
S'word: line, index: 34'
p691
sbatp692
Rp693
(dp694
g14
Vprep
p695
sbatp696
Rp697
(dp698
g14
S'word: the, index: 27'
p699
sbatp700
Rp701
(dp702
g14
Vdobj
p703
sbatp704
Rp705
(dp706
g14
S'word: kill, index: 22'
p707
sbatp708
Rp709
(dp710
g14
Vxcomp
p711
sbatp712
Rp713
(dp714
g14
S'word: trying, index: 20'
p715
sbatp716
Rp717
(dp718
g14
Vvmod
p719
sbatp720
Rp721
(dp722
g14
S'word: man, index: 19'
p723
sbatp724
Rp725
(dp726
g14
Vappos
p727
sbatp728
Rp729
(dp730
g14
S'word: amp, index: 17'
p731
sbatp732
Rp733
(dp734
g14
Vprep
p735
sbatp736
Rp737
(dp738
g14
S'word: talking, index: 14'
p739
sbatp740
Rp741
(dp742
g14
Vxcomp
p743
sbatp744
Rp745
(dp746
g14
S'word: seems, index: 11'
p747
sbatp748
Rp749
(dp750
g14
Vccomp
p751
sbag0
(g1
g2
(lp752
(lp753
S'word: he, index: 43'
p754
aatp755
Rp756
(dp757
g14
Vnsubj
p758
sbag0
(g1
g2
(lp759
(lp760
S'word: is, index: 44'
p761
aatp762
Rp763
(dp764
g14
Vaux
p765
sbag0
(g1
g2
(lp766
(lp767
S"word: n't, index: 45"
p768
aatp769
Rp770
(dp771
g14
Vneg
p772
sbag0
(g1
g2
(lp773
g0
(g1
g2
(lp774
g0
(g1
g2
(lp775
(lp776
S'word: their, index: 47'
p777
aatp778
Rp779
(dp780
g14
Vposs
p781
sbatp782
Rp783
(dp784
g14
S'word: outfit, index: 48'
p785
sbatp786
Rp787
(dp788
g14
Vdobj
p789
sbag0
(g1
g2
(lp790
g0
(g1
g2
(lp791
g0
(g1
g2
(lp792
g0
(g1
g2
(lp793
g0
(g1
g2
(lp794
(lp795
S'word: this, index: 6'
p796
aatp797
Rp798
(dp799
g14
Vdobj
p800
sbatp801
Rp802
(dp803
g14
S'word: watch, index: 5'
p804
sbatp805
Rp806
(dp807
g14
Vrcmod
p808
sbag0
(g1
g2
(lp809
g591
atp810
Rp811
(dp812
g14
Vconj
p813
sbag0
(g1
g2
(lp814
g745
atp815
Rp816
(dp817
g14
Vconj
p818
sbag0
(g1
g2
(lp819
(lp820
S'word: Here, index: 1'
p821
aatp822
Rp823
(dp824
g14
Vnsubj
p825
sbag0
(g1
g2
(lp826
(lp827
S"word: 's, index: 2"
p828
aatp829
Rp830
(dp831
g14
Vcop
p832
sbag0
(g1
g2
(lp833
(lp834
S'word: two, index: 3'
p835
aatp836
Rp837
(dp838
g14
Vnum
p839
sbatp840
Rp841
(dp842
g14
S'word: people, index: 4'
p843
sbatp844
Rp845
(dp846
g14
Vccomp
p847
sbatp848
Rp849
(dp850
g14
S'word: wearing, index: 46'
p851
sbatp852
Rp853
(dp854
g14
S'id: 7'
p855
sbag0
(g1
g2
(lp856
g0
(g1
g2
(lp857
g0
(g1
g2
(lp858
(lp859
S'word: He, index: 1'
p860
aatp861
Rp862
(dp863
g14
Vnsubj
p864
sbag0
(g1
g2
(lp865
g0
(g1
g2
(lp866
g0
(g1
g2
(lp867
(lp868
S'word: like, index: 3'
p869
aatp870
Rp871
(dp872
g14
Vmark
p873
sbag0
(g1
g2
(lp874
(lp875
S'word: he, index: 4'
p876
aatp877
Rp878
(dp879
g14
Vnsubj
p880
sbag0
(g1
g2
(lp881
g0
(g1
g2
(lp882
g0
(g1
g2
(lp883
g0
(g1
g2
(lp884
g0
(g1
g2
(lp885
(lp886
S'word: a, index: 9'
p887
aatp888
Rp889
(dp890
g14
Vdet
p891
sbatp892
Rp893
(dp894
g14
S'word: peacher, index: 10'
p895
sbatp896
Rp897
(dp898
g14
Vappos
p899
sbatp900
Rp901
(dp902
g14
S'word: people, index: 7'
p903
sbatp904
Rp905
(dp906
g14
Vprep
p907
sbatp908
Rp909
(dp910
g14
S'word: talks, index: 5'
p911
sbatp912
Rp913
(dp914
g14
Vadvcl
p915
sbatp916
Rp917
(dp918
g14
S'word: looks, index: 2'
p919
sbatp920
Rp921
(dp922
g14
S'id: 8'
p923
sbag0
(g1
g2
(lp924
g0
(g1
g2
(lp925
g0
(g1
g2
(lp926
g0
(g1
g2
(lp927
g0
(g1
g2
(lp928
(lp929
S'word: that, index: 13'
p930
aatp931
Rp932
(dp933
g14
Vprep
p934
sbag0
(g1
g2
(lp935
(lp936
S'word: not, index: 10'
p937
aatp938
Rp939
(dp940
g14
Vneg
p941
sbatp942
Rp943
(dp944
g14
S'word: looking, index: 11'
p945
sbatp946
Rp947
(dp948
g14
Vvmod
p949
sbag0
(g1
g2
(lp950
(lp951
S'word: There, index: 1'
p952
aatp953
Rp954
(dp955
g14
Vexpl
p956
sbag0
(g1
g2
(lp957
(lp958
S"word: 's, index: 2"
p959
aatp960
Rp961
(dp962
g14
Vaux
p963
sbag0
(g1
g2
(lp964
g0
(g1
g2
(lp965
g0
(g1
g2
(lp966
g0
(g1
g2
(lp967
g0
(g1
g2
(lp968
(lp969
S'word: two, index: 3'
p970
aatp971
Rp972
(dp973
g14
Vnum
p974
sbatp975
Rp976
(dp977
g14
S'word: people, index: 4'
p978
sbatp979
Rp980
(dp981
g14
Vnpadvmod
p982
sbatp983
Rp984
(dp985
g14
S'word: just, index: 5'
p986
sbatp987
Rp988
(dp989
g14
Vadvmod
p990
sbag0
(g1
g2
(lp991
g0
(g1
g2
(lp992
g0
(g1
g2
(lp993
(lp994
S'word: this, index: 8'
p995
aatp996
Rp997
(dp998
g14
Vdet
p999
sbatp1000
Rp1001
(dp1002
g14
S'word: guy, index: 9'
p1003
sbatp1004
Rp1005
(dp1006
g14
Vprep
p1007
sbatp1008
Rp1009
(dp1010
g14
S'word: looking, index: 6'
p1011
sbatp1012
Rp1013
(dp1014
g14
S'id: 9'
p1015
sbag0
(g1
g2
(lp1016
g0
(g1
g2
(lp1017
g0
(g1
g2
(lp1018
(lp1019
S'word: everything, index: 14'
p1020
aatp1021
Rp1022
(dp1023
g14
Vdobj
p1024
sbag0
(g1
g2
(lp1025
(lp1026
S'word: herselves, index: 16'
p1027
aatp1028
Rp1029
(dp1030
g14
Vprep
p1031
sbag0
(g1
g2
(lp1032
g0
(g1
g2
(lp1033
g0
(g1
g2
(lp1034
g0
(g1
g2
(lp1035
g0
(g1
g2
(lp1036
(lp1037
S'word: No, index: 1'
p1038
aatp1039
Rp1040
(dp1041
g14
Vneg
p1042
sbag0
(g1
g2
(lp1043
(lp1044
S"word: 's, index: 3"
p1045
aatp1046
Rp1047
(dp1048
g14
Vpossessive
p1049
sbatp1050
Rp1051
(dp1052
g14
S'word: one, index: 2'
p1053
sbatp1054
Rp1055
(dp1056
g14
Vnsubj
p1057
sbag0
(g1
g2
(lp1058
g0
(g1
g2
(lp1059
g0
(g1
g2
(lp1060
(lp1061
S'word: this, index: 6'
p1062
aatp1063
Rp1064
(dp1065
g14
Vdet
p1066
sbag0
(g1
g2
(lp1067
g0
(g1
g2
(lp1068
g0
(g1
g2
(lp1069
(lp1070
S'word: all, index: 9'
p1071
aatp1072
Rp1073
(dp1074
g14
Vpobj
p1075
sbatp1076
Rp1077
(dp1078
g14
S'word: at, index: 8'
p1079
sbatp1080
Rp1081
(dp1082
g14
Vadvmod
p1083
sbatp1084
Rp1085
(dp1086
g14
S'word: kid, index: 7'
p1087
sbatp1088
Rp1089
(dp1090
g14
Vprep
p1091
sbatp1092
Rp1093
(dp1094
g14
S'word: paying, index: 4'
p1095
sbatp1096
Rp1097
(dp1098
g14
Vvmod
p1099
sbag0
(g1
g2
(lp1100
(lp1101
S'word: she, index: 11'
p1102
aatp1103
Rp1104
(dp1105
g14
Vnsubj
p1106
sbag0
(g1
g2
(lp1107
(lp1108
S"word: 's, index: 12"
p1109
aatp1110
Rp1111
(dp1112
g14
Vaux
p1113
sbatp1114
Rp1115
(dp1116
g14
S'word: doing, index: 13'
p1117
sbatp1118
Rp1119
(dp1120
g14
S'id: 10'
p1121
sbag0
(g1
g2
(lp1122
g0
(g1
g2
(lp1123
g0
(g1
g2
(lp1124
g0
(g1
g2
(lp1125
g0
(g1
g2
(lp1126
(lp1127
S'word: the, index: 18'
p1128
aatp1129
Rp1130
(dp1131
g14
Vdet
p1132
sbag0
(g1
g2
(lp1133
g0
(g1
g2
(lp1134
g0
(g1
g2
(lp1135
(lp1136
S"word: 's, index: 22"
p1137
aatp1138
Rp1139
(dp1140
g14
Vpossessive
p1141
sbag0
(g1
g2
(lp1142
(lp1143
S'word: happy, index: 23'
p1144
aatp1145
Rp1146
(dp1147
g14
Vamod
p1148
sbatp1149
Rp1150
(dp1151
g14
S'word: everyone, index: 21'
p1152
sbatp1153
Rp1154
(dp1155
g14
Vappos
p1156
sbatp1157
Rp1158
(dp1159
g14
S'word: kids, index: 19'
p1160
sbatp1161
Rp1162
(dp1163
g14
Vprep
p1164
sbag0
(g1
g2
(lp1165
g0
(g1
g2
(lp1166
g0
(g1
g2
(lp1167
g0
(g1
g2
(lp1168
g0
(g1
g2
(lp1169
(lp1170
S'word: These, index: 1'
p1171
aatp1172
Rp1173
(dp1174
g14
Vdet
p1175
sbatp1176
Rp1177
(dp1178
g14
S'word: people, index: 2'
p1179
sbatp1180
Rp1181
(dp1182
g14
Vnsubj
p1183
sbag0
(g1
g2
(lp1184
(lp1185
S'word: get, index: 3'
p1186
aatp1187
Rp1188
(dp1189
g14
Vaux
p1190
sbag0
(g1
g2
(lp1191
g0
(g1
g2
(lp1192
g0
(g1
g2
(lp1193
(lp1194
S'word: this, index: 5'
p1195
aatp1196
Rp1197
(dp1198
g14
Vdet
p1199
sbatp1200
Rp1201
(dp1202
g14
S'word: balown, index: 6'
p1203
sbatp1204
Rp1205
(dp1206
g14
Vdobj
p1207
sbatp1208
Rp1209
(dp1210
g14
S'word: throw, index: 4'
p1211
sbatp1212
Rp1213
(dp1214
g14
Vccomp
p1215
sbag0
(g1
g2
(lp1216
g0
(g1
g2
(lp1217
g0
(g1
g2
(lp1218
g0
(g1
g2
(lp1219
g0
(g1
g2
(lp1220
(lp1221
S'word: whatever, index: 10'
p1222
aatp1223
Rp1224
(dp1225
g14
Vdobj
p1226
sbag0
(g1
g2
(lp1227
g0
(g1
g2
(lp1228
g0
(g1
g2
(lp1229
(lp1230
S'word: his, index: 11'
p1231
aatp1232
Rp1233
(dp1234
g14
Vposs
p1235
sbatp1236
Rp1237
(dp1238
g14
S'word: name, index: 12'
p1239
sbatp1240
Rp1241
(dp1242
g14
Vnsubj
p1243
sbatp1244
Rp1245
(dp1246
g14
S'word: is, index: 13'
p1247
sbatp1248
Rp1249
(dp1250
g14
Vrcmod
p1251
sbatp1252
Rp1253
(dp1254
g14
S'word: cone, index: 8'
p1255
sbatp1256
Rp1257
(dp1258
g14
Vnsubj
p1259
sbag0
(g1
g2
(lp1260
(lp1261
S'word: that, index: 25'
p1262
aatp1263
Rp1264
(dp1265
g14
Vprep
p1266
sbag0
(g1
g2
(lp1267
(lp1268
S'word: is, index: 15'
p1269
aatp1270
Rp1271
(dp1272
g14
Vaux
p1273
sbatp1274
Rp1275
(dp1276
g14
S'word: throwing, index: 16'
p1277
sbatp1278
Rp1279
(dp1280
g14
S'id: 11'
p1281
sbag0
(g1
g2
(lp1282
g0
(g1
g2
(lp1283
g0
(g1
g2
(lp1284
g0
(g1
g2
(lp1285
g0
(g1
g2
(lp1286
(lp1287
S'word: OK, index: 4'
p1288
aatp1289
Rp1290
(dp1291
g14
Vadvmod
p1292
sbag0
(g1
g2
(lp1293
g0
(g1
g2
(lp1294
g0
(g1
g2
(lp1295
(lp1296
S'word: no, index: 5'
p1297
aatp1298
Rp1299
(dp1300
g14
Vneg
p1301
sbag0
(g1
g2
(lp1302
(lp1303
S"word: 's, index: 7"
p1304
aatp1305
Rp1306
(dp1307
g14
Vpossessive
p1308
sbatp1309
Rp1310
(dp1311
g14
S'word: one, index: 6'
p1312
sbatp1313
Rp1314
(dp1315
g14
Vnsubj
p1316
sbag0
(g1
g2
(lp1317
g0
(g1
g2
(lp1318
g0
(g1
g2
(lp1319
(lp1320
S'word: this, index: 9'
p1321
aatp1322
Rp1323
(dp1324
g14
Vdet
p1325
sbatp1326
Rp1327
(dp1328
g14
S'word: kid, index: 10'
p1329
sbatp1330
Rp1331
(dp1332
g14
Vdobj
p1333
sbag0
(g1
g2
(lp1334
g0
(g1
g2
(lp1335
g0
(g1
g2
(lp1336
(lp1337
S'word: he, index: 12'
p1338
aatp1339
Rp1340
(dp1341
g14
Vnsubjpass
p1342
sbag0
(g1
g2
(lp1343
(lp1344
S'word: get, index: 13'
p1345
aatp1346
Rp1347
(dp1348
g14
Vauxpass
p1349
sbag0
(g1
g2
(lp1350
g0
(g1
g2
(lp1351
g0
(g1
g2
(lp1352
g0
(g1
g2
(lp1353
g0
(g1
g2
(lp1354
(lp1355
S"word: n't, index: 20"
p1356
aatp1357
Rp1358
(dp1359
g14
Vneg
p1360
sbag0
(g1
g2
(lp1361
g0
(g1
g2
(lp1362
g0
(g1
g2
(lp1363
(lp1364
S'word: the, index: 24'
p1365
aatp1366
Rp1367
(dp1368
g14
Vdet
p1369
sbatp1370
Rp1371
(dp1372
g14
S'word: lion, index: 25'
p1373
sbatp1374
Rp1375
(dp1376
g14
Vprep
p1377
sbag0
(g1
g2
(lp1378
(lp1379
S'word: he, index: 18'
p1380
aatp1381
Rp1382
(dp1383
g14
Vnsubj
p1384
sbag0
(g1
g2
(lp1385
(lp1386
S'word: does, index: 19'
p1387
aatp1388
Rp1389
(dp1390
g14
Vaux
p1391
sbatp1392
Rp1393
(dp1394
g14
S'word: know, index: 21'
p1395
sbatp1396
Rp1397
(dp1398
g14
Vrcmod
p1399
sbag0
(g1
g2
(lp1400
(lp1401
S'word: the, index: 16'
p1402
aatp1403
Rp1404
(dp1405
g14
Vdet
p1406
sbatp1407
Rp1408
(dp1409
g14
S'word: guy, index: 17'
p1410
sbatp1411
Rp1412
(dp1413
g14
Vagent
p1414
sbatp1415
Rp1416
(dp1417
g14
S'word: killed, index: 14'
p1418
sbatp1419
Rp1420
(dp1421
g14
Vparataxis
p1422
sbatp1423
Rp1424
(dp1425
g14
S'word: paying, index: 8'
p1426
sbatp1427
Rp1428
(dp1429
g14
Vparataxis
p1430
sbag0
(g1
g2
(lp1431
(lp1432
S'word: This, index: 1'
p1433
aatp1434
Rp1435
(dp1436
g14
Vdet
p1437
sbatp1438
Rp1439
(dp1440
g14
S'word: woman, index: 2'
p1441
sbatp1442
Rp1443
(dp1444
g14
S'id: 12'
p1445
sbag0
(g1
g2
(lp1446
g0
(g1
g2
(lp1447
g0
(g1
g2
(lp1448
g0
(g1
g2
(lp1449
g0
(g1
g2
(lp1450
(lp1451
S'word: a, index: 3'
p1452
aatp1453
Rp1454
(dp1455
g14
Vdet
p1456
sbag0
(g1
g2
(lp1457
(lp1458
S'word: herdum, index: 6'
p1459
aatp1460
Rp1461
(dp1462
g14
Vappos
p1463
sbatp1464
Rp1465
(dp1466
g14
S'word: person, index: 4'
p1467
sbatp1468
Rp1469
(dp1470
g14
Vprep
p1471
sbatp1472
Rp1473
(dp1474
g14
S'word: Look, index: 1'
p1475
sbatp1476
Rp1477
(dp1478
g14
S'id: 13'
p1479
sbag0
(g1
g2
(lp1480
g0
(g1
g2
(lp1481
g0
(g1
g2
(lp1482
g0
(g1
g2
(lp1483
g0
(g1
g2
(lp1484
(lp1485
S'word: This, index: 1'
p1486
aatp1487
Rp1488
(dp1489
g14
Vdet
p1490
sbag0
(g1
g2
(lp1491
(lp1492
S'word: two, index: 2'
p1493
aatp1494
Rp1495
(dp1496
g14
Vnum
p1497
sbatp1498
Rp1499
(dp1500
g14
S'word: people, index: 3'
p1501
sbatp1502
Rp1503
(dp1504
g14
Vnsubj
p1505
sbag0
(g1
g2
(lp1506
(lp1507
S'word: I, index: 5'
p1508
aatp1509
Rp1510
(dp1511
g14
Vnsubj
p1512
sbag0
(g1
g2
(lp1513
g0
(g1
g2
(lp1514
g0
(g1
g2
(lp1515
g0
(g1
g2
(lp1516
g0
(g1
g2
(lp1517
(lp1518
S"word: 're, index: 10"
p1519
aatp1520
Rp1521
(dp1522
g14
Vaux
p1523
sbag0
(g1
g2
(lp1524
(lp1525
S'word: why, index: 8'
p1526
aatp1527
Rp1528
(dp1529
g14
Vadvmod
p1530
sbag0
(g1
g2
(lp1531
(lp1532
S'word: they, index: 9'
p1533
aatp1534
Rp1535
(dp1536
g14
Vnsubj
p1537
sbatp1538
Rp1539
(dp1540
g14
S'word: doing, index: 11'
p1541
sbatp1542
Rp1543
(dp1544
g14
Vccomp
p1545
sbatp1546
Rp1547
(dp1548
g14
S'word: know, index: 7'
p1549
sbatp1550
Rp1551
(dp1552
g14
Vxcomp
p1553
sbatp1554
Rp1555
(dp1556
g14
S'word: dont, index: 6'
p1557
sbatp1558
Rp1559
(dp1560
g14
S'id: 14'
p1561
sbag0
(g1
g2
(lp1562
g0
(g1
g2
(lp1563
g0
(g1
g2
(lp1564
g0
(g1
g2
(lp1565
g0
(g1
g2
(lp1566
g0
(g1
g2
(lp1567
g0
(g1
g2
(lp1568
(lp1569
S'word: this, index: 3'
p1570
aatp1571
Rp1572
(dp1573
g14
Vdet
p1574
sbatp1575
Rp1576
(dp1577
g14
S'word: kid, index: 4'
p1578
sbatp1579
Rp1580
(dp1581
g14
Vprep
p1582
sbatp1583
Rp1584
(dp1585
g14
S'word: Look, index: 1'
p1586
sbatp1587
Rp1588
(dp1589
g14
Vccomp
p1590
sbag0
(g1
g2
(lp1591
(lp1592
S'word: she, index: 6'
p1593
aatp1594
Rp1595
(dp1596
g14
Vnsubj
p1597
sbag0
(g1
g2
(lp1598
(lp1599
S"word: 's, index: 7"
p1600
aatp1601
Rp1602
(dp1603
g14
Vcop
p1604
sbag0
(g1
g2
(lp1605
(lp1606
S'word: this, index: 10'
p1607
aatp1608
Rp1609
(dp1610
g14
Vprep
p1611
sbatp1612
Rp1613
(dp1614
g14
S'word: look, index: 8'
p1615
sbatp1616
Rp1617
(dp1618
g14
S'id: 15'
p1619
sbag0
(g1
g2
(lp1620
g0
(g1
g2
(lp1621
g0
(g1
g2
(lp1622
(lp1623
S'word: There, index: 1'
p1624
aatp1625
Rp1626
(dp1627
g14
Vexpl
p1628
sbag0
(g1
g2
(lp1629
g0
(g1
g2
(lp1630
g0
(g1
g2
(lp1631
(lp1632
S'word: na, index: 4'
p1633
aatp1634
Rp1635
(dp1636
g14
Vxcomp
p1637
sbag0
(g1
g2
(lp1638
g0
(g1
g2
(lp1639
g0
(g1
g2
(lp1640
g0
(g1
g2
(lp1641
g0
(g1
g2
(lp1642
(lp1643
S'word: a, index: 6'
p1644
aatp1645
Rp1646
(dp1647
g14
Vdet
p1648
sbatp1649
Rp1650
(dp1651
g14
S'word: work, index: 7'
p1652
sbatp1653
Rp1654
(dp1655
g14
Vdep
p1656
sbatp1657
Rp1658
(dp1659
g14
S'word: lot, index: 5'
p1660
sbatp1661
Rp1662
(dp1663
g14
Vdep
p1664
sbag0
(g1
g2
(lp1665
g0
(g1
g2
(lp1666
g0
(g1
g2
(lp1667
g0
(g1
g2
(lp1668
g0
(g1
g2
(lp1669
(lp1670
S"word: 's, index: 13"
p1671
aatp1672
Rp1673
(dp1674
g14
Vpossessive
p1675
sbag0
(g1
g2
(lp1676
g0
(g1
g2
(lp1677
g0
(g1
g2
(lp1678
(lp1679
S'word: them, index: 16'
p1680
aatp1681
Rp1682
(dp1683
g14
Vprep
p1684
sbag0
(g1
g2
(lp1685
(lp1686
S'word: all, index: 17'
p1687
aatp1688
Rp1689
(dp1690
g14
Vadvmod
p1691
sbatp1692
Rp1693
(dp1694
g14
S'word: looking, index: 14'
p1695
sbatp1696
Rp1697
(dp1698
g14
Vvmod
p1699
sbatp1700
Rp1701
(dp1702
g14
S'word: nobody, index: 12'
p1703
sbatp1704
Rp1705
(dp1706
g14
Vprep
p1707
sbatp1708
Rp1709
(dp1710
g14
S'word: seems, index: 10'
p1711
sbatp1712
Rp1713
(dp1714
g14
Vconj
p1715
sbatp1716
Rp1717
(dp1718
g14
S'word: gon, index: 3'
p1719
sbatp1720
Rp1721
(dp1722
g14
Vdep
p1723
sbag0
(g1
g2
(lp1724
g0
(g1
g2
(lp1725
g0
(g1
g2
(lp1726
g0
(g1
g2
(lp1727
g0
(g1
g2
(lp1728
g0
(g1
g2
(lp1729
g0
(g1
g2
(lp1730
(lp1731
S'word: no, index: 28'
p1732
aatp1733
Rp1734
(dp1735
g14
Vneg
p1736
sbatp1737
Rp1738
(dp1739
g14
S'word: one, index: 29'
p1740
sbatp1741
Rp1742
(dp1743
g14
Vposs
p1744
sbag0
(g1
g2
(lp1745
(lp1746
S'word: paying, index: 31'
p1747
aatp1748
Rp1749
(dp1750
g14
Vamod
p1751
sbatp1752
Rp1753
(dp1754
g14
S'word: attention, index: 32'
p1755
sbatp1756
Rp1757
(dp1758
g14
Vdobj
p1759
sbag0
(g1
g2
(lp1760
(lp1761
S'word: it, index: 34'
p1762
aatp1763
Rp1764
(dp1765
g14
Vprep
p1766
sbag0
(g1
g2
(lp1767
g0
(g1
g2
(lp1768
g0
(g1
g2
(lp1769
(lp1770
S'word: these, index: 20'
p1771
aatp1772
Rp1773
(dp1774
g14
Vdet
p1775
sbatp1776
Rp1777
(dp1778
g14
S'word: guys, index: 21'
p1779
sbatp1780
Rp1781
(dp1782
g14
Vnsubj
p1783
sbag0
(g1
g2
(lp1784
(lp1785
S'word: are, index: 22'
p1786
aatp1787
Rp1788
(dp1789
g14
Vaux
p1790
sbag0
(g1
g2
(lp1791
g0
(g1
g2
(lp1792
g0
(g1
g2
(lp1793
g1753
atp1794
Rp1795
(dp1796
g14
Vconj
p1797
sbag0
(g1
g2
(lp1798
(lp1799
S'word: that, index: 24'
p1800
aatp1801
Rp1802
(dp1803
g14
Vdet
p1804
sbatp1805
Rp1806
(dp1807
g14
S'word: way, index: 25'
p1808
sbatp1809
Rp1810
(dp1811
g14
Vdobj
p1812
sbatp1813
Rp1814
(dp1815
g14
S'word: looking, index: 23'
p1816
sbatp1817
Rp1818
(dp1819
g14
Vconj
p1820
sbag0
(g1
g2
(lp1821
g1709
atp1822
Rp1823
(dp1824
g14
Vdep
p1825
sbatp1826
Rp1827
(dp1828
g14
S"word: 's, index: 2"
p1829
sbatp1830
Rp1831
(dp1832
g14
S'id: 16'
p1833
sbag0
(g1
g2
(lp1834
g0
(g1
g2
(lp1835
g0
(g1
g2
(lp1836
(lp1837
S'word: three, index: 3'
p1838
aatp1839
Rp1840
(dp1841
g14
Vnum
p1842
sbag0
(g1
g2
(lp1843
(lp1844
S'word: neat, index: 4'
p1845
aatp1846
Rp1847
(dp1848
g14
Vamod
p1849
sbag0
(g1
g2
(lp1850
g0
(g1
g2
(lp1851
g0
(g1
g2
(lp1852
(lp1853
S'word: here, index: 7'
p1854
aatp1855
Rp1856
(dp1857
g14
Vadvmod
p1858
sbatp1859
Rp1860
(dp1861
g14
S'word: going, index: 6'
p1862
sbatp1863
Rp1864
(dp1865
g14
Vvmod
p1866
sbag0
(g1
g2
(lp1867
g0
(g1
g2
(lp1868
g0
(g1
g2
(lp1869
g0
(g1
g2
(lp1870
g0
(g1
g2
(lp1871
(lp1872
S'word: nobody, index: 10'
p1873
aatp1874
Rp1875
(dp1876
g14
Vposs
p1877
sbag0
(g1
g2
(lp1878
(lp1879
S'word: paying, index: 12'
p1880
aatp1881
Rp1882
(dp1883
g14
Vamod
p1884
sbatp1885
Rp1886
(dp1887
g14
S'word: attention, index: 13'
p1888
sbatp1889
Rp1890
(dp1891
g14
Vnsubj
p1892
sbag0
(g1
g2
(lp1893
(lp1894
S'word: must, index: 15'
p1895
aatp1896
Rp1897
(dp1898
g14
Vaux
p1899
sbag0
(g1
g2
(lp1900
g0
(g1
g2
(lp1901
g0
(g1
g2
(lp1902
(lp1903
S'word: you, index: 17'
p1904
aatp1905
Rp1906
(dp1907
g14
Vnsubj
p1908
sbatp1909
Rp1910
(dp1911
g14
S'word: crazy, index: 18'
p1912
sbatp1913
Rp1914
(dp1915
g14
Vxcomp
p1916
sbatp1917
Rp1918
(dp1919
g14
S'word: make, index: 16'
p1920
sbatp1921
Rp1922
(dp1923
g14
Vconj
p1924
sbag0
(g1
g2
(lp1925
(lp1926
S'word: Those, index: 1'
p1927
aatp1928
Rp1929
(dp1930
g14
Vnsubj
p1931
sbag0
(g1
g2
(lp1932
(lp1933
S'word: are, index: 2'
p1934
aatp1935
Rp1936
(dp1937
g14
Vcop
p1938
sbatp1939
Rp1940
(dp1941
g14
S'word: things, index: 5'
p1942
sbatp1943
Rp1944
(dp1945
g14
S'id: 17'
p1946
sbag0
(g1
g2
(lp1947
g0
(g1
g2
(lp1948
g0
(g1
g2
(lp1949
(lp1950
S'word: is, index: 7'
p1951
aatp1952
Rp1953
(dp1954
g14
Vcop
p1955
sbag0
(g1
g2
(lp1956
g0
(g1
g2
(lp1957
g0
(g1
g2
(lp1958
(lp1959
S'word: pretty, index: 8'
p1960
aatp1961
Rp1962
(dp1963
g14
Vadvmod
p1964
sbatp1965
Rp1966
(dp1967
g14
S'word: much, index: 9'
p1968
sbatp1969
Rp1970
(dp1971
g14
Vamod
p1972
sbag0
(g1
g2
(lp1973
g0
(g1
g2
(lp1974
g0
(g1
g2
(lp1975
(lp1976
S'word: Nobody, index: 1'
p1977
aatp1978
Rp1979
(dp1980
g14
Vnn
p1981
sbag0
(g1
g2
(lp1982
g0
(g1
g2
(lp1983
g0
(g1
g2
(lp1984
(lp1985
S'word: this, index: 6'
p1986
aatp1987
Rp1988
(dp1989
g14
Vappos
p1990
sbatp1991
Rp1992
(dp1993
g14
S'word: this, index: 4'
p1994
sbatp1995
Rp1996
(dp1997
g14
Vprep
p1998
sbatp1999
Rp2000
(dp2001
g14
S'word: look, index: 2'
p2002
sbatp2003
Rp2004
(dp2005
g14
Vnsubj
p2006
sbatp2007
Rp2008
(dp2009
g14
S'word: nothing, index: 10'
p2010
sbatp2011
Rp2012
(dp2013
g14
S'id: 18'
p2014
sbag0
(g1
g2
(lp2015
g0
(g1
g2
(lp2016
g0
(g1
g2
(lp2017
(lp2018
S'word: This, index: 1'
p2019
aatp2020
Rp2021
(dp2022
g14
Vnsubj
p2023
sbag0
(g1
g2
(lp2024
(lp2025
S'word: is, index: 2'
p2026
aatp2027
Rp2028
(dp2029
g14
Vcop
p2030
sbag0
(g1
g2
(lp2031
(lp2032
S'word: a, index: 3'
p2033
aatp2034
Rp2035
(dp2036
g14
Vdet
p2037
sbag0
(g1
g2
(lp2038
(lp2039
S'word: good, index: 4'
p2040
aatp2041
Rp2042
(dp2043
g14
Vamod
p2044
sbag0
(g1
g2
(lp2045
g0
(g1
g2
(lp2046
g0
(g1
g2
(lp2047
g0
(g1
g2
(lp2048
g0
(g1
g2
(lp2049
(lp2050
S'word: this, index: 9'
p2051
aatp2052
Rp2053
(dp2054
g14
Vnsubj
p2055
sbag0
(g1
g2
(lp2056
(lp2057
S'word: is, index: 10'
p2058
aatp2059
Rp2060
(dp2061
g14
Vcop
p2062
sbatp2063
Rp2064
(dp2065
g14
S'word: typhing, index: 11'
p2066
sbatp2067
Rp2068
(dp2069
g14
Vparataxis
p2070
sbag0
(g1
g2
(lp2071
g0
(g1
g2
(lp2072
g0
(g1
g2
(lp2073
(lp2074
S'word: this, index: 13'
p2075
aatp2076
Rp2077
(dp2078
g14
Vnsubj
p2079
sbag0
(g1
g2
(lp2080
(lp2081
S'word: is, index: 14'
p2082
aatp2083
Rp2084
(dp2085
g14
Vcop
p2086
sbag0
(g1
g2
(lp2087
g0
(g1
g2
(lp2088
g0
(g1
g2
(lp2089
(lp2090
S'word: nobody, index: 17'
p2091
aatp2092
Rp2093
(dp2094
g14
Vposs
p2095
sbag0
(g1
g2
(lp2096
(lp2097
S'word: paying, index: 19'
p2098
aatp2099
Rp2100
(dp2101
g14
Vamod
p2102
sbag0
(g1
g2
(lp2103
(lp2104
S'word: him, index: 22'
p2105
aatp2106
Rp2107
(dp2108
g14
Vprep
p2109
sbatp2110
Rp2111
(dp2112
g14
S'word: attention, index: 20'
p2113
sbatp2114
Rp2115
(dp2116
g14
Vappos
p2117
sbatp2118
Rp2119
(dp2120
g14
S'word: nothing, index: 15'
p2121
sbatp2122
Rp2123
(dp2124
g14
Vccomp
p2125
sbag0
(g1
g2
(lp2126
(lp2127
S'word: to, index: 6'
p2128
aatp2129
Rp2130
(dp2131
g14
Vaux
p2132
sbatp2133
Rp2134
(dp2135
g14
S'word: do, index: 7'
p2136
sbatp2137
Rp2138
(dp2139
g14
Vvmod
p2140
sbatp2141
Rp2142
(dp2143
g14
S'word: thing, index: 5'
p2144
sbatp2145
Rp2146
(dp2147
g14
S'id: 19'
p2148
sbag0
(g1
g2
(lp2149
g0
(g1
g2
(lp2150
g0
(g1
g2
(lp2151
(lp2152
S'word: nobody, index: 17'
p2153
aatp2154
Rp2155
(dp2156
g14
Vnsubj
p2157
sbag0
(g1
g2
(lp2158
g0
(g1
g2
(lp2159
g0
(g1
g2
(lp2160
g0
(g1
g2
(lp2161
g0
(g1
g2
(lp2162
(lp2163
S'word: These, index: 1'
p2164
aatp2165
Rp2166
(dp2167
g14
Vdet
p2168
sbatp2169
Rp2170
(dp2171
g14
S'word: people, index: 2'
p2172
sbatp2173
Rp2174
(dp2175
g14
Vnsubj
p2176
sbag0
(g1
g2
(lp2177
(lp2178
S'word: do, index: 3'
p2179
aatp2180
Rp2181
(dp2182
g14
Vaux
p2183
sbag0
(g1
g2
(lp2184
(lp2185
S"word: n't, index: 4"
p2186
aatp2187
Rp2188
(dp2189
g14
Vneg
p2190
sbag0
(g1
g2
(lp2191
(lp2192
S'word: attention, index: 6'
p2193
aatp2194
Rp2195
(dp2196
g14
Vdobj
p2197
sbag0
(g1
g2
(lp2198
g0
(g1
g2
(lp2199
g0
(g1
g2
(lp2200
g0
(g1
g2
(lp2201
g0
(g1
g2
(lp2202
g0
(g1
g2
(lp2203
g0
(g1
g2
(lp2204
(lp2205
S'word: the, index: 14'
p2206
aatp2207
Rp2208
(dp2209
g14
Vdet
p2210
sbatp2211
Rp2212
(dp2213
g14
S'word: circus, index: 15'
p2214
sbatp2215
Rp2216
(dp2217
g14
Vappos
p2218
sbag0
(g1
g2
(lp2219
(lp2220
S'word: the, index: 11'
p2221
aatp2222
Rp2223
(dp2224
g14
Vdet
p2225
sbatp2226
Rp2227
(dp2228
g14
S'word: circ, index: 12'
p2229
sbatp2230
Rp2231
(dp2232
g14
Vprep
p2233
sbag0
(g1
g2
(lp2234
(lp2235
S'word: this, index: 8'
p2236
aatp2237
Rp2238
(dp2239
g14
Vdet
p2240
sbatp2241
Rp2242
(dp2243
g14
S'word: thing, index: 9'
p2244
sbatp2245
Rp2246
(dp2247
g14
Vprep
p2248
sbatp2249
Rp2250
(dp2251
g14
S'word: pay, index: 5'
p2252
sbatp2253
Rp2254
(dp2255
g14
Vccomp
p2256
sbatp2257
Rp2258
(dp2259
g14
S'word: cares, index: 18'
p2260
sbatp2261
Rp2262
(dp2263
g14
S'id: 20'
p2264
sbag0
(g1
g2
(lp2265
g0
(g1
g2
(lp2266
g0
(g1
g2
(lp2267
g0
(g1
g2
(lp2268
g0
(g1
g2
(lp2269
g0
(g1
g2
(lp2270
g0
(g1
g2
(lp2271
(lp2272
S'word: big, index: 5'
p2273
aatp2274
Rp2275
(dp2276
g14
Vamod
p2277
sbag0
(g1
g2
(lp2278
g0
(g1
g2
(lp2279
g0
(g1
g2
(lp2280
(lp2281
S'word: here, index: 8'
p2282
aatp2283
Rp2284
(dp2285
g14
Vadvmod
p2286
sbatp2287
Rp2288
(dp2289
g14
S'word: going, index: 7'
p2290
sbatp2291
Rp2292
(dp2293
g14
Vvmod
p2294
sbatp2295
Rp2296
(dp2297
g14
S'word: things, index: 6'
p2298
sbatp2299
Rp2300
(dp2301
g14
Vappos
p2302
sbatp2303
Rp2304
(dp2305
g14
S'word: this, index: 3'
p2306
sbatp2307
Rp2308
(dp2309
g14
Vprep
p2310
sbag0
(g1
g2
(lp2311
g0
(g1
g2
(lp2312
g0
(g1
g2
(lp2313
g0
(g1
g2
(lp2314
g0
(g1
g2
(lp2315
(lp2316
S'word: no, index: 11'
p2317
aatp2318
Rp2319
(dp2320
g14
Vneg
p2321
sbag0
(g1
g2
(lp2322
(lp2323
S"word: 's, index: 13"
p2324
aatp2325
Rp2326
(dp2327
g14
Vpossessive
p2328
sbatp2329
Rp2330
(dp2331
g14
S'word: one, index: 12'
p2332
sbatp2333
Rp2334
(dp2335
g14
Vnsubj
p2336
sbatp2337
Rp2338
(dp2339
g14
S'word: looking, index: 14'
p2340
sbatp2341
Rp2342
(dp2343
g14
Vconj
p2344
sbatp2345
Rp2346
(dp2347
g14
S'word: Looking, index: 1'
p2348
sbatp2349
Rp2350
(dp2351
g14
S'id: 21'
p2352
sbatp2353
Rp2354
(dp2355
g14
S'sentences'
p2356
sb.