ccopy_reg
_reconstructor
p0
(cnltk.tree
Tree
p1
c__builtin__
list
p2
(lp3
g0
(g1
g2
(lp4
g0
(g1
g2
(lp5
g0
(g1
g2
(lp6
g0
(g1
g2
(lp7
Vwe
p8
atp9
Rp10
(dp11
S'_label'
p12
VPRP
p13
sbatp14
Rp15
(dp16
g12
VNP
p17
sbag0
(g1
g2
(lp18
g0
(g1
g2
(lp19
V're
p20
atp21
Rp22
(dp23
g12
VVBP
p24
sbag0
(g1
g2
(lp25
g0
(g1
g2
(lp26
Vback
p27
atp28
Rp29
(dp30
g12
VRB
p31
sbatp32
Rp33
(dp34
g12
VADVP
p35
sbag0
(g1
g2
(lp36
g0
(g1
g2
(lp37
Vat
p38
atp39
Rp40
(dp41
g12
VIN
p42
sbag0
(g1
g2
(lp43
g0
(g1
g2
(lp44
g0
(g1
g2
(lp45
Vthe
p46
atp47
Rp48
(dp49
g12
VDT
p50
sbag0
(g1
g2
(lp51
Vbeach
p52
atp53
Rp54
(dp55
g12
VNN
p56
sbatp57
Rp58
(dp59
g12
VNP
p60
sbag0
(g1
g2
(lp61
V,
p62
atp63
Rp64
(dp65
g12
V,
p66
sbag0
(g1
g2
(lp67
Vand
p68
atp69
Rp70
(dp71
g12
VCC
p72
sbag0
(g1
g2
(lp73
g0
(g1
g2
(lp74
Vthe
p75
atp76
Rp77
(dp78
g12
VDT
p79
sbag0
(g1
g2
(lp80
Vlake
p81
atp82
Rp83
(dp84
g12
VNN
p85
sbatp86
Rp87
(dp88
g12
VNP
p89
sbatp90
Rp91
(dp92
g12
VNP
p93
sbatp94
Rp95
(dp96
g12
VPP
p97
sbag0
(g1
g2
(lp98
g0
(g1
g2
(lp99
g0
(g1
g2
(lp100
Vwhere
p101
atp102
Rp103
(dp104
g12
VWRB
p105
sbatp106
Rp107
(dp108
g12
VWHADVP
p109
sbag0
(g1
g2
(lp110
g0
(g1
g2
(lp111
g0
(g1
g2
(lp112
Vwe
p113
atp114
Rp115
(dp116
g12
VPRP
p117
sbatp118
Rp119
(dp120
g12
VNP
p121
sbag0
(g1
g2
(lp122
g0
(g1
g2
(lp123
Vwere
p124
atp125
Rp126
(dp127
g12
VVBD
p128
sbag0
(g1
g2
(lp129
g0
(g1
g2
(lp130
Vyesterday
p131
atp132
Rp133
(dp134
g12
VNN
p135
sbatp136
Rp137
(dp138
g12
VNP-TMP
p139
sbatp140
Rp141
(dp142
g12
VVP
p143
sbatp144
Rp145
(dp146
g12
VS
p147
sbatp148
Rp149
(dp150
g12
VSBAR
p151
sbag0
(g1
g2
(lp152
V,
p153
atp154
Rp155
(dp156
g12
V,
p157
sbag0
(g1
g2
(lp158
g0
(g1
g2
(lp159
Vwith
p160
atp161
Rp162
(dp163
g12
VIN
p164
sbag0
(g1
g2
(lp165
g0
(g1
g2
(lp166
g0
(g1
g2
(lp167
Vmom
p168
atp169
Rp170
(dp171
g12
VNN
p172
sbag0
(g1
g2
(lp173
Vand
p174
atp175
Rp176
(dp177
g12
VCC
p178
sbag0
(g1
g2
(lp179
Vdad
p180
atp181
Rp182
(dp183
g12
VNN
p184
sbatp185
Rp186
(dp187
g12
VNP
p188
sbag0
(g1
g2
(lp189
V,
p190
atp191
Rp192
(dp193
g12
V,
p194
sbag0
(g1
g2
(lp195
Vand
p196
atp197
Rp198
(dp199
g12
VCC
p200
sbag0
(g1
g2
(lp201
g0
(g1
g2
(lp202
Vthe
p203
atp204
Rp205
(dp206
g12
VDT
p207
sbag0
(g1
g2
(lp208
Vtwo
p209
atp210
Rp211
(dp212
g12
VCD
p213
sbag0
(g1
g2
(lp214
Vboy
p215
atp216
Rp217
(dp218
g12
VNN
p219
sbatp220
Rp221
(dp222
g12
VNP
p223
sbag0
(g1
g2
(lp224
V,
p225
atp226
Rp227
(dp228
g12
V,
p229
sbag0
(g1
g2
(lp230
g0
(g1
g2
(lp231
Vtheir
p232
atp233
Rp234
(dp235
g12
VPRP$
p236
sbag0
(g1
g2
(lp237
Vson
p238
atp239
Rp240
(dp241
g12
VNN
p242
sbag0
(g1
g2
(lp243
Vand
p244
atp245
Rp246
(dp247
g12
VCC
p248
sbag0
(g1
g2
(lp249
Vdaughter
p250
atp251
Rp252
(dp253
g12
VNN
p254
sbatp255
Rp256
(dp257
g12
VNP
p258
sbag0
(g1
g2
(lp259
V,
p260
atp261
Rp262
(dp263
g12
V,
p264
sbag0
(g1
g2
(lp265
Vand
p266
atp267
Rp268
(dp269
g12
VCC
p270
sbag0
(g1
g2
(lp271
g0
(g1
g2
(lp272
g0
(g1
g2
(lp273
Vdog
p274
atp275
Rp276
(dp277
g12
VNN
p278
sbatp279
Rp280
(dp281
g12
VNP
p282
sbag0
(g1
g2
(lp283
g0
(g1
g2
(lp284
Von
p285
atp286
Rp287
(dp288
g12
VIN
p289
sbag0
(g1
g2
(lp290
g0
(g1
g2
(lp291
Va
p292
atp293
Rp294
(dp295
g12
VDT
p296
sbag0
(g1
g2
(lp297
Vpicnic
p298
atp299
Rp300
(dp301
g12
VNN
p302
sbatp303
Rp304
(dp305
g12
VNP
p306
sbatp307
Rp308
(dp309
g12
VPP
p310
sbatp311
Rp312
(dp313
g12
VNP
p314
sbatp315
Rp316
(dp317
g12
VNP
p318
sbatp319
Rp320
(dp321
g12
VPP
p322
sbatp323
Rp324
(dp325
g12
VVP
p326
sbag0
(g1
g2
(lp327
V.
p328
atp329
Rp330
(dp331
g12
V.
p332
sbatp333
Rp334
(dp335
g12
VS
p336
sbatp337
Rp338
(dp339
g12
S'id: 0'
p340
sbag0
(g1
g2
(lp341
g0
(g1
g2
(lp342
g0
(g1
g2
(lp343
g0
(g1
g2
(lp344
VMom
p345
atp346
Rp347
(dp348
g12
VNN
p349
sbag0
(g1
g2
(lp350
Vand
p351
atp352
Rp353
(dp354
g12
VCC
p355
sbag0
(g1
g2
(lp356
Vdad
p357
atp358
Rp359
(dp360
g12
VNN
p361
sbatp362
Rp363
(dp364
g12
VNP
p365
sbag0
(g1
g2
(lp366
g0
(g1
g2
(lp367
Vare
p368
atp369
Rp370
(dp371
g12
VVBP
p372
sbag0
(g1
g2
(lp373
g0
(g1
g2
(lp374
Vsitting
p375
atp376
Rp377
(dp378
g12
VVBG
p379
sbag0
(g1
g2
(lp380
g0
(g1
g2
(lp381
Von
p382
atp383
Rp384
(dp385
g12
VIN
p386
sbag0
(g1
g2
(lp387
g0
(g1
g2
(lp388
Vthe
p389
atp390
Rp391
(dp392
g12
VDT
p393
sbag0
(g1
g2
(lp394
Vbeach
p395
atp396
Rp397
(dp398
g12
VNN
p399
sbag0
(g1
g2
(lp400
Vblanket
p401
atp402
Rp403
(dp404
g12
VNN
p405
sbatp406
Rp407
(dp408
g12
VNP
p409
sbatp410
Rp411
(dp412
g12
VPP
p413
sbag0
(g1
g2
(lp414
V,
p415
atp416
Rp417
(dp418
g12
V,
p419
sbag0
(g1
g2
(lp420
g0
(g1
g2
(lp421
Vup
p422
atp423
Rp424
(dp425
g12
VRB
p426
sbag0
(g1
g2
(lp427
g0
(g1
g2
(lp428
Von
p429
atp430
Rp431
(dp432
g12
VIN
p433
sbag0
(g1
g2
(lp434
g0
(g1
g2
(lp435
Vthe
p436
atp437
Rp438
(dp439
g12
VDT
p440
sbag0
(g1
g2
(lp441
Vgrass
p442
atp443
Rp444
(dp445
g12
VNN
p446
sbatp447
Rp448
(dp449
g12
VNP
p450
sbatp451
Rp452
(dp453
g12
VPP
p454
sbatp455
Rp456
(dp457
g12
VADVP
p458
sbatp459
Rp460
(dp461
g12
VVP
p462
sbatp463
Rp464
(dp465
g12
VVP
p466
sbag0
(g1
g2
(lp467
V.
p468
atp469
Rp470
(dp471
g12
V.
p472
sbatp473
Rp474
(dp475
g12
VS
p476
sbatp477
Rp478
(dp479
g12
S'id: 1'
p480
sbag0
(g1
g2
(lp481
g0
(g1
g2
(lp482
g0
(g1
g2
(lp483
g0
(g1
g2
(lp484
g0
(g1
g2
(lp485
VDad
p486
atp487
Rp488
(dp489
g12
VNNP
p490
sbag0
(g1
g2
(lp491
V's
p492
atp493
Rp494
(dp495
g12
VPOS
p496
sbatp497
Rp498
(dp499
g12
VNP
p500
sbag0
(g1
g2
(lp501
Vcrut
p502
atp503
Rp504
(dp505
g12
VNN
p506
sbatp507
Rp508
(dp509
g12
VNP
p510
sbag0
(g1
g2
(lp511
g0
(g1
g2
(lp512
g0
(g1
g2
(lp513
g0
(g1
g2
(lp514
g0
(g1
g2
(lp515
Vhis
p516
atp517
Rp518
(dp519
g12
VPRP$
p520
sbag0
(g1
g2
(lp521
Vlegs
p522
atp523
Rp524
(dp525
g12
VNNS
p526
sbatp527
Rp528
(dp529
g12
VNP
p530
sbag0
(g1
g2
(lp531
g0
(g1
g2
(lp532
Vcrossed
p533
atp534
Rp535
(dp536
g12
VVBD
p537
sbatp538
Rp539
(dp540
g12
VVP
p541
sbatp542
Rp543
(dp544
g12
VS
p545
sbag0
(g1
g2
(lp546
V,
p547
atp548
Rp549
(dp550
g12
V,
p551
sbag0
(g1
g2
(lp552
Vand
p553
atp554
Rp555
(dp556
g12
VCC
p557
sbag0
(g1
g2
(lp558
g0
(g1
g2
(lp559
g0
(g1
g2
(lp560
g0
(g1
g2
(lp561
Vhe
p562
atp563
Rp564
(dp565
g12
VPRP
p566
sbatp567
Rp568
(dp569
g12
VNP
p570
sbag0
(g1
g2
(lp571
g0
(g1
g2
(lp572
V's
p573
atp574
Rp575
(dp576
g12
VVBZ
p577
sbag0
(g1
g2
(lp578
g0
(g1
g2
(lp579
Vreading
p580
atp581
Rp582
(dp583
g12
VVBG
p584
sbag0
(g1
g2
(lp585
g0
(g1
g2
(lp586
Va
p587
atp588
Rp589
(dp590
g12
VDT
p591
sbag0
(g1
g2
(lp592
Vbook
p593
atp594
Rp595
(dp596
g12
VNN
p597
sbatp598
Rp599
(dp600
g12
VNP
p601
sbag0
(g1
g2
(lp602
V,
p603
atp604
Rp605
(dp606
g12
V,
p607
sbag0
(g1
g2
(lp608
g0
(g1
g2
(lp609
Vwith
p610
atp611
Rp612
(dp613
g12
VIN
p614
sbag0
(g1
g2
(lp615
g0
(g1
g2
(lp616
Vit
p617
atp618
Rp619
(dp620
g12
VPRP
p621
sbatp622
Rp623
(dp624
g12
VNP
p625
sbatp626
Rp627
(dp628
g12
VPP
p629
sbatp630
Rp631
(dp632
g12
VVP
p633
sbatp634
Rp635
(dp636
g12
VVP
p637
sbatp638
Rp639
(dp640
g12
VS
p641
sbag0
(g1
g2
(lp642
V,
p643
atp644
Rp645
(dp646
g12
V,
p647
sbag0
(g1
g2
(lp648
g0
(g1
g2
(lp649
Vhopefully
p650
atp651
Rp652
(dp653
g12
VRB
p654
sbatp655
Rp656
(dp657
g12
VADVP
p658
sbag0
(g1
g2
(lp659
g0
(g1
g2
(lp660
g0
(g1
g2
(lp661
Vhe
p662
atp663
Rp664
(dp665
g12
VPRP
p666
sbatp667
Rp668
(dp669
g12
VNP
p670
sbag0
(g1
g2
(lp671
g0
(g1
g2
(lp672
Vcan
p673
atp674
Rp675
(dp676
g12
VMD
p677
sbag0
(g1
g2
(lp678
g0
(g1
g2
(lp679
Vsee
p680
atp681
Rp682
(dp683
g12
VVB
p684
sbag0
(g1
g2
(lp685
g0
(g1
g2
(lp686
Vbetter
p687
atp688
Rp689
(dp690
g12
VJJR
p691
sbag0
(g1
g2
(lp692
Vcause
p693
atp694
Rp695
(dp696
g12
VNN
p697
sbatp698
Rp699
(dp700
g12
VNP
p701
sbatp702
Rp703
(dp704
g12
VVP
p705
sbatp706
Rp707
(dp708
g12
VVP
p709
sbatp710
Rp711
(dp712
g12
VS
p713
sbatp714
Rp715
(dp716
g12
VS
p717
sbatp718
Rp719
(dp720
g12
VS
p721
sbatp722
Rp723
(dp724
g12
VPRN
p725
sbag0
(g1
g2
(lp726
g0
(g1
g2
(lp727
Vhe
p728
atp729
Rp730
(dp731
g12
VPRP
p732
sbatp733
Rp734
(dp735
g12
VNP
p736
sbag0
(g1
g2
(lp737
g0
(g1
g2
(lp738
V's
p739
atp740
Rp741
(dp742
g12
VVBZ
p743
sbag0
(g1
g2
(lp744
g0
(g1
g2
(lp745
Vgot
p746
atp747
Rp748
(dp749
g12
VVBD
p750
sbag0
(g1
g2
(lp751
g0
(g1
g2
(lp752
Vhis
p753
atp754
Rp755
(dp756
g12
VPRP$
p757
sbag0
(g1
g2
(lp758
Veye
p759
atp760
Rp761
(dp762
g12
VNN
p763
sbag0
(g1
g2
(lp764
Vglasses
p765
atp766
Rp767
(dp768
g12
VNNS
p769
sbatp770
Rp771
(dp772
g12
VNP
p773
sbag0
(g1
g2
(lp774
g0
(g1
g2
(lp775
Von
p776
atp777
Rp778
(dp779
g12
VIN
p780
sbatp781
Rp782
(dp783
g12
VPP
p784
sbatp785
Rp786
(dp787
g12
VVP
p788
sbatp789
Rp790
(dp791
g12
VVP
p792
sbag0
(g1
g2
(lp793
V.
p794
atp795
Rp796
(dp797
g12
V.
p798
sbatp799
Rp800
(dp801
g12
VS
p802
sbatp803
Rp804
(dp805
g12
S'id: 2'
p806
sbag0
(g1
g2
(lp807
g0
(g1
g2
(lp808
g0
(g1
g2
(lp809
g0
(g1
g2
(lp810
VHis
p811
atp812
Rp813
(dp814
g12
VPRP$
p815
sbag0
(g1
g2
(lp816
Vsandals
p817
atp818
Rp819
(dp820
g12
VNNS
p821
sbatp822
Rp823
(dp824
g12
VNP
p825
sbag0
(g1
g2
(lp826
g0
(g1
g2
(lp827
Vare
p828
atp829
Rp830
(dp831
g12
VVBP
p832
sbag0
(g1
g2
(lp833
g0
(g1
g2
(lp834
Vlaying
p835
atp836
Rp837
(dp838
g12
VVBG
p839
sbag0
(g1
g2
(lp840
g0
(g1
g2
(lp841
Von
p842
atp843
Rp844
(dp845
g12
VIN
p846
sbag0
(g1
g2
(lp847
g0
(g1
g2
(lp848
Vto
p849
atp850
Rp851
(dp852
g12
VTO
p853
sbag0
(g1
g2
(lp854
g0
(g1
g2
(lp855
Vhis
p856
atp857
Rp858
(dp859
g12
VPRP$
p860
sbag0
(g1
g2
(lp861
Vright
p862
atp863
Rp864
(dp865
g12
VJJ
p866
sbag0
(g1
g2
(lp867
Vside
p868
atp869
Rp870
(dp871
g12
VNN
p872
sbatp873
Rp874
(dp875
g12
VNP
p876
sbatp877
Rp878
(dp879
g12
VPP
p880
sbatp881
Rp882
(dp883
g12
VPP
p884
sbag0
(g1
g2
(lp885
V,
p886
atp887
Rp888
(dp889
g12
V,
p890
sbag0
(g1
g2
(lp891
g0
(g1
g2
(lp892
Von
p893
atp894
Rp895
(dp896
g12
VIN
p897
sbag0
(g1
g2
(lp898
g0
(g1
g2
(lp899
Vthe
p900
atp901
Rp902
(dp903
g12
VDT
p904
sbag0
(g1
g2
(lp905
Vblanket
p906
atp907
Rp908
(dp909
g12
VNN
p910
sbatp911
Rp912
(dp913
g12
VNP
p914
sbatp915
Rp916
(dp917
g12
VPP
p918
sbatp919
Rp920
(dp921
g12
VVP
p922
sbatp923
Rp924
(dp925
g12
VVP
p926
sbag0
(g1
g2
(lp927
V.
p928
atp929
Rp930
(dp931
g12
V.
p932
sbatp933
Rp934
(dp935
g12
VS
p936
sbatp937
Rp938
(dp939
g12
S'id: 3'
p940
sbag0
(g1
g2
(lp941
g0
(g1
g2
(lp942
g0
(g1
g2
(lp943
g0
(g1
g2
(lp944
g0
(g1
g2
(lp945
VIn
p946
atp947
Rp948
(dp949
g12
VIN
p950
sbag0
(g1
g2
(lp951
g0
(g1
g2
(lp952
g0
(g1
g2
(lp953
Vfront
p954
atp955
Rp956
(dp957
g12
VNN
p958
sbatp959
Rp960
(dp961
g12
VNP
p962
sbag0
(g1
g2
(lp963
g0
(g1
g2
(lp964
Vof
p965
atp966
Rp967
(dp968
g12
VIN
p969
sbag0
(g1
g2
(lp970
g0
(g1
g2
(lp971
Vthat
p972
atp973
Rp974
(dp975
g12
VDT
p976
sbatp977
Rp978
(dp979
g12
VNP
p980
sbatp981
Rp982
(dp983
g12
VPP
p984
sbatp985
Rp986
(dp987
g12
VNP
p988
sbatp989
Rp990
(dp991
g12
VPP
p992
sbag0
(g1
g2
(lp993
V,
p994
atp995
Rp996
(dp997
g12
V,
p998
sbag0
(g1
g2
(lp999
g0
(g1
g2
(lp1000
g0
(g1
g2
(lp1001
Vis
p1002
atp1003
Rp1004
(dp1005
g12
VVBZ
p1006
sbag0
(g1
g2
(lp1007
g0
(g1
g2
(lp1008
Vin
p1009
atp1010
Rp1011
(dp1012
g12
VIN
p1013
sbag0
(g1
g2
(lp1014
g0
(g1
g2
(lp1015
g0
(g1
g2
(lp1016
Vfront
p1017
atp1018
Rp1019
(dp1020
g12
VNN
p1021
sbatp1022
Rp1023
(dp1024
g12
VNP
p1025
sbag0
(g1
g2
(lp1026
g0
(g1
g2
(lp1027
Vof
p1028
atp1029
Rp1030
(dp1031
g12
VIN
p1032
sbag0
(g1
g2
(lp1033
g0
(g1
g2
(lp1034
Vhim
p1035
atp1036
Rp1037
(dp1038
g12
VPRP
p1039
sbatp1040
Rp1041
(dp1042
g12
VNP
p1043
sbatp1044
Rp1045
(dp1046
g12
VPP
p1047
sbatp1048
Rp1049
(dp1050
g12
VNP
p1051
sbatp1052
Rp1053
(dp1054
g12
VPP
p1055
sbatp1056
Rp1057
(dp1058
g12
VVP
p1059
sbatp1060
Rp1061
(dp1062
g12
VS
p1063
sbag0
(g1
g2
(lp1064
V,
p1065
atp1066
Rp1067
(dp1068
g12
V,
p1069
sbag0
(g1
g2
(lp1070
g0
(g1
g2
(lp1071
Vis
p1072
atp1073
Rp1074
(dp1075
g12
VVBZ
p1076
sbag0
(g1
g2
(lp1077
g0
(g1
g2
(lp1078
Vmom
p1079
atp1080
Rp1081
(dp1082
g12
VNN
p1083
sbatp1084
Rp1085
(dp1086
g12
VNP
p1087
sbag0
(g1
g2
(lp1088
V,
p1089
atp1090
Rp1091
(dp1092
g12
V,
p1093
sbag0
(g1
g2
(lp1094
g0
(g1
g2
(lp1095
g0
(g1
g2
(lp1096
Vkneeling
p1097
atp1098
Rp1099
(dp1100
g12
VVBG
p1101
sbatp1102
Rp1103
(dp1104
g12
VVP
p1105
sbatp1106
Rp1107
(dp1108
g12
VS
p1109
sbatp1110
Rp1111
(dp1112
g12
VVP
p1113
sbatp1114
Rp1115
(dp1116
g12
VS
p1117
sbag0
(g1
g2
(lp1118
V,
p1119
atp1120
Rp1121
(dp1122
g12
V,
p1123
sbag0
(g1
g2
(lp1124
Vand
p1125
atp1126
Rp1127
(dp1128
g12
VCC
p1129
sbag0
(g1
g2
(lp1130
g0
(g1
g2
(lp1131
g0
(g1
g2
(lp1132
g0
(g1
g2
(lp1133
Vshe
p1134
atp1135
Rp1136
(dp1137
g12
VPRP
p1138
sbatp1139
Rp1140
(dp1141
g12
VNP
p1142
sbag0
(g1
g2
(lp1143
g0
(g1
g2
(lp1144
V's
p1145
atp1146
Rp1147
(dp1148
g12
VVBZ
p1149
sbag0
(g1
g2
(lp1150
g0
(g1
g2
(lp1151
Vpouring
p1152
atp1153
Rp1154
(dp1155
g12
VVBG
p1156
sbag0
(g1
g2
(lp1157
g0
(g1
g2
(lp1158
g0
(g1
g2
(lp1159
Va
p1160
atp1161
Rp1162
(dp1163
g12
VDT
p1164
sbag0
(g1
g2
(lp1165
Vglass
p1166
atp1167
Rp1168
(dp1169
g12
VNN
p1170
sbatp1171
Rp1172
(dp1173
g12
VNP
p1174
sbag0
(g1
g2
(lp1175
g0
(g1
g2
(lp1176
Vof
p1177
atp1178
Rp1179
(dp1180
g12
VIN
p1181
sbag0
(g1
g2
(lp1182
g0
(g1
g2
(lp1183
Vsoda
p1184
atp1185
Rp1186
(dp1187
g12
VNN
p1188
sbatp1189
Rp1190
(dp1191
g12
VNP
p1192
sbatp1193
Rp1194
(dp1195
g12
VPP
p1196
sbatp1197
Rp1198
(dp1199
g12
VNP
p1200
sbag0
(g1
g2
(lp1201
g0
(g1
g2
(lp1202
Vover
p1203
atp1204
Rp1205
(dp1206
g12
VIN
p1207
sbag0
(g1
g2
(lp1208
g0
(g1
g2
(lp1209
g0
(g1
g2
(lp1210
Vthe
p1211
atp1212
Rp1213
(dp1214
g12
VDT
p1215
sbag0
(g1
g2
(lp1216
Vpicnic
p1217
atp1218
Rp1219
(dp1220
g12
VNN
p1221
sbag0
(g1
g2
(lp1222
Vbasket
p1223
atp1224
Rp1225
(dp1226
g12
VNN
p1227
sbatp1228
Rp1229
(dp1230
g12
VNP
p1231
sbag0
(g1
g2
(lp1232
g0
(g1
g2
(lp1233
Vbetween
p1234
atp1235
Rp1236
(dp1237
g12
VIN
p1238
sbag0
(g1
g2
(lp1239
g0
(g1
g2
(lp1240
Vthem
p1241
atp1242
Rp1243
(dp1244
g12
VPRP
p1245
sbatp1246
Rp1247
(dp1248
g12
VNP
p1249
sbatp1250
Rp1251
(dp1252
g12
VPP
p1253
sbatp1254
Rp1255
(dp1256
g12
VNP
p1257
sbatp1258
Rp1259
(dp1260
g12
VPP
p1261
sbatp1262
Rp1263
(dp1264
g12
VVP
p1265
sbatp1266
Rp1267
(dp1268
g12
VVP
p1269
sbatp1270
Rp1271
(dp1272
g12
VS
p1273
sbag0
(g1
g2
(lp1274
V,
p1275
atp1276
Rp1277
(dp1278
g12
V,
p1279
sbag0
(g1
g2
(lp1280
Vand
p1281
atp1282
Rp1283
(dp1284
g12
VCC
p1285
sbag0
(g1
g2
(lp1286
g0
(g1
g2
(lp1287
g0
(g1
g2
(lp1288
Vshe
p1289
atp1290
Rp1291
(dp1292
g12
VPRP
p1293
sbatp1294
Rp1295
(dp1296
g12
VNP
p1297
sbag0
(g1
g2
(lp1298
g0
(g1
g2
(lp1299
V's
p1300
atp1301
Rp1302
(dp1303
g12
VVBZ
p1304
sbag0
(g1
g2
(lp1305
g0
(g1
g2
(lp1306
Vlistening
p1307
atp1308
Rp1309
(dp1310
g12
VVBG
p1311
sbag0
(g1
g2
(lp1312
g0
(g1
g2
(lp1313
Vto
p1314
atp1315
Rp1316
(dp1317
g12
VTO
p1318
sbag0
(g1
g2
(lp1319
g0
(g1
g2
(lp1320
Va
p1321
atp1322
Rp1323
(dp1324
g12
VDT
p1325
sbag0
(g1
g2
(lp1326
Vradio
p1327
atp1328
Rp1329
(dp1330
g12
VNN
p1331
sbatp1332
Rp1333
(dp1334
g12
VNP
p1335
sbatp1336
Rp1337
(dp1338
g12
VPP
p1339
sbatp1340
Rp1341
(dp1342
g12
VVP
p1343
sbatp1344
Rp1345
(dp1346
g12
VVP
p1347
sbatp1348
Rp1349
(dp1350
g12
VS
p1351
sbatp1352
Rp1353
(dp1354
g12
VS
p1355
sbag0
(g1
g2
(lp1356
V.
p1357
atp1358
Rp1359
(dp1360
g12
V.
p1361
sbatp1362
Rp1363
(dp1364
g12
VS
p1365
sbatp1366
Rp1367
(dp1368
g12
S'id: 4'
p1369
sbag0
(g1
g2
(lp1370
g0
(g1
g2
(lp1371
g0
(g1
g2
(lp1372
g0
(g1
g2
(lp1373
VLet
p1374
atp1375
Rp1376
(dp1377
g12
VVB
p1378
sbag0
(g1
g2
(lp1379
g0
(g1
g2
(lp1380
g0
(g1
g2
(lp1381
V's
p1382
atp1383
Rp1384
(dp1385
g12
VPRP
p1386
sbatp1387
Rp1388
(dp1389
g12
VNP
p1390
sbag0
(g1
g2
(lp1391
g0
(g1
g2
(lp1392
Vsee
p1393
atp1394
Rp1395
(dp1396
g12
VVB
p1397
sbatp1398
Rp1399
(dp1400
g12
VVP
p1401
sbatp1402
Rp1403
(dp1404
g12
VS
p1405
sbatp1406
Rp1407
(dp1408
g12
VVP
p1409
sbag0
(g1
g2
(lp1410
V.
p1411
atp1412
Rp1413
(dp1414
g12
V.
p1415
sbatp1416
Rp1417
(dp1418
g12
VS
p1419
sbatp1420
Rp1421
(dp1422
g12
S'id: 5'
p1423
sbag0
(g1
g2
(lp1424
g0
(g1
g2
(lp1425
g0
(g1
g2
(lp1426
g0
(g1
g2
(lp1427
g0
(g1
g2
(lp1428
VBehind
p1429
atp1430
Rp1431
(dp1432
g12
VIN
p1433
sbag0
(g1
g2
(lp1434
g0
(g1
g2
(lp1435
Vmom
p1436
atp1437
Rp1438
(dp1439
g12
VNN
p1440
sbatp1441
Rp1442
(dp1443
g12
VNP
p1444
sbatp1445
Rp1446
(dp1447
g12
VPP
p1448
sbag0
(g1
g2
(lp1449
V,
p1450
atp1451
Rp1452
(dp1453
g12
V,
p1454
sbag0
(g1
g2
(lp1455
g0
(g1
g2
(lp1456
Vis
p1457
atp1458
Rp1459
(dp1460
g12
VVBZ
p1461
sbag0
(g1
g2
(lp1462
g0
(g1
g2
(lp1463
g0
(g1
g2
(lp1464
Vthe
p1465
atp1466
Rp1467
(dp1468
g12
VDT
p1469
sbatp1470
Rp1471
(dp1472
g12
VNP
p1473
sbag0
(g1
g2
(lp1474
V,
p1475
atp1476
Rp1477
(dp1478
g12
V,
p1479
sbag0
(g1
g2
(lp1480
g0
(g1
g2
(lp1481
Vtheir
p1482
atp1483
Rp1484
(dp1485
g12
VPRP$
p1486
sbag0
(g1
g2
(lp1487
Vson
p1488
atp1489
Rp1490
(dp1491
g12
VNN
p1492
sbatp1493
Rp1494
(dp1495
g12
VNP
p1496
sbag0
(g1
g2
(lp1497
V,
p1498
atp1499
Rp1500
(dp1501
g12
V,
p1502
sbag0
(g1
g2
(lp1503
g0
(g1
g2
(lp1504
g0
(g1
g2
(lp1505
Vwho
p1506
atp1507
Rp1508
(dp1509
g12
VWP
p1510
sbatp1511
Rp1512
(dp1513
g12
VWHNP
p1514
sbag0
(g1
g2
(lp1515
g0
(g1
g2
(lp1516
g0
(g1
g2
(lp1517
V's
p1518
atp1519
Rp1520
(dp1521
g12
VVBZ
p1522
sbag0
(g1
g2
(lp1523
g0
(g1
g2
(lp1524
Vflying
p1525
atp1526
Rp1527
(dp1528
g12
VVBG
p1529
sbag0
(g1
g2
(lp1530
g0
(g1
g2
(lp1531
Va
p1532
atp1533
Rp1534
(dp1535
g12
VDT
p1536
sbag0
(g1
g2
(lp1537
Vkite
p1538
atp1539
Rp1540
(dp1541
g12
VNN
p1542
sbatp1543
Rp1544
(dp1545
g12
VNP
p1546
sbatp1547
Rp1548
(dp1549
g12
VVP
p1550
sbatp1551
Rp1552
(dp1553
g12
VVP
p1554
sbatp1555
Rp1556
(dp1557
g12
VS
p1558
sbatp1559
Rp1560
(dp1561
g12
VSBAR
p1562
sbatp1563
Rp1564
(dp1565
g12
VNP
p1566
sbatp1567
Rp1568
(dp1569
g12
VVP
p1570
sbatp1571
Rp1572
(dp1573
g12
VS
p1574
sbag0
(g1
g2
(lp1575
V,
p1576
atp1577
Rp1578
(dp1579
g12
V,
p1580
sbag0
(g1
g2
(lp1581
Vand
p1582
atp1583
Rp1584
(dp1585
g12
VCC
p1586
sbag0
(g1
g2
(lp1587
g0
(g1
g2
(lp1588
g0
(g1
g2
(lp1589
Vhe
p1590
atp1591
Rp1592
(dp1593
g12
VPRP
p1594
sbatp1595
Rp1596
(dp1597
g12
VNP
p1598
sbag0
(g1
g2
(lp1599
g0
(g1
g2
(lp1600
V's
p1601
atp1602
Rp1603
(dp1604
g12
VVBZ
p1605
sbag0
(g1
g2
(lp1606
g0
(g1
g2
(lp1607
Vrunning
p1608
atp1609
Rp1610
(dp1611
g12
VVBG
p1612
sbag0
(g1
g2
(lp1613
g0
(g1
g2
(lp1614
Valong
p1615
atp1616
Rp1617
(dp1618
g12
VRB
p1619
sbatp1620
Rp1621
(dp1622
g12
VADVP
p1623
sbag0
(g1
g2
(lp1624
V,
p1625
atp1626
Rp1627
(dp1628
g12
V,
p1629
sbag0
(g1
g2
(lp1630
g0
(g1
g2
(lp1631
Vwith
p1632
atp1633
Rp1634
(dp1635
g12
VIN
p1636
sbag0
(g1
g2
(lp1637
g0
(g1
g2
(lp1638
g0
(g1
g2
(lp1639
Vthe
p1640
atp1641
Rp1642
(dp1643
g12
VDT
p1644
sbag0
(g1
g2
(lp1645
Vdog
p1646
atp1647
Rp1648
(dp1649
g12
VNN
p1650
sbatp1651
Rp1652
(dp1653
g12
VNP
p1654
sbag0
(g1
g2
(lp1655
g0
(g1
g2
(lp1656
Vchasing
p1657
atp1658
Rp1659
(dp1660
g12
VVBG
p1661
sbag0
(g1
g2
(lp1662
g0
(g1
g2
(lp1663
Vhim
p1664
atp1665
Rp1666
(dp1667
g12
VPRP
p1668
sbatp1669
Rp1670
(dp1671
g12
VNP
p1672
sbatp1673
Rp1674
(dp1675
g12
VVP
p1676
sbatp1677
Rp1678
(dp1679
g12
VNP
p1680
sbatp1681
Rp1682
(dp1683
g12
VPP
p1684
sbatp1685
Rp1686
(dp1687
g12
VVP
p1688
sbatp1689
Rp1690
(dp1691
g12
VVP
p1692
sbatp1693
Rp1694
(dp1695
g12
VS
p1696
sbag0
(g1
g2
(lp1697
V.
p1698
atp1699
Rp1700
(dp1701
g12
V.
p1702
sbatp1703
Rp1704
(dp1705
g12
VS
p1706
sbatp1707
Rp1708
(dp1709
g12
S'id: 6'
p1710
sbag0
(g1
g2
(lp1711
g0
(g1
g2
(lp1712
g0
(g1
g2
(lp1713
VAnd
p1714
atp1715
Rp1716
(dp1717
g12
VCC
p1718
sbag0
(g1
g2
(lp1719
g0
(g1
g2
(lp1720
Vthan
p1721
atp1722
Rp1723
(dp1724
g12
VIN
p1725
sbag0
(g1
g2
(lp1726
g0
(g1
g2
(lp1727
Va
p1728
atp1729
Rp1730
(dp1731
g12
VDT
p1732
sbag0
(g1
g2
(lp1733
Vlittle
p1734
atp1735
Rp1736
(dp1737
g12
VJJ
p1738
sbag0
(g1
g2
(lp1739
Vbit
p1740
atp1741
Rp1742
(dp1743
g12
VNN
p1744
sbatp1745
Rp1746
(dp1747
g12
VNP
p1748
sbatp1749
Rp1750
(dp1751
g12
VPP
p1752
sbag0
(g1
g2
(lp1753
g0
(g1
g2
(lp1754
Vfurther
p1755
atp1756
Rp1757
(dp1758
g12
VRBR
p1759
sbag0
(g1
g2
(lp1760
Vdown
p1761
atp1762
Rp1763
(dp1764
g12
VRB
p1765
sbatp1766
Rp1767
(dp1768
g12
VADVP
p1769
sbag0
(g1
g2
(lp1770
V,
p1771
atp1772
Rp1773
(dp1774
g12
V,
p1775
sbag0
(g1
g2
(lp1776
g0
(g1
g2
(lp1777
g0
(g1
g2
(lp1778
Vthe
p1779
atp1780
Rp1781
(dp1782
g12
VDT
p1783
sbatp1784
Rp1785
(dp1786
g12
VNP
p1787
sbag0
(g1
g2
(lp1788
V,
p1789
atp1790
Rp1791
(dp1792
g12
V,
p1793
sbag0
(g1
g2
(lp1794
g0
(g1
g2
(lp1795
Vbehind
p1796
atp1797
Rp1798
(dp1799
g12
VIN
p1800
sbag0
(g1
g2
(lp1801
g0
(g1
g2
(lp1802
Vthe
p1803
atp1804
Rp1805
(dp1806
g12
VDT
p1807
sbag0
(g1
g2
(lp1808
Vblanket
p1809
atp1810
Rp1811
(dp1812
g12
VNN
p1813
sbatp1814
Rp1815
(dp1816
g12
VNP
p1817
sbatp1818
Rp1819
(dp1820
g12
VPP
p1821
sbag0
(g1
g2
(lp1822
V,
p1823
atp1824
Rp1825
(dp1826
g12
V,
p1827
sbatp1828
Rp1829
(dp1830
g12
VNP
p1831
sbag0
(g1
g2
(lp1832
g0
(g1
g2
(lp1833
Vis
p1834
atp1835
Rp1836
(dp1837
g12
VVBZ
p1838
sbag0
(g1
g2
(lp1839
g0
(g1
g2
(lp1840
g0
(g1
g2
(lp1841
Vtheir
p1842
atp1843
Rp1844
(dp1845
g12
VPRP$
p1846
sbag0
(g1
g2
(lp1847
Vdaughter
p1848
atp1849
Rp1850
(dp1851
g12
VNN
p1852
sbatp1853
Rp1854
(dp1855
g12
VNP
p1856
sbag0
(g1
g2
(lp1857
V,
p1858
atp1859
Rp1860
(dp1861
g12
V,
p1862
sbag0
(g1
g2
(lp1863
g0
(g1
g2
(lp1864
Vin
p1865
atp1866
Rp1867
(dp1868
g12
VIN
p1869
sbag0
(g1
g2
(lp1870
g0
(g1
g2
(lp1871
Vthe
p1872
atp1873
Rp1874
(dp1875
g12
VDT
p1876
sbag0
(g1
g2
(lp1877
Vsand
p1878
atp1879
Rp1880
(dp1881
g12
VNN
p1882
sbatp1883
Rp1884
(dp1885
g12
VNP
p1886
sbatp1887
Rp1888
(dp1889
g12
VPP
p1890
sbag0
(g1
g2
(lp1891
V,
p1892
atp1893
Rp1894
(dp1895
g12
V,
p1896
sbag0
(g1
g2
(lp1897
g0
(g1
g2
(lp1898
Vbuilding
p1899
atp1900
Rp1901
(dp1902
g12
VVBG
p1903
sbag0
(g1
g2
(lp1904
g0
(g1
g2
(lp1905
Va
p1906
atp1907
Rp1908
(dp1909
g12
VDT
p1910
sbag0
(g1
g2
(lp1911
Vsandcastle
p1912
atp1913
Rp1914
(dp1915
g12
VNN
p1916
sbatp1917
Rp1918
(dp1919
g12
VNP
p1920
sbatp1921
Rp1922
(dp1923
g12
VVP
p1924
sbatp1925
Rp1926
(dp1927
g12
VNP
p1928
sbatp1929
Rp1930
(dp1931
g12
VVP
p1932
sbag0
(g1
g2
(lp1933
V.
p1934
atp1935
Rp1936
(dp1937
g12
V.
p1938
sbatp1939
Rp1940
(dp1941
g12
VS
p1942
sbatp1943
Rp1944
(dp1945
g12
S'id: 7'
p1946
sbag0
(g1
g2
(lp1947
g0
(g1
g2
(lp1948
g0
(g1
g2
(lp1949
VAnd
p1950
atp1951
Rp1952
(dp1953
g12
VCC
p1954
sbag0
(g1
g2
(lp1955
g0
(g1
g2
(lp1956
Vshe
p1957
atp1958
Rp1959
(dp1960
g12
VPRP
p1961
sbatp1962
Rp1963
(dp1964
g12
VNP
p1965
sbag0
(g1
g2
(lp1966
g0
(g1
g2
(lp1967
Vhas
p1968
atp1969
Rp1970
(dp1971
g12
VVBZ
p1972
sbag0
(g1
g2
(lp1973
g0
(g1
g2
(lp1974
g0
(g1
g2
(lp1975
Va
p1976
atp1977
Rp1978
(dp1979
g12
VDT
p1980
sbag0
(g1
g2
(lp1981
Vbucket
p1982
atp1983
Rp1984
(dp1985
g12
VNN
p1986
sbatp1987
Rp1988
(dp1989
g12
VNP
p1990
sbag0
(g1
g2
(lp1991
Vand
p1992
atp1993
Rp1994
(dp1995
g12
VCC
p1996
sbag0
(g1
g2
(lp1997
g0
(g1
g2
(lp1998
Va
p1999
atp2000
Rp2001
(dp2002
g12
VDT
p2003
sbag0
(g1
g2
(lp2004
Vshovel
p2005
atp2006
Rp2007
(dp2008
g12
VNN
p2009
sbag0
(g1
g2
(lp2010
g0
(g1
g2
(lp2011
g0
(g1
g2
(lp2012
Vto
p2013
atp2014
Rp2015
(dp2016
g12
VTO
p2017
sbag0
(g1
g2
(lp2018
g0
(g1
g2
(lp2019
Vhelp
p2020
atp2021
Rp2022
(dp2023
g12
VVB
p2024
sbag0
(g1
g2
(lp2025
g0
(g1
g2
(lp2026
g0
(g1
g2
(lp2027
Vher
p2028
atp2029
Rp2030
(dp2031
g12
VPRP$
p2032
sbatp2033
Rp2034
(dp2035
g12
VNP
p2036
sbag0
(g1
g2
(lp2037
g0
(g1
g2
(lp2038
Vbuild
p2039
atp2040
Rp2041
(dp2042
g12
VVB
p2043
sbag0
(g1
g2
(lp2044
g0
(g1
g2
(lp2045
Vthe
p2046
atp2047
Rp2048
(dp2049
g12
VDT
p2050
sbag0
(g1
g2
(lp2051
Vsandcastle
p2052
atp2053
Rp2054
(dp2055
g12
VNN
p2056
sbatp2057
Rp2058
(dp2059
g12
VNP
p2060
sbatp2061
Rp2062
(dp2063
g12
VVP
p2064
sbatp2065
Rp2066
(dp2067
g12
VS
p2068
sbatp2069
Rp2070
(dp2071
g12
VVP
p2072
sbatp2073
Rp2074
(dp2075
g12
VVP
p2076
sbatp2077
Rp2078
(dp2079
g12
VS
p2080
sbatp2081
Rp2082
(dp2083
g12
VNP
p2084
sbatp2085
Rp2086
(dp2087
g12
VNP
p2088
sbatp2089
Rp2090
(dp2091
g12
VVP
p2092
sbag0
(g1
g2
(lp2093
V.
p2094
atp2095
Rp2096
(dp2097
g12
V.
p2098
sbatp2099
Rp2100
(dp2101
g12
VS
p2102
sbatp2103
Rp2104
(dp2105
g12
S'id: 8'
p2106
sbag0
(g1
g2
(lp2107
g0
(g1
g2
(lp2108
g0
(g1
g2
(lp2109
VAnd
p2110
atp2111
Rp2112
(dp2113
g12
VCC
p2114
sbag0
(g1
g2
(lp2115
g0
(g1
g2
(lp2116
Vthen
p2117
atp2118
Rp2119
(dp2120
g12
VRB
p2121
sbatp2122
Rp2123
(dp2124
g12
VADVP
p2125
sbag0
(g1
g2
(lp2126
g0
(g1
g2
(lp2127
Vout
p2128
atp2129
Rp2130
(dp2131
g12
VIN
p2132
sbag0
(g1
g2
(lp2133
g0
(g1
g2
(lp2134
Vbehind
p2135
atp2136
Rp2137
(dp2138
g12
VIN
p2139
sbag0
(g1
g2
(lp2140
g0
(g1
g2
(lp2141
Vthe
p2142
atp2143
Rp2144
(dp2145
g12
VDT
p2146
sbag0
(g1
g2
(lp2147
Vgirl
p2148
atp2149
Rp2150
(dp2151
g12
VNN
p2152
sbatp2153
Rp2154
(dp2155
g12
VNP
p2156
sbatp2157
Rp2158
(dp2159
g12
VPP
p2160
sbatp2161
Rp2162
(dp2163
g12
VPP
p2164
sbag0
(g1
g2
(lp2165
g0
(g1
g2
(lp2166
V,
p2167
atp2168
Rp2169
(dp2170
g12
V,
p2171
sbag0
(g1
g2
(lp2172
g0
(g1
g2
(lp2173
Vinto
p2174
atp2175
Rp2176
(dp2177
g12
VIN
p2178
sbag0
(g1
g2
(lp2179
g0
(g1
g2
(lp2180
g0
(g1
g2
(lp2181
Vthe
p2182
atp2183
Rp2184
(dp2185
g12
VDT
p2186
sbag0
(g1
g2
(lp2187
Vbay
p2188
atp2189
Rp2190
(dp2191
g12
VNN
p2192
sbatp2193
Rp2194
(dp2195
g12
VNP
p2196
sbag0
(g1
g2
(lp2197
V,
p2198
atp2199
Rp2200
(dp2201
g12
V,
p2202
sbag0
(g1
g2
(lp2203
Vor
p2204
atp2205
Rp2206
(dp2207
g12
VCC
p2208
sbag0
(g1
g2
(lp2209
g0
(g1
g2
(lp2210
Vocean
p2211
atp2212
Rp2213
(dp2214
g12
VNN
p2215
sbatp2216
Rp2217
(dp2218
g12
VNP
p2219
sbatp2220
Rp2221
(dp2222
g12
VNP
p2223
sbatp2224
Rp2225
(dp2226
g12
VPP
p2227
sbag0
(g1
g2
(lp2228
V,
p2229
atp2230
Rp2231
(dp2232
g12
V,
p2233
sbatp2234
Rp2235
(dp2236
g12
VPRN
p2237
sbag0
(g1
g2
(lp2238
g0
(g1
g2
(lp2239
Vis
p2240
atp2241
Rp2242
(dp2243
g12
VVBZ
p2244
sbatp2245
Rp2246
(dp2247
g12
VVP
p2248
sbag0
(g1
g2
(lp2249
g0
(g1
g2
(lp2250
g0
(g1
g2
(lp2251
Va
p2252
atp2253
Rp2254
(dp2255
g12
VDT
p2256
sbag0
(g1
g2
(lp2257
Vsailboat
p2258
atp2259
Rp2260
(dp2261
g12
VNN
p2262
sbatp2263
Rp2264
(dp2265
g12
VNP
p2266
sbag0
(g1
g2
(lp2267
V,
p2268
atp2269
Rp2270
(dp2271
g12
V,
p2272
sbag0
(g1
g2
(lp2273
g0
(g1
g2
(lp2274
g0
(g1
g2
(lp2275
Vnumber
p2276
atp2277
Rp2278
(dp2279
g12
VNN
p2280
sbatp2281
Rp2282
(dp2283
g12
VNP
p2284
sbag0
(g1
g2
(lp2285
g0
(g1
g2
(lp2286
Vfour
p2287
atp2288
Rp2289
(dp2290
g12
VCD
p2291
sbag0
(g1
g2
(lp2292
Vseventy
p2293
atp2294
Rp2295
(dp2296
g12
VCD
p2297
sbatp2298
Rp2299
(dp2300
g12
VNP
p2301
sbatp2302
Rp2303
(dp2304
g12
VNP
p2305
sbatp2306
Rp2307
(dp2308
g12
VNP
p2309
sbag0
(g1
g2
(lp2310
V,
p2311
atp2312
Rp2313
(dp2314
g12
V,
p2315
sbag0
(g1
g2
(lp2316
g0
(g1
g2
(lp2317
Vwith
p2318
atp2319
Rp2320
(dp2321
g12
VIN
p2322
sbag0
(g1
g2
(lp2323
g0
(g1
g2
(lp2324
g0
(g1
g2
(lp2325
g0
(g1
g2
(lp2326
Vone
p2327
atp2328
Rp2329
(dp2330
g12
VCD
p2331
sbag0
(g1
g2
(lp2332
Vperson
p2333
atp2334
Rp2335
(dp2336
g12
VNN
p2337
sbatp2338
Rp2339
(dp2340
g12
VNP
p2341
sbag0
(g1
g2
(lp2342
g0
(g1
g2
(lp2343
Vwaving
p2344
atp2345
Rp2346
(dp2347
g12
VVBG
p2348
sbatp2349
Rp2350
(dp2351
g12
VVP
p2352
sbatp2353
Rp2354
(dp2355
g12
VNP
p2356
sbag0
(g1
g2
(lp2357
Vand
p2358
atp2359
Rp2360
(dp2361
g12
VCC
p2362
sbag0
(g1
g2
(lp2363
g0
(g1
g2
(lp2364
g0
(g1
g2
(lp2365
Vthe
p2366
atp2367
Rp2368
(dp2369
g12
VDT
p2370
sbag0
(g1
g2
(lp2371
Vother
p2372
atp2373
Rp2374
(dp2375
g12
VJJ
p2376
sbag0
(g1
g2
(lp2377
Vperson
p2378
atp2379
Rp2380
(dp2381
g12
VNN
p2382
sbatp2383
Rp2384
(dp2385
g12
VNP
p2386
sbag0
(g1
g2
(lp2387
g0
(g1
g2
(lp2388
Vsteering
p2389
atp2390
Rp2391
(dp2392
g12
VVBG
p2393
sbag0
(g1
g2
(lp2394
g0
(g1
g2
(lp2395
Vthe
p2396
atp2397
Rp2398
(dp2399
g12
VDT
p2400
sbag0
(g1
g2
(lp2401
Vrudder
p2402
atp2403
Rp2404
(dp2405
g12
VNN
p2406
sbatp2407
Rp2408
(dp2409
g12
VNP
p2410
sbatp2411
Rp2412
(dp2413
g12
VVP
p2414
sbatp2415
Rp2416
(dp2417
g12
VNP
p2418
sbatp2419
Rp2420
(dp2421
g12
VNP
p2422
sbatp2423
Rp2424
(dp2425
g12
VPP
p2426
sbag0
(g1
g2
(lp2427
V.
p2428
atp2429
Rp2430
(dp2431
g12
V.
p2432
sbatp2433
Rp2434
(dp2435
g12
VSINV
p2436
sbatp2437
Rp2438
(dp2439
g12
S'id: 9'
p2440
sbag0
(g1
g2
(lp2441
g0
(g1
g2
(lp2442
g0
(g1
g2
(lp2443
g0
(g1
g2
(lp2444
VDown
p2445
atp2446
Rp2447
(dp2448
g12
VIN
p2449
sbag0
(g1
g2
(lp2450
g0
(g1
g2
(lp2451
Vfurther
p2452
atp2453
Rp2454
(dp2455
g12
VRB
p2456
sbatp2457
Rp2458
(dp2459
g12
VADVP
p2460
sbatp2461
Rp2462
(dp2463
g12
VPP
p2464
sbag0
(g1
g2
(lp2465
g0
(g1
g2
(lp2466
Vfrom
p2467
atp2468
Rp2469
(dp2470
g12
VIN
p2471
sbag0
(g1
g2
(lp2472
g0
(g1
g2
(lp2473
Vthe
p2474
atp2475
Rp2476
(dp2477
g12
VDT
p2478
sbag0
(g1
g2
(lp2479
Vgirl
p2480
atp2481
Rp2482
(dp2483
g12
VNN
p2484
sbatp2485
Rp2486
(dp2487
g12
VNP
p2488
sbatp2489
Rp2490
(dp2491
g12
VPP
p2492
sbag0
(g1
g2
(lp2493
V,
p2494
atp2495
Rp2496
(dp2497
g12
V,
p2498
sbag0
(g1
g2
(lp2499
g0
(g1
g2
(lp2500
Vis
p2501
atp2502
Rp2503
(dp2504
g12
VVBZ
p2505
sbag0
(g1
g2
(lp2506
g0
(g1
g2
(lp2507
Va
p2508
atp2509
Rp2510
(dp2511
g12
VDT
p2512
sbag0
(g1
g2
(lp2513
Vdock
p2514
atp2515
Rp2516
(dp2517
g12
VNN
p2518
sbatp2519
Rp2520
(dp2521
g12
VNP
p2522
sbatp2523
Rp2524
(dp2525
g12
VVP
p2526
sbag0
(g1
g2
(lp2527
V.
p2528
atp2529
Rp2530
(dp2531
g12
V.
p2532
sbatp2533
Rp2534
(dp2535
g12
VS
p2536
sbatp2537
Rp2538
(dp2539
g12
S'id: 10'
p2540
sbag0
(g1
g2
(lp2541
g0
(g1
g2
(lp2542
g0
(g1
g2
(lp2543
VAnd
p2544
atp2545
Rp2546
(dp2547
g12
VCC
p2548
sbag0
(g1
g2
(lp2549
g0
(g1
g2
(lp2550
g0
(g1
g2
(lp2551
Vthere
p2552
atp2553
Rp2554
(dp2555
g12
VEX
p2556
sbatp2557
Rp2558
(dp2559
g12
VNP
p2560
sbag0
(g1
g2
(lp2561
g0
(g1
g2
(lp2562
V's
p2563
atp2564
Rp2565
(dp2566
g12
VVBZ
p2567
sbag0
(g1
g2
(lp2568
g0
(g1
g2
(lp2569
g0
(g1
g2
(lp2570
Va
p2571
atp2572
Rp2573
(dp2574
g12
VDT
p2575
sbag0
(g1
g2
(lp2576
Vman
p2577
atp2578
Rp2579
(dp2580
g12
VNN
p2581
sbatp2582
Rp2583
(dp2584
g12
VNP
p2585
sbag0
(g1
g2
(lp2586
g0
(g1
g2
(lp2587
Von
p2588
atp2589
Rp2590
(dp2591
g12
VIN
p2592
sbag0
(g1
g2
(lp2593
g0
(g1
g2
(lp2594
Vthat
p2595
atp2596
Rp2597
(dp2598
g12
VDT
p2599
sbag0
(g1
g2
(lp2600
Vdock
p2601
atp2602
Rp2603
(dp2604
g12
VNN
p2605
sbatp2606
Rp2607
(dp2608
g12
VNP
p2609
sbatp2610
Rp2611
(dp2612
g12
VPP
p2613
sbatp2614
Rp2615
(dp2616
g12
VNP
p2617
sbatp2618
Rp2619
(dp2620
g12
VVP
p2621
sbatp2622
Rp2623
(dp2624
g12
VS
p2625
sbag0
(g1
g2
(lp2626
g0
(g1
g2
(lp2627
V,
p2628
atp2629
Rp2630
(dp2631
g12
V,
p2632
sbag0
(g1
g2
(lp2633
g0
(g1
g2
(lp2634
g0
(g1
g2
(lp2635
VI
p2636
atp2637
Rp2638
(dp2639
g12
VPRP
p2640
sbatp2641
Rp2642
(dp2643
g12
VNP
p2644
sbag0
(g1
g2
(lp2645
g0
(g1
g2
(lp2646
Vdo
p2647
atp2648
Rp2649
(dp2650
g12
VVBP
p2651
sbag0
(g1
g2
(lp2652
Vn't
p2653
atp2654
Rp2655
(dp2656
g12
VRB
p2657
sbag0
(g1
g2
(lp2658
g0
(g1
g2
(lp2659
Vknow
p2660
atp2661
Rp2662
(dp2663
g12
VVB
p2664
sbag0
(g1
g2
(lp2665
g0
(g1
g2
(lp2666
Vwhether
p2667
atp2668
Rp2669
(dp2670
g12
VIN
p2671
sbag0
(g1
g2
(lp2672
g0
(g1
g2
(lp2673
g0
(g1
g2
(lp2674
Vhe
p2675
atp2676
Rp2677
(dp2678
g12
VPRP
p2679
sbatp2680
Rp2681
(dp2682
g12
VNP
p2683
sbag0
(g1
g2
(lp2684
g0
(g1
g2
(lp2685
V's
p2686
atp2687
Rp2688
(dp2689
g12
VVBZ
p2690
sbag0
(g1
g2
(lp2691
g0
(g1
g2
(lp2692
Vrelated
p2693
atp2694
Rp2695
(dp2696
g12
VJJ
p2697
sbatp2698
Rp2699
(dp2700
g12
VADJP
p2701
sbatp2702
Rp2703
(dp2704
g12
VVP
p2705
sbatp2706
Rp2707
(dp2708
g12
VS
p2709
sbag0
(g1
g2
(lp2710
Vor
p2711
atp2712
Rp2713
(dp2714
g12
VCC
p2715
sbag0
(g1
g2
(lp2716
Vnot
p2717
atp2718
Rp2719
(dp2720
g12
VRB
p2721
sbatp2722
Rp2723
(dp2724
g12
VSBAR
p2725
sbatp2726
Rp2727
(dp2728
g12
VVP
p2729
sbatp2730
Rp2731
(dp2732
g12
VVP
p2733
sbatp2734
Rp2735
(dp2736
g12
VS
p2737
sbag0
(g1
g2
(lp2738
V,
p2739
atp2740
Rp2741
(dp2742
g12
V,
p2743
sbatp2744
Rp2745
(dp2746
g12
VPRN
p2747
sbag0
(g1
g2
(lp2748
Vand
p2749
atp2750
Rp2751
(dp2752
g12
VCC
p2753
sbag0
(g1
g2
(lp2754
g0
(g1
g2
(lp2755
g0
(g1
g2
(lp2756
Vhe
p2757
atp2758
Rp2759
(dp2760
g12
VPRP
p2761
sbatp2762
Rp2763
(dp2764
g12
VNP
p2765
sbag0
(g1
g2
(lp2766
g0
(g1
g2
(lp2767
Vjust
p2768
atp2769
Rp2770
(dp2771
g12
VRB
p2772
sbatp2773
Rp2774
(dp2775
g12
VADVP
p2776
sbag0
(g1
g2
(lp2777
g0
(g1
g2
(lp2778
Vcaught
p2779
atp2780
Rp2781
(dp2782
g12
VVBD
p2783
sbag0
(g1
g2
(lp2784
g0
(g1
g2
(lp2785
g0
(g1
g2
(lp2786
Va
p2787
atp2788
Rp2789
(dp2790
g12
VDT
p2791
sbag0
(g1
g2
(lp2792
Vfish
p2793
atp2794
Rp2795
(dp2796
g12
VNN
p2797
sbatp2798
Rp2799
(dp2800
g12
VNP
p2801
sbag0
(g1
g2
(lp2802
g0
(g1
g2
(lp2803
g0
(g1
g2
(lp2804
Vthat
p2805
atp2806
Rp2807
(dp2808
g12
VWDT
p2809
sbatp2810
Rp2811
(dp2812
g12
VWHNP
p2813
sbag0
(g1
g2
(lp2814
g0
(g1
g2
(lp2815
g0
(g1
g2
(lp2816
Vjumped
p2817
atp2818
Rp2819
(dp2820
g12
VVBD
p2821
sbag0
(g1
g2
(lp2822
g0
(g1
g2
(lp2823
Vout
p2824
atp2825
Rp2826
(dp2827
g12
VIN
p2828
sbatp2829
Rp2830
(dp2831
g12
VPRT
p2832
sbag0
(g1
g2
(lp2833
g0
(g1
g2
(lp2834
Vof
p2835
atp2836
Rp2837
(dp2838
g12
VIN
p2839
sbag0
(g1
g2
(lp2840
g0
(g1
g2
(lp2841
Vthe
p2842
atp2843
Rp2844
(dp2845
g12
VDT
p2846
sbag0
(g1
g2
(lp2847
Vwater
p2848
atp2849
Rp2850
(dp2851
g12
VNN
p2852
sbatp2853
Rp2854
(dp2855
g12
VNP
p2856
sbatp2857
Rp2858
(dp2859
g12
VPP
p2860
sbatp2861
Rp2862
(dp2863
g12
VVP
p2864
sbatp2865
Rp2866
(dp2867
g12
VS
p2868
sbatp2869
Rp2870
(dp2871
g12
VSBAR
p2872
sbatp2873
Rp2874
(dp2875
g12
VNP
p2876
sbatp2877
Rp2878
(dp2879
g12
VVP
p2880
sbatp2881
Rp2882
(dp2883
g12
VS
p2884
sbag0
(g1
g2
(lp2885
V.
p2886
atp2887
Rp2888
(dp2889
g12
V.
p2890
sbatp2891
Rp2892
(dp2893
g12
VS
p2894
sbatp2895
Rp2896
(dp2897
g12
S'id: 11'
p2898
sbag0
(g1
g2
(lp2899
g0
(g1
g2
(lp2900
g0
(g1
g2
(lp2901
VAnd
p2902
atp2903
Rp2904
(dp2905
g12
VCC
p2906
sbag0
(g1
g2
(lp2907
g0
(g1
g2
(lp2908
Vhe
p2909
atp2910
Rp2911
(dp2912
g12
VPRP
p2913
sbatp2914
Rp2915
(dp2916
g12
VNP
p2917
sbag0
(g1
g2
(lp2918
g0
(g1
g2
(lp2919
V's
p2920
atp2921
Rp2922
(dp2923
g12
VVBZ
p2924
sbag0
(g1
g2
(lp2925
g0
(g1
g2
(lp2926
Vgot
p2927
atp2928
Rp2929
(dp2930
g12
VVBD
p2931
sbag0
(g1
g2
(lp2932
g0
(g1
g2
(lp2933
Va
p2934
atp2935
Rp2936
(dp2937
g12
VDT
p2938
sbatp2939
Rp2940
(dp2941
g12
VNP
p2942
sbatp2943
Rp2944
(dp2945
g12
VVP
p2946
sbatp2947
Rp2948
(dp2949
g12
VVP
p2950
sbatp2951
Rp2952
(dp2953
g12
VS
p2954
sbatp2955
Rp2956
(dp2957
g12
S'id: 12'
p2958
sbatp2959
Rp2960
(dp2961
g12
S'sentences'
p2962
sb.