ccopy_reg
_reconstructor
p0
(cnltk.tree
Tree
p1
c__builtin__
list
p2
(lp3
g0
(g1
g2
(lp4
g0
(g1
g2
(lp5
g0
(g1
g2
(lp6
g0
(g1
g2
(lp7
g0
(g1
g2
(lp8
(lp9
S'word: the, index: 1'
p10
aatp11
Rp12
(dp13
S'_label'
p14
Vdet
p15
sbatp16
Rp17
(dp18
g14
S'word: boil, index: 2'
p19
sbatp20
Rp21
(dp22
g14
Vnsubj
p23
sbag0
(g1
g2
(lp24
(lp25
S'word: was, index: 3'
p26
aatp27
Rp28
(dp29
g14
Vaux
p30
sbag0
(g1
g2
(lp31
g0
(g1
g2
(lp32
g0
(g1
g2
(lp33
(lp34
S'word: a, index: 5'
p35
aatp36
Rp37
(dp38
g14
Vdet
p39
sbatp40
Rp41
(dp42
g14
S'word: kite, index: 6'
p43
sbatp44
Rp45
(dp46
g14
Vdobj
p47
sbatp48
Rp49
(dp50
g14
S'word: following, index: 4'
p51
sbatp52
Rp53
(dp54
g14
S'id: 0'
p55
sbag0
(g1
g2
(lp56
g0
(g1
g2
(lp57
g0
(g1
g2
(lp58
g0
(g1
g2
(lp59
g0
(g1
g2
(lp60
(lp61
S'word: the, index: 1'
p62
aatp63
Rp64
(dp65
g14
Vdet
p66
sbag0
(g1
g2
(lp67
(lp68
S'word: thay, index: 2'
p69
aatp70
Rp71
(dp72
g14
Vnn
p73
sbatp74
Rp75
(dp76
g14
S'word: dog, index: 3'
p77
sbatp78
Rp79
(dp80
g14
Vnsubj
p81
sbag0
(g1
g2
(lp82
(lp83
S'word: was, index: 4'
p84
aatp85
Rp86
(dp87
g14
Vaux
p88
sbag0
(g1
g2
(lp89
(lp90
S'word: around, index: 6'
p91
aatp92
Rp93
(dp94
g14
Vadvmod
p95
sbatp96
Rp97
(dp98
g14
S'word: running, index: 5'
p99
sbatp100
Rp101
(dp102
g14
S'id: 1'
p103
sbag0
(g1
g2
(lp104
g0
(g1
g2
(lp105
g0
(g1
g2
(lp106
g0
(g1
g2
(lp107
g0
(g1
g2
(lp108
(lp109
S'word: the, index: 1'
p110
aatp111
Rp112
(dp113
g14
Vdet
p114
sbatp115
Rp116
(dp117
g14
S'word: girl, index: 2'
p118
sbatp119
Rp120
(dp121
g14
Vnsubj
p122
sbag0
(g1
g2
(lp123
g0
(g1
g2
(lp124
g0
(g1
g2
(lp125
g0
(g1
g2
(lp126
g0
(g1
g2
(lp127
(lp128
S'word: a, index: 6'
p129
aatp130
Rp131
(dp132
g14
Vdet
p133
sbatp134
Rp135
(dp136
g14
S'word: castle, index: 7'
p137
sbatp138
Rp139
(dp140
g14
Vdobj
p141
sbag0
(g1
g2
(lp142
(lp143
S'word: was, index: 4'
p144
aatp145
Rp146
(dp147
g14
Vaux
p148
sbatp149
Rp150
(dp151
g14
S'word: planning, index: 5'
p152
sbatp153
Rp154
(dp155
g14
Vccomp
p156
sbatp157
Rp158
(dp159
g14
S'word: piled, index: 3'
p160
sbatp161
Rp162
(dp163
g14
S'id: 2'
p164
sbag0
(g1
g2
(lp165
g0
(g1
g2
(lp166
g0
(g1
g2
(lp167
g0
(g1
g2
(lp168
g0
(g1
g2
(lp169
(lp170
S'word: won, index: 12'
p171
aatp172
Rp173
(dp174
g14
Vvmod
p175
sbag0
(g1
g2
(lp176
(lp177
S'word: wine, index: 14'
p178
aatp179
Rp180
(dp181
g14
Vappos
p182
sbatp183
Rp184
(dp185
g14
S'word: wah, index: 10'
p186
sbatp187
Rp188
(dp189
g14
Vdobj
p190
sbag0
(g1
g2
(lp191
g0
(g1
g2
(lp192
g0
(g1
g2
(lp193
g0
(g1
g2
(lp194
g0
(g1
g2
(lp195
(lp196
S'word: the, index: 1'
p197
aatp198
Rp199
(dp200
g14
Vdet
p201
sbatp202
Rp203
(dp204
g14
S'word: woman, index: 2'
p205
sbatp206
Rp207
(dp208
g14
Vnsubj
p209
sbag0
(g1
g2
(lp210
(lp211
S'word: was, index: 3'
p212
aatp213
Rp214
(dp215
g14
Vaux
p216
sbag0
(g1
g2
(lp217
g0
(g1
g2
(lp218
g0
(g1
g2
(lp219
(lp220
S'word: a, index: 5'
p221
aatp222
Rp223
(dp224
g14
Vdet
p225
sbatp226
Rp227
(dp228
g14
S'word: glass, index: 6'
p229
sbatp230
Rp231
(dp232
g14
Vdobj
p233
sbatp234
Rp235
(dp236
g14
S'word: pouring, index: 4'
p237
sbatp238
Rp239
(dp240
g14
Vccomp
p241
sbag0
(g1
g2
(lp242
(lp243
S'word: I, index: 8'
p244
aatp245
Rp246
(dp247
g14
Vnsubj
p248
sbatp249
Rp250
(dp251
g14
S'word: think, index: 9'
p252
sbatp253
Rp254
(dp255
g14
S'id: 3'
p256
sbag0
(g1
g2
(lp257
g0
(g1
g2
(lp258
g0
(g1
g2
(lp259
(lp260
S'word: off, index: 15'
p261
aatp262
Rp263
(dp264
g14
Vadvmod
p265
sbag0
(g1
g2
(lp266
g0
(g1
g2
(lp267
g0
(g1
g2
(lp268
(lp269
S'word: the, index: 1'
p270
aatp271
Rp272
(dp273
g14
Vdet
p274
sbatp275
Rp276
(dp277
g14
S'word: man, index: 2'
p278
sbatp279
Rp280
(dp281
g14
Vnsubj
p282
sbag0
(g1
g2
(lp283
(lp284
S'word: was, index: 3'
p285
aatp286
Rp287
(dp288
g14
Vaux
p289
sbag0
(g1
g2
(lp290
g0
(g1
g2
(lp291
g0
(g1
g2
(lp292
g0
(g1
g2
(lp293
g0
(g1
g2
(lp294
(lp295
S'word: his, index: 13'
p296
aatp297
Rp298
(dp299
g14
Vposs
p300
sbatp301
Rp302
(dp303
g14
S'word: shoes, index: 14'
p304
sbatp305
Rp306
(dp307
g14
Vprep
p308
sbag0
(g1
g2
(lp309
g0
(g1
g2
(lp310
g0
(g1
g2
(lp311
(lp312
S'word: unloud, index: 5'
p313
aatp314
Rp315
(dp316
g14
Vamod
p317
sbag0
(g1
g2
(lp318
g0
(g1
g2
(lp319
g0
(g1
g2
(lp320
(lp321
S'word: no, index: 9'
p322
aatp323
Rp324
(dp325
g14
Vdep
p326
sbatp327
Rp328
(dp329
g14
S'word: unloud, index: 8'
p330
sbatp331
Rp332
(dp333
g14
Vamod
p334
sbatp335
Rp336
(dp337
g14
S'word: won, index: 6'
p338
sbatp339
Rp340
(dp341
g14
Vnsubj
p342
sbatp343
Rp344
(dp345
g14
S'word: silently, index: 11'
p346
sbatp347
Rp348
(dp349
g14
Vxcomp
p350
sbatp351
Rp352
(dp353
g14
S'word: winning, index: 4'
p354
sbatp355
Rp356
(dp357
g14
S'id: 4'
p358
sbag0
(g1
g2
(lp359
g0
(g1
g2
(lp360
g0
(g1
g2
(lp361
g0
(g1
g2
(lp362
g0
(g1
g2
(lp363
(lp364
S'word: the, index: 1'
p365
aatp366
Rp367
(dp368
g14
Vdet
p369
sbag0
(g1
g2
(lp370
(lp371
S'word: fedded, index: 2'
p372
aatp373
Rp374
(dp375
g14
Vamod
p376
sbag0
(g1
g2
(lp377
g0
(g1
g2
(lp378
g0
(g1
g2
(lp379
(lp380
S'word: the, index: 5'
p381
aatp382
Rp383
(dp384
g14
Vdet
p385
sbag0
(g1
g2
(lp386
(lp387
S'word: fedded, index: 6'
p388
aatp389
Rp390
(dp391
g14
Vamod
p392
sbag0
(g1
g2
(lp393
(lp394
S'word: feds, index: 9'
p395
aatp396
Rp397
(dp398
g14
Vappos
p399
sbatp400
Rp401
(dp402
g14
S'word: fum, index: 7'
p403
sbatp404
Rp405
(dp406
g14
Vappos
p407
sbatp408
Rp409
(dp410
g14
S'word: du, index: 3'
p411
sbatp412
Rp413
(dp414
g14
Vnsubj
p415
sbag0
(g1
g2
(lp416
g0
(g1
g2
(lp417
g0
(g1
g2
(lp418
(lp419
S'word: a, index: 11'
p420
aatp421
Rp422
(dp423
g14
Vnsubj
p424
sbatp425
Rp426
(dp427
g14
S'word: flounder, index: 12'
p428
sbatp429
Rp430
(dp431
g14
Vccomp
p432
sbatp433
Rp434
(dp435
g14
S'word: caught, index: 10'
p436
sbatp437
Rp438
(dp439
g14
S'id: 5'
p440
sbatp441
Rp442
(dp443
g14
S'sentences'
p444
sb.