ccopy_reg
_reconstructor
p0
(cnltk.tree
Tree
p1
c__builtin__
list
p2
(lp3
g0
(g1
g2
(lp4
g0
(g1
g2
(lp5
g0
(g1
g2
(lp6
g0
(g1
g2
(lp7
g0
(g1
g2
(lp8
(lp9
S'word: that, index: 2'
p10
aatp11
Rp12
(dp13
S'_label'
p14
Vnsubj
p15
sbag0
(g1
g2
(lp16
(lp17
S'word: is, index: 3'
p18
aatp19
Rp20
(dp21
g14
Vcop
p22
sbag0
(g1
g2
(lp23
(lp24
S'word: a, index: 4'
p25
aatp26
Rp27
(dp28
g14
Vdet
p29
sbag0
(g1
g2
(lp30
(lp31
S'word: big, index: 5'
p32
aatp33
Rp34
(dp35
g14
Vamod
p36
sbatp37
Rp38
(dp39
g14
S'word: one, index: 6'
p40
sbatp41
Rp42
(dp43
g14
Vrcmod
p44
sbatp45
Rp46
(dp47
g14
S'word: ok, index: 1'
p48
sbatp49
Rp50
(dp51
g14
S'id: 0'
p52
sbag0
(g1
g2
(lp53
tp54
Rp55
(dp56
g14
S'id: 1'
p57
sbag0
(g1
g2
(lp58
g0
(g1
g2
(lp59
g0
(g1
g2
(lp60
(lp61
S'word: are, index: 6'
p62
aatp63
Rp64
(dp65
g14
Vaux
p66
sbag0
(g1
g2
(lp67
(lp68
S'word: outside, index: 7'
p69
aatp70
Rp71
(dp72
g14
Vadvmod
p73
sbag0
(g1
g2
(lp74
(lp75
S'word: food, index: 9'
p76
aatp77
Rp78
(dp79
g14
Vdobj
p80
sbag0
(g1
g2
(lp81
(lp82
S'word: outside, index: 11'
p83
aatp84
Rp85
(dp86
g14
Vadvmod
p87
sbag0
(g1
g2
(lp88
g0
(g1
g2
(lp89
g0
(g1
g2
(lp90
(lp91
S'word: they, index: 13'
p92
aatp93
Rp94
(dp95
g14
Vnsubj
p96
sbag0
(g1
g2
(lp97
g0
(g1
g2
(lp98
g0
(g1
g2
(lp99
(lp100
S'word: the, index: 15'
p101
aatp102
Rp103
(dp104
g14
Vdet
p105
sbatp106
Rp107
(dp108
g14
S'word: little, index: 16'
p109
sbatp110
Rp111
(dp112
g14
Vdobj
p113
sbag0
(g1
g2
(lp114
g0
(g1
g2
(lp115
g0
(g1
g2
(lp116
(lp117
S'word: singing, index: 19'
p118
aatp119
Rp120
(dp121
g14
Vprep
p122
sbatp123
Rp124
(dp125
g14
S'word: listening, index: 17'
p126
sbatp127
Rp128
(dp129
g14
Vxcomp
p130
sbatp131
Rp132
(dp133
g14
S'word: got, index: 14'
p134
sbatp135
Rp136
(dp137
g14
Vconj
p138
sbag0
(g1
g2
(lp139
g0
(g1
g2
(lp140
g0
(g1
g2
(lp141
(lp142
S'word: The, index: 1'
p143
aatp144
Rp145
(dp146
g14
Vdet
p147
sbag0
(g1
g2
(lp148
g0
(g1
g2
(lp149
g0
(g1
g2
(lp150
(lp151
S'word: a, index: 4'
p152
aatp153
Rp154
(dp155
g14
Vdet
p156
sbatp157
Rp158
(dp159
g14
S'word: woman, index: 5'
p160
sbatp161
Rp162
(dp163
g14
Vconj
p164
sbatp165
Rp166
(dp167
g14
S'word: man, index: 2'
p168
sbatp169
Rp170
(dp171
g14
Vnsubj
p172
sbag0
(g1
g2
(lp173
g158
atp174
Rp175
(dp176
g14
Vnsubj
p177
sbatp178
Rp179
(dp180
g14
S'word: eating, index: 8'
p181
sbatp182
Rp183
(dp184
g14
S'id: 2'
p185
sbag0
(g1
g2
(lp186
g0
(g1
g2
(lp187
g0
(g1
g2
(lp188
g0
(g1
g2
(lp189
g0
(g1
g2
(lp190
(lp191
S'word: why, index: 12'
p192
aatp193
Rp194
(dp195
g14
Vadvmod
p196
sbag0
(g1
g2
(lp197
(lp198
S'word: they, index: 13'
p199
aatp200
Rp201
(dp202
g14
Vnsubj
p203
sbag0
(g1
g2
(lp204
(lp205
S'word: are, index: 14'
p206
aatp207
Rp208
(dp209
g14
Vaux
p210
sbag0
(g1
g2
(lp211
g0
(g1
g2
(lp212
g0
(g1
g2
(lp213
(lp214
S'word: the, index: 17'
p215
aatp216
Rp217
(dp218
g14
Vdet
p219
sbatp220
Rp221
(dp222
g14
S'word: house, index: 18'
p223
sbatp224
Rp225
(dp226
g14
Vprep
p227
sbatp228
Rp229
(dp230
g14
S'word: doing, index: 15'
p231
sbatp232
Rp233
(dp234
g14
Vccomp
p235
sbag0
(g1
g2
(lp236
g0
(g1
g2
(lp237
g0
(g1
g2
(lp238
g0
(g1
g2
(lp239
g0
(g1
g2
(lp240
g0
(g1
g2
(lp241
g0
(g1
g2
(lp242
(lp243
S'word: i, index: 9'
p244
aatp245
Rp246
(dp247
g14
Vnn
p248
sbatp249
Rp250
(dp251
g14
S'word: dont, index: 10'
p252
sbatp253
Rp254
(dp255
g14
Vappos
p256
sbag0
(g1
g2
(lp257
(lp258
S'word: their, index: 6'
p259
aatp260
Rp261
(dp262
g14
Vposs
p263
sbatp264
Rp265
(dp266
g14
S'word: house, index: 7'
p267
sbatp268
Rp269
(dp270
g14
Vprep
p271
sbatp272
Rp273
(dp274
g14
S'word: it, index: 2'
p275
sbatp276
Rp277
(dp278
g14
Vnsubj
p279
sbag0
(g1
g2
(lp280
g0
(g1
g2
(lp281
g0
(g1
g2
(lp282
g0
(g1
g2
(lp283
g0
(g1
g2
(lp284
(lp285
S'word: house, index: 26'
p286
aatp287
Rp288
(dp289
g14
Vdep
p290
sbatp291
Rp292
(dp293
g14
S'word: out, index: 25'
p294
sbatp295
Rp296
(dp297
g14
Vprep
p298
sbag0
(g1
g2
(lp299
(lp300
S'word: they, index: 21'
p301
aatp302
Rp303
(dp304
g14
Vnsubj
p305
sbag0
(g1
g2
(lp306
(lp307
S"word: 're, index: 22"
p308
aatp309
Rp310
(dp311
g14
Vaux
p312
sbag0
(g1
g2
(lp313
(lp314
S'word: it, index: 24'
p315
aatp316
Rp317
(dp318
g14
Vdobj
p319
sbatp320
Rp321
(dp322
g14
S'word: doing, index: 23'
p323
sbatp324
Rp325
(dp326
g14
Vconj
p327
sbatp328
Rp329
(dp330
g14
S'word: know, index: 11'
p331
sbatp332
Rp333
(dp334
g14
S'id: 3'
p335
sbag0
(g1
g2
(lp336
g0
(g1
g2
(lp337
g0
(g1
g2
(lp338
g0
(g1
g2
(lp339
g0
(g1
g2
(lp340
(lp341
S'word: the, index: 2'
p342
aatp343
Rp344
(dp345
g14
Vdet
p346
sbatp347
Rp348
(dp349
g14
S'word: car, index: 3'
p350
sbatp351
Rp352
(dp353
g14
Vdobj
p354
sbatp355
Rp356
(dp357
g14
S'word: See, index: 1'
p358
sbatp359
Rp360
(dp361
g14
S'id: 4'
p362
sbag0
(g1
g2
(lp363
g0
(g1
g2
(lp364
g0
(g1
g2
(lp365
(lp366
S'word: I, index: 2'
p367
aatp368
Rp369
(dp370
g14
Vnsubj
p371
sbag0
(g1
g2
(lp372
(lp373
S'word: also, index: 3'
p374
aatp375
Rp376
(dp377
g14
Vadvmod
p378
sbag0
(g1
g2
(lp379
g0
(g1
g2
(lp380
g0
(g1
g2
(lp381
(lp382
S'word: is, index: 15'
p383
aatp384
Rp385
(dp386
g14
Vaux
p387
sbag0
(g1
g2
(lp388
g0
(g1
g2
(lp389
g0
(g1
g2
(lp390
g0
(g1
g2
(lp391
g0
(g1
g2
(lp392
(lp393
S'word: the, index: 18'
p394
aatp395
Rp396
(dp397
g14
Vdet
p398
sbatp399
Rp400
(dp401
g14
S'word: water, index: 19'
p402
sbatp403
Rp404
(dp405
g14
Vprep
p406
sbatp407
Rp408
(dp409
g14
S'word: out, index: 16'
p410
sbatp411
Rp412
(dp413
g14
Vadvmod
p414
sbag0
(g1
g2
(lp415
g0
(g1
g2
(lp416
g0
(g1
g2
(lp417
(lp418
S'word: to, index: 21'
p419
aatp420
Rp421
(dp422
g14
Vaux
p423
sbag0
(g1
g2
(lp424
(lp425
S'word: fix, index: 23'
p426
aatp427
Rp428
(dp429
g14
Vdobj
p430
sbatp431
Rp432
(dp433
g14
S'word: get, index: 22'
p434
sbatp435
Rp436
(dp437
g14
Vxcomp
p438
sbag0
(g1
g2
(lp439
g0
(g1
g2
(lp440
g0
(g1
g2
(lp441
(lp442
S'word: the, index: 13'
p443
aatp444
Rp445
(dp446
g14
Vdet
p447
sbatp448
Rp449
(dp450
g14
S'word: man, index: 14'
p451
sbatp452
Rp453
(dp454
g14
Vnsubj
p455
sbatp456
Rp457
(dp458
g14
S'word: trying, index: 20'
p459
sbatp460
Rp461
(dp462
g14
Vconj
p463
sbag0
(g1
g2
(lp464
(lp465
S'word: also, index: 6'
p466
aatp467
Rp468
(dp469
g14
Vadvmod
p470
sbag0
(g1
g2
(lp471
(lp472
S'word: water, index: 7'
p473
aatp474
Rp475
(dp476
g14
Vnpadvmod
p477
sbag0
(g1
g2
(lp478
g0
(g1
g2
(lp479
g0
(g1
g2
(lp480
(lp481
S'word: the, index: 9'
p482
aatp483
Rp484
(dp485
g14
Vdet
p486
sbatp487
Rp488
(dp489
g14
S'word: right, index: 10'
p490
sbatp491
Rp492
(dp493
g14
Vprep
p494
sbatp495
Rp496
(dp497
g14
S'word: see, index: 4'
p498
sbatp499
Rp500
(dp501
g14
S'id: 5'
p502
sbag0
(g1
g2
(lp503
g0
(g1
g2
(lp504
g0
(g1
g2
(lp505
(lp506
S'word: he, index: 3'
p507
aatp508
Rp509
(dp510
g14
Vnsubj
p511
sbag0
(g1
g2
(lp512
g0
(g1
g2
(lp513
g0
(g1
g2
(lp514
(lp515
S'word: the, index: 6'
p516
aatp517
Rp518
(dp519
g14
Vdet
p520
sbag0
(g1
g2
(lp521
g0
(g1
g2
(lp522
g0
(g1
g2
(lp523
g0
(g1
g2
(lp524
g0
(g1
g2
(lp525
(lp526
S'word: to, index: 9'
p527
aatp528
Rp529
(dp530
g14
Vaux
p531
sbag0
(g1
g2
(lp532
g0
(g1
g2
(lp533
g0
(g1
g2
(lp534
(lp535
S'word: the, index: 11'
p536
aatp537
Rp538
(dp539
g14
Vnsubj
p540
sbag0
(g1
g2
(lp541
(lp542
S'word: up, index: 13'
p543
aatp544
Rp545
(dp546
g14
Vprt
p547
sbatp548
Rp549
(dp550
g14
S'word: grow, index: 12'
p551
sbatp552
Rp553
(dp554
g14
Vccomp
p555
sbatp556
Rp557
(dp558
g14
S'word: get, index: 10'
p559
sbatp560
Rp561
(dp562
g14
Vxcomp
p563
sbatp564
Rp565
(dp566
g14
S'word: trying, index: 8'
p567
sbatp568
Rp569
(dp570
g14
Vvmod
p571
sbatp572
Rp573
(dp574
g14
S'word: water, index: 7'
p575
sbatp576
Rp577
(dp578
g14
Vprep
p579
sbag0
(g1
g2
(lp580
(lp581
S'word: Anyway, index: 1'
p582
aatp583
Rp584
(dp585
g14
Vadvmod
p586
sbatp587
Rp588
(dp589
g14
S"word: 's, index: 4"
p590
sbatp591
Rp592
(dp593
g14
S'id: 6'
p594
sbag0
(g1
g2
(lp595
g0
(g1
g2
(lp596
g0
(g1
g2
(lp597
g0
(g1
g2
(lp598
g0
(g1
g2
(lp599
g0
(g1
g2
(lp600
g0
(g1
g2
(lp601
(lp602
S'word: little, index: 7'
p603
aatp604
Rp605
(dp606
g14
Vamod
p607
sbag0
(g1
g2
(lp608
g0
(g1
g2
(lp609
g0
(g1
g2
(lp610
(lp611
S'word: up, index: 10'
p612
aatp613
Rp614
(dp615
g14
Vadvmod
p616
sbatp617
Rp618
(dp619
g14
S'word: coming, index: 9'
p620
sbatp621
Rp622
(dp623
g14
Vvmod
p624
sbatp625
Rp626
(dp627
g14
S'word: things, index: 8'
p628
sbatp629
Rp630
(dp631
g14
Vappos
p632
sbag0
(g1
g2
(lp633
(lp634
S'word: the, index: 4'
p635
aatp636
Rp637
(dp638
g14
Vdet
p639
sbatp640
Rp641
(dp642
g14
S'word: water, index: 5'
p643
sbatp644
Rp645
(dp646
g14
Vprep
p647
sbag0
(g1
g2
(lp648
(lp649
S'word: He, index: 1'
p650
aatp651
Rp652
(dp653
g14
Vnsubj
p654
sbatp655
Rp656
(dp657
g14
S"word: 's, index: 2"
p658
sbatp659
Rp660
(dp661
g14
S'id: 7'
p662
sbag0
(g1
g2
(lp663
g0
(g1
g2
(lp664
g0
(g1
g2
(lp665
(lp666
S'word: is, index: 12'
p667
aatp668
Rp669
(dp670
g14
Vaux
p671
sbag0
(g1
g2
(lp672
(lp673
S'word: him, index: 14'
p674
aatp675
Rp676
(dp677
g14
Vdobj
p678
sbag0
(g1
g2
(lp679
(lp680
S'word: the, index: 2'
p681
aatp682
Rp683
(dp684
g14
Vdep
p685
sbag0
(g1
g2
(lp686
g0
(g1
g2
(lp687
g0
(g1
g2
(lp688
(lp689
S'word: up, index: 24'
p690
aatp691
Rp692
(dp693
g14
Vadvmod
p694
sbag0
(g1
g2
(lp695
g0
(g1
g2
(lp696
g0
(g1
g2
(lp697
(lp698
S'word: high, index: 26'
p699
aatp700
Rp701
(dp702
g14
Vadvmod
p703
sbatp704
Rp705
(dp706
g14
S'word: up, index: 27'
p707
sbatp708
Rp709
(dp710
g14
Vadvmod
p711
sbag0
(g1
g2
(lp712
g0
(g1
g2
(lp713
g0
(g1
g2
(lp714
g0
(g1
g2
(lp715
g0
(g1
g2
(lp716
(lp717
S'word: to, index: 30'
p718
aatp719
Rp720
(dp721
g14
Vaux
p722
sbag0
(g1
g2
(lp723
g0
(g1
g2
(lp724
g0
(g1
g2
(lp725
(lp726
S'word: up, index: 32'
p727
aatp728
Rp729
(dp730
g14
Vadvmod
p731
sbag0
(g1
g2
(lp732
(lp733
S'word: up, index: 34'
p734
aatp735
Rp736
(dp737
g14
Vadvmod
p738
sbatp739
Rp740
(dp741
g14
S'word: high, index: 33'
p742
sbatp743
Rp744
(dp745
g14
Vadvmod
p746
sbatp747
Rp748
(dp749
g14
S'word: go, index: 31'
p750
sbatp751
Rp752
(dp753
g14
Vxcomp
p754
sbatp755
Rp756
(dp757
g14
S'word: trying, index: 29'
p758
sbatp759
Rp760
(dp761
g14
Vxcomp
p762
sbag0
(g1
g2
(lp763
(lp764
S'word: he, index: 17'
p765
aatp766
Rp767
(dp768
g14
Vnsubjpass
p769
sbag0
(g1
g2
(lp770
(lp771
S"word: 's, index: 18"
p772
aatp773
Rp774
(dp775
g14
Vauxpass
p776
sbag0
(g1
g2
(lp777
g0
(g1
g2
(lp778
g0
(g1
g2
(lp779
g0
(g1
g2
(lp780
g0
(g1
g2
(lp781
(lp782
S'word: the, index: 20'
p783
aatp784
Rp785
(dp786
g14
Vdet
p787
sbatp788
Rp789
(dp790
g14
S'word: thing, index: 21'
p791
sbatp792
Rp793
(dp794
g14
Vnpadvmod
p795
sbatp796
Rp797
(dp798
g14
S'word: up, index: 22'
p799
sbatp800
Rp801
(dp802
g14
Vadvmod
p803
sbatp804
Rp805
(dp806
g14
S'word: got, index: 19'
p807
sbatp808
Rp809
(dp810
g14
Vconj
p811
sbag0
(g1
g2
(lp812
g0
(g1
g2
(lp813
g0
(g1
g2
(lp814
(lp815
S'word: around, index: 8'
p816
aatp817
Rp818
(dp819
g14
Vprt
p820
sbag0
(g1
g2
(lp821
g0
(g1
g2
(lp822
g0
(g1
g2
(lp823
(lp824
S'word: his, index: 10'
p825
aatp826
Rp827
(dp828
g14
Vposs
p829
sbatp830
Rp831
(dp832
g14
S'word: dog, index: 11'
p833
sbatp834
Rp835
(dp836
g14
Vprep
p837
sbag0
(g1
g2
(lp838
g0
(g1
g2
(lp839
g0
(g1
g2
(lp840
(lp841
S'word: the, index: 4'
p842
aatp843
Rp844
(dp845
g14
Vdet
p846
sbatp847
Rp848
(dp849
g14
S'word: boy, index: 5'
p850
sbatp851
Rp852
(dp853
g14
Vnsubj
p854
sbag0
(g1
g2
(lp855
(lp856
S'word: is, index: 6'
p857
aatp858
Rp859
(dp860
g14
Vaux
p861
sbatp862
Rp863
(dp864
g14
S'word: running, index: 7'
p865
sbatp866
Rp867
(dp868
g14
Vparataxis
p869
sbatp870
Rp871
(dp872
g14
S'word: chasing, index: 13'
p873
sbatp874
Rp875
(dp876
g14
S'id: 8'
p877
sbag0
(g1
g2
(lp878
g0
(g1
g2
(lp879
g0
(g1
g2
(lp880
g0
(g1
g2
(lp881
g0
(g1
g2
(lp882
(lp883
S'word: the, index: 11'
p884
aatp885
Rp886
(dp887
g14
Vdet
p888
sbatp889
Rp890
(dp891
g14
S'word: water, index: 12'
p892
sbatp893
Rp894
(dp895
g14
Vprep
p896
sbag0
(g1
g2
(lp897
g0
(g1
g2
(lp898
g0
(g1
g2
(lp899
g0
(g1
g2
(lp900
g0
(g1
g2
(lp901
(lp902
S'word: another, index: 14'
p903
aatp904
Rp905
(dp906
g14
Vdet
p907
sbatp908
Rp909
(dp910
g14
S'word: still, index: 15'
p911
sbatp912
Rp913
(dp914
g14
Vnpadvmod
p915
sbatp916
Rp917
(dp918
g14
S'word: out, index: 16'
p919
sbatp920
Rp921
(dp922
g14
Vadvmod
p923
sbag0
(g1
g2
(lp924
(lp925
S'word: And, index: 1'
p926
aatp927
Rp928
(dp929
g14
Vcc
p930
sbag0
(g1
g2
(lp931
g0
(g1
g2
(lp932
g0
(g1
g2
(lp933
(lp934
S'word: the, index: 18'
p935
aatp936
Rp937
(dp938
g14
Vdet
p939
sbatp940
Rp941
(dp942
g14
S'word: water, index: 19'
p943
sbatp944
Rp945
(dp946
g14
Vprep
p947
sbag0
(g1
g2
(lp948
g0
(g1
g2
(lp949
g0
(g1
g2
(lp950
(lp951
S'word: the, index: 3'
p952
aatp953
Rp954
(dp955
g14
Vdet
p956
sbatp957
Rp958
(dp959
g14
S'word: right, index: 4'
p960
sbatp961
Rp962
(dp963
g14
Vpobj
p964
sbag0
(g1
g2
(lp965
g0
(g1
g2
(lp966
g0
(g1
g2
(lp967
(lp968
S'word: the, index: 6'
p969
aatp970
Rp971
(dp972
g14
Vdet
p973
sbag0
(g1
g2
(lp974
(lp975
S"word: 's, index: 8"
p976
aatp977
Rp978
(dp979
g14
Vpossessive
p980
sbag0
(g1
g2
(lp981
(lp982
S'word: out, index: 9'
p983
aatp984
Rp985
(dp986
g14
Vadvmod
p987
sbatp988
Rp989
(dp990
g14
S'word: guy, index: 7'
p991
sbatp992
Rp993
(dp994
g14
Vnpadvmod
p995
sbatp996
Rp997
(dp998
g14
S'word: on, index: 2'
p999
sbatp1000
Rp1001
(dp1002
g14
S'id: 9'
p1003
sbag0
(g1
g2
(lp1004
g0
(g1
g2
(lp1005
g0
(g1
g2
(lp1006
g0
(g1
g2
(lp1007
g0
(g1
g2
(lp1008
g0
(g1
g2
(lp1009
g0
(g1
g2
(lp1010
(lp1011
S'word: further, index: 3'
p1012
aatp1013
Rp1014
(dp1015
g14
Vadvmod
p1016
sbatp1017
Rp1018
(dp1019
g14
S'word: away, index: 4'
p1020
sbatp1021
Rp1022
(dp1023
g14
Vadvmod
p1024
sbatp1025
Rp1026
(dp1027
g14
S'word: out, index: 2'
p1028
sbatp1029
Rp1030
(dp1031
g14
Vrcmod
p1032
sbag0
(g1
g2
(lp1033
g0
(g1
g2
(lp1034
g0
(g1
g2
(lp1035
(lp1036
S'word: two, index: 6'
p1037
aatp1038
Rp1039
(dp1040
g14
Vnum
p1041
sbag0
(g1
g2
(lp1042
g0
(g1
g2
(lp1043
g0
(g1
g2
(lp1044
(lp1045
S'word: the, index: 9'
p1046
aatp1047
Rp1048
(dp1049
g14
Vdet
p1050
sbatp1051
Rp1052
(dp1053
g14
S'word: water, index: 10'
p1054
sbatp1055
Rp1056
(dp1057
g14
Vprep
p1058
sbatp1059
Rp1060
(dp1061
g14
S'word: people, index: 7'
p1062
sbatp1063
Rp1064
(dp1065
g14
Vappos
p1066
sbatp1067
Rp1068
(dp1069
g14
S'word: Peoples, index: 1'
p1070
sbatp1071
Rp1072
(dp1073
g14
S'id: 10'
p1074
sbag0
(g1
g2
(lp1075
g0
(g1
g2
(lp1076
g0
(g1
g2
(lp1077
(lp1078
S'word: And, index: 1'
p1079
aatp1080
Rp1081
(dp1082
g14
Vcc
p1083
sbag0
(g1
g2
(lp1084
(lp1085
S'word: then, index: 2'
p1086
aatp1087
Rp1088
(dp1089
g14
Vadvmod
p1090
sbag0
(g1
g2
(lp1091
g0
(g1
g2
(lp1092
g0
(g1
g2
(lp1093
(lp1094
S'word: the, index: 19'
p1095
aatp1096
Rp1097
(dp1098
g14
Vdet
p1099
sbatp1100
Rp1101
(dp1102
g14
S'word: sand, index: 20'
p1103
sbatp1104
Rp1105
(dp1106
g14
Vprep
p1107
sbag0
(g1
g2
(lp1108
g0
(g1
g2
(lp1109
g0
(g1
g2
(lp1110
(lp1111
S'word: the, index: 6'
p1112
aatp1113
Rp1114
(dp1115
g14
Vdet
p1116
sbatp1117
Rp1118
(dp1119
g14
S'word: water, index: 7'
p1120
sbatp1121
Rp1122
(dp1123
g14
Vprep
p1124
sbag0
(g1
g2
(lp1125
g0
(g1
g2
(lp1126
g0
(g1
g2
(lp1127
(lp1128
S'word: where, index: 9'
p1129
aatp1130
Rp1131
(dp1132
g14
Vadvmod
p1133
sbag0
(g1
g2
(lp1134
g0
(g1
g2
(lp1135
g0
(g1
g2
(lp1136
(lp1137
S'word: the, index: 10'
p1138
aatp1139
Rp1140
(dp1141
g14
Vdet
p1142
sbatp1143
Rp1144
(dp1145
g14
S'word: sand, index: 11'
p1146
sbatp1147
Rp1148
(dp1149
g14
Vnsubj
p1150
sbatp1151
Rp1152
(dp1153
g14
S'word: is, index: 12'
p1154
sbatp1155
Rp1156
(dp1157
g14
Vadvcl
p1158
sbag0
(g1
g2
(lp1159
g0
(g1
g2
(lp1160
g0
(g1
g2
(lp1161
(lp1162
S'word: the, index: 14'
p1163
aatp1164
Rp1165
(dp1166
g14
Vdet
p1167
sbatp1168
Rp1169
(dp1170
g14
S'word: girl, index: 15'
p1171
sbatp1172
Rp1173
(dp1174
g14
Vnsubj
p1175
sbag0
(g1
g2
(lp1176
(lp1177
S'word: is, index: 16'
p1178
aatp1179
Rp1180
(dp1181
g14
Vaux
p1182
sbatp1183
Rp1184
(dp1185
g14
S'word: playing, index: 17'
p1186
sbatp1187
Rp1188
(dp1189
g14
S'id: 11'
p1190
sbag0
(g1
g2
(lp1191
g0
(g1
g2
(lp1192
g0
(g1
g2
(lp1193
(lp1194
S'word: must, index: 4'
p1195
aatp1196
Rp1197
(dp1198
g14
Vaux
p1199
sbag0
(g1
g2
(lp1200
g0
(g1
g2
(lp1201
g0
(g1
g2
(lp1202
(lp1203
S'word: to, index: 22'
p1204
aatp1205
Rp1206
(dp1207
g14
Vprepc
p1208
sbag0
(g1
g2
(lp1209
g0
(g1
g2
(lp1210
g0
(g1
g2
(lp1211
(lp1212
S'word: the, index: 23'
p1213
aatp1214
Rp1215
(dp1216
g14
Vdet
p1217
sbatp1218
Rp1219
(dp1220
g14
S'word: water, index: 24'
p1221
sbatp1222
Rp1223
(dp1224
g14
Vpobj
p1225
sbag0
(g1
g2
(lp1226
(lp1227
S'word: because, index: 16'
p1228
aatp1229
Rp1230
(dp1231
g14
Vmark
p1232
sbag0
(g1
g2
(lp1233
g0
(g1
g2
(lp1234
g0
(g1
g2
(lp1235
(lp1236
S'word: his, index: 17'
p1237
aatp1238
Rp1239
(dp1240
g14
Vposs
p1241
sbatp1242
Rp1243
(dp1244
g14
S'word: house, index: 18'
p1245
sbatp1246
Rp1247
(dp1248
g14
Vnsubj
p1249
sbag0
(g1
g2
(lp1250
(lp1251
S'word: is, index: 19'
p1252
aatp1253
Rp1254
(dp1255
g14
Vcop
p1256
sbatp1257
Rp1258
(dp1259
g14
S'word: right, index: 20'
p1260
sbatp1261
Rp1262
(dp1263
g14
Vadvcl
p1264
sbag0
(g1
g2
(lp1265
(lp1266
S'word: be, index: 5'
p1267
aatp1268
Rp1269
(dp1270
g14
Vcop
p1271
sbag0
(g1
g2
(lp1272
(lp1273
S'word: a, index: 6'
p1274
aatp1275
Rp1276
(dp1277
g14
Vdet
p1278
sbag0
(g1
g2
(lp1279
(lp1280
S'word: fancy, index: 7'
p1281
aatp1282
Rp1283
(dp1284
g14
Vamod
p1285
sbag0
(g1
g2
(lp1286
g0
(g1
g2
(lp1287
g0
(g1
g2
(lp1288
g0
(g1
g2
(lp1289
g0
(g1
g2
(lp1290
(lp1291
S'word: a, index: 12'
p1292
aatp1293
Rp1294
(dp1295
g14
Vdet
p1296
sbag0
(g1
g2
(lp1297
(lp1298
S'word: fancy, index: 13'
p1299
aatp1300
Rp1301
(dp1302
g14
Vamod
p1303
sbatp1304
Rp1305
(dp1306
g14
S'word: house, index: 14'
p1307
sbatp1308
Rp1309
(dp1310
g14
Vprep
p1311
sbatp1312
Rp1313
(dp1314
g14
S'word: living, index: 10'
p1315
sbatp1316
Rp1317
(dp1318
g14
Vvmod
p1319
sbag0
(g1
g2
(lp1320
(lp1321
S'word: And, index: 1'
p1322
aatp1323
Rp1324
(dp1325
g14
Vcc
p1326
sbag0
(g1
g2
(lp1327
(lp1328
S'word: it, index: 3'
p1329
aatp1330
Rp1331
(dp1332
g14
Vnsubj
p1333
sbatp1334
Rp1335
(dp1336
g14
S'word: house, index: 8'
p1337
sbatp1338
Rp1339
(dp1340
g14
S'id: 12'
p1341
sbag0
(g1
g2
(lp1342
g0
(g1
g2
(lp1343
g0
(g1
g2
(lp1344
g0
(g1
g2
(lp1345
g0
(g1
g2
(lp1346
(lp1347
S'word: to, index: 7'
p1348
aatp1349
Rp1350
(dp1351
g14
Vaux
p1352
sbag0
(g1
g2
(lp1353
g0
(g1
g2
(lp1354
g0
(g1
g2
(lp1355
(lp1356
S'word: a, index: 9'
p1357
aatp1358
Rp1359
(dp1360
g14
Vdet
p1361
sbag0
(g1
g2
(lp1362
g0
(g1
g2
(lp1363
g0
(g1
g2
(lp1364
(lp1365
S'word: there, index: 12'
p1366
aatp1367
Rp1368
(dp1369
g14
Vpobj
p1370
sbatp1371
Rp1372
(dp1373
g14
S'word: over, index: 11'
p1374
sbatp1375
Rp1376
(dp1377
g14
Vprep
p1378
sbatp1379
Rp1380
(dp1381
g14
S'word: house, index: 10'
p1382
sbatp1383
Rp1384
(dp1385
g14
Vdobj
p1386
sbatp1387
Rp1388
(dp1389
g14
S'word: have, index: 8'
p1390
sbatp1391
Rp1392
(dp1393
g14
Vxcomp
p1394
sbag0
(g1
g2
(lp1395
(lp1396
S'word: It, index: 1'
p1397
aatp1398
Rp1399
(dp1400
g14
Vnsubj
p1401
sbag0
(g1
g2
(lp1402
g0
(g1
g2
(lp1403
g0
(g1
g2
(lp1404
(lp1405
S'word: a, index: 3'
p1406
aatp1407
Rp1408
(dp1409
g14
Vdet
p1410
sbag0
(g1
g2
(lp1411
(lp1412
S'word: money, index: 6'
p1413
aatp1414
Rp1415
(dp1416
g14
Vprep
p1417
sbatp1418
Rp1419
(dp1420
g14
S'word: lot, index: 4'
p1421
sbatp1422
Rp1423
(dp1424
g14
Vdobj
p1425
sbatp1426
Rp1427
(dp1428
g14
S'word: costs, index: 2'
p1429
sbatp1430
Rp1431
(dp1432
g14
S'id: 13'
p1433
sbag0
(g1
g2
(lp1434
g0
(g1
g2
(lp1435
g0
(g1
g2
(lp1436
g0
(g1
g2
(lp1437
g0
(g1
g2
(lp1438
(lp1439
S'word: that, index: 10'
p1440
aatp1441
Rp1442
(dp1443
g14
Vdet
p1444
sbatp1445
Rp1446
(dp1447
g14
S'word: one, index: 11'
p1448
sbatp1449
Rp1450
(dp1451
g14
Vprep
p1452
sbag0
(g1
g2
(lp1453
(lp1454
S'word: Well, index: 1'
p1455
aatp1456
Rp1457
(dp1458
g14
Vadvmod
p1459
sbag0
(g1
g2
(lp1460
g0
(g1
g2
(lp1461
g0
(g1
g2
(lp1462
(lp1463
S'word: all, index: 5'
p1464
aatp1465
Rp1466
(dp1467
g14
Vdep
p1468
sbatp1469
Rp1470
(dp1471
g14
S'word: bout, index: 4'
p1472
sbatp1473
Rp1474
(dp1475
g14
Vnsubj
p1476
sbag0
(g1
g2
(lp1477
(lp1478
S'word: you, index: 6'
p1479
aatp1480
Rp1481
(dp1482
g14
Vnsubj
p1483
sbag0
(g1
g2
(lp1484
(lp1485
S'word: can, index: 7'
p1486
aatp1487
Rp1488
(dp1489
g14
Vaux
p1490
sbatp1491
Rp1492
(dp1493
g14
S'word: say, index: 8'
p1494
sbatp1495
Rp1496
(dp1497
g14
S'id: 14'
p1498
sbag0
(g1
g2
(lp1499
g0
(g1
g2
(lp1500
g0
(g1
g2
(lp1501
(lp1502
S'word: Grandfather, index: 1'
p1503
aatp1504
Rp1505
(dp1506
g14
Vposs
p1507
sbatp1508
Rp1509
(dp1510
g14
S'word: outside, index: 3'
p1511
sbatp1512
Rp1513
(dp1514
g14
S'id: 15'
p1515
sbag0
(g1
g2
(lp1516
g0
(g1
g2
(lp1517
g0
(g1
g2
(lp1518
g0
(g1
g2
(lp1519
g0
(g1
g2
(lp1520
(lp1521
S'word: the, index: 1'
p1522
aatp1523
Rp1524
(dp1525
g14
Vdet
p1526
sbatp1527
Rp1528
(dp1529
g14
S'word: boy, index: 2'
p1530
sbatp1531
Rp1532
(dp1533
g14
Vnsubj
p1534
sbag0
(g1
g2
(lp1535
(lp1536
S'word: is, index: 3'
p1537
aatp1538
Rp1539
(dp1540
g14
Vaux
p1541
sbag0
(g1
g2
(lp1542
g0
(g1
g2
(lp1543
g0
(g1
g2
(lp1544
(lp1545
S'word: the, index: 5'
p1546
aatp1547
Rp1548
(dp1549
g14
Vdet
p1550
sbag0
(g1
g2
(lp1551
g0
(g1
g2
(lp1552
g0
(g1
g2
(lp1553
(lp1554
S'word: The, index: 8'
p1555
aatp1556
Rp1557
(dp1558
g14
Vdet
p1559
sbatp1560
Rp1561
(dp1562
g14
S'word: sis, index: 9'
p1563
sbatp1564
Rp1565
(dp1566
g14
Vappos
p1567
sbag0
(g1
g2
(lp1568
g0
(g1
g2
(lp1569
g0
(g1
g2
(lp1570
(lp1571
S'word: daughter, index: 11'
p1572
aatp1573
Rp1574
(dp1575
g14
Vnn
p1576
sbag0
(g1
g2
(lp1577
g0
(g1
g2
(lp1578
g0
(g1
g2
(lp1579
(lp1580
S'word: the, index: 14'
p1581
aatp1582
Rp1583
(dp1584
g14
Vdet
p1585
sbatp1586
Rp1587
(dp1588
g14
S'word: sand, index: 15'
p1589
sbatp1590
Rp1591
(dp1592
g14
Vprep
p1593
sbatp1594
Rp1595
(dp1596
g14
S'word: playing, index: 12'
p1597
sbatp1598
Rp1599
(dp1600
g14
Vappos
p1601
sbatp1602
Rp1603
(dp1604
g14
S'word: dog, index: 6'
p1605
sbatp1606
Rp1607
(dp1608
g14
Vdobj
p1609
sbatp1610
Rp1611
(dp1612
g14
S'word: chasing, index: 4'
p1613
sbatp1614
Rp1615
(dp1616
g14
S'id: 16'
p1617
sbatp1618
Rp1619
(dp1620
g14
S'sentences'
p1621
sb.