ccopy_reg
_reconstructor
p0
(cnltk.tree
Tree
p1
c__builtin__
list
p2
(lp3
g0
(g1
g2
(lp4
tp5
Rp6
(dp7
S'_label'
p8
S'id: 0'
p9
sbag0
(g1
g2
(lp10
g0
(g1
g2
(lp11
g0
(g1
g2
(lp12
(lp13
S'word: a, index: 3'
p14
aatp15
Rp16
(dp17
g8
Vdet
p18
sbag0
(g1
g2
(lp19
(lp20
S'word: This, index: 1'
p21
aatp22
Rp23
(dp24
g8
Vnsubj
p25
sbag0
(g1
g2
(lp26
(lp27
S'word: is, index: 2'
p28
aatp29
Rp30
(dp31
g8
Vcop
p32
sbatp33
Rp34
(dp35
g8
S'word: circus, index: 4'
p36
sbatp37
Rp38
(dp39
g8
S'id: 1'
p40
sbag0
(g1
g2
(lp41
g0
(g1
g2
(lp42
g0
(g1
g2
(lp43
g0
(g1
g2
(lp44
g0
(g1
g2
(lp45
g0
(g1
g2
(lp46
g0
(g1
g2
(lp47
(lp48
S'word: the, index: 5'
p49
aatp50
Rp51
(dp52
g8
Vdet
p53
sbatp54
Rp55
(dp56
g8
S'word: top, index: 6'
p57
sbatp58
Rp59
(dp60
g8
Vprep
p61
sbag0
(g1
g2
(lp62
(lp63
S"word: 's, index: 2"
p64
aatp65
Rp66
(dp67
g8
Vnsubj
p68
sbatp69
Rp70
(dp71
g8
S'word: start, index: 3'
p72
sbatp73
Rp74
(dp75
g8
Vccomp
p76
sbatp77
Rp78
(dp79
g8
S'word: Let, index: 1'
p80
sbatp81
Rp82
(dp83
g8
S'id: 2'
p84
sbag0
(g1
g2
(lp85
g0
(g1
g2
(lp86
g0
(g1
g2
(lp87
g0
(g1
g2
(lp88
g0
(g1
g2
(lp89
(lp90
S'word: he, index: 25'
p91
aatp92
Rp93
(dp94
g8
Vnsubj
p95
sbag0
(g1
g2
(lp96
(lp97
S'word: control, index: 28'
p98
aatp99
Rp100
(dp101
g8
Vprep
p102
sbag0
(g1
g2
(lp103
(lp104
S'word: like, index: 24'
p105
aatp106
Rp107
(dp108
g8
Vmark
p109
sbatp110
Rp111
(dp112
g8
S"word: 's, index: 26"
p113
sbatp114
Rp115
(dp116
g8
Vadvcl
p117
sbag0
(g1
g2
(lp118
g0
(g1
g2
(lp119
g0
(g1
g2
(lp120
g0
(g1
g2
(lp121
g0
(g1
g2
(lp122
g0
(g1
g2
(lp123
g0
(g1
g2
(lp124
(lp125
S'word: his, index: 11'
p126
aatp127
Rp128
(dp129
g8
Vposs
p130
sbatp131
Rp132
(dp133
g8
S'word: beam, index: 12'
p134
sbatp135
Rp136
(dp137
g8
Vprep
p138
sbag0
(g1
g2
(lp139
g0
(g1
g2
(lp140
g0
(g1
g2
(lp141
g0
(g1
g2
(lp142
g0
(g1
g2
(lp143
(lp144
S'word: to, index: 15'
p145
aatp146
Rp147
(dp148
g8
Vaux
p149
sbag0
(g1
g2
(lp150
g0
(g1
g2
(lp151
g0
(g1
g2
(lp152
(lp153
S'word: his, index: 17'
p154
aatp155
Rp156
(dp157
g8
Vposs
p158
sbag0
(g1
g2
(lp159
(lp160
S'word: left, index: 18'
p161
aatp162
Rp163
(dp164
g8
Vamod
p165
sbatp166
Rp167
(dp168
g8
S'word: foot, index: 19'
p169
sbatp170
Rp171
(dp172
g8
Vdobj
p173
sbag0
(g1
g2
(lp174
(lp175
S'word: down, index: 20'
p176
aatp177
Rp178
(dp179
g8
Vadvmod
p180
sbatp181
Rp182
(dp183
g8
S'word: put, index: 16'
p184
sbatp185
Rp186
(dp187
g8
Vxcomp
p188
sbatp189
Rp190
(dp191
g8
S'word: starting, index: 14'
p192
sbatp193
Rp194
(dp195
g8
Vdep
p196
sbatp197
Rp198
(dp199
g8
S'word: balancing, index: 9'
p200
sbatp201
Rp202
(dp203
g8
Vdep
p204
sbag0
(g1
g2
(lp205
(lp206
S'word: We, index: 1'
p207
aatp208
Rp209
(dp210
g8
Vnsubj
p211
sbag0
(g1
g2
(lp212
(lp213
S"word: 've, index: 2"
p214
aatp215
Rp216
(dp217
g8
Vaux
p218
sbag0
(g1
g2
(lp219
g0
(g1
g2
(lp220
g0
(g1
g2
(lp221
(lp222
S'word: a, index: 4'
p223
aatp224
Rp225
(dp226
g8
Vdet
p227
sbag0
(g1
g2
(lp228
(lp229
S'word: tight, index: 5'
p230
aatp231
Rp232
(dp233
g8
Vamod
p234
sbag0
(g1
g2
(lp235
(lp236
S'word: rope, index: 6'
p237
aatp238
Rp239
(dp240
g8
Vnn
p241
sbatp242
Rp243
(dp244
g8
S'word: walker, index: 7'
p245
sbatp246
Rp247
(dp248
g8
Vdobj
p249
sbatp250
Rp251
(dp252
g8
S'word: got, index: 3'
p253
sbatp254
Rp255
(dp256
g8
Vccomp
p257
sbag0
(g1
g2
(lp258
(lp259
S'word: he, index: 22'
p260
aatp261
Rp262
(dp263
g8
Vnsubj
p264
sbatp265
Rp266
(dp267
g8
S'word: looks, index: 23'
p268
sbatp269
Rp270
(dp271
g8
S'id: 3'
p272
sbag0
(g1
g2
(lp273
g0
(g1
g2
(lp274
g0
(g1
g2
(lp275
g0
(g1
g2
(lp276
g0
(g1
g2
(lp277
g0
(g1
g2
(lp278
g0
(g1
g2
(lp279
(lp280
S'word: his, index: 45'
p281
aatp282
Rp283
(dp284
g8
Vposs
p285
sbag0
(g1
g2
(lp286
g0
(g1
g2
(lp287
g0
(g1
g2
(lp288
(lp289
S'word: his, index: 48'
p290
aatp291
Rp292
(dp293
g8
Vposs
p294
sbag0
(g1
g2
(lp295
(lp296
S'word: right, index: 49'
p297
aatp298
Rp299
(dp300
g8
Vamod
p301
sbatp302
Rp303
(dp304
g8
S'word: hand, index: 50'
p305
sbatp306
Rp307
(dp308
g8
Vappos
p309
sbag0
(g1
g2
(lp310
g0
(g1
g2
(lp311
g0
(g1
g2
(lp312
(lp313
S'word: the, index: 53'
p314
aatp315
Rp316
(dp317
g8
Vdet
p318
sbatp319
Rp320
(dp321
g8
S'word: lion, index: 54'
p322
sbatp323
Rp324
(dp325
g8
Vprep
p326
sbatp327
Rp328
(dp329
g8
S'word: hand, index: 46'
p330
sbatp331
Rp332
(dp333
g8
Vdobj
p334
sbag0
(g1
g2
(lp335
g0
(g1
g2
(lp336
g0
(g1
g2
(lp337
(lp338
S'word: to, index: 55'
p339
aatp340
Rp341
(dp342
g8
Vaux
p343
sbag0
(g1
g2
(lp344
g0
(g1
g2
(lp345
g0
(g1
g2
(lp346
(lp347
S'word: his, index: 57'
p348
aatp349
Rp350
(dp351
g8
Vposs
p352
sbag0
(g1
g2
(lp353
(lp354
S'word: left, index: 58'
p355
aatp356
Rp357
(dp358
g8
Vamod
p359
sbatp360
Rp361
(dp362
g8
S'word: paw, index: 59'
p363
sbatp364
Rp365
(dp366
g8
Vdobj
p367
sbatp368
Rp369
(dp370
g8
S'word: raise, index: 56'
p371
sbatp372
Rp373
(dp374
g8
Vvmod
p375
sbag0
(g1
g2
(lp376
(lp377
S'word: who, index: 42'
p378
aatp379
Rp380
(dp381
g8
Vnsubj
p382
sbag0
(g1
g2
(lp383
(lp384
S"word: 's, index: 43"
p385
aatp386
Rp387
(dp388
g8
Vaux
p389
sbatp390
Rp391
(dp392
g8
S'word: raising, index: 44'
p393
sbatp394
Rp395
(dp396
g8
Vrcmod
p397
sbag0
(g1
g2
(lp398
(lp399
S'word: it, index: 15'
p400
aatp401
Rp402
(dp403
g8
Vnsubj
p404
sbag0
(g1
g2
(lp405
(lp406
S"word: 's, index: 16"
p407
aatp408
Rp409
(dp410
g8
Vcop
p411
sbag0
(g1
g2
(lp412
(lp413
S'word: a, index: 17'
p414
aatp415
Rp416
(dp417
g8
Vdet
p418
sbag0
(g1
g2
(lp419
(lp420
S'word: round, index: 18'
p421
aatp422
Rp423
(dp424
g8
Vamod
p425
sbag0
(g1
g2
(lp426
g0
(g1
g2
(lp427
g0
(g1
g2
(lp428
(lp429
S'word: a, index: 22'
p430
aatp431
Rp432
(dp433
g8
Vdet
p434
sbag0
(g1
g2
(lp435
g0
(g1
g2
(lp436
g0
(g1
g2
(lp437
g0
(g1
g2
(lp438
g0
(g1
g2
(lp439
(lp440
S'word: hind, index: 28'
p441
aatp442
Rp443
(dp444
g8
Vamod
p445
sbag0
(g1
g2
(lp446
(lp447
S'word: his, index: 27'
p448
aatp449
Rp450
(dp451
g8
Vposs
p452
sbatp453
Rp454
(dp455
g8
S'word: quarters, index: 29'
p456
sbatp457
Rp458
(dp459
g8
Vprep
p460
sbag0
(g1
g2
(lp461
g0
(g1
g2
(lp462
g0
(g1
g2
(lp463
g0
(g1
g2
(lp464
g0
(g1
g2
(lp465
(lp466
S'word: his, index: 32'
p467
aatp468
Rp469
(dp470
g8
Vposs
p471
sbag0
(g1
g2
(lp472
(lp473
S'word: left, index: 33'
p474
aatp475
Rp476
(dp477
g8
Vamod
p478
sbatp479
Rp480
(dp481
g8
S'word: paw, index: 34'
p482
sbatp483
Rp484
(dp485
g8
Vdobj
p486
sbag0
(g1
g2
(lp487
(lp488
S'word: response, index: 36'
p489
aatp490
Rp491
(dp492
g8
Vprep
p493
sbag0
(g1
g2
(lp494
g0
(g1
g2
(lp495
g0
(g1
g2
(lp496
(lp497
S'word: his, index: 38'
p498
aatp499
Rp500
(dp501
g8
Vposs
p502
sbag0
(g1
g2
(lp503
(lp504
S'word: lion, index: 39'
p505
aatp506
Rp507
(dp508
g8
Vnn
p509
sbatp510
Rp511
(dp512
g8
S'word: trainer, index: 40'
p513
sbatp514
Rp515
(dp516
g8
Vprep
p517
sbatp518
Rp519
(dp520
g8
S'word: raising, index: 31'
p521
sbatp522
Rp523
(dp524
g8
Vvmod
p525
sbag0
(g1
g2
(lp526
(lp527
S'word: up, index: 25'
p528
aatp529
Rp530
(dp531
g8
Vprt
p532
sbatp533
Rp534
(dp535
g8
S'word: sitting, index: 24'
p536
sbatp537
Rp538
(dp539
g8
Vvmod
p540
sbatp541
Rp542
(dp543
g8
S'word: lion, index: 23'
p544
sbatp545
Rp546
(dp547
g8
Vprep
p548
sbag0
(g1
g2
(lp549
g0
(g1
g2
(lp550
g0
(g1
g2
(lp551
g0
(g1
g2
(lp552
g0
(g1
g2
(lp553
(lp554
S'word: a, index: 13'
p555
aatp556
Rp557
(dp558
g8
Vdep
p559
sbatp560
Rp561
(dp562
g8
S'word: in, index: 12'
p563
sbatp564
Rp565
(dp566
g8
Vadvmod
p567
sbag0
(g1
g2
(lp568
g0
(g1
g2
(lp569
g0
(g1
g2
(lp570
(lp571
S'word: down, index: 2'
p572
aatp573
Rp574
(dp575
g8
Vprt
p576
sbag0
(g1
g2
(lp577
g0
(g1
g2
(lp578
g0
(g1
g2
(lp579
(lp580
S'word: a, index: 3'
p581
aatp582
Rp583
(dp584
g8
Vdet
p585
sbag0
(g1
g2
(lp586
(lp587
S'word: little, index: 4'
p588
aatp589
Rp590
(dp591
g8
Vamod
p592
sbatp593
Rp594
(dp595
g8
S'word: bit, index: 5'
p596
sbatp597
Rp598
(dp599
g8
Vdobj
p600
sbatp601
Rp602
(dp603
g8
S'word: Moving, index: 1'
p604
sbatp605
Rp606
(dp607
g8
Vvmod
p608
sbag0
(g1
g2
(lp609
(lp610
S'word: we, index: 7'
p611
aatp612
Rp613
(dp614
g8
Vnsubj
p615
sbag0
(g1
g2
(lp616
(lp617
S"word: 've, index: 8"
p618
aatp619
Rp620
(dp621
g8
Vaux
p622
sbag0
(g1
g2
(lp623
g0
(g1
g2
(lp624
g0
(g1
g2
(lp625
(lp626
S'word: the, index: 10'
p627
aatp628
Rp629
(dp630
g8
Vdet
p631
sbatp632
Rp633
(dp634
g8
S'word: lion, index: 11'
p635
sbatp636
Rp637
(dp638
g8
Vdobj
p639
sbatp640
Rp641
(dp642
g8
S'word: got, index: 9'
p643
sbatp644
Rp645
(dp646
g8
Vccomp
p647
sbatp648
Rp649
(dp650
g8
S'word: cage, index: 19'
p651
sbatp652
Rp653
(dp654
g8
S'id: 4'
p655
sbag0
(g1
g2
(lp656
g0
(g1
g2
(lp657
g0
(g1
g2
(lp658
(lp659
S'word: And, index: 1'
p660
aatp661
Rp662
(dp663
g8
Vcc
p664
sbag0
(g1
g2
(lp665
g0
(g1
g2
(lp666
g0
(g1
g2
(lp667
(lp668
S'word: the, index: 2'
p669
aatp670
Rp671
(dp672
g8
Vdet
p673
sbag0
(g1
g2
(lp674
(lp675
S'word: lion, index: 3'
p676
aatp677
Rp678
(dp679
g8
Vnn
p680
sbatp681
Rp682
(dp683
g8
S'word: trainer, index: 4'
p684
sbatp685
Rp686
(dp687
g8
Vnsubj
p688
sbag0
(g1
g2
(lp689
g0
(g1
g2
(lp690
g0
(g1
g2
(lp691
(lp692
S'word: a, index: 6'
p693
aatp694
Rp695
(dp696
g8
Vdet
p697
sbag0
(g1
g2
(lp698
(lp699
S'word: nice, index: 7'
p700
aatp701
Rp702
(dp703
g8
Vamod
p704
sbag0
(g1
g2
(lp705
g0
(g1
g2
(lp706
g0
(g1
g2
(lp707
g0
(g1
g2
(lp708
g0
(g1
g2
(lp709
(lp710
S'word: dark, index: 31'
p711
aatp712
Rp713
(dp714
g8
Vamod
p715
sbag0
(g1
g2
(lp716
(lp717
S'word: weird, index: 25'
p718
aatp719
Rp720
(dp721
g8
Vamod
p722
sbag0
(g1
g2
(lp723
(lp724
S'word: com, index: 27'
p725
aatp726
Rp727
(dp728
g8
Vdep
p729
sbag0
(g1
g2
(lp730
(lp731
S'word: comber, index: 28'
p732
aatp733
Rp734
(dp735
g8
Vnn
p736
sbag0
(g1
g2
(lp737
(lp738
S'word: bun, index: 29'
p739
aatp740
Rp741
(dp742
g8
Vnn
p743
sbatp744
Rp745
(dp746
g8
S'word: pants, index: 32'
p747
sbatp748
Rp749
(dp750
g8
Vprep
p751
sbatp752
Rp753
(dp754
g8
S'word: kind, index: 23'
p755
sbatp756
Rp757
(dp758
g8
Vprep
p759
sbag0
(g1
g2
(lp760
(lp761
S'word: little, index: 8'
p762
aatp763
Rp764
(dp765
g8
Vamod
p766
sbag0
(g1
g2
(lp767
(lp768
S'word: top, index: 9'
p769
aatp770
Rp771
(dp772
g8
Vamod
p773
sbag0
(g1
g2
(lp774
g0
(g1
g2
(lp775
g0
(g1
g2
(lp776
g0
(g1
g2
(lp777
g0
(g1
g2
(lp778
g0
(g1
g2
(lp779
g0
(g1
g2
(lp780
g0
(g1
g2
(lp781
g0
(g1
g2
(lp782
(lp783
S'word: a, index: 19'
p784
aatp785
Rp786
(dp787
g8
Vdet
p788
sbag0
(g1
g2
(lp789
(lp790
S'word: tweed, index: 20'
p791
aatp792
Rp793
(dp794
g8
Vnn
p795
sbatp796
Rp797
(dp798
g8
S'word: tux, index: 21'
p799
sbatp800
Rp801
(dp802
g8
Vprep
p803
sbatp804
Rp805
(dp806
g8
S'word: looks, index: 17'
p807
sbatp808
Rp809
(dp810
g8
Vrcmod
p811
sbatp812
Rp813
(dp814
g8
S'word: a, index: 15'
p815
sbatp816
Rp817
(dp818
g8
Vdobj
p819
sbag0
(g1
g2
(lp820
(lp821
S'word: he, index: 13'
p822
aatp823
Rp824
(dp825
g8
Vnsubj
p826
sbatp827
Rp828
(dp829
g8
S'word: has, index: 14'
p830
sbatp831
Rp832
(dp833
g8
Vdep
p834
sbatp835
Rp836
(dp837
g8
S'word: hat, index: 10'
p838
sbatp839
Rp840
(dp841
g8
Vdobj
p842
sbatp843
Rp844
(dp845
g8
S'word: has, index: 5'
p846
sbatp847
Rp848
(dp849
g8
S'id: 5'
p850
sbag0
(g1
g2
(lp851
g0
(g1
g2
(lp852
g0
(g1
g2
(lp853
(lp854
S'word: the, index: 2'
p855
aatp856
Rp857
(dp858
g8
Vdet
p859
sbag0
(g1
g2
(lp860
g0
(g1
g2
(lp861
g0
(g1
g2
(lp862
(lp863
S'word: up, index: 5'
p864
aatp865
Rp866
(dp867
g8
Vprep
p868
sbatp869
Rp870
(dp871
g8
S"word: 's, index: 4"
p872
sbatp873
Rp874
(dp875
g8
Vdep
p876
sbag0
(g1
g2
(lp877
g0
(g1
g2
(lp878
g0
(g1
g2
(lp879
(lp880
S'word: a, index: 7'
p881
aatp882
Rp883
(dp884
g8
Vdet
p885
sbag0
(g1
g2
(lp886
g0
(g1
g2
(lp887
g0
(g1
g2
(lp888
(lp889
S'word: upside, index: 9'
p890
aatp891
Rp892
(dp893
g8
Vadvmod
p894
sbatp895
Rp896
(dp897
g8
S'word: down, index: 10'
p898
sbatp899
Rp900
(dp901
g8
Vdep
p902
sbag0
(g1
g2
(lp903
(lp904
S'word: tub, index: 13'
p905
aatp906
Rp907
(dp908
g8
Vappos
p909
sbatp910
Rp911
(dp912
g8
S'word: table, index: 11'
p913
sbatp914
Rp915
(dp916
g8
Vprep
p917
sbag0
(g1
g2
(lp918
(lp919
S'word: And, index: 1'
p920
aatp921
Rp922
(dp923
g8
Vcc
p924
sbatp925
Rp926
(dp927
g8
S'word: lion, index: 3'
p928
sbatp929
Rp930
(dp931
g8
S'id: 6'
p932
sbag0
(g1
g2
(lp933
g0
(g1
g2
(lp934
g0
(g1
g2
(lp935
g0
(g1
g2
(lp936
g0
(g1
g2
(lp937
(lp938
S'word: very, index: 6'
p939
aatp940
Rp941
(dp942
g8
Vadvmod
p943
sbag0
(g1
g2
(lp944
(lp945
S'word: wide, index: 7'
p946
aatp947
Rp948
(dp949
g8
Vamod
p950
sbatp951
Rp952
(dp953
g8
S'word: stripes, index: 8'
p954
sbatp955
Rp956
(dp957
g8
Vappos
p958
sbag0
(g1
g2
(lp959
g0
(g1
g2
(lp960
g0
(g1
g2
(lp961
(lp962
S'word: white, index: 3'
p963
aatp964
Rp965
(dp966
g8
Vconj
p967
sbatp968
Rp969
(dp970
g8
S'word: Black, index: 1'
p971
sbatp972
Rp973
(dp974
g8
Vamod
p975
sbag0
(g1
g2
(lp976
(lp977
S'word: white, index: 3'
p978
aatp979
Rp980
(dp981
g8
Vamod
p982
sbatp983
Rp984
(dp985
g8
S'word: stripes, index: 4'
p986
sbatp987
Rp988
(dp989
g8
S'id: 7'
p990
sbag0
(g1
g2
(lp991
g0
(g1
g2
(lp992
g0
(g1
g2
(lp993
g0
(g1
g2
(lp994
g0
(g1
g2
(lp995
(lp996
S'word: is, index: 8'
p997
aatp998
Rp999
(dp1000
g8
Vcop
p1001
sbag0
(g1
g2
(lp1002
(lp1003
S'word: a, index: 9'
p1004
aatp1005
Rp1006
(dp1007
g8
Vdet
p1008
sbag0
(g1
g2
(lp1009
(lp1010
S'word: little, index: 10'
p1011
aatp1012
Rp1013
(dp1014
g8
Vamod
p1015
sbag0
(g1
g2
(lp1016
g0
(g1
g2
(lp1017
g0
(g1
g2
(lp1018
(lp1019
S'word: unless, index: 13'
p1020
aatp1021
Rp1022
(dp1023
g8
Vmark
p1024
sbag0
(g1
g2
(lp1025
(lp1026
S'word: she, index: 14'
p1027
aatp1028
Rp1029
(dp1030
g8
Vnsubj
p1031
sbag0
(g1
g2
(lp1032
(lp1033
S"word: 's, index: 15"
p1034
aatp1035
Rp1036
(dp1037
g8
Vaux
p1038
sbag0
(g1
g2
(lp1039
g0
(g1
g2
(lp1040
g0
(g1
g2
(lp1041
(lp1042
S'word: the, index: 18'
p1043
aatp1044
Rp1045
(dp1046
g8
Vdet
p1047
sbatp1048
Rp1049
(dp1050
g8
S'word: clown, index: 19'
p1051
sbatp1052
Rp1053
(dp1054
g8
Vprep
p1055
sbatp1056
Rp1057
(dp1058
g8
S'word: looking, index: 16'
p1059
sbatp1060
Rp1061
(dp1062
g8
Vadvcl
p1063
sbatp1064
Rp1065
(dp1066
g8
S'word: girl, index: 11'
p1067
sbatp1068
Rp1069
(dp1070
g8
Vccomp
p1071
sbag0
(g1
g2
(lp1072
(lp1073
S'word: And, index: 1'
p1074
aatp1075
Rp1076
(dp1077
g8
Vcc
p1078
sbag0
(g1
g2
(lp1079
g0
(g1
g2
(lp1080
g0
(g1
g2
(lp1081
g0
(g1
g2
(lp1082
g0
(g1
g2
(lp1083
(lp1084
S'word: the, index: 3'
p1085
aatp1086
Rp1087
(dp1088
g8
Vdet
p1089
sbatp1090
Rp1091
(dp1092
g8
S'word: lion, index: 4'
p1093
sbatp1094
Rp1095
(dp1096
g8
Vdobj
p1097
sbatp1098
Rp1099
(dp1100
g8
S'word: watching, index: 2'
p1101
sbatp1102
Rp1103
(dp1104
g8
Vvmod
p1105
sbag0
(g1
g2
(lp1106
(lp1107
S'word: I, index: 6'
p1108
aatp1109
Rp1110
(dp1111
g8
Vnsubj
p1112
sbatp1113
Rp1114
(dp1115
g8
S'word: think, index: 7'
p1116
sbatp1117
Rp1118
(dp1119
g8
S'id: 8'
p1120
sbag0
(g1
g2
(lp1121
g0
(g1
g2
(lp1122
g0
(g1
g2
(lp1123
(lp1124
S'word: There, index: 1'
p1125
aatp1126
Rp1127
(dp1128
g8
Vexpl
p1129
sbag0
(g1
g2
(lp1130
g0
(g1
g2
(lp1131
g0
(g1
g2
(lp1132
(lp1133
S'word: a, index: 3'
p1134
aatp1135
Rp1136
(dp1137
g8
Vdet
p1138
sbag0
(g1
g2
(lp1139
g0
(g1
g2
(lp1140
g0
(g1
g2
(lp1141
g0
(g1
g2
(lp1142
g0
(g1
g2
(lp1143
(lp1144
S'word: bottom, index: 11'
p1145
aatp1146
Rp1147
(dp1148
g8
Vamod
p1149
sbag0
(g1
g2
(lp1150
(lp1151
S'word: left, index: 12'
p1152
aatp1153
Rp1154
(dp1155
g8
Vamod
p1156
sbag0
(g1
g2
(lp1157
(lp1158
S'word: hand, index: 13'
p1159
aatp1160
Rp1161
(dp1162
g8
Vnn
p1163
sbatp1164
Rp1165
(dp1166
g8
S'word: corner, index: 14'
p1167
sbatp1168
Rp1169
(dp1170
g8
Vappos
p1171
sbag0
(g1
g2
(lp1172
g0
(g1
g2
(lp1173
g0
(g1
g2
(lp1174
(lp1175
S'word: who, index: 16'
p1176
aatp1177
Rp1178
(dp1179
g8
Vnsubj
p1180
sbag0
(g1
g2
(lp1181
(lp1182
S"word: 's, index: 17"
p1183
aatp1184
Rp1185
(dp1186
g8
Vaux
p1187
sbag0
(g1
g2
(lp1188
g0
(g1
g2
(lp1189
g0
(g1
g2
(lp1190
(lp1191
S'word: the, index: 20'
p1192
aatp1193
Rp1194
(dp1195
g8
Vdet
p1196
sbag0
(g1
g2
(lp1197
g0
(g1
g2
(lp1198
g0
(g1
g2
(lp1199
g0
(g1
g2
(lp1200
g0
(g1
g2
(lp1201
g0
(g1
g2
(lp1202
g0
(g1
g2
(lp1203
(lp1204
S'word: the, index: 29'
p1205
aatp1206
Rp1207
(dp1208
g8
Vdet
p1209
sbatp1210
Rp1211
(dp1212
g8
S'word: picture, index: 30'
p1213
sbatp1214
Rp1215
(dp1216
g8
Vprep
p1217
sbag0
(g1
g2
(lp1218
(lp1219
S'word: the, index: 26'
p1220
aatp1221
Rp1222
(dp1223
g8
Vdet
p1224
sbatp1225
Rp1226
(dp1227
g8
S'word: middle, index: 27'
p1228
sbatp1229
Rp1230
(dp1231
g8
Vprep
p1232
sbag0
(g1
g2
(lp1233
(lp1234
S'word: who, index: 23'
p1235
aatp1236
Rp1237
(dp1238
g8
Vnsubj
p1239
sbatp1240
Rp1241
(dp1242
g8
S"word: 's, index: 24"
p1243
sbatp1244
Rp1245
(dp1246
g8
Vrcmod
p1247
sbatp1248
Rp1249
(dp1250
g8
S'word: clown, index: 21'
p1251
sbatp1252
Rp1253
(dp1254
g8
Vprep
p1255
sbatp1256
Rp1257
(dp1258
g8
S'word: looking, index: 18'
p1259
sbatp1260
Rp1261
(dp1262
g8
Vrcmod
p1263
sbag0
(g1
g2
(lp1264
(lp1265
S'word: the, index: 6'
p1266
aatp1267
Rp1268
(dp1269
g8
Vdet
p1270
sbag0
(g1
g2
(lp1271
(lp1272
S'word: bottom, index: 7'
p1273
aatp1274
Rp1275
(dp1276
g8
Vamod
p1277
sbag0
(g1
g2
(lp1278
(lp1279
S'word: right, index: 8'
p1280
aatp1281
Rp1282
(dp1283
g8
Vamod
p1284
sbatp1285
Rp1286
(dp1287
g8
S'word: hand, index: 9'
p1288
sbatp1289
Rp1290
(dp1291
g8
Vprep
p1292
sbatp1293
Rp1294
(dp1295
g8
S'word: man, index: 4'
p1296
sbatp1297
Rp1298
(dp1299
g8
Vnsubj
p1300
sbatp1301
Rp1302
(dp1303
g8
S"word: 's, index: 2"
p1304
sbatp1305
Rp1306
(dp1307
g8
S'id: 9'
p1308
sbag0
(g1
g2
(lp1309
g0
(g1
g2
(lp1310
g0
(g1
g2
(lp1311
g0
(g1
g2
(lp1312
g0
(g1
g2
(lp1313
(lp1314
S'word: pigtails, index: 15'
p1315
aatp1316
Rp1317
(dp1318
g8
Vdobj
p1319
sbag0
(g1
g2
(lp1320
g0
(g1
g2
(lp1321
g0
(g1
g2
(lp1322
g0
(g1
g2
(lp1323
g0
(g1
g2
(lp1324
(lp1325
S'word: the, index: 20'
p1326
aatp1327
Rp1328
(dp1329
g8
Vdet
p1330
sbatp1331
Rp1332
(dp1333
g8
S'word: top, index: 21'
p1334
sbatp1335
Rp1336
(dp1337
g8
Vprep
p1338
sbatp1339
Rp1340
(dp1341
g8
S'word: bows, index: 18'
p1342
sbatp1343
Rp1344
(dp1345
g8
Vprep
p1346
sbag0
(g1
g2
(lp1347
g0
(g1
g2
(lp1348
g0
(g1
g2
(lp1349
g0
(g1
g2
(lp1350
g0
(g1
g2
(lp1351
(lp1352
S'word: the, index: 26'
p1353
aatp1354
Rp1355
(dp1356
g8
Vdet
p1357
sbatp1358
Rp1359
(dp1360
g8
S'word: bottom, index: 27'
p1361
sbatp1362
Rp1363
(dp1364
g8
Vprep
p1365
sbag0
(g1
g2
(lp1366
(lp1367
S'word: who, index: 12'
p1368
aatp1369
Rp1370
(dp1371
g8
Vnsubj
p1372
sbatp1373
Rp1374
(dp1375
g8
S'word: bows, index: 24'
p1376
sbatp1377
Rp1378
(dp1379
g8
Vconj
p1380
sbag0
(g1
g2
(lp1381
(lp1382
S'word: who, index: 12'
p1383
aatp1384
Rp1385
(dp1386
g8
Vnsubj
p1387
sbag0
(g1
g2
(lp1388
(lp1389
S'word: has, index: 13'
p1390
aatp1391
Rp1392
(dp1393
g8
Vaux
p1394
sbatp1395
Rp1396
(dp1397
g8
S'word: braided, index: 14'
p1398
sbatp1399
Rp1400
(dp1401
g8
Vdobj
p1402
sbag0
(g1
g2
(lp1403
g0
(g1
g2
(lp1404
g0
(g1
g2
(lp1405
(lp1406
S'word: she, index: 46'
p1407
aatp1408
Rp1409
(dp1410
g8
Vnsubjpass
p1411
sbag0
(g1
g2
(lp1412
(lp1413
S"word: 's, index: 47"
p1414
aatp1415
Rp1416
(dp1417
g8
Vauxpass
p1418
sbag0
(g1
g2
(lp1419
(lp1420
S'word: stripes, index: 49'
p1421
aatp1422
Rp1423
(dp1424
g8
Vdobj
p1425
sbag0
(g1
g2
(lp1426
g0
(g1
g2
(lp1427
g0
(g1
g2
(lp1428
(lp1429
S'word: the, index: 51'
p1430
aatp1431
Rp1432
(dp1433
g8
Vdet
p1434
sbatp1435
Rp1436
(dp1437
g8
S'word: back, index: 52'
p1438
sbatp1439
Rp1440
(dp1441
g8
Vprep
p1442
sbatp1443
Rp1444
(dp1445
g8
S'word: got, index: 48'
p1446
sbatp1447
Rp1448
(dp1449
g8
Vconj
p1450
sbag0
(g1
g2
(lp1451
(lp1452
S'word: then, index: 2'
p1453
aatp1454
Rp1455
(dp1456
g8
Vadvmod
p1457
sbag0
(g1
g2
(lp1458
g0
(g1
g2
(lp1459
g0
(g1
g2
(lp1460
(lp1461
S'word: probably, index: 30'
p1462
aatp1463
Rp1464
(dp1465
g8
Vadvmod
p1466
sbag0
(g1
g2
(lp1467
(lp1468
S'word: a, index: 31'
p1469
aatp1470
Rp1471
(dp1472
g8
Vdet
p1473
sbag0
(g1
g2
(lp1474
(lp1475
S'word: little, index: 32'
p1476
aatp1477
Rp1478
(dp1479
g8
Vamod
p1480
sbag0
(g1
g2
(lp1481
(lp1482
S'word: pinafore, index: 33'
p1483
aatp1484
Rp1485
(dp1486
g8
Vnn
p1487
sbag0
(g1
g2
(lp1488
g0
(g1
g2
(lp1489
g0
(g1
g2
(lp1490
(lp1491
S'word: she, index: 35'
p1492
aatp1493
Rp1494
(dp1495
g8
Vnsubjpass
p1496
sbag0
(g1
g2
(lp1497
(lp1498
S"word: 's, index: 36"
p1499
aatp1500
Rp1501
(dp1502
g8
Vauxpass
p1503
sbag0
(g1
g2
(lp1504
g0
(g1
g2
(lp1505
g0
(g1
g2
(lp1506
(lp1507
S'word: a, index: 38'
p1508
aatp1509
Rp1510
(dp1511
g8
Vdet
p1512
sbatp1513
Rp1514
(dp1515
g8
S'word: t-shirt, index: 39'
p1516
sbatp1517
Rp1518
(dp1519
g8
Vdobj
p1520
sbag0
(g1
g2
(lp1521
g0
(g1
g2
(lp1522
g0
(g1
g2
(lp1523
g0
(g1
g2
(lp1524
g0
(g1
g2
(lp1525
g0
(g1
g2
(lp1526
g0
(g1
g2
(lp1527
(lp1528
S'word: a, index: 42'
p1529
aatp1530
Rp1531
(dp1532
g8
Vdet
p1533
sbatp1534
Rp1535
(dp1536
g8
S'word: collar, index: 43'
p1537
sbatp1538
Rp1539
(dp1540
g8
Vpobj
p1541
sbatp1542
Rp1543
(dp1544
g8
S'word: with, index: 41'
p1545
sbatp1546
Rp1547
(dp1548
g8
Vpcomp
p1549
sbatp1550
Rp1551
(dp1552
g8
S'word: on, index: 40'
p1553
sbatp1554
Rp1555
(dp1556
g8
Vprep
p1557
sbatp1558
Rp1559
(dp1560
g8
S'word: got, index: 37'
p1561
sbatp1562
Rp1563
(dp1564
g8
Vrcmod
p1565
sbatp1566
Rp1567
(dp1568
g8
S'word: cause, index: 34'
p1569
sbatp1570
Rp1571
(dp1572
g8
Vdobj
p1573
sbag0
(g1
g2
(lp1574
g0
(g1
g2
(lp1575
g0
(g1
g2
(lp1576
(lp1577
S'word: the, index: 3'
p1578
aatp1579
Rp1580
(dp1581
g8
Vdet
p1582
sbatp1583
Rp1584
(dp1585
g8
S'word: man, index: 4'
p1586
sbatp1587
Rp1588
(dp1589
g8
Vnsubj
p1590
sbag0
(g1
g2
(lp1591
g0
(g1
g2
(lp1592
g0
(g1
g2
(lp1593
g1396
atp1594
Rp1595
(dp1596
g8
Vconj
p1597
sbag0
(g1
g2
(lp1598
g1567
atp1599
Rp1600
(dp1601
g8
Vconj
p1602
sbag0
(g1
g2
(lp1603
(lp1604
S'word: a, index: 6'
p1605
aatp1606
Rp1607
(dp1608
g8
Vdet
p1609
sbag0
(g1
g2
(lp1610
(lp1611
S'word: little, index: 7'
p1612
aatp1613
Rp1614
(dp1615
g8
Vamod
p1616
sbag0
(g1
g2
(lp1617
g1374
atp1618
Rp1619
(dp1620
g8
Vconj
p1621
sbag0
(g1
g2
(lp1622
(lp1623
S'word: him, index: 10'
p1624
aatp1625
Rp1626
(dp1627
g8
Vprep
p1628
sbatp1629
Rp1630
(dp1631
g8
S'word: girl, index: 8'
p1632
sbatp1633
Rp1634
(dp1635
g8
Vdobj
p1636
sbatp1637
Rp1638
(dp1639
g8
S'word: has, index: 5'
p1640
sbatp1641
Rp1642
(dp1643
g8
S'id: 10'
p1644
sbag0
(g1
g2
(lp1645
g0
(g1
g2
(lp1646
g0
(g1
g2
(lp1647
(lp1648
S'word: And, index: 1'
p1649
aatp1650
Rp1651
(dp1652
g8
Vcc
p1653
sbag0
(g1
g2
(lp1654
(lp1655
S'word: she, index: 2'
p1656
aatp1657
Rp1658
(dp1659
g8
Vnsubj
p1660
sbag0
(g1
g2
(lp1661
(lp1662
S"word: 's, index: 3"
p1663
aatp1664
Rp1665
(dp1666
g8
Vaux
p1667
sbag0
(g1
g2
(lp1668
g0
(g1
g2
(lp1669
g0
(g1
g2
(lp1670
(lp1671
S'word: either, index: 6'
p1672
aatp1673
Rp1674
(dp1675
g8
Vpreconj
p1676
sbag0
(g1
g2
(lp1677
(lp1678
S'word: the, index: 7'
p1679
aatp1680
Rp1681
(dp1682
g8
Vdet
p1683
sbag0
(g1
g2
(lp1684
g0
(g1
g2
(lp1685
g0
(g1
g2
(lp1686
(lp1687
S'word: the, index: 10'
p1688
aatp1689
Rp1690
(dp1691
g8
Vdet
p1692
sbatp1693
Rp1694
(dp1695
g8
S'word: clown, index: 11'
p1696
sbatp1697
Rp1698
(dp1699
g8
Vconj
p1700
sbatp1701
Rp1702
(dp1703
g8
S'word: lion, index: 8'
p1704
sbatp1705
Rp1706
(dp1707
g8
Vprep
p1708
sbag0
(g1
g2
(lp1709
g1694
atp1710
Rp1711
(dp1712
g8
Vprep
p1713
sbatp1714
Rp1715
(dp1716
g8
S'word: pointing, index: 4'
p1717
sbatp1718
Rp1719
(dp1720
g8
S'id: 11'
p1721
sbag0
(g1
g2
(lp1722
g0
(g1
g2
(lp1723
g0
(g1
g2
(lp1724
(lp1725
S'word: And, index: 1'
p1726
aatp1727
Rp1728
(dp1729
g8
Vcc
p1730
sbag0
(g1
g2
(lp1731
g0
(g1
g2
(lp1732
g0
(g1
g2
(lp1733
g0
(g1
g2
(lp1734
g0
(g1
g2
(lp1735
(lp1736
S'word: little, index: 20'
p1737
aatp1738
Rp1739
(dp1740
g8
Vamod
p1741
sbag0
(g1
g2
(lp1742
(lp1743
S'word: a, index: 19'
p1744
aatp1745
Rp1746
(dp1747
g8
Vdet
p1748
sbatp1749
Rp1750
(dp1751
g8
S'word: bit, index: 21'
p1752
sbatp1753
Rp1754
(dp1755
g8
Vdep
p1756
sbag0
(g1
g2
(lp1757
(lp1758
S'word: her, index: 17'
p1759
aatp1760
Rp1761
(dp1762
g8
Vposs
p1763
sbatp1764
Rp1765
(dp1766
g8
S'word: right, index: 18'
p1767
sbatp1768
Rp1769
(dp1770
g8
Vprep
p1771
sbag0
(g1
g2
(lp1772
g0
(g1
g2
(lp1773
g0
(g1
g2
(lp1774
g0
(g1
g2
(lp1775
g0
(g1
g2
(lp1776
(lp1777
S'word: the, index: 5'
p1778
aatp1779
Rp1780
(dp1781
g8
Vdet
p1782
sbag0
(g1
g2
(lp1783
(lp1784
S"word: 's, index: 7"
p1785
aatp1786
Rp1787
(dp1788
g8
Vpossessive
p1789
sbag0
(g1
g2
(lp1790
g0
(g1
g2
(lp1791
g0
(g1
g2
(lp1792
g0
(g1
g2
(lp1793
g0
(g1
g2
(lp1794
(lp1795
S'word: the, index: 13'
p1796
aatp1797
Rp1798
(dp1799
g8
Vdet
p1800
sbatp1801
Rp1802
(dp1803
g8
S'word: clown, index: 14'
p1804
sbatp1805
Rp1806
(dp1807
g8
Vappos
p1808
sbatp1809
Rp1810
(dp1811
g8
S'word: her, index: 11'
p1812
sbatp1813
Rp1814
(dp1815
g8
Vprep
p1816
sbatp1817
Rp1818
(dp1819
g8
S'word: lion, index: 6'
p1820
sbatp1821
Rp1822
(dp1823
g8
Vappos
p1824
sbag0
(g1
g2
(lp1825
(lp1826
S'word: the, index: 2'
p1827
aatp1828
Rp1829
(dp1830
g8
Vdet
p1831
sbatp1832
Rp1833
(dp1834
g8
S'word: clown, index: 3'
p1835
sbatp1836
Rp1837
(dp1838
g8
Vnsubj
p1839
sbatp1840
Rp1841
(dp1842
g8
S'word: is, index: 15'
p1843
sbatp1844
Rp1845
(dp1846
g8
S'id: 12'
p1847
sbag0
(g1
g2
(lp1848
g0
(g1
g2
(lp1849
g0
(g1
g2
(lp1850
g0
(g1
g2
(lp1851
g0
(g1
g2
(lp1852
(lp1853
S'word: flowered, index: 23'
p1854
aatp1855
Rp1856
(dp1857
g8
Vamod
p1858
sbag0
(g1
g2
(lp1859
(lp1860
S'word: a, index: 22'
p1861
aatp1862
Rp1863
(dp1864
g8
Vdet
p1865
sbatp1866
Rp1867
(dp1868
g8
S'word: tie, index: 24'
p1869
sbatp1870
Rp1871
(dp1872
g8
Vdobj
p1873
sbag0
(g1
g2
(lp1874
g0
(g1
g2
(lp1875
g0
(g1
g2
(lp1876
g1867
atp1877
Rp1878
(dp1879
g8
Vconj
p1880
sbag0
(g1
g2
(lp1881
(lp1882
S'word: wide, index: 15'
p1883
aatp1884
Rp1885
(dp1886
g8
Vamod
p1887
sbag0
(g1
g2
(lp1888
(lp1889
S'word: white, index: 16'
p1890
aatp1891
Rp1892
(dp1893
g8
Vamod
p1894
sbag0
(g1
g2
(lp1895
g0
(g1
g2
(lp1896
g0
(g1
g2
(lp1897
(lp1898
S'word: then, index: 18'
p1899
aatp1900
Rp1901
(dp1902
g8
Vadvmod
p1903
sbatp1904
Rp1905
(dp1906
g8
S'word: black, index: 19'
p1907
sbatp1908
Rp1909
(dp1910
g8
Vamod
p1911
sbatp1912
Rp1913
(dp1914
g8
S'word: stripes, index: 17'
p1915
sbatp1916
Rp1917
(dp1918
g8
Vdobj
p1919
sbag0
(g1
g2
(lp1920
g0
(g1
g2
(lp1921
g0
(g1
g2
(lp1922
(lp1923
S'word: The, index: 1'
p1924
aatp1925
Rp1926
(dp1927
g8
Vdet
p1928
sbatp1929
Rp1930
(dp1931
g8
S'word: clown, index: 2'
p1932
sbatp1933
Rp1934
(dp1935
g8
Vnsubj
p1936
sbag0
(g1
g2
(lp1937
g0
(g1
g2
(lp1938
g0
(g1
g2
(lp1939
g0
(g1
g2
(lp1940
g0
(g1
g2
(lp1941
(lp1942
S'word: suspender, index: 8'
p1943
aatp1944
Rp1945
(dp1946
g8
Vamod
p1947
sbatp1948
Rp1949
(dp1950
g8
S'word: pants, index: 9'
p1951
sbatp1952
Rp1953
(dp1954
g8
Vappos
p1955
sbag0
(g1
g2
(lp1956
g0
(g1
g2
(lp1957
g0
(g1
g2
(lp1958
(lp1959
S'word: white, index: 13'
p1960
aatp1961
Rp1962
(dp1963
g8
Vconj
p1964
sbatp1965
Rp1966
(dp1967
g8
S'word: black, index: 11'
p1968
sbatp1969
Rp1970
(dp1971
g8
Vamod
p1972
sbag0
(g1
g2
(lp1973
(lp1974
S'word: white, index: 13'
p1975
aatp1976
Rp1977
(dp1978
g8
Vamod
p1979
sbag0
(g1
g2
(lp1980
(lp1981
S'word: striped, index: 5'
p1982
aatp1983
Rp1984
(dp1985
g8
Vamod
p1986
sbatp1987
Rp1988
(dp1989
g8
S'word: pants, index: 6'
p1990
sbatp1991
Rp1992
(dp1993
g8
Vprep
p1994
sbatp1995
Rp1996
(dp1997
g8
S'word: has, index: 3'
p1998
sbatp1999
Rp2000
(dp2001
g8
S'id: 13'
p2002
sbatp2003
Rp2004
(dp2005
g8
S'sentences'
p2006
sb.