ccopy_reg
_reconstructor
p0
(cnltk.tree
Tree
p1
c__builtin__
list
p2
(lp3
g0
(g1
g2
(lp4
tp5
Rp6
(dp7
S'_label'
p8
S'id: 0'
p9
sbag0
(g1
g2
(lp10
tp11
Rp12
(dp13
g8
S'id: 1'
p14
sbag0
(g1
g2
(lp15
g0
(g1
g2
(lp16
g0
(g1
g2
(lp17
(lp18
S'word: I, index: 6'
p19
aatp20
Rp21
(dp22
g8
Vnsubj
p23
sbag0
(g1
g2
(lp24
(lp25
S'word: do, index: 7'
p26
aatp27
Rp28
(dp29
g8
Vaux
p30
sbag0
(g1
g2
(lp31
(lp32
S"word: n't, index: 8"
p33
aatp34
Rp35
(dp36
g8
Vneg
p37
sbag0
(g1
g2
(lp38
g0
(g1
g2
(lp39
g0
(g1
g2
(lp40
(lp41
S'word: what, index: 10'
p42
aatp43
Rp44
(dp45
g8
Vdobj
p46
sbag0
(g1
g2
(lp47
(lp48
S'word: it, index: 11'
p49
aatp50
Rp51
(dp52
g8
Vnsubj
p53
sbatp54
Rp55
(dp56
g8
S'word: is, index: 12'
p57
sbatp58
Rp59
(dp60
g8
Vccomp
p61
sbag0
(g1
g2
(lp62
g0
(g1
g2
(lp63
g0
(g1
g2
(lp64
(lp65
S'word: I, index: 1'
p66
aatp67
Rp68
(dp69
g8
Vnsubj
p70
sbag0
(g1
g2
(lp71
(lp72
S'word: just, index: 2'
p73
aatp74
Rp75
(dp76
g8
Vadvmod
p77
sbag0
(g1
g2
(lp78
(lp79
S'word: the, index: 4'
p80
aatp81
Rp82
(dp83
g8
Vdobj
p84
sbatp85
Rp86
(dp87
g8
S'word: put, index: 3'
p88
sbatp89
Rp90
(dp91
g8
Vccomp
p92
sbatp93
Rp94
(dp95
g8
S'word: know, index: 9'
p96
sbatp97
Rp98
(dp99
g8
S'id: 2'
p100
sbag0
(g1
g2
(lp101
g0
(g1
g2
(lp102
g0
(g1
g2
(lp103
(lp104
S"word: n't, index: 9"
p105
aatp106
Rp107
(dp108
g8
Vneg
p109
sbag0
(g1
g2
(lp110
(lp111
S'word: that, index: 11'
p112
aatp113
Rp114
(dp115
g8
Vdobj
p116
sbag0
(g1
g2
(lp117
g0
(g1
g2
(lp118
g0
(g1
g2
(lp119
(lp120
S'word: A, index: 1'
p121
aatp122
Rp123
(dp124
g8
Vdet
p125
sbatp126
Rp127
(dp128
g8
S'word: call, index: 2'
p129
sbatp130
Rp131
(dp132
g8
Vnsubj
p133
sbag0
(g1
g2
(lp134
g0
(g1
g2
(lp135
g0
(g1
g2
(lp136
(lp137
S'word: I, index: 4'
p138
aatp139
Rp140
(dp141
g8
Vnsubj
p142
sbag0
(g1
g2
(lp143
(lp144
S"word: n't, index: 6"
p145
aatp146
Rp147
(dp148
g8
Vneg
p149
sbatp150
Rp151
(dp152
g8
S'word: ca, index: 5'
p153
sbatp154
Rp155
(dp156
g8
Vparataxis
p157
sbag0
(g1
g2
(lp158
(lp159
S'word: ca, index: 8'
p160
aatp161
Rp162
(dp163
g8
Vaux
p164
sbatp165
Rp166
(dp167
g8
S'word: did, index: 10'
p168
sbatp169
Rp170
(dp171
g8
S'id: 3'
p172
sbag0
(g1
g2
(lp173
g0
(g1
g2
(lp174
g0
(g1
g2
(lp175
(lp176
S'word: I, index: 1'
p177
aatp178
Rp179
(dp180
g8
Vnsubj
p181
sbag0
(g1
g2
(lp182
(lp183
S"word: n't, index: 3"
p184
aatp185
Rp186
(dp187
g8
Vneg
p188
sbag0
(g1
g2
(lp189
g0
(g1
g2
(lp190
g0
(g1
g2
(lp191
(lp192
S'word: what, index: 4'
p193
aatp194
Rp195
(dp196
g8
Vdobj
p197
sbag0
(g1
g2
(lp198
(lp199
S'word: that, index: 5'
p200
aatp201
Rp202
(dp203
g8
Vnsubj
p204
sbatp205
Rp206
(dp207
g8
S'word: is, index: 6'
p208
sbatp209
Rp210
(dp211
g8
Vdep
p212
sbatp213
Rp214
(dp215
g8
S'word: ca, index: 2'
p216
sbatp217
Rp218
(dp219
g8
S'id: 4'
p220
sbag0
(g1
g2
(lp221
g0
(g1
g2
(lp222
g0
(g1
g2
(lp223
g0
(g1
g2
(lp224
g0
(g1
g2
(lp225
g0
(g1
g2
(lp226
g0
(g1
g2
(lp227
(lp228
S'word: that, index: 4'
p229
aatp230
Rp231
(dp232
g8
Vdep
p233
sbatp234
Rp235
(dp236
g8
S'word: right, index: 5'
p237
sbatp238
Rp239
(dp240
g8
Vrcmod
p241
sbatp242
Rp243
(dp244
g8
S'word: guy, index: 2'
p245
sbatp246
Rp247
(dp248
g8
Vrcmod
p249
sbag0
(g1
g2
(lp250
g0
(g1
g2
(lp251
g0
(g1
g2
(lp252
(lp253
S'word: that, index: 7'
p254
aatp255
Rp256
(dp257
g8
Vrcmod
p258
sbatp259
Rp260
(dp261
g8
S'word: there, index: 6'
p262
sbatp263
Rp264
(dp265
g8
Vdep
p266
sbatp267
Rp268
(dp269
g8
S'word: this, index: 1'
p270
sbatp271
Rp272
(dp273
g8
S'id: 5'
p274
sbag0
(g1
g2
(lp275
g0
(g1
g2
(lp276
g0
(g1
g2
(lp277
(lp278
S'word: else, index: 2'
p279
aatp280
Rp281
(dp282
g8
Vadvmod
p283
sbag0
(g1
g2
(lp284
g0
(g1
g2
(lp285
g0
(g1
g2
(lp286
(lp287
S'word: what, index: 3'
p288
aatp289
Rp290
(dp291
g8
Vdobj
p292
sbag0
(g1
g2
(lp293
(lp294
S'word: I, index: 4'
p295
aatp296
Rp297
(dp298
g8
Vnsubj
p299
sbag0
(g1
g2
(lp300
g0
(g1
g2
(lp301
g0
(g1
g2
(lp302
(lp303
S'word: to, index: 6'
p304
aatp305
Rp306
(dp307
g8
Vaux
p308
sbatp309
Rp310
(dp311
g8
S'word: do, index: 7'
p312
sbatp313
Rp314
(dp315
g8
Vxcomp
p316
sbatp317
Rp318
(dp319
g8
S'word: supposed, index: 5'
p320
sbatp321
Rp322
(dp323
g8
Vdep
p324
sbatp325
Rp326
(dp327
g8
S'word: anything, index: 1'
p328
sbatp329
Rp330
(dp331
g8
S'id: 6'
p332
sbatp333
Rp334
(dp335
g8
S'sentences'
p336
sb.