ccopy_reg
_reconstructor
p0
(cnltk.tree
Tree
p1
c__builtin__
list
p2
(lp3
g0
(g1
g2
(lp4
g0
(g1
g2
(lp5
g0
(g1
g2
(lp6
g0
(g1
g2
(lp7
g0
(g1
g2
(lp8
Vthis
p9
atp10
Rp11
(dp12
S'_label'
p13
VDT
p14
sbatp15
Rp16
(dp17
g13
VNP
p18
sbag0
(g1
g2
(lp19
g0
(g1
g2
(lp20
Vlooks
p21
atp22
Rp23
(dp24
g13
VVBZ
p25
sbag0
(g1
g2
(lp26
g0
(g1
g2
(lp27
Vlike
p28
atp29
Rp30
(dp31
g13
VIN
p32
sbag0
(g1
g2
(lp33
g0
(g1
g2
(lp34
Va
p35
atp36
Rp37
(dp38
g13
VDT
p39
sbag0
(g1
g2
(lp40
g0
(g1
g2
(lp41
V,
p42
atp43
Rp44
(dp45
g13
V,
p46
sbag0
(g1
g2
(lp47
g0
(g1
g2
(lp48
Veither
p49
atp50
Rp51
(dp52
g13
VRB
p53
sbatp54
Rp55
(dp56
g13
VADVP
p57
sbag0
(g1
g2
(lp58
V,
p59
atp60
Rp61
(dp62
g13
V,
p63
sbatp64
Rp65
(dp66
g13
VPRN
p67
sbatp68
Rp69
(dp70
g13
VNP
p71
sbag0
(g1
g2
(lp72
g0
(g1
g2
(lp73
Vobviously
p74
atp75
Rp76
(dp77
g13
VRB
p78
sbatp79
Rp80
(dp81
g13
VADVP
p82
sbatp83
Rp84
(dp85
g13
VPP
p86
sbag0
(g1
g2
(lp87
g0
(g1
g2
(lp88
Vat
p89
atp90
Rp91
(dp92
g13
VIN
p93
sbag0
(g1
g2
(lp94
g0
(g1
g2
(lp95
g0
(g1
g2
(lp96
Vthe
p97
atp98
Rp99
(dp100
g13
VDT
p101
sbag0
(g1
g2
(lp102
Vcircus
p103
atp104
Rp105
(dp106
g13
VNN
p107
sbatp108
Rp109
(dp110
g13
VNP
p111
sbag0
(g1
g2
(lp112
V,
p113
atp114
Rp115
(dp116
g13
V,
p117
sbag0
(g1
g2
(lp118
Vor
p119
atp120
Rp121
(dp122
g13
VCC
p123
sbag0
(g1
g2
(lp124
g0
(g1
g2
(lp125
Va
p126
atp127
Rp128
(dp129
g13
VDT
p130
sbag0
(g1
g2
(lp131
Vcarnival
p132
atp133
Rp134
(dp135
g13
VNN
p136
sbatp137
Rp138
(dp139
g13
VNP
p140
sbatp141
Rp142
(dp143
g13
VNP
p144
sbatp145
Rp146
(dp147
g13
VPP
p148
sbatp149
Rp150
(dp151
g13
VVP
p152
sbatp153
Rp154
(dp155
g13
VS
p156
sbag0
(g1
g2
(lp157
V,
p158
atp159
Rp160
(dp161
g13
V,
p162
sbag0
(g1
g2
(lp163
Vbut
p164
atp165
Rp166
(dp167
g13
VCC
p168
sbag0
(g1
g2
(lp169
g0
(g1
g2
(lp170
g0
(g1
g2
(lp171
VI
p172
atp173
Rp174
(dp175
g13
VPRP
p176
sbatp177
Rp178
(dp179
g13
VNP
p180
sbag0
(g1
g2
(lp181
g0
(g1
g2
(lp182
Vwould
p183
atp184
Rp185
(dp186
g13
VMD
p187
sbag0
(g1
g2
(lp188
g0
(g1
g2
(lp189
Vsay
p190
atp191
Rp192
(dp193
g13
VVB
p194
sbag0
(g1
g2
(lp195
g0
(g1
g2
(lp196
Vat
p197
atp198
Rp199
(dp200
g13
VIN
p201
sbag0
(g1
g2
(lp202
g0
(g1
g2
(lp203
Vthe
p204
atp205
Rp206
(dp207
g13
VDT
p208
sbag0
(g1
g2
(lp209
Vcircus
p210
atp211
Rp212
(dp213
g13
VNN
p214
sbatp215
Rp216
(dp217
g13
VNP
p218
sbatp219
Rp220
(dp221
g13
VPP
p222
sbatp223
Rp224
(dp225
g13
VVP
p226
sbatp227
Rp228
(dp229
g13
VVP
p230
sbatp231
Rp232
(dp233
g13
VS
p234
sbag0
(g1
g2
(lp235
V.
p236
atp237
Rp238
(dp239
g13
V.
p240
sbatp241
Rp242
(dp243
g13
VS
p244
sbatp245
Rp246
(dp247
g13
S'id: 0'
p248
sbag0
(g1
g2
(lp249
g0
(g1
g2
(lp250
g0
(g1
g2
(lp251
VAnd
p252
atp253
Rp254
(dp255
g13
VCC
p256
sbag0
(g1
g2
(lp257
g0
(g1
g2
(lp258
Vi
p259
atp260
Rp261
(dp262
g13
VFW
p263
sbatp264
Rp265
(dp266
g13
VNP
p267
sbag0
(g1
g2
(lp268
g0
(g1
g2
(lp269
Vwould
p270
atp271
Rp272
(dp273
g13
VMD
p274
sbag0
(g1
g2
(lp275
g0
(g1
g2
(lp276
Vsay
p277
atp278
Rp279
(dp280
g13
VVB
p281
sbag0
(g1
g2
(lp282
g0
(g1
g2
(lp283
g0
(g1
g2
(lp284
g0
(g1
g2
(lp285
Vthe
p286
atp287
Rp288
(dp289
g13
VDT
p290
sbag0
(g1
g2
(lp291
Vlittle
p292
atp293
Rp294
(dp295
g13
VJJ
p296
sbag0
(g1
g2
(lp297
Vgirl
p298
atp299
Rp300
(dp301
g13
VNN
p302
sbatp303
Rp304
(dp305
g13
VNP
p306
sbag0
(g1
g2
(lp307
g0
(g1
g2
(lp308
Vis
p309
atp310
Rp311
(dp312
g13
VVBZ
p313
sbag0
(g1
g2
(lp314
g0
(g1
g2
(lp315
g0
(g1
g2
(lp316
VAfrican
p317
atp318
Rp319
(dp320
g13
VJJ
p321
sbag0
(g1
g2
(lp322
VAmerican
p323
atp324
Rp325
(dp326
g13
VJJ
p327
sbatp328
Rp329
(dp330
g13
VADJP
p331
sbag0
(g1
g2
(lp332
g0
(g1
g2
(lp333
g0
(g1
g2
(lp334
Vby
p335
atp336
Rp337
(dp338
g13
VIN
p339
sbag0
(g1
g2
(lp340
g0
(g1
g2
(lp341
Vher
p342
atp343
Rp344
(dp345
g13
VPRP$
p346
sbag0
(g1
g2
(lp347
Vbraids
p348
atp349
Rp350
(dp351
g13
VNNS
p352
sbatp353
Rp354
(dp355
g13
VNP
p356
sbatp357
Rp358
(dp359
g13
VPP
p360
sbag0
(g1
g2
(lp361
V,
p362
atp363
Rp364
(dp365
g13
V,
p366
sbag0
(g1
g2
(lp367
Vand
p368
atp369
Rp370
(dp371
g13
VCC
p372
sbag0
(g1
g2
(lp373
g0
(g1
g2
(lp374
Vby
p375
atp376
Rp377
(dp378
g13
VIN
p379
sbag0
(g1
g2
(lp380
g0
(g1
g2
(lp381
g0
(g1
g2
(lp382
Vher
p383
atp384
Rp385
(dp386
g13
VPRP
p387
sbatp388
Rp389
(dp390
g13
VNP
p391
sbag0
(g1
g2
(lp392
V,
p393
atp394
Rp395
(dp396
g13
V,
p397
sbag0
(g1
g2
(lp398
g0
(g1
g2
(lp399
Vher
p400
atp401
Rp402
(dp403
g13
VPRP$
p404
sbag0
(g1
g2
(lp405
Vdad
p406
atp407
Rp408
(dp409
g13
VNN
p410
sbatp411
Rp412
(dp413
g13
VNP
p414
sbag0
(g1
g2
(lp415
V,
p416
atp417
Rp418
(dp419
g13
V,
p420
sbatp421
Rp422
(dp423
g13
VNP
p424
sbatp425
Rp426
(dp427
g13
VPP
p428
sbatp429
Rp430
(dp431
g13
VPP
p432
sbatp433
Rp434
(dp435
g13
VADJP
p436
sbag0
(g1
g2
(lp437
g0
(g1
g2
(lp438
Vobviously
p439
atp440
Rp441
(dp442
g13
VRB
p443
sbatp444
Rp445
(dp446
g13
VADVP
p447
sbag0
(g1
g2
(lp448
V,
p449
atp450
Rp451
(dp452
g13
V,
p453
sbag0
(g1
g2
(lp454
g0
(g1
g2
(lp455
Vhis
p456
atp457
Rp458
(dp459
g13
VPRP$
p460
sbag0
(g1
g2
(lp461
Vcurly
p462
atp463
Rp464
(dp465
g13
VJJ
p466
sbag0
(g1
g2
(lp467
Vhair
p468
atp469
Rp470
(dp471
g13
VNN
p472
sbatp473
Rp474
(dp475
g13
VNP
p476
sbatp477
Rp478
(dp479
g13
VVP
p480
sbatp481
Rp482
(dp483
g13
VS
p484
sbatp485
Rp486
(dp487
g13
VSBAR
p488
sbatp489
Rp490
(dp491
g13
VVP
p492
sbatp493
Rp494
(dp495
g13
VVP
p496
sbag0
(g1
g2
(lp497
V.
p498
atp499
Rp500
(dp501
g13
V.
p502
sbatp503
Rp504
(dp505
g13
VS
p506
sbatp507
Rp508
(dp509
g13
S'id: 1'
p510
sbag0
(g1
g2
(lp511
g0
(g1
g2
(lp512
g0
(g1
g2
(lp513
g0
(g1
g2
(lp514
VIn
p515
atp516
Rp517
(dp518
g13
VIN
p519
sbag0
(g1
g2
(lp520
g0
(g1
g2
(lp521
Vthe
p522
atp523
Rp524
(dp525
g13
VDT
p526
sbag0
(g1
g2
(lp527
Vlions
p528
atp529
Rp530
(dp531
g13
VNNS
p532
sbag0
(g1
g2
(lp533
Vcages
p534
atp535
Rp536
(dp537
g13
VNNS
p538
sbatp539
Rp540
(dp541
g13
VNP
p542
sbatp543
Rp544
(dp545
g13
VPP
p546
sbag0
(g1
g2
(lp547
g0
(g1
g2
(lp548
Vis
p549
atp550
Rp551
(dp552
g13
VVBZ
p553
sbag0
(g1
g2
(lp554
g0
(g1
g2
(lp555
g0
(g1
g2
(lp556
Vthe
p557
atp558
Rp559
(dp560
g13
VDT
p561
sbatp562
Rp563
(dp564
g13
VNP
p565
sbag0
(g1
g2
(lp566
V,
p567
atp568
Rp569
(dp570
g13
V,
p571
sbag0
(g1
g2
(lp572
g0
(g1
g2
(lp573
Vhead
p574
atp575
Rp576
(dp577
g13
VNN
p578
sbag0
(g1
g2
(lp579
Vring
p580
atp581
Rp582
(dp583
g13
VNN
p584
sbag0
(g1
g2
(lp585
Vmaster
p586
atp587
Rp588
(dp589
g13
VNN
p590
sbatp591
Rp592
(dp593
g13
VNP
p594
sbag0
(g1
g2
(lp595
V,
p596
atp597
Rp598
(dp599
g13
V,
p600
sbag0
(g1
g2
(lp601
Vor
p602
atp603
Rp604
(dp605
g13
VCC
p606
sbag0
(g1
g2
(lp607
g0
(g1
g2
(lp608
Vlion
p609
atp610
Rp611
(dp612
g13
VNN
p613
sbatp614
Rp615
(dp616
g13
VNP
p617
sbatp618
Rp619
(dp620
g13
VNP
p621
sbatp622
Rp623
(dp624
g13
VVP
p625
sbag0
(g1
g2
(lp626
g0
(g1
g2
(lp627
g0
(g1
g2
(lp628
Vtamer
p629
atp630
Rp631
(dp632
g13
VJJR
p633
sbatp634
Rp635
(dp636
g13
VNP
p637
sbag0
(g1
g2
(lp638
V,
p639
atp640
Rp641
(dp642
g13
V,
p643
sbag0
(g1
g2
(lp644
g0
(g1
g2
(lp645
g0
(g1
g2
(lp646
Vone
p647
atp648
Rp649
(dp650
g13
VCD
p651
sbatp652
Rp653
(dp654
g13
VNP
p655
sbag0
(g1
g2
(lp656
g0
(g1
g2
(lp657
Vof
p658
atp659
Rp660
(dp661
g13
VIN
p662
sbag0
(g1
g2
(lp663
g0
(g1
g2
(lp664
g0
(g1
g2
(lp665
Vthe
p666
atp667
Rp668
(dp669
g13
VDT
p670
sbatp671
Rp672
(dp673
g13
VNP
p674
sbag0
(g1
g2
(lp675
V,
p676
atp677
Rp678
(dp679
g13
V,
p680
sbag0
(g1
g2
(lp681
g0
(g1
g2
(lp682
Vhopefully
p683
atp684
Rp685
(dp686
g13
VRB
p687
sbatp688
Rp689
(dp690
g13
VADVP
p691
sbatp692
Rp693
(dp694
g13
VNP
p695
sbatp696
Rp697
(dp698
g13
VPP
p699
sbag0
(g1
g2
(lp700
g0
(g1
g2
(lp701
g0
(g1
g2
(lp702
g0
(g1
g2
(lp703
Vhe
p704
atp705
Rp706
(dp707
g13
VPRP
p708
sbatp709
Rp710
(dp711
g13
VNP
p712
sbag0
(g1
g2
(lp713
g0
(g1
g2
(lp714
V's
p715
atp716
Rp717
(dp718
g13
VVBZ
p719
sbag0
(g1
g2
(lp720
g0
(g1
g2
(lp721
g0
(g1
g2
(lp722
g0
(g1
g2
(lp723
Vthe
p724
atp725
Rp726
(dp727
g13
VDT
p728
sbag0
(g1
g2
(lp729
Vlion
p730
atp731
Rp732
(dp733
g13
VNN
p734
sbatp735
Rp736
(dp737
g13
VNP
p738
sbag0
(g1
g2
(lp739
Vtamer
p740
atp741
Rp742
(dp743
g13
VJJR
p744
sbatp745
Rp746
(dp747
g13
VADJP
p748
sbag0
(g1
g2
(lp749
g0
(g1
g2
(lp750
Vbecause
p751
atp752
Rp753
(dp754
g13
VIN
p755
sbag0
(g1
g2
(lp756
g0
(g1
g2
(lp757
Vthats
p758
atp759
Rp760
(dp761
g13
VNNS
p762
sbatp763
Rp764
(dp765
g13
VNP
p766
sbatp767
Rp768
(dp769
g13
VPP
p770
sbatp771
Rp772
(dp773
g13
VADJP
p774
sbag0
(g1
g2
(lp775
g0
(g1
g2
(lp776
g0
(g1
g2
(lp777
Va
p778
atp779
Rp780
(dp781
g13
VDT
p782
sbag0
(g1
g2
(lp783
g0
(g1
g2
(lp784
g0
(g1
g2
(lp785
Vpretty
p786
atp787
Rp788
(dp789
g13
VRB
p790
sbag0
(g1
g2
(lp791
Vgood
p792
atp793
Rp794
(dp795
g13
VJJ
p796
sbatp797
Rp798
(dp799
g13
VADJP
p800
sbag0
(g1
g2
(lp801
Vsized
p802
atp803
Rp804
(dp805
g13
VVBN
p806
sbag0
(g1
g2
(lp807
Vlion
p808
atp809
Rp810
(dp811
g13
VNN
p812
sbatp813
Rp814
(dp815
g13
VNP
p816
sbatp817
Rp818
(dp819
g13
VNP
p820
sbatp821
Rp822
(dp823
g13
VS
p824
sbatp825
Rp826
(dp827
g13
VVP
p828
sbatp829
Rp830
(dp831
g13
VS
p832
sbatp833
Rp834
(dp835
g13
VSBAR
p836
sbatp837
Rp838
(dp839
g13
VNP
p840
sbatp841
Rp842
(dp843
g13
VNP
p844
sbag0
(g1
g2
(lp845
V.
p846
atp847
Rp848
(dp849
g13
V.
p850
sbatp851
Rp852
(dp853
g13
VSINV
p854
sbatp855
Rp856
(dp857
g13
S'id: 2'
p858
sbag0
(g1
g2
(lp859
g0
(g1
g2
(lp860
g0
(g1
g2
(lp861
g0
(g1
g2
(lp862
VEven
p863
atp864
Rp865
(dp866
g13
VRB
p867
sbag0
(g1
g2
(lp868
Vthough
p869
atp870
Rp871
(dp872
g13
VIN
p873
sbag0
(g1
g2
(lp874
g0
(g1
g2
(lp875
g0
(g1
g2
(lp876
Vhe
p877
atp878
Rp879
(dp880
g13
VPRP
p881
sbatp882
Rp883
(dp884
g13
VNP
p885
sbag0
(g1
g2
(lp886
g0
(g1
g2
(lp887
Vseems
p888
atp889
Rp890
(dp891
g13
VVBZ
p892
sbag0
(g1
g2
(lp893
g0
(g1
g2
(lp894
g0
(g1
g2
(lp895
Vto
p896
atp897
Rp898
(dp899
g13
VTO
p900
sbag0
(g1
g2
(lp901
g0
(g1
g2
(lp902
Vhave
p903
atp904
Rp905
(dp906
g13
VVB
p907
sbag0
(g1
g2
(lp908
g0
(g1
g2
(lp909
Va
p910
atp911
Rp912
(dp913
g13
VDT
p914
sbag0
(g1
g2
(lp915
Vsmile
p916
atp917
Rp918
(dp919
g13
VNN
p920
sbatp921
Rp922
(dp923
g13
VNP
p924
sbatp925
Rp926
(dp927
g13
VVP
p928
sbatp929
Rp930
(dp931
g13
VVP
p932
sbatp933
Rp934
(dp935
g13
VS
p936
sbatp937
Rp938
(dp939
g13
VVP
p940
sbatp941
Rp942
(dp943
g13
VS
p944
sbatp945
Rp946
(dp947
g13
VSBAR
p948
sbag0
(g1
g2
(lp949
V,
p950
atp951
Rp952
(dp953
g13
V,
p954
sbag0
(g1
g2
(lp955
g0
(g1
g2
(lp956
Vhe
p957
atp958
Rp959
(dp960
g13
VPRP
p961
sbatp962
Rp963
(dp964
g13
VNP
p965
sbag0
(g1
g2
(lp966
g0
(g1
g2
(lp967
Vlooks
p968
atp969
Rp970
(dp971
g13
VVBZ
p972
sbag0
(g1
g2
(lp973
g0
(g1
g2
(lp974
Vlike
p975
atp976
Rp977
(dp978
g13
VIN
p979
sbag0
(g1
g2
(lp980
g0
(g1
g2
(lp981
g0
(g1
g2
(lp982
Vhe
p983
atp984
Rp985
(dp986
g13
VPRP
p987
sbatp988
Rp989
(dp990
g13
VNP
p991
sbag0
(g1
g2
(lp992
g0
(g1
g2
(lp993
Vmight
p994
atp995
Rp996
(dp997
g13
VMD
p998
sbag0
(g1
g2
(lp999
g0
(g1
g2
(lp1000
Vbe
p1001
atp1002
Rp1003
(dp1004
g13
VVB
p1005
sbag0
(g1
g2
(lp1006
g0
(g1
g2
(lp1007
Vready
p1008
atp1009
Rp1010
(dp1011
g13
VJJ
p1012
sbag0
(g1
g2
(lp1013
g0
(g1
g2
(lp1014
g0
(g1
g2
(lp1015
Vto
p1016
atp1017
Rp1018
(dp1019
g13
VTO
p1020
sbag0
(g1
g2
(lp1021
g0
(g1
g2
(lp1022
Vhave
p1023
atp1024
Rp1025
(dp1026
g13
VVB
p1027
sbag0
(g1
g2
(lp1028
g0
(g1
g2
(lp1029
Vlunch
p1030
atp1031
Rp1032
(dp1033
g13
VNN
p1034
sbatp1035
Rp1036
(dp1037
g13
VNP
p1038
sbatp1039
Rp1040
(dp1041
g13
VVP
p1042
sbatp1043
Rp1044
(dp1045
g13
VVP
p1046
sbatp1047
Rp1048
(dp1049
g13
VS
p1050
sbatp1051
Rp1052
(dp1053
g13
VADJP
p1054
sbatp1055
Rp1056
(dp1057
g13
VVP
p1058
sbatp1059
Rp1060
(dp1061
g13
VVP
p1062
sbatp1063
Rp1064
(dp1065
g13
VS
p1066
sbatp1067
Rp1068
(dp1069
g13
VSBAR
p1070
sbatp1071
Rp1072
(dp1073
g13
VVP
p1074
sbag0
(g1
g2
(lp1075
V.
p1076
atp1077
Rp1078
(dp1079
g13
V.
p1080
sbatp1081
Rp1082
(dp1083
g13
VS
p1084
sbatp1085
Rp1086
(dp1087
g13
S'id: 3'
p1088
sbag0
(g1
g2
(lp1089
g0
(g1
g2
(lp1090
g0
(g1
g2
(lp1091
VAnd
p1092
atp1093
Rp1094
(dp1095
g13
VCC
p1096
sbag0
(g1
g2
(lp1097
g0
(g1
g2
(lp1098
g0
(g1
g2
(lp1099
Vthe
p1100
atp1101
Rp1102
(dp1103
g13
VDT
p1104
sbag0
(g1
g2
(lp1105
Vclown
p1106
atp1107
Rp1108
(dp1109
g13
VNN
p1110
sbatp1111
Rp1112
(dp1113
g13
VNP
p1114
sbag0
(g1
g2
(lp1115
V,
p1116
atp1117
Rp1118
(dp1119
g13
V,
p1120
sbag0
(g1
g2
(lp1121
g0
(g1
g2
(lp1122
g0
(g1
g2
(lp1123
Vwho
p1124
atp1125
Rp1126
(dp1127
g13
VWP
p1128
sbatp1129
Rp1130
(dp1131
g13
VWHNP
p1132
sbag0
(g1
g2
(lp1133
g0
(g1
g2
(lp1134
g0
(g1
g2
(lp1135
Vis
p1136
atp1137
Rp1138
(dp1139
g13
VVBZ
p1140
sbag0
(g1
g2
(lp1141
g0
(g1
g2
(lp1142
Vexpected
p1143
atp1144
Rp1145
(dp1146
g13
VVBN
p1147
sbag0
(g1
g2
(lp1148
g0
(g1
g2
(lp1149
g0
(g1
g2
(lp1150
Vto
p1151
atp1152
Rp1153
(dp1154
g13
VTO
p1155
sbag0
(g1
g2
(lp1156
g0
(g1
g2
(lp1157
Vdo
p1158
atp1159
Rp1160
(dp1161
g13
VVB
p1162
sbag0
(g1
g2
(lp1163
g0
(g1
g2
(lp1164
g0
(g1
g2
(lp1165
Vall
p1166
atp1167
Rp1168
(dp1169
g13
VDT
p1170
sbag0
(g1
g2
(lp1171
Vsorts
p1172
atp1173
Rp1174
(dp1175
g13
VNNS
p1176
sbatp1177
Rp1178
(dp1179
g13
VNP
p1180
sbag0
(g1
g2
(lp1181
g0
(g1
g2
(lp1182
Vof
p1183
atp1184
Rp1185
(dp1186
g13
VIN
p1187
sbag0
(g1
g2
(lp1188
g0
(g1
g2
(lp1189
Vsilly
p1190
atp1191
Rp1192
(dp1193
g13
VJJ
p1194
sbag0
(g1
g2
(lp1195
Vtricks
p1196
atp1197
Rp1198
(dp1199
g13
VNNS
p1200
sbatp1201
Rp1202
(dp1203
g13
VNP
p1204
sbatp1205
Rp1206
(dp1207
g13
VPP
p1208
sbatp1209
Rp1210
(dp1211
g13
VNP
p1212
sbatp1213
Rp1214
(dp1215
g13
VVP
p1216
sbatp1217
Rp1218
(dp1219
g13
VVP
p1220
sbatp1221
Rp1222
(dp1223
g13
VS
p1224
sbatp1225
Rp1226
(dp1227
g13
VVP
p1228
sbatp1229
Rp1230
(dp1231
g13
VVP
p1232
sbatp1233
Rp1234
(dp1235
g13
VS
p1236
sbatp1237
Rp1238
(dp1239
g13
VSBAR
p1240
sbatp1241
Rp1242
(dp1243
g13
VNP
p1244
sbag0
(g1
g2
(lp1245
V.
p1246
atp1247
Rp1248
(dp1249
g13
V.
p1250
sbatp1251
Rp1252
(dp1253
g13
VFRAG
p1254
sbatp1255
Rp1256
(dp1257
g13
S'id: 4'
p1258
sbag0
(g1
g2
(lp1259
g0
(g1
g2
(lp1260
g0
(g1
g2
(lp1261
g0
(g1
g2
(lp1262
VHe
p1263
atp1264
Rp1265
(dp1266
g13
VPRP
p1267
sbatp1268
Rp1269
(dp1270
g13
VNP
p1271
sbag0
(g1
g2
(lp1272
g0
(g1
g2
(lp1273
V's
p1274
atp1275
Rp1276
(dp1277
g13
VVBZ
p1278
sbag0
(g1
g2
(lp1279
g0
(g1
g2
(lp1280
Veither
p1281
atp1282
Rp1283
(dp1284
g13
VCC
p1285
sbatp1286
Rp1287
(dp1288
g13
VADVP
p1289
sbag0
(g1
g2
(lp1290
g0
(g1
g2
(lp1291
Vthrowing
p1292
atp1293
Rp1294
(dp1295
g13
VVBG
p1296
sbag0
(g1
g2
(lp1297
g0
(g1
g2
(lp1298
g0
(g1
g2
(lp1299
Vwater
p1300
atp1301
Rp1302
(dp1303
g13
VNN
p1304
sbatp1305
Rp1306
(dp1307
g13
VNP
p1308
sbag0
(g1
g2
(lp1309
V,
p1310
atp1311
Rp1312
(dp1313
g13
V,
p1314
sbag0
(g1
g2
(lp1315
Vor
p1316
atp1317
Rp1318
(dp1319
g13
VCC
p1320
sbag0
(g1
g2
(lp1321
g0
(g1
g2
(lp1322
Vpopcorn
p1323
atp1324
Rp1325
(dp1326
g13
VNN
p1327
sbatp1328
Rp1329
(dp1330
g13
VNP
p1331
sbag0
(g1
g2
(lp1332
V,
p1333
atp1334
Rp1335
(dp1336
g13
V,
p1337
sbatp1338
Rp1339
(dp1340
g13
VNP
p1341
sbag0
(g1
g2
(lp1342
g0
(g1
g2
(lp1343
Von
p1344
atp1345
Rp1346
(dp1347
g13
VIN
p1348
sbag0
(g1
g2
(lp1349
g0
(g1
g2
(lp1350
Vthe
p1351
atp1352
Rp1353
(dp1354
g13
VDT
p1355
sbag0
(g1
g2
(lp1356
Vlittle
p1357
atp1358
Rp1359
(dp1360
g13
VJJ
p1361
sbag0
(g1
g2
(lp1362
Vboy
p1363
atp1364
Rp1365
(dp1366
g13
VNN
p1367
sbatp1368
Rp1369
(dp1370
g13
VNP
p1371
sbatp1372
Rp1373
(dp1374
g13
VPP
p1375
sbatp1376
Rp1377
(dp1378
g13
VVP
p1379
sbatp1380
Rp1381
(dp1382
g13
VVP
p1383
sbag0
(g1
g2
(lp1384
V.
p1385
atp1386
Rp1387
(dp1388
g13
V.
p1389
sbatp1390
Rp1391
(dp1392
g13
VS
p1393
sbatp1394
Rp1395
(dp1396
g13
S'id: 5'
p1397
sbag0
(g1
g2
(lp1398
g0
(g1
g2
(lp1399
g0
(g1
g2
(lp1400
g0
(g1
g2
(lp1401
VAnd
p1402
atp1403
Rp1404
(dp1405
g13
VCC
p1406
sbag0
(g1
g2
(lp1407
g0
(g1
g2
(lp1408
Vthey
p1409
atp1410
Rp1411
(dp1412
g13
VPRP
p1413
sbatp1414
Rp1415
(dp1416
g13
VNP
p1417
sbag0
(g1
g2
(lp1418
g0
(g1
g2
(lp1419
V're
p1420
atp1421
Rp1422
(dp1423
g13
VVBP
p1424
sbag0
(g1
g2
(lp1425
g0
(g1
g2
(lp1426
g0
(g1
g2
(lp1427
Vlaughing
p1428
atp1429
Rp1430
(dp1431
g13
VVBG
p1432
sbatp1433
Rp1434
(dp1435
g13
VVP
p1436
sbag0
(g1
g2
(lp1437
Vand
p1438
atp1439
Rp1440
(dp1441
g13
VCC
p1442
sbag0
(g1
g2
(lp1443
g0
(g1
g2
(lp1444
Vputting
p1445
atp1446
Rp1447
(dp1448
g13
VVBG
p1449
sbag0
(g1
g2
(lp1450
g0
(g1
g2
(lp1451
Vup
p1452
atp1453
Rp1454
(dp1455
g13
VRP
p1456
sbatp1457
Rp1458
(dp1459
g13
VPRT
p1460
sbag0
(g1
g2
(lp1461
g0
(g1
g2
(lp1462
Vtheir
p1463
atp1464
Rp1465
(dp1466
g13
VPRP$
p1467
sbag0
(g1
g2
(lp1468
Vhands
p1469
atp1470
Rp1471
(dp1472
g13
VNNS
p1473
sbatp1474
Rp1475
(dp1476
g13
VNP
p1477
sbag0
(g1
g2
(lp1478
g0
(g1
g2
(lp1479
g0
(g1
g2
(lp1480
g0
(g1
g2
(lp1481
Vto
p1482
atp1483
Rp1484
(dp1485
g13
VTO
p1486
sbag0
(g1
g2
(lp1487
g0
(g1
g2
(lp1488
Vavoid
p1489
atp1490
Rp1491
(dp1492
g13
VVB
p1493
sbag0
(g1
g2
(lp1494
g0
(g1
g2
(lp1495
g0
(g1
g2
(lp1496
Vit
p1497
atp1498
Rp1499
(dp1500
g13
VPRP
p1501
sbatp1502
Rp1503
(dp1504
g13
VNP
p1505
sbag0
(g1
g2
(lp1506
g0
(g1
g2
(lp1507
Vcatching
p1508
atp1509
Rp1510
(dp1511
g13
VVBG
p1512
sbatp1513
Rp1514
(dp1515
g13
VVP
p1516
sbatp1517
Rp1518
(dp1519
g13
VS
p1520
sbatp1521
Rp1522
(dp1523
g13
VVP
p1524
sbatp1525
Rp1526
(dp1527
g13
VVP
p1528
sbag0
(g1
g2
(lp1529
V,
p1530
atp1531
Rp1532
(dp1533
g13
V,
p1534
sbag0
(g1
g2
(lp1535
Vor
p1536
atp1537
Rp1538
(dp1539
g13
VCC
p1540
sbag0
(g1
g2
(lp1541
g0
(g1
g2
(lp1542
Vmaybe
p1543
atp1544
Rp1545
(dp1546
g13
VRB
p1547
sbatp1548
Rp1549
(dp1550
g13
VADVP
p1551
sbag0
(g1
g2
(lp1552
g0
(g1
g2
(lp1553
Vto
p1554
atp1555
Rp1556
(dp1557
g13
VTO
p1558
sbag0
(g1
g2
(lp1559
g0
(g1
g2
(lp1560
Vcatch
p1561
atp1562
Rp1563
(dp1564
g13
VVB
p1565
sbag0
(g1
g2
(lp1566
g0
(g1
g2
(lp1567
g0
(g1
g2
(lp1568
Vwhat
p1569
atp1570
Rp1571
(dp1572
g13
VWP
p1573
sbatp1574
Rp1575
(dp1576
g13
VWHNP
p1577
sbag0
(g1
g2
(lp1578
g0
(g1
g2
(lp1579
g0
(g1
g2
(lp1580
Vhe
p1581
atp1582
Rp1583
(dp1584
g13
VPRP
p1585
sbatp1586
Rp1587
(dp1588
g13
VNP
p1589
sbag0
(g1
g2
(lp1590
g0
(g1
g2
(lp1591
V's
p1592
atp1593
Rp1594
(dp1595
g13
VVBZ
p1596
sbag0
(g1
g2
(lp1597
g0
(g1
g2
(lp1598
Vthrowing
p1599
atp1600
Rp1601
(dp1602
g13
VVBG
p1603
sbag0
(g1
g2
(lp1604
g0
(g1
g2
(lp1605
Vout
p1606
atp1607
Rp1608
(dp1609
g13
VRP
p1610
sbatp1611
Rp1612
(dp1613
g13
VPRT
p1614
sbatp1615
Rp1616
(dp1617
g13
VVP
p1618
sbatp1619
Rp1620
(dp1621
g13
VVP
p1622
sbatp1623
Rp1624
(dp1625
g13
VS
p1626
sbatp1627
Rp1628
(dp1629
g13
VSBAR
p1630
sbatp1631
Rp1632
(dp1633
g13
VVP
p1634
sbatp1635
Rp1636
(dp1637
g13
VVP
p1638
sbatp1639
Rp1640
(dp1641
g13
VVP
p1642
sbatp1643
Rp1644
(dp1645
g13
VS
p1646
sbatp1647
Rp1648
(dp1649
g13
VVP
p1650
sbatp1651
Rp1652
(dp1653
g13
VVP
p1654
sbatp1655
Rp1656
(dp1657
g13
VVP
p1658
sbatp1659
Rp1660
(dp1661
g13
VS
p1662
sbag0
(g1
g2
(lp1663
V,
p1664
atp1665
Rp1666
(dp1667
g13
V,
p1668
sbag0
(g1
g2
(lp1669
g0
(g1
g2
(lp1670
Vit
p1671
atp1672
Rp1673
(dp1674
g13
VPRP
p1675
sbatp1676
Rp1677
(dp1678
g13
VNP
p1679
sbag0
(g1
g2
(lp1680
g0
(g1
g2
(lp1681
Vcould
p1682
atp1683
Rp1684
(dp1685
g13
VMD
p1686
sbag0
(g1
g2
(lp1687
g0
(g1
g2
(lp1688
Vbe
p1689
atp1690
Rp1691
(dp1692
g13
VVB
p1693
sbatp1694
Rp1695
(dp1696
g13
VVP
p1697
sbatp1698
Rp1699
(dp1700
g13
VVP
p1701
sbag0
(g1
g2
(lp1702
V.
p1703
atp1704
Rp1705
(dp1706
g13
V.
p1707
sbatp1708
Rp1709
(dp1710
g13
VS
p1711
sbatp1712
Rp1713
(dp1714
g13
S'id: 6'
p1715
sbag0
(g1
g2
(lp1716
g0
(g1
g2
(lp1717
g0
(g1
g2
(lp1718
VAnd
p1719
atp1720
Rp1721
(dp1722
g13
VCC
p1723
sbag0
(g1
g2
(lp1724
g0
(g1
g2
(lp1725
Vmother
p1726
atp1727
Rp1728
(dp1729
g13
VNN
p1730
sbatp1731
Rp1732
(dp1733
g13
VNP
p1734
sbag0
(g1
g2
(lp1735
g0
(g1
g2
(lp1736
Vis
p1737
atp1738
Rp1739
(dp1740
g13
VVBZ
p1741
sbag0
(g1
g2
(lp1742
g0
(g1
g2
(lp1743
Venjoying
p1744
atp1745
Rp1746
(dp1747
g13
VVBG
p1748
sbag0
(g1
g2
(lp1749
g0
(g1
g2
(lp1750
Vit
p1751
atp1752
Rp1753
(dp1754
g13
VPRP
p1755
sbatp1756
Rp1757
(dp1758
g13
VNP
p1759
sbag0
(g1
g2
(lp1760
g0
(g1
g2
(lp1761
Vas
p1762
atp1763
Rp1764
(dp1765
g13
VRB
p1766
sbag0
(g1
g2
(lp1767
Vwell
p1768
atp1769
Rp1770
(dp1771
g13
VRB
p1772
sbatp1773
Rp1774
(dp1775
g13
VADVP
p1776
sbag0
(g1
g2
(lp1777
V,
p1778
atp1779
Rp1780
(dp1781
g13
V,
p1782
sbag0
(g1
g2
(lp1783
g0
(g1
g2
(lp1784
Vas
p1785
atp1786
Rp1787
(dp1788
g13
VIN
p1789
sbag0
(g1
g2
(lp1790
g0
(g1
g2
(lp1791
Vthe
p1792
atp1793
Rp1794
(dp1795
g13
VDT
p1796
sbag0
(g1
g2
(lp1797
Vlittle
p1798
atp1799
Rp1800
(dp1801
g13
VJJ
p1802
sbag0
(g1
g2
(lp1803
Vchild
p1804
atp1805
Rp1806
(dp1807
g13
VNN
p1808
sbatp1809
Rp1810
(dp1811
g13
VNP
p1812
sbatp1813
Rp1814
(dp1815
g13
VPP
p1816
sbatp1817
Rp1818
(dp1819
g13
VVP
p1820
sbatp1821
Rp1822
(dp1823
g13
VVP
p1824
sbag0
(g1
g2
(lp1825
V.
p1826
atp1827
Rp1828
(dp1829
g13
V.
p1830
sbatp1831
Rp1832
(dp1833
g13
VS
p1834
sbatp1835
Rp1836
(dp1837
g13
S'id: 7'
p1838
sbag0
(g1
g2
(lp1839
g0
(g1
g2
(lp1840
g0
(g1
g2
(lp1841
VAnd
p1842
atp1843
Rp1844
(dp1845
g13
VCC
p1846
sbag0
(g1
g2
(lp1847
g0
(g1
g2
(lp1848
Vcertainly
p1849
atp1850
Rp1851
(dp1852
g13
VRB
p1853
sbatp1854
Rp1855
(dp1856
g13
VADVP
p1857
sbag0
(g1
g2
(lp1858
g0
(g1
g2
(lp1859
Vit
p1860
atp1861
Rp1862
(dp1863
g13
VPRP
p1864
sbatp1865
Rp1866
(dp1867
g13
VNP
p1868
sbag0
(g1
g2
(lp1869
g0
(g1
g2
(lp1870
Vappears
p1871
atp1872
Rp1873
(dp1874
g13
VVBZ
p1875
sbag0
(g1
g2
(lp1876
g0
(g1
g2
(lp1877
Vthat
p1878
atp1879
Rp1880
(dp1881
g13
VIN
p1882
sbag0
(g1
g2
(lp1883
g0
(g1
g2
(lp1884
g0
(g1
g2
(lp1885
Vthey
p1886
atp1887
Rp1888
(dp1889
g13
VPRP
p1890
sbatp1891
Rp1892
(dp1893
g13
VNP
p1894
sbag0
(g1
g2
(lp1895
g0
(g1
g2
(lp1896
Vare
p1897
atp1898
Rp1899
(dp1900
g13
VVBP
p1901
sbag0
(g1
g2
(lp1902
g0
(g1
g2
(lp1903
Vof
p1904
atp1905
Rp1906
(dp1907
g13
VIN
p1908
sbag0
(g1
g2
(lp1909
g0
(g1
g2
(lp1910
Vtwo
p1911
atp1912
Rp1913
(dp1914
g13
VCD
p1915
sbag0
(g1
g2
(lp1916
Vdifferent
p1917
atp1918
Rp1919
(dp1920
g13
VJJ
p1921
sbag0
(g1
g2
(lp1922
Vethnicities
p1923
atp1924
Rp1925
(dp1926
g13
VNNS
p1927
sbatp1928
Rp1929
(dp1930
g13
VNP
p1931
sbatp1932
Rp1933
(dp1934
g13
VPP
p1935
sbatp1936
Rp1937
(dp1938
g13
VVP
p1939
sbatp1940
Rp1941
(dp1942
g13
VS
p1943
sbatp1944
Rp1945
(dp1946
g13
VSBAR
p1947
sbatp1948
Rp1949
(dp1950
g13
VVP
p1951
sbag0
(g1
g2
(lp1952
V.
p1953
atp1954
Rp1955
(dp1956
g13
V.
p1957
sbatp1958
Rp1959
(dp1960
g13
VS
p1961
sbatp1962
Rp1963
(dp1964
g13
S'id: 8'
p1965
sbag0
(g1
g2
(lp1966
g0
(g1
g2
(lp1967
g0
(g1
g2
(lp1968
VAnd
p1969
atp1970
Rp1971
(dp1972
g13
VCC
p1973
sbag0
(g1
g2
(lp1974
g0
(g1
g2
(lp1975
Vin
p1976
atp1977
Rp1978
(dp1979
g13
VIN
p1980
sbag0
(g1
g2
(lp1981
g0
(g1
g2
(lp1982
g0
(g1
g2
(lp1983
Vthe
p1984
atp1985
Rp1986
(dp1987
g13
VDT
p1988
sbag0
(g1
g2
(lp1989
Vcenter
p1990
atp1991
Rp1992
(dp1993
g13
VNN
p1994
sbatp1995
Rp1996
(dp1997
g13
VNP
p1998
sbag0
(g1
g2
(lp1999
g0
(g1
g2
(lp2000
Vof
p2001
atp2002
Rp2003
(dp2004
g13
VIN
p2005
sbag0
(g1
g2
(lp2006
g0
(g1
g2
(lp2007
g0
(g1
g2
(lp2008
Vthe
p2009
atp2010
Rp2011
(dp2012
g13
VDT
p2013
sbag0
(g1
g2
(lp2014
Vring
p2015
atp2016
Rp2017
(dp2018
g13
VNN
p2019
sbatp2020
Rp2021
(dp2022
g13
VNP
p2023
sbag0
(g1
g2
(lp2024
g0
(g1
g2
(lp2025
g0
(g1
g2
(lp2026
g0
(g1
g2
(lp2027
Vis
p2028
atp2029
Rp2030
(dp2031
g13
VVBZ
p2032
sbag0
(g1
g2
(lp2033
g0
(g1
g2
(lp2034
g0
(g1
g2
(lp2035
Vthe
p2036
atp2037
Rp2038
(dp2039
g13
VDT
p2040
sbag0
(g1
g2
(lp2041
Vlady
p2042
atp2043
Rp2044
(dp2045
g13
VNN
p2046
sbatp2047
Rp2048
(dp2049
g13
VNP
p2050
sbag0
(g1
g2
(lp2051
g0
(g1
g2
(lp2052
Von
p2053
atp2054
Rp2055
(dp2056
g13
VIN
p2057
sbag0
(g1
g2
(lp2058
g0
(g1
g2
(lp2059
Va
p2060
atp2061
Rp2062
(dp2063
g13
VDT
p2064
sbag0
(g1
g2
(lp2065
Vhorse
p2066
atp2067
Rp2068
(dp2069
g13
VNN
p2070
sbatp2071
Rp2072
(dp2073
g13
VNP
p2074
sbatp2075
Rp2076
(dp2077
g13
VPP
p2078
sbatp2079
Rp2080
(dp2081
g13
VNP
p2082
sbag0
(g1
g2
(lp2083
V,
p2084
atp2085
Rp2086
(dp2087
g13
V,
p2088
sbag0
(g1
g2
(lp2089
g0
(g1
g2
(lp2090
g0
(g1
g2
(lp2091
Vprobably
p2092
atp2093
Rp2094
(dp2095
g13
VRB
p2096
sbatp2097
Rp2098
(dp2099
g13
VADVP
p2100
sbag0
(g1
g2
(lp2101
g0
(g1
g2
(lp2102
g0
(g1
g2
(lp2103
Vwhat
p2104
atp2105
Rp2106
(dp2107
g13
VWP
p2108
sbatp2109
Rp2110
(dp2111
g13
VWHNP
p2112
sbag0
(g1
g2
(lp2113
g0
(g1
g2
(lp2114
Vthey
p2115
atp2116
Rp2117
(dp2118
g13
VPRP
p2119
sbatp2120
Rp2121
(dp2122
g13
VNP
p2123
sbatp2124
Rp2125
(dp2126
g13
VWHNP
p2127
sbag0
(g1
g2
(lp2128
g0
(g1
g2
(lp2129
g0
(g1
g2
(lp2130
Vwe
p2131
atp2132
Rp2133
(dp2134
g13
VPRP
p2135
sbatp2136
Rp2137
(dp2138
g13
VNP
p2139
sbag0
(g1
g2
(lp2140
g0
(g1
g2
(lp2141
Vused
p2142
atp2143
Rp2144
(dp2145
g13
VVBD
p2146
sbag0
(g1
g2
(lp2147
g0
(g1
g2
(lp2148
g0
(g1
g2
(lp2149
Vto
p2150
atp2151
Rp2152
(dp2153
g13
VTO
p2154
sbag0
(g1
g2
(lp2155
g0
(g1
g2
(lp2156
Vsay
p2157
atp2158
Rp2159
(dp2160
g13
VVB
p2161
sbag0
(g1
g2
(lp2162
g0
(g1
g2
(lp2163
Vin
p2164
atp2165
Rp2166
(dp2167
g13
VIN
p2168
sbag0
(g1
g2
(lp2169
g0
(g1
g2
(lp2170
Vmy
p2171
atp2172
Rp2173
(dp2174
g13
VPRP$
p2175
sbag0
(g1
g2
(lp2176
Vday
p2177
atp2178
Rp2179
(dp2180
g13
VNN
p2181
sbag0
(g1
g2
(lp2182
Vlady
p2183
atp2184
Rp2185
(dp2186
g13
VNN
p2187
sbag0
(g1
g2
(lp2188
Vgodiva
p2189
atp2190
Rp2191
(dp2192
g13
VNN
p2193
sbatp2194
Rp2195
(dp2196
g13
VNP
p2197
sbatp2198
Rp2199
(dp2200
g13
VPP
p2201
sbag0
(g1
g2
(lp2202
g0
(g1
g2
(lp2203
Von
p2204
atp2205
Rp2206
(dp2207
g13
VIN
p2208
sbag0
(g1
g2
(lp2209
g0
(g1
g2
(lp2210
Vthe
p2211
atp2212
Rp2213
(dp2214
g13
VDT
p2215
sbag0
(g1
g2
(lp2216
Vhorse
p2217
atp2218
Rp2219
(dp2220
g13
VNN
p2221
sbatp2222
Rp2223
(dp2224
g13
VNP
p2225
sbatp2226
Rp2227
(dp2228
g13
VPP
p2229
sbag0
(g1
g2
(lp2230
V,
p2231
atp2232
Rp2233
(dp2234
g13
V,
p2235
sbag0
(g1
g2
(lp2236
g0
(g1
g2
(lp2237
Vwith
p2238
atp2239
Rp2240
(dp2241
g13
VIN
p2242
sbag0
(g1
g2
(lp2243
g0
(g1
g2
(lp2244
g0
(g1
g2
(lp2245
Vthis
p2246
atp2247
Rp2248
(dp2249
g13
VDT
p2250
sbag0
(g1
g2
(lp2251
Vplumage
p2252
atp2253
Rp2254
(dp2255
g13
VNN
p2256
sbatp2257
Rp2258
(dp2259
g13
VNP
p2260
sbag0
(g1
g2
(lp2261
g0
(g1
g2
(lp2262
g0
(g1
g2
(lp2263
Vthat
p2264
atp2265
Rp2266
(dp2267
g13
VWDT
p2268
sbatp2269
Rp2270
(dp2271
g13
VWHNP
p2272
sbag0
(g1
g2
(lp2273
g0
(g1
g2
(lp2274
g0
(g1
g2
(lp2275
Vis
p2276
atp2277
Rp2278
(dp2279
g13
VVBZ
p2280
sbag0
(g1
g2
(lp2281
g0
(g1
g2
(lp2282
Vjust
p2283
atp2284
Rp2285
(dp2286
g13
VRB
p2287
sbatp2288
Rp2289
(dp2290
g13
VADVP
p2291
sbatp2292
Rp2293
(dp2294
g13
VVP
p2295
sbatp2296
Rp2297
(dp2298
g13
VS
p2299
sbatp2300
Rp2301
(dp2302
g13
VSBAR
p2303
sbatp2304
Rp2305
(dp2306
g13
VNP
p2307
sbatp2308
Rp2309
(dp2310
g13
VPP
p2311
sbatp2312
Rp2313
(dp2314
g13
VVP
p2315
sbatp2316
Rp2317
(dp2318
g13
VVP
p2319
sbatp2320
Rp2321
(dp2322
g13
VS
p2323
sbatp2324
Rp2325
(dp2326
g13
VVP
p2327
sbatp2328
Rp2329
(dp2330
g13
VS
p2331
sbatp2332
Rp2333
(dp2334
g13
VSBAR
p2335
sbatp2336
Rp2337
(dp2338
g13
VVP
p2339
sbatp2340
Rp2341
(dp2342
g13
VS
p2343
sbatp2344
Rp2345
(dp2346
g13
VSBAR
p2347
sbatp2348
Rp2349
(dp2350
g13
VNP
p2351
sbatp2352
Rp2353
(dp2354
g13
VPP
p2355
sbatp2356
Rp2357
(dp2358
g13
VNP
p2359
sbatp2360
Rp2361
(dp2362
g13
VPP
p2363
sbag0
(g1
g2
(lp2364
V,
p2365
atp2366
Rp2367
(dp2368
g13
V,
p2369
sbag0
(g1
g2
(lp2370
g0
(g1
g2
(lp2371
Vis
p2372
atp2373
Rp2374
(dp2375
g13
VVBZ
p2376
sbag0
(g1
g2
(lp2377
g0
(g1
g2
(lp2378
Vjust
p2379
atp2380
Rp2381
(dp2382
g13
VRB
p2383
sbatp2384
Rp2385
(dp2386
g13
VADVP
p2387
sbag0
(g1
g2
(lp2388
g0
(g1
g2
(lp2389
Vbeing
p2390
atp2391
Rp2392
(dp2393
g13
VVBG
p2394
sbag0
(g1
g2
(lp2395
g0
(g1
g2
(lp2396
Venjoyed
p2397
atp2398
Rp2399
(dp2400
g13
VVBN
p2401
sbag0
(g1
g2
(lp2402
g0
(g1
g2
(lp2403
Vby
p2404
atp2405
Rp2406
(dp2407
g13
VIN
p2408
sbag0
(g1
g2
(lp2409
g0
(g1
g2
(lp2410
g0
(g1
g2
(lp2411
Vthe
p2412
atp2413
Rp2414
(dp2415
g13
VDT
p2416
sbag0
(g1
g2
(lp2417
Vcrowd
p2418
atp2419
Rp2420
(dp2421
g13
VNN
p2422
sbatp2423
Rp2424
(dp2425
g13
VNP
p2426
sbag0
(g1
g2
(lp2427
g0
(g1
g2
(lp2428
Von
p2429
atp2430
Rp2431
(dp2432
g13
VIN
p2433
sbag0
(g1
g2
(lp2434
g0
(g1
g2
(lp2435
Vthe
p2436
atp2437
Rp2438
(dp2439
g13
VDT
p2440
sbag0
(g1
g2
(lp2441
Vother
p2442
atp2443
Rp2444
(dp2445
g13
VJJ
p2446
sbag0
(g1
g2
(lp2447
Vside
p2448
atp2449
Rp2450
(dp2451
g13
VNN
p2452
sbatp2453
Rp2454
(dp2455
g13
VNP
p2456
sbatp2457
Rp2458
(dp2459
g13
VPP
p2460
sbatp2461
Rp2462
(dp2463
g13
VNP
p2464
sbatp2465
Rp2466
(dp2467
g13
VPP
p2468
sbatp2469
Rp2470
(dp2471
g13
VVP
p2472
sbatp2473
Rp2474
(dp2475
g13
VVP
p2476
sbatp2477
Rp2478
(dp2479
g13
VVP
p2480
sbag0
(g1
g2
(lp2481
V.
p2482
atp2483
Rp2484
(dp2485
g13
V.
p2486
sbatp2487
Rp2488
(dp2489
g13
VS
p2490
sbatp2491
Rp2492
(dp2493
g13
S'id: 9'
p2494
sbag0
(g1
g2
(lp2495
g0
(g1
g2
(lp2496
g0
(g1
g2
(lp2497
g0
(g1
g2
(lp2498
VObviously
p2499
atp2500
Rp2501
(dp2502
g13
VRB
p2503
sbatp2504
Rp2505
(dp2506
g13
VADVP
p2507
sbag0
(g1
g2
(lp2508
g0
(g1
g2
(lp2509
Vof
p2510
atp2511
Rp2512
(dp2513
g13
VIN
p2514
sbag0
(g1
g2
(lp2515
g0
(g1
g2
(lp2516
Vall
p2517
atp2518
Rp2519
(dp2520
g13
VDT
p2521
sbag0
(g1
g2
(lp2522
Vages
p2523
atp2524
Rp2525
(dp2526
g13
VNNS
p2527
sbatp2528
Rp2529
(dp2530
g13
VNP
p2531
sbatp2532
Rp2533
(dp2534
g13
VPP
p2535
sbag0
(g1
g2
(lp2536
g0
(g1
g2
(lp2537
Vbecause
p2538
atp2539
Rp2540
(dp2541
g13
VIN
p2542
sbag0
(g1
g2
(lp2543
g0
(g1
g2
(lp2544
Vof
p2545
atp2546
Rp2547
(dp2548
g13
VIN
p2549
sbag0
(g1
g2
(lp2550
g0
(g1
g2
(lp2551
Vthe
p2552
atp2553
Rp2554
(dp2555
g13
VDT
p2556
sbag0
(g1
g2
(lp2557
Vsize
p2558
atp2559
Rp2560
(dp2561
g13
VNN
p2562
sbatp2563
Rp2564
(dp2565
g13
VNP
p2566
sbatp2567
Rp2568
(dp2569
g13
VPP
p2570
sbatp2571
Rp2572
(dp2573
g13
VPP
p2574
sbag0
(g1
g2
(lp2575
V,
p2576
atp2577
Rp2578
(dp2579
g13
V,
p2580
sbag0
(g1
g2
(lp2581
g0
(g1
g2
(lp2582
Vlooks
p2583
atp2584
Rp2585
(dp2586
g13
VVBZ
p2587
sbag0
(g1
g2
(lp2588
g0
(g1
g2
(lp2589
Vlike
p2590
atp2591
Rp2592
(dp2593
g13
VIN
p2594
sbag0
(g1
g2
(lp2595
g0
(g1
g2
(lp2596
g0
(g1
g2
(lp2597
Vboth
p2598
atp2599
Rp2600
(dp2601
g13
VDT
p2602
sbag0
(g1
g2
(lp2603
Vmen
p2604
atp2605
Rp2606
(dp2607
g13
VNNS
p2608
sbatp2609
Rp2610
(dp2611
g13
VNP
p2612
sbag0
(g1
g2
(lp2613
V,
p2614
atp2615
Rp2616
(dp2617
g13
V,
p2618
sbag0
(g1
g2
(lp2619
g0
(g1
g2
(lp2620
Vwomen
p2621
atp2622
Rp2623
(dp2624
g13
VNNS
p2625
sbatp2626
Rp2627
(dp2628
g13
VNP
p2629
sbag0
(g1
g2
(lp2630
V,
p2631
atp2632
Rp2633
(dp2634
g13
V,
p2635
sbag0
(g1
g2
(lp2636
Vand
p2637
atp2638
Rp2639
(dp2640
g13
VCC
p2641
sbag0
(g1
g2
(lp2642
g0
(g1
g2
(lp2643
Vchildren
p2644
atp2645
Rp2646
(dp2647
g13
VNNS
p2648
sbatp2649
Rp2650
(dp2651
g13
VNP
p2652
sbatp2653
Rp2654
(dp2655
g13
VNP
p2656
sbatp2657
Rp2658
(dp2659
g13
VPP
p2660
sbatp2661
Rp2662
(dp2663
g13
VVP
p2664
sbag0
(g1
g2
(lp2665
V.
p2666
atp2667
Rp2668
(dp2669
g13
V.
p2670
sbatp2671
Rp2672
(dp2673
g13
VS
p2674
sbatp2675
Rp2676
(dp2677
g13
S'id: 10'
p2678
sbag0
(g1
g2
(lp2679
g0
(g1
g2
(lp2680
g0
(g1
g2
(lp2681
VAnd
p2682
atp2683
Rp2684
(dp2685
g13
VCC
p2686
sbag0
(g1
g2
(lp2687
g0
(g1
g2
(lp2688
Von
p2689
atp2690
Rp2691
(dp2692
g13
VIN
p2693
sbag0
(g1
g2
(lp2694
g0
(g1
g2
(lp2695
g0
(g1
g2
(lp2696
g0
(g1
g2
(lp2697
Vtop
p2698
atp2699
Rp2700
(dp2701
g13
VNN
p2702
sbatp2703
Rp2704
(dp2705
g13
VNP
p2706
sbag0
(g1
g2
(lp2707
g0
(g1
g2
(lp2708
Vis
p2709
atp2710
Rp2711
(dp2712
g13
VVBZ
p2713
sbag0
(g1
g2
(lp2714
g0
(g1
g2
(lp2715
Vthe
p2716
atp2717
Rp2718
(dp2719
g13
VDT
p2720
sbag0
(g1
g2
(lp2721
Vtight
p2722
atp2723
Rp2724
(dp2725
g13
VJJ
p2726
sbag0
(g1
g2
(lp2727
Vrope
p2728
atp2729
Rp2730
(dp2731
g13
VNN
p2732
sbag0
(g1
g2
(lp2733
Vwalker
p2734
atp2735
Rp2736
(dp2737
g13
VNN
p2738
sbatp2739
Rp2740
(dp2741
g13
VNP
p2742
sbatp2743
Rp2744
(dp2745
g13
VVP
p2746
sbatp2747
Rp2748
(dp2749
g13
VS
p2750
sbag0
(g1
g2
(lp2751
V,
p2752
atp2753
Rp2754
(dp2755
g13
V,
p2756
sbag0
(g1
g2
(lp2757
Vand
p2758
atp2759
Rp2760
(dp2761
g13
VCC
p2762
sbag0
(g1
g2
(lp2763
g0
(g1
g2
(lp2764
g0
(g1
g2
(lp2765
Vhe
p2766
atp2767
Rp2768
(dp2769
g13
VPRP
p2770
sbatp2771
Rp2772
(dp2773
g13
VNP
p2774
sbag0
(g1
g2
(lp2775
g0
(g1
g2
(lp2776
Vis
p2777
atp2778
Rp2779
(dp2780
g13
VVBZ
p2781
sbag0
(g1
g2
(lp2782
g0
(g1
g2
(lp2783
Vvery
p2784
atp2785
Rp2786
(dp2787
g13
VRB
p2788
sbag0
(g1
g2
(lp2789
Vgingerly
p2790
atp2791
Rp2792
(dp2793
g13
VRB
p2794
sbatp2795
Rp2796
(dp2797
g13
VADVP
p2798
sbag0
(g1
g2
(lp2799
g0
(g1
g2
(lp2800
Vstepping
p2801
atp2802
Rp2803
(dp2804
g13
VVBG
p2805
sbag0
(g1
g2
(lp2806
g0
(g1
g2
(lp2807
Vacross
p2808
atp2809
Rp2810
(dp2811
g13
VIN
p2812
sbag0
(g1
g2
(lp2813
g0
(g1
g2
(lp2814
g0
(g1
g2
(lp2815
Vthe
p2816
atp2817
Rp2818
(dp2819
g13
VDT
p2820
sbag0
(g1
g2
(lp2821
Vbalance
p2822
atp2823
Rp2824
(dp2825
g13
VNN
p2826
sbatp2827
Rp2828
(dp2829
g13
VNP
p2830
sbag0
(g1
g2
(lp2831
g0
(g1
g2
(lp2832
Vbe
p2833
atp2834
Rp2835
(dp2836
g13
VVB
p2837
sbag0
(g1
g2
(lp2838
V,
p2839
atp2840
Rp2841
(dp2842
g13
V,
p2843
sbag0
(g1
g2
(lp2844
g0
(g1
g2
(lp2845
Vacross
p2846
atp2847
Rp2848
(dp2849
g13
VIN
p2850
sbag0
(g1
g2
(lp2851
g0
(g1
g2
(lp2852
Vthe
p2853
atp2854
Rp2855
(dp2856
g13
VDT
p2857
sbag0
(g1
g2
(lp2858
Vtight
p2859
atp2860
Rp2861
(dp2862
g13
VJJ
p2863
sbag0
(g1
g2
(lp2864
Vrope
p2865
atp2866
Rp2867
(dp2868
g13
VNN
p2869
sbatp2870
Rp2871
(dp2872
g13
VNP
p2873
sbatp2874
Rp2875
(dp2876
g13
VPP
p2877
sbag0
(g1
g2
(lp2878
V,
p2879
atp2880
Rp2881
(dp2882
g13
V,
p2883
sbag0
(g1
g2
(lp2884
g0
(g1
g2
(lp2885
Vwith
p2886
atp2887
Rp2888
(dp2889
g13
VIN
p2890
sbag0
(g1
g2
(lp2891
g0
(g1
g2
(lp2892
Vhis
p2893
atp2894
Rp2895
(dp2896
g13
VPRP$
p2897
sbatp2898
Rp2899
(dp2900
g13
VNP
p2901
sbatp2902
Rp2903
(dp2904
g13
VPP
p2905
sbatp2906
Rp2907
(dp2908
g13
VVP
p2909
sbatp2910
Rp2911
(dp2912
g13
VNP
p2913
sbatp2914
Rp2915
(dp2916
g13
VPP
p2917
sbatp2918
Rp2919
(dp2920
g13
VVP
p2921
sbatp2922
Rp2923
(dp2924
g13
VVP
p2925
sbatp2926
Rp2927
(dp2928
g13
VS
p2929
sbatp2930
Rp2931
(dp2932
g13
VS
p2933
sbatp2934
Rp2935
(dp2936
g13
VPP
p2937
sbag0
(g1
g2
(lp2938
V,
p2939
atp2940
Rp2941
(dp2942
g13
V,
p2943
sbag0
(g1
g2
(lp2944
g0
(g1
g2
(lp2945
VI
p2946
atp2947
Rp2948
(dp2949
g13
VPRP
p2950
sbatp2951
Rp2952
(dp2953
g13
VNP
p2954
sbag0
(g1
g2
(lp2955
g0
(g1
g2
(lp2956
Vguess
p2957
atp2958
Rp2959
(dp2960
g13
VVBP
p2961
sbag0
(g1
g2
(lp2962
g0
(g1
g2
(lp2963
g0
(g1
g2
(lp2964
Vyou
p2965
atp2966
Rp2967
(dp2968
g13
VPRP
p2969
sbatp2970
Rp2971
(dp2972
g13
VNP
p2973
sbag0
(g1
g2
(lp2974
g0
(g1
g2
(lp2975
Vcall
p2976
atp2977
Rp2978
(dp2979
g13
VVB
p2980
sbag0
(g1
g2
(lp2981
g0
(g1
g2
(lp2982
Vthat
p2983
atp2984
Rp2985
(dp2986
g13
VDT
p2987
sbag0
(g1
g2
(lp2988
Vbalancing
p2989
atp2990
Rp2991
(dp2992
g13
VVBG
p2993
sbag0
(g1
g2
(lp2994
Vstick
p2995
atp2996
Rp2997
(dp2998
g13
VNN
p2999
sbatp3000
Rp3001
(dp3002
g13
VNP
p3003
sbatp3004
Rp3005
(dp3006
g13
VVP
p3007
sbatp3008
Rp3009
(dp3010
g13
VS
p3011
sbatp3012
Rp3013
(dp3014
g13
VVP
p3015
sbag0
(g1
g2
(lp3016
V.
p3017
atp3018
Rp3019
(dp3020
g13
V.
p3021
sbatp3022
Rp3023
(dp3024
g13
VS
p3025
sbatp3026
Rp3027
(dp3028
g13
S'id: 11'
p3029
sbag0
(g1
g2
(lp3030
g0
(g1
g2
(lp3031
g0
(g1
g2
(lp3032
VAnd
p3033
atp3034
Rp3035
(dp3036
g13
VCC
p3037
sbag0
(g1
g2
(lp3038
g0
(g1
g2
(lp3039
Vhe
p3040
atp3041
Rp3042
(dp3043
g13
VPRP
p3044
sbatp3045
Rp3046
(dp3047
g13
VNP
p3048
sbag0
(g1
g2
(lp3049
g0
(g1
g2
(lp3050
Vlooks
p3051
atp3052
Rp3053
(dp3054
g13
VVBZ
p3055
sbag0
(g1
g2
(lp3056
g0
(g1
g2
(lp3057
g0
(g1
g2
(lp3058
Vto
p3059
atp3060
Rp3061
(dp3062
g13
VTO
p3063
sbag0
(g1
g2
(lp3064
g0
(g1
g2
(lp3065
Vbe
p3066
atp3067
Rp3068
(dp3069
g13
VVB
p3070
sbag0
(g1
g2
(lp3071
g0
(g1
g2
(lp3072
Vvery
p3073
atp3074
Rp3075
(dp3076
g13
VRB
p3077
sbag0
(g1
g2
(lp3078
Vyoung
p3079
atp3080
Rp3081
(dp3082
g13
VJJ
p3083
sbatp3084
Rp3085
(dp3086
g13
VADJP
p3087
sbatp3088
Rp3089
(dp3090
g13
VVP
p3091
sbatp3092
Rp3093
(dp3094
g13
VVP
p3095
sbatp3096
Rp3097
(dp3098
g13
VS
p3099
sbatp3100
Rp3101
(dp3102
g13
VVP
p3103
sbag0
(g1
g2
(lp3104
V.
p3105
atp3106
Rp3107
(dp3108
g13
V.
p3109
sbatp3110
Rp3111
(dp3112
g13
VS
p3113
sbatp3114
Rp3115
(dp3116
g13
S'id: 12'
p3117
sbag0
(g1
g2
(lp3118
g0
(g1
g2
(lp3119
g0
(g1
g2
(lp3120
VAnd
p3121
atp3122
Rp3123
(dp3124
g13
VCC
p3125
sbag0
(g1
g2
(lp3126
g0
(g1
g2
(lp3127
Vif
p3128
atp3129
Rp3130
(dp3131
g13
VIN
p3132
sbag0
(g1
g2
(lp3133
g0
(g1
g2
(lp3134
g0
(g1
g2
(lp3135
Vthis
p3136
atp3137
Rp3138
(dp3139
g13
VDT
p3140
sbatp3141
Rp3142
(dp3143
g13
VNP
p3144
sbag0
(g1
g2
(lp3145
g0
(g1
g2
(lp3146
g0
(g1
g2
(lp3147
g0
(g1
g2
(lp3148
Vwas
p3149
atp3150
Rp3151
(dp3152
g13
VVBD
p3153
sbag0
(g1
g2
(lp3154
g0
(g1
g2
(lp3155
Vin
p3156
atp3157
Rp3158
(dp3159
g13
VIN
p3160
sbatp3161
Rp3162
(dp3163
g13
VPP
p3164
sbatp3165
Rp3166
(dp3167
g13
VVP
p3168
sbatp3169
Rp3170
(dp3171
g13
VS
p3172
sbatp3173
Rp3174
(dp3175
g13
VSBAR
p3176
sbatp3177
Rp3178
(dp3179
g13
VNP
p3180
sbatp3181
Rp3182
(dp3183
g13
VPP
p3184
sbatp3185
Rp3186
(dp3187
g13
VFRAG
p3188
sbatp3189
Rp3190
(dp3191
g13
S'id: 13'
p3192
sbatp3193
Rp3194
(dp3195
g13
S'sentences'
p3196
sb.