ccopy_reg
_reconstructor
p0
(cnltk.tree
Tree
p1
c__builtin__
list
p2
(lp3
g0
(g1
g2
(lp4
g0
(g1
g2
(lp5
g0
(g1
g2
(lp6
VOk
p7
atp8
Rp9
(dp10
S'_label'
p11
VNN
p12
sbag0
(g1
g2
(lp13
V.
p14
atp15
Rp16
(dp17
g11
V.
p18
sbatp19
Rp20
(dp21
g11
VNP
p22
sbatp23
Rp24
(dp25
g11
S'id: 0'
p26
sbag0
(g1
g2
(lp27
g0
(g1
g2
(lp28
g0
(g1
g2
(lp29
g0
(g1
g2
(lp30
VCookie
p31
atp32
Rp33
(dp34
g11
VNN
p35
sbatp36
Rp37
(dp38
g11
VNP
p39
sbag0
(g1
g2
(lp40
g0
(g1
g2
(lp41
Vdar
p42
atp43
Rp44
(dp45
g11
VNN
p46
sbatp47
Rp48
(dp49
g11
VNP
p50
sbag0
(g1
g2
(lp51
V.
p52
atp53
Rp54
(dp55
g11
V.
p56
sbatp57
Rp58
(dp59
g11
VNP
p60
sbatp61
Rp62
(dp63
g11
S'id: 1'
p64
sbag0
(g1
g2
(lp65
g0
(g1
g2
(lp66
g0
(g1
g2
(lp67
g0
(g1
g2
(lp68
VIt
p69
atp70
Rp71
(dp72
g11
VPRP
p73
sbatp74
Rp75
(dp76
g11
VNP
p77
sbag0
(g1
g2
(lp78
g0
(g1
g2
(lp79
V's
p80
atp81
Rp82
(dp83
g11
VVBZ
p84
sbag0
(g1
g2
(lp85
g0
(g1
g2
(lp86
g0
(g1
g2
(lp87
Vcookie
p88
atp89
Rp90
(dp91
g11
VNN
p92
sbatp93
Rp94
(dp95
g11
VNP
p96
sbag0
(g1
g2
(lp97
g0
(g1
g2
(lp98
Vin
p99
atp100
Rp101
(dp102
g11
VIN
p103
sbatp104
Rp105
(dp106
g11
VPP
p107
sbatp108
Rp109
(dp110
g11
VNP
p111
sbag0
(g1
g2
(lp112
V,
p113
atp114
Rp115
(dp116
g11
V,
p117
sbag0
(g1
g2
(lp118
g0
(g1
g2
(lp119
Vin
p120
atp121
Rp122
(dp123
g11
VIN
p124
sbag0
(g1
g2
(lp125
g0
(g1
g2
(lp126
Vit
p127
atp128
Rp129
(dp130
g11
VPRP
p131
sbatp132
Rp133
(dp134
g11
VNP
p135
sbatp136
Rp137
(dp138
g11
VPP
p139
sbatp140
Rp141
(dp142
g11
VVP
p143
sbag0
(g1
g2
(lp144
V.
p145
atp146
Rp147
(dp148
g11
V.
p149
sbatp150
Rp151
(dp152
g11
VS
p153
sbatp154
Rp155
(dp156
g11
S'id: 2'
p157
sbag0
(g1
g2
(lp158
g0
(g1
g2
(lp159
g0
(g1
g2
(lp160
g0
(g1
g2
(lp161
VIt
p162
atp163
Rp164
(dp165
g11
VPRP
p166
sbatp167
Rp168
(dp169
g11
VNP
p170
sbag0
(g1
g2
(lp171
g0
(g1
g2
(lp172
V,
p173
atp174
Rp175
(dp176
g11
V,
p177
sbag0
(g1
g2
(lp178
g0
(g1
g2
(lp179
g0
(g1
g2
(lp180
Vit
p181
atp182
Rp183
(dp184
g11
VPRP
p185
sbatp186
Rp187
(dp188
g11
VNP
p189
sbag0
(g1
g2
(lp190
V,
p191
atp192
Rp193
(dp194
g11
V,
p195
sbag0
(g1
g2
(lp196
g0
(g1
g2
(lp197
Vit
p198
atp199
Rp200
(dp201
g11
VPRP
p202
sbatp203
Rp204
(dp205
g11
VNP
p206
sbag0
(g1
g2
(lp207
g0
(g1
g2
(lp208
Vhave
p209
atp210
Rp211
(dp212
g11
VVBP
p213
sbatp214
Rp215
(dp216
g11
VVP
p217
sbatp218
Rp219
(dp220
g11
VS
p221
sbag0
(g1
g2
(lp222
V,
p223
atp224
Rp225
(dp226
g11
V,
p227
sbatp228
Rp229
(dp230
g11
VPRN
p231
sbag0
(g1
g2
(lp232
g0
(g1
g2
(lp233
Vfoil
p234
atp235
Rp236
(dp237
g11
VVBP
p238
sbag0
(g1
g2
(lp239
V,
p240
atp241
Rp242
(dp243
g11
V,
p244
sbag0
(g1
g2
(lp245
Vfall
p246
atp247
Rp248
(dp249
g11
VVBP
p250
sbag0
(g1
g2
(lp251
V,
p252
atp253
Rp254
(dp255
g11
V,
p256
sbag0
(g1
g2
(lp257
g0
(g1
g2
(lp258
g0
(g1
g2
(lp259
Vit
p260
atp261
Rp262
(dp263
g11
VPRP
p264
sbatp265
Rp266
(dp267
g11
VNP
p268
sbag0
(g1
g2
(lp269
V,
p270
atp271
Rp272
(dp273
g11
V,
p274
sbag0
(g1
g2
(lp275
g0
(g1
g2
(lp276
Vit
p277
atp278
Rp279
(dp280
g11
VPRP
p281
sbatp282
Rp283
(dp284
g11
VNP
p285
sbag0
(g1
g2
(lp286
V,
p287
atp288
Rp289
(dp290
g11
V,
p291
sbag0
(g1
g2
(lp292
g0
(g1
g2
(lp293
Vit
p294
atp295
Rp296
(dp297
g11
VPRP
p298
sbatp299
Rp300
(dp301
g11
VNP
p302
sbag0
(g1
g2
(lp303
g0
(g1
g2
(lp304
V's
p305
atp306
Rp307
(dp308
g11
VVBZ
p309
sbag0
(g1
g2
(lp310
g0
(g1
g2
(lp311
Vfalling
p312
atp313
Rp314
(dp315
g11
VVBG
p316
sbag0
(g1
g2
(lp317
g0
(g1
g2
(lp318
Von
p319
atp320
Rp321
(dp322
g11
VRP
p323
sbatp324
Rp325
(dp326
g11
VPRT
p327
sbag0
(g1
g2
(lp328
V,
p329
atp330
Rp331
(dp332
g11
V,
p333
sbag0
(g1
g2
(lp334
g0
(g1
g2
(lp335
g0
(g1
g2
(lp336
Vit
p337
atp338
Rp339
(dp340
g11
VPRP
p341
sbatp342
Rp343
(dp344
g11
VNP
p345
sbag0
(g1
g2
(lp346
g0
(g1
g2
(lp347
Vfalling
p348
atp349
Rp350
(dp351
g11
VVBG
p352
sbag0
(g1
g2
(lp353
g0
(g1
g2
(lp354
Vdown
p355
atp356
Rp357
(dp358
g11
VRP
p359
sbatp360
Rp361
(dp362
g11
VPRT
p363
sbatp364
Rp365
(dp366
g11
VVP
p367
sbatp368
Rp369
(dp370
g11
VS
p371
sbatp372
Rp373
(dp374
g11
VVP
p375
sbatp376
Rp377
(dp378
g11
VVP
p379
sbatp380
Rp381
(dp382
g11
VS
p383
sbatp384
Rp385
(dp386
g11
VVP
p387
sbag0
(g1
g2
(lp388
V.
p389
atp390
Rp391
(dp392
g11
V.
p393
sbatp394
Rp395
(dp396
g11
VS
p397
sbatp398
Rp399
(dp400
g11
S'id: 3'
p401
sbag0
(g1
g2
(lp402
g0
(g1
g2
(lp403
g0
(g1
g2
(lp404
g0
(g1
g2
(lp405
VGirl
p406
atp407
Rp408
(dp409
g11
VNNP
p410
sbatp411
Rp412
(dp413
g11
VNP
p414
sbag0
(g1
g2
(lp415
g0
(g1
g2
(lp416
Vis
p417
atp418
Rp419
(dp420
g11
VVBZ
p421
sbag0
(g1
g2
(lp422
g0
(g1
g2
(lp423
Vask
p424
atp425
Rp426
(dp427
g11
VVB
p428
sbag0
(g1
g2
(lp429
g0
(g1
g2
(lp430
Vone
p431
atp432
Rp433
(dp434
g11
VCD
p435
sbag0
(g1
g2
(lp436
Vcookie
p437
atp438
Rp439
(dp440
g11
VNN
p441
sbatp442
Rp443
(dp444
g11
VNP
p445
sbag0
(g1
g2
(lp446
g0
(g1
g2
(lp447
Vfrom
p448
atp449
Rp450
(dp451
g11
VIN
p452
sbag0
(g1
g2
(lp453
g0
(g1
g2
(lp454
Vhim
p455
atp456
Rp457
(dp458
g11
VPRP
p459
sbatp460
Rp461
(dp462
g11
VNP
p463
sbatp464
Rp465
(dp466
g11
VPP
p467
sbatp468
Rp469
(dp470
g11
VVP
p471
sbatp472
Rp473
(dp474
g11
VVP
p475
sbag0
(g1
g2
(lp476
V.
p477
atp478
Rp479
(dp480
g11
V.
p481
sbatp482
Rp483
(dp484
g11
VS
p485
sbatp486
Rp487
(dp488
g11
S'id: 4'
p489
sbag0
(g1
g2
(lp490
g0
(g1
g2
(lp491
g0
(g1
g2
(lp492
g0
(g1
g2
(lp493
Vit
p494
atp495
Rp496
(dp497
g11
VPRP
p498
sbatp499
Rp500
(dp501
g11
VNP
p502
sbag0
(g1
g2
(lp503
g0
(g1
g2
(lp504
V's
p505
atp506
Rp507
(dp508
g11
VVBZ
p509
sbag0
(g1
g2
(lp510
g0
(g1
g2
(lp511
Vhisit
p512
atp513
Rp514
(dp515
g11
VNN
p516
sbatp517
Rp518
(dp519
g11
VNP
p520
sbatp521
Rp522
(dp523
g11
VVP
p524
sbag0
(g1
g2
(lp525
V.
p526
atp527
Rp528
(dp529
g11
V.
p530
sbatp531
Rp532
(dp533
g11
VS
p534
sbatp535
Rp536
(dp537
g11
S'id: 5'
p538
sbag0
(g1
g2
(lp539
g0
(g1
g2
(lp540
g0
(g1
g2
(lp541
g0
(g1
g2
(lp542
Vover
p543
atp544
Rp545
(dp546
g11
VIN
p547
sbag0
(g1
g2
(lp548
g0
(g1
g2
(lp549
Vhere
p550
atp551
Rp552
(dp553
g11
VRB
p554
sbatp555
Rp556
(dp557
g11
VADVP
p558
sbatp559
Rp560
(dp561
g11
VADJP
p562
sbag0
(g1
g2
(lp563
V,
p564
atp565
Rp566
(dp567
g11
V,
p568
sbag0
(g1
g2
(lp569
g0
(g1
g2
(lp570
Vwashing
p571
atp572
Rp573
(dp574
g11
VVBG
p575
sbag0
(g1
g2
(lp576
g0
(g1
g2
(lp577
Vdishes
p578
atp579
Rp580
(dp581
g11
VNNS
p582
sbatp583
Rp584
(dp585
g11
VNP
p586
sbag0
(g1
g2
(lp587
g0
(g1
g2
(lp588
Von
p589
atp590
Rp591
(dp592
g11
VIN
p593
sbag0
(g1
g2
(lp594
g0
(g1
g2
(lp595
g0
(g1
g2
(lp596
g0
(g1
g2
(lp597
Va.
p598
atp599
Rp600
(dp601
g11
VNN
p602
sbag0
(g1
g2
(lp603
VFall
p604
atp605
Rp606
(dp607
g11
VNN
p608
sbatp609
Rp610
(dp611
g11
VNP
p612
sbag0
(g1
g2
(lp613
V,
p614
atp615
Rp616
(dp617
g11
V,
p618
sbag0
(g1
g2
(lp619
g0
(g1
g2
(lp620
Vfall
p621
atp622
Rp623
(dp624
g11
VNN
p625
sbatp626
Rp627
(dp628
g11
VNP
p629
sbag0
(g1
g2
(lp630
V,
p631
atp632
Rp633
(dp634
g11
V,
p635
sbatp636
Rp637
(dp638
g11
VNP
p639
sbag0
(g1
g2
(lp640
g0
(g1
g2
(lp641
Vfalling
p642
atp643
Rp644
(dp645
g11
VVBG
p646
sbag0
(g1
g2
(lp647
g0
(g1
g2
(lp648
Vout
p649
atp650
Rp651
(dp652
g11
VRP
p653
sbatp654
Rp655
(dp656
g11
VPRT
p657
sbag0
(g1
g2
(lp658
g0
(g1
g2
(lp659
Vdirvay
p660
atp661
Rp662
(dp663
g11
VJJ
p664
sbag0
(g1
g2
(lp665
Vfloor
p666
atp667
Rp668
(dp669
g11
VNN
p670
sbatp671
Rp672
(dp673
g11
VNP
p674
sbatp675
Rp676
(dp677
g11
VVP
p678
sbatp679
Rp680
(dp681
g11
VS
p682
sbatp683
Rp684
(dp685
g11
VPP
p686
sbatp687
Rp688
(dp689
g11
VVP
p690
sbag0
(g1
g2
(lp691
V.
p692
atp693
Rp694
(dp695
g11
V.
p696
sbatp697
Rp698
(dp699
g11
VFRAG
p700
sbatp701
Rp702
(dp703
g11
S'id: 6'
p704
sbag0
(g1
g2
(lp705
g0
(g1
g2
(lp706
g0
(g1
g2
(lp707
g0
(g1
g2
(lp708
Vright
p709
atp710
Rp711
(dp712
g11
VRB
p713
sbatp714
Rp715
(dp716
g11
VADJP
p717
sbag0
(g1
g2
(lp718
g0
(g1
g2
(lp719
g0
(g1
g2
(lp720
Vwashing
p721
atp722
Rp723
(dp724
g11
VVBG
p725
sbatp726
Rp727
(dp728
g11
VVP
p729
sbatp730
Rp731
(dp732
g11
VS
p733
sbag0
(g1
g2
(lp734
V.
p735
atp736
Rp737
(dp738
g11
V.
p739
sbatp740
Rp741
(dp742
g11
VFRAG
p743
sbatp744
Rp745
(dp746
g11
S'id: 7'
p747
sbag0
(g1
g2
(lp748
g0
(g1
g2
(lp749
g0
(g1
g2
(lp750
g0
(g1
g2
(lp751
VIs
p752
atp753
Rp754
(dp755
g11
VVBZ
p756
sbag0
(g1
g2
(lp757
g0
(g1
g2
(lp758
g0
(g1
g2
(lp759
Vtwo
p760
atp761
Rp762
(dp763
g11
VCD
p764
sbatp765
Rp766
(dp767
g11
VNP
p768
sbag0
(g1
g2
(lp769
g0
(g1
g2
(lp770
Vover
p771
atp772
Rp773
(dp774
g11
VIN
p775
sbag0
(g1
g2
(lp776
g0
(g1
g2
(lp777
Vhere
p778
atp779
Rp780
(dp781
g11
VRB
p782
sbatp783
Rp784
(dp785
g11
VNP
p786
sbatp787
Rp788
(dp789
g11
VPP
p790
sbatp791
Rp792
(dp793
g11
VNP
p794
sbatp795
Rp796
(dp797
g11
VVP
p798
sbag0
(g1
g2
(lp799
V.
p800
atp801
Rp802
(dp803
g11
V.
p804
sbatp805
Rp806
(dp807
g11
VS
p808
sbatp809
Rp810
(dp811
g11
S'id: 8'
p812
sbag0
(g1
g2
(lp813
g0
(g1
g2
(lp814
g0
(g1
g2
(lp815
g0
(g1
g2
(lp816
VIt
p817
atp818
Rp819
(dp820
g11
VPRP
p821
sbatp822
Rp823
(dp824
g11
VNP
p825
sbag0
(g1
g2
(lp826
g0
(g1
g2
(lp827
Vis
p828
atp829
Rp830
(dp831
g11
VVBZ
p832
sbag0
(g1
g2
(lp833
g0
(g1
g2
(lp834
Vright
p835
atp836
Rp837
(dp838
g11
VRB
p839
sbag0
(g1
g2
(lp840
Vhere
p841
atp842
Rp843
(dp844
g11
VRB
p845
sbatp846
Rp847
(dp848
g11
VADVP
p849
sbatp850
Rp851
(dp852
g11
VVP
p853
sbag0
(g1
g2
(lp854
V.
p855
atp856
Rp857
(dp858
g11
V.
p859
sbatp860
Rp861
(dp862
g11
VS
p863
sbatp864
Rp865
(dp866
g11
S'id: 9'
p867
sbag0
(g1
g2
(lp868
g0
(g1
g2
(lp869
g0
(g1
g2
(lp870
VWindow
p871
atp872
Rp873
(dp874
g11
VNN
p875
sbag0
(g1
g2
(lp876
V.
p877
atp878
Rp879
(dp880
g11
V.
p881
sbatp882
Rp883
(dp884
g11
VNP
p885
sbatp886
Rp887
(dp888
g11
S'id: 10'
p889
sbatp890
Rp891
(dp892
g11
S'sentences'
p893
sb.