ccopy_reg
_reconstructor
p0
(cnltk.tree
Tree
p1
c__builtin__
list
p2
(lp3
g0
(g1
g2
(lp4
g0
(g1
g2
(lp5
g0
(g1
g2
(lp6
Vi
p7
atp8
Rp9
(dp10
S'_label'
p11
VLS
p12
sbag0
(g1
g2
(lp13
g0
(g1
g2
(lp14
Vsee
p15
atp16
Rp17
(dp18
g11
VVB
p19
sbag0
(g1
g2
(lp20
g0
(g1
g2
(lp21
g0
(g1
g2
(lp22
Va
p23
atp24
Rp25
(dp26
g11
VDT
p27
sbag0
(g1
g2
(lp28
Vboy
p29
atp30
Rp31
(dp32
g11
VNN
p33
sbatp34
Rp35
(dp36
g11
VNP
p37
sbag0
(g1
g2
(lp38
Vand
p39
atp40
Rp41
(dp42
g11
VCC
p43
sbag0
(g1
g2
(lp44
g0
(g1
g2
(lp45
g0
(g1
g2
(lp46
Va
p47
atp48
Rp49
(dp50
g11
VDT
p51
sbag0
(g1
g2
(lp52
Vgirl
p53
atp54
Rp55
(dp56
g11
VNN
p57
sbatp58
Rp59
(dp60
g11
VNP
p61
sbag0
(g1
g2
(lp62
g0
(g1
g2
(lp63
Von
p64
atp65
Rp66
(dp67
g11
VIN
p68
sbag0
(g1
g2
(lp69
g0
(g1
g2
(lp70
Va
p71
atp72
Rp73
(dp74
g11
VDT
p75
sbag0
(g1
g2
(lp76
g0
(g1
g2
(lp77
V,
p78
atp79
Rp80
(dp81
g11
V,
p82
sbag0
(g1
g2
(lp83
g0
(g1
g2
(lp84
Von
p85
atp86
Rp87
(dp88
g11
VIN
p89
sbag0
(g1
g2
(lp90
Va
p91
atp92
Rp93
(dp94
g11
VDT
p95
sbatp96
Rp97
(dp98
g11
VADVP
p99
sbag0
(g1
g2
(lp100
V,
p101
atp102
Rp103
(dp104
g11
V,
p105
sbatp106
Rp107
(dp108
g11
VPRN
p109
sbatp110
Rp111
(dp112
g11
VNP
p113
sbatp114
Rp115
(dp116
g11
VPP
p117
sbatp118
Rp119
(dp120
g11
VNP
p121
sbatp122
Rp123
(dp124
g11
VNP
p125
sbag0
(g1
g2
(lp126
g0
(g1
g2
(lp127
Von
p128
atp129
Rp130
(dp131
g11
VIN
p132
sbag0
(g1
g2
(lp133
g0
(g1
g2
(lp134
Va
p135
atp136
Rp137
(dp138
g11
VDT
p139
sbag0
(g1
g2
(lp140
Vblanket
p141
atp142
Rp143
(dp144
g11
VNN
p145
sbatp146
Rp147
(dp148
g11
VNP
p149
sbatp150
Rp151
(dp152
g11
VPP
p153
sbatp154
Rp155
(dp156
g11
VVP
p157
sbag0
(g1
g2
(lp158
V.
p159
atp160
Rp161
(dp162
g11
V.
p163
sbatp164
Rp165
(dp166
g11
VS
p167
sbatp168
Rp169
(dp170
g11
S'id: 0'
p171
sbag0
(g1
g2
(lp172
g0
(g1
g2
(lp173
g0
(g1
g2
(lp174
g0
(g1
g2
(lp175
g0
(g1
g2
(lp176
VThe
p177
atp178
Rp179
(dp180
g11
VDT
p181
sbag0
(g1
g2
(lp182
Vboy
p183
atp184
Rp185
(dp186
g11
VNN
p187
sbatp188
Rp189
(dp190
g11
VNP
p191
sbag0
(g1
g2
(lp192
g0
(g1
g2
(lp193
Vreading
p194
atp195
Rp196
(dp197
g11
VVBG
p198
sbag0
(g1
g2
(lp199
g0
(g1
g2
(lp200
Va
p201
atp202
Rp203
(dp204
g11
VDT
p205
sbag0
(g1
g2
(lp206
Vbook
p207
atp208
Rp209
(dp210
g11
VNN
p211
sbatp212
Rp213
(dp214
g11
VNP
p215
sbatp216
Rp217
(dp218
g11
VVP
p219
sbatp220
Rp221
(dp222
g11
VS
p223
sbag0
(g1
g2
(lp224
V,
p225
atp226
Rp227
(dp228
g11
V,
p229
sbag0
(g1
g2
(lp230
g0
(g1
g2
(lp231
Vthe
p232
atp233
Rp234
(dp235
g11
VDT
p236
sbag0
(g1
g2
(lp237
Vgirl
p238
atp239
Rp240
(dp241
g11
VNN
p242
sbatp243
Rp244
(dp245
g11
VNP
p246
sbag0
(g1
g2
(lp247
g0
(g1
g2
(lp248
Vis
p249
atp250
Rp251
(dp252
g11
VVBZ
p253
sbag0
(g1
g2
(lp254
g0
(g1
g2
(lp255
Vpouring
p256
atp257
Rp258
(dp259
g11
VVBG
p260
sbag0
(g1
g2
(lp261
g0
(g1
g2
(lp262
Vsoda
p263
atp264
Rp265
(dp266
g11
VNN
p267
sbag0
(g1
g2
(lp268
Vor
p269
atp270
Rp271
(dp272
g11
VCC
p273
sbag0
(g1
g2
(lp274
Vsomething
p275
atp276
Rp277
(dp278
g11
VNN
p279
sbatp280
Rp281
(dp282
g11
VNP
p283
sbatp284
Rp285
(dp286
g11
VVP
p287
sbatp288
Rp289
(dp290
g11
VVP
p291
sbag0
(g1
g2
(lp292
V.
p293
atp294
Rp295
(dp296
g11
V.
p297
sbatp298
Rp299
(dp300
g11
VS
p301
sbatp302
Rp303
(dp304
g11
S'id: 1'
p305
sbag0
(g1
g2
(lp306
g0
(g1
g2
(lp307
g0
(g1
g2
(lp308
g0
(g1
g2
(lp309
VHaving
p310
atp311
Rp312
(dp313
g11
VVBG
p314
sbag0
(g1
g2
(lp315
g0
(g1
g2
(lp316
Va
p317
atp318
Rp319
(dp320
g11
VDT
p321
sbag0
(g1
g2
(lp322
Vpicnic
p323
atp324
Rp325
(dp326
g11
VNN
p327
sbatp328
Rp329
(dp330
g11
VNP
p331
sbag0
(g1
g2
(lp332
g0
(g1
g2
(lp333
Voutside
p334
atp335
Rp336
(dp337
g11
VIN
p338
sbag0
(g1
g2
(lp339
g0
(g1
g2
(lp340
V,
p341
atp342
Rp343
(dp344
g11
V,
p345
sbag0
(g1
g2
(lp346
g0
(g1
g2
(lp347
g0
(g1
g2
(lp348
Vhaving
p349
atp350
Rp351
(dp352
g11
VVBG
p353
sbag0
(g1
g2
(lp354
g0
(g1
g2
(lp355
Vit
p356
atp357
Rp358
(dp359
g11
VPRP
p360
sbatp361
Rp362
(dp363
g11
VNP
p364
sbatp365
Rp366
(dp367
g11
VVP
p368
sbatp369
Rp370
(dp371
g11
VS
p372
sbatp373
Rp374
(dp375
g11
VPRN
p376
sbag0
(g1
g2
(lp377
g0
(g1
g2
(lp378
Vyard
p379
atp380
Rp381
(dp382
g11
VNN
p383
sbatp384
Rp385
(dp386
g11
VNP
p387
sbatp388
Rp389
(dp390
g11
VPP
p391
sbatp392
Rp393
(dp394
g11
VVP
p395
sbag0
(g1
g2
(lp396
V.
p397
atp398
Rp399
(dp400
g11
V.
p401
sbatp402
Rp403
(dp404
g11
VS
p405
sbatp406
Rp407
(dp408
g11
S'id: 2'
p409
sbag0
(g1
g2
(lp410
g0
(g1
g2
(lp411
g0
(g1
g2
(lp412
g0
(g1
g2
(lp413
VOn
p414
atp415
Rp416
(dp417
g11
VIN
p418
sbag0
(g1
g2
(lp419
g0
(g1
g2
(lp420
Vblanket
p421
atp422
Rp423
(dp424
g11
VNN
p425
sbatp426
Rp427
(dp428
g11
VNP
p429
sbatp430
Rp431
(dp432
g11
VPP
p433
sbag0
(g1
g2
(lp434
V,
p435
atp436
Rp437
(dp438
g11
V,
p439
sbag0
(g1
g2
(lp440
g0
(g1
g2
(lp441
Vradio
p442
atp443
Rp444
(dp445
g11
VNN
p446
sbatp447
Rp448
(dp449
g11
VNP
p450
sbag0
(g1
g2
(lp451
V.
p452
atp453
Rp454
(dp455
g11
V.
p456
sbatp457
Rp458
(dp459
g11
VFRAG
p460
sbatp461
Rp462
(dp463
g11
S'id: 3'
p464
sbag0
(g1
g2
(lp465
g0
(g1
g2
(lp466
g0
(g1
g2
(lp467
g0
(g1
g2
(lp468
VA
p469
atp470
Rp471
(dp472
g11
VDT
p473
sbag0
(g1
g2
(lp474
Vhouse
p475
atp476
Rp477
(dp478
g11
VNN
p479
sbatp480
Rp481
(dp482
g11
VNP
p483
sbag0
(g1
g2
(lp484
g0
(g1
g2
(lp485
Vin
p486
atp487
Rp488
(dp489
g11
VIN
p490
sbag0
(g1
g2
(lp491
g0
(g1
g2
(lp492
Vthe
p493
atp494
Rp495
(dp496
g11
VDT
p497
sbag0
(g1
g2
(lp498
Vback
p499
atp500
Rp501
(dp502
g11
VJJ
p503
sbag0
(g1
g2
(lp504
Vyard
p505
atp506
Rp507
(dp508
g11
VNN
p509
sbatp510
Rp511
(dp512
g11
VNP
p513
sbatp514
Rp515
(dp516
g11
VPP
p517
sbag0
(g1
g2
(lp518
V.
p519
atp520
Rp521
(dp522
g11
V.
p523
sbatp524
Rp525
(dp526
g11
VNP
p527
sbatp528
Rp529
(dp530
g11
S'id: 4'
p531
sbag0
(g1
g2
(lp532
g0
(g1
g2
(lp533
g0
(g1
g2
(lp534
g0
(g1
g2
(lp535
VPark
p536
atp537
Rp538
(dp539
g11
VNNP
p540
sbatp541
Rp542
(dp543
g11
VNP
p544
sbag0
(g1
g2
(lp545
g0
(g1
g2
(lp546
Vin
p547
atp548
Rp549
(dp550
g11
VIN
p551
sbag0
(g1
g2
(lp552
g0
(g1
g2
(lp553
Vthe
p554
atp555
Rp556
(dp557
g11
VDT
p558
sbag0
(g1
g2
(lp559
Vfront
p560
atp561
Rp562
(dp563
g11
VNN
p564
sbatp565
Rp566
(dp567
g11
VNP
p568
sbatp569
Rp570
(dp571
g11
VPP
p572
sbag0
(g1
g2
(lp573
g0
(g1
g2
(lp574
Vof
p575
atp576
Rp577
(dp578
g11
VIN
p579
sbag0
(g1
g2
(lp580
g0
(g1
g2
(lp581
Vthe
p582
atp583
Rp584
(dp585
g11
VDT
p586
sbag0
(g1
g2
(lp587
Vyard
p588
atp589
Rp590
(dp591
g11
VNN
p592
sbatp593
Rp594
(dp595
g11
VNP
p596
sbatp597
Rp598
(dp599
g11
VPP
p600
sbag0
(g1
g2
(lp601
V.
p602
atp603
Rp604
(dp605
g11
V.
p606
sbatp607
Rp608
(dp609
g11
VNP
p610
sbatp611
Rp612
(dp613
g11
S'id: 5'
p614
sbag0
(g1
g2
(lp615
g0
(g1
g2
(lp616
g0
(g1
g2
(lp617
VTree
p618
atp619
Rp620
(dp621
g11
VNN
p622
sbag0
(g1
g2
(lp623
V.
p624
atp625
Rp626
(dp627
g11
V.
p628
sbatp629
Rp630
(dp631
g11
VNP
p632
sbatp633
Rp634
(dp635
g11
S'id: 6'
p636
sbag0
(g1
g2
(lp637
g0
(g1
g2
(lp638
g0
(g1
g2
(lp639
g0
(g1
g2
(lp640
VI
p641
atp642
Rp643
(dp644
g11
VPRP
p645
sbatp646
Rp647
(dp648
g11
VNP
p649
sbag0
(g1
g2
(lp650
g0
(g1
g2
(lp651
Vsee
p652
atp653
Rp654
(dp655
g11
VVBP
p656
sbag0
(g1
g2
(lp657
g0
(g1
g2
(lp658
Va
p659
atp660
Rp661
(dp662
g11
VDT
p663
sbag0
(g1
g2
(lp664
g0
(g1
g2
(lp665
Vboy
p666
atp667
Rp668
(dp669
g11
VNN
p670
sbag0
(g1
g2
(lp671
Vand
p672
atp673
Rp674
(dp675
g11
VCC
p676
sbag0
(g1
g2
(lp677
Va
p678
atp679
Rp680
(dp681
g11
VDT
p682
sbatp683
Rp684
(dp685
g11
VNP
p686
sbag0
(g1
g2
(lp687
V,
p688
atp689
Rp690
(dp691
g11
V,
p692
sbag0
(g1
g2
(lp693
Vand
p694
atp695
Rp696
(dp697
g11
VCC
p698
sbag0
(g1
g2
(lp699
g0
(g1
g2
(lp700
Va
p701
atp702
Rp703
(dp704
g11
VDT
p705
sbag0
(g1
g2
(lp706
Vdog
p707
atp708
Rp709
(dp710
g11
VNN
p711
sbatp712
Rp713
(dp714
g11
VNP
p715
sbatp716
Rp717
(dp718
g11
VNP
p719
sbag0
(g1
g2
(lp720
V,
p721
atp722
Rp723
(dp724
g11
V,
p725
sbag0
(g1
g2
(lp726
g0
(g1
g2
(lp727
g0
(g1
g2
(lp728
Vflying
p729
atp730
Rp731
(dp732
g11
VVBG
p733
sbag0
(g1
g2
(lp734
g0
(g1
g2
(lp735
Va
p736
atp737
Rp738
(dp739
g11
VDT
p740
sbag0
(g1
g2
(lp741
Vkite
p742
atp743
Rp744
(dp745
g11
VNN
p746
sbatp747
Rp748
(dp749
g11
VNP
p750
sbatp751
Rp752
(dp753
g11
VVP
p754
sbatp755
Rp756
(dp757
g11
VS
p758
sbatp759
Rp760
(dp761
g11
VVP
p762
sbag0
(g1
g2
(lp763
V.
p764
atp765
Rp766
(dp767
g11
V.
p768
sbatp769
Rp770
(dp771
g11
VS
p772
sbatp773
Rp774
(dp775
g11
S'id: 7'
p776
sbag0
(g1
g2
(lp777
g0
(g1
g2
(lp778
g0
(g1
g2
(lp779
g0
(g1
g2
(lp780
VI
p781
atp782
Rp783
(dp784
g11
VPRP
p785
sbatp786
Rp787
(dp788
g11
VNP
p789
sbag0
(g1
g2
(lp790
g0
(g1
g2
(lp791
Vsee
p792
atp793
Rp794
(dp795
g11
VVBP
p796
sbag0
(g1
g2
(lp797
g0
(g1
g2
(lp798
g0
(g1
g2
(lp799
g0
(g1
g2
(lp800
Va
p801
atp802
Rp803
(dp804
g11
VDT
p805
sbag0
(g1
g2
(lp806
Vgirl
p807
atp808
Rp809
(dp810
g11
VNN
p811
sbatp812
Rp813
(dp814
g11
VNP
p815
sbag0
(g1
g2
(lp816
V,
p817
atp818
Rp819
(dp820
g11
V,
p821
sbag0
(g1
g2
(lp822
g0
(g1
g2
(lp823
Vlittle
p824
atp825
Rp826
(dp827
g11
VJJ
p828
sbag0
(g1
g2
(lp829
Vgirl
p830
atp831
Rp832
(dp833
g11
VNN
p834
sbatp835
Rp836
(dp837
g11
VNP
p838
sbag0
(g1
g2
(lp839
V,
p840
atp841
Rp842
(dp843
g11
V,
p844
sbatp845
Rp846
(dp847
g11
VNP
p848
sbag0
(g1
g2
(lp849
g0
(g1
g2
(lp850
Vplaying
p851
atp852
Rp853
(dp854
g11
VVBG
p855
sbag0
(g1
g2
(lp856
g0
(g1
g2
(lp857
Vin
p858
atp859
Rp860
(dp861
g11
VIN
p862
sbag0
(g1
g2
(lp863
g0
(g1
g2
(lp864
g0
(g1
g2
(lp865
Vthe
p866
atp867
Rp868
(dp869
g11
VDT
p870
sbag0
(g1
g2
(lp871
Vsand
p872
atp873
Rp874
(dp875
g11
VNN
p876
sbatp877
Rp878
(dp879
g11
VNP
p880
sbag0
(g1
g2
(lp881
g0
(g1
g2
(lp882
Von
p883
atp884
Rp885
(dp886
g11
VIN
p887
sbag0
(g1
g2
(lp888
g0
(g1
g2
(lp889
Vthe
p890
atp891
Rp892
(dp893
g11
VDT
p894
sbag0
(g1
g2
(lp895
Vbeach
p896
atp897
Rp898
(dp899
g11
VNN
p900
sbatp901
Rp902
(dp903
g11
VNP
p904
sbatp905
Rp906
(dp907
g11
VPP
p908
sbatp909
Rp910
(dp911
g11
VNP
p912
sbatp913
Rp914
(dp915
g11
VPP
p916
sbatp917
Rp918
(dp919
g11
VVP
p920
sbatp921
Rp922
(dp923
g11
VS
p924
sbatp925
Rp926
(dp927
g11
VVP
p928
sbag0
(g1
g2
(lp929
V.
p930
atp931
Rp932
(dp933
g11
V.
p934
sbatp935
Rp936
(dp937
g11
VS
p938
sbatp939
Rp940
(dp941
g11
S'id: 8'
p942
sbag0
(g1
g2
(lp943
g0
(g1
g2
(lp944
g0
(g1
g2
(lp945
g0
(g1
g2
(lp946
VI
p947
atp948
Rp949
(dp950
g11
VPRP
p951
sbatp952
Rp953
(dp954
g11
VNP
p955
sbag0
(g1
g2
(lp956
g0
(g1
g2
(lp957
Vsee
p958
atp959
Rp960
(dp961
g11
VVBP
p962
sbag0
(g1
g2
(lp963
g0
(g1
g2
(lp964
g0
(g1
g2
(lp965
g0
(g1
g2
(lp966
Va
p967
atp968
Rp969
(dp970
g11
VDT
p971
sbag0
(g1
g2
(lp972
Vman
p973
atp974
Rp975
(dp976
g11
VNN
p977
sbatp978
Rp979
(dp980
g11
VNP
p981
sbag0
(g1
g2
(lp982
g0
(g1
g2
(lp983
Vcaught
p984
atp985
Rp986
(dp987
g11
VVBD
p988
sbag0
(g1
g2
(lp989
g0
(g1
g2
(lp990
Va
p991
atp992
Rp993
(dp994
g11
VDT
p995
sbag0
(g1
g2
(lp996
Vfish
p997
atp998
Rp999
(dp1000
g11
VNN
p1001
sbatp1002
Rp1003
(dp1004
g11
VNP
p1005
sbag0
(g1
g2
(lp1006
g0
(g1
g2
(lp1007
Von
p1008
atp1009
Rp1010
(dp1011
g11
VIN
p1012
sbag0
(g1
g2
(lp1013
g0
(g1
g2
(lp1014
Va
p1015
atp1016
Rp1017
(dp1018
g11
VDT
p1019
sbag0
(g1
g2
(lp1020
Vdock
p1021
atp1022
Rp1023
(dp1024
g11
VNN
p1025
sbatp1026
Rp1027
(dp1028
g11
VNP
p1029
sbatp1030
Rp1031
(dp1032
g11
VPP
p1033
sbatp1034
Rp1035
(dp1036
g11
VVP
p1037
sbatp1038
Rp1039
(dp1040
g11
VS
p1041
sbatp1042
Rp1043
(dp1044
g11
VSBAR
p1045
sbatp1046
Rp1047
(dp1048
g11
VVP
p1049
sbag0
(g1
g2
(lp1050
V.
p1051
atp1052
Rp1053
(dp1054
g11
V.
p1055
sbatp1056
Rp1057
(dp1058
g11
VS
p1059
sbatp1060
Rp1061
(dp1062
g11
S'id: 9'
p1063
sbag0
(g1
g2
(lp1064
g0
(g1
g2
(lp1065
g0
(g1
g2
(lp1066
g0
(g1
g2
(lp1067
VI
p1068
atp1069
Rp1070
(dp1071
g11
VPRP
p1072
sbatp1073
Rp1074
(dp1075
g11
VNP
p1076
sbag0
(g1
g2
(lp1077
g0
(g1
g2
(lp1078
g0
(g1
g2
(lp1079
Vsee
p1080
atp1081
Rp1082
(dp1083
g11
VVBP
p1084
sbag0
(g1
g2
(lp1085
g0
(g1
g2
(lp1086
g0
(g1
g2
(lp1087
Va
p1088
atp1089
Rp1090
(dp1091
g11
VDT
p1092
sbag0
(g1
g2
(lp1093
Vguy
p1094
atp1095
Rp1096
(dp1097
g11
VNN
p1098
sbatp1099
Rp1100
(dp1101
g11
VNP
p1102
sbag0
(g1
g2
(lp1103
V,
p1104
atp1105
Rp1106
(dp1107
g11
V,
p1108
sbag0
(g1
g2
(lp1109
Vand
p1110
atp1111
Rp1112
(dp1113
g11
VCC
p1114
sbag0
(g1
g2
(lp1115
g0
(g1
g2
(lp1116
g0
(g1
g2
(lp1117
Va
p1118
atp1119
Rp1120
(dp1121
g11
VDT
p1122
sbag0
(g1
g2
(lp1123
Vgirl
p1124
atp1125
Rp1126
(dp1127
g11
VNN
p1128
sbatp1129
Rp1130
(dp1131
g11
VNP
p1132
sbag0
(g1
g2
(lp1133
g0
(g1
g2
(lp1134
Vin
p1135
atp1136
Rp1137
(dp1138
g11
VIN
p1139
sbag0
(g1
g2
(lp1140
g0
(g1
g2
(lp1141
Va
p1142
atp1143
Rp1144
(dp1145
g11
VDT
p1146
sbag0
(g1
g2
(lp1147
Vboat
p1148
atp1149
Rp1150
(dp1151
g11
VNN
p1152
sbatp1153
Rp1154
(dp1155
g11
VNP
p1156
sbatp1157
Rp1158
(dp1159
g11
VPP
p1160
sbatp1161
Rp1162
(dp1163
g11
VNP
p1164
sbag0
(g1
g2
(lp1165
V,
p1166
atp1167
Rp1168
(dp1169
g11
V,
p1170
sbatp1171
Rp1172
(dp1173
g11
VNP
p1174
sbatp1175
Rp1176
(dp1177
g11
VVP
p1178
sbag0
(g1
g2
(lp1179
Vand
p1180
atp1181
Rp1182
(dp1183
g11
VCC
p1184
sbag0
(g1
g2
(lp1185
g0
(g1
g2
(lp1186
Va.
p1187
atp1188
Rp1189
(dp1190
g11
VVB
p1191
sbag0
(g1
g2
(lp1192
g0
(g1
g2
(lp1193
g0
(g1
g2
(lp1194
Vwhat
p1195
atp1196
Rp1197
(dp1198
g11
VWP
p1199
sbatp1200
Rp1201
(dp1202
g11
VWHNP
p1203
sbag0
(g1
g2
(lp1204
g0
(g1
g2
(lp1205
g0
(g1
g2
(lp1206
Vdo
p1207
atp1208
Rp1209
(dp1210
g11
VVBP
p1211
sbag0
(g1
g2
(lp1212
g0
(g1
g2
(lp1213
g0
(g1
g2
(lp1214
Vthey
p1215
atp1216
Rp1217
(dp1218
g11
VPRP
p1219
sbatp1220
Rp1221
(dp1222
g11
VNP
p1223
sbag0
(g1
g2
(lp1224
g0
(g1
g2
(lp1225
Vcall
p1226
atp1227
Rp1228
(dp1229
g11
VVB
p1230
sbag0
(g1
g2
(lp1231
g0
(g1
g2
(lp1232
Vit
p1233
atp1234
Rp1235
(dp1236
g11
VPRP
p1237
sbatp1238
Rp1239
(dp1240
g11
VNP
p1241
sbatp1242
Rp1243
(dp1244
g11
VVP
p1245
sbatp1246
Rp1247
(dp1248
g11
VS
p1249
sbatp1250
Rp1251
(dp1252
g11
VVP
p1253
sbatp1254
Rp1255
(dp1256
g11
VS
p1257
sbatp1258
Rp1259
(dp1260
g11
VSBAR
p1261
sbatp1262
Rp1263
(dp1264
g11
VVP
p1265
sbatp1266
Rp1267
(dp1268
g11
VVP
p1269
sbatp1270
Rp1271
(dp1272
g11
VS
p1273
sbatp1274
Rp1275
(dp1276
g11
S'id: 10'
p1277
sbatp1278
Rp1279
(dp1280
g11
S'sentences'
p1281
sb.