ccopy_reg
_reconstructor
p0
(cnltk.tree
Tree
p1
c__builtin__
list
p2
(lp3
g0
(g1
g2
(lp4
g0
(g1
g2
(lp5
g0
(g1
g2
(lp6
VThe little boy
p7
atp8
Rp9
(dp10
S'_label'
p11
S'start: 1'
p12
sbatp13
Rp14
(dp15
g11
S'sent: 1'
p16
sbag0
(g1
g2
(lp17
g0
(g1
g2
(lp18
Vhe
p19
atp20
Rp21
(dp22
g11
S'start: 10'
p23
sbatp24
Rp25
(dp26
g11
S'sent: 1'
p27
sbag0
(g1
g2
(lp28
g0
(g1
g2
(lp29
Vhim
p30
atp31
Rp32
(dp33
g11
S'start: 29'
p34
sbatp35
Rp36
(dp37
g11
S'sent: 1'
p38
sbag0
(g1
g2
(lp39
g0
(g1
g2
(lp40
Vhe
p41
atp42
Rp43
(dp44
g11
S'start: 11'
p45
sbatp46
Rp47
(dp48
g11
S'sent: 4'
p49
sbag0
(g1
g2
(lp50
g0
(g1
g2
(lp51
Vhim
p52
atp53
Rp54
(dp55
g11
S'start: 15'
p56
sbatp57
Rp58
(dp59
g11
S'sent: 4'
p60
sbatp61
Rp62
(dp63
g11
S'id: 1'
p64
sbag0
(g1
g2
(lp65
g0
(g1
g2
(lp66
g0
(g1
g2
(lp67
Vcookies of cookie jar
p68
atp69
Rp70
(dp71
g11
S'start: 5'
p72
sbatp73
Rp74
(dp75
g11
S'sent: 1'
p76
sbag0
(g1
g2
(lp77
g0
(g1
g2
(lp78
Vthe cookies
p79
atp80
Rp81
(dp82
g11
S'start: 16'
p83
sbatp84
Rp85
(dp86
g11
S'sent: 11'
p87
sbatp88
Rp89
(dp90
g11
S'id: 2'
p91
sbag0
(g1
g2
(lp92
g0
(g1
g2
(lp93
g0
(g1
g2
(lp94
Vthe little girl
p95
atp96
Rp97
(dp98
g11
S'start: 23'
p99
sbatp100
Rp101
(dp102
g11
S'sent: 1'
p103
sbag0
(g1
g2
(lp104
g0
(g1
g2
(lp105
Vthe little girl
p106
atp107
Rp108
(dp109
g11
S'start: 6'
p110
sbatp111
Rp112
(dp113
g11
S'sent: 9'
p114
sbatp115
Rp116
(dp117
g11
S'id: 6'
p118
sbag0
(g1
g2
(lp119
g0
(g1
g2
(lp120
g0
(g1
g2
(lp121
VMother 's
p122
atp123
Rp124
(dp125
g11
S'start: 1'
p126
sbatp127
Rp128
(dp129
g11
S'sent: 2'
p130
sbag0
(g1
g2
(lp131
g0
(g1
g2
(lp132
Vshe
p133
atp134
Rp135
(dp136
g11
S'start: 8'
p137
sbatp138
Rp139
(dp140
g11
S'sent: 2'
p141
sbag0
(g1
g2
(lp142
g0
(g1
g2
(lp143
Vher
p144
atp145
Rp146
(dp147
g11
S'start: 14'
p148
sbatp149
Rp150
(dp151
g11
S'sent: 2'
p152
sbag0
(g1
g2
(lp153
g0
(g1
g2
(lp154
Vshe
p155
atp156
Rp157
(dp158
g11
S'start: 18'
p159
sbatp160
Rp161
(dp162
g11
S'sent: 2'
p163
sbag0
(g1
g2
(lp164
g0
(g1
g2
(lp165
Vthe mother 's
p166
atp167
Rp168
(dp169
g11
S'start: 2'
p170
sbatp171
Rp172
(dp173
g11
S'sent: 10'
p174
sbag0
(g1
g2
(lp175
g0
(g1
g2
(lp176
VMother 's
p177
atp178
Rp179
(dp180
g11
S'start: 1'
p181
sbatp182
Rp183
(dp184
g11
S'sent: 18'
p185
sbag0
(g1
g2
(lp186
g0
(g1
g2
(lp187
Vher
p188
atp189
Rp190
(dp191
g11
S'start: 6'
p192
sbatp193
Rp194
(dp195
g11
S'sent: 19'
p196
sbag0
(g1
g2
(lp197
g0
(g1
g2
(lp198
Vher
p199
atp200
Rp201
(dp202
g11
S'start: 9'
p203
sbatp204
Rp205
(dp206
g11
S'sent: 19'
p207
sbatp208
Rp209
(dp210
g11
S'id: 8'
p211
sbag0
(g1
g2
(lp212
g0
(g1
g2
(lp213
g0
(g1
g2
(lp214
Vdishes
p215
atp216
Rp217
(dp218
g11
S'start: 6'
p219
sbatp220
Rp221
(dp222
g11
S'sent: 2'
p223
sbag0
(g1
g2
(lp224
g0
(g1
g2
(lp225
VThat
p226
atp227
Rp228
(dp229
g11
S'start: 1'
p230
sbatp231
Rp232
(dp233
g11
S'sent: 3'
p234
sbatp235
Rp236
(dp237
g11
S'id: 9'
p238
sbag0
(g1
g2
(lp239
g0
(g1
g2
(lp240
g0
(g1
g2
(lp241
VI
p242
atp243
Rp244
(dp245
g11
S'start: 4'
p246
sbatp247
Rp248
(dp249
g11
S'sent: 3'
p250
sbag0
(g1
g2
(lp251
g0
(g1
g2
(lp252
VI
p253
atp254
Rp255
(dp256
g11
S'start: 1'
p257
sbatp258
Rp259
(dp260
g11
S'sent: 7'
p261
sbag0
(g1
g2
(lp262
g0
(g1
g2
(lp263
VI
p264
atp265
Rp266
(dp267
g11
S'start: 1'
p268
sbatp269
Rp270
(dp271
g11
S'sent: 13'
p272
sbag0
(g1
g2
(lp273
g0
(g1
g2
(lp274
VI
p275
atp276
Rp277
(dp278
g11
S'start: 7'
p279
sbatp280
Rp281
(dp282
g11
S'sent: 18'
p283
sbag0
(g1
g2
(lp284
g0
(g1
g2
(lp285
VI
p286
atp287
Rp288
(dp289
g11
S'start: 12'
p290
sbatp291
Rp292
(dp293
g11
S'sent: 18'
p294
sbag0
(g1
g2
(lp295
g0
(g1
g2
(lp296
VI
p297
atp298
Rp299
(dp300
g11
S'start: 7'
p301
sbatp302
Rp303
(dp304
g11
S'sent: 20'
p305
sbatp306
Rp307
(dp308
g11
S'id: 18'
p309
sbag0
(g1
g2
(lp310
g0
(g1
g2
(lp311
g0
(g1
g2
(lp312
Va cookie
p313
atp314
Rp315
(dp316
g11
S'start: 7'
p317
sbatp318
Rp319
(dp320
g11
S'sent: 4'
p321
sbag0
(g1
g2
(lp322
g0
(g1
g2
(lp323
Va cookie , and he
p324
atp325
Rp326
(dp327
g11
S'start: 9'
p328
sbatp329
Rp330
(dp331
g11
S'sent: 9'
p332
sbag0
(g1
g2
(lp333
g0
(g1
g2
(lp334
Va cookie
p335
atp336
Rp337
(dp338
g11
S'start: 9'
p339
sbatp340
Rp341
(dp342
g11
S'sent: 9'
p343
sbatp344
Rp345
(dp346
g11
S'id: 19'
p347
sbag0
(g1
g2
(lp348
g0
(g1
g2
(lp349
g0
(g1
g2
(lp350
VCurtains .
p351
atp352
Rp353
(dp354
g11
S'start: 1'
p355
sbatp356
Rp357
(dp358
g11
S'sent: 5'
p359
sbag0
(g1
g2
(lp360
g0
(g1
g2
(lp361
VCurtains
p362
atp363
Rp364
(dp365
g11
S'start: 1'
p366
sbatp367
Rp368
(dp369
g11
S'sent: 14'
p370
sbatp371
Rp372
(dp373
g11
S'id: 22'
p374
sbag0
(g1
g2
(lp375
g0
(g1
g2
(lp376
g0
(g1
g2
(lp377
Vtwo
p378
atp379
Rp380
(dp381
g11
S'start: 5'
p382
sbatp383
Rp384
(dp385
g11
S'sent: 7'
p386
sbag0
(g1
g2
(lp387
g0
(g1
g2
(lp388
Vtwo
p389
atp390
Rp391
(dp392
g11
S'start: 3'
p393
sbatp394
Rp395
(dp396
g11
S'sent: 11'
p397
sbag0
(g1
g2
(lp398
g0
(g1
g2
(lp399
Vtwo up under him
p400
atp401
Rp402
(dp403
g11
S'start: 20'
p404
sbatp405
Rp406
(dp407
g11
S'sent: 11'
p408
sbag0
(g1
g2
(lp409
g0
(g1
g2
(lp410
Vtwo
p411
atp412
Rp413
(dp414
g11
S'start: 7'
p415
sbatp416
Rp417
(dp418
g11
S'sent: 17'
p419
sbatp420
Rp421
(dp422
g11
S'id: 29'
p423
sbag0
(g1
g2
(lp424
g0
(g1
g2
(lp425
g0
(g1
g2
(lp426
Vthe counter
p427
atp428
Rp429
(dp430
g11
S'start: 8'
p431
sbatp432
Rp433
(dp434
g11
S'sent: 7'
p435
sbag0
(g1
g2
(lp436
g0
(g1
g2
(lp437
Vthe counter
p438
atp439
Rp440
(dp441
g11
S'start: 14'
p442
sbatp443
Rp444
(dp445
g11
S'sent: 7'
p446
sbatp447
Rp448
(dp449
g11
S'id: 34'
p450
sbag0
(g1
g2
(lp451
g0
(g1
g2
(lp452
g0
(g1
g2
(lp453
Vone plate on the counter
p454
atp455
Rp456
(dp457
g11
S'start: 11'
p458
sbatp459
Rp460
(dp461
g11
S'sent: 7'
p462
sbag0
(g1
g2
(lp463
g0
(g1
g2
(lp464
Vthe plate
p465
atp466
Rp467
(dp468
g11
S'start: 15'
p469
sbatp470
Rp471
(dp472
g11
S'sent: 8'
p473
sbatp474
Rp475
(dp476
g11
S'id: 35'
p477
sbag0
(g1
g2
(lp478
g0
(g1
g2
(lp479
g0
(g1
g2
(lp480
Vher
p481
atp482
Rp483
(dp484
g11
S'start: 6'
p485
sbatp486
Rp487
(dp488
g11
S'sent: 8'
p489
sbag0
(g1
g2
(lp490
g0
(g1
g2
(lp491
Vshe
p492
atp493
Rp494
(dp495
g11
S'start: 12'
p496
sbatp497
Rp498
(dp499
g11
S'sent: 8'
p500
sbatp501
Rp502
(dp503
g11
S'id: 39'
p504
sbag0
(g1
g2
(lp505
g0
(g1
g2
(lp506
g0
(g1
g2
(lp507
VThe little boy 's given the little girl a cookie , and he
p508
atp509
Rp510
(dp511
g11
S'start: 1'
p512
sbatp513
Rp514
(dp515
g11
S'sent: 9'
p516
sbag0
(g1
g2
(lp517
g0
(g1
g2
(lp518
Vhis
p519
atp520
Rp521
(dp522
g11
S'start: 18'
p523
sbatp524
Rp525
(dp526
g11
S'sent: 9'
p527
sbatp528
Rp529
(dp530
g11
S'id: 44'
p531
sbag0
(g1
g2
(lp532
g0
(g1
g2
(lp533
g0
(g1
g2
(lp534
Vthe boy 's taking the cookies out
p535
atp536
Rp537
(dp538
g11
S'start: 12'
p539
sbatp540
Rp541
(dp542
g11
S'sent: 11'
p543
sbag0
(g1
g2
(lp544
g0
(g1
g2
(lp545
Vhim
p546
atp547
Rp548
(dp549
g11
S'start: 23'
p550
sbatp551
Rp552
(dp553
g11
S'sent: 11'
p554
sbatp555
Rp556
(dp557
g11
S'id: 62'
p558
sbag0
(g1
g2
(lp559
g0
(g1
g2
(lp560
g0
(g1
g2
(lp561
Va apron
p562
atp563
Rp564
(dp565
g11
S'start: 4'
p566
sbatp567
Rp568
(dp569
g11
S'sent: 15'
p570
sbag0
(g1
g2
(lp571
g0
(g1
g2
(lp572
Vit
p573
atp574
Rp575
(dp576
g11
S'start: 8'
p577
sbatp578
Rp579
(dp580
g11
S'sent: 16'
p581
sbatp582
Rp583
(dp584
g11
S'id: 72'
p585
sbag0
(g1
g2
(lp586
g0
(g1
g2
(lp587
g0
(g1
g2
(lp588
Va dress
p589
atp590
Rp591
(dp592
g11
S'start: 8'
p593
sbatp594
Rp595
(dp596
g11
S'sent: 15'
p597
sbag0
(g1
g2
(lp598
g0
(g1
g2
(lp599
Vher dress
p600
atp601
Rp602
(dp603
g11
S'start: 6'
p604
sbatp605
Rp606
(dp607
g11
S'sent: 19'
p608
sbag0
(g1
g2
(lp609
g0
(g1
g2
(lp610
Vher hair is shoulder length
p611
atp612
Rp613
(dp614
g11
S'start: 9'
p615
sbatp616
Rp617
(dp618
g11
S'sent: 19'
p619
sbatp620
Rp621
(dp622
g11
S'id: 73'
p623
sbag0
(g1
g2
(lp624
g0
(g1
g2
(lp625
g0
(g1
g2
(lp626
VThe boy hair
p627
atp628
Rp629
(dp630
g11
S'start: 1'
p631
sbatp632
Rp633
(dp634
g11
S'sent: 20'
p635
sbag0
(g1
g2
(lp636
g0
(g1
g2
(lp637
Vcrew cut I 'll say
p638
atp639
Rp640
(dp641
g11
S'start: 5'
p642
sbatp643
Rp644
(dp645
g11
S'sent: 20'
p646
sbatp647
Rp648
(dp649
g11
S'id: 92'
p650
sbatp651
Rp652
(dp653
g11
S'coreferences'
p654
sb.