ccopy_reg
_reconstructor
p0
(cnltk.tree
Tree
p1
c__builtin__
list
p2
(lp3
g0
(g1
g2
(lp4
g0
(g1
g2
(lp5
g0
(g1
g2
(lp6
(lp7
S'word: Oh, index: 1'
p8
aatp9
Rp10
(dp11
S'_label'
p12
Vdiscourse
p13
sbag0
(g1
g2
(lp14
(lp15
S'word: this, index: 2'
p16
aatp17
Rp18
(dp19
g12
Vnsubj
p20
sbag0
(g1
g2
(lp21
g0
(g1
g2
(lp22
g0
(g1
g2
(lp23
(lp24
S'word: a, index: 16'
p25
aatp26
Rp27
(dp28
g12
Vdet
p29
sbag0
(g1
g2
(lp30
(lp31
S'word: lake, index: 17'
p32
aatp33
Rp34
(dp35
g12
Vnn
p36
sbag0
(g1
g2
(lp37
g0
(g1
g2
(lp38
g0
(g1
g2
(lp39
(lp40
S'word: it, index: 19'
p41
aatp42
Rp43
(dp44
g12
Vnsubj
p45
sbag0
(g1
g2
(lp46
(lp47
S'word: like, index: 21'
p48
aatp49
Rp50
(dp51
g12
Vprep
p52
sbatp53
Rp54
(dp55
g12
S'word: looks, index: 20'
p56
sbatp57
Rp58
(dp59
g12
Vrcmod
p60
sbag0
(g1
g2
(lp61
(lp62
S'word: this, index: 14'
p63
aatp64
Rp65
(dp66
g12
Vnsubj
p67
sbag0
(g1
g2
(lp68
(lp69
S'word: is, index: 15'
p70
aatp71
Rp72
(dp73
g12
Vcop
p74
sbatp75
Rp76
(dp77
g12
S'word: house, index: 18'
p78
sbatp79
Rp80
(dp81
g12
Vconj
p82
sbag0
(g1
g2
(lp83
g0
(g1
g2
(lp84
g0
(g1
g2
(lp85
(lp86
S'word: like, index: 4'
p87
aatp88
Rp89
(dp90
g12
Vmark
p91
sbag0
(g1
g2
(lp92
(lp93
S'word: this, index: 6'
p94
aatp95
Rp96
(dp97
g12
Vnsubj
p98
sbag0
(g1
g2
(lp99
(lp100
S'word: is, index: 7'
p101
aatp102
Rp103
(dp104
g12
Vcop
p105
sbag0
(g1
g2
(lp106
(lp107
S'word: not, index: 8'
p108
aatp109
Rp110
(dp111
g12
Vneg
p112
sbag0
(g1
g2
(lp113
(lp114
S'word: a, index: 9'
p115
aatp116
Rp117
(dp118
g12
Vdet
p119
sbag0
(g1
g2
(lp120
(lp121
S'word: beach, index: 10'
p122
aatp123
Rp124
(dp125
g12
Vnn
p126
sbatp127
Rp128
(dp129
g12
S'word: house, index: 11'
p130
sbatp131
Rp132
(dp133
g12
Vadvcl
p134
sbatp135
Rp136
(dp137
g12
S'word: looks, index: 3'
p138
sbatp139
Rp140
(dp141
g12
S'id: 0'
p142
sbag0
(g1
g2
(lp143
g0
(g1
g2
(lp144
g0
(g1
g2
(lp145
g0
(g1
g2
(lp146
g0
(g1
g2
(lp147
g0
(g1
g2
(lp148
g0
(g1
g2
(lp149
(lp150
S'word: probably, index: 17'
p151
aatp152
Rp153
(dp154
g12
Vadvmod
p155
sbag0
(g1
g2
(lp156
(lp157
S'word: too, index: 18'
p158
aatp159
Rp160
(dp161
g12
Vadvmod
p162
sbatp163
Rp164
(dp165
g12
S'word: litle/ob, index: 19'
p166
sbatp167
Rp168
(dp169
g12
Vamod
p170
sbag0
(g1
g2
(lp171
(lp172
S'word: little, index: 20'
p173
aatp174
Rp175
(dp176
g12
Vamod
p177
sbag0
(g1
g2
(lp178
g0
(g1
g2
(lp179
g0
(g1
g2
(lp180
(lp181
S'word: though, index: 35'
p182
aatp183
Rp184
(dp185
g12
Vmark
p186
sbag0
(g1
g2
(lp187
(lp188
S'word: it, index: 36'
p189
aatp190
Rp191
(dp192
g12
Vnsubj
p193
sbag0
(g1
g2
(lp194
g0
(g1
g2
(lp195
g0
(g1
g2
(lp196
(lp197
S'word: a, index: 38'
p198
aatp199
Rp200
(dp201
g12
Vdet
p202
sbag0
(g1
g2
(lp203
(lp204
S'word: it, index: 41'
p205
aatp206
Rp207
(dp208
g12
Vprep
p209
sbatp210
Rp211
(dp212
g12
S'word: tail, index: 39'
p213
sbatp214
Rp215
(dp216
g12
Vdobj
p217
sbag0
(g1
g2
(lp218
g0
(g1
g2
(lp219
g0
(g1
g2
(lp220
(lp221
S'word: it, index: 36'
p222
aatp223
Rp224
(dp225
g12
Vnsubj
p226
sbag0
(g1
g2
(lp227
(lp228
S'word: also, index: 44'
p229
aatp230
Rp231
(dp232
g12
Vadvmod
p233
sbag0
(g1
g2
(lp234
g0
(g1
g2
(lp235
g0
(g1
g2
(lp236
(lp237
S'word: a, index: 46'
p238
aatp239
Rp240
(dp241
g12
Vdet
p242
sbag0
(g1
g2
(lp243
g0
(g1
g2
(lp244
g0
(g1
g2
(lp245
g0
(g1
g2
(lp246
g0
(g1
g2
(lp247
(lp248
S'word: that, index: 51'
p249
aatp250
Rp251
(dp252
g12
Vmark
p253
sbag0
(g1
g2
(lp254
(lp255
S'word: he, index: 52'
p256
aatp257
Rp258
(dp259
g12
Vnsubj
p260
sbag0
(g1
g2
(lp261
(lp262
S'word: can, index: 53'
p263
aatp264
Rp265
(dp266
g12
Vaux
p267
sbag0
(g1
g2
(lp268
g0
(g1
g2
(lp269
g0
(g1
g2
(lp270
(lp271
S'word: he, index: 52'
p272
aatp273
Rp274
(dp275
g12
Vnsubj
p276
sbatp277
Rp278
(dp279
g12
S'word: keep, index: 56'
p280
sbatp281
Rp282
(dp283
g12
Vconj
p284
sbag0
(g1
g2
(lp285
g0
(g1
g2
(lp286
g0
(g1
g2
(lp287
g0
(g1
g2
(lp288
g0
(g1
g2
(lp289
(lp290
S'word: the, index: 59'
p291
aatp292
Rp293
(dp294
g12
Vdet
p295
sbag0
(g1
g2
(lp296
g0
(g1
g2
(lp297
g0
(g1
g2
(lp298
g0
(g1
g2
(lp299
g0
(g1
g2
(lp300
(lp301
S'word: the, index: 64'
p302
aatp303
Rp304
(dp305
g12
Vdet
p306
sbatp307
Rp308
(dp309
g12
S'word: sky, index: 65'
p310
sbatp311
Rp312
(dp313
g12
Vprep
p314
sbatp315
Rp316
(dp317
g12
S'word: going, index: 62'
p318
sbatp319
Rp320
(dp321
g12
Vprepc
p322
sbatp323
Rp324
(dp325
g12
S'word: kite, index: 60'
p326
sbatp327
Rp328
(dp329
g12
Vappos
p330
sbatp331
Rp332
(dp333
g12
S'word: the, index: 57'
p334
sbatp335
Rp336
(dp337
g12
Vdobj
p338
sbag0
(g1
g2
(lp339
(lp340
S'word: so, index: 50'
p341
aatp342
Rp343
(dp344
g12
Vadvmod
p345
sbatp346
Rp347
(dp348
g12
S'word: guide, index: 54'
p349
sbatp350
Rp351
(dp352
g12
Vadvcl
p353
sbag0
(g1
g2
(lp354
g278
atp355
Rp356
(dp357
g12
Vadvcl
p358
sbag0
(g1
g2
(lp359
(lp360
S'word: around, index: 49'
p361
aatp362
Rp363
(dp364
g12
Vadvmod
p365
sbatp366
Rp367
(dp368
g12
S'word: wrapped, index: 48'
p369
sbatp370
Rp371
(dp372
g12
Vrcmod
p373
sbatp374
Rp375
(dp376
g12
S'word: cord, index: 47'
p377
sbatp378
Rp379
(dp380
g12
Vdobj
p381
sbatp382
Rp383
(dp384
g12
S'word: has, index: 45'
p385
sbatp386
Rp387
(dp388
g12
Vconj
p389
sbag0
(g1
g2
(lp390
(lp391
S'word: even, index: 34'
p392
aatp393
Rp394
(dp395
g12
Vadvmod
p396
sbatp397
Rp398
(dp399
g12
S'word: has, index: 37'
p400
sbatp401
Rp402
(dp403
g12
Vadvcl
p404
sbag0
(g1
g2
(lp405
g0
(g1
g2
(lp406
g0
(g1
g2
(lp407
g0
(g1
g2
(lp408
g0
(g1
g2
(lp409
(lp410
S'word: the, index: 24'
p411
aatp412
Rp413
(dp414
g12
Vdet
p415
sbatp416
Rp417
(dp418
g12
S'word: spring, index: 25'
p419
sbatp420
Rp421
(dp422
g12
Vprep
p423
sbatp424
Rp425
(dp426
g12
S'word: late, index: 22'
p427
sbatp428
Rp429
(dp430
g12
Vamod
p431
sbag0
(g1
g2
(lp432
(lp433
S'word: even, index: 8'
p434
aatp435
Rp436
(dp437
g12
Vadvmod
p438
sbag0
(g1
g2
(lp439
(lp440
S'word: though, index: 9'
p441
aatp442
Rp443
(dp444
g12
Vmark
p445
sbag0
(g1
g2
(lp446
(lp447
S'word: it, index: 10'
p448
aatp449
Rp450
(dp451
g12
Vnsubj
p452
sbag0
(g1
g2
(lp453
(lp454
S"word: 's, index: 11"
p455
aatp456
Rp457
(dp458
g12
Vcop
p459
sbag0
(g1
g2
(lp460
g383
atp461
Rp462
(dp463
g12
Vadvcl
p464
sbag0
(g1
g2
(lp465
g0
(g1
g2
(lp466
g0
(g1
g2
(lp467
g164
atp468
Rp469
(dp470
g12
Vconj
p471
sbag0
(g1
g2
(lp472
g0
(g1
g2
(lp473
g0
(g1
g2
(lp474
(lp475
S'word: a, index: 12'
p476
aatp477
Rp478
(dp479
g12
Vdet
p480
sbatp481
Rp482
(dp483
g12
S'word: little, index: 13'
p484
sbatp485
Rp486
(dp487
g12
Vnpadvmod
p488
sbatp489
Rp490
(dp491
g12
S'word: early, index: 14'
p492
sbatp493
Rp494
(dp495
g12
Vamod
p496
sbag0
(g1
g2
(lp497
g0
(g1
g2
(lp498
g0
(g1
g2
(lp499
(lp500
S'word: for, index: 26'
p501
aatp502
Rp503
(dp504
g12
Vmark
p505
sbag0
(g1
g2
(lp506
(lp507
S'word: him, index: 27'
p508
aatp509
Rp510
(dp511
g12
Vnsubj
p512
sbag0
(g1
g2
(lp513
(lp514
S'word: to, index: 28'
p515
aatp516
Rp517
(dp518
g12
Vaux
p519
sbag0
(g1
g2
(lp520
(lp521
S'word: be, index: 29'
p522
aatp523
Rp524
(dp525
g12
Vaux
p526
sbag0
(g1
g2
(lp527
g0
(g1
g2
(lp528
g0
(g1
g2
(lp529
(lp530
S'word: a, index: 31'
p531
aatp532
Rp533
(dp534
g12
Vdet
p535
sbatp536
Rp537
(dp538
g12
S'word: kite, index: 32'
p539
sbatp540
Rp541
(dp542
g12
Vdobj
p543
sbatp544
Rp545
(dp546
g12
S'word: flying, index: 30'
p547
sbatp548
Rp549
(dp550
g12
Vadvcl
p551
sbatp552
Rp553
(dp554
g12
S'word: bit, index: 21'
p555
sbatp556
Rp557
(dp558
g12
Vadvcl
p559
sbag0
(g1
g2
(lp560
g0
(g1
g2
(lp561
g0
(g1
g2
(lp562
(lp563
S'word: the, index: 5'
p564
aatp565
Rp566
(dp567
g12
Vdet
p568
sbatp569
Rp570
(dp571
g12
S'word: summertime, index: 6'
p572
sbatp573
Rp574
(dp575
g12
Vprep
p576
sbag0
(g1
g2
(lp577
(lp578
S'word: And, index: 1'
p579
aatp580
Rp581
(dp582
g12
Vcc
p583
sbag0
(g1
g2
(lp584
(lp585
S'word: it, index: 2'
p586
aatp587
Rp588
(dp589
g12
Vnsubj
p590
sbatp591
Rp592
(dp593
g12
S"word: 's, index: 3"
p594
sbatp595
Rp596
(dp597
g12
S'id: 1'
p598
sbag0
(g1
g2
(lp599
g0
(g1
g2
(lp600
g0
(g1
g2
(lp601
g0
(g1
g2
(lp602
g0
(g1
g2
(lp603
(lp604
S'word: it, index: 40'
p605
aatp606
Rp607
(dp608
g12
Vnsubj
p609
sbag0
(g1
g2
(lp610
(lp611
S'word: for, index: 42'
p612
aatp613
Rp614
(dp615
g12
Vprep
p616
sbatp617
Rp618
(dp619
g12
S"word: 's, index: 41"
p620
sbatp621
Rp622
(dp623
g12
Vconj
p624
sbag0
(g1
g2
(lp625
g0
(g1
g2
(lp626
g0
(g1
g2
(lp627
(lp628
S'word: there, index: 10'
p629
aatp630
Rp631
(dp632
g12
Vexpl
p633
sbag0
(g1
g2
(lp634
g0
(g1
g2
(lp635
g0
(g1
g2
(lp636
(lp637
S'word: a, index: 12'
p638
aatp639
Rp640
(dp641
g12
Vdet
p642
sbatp643
Rp644
(dp645
g12
S'word: sailboat, index: 13'
p646
sbatp647
Rp648
(dp649
g12
Vnsubj
p650
sbag0
(g1
g2
(lp651
g0
(g1
g2
(lp652
g0
(g1
g2
(lp653
(lp654
S'word: there, index: 16'
p655
aatp656
Rp657
(dp658
g12
Vexpl
p659
sbag0
(g1
g2
(lp660
g0
(g1
g2
(lp661
g0
(g1
g2
(lp662
(lp663
S'word: there, index: 22'
p664
aatp665
Rp666
(dp667
g12
Vprep
p668
sbag0
(g1
g2
(lp669
g0
(g1
g2
(lp670
g0
(g1
g2
(lp671
(lp672
S'word: the, index: 24'
p673
aatp674
Rp675
(dp676
g12
Vdet
p677
sbag0
(g1
g2
(lp678
g0
(g1
g2
(lp679
g0
(g1
g2
(lp680
(lp681
S'word: four, index: 26'
p682
aatp683
Rp684
(dp685
g12
Vnumber
p686
sbag0
(g1
g2
(lp687
(lp688
S'word: zero, index: 28'
p689
aatp690
Rp691
(dp692
g12
Vdep
p693
sbatp694
Rp695
(dp696
g12
S'word: seven, index: 27'
p697
sbatp698
Rp699
(dp700
g12
Vdep
p701
sbatp702
Rp703
(dp704
g12
S'word: number, index: 25'
p705
sbatp706
Rp707
(dp708
g12
Vprep
p709
sbag0
(g1
g2
(lp710
(lp711
S'word: a, index: 18'
p712
aatp713
Rp714
(dp715
g12
Vdet
p716
sbag0
(g1
g2
(lp717
(lp718
S'word: special, index: 19'
p719
aatp720
Rp721
(dp722
g12
Vamod
p723
sbatp724
Rp725
(dp726
g12
S'word: number, index: 20'
p727
sbatp728
Rp729
(dp730
g12
Vnsubj
p731
sbatp732
Rp733
(dp734
g12
S"word: 's, index: 17"
p735
sbatp736
Rp737
(dp738
g12
Vconj
p739
sbatp740
Rp741
(dp742
g12
S"word: 's, index: 11"
p743
sbatp744
Rp745
(dp746
g12
Vconj
p747
sbag0
(g1
g2
(lp748
(lp749
S'word: There, index: 1'
p750
aatp751
Rp752
(dp753
g12
Vexpl
p754
sbag0
(g1
g2
(lp755
g733
atp756
Rp757
(dp758
g12
Vconj
p759
sbag0
(g1
g2
(lp760
g0
(g1
g2
(lp761
g0
(g1
g2
(lp762
(lp763
S'word: I, index: 30'
p764
aatp765
Rp766
(dp767
g12
Vnsubj
p768
sbag0
(g1
g2
(lp769
(lp770
S'word: do, index: 31'
p771
aatp772
Rp773
(dp774
g12
Vaux
p775
sbag0
(g1
g2
(lp776
(lp777
S"word: n't, index: 32"
p778
aatp779
Rp780
(dp781
g12
Vneg
p782
sbag0
(g1
g2
(lp783
g0
(g1
g2
(lp784
g0
(g1
g2
(lp785
(lp786
S'word: what, index: 34'
p787
aatp788
Rp789
(dp790
g12
Vprep
p791
sbag0
(g1
g2
(lp792
(lp793
S'word: it, index: 35'
p794
aatp795
Rp796
(dp797
g12
Vnsubj
p798
sbatp799
Rp800
(dp801
g12
S"word: 's, index: 36"
p802
sbatp803
Rp804
(dp805
g12
Vccomp
p806
sbatp807
Rp808
(dp809
g12
S'word: know, index: 33'
p810
sbatp811
Rp812
(dp813
g12
Vdep
p814
sbag0
(g1
g2
(lp815
g0
(g1
g2
(lp816
g0
(g1
g2
(lp817
g0
(g1
g2
(lp818
g0
(g1
g2
(lp819
(lp820
S'word: the, index: 6'
p821
aatp822
Rp823
(dp824
g12
Vdet
p825
sbatp826
Rp827
(dp828
g12
S'word: lake, index: 7'
p829
sbatp830
Rp831
(dp832
g12
Vprep
p833
sbag0
(g1
g2
(lp834
(lp835
S'word: the, index: 3'
p836
aatp837
Rp838
(dp839
g12
Vdet
p840
sbatp841
Rp842
(dp843
g12
S'word: water, index: 4'
p844
sbatp845
Rp846
(dp847
g12
Vnsubj
p848
sbatp849
Rp850
(dp851
g12
S"word: 's, index: 2"
p852
sbatp853
Rp854
(dp855
g12
S'id: 2'
p856
sbag0
(g1
g2
(lp857
g0
(g1
g2
(lp858
g0
(g1
g2
(lp859
g0
(g1
g2
(lp860
g0
(g1
g2
(lp861
g0
(g1
g2
(lp862
g0
(g1
g2
(lp863
(lp864
S'word: a, index: 26'
p865
aatp866
Rp867
(dp868
g12
Vdet
p869
sbag0
(g1
g2
(lp870
(lp871
S'word: fishing, index: 27'
p872
aatp873
Rp874
(dp875
g12
Vnn
p876
sbatp877
Rp878
(dp879
g12
S'word: pole, index: 28'
p880
sbatp881
Rp882
(dp883
g12
Vdobj
p884
sbag0
(g1
g2
(lp885
g0
(g1
g2
(lp886
g0
(g1
g2
(lp887
(lp888
S'word: it, index: 42'
p889
aatp890
Rp891
(dp892
g12
Vnsubj
p893
sbag0
(g1
g2
(lp894
(lp895
S"word: 's, index: 43"
p896
aatp897
Rp898
(dp899
g12
Vaux
p900
sbag0
(g1
g2
(lp901
g0
(g1
g2
(lp902
g0
(g1
g2
(lp903
(lp904
S'word: as, index: 45'
p905
aatp906
Rp907
(dp908
g12
Vmark
p909
sbag0
(g1
g2
(lp910
g0
(g1
g2
(lp911
g0
(g1
g2
(lp912
(lp913
S'word: the, index: 46'
p914
aatp915
Rp916
(dp917
g12
Vdet
p918
sbatp919
Rp920
(dp921
g12
S'word: fish, index: 47'
p922
sbatp923
Rp924
(dp925
g12
Vnsubj
p926
sbag0
(g1
g2
(lp927
(lp928
S'word: is, index: 48'
p929
aatp930
Rp931
(dp932
g12
Vaux
p933
sbag0
(g1
g2
(lp934
(lp935
S'word: there, index: 51'
p936
aatp937
Rp938
(dp939
g12
Vprep
p940
sbatp941
Rp942
(dp943
g12
S'word: messing, index: 49'
p944
sbatp945
Rp946
(dp947
g12
Vadvcl
p948
sbatp949
Rp950
(dp951
g12
S'word: splashing, index: 44'
p952
sbatp953
Rp954
(dp955
g12
Vconj
p956
sbag0
(g1
g2
(lp957
g0
(g1
g2
(lp958
g0
(g1
g2
(lp959
g950
atp960
Rp961
(dp962
g12
Vconj
p963
sbag0
(g1
g2
(lp964
(lp965
S'word: he, index: 31'
p966
aatp967
Rp968
(dp969
g12
Vnsubj
p970
sbag0
(g1
g2
(lp971
(lp972
S"word: 's, index: 32"
p973
aatp974
Rp975
(dp976
g12
Vaux
p977
sbag0
(g1
g2
(lp978
g0
(g1
g2
(lp979
g0
(g1
g2
(lp980
(lp981
S'word: a, index: 34'
p982
aatp983
Rp984
(dp985
g12
Vdet
p986
sbatp987
Rp988
(dp989
g12
S'word: fish, index: 35'
p990
sbatp991
Rp992
(dp993
g12
Vnpadvmod
p994
sbag0
(g1
g2
(lp995
g0
(g1
g2
(lp996
g0
(g1
g2
(lp997
(lp998
S'word: the, index: 38'
p999
aatp1000
Rp1001
(dp1002
g12
Vdet
p1003
sbatp1004
Rp1005
(dp1006
g12
S'word: lake, index: 39'
p1007
sbatp1008
Rp1009
(dp1010
g12
Vprep
p1011
sbatp1012
Rp1013
(dp1014
g12
S'word: pulling, index: 33'
p1015
sbatp1016
Rp1017
(dp1018
g12
Vconj
p1019
sbag0
(g1
g2
(lp1020
(lp1021
S'word: he, index: 23'
p1022
aatp1023
Rp1024
(dp1025
g12
Vnsubjpass
p1026
sbag0
(g1
g2
(lp1027
(lp1028
S"word: 's, index: 24"
p1029
aatp1030
Rp1031
(dp1032
g12
Vauxpass
p1033
sbatp1034
Rp1035
(dp1036
g12
S'word: got, index: 25'
p1037
sbatp1038
Rp1039
(dp1040
g12
Vconj
p1041
sbag0
(g1
g2
(lp1042
(lp1043
S'word: That, index: 1'
p1044
aatp1045
Rp1046
(dp1047
g12
Vnsubj
p1048
sbag0
(g1
g2
(lp1049
g0
(g1
g2
(lp1050
g0
(g1
g2
(lp1051
g1035
atp1052
Rp1053
(dp1054
g12
Vconj
p1055
sbag0
(g1
g2
(lp1056
(lp1057
S'word: it, index: 15'
p1058
aatp1059
Rp1060
(dp1061
g12
Vnsubj
p1062
sbag0
(g1
g2
(lp1063
(lp1064
S"word: 's, index: 16"
p1065
aatp1066
Rp1067
(dp1068
g12
Vaux
p1069
sbag0
(g1
g2
(lp1070
g1013
atp1071
Rp1072
(dp1073
g12
Vconj
p1074
sbag0
(g1
g2
(lp1075
g0
(g1
g2
(lp1076
g0
(g1
g2
(lp1077
(lp1078
S'word: the, index: 19'
p1079
aatp1080
Rp1081
(dp1082
g12
Vdet
p1083
sbatp1084
Rp1085
(dp1086
g12
S'word: water, index: 20'
p1087
sbatp1088
Rp1089
(dp1090
g12
Vprep
p1091
sbatp1092
Rp1093
(dp1094
g12
S'word: extending, index: 17'
p1095
sbatp1096
Rp1097
(dp1098
g12
Vconj
p1099
sbag0
(g1
g2
(lp1100
(lp1101
S"word: 's, index: 2"
p1102
aatp1103
Rp1104
(dp1105
g12
Vcop
p1106
sbag0
(g1
g2
(lp1107
(lp1108
S'word: a, index: 3'
p1109
aatp1110
Rp1111
(dp1112
g12
Vdet
p1113
sbag0
(g1
g2
(lp1114
g0
(g1
g2
(lp1115
g0
(g1
g2
(lp1116
g0
(g1
g2
(lp1117
g0
(g1
g2
(lp1118
(lp1119
S'word: the, index: 10'
p1120
aatp1121
Rp1122
(dp1123
g12
Vdet
p1124
sbag0
(g1
g2
(lp1125
(lp1126
S'word: and, index: 12'
p1127
aatp1128
Rp1129
(dp1130
g12
Vcc
p1131
sbatp1132
Rp1133
(dp1134
g12
S'word: dock, index: 11'
p1135
sbatp1136
Rp1137
(dp1138
g12
Vprep
p1139
sbag0
(g1
g2
(lp1140
(lp1141
S'word: that, index: 6'
p1142
aatp1143
Rp1144
(dp1145
g12
Vnsubj
p1146
sbag0
(g1
g2
(lp1147
(lp1148
S"word: 's, index: 7"
p1149
aatp1150
Rp1151
(dp1152
g12
Vcop
p1153
sbatp1154
Rp1155
(dp1156
g12
S'word: there, index: 8'
p1157
sbatp1158
Rp1159
(dp1160
g12
Vrcmod
p1161
sbatp1162
Rp1163
(dp1164
g12
S'word: guy, index: 4'
p1165
sbatp1166
Rp1167
(dp1168
g12
S'id: 3'
p1169
sbag0
(g1
g2
(lp1170
g0
(g1
g2
(lp1171
g0
(g1
g2
(lp1172
g0
(g1
g2
(lp1173
g0
(g1
g2
(lp1174
(lp1175
S'word: cut, index: 28'
p1176
aatp1177
Rp1178
(dp1179
g12
Vnn
p1180
sbag0
(g1
g2
(lp1181
(lp1182
S'word: a, index: 25'
p1183
aatp1184
Rp1185
(dp1186
g12
Vdet
p1187
sbag0
(g1
g2
(lp1188
g0
(g1
g2
(lp1189
g0
(g1
g2
(lp1190
(lp1191
S'word: nice, index: 26'
p1192
aatp1193
Rp1194
(dp1195
g12
Vamod
p1196
sbatp1197
Rp1198
(dp1199
g12
S'word: clean, index: 27'
p1200
sbatp1201
Rp1202
(dp1203
g12
Vamod
p1204
sbatp1205
Rp1206
(dp1207
g12
S'word: house, index: 29'
p1208
sbatp1209
Rp1210
(dp1211
g12
Vdobj
p1212
sbag0
(g1
g2
(lp1213
g0
(g1
g2
(lp1214
g0
(g1
g2
(lp1215
(lp1216
S'word: a, index: 44'
p1217
aatp1218
Rp1219
(dp1220
g12
Vdet
p1221
sbag0
(g1
g2
(lp1222
(lp1223
S'word: single, index: 45'
p1224
aatp1225
Rp1226
(dp1227
g12
Vamod
p1228
sbag0
(g1
g2
(lp1229
(lp1230
S'word: car, index: 46'
p1231
aatp1232
Rp1233
(dp1234
g12
Vnn
p1235
sbag0
(g1
g2
(lp1236
(lp1237
S'word: although, index: 40'
p1238
aatp1239
Rp1240
(dp1241
g12
Vmark
p1242
sbag0
(g1
g2
(lp1243
(lp1244
S'word: it, index: 41'
p1245
aatp1246
Rp1247
(dp1248
g12
Vnsubj
p1249
sbag0
(g1
g2
(lp1250
(lp1251
S"word: 's, index: 42"
p1252
aatp1253
Rp1254
(dp1255
g12
Vcop
p1256
sbag0
(g1
g2
(lp1257
(lp1258
S'word: only, index: 43'
p1259
aatp1260
Rp1261
(dp1262
g12
Vadvmod
p1263
sbatp1264
Rp1265
(dp1266
g12
S'word: garage, index: 47'
p1267
sbatp1268
Rp1269
(dp1270
g12
Vadvcl
p1271
sbag0
(g1
g2
(lp1272
(lp1273
S'word: I, index: 1'
p1274
aatp1275
Rp1276
(dp1277
g12
Vnsubj
p1278
sbag0
(g1
g2
(lp1279
g0
(g1
g2
(lp1280
g0
(g1
g2
(lp1281
(lp1282
S'word: a, index: 32'
p1283
aatp1284
Rp1285
(dp1286
g12
Vdet
p1287
sbag0
(g1
g2
(lp1288
(lp1289
S'word: nice, index: 33'
p1290
aatp1291
Rp1292
(dp1293
g12
Vamod
p1294
sbag0
(g1
g2
(lp1295
g0
(g1
g2
(lp1296
g0
(g1
g2
(lp1297
g0
(g1
g2
(lp1298
g0
(g1
g2
(lp1299
(lp1300
S'word: the, index: 37'
p1301
aatp1302
Rp1303
(dp1304
g12
Vdet
p1305
sbatp1306
Rp1307
(dp1308
g12
S'word: garage, index: 38'
p1309
sbatp1310
Rp1311
(dp1312
g12
Vprep
p1313
sbatp1314
Rp1315
(dp1316
g12
S'word: parked, index: 35'
p1317
sbatp1318
Rp1319
(dp1320
g12
Vvmod
p1321
sbatp1322
Rp1323
(dp1324
g12
S'word: car, index: 34'
p1325
sbatp1326
Rp1327
(dp1328
g12
Vdobj
p1329
sbag0
(g1
g2
(lp1330
g0
(g1
g2
(lp1331
g0
(g1
g2
(lp1332
g1206
atp1333
Rp1334
(dp1335
g12
Vconj
p1336
sbag0
(g1
g2
(lp1337
g0
(g1
g2
(lp1338
g0
(g1
g2
(lp1339
(lp1340
S'word: the, index: 13'
p1341
aatp1342
Rp1343
(dp1344
g12
Vdet
p1345
sbag0
(g1
g2
(lp1346
(lp1347
S'word: big, index: 14'
p1348
aatp1349
Rp1350
(dp1351
g12
Vamod
p1352
sbag0
(g1
g2
(lp1353
g0
(g1
g2
(lp1354
g0
(g1
g2
(lp1355
(lp1356
S'word: there, index: 17'
p1357
aatp1358
Rp1359
(dp1360
g12
Vpobj
p1361
sbatp1362
Rp1363
(dp1364
g12
S'word: out, index: 16'
p1365
sbatp1366
Rp1367
(dp1368
g12
Vprep
p1369
sbag0
(g1
g2
(lp1370
g0
(g1
g2
(lp1371
g0
(g1
g2
(lp1372
(lp1373
S'word: nice, index: 20'
p1374
aatp1375
Rp1376
(dp1377
g12
Vamod
p1378
sbag0
(g1
g2
(lp1379
(lp1380
S'word: everything, index: 23'
p1381
aatp1382
Rp1383
(dp1384
g12
Vconj
p1385
sbatp1386
Rp1387
(dp1388
g12
S'word: bushes, index: 21'
p1389
sbatp1390
Rp1391
(dp1392
g12
Vconj
p1393
sbag0
(g1
g2
(lp1394
(lp1395
S'word: everything, index: 23'
p1396
aatp1397
Rp1398
(dp1399
g12
Vconj
p1400
sbatp1401
Rp1402
(dp1403
g12
S'word: tree, index: 15'
p1404
sbatp1405
Rp1406
(dp1407
g12
Vprep
p1408
sbag0
(g1
g2
(lp1409
g1323
atp1410
Rp1411
(dp1412
g12
Vconj
p1413
sbag0
(g1
g2
(lp1414
(lp1415
S'word: the, index: 3'
p1416
aatp1417
Rp1418
(dp1419
g12
Vdet
p1420
sbag0
(g1
g2
(lp1421
(lp1422
S'word: pretty, index: 4'
p1423
aatp1424
Rp1425
(dp1426
g12
Vamod
p1427
sbag0
(g1
g2
(lp1428
g1387
atp1429
Rp1430
(dp1431
g12
Vprep
p1432
sbag0
(g1
g2
(lp1433
g0
(g1
g2
(lp1434
g0
(g1
g2
(lp1435
g0
(g1
g2
(lp1436
g0
(g1
g2
(lp1437
(lp1438
S'word: the, index: 7'
p1439
aatp1440
Rp1441
(dp1442
g12
Vdet
p1443
sbag0
(g1
g2
(lp1444
(lp1445
S'word: the, index: 10'
p1446
aatp1447
Rp1448
(dp1449
g12
Vdep
p1450
sbatp1451
Rp1452
(dp1453
g12
S'word: on, index: 9'
p1454
sbatp1455
Rp1456
(dp1457
g12
Vpobj
p1458
sbatp1459
Rp1460
(dp1461
g12
S'word: on, index: 6'
p1462
sbatp1463
Rp1464
(dp1465
g12
Vprep
p1466
sbatp1467
Rp1468
(dp1469
g12
S'word: leaves, index: 5'
p1470
sbatp1471
Rp1472
(dp1473
g12
Vdobj
p1474
sbatp1475
Rp1476
(dp1477
g12
S'word: see, index: 2'
p1478
sbatp1479
Rp1480
(dp1481
g12
S'id: 4'
p1482
sbag0
(g1
g2
(lp1483
g0
(g1
g2
(lp1484
g0
(g1
g2
(lp1485
(lp1486
S'word: I, index: 1'
p1487
aatp1488
Rp1489
(dp1490
g12
Vnsubj
p1491
sbag0
(g1
g2
(lp1492
g0
(g1
g2
(lp1493
g0
(g1
g2
(lp1494
(lp1495
S'word: might, index: 15'
p1496
aatp1497
Rp1498
(dp1499
g12
Vaux
p1500
sbag0
(g1
g2
(lp1501
(lp1502
S'word: be, index: 16'
p1503
aatp1504
Rp1505
(dp1506
g12
Vcop
p1507
sbag0
(g1
g2
(lp1508
(lp1509
S'word: special, index: 18'
p1510
aatp1511
Rp1512
(dp1513
g12
Vamod
p1514
sbag0
(g1
g2
(lp1515
(lp1516
S'word: that, index: 19'
p1517
aatp1518
Rp1519
(dp1520
g12
Vadvmod
p1521
sbag0
(g1
g2
(lp1522
(lp1523
S'word: what, index: 5'
p1524
aatp1525
Rp1526
(dp1527
g12
Vnsubj
p1528
sbag0
(g1
g2
(lp1529
g0
(g1
g2
(lp1530
g0
(g1
g2
(lp1531
(lp1532
S'word: that, index: 21'
p1533
aatp1534
Rp1535
(dp1536
g12
Vmark
p1537
sbag0
(g1
g2
(lp1538
(lp1539
S'word: they, index: 22'
p1540
aatp1541
Rp1542
(dp1543
g12
Vnsubj
p1544
sbatp1545
Rp1546
(dp1547
g12
S'word: call, index: 23'
p1548
sbatp1549
Rp1550
(dp1551
g12
Vccomp
p1552
sbag0
(g1
g2
(lp1553
g0
(g1
g2
(lp1554
g0
(g1
g2
(lp1555
(lp1556
S'word: that, index: 6'
p1557
aatp1558
Rp1559
(dp1560
g12
Vmark
p1561
sbag0
(g1
g2
(lp1562
(lp1563
S'word: that, index: 8'
p1564
aatp1565
Rp1566
(dp1567
g12
Vnsubj
p1568
sbag0
(g1
g2
(lp1569
(lp1570
S"word: 's, index: 9"
p1571
aatp1572
Rp1573
(dp1574
g12
Vcop
p1575
sbag0
(g1
g2
(lp1576
(lp1577
S'word: a, index: 10'
p1578
aatp1579
Rp1580
(dp1581
g12
Vdet
p1582
sbag0
(g1
g2
(lp1583
g0
(g1
g2
(lp1584
g0
(g1
g2
(lp1585
(lp1586
S'word: it, index: 12'
p1587
aatp1588
Rp1589
(dp1590
g12
Vnsubj
p1591
sbatp1592
Rp1593
(dp1594
g12
S'word: might, index: 13'
p1595
sbatp1596
Rp1597
(dp1598
g12
Vrcmod
p1599
sbatp1600
Rp1601
(dp1602
g12
S'word: flag, index: 11'
p1603
sbatp1604
Rp1605
(dp1606
g12
Vccomp
p1607
sbatp1608
Rp1609
(dp1610
g12
S'word: something, index: 17'
p1611
sbatp1612
Rp1613
(dp1614
g12
Vccomp
p1615
sbag0
(g1
g2
(lp1616
(lp1617
S'word: do, index: 2'
p1618
aatp1619
Rp1620
(dp1621
g12
Vaux
p1622
sbag0
(g1
g2
(lp1623
(lp1624
S"word: n't, index: 3"
p1625
aatp1626
Rp1627
(dp1628
g12
Vneg
p1629
sbag0
(g1
g2
(lp1630
g0
(g1
g2
(lp1631
g0
(g1
g2
(lp1632
g0
(g1
g2
(lp1633
g0
(g1
g2
(lp1634
(lp1635
S'word: where, index: 29'
p1636
aatp1637
Rp1638
(dp1639
g12
Vadvmod
p1640
sbag0
(g1
g2
(lp1641
(lp1642
S'word: they, index: 30'
p1643
aatp1644
Rp1645
(dp1646
g12
Vnsubj
p1647
sbatp1648
Rp1649
(dp1650
g12
S'word: live, index: 31'
p1651
sbatp1652
Rp1653
(dp1654
g12
Vprepc
p1655
sbag0
(g1
g2
(lp1656
(lp1657
S'word: it, index: 26'
p1658
aatp1659
Rp1660
(dp1661
g12
Vnsubj
p1662
sbatp1663
Rp1664
(dp1665
g12
S"word: 's, index: 27"
p1666
sbatp1667
Rp1668
(dp1669
g12
Vconj
p1670
sbatp1671
Rp1672
(dp1673
g12
S'word: know, index: 4'
p1674
sbatp1675
Rp1676
(dp1677
g12
S'id: 5'
p1678
sbag0
(g1
g2
(lp1679
g0
(g1
g2
(lp1680
g0
(g1
g2
(lp1681
g0
(g1
g2
(lp1682
g0
(g1
g2
(lp1683
(lp1684
S'word: like, index: 3'
p1685
aatp1686
Rp1687
(dp1688
g12
Vmark
p1689
sbag0
(g1
g2
(lp1690
g0
(g1
g2
(lp1691
g0
(g1
g2
(lp1692
(lp1693
S'word: daddy, index: 6'
p1694
aatp1695
Rp1696
(dp1697
g12
Vconj
p1698
sbatp1699
Rp1700
(dp1701
g12
S'word: mommy, index: 4'
p1702
sbatp1703
Rp1704
(dp1705
g12
Vnsubj
p1706
sbag0
(g1
g2
(lp1707
(lp1708
S'word: daddy, index: 6'
p1709
aatp1710
Rp1711
(dp1712
g12
Vnsubj
p1713
sbag0
(g1
g2
(lp1714
(lp1715
S'word: are, index: 7'
p1716
aatp1717
Rp1718
(dp1719
g12
Vaux
p1720
sbag0
(g1
g2
(lp1721
(lp1722
S'word: there, index: 9'
p1723
aatp1724
Rp1725
(dp1726
g12
Vadvmod
p1727
sbag0
(g1
g2
(lp1728
g0
(g1
g2
(lp1729
g0
(g1
g2
(lp1730
g0
(g1
g2
(lp1731
g0
(g1
g2
(lp1732
(lp1733
S'word: a, index: 11'
p1734
aatp1735
Rp1736
(dp1737
g12
Vdet
p1738
sbag0
(g1
g2
(lp1739
(lp1740
S'word: tuh, index: 12'
p1741
aatp1742
Rp1743
(dp1744
g12
Vnn
p1745
sbatp1746
Rp1747
(dp1748
g12
S'word: picnic, index: 13'
p1749
sbatp1750
Rp1751
(dp1752
g12
Vdobj
p1753
sbatp1754
Rp1755
(dp1756
g12
S'word: doing, index: 10'
p1757
sbatp1758
Rp1759
(dp1760
g12
Vvmod
p1761
sbatp1762
Rp1763
(dp1764
g12
S'word: sitting, index: 8'
p1765
sbatp1766
Rp1767
(dp1768
g12
Vadvcl
p1769
sbag0
(g1
g2
(lp1770
g0
(g1
g2
(lp1771
g0
(g1
g2
(lp1772
(lp1773
S'word: there, index: 23'
p1774
aatp1775
Rp1776
(dp1777
g12
Vexpl
p1778
sbag0
(g1
g2
(lp1779
g0
(g1
g2
(lp1780
g0
(g1
g2
(lp1781
(lp1782
S'word: a, index: 25'
p1783
aatp1784
Rp1785
(dp1786
g12
Vdet
p1787
sbag0
(g1
g2
(lp1788
(lp1789
S'word: transistor, index: 26'
p1790
aatp1791
Rp1792
(dp1793
g12
Vnn
p1794
sbag0
(g1
g2
(lp1795
(lp1796
S'word: type, index: 27'
p1797
aatp1798
Rp1799
(dp1800
g12
Vnn
p1801
sbag0
(g1
g2
(lp1802
g0
(g1
g2
(lp1803
g0
(g1
g2
(lp1804
g0
(g1
g2
(lp1805
g0
(g1
g2
(lp1806
(lp1807
S'word: I, index: 34'
p1808
aatp1809
Rp1810
(dp1811
g12
Vnsubj
p1812
sbag0
(g1
g2
(lp1813
g0
(g1
g2
(lp1814
g0
(g1
g2
(lp1815
(lp1816
S'word: they, index: 36'
p1817
aatp1818
Rp1819
(dp1820
g12
Vnsubj
p1821
sbag0
(g1
g2
(lp1822
(lp1823
S'word: it, index: 38'
p1824
aatp1825
Rp1826
(dp1827
g12
Vdobj
p1828
sbatp1829
Rp1830
(dp1831
g12
S'word: call, index: 37'
p1832
sbatp1833
Rp1834
(dp1835
g12
Vccomp
p1836
sbatp1837
Rp1838
(dp1839
g12
S'word: guess, index: 35'
p1840
sbatp1841
Rp1842
(dp1843
g12
Vrcmod
p1844
sbag0
(g1
g2
(lp1845
(lp1846
S'word: a, index: 31'
p1847
aatp1848
Rp1849
(dp1850
g12
Vdet
p1851
sbag0
(g1
g2
(lp1852
(lp1853
S'word: boom, index: 32'
p1854
aatp1855
Rp1856
(dp1857
g12
Vnn
p1858
sbatp1859
Rp1860
(dp1861
g12
S'word: box, index: 33'
p1862
sbatp1863
Rp1864
(dp1865
g12
Vconj
p1866
sbatp1867
Rp1868
(dp1869
g12
S'word: radio, index: 28'
p1870
sbatp1871
Rp1872
(dp1873
g12
Vnsubj
p1874
sbag0
(g1
g2
(lp1875
g1860
atp1876
Rp1877
(dp1878
g12
Vnsubj
p1879
sbatp1880
Rp1881
(dp1882
g12
S"word: 's, index: 24"
p1883
sbatp1884
Rp1885
(dp1886
g12
Vconj
p1887
sbag0
(g1
g2
(lp1888
(lp1889
S'word: It, index: 1'
p1890
aatp1891
Rp1892
(dp1893
g12
Vnsubj
p1894
sbag0
(g1
g2
(lp1895
g0
(g1
g2
(lp1896
g0
(g1
g2
(lp1897
g0
(g1
g2
(lp1898
g0
(g1
g2
(lp1899
(lp1900
S'word: their, index: 18'
p1901
aatp1902
Rp1903
(dp1904
g12
Vposs
p1905
sbatp1906
Rp1907
(dp1908
g12
S'word: sandals, index: 19'
p1909
sbatp1910
Rp1911
(dp1912
g12
Vdobj
p1913
sbag0
(g1
g2
(lp1914
(lp1915
S'word: on, index: 20'
p1916
aatp1917
Rp1918
(dp1919
g12
Vprep
p1920
sbag0
(g1
g2
(lp1921
(lp1922
S'word: they, index: 15'
p1923
aatp1924
Rp1925
(dp1926
g12
Vnsubj
p1927
sbag0
(g1
g2
(lp1928
(lp1929
S'word: both, index: 16'
p1930
aatp1931
Rp1932
(dp1933
g12
Vadvmod
p1934
sbatp1935
Rp1936
(dp1937
g12
S'word: have, index: 17'
p1938
sbatp1939
Rp1940
(dp1941
g12
Vccomp
p1942
sbatp1943
Rp1944
(dp1945
g12
S'word: looks, index: 2'
p1946
sbatp1947
Rp1948
(dp1949
g12
S'id: 6'
p1950
sbag0
(g1
g2
(lp1951
g0
(g1
g2
(lp1952
g0
(g1
g2
(lp1953
g0
(g1
g2
(lp1954
g0
(g1
g2
(lp1955
(lp1956
S'word: if, index: 6'
p1957
aatp1958
Rp1959
(dp1960
g12
Vmark
p1961
sbag0
(g1
g2
(lp1962
(lp1963
S'word: that, index: 7'
p1964
aatp1965
Rp1966
(dp1967
g12
Vnsubj
p1968
sbag0
(g1
g2
(lp1969
(lp1970
S"word: 's, index: 8"
p1971
aatp1972
Rp1973
(dp1974
g12
Vcop
p1975
sbag0
(g1
g2
(lp1976
(lp1977
S'word: ginger, index: 9'
p1978
aatp1979
Rp1980
(dp1981
g12
Vnn
p1982
sbag0
(g1
g2
(lp1983
(lp1984
S'word: beer, index: 12'
p1985
aatp1986
Rp1987
(dp1988
g12
Vconj
p1989
sbag0
(g1
g2
(lp1990
(lp1991
S'word: probably, index: 14'
p1992
aatp1993
Rp1994
(dp1995
g12
Vadvmod
p1996
sbag0
(g1
g2
(lp1997
(lp1998
S'word: beer, index: 15'
p1999
aatp2000
Rp2001
(dp2002
g12
Vdep
p2003
sbatp2004
Rp2005
(dp2006
g12
S'word: ale, index: 10'
p2007
sbatp2008
Rp2009
(dp2010
g12
Vadvcl
p2011
sbag0
(g1
g2
(lp2012
(lp2013
S'word: beer, index: 12'
p2014
aatp2015
Rp2016
(dp2017
g12
Vadvcl
p2018
sbag0
(g1
g2
(lp2019
(lp2020
S'word: And, index: 1'
p2021
aatp2022
Rp2023
(dp2024
g12
Vcc
p2025
sbag0
(g1
g2
(lp2026
(lp2027
S'word: I, index: 2'
p2028
aatp2029
Rp2030
(dp2031
g12
Vnsubj
p2032
sbag0
(g1
g2
(lp2033
(lp2034
S'word: do, index: 3'
p2035
aatp2036
Rp2037
(dp2038
g12
Vaux
p2039
sbag0
(g1
g2
(lp2040
(lp2041
S"word: n't, index: 4"
p2042
aatp2043
Rp2044
(dp2045
g12
Vneg
p2046
sbatp2047
Rp2048
(dp2049
g12
S'word: know, index: 5'
p2050
sbatp2051
Rp2052
(dp2053
g12
S'id: 7'
p2054
sbag0
(g1
g2
(lp2055
g0
(g1
g2
(lp2056
g0
(g1
g2
(lp2057
(lp2058
S'word: And, index: 1'
p2059
aatp2060
Rp2061
(dp2062
g12
Vcc
p2063
sbag0
(g1
g2
(lp2064
g0
(g1
g2
(lp2065
g0
(g1
g2
(lp2066
(lp2067
S'word: on, index: 8'
p2068
aatp2069
Rp2070
(dp2071
g12
Vprep
p2072
sbag0
(g1
g2
(lp2073
g0
(g1
g2
(lp2074
g0
(g1
g2
(lp2075
(lp2076
S'word: their, index: 5'
p2077
aatp2078
Rp2079
(dp2080
g12
Vposs
p2081
sbag0
(g1
g2
(lp2082
(lp2083
S'word: leisure, index: 6'
p2084
aatp2085
Rp2086
(dp2087
g12
Vnn
p2088
sbatp2089
Rp2090
(dp2091
g12
S'word: clothes, index: 7'
p2092
sbatp2093
Rp2094
(dp2095
g12
Vdobj
p2096
sbatp2097
Rp2098
(dp2099
g12
S'word: got, index: 4'
p2100
sbatp2101
Rp2102
(dp2103
g12
Vrcmod
p2104
sbatp2105
Rp2106
(dp2107
g12
S'word: their, index: 2'
p2108
sbatp2109
Rp2110
(dp2111
g12
S'id: 8'
p2112
sbag0
(g1
g2
(lp2113
g0
(g1
g2
(lp2114
g0
(g1
g2
(lp2115
(lp2116
S'word: He, index: 1'
p2117
aatp2118
Rp2119
(dp2120
g12
Vnsubj
p2121
sbag0
(g1
g2
(lp2122
(lp2123
S"word: 's, index: 2"
p2124
aatp2125
Rp2126
(dp2127
g12
Vaux
p2128
sbag0
(g1
g2
(lp2129
g0
(g1
g2
(lp2130
g0
(g1
g2
(lp2131
(lp2132
S'word: a, index: 4'
p2133
aatp2134
Rp2135
(dp2136
g12
Vdet
p2137
sbatp2138
Rp2139
(dp2140
g12
S'word: book, index: 5'
p2141
sbatp2142
Rp2143
(dp2144
g12
Vdobj
p2145
sbatp2146
Rp2147
(dp2148
g12
S'word: reading, index: 3'
p2149
sbatp2150
Rp2151
(dp2152
g12
S'id: 9'
p2153
sbag0
(g1
g2
(lp2154
g0
(g1
g2
(lp2155
g0
(g1
g2
(lp2156
(lp2157
S'word: That, index: 1'
p2158
aatp2159
Rp2160
(dp2161
g12
Vnsubj
p2162
sbag0
(g1
g2
(lp2163
(lp2164
S"word: 's, index: 2"
p2165
aatp2166
Rp2167
(dp2168
g12
Vcop
p2169
sbag0
(g1
g2
(lp2170
(lp2171
S'word: the, index: 3'
p2172
aatp2173
Rp2174
(dp2175
g12
Vdet
p2176
sbag0
(g1
g2
(lp2177
(lp2178
S'word: picnic, index: 4'
p2179
aatp2180
Rp2181
(dp2182
g12
Vnn
p2183
sbag0
(g1
g2
(lp2184
g0
(g1
g2
(lp2185
g0
(g1
g2
(lp2186
g0
(g1
g2
(lp2187
g0
(g1
g2
(lp2188
(lp2189
S'word: hot, index: 14'
p2190
aatp2191
Rp2192
(dp2193
g12
Vamod
p2194
sbag0
(g1
g2
(lp2195
(lp2196
S'word: hamburgers, index: 17'
p2197
aatp2198
Rp2199
(dp2200
g12
Vconj
p2201
sbatp2202
Rp2203
(dp2204
g12
S'word: dogs, index: 15'
p2205
sbatp2206
Rp2207
(dp2208
g12
Vprep
p2209
sbag0
(g1
g2
(lp2210
(lp2211
S'word: it, index: 8'
p2212
aatp2213
Rp2214
(dp2215
g12
Vnsubj
p2216
sbag0
(g1
g2
(lp2217
(lp2218
S"word: 's, index: 9"
p2219
aatp2220
Rp2221
(dp2222
g12
Vcop
p2223
sbag0
(g1
g2
(lp2224
g0
(g1
g2
(lp2225
g0
(g1
g2
(lp2226
g2203
atp2227
Rp2228
(dp2229
g12
Vconj
p2230
sbag0
(g1
g2
(lp2231
(lp2232
S'word: hamburgers, index: 17'
p2233
aatp2234
Rp2235
(dp2236
g12
Vconj
p2237
sbatp2238
Rp2239
(dp2240
g12
S'word: sandwiches, index: 12'
p2241
sbatp2242
Rp2243
(dp2244
g12
Vprep
p2245
sbatp2246
Rp2247
(dp2248
g12
S'word: full, index: 10'
p2249
sbatp2250
Rp2251
(dp2252
g12
Vconj
p2253
sbatp2254
Rp2255
(dp2256
g12
S'word: basket, index: 5'
p2257
sbatp2258
Rp2259
(dp2260
g12
S'id: 10'
p2261
sbag0
(g1
g2
(lp2262
g0
(g1
g2
(lp2263
g0
(g1
g2
(lp2264
(lp2265
S'word: I, index: 1'
p2266
aatp2267
Rp2268
(dp2269
g12
Vnsubj
p2270
sbag0
(g1
g2
(lp2271
g0
(g1
g2
(lp2272
g0
(g1
g2
(lp2273
(lp2274
S'word: I, index: 3'
p2275
aatp2276
Rp2277
(dp2278
g12
Vnsubj
p2279
sbag0
(g1
g2
(lp2280
(lp2281
S"word: 've, index: 4"
p2282
aatp2283
Rp2284
(dp2285
g12
Vaux
p2286
sbag0
(g1
g2
(lp2287
(lp2288
S'word: never, index: 5'
p2289
aatp2290
Rp2291
(dp2292
g12
Vneg
p2293
sbag0
(g1
g2
(lp2294
g0
(g1
g2
(lp2295
g0
(g1
g2
(lp2296
(lp2297
S'word: so, index: 7'
p2298
aatp2299
Rp2300
(dp2301
g12
Vadvmod
p2302
sbatp2303
Rp2304
(dp2305
g12
S'word: many, index: 8'
p2306
sbatp2307
Rp2308
(dp2309
g12
Vacomp
p2310
sbag0
(g1
g2
(lp2311
g0
(g1
g2
(lp2312
g0
(g1
g2
(lp2313
(lp2314
S'word: my, index: 10'
p2315
aatp2316
Rp2317
(dp2318
g12
Vposs
p2319
sbatp2320
Rp2321
(dp2322
g12
S'word: life, index: 11'
p2323
sbatp2324
Rp2325
(dp2326
g12
Vprep
p2327
sbatp2328
Rp2329
(dp2330
g12
S'word: seen, index: 6'
p2331
sbatp2332
Rp2333
(dp2334
g12
Vccomp
p2335
sbatp2336
Rp2337
(dp2338
g12
S'word: mean, index: 2'
p2339
sbatp2340
Rp2341
(dp2342
g12
S'id: 11'
p2343
sbag0
(g1
g2
(lp2344
g0
(g1
g2
(lp2345
g0
(g1
g2
(lp2346
g0
(g1
g2
(lp2347
g0
(g1
g2
(lp2348
(lp2349
S'word: the, index: 4'
p2350
aatp2351
Rp2352
(dp2353
g12
Vdet
p2354
sbatp2355
Rp2356
(dp2357
g12
S'word: doggie, index: 5'
p2358
sbatp2359
Rp2360
(dp2361
g12
Vnsubj
p2362
sbag0
(g1
g2
(lp2363
g0
(g1
g2
(lp2364
g0
(g1
g2
(lp2365
g0
(g1
g2
(lp2366
g0
(g1
g2
(lp2367
(lp2368
S'word: his, index: 8'
p2369
aatp2370
Rp2371
(dp2372
g12
Vposs
p2373
sbatp2374
Rp2375
(dp2376
g12
S'word: name, index: 9'
p2377
sbatp2378
Rp2379
(dp2380
g12
Vnsubj
p2381
sbag0
(g1
g2
(lp2382
(lp2383
S'word: is, index: 10'
p2384
aatp2385
Rp2386
(dp2387
g12
Vcop
p2388
sbag0
(g1
g2
(lp2389
(lp2390
S'word: obviously, index: 11'
p2391
aatp2392
Rp2393
(dp2394
g12
Vadvmod
p2395
sbatp2396
Rp2397
(dp2398
g12
S'word: Bowzer, index: 12'
p2399
sbatp2400
Rp2401
(dp2402
g12
Vconj
p2403
sbag0
(g1
g2
(lp2404
g0
(g1
g2
(lp2405
g0
(g1
g2
(lp2406
(lp2407
S'word: he, index: 15'
p2408
aatp2409
Rp2410
(dp2411
g12
Vnsubj
p2412
sbag0
(g1
g2
(lp2413
g0
(g1
g2
(lp2414
g0
(g1
g2
(lp2415
(lp2416
S'word: on, index: 20'
p2417
aatp2418
Rp2419
(dp2420
g12
Vprep
p2421
sbag0
(g1
g2
(lp2422
g0
(g1
g2
(lp2423
g0
(g1
g2
(lp2424
(lp2425
S'word: which, index: 22'
p2426
aatp2427
Rp2428
(dp2429
g12
Vnsubj
p2430
sbag0
(g1
g2
(lp2431
g0
(g1
g2
(lp2432
g0
(g1
g2
(lp2433
(lp2434
S'word: he, index: 24'
p2435
aatp2436
Rp2437
(dp2438
g12
Vnsubj
p2439
sbag0
(g1
g2
(lp2440
g0
(g1
g2
(lp2441
g0
(g1
g2
(lp2442
(lp2443
S'word: he, index: 27'
p2444
aatp2445
Rp2446
(dp2447
g12
Vnsubj
p2448
sbag0
(g1
g2
(lp2449
g0
(g1
g2
(lp2450
g0
(g1
g2
(lp2451
(lp2452
S'word: good, index: 30'
p2453
aatp2454
Rp2455
(dp2456
g12
Vamod
p2457
sbatp2458
Rp2459
(dp2460
g12
S'word: shape, index: 31'
p2461
sbatp2462
Rp2463
(dp2464
g12
Vprep
p2465
sbag0
(g1
g2
(lp2466
(lp2467
S'word: so, index: 32'
p2468
aatp2469
Rp2470
(dp2471
g12
Vadvmod
p2472
sbatp2473
Rp2474
(dp2475
g12
S"word: 's, index: 28"
p2476
sbatp2477
Rp2478
(dp2479
g12
Vccomp
p2480
sbatp2481
Rp2482
(dp2483
g12
S"word: 's, index: 25"
p2484
sbatp2485
Rp2486
(dp2487
g12
Vccomp
p2488
sbatp2489
Rp2490
(dp2491
g12
S'word: means, index: 23'
p2492
sbatp2493
Rp2494
(dp2495
g12
Vdep
p2496
sbag0
(g1
g2
(lp2497
g0
(g1
g2
(lp2498
g0
(g1
g2
(lp2499
(lp2500
S'word: his, index: 18'
p2501
aatp2502
Rp2503
(dp2504
g12
Vposs
p2505
sbatp2506
Rp2507
(dp2508
g12
S'word: tag, index: 19'
p2509
sbatp2510
Rp2511
(dp2512
g12
Vdobj
p2513
sbatp2514
Rp2515
(dp2516
g12
S'word: got, index: 17'
p2517
sbatp2518
Rp2519
(dp2520
g12
Vdep
p2521
sbatp2522
Rp2523
(dp2524
g12
S"word: 's, index: 16"
p2525
sbatp2526
Rp2527
(dp2528
g12
Vconj
p2529
sbag0
(g1
g2
(lp2530
(lp2531
S'word: there, index: 2'
p2532
aatp2533
Rp2534
(dp2535
g12
Vexpl
p2536
sbatp2537
Rp2538
(dp2539
g12
S"word: 's, index: 3"
p2540
sbatp2541
Rp2542
(dp2543
g12
S'id: 12'
p2544
sbatp2545
Rp2546
(dp2547
g12
S'sentences'
p2548
sb.