ccopy_reg
_reconstructor
p0
(cnltk.tree
Tree
p1
c__builtin__
list
p2
(lp3
g0
(g1
g2
(lp4
g0
(g1
g2
(lp5
g0
(g1
g2
(lp6
g0
(g1
g2
(lp7
g0
(g1
g2
(lp8
VThere
p9
atp10
Rp11
(dp12
S'_label'
p13
VEX
p14
sbatp15
Rp16
(dp17
g13
VNP
p18
sbag0
(g1
g2
(lp19
g0
(g1
g2
(lp20
V's
p21
atp22
Rp23
(dp24
g13
VVBZ
p25
sbag0
(g1
g2
(lp26
g0
(g1
g2
(lp27
Vwater
p28
atp29
Rp30
(dp31
g13
VNN
p32
sbatp33
Rp34
(dp35
g13
VNP
p36
sbatp37
Rp38
(dp39
g13
VVP
p40
sbatp41
Rp42
(dp43
g13
VS
p44
sbag0
(g1
g2
(lp45
V,
p46
atp47
Rp48
(dp49
g13
V,
p50
sbag0
(g1
g2
(lp51
g0
(g1
g2
(lp52
Vthere
p53
atp54
Rp55
(dp56
g13
VEX
p57
sbatp58
Rp59
(dp60
g13
VNP
p61
sbag0
(g1
g2
(lp62
g0
(g1
g2
(lp63
V's
p64
atp65
Rp66
(dp67
g13
VVBZ
p68
sbag0
(g1
g2
(lp69
g0
(g1
g2
(lp70
g0
(g1
g2
(lp71
Va
p72
atp73
Rp74
(dp75
g13
VDT
p76
sbag0
(g1
g2
(lp77
Vboat
p78
atp79
Rp80
(dp81
g13
VNN
p82
sbatp83
Rp84
(dp85
g13
VNP
p86
sbag0
(g1
g2
(lp87
g0
(g1
g2
(lp88
Vin
p89
atp90
Rp91
(dp92
g13
VIN
p93
sbag0
(g1
g2
(lp94
g0
(g1
g2
(lp95
Vthe
p96
atp97
Rp98
(dp99
g13
VDT
p100
sbag0
(g1
g2
(lp101
Vwater
p102
atp103
Rp104
(dp105
g13
VNN
p106
sbatp107
Rp108
(dp109
g13
VNP
p110
sbatp111
Rp112
(dp113
g13
VPP
p114
sbatp115
Rp116
(dp117
g13
VNP
p118
sbatp119
Rp120
(dp121
g13
VVP
p122
sbag0
(g1
g2
(lp123
V.
p124
atp125
Rp126
(dp127
g13
V.
p128
sbatp129
Rp130
(dp131
g13
VS
p132
sbatp133
Rp134
(dp135
g13
S'id: 0'
p136
sbag0
(g1
g2
(lp137
g0
(g1
g2
(lp138
g0
(g1
g2
(lp139
g0
(g1
g2
(lp140
VThere
p141
atp142
Rp143
(dp144
g13
VEX
p145
sbatp146
Rp147
(dp148
g13
VNP
p149
sbag0
(g1
g2
(lp150
g0
(g1
g2
(lp151
V's
p152
atp153
Rp154
(dp155
g13
VVBZ
p156
sbag0
(g1
g2
(lp157
g0
(g1
g2
(lp158
g0
(g1
g2
(lp159
Va
p160
atp161
Rp162
(dp163
g13
VDT
p164
sbag0
(g1
g2
(lp165
Vboat
p166
atp167
Rp168
(dp169
g13
VNN
p170
sbatp171
Rp172
(dp173
g13
VNP
p174
sbag0
(g1
g2
(lp175
V,
p176
atp177
Rp178
(dp179
g13
V,
p180
sbag0
(g1
g2
(lp181
Vand
p182
atp183
Rp184
(dp185
g13
VCC
p186
sbag0
(g1
g2
(lp187
g0
(g1
g2
(lp188
g0
(g1
g2
(lp189
Va
p190
atp191
Rp192
(dp193
g13
VDT
p194
sbag0
(g1
g2
(lp195
Vsail
p196
atp197
Rp198
(dp199
g13
VNN
p200
sbag0
(g1
g2
(lp201
Vboat
p202
atp203
Rp204
(dp205
g13
VNN
p206
sbatp207
Rp208
(dp209
g13
VNP
p210
sbag0
(g1
g2
(lp211
g0
(g1
g2
(lp212
Vin
p213
atp214
Rp215
(dp216
g13
VIN
p217
sbag0
(g1
g2
(lp218
g0
(g1
g2
(lp219
Vthe
p220
atp221
Rp222
(dp223
g13
VDT
p224
sbag0
(g1
g2
(lp225
Vwater
p226
atp227
Rp228
(dp229
g13
VNN
p230
sbatp231
Rp232
(dp233
g13
VNP
p234
sbatp235
Rp236
(dp237
g13
VPP
p238
sbatp239
Rp240
(dp241
g13
VNP
p242
sbatp243
Rp244
(dp245
g13
VNP
p246
sbatp247
Rp248
(dp249
g13
VVP
p250
sbag0
(g1
g2
(lp251
V.
p252
atp253
Rp254
(dp255
g13
V.
p256
sbatp257
Rp258
(dp259
g13
VS
p260
sbatp261
Rp262
(dp263
g13
S'id: 1'
p264
sbag0
(g1
g2
(lp265
g0
(g1
g2
(lp266
g0
(g1
g2
(lp267
g0
(g1
g2
(lp268
VThere
p269
atp270
Rp271
(dp272
g13
VEX
p273
sbatp274
Rp275
(dp276
g13
VNP
p277
sbag0
(g1
g2
(lp278
g0
(g1
g2
(lp279
V's
p280
atp281
Rp282
(dp283
g13
VVBZ
p284
sbag0
(g1
g2
(lp285
g0
(g1
g2
(lp286
g0
(g1
g2
(lp287
Va
p288
atp289
Rp290
(dp291
g13
VDT
p292
sbag0
(g1
g2
(lp293
Vboy
p294
atp295
Rp296
(dp297
g13
VNN
p298
sbag0
(g1
g2
(lp299
Vplaying
p300
atp301
Rp302
(dp303
g13
VNN
p304
sbatp305
Rp306
(dp307
g13
VNP
p308
sbag0
(g1
g2
(lp309
g0
(g1
g2
(lp310
Vin
p311
atp312
Rp313
(dp314
g13
VIN
p315
sbag0
(g1
g2
(lp316
g0
(g1
g2
(lp317
Vthe
p318
atp319
Rp320
(dp321
g13
VDT
p322
sbag0
(g1
g2
(lp323
Vwater
p324
atp325
Rp326
(dp327
g13
VNN
p328
sbatp329
Rp330
(dp331
g13
VNP
p332
sbatp333
Rp334
(dp335
g13
VPP
p336
sbatp337
Rp338
(dp339
g13
VNP
p340
sbatp341
Rp342
(dp343
g13
VVP
p344
sbag0
(g1
g2
(lp345
V.
p346
atp347
Rp348
(dp349
g13
V.
p350
sbatp351
Rp352
(dp353
g13
VS
p354
sbatp355
Rp356
(dp357
g13
S'id: 2'
p358
sbag0
(g1
g2
(lp359
g0
(g1
g2
(lp360
g0
(g1
g2
(lp361
g0
(g1
g2
(lp362
VI
p363
atp364
Rp365
(dp366
g13
VPRP
p367
sbatp368
Rp369
(dp370
g13
VNP
p371
sbag0
(g1
g2
(lp372
g0
(g1
g2
(lp373
Vsee
p374
atp375
Rp376
(dp377
g13
VVBP
p378
sbag0
(g1
g2
(lp379
g0
(g1
g2
(lp380
Va
p381
atp382
Rp383
(dp384
g13
VDT
p385
sbag0
(g1
g2
(lp386
Vfish
p387
atp388
Rp389
(dp390
g13
VNN
p391
sbatp392
Rp393
(dp394
g13
VNP
p395
sbatp396
Rp397
(dp398
g13
VVP
p399
sbag0
(g1
g2
(lp400
V.
p401
atp402
Rp403
(dp404
g13
V.
p405
sbatp406
Rp407
(dp408
g13
VS
p409
sbatp410
Rp411
(dp412
g13
S'id: 3'
p413
sbag0
(g1
g2
(lp414
g0
(g1
g2
(lp415
g0
(g1
g2
(lp416
g0
(g1
g2
(lp417
VI
p418
atp419
Rp420
(dp421
g13
VPRP
p422
sbatp423
Rp424
(dp425
g13
VNP
p426
sbag0
(g1
g2
(lp427
g0
(g1
g2
(lp428
Vsee
p429
atp430
Rp431
(dp432
g13
VVBP
p433
sbag0
(g1
g2
(lp434
g0
(g1
g2
(lp435
Vsomebody
p436
atp437
Rp438
(dp439
g13
VNN
p440
sbatp441
Rp442
(dp443
g13
VNP
p444
sbag0
(g1
g2
(lp445
g0
(g1
g2
(lp446
Vout
p447
atp448
Rp449
(dp450
g13
VIN
p451
sbag0
(g1
g2
(lp452
g0
(g1
g2
(lp453
g0
(g1
g2
(lp454
Vthere
p455
atp456
Rp457
(dp458
g13
VRB
p459
sbatp460
Rp461
(dp462
g13
VADVP
p463
sbag0
(g1
g2
(lp464
g0
(g1
g2
(lp465
Vplaying
p466
atp467
Rp468
(dp469
g13
VVBG
p470
sbag0
(g1
g2
(lp471
g0
(g1
g2
(lp472
Vin
p473
atp474
Rp475
(dp476
g13
VIN
p477
sbag0
(g1
g2
(lp478
g0
(g1
g2
(lp479
Vthe
p480
atp481
Rp482
(dp483
g13
VDT
p484
sbag0
(g1
g2
(lp485
Vsand
p486
atp487
Rp488
(dp489
g13
VNN
p490
sbatp491
Rp492
(dp493
g13
VNP
p494
sbatp495
Rp496
(dp497
g13
VPP
p498
sbatp499
Rp500
(dp501
g13
VVP
p502
sbatp503
Rp504
(dp505
g13
VS
p506
sbatp507
Rp508
(dp509
g13
VPP
p510
sbatp511
Rp512
(dp513
g13
VVP
p514
sbag0
(g1
g2
(lp515
V.
p516
atp517
Rp518
(dp519
g13
V.
p520
sbatp521
Rp522
(dp523
g13
VS
p524
sbatp525
Rp526
(dp527
g13
S'id: 4'
p528
sbag0
(g1
g2
(lp529
g0
(g1
g2
(lp530
g0
(g1
g2
(lp531
g0
(g1
g2
(lp532
VI
p533
atp534
Rp535
(dp536
g13
VPRP
p537
sbatp538
Rp539
(dp540
g13
VNP
p541
sbag0
(g1
g2
(lp542
g0
(g1
g2
(lp543
Vsee
p544
atp545
Rp546
(dp547
g13
VVBP
p548
sbag0
(g1
g2
(lp549
g0
(g1
g2
(lp550
Va
p551
atp552
Rp553
(dp554
g13
VDT
p555
sbag0
(g1
g2
(lp556
Vdog
p557
atp558
Rp559
(dp560
g13
VNN
p561
sbatp562
Rp563
(dp564
g13
VNP
p565
sbatp566
Rp567
(dp568
g13
VVP
p569
sbag0
(g1
g2
(lp570
V.
p571
atp572
Rp573
(dp574
g13
V.
p575
sbatp576
Rp577
(dp578
g13
VS
p579
sbatp580
Rp581
(dp582
g13
S'id: 5'
p583
sbag0
(g1
g2
(lp584
g0
(g1
g2
(lp585
g0
(g1
g2
(lp586
g0
(g1
g2
(lp587
g0
(g1
g2
(lp588
VSomebody
p589
atp590
Rp591
(dp592
g13
VNN
p593
sbag0
(g1
g2
(lp594
Vskate
p595
atp596
Rp597
(dp598
g13
VNN
p599
sbatp600
Rp601
(dp602
g13
VNP
p603
sbag0
(g1
g2
(lp604
Vand
p605
atp606
Rp607
(dp608
g13
VCC
p609
sbag0
(g1
g2
(lp610
g0
(g1
g2
(lp611
Vrunning
p612
atp613
Rp614
(dp615
g13
VVBG
p616
sbatp617
Rp618
(dp619
g13
VNP
p620
sbatp621
Rp622
(dp623
g13
VNP
p624
sbag0
(g1
g2
(lp625
V.
p626
atp627
Rp628
(dp629
g13
V.
p630
sbatp631
Rp632
(dp633
g13
VNP
p634
sbatp635
Rp636
(dp637
g13
S'id: 6'
p638
sbag0
(g1
g2
(lp639
g0
(g1
g2
(lp640
g0
(g1
g2
(lp641
g0
(g1
g2
(lp642
VSee
p643
atp644
Rp645
(dp646
g13
VVB
p647
sbag0
(g1
g2
(lp648
g0
(g1
g2
(lp649
g0
(g1
g2
(lp650
Vwhen
p651
atp652
Rp653
(dp654
g13
VWRB
p655
sbatp656
Rp657
(dp658
g13
VWHADVP
p659
sbag0
(g1
g2
(lp660
g0
(g1
g2
(lp661
g0
(g1
g2
(lp662
VI
p663
atp664
Rp665
(dp666
g13
VPRP
p667
sbatp668
Rp669
(dp670
g13
VNP
p671
sbag0
(g1
g2
(lp672
g0
(g1
g2
(lp673
Vsay
p674
atp675
Rp676
(dp677
g13
VVBP
p678
sbag0
(g1
g2
(lp679
g0
(g1
g2
(lp680
g0
(g1
g2
(lp681
Veyes
p682
atp683
Rp684
(dp685
g13
VNNS
p686
sbatp687
Rp688
(dp689
g13
VNP
p690
sbag0
(g1
g2
(lp691
g0
(g1
g2
(lp692
Vcoming
p693
atp694
Rp695
(dp696
g13
VVBG
p697
sbatp698
Rp699
(dp700
g13
VVP
p701
sbatp702
Rp703
(dp704
g13
VNP
p705
sbatp706
Rp707
(dp708
g13
VVP
p709
sbatp710
Rp711
(dp712
g13
VS
p713
sbatp714
Rp715
(dp716
g13
VSBAR
p717
sbatp718
Rp719
(dp720
g13
VVP
p721
sbatp722
Rp723
(dp724
g13
VS
p725
sbatp726
Rp727
(dp728
g13
S'id: 7'
p729
sbatp730
Rp731
(dp732
g13
S'sentences'
p733
sb.