ccopy_reg
_reconstructor
p0
(cnltk.tree
Tree
p1
c__builtin__
list
p2
(lp3
g0
(g1
g2
(lp4
g0
(g1
g2
(lp5
g0
(g1
g2
(lp6
g0
(g1
g2
(lp7
g0
(g1
g2
(lp8
g0
(g1
g2
(lp9
g0
(g1
g2
(lp10
(lp11
S'word: this, index: 2'
p12
aatp13
Rp14
(dp15
S'_label'
p16
Vnsubj
p17
sbag0
(g1
g2
(lp18
(lp19
S'word: is, index: 3'
p20
aatp21
Rp22
(dp23
g16
Vcop
p24
sbag0
(g1
g2
(lp25
(lp26
S'word: the, index: 4'
p27
aatp28
Rp29
(dp30
g16
Vdet
p31
sbag0
(g1
g2
(lp32
g0
(g1
g2
(lp33
g0
(g1
g2
(lp34
(lp35
S'word: I, index: 6'
p36
aatp37
Rp38
(dp39
g16
Vnsubj
p40
sbag0
(g1
g2
(lp41
(lp42
S'word: yesterday, index: 8'
p43
aatp44
Rp45
(dp46
g16
Vtmod
p47
sbatp48
Rp49
(dp50
g16
S'word: saw, index: 7'
p51
sbatp52
Rp53
(dp54
g16
Vrcmod
p55
sbatp56
Rp57
(dp58
g16
S'word: one, index: 5'
p59
sbatp60
Rp61
(dp62
g16
Vrcmod
p63
sbatp64
Rp65
(dp66
g16
S'word: ok, index: 1'
p67
sbatp68
Rp69
(dp70
g16
Vtmod
p71
sbag0
(g1
g2
(lp72
g0
(g1
g2
(lp73
g0
(g1
g2
(lp74
g0
(g1
g2
(lp75
g0
(g1
g2
(lp76
(lp77
S'word: to, index: 19'
p78
aatp79
Rp80
(dp81
g16
Vaux
p82
sbag0
(g1
g2
(lp83
g0
(g1
g2
(lp84
g0
(g1
g2
(lp85
(lp86
S'word: if, index: 21'
p87
aatp88
Rp89
(dp90
g16
Vmark
p91
sbag0
(g1
g2
(lp92
(lp93
S'word: it, index: 22'
p94
aatp95
Rp96
(dp97
g16
Vnsubj
p98
sbag0
(g1
g2
(lp99
g0
(g1
g2
(lp100
g0
(g1
g2
(lp101
(lp102
S'word: if, index: 33'
p103
aatp104
Rp105
(dp106
g16
Vmark
p107
sbag0
(g1
g2
(lp108
(lp109
S'word: they, index: 34'
p110
aatp111
Rp112
(dp113
g16
Vnsubj
p114
sbag0
(g1
g2
(lp115
(lp116
S"word: 're, index: 35"
p117
aatp118
Rp119
(dp120
g16
Vcop
p121
sbag0
(g1
g2
(lp122
g0
(g1
g2
(lp123
g0
(g1
g2
(lp124
(lp125
S'word: a, index: 37'
p126
aatp127
Rp128
(dp129
g16
Vpobj
p130
sbatp131
Rp132
(dp133
g16
S'word: at, index: 36'
p134
sbatp135
Rp136
(dp137
g16
Vadvmod
p138
sbag0
(g1
g2
(lp139
(lp140
S'word: a, index: 39'
p141
aatp142
Rp143
(dp144
g16
Vdet
p145
sbag0
(g1
g2
(lp146
(lp147
S'word: cabin, index: 40'
p148
aatp149
Rp150
(dp151
g16
Vnn
p152
sbag0
(g1
g2
(lp153
(lp154
S'word: kinda, index: 41'
p155
aatp156
Rp157
(dp158
g16
Vnn
p159
sbatp160
Rp161
(dp162
g16
S'word: thing, index: 42'
p163
sbatp164
Rp165
(dp166
g16
Vadvcl
p167
sbag0
(g1
g2
(lp168
g0
(g1
g2
(lp169
g0
(g1
g2
(lp170
(lp171
S'word: if, index: 25'
p172
aatp173
Rp174
(dp175
g16
Vmark
p176
sbag0
(g1
g2
(lp177
(lp178
S'word: they, index: 26'
p179
aatp180
Rp181
(dp182
g16
Vnsubj
p183
sbag0
(g1
g2
(lp184
g161
atp185
Rp186
(dp187
g16
Vconj
p188
sbag0
(g1
g2
(lp189
g0
(g1
g2
(lp190
g0
(g1
g2
(lp191
(lp192
S'word: their, index: 29'
p193
aatp194
Rp195
(dp196
g16
Vposs
p197
sbatp198
Rp199
(dp200
g16
S'word: house, index: 30'
p201
sbatp202
Rp203
(dp204
g16
Vprep
p205
sbatp206
Rp207
(dp208
g16
S"word: 're, index: 27"
p209
sbatp210
Rp211
(dp212
g16
Vadvcl
p213
sbag0
(g1
g2
(lp214
g0
(g1
g2
(lp215
g0
(g1
g2
(lp216
g0
(g1
g2
(lp217
g0
(g1
g2
(lp218
(lp219
S'word: a, index: 47'
p220
aatp221
Rp222
(dp223
g16
Vdet
p224
sbatp225
Rp226
(dp227
g16
S'word: flag, index: 48'
p228
sbatp229
Rp230
(dp231
g16
Vdobj
p232
sbag0
(g1
g2
(lp233
g0
(g1
g2
(lp234
g0
(g1
g2
(lp235
(lp236
S'word: the, index: 50'
p237
aatp238
Rp239
(dp240
g16
Vdet
p241
sbatp242
Rp243
(dp244
g16
S'word: yard, index: 51'
p245
sbatp246
Rp247
(dp248
g16
Vprep
p249
sbag0
(g1
g2
(lp250
(lp251
S'word: that, index: 44'
p252
aatp253
Rp254
(dp255
g16
Vnsubjpass
p256
sbag0
(g1
g2
(lp257
(lp258
S"word: 's, index: 45"
p259
aatp260
Rp261
(dp262
g16
Vauxpass
p263
sbatp264
Rp265
(dp266
g16
S'word: got, index: 46'
p267
sbatp268
Rp269
(dp270
g16
Vparataxis
p271
sbatp272
Rp273
(dp274
g16
S"word: 's, index: 23"
p275
sbatp276
Rp277
(dp278
g16
Vadvcl
p279
sbatp280
Rp281
(dp282
g16
S'word: determine, index: 20'
p283
sbatp284
Rp285
(dp286
g16
Vxcomp
p287
sbag0
(g1
g2
(lp288
g0
(g1
g2
(lp289
g0
(g1
g2
(lp290
(lp291
S'word: a, index: 54'
p292
aatp293
Rp294
(dp295
g16
Vdet
p296
sbag0
(g1
g2
(lp297
(lp298
S'word: nice, index: 55'
p299
aatp300
Rp301
(dp302
g16
Vamod
p303
sbatp304
Rp305
(dp306
g16
S'word: tree, index: 56'
p307
sbatp308
Rp309
(dp310
g16
Vprep
p311
sbag0
(g1
g2
(lp312
g0
(g1
g2
(lp313
g0
(g1
g2
(lp314
(lp315
S'word: yard, index: 59'
p316
aatp317
Rp318
(dp319
g16
Vdobj
p320
sbag0
(g1
g2
(lp321
(lp322
S'word: shrubbery, index: 61'
p323
aatp324
Rp325
(dp326
g16
Vprep
p327
sbatp328
Rp329
(dp330
g16
S'word: manicured, index: 58'
p331
sbatp332
Rp333
(dp334
g16
Vconj
p335
sbatp336
Rp337
(dp338
g16
S'word: hard, index: 18'
p339
sbatp340
Rp341
(dp342
g16
Vprep
p343
sbag0
(g1
g2
(lp344
g329
atp345
Rp346
(dp347
g16
Vprep
p348
sbag0
(g1
g2
(lp349
g0
(g1
g2
(lp350
g0
(g1
g2
(lp351
(lp352
S'word: the, index: 11'
p353
aatp354
Rp355
(dp356
g16
Vdet
p357
sbatp358
Rp359
(dp360
g16
S'word: family, index: 12'
p361
sbatp362
Rp363
(dp364
g16
Vprep
p365
sbag0
(g1
g2
(lp366
(lp367
S'word: it, index: 14'
p368
aatp369
Rp370
(dp371
g16
Vnsubj
p372
sbag0
(g1
g2
(lp373
(lp374
S"word: 's, index: 15"
p375
aatp376
Rp377
(dp378
g16
Vcop
p379
sbatp380
Rp381
(dp382
g16
S'word: kind, index: 16'
p383
sbatp384
Rp385
(dp386
g16
S'id: 0'
p387
sbag0
(g1
g2
(lp388
g0
(g1
g2
(lp389
g0
(g1
g2
(lp390
g0
(g1
g2
(lp391
g0
(g1
g2
(lp392
(lp393
S'word: I, index: 4'
p394
aatp395
Rp396
(dp397
g16
Vnsubj
p398
sbag0
(g1
g2
(lp399
(lp400
S"word: 'm, index: 5"
p401
aatp402
Rp403
(dp404
g16
Vaux
p405
sbatp406
Rp407
(dp408
g16
S'word: assuming, index: 6'
p409
sbatp410
Rp411
(dp412
g16
Vparataxis
p413
sbag0
(g1
g2
(lp414
g0
(g1
g2
(lp415
g0
(g1
g2
(lp416
(lp417
S'word: the, index: 10'
p418
aatp419
Rp420
(dp421
g16
Vdet
p422
sbag0
(g1
g2
(lp423
(lp424
S'word: blanket, index: 11'
p425
aatp426
Rp427
(dp428
g16
Vnn
p429
sbatp430
Rp431
(dp432
g16
S'word: relaxing, index: 12'
p433
sbatp434
Rp435
(dp436
g16
Vprep
p437
sbag0
(g1
g2
(lp438
g0
(g1
g2
(lp439
g0
(g1
g2
(lp440
(lp441
S'word: The, index: 1'
p442
aatp443
Rp444
(dp445
g16
Vdet
p446
sbatp447
Rp448
(dp449
g16
S'word: parents, index: 2'
p450
sbatp451
Rp452
(dp453
g16
Vnsubj
p454
sbatp455
Rp456
(dp457
g16
S'word: are, index: 8'
p458
sbatp459
Rp460
(dp461
g16
S'id: 1'
p462
sbag0
(g1
g2
(lp463
g0
(g1
g2
(lp464
g0
(g1
g2
(lp465
(lp466
S'word: he, index: 8'
p467
aatp468
Rp469
(dp470
g16
Vnsubjpass
p471
sbag0
(g1
g2
(lp472
(lp473
S"word: 's, index: 9"
p474
aatp475
Rp476
(dp477
g16
Vauxpass
p478
sbag0
(g1
g2
(lp479
g0
(g1
g2
(lp480
g0
(g1
g2
(lp481
(lp482
S'word: his, index: 11'
p483
aatp484
Rp485
(dp486
g16
Vposs
p487
sbatp488
Rp489
(dp490
g16
S'word: sandals, index: 12'
p491
sbatp492
Rp493
(dp494
g16
Vdobj
p495
sbag0
(g1
g2
(lp496
(lp497
S'word: off, index: 13'
p498
aatp499
Rp500
(dp501
g16
Vprt
p502
sbag0
(g1
g2
(lp503
g0
(g1
g2
(lp504
g0
(g1
g2
(lp505
g0
(g1
g2
(lp506
g0
(g1
g2
(lp507
(lp508
S'word: a, index: 5'
p509
aatp510
Rp511
(dp512
g16
Vdet
p513
sbatp514
Rp515
(dp516
g16
S'word: book, index: 6'
p517
sbatp518
Rp519
(dp520
g16
Vdobj
p521
sbag0
(g1
g2
(lp522
g0
(g1
g2
(lp523
g0
(g1
g2
(lp524
(lp525
S'word: The, index: 1'
p526
aatp527
Rp528
(dp529
g16
Vdet
p530
sbatp531
Rp532
(dp533
g16
S'word: father, index: 2'
p534
sbatp535
Rp536
(dp537
g16
Vnsubj
p538
sbag0
(g1
g2
(lp539
(lp540
S'word: is, index: 3'
p541
aatp542
Rp543
(dp544
g16
Vaux
p545
sbatp546
Rp547
(dp548
g16
S'word: reading, index: 4'
p549
sbatp550
Rp551
(dp552
g16
Vccomp
p553
sbatp554
Rp555
(dp556
g16
S'word: kicked, index: 10'
p557
sbatp558
Rp559
(dp560
g16
S'id: 2'
p561
sbag0
(g1
g2
(lp562
g0
(g1
g2
(lp563
g0
(g1
g2
(lp564
(lp565
S'word: they, index: 18'
p566
aatp567
Rp568
(dp569
g16
Vnsubj
p570
sbag0
(g1
g2
(lp571
g0
(g1
g2
(lp572
g0
(g1
g2
(lp573
g0
(g1
g2
(lp574
g0
(g1
g2
(lp575
(lp576
S'word: The, index: 1'
p577
aatp578
Rp579
(dp580
g16
Vdet
p581
sbatp582
Rp583
(dp584
g16
S'word: mom, index: 2'
p585
sbatp586
Rp587
(dp588
g16
Vnsubj
p589
sbag0
(g1
g2
(lp590
g0
(g1
g2
(lp591
g0
(g1
g2
(lp592
g0
(g1
g2
(lp593
g0
(g1
g2
(lp594
g0
(g1
g2
(lp595
g0
(g1
g2
(lp596
g0
(g1
g2
(lp597
g0
(g1
g2
(lp598
(lp599
S'word: a, index: 13'
p600
aatp601
Rp602
(dp603
g16
Vdet
p604
sbag0
(g1
g2
(lp605
(lp606
S'word: wine, index: 16'
p607
aatp608
Rp609
(dp610
g16
Vprep
p611
sbatp612
Rp613
(dp614
g16
S'word: glass, index: 14'
p615
sbatp616
Rp617
(dp618
g16
Vconj
p619
sbatp620
Rp621
(dp622
g16
S'word: soda, index: 10'
p623
sbatp624
Rp625
(dp626
g16
Vpobj
p627
sbag0
(g1
g2
(lp628
g613
atp629
Rp630
(dp631
g16
Vpobj
p632
sbatp633
Rp634
(dp635
g16
S'word: either, index: 9'
p636
sbatp637
Rp638
(dp639
g16
Vprep
p640
sbag0
(g1
g2
(lp641
(lp642
S'word: like, index: 4'
p643
aatp644
Rp645
(dp646
g16
Vmark
p647
sbag0
(g1
g2
(lp648
(lp649
S'word: she, index: 5'
p650
aatp651
Rp652
(dp653
g16
Vnsubj
p654
sbag0
(g1
g2
(lp655
(lp656
S'word: might, index: 6'
p657
aatp658
Rp659
(dp660
g16
Vaux
p661
sbag0
(g1
g2
(lp662
(lp663
S'word: be, index: 7'
p664
aatp665
Rp666
(dp667
g16
Vaux
p668
sbatp669
Rp670
(dp671
g16
S'word: pouring, index: 8'
p672
sbatp673
Rp674
(dp675
g16
Vadvcl
p676
sbatp677
Rp678
(dp679
g16
S'word: looks, index: 3'
p680
sbatp681
Rp682
(dp683
g16
Vccomp
p684
sbag0
(g1
g2
(lp685
(lp686
S"word: 're, index: 19"
p687
aatp688
Rp689
(dp690
g16
Vaux
p691
sbag0
(g1
g2
(lp692
(lp693
S'word: music, index: 22'
p694
aatp695
Rp696
(dp697
g16
Vprep
p698
sbatp699
Rp700
(dp701
g16
S'word: listening, index: 20'
p702
sbatp703
Rp704
(dp705
g16
S'id: 3'
p706
sbag0
(g1
g2
(lp707
g0
(g1
g2
(lp708
g0
(g1
g2
(lp709
g0
(g1
g2
(lp710
g0
(g1
g2
(lp711
(lp712
S'word: is, index: 12'
p713
aatp714
Rp715
(dp716
g16
Vaux
p717
sbag0
(g1
g2
(lp718
g0
(g1
g2
(lp719
g0
(g1
g2
(lp720
(lp721
S'word: the, index: 27'
p722
aatp723
Rp724
(dp725
g16
Vdet
p726
sbatp727
Rp728
(dp729
g16
S'word: shore, index: 28'
p730
sbatp731
Rp732
(dp733
g16
Vprep
p734
sbag0
(g1
g2
(lp735
(lp736
S'word: him, index: 16'
p737
aatp738
Rp739
(dp740
g16
Vprep
p741
sbag0
(g1
g2
(lp742
g0
(g1
g2
(lp743
g0
(g1
g2
(lp744
(lp745
S'word: while, index: 18'
p746
aatp747
Rp748
(dp749
g16
Vmark
p750
sbag0
(g1
g2
(lp751
g0
(g1
g2
(lp752
g0
(g1
g2
(lp753
(lp754
S'word: his, index: 19'
p755
aatp756
Rp757
(dp758
g16
Vposs
p759
sbatp760
Rp761
(dp762
g16
S'word: sister, index: 20'
p763
sbatp764
Rp765
(dp766
g16
Vnsubj
p767
sbag0
(g1
g2
(lp768
(lp769
S'word: is, index: 21'
p770
aatp771
Rp772
(dp773
g16
Vaux
p774
sbag0
(g1
g2
(lp775
g0
(g1
g2
(lp776
g0
(g1
g2
(lp777
(lp778
S'word: a, index: 23'
p779
aatp780
Rp781
(dp782
g16
Vdet
p783
sbatp784
Rp785
(dp786
g16
S'word: sandcastle, index: 24'
p787
sbatp788
Rp789
(dp790
g16
Vdobj
p791
sbatp792
Rp793
(dp794
g16
S'word: making, index: 22'
p795
sbatp796
Rp797
(dp798
g16
Vadvcl
p799
sbag0
(g1
g2
(lp800
g0
(g1
g2
(lp801
g0
(g1
g2
(lp802
(lp803
S'word: the, index: 10'
p804
aatp805
Rp806
(dp807
g16
Vdet
p808
sbatp809
Rp810
(dp811
g16
S'word: dog, index: 11'
p812
sbatp813
Rp814
(dp815
g16
Vnsubj
p816
sbatp817
Rp818
(dp819
g16
S'word: running, index: 13'
p820
sbatp821
Rp822
(dp823
g16
Vconj
p824
sbag0
(g1
g2
(lp825
g0
(g1
g2
(lp826
g0
(g1
g2
(lp827
(lp828
S'word: The, index: 1'
p829
aatp830
Rp831
(dp832
g16
Vdet
p833
sbatp834
Rp835
(dp836
g16
S'word: son, index: 2'
p837
sbatp838
Rp839
(dp840
g16
Vnsubj
p841
sbag0
(g1
g2
(lp842
(lp843
S'word: is, index: 3'
p844
aatp845
Rp846
(dp847
g16
Vaux
p848
sbag0
(g1
g2
(lp849
g0
(g1
g2
(lp850
g0
(g1
g2
(lp851
(lp852
S'word: his, index: 6'
p853
aatp854
Rp855
(dp856
g16
Vposs
p857
sbatp858
Rp859
(dp860
g16
S'word: kite, index: 7'
p861
sbatp862
Rp863
(dp864
g16
Vprep
p865
sbatp866
Rp867
(dp868
g16
S'word: playing, index: 4'
p869
sbatp870
Rp871
(dp872
g16
S'id: 4'
p873
sbag0
(g1
g2
(lp874
g0
(g1
g2
(lp875
g0
(g1
g2
(lp876
(lp877
S'word: There, index: 1'
p878
aatp879
Rp880
(dp881
g16
Vexpl
p882
sbag0
(g1
g2
(lp883
g0
(g1
g2
(lp884
g0
(g1
g2
(lp885
(lp886
S'word: a, index: 3'
p887
aatp888
Rp889
(dp890
g16
Vdet
p891
sbatp892
Rp893
(dp894
g16
S'word: boat, index: 4'
p895
sbatp896
Rp897
(dp898
g16
Vnsubj
p899
sbag0
(g1
g2
(lp900
g0
(g1
g2
(lp901
g0
(g1
g2
(lp902
g0
(g1
g2
(lp903
g0
(g1
g2
(lp904
(lp905
S'word: the, index: 7'
p906
aatp907
Rp908
(dp909
g16
Vdet
p910
sbag0
(g1
g2
(lp911
g0
(g1
g2
(lp912
g0
(g1
g2
(lp913
(lp914
S'word: a, index: 10'
p915
aatp916
Rp917
(dp918
g16
Vdet
p919
sbatp920
Rp921
(dp922
g16
S'word: sailboat, index: 11'
p923
sbatp924
Rp925
(dp926
g16
Vappos
p927
sbatp928
Rp929
(dp930
g16
S'word: distance, index: 8'
p931
sbatp932
Rp933
(dp934
g16
Vprep
p935
sbatp936
Rp937
(dp938
g16
S'word: off, index: 5'
p939
sbatp940
Rp941
(dp942
g16
Vprep
p943
sbag0
(g1
g2
(lp944
g0
(g1
g2
(lp945
g0
(g1
g2
(lp946
g0
(g1
g2
(lp947
g0
(g1
g2
(lp948
(lp949
S'word: two, index: 16'
p950
aatp951
Rp952
(dp953
g16
Vnum
p954
sbag0
(g1
g2
(lp955
(lp956
S'word: it, index: 19'
p957
aatp958
Rp959
(dp960
g16
Vprep
p961
sbatp962
Rp963
(dp964
g16
S'word: people, index: 17'
p965
sbatp966
Rp967
(dp968
g16
Vprep
p969
sbatp970
Rp971
(dp972
g16
S'word: looks, index: 14'
p973
sbatp974
Rp975
(dp976
g16
Vprep
p977
sbatp978
Rp979
(dp980
g16
S"word: 's, index: 2"
p981
sbatp982
Rp983
(dp984
g16
S'id: 5'
p985
sbag0
(g1
g2
(lp986
g0
(g1
g2
(lp987
g0
(g1
g2
(lp988
(lp989
S'word: then, index: 2'
p990
aatp991
Rp992
(dp993
g16
Vadvmod
p994
sbag0
(g1
g2
(lp995
(lp996
S'word: there, index: 3'
p997
aatp998
Rp999
(dp1000
g16
Vexpl
p1001
sbag0
(g1
g2
(lp1002
g0
(g1
g2
(lp1003
g0
(g1
g2
(lp1004
(lp1005
S'word: he, index: 18'
p1006
aatp1007
Rp1008
(dp1009
g16
Vnsubj
p1010
sbag0
(g1
g2
(lp1011
g0
(g1
g2
(lp1012
g0
(g1
g2
(lp1013
(lp1014
S'word: to, index: 20'
p1015
aatp1016
Rp1017
(dp1018
g16
Vaux
p1019
sbag0
(g1
g2
(lp1020
(lp1021
S'word: be, index: 21'
p1022
aatp1023
Rp1024
(dp1025
g16
Vcop
p1026
sbag0
(g1
g2
(lp1027
(lp1028
S'word: real, index: 22'
p1029
aatp1030
Rp1031
(dp1032
g16
Vamod
p1033
sbag0
(g1
g2
(lp1034
(lp1035
S'word: that, index: 25'
p1036
aatp1037
Rp1038
(dp1039
g16
Vprep
p1040
sbatp1041
Rp1042
(dp1043
g16
S'word: excited, index: 23'
p1044
sbatp1045
Rp1046
(dp1047
g16
Vxcomp
p1048
sbatp1049
Rp1050
(dp1051
g16
S'word: seems, index: 19'
p1052
sbatp1053
Rp1054
(dp1055
g16
Vparataxis
p1056
sbag0
(g1
g2
(lp1057
g0
(g1
g2
(lp1058
g0
(g1
g2
(lp1059
(lp1060
S'word: a, index: 5'
p1061
aatp1062
Rp1063
(dp1064
g16
Vdet
p1065
sbag0
(g1
g2
(lp1066
g0
(g1
g2
(lp1067
g0
(g1
g2
(lp1068
(lp1069
S'word: the, index: 8'
p1070
aatp1071
Rp1072
(dp1073
g16
Vdet
p1074
sbag0
(g1
g2
(lp1075
g0
(g1
g2
(lp1076
g0
(g1
g2
(lp1077
(lp1078
S'word: who, index: 11'
p1079
aatp1080
Rp1081
(dp1082
g16
Vnsubj
p1083
sbag0
(g1
g2
(lp1084
(lp1085
S'word: just, index: 12'
p1086
aatp1087
Rp1088
(dp1089
g16
Vadvmod
p1090
sbag0
(g1
g2
(lp1091
g0
(g1
g2
(lp1092
g0
(g1
g2
(lp1093
(lp1094
S'word: a, index: 14'
p1095
aatp1096
Rp1097
(dp1098
g16
Vdet
p1099
sbatp1100
Rp1101
(dp1102
g16
S'word: fish, index: 15'
p1103
sbatp1104
Rp1105
(dp1106
g16
Vdobj
p1107
sbatp1108
Rp1109
(dp1110
g16
S'word: caught, index: 13'
p1111
sbatp1112
Rp1113
(dp1114
g16
Vrcmod
p1115
sbatp1116
Rp1117
(dp1118
g16
S'word: dock, index: 9'
p1119
sbatp1120
Rp1121
(dp1122
g16
Vprep
p1123
sbatp1124
Rp1125
(dp1126
g16
S'word: gentleman, index: 6'
p1127
sbatp1128
Rp1129
(dp1130
g16
Vnsubj
p1131
sbag0
(g1
g2
(lp1132
(lp1133
S'word: And, index: 1'
p1134
aatp1135
Rp1136
(dp1137
g16
Vcc
p1138
sbag0
(g1
g2
(lp1139
(lp1140
S'word: so, index: 17'
p1141
aatp1142
Rp1143
(dp1144
g16
Vadvmod
p1145
sbatp1146
Rp1147
(dp1148
g16
S"word: 's, index: 4"
p1149
sbatp1150
Rp1151
(dp1152
g16
S'id: 6'
p1153
sbag0
(g1
g2
(lp1154
g0
(g1
g2
(lp1155
g0
(g1
g2
(lp1156
g0
(g1
g2
(lp1157
g0
(g1
g2
(lp1158
g0
(g1
g2
(lp1159
g0
(g1
g2
(lp1160
(lp1161
S'word: a, index: 6'
p1162
aatp1163
Rp1164
(dp1165
g16
Vdet
p1166
sbag0
(g1
g2
(lp1167
g0
(g1
g2
(lp1168
g0
(g1
g2
(lp1169
(lp1170
S'word: very, index: 7'
p1171
aatp1172
Rp1173
(dp1174
g16
Vadvmod
p1175
sbatp1176
Rp1177
(dp1178
g16
S'word: nice, index: 8'
p1179
sbatp1180
Rp1181
(dp1182
g16
Vamod
p1183
sbag0
(g1
g2
(lp1184
g0
(g1
g2
(lp1185
g0
(g1
g2
(lp1186
(lp1187
S'word: things, index: 12'
p1188
aatp1189
Rp1190
(dp1191
g16
Vdobj
p1192
sbag0
(g1
g2
(lp1193
g0
(g1
g2
(lp1194
g0
(g1
g2
(lp1195
(lp1196
S'word: that, index: 13'
p1197
aatp1198
Rp1199
(dp1200
g16
Vmark
p1201
sbag0
(g1
g2
(lp1202
(lp1203
S'word: they, index: 14'
p1204
aatp1205
Rp1206
(dp1207
g16
Vnsubj
p1208
sbag0
(g1
g2
(lp1209
g0
(g1
g2
(lp1210
g0
(g1
g2
(lp1211
(lp1212
S'word: to, index: 16'
p1213
aatp1214
Rp1215
(dp1216
g16
Vaux
p1217
sbatp1218
Rp1219
(dp1220
g16
S'word: do, index: 17'
p1221
sbatp1222
Rp1223
(dp1224
g16
Vxcomp
p1225
sbatp1226
Rp1227
(dp1228
g16
S'word: like, index: 15'
p1229
sbatp1230
Rp1231
(dp1232
g16
Vccomp
p1233
sbatp1234
Rp1235
(dp1236
g16
S'word: enjoying, index: 11'
p1237
sbatp1238
Rp1239
(dp1240
g16
Vvmod
p1241
sbatp1242
Rp1243
(dp1244
g16
S'word: afternoon, index: 9'
p1245
sbatp1246
Rp1247
(dp1248
g16
Vdobj
p1249
sbag0
(g1
g2
(lp1250
(lp1251
S'word: to, index: 3'
p1252
aatp1253
Rp1254
(dp1255
g16
Vaux
p1256
sbag0
(g1
g2
(lp1257
(lp1258
S'word: be, index: 4'
p1259
aatp1260
Rp1261
(dp1262
g16
Vaux
p1263
sbatp1264
Rp1265
(dp1266
g16
S'word: having, index: 5'
p1267
sbatp1268
Rp1269
(dp1270
g16
Vxcomp
p1271
sbag0
(g1
g2
(lp1272
(lp1273
S'word: They, index: 1'
p1274
aatp1275
Rp1276
(dp1277
g16
Vnsubj
p1278
sbatp1279
Rp1280
(dp1281
g16
S'word: seem, index: 2'
p1282
sbatp1283
Rp1284
(dp1285
g16
S'id: 7'
p1286
sbag0
(g1
g2
(lp1287
g0
(g1
g2
(lp1288
g0
(g1
g2
(lp1289
g0
(g1
g2
(lp1290
g0
(g1
g2
(lp1291
(lp1292
S'word: while, index: 8'
p1293
aatp1294
Rp1295
(dp1296
g16
Vmark
p1297
sbag0
(g1
g2
(lp1298
g0
(g1
g2
(lp1299
g0
(g1
g2
(lp1300
(lp1301
S'word: the, index: 9'
p1302
aatp1303
Rp1304
(dp1305
g16
Vdet
p1306
sbatp1307
Rp1308
(dp1309
g16
S'word: dad, index: 10'
p1310
sbatp1311
Rp1312
(dp1313
g16
Vnsubj
p1314
sbag0
(g1
g2
(lp1315
g0
(g1
g2
(lp1316
g0
(g1
g2
(lp1317
(lp1318
S'word: his, index: 12'
p1319
aatp1320
Rp1321
(dp1322
g16
Vposs
p1323
sbatp1324
Rp1325
(dp1326
g16
S'word: sandals, index: 13'
p1327
sbatp1328
Rp1329
(dp1330
g16
Vdobj
p1331
sbag0
(g1
g2
(lp1332
(lp1333
S'word: off, index: 14'
p1334
aatp1335
Rp1336
(dp1337
g16
Vprt
p1338
sbatp1339
Rp1340
(dp1341
g16
S'word: kicked, index: 11'
p1342
sbatp1343
Rp1344
(dp1345
g16
Vadvcl
p1346
sbag0
(g1
g2
(lp1347
g0
(g1
g2
(lp1348
g0
(g1
g2
(lp1349
(lp1350
S'word: The, index: 1'
p1351
aatp1352
Rp1353
(dp1354
g16
Vdet
p1355
sbatp1356
Rp1357
(dp1358
g16
S'word: mom, index: 2'
p1359
sbatp1360
Rp1361
(dp1362
g16
Vnsubj
p1363
sbag0
(g1
g2
(lp1364
g0
(g1
g2
(lp1365
g0
(g1
g2
(lp1366
(lp1367
S'word: tennis, index: 5'
p1368
aatp1369
Rp1370
(dp1371
g16
Vnn
p1372
sbatp1373
Rp1374
(dp1375
g16
S'word: shoes, index: 6'
p1376
sbatp1377
Rp1378
(dp1379
g16
Vprep
p1380
sbatp1381
Rp1382
(dp1383
g16
S'word: is, index: 3'
p1384
sbatp1385
Rp1386
(dp1387
g16
S'id: 8'
p1388
sbag0
(g1
g2
(lp1389
g0
(g1
g2
(lp1390
g0
(g1
g2
(lp1391
(lp1392
S"word: 'm, index: 11"
p1393
aatp1394
Rp1395
(dp1396
g16
Vaux
p1397
sbag0
(g1
g2
(lp1398
g0
(g1
g2
(lp1399
g0
(g1
g2
(lp1400
(lp1401
S'word: that, index: 13'
p1402
aatp1403
Rp1404
(dp1405
g16
Vmark
p1406
sbag0
(g1
g2
(lp1407
(lp1408
S'word: them, index: 16'
p1409
aatp1410
Rp1411
(dp1412
g16
Vprep
p1413
sbatp1414
Rp1415
(dp1416
g16
S'word: belongs, index: 14'
p1417
sbatp1418
Rp1419
(dp1420
g16
Vccomp
p1421
sbag0
(g1
g2
(lp1422
g0
(g1
g2
(lp1423
g0
(g1
g2
(lp1424
(lp1425
S'word: There, index: 1'
p1426
aatp1427
Rp1428
(dp1429
g16
Vexpl
p1430
sbag0
(g1
g2
(lp1431
g0
(g1
g2
(lp1432
g0
(g1
g2
(lp1433
(lp1434
S'word: a, index: 3'
p1435
aatp1436
Rp1437
(dp1438
g16
Vdet
p1439
sbag0
(g1
g2
(lp1440
g0
(g1
g2
(lp1441
g0
(g1
g2
(lp1442
g0
(g1
g2
(lp1443
g0
(g1
g2
(lp1444
(lp1445
S'word: the, index: 7'
p1446
aatp1447
Rp1448
(dp1449
g16
Vdet
p1450
sbatp1451
Rp1452
(dp1453
g16
S'word: yard, index: 8'
p1454
sbatp1455
Rp1456
(dp1457
g16
Vprep
p1458
sbatp1459
Rp1460
(dp1461
g16
S'word: parked, index: 5'
p1462
sbatp1463
Rp1464
(dp1465
g16
Vvmod
p1466
sbatp1467
Rp1468
(dp1469
g16
S'word: car, index: 4'
p1470
sbatp1471
Rp1472
(dp1473
g16
Vnsubj
p1474
sbatp1475
Rp1476
(dp1477
g16
S"word: 's, index: 2"
p1478
sbatp1479
Rp1480
(dp1481
g16
Vccomp
p1482
sbag0
(g1
g2
(lp1483
(lp1484
S'word: I, index: 10'
p1485
aatp1486
Rp1487
(dp1488
g16
Vnsubj
p1489
sbatp1490
Rp1491
(dp1492
g16
S'word: assuming, index: 12'
p1493
sbatp1494
Rp1495
(dp1496
g16
S'id: 9'
p1497
sbag0
(g1
g2
(lp1498
g0
(g1
g2
(lp1499
g0
(g1
g2
(lp1500
g0
(g1
g2
(lp1501
g0
(g1
g2
(lp1502
(lp1503
S'word: it, index: 15'
p1504
aatp1505
Rp1506
(dp1507
g16
Vnsubj
p1508
sbag0
(g1
g2
(lp1509
g0
(g1
g2
(lp1510
g0
(g1
g2
(lp1511
(lp1512
S'word: a, index: 18'
p1513
aatp1514
Rp1515
(dp1516
g16
Vdet
p1517
sbatp1518
Rp1519
(dp1520
g16
S'word: camp, index: 19'
p1521
sbatp1522
Rp1523
(dp1524
g16
Vprep
p1525
sbatp1526
Rp1527
(dp1528
g16
S"word: 's, index: 16"
p1529
sbatp1530
Rp1531
(dp1532
g16
Vccomp
p1533
sbag0
(g1
g2
(lp1534
(lp1535
S'word: I, index: 21'
p1536
aatp1537
Rp1538
(dp1539
g16
Vnsubj
p1540
sbag0
(g1
g2
(lp1541
g0
(g1
g2
(lp1542
g0
(g1
g2
(lp1543
g1527
atp1544
Rp1545
(dp1546
g16
Vconj
p1547
sbag0
(g1
g2
(lp1548
(lp1549
S'word: again, index: 2'
p1550
aatp1551
Rp1552
(dp1553
g16
Vadvmod
p1554
sbag0
(g1
g2
(lp1555
(lp1556
S'word: I, index: 3'
p1557
aatp1558
Rp1559
(dp1560
g16
Vnsubj
p1561
sbag0
(g1
g2
(lp1562
(lp1563
S'word: ca, index: 4'
p1564
aatp1565
Rp1566
(dp1567
g16
Vaux
p1568
sbag0
(g1
g2
(lp1569
(lp1570
S"word: n't, index: 5"
p1571
aatp1572
Rp1573
(dp1574
g16
Vneg
p1575
sbag0
(g1
g2
(lp1576
g0
(g1
g2
(lp1577
g0
(g1
g2
(lp1578
(lp1579
S'word: whether, index: 7'
p1580
aatp1581
Rp1582
(dp1583
g16
Vmark
p1584
sbag0
(g1
g2
(lp1585
(lp1586
S'word: it, index: 8'
p1587
aatp1588
Rp1589
(dp1590
g16
Vnsubj
p1591
sbag0
(g1
g2
(lp1592
(lp1593
S"word: 's, index: 9"
p1594
aatp1595
Rp1596
(dp1597
g16
Vcop
p1598
sbag0
(g1
g2
(lp1599
(lp1600
S'word: their, index: 10'
p1601
aatp1602
Rp1603
(dp1604
g16
Vposs
p1605
sbag0
(g1
g2
(lp1606
(lp1607
S'word: personal, index: 11'
p1608
aatp1609
Rp1610
(dp1611
g16
Vamod
p1612
sbatp1613
Rp1614
(dp1615
g16
S'word: home, index: 12'
p1616
sbatp1617
Rp1618
(dp1619
g16
Vccomp
p1620
sbatp1621
Rp1622
(dp1623
g16
S'word: tell, index: 6'
p1624
sbatp1625
Rp1626
(dp1627
g16
Vccomp
p1628
sbag0
(g1
g2
(lp1629
g0
(g1
g2
(lp1630
g0
(g1
g2
(lp1631
(lp1632
S'word: a, index: 23'
p1633
aatp1634
Rp1635
(dp1636
g16
Vdep
p1637
sbag0
(g1
g2
(lp1638
(lp1639
S'word: a, index: 24'
p1640
aatp1641
Rp1642
(dp1643
g16
Vdet
p1644
sbag0
(g1
g2
(lp1645
(lp1646
S'word: something, index: 28'
p1647
aatp1648
Rp1649
(dp1650
g16
Vconj
p1651
sbatp1652
Rp1653
(dp1654
g16
S'word: cabin, index: 25'
p1655
sbatp1656
Rp1657
(dp1658
g16
Vdobj
p1659
sbag0
(g1
g2
(lp1660
(lp1661
S'word: something, index: 28'
p1662
aatp1663
Rp1664
(dp1665
g16
Vdobj
p1666
sbatp1667
Rp1668
(dp1669
g16
S'word: mean, index: 22'
p1670
sbatp1671
Rp1672
(dp1673
g16
S'id: 10'
p1674
sbag0
(g1
g2
(lp1675
g0
(g1
g2
(lp1676
g0
(g1
g2
(lp1677
(lp1678
S'word: You, index: 1'
p1679
aatp1680
Rp1681
(dp1682
g16
Vnsubj
p1683
sbag0
(g1
g2
(lp1684
g0
(g1
g2
(lp1685
g0
(g1
g2
(lp1686
g0
(g1
g2
(lp1687
g0
(g1
g2
(lp1688
(lp1689
S'word: a, index: 4'
p1690
aatp1691
Rp1692
(dp1693
g16
Vdet
p1694
sbag0
(g1
g2
(lp1695
g0
(g1
g2
(lp1696
g0
(g1
g2
(lp1697
g0
(g1
g2
(lp1698
g0
(g1
g2
(lp1699
(lp1700
S'word: people, index: 9'
p1701
aatp1702
Rp1703
(dp1704
g16
Vposs
p1705
sbatp1706
Rp1707
(dp1708
g16
S'word: yards, index: 11'
p1709
sbatp1710
Rp1711
(dp1712
g16
Vprep
p1713
sbatp1714
Rp1715
(dp1716
g16
S'word: flags, index: 7'
p1717
sbatp1718
Rp1719
(dp1720
g16
Vprep
p1721
sbatp1722
Rp1723
(dp1724
g16
S'word: lot, index: 5'
p1725
sbatp1726
Rp1727
(dp1728
g16
Vdobj
p1729
sbatp1730
Rp1731
(dp1732
g16
S'word: see, index: 3'
p1733
sbatp1734
Rp1735
(dp1736
g16
Vxcomp
p1737
sbag0
(g1
g2
(lp1738
(lp1739
S'word: so, index: 13'
p1740
aatp1741
Rp1742
(dp1743
g16
Vdep
p1744
sbag0
(g1
g2
(lp1745
g0
(g1
g2
(lp1746
g0
(g1
g2
(lp1747
g0
(g1
g2
(lp1748
g0
(g1
g2
(lp1749
(lp1750
S'word: I, index: 17'
p1751
aatp1752
Rp1753
(dp1754
g16
Vnsubj
p1755
sbag0
(g1
g2
(lp1756
g0
(g1
g2
(lp1757
g0
(g1
g2
(lp1758
(lp1759
S'word: their, index: 33'
p1760
aatp1761
Rp1762
(dp1763
g16
Vposs
p1764
sbag0
(g1
g2
(lp1765
(lp1766
S'word: it, index: 30'
p1767
aatp1768
Rp1769
(dp1770
g16
Vnsubj
p1771
sbag0
(g1
g2
(lp1772
(lp1773
S'word: could, index: 31'
p1774
aatp1775
Rp1776
(dp1777
g16
Vaux
p1778
sbag0
(g1
g2
(lp1779
(lp1780
S'word: be, index: 32'
p1781
aatp1782
Rp1783
(dp1784
g16
Vcop
p1785
sbatp1786
Rp1787
(dp1788
g16
S'word: house, index: 34'
p1789
sbatp1790
Rp1791
(dp1792
g16
Vccomp
p1793
sbag0
(g1
g2
(lp1794
g0
(g1
g2
(lp1795
g0
(g1
g2
(lp1796
(lp1797
S'word: kind, index: 18'
p1798
aatp1799
Rp1800
(dp1801
g16
Vdep
p1802
sbatp1803
Rp1804
(dp1805
g16
S'word: of, index: 19'
p1806
sbatp1807
Rp1808
(dp1809
g16
Vadvmod
p1810
sbag0
(g1
g2
(lp1811
g0
(g1
g2
(lp1812
g0
(g1
g2
(lp1813
g1787
atp1814
Rp1815
(dp1816
g16
Vconj
p1817
sbag0
(g1
g2
(lp1818
(lp1819
S'word: it, index: 21'
p1820
aatp1821
Rp1822
(dp1823
g16
Vnsubj
p1824
sbag0
(g1
g2
(lp1825
(lp1826
S'word: might, index: 22'
p1827
aatp1828
Rp1829
(dp1830
g16
Vaux
p1831
sbag0
(g1
g2
(lp1832
(lp1833
S'word: be, index: 23'
p1834
aatp1835
Rp1836
(dp1837
g16
Vcop
p1838
sbag0
(g1
g2
(lp1839
(lp1840
S'word: a, index: 24'
p1841
aatp1842
Rp1843
(dp1844
g16
Vdet
p1845
sbag0
(g1
g2
(lp1846
(lp1847
S'word: something, index: 27'
p1848
aatp1849
Rp1850
(dp1851
g16
Vconj
p1852
sbatp1853
Rp1854
(dp1855
g16
S'word: cabin, index: 25'
p1856
sbatp1857
Rp1858
(dp1859
g16
Vccomp
p1860
sbag0
(g1
g2
(lp1861
(lp1862
S'word: something, index: 27'
p1863
aatp1864
Rp1865
(dp1866
g16
Vccomp
p1867
sbag0
(g1
g2
(lp1868
(lp1869
S'word: why, index: 16'
p1870
aatp1871
Rp1872
(dp1873
g16
Vadvmod
p1874
sbatp1875
Rp1876
(dp1877
g16
S'word: thought, index: 20'
p1878
sbatp1879
Rp1880
(dp1881
g16
Vadvcl
p1882
sbag0
(g1
g2
(lp1883
(lp1884
S'word: that, index: 14'
p1885
aatp1886
Rp1887
(dp1888
g16
Vnsubj
p1889
sbatp1890
Rp1891
(dp1892
g16
S"word: 's, index: 15"
p1893
sbatp1894
Rp1895
(dp1896
g16
Vparataxis
p1897
sbatp1898
Rp1899
(dp1900
g16
S'word: dont, index: 2'
p1901
sbatp1902
Rp1903
(dp1904
g16
S'id: 11'
p1905
sbag0
(g1
g2
(lp1906
g0
(g1
g2
(lp1907
g0
(g1
g2
(lp1908
g0
(g1
g2
(lp1909
g0
(g1
g2
(lp1910
(lp1911
S'word: the, index: 6'
p1912
aatp1913
Rp1914
(dp1915
g16
Vdet
p1916
sbag0
(g1
g2
(lp1917
(lp1918
S'word: of, index: 8'
p1919
aatp1920
Rp1921
(dp1922
g16
Vprep
p1923
sbatp1924
Rp1925
(dp1926
g16
S'word: edge, index: 7'
p1927
sbatp1928
Rp1929
(dp1930
g16
Vprep
p1931
sbag0
(g1
g2
(lp1932
(lp1933
S'word: And, index: 1'
p1934
aatp1935
Rp1936
(dp1937
g16
Vcc
p1938
sbag0
(g1
g2
(lp1939
(lp1940
S'word: it, index: 2'
p1941
aatp1942
Rp1943
(dp1944
g16
Vnsubj
p1945
sbag0
(g1
g2
(lp1946
(lp1947
S"word: 's, index: 3"
p1948
aatp1949
Rp1950
(dp1951
g16
Vcop
p1952
sbatp1953
Rp1954
(dp1955
g16
S'word: right, index: 4'
p1956
sbatp1957
Rp1958
(dp1959
g16
S'id: 12'
p1960
sbatp1961
Rp1962
(dp1963
g16
S'sentences'
p1964
sb.