ccopy_reg
_reconstructor
p0
(cnltk.tree
Tree
p1
c__builtin__
list
p2
(lp3
g0
(g1
g2
(lp4
g0
(g1
g2
(lp5
g0
(g1
g2
(lp6
g0
(g1
g2
(lp7
g0
(g1
g2
(lp8
(lp9
S'word: There, index: 1'
p10
aatp11
Rp12
(dp13
S'_label'
p14
Vexpl
p15
sbag0
(g1
g2
(lp16
(lp17
S'word: water, index: 3'
p18
aatp19
Rp20
(dp21
g14
Vnsubj
p22
sbatp23
Rp24
(dp25
g14
S"word: 's, index: 2"
p26
sbatp27
Rp28
(dp29
g14
Vccomp
p30
sbag0
(g1
g2
(lp31
(lp32
S'word: there, index: 5'
p33
aatp34
Rp35
(dp36
g14
Vexpl
p37
sbag0
(g1
g2
(lp38
g0
(g1
g2
(lp39
g0
(g1
g2
(lp40
(lp41
S'word: a, index: 7'
p42
aatp43
Rp44
(dp45
g14
Vdet
p46
sbag0
(g1
g2
(lp47
g0
(g1
g2
(lp48
g0
(g1
g2
(lp49
(lp50
S'word: the, index: 10'
p51
aatp52
Rp53
(dp54
g14
Vdet
p55
sbatp56
Rp57
(dp58
g14
S'word: water, index: 11'
p59
sbatp60
Rp61
(dp62
g14
Vprep
p63
sbatp64
Rp65
(dp66
g14
S'word: boat, index: 8'
p67
sbatp68
Rp69
(dp70
g14
Vnsubj
p71
sbatp72
Rp73
(dp74
g14
S"word: 's, index: 6"
p75
sbatp76
Rp77
(dp78
g14
S'id: 0'
p79
sbag0
(g1
g2
(lp80
g0
(g1
g2
(lp81
g0
(g1
g2
(lp82
g0
(g1
g2
(lp83
g0
(g1
g2
(lp84
(lp85
S'word: a, index: 3'
p86
aatp87
Rp88
(dp89
g14
Vdet
p90
sbag0
(g1
g2
(lp91
g0
(g1
g2
(lp92
g0
(g1
g2
(lp93
(lp94
S'word: a, index: 7'
p95
aatp96
Rp97
(dp98
g14
Vdet
p99
sbag0
(g1
g2
(lp100
(lp101
S'word: sail, index: 8'
p102
aatp103
Rp104
(dp105
g14
Vnn
p106
sbag0
(g1
g2
(lp107
g0
(g1
g2
(lp108
g0
(g1
g2
(lp109
(lp110
S'word: the, index: 11'
p111
aatp112
Rp113
(dp114
g14
Vdet
p115
sbatp116
Rp117
(dp118
g14
S'word: water, index: 12'
p119
sbatp120
Rp121
(dp122
g14
Vprep
p123
sbatp124
Rp125
(dp126
g14
S'word: boat, index: 9'
p127
sbatp128
Rp129
(dp130
g14
Vconj
p131
sbatp132
Rp133
(dp134
g14
S'word: boat, index: 4'
p135
sbatp136
Rp137
(dp138
g14
Vnsubj
p139
sbag0
(g1
g2
(lp140
g125
atp141
Rp142
(dp143
g14
Vnsubj
p144
sbag0
(g1
g2
(lp145
(lp146
S'word: There, index: 1'
p147
aatp148
Rp149
(dp150
g14
Vexpl
p151
sbatp152
Rp153
(dp154
g14
S"word: 's, index: 2"
p155
sbatp156
Rp157
(dp158
g14
S'id: 1'
p159
sbag0
(g1
g2
(lp160
g0
(g1
g2
(lp161
g0
(g1
g2
(lp162
(lp163
S'word: There, index: 1'
p164
aatp165
Rp166
(dp167
g14
Vexpl
p168
sbag0
(g1
g2
(lp169
g0
(g1
g2
(lp170
g0
(g1
g2
(lp171
g0
(g1
g2
(lp172
g0
(g1
g2
(lp173
(lp174
S'word: the, index: 7'
p175
aatp176
Rp177
(dp178
g14
Vdet
p179
sbatp180
Rp181
(dp182
g14
S'word: water, index: 8'
p183
sbatp184
Rp185
(dp186
g14
Vprep
p187
sbag0
(g1
g2
(lp188
(lp189
S'word: a, index: 3'
p190
aatp191
Rp192
(dp193
g14
Vdet
p194
sbag0
(g1
g2
(lp195
(lp196
S'word: boy, index: 4'
p197
aatp198
Rp199
(dp200
g14
Vnn
p201
sbatp202
Rp203
(dp204
g14
S'word: playing, index: 5'
p205
sbatp206
Rp207
(dp208
g14
Vnsubj
p209
sbatp210
Rp211
(dp212
g14
S"word: 's, index: 2"
p213
sbatp214
Rp215
(dp216
g14
S'id: 2'
p217
sbag0
(g1
g2
(lp218
g0
(g1
g2
(lp219
g0
(g1
g2
(lp220
(lp221
S'word: I, index: 1'
p222
aatp223
Rp224
(dp225
g14
Vnsubj
p226
sbag0
(g1
g2
(lp227
g0
(g1
g2
(lp228
g0
(g1
g2
(lp229
(lp230
S'word: a, index: 3'
p231
aatp232
Rp233
(dp234
g14
Vdet
p235
sbatp236
Rp237
(dp238
g14
S'word: fish, index: 4'
p239
sbatp240
Rp241
(dp242
g14
Vdobj
p243
sbatp244
Rp245
(dp246
g14
S'word: see, index: 2'
p247
sbatp248
Rp249
(dp250
g14
S'id: 3'
p251
sbag0
(g1
g2
(lp252
g0
(g1
g2
(lp253
g0
(g1
g2
(lp254
(lp255
S'word: I, index: 1'
p256
aatp257
Rp258
(dp259
g14
Vnsubj
p260
sbag0
(g1
g2
(lp261
(lp262
S'word: somebody, index: 3'
p263
aatp264
Rp265
(dp266
g14
Vdobj
p267
sbag0
(g1
g2
(lp268
g0
(g1
g2
(lp269
g0
(g1
g2
(lp270
(lp271
S'word: there, index: 5'
p272
aatp273
Rp274
(dp275
g14
Vadvmod
p276
sbag0
(g1
g2
(lp277
g0
(g1
g2
(lp278
g0
(g1
g2
(lp279
(lp280
S'word: the, index: 8'
p281
aatp282
Rp283
(dp284
g14
Vdet
p285
sbatp286
Rp287
(dp288
g14
S'word: sand, index: 9'
p289
sbatp290
Rp291
(dp292
g14
Vprep
p293
sbatp294
Rp295
(dp296
g14
S'word: playing, index: 6'
p297
sbatp298
Rp299
(dp300
g14
Vprepc
p301
sbatp302
Rp303
(dp304
g14
S'word: see, index: 2'
p305
sbatp306
Rp307
(dp308
g14
S'id: 4'
p309
sbag0
(g1
g2
(lp310
g0
(g1
g2
(lp311
g0
(g1
g2
(lp312
(lp313
S'word: I, index: 1'
p314
aatp315
Rp316
(dp317
g14
Vnsubj
p318
sbag0
(g1
g2
(lp319
g0
(g1
g2
(lp320
g0
(g1
g2
(lp321
(lp322
S'word: a, index: 3'
p323
aatp324
Rp325
(dp326
g14
Vdet
p327
sbatp328
Rp329
(dp330
g14
S'word: dog, index: 4'
p331
sbatp332
Rp333
(dp334
g14
Vdobj
p335
sbatp336
Rp337
(dp338
g14
S'word: see, index: 2'
p339
sbatp340
Rp341
(dp342
g14
S'id: 5'
p343
sbag0
(g1
g2
(lp344
g0
(g1
g2
(lp345
g0
(g1
g2
(lp346
(lp347
S'word: running, index: 4'
p348
aatp349
Rp350
(dp351
g14
Vconj
p352
sbag0
(g1
g2
(lp353
(lp354
S'word: Somebody, index: 1'
p355
aatp356
Rp357
(dp358
g14
Vnn
p359
sbatp360
Rp361
(dp362
g14
S'word: skate, index: 2'
p363
sbatp364
Rp365
(dp366
g14
S'id: 6'
p367
sbag0
(g1
g2
(lp368
g0
(g1
g2
(lp369
g0
(g1
g2
(lp370
g0
(g1
g2
(lp371
g0
(g1
g2
(lp372
g0
(g1
g2
(lp373
g0
(g1
g2
(lp374
(lp375
S'word: coming, index: 6'
p376
aatp377
Rp378
(dp379
g14
Vvmod
p380
sbatp381
Rp382
(dp383
g14
S'word: eyes, index: 5'
p384
sbatp385
Rp386
(dp387
g14
Vdobj
p388
sbag0
(g1
g2
(lp389
(lp390
S'word: when, index: 2'
p391
aatp392
Rp393
(dp394
g14
Vadvmod
p395
sbag0
(g1
g2
(lp396
(lp397
S'word: I, index: 3'
p398
aatp399
Rp400
(dp401
g14
Vnsubj
p402
sbatp403
Rp404
(dp405
g14
S'word: say, index: 4'
p406
sbatp407
Rp408
(dp409
g14
Vadvcl
p410
sbatp411
Rp412
(dp413
g14
S'word: See, index: 1'
p414
sbatp415
Rp416
(dp417
g14
S'id: 7'
p418
sbatp419
Rp420
(dp421
g14
S'sentences'
p422
sb.