ccopy_reg
_reconstructor
p0
(cnltk.tree
Tree
p1
c__builtin__
list
p2
(lp3
g0
(g1
g2
(lp4
tp5
Rp6
(dp7
S'_label'
p8
S'id: 0'
p9
sbag0
(g1
g2
(lp10
g0
(g1
g2
(lp11
g0
(g1
g2
(lp12
(lp13
S'word: oops, index: 6'
p14
aatp15
Rp16
(dp17
g8
Vconj
p18
sbag0
(g1
g2
(lp19
(lp20
S'word: the, index: 8'
p21
aatp22
Rp23
(dp24
g8
Vconj
p25
sbag0
(g1
g2
(lp26
g0
(g1
g2
(lp27
g0
(g1
g2
(lp28
g0
(g1
g2
(lp29
g0
(g1
g2
(lp30
(lp31
S'word: the, index: 10'
p32
aatp33
Rp34
(dp35
g8
Vdet
p36
sbatp37
Rp38
(dp39
g8
S'word: jar, index: 11'
p40
sbatp41
Rp42
(dp43
g8
Vnsubj
p44
sbag0
(g1
g2
(lp45
g0
(g1
g2
(lp46
g0
(g1
g2
(lp47
(lp48
S'word: no, index: 13'
p49
aatp50
Rp51
(dp52
g8
Vnsubj
p53
sbag0
(g1
g2
(lp54
(lp55
S'word: off, index: 15'
p56
aatp57
Rp58
(dp59
g8
Vprt
p60
sbatp61
Rp62
(dp63
g8
S'word: go, index: 14'
p64
sbatp65
Rp66
(dp67
g8
Vccomp
p68
sbatp69
Rp70
(dp71
g8
S'word: is, index: 12'
p72
sbatp73
Rp74
(dp75
g8
Vconj
p76
sbag0
(g1
g2
(lp77
(lp78
S'word: A, index: 1'
p79
aatp80
Rp81
(dp82
g8
Vdet
p83
sbag0
(g1
g2
(lp84
(lp85
S'word: cookie, index: 2'
p86
aatp87
Rp88
(dp89
g8
Vnn
p90
sbatp91
Rp92
(dp93
g8
S'word: jar, index: 3'
p94
sbatp95
Rp96
(dp97
g8
S'id: 1'
p98
sbag0
(g1
g2
(lp99
g0
(g1
g2
(lp100
g0
(g1
g2
(lp101
g0
(g1
g2
(lp102
g0
(g1
g2
(lp103
(lp104
S'word: off, index: 7'
p105
aatp106
Rp107
(dp108
g8
Vprt
p109
sbag0
(g1
g2
(lp110
g0
(g1
g2
(lp111
g0
(g1
g2
(lp112
(lp113
S'word: no, index: 10'
p114
aatp115
Rp116
(dp117
g8
Vneg
p118
sbatp119
Rp120
(dp121
g8
S'word: good, index: 11'
p122
sbatp123
Rp124
(dp125
g8
Vconj
p126
sbag0
(g1
g2
(lp127
(lp128
S'word: to, index: 5'
p129
aatp130
Rp131
(dp132
g8
Vaux
p133
sbatp134
Rp135
(dp136
g8
S'word: hit, index: 6'
p137
sbatp138
Rp139
(dp140
g8
Vxcomp
p141
sbag0
(g1
g2
(lp142
g120
atp143
Rp144
(dp145
g8
Vxcomp
p146
sbag0
(g1
g2
(lp147
g0
(g1
g2
(lp148
g0
(g1
g2
(lp149
(lp150
S'word: The, index: 1'
p151
aatp152
Rp153
(dp154
g8
Vdet
p155
sbatp156
Rp157
(dp158
g8
S'word: man, index: 2'
p159
sbatp160
Rp161
(dp162
g8
Vnsubj
p163
sbag0
(g1
g2
(lp164
(lp165
S'word: is, index: 3'
p166
aatp167
Rp168
(dp169
g8
Vaux
p170
sbatp171
Rp172
(dp173
g8
S'word: try, index: 4'
p174
sbatp175
Rp176
(dp177
g8
S'id: 2'
p178
sbag0
(g1
g2
(lp179
g0
(g1
g2
(lp180
g0
(g1
g2
(lp181
(lp182
S'word: we, index: 10'
p183
aatp184
Rp185
(dp186
g8
Vnsubj
p187
sbag0
(g1
g2
(lp188
g0
(g1
g2
(lp189
g0
(g1
g2
(lp190
(lp191
S'word: the, index: 13'
p192
aatp193
Rp194
(dp195
g8
Vdet
p196
sbatp197
Rp198
(dp199
g8
S'word: glass, index: 14'
p200
sbatp201
Rp202
(dp203
g8
Vdobj
p204
sbag0
(g1
g2
(lp205
(lp206
S'word: on, index: 15'
p207
aatp208
Rp209
(dp210
g8
Vprep
p211
sbag0
(g1
g2
(lp212
g0
(g1
g2
(lp213
g0
(g1
g2
(lp214
g0
(g1
g2
(lp215
g0
(g1
g2
(lp216
(lp217
S'word: The, index: 1'
p218
aatp219
Rp220
(dp221
g8
Vdet
p222
sbatp223
Rp224
(dp225
g8
S'word: lady, index: 2'
p226
sbatp227
Rp228
(dp229
g8
Vnsubj
p230
sbag0
(g1
g2
(lp231
g0
(g1
g2
(lp232
g0
(g1
g2
(lp233
(lp234
S'word: I, index: 5'
p235
aatp236
Rp237
(dp238
g8
Vnsubj
p239
sbatp240
Rp241
(dp242
g8
S'word: think, index: 6'
p243
sbatp244
Rp245
(dp246
g8
Vccomp
p247
sbatp248
Rp249
(dp250
g8
S'word: is, index: 3'
p251
sbatp252
Rp253
(dp254
g8
Vccomp
p255
sbag0
(g1
g2
(lp256
g0
(g1
g2
(lp257
g0
(g1
g2
(lp258
(lp259
S'word: we, index: 10'
p260
aatp261
Rp262
(dp263
g8
Vconj
p264
sbatp265
Rp266
(dp267
g8
S'word: backwards, index: 8'
p268
sbatp269
Rp270
(dp271
g8
Vnsubj
p272
sbatp273
Rp274
(dp275
g8
S'word: wipe, index: 12'
p276
sbatp277
Rp278
(dp279
g8
S'id: 3'
p280
sbag0
(g1
g2
(lp281
g0
(g1
g2
(lp282
g0
(g1
g2
(lp283
(lp284
S'word: I, index: 1'
p285
aatp286
Rp287
(dp288
g8
Vnsubj
p289
sbag0
(g1
g2
(lp290
(lp291
S'word: do, index: 2'
p292
aatp293
Rp294
(dp295
g8
Vaux
p296
sbag0
(g1
g2
(lp297
(lp298
S"word: n't, index: 3"
p299
aatp300
Rp301
(dp302
g8
Vneg
p303
sbag0
(g1
g2
(lp304
(lp305
S'word: but, index: 6'
p306
aatp307
Rp308
(dp309
g8
Vadvmod
p310
sbag0
(g1
g2
(lp311
(lp312
S'word: leaking, index: 8'
p313
aatp314
Rp315
(dp316
g8
Vxcomp
p317
sbatp318
Rp319
(dp320
g8
S'word: know, index: 4'
p321
sbatp322
Rp323
(dp324
g8
S'id: 4'
p325
sbag0
(g1
g2
(lp326
g0
(g1
g2
(lp327
g0
(g1
g2
(lp328
(lp329
S'word: And, index: 1'
p330
aatp331
Rp332
(dp333
g8
Vnsubj
p334
sbatp335
Rp336
(dp337
g8
S'word: I, index: 2'
p338
sbatp339
Rp340
(dp341
g8
S'id: 5'
p342
sbag0
(g1
g2
(lp343
g0
(g1
g2
(lp344
g0
(g1
g2
(lp345
g0
(g1
g2
(lp346
g0
(g1
g2
(lp347
g0
(g1
g2
(lp348
g0
(g1
g2
(lp349
g0
(g1
g2
(lp350
g0
(g1
g2
(lp351
(lp352
S'word: the, index: 5'
p353
aatp354
Rp355
(dp356
g8
Vdet
p357
sbag0
(g1
g2
(lp358
g0
(g1
g2
(lp359
g0
(g1
g2
(lp360
(lp361
S'word: the, index: 8'
p362
aatp363
Rp364
(dp365
g8
Vdet
p366
sbatp367
Rp368
(dp369
g8
S'word: dog, index: 9'
p370
sbatp371
Rp372
(dp373
g8
Vappos
p374
sbatp375
Rp376
(dp377
g8
S'word: dog, index: 6'
p378
sbatp379
Rp380
(dp381
g8
Vdep
p382
sbatp383
Rp384
(dp385
g8
S'word: it, index: 4'
p386
sbatp387
Rp388
(dp389
g8
Vappos
p390
sbag0
(g1
g2
(lp391
(lp392
S'word: The, index: 1'
p393
aatp394
Rp395
(dp396
g8
Vdet
p397
sbatp398
Rp399
(dp400
g8
S'word: dog, index: 2'
p401
sbatp402
Rp403
(dp404
g8
Vnsubj
p405
sbatp406
Rp407
(dp408
g8
S'word: is, index: 10'
p409
sbatp410
Rp411
(dp412
g8
S'id: 6'
p413
sbag0
(g1
g2
(lp414
tp415
Rp416
(dp417
g8
S'id: 7'
p418
sbag0
(g1
g2
(lp419
g0
(g1
g2
(lp420
g0
(g1
g2
(lp421
(lp422
S'word: when, index: 9'
p423
aatp424
Rp425
(dp426
g8
Vccomp
p427
sbag0
(g1
g2
(lp428
g0
(g1
g2
(lp429
g0
(g1
g2
(lp430
(lp431
S'word: the, index: 26'
p432
aatp433
Rp434
(dp435
g8
Vdet
p436
sbatp437
Rp438
(dp439
g8
S'word: man, index: 27'
p440
sbatp441
Rp442
(dp443
g8
Vconj
p444
sbag0
(g1
g2
(lp445
g0
(g1
g2
(lp446
g0
(g1
g2
(lp447
g438
atp448
Rp449
(dp450
g8
Vconj
p451
sbag0
(g1
g2
(lp452
(lp453
S'word: one, index: 13'
p454
aatp455
Rp456
(dp457
g8
Vdep
p458
sbag0
(g1
g2
(lp459
(lp460
S'word: the, index: 14'
p461
aatp462
Rp463
(dp464
g8
Vdet
p465
sbag0
(g1
g2
(lp466
(lp467
S'word: boy, index: 17'
p468
aatp469
Rp470
(dp471
g8
Vconj
p472
sbag0
(g1
g2
(lp473
g0
(g1
g2
(lp474
g0
(g1
g2
(lp475
(lp476
S'word: the, index: 20'
p477
aatp478
Rp479
(dp480
g8
Vdet
p481
sbatp482
Rp483
(dp484
g8
S'word: girl, index: 21'
p485
sbatp486
Rp487
(dp488
g8
Vconj
p489
sbag0
(g1
g2
(lp490
(lp491
S'word: boy, index: 23'
p492
aatp493
Rp494
(dp495
g8
Vconj
p496
sbatp497
Rp498
(dp499
g8
S'word: girl, index: 15'
p500
sbatp501
Rp502
(dp503
g8
Vconj
p504
sbag0
(g1
g2
(lp505
g0
(g1
g2
(lp506
g0
(g1
g2
(lp507
g0
(g1
g2
(lp508
g0
(g1
g2
(lp509
g0
(g1
g2
(lp510
g0
(g1
g2
(lp511
(lp512
S'word: the, index: 3'
p513
aatp514
Rp515
(dp516
g8
Vdet
p517
sbag0
(g1
g2
(lp518
(lp519
S'word: I, index: 5'
p520
aatp521
Rp522
(dp523
g8
Vnum
p524
sbatp525
Rp526
(dp527
g8
S'word: class, index: 4'
p528
sbatp529
Rp530
(dp531
g8
Vdobj
p532
sbatp533
Rp534
(dp535
g8
S'word: twinking, index: 2'
p536
sbatp537
Rp538
(dp539
g8
Vvmod
p540
sbatp541
Rp542
(dp543
g8
S'word: The, index: 1'
p544
sbatp545
Rp546
(dp547
g8
Vnsubj
p548
sbag0
(g1
g2
(lp549
(lp550
S'word: boy, index: 17'
p551
aatp552
Rp553
(dp554
g8
Vconj
p555
sbag0
(g1
g2
(lp556
g483
atp557
Rp558
(dp559
g8
Vconj
p560
sbag0
(g1
g2
(lp561
(lp562
S'word: do, index: 6'
p563
aatp564
Rp565
(dp566
g8
Vaux
p567
sbag0
(g1
g2
(lp568
(lp569
S"word: n't, index: 7"
p570
aatp571
Rp572
(dp573
g8
Vneg
p574
sbag0
(g1
g2
(lp575
(lp576
S'word: boy, index: 23'
p577
aatp578
Rp579
(dp580
g8
Vconj
p581
sbatp582
Rp583
(dp584
g8
S'word: know, index: 8'
p585
sbatp586
Rp587
(dp588
g8
S'id: 8'
p589
sbag0
(g1
g2
(lp590
g0
(g1
g2
(lp591
g0
(g1
g2
(lp592
g0
(g1
g2
(lp593
g0
(g1
g2
(lp594
(lp595
S'word: The, index: 1'
p596
aatp597
Rp598
(dp599
g8
Vdet
p600
sbatp601
Rp602
(dp603
g8
S'word: girls, index: 2'
p604
sbatp605
Rp606
(dp607
g8
Vnsubj
p608
sbag0
(g1
g2
(lp609
(lp610
S'word: are, index: 3'
p611
aatp612
Rp613
(dp614
g8
Vcop
p615
sbag0
(g1
g2
(lp616
g0
(g1
g2
(lp617
g0
(g1
g2
(lp618
(lp619
S'word: their, index: 5'
p620
aatp621
Rp622
(dp623
g8
Vposs
p624
sbatp625
Rp626
(dp627
g8
S'word: scape, index: 6'
p628
sbatp629
Rp630
(dp631
g8
Vdep
p632
sbatp633
Rp634
(dp635
g8
S'word: clan, index: 4'
p636
sbatp637
Rp638
(dp639
g8
S'id: 9'
p640
sbatp641
Rp642
(dp643
g8
S'sentences'
p644
sb.