ccopy_reg
_reconstructor
p0
(cnltk.tree
Tree
p1
c__builtin__
list
p2
(lp3
g0
(g1
g2
(lp4
g0
(g1
g2
(lp5
g0
(g1
g2
(lp6
(lp7
S'word: the, index: 1'
p8
aatp9
Rp10
(dp11
S'_label'
p12
Vdet
p13
sbag0
(g1
g2
(lp14
(lp15
S'word: house, index: 2'
p16
aatp17
Rp18
(dp19
g12
Vnn
p20
sbag0
(g1
g2
(lp21
g0
(g1
g2
(lp22
g0
(g1
g2
(lp23
(lp24
S'word: the, index: 5'
p25
aatp26
Rp27
(dp28
g12
Vdet
p29
sbatp30
Rp31
(dp32
g12
S'word: wate, index: 6'
p33
sbatp34
Rp35
(dp36
g12
Vprep
p37
sbatp38
Rp39
(dp40
g12
S'word: ind, index: 3'
p41
sbatp42
Rp43
(dp44
g12
S'id: 0'
p45
sbag0
(g1
g2
(lp46
g0
(g1
g2
(lp47
g0
(g1
g2
(lp48
g0
(g1
g2
(lp49
g0
(g1
g2
(lp50
(lp51
S'word: the, index: 5'
p52
aatp53
Rp54
(dp55
g12
Vdet
p56
sbatp57
Rp58
(dp59
g12
S'word: wiveway, index: 6'
p60
sbatp61
Rp62
(dp63
g12
Vprep
p64
sbag0
(g1
g2
(lp65
g0
(g1
g2
(lp66
g0
(g1
g2
(lp67
(lp68
S'word: The, index: 1'
p69
aatp70
Rp71
(dp72
g12
Vdet
p73
sbatp74
Rp75
(dp76
g12
S'word: car, index: 2'
p77
sbatp78
Rp79
(dp80
g12
Vnsubj
p81
sbatp82
Rp83
(dp84
g12
S'word: is, index: 3'
p85
sbatp86
Rp87
(dp88
g12
S'id: 1'
p89
sbag0
(g1
g2
(lp90
g0
(g1
g2
(lp91
g0
(g1
g2
(lp92
g0
(g1
g2
(lp93
g0
(g1
g2
(lp94
(lp95
S'word: a, index: 5'
p96
aatp97
Rp98
(dp99
g12
Vdet
p100
sbatp101
Rp102
(dp103
g12
S'word: book, index: 6'
p104
sbatp105
Rp106
(dp107
g12
Vdobj
p108
sbag0
(g1
g2
(lp109
g0
(g1
g2
(lp110
g0
(g1
g2
(lp111
(lp112
S'word: The, index: 1'
p113
aatp114
Rp115
(dp116
g12
Vdet
p117
sbatp118
Rp119
(dp120
g12
S'word: father, index: 2'
p121
sbatp122
Rp123
(dp124
g12
Vnsubj
p125
sbag0
(g1
g2
(lp126
(lp127
S'word: is, index: 3'
p128
aatp129
Rp130
(dp131
g12
Vaux
p132
sbatp133
Rp134
(dp135
g12
S'word: eving, index: 4'
p136
sbatp137
Rp138
(dp139
g12
S'id: 2'
p140
sbag0
(g1
g2
(lp141
g0
(g1
g2
(lp142
g0
(g1
g2
(lp143
(lp144
S'word: Wise, index: 1'
p145
aatp146
Rp147
(dp148
g12
Vnsubj
p149
sbag0
(g1
g2
(lp150
(lp151
S'word: is, index: 2'
p152
aatp153
Rp154
(dp155
g12
Vaux
p156
sbag0
(g1
g2
(lp157
g0
(g1
g2
(lp158
g0
(g1
g2
(lp159
(lp160
S'word: pine, index: 5'
p161
aatp162
Rp163
(dp164
g12
Vrcmod
p165
sbag0
(g1
g2
(lp166
(lp167
S'word: wine, index: 7'
p168
aatp169
Rp170
(dp171
g12
Vappos
p172
sbatp173
Rp174
(dp175
g12
S'word: ga, index: 4'
p176
sbatp177
Rp178
(dp179
g12
Vdobj
p180
sbatp181
Rp182
(dp183
g12
S'word: raoring, index: 3'
p184
sbatp185
Rp186
(dp187
g12
S'id: 3'
p188
sbag0
(g1
g2
(lp189
g0
(g1
g2
(lp190
g0
(g1
g2
(lp191
g0
(g1
g2
(lp192
g0
(g1
g2
(lp193
(lp194
S'word: Their, index: 1'
p195
aatp196
Rp197
(dp198
g12
Vposs
p199
sbatp200
Rp201
(dp202
g12
S'word: grifs, index: 2'
p203
sbatp204
Rp205
(dp206
g12
Vnsubj
p207
sbag0
(g1
g2
(lp208
(lp209
S'word: is, index: 3'
p210
aatp211
Rp212
(dp213
g12
Vaux
p214
sbag0
(g1
g2
(lp215
(lp216
S'word: busic, index: 5'
p217
aatp218
Rp219
(dp220
g12
Vacomp
p221
sbatp222
Rp223
(dp224
g12
S'word: eting, index: 4'
p225
sbatp226
Rp227
(dp228
g12
S'id: 4'
p229
sbag0
(g1
g2
(lp230
g0
(g1
g2
(lp231
g0
(g1
g2
(lp232
(lp233
S'word: The, index: 1'
p234
aatp235
Rp236
(dp237
g12
Vnsubj
p238
sbag0
(g1
g2
(lp239
g0
(g1
g2
(lp240
g0
(g1
g2
(lp241
(lp242
S'word: the, index: 3'
p243
aatp244
Rp245
(dp246
g12
Vdet
p247
sbatp248
Rp249
(dp250
g12
S'word: boy, index: 4'
p251
sbatp252
Rp253
(dp254
g12
Vnsubj
p255
sbag0
(g1
g2
(lp256
(lp257
S'word: is, index: 5'
p258
aatp259
Rp260
(dp261
g12
Vaux
p262
sbag0
(g1
g2
(lp263
g0
(g1
g2
(lp264
g0
(g1
g2
(lp265
(lp266
S'word: a, index: 7'
p267
aatp268
Rp269
(dp270
g12
Vdet
p271
sbag0
(g1
g2
(lp272
g0
(g1
g2
(lp273
g0
(g1
g2
(lp274
(lp275
S'word: the, index: 10'
p276
aatp277
Rp278
(dp279
g12
Vdet
p280
sbatp281
Rp282
(dp283
g12
S'word: kite, index: 11'
p284
sbatp285
Rp286
(dp287
g12
Vappos
p288
sbatp289
Rp290
(dp291
g12
S'word: gite, index: 8'
p292
sbatp293
Rp294
(dp295
g12
Vdobj
p296
sbatp297
Rp298
(dp299
g12
S'word: gighing, index: 6'
p300
sbatp301
Rp302
(dp303
g12
S'id: 5'
p304
sbag0
(g1
g2
(lp305
g0
(g1
g2
(lp306
g0
(g1
g2
(lp307
g0
(g1
g2
(lp308
g0
(g1
g2
(lp309
(lp310
S'word: a, index: 2'
p311
aatp312
Rp313
(dp314
g12
Vdet
p315
sbatp316
Rp317
(dp318
g12
S'word: dog, index: 3'
p319
sbatp320
Rp321
(dp322
g12
Vnsubj
p323
sbag0
(g1
g2
(lp324
(lp325
S'word: is, index: 4'
p326
aatp327
Rp328
(dp329
g12
Vcop
p330
sbag0
(g1
g2
(lp331
g0
(g1
g2
(lp332
g0
(g1
g2
(lp333
(lp334
S'word: the, index: 7'
p335
aatp336
Rp337
(dp338
g12
Vdet
p339
sbatp340
Rp341
(dp342
g12
S'word: boy, index: 8'
p343
sbatp344
Rp345
(dp346
g12
Vappos
p347
sbag0
(g1
g2
(lp348
(lp349
S'word: And, index: 1'
p350
aatp351
Rp352
(dp353
g12
Vcc
p354
sbatp355
Rp356
(dp357
g12
S'word: the, index: 5'
p358
sbatp359
Rp360
(dp361
g12
S'id: 6'
p362
sbag0
(g1
g2
(lp363
g0
(g1
g2
(lp364
g0
(g1
g2
(lp365
g0
(g1
g2
(lp366
g0
(g1
g2
(lp367
(lp368
S'word: the, index: 5'
p369
aatp370
Rp371
(dp372
g12
Vdet
p373
sbatp374
Rp375
(dp376
g12
S'word: hanzoo, index: 6'
p377
sbatp378
Rp379
(dp380
g12
Vdobj
p381
sbag0
(g1
g2
(lp382
g0
(g1
g2
(lp383
g0
(g1
g2
(lp384
(lp385
S'word: The, index: 1'
p386
aatp387
Rp388
(dp389
g12
Vdet
p390
sbatp391
Rp392
(dp393
g12
S'word: girl, index: 2'
p394
sbatp395
Rp396
(dp397
g12
Vnsubj
p398
sbag0
(g1
g2
(lp399
(lp400
S'word: is, index: 3'
p401
aatp402
Rp403
(dp404
g12
Vaux
p405
sbatp406
Rp407
(dp408
g12
S'word: making, index: 4'
p409
sbatp410
Rp411
(dp412
g12
S'id: 7'
p413
sbag0
(g1
g2
(lp414
g0
(g1
g2
(lp415
g0
(g1
g2
(lp416
g0
(g1
g2
(lp417
g0
(g1
g2
(lp418
(lp419
S'word: the, index: 7'
p420
aatp421
Rp422
(dp423
g12
Vdet
p424
sbatp425
Rp426
(dp427
g12
S'word: jovel, index: 8'
p428
sbatp429
Rp430
(dp431
g12
Vparataxis
p432
sbag0
(g1
g2
(lp433
(lp434
S'word: And, index: 1'
p435
aatp436
Rp437
(dp438
g12
Vcc
p439
sbag0
(g1
g2
(lp440
(lp441
S'word: he, index: 2'
p442
aatp443
Rp444
(dp445
g12
Vnsubj
p446
sbag0
(g1
g2
(lp447
g0
(g1
g2
(lp448
g0
(g1
g2
(lp449
(lp450
S'word: the, index: 4'
p451
aatp452
Rp453
(dp454
g12
Vdet
p455
sbatp456
Rp457
(dp458
g12
S'word: hubpand, index: 5'
p459
sbatp460
Rp461
(dp462
g12
Vdobj
p463
sbatp464
Rp465
(dp466
g12
S'word: stealing, index: 3'
p467
sbatp468
Rp469
(dp470
g12
S'id: 8'
p471
sbag0
(g1
g2
(lp472
g0
(g1
g2
(lp473
g0
(g1
g2
(lp474
g0
(g1
g2
(lp475
g0
(g1
g2
(lp476
(lp477
S'word: the, index: 5'
p478
aatp479
Rp480
(dp481
g12
Vdet
p482
sbatp483
Rp484
(dp485
g12
S'word: gow, index: 6'
p486
sbatp487
Rp488
(dp489
g12
Vconj
p490
sbag0
(g1
g2
(lp491
(lp492
S'word: no, index: 8'
p493
aatp494
Rp495
(dp496
g12
Vdep
p497
sbatp498
Rp499
(dp500
g12
S'word: the, index: 2'
p501
sbatp502
Rp503
(dp504
g12
S'id: 9'
p505
sbag0
(g1
g2
(lp506
g0
(g1
g2
(lp507
g0
(g1
g2
(lp508
g0
(g1
g2
(lp509
g0
(g1
g2
(lp510
(lp511
S'word: the, index: 3'
p512
aatp513
Rp514
(dp515
g12
Vdet
p516
sbatp517
Rp518
(dp519
g12
S'word: beesofeter, index: 4'
p520
sbatp521
Rp522
(dp523
g12
Vappos
p524
sbatp525
Rp526
(dp527
g12
S'word: The, index: 1'
p528
sbatp529
Rp530
(dp531
g12
S'id: 10'
p532
sbatp533
Rp534
(dp535
g12
S'sentences'
p536
sb.