ccopy_reg
_reconstructor
p0
(cnltk.tree
Tree
p1
c__builtin__
list
p2
(lp3
g0
(g1
g2
(lp4
g0
(g1
g2
(lp5
g0
(g1
g2
(lp6
(lp7
S'word: no, index: 3'
p8
aatp9
Rp10
(dp11
S'_label'
p12
Vdep
p13
sbatp14
Rp15
(dp16
g12
S'word: Shine, index: 1'
p17
sbatp18
Rp19
(dp20
g12
S'id: 0'
p21
sbag0
(g1
g2
(lp22
tp23
Rp24
(dp25
g12
S'id: 1'
p26
sbag0
(g1
g2
(lp27
g0
(g1
g2
(lp28
g0
(g1
g2
(lp29
(lp30
S'word: line, index: 3'
p31
aatp32
Rp33
(dp34
g12
Vappos
p35
sbatp36
Rp37
(dp38
g12
S'word: Line, index: 1'
p39
sbatp40
Rp41
(dp42
g12
S'id: 2'
p43
sbag0
(g1
g2
(lp44
g0
(g1
g2
(lp45
g0
(g1
g2
(lp46
g0
(g1
g2
(lp47
g0
(g1
g2
(lp48
(lp49
S'word: bar, index: 5'
p50
aatp51
Rp52
(dp53
g12
Vappos
p54
sbatp55
Rp56
(dp57
g12
S'word: bar, index: 3'
p58
sbatp59
Rp60
(dp61
g12
Vappos
p62
sbatp63
Rp64
(dp65
g12
S'word: Bar, index: 1'
p66
sbatp67
Rp68
(dp69
g12
S'id: 3'
p70
sbag0
(g1
g2
(lp71
g0
(g1
g2
(lp72
g0
(g1
g2
(lp73
g0
(g1
g2
(lp74
g0
(g1
g2
(lp75
g0
(g1
g2
(lp76
g0
(g1
g2
(lp77
(lp78
S'word: a, index: 6'
p79
aatp80
Rp81
(dp82
g12
Vdet
p83
sbatp84
Rp85
(dp86
g12
S'word: well, index: 7'
p87
sbatp88
Rp89
(dp90
g12
Vconj
p91
sbatp92
Rp93
(dp94
g12
S'word: clown, index: 3'
p95
sbatp96
Rp97
(dp98
g12
Vappos
p99
sbag0
(g1
g2
(lp100
g85
atp101
Rp102
(dp103
g12
Vappos
p104
sbatp105
Rp106
(dp107
g12
S'word: Clown, index: 1'
p108
sbatp109
Rp110
(dp111
g12
S'id: 4'
p112
sbag0
(g1
g2
(lp113
g0
(g1
g2
(lp114
g0
(g1
g2
(lp115
g0
(g1
g2
(lp116
g0
(g1
g2
(lp117
(lp118
S"word: n't, index: 2"
p119
aatp120
Rp121
(dp122
g12
Vneg
p123
sbag0
(g1
g2
(lp124
g0
(g1
g2
(lp125
g0
(g1
g2
(lp126
(lp127
S"word: n't, index: 5"
p128
aatp129
Rp130
(dp131
g12
Vneg
p132
sbatp133
Rp134
(dp135
g12
S'word: ca, index: 4'
p136
sbatp137
Rp138
(dp139
g12
Vdep
p140
sbatp141
Rp142
(dp143
g12
S'word: Ca, index: 1'
p144
sbatp145
Rp146
(dp147
g12
Vnsubj
p148
sbag0
(g1
g2
(lp149
(lp150
S'word: can, index: 9'
p151
aatp152
Rp153
(dp154
g12
Vdep
p155
sbag0
(g1
g2
(lp156
(lp157
S'word: can, index: 11'
p158
aatp159
Rp160
(dp161
g12
Vdep
p162
sbatp163
Rp164
(dp165
g12
S'word: can, index: 7'
p166
sbatp167
Rp168
(dp169
g12
S'id: 5'
p170
sbag0
(g1
g2
(lp171
g0
(g1
g2
(lp172
g0
(g1
g2
(lp173
(lp174
S'word: girl, index: 3'
p175
aatp176
Rp177
(dp178
g12
Vconj
p179
sbatp180
Rp181
(dp182
g12
S'word: Boy, index: 1'
p183
sbatp184
Rp185
(dp186
g12
S'id: 6'
p187
sbag0
(g1
g2
(lp188
g0
(g1
g2
(lp189
g0
(g1
g2
(lp190
g0
(g1
g2
(lp191
g0
(g1
g2
(lp192
(lp193
S'word: girl, index: 10'
p194
aatp195
Rp196
(dp197
g12
Vconj
p198
sbag0
(g1
g2
(lp199
g0
(g1
g2
(lp200
g0
(g1
g2
(lp201
(lp202
S'word: horse, index: 13'
p203
aatp204
Rp205
(dp206
g12
Vnn
p207
sbag0
(g1
g2
(lp208
(lp209
S'word: and, index: 17'
p210
aatp211
Rp212
(dp213
g12
Vadvmod
p214
sbag0
(g1
g2
(lp215
g0
(g1
g2
(lp216
g0
(g1
g2
(lp217
(lp218
S'word: a, index: 18'
p219
aatp220
Rp221
(dp222
g12
Vdet
p223
sbag0
(g1
g2
(lp224
(lp225
S'word: far, index: 19'
p226
aatp227
Rp228
(dp229
g12
Vadvmod
p230
sbatp231
Rp232
(dp233
g12
S'word: no, index: 20'
p234
sbatp235
Rp236
(dp237
g12
Vconj
p238
sbatp239
Rp240
(dp241
g12
S'word: horse, index: 14'
p242
sbatp243
Rp244
(dp245
g12
Vconj
p246
sbag0
(g1
g2
(lp247
g232
atp248
Rp249
(dp250
g12
Vconj
p251
sbatp252
Rp253
(dp254
g12
S'word: dad, index: 7'
p255
sbatp256
Rp257
(dp258
g12
Vconj
p259
sbag0
(g1
g2
(lp260
(lp261
S'word: girl, index: 10'
p262
aatp263
Rp264
(dp265
g12
Vconj
p266
sbag0
(g1
g2
(lp267
g240
atp268
Rp269
(dp270
g12
Vconj
p271
sbag0
(g1
g2
(lp272
(lp273
S'word: mom, index: 3'
p274
aatp275
Rp276
(dp277
g12
Vconj
p278
sbatp279
Rp280
(dp281
g12
S'word: Mom, index: 1'
p282
sbatp283
Rp284
(dp285
g12
S'id: 7'
p286
sbag0
(g1
g2
(lp287
g0
(g1
g2
(lp288
g0
(g1
g2
(lp289
(lp290
S'word: five, index: 9'
p291
aatp292
Rp293
(dp294
g12
Vdep
p295
sbag0
(g1
g2
(lp296
(lp297
S'word: six, index: 11'
p298
aatp299
Rp300
(dp301
g12
Vdep
p302
sbag0
(g1
g2
(lp303
g0
(g1
g2
(lp304
g0
(g1
g2
(lp305
(lp306
S'word: six, index: 13'
p307
aatp308
Rp309
(dp310
g12
Vnum
p311
sbag0
(g1
g2
(lp312
g0
(g1
g2
(lp313
g0
(g1
g2
(lp314
(lp315
S'word: six, index: 16'
p316
aatp317
Rp318
(dp319
g12
Vnum
p320
sbatp321
Rp322
(dp323
g12
S'word: girls, index: 17'
p324
sbatp325
Rp326
(dp327
g12
Vappos
p328
sbag0
(g1
g2
(lp329
g0
(g1
g2
(lp330
g0
(g1
g2
(lp331
g0
(g1
g2
(lp332
g0
(g1
g2
(lp333
(lp334
S'word: no, index: 20'
p335
aatp336
Rp337
(dp338
g12
Vneg
p339
sbatp340
Rp341
(dp342
g12
S'word: girls, index: 21'
p343
sbatp344
Rp345
(dp346
g12
Vdep
p347
sbatp348
Rp349
(dp350
g12
S'word: girls, index: 19'
p351
sbatp352
Rp353
(dp354
g12
Vappos
p355
sbatp356
Rp357
(dp358
g12
S'word: girls, index: 14'
p359
sbatp360
Rp361
(dp362
g12
Vdep
p363
sbag0
(g1
g2
(lp364
(lp365
S'word: two, index: 3'
p366
aatp367
Rp368
(dp369
g12
Vdep
p370
sbag0
(g1
g2
(lp371
(lp372
S'word: three, index: 5'
p373
aatp374
Rp375
(dp376
g12
Vdep
p377
sbag0
(g1
g2
(lp378
(lp379
S'word: four, index: 7'
p380
aatp381
Rp382
(dp383
g12
Vdep
p384
sbatp385
Rp386
(dp387
g12
S'word: One, index: 1'
p388
sbatp389
Rp390
(dp391
g12
S'id: 8'
p392
sbag0
(g1
g2
(lp393
g0
(g1
g2
(lp394
g0
(g1
g2
(lp395
(lp396
S'word: one, index: 3'
p397
aatp398
Rp399
(dp400
g12
Vamod
p401
sbatp402
Rp403
(dp404
g12
S'word: One, index: 1'
p405
sbatp406
Rp407
(dp408
g12
S'id: 9'
p409
sbag0
(g1
g2
(lp410
tp411
Rp412
(dp413
g12
S'id: 10'
p414
sbag0
(g1
g2
(lp415
tp416
Rp417
(dp418
g12
S'id: 11'
p419
sbatp420
Rp421
(dp422
g12
S'sentences'
p423
sb.