ccopy_reg
_reconstructor
p0
(cnltk.tree
Tree
p1
c__builtin__
list
p2
(lp3
g0
(g1
g2
(lp4
g0
(g1
g2
(lp5
g0
(g1
g2
(lp6
Vok
p7
atp8
Rp9
(dp10
S'_label'
p11
VNN
p12
sbag0
(g1
g2
(lp13
V.
p14
atp15
Rp16
(dp17
g11
V.
p18
sbatp19
Rp20
(dp21
g11
VNP
p22
sbatp23
Rp24
(dp25
g11
S'id: 0'
p26
sbag0
(g1
g2
(lp27
g0
(g1
g2
(lp28
g0
(g1
g2
(lp29
g0
(g1
g2
(lp30
VI
p31
atp32
Rp33
(dp34
g11
VPRP
p35
sbatp36
Rp37
(dp38
g11
VNP
p39
sbag0
(g1
g2
(lp40
g0
(g1
g2
(lp41
V've
p42
atp43
Rp44
(dp45
g11
VVBP
p46
sbag0
(g1
g2
(lp47
g0
(g1
g2
(lp48
Vdone
p49
atp50
Rp51
(dp52
g11
VVBN
p53
sbag0
(g1
g2
(lp54
g0
(g1
g2
(lp55
Vthis
p56
atp57
Rp58
(dp59
g11
VDT
p60
sbag0
(g1
g2
(lp61
Vone
p62
atp63
Rp64
(dp65
g11
VCD
p66
sbatp67
Rp68
(dp69
g11
VNP
p70
sbatp71
Rp72
(dp73
g11
VVP
p74
sbatp75
Rp76
(dp77
g11
VVP
p78
sbag0
(g1
g2
(lp79
V.
p80
atp81
Rp82
(dp83
g11
V.
p84
sbatp85
Rp86
(dp87
g11
VS
p88
sbatp89
Rp90
(dp91
g11
S'id: 1'
p92
sbag0
(g1
g2
(lp93
g0
(g1
g2
(lp94
g0
(g1
g2
(lp95
g0
(g1
g2
(lp96
VThere
p97
atp98
Rp99
(dp100
g11
VEX
p101
sbatp102
Rp103
(dp104
g11
VNP
p105
sbag0
(g1
g2
(lp106
g0
(g1
g2
(lp107
V's
p108
atp109
Rp110
(dp111
g11
VVBZ
p112
sbag0
(g1
g2
(lp113
g0
(g1
g2
(lp114
g0
(g1
g2
(lp115
Va
p116
atp117
Rp118
(dp119
g11
VDT
p120
sbag0
(g1
g2
(lp121
Vboy
p122
atp123
Rp124
(dp125
g11
VNN
p126
sbatp127
Rp128
(dp129
g11
VNP
p130
sbag0
(g1
g2
(lp131
Vand
p132
atp133
Rp134
(dp135
g11
VCC
p136
sbag0
(g1
g2
(lp137
g0
(g1
g2
(lp138
g0
(g1
g2
(lp139
Va
p140
atp141
Rp142
(dp143
g11
VDT
p144
sbag0
(g1
g2
(lp145
Vgirl
p146
atp147
Rp148
(dp149
g11
VNN
p150
sbatp151
Rp152
(dp153
g11
VNP
p154
sbag0
(g1
g2
(lp155
g0
(g1
g2
(lp156
Vsitting
p157
atp158
Rp159
(dp160
g11
VVBG
p161
sbag0
(g1
g2
(lp162
g0
(g1
g2
(lp163
Von
p164
atp165
Rp166
(dp167
g11
VIN
p168
sbag0
(g1
g2
(lp169
g0
(g1
g2
(lp170
Vthe
p171
atp172
Rp173
(dp174
g11
VDT
p175
sbag0
(g1
g2
(lp176
Vbeach
p177
atp178
Rp179
(dp180
g11
VNN
p181
sbatp182
Rp183
(dp184
g11
VNP
p185
sbatp186
Rp187
(dp188
g11
VPP
p189
sbatp190
Rp191
(dp192
g11
VVP
p193
sbatp194
Rp195
(dp196
g11
VNP
p197
sbatp198
Rp199
(dp200
g11
VNP
p201
sbatp202
Rp203
(dp204
g11
VVP
p205
sbag0
(g1
g2
(lp206
V.
p207
atp208
Rp209
(dp210
g11
V.
p211
sbatp212
Rp213
(dp214
g11
VS
p215
sbatp216
Rp217
(dp218
g11
S'id: 2'
p219
sbag0
(g1
g2
(lp220
g0
(g1
g2
(lp221
g0
(g1
g2
(lp222
VAnd
p223
atp224
Rp225
(dp226
g11
VCC
p227
sbag0
(g1
g2
(lp228
g0
(g1
g2
(lp229
g0
(g1
g2
(lp230
Vthere
p231
atp232
Rp233
(dp234
g11
VEX
p235
sbatp236
Rp237
(dp238
g11
VNP
p239
sbag0
(g1
g2
(lp240
g0
(g1
g2
(lp241
V's
p242
atp243
Rp244
(dp245
g11
VVBZ
p246
sbag0
(g1
g2
(lp247
g0
(g1
g2
(lp248
g0
(g1
g2
(lp249
Vsandals
p250
atp251
Rp252
(dp253
g11
VNNS
p254
sbatp255
Rp256
(dp257
g11
VNP
p258
sbag0
(g1
g2
(lp259
g0
(g1
g2
(lp260
Von
p261
atp262
Rp263
(dp264
g11
VIN
p265
sbag0
(g1
g2
(lp266
g0
(g1
g2
(lp267
Vthe
p268
atp269
Rp270
(dp271
g11
VDT
p272
sbag0
(g1
g2
(lp273
Vshoes
p274
atp275
Rp276
(dp277
g11
VNNS
p278
sbatp279
Rp280
(dp281
g11
VNP
p282
sbatp283
Rp284
(dp285
g11
VPP
p286
sbatp287
Rp288
(dp289
g11
VNP
p290
sbatp291
Rp292
(dp293
g11
VVP
p294
sbatp295
Rp296
(dp297
g11
VS
p298
sbag0
(g1
g2
(lp299
V,
p300
atp301
Rp302
(dp303
g11
V,
p304
sbag0
(g1
g2
(lp305
Vand
p306
atp307
Rp308
(dp309
g11
VCC
p310
sbag0
(g1
g2
(lp311
g0
(g1
g2
(lp312
g0
(g1
g2
(lp313
g0
(g1
g2
(lp314
Vshe
p315
atp316
Rp317
(dp318
g11
VPRP
p319
sbatp320
Rp321
(dp322
g11
VNP
p323
sbag0
(g1
g2
(lp324
g0
(g1
g2
(lp325
V's
p326
atp327
Rp328
(dp329
g11
VVBZ
p330
sbag0
(g1
g2
(lp331
g0
(g1
g2
(lp332
Vpouring
p333
atp334
Rp335
(dp336
g11
VVBG
p337
sbag0
(g1
g2
(lp338
g0
(g1
g2
(lp339
Vcoke
p340
atp341
Rp342
(dp343
g11
VNN
p344
sbatp345
Rp346
(dp347
g11
VNP
p348
sbag0
(g1
g2
(lp349
V,
p350
atp351
Rp352
(dp353
g11
V,
p354
sbag0
(g1
g2
(lp355
g0
(g1
g2
(lp356
Vin
p357
atp358
Rp359
(dp360
g11
VIN
p361
sbag0
(g1
g2
(lp362
g0
(g1
g2
(lp363
Va
p364
atp365
Rp366
(dp367
g11
VDT
p368
sbag0
(g1
g2
(lp369
Vglass
p370
atp371
Rp372
(dp373
g11
VNN
p374
sbatp375
Rp376
(dp377
g11
VNP
p378
sbatp379
Rp380
(dp381
g11
VPP
p382
sbatp383
Rp384
(dp385
g11
VVP
p386
sbatp387
Rp388
(dp389
g11
VVP
p390
sbatp391
Rp392
(dp393
g11
VS
p394
sbag0
(g1
g2
(lp395
V,
p396
atp397
Rp398
(dp399
g11
V,
p400
sbag0
(g1
g2
(lp401
Vand
p402
atp403
Rp404
(dp405
g11
VCC
p406
sbag0
(g1
g2
(lp407
g0
(g1
g2
(lp408
g0
(g1
g2
(lp409
Vshe
p410
atp411
Rp412
(dp413
g11
VPRP
p414
sbatp415
Rp416
(dp417
g11
VNP
p418
sbag0
(g1
g2
(lp419
g0
(g1
g2
(lp420
Vhas
p421
atp422
Rp423
(dp424
g11
VVBZ
p425
sbag0
(g1
g2
(lp426
g0
(g1
g2
(lp427
Va
p428
atp429
Rp430
(dp431
g11
VDT
p432
sbag0
(g1
g2
(lp433
Vradio
p434
atp435
Rp436
(dp437
g11
VNN
p438
sbatp439
Rp440
(dp441
g11
VNP
p442
sbatp443
Rp444
(dp445
g11
VVP
p446
sbatp447
Rp448
(dp449
g11
VS
p450
sbatp451
Rp452
(dp453
g11
VS
p454
sbag0
(g1
g2
(lp455
V.
p456
atp457
Rp458
(dp459
g11
V.
p460
sbatp461
Rp462
(dp463
g11
VS
p464
sbatp465
Rp466
(dp467
g11
S'id: 3'
p468
sbag0
(g1
g2
(lp469
g0
(g1
g2
(lp470
g0
(g1
g2
(lp471
g0
(g1
g2
(lp472
g0
(g1
g2
(lp473
VThere
p474
atp475
Rp476
(dp477
g11
VEX
p478
sbatp479
Rp480
(dp481
g11
VNP
p482
sbag0
(g1
g2
(lp483
g0
(g1
g2
(lp484
V's
p485
atp486
Rp487
(dp488
g11
VVBZ
p489
sbag0
(g1
g2
(lp490
g0
(g1
g2
(lp491
g0
(g1
g2
(lp492
Va
p493
atp494
Rp495
(dp496
g11
VDT
p497
sbag0
(g1
g2
(lp498
Vboy
p499
atp500
Rp501
(dp502
g11
VNN
p503
sbatp504
Rp505
(dp506
g11
VNP
p507
sbag0
(g1
g2
(lp508
g0
(g1
g2
(lp509
Vholding
p510
atp511
Rp512
(dp513
g11
VVBG
p514
sbag0
(g1
g2
(lp515
g0
(g1
g2
(lp516
Va
p517
atp518
Rp519
(dp520
g11
VDT
p521
sbag0
(g1
g2
(lp522
Vkite
p523
atp524
Rp525
(dp526
g11
VNN
p527
sbatp528
Rp529
(dp530
g11
VNP
p531
sbatp532
Rp533
(dp534
g11
VVP
p535
sbatp536
Rp537
(dp538
g11
VNP
p539
sbatp540
Rp541
(dp542
g11
VVP
p543
sbatp544
Rp545
(dp546
g11
VS
p547
sbag0
(g1
g2
(lp548
V,
p549
atp550
Rp551
(dp552
g11
V,
p553
sbag0
(g1
g2
(lp554
Vand
p555
atp556
Rp557
(dp558
g11
VCC
p559
sbag0
(g1
g2
(lp560
g0
(g1
g2
(lp561
g0
(g1
g2
(lp562
Vhe
p563
atp564
Rp565
(dp566
g11
VPRP
p567
sbatp568
Rp569
(dp570
g11
VNP
p571
sbag0
(g1
g2
(lp572
g0
(g1
g2
(lp573
Vhas
p574
atp575
Rp576
(dp577
g11
VVBZ
p578
sbag0
(g1
g2
(lp579
g0
(g1
g2
(lp580
g0
(g1
g2
(lp581
Va
p582
atp583
Rp584
(dp585
g11
VDT
p586
sbag0
(g1
g2
(lp587
Vdog
p588
atp589
Rp590
(dp591
g11
VNN
p592
sbatp593
Rp594
(dp595
g11
VNP
p596
sbag0
(g1
g2
(lp597
g0
(g1
g2
(lp598
Vbehind
p599
atp600
Rp601
(dp602
g11
VIN
p603
sbag0
(g1
g2
(lp604
g0
(g1
g2
(lp605
Vhim
p606
atp607
Rp608
(dp609
g11
VPRP
p610
sbatp611
Rp612
(dp613
g11
VNP
p614
sbatp615
Rp616
(dp617
g11
VPP
p618
sbatp619
Rp620
(dp621
g11
VNP
p622
sbatp623
Rp624
(dp625
g11
VVP
p626
sbatp627
Rp628
(dp629
g11
VS
p630
sbag0
(g1
g2
(lp631
V.
p632
atp633
Rp634
(dp635
g11
V.
p636
sbatp637
Rp638
(dp639
g11
VS
p640
sbatp641
Rp642
(dp643
g11
S'id: 4'
p644
sbag0
(g1
g2
(lp645
g0
(g1
g2
(lp646
g0
(g1
g2
(lp647
VAnd
p648
atp649
Rp650
(dp651
g11
VCC
p652
sbag0
(g1
g2
(lp653
g0
(g1
g2
(lp654
Vthere
p655
atp656
Rp657
(dp658
g11
VEX
p659
sbatp660
Rp661
(dp662
g11
VNP
p663
sbag0
(g1
g2
(lp664
g0
(g1
g2
(lp665
V's
p666
atp667
Rp668
(dp669
g11
VVBZ
p670
sbag0
(g1
g2
(lp671
g0
(g1
g2
(lp672
g0
(g1
g2
(lp673
g0
(g1
g2
(lp674
Va
p675
atp676
Rp677
(dp678
g11
VDT
p679
sbag0
(g1
g2
(lp680
Vhouse
p681
atp682
Rp683
(dp684
g11
VNN
p685
sbatp686
Rp687
(dp688
g11
VNP
p689
sbag0
(g1
g2
(lp690
g0
(g1
g2
(lp691
Vwith
p692
atp693
Rp694
(dp695
g11
VIN
p696
sbag0
(g1
g2
(lp697
g0
(g1
g2
(lp698
g0
(g1
g2
(lp699
Va
p700
atp701
Rp702
(dp703
g11
VDT
p704
sbag0
(g1
g2
(lp705
Vcar
p706
atp707
Rp708
(dp709
g11
VNN
p710
sbatp711
Rp712
(dp713
g11
VNP
p714
sbag0
(g1
g2
(lp715
g0
(g1
g2
(lp716
Vin
p717
atp718
Rp719
(dp720
g11
VIN
p721
sbag0
(g1
g2
(lp722
g0
(g1
g2
(lp723
Vthe
p724
atp725
Rp726
(dp727
g11
VDT
p728
sbag0
(g1
g2
(lp729
Vfront
p730
atp731
Rp732
(dp733
g11
VNN
p734
sbatp735
Rp736
(dp737
g11
VNP
p738
sbatp739
Rp740
(dp741
g11
VPP
p742
sbatp743
Rp744
(dp745
g11
VNP
p746
sbatp747
Rp748
(dp749
g11
VPP
p750
sbatp751
Rp752
(dp753
g11
VNP
p754
sbag0
(g1
g2
(lp755
V,
p756
atp757
Rp758
(dp759
g11
V,
p760
sbag0
(g1
g2
(lp761
Vand
p762
atp763
Rp764
(dp765
g11
VCC
p766
sbag0
(g1
g2
(lp767
g0
(g1
g2
(lp768
g0
(g1
g2
(lp769
Va
p770
atp771
Rp772
(dp773
g11
VDT
p774
sbag0
(g1
g2
(lp775
Vbig
p776
atp777
Rp778
(dp779
g11
VJJ
p780
sbag0
(g1
g2
(lp781
Vtree
p782
atp783
Rp784
(dp785
g11
VNN
p786
sbatp787
Rp788
(dp789
g11
VNP
p790
sbag0
(g1
g2
(lp791
V,
p792
atp793
Rp794
(dp795
g11
V,
p796
sbag0
(g1
g2
(lp797
Vand
p798
atp799
Rp800
(dp801
g11
VCC
p802
sbag0
(g1
g2
(lp803
g0
(g1
g2
(lp804
Va
p805
atp806
Rp807
(dp808
g11
VDT
p809
sbag0
(g1
g2
(lp810
Vflag
p811
atp812
Rp813
(dp814
g11
VNN
p815
sbatp816
Rp817
(dp818
g11
VNP
p819
sbatp820
Rp821
(dp822
g11
VNP
p823
sbatp824
Rp825
(dp826
g11
VNP
p827
sbatp828
Rp829
(dp830
g11
VVP
p831
sbag0
(g1
g2
(lp832
V.
p833
atp834
Rp835
(dp836
g11
V.
p837
sbatp838
Rp839
(dp840
g11
VS
p841
sbatp842
Rp843
(dp844
g11
S'id: 5'
p845
sbag0
(g1
g2
(lp846
g0
(g1
g2
(lp847
g0
(g1
g2
(lp848
VAnd
p849
atp850
Rp851
(dp852
g11
VCC
p853
sbag0
(g1
g2
(lp854
g0
(g1
g2
(lp855
g0
(g1
g2
(lp856
Vthere
p857
atp858
Rp859
(dp860
g11
VEX
p861
sbatp862
Rp863
(dp864
g11
VNP
p865
sbag0
(g1
g2
(lp866
g0
(g1
g2
(lp867
V's
p868
atp869
Rp870
(dp871
g11
VVBZ
p872
sbag0
(g1
g2
(lp873
g0
(g1
g2
(lp874
g0
(g1
g2
(lp875
Va
p876
atp877
Rp878
(dp879
g11
VDT
p880
sbag0
(g1
g2
(lp881
Vboy
p882
atp883
Rp884
(dp885
g11
VNN
p886
sbatp887
Rp888
(dp889
g11
VNP
p890
sbag0
(g1
g2
(lp891
g0
(g1
g2
(lp892
Vholding
p893
atp894
Rp895
(dp896
g11
VVBG
p897
sbag0
(g1
g2
(lp898
g0
(g1
g2
(lp899
Va
p900
atp901
Rp902
(dp903
g11
VDT
p904
sbag0
(g1
g2
(lp905
Vflag
p906
atp907
Rp908
(dp909
g11
VNN
p910
sbatp911
Rp912
(dp913
g11
VNP
p914
sbatp915
Rp916
(dp917
g11
VVP
p918
sbatp919
Rp920
(dp921
g11
VNP
p922
sbatp923
Rp924
(dp925
g11
VVP
p926
sbatp927
Rp928
(dp929
g11
VS
p930
sbag0
(g1
g2
(lp931
V,
p932
atp933
Rp934
(dp935
g11
V,
p936
sbag0
(g1
g2
(lp937
Vand
p938
atp939
Rp940
(dp941
g11
VCC
p942
sbag0
(g1
g2
(lp943
g0
(g1
g2
(lp944
g0
(g1
g2
(lp945
Vhe
p946
atp947
Rp948
(dp949
g11
VPRP
p950
sbatp951
Rp952
(dp953
g11
VNP
p954
sbag0
(g1
g2
(lp955
g0
(g1
g2
(lp956
V's
p957
atp958
Rp959
(dp960
g11
VVBZ
p961
sbag0
(g1
g2
(lp962
V,
p963
atp964
Rp965
(dp966
g11
V,
p967
sbag0
(g1
g2
(lp968
g0
(g1
g2
(lp969
g0
(g1
g2
(lp970
g0
(g1
g2
(lp971
Vhas
p972
atp973
Rp974
(dp975
g11
VVBZ
p976
sbag0
(g1
g2
(lp977
g0
(g1
g2
(lp978
g0
(g1
g2
(lp979
Va
p980
atp981
Rp982
(dp983
g11
VDT
p984
sbag0
(g1
g2
(lp985
Vlittle
p986
atp987
Rp988
(dp989
g11
VJJ
p990
sbag0
(g1
g2
(lp991
Vpuppy
p992
atp993
Rp994
(dp995
g11
VNN
p996
sbatp997
Rp998
(dp999
g11
VNP
p1000
sbag0
(g1
g2
(lp1001
g0
(g1
g2
(lp1002
Vfollowing
p1003
atp1004
Rp1005
(dp1006
g11
VVBG
p1007
sbag0
(g1
g2
(lp1008
g0
(g1
g2
(lp1009
Vhim
p1010
atp1011
Rp1012
(dp1013
g11
VPRP
p1014
sbatp1015
Rp1016
(dp1017
g11
VNP
p1018
sbatp1019
Rp1020
(dp1021
g11
VPP
p1022
sbatp1023
Rp1024
(dp1025
g11
VNP
p1026
sbatp1027
Rp1028
(dp1029
g11
VVP
p1030
sbatp1031
Rp1032
(dp1033
g11
VS
p1034
sbatp1035
Rp1036
(dp1037
g11
VSBAR
p1038
sbatp1039
Rp1040
(dp1041
g11
VVP
p1042
sbatp1043
Rp1044
(dp1045
g11
VS
p1046
sbag0
(g1
g2
(lp1047
V.
p1048
atp1049
Rp1050
(dp1051
g11
V.
p1052
sbatp1053
Rp1054
(dp1055
g11
VS
p1056
sbatp1057
Rp1058
(dp1059
g11
S'id: 6'
p1060
sbag0
(g1
g2
(lp1061
g0
(g1
g2
(lp1062
g0
(g1
g2
(lp1063
VAnd
p1064
atp1065
Rp1066
(dp1067
g11
VCC
p1068
sbag0
(g1
g2
(lp1069
g0
(g1
g2
(lp1070
Vthere
p1071
atp1072
Rp1073
(dp1074
g11
VEX
p1075
sbatp1076
Rp1077
(dp1078
g11
VNP
p1079
sbag0
(g1
g2
(lp1080
g0
(g1
g2
(lp1081
V's
p1082
atp1083
Rp1084
(dp1085
g11
VVBZ
p1086
sbag0
(g1
g2
(lp1087
g0
(g1
g2
(lp1088
g0
(g1
g2
(lp1089
Va
p1090
atp1091
Rp1092
(dp1093
g11
VDT
p1094
sbag0
(g1
g2
(lp1095
Vman
p1096
atp1097
Rp1098
(dp1099
g11
VNN
p1100
sbatp1101
Rp1102
(dp1103
g11
VNP
p1104
sbag0
(g1
g2
(lp1105
g0
(g1
g2
(lp1106
Von
p1107
atp1108
Rp1109
(dp1110
g11
VIN
p1111
sbag0
(g1
g2
(lp1112
g0
(g1
g2
(lp1113
g0
(g1
g2
(lp1114
Vthe
p1115
atp1116
Rp1117
(dp1118
g11
VDT
p1119
sbag0
(g1
g2
(lp1120
Vriver
p1121
atp1122
Rp1123
(dp1124
g11
VNN
p1125
sbatp1126
Rp1127
(dp1128
g11
VNP
p1129
sbag0
(g1
g2
(lp1130
g0
(g1
g2
(lp1131
g0
(g1
g2
(lp1132
Vwho
p1133
atp1134
Rp1135
(dp1136
g11
VWP
p1137
sbatp1138
Rp1139
(dp1140
g11
VWHNP
p1141
sbag0
(g1
g2
(lp1142
g0
(g1
g2
(lp1143
g0
(g1
g2
(lp1144
Vis
p1145
atp1146
Rp1147
(dp1148
g11
VVBZ
p1149
sbag0
(g1
g2
(lp1150
g0
(g1
g2
(lp1151
Vcatching
p1152
atp1153
Rp1154
(dp1155
g11
VVBG
p1156
sbag0
(g1
g2
(lp1157
g0
(g1
g2
(lp1158
Va
p1159
atp1160
Rp1161
(dp1162
g11
VDT
p1163
sbag0
(g1
g2
(lp1164
Vfish
p1165
atp1166
Rp1167
(dp1168
g11
VNN
p1169
sbatp1170
Rp1171
(dp1172
g11
VNP
p1173
sbatp1174
Rp1175
(dp1176
g11
VVP
p1177
sbatp1178
Rp1179
(dp1180
g11
VVP
p1181
sbatp1182
Rp1183
(dp1184
g11
VS
p1185
sbatp1186
Rp1187
(dp1188
g11
VSBAR
p1189
sbatp1190
Rp1191
(dp1192
g11
VNP
p1193
sbatp1194
Rp1195
(dp1196
g11
VPP
p1197
sbatp1198
Rp1199
(dp1200
g11
VNP
p1201
sbatp1202
Rp1203
(dp1204
g11
VVP
p1205
sbag0
(g1
g2
(lp1206
V.
p1207
atp1208
Rp1209
(dp1210
g11
V.
p1211
sbatp1212
Rp1213
(dp1214
g11
VS
p1215
sbatp1216
Rp1217
(dp1218
g11
S'id: 7'
p1219
sbag0
(g1
g2
(lp1220
g0
(g1
g2
(lp1221
g0
(g1
g2
(lp1222
g0
(g1
g2
(lp1223
VThere
p1224
atp1225
Rp1226
(dp1227
g11
VEX
p1228
sbatp1229
Rp1230
(dp1231
g11
VNP
p1232
sbag0
(g1
g2
(lp1233
g0
(g1
g2
(lp1234
V's
p1235
atp1236
Rp1237
(dp1238
g11
VVBZ
p1239
sbag0
(g1
g2
(lp1240
g0
(g1
g2
(lp1241
g0
(g1
g2
(lp1242
Va
p1243
atp1244
Rp1245
(dp1246
g11
VDT
p1247
sbag0
(g1
g2
(lp1248
Vlittle
p1249
atp1250
Rp1251
(dp1252
g11
VJJ
p1253
sbag0
(g1
g2
(lp1254
Vgirl
p1255
atp1256
Rp1257
(dp1258
g11
VNN
p1259
sbatp1260
Rp1261
(dp1262
g11
VNP
p1263
sbag0
(g1
g2
(lp1264
g0
(g1
g2
(lp1265
Vplaying
p1266
atp1267
Rp1268
(dp1269
g11
VVBG
p1270
sbag0
(g1
g2
(lp1271
g0
(g1
g2
(lp1272
Vwith
p1273
atp1274
Rp1275
(dp1276
g11
VIN
p1277
sbag0
(g1
g2
(lp1278
g0
(g1
g2
(lp1279
g0
(g1
g2
(lp1280
Vthe
p1281
atp1282
Rp1283
(dp1284
g11
VDT
p1285
sbag0
(g1
g2
(lp1286
Vsandbar
p1287
atp1288
Rp1289
(dp1290
g11
VNN
p1291
sbatp1292
Rp1293
(dp1294
g11
VNP
p1295
sbag0
(g1
g2
(lp1296
g0
(g1
g2
(lp1297
Vin
p1298
atp1299
Rp1300
(dp1301
g11
VIN
p1302
sbag0
(g1
g2
(lp1303
g0
(g1
g2
(lp1304
g0
(g1
g2
(lp1305
Vthe
p1306
atp1307
Rp1308
(dp1309
g11
VDT
p1310
sbatp1311
Rp1312
(dp1313
g11
VNP
p1314
sbag0
(g1
g2
(lp1315
g0
(g1
g2
(lp1316
Vin
p1317
atp1318
Rp1319
(dp1320
g11
VIN
p1321
sbag0
(g1
g2
(lp1322
g0
(g1
g2
(lp1323
Vthe
p1324
atp1325
Rp1326
(dp1327
g11
VDT
p1328
sbag0
(g1
g2
(lp1329
Vsand
p1330
atp1331
Rp1332
(dp1333
g11
VNN
p1334
sbatp1335
Rp1336
(dp1337
g11
VNP
p1338
sbatp1339
Rp1340
(dp1341
g11
VPP
p1342
sbatp1343
Rp1344
(dp1345
g11
VNP
p1346
sbatp1347
Rp1348
(dp1349
g11
VPP
p1350
sbatp1351
Rp1352
(dp1353
g11
VNP
p1354
sbatp1355
Rp1356
(dp1357
g11
VPP
p1358
sbatp1359
Rp1360
(dp1361
g11
VVP
p1362
sbatp1363
Rp1364
(dp1365
g11
VNP
p1366
sbatp1367
Rp1368
(dp1369
g11
VVP
p1370
sbag0
(g1
g2
(lp1371
V.
p1372
atp1373
Rp1374
(dp1375
g11
V.
p1376
sbatp1377
Rp1378
(dp1379
g11
VS
p1380
sbatp1381
Rp1382
(dp1383
g11
S'id: 8'
p1384
sbag0
(g1
g2
(lp1385
g0
(g1
g2
(lp1386
g0
(g1
g2
(lp1387
VAnd
p1388
atp1389
Rp1390
(dp1391
g11
VCC
p1392
sbag0
(g1
g2
(lp1393
g0
(g1
g2
(lp1394
g0
(g1
g2
(lp1395
Va
p1396
atp1397
Rp1398
(dp1399
g11
VDT
p1400
sbag0
(g1
g2
(lp1401
Vboat
p1402
atp1403
Rp1404
(dp1405
g11
VNN
p1406
sbatp1407
Rp1408
(dp1409
g11
VNP
p1410
sbag0
(g1
g2
(lp1411
g0
(g1
g2
(lp1412
Vwith
p1413
atp1414
Rp1415
(dp1416
g11
VIN
p1417
sbag0
(g1
g2
(lp1418
g0
(g1
g2
(lp1419
Vthe
p1420
atp1421
Rp1422
(dp1423
g11
VDT
p1424
sbag0
(g1
g2
(lp1425
Vnumber
p1426
atp1427
Rp1428
(dp1429
g11
VNN
p1430
sbag0
(g1
g2
(lp1431
g0
(g1
g2
(lp1432
Vfour
p1433
atp1434
Rp1435
(dp1436
g11
VCD
p1437
sbag0
(g1
g2
(lp1438
Vseventy
p1439
atp1440
Rp1441
(dp1442
g11
VCD
p1443
sbatp1444
Rp1445
(dp1446
g11
VQP
p1447
sbatp1448
Rp1449
(dp1450
g11
VNP
p1451
sbatp1452
Rp1453
(dp1454
g11
VPP
p1455
sbag0
(g1
g2
(lp1456
g0
(g1
g2
(lp1457
Von
p1458
atp1459
Rp1460
(dp1461
g11
VIN
p1462
sbag0
(g1
g2
(lp1463
g0
(g1
g2
(lp1464
Vit
p1465
atp1466
Rp1467
(dp1468
g11
VPRP
p1469
sbatp1470
Rp1471
(dp1472
g11
VNP
p1473
sbatp1474
Rp1475
(dp1476
g11
VPP
p1477
sbatp1478
Rp1479
(dp1480
g11
VNP
p1481
sbag0
(g1
g2
(lp1482
V.
p1483
atp1484
Rp1485
(dp1486
g11
V.
p1487
sbatp1488
Rp1489
(dp1490
g11
VFRAG
p1491
sbatp1492
Rp1493
(dp1494
g11
S'id: 9'
p1495
sbag0
(g1
g2
(lp1496
g0
(g1
g2
(lp1497
g0
(g1
g2
(lp1498
VAnd
p1499
atp1500
Rp1501
(dp1502
g11
VCC
p1503
sbag0
(g1
g2
(lp1504
g0
(g1
g2
(lp1505
g0
(g1
g2
(lp1506
Va
p1507
atp1508
Rp1509
(dp1510
g11
VDT
p1511
sbag0
(g1
g2
(lp1512
Vlot
p1513
atp1514
Rp1515
(dp1516
g11
VNN
p1517
sbatp1518
Rp1519
(dp1520
g11
VNP
p1521
sbag0
(g1
g2
(lp1522
g0
(g1
g2
(lp1523
Vof
p1524
atp1525
Rp1526
(dp1527
g11
VIN
p1528
sbag0
(g1
g2
(lp1529
g0
(g1
g2
(lp1530
g0
(g1
g2
(lp1531
Vtrees
p1532
atp1533
Rp1534
(dp1535
g11
VNNS
p1536
sbatp1537
Rp1538
(dp1539
g11
VNP
p1540
sbag0
(g1
g2
(lp1541
V,
p1542
atp1543
Rp1544
(dp1545
g11
V,
p1546
sbag0
(g1
g2
(lp1547
Vand
p1548
atp1549
Rp1550
(dp1551
g11
VCC
p1552
sbag0
(g1
g2
(lp1553
g0
(g1
g2
(lp1554
g0
(g1
g2
(lp1555
Vone
p1556
atp1557
Rp1558
(dp1559
g11
VCD
p1560
sbag0
(g1
g2
(lp1561
Vbig
p1562
atp1563
Rp1564
(dp1565
g11
VJJ
p1566
sbag0
(g1
g2
(lp1567
Vtree
p1568
atp1569
Rp1570
(dp1571
g11
VNN
p1572
sbatp1573
Rp1574
(dp1575
g11
VNP
p1576
sbag0
(g1
g2
(lp1577
g0
(g1
g2
(lp1578
Vin
p1579
atp1580
Rp1581
(dp1582
g11
VIN
p1583
sbag0
(g1
g2
(lp1584
g0
(g1
g2
(lp1585
Vin
p1586
atp1587
Rp1588
(dp1589
g11
VIN
p1590
sbag0
(g1
g2
(lp1591
g0
(g1
g2
(lp1592
Vthe
p1593
atp1594
Rp1595
(dp1596
g11
VDT
p1597
sbag0
(g1
g2
(lp1598
Vyard
p1599
atp1600
Rp1601
(dp1602
g11
VNN
p1603
sbatp1604
Rp1605
(dp1606
g11
VNP
p1607
sbatp1608
Rp1609
(dp1610
g11
VPP
p1611
sbatp1612
Rp1613
(dp1614
g11
VPP
p1615
sbatp1616
Rp1617
(dp1618
g11
VNP
p1619
sbatp1620
Rp1621
(dp1622
g11
VNP
p1623
sbatp1624
Rp1625
(dp1626
g11
VPP
p1627
sbatp1628
Rp1629
(dp1630
g11
VNP
p1631
sbag0
(g1
g2
(lp1632
V.
p1633
atp1634
Rp1635
(dp1636
g11
V.
p1637
sbatp1638
Rp1639
(dp1640
g11
VFRAG
p1641
sbatp1642
Rp1643
(dp1644
g11
S'id: 10'
p1645
sbatp1646
Rp1647
(dp1648
g11
S'sentences'
p1649
sb.