ccopy_reg
_reconstructor
p0
(cnltk.tree
Tree
p1
c__builtin__
list
p2
(lp3
g0
(g1
g2
(lp4
g0
(g1
g2
(lp5
g0
(g1
g2
(lp6
(lp7
S'word: This, index: 1'
p8
aatp9
Rp10
(dp11
S'_label'
p12
Vnsubj
p13
sbag0
(g1
g2
(lp14
g0
(g1
g2
(lp15
g0
(g1
g2
(lp16
(lp17
S'word: a, index: 4'
p18
aatp19
Rp20
(dp21
g12
Vdet
p22
sbag0
(g1
g2
(lp23
g0
(g1
g2
(lp24
g0
(g1
g2
(lp25
(lp26
S'word: the, index: 7'
p27
aatp28
Rp29
(dp30
g12
Vdet
p31
sbag0
(g1
g2
(lp32
g0
(g1
g2
(lp33
g0
(g1
g2
(lp34
(lp35
S'word: dishes, index: 10'
p36
aatp37
Rp38
(dp39
g12
Vdobj
p40
sbatp41
Rp42
(dp43
g12
S'word: washing, index: 9'
p44
sbatp45
Rp46
(dp47
g12
Vvmod
p48
sbatp49
Rp50
(dp51
g12
S'word: mother, index: 8'
p52
sbatp53
Rp54
(dp55
g12
Vprep
p56
sbatp57
Rp58
(dp59
g12
S'word: kitchen, index: 5'
p60
sbatp61
Rp62
(dp63
g12
Vprep
p64
sbag0
(g1
g2
(lp65
g0
(g1
g2
(lp66
g0
(g1
g2
(lp67
g0
(g1
g2
(lp68
g0
(g1
g2
(lp69
(lp70
S'word: overflowing, index: 17'
p71
aatp72
Rp73
(dp74
g12
Vvmod
p75
sbag0
(g1
g2
(lp76
(lp77
S'word: a, index: 15'
p78
aatp79
Rp80
(dp81
g12
Vdet
p82
sbatp83
Rp84
(dp85
g12
S'word: skin, index: 16'
p86
sbatp87
Rp88
(dp89
g12
Vdobj
p90
sbag0
(g1
g2
(lp91
(lp92
S'word: shes, index: 13'
p93
aatp94
Rp95
(dp96
g12
Vnsubj
p97
sbatp98
Rp99
(dp100
g12
S'word: got, index: 14'
p101
sbatp102
Rp103
(dp104
g12
Vconj
p105
sbatp106
Rp107
(dp108
g12
S'word: looks, index: 2'
p109
sbatp110
Rp111
(dp112
g12
S'id: 0'
p113
sbag0
(g1
g2
(lp114
g0
(g1
g2
(lp115
g0
(g1
g2
(lp116
(lp117
S'word: shrubbery, index: 19'
p118
aatp119
Rp120
(dp121
g12
Vprep
p122
sbag0
(g1
g2
(lp123
(lp124
S'word: and, index: 20'
p125
aatp126
Rp127
(dp128
g12
Vcc
p129
sbag0
(g1
g2
(lp130
g0
(g1
g2
(lp131
g0
(g1
g2
(lp132
(lp133
S'word: what, index: 22'
p134
aatp135
Rp136
(dp137
g12
Vnsubj
p138
sbatp139
Rp140
(dp141
g12
S'word: not, index: 23'
p142
sbatp143
Rp144
(dp145
g12
Vxcomp
p146
sbag0
(g1
g2
(lp147
(lp148
S'word: that, index: 13'
p149
aatp150
Rp151
(dp152
g12
Vnsubjpass
p153
sbag0
(g1
g2
(lp154
(lp155
S"word: 's, index: 14"
p156
aatp157
Rp158
(dp159
g12
Vauxpass
p160
sbag0
(g1
g2
(lp161
g0
(g1
g2
(lp162
g0
(g1
g2
(lp163
(lp164
S'word: kind, index: 15'
p165
aatp166
Rp167
(dp168
g12
Vdep
p169
sbatp170
Rp171
(dp172
g12
S'word: of, index: 16'
p173
sbatp174
Rp175
(dp176
g12
Vadvmod
p177
sbag0
(g1
g2
(lp178
g0
(g1
g2
(lp179
g0
(g1
g2
(lp180
g0
(g1
g2
(lp181
g0
(g1
g2
(lp182
(lp183
S'word: like, index: 3'
p184
aatp185
Rp186
(dp187
g12
Vmark
p188
sbag0
(g1
g2
(lp189
(lp190
S'word: she, index: 4'
p191
aatp192
Rp193
(dp194
g12
Vnsubjpass
p195
sbag0
(g1
g2
(lp196
(lp197
S"word: 's, index: 5"
p198
aatp199
Rp200
(dp201
g12
Vauxpass
p202
sbag0
(g1
g2
(lp203
g0
(g1
g2
(lp204
g0
(g1
g2
(lp205
(lp206
S'word: a, index: 7'
p207
aatp208
Rp209
(dp210
g12
Vdet
p211
sbag0
(g1
g2
(lp212
g0
(g1
g2
(lp213
g0
(g1
g2
(lp214
(lp215
S'word: very, index: 8'
p216
aatp217
Rp218
(dp219
g12
Vadvmod
p220
sbag0
(g1
g2
(lp221
(lp222
S'word: back, index: 10'
p223
aatp224
Rp225
(dp226
g12
Vadvmod
p227
sbatp228
Rp229
(dp230
g12
S'word: nice, index: 9'
p231
sbatp232
Rp233
(dp234
g12
Vamod
p235
sbatp236
Rp237
(dp238
g12
S'word: yard, index: 11'
p239
sbatp240
Rp241
(dp242
g12
Vdobj
p243
sbatp244
Rp245
(dp246
g12
S'word: got, index: 6'
p247
sbatp248
Rp249
(dp250
g12
Vadvcl
p251
sbag0
(g1
g2
(lp252
(lp253
S'word: She, index: 1'
p254
aatp255
Rp256
(dp257
g12
Vnsubj
p258
sbatp259
Rp260
(dp261
g12
S'word: looks, index: 2'
p262
sbatp263
Rp264
(dp265
g12
Vccomp
p266
sbatp267
Rp268
(dp269
g12
S'word: manicured, index: 17'
p270
sbatp271
Rp272
(dp273
g12
S'id: 1'
p274
sbag0
(g1
g2
(lp275
g0
(g1
g2
(lp276
g0
(g1
g2
(lp277
g0
(g1
g2
(lp278
g0
(g1
g2
(lp279
(lp280
S'word: I, index: 7'
p281
aatp282
Rp283
(dp284
g12
Vnsubj
p285
sbatp286
Rp287
(dp288
g12
S'word: assume, index: 8'
p289
sbatp290
Rp291
(dp292
g12
Vccomp
p293
sbag0
(g1
g2
(lp294
g0
(g1
g2
(lp295
g0
(g1
g2
(lp296
(lp297
S'word: he, index: 23'
p298
aatp299
Rp300
(dp301
g12
Vnsubj
p302
sbag0
(g1
g2
(lp303
(lp304
S"word: 's, index: 24"
p305
aatp306
Rp307
(dp308
g12
Vaux
p309
sbag0
(g1
g2
(lp310
g0
(g1
g2
(lp311
g0
(g1
g2
(lp312
(lp313
S'word: a, index: 28'
p314
aatp315
Rp316
(dp317
g12
Vdet
p318
sbatp319
Rp320
(dp321
g12
S'word: stool, index: 29'
p322
sbatp323
Rp324
(dp325
g12
Vprep
p326
sbatp327
Rp328
(dp329
g12
S'word: falling, index: 25'
p330
sbatp331
Rp332
(dp333
g12
Vconj
p334
sbag0
(g1
g2
(lp335
g0
(g1
g2
(lp336
g0
(g1
g2
(lp337
(lp338
S'word: that, index: 10'
p339
aatp340
Rp341
(dp342
g12
Vnsubj
p343
sbag0
(g1
g2
(lp344
(lp345
S"word: 's, index: 11"
p346
aatp347
Rp348
(dp349
g12
Vaux
p350
sbag0
(g1
g2
(lp351
g0
(g1
g2
(lp352
g0
(g1
g2
(lp353
(lp354
S'word: to, index: 13'
p355
aatp356
Rp357
(dp358
g12
Vaux
p359
sbag0
(g1
g2
(lp360
(lp361
S'word: cookies, index: 15'
p362
aatp363
Rp364
(dp365
g12
Vdobj
p366
sbag0
(g1
g2
(lp367
g0
(g1
g2
(lp368
g0
(g1
g2
(lp369
(lp370
S'word: a, index: 18'
p371
aatp372
Rp373
(dp374
g12
Vdet
p375
sbag0
(g1
g2
(lp376
(lp377
S'word: cookie, index: 19'
p378
aatp379
Rp380
(dp381
g12
Vnn
p382
sbatp383
Rp384
(dp385
g12
S'word: jar, index: 20'
p386
sbatp387
Rp388
(dp389
g12
Vprep
p390
sbatp391
Rp392
(dp393
g12
S'word: get, index: 14'
p394
sbatp395
Rp396
(dp397
g12
Vxcomp
p398
sbatp399
Rp400
(dp401
g12
S'word: trying, index: 12'
p402
sbatp403
Rp404
(dp405
g12
Vccomp
p406
sbag0
(g1
g2
(lp407
(lp408
S'word: She, index: 1'
p409
aatp410
Rp411
(dp412
g12
Vnsubjpass
p413
sbag0
(g1
g2
(lp414
(lp415
S"word: 's, index: 2"
p416
aatp417
Rp418
(dp419
g12
Vauxpass
p420
sbag0
(g1
g2
(lp421
g0
(g1
g2
(lp422
g0
(g1
g2
(lp423
(lp424
S'word: a, index: 4'
p425
aatp426
Rp427
(dp428
g12
Vdet
p429
sbatp430
Rp431
(dp432
g12
S'word: son, index: 5'
p433
sbatp434
Rp435
(dp436
g12
Vdobj
p437
sbatp438
Rp439
(dp440
g12
S'word: got, index: 3'
p441
sbatp442
Rp443
(dp444
g12
S'id: 2'
p445
sbag0
(g1
g2
(lp446
g0
(g1
g2
(lp447
g0
(g1
g2
(lp448
g0
(g1
g2
(lp449
g0
(g1
g2
(lp450
(lp451
S'word: The, index: 1'
p452
aatp453
Rp454
(dp455
g12
Vdet
p456
sbatp457
Rp458
(dp459
g12
S'word: daughter, index: 2'
p460
sbatp461
Rp462
(dp463
g12
Vnsubj
p464
sbag0
(g1
g2
(lp465
g0
(g1
g2
(lp466
g0
(g1
g2
(lp467
g0
(g1
g2
(lp468
g0
(g1
g2
(lp469
g0
(g1
g2
(lp470
g0
(g1
g2
(lp471
(lp472
S'word: not, index: 12'
p473
aatp474
Rp475
(dp476
g12
Vneg
p477
sbatp478
Rp479
(dp480
g12
S'word: aware, index: 13'
p481
sbatp482
Rp483
(dp484
g12
Vconj
p485
sbatp486
Rp487
(dp488
g12
S'word: cookie, index: 9'
p489
sbatp490
Rp491
(dp492
g12
Vprep
p493
sbag0
(g1
g2
(lp494
g479
atp495
Rp496
(dp497
g12
Vprep
p498
sbag0
(g1
g2
(lp499
g0
(g1
g2
(lp500
g0
(g1
g2
(lp501
(lp502
S'word: that, index: 14'
p503
aatp504
Rp505
(dp506
g12
Vmark
p507
sbag0
(g1
g2
(lp508
(lp509
S'word: he, index: 15'
p510
aatp511
Rp512
(dp513
g12
Vnsubj
p514
sbag0
(g1
g2
(lp515
(lp516
S"word: 's, index: 16"
p517
aatp518
Rp519
(dp520
g12
Vaux
p521
sbag0
(g1
g2
(lp522
(lp523
S'word: off, index: 18'
p524
aatp525
Rp526
(dp527
g12
Vprt
p528
sbag0
(g1
g2
(lp529
g0
(g1
g2
(lp530
g0
(g1
g2
(lp531
(lp532
S'word: the, index: 19'
p533
aatp534
Rp535
(dp536
g12
Vdet
p537
sbatp538
Rp539
(dp540
g12
S'word: stool, index: 20'
p541
sbatp542
Rp543
(dp544
g12
Vdobj
p545
sbatp546
Rp547
(dp548
g12
S'word: falling, index: 17'
p549
sbatp550
Rp551
(dp552
g12
Vccomp
p553
sbag0
(g1
g2
(lp554
(lp555
S'word: like, index: 4'
p556
aatp557
Rp558
(dp559
g12
Vmark
p560
sbag0
(g1
g2
(lp561
(lp562
S'word: she, index: 5'
p563
aatp564
Rp565
(dp566
g12
Vnsubj
p567
sbag0
(g1
g2
(lp568
(lp569
S"word: 's, index: 6"
p570
aatp571
Rp572
(dp573
g12
Vaux
p574
sbatp575
Rp576
(dp577
g12
S'word: reaching, index: 7'
p578
sbatp579
Rp580
(dp581
g12
Vadvcl
p582
sbatp583
Rp584
(dp585
g12
S'word: looks, index: 3'
p586
sbatp587
Rp588
(dp589
g12
S'id: 3'
p590
sbag0
(g1
g2
(lp591
g0
(g1
g2
(lp592
g0
(g1
g2
(lp593
g0
(g1
g2
(lp594
g0
(g1
g2
(lp595
g0
(g1
g2
(lp596
g0
(g1
g2
(lp597
(lp598
S'word: anymore, index: 14'
p599
aatp600
Rp601
(dp602
g12
Vadvmod
p603
sbatp604
Rp605
(dp606
g12
S'word: aprons, index: 13'
p607
sbatp608
Rp609
(dp610
g12
Vdobj
p611
sbag0
(g1
g2
(lp612
g0
(g1
g2
(lp613
g0
(g1
g2
(lp614
(lp615
S'word: these, index: 15'
p616
aatp617
Rp618
(dp619
g12
Vdet
p620
sbatp621
Rp622
(dp623
g12
S'word: days, index: 16'
p624
sbatp625
Rp626
(dp627
g12
Vtmod
p628
sbag0
(g1
g2
(lp629
(lp630
S'word: not, index: 9'
p631
aatp632
Rp633
(dp634
g12
Vneg
p635
sbag0
(g1
g2
(lp636
g0
(g1
g2
(lp637
g0
(g1
g2
(lp638
(lp639
S'word: many, index: 10'
p640
aatp641
Rp642
(dp643
g12
Vamod
p644
sbatp645
Rp646
(dp647
g12
S'word: people, index: 11'
p648
sbatp649
Rp650
(dp651
g12
Vnsubj
p652
sbatp653
Rp654
(dp655
g12
S'word: wear, index: 12'
p656
sbatp657
Rp658
(dp659
g12
Vconj
p660
sbag0
(g1
g2
(lp661
g0
(g1
g2
(lp662
g0
(g1
g2
(lp663
(lp664
S'word: The, index: 1'
p665
aatp666
Rp667
(dp668
g12
Vdet
p669
sbatp670
Rp671
(dp672
g12
S'word: mother, index: 2'
p673
sbatp674
Rp675
(dp676
g12
Vnsubj
p677
sbag0
(g1
g2
(lp678
(lp679
S'word: has, index: 3'
p680
aatp681
Rp682
(dp683
g12
Vaux
p684
sbag0
(g1
g2
(lp685
g0
(g1
g2
(lp686
g0
(g1
g2
(lp687
(lp688
S'word: an, index: 5'
p689
aatp690
Rp691
(dp692
g12
Vdet
p693
sbatp694
Rp695
(dp696
g12
S'word: apron, index: 6'
p697
sbatp698
Rp699
(dp700
g12
Vpobj
p701
sbatp702
Rp703
(dp704
g12
S'word: on, index: 4'
p705
sbatp706
Rp707
(dp708
g12
S'id: 4'
p709
sbag0
(g1
g2
(lp710
g0
(g1
g2
(lp711
g0
(g1
g2
(lp712
(lp713
S'word: But, index: 1'
p714
aatp715
Rp716
(dp717
g12
Vcc
p718
sbag0
(g1
g2
(lp719
(lp720
S'word: she, index: 2'
p721
aatp722
Rp723
(dp724
g12
Vnsubjpass
p725
sbag0
(g1
g2
(lp726
(lp727
S"word: 's, index: 3"
p728
aatp729
Rp730
(dp731
g12
Vauxpass
p732
sbag0
(g1
g2
(lp733
g0
(g1
g2
(lp734
g0
(g1
g2
(lp735
(lp736
S'word: a, index: 5'
p737
aatp738
Rp739
(dp740
g12
Vdet
p741
sbag0
(g1
g2
(lp742
(lp743
S'word: nice, index: 6'
p744
aatp745
Rp746
(dp747
g12
Vamod
p748
sbag0
(g1
g2
(lp749
(lp750
S'word: nice, index: 8'
p751
aatp752
Rp753
(dp754
g12
Vamod
p755
sbatp756
Rp757
(dp758
g12
S'word: kitchen, index: 9'
p759
sbatp760
Rp761
(dp762
g12
Vdobj
p763
sbag0
(g1
g2
(lp764
g0
(g1
g2
(lp765
g0
(g1
g2
(lp766
(lp767
S'word: nice, index: 12'
p768
aatp769
Rp770
(dp771
g12
Vamod
p772
sbag0
(g1
g2
(lp773
(lp774
S'word: storage, index: 13'
p775
aatp776
Rp777
(dp778
g12
Vnn
p779
sbatp780
Rp781
(dp782
g12
S'word: area, index: 14'
p783
sbatp784
Rp785
(dp786
g12
Vprep
p787
sbatp788
Rp789
(dp790
g12
S'word: got, index: 4'
p791
sbatp792
Rp793
(dp794
g12
S'id: 5'
p795
sbag0
(g1
g2
(lp796
g0
(g1
g2
(lp797
g0
(g1
g2
(lp798
(lp799
S'word: kih, index: 3'
p800
aatp801
Rp802
(dp803
g12
Vappos
p804
sbag0
(g1
g2
(lp805
g0
(g1
g2
(lp806
g0
(g1
g2
(lp807
(lp808
S'word: she, index: 5'
p809
aatp810
Rp811
(dp812
g12
Vnsubj
p813
sbatp814
Rp815
(dp816
g12
S'word: has, index: 6'
p817
sbatp818
Rp819
(dp820
g12
Vdep
p821
sbag0
(g1
g2
(lp822
g0
(g1
g2
(lp823
g0
(g1
g2
(lp824
g0
(g1
g2
(lp825
g0
(g1
g2
(lp826
(lp827
S'word: her, index: 23'
p828
aatp829
Rp830
(dp831
g12
Vposs
p832
sbag0
(g1
g2
(lp833
g0
(g1
g2
(lp834
g0
(g1
g2
(lp835
(lp836
S'word: the, index: 26'
p837
aatp838
Rp839
(dp840
g12
Vdet
p841
sbatp842
Rp843
(dp844
g12
S'word: yard, index: 27'
p845
sbatp846
Rp847
(dp848
g12
Vprep
p849
sbatp850
Rp851
(dp852
g12
S'word: window, index: 24'
p853
sbatp854
Rp855
(dp856
g12
Vprep
p857
sbag0
(g1
g2
(lp858
g0
(g1
g2
(lp859
g0
(g1
g2
(lp860
g0
(g1
g2
(lp861
g0
(g1
g2
(lp862
g0
(g1
g2
(lp863
g0
(g1
g2
(lp864
(lp865
S'word: her, index: 21'
p866
aatp867
Rp868
(dp869
g12
Vprep
p870
sbag0
(g1
g2
(lp871
(lp872
S'word: where, index: 15'
p873
aatp874
Rp875
(dp876
g12
Vadvmod
p877
sbag0
(g1
g2
(lp878
(lp879
S'word: she, index: 16'
p880
aatp881
Rp882
(dp883
g12
Vnsubj
p884
sbag0
(g1
g2
(lp885
(lp886
S'word: can, index: 17'
p887
aatp888
Rp889
(dp890
g12
Vaux
p891
sbatp892
Rp893
(dp894
g12
S'word: look, index: 18'
p895
sbatp896
Rp897
(dp898
g12
Vrcmod
p899
sbag0
(g1
g2
(lp900
(lp901
S'word: her, index: 12'
p902
aatp903
Rp904
(dp905
g12
Vposs
p906
sbatp907
Rp908
(dp909
g12
S'word: window, index: 13'
p910
sbatp911
Rp912
(dp913
g12
Vpobj
p914
sbatp915
Rp916
(dp917
g12
S'word: at, index: 11'
p918
sbatp919
Rp920
(dp921
g12
Vdep
p922
sbatp923
Rp924
(dp925
g12
S'word: curtains, index: 8'
p926
sbatp927
Rp928
(dp929
g12
Vappos
p930
sbatp931
Rp932
(dp933
g12
S'word: Kih, index: 1'
p934
sbatp935
Rp936
(dp937
g12
S'id: 6'
p938
sbag0
(g1
g2
(lp939
g0
(g1
g2
(lp940
g0
(g1
g2
(lp941
g0
(g1
g2
(lp942
g0
(g1
g2
(lp943
g0
(g1
g2
(lp944
g0
(g1
g2
(lp945
g0
(g1
g2
(lp946
g0
(g1
g2
(lp947
(lp948
S'word: a, index: 6'
p949
aatp950
Rp951
(dp952
g12
Vdet
p953
sbatp954
Rp955
(dp956
g12
S'word: tree, index: 7'
p957
sbatp958
Rp959
(dp960
g12
Vnpadvmod
p961
sbatp962
Rp963
(dp964
g12
S'word: outside, index: 8'
p965
sbatp966
Rp967
(dp968
g12
Vadvmod
p969
sbag0
(g1
g2
(lp970
(lp971
S'word: of, index: 9'
p972
aatp973
Rp974
(dp975
g12
Vprep
p976
sbag0
(g1
g2
(lp977
(lp978
S'word: like, index: 3'
p979
aatp980
Rp981
(dp982
g12
Vmark
p983
sbag0
(g1
g2
(lp984
(lp985
S'word: there, index: 4'
p986
aatp987
Rp988
(dp989
g12
Vexpl
p990
sbatp991
Rp992
(dp993
g12
S'word: is, index: 5'
p994
sbatp995
Rp996
(dp997
g12
Vadvcl
p998
sbag0
(g1
g2
(lp999
g0
(g1
g2
(lp1000
g0
(g1
g2
(lp1001
(lp1002
S'word: no, index: 11'
p1003
aatp1004
Rp1005
(dp1006
g12
Vneg
p1007
sbag0
(g1
g2
(lp1008
g0
(g1
g2
(lp1009
g0
(g1
g2
(lp1010
(lp1011
S'word: that, index: 13'
p1012
aatp1013
Rp1014
(dp1015
g12
Vnsubj
p1016
sbag0
(g1
g2
(lp1017
(lp1018
S"word: 's, index: 14"
p1019
aatp1020
Rp1021
(dp1022
g12
Vcop
p1023
sbag0
(g1
g2
(lp1024
(lp1025
S'word: a, index: 15'
p1026
aatp1027
Rp1028
(dp1029
g12
Vdet
p1030
sbag0
(g1
g2
(lp1031
g0
(g1
g2
(lp1032
g0
(g1
g2
(lp1033
(lp1034
S'word: flowers, index: 21'
p1035
aatp1036
Rp1037
(dp1038
g12
Vdobj
p1039
sbag0
(g1
g2
(lp1040
(lp1041
S'word: something, index: 23'
p1042
aatp1043
Rp1044
(dp1045
g12
Vdobj
p1046
sbag0
(g1
g2
(lp1047
g0
(g1
g2
(lp1048
g0
(g1
g2
(lp1049
(lp1050
S'word: the, index: 25'
p1051
aatp1052
Rp1053
(dp1054
g12
Vdet
p1055
sbag0
(g1
g2
(lp1056
(lp1057
S'word: driveway, index: 28'
p1058
aatp1059
Rp1060
(dp1061
g12
Vprep
p1062
sbatp1063
Rp1064
(dp1065
g12
S'word: end, index: 26'
p1066
sbatp1067
Rp1068
(dp1069
g12
Vprep
p1070
sbag0
(g1
g2
(lp1071
(lp1072
S'word: that, index: 17'
p1073
aatp1074
Rp1075
(dp1076
g12
Vnsubj
p1077
sbag0
(g1
g2
(lp1078
g0
(g1
g2
(lp1079
g0
(g1
g2
(lp1080
(lp1081
S'word: flowers, index: 21'
p1082
aatp1083
Rp1084
(dp1085
g12
Vconj
p1086
sbag0
(g1
g2
(lp1087
(lp1088
S'word: something, index: 23'
p1089
aatp1090
Rp1091
(dp1092
g12
Vconj
p1093
sbatp1094
Rp1095
(dp1096
g12
S'word: some, index: 19'
p1097
sbatp1098
Rp1099
(dp1100
g12
Vdobj
p1101
sbatp1102
Rp1103
(dp1104
g12
S'word: has, index: 18'
p1105
sbatp1106
Rp1107
(dp1108
g12
Vrcmod
p1109
sbatp1110
Rp1111
(dp1112
g12
S'word: driveway, index: 16'
p1113
sbatp1114
Rp1115
(dp1116
g12
Vdep
p1117
sbatp1118
Rp1119
(dp1120
g12
S'word: maybe, index: 12'
p1121
sbatp1122
Rp1123
(dp1124
g12
Vadvmod
p1125
sbag0
(g1
g2
(lp1126
(lp1127
S'word: There, index: 1'
p1128
aatp1129
Rp1130
(dp1131
g12
Vexpl
p1132
sbag0
(g1
g2
(lp1133
g0
(g1
g2
(lp1134
g0
(g1
g2
(lp1135
g0
(g1
g2
(lp1136
g0
(g1
g2
(lp1137
(lp1138
S'word: her, index: 37'
p1139
aatp1140
Rp1141
(dp1142
g12
Vposs
p1143
sbag0
(g1
g2
(lp1144
g0
(g1
g2
(lp1145
g0
(g1
g2
(lp1146
g0
(g1
g2
(lp1147
g0
(g1
g2
(lp1148
(lp1149
S'word: a, index: 40'
p1150
aatp1151
Rp1152
(dp1153
g12
Vdet
p1154
sbatp1155
Rp1156
(dp1157
g12
S'word: neighbor, index: 41'
p1158
sbatp1159
Rp1160
(dp1161
g12
Vposs
p1162
sbatp1163
Rp1164
(dp1165
g12
S'word: house, index: 43'
p1166
sbatp1167
Rp1168
(dp1169
g12
Vconj
p1170
sbatp1171
Rp1172
(dp1173
g12
S'word: house, index: 38'
p1174
sbatp1175
Rp1176
(dp1177
g12
Vprep
p1178
sbag0
(g1
g2
(lp1179
g1164
atp1180
Rp1181
(dp1182
g12
Vprep
p1183
sbag0
(g1
g2
(lp1184
(lp1185
S'word: that, index: 31'
p1186
aatp1187
Rp1188
(dp1189
g12
Vnsubj
p1190
sbag0
(g1
g2
(lp1191
g0
(g1
g2
(lp1192
g0
(g1
g2
(lp1193
(lp1194
S'word: that, index: 44'
p1195
aatp1196
Rp1197
(dp1198
g12
Vmark
p1199
sbag0
(g1
g2
(lp1200
(lp1201
S'word: she, index: 45'
p1202
aatp1203
Rp1204
(dp1205
g12
Vnsubj
p1206
sbag0
(g1
g2
(lp1207
(lp1208
S'word: can, index: 46'
p1209
aatp1210
Rp1211
(dp1212
g12
Vaux
p1213
sbag0
(g1
g2
(lp1214
g0
(g1
g2
(lp1215
g0
(g1
g2
(lp1216
(lp1217
S'word: her, index: 50'
p1218
aatp1219
Rp1220
(dp1221
g12
Vposs
p1222
sbatp1223
Rp1224
(dp1225
g12
S'word: window, index: 51'
p1226
sbatp1227
Rp1228
(dp1229
g12
Vprep
p1230
sbag0
(g1
g2
(lp1231
(lp1232
S'word: at, index: 52'
p1233
aatp1234
Rp1235
(dp1236
g12
Vprep
p1237
sbatp1238
Rp1239
(dp1240
g12
S'word: look, index: 47'
p1241
sbatp1242
Rp1243
(dp1244
g12
Vccomp
p1245
sbag0
(g1
g2
(lp1246
(lp1247
S"word: 's, index: 32"
p1248
aatp1249
Rp1250
(dp1251
g12
Vcop
p1252
sbag0
(g1
g2
(lp1253
(lp1254
S'word: either, index: 33'
p1255
aatp1256
Rp1257
(dp1258
g12
Vadvmod
p1259
sbag0
(g1
g2
(lp1260
(lp1261
S'word: another, index: 34'
p1262
aatp1263
Rp1264
(dp1265
g12
Vdet
p1266
sbatp1267
Rp1268
(dp1269
g12
S'word: part, index: 35'
p1270
sbatp1271
Rp1272
(dp1273
g12
Vconj
p1274
sbatp1275
Rp1276
(dp1277
g12
S'word: looks, index: 2'
p1278
sbatp1279
Rp1280
(dp1281
g12
S'id: 7'
p1282
sbag0
(g1
g2
(lp1283
g0
(g1
g2
(lp1284
g0
(g1
g2
(lp1285
g0
(g1
g2
(lp1286
g0
(g1
g2
(lp1287
g0
(g1
g2
(lp1288
g0
(g1
g2
(lp1289
(lp1290
S'word: the, index: 27'
p1291
aatp1292
Rp1293
(dp1294
g12
Vdet
p1295
sbatp1296
Rp1297
(dp1298
g12
S'word: stool, index: 28'
p1299
sbatp1300
Rp1301
(dp1302
g12
Vprep
p1303
sbag0
(g1
g2
(lp1304
g0
(g1
g2
(lp1305
g0
(g1
g2
(lp1306
(lp1307
S'word: the, index: 20'
p1308
aatp1309
Rp1310
(dp1311
g12
Vdet
p1312
sbag0
(g1
g2
(lp1313
(lp1314
S'word: about, index: 22'
p1315
aatp1316
Rp1317
(dp1318
g12
Vadvmod
p1319
sbatp1320
Rp1321
(dp1322
g12
S'word: son, index: 21'
p1323
sbatp1324
Rp1325
(dp1326
g12
Vnsubj
p1327
sbag0
(g1
g2
(lp1328
(lp1329
S'word: to, index: 23'
p1330
aatp1331
Rp1332
(dp1333
g12
Vaux
p1334
sbatp1335
Rp1336
(dp1337
g12
S'word: fall, index: 24'
p1338
sbatp1339
Rp1340
(dp1341
g12
Vconj
p1342
sbag0
(g1
g2
(lp1343
(lp1344
S'word: So, index: 1'
p1345
aatp1346
Rp1347
(dp1348
g12
Vadvmod
p1349
sbag0
(g1
g2
(lp1350
(lp1351
S'word: there, index: 2'
p1352
aatp1353
Rp1354
(dp1355
g12
Vexpl
p1356
sbag0
(g1
g2
(lp1357
(lp1358
S'word: actually, index: 3'
p1359
aatp1360
Rp1361
(dp1362
g12
Vadvmod
p1363
sbag0
(g1
g2
(lp1364
g0
(g1
g2
(lp1365
g0
(g1
g2
(lp1366
g0
(g1
g2
(lp1367
g0
(g1
g2
(lp1368
(lp1369
S'word: on, index: 9'
p1370
aatp1371
Rp1372
(dp1373
g12
Vdep
p1374
sbag0
(g1
g2
(lp1375
g0
(g1
g2
(lp1376
g0
(g1
g2
(lp1377
(lp1378
S'word: the, index: 11'
p1379
aatp1380
Rp1381
(dp1382
g12
Vdet
p1383
sbag0
(g1
g2
(lp1384
(lp1385
S'word: same, index: 12'
p1386
aatp1387
Rp1388
(dp1389
g12
Vamod
p1390
sbag0
(g1
g2
(lp1391
g0
(g1
g2
(lp1392
g0
(g1
g2
(lp1393
(lp1394
S'word: the, index: 15'
p1395
aatp1396
Rp1397
(dp1398
g12
Vdet
p1399
sbag0
(g1
g2
(lp1400
(lp1401
S'word: overflowing, index: 17'
p1402
aatp1403
Rp1404
(dp1405
g12
Vamod
p1406
sbatp1407
Rp1408
(dp1409
g12
S'word: sink, index: 16'
p1410
sbatp1411
Rp1412
(dp1413
g12
Vappos
p1414
sbatp1415
Rp1416
(dp1417
g12
S'word: time, index: 13'
p1418
sbatp1419
Rp1420
(dp1421
g12
Vprep
p1422
sbatp1423
Rp1424
(dp1425
g12
S'word: going, index: 8'
p1426
sbatp1427
Rp1428
(dp1429
g12
Vvmod
p1430
sbag0
(g1
g2
(lp1431
(lp1432
S'word: two, index: 6'
p1433
aatp1434
Rp1435
(dp1436
g12
Vnum
p1437
sbatp1438
Rp1439
(dp1440
g12
S'word: catastrophes, index: 7'
p1441
sbatp1442
Rp1443
(dp1444
g12
Vprep
p1445
sbatp1446
Rp1447
(dp1448
g12
S'word: look, index: 4'
p1449
sbatp1450
Rp1451
(dp1452
g12
S'id: 8'
p1453
sbag0
(g1
g2
(lp1454
g0
(g1
g2
(lp1455
g0
(g1
g2
(lp1456
(lp1457
S'word: She, index: 1'
p1458
aatp1459
Rp1460
(dp1461
g12
Vnsubjpass
p1462
sbag0
(g1
g2
(lp1463
(lp1464
S"word: 's, index: 2"
p1465
aatp1466
Rp1467
(dp1468
g12
Vauxpass
p1469
sbag0
(g1
g2
(lp1470
g0
(g1
g2
(lp1471
g0
(g1
g2
(lp1472
g0
(g1
g2
(lp1473
g0
(g1
g2
(lp1474
(lp1475
S'word: some, index: 4'
p1476
aatp1477
Rp1478
(dp1479
g12
Vdet
p1480
sbatp1481
Rp1482
(dp1483
g12
S'word: dishes, index: 5'
p1484
sbatp1485
Rp1486
(dp1487
g12
Vnsubj
p1488
sbag0
(g1
g2
(lp1489
g0
(g1
g2
(lp1490
g0
(g1
g2
(lp1491
g0
(g1
g2
(lp1492
g0
(g1
g2
(lp1493
(lp1494
S'word: she, index: 11'
p1495
aatp1496
Rp1497
(dp1498
g12
Vnsubj
p1499
sbag0
(g1
g2
(lp1500
g0
(g1
g2
(lp1501
g0
(g1
g2
(lp1502
(lp1503
S'word: to, index: 13'
p1504
aatp1505
Rp1506
(dp1507
g12
Vaux
p1508
sbag0
(g1
g2
(lp1509
g0
(g1
g2
(lp1510
g0
(g1
g2
(lp1511
(lp1512
S'word: the, index: 15'
p1513
aatp1514
Rp1515
(dp1516
g12
Vdet
p1517
sbatp1518
Rp1519
(dp1520
g12
S'word: faucet, index: 16'
p1521
sbatp1522
Rp1523
(dp1524
g12
Vdobj
p1525
sbag0
(g1
g2
(lp1526
(lp1527
S'word: off, index: 17'
p1528
aatp1529
Rp1530
(dp1531
g12
Vprt
p1532
sbatp1533
Rp1534
(dp1535
g12
S'word: turn, index: 14'
p1536
sbatp1537
Rp1538
(dp1539
g12
Vxcomp
p1540
sbag0
(g1
g2
(lp1541
(lp1542
S'word: like, index: 10'
p1543
aatp1544
Rp1545
(dp1546
g12
Vmark
p1547
sbatp1548
Rp1549
(dp1550
g12
S'word: forgot, index: 12'
p1551
sbatp1552
Rp1553
(dp1554
g12
Vadvcl
p1555
sbag0
(g1
g2
(lp1556
g1482
atp1557
Rp1558
(dp1559
g12
Vnsubj
p1560
sbatp1561
Rp1562
(dp1563
g12
S'word: looks, index: 9'
p1564
sbatp1565
Rp1566
(dp1567
g12
Vconj
p1568
sbatp1569
Rp1570
(dp1571
g12
S'word: dried, index: 6'
p1572
sbatp1573
Rp1574
(dp1575
g12
Vccomp
p1576
sbag0
(g1
g2
(lp1577
g1562
atp1578
Rp1579
(dp1580
g12
Vccomp
p1581
sbatp1582
Rp1583
(dp1584
g12
S'word: got, index: 3'
p1585
sbatp1586
Rp1587
(dp1588
g12
S'id: 9'
p1589
sbag0
(g1
g2
(lp1590
g0
(g1
g2
(lp1591
g0
(g1
g2
(lp1592
(lp1593
S'word: And, index: 1'
p1594
aatp1595
Rp1596
(dp1597
g12
Vcc
p1598
sbag0
(g1
g2
(lp1599
g0
(g1
g2
(lp1600
g0
(g1
g2
(lp1601
(lp1602
S'word: the, index: 2'
p1603
aatp1604
Rp1605
(dp1606
g12
Vdet
p1607
sbatp1608
Rp1609
(dp1610
g12
S'word: daughter, index: 3'
p1611
sbatp1612
Rp1613
(dp1614
g12
Vnsubj
p1615
sbag0
(g1
g2
(lp1616
g0
(g1
g2
(lp1617
g0
(g1
g2
(lp1618
g0
(g1
g2
(lp1619
g0
(g1
g2
(lp1620
(lp1621
S'word: he, index: 14'
p1622
aatp1623
Rp1624
(dp1625
g12
Vnsubj
p1626
sbag0
(g1
g2
(lp1627
(lp1628
S"word: 's, index: 15"
p1629
aatp1630
Rp1631
(dp1632
g12
Vaux
p1633
sbag0
(g1
g2
(lp1634
(lp1635
S'word: actually, index: 16'
p1636
aatp1637
Rp1638
(dp1639
g12
Vadvmod
p1640
sbag0
(g1
g2
(lp1641
g0
(g1
g2
(lp1642
g0
(g1
g2
(lp1643
(lp1644
S'word: to, index: 18'
p1645
aatp1646
Rp1647
(dp1648
g12
Vaux
p1649
sbag0
(g1
g2
(lp1650
g0
(g1
g2
(lp1651
g0
(g1
g2
(lp1652
(lp1653
S'word: being, index: 21'
p1654
aatp1655
Rp1656
(dp1657
g12
Vcop
p1658
sbag0
(g1
g2
(lp1659
(lp1660
S'word: a, index: 22'
p1661
aatp1662
Rp1663
(dp1664
g12
Vdet
p1665
sbag0
(g1
g2
(lp1666
(lp1667
S'word: typical, index: 23'
p1668
aatp1669
Rp1670
(dp1671
g12
Vamod
p1672
sbag0
(g1
g2
(lp1673
(lp1674
S'word: maybe, index: 25'
p1675
aatp1676
Rp1677
(dp1678
g12
Vadvmod
p1679
sbatp1680
Rp1681
(dp1682
g12
S'word: sister, index: 24'
p1683
sbatp1684
Rp1685
(dp1686
g12
Vxcomp
p1687
sbatp1688
Rp1689
(dp1690
g12
S'word: fall, index: 19'
p1691
sbatp1692
Rp1693
(dp1694
g12
Vxcomp
p1695
sbag0
(g1
g2
(lp1696
(lp1697
S'word: that, index: 13'
p1698
aatp1699
Rp1700
(dp1701
g12
Vmark
p1702
sbatp1703
Rp1704
(dp1705
g12
S'word: about, index: 17'
p1706
sbatp1707
Rp1708
(dp1709
g12
Vccomp
p1710
sbag0
(g1
g2
(lp1711
(lp1712
S'word: like, index: 5'
p1713
aatp1714
Rp1715
(dp1716
g12
Vmark
p1717
sbag0
(g1
g2
(lp1718
(lp1719
S'word: she, index: 6'
p1720
aatp1721
Rp1722
(dp1723
g12
Vnsubj
p1724
sbag0
(g1
g2
(lp1725
(lp1726
S'word: might, index: 7'
p1727
aatp1728
Rp1729
(dp1730
g12
Vaux
p1731
sbag0
(g1
g2
(lp1732
(lp1733
S'word: be, index: 8'
p1734
aatp1735
Rp1736
(dp1737
g12
Vaux
p1738
sbag0
(g1
g2
(lp1739
g0
(g1
g2
(lp1740
g0
(g1
g2
(lp1741
(lp1742
S'word: a, index: 10'
p1743
aatp1744
Rp1745
(dp1746
g12
Vdet
p1747
sbag0
(g1
g2
(lp1748
(lp1749
S'word: little, index: 11'
p1750
aatp1751
Rp1752
(dp1753
g12
Vamod
p1754
sbatp1755
Rp1756
(dp1757
g12
S'word: bit, index: 12'
p1758
sbatp1759
Rp1760
(dp1761
g12
Vdobj
p1762
sbatp1763
Rp1764
(dp1765
g12
S'word: laughing, index: 9'
p1766
sbatp1767
Rp1768
(dp1769
g12
Vadvcl
p1770
sbatp1771
Rp1772
(dp1773
g12
S'word: looks, index: 4'
p1774
sbatp1775
Rp1776
(dp1777
g12
S'id: 10'
p1778
sbag0
(g1
g2
(lp1779
g0
(g1
g2
(lp1780
g0
(g1
g2
(lp1781
g0
(g1
g2
(lp1782
g0
(g1
g2
(lp1783
(lp1784
S'word: The, index: 1'
p1785
aatp1786
Rp1787
(dp1788
g12
Vdet
p1789
sbatp1790
Rp1791
(dp1792
g12
S'word: children, index: 2'
p1793
sbatp1794
Rp1795
(dp1796
g12
Vnsubj
p1797
sbag0
(g1
g2
(lp1798
(lp1799
S'word: are, index: 3'
p1800
aatp1801
Rp1802
(dp1803
g12
Vcop
p1804
sbag0
(g1
g2
(lp1805
(lp1806
S'word: very, index: 4'
p1807
aatp1808
Rp1809
(dp1810
g12
Vadvmod
p1811
sbatp1812
Rp1813
(dp1814
g12
S'word: neat, index: 5'
p1815
sbatp1816
Rp1817
(dp1818
g12
S'id: 11'
p1819
sbatp1820
Rp1821
(dp1822
g12
S'sentences'
p1823
sb.