ccopy_reg
_reconstructor
p0
(cnltk.tree
Tree
p1
c__builtin__
list
p2
(lp3
g0
(g1
g2
(lp4
g0
(g1
g2
(lp5
g0
(g1
g2
(lp6
VOkay
p7
atp8
Rp9
(dp10
S'_label'
p11
VUH
p12
sbag0
(g1
g2
(lp13
V.
p14
atp15
Rp16
(dp17
g11
V.
p18
sbatp19
Rp20
(dp21
g11
VINTJ
p22
sbatp23
Rp24
(dp25
g11
S'id: 0'
p26
sbag0
(g1
g2
(lp27
g0
(g1
g2
(lp28
g0
(g1
g2
(lp29
VSo
p30
atp31
Rp32
(dp33
g11
VIN
p34
sbag0
(g1
g2
(lp35
g0
(g1
g2
(lp36
Vthey
p37
atp38
Rp39
(dp40
g11
VPRP
p41
sbatp42
Rp43
(dp44
g11
VNP
p45
sbag0
(g1
g2
(lp46
g0
(g1
g2
(lp47
Vgot
p48
atp49
Rp50
(dp51
g11
VVBD
p52
sbag0
(g1
g2
(lp53
g0
(g1
g2
(lp54
g0
(g1
g2
(lp55
g0
(g1
g2
(lp56
Vthere
p57
atp58
Rp59
(dp60
g11
VEX
p61
sbatp62
Rp63
(dp64
g11
VNP
p65
sbag0
(g1
g2
(lp66
g0
(g1
g2
(lp67
g0
(g1
g2
(lp68
g0
(g1
g2
(lp69
Vpeople
p70
atp71
Rp72
(dp73
g11
VNNS
p74
sbatp75
Rp76
(dp77
g11
VNP
p78
sbag0
(g1
g2
(lp79
g0
(g1
g2
(lp80
g0
(g1
g2
(lp81
g0
(g1
g2
(lp82
Voutdoors
p83
atp84
Rp85
(dp86
g11
VRB
p87
sbatp88
Rp89
(dp90
g11
VADVP
p91
sbag0
(g1
g2
(lp92
V,
p93
atp94
Rp95
(dp96
g11
V,
p97
sbag0
(g1
g2
(lp98
g0
(g1
g2
(lp99
Vyou
p100
atp101
Rp102
(dp103
g11
VPRP
p104
sbatp105
Rp106
(dp107
g11
VNP
p108
sbag0
(g1
g2
(lp109
g0
(g1
g2
(lp110
Vknow
p111
atp112
Rp113
(dp114
g11
VVBP
p115
sbatp116
Rp117
(dp118
g11
VVP
p119
sbatp120
Rp121
(dp122
g11
VS
p123
sbatp124
Rp125
(dp126
g11
VSBAR
p127
sbatp128
Rp129
(dp130
g11
VNP
p131
sbag0
(g1
g2
(lp132
V,
p133
atp134
Rp135
(dp136
g11
V,
p137
sbag0
(g1
g2
(lp138
g0
(g1
g2
(lp139
g0
(g1
g2
(lp140
VS-I
p141
atp142
Rp143
(dp144
g11
VNN
p145
sbatp146
Rp147
(dp148
g11
VNP
p149
sbag0
(g1
g2
(lp150
V,
p151
atp152
Rp153
(dp154
g11
V,
p155
sbag0
(g1
g2
(lp156
Valright
p157
atp158
Rp159
(dp160
g11
VJJ
p161
sbag0
(g1
g2
(lp162
VS-U-D
p163
atp164
Rp165
(dp166
g11
VNN
p167
sbatp168
Rp169
(dp170
g11
VNP
p171
sbatp172
Rp173
(dp174
g11
VVP
p175
sbatp176
Rp177
(dp178
g11
VS
p179
sbatp180
Rp181
(dp182
g11
VSBAR
p183
sbatp184
Rp185
(dp186
g11
VVP
p187
sbag0
(g1
g2
(lp188
V.
p189
atp190
Rp191
(dp192
g11
V.
p193
sbatp194
Rp195
(dp196
g11
VS
p197
sbatp198
Rp199
(dp200
g11
S'id: 1'
p201
sbag0
(g1
g2
(lp202
g0
(g1
g2
(lp203
g0
(g1
g2
(lp204
g0
(g1
g2
(lp205
g0
(g1
g2
(lp206
VHe
p207
atp208
Rp209
(dp210
g11
VPRP
p211
sbatp212
Rp213
(dp214
g11
VNP
p215
sbag0
(g1
g2
(lp216
g0
(g1
g2
(lp217
Vsays
p218
atp219
Rp220
(dp221
g11
VVBZ
p222
sbag0
(g1
g2
(lp223
g0
(g1
g2
(lp224
g0
(g1
g2
(lp225
g0
(g1
g2
(lp226
Vthey
p227
atp228
Rp229
(dp230
g11
VPRP
p231
sbatp232
Rp233
(dp234
g11
VNP
p235
sbag0
(g1
g2
(lp236
g0
(g1
g2
(lp237
V're
p238
atp239
Rp240
(dp241
g11
VVBP
p242
sbag0
(g1
g2
(lp243
g0
(g1
g2
(lp244
Vready
p245
atp246
Rp247
(dp248
g11
VJJ
p249
sbag0
(g1
g2
(lp250
g0
(g1
g2
(lp251
Vto
p252
atp253
Rp254
(dp255
g11
VTO
p256
sbatp257
Rp258
(dp259
g11
VPP
p260
sbatp261
Rp262
(dp263
g11
VADJP
p264
sbatp265
Rp266
(dp267
g11
VVP
p268
sbatp269
Rp270
(dp271
g11
VS
p272
sbatp273
Rp274
(dp275
g11
VSBAR
p276
sbatp277
Rp278
(dp279
g11
VVP
p280
sbatp281
Rp282
(dp283
g11
VS
p284
sbag0
(g1
g2
(lp285
V,
p286
atp287
Rp288
(dp289
g11
V,
p290
sbag0
(g1
g2
(lp291
g0
(g1
g2
(lp292
g0
(g1
g2
(lp293
Vyou
p294
atp295
Rp296
(dp297
g11
VPRP
p298
sbatp299
Rp300
(dp301
g11
VNP
p302
sbag0
(g1
g2
(lp303
g0
(g1
g2
(lp304
Vknow
p305
atp306
Rp307
(dp308
g11
VVBP
p309
sbatp310
Rp311
(dp312
g11
VVP
p313
sbatp314
Rp315
(dp316
g11
VS
p317
sbag0
(g1
g2
(lp318
V,
p319
atp320
Rp321
(dp322
g11
V,
p323
sbag0
(g1
g2
(lp324
g0
(g1
g2
(lp325
g0
(g1
g2
(lp326
Vhe
p327
atp328
Rp329
(dp330
g11
VPRP
p331
sbatp332
Rp333
(dp334
g11
VNP
p335
sbag0
(g1
g2
(lp336
g0
(g1
g2
(lp337
Vthinks
p338
atp339
Rp340
(dp341
g11
VVBZ
p342
sbag0
(g1
g2
(lp343
g0
(g1
g2
(lp344
g0
(g1
g2
(lp345
g0
(g1
g2
(lp346
Vthis
p347
atp348
Rp349
(dp350
g11
VDT
p351
sbatp352
Rp353
(dp354
g11
VNP
p355
sbag0
(g1
g2
(lp356
g0
(g1
g2
(lp357
Vwould
p358
atp359
Rp360
(dp361
g11
VMD
p362
sbag0
(g1
g2
(lp363
g0
(g1
g2
(lp364
Vbe
p365
atp366
Rp367
(dp368
g11
VVB
p369
sbag0
(g1
g2
(lp370
g0
(g1
g2
(lp371
Va
p372
atp373
Rp374
(dp375
g11
VDT
p376
sbag0
(g1
g2
(lp377
Vplace
p378
atp379
Rp380
(dp381
g11
VNN
p382
sbag0
(g1
g2
(lp383
VW-A-T-E-R
p384
atp385
Rp386
(dp387
g11
VNN
p388
sbatp389
Rp390
(dp391
g11
VNP
p392
sbatp393
Rp394
(dp395
g11
VVP
p396
sbatp397
Rp398
(dp399
g11
VVP
p400
sbatp401
Rp402
(dp403
g11
VS
p404
sbatp405
Rp406
(dp407
g11
VSBAR
p408
sbatp409
Rp410
(dp411
g11
VVP
p412
sbatp413
Rp414
(dp415
g11
VS
p416
sbag0
(g1
g2
(lp417
V.
p418
atp419
Rp420
(dp421
g11
V.
p422
sbatp423
Rp424
(dp425
g11
VS
p426
sbatp427
Rp428
(dp429
g11
S'id: 2'
p430
sbag0
(g1
g2
(lp431
g0
(g1
g2
(lp432
g0
(g1
g2
(lp433
VAnd
p434
atp435
Rp436
(dp437
g11
VCC
p438
sbag0
(g1
g2
(lp439
g0
(g1
g2
(lp440
Vbut
p441
atp442
Rp443
(dp444
g11
VCC
p445
sbag0
(g1
g2
(lp446
g0
(g1
g2
(lp447
Vit
p448
atp449
Rp450
(dp451
g11
VPRP
p452
sbatp453
Rp454
(dp455
g11
VNP
p456
sbag0
(g1
g2
(lp457
g0
(g1
g2
(lp458
V's
p459
atp460
Rp461
(dp462
g11
VVBZ
p463
sbag0
(g1
g2
(lp464
g0
(g1
g2
(lp465
Va
p466
atp467
Rp468
(dp469
g11
VDT
p470
sbag0
(g1
g2
(lp471
Vreal
p472
atp473
Rp474
(dp475
g11
VJJ
p476
sbatp477
Rp478
(dp479
g11
VNP
p480
sbatp481
Rp482
(dp483
g11
VVP
p484
sbatp485
Rp486
(dp487
g11
VS
p488
sbag0
(g1
g2
(lp489
g0
(g1
g2
(lp490
V,
p491
atp492
Rp493
(dp494
g11
V,
p495
sbag0
(g1
g2
(lp496
g0
(g1
g2
(lp497
g0
(g1
g2
(lp498
Vyou
p499
atp500
Rp501
(dp502
g11
VPRP
p503
sbatp504
Rp505
(dp506
g11
VNP
p507
sbag0
(g1
g2
(lp508
g0
(g1
g2
(lp509
Vknow
p510
atp511
Rp512
(dp513
g11
VVBP
p514
sbag0
(g1
g2
(lp515
g0
(g1
g2
(lp516
V,
p517
atp518
Rp519
(dp520
g11
V,
p521
sbag0
(g1
g2
(lp522
g0
(g1
g2
(lp523
g0
(g1
g2
(lp524
Vit
p525
atp526
Rp527
(dp528
g11
VPRP
p529
sbatp530
Rp531
(dp532
g11
VNP
p533
sbag0
(g1
g2
(lp534
g0
(g1
g2
(lp535
V's
p536
atp537
Rp538
(dp539
g11
VVBZ
p540
sbag0
(g1
g2
(lp541
g0
(g1
g2
(lp542
Vno
p543
atp544
Rp545
(dp546
g11
VDT
p547
sbag0
(g1
g2
(lp548
Vproblem
p549
atp550
Rp551
(dp552
g11
VNN
p553
sbatp554
Rp555
(dp556
g11
VNP
p557
sbatp558
Rp559
(dp560
g11
VVP
p561
sbatp562
Rp563
(dp564
g11
VS
p565
sbag0
(g1
g2
(lp566
V,
p567
atp568
Rp569
(dp570
g11
V,
p571
sbatp572
Rp573
(dp574
g11
VPRN
p575
sbag0
(g1
g2
(lp576
g0
(g1
g2
(lp577
Vdifferent
p578
atp579
Rp580
(dp581
g11
VJJ
p582
sbag0
(g1
g2
(lp583
Vthings
p584
atp585
Rp586
(dp587
g11
VNNS
p588
sbatp589
Rp590
(dp591
g11
VNP
p592
sbatp593
Rp594
(dp595
g11
VVP
p596
sbatp597
Rp598
(dp599
g11
VS
p600
sbag0
(g1
g2
(lp601
V,
p602
atp603
Rp604
(dp605
g11
V,
p606
sbatp607
Rp608
(dp609
g11
VPRN
p610
sbag0
(g1
g2
(lp611
g0
(g1
g2
(lp612
g0
(g1
g2
(lp613
Vthey
p614
atp615
Rp616
(dp617
g11
VPRP
p618
sbatp619
Rp620
(dp621
g11
VNP
p622
sbag0
(g1
g2
(lp623
g0
(g1
g2
(lp624
V're
p625
atp626
Rp627
(dp628
g11
VVBP
p629
sbag0
(g1
g2
(lp630
g0
(g1
g2
(lp631
Vtalking
p632
atp633
Rp634
(dp635
g11
VVBG
p636
sbag0
(g1
g2
(lp637
g0
(g1
g2
(lp638
Vwith
p639
atp640
Rp641
(dp642
g11
VIN
p643
sbag0
(g1
g2
(lp644
g0
(g1
g2
(lp645
Veach
p646
atp647
Rp648
(dp649
g11
VDT
p650
sbag0
(g1
g2
(lp651
Vother
p652
atp653
Rp654
(dp655
g11
VJJ
p656
sbatp657
Rp658
(dp659
g11
VNP
p660
sbatp661
Rp662
(dp663
g11
VPP
p664
sbatp665
Rp666
(dp667
g11
VVP
p668
sbatp669
Rp670
(dp671
g11
VVP
p672
sbatp673
Rp674
(dp675
g11
VS
p676
sbag0
(g1
g2
(lp677
V.
p678
atp679
Rp680
(dp681
g11
V.
p682
sbatp683
Rp684
(dp685
g11
VS
p686
sbatp687
Rp688
(dp689
g11
S'id: 3'
p690
sbag0
(g1
g2
(lp691
g0
(g1
g2
(lp692
g0
(g1
g2
(lp693
g0
(g1
g2
(lp694
g0
(g1
g2
(lp695
g0
(g1
g2
(lp696
g0
(g1
g2
(lp697
VThe
p698
atp699
Rp700
(dp701
g11
VDT
p702
sbag0
(g1
g2
(lp703
Vdifferent
p704
atp705
Rp706
(dp707
g11
VJJ
p708
sbag0
(g1
g2
(lp709
Vpeople
p710
atp711
Rp712
(dp713
g11
VNNS
p714
sbatp715
Rp716
(dp717
g11
VNP
p718
sbag0
(g1
g2
(lp719
g0
(g1
g2
(lp720
g0
(g1
g2
(lp721
Vwho
p722
atp723
Rp724
(dp725
g11
VWP
p726
sbatp727
Rp728
(dp729
g11
VWHNP
p730
sbag0
(g1
g2
(lp731
g0
(g1
g2
(lp732
g0
(g1
g2
(lp733
Vare
p734
atp735
Rp736
(dp737
g11
VVBP
p738
sbag0
(g1
g2
(lp739
g0
(g1
g2
(lp740
g0
(g1
g2
(lp741
Vyou
p742
atp743
Rp744
(dp745
g11
VPRP
p746
sbatp747
Rp748
(dp749
g11
VNP
p750
sbag0
(g1
g2
(lp751
g0
(g1
g2
(lp752
Vknow
p753
atp754
Rp755
(dp756
g11
VVB
p757
sbatp758
Rp759
(dp760
g11
VVP
p761
sbatp762
Rp763
(dp764
g11
VS
p765
sbatp766
Rp767
(dp768
g11
VVP
p769
sbatp770
Rp771
(dp772
g11
VS
p773
sbatp774
Rp775
(dp776
g11
VSBAR
p777
sbatp778
Rp779
(dp780
g11
VNP
p781
sbag0
(g1
g2
(lp782
V,
p783
atp784
Rp785
(dp786
g11
V,
p787
sbag0
(g1
g2
(lp788
g0
(g1
g2
(lp789
Vwatching
p790
atp791
Rp792
(dp793
g11
VVBG
p794
sbag0
(g1
g2
(lp795
g0
(g1
g2
(lp796
Vby
p797
atp798
Rp799
(dp800
g11
VIN
p801
sbag0
(g1
g2
(lp802
g0
(g1
g2
(lp803
Vthem
p804
atp805
Rp806
(dp807
g11
VPRP
p808
sbatp809
Rp810
(dp811
g11
VNP
p812
sbatp813
Rp814
(dp815
g11
VPP
p816
sbatp817
Rp818
(dp819
g11
VVP
p820
sbatp821
Rp822
(dp823
g11
VNP
p824
sbatp825
Rp826
(dp827
g11
VVP
p828
sbag0
(g1
g2
(lp829
V.
p830
atp831
Rp832
(dp833
g11
V.
p834
sbatp835
Rp836
(dp837
g11
VS
p838
sbatp839
Rp840
(dp841
g11
S'id: 4'
p842
sbag0
(g1
g2
(lp843
g0
(g1
g2
(lp844
g0
(g1
g2
(lp845
g0
(g1
g2
(lp846
g0
(g1
g2
(lp847
VYou
p848
atp849
Rp850
(dp851
g11
VPRP
p852
sbatp853
Rp854
(dp855
g11
VNP
p856
sbag0
(g1
g2
(lp857
g0
(g1
g2
(lp858
Vknow
p859
atp860
Rp861
(dp862
g11
VVBP
p863
sbag0
(g1
g2
(lp864
g0
(g1
g2
(lp865
g0
(g1
g2
(lp866
g0
(g1
g2
(lp867
Vthere
p868
atp869
Rp870
(dp871
g11
VEX
p872
sbatp873
Rp874
(dp875
g11
VNP
p876
sbag0
(g1
g2
(lp877
g0
(g1
g2
(lp878
V's
p879
atp880
Rp881
(dp882
g11
VVBZ
p883
sbag0
(g1
g2
(lp884
g0
(g1
g2
(lp885
Va
p886
atp887
Rp888
(dp889
g11
VDT
p890
sbatp891
Rp892
(dp893
g11
VNP
p894
sbatp895
Rp896
(dp897
g11
VVP
p898
sbatp899
Rp900
(dp901
g11
VS
p902
sbatp903
Rp904
(dp905
g11
VSBAR
p906
sbatp907
Rp908
(dp909
g11
VVP
p910
sbatp911
Rp912
(dp913
g11
VS
p914
sbag0
(g1
g2
(lp915
V,
p916
atp917
Rp918
(dp919
g11
V,
p920
sbag0
(g1
g2
(lp921
g0
(g1
g2
(lp922
g0
(g1
g2
(lp923
Vyou
p924
atp925
Rp926
(dp927
g11
VPRP
p928
sbatp929
Rp930
(dp931
g11
VNP
p932
sbag0
(g1
g2
(lp933
g0
(g1
g2
(lp934
Vknow
p935
atp936
Rp937
(dp938
g11
VVBP
p939
sbag0
(g1
g2
(lp940
g0
(g1
g2
(lp941
Vthe
p942
atp943
Rp944
(dp945
g11
VDT
p946
sbag0
(g1
g2
(lp947
VL-I-O-T
p948
atp949
Rp950
(dp951
g11
VNN
p952
sbatp953
Rp954
(dp955
g11
VNP
p956
sbatp957
Rp958
(dp959
g11
VVP
p960
sbatp961
Rp962
(dp963
g11
VS
p964
sbag0
(g1
g2
(lp965
V,
p966
atp967
Rp968
(dp969
g11
V,
p970
sbag0
(g1
g2
(lp971
g0
(g1
g2
(lp972
g0
(g1
g2
(lp973
Vyou
p974
atp975
Rp976
(dp977
g11
VPRP
p978
sbatp979
Rp980
(dp981
g11
VNP
p982
sbag0
(g1
g2
(lp983
g0
(g1
g2
(lp984
Vknow
p985
atp986
Rp987
(dp988
g11
VVBP
p989
sbag0
(g1
g2
(lp990
g0
(g1
g2
(lp991
Vvery
p992
atp993
Rp994
(dp995
g11
VRB
p996
sbag0
(g1
g2
(lp997
Vnice
p998
atp999
Rp1000
(dp1001
g11
VJJ
p1002
sbatp1003
Rp1004
(dp1005
g11
VADJP
p1006
sbatp1007
Rp1008
(dp1009
g11
VVP
p1010
sbatp1011
Rp1012
(dp1013
g11
VS
p1014
sbag0
(g1
g2
(lp1015
V,
p1016
atp1017
Rp1018
(dp1019
g11
V,
p1020
sbag0
(g1
g2
(lp1021
g0
(g1
g2
(lp1022
g0
(g1
g2
(lp1023
Vthey
p1024
atp1025
Rp1026
(dp1027
g11
VPRP
p1028
sbatp1029
Rp1030
(dp1031
g11
VNP
p1032
sbag0
(g1
g2
(lp1033
g0
(g1
g2
(lp1034
V're
p1035
atp1036
Rp1037
(dp1038
g11
VVBP
p1039
sbag0
(g1
g2
(lp1040
g0
(g1
g2
(lp1041
Vup
p1042
atp1043
Rp1044
(dp1045
g11
VRP
p1046
sbatp1047
Rp1048
(dp1049
g11
VADVP
p1050
sbag0
(g1
g2
(lp1051
g0
(g1
g2
(lp1052
g0
(g1
g2
(lp1053
Vhere
p1054
atp1055
Rp1056
(dp1057
g11
VRB
p1058
sbatp1059
Rp1060
(dp1061
g11
VADVP
p1062
sbag0
(g1
g2
(lp1063
Vworking
p1064
atp1065
Rp1066
(dp1067
g11
VVBG
p1068
sbag0
(g1
g2
(lp1069
g0
(g1
g2
(lp1070
Vby
p1071
atp1072
Rp1073
(dp1074
g11
VIN
p1075
sbag0
(g1
g2
(lp1076
g0
(g1
g2
(lp1077
Vthe
p1078
atp1079
Rp1080
(dp1081
g11
VDT
p1082
sbag0
(g1
g2
(lp1083
Vgentlemen
p1084
atp1085
Rp1086
(dp1087
g11
VNNS
p1088
sbatp1089
Rp1090
(dp1091
g11
VNP
p1092
sbatp1093
Rp1094
(dp1095
g11
VPP
p1096
sbatp1097
Rp1098
(dp1099
g11
VVP
p1100
sbatp1101
Rp1102
(dp1103
g11
VVP
p1104
sbatp1105
Rp1106
(dp1107
g11
VS
p1108
sbag0
(g1
g2
(lp1109
V.
p1110
atp1111
Rp1112
(dp1113
g11
V.
p1114
sbatp1115
Rp1116
(dp1117
g11
VS
p1118
sbatp1119
Rp1120
(dp1121
g11
S'id: 5'
p1122
sbag0
(g1
g2
(lp1123
g0
(g1
g2
(lp1124
g0
(g1
g2
(lp1125
VAnd
p1126
atp1127
Rp1128
(dp1129
g11
VCC
p1130
sbag0
(g1
g2
(lp1131
g0
(g1
g2
(lp1132
V,
p1133
atp1134
Rp1135
(dp1136
g11
V,
p1137
sbag0
(g1
g2
(lp1138
g0
(g1
g2
(lp1139
g0
(g1
g2
(lp1140
g0
(g1
g2
(lp1141
Vyou
p1142
atp1143
Rp1144
(dp1145
g11
VPRP
p1146
sbatp1147
Rp1148
(dp1149
g11
VNP
p1150
sbag0
(g1
g2
(lp1151
g0
(g1
g2
(lp1152
Vknow
p1153
atp1154
Rp1155
(dp1156
g11
VVBP
p1157
sbatp1158
Rp1159
(dp1160
g11
VVP
p1161
sbatp1162
Rp1163
(dp1164
g11
VS
p1165
sbag0
(g1
g2
(lp1166
V,
p1167
atp1168
Rp1169
(dp1170
g11
V,
p1171
sbag0
(g1
g2
(lp1172
Vand
p1173
atp1174
Rp1175
(dp1176
g11
VCC
p1177
sbag0
(g1
g2
(lp1178
g0
(g1
g2
(lp1179
g0
(g1
g2
(lp1180
Vthese
p1181
atp1182
Rp1183
(dp1184
g11
VDT
p1185
sbag0
(g1
g2
(lp1186
Vpeople
p1187
atp1188
Rp1189
(dp1190
g11
VNNS
p1191
sbatp1192
Rp1193
(dp1194
g11
VNP
p1195
sbag0
(g1
g2
(lp1196
g0
(g1
g2
(lp1197
Vhere
p1198
atp1199
Rp1200
(dp1201
g11
VRB
p1202
sbatp1203
Rp1204
(dp1205
g11
VADVP
p1206
sbag0
(g1
g2
(lp1207
g0
(g1
g2
(lp1208
Vare
p1209
atp1210
Rp1211
(dp1212
g11
VVBP
p1213
sbag0
(g1
g2
(lp1214
g0
(g1
g2
(lp1215
Vworking
p1216
atp1217
Rp1218
(dp1219
g11
VVBG
p1220
sbag0
(g1
g2
(lp1221
g0
(g1
g2
(lp1222
Varound
p1223
atp1224
Rp1225
(dp1226
g11
VRB
p1227
sbatp1228
Rp1229
(dp1230
g11
VADVP
p1231
sbatp1232
Rp1233
(dp1234
g11
VVP
p1235
sbatp1236
Rp1237
(dp1238
g11
VVP
p1239
sbatp1240
Rp1241
(dp1242
g11
VS
p1243
sbatp1244
Rp1245
(dp1246
g11
VS
p1247
sbag0
(g1
g2
(lp1248
V,
p1249
atp1250
Rp1251
(dp1252
g11
V,
p1253
sbatp1254
Rp1255
(dp1256
g11
VPRN
p1257
sbag0
(g1
g2
(lp1258
g0
(g1
g2
(lp1259
Vthey
p1260
atp1261
Rp1262
(dp1263
g11
VPRP
p1264
sbatp1265
Rp1266
(dp1267
g11
VNP
p1268
sbag0
(g1
g2
(lp1269
g0
(g1
g2
(lp1270
V've
p1271
atp1272
Rp1273
(dp1274
g11
VVBP
p1275
sbag0
(g1
g2
(lp1276
g0
(g1
g2
(lp1277
Vgot
p1278
atp1279
Rp1280
(dp1281
g11
VVBN
p1282
sbag0
(g1
g2
(lp1283
g0
(g1
g2
(lp1284
V15
p1285
atp1286
Rp1287
(dp1288
g11
VCD
p1289
sbag0
(g1
g2
(lp1290
Vareas
p1291
atp1292
Rp1293
(dp1294
g11
VNNS
p1295
sbatp1296
Rp1297
(dp1298
g11
VNP
p1299
sbatp1300
Rp1301
(dp1302
g11
VVP
p1303
sbatp1304
Rp1305
(dp1306
g11
VVP
p1307
sbag0
(g1
g2
(lp1308
V,
p1309
atp1310
Rp1311
(dp1312
g11
V,
p1313
sbag0
(g1
g2
(lp1314
Vand
p1315
atp1316
Rp1317
(dp1318
g11
VCC
p1319
sbag0
(g1
g2
(lp1320
g0
(g1
g2
(lp1321
g0
(g1
g2
(lp1322
Vmaybe
p1323
atp1324
Rp1325
(dp1326
g11
VRB
p1327
sbatp1328
Rp1329
(dp1330
g11
VADVP
p1331
sbag0
(g1
g2
(lp1332
g0
(g1
g2
(lp1333
Vthere
p1334
atp1335
Rp1336
(dp1337
g11
VEX
p1338
sbatp1339
Rp1340
(dp1341
g11
VNP
p1342
sbag0
(g1
g2
(lp1343
g0
(g1
g2
(lp1344
Vare
p1345
atp1346
Rp1347
(dp1348
g11
VVBP
p1349
sbag0
(g1
g2
(lp1350
g0
(g1
g2
(lp1351
g0
(g1
g2
(lp1352
Vsix
p1353
atp1354
Rp1355
(dp1356
g11
VCD
p1357
sbag0
(g1
g2
(lp1358
Vpeople
p1359
atp1360
Rp1361
(dp1362
g11
VNNS
p1363
sbatp1364
Rp1365
(dp1366
g11
VNP
p1367
sbag0
(g1
g2
(lp1368
g0
(g1
g2
(lp1369
Vover
p1370
atp1371
Rp1372
(dp1373
g11
VIN
p1374
sbag0
(g1
g2
(lp1375
g0
(g1
g2
(lp1376
Vthere
p1377
atp1378
Rp1379
(dp1380
g11
VRB
p1381
sbatp1382
Rp1383
(dp1384
g11
VNP
p1385
sbatp1386
Rp1387
(dp1388
g11
VPP
p1389
sbatp1390
Rp1391
(dp1392
g11
VNP
p1393
sbatp1394
Rp1395
(dp1396
g11
VVP
p1397
sbatp1398
Rp1399
(dp1400
g11
VS
p1401
sbag0
(g1
g2
(lp1402
V.
p1403
atp1404
Rp1405
(dp1406
g11
V.
p1407
sbatp1408
Rp1409
(dp1410
g11
VS
p1411
sbatp1412
Rp1413
(dp1414
g11
S'id: 6'
p1415
sbag0
(g1
g2
(lp1416
g0
(g1
g2
(lp1417
g0
(g1
g2
(lp1418
g0
(g1
g2
(lp1419
VSo
p1420
atp1421
Rp1422
(dp1423
g11
VRB
p1424
sbatp1425
Rp1426
(dp1427
g11
VADVP
p1428
sbag0
(g1
g2
(lp1429
g0
(g1
g2
(lp1430
V,
p1431
atp1432
Rp1433
(dp1434
g11
V,
p1435
sbag0
(g1
g2
(lp1436
g0
(g1
g2
(lp1437
g0
(g1
g2
(lp1438
Vyou
p1439
atp1440
Rp1441
(dp1442
g11
VPRP
p1443
sbatp1444
Rp1445
(dp1446
g11
VNP
p1447
sbag0
(g1
g2
(lp1448
g0
(g1
g2
(lp1449
Vknow
p1450
atp1451
Rp1452
(dp1453
g11
VVBP
p1454
sbag0
(g1
g2
(lp1455
g0
(g1
g2
(lp1456
g0
(g1
g2
(lp1457
g0
(g1
g2
(lp1458
Vit
p1459
atp1460
Rp1461
(dp1462
g11
VPRP
p1463
sbatp1464
Rp1465
(dp1466
g11
VNP
p1467
sbag0
(g1
g2
(lp1468
g0
(g1
g2
(lp1469
V's
p1470
atp1471
Rp1472
(dp1473
g11
VVBZ
p1474
sbag0
(g1
g2
(lp1475
g0
(g1
g2
(lp1476
Va
p1477
atp1478
Rp1479
(dp1480
g11
VDT
p1481
sbatp1482
Rp1483
(dp1484
g11
VNP
p1485
sbatp1486
Rp1487
(dp1488
g11
VVP
p1489
sbatp1490
Rp1491
(dp1492
g11
VS
p1493
sbatp1494
Rp1495
(dp1496
g11
VSBAR
p1497
sbatp1498
Rp1499
(dp1500
g11
VVP
p1501
sbatp1502
Rp1503
(dp1504
g11
VS
p1505
sbag0
(g1
g2
(lp1506
V,
p1507
atp1508
Rp1509
(dp1510
g11
V,
p1511
sbatp1512
Rp1513
(dp1514
g11
VPRN
p1515
sbag0
(g1
g2
(lp1516
g0
(g1
g2
(lp1517
Vit
p1518
atp1519
Rp1520
(dp1521
g11
VPRP
p1522
sbatp1523
Rp1524
(dp1525
g11
VNP
p1526
sbag0
(g1
g2
(lp1527
g0
(g1
g2
(lp1528
V's
p1529
atp1530
Rp1531
(dp1532
g11
VVBZ
p1533
sbag0
(g1
g2
(lp1534
g0
(g1
g2
(lp1535
Va
p1536
atp1537
Rp1538
(dp1539
g11
VDT
p1540
sbag0
(g1
g2
(lp1541
Vgood
p1542
atp1543
Rp1544
(dp1545
g11
VJJ
p1546
sbag0
(g1
g2
(lp1547
Vone
p1548
atp1549
Rp1550
(dp1551
g11
VCD
p1552
sbatp1553
Rp1554
(dp1555
g11
VNP
p1556
sbatp1557
Rp1558
(dp1559
g11
VVP
p1560
sbag0
(g1
g2
(lp1561
V.
p1562
atp1563
Rp1564
(dp1565
g11
V.
p1566
sbatp1567
Rp1568
(dp1569
g11
VS
p1570
sbatp1571
Rp1572
(dp1573
g11
S'id: 7'
p1574
sbag0
(g1
g2
(lp1575
g0
(g1
g2
(lp1576
g0
(g1
g2
(lp1577
g0
(g1
g2
(lp1578
g0
(g1
g2
(lp1579
VIt
p1580
atp1581
Rp1582
(dp1583
g11
VPRP
p1584
sbatp1585
Rp1586
(dp1587
g11
VNP
p1588
sbag0
(g1
g2
(lp1589
g0
(g1
g2
(lp1590
V's
p1591
atp1592
Rp1593
(dp1594
g11
VVBZ
p1595
sbag0
(g1
g2
(lp1596
g0
(g1
g2
(lp1597
Vbetter
p1598
atp1599
Rp1600
(dp1601
g11
VJJR
p1602
sbatp1603
Rp1604
(dp1605
g11
VADVP
p1606
sbag0
(g1
g2
(lp1607
g0
(g1
g2
(lp1608
g0
(g1
g2
(lp1609
Vthe
p1610
atp1611
Rp1612
(dp1613
g11
VDT
p1614
sbag0
(g1
g2
(lp1615
Vpeople
p1616
atp1617
Rp1618
(dp1619
g11
VNNS
p1620
sbatp1621
Rp1622
(dp1623
g11
VNP
p1624
sbag0
(g1
g2
(lp1625
g0
(g1
g2
(lp1626
Vup
p1627
atp1628
Rp1629
(dp1630
g11
VIN
p1631
sbag0
(g1
g2
(lp1632
g0
(g1
g2
(lp1633
Vdoors
p1634
atp1635
Rp1636
(dp1637
g11
VNNS
p1638
sbatp1639
Rp1640
(dp1641
g11
VNP
p1642
sbatp1643
Rp1644
(dp1645
g11
VPP
p1646
sbatp1647
Rp1648
(dp1649
g11
VNP
p1650
sbatp1651
Rp1652
(dp1653
g11
VVP
p1654
sbatp1655
Rp1656
(dp1657
g11
VS
p1658
sbag0
(g1
g2
(lp1659
V,
p1660
atp1661
Rp1662
(dp1663
g11
V,
p1664
sbag0
(g1
g2
(lp1665
g0
(g1
g2
(lp1666
g0
(g1
g2
(lp1667
Vthey
p1668
atp1669
Rp1670
(dp1671
g11
VPRP
p1672
sbatp1673
Rp1674
(dp1675
g11
VNP
p1676
sbag0
(g1
g2
(lp1677
V,
p1678
atp1679
Rp1680
(dp1681
g11
V,
p1682
sbag0
(g1
g2
(lp1683
g0
(g1
g2
(lp1684
Vthey
p1685
atp1686
Rp1687
(dp1688
g11
VPRP
p1689
sbatp1690
Rp1691
(dp1692
g11
VNP
p1693
sbatp1694
Rp1695
(dp1696
g11
VS
p1697
sbag0
(g1
g2
(lp1698
V,
p1699
atp1700
Rp1701
(dp1702
g11
V,
p1703
sbag0
(g1
g2
(lp1704
g0
(g1
g2
(lp1705
g0
(g1
g2
(lp1706
Vthey
p1707
atp1708
Rp1709
(dp1710
g11
VPRP
p1711
sbatp1712
Rp1713
(dp1714
g11
VNP
p1715
sbag0
(g1
g2
(lp1716
g0
(g1
g2
(lp1717
Vhelp
p1718
atp1719
Rp1720
(dp1721
g11
VVBP
p1722
sbag0
(g1
g2
(lp1723
g0
(g1
g2
(lp1724
Veach
p1725
atp1726
Rp1727
(dp1728
g11
VDT
p1729
sbag0
(g1
g2
(lp1730
Vother
p1731
atp1732
Rp1733
(dp1734
g11
VJJ
p1735
sbatp1736
Rp1737
(dp1738
g11
VNP
p1739
sbag0
(g1
g2
(lp1740
g0
(g1
g2
(lp1741
Vthere
p1742
atp1743
Rp1744
(dp1745
g11
VRB
p1746
sbatp1747
Rp1748
(dp1749
g11
VADVP
p1750
sbag0
(g1
g2
(lp1751
V,
p1752
atp1753
Rp1754
(dp1755
g11
V,
p1756
sbag0
(g1
g2
(lp1757
g0
(g1
g2
(lp1758
Vbecause
p1759
atp1760
Rp1761
(dp1762
g11
VIN
p1763
sbag0
(g1
g2
(lp1764
g0
(g1
g2
(lp1765
g0
(g1
g2
(lp1766
Vit
p1767
atp1768
Rp1769
(dp1770
g11
VPRP
p1771
sbatp1772
Rp1773
(dp1774
g11
VNP
p1775
sbag0
(g1
g2
(lp1776
g0
(g1
g2
(lp1777
V's
p1778
atp1779
Rp1780
(dp1781
g11
VVBZ
p1782
sbag0
(g1
g2
(lp1783
g0
(g1
g2
(lp1784
Vdown
p1785
atp1786
Rp1787
(dp1788
g11
VRB
p1789
sbag0
(g1
g2
(lp1790
Vthere
p1791
atp1792
Rp1793
(dp1794
g11
VRB
p1795
sbatp1796
Rp1797
(dp1798
g11
VADVP
p1799
sbatp1800
Rp1801
(dp1802
g11
VVP
p1803
sbatp1804
Rp1805
(dp1806
g11
VS
p1807
sbatp1808
Rp1809
(dp1810
g11
VSBAR
p1811
sbatp1812
Rp1813
(dp1814
g11
VVP
p1815
sbatp1816
Rp1817
(dp1818
g11
VS
p1819
sbag0
(g1
g2
(lp1820
V.
p1821
atp1822
Rp1823
(dp1824
g11
V.
p1825
sbatp1826
Rp1827
(dp1828
g11
VS
p1829
sbatp1830
Rp1831
(dp1832
g11
S'id: 8'
p1833
sbag0
(g1
g2
(lp1834
g0
(g1
g2
(lp1835
g0
(g1
g2
(lp1836
VSo
p1837
atp1838
Rp1839
(dp1840
g11
VIN
p1841
sbag0
(g1
g2
(lp1842
g0
(g1
g2
(lp1843
Vit
p1844
atp1845
Rp1846
(dp1847
g11
VPRP
p1848
sbatp1849
Rp1850
(dp1851
g11
VNP
p1852
sbag0
(g1
g2
(lp1853
g0
(g1
g2
(lp1854
V's
p1855
atp1856
Rp1857
(dp1858
g11
VVBZ
p1859
sbag0
(g1
g2
(lp1860
g0
(g1
g2
(lp1861
Vvery
p1862
atp1863
Rp1864
(dp1865
g11
VRB
p1866
sbag0
(g1
g2
(lp1867
Vnice
p1868
atp1869
Rp1870
(dp1871
g11
VJJ
p1872
sbatp1873
Rp1874
(dp1875
g11
VADJP
p1876
sbatp1877
Rp1878
(dp1879
g11
VVP
p1880
sbag0
(g1
g2
(lp1881
V.
p1882
atp1883
Rp1884
(dp1885
g11
V.
p1886
sbatp1887
Rp1888
(dp1889
g11
VS
p1890
sbatp1891
Rp1892
(dp1893
g11
S'id: 9'
p1894
sbag0
(g1
g2
(lp1895
g0
(g1
g2
(lp1896
g0
(g1
g2
(lp1897
g0
(g1
g2
(lp1898
VThe
p1899
atp1900
Rp1901
(dp1902
g11
VDT
p1903
sbag0
(g1
g2
(lp1904
Vdoors
p1905
atp1906
Rp1907
(dp1908
g11
VNNS
p1909
sbatp1910
Rp1911
(dp1912
g11
VNP
p1913
sbag0
(g1
g2
(lp1914
V,
p1915
atp1916
Rp1917
(dp1918
g11
V,
p1919
sbag0
(g1
g2
(lp1920
Vbut
p1921
atp1922
Rp1923
(dp1924
g11
VCC
p1925
sbag0
(g1
g2
(lp1926
g0
(g1
g2
(lp1927
g0
(g1
g2
(lp1928
Vthat
p1929
atp1930
Rp1931
(dp1932
g11
VDT
p1933
sbatp1934
Rp1935
(dp1936
g11
VNP
p1937
sbag0
(g1
g2
(lp1938
g0
(g1
g2
(lp1939
V's
p1940
atp1941
Rp1942
(dp1943
g11
VVBZ
p1944
sbag0
(g1
g2
(lp1945
g0
(g1
g2
(lp1946
g0
(g1
g2
(lp1947
Vokay
p1948
atp1949
Rp1950
(dp1951
g11
VJJ
p1952
sbatp1953
Rp1954
(dp1955
g11
VADJP
p1956
sbag0
(g1
g2
(lp1957
Voutdoors
p1958
atp1959
Rp1960
(dp1961
g11
VNNS
p1962
sbatp1963
Rp1964
(dp1965
g11
VNP
p1966
sbatp1967
Rp1968
(dp1969
g11
VVP
p1970
sbatp1971
Rp1972
(dp1973
g11
VS
p1974
sbag0
(g1
g2
(lp1975
V.
p1976
atp1977
Rp1978
(dp1979
g11
V.
p1980
sbatp1981
Rp1982
(dp1983
g11
VFRAG
p1984
sbatp1985
Rp1986
(dp1987
g11
S'id: 10'
p1988
sbag0
(g1
g2
(lp1989
g0
(g1
g2
(lp1990
g0
(g1
g2
(lp1991
g0
(g1
g2
(lp1992
VYou
p1993
atp1994
Rp1995
(dp1996
g11
VPRP
p1997
sbatp1998
Rp1999
(dp2000
g11
VNP
p2001
sbag0
(g1
g2
(lp2002
g0
(g1
g2
(lp2003
Vknow
p2004
atp2005
Rp2006
(dp2007
g11
VVBP
p2008
sbatp2009
Rp2010
(dp2011
g11
VVP
p2012
sbag0
(g1
g2
(lp2013
V.
p2014
atp2015
Rp2016
(dp2017
g11
V.
p2018
sbatp2019
Rp2020
(dp2021
g11
VS
p2022
sbatp2023
Rp2024
(dp2025
g11
S'id: 11'
p2026
sbag0
(g1
g2
(lp2027
g0
(g1
g2
(lp2028
g0
(g1
g2
(lp2029
g0
(g1
g2
(lp2030
VSo
p2031
atp2032
Rp2033
(dp2034
g11
VRB
p2035
sbatp2036
Rp2037
(dp2038
g11
VADVP
p2039
sbag0
(g1
g2
(lp2040
V,
p2041
atp2042
Rp2043
(dp2044
g11
V,
p2045
sbag0
(g1
g2
(lp2046
g0
(g1
g2
(lp2047
Vdo
p2048
atp2049
Rp2050
(dp2051
g11
VVBP
p2052
sbag0
(g1
g2
(lp2053
Vn't
p2054
atp2055
Rp2056
(dp2057
g11
VRB
p2058
sbag0
(g1
g2
(lp2059
g0
(g1
g2
(lp2060
Vthink
p2061
atp2062
Rp2063
(dp2064
g11
VVB
p2065
sbag0
(g1
g2
(lp2066
g0
(g1
g2
(lp2067
g0
(g1
g2
(lp2068
g0
(g1
g2
(lp2069
Vthere
p2070
atp2071
Rp2072
(dp2073
g11
VEX
p2074
sbatp2075
Rp2076
(dp2077
g11
VNP
p2078
sbag0
(g1
g2
(lp2079
g0
(g1
g2
(lp2080
V's
p2081
atp2082
Rp2083
(dp2084
g11
VVBZ
p2085
sbag0
(g1
g2
(lp2086
g0
(g1
g2
(lp2087
Vproblem
p2088
atp2089
Rp2090
(dp2091
g11
VNN
p2092
sbatp2093
Rp2094
(dp2095
g11
VNP
p2096
sbatp2097
Rp2098
(dp2099
g11
VVP
p2100
sbatp2101
Rp2102
(dp2103
g11
VS
p2104
sbatp2105
Rp2106
(dp2107
g11
VSBAR
p2108
sbatp2109
Rp2110
(dp2111
g11
VVP
p2112
sbatp2113
Rp2114
(dp2115
g11
VVP
p2116
sbag0
(g1
g2
(lp2117
V.
p2118
atp2119
Rp2120
(dp2121
g11
V.
p2122
sbatp2123
Rp2124
(dp2125
g11
VS
p2126
sbatp2127
Rp2128
(dp2129
g11
S'id: 12'
p2130
sbag0
(g1
g2
(lp2131
g0
(g1
g2
(lp2132
g0
(g1
g2
(lp2133
g0
(g1
g2
(lp2134
VIt
p2135
atp2136
Rp2137
(dp2138
g11
VPRP
p2139
sbatp2140
Rp2141
(dp2142
g11
VNP
p2143
sbag0
(g1
g2
(lp2144
g0
(g1
g2
(lp2145
V's
p2146
atp2147
Rp2148
(dp2149
g11
VVBZ
p2150
sbag0
(g1
g2
(lp2151
g0
(g1
g2
(lp2152
Vworking
p2153
atp2154
Rp2155
(dp2156
g11
VVBG
p2157
sbag0
(g1
g2
(lp2158
g0
(g1
g2
(lp2159
Vfor
p2160
atp2161
Rp2162
(dp2163
g11
VIN
p2164
sbag0
(g1
g2
(lp2165
g0
(g1
g2
(lp2166
Vit
p2167
atp2168
Rp2169
(dp2170
g11
VPRP
p2171
sbatp2172
Rp2173
(dp2174
g11
VNP
p2175
sbatp2176
Rp2177
(dp2178
g11
VPP
p2179
sbatp2180
Rp2181
(dp2182
g11
VVP
p2183
sbatp2184
Rp2185
(dp2186
g11
VVP
p2187
sbag0
(g1
g2
(lp2188
V.
p2189
atp2190
Rp2191
(dp2192
g11
V.
p2193
sbatp2194
Rp2195
(dp2196
g11
VS
p2197
sbatp2198
Rp2199
(dp2200
g11
S'id: 13'
p2201
sbag0
(g1
g2
(lp2202
g0
(g1
g2
(lp2203
g0
(g1
g2
(lp2204
g0
(g1
g2
(lp2205
g0
(g1
g2
(lp2206
VYou
p2207
atp2208
Rp2209
(dp2210
g11
VPRP
p2211
sbatp2212
Rp2213
(dp2214
g11
VNP
p2215
sbag0
(g1
g2
(lp2216
g0
(g1
g2
(lp2217
Vknow
p2218
atp2219
Rp2220
(dp2221
g11
VVBP
p2222
sbatp2223
Rp2224
(dp2225
g11
VVP
p2226
sbatp2227
Rp2228
(dp2229
g11
VS
p2230
sbag0
(g1
g2
(lp2231
V,
p2232
atp2233
Rp2234
(dp2235
g11
V,
p2236
sbag0
(g1
g2
(lp2237
g0
(g1
g2
(lp2238
Vit
p2239
atp2240
Rp2241
(dp2242
g11
VPRP
p2243
sbatp2244
Rp2245
(dp2246
g11
VNP
p2247
sbag0
(g1
g2
(lp2248
g0
(g1
g2
(lp2249
V's
p2250
atp2251
Rp2252
(dp2253
g11
VVBZ
p2254
sbag0
(g1
g2
(lp2255
g0
(g1
g2
(lp2256
Vokay
p2257
atp2258
Rp2259
(dp2260
g11
VJJ
p2261
sbatp2262
Rp2263
(dp2264
g11
VADJP
p2265
sbatp2266
Rp2267
(dp2268
g11
VVP
p2269
sbag0
(g1
g2
(lp2270
V.
p2271
atp2272
Rp2273
(dp2274
g11
V.
p2275
sbatp2276
Rp2277
(dp2278
g11
VS
p2279
sbatp2280
Rp2281
(dp2282
g11
S'id: 14'
p2283
sbatp2284
Rp2285
(dp2286
g11
S'sentences'
p2287
sb.