ccopy_reg
_reconstructor
p0
(cnltk.tree
Tree
p1
c__builtin__
list
p2
(lp3
g0
(g1
g2
(lp4
g0
(g1
g2
(lp5
g0
(g1
g2
(lp6
Vthe kite
p7
atp8
Rp9
(dp10
S'_label'
p11
S'start: 5'
p12
sbatp13
Rp14
(dp15
g11
S'sent: 1'
p16
sbag0
(g1
g2
(lp17
g0
(g1
g2
(lp18
Vthe kite
p19
atp20
Rp21
(dp22
g11
S'start: 1'
p23
sbatp24
Rp25
(dp26
g11
S'sent: 19'
p27
sbatp28
Rp29
(dp30
g11
S'id: 2'
p31
sbag0
(g1
g2
(lp32
g0
(g1
g2
(lp33
g0
(g1
g2
(lp34
Vthe man
p35
atp36
Rp37
(dp38
g11
S'start: 1'
p39
sbatp40
Rp41
(dp42
g11
S'sent: 2'
p43
sbag0
(g1
g2
(lp44
g0
(g1
g2
(lp45
Vthe man
p46
atp47
Rp48
(dp49
g11
S'start: 1'
p50
sbatp51
Rp52
(dp53
g11
S'sent: 16'
p54
sbag0
(g1
g2
(lp55
g0
(g1
g2
(lp56
Vhe
p57
atp58
Rp59
(dp60
g11
S'start: 8'
p61
sbatp62
Rp63
(dp64
g11
S'sent: 16'
p65
sbatp66
Rp67
(dp68
g11
S'id: 3'
p69
sbag0
(g1
g2
(lp70
g0
(g1
g2
(lp71
g0
(g1
g2
(lp72
Vthe little girl
p73
atp74
Rp75
(dp76
g11
S'start: 1'
p77
sbatp78
Rp79
(dp80
g11
S'sent: 3'
p81
sbag0
(g1
g2
(lp82
g0
(g1
g2
(lp83
Vthe little girl
p84
atp85
Rp86
(dp87
g11
S'start: 2'
p88
sbatp89
Rp90
(dp91
g11
S'sent: 17'
p92
sbatp93
Rp94
(dp95
g11
S'id: 4'
p96
sbag0
(g1
g2
(lp97
g0
(g1
g2
(lp98
g0
(g1
g2
(lp99
Vthe daddy
p100
atp101
Rp102
(dp103
g11
S'start: 1'
p104
sbatp105
Rp106
(dp107
g11
S'sent: 6'
p108
sbag0
(g1
g2
(lp109
g0
(g1
g2
(lp110
Vhis
p111
atp112
Rp113
(dp114
g11
S'start: 4'
p115
sbatp116
Rp117
(dp118
g11
S'sent: 6'
p119
sbag0
(g1
g2
(lp120
g0
(g1
g2
(lp121
Vthe daddy
p122
atp123
Rp124
(dp125
g11
S'start: 2'
p126
sbatp127
Rp128
(dp129
g11
S'sent: 12'
p130
sbatp131
Rp132
(dp133
g11
S'id: 9'
p134
sbag0
(g1
g2
(lp135
g0
(g1
g2
(lp136
g0
(g1
g2
(lp137
Vsome music
p138
atp139
Rp140
(dp141
g11
S'start: 6'
p142
sbatp143
Rp144
(dp145
g11
S'sent: 10'
p146
sbag0
(g1
g2
(lp147
g0
(g1
g2
(lp148
Vit
p149
atp150
Rp151
(dp152
g11
S'start: 2'
p153
sbatp154
Rp155
(dp156
g11
S'sent: 13'
p157
sbag0
(g1
g2
(lp158
g0
(g1
g2
(lp159
Va sunny day out there
p160
atp161
Rp162
(dp163
g11
S'start: 4'
p164
sbatp165
Rp166
(dp167
g11
S'sent: 13'
p168
sbag0
(g1
g2
(lp169
g0
(g1
g2
(lp170
Vit
p171
atp172
Rp173
(dp174
g11
S'start: 6'
p175
sbatp176
Rp177
(dp178
g11
S'sent: 14'
p179
sbatp180
Rp181
(dp182
g11
S'id: 21'
p183
sbag0
(g1
g2
(lp184
g0
(g1
g2
(lp185
g0
(g1
g2
(lp186
Vme
p187
atp188
Rp189
(dp190
g11
S'start: 2'
p191
sbatp192
Rp193
(dp194
g11
S'sent: 11'
p195
sbag0
(g1
g2
(lp196
g0
(g1
g2
(lp197
VI
p198
atp199
Rp200
(dp201
g11
S'start: 8'
p202
sbatp203
Rp204
(dp205
g11
S'sent: 20'
p206
sbatp207
Rp208
(dp209
g11
S'id: 22'
p210
sbag0
(g1
g2
(lp211
g0
(g1
g2
(lp212
g0
(g1
g2
(lp213
Vthe fish
p214
atp215
Rp216
(dp217
g11
S'start: 5'
p218
sbatp219
Rp220
(dp221
g11
S'sent: 16'
p222
sbag0
(g1
g2
(lp223
g0
(g1
g2
(lp224
Vit
p225
atp226
Rp227
(dp228
g11
S'start: 11'
p229
sbatp230
Rp231
(dp232
g11
S'sent: 16'
p233
sbatp234
Rp235
(dp236
g11
S'id: 34'
p237
sbag0
(g1
g2
(lp238
g0
(g1
g2
(lp239
g0
(g1
g2
(lp240
Vyellow
p241
atp242
Rp243
(dp244
g11
S'start: 4'
p245
sbatp246
Rp247
(dp248
g11
S'sent: 19'
p249
sbag0
(g1
g2
(lp250
g0
(g1
g2
(lp251
Vit
p252
atp253
Rp254
(dp255
g11
S'start: 1'
p256
sbatp257
Rp258
(dp259
g11
S'sent: 20'
p260
sbatp261
Rp262
(dp263
g11
S'id: 43'
p264
sbatp265
Rp266
(dp267
g11
S'coreferences'
p268
sb.