ccopy_reg
_reconstructor
p0
(cnltk.tree
Tree
p1
c__builtin__
list
p2
(lp3
g0
(g1
g2
(lp4
g0
(g1
g2
(lp5
g0
(g1
g2
(lp6
g0
(g1
g2
(lp7
VI
p8
atp9
Rp10
(dp11
S'_label'
p12
VPRP
p13
sbatp14
Rp15
(dp16
g12
VNP
p17
sbag0
(g1
g2
(lp18
g0
(g1
g2
(lp19
Vsee
p20
atp21
Rp22
(dp23
g12
VVBP
p24
sbag0
(g1
g2
(lp25
g0
(g1
g2
(lp26
g0
(g1
g2
(lp27
Vthe
p28
atp29
Rp30
(dp31
g12
VDT
p32
sbag0
(g1
g2
(lp33
Vmother
p34
atp35
Rp36
(dp37
g12
VNN
p38
sbatp39
Rp40
(dp41
g12
VNP
p42
sbag0
(g1
g2
(lp43
g0
(g1
g2
(lp44
Vwashing
p45
atp46
Rp47
(dp48
g12
VVBG
p49
sbag0
(g1
g2
(lp50
g0
(g1
g2
(lp51
Vthe
p52
atp53
Rp54
(dp55
g12
VDT
p56
sbag0
(g1
g2
(lp57
Vdishes
p58
atp59
Rp60
(dp61
g12
VNNS
p62
sbatp63
Rp64
(dp65
g12
VNP
p66
sbatp67
Rp68
(dp69
g12
VVP
p70
sbatp71
Rp72
(dp73
g12
VS
p74
sbatp75
Rp76
(dp77
g12
VVP
p78
sbag0
(g1
g2
(lp79
V.
p80
atp81
Rp82
(dp83
g12
V.
p84
sbatp85
Rp86
(dp87
g12
VS
p88
sbatp89
Rp90
(dp91
g12
S'id: 0'
p92
sbag0
(g1
g2
(lp93
g0
(g1
g2
(lp94
g0
(g1
g2
(lp95
g0
(g1
g2
(lp96
g0
(g1
g2
(lp97
VThe
p98
atp99
Rp100
(dp101
g12
VDT
p102
sbag0
(g1
g2
(lp103
Vchild
p104
atp105
Rp106
(dp107
g12
VNN
p108
sbatp109
Rp110
(dp111
g12
VNP
p112
sbag0
(g1
g2
(lp113
g0
(g1
g2
(lp114
Vis
p115
atp116
Rp117
(dp118
g12
VVBZ
p119
sbag0
(g1
g2
(lp120
g0
(g1
g2
(lp121
Vstealing
p122
atp123
Rp124
(dp125
g12
VVBG
p126
sbag0
(g1
g2
(lp127
g0
(g1
g2
(lp128
Vthe
p129
atp130
Rp131
(dp132
g12
VDT
p133
sbag0
(g1
g2
(lp134
Vcookies
p135
atp136
Rp137
(dp138
g12
VNNS
p139
sbatp140
Rp141
(dp142
g12
VNP
p143
sbatp144
Rp145
(dp146
g12
VVP
p147
sbatp148
Rp149
(dp150
g12
VVP
p151
sbatp152
Rp153
(dp154
g12
VS
p155
sbag0
(g1
g2
(lp156
V,
p157
atp158
Rp159
(dp160
g12
V,
p161
sbag0
(g1
g2
(lp162
Vand
p163
atp164
Rp165
(dp166
g12
VCC
p167
sbag0
(g1
g2
(lp168
g0
(g1
g2
(lp169
g0
(g1
g2
(lp170
Vthe
p171
atp172
Rp173
(dp174
g12
VDT
p175
sbag0
(g1
g2
(lp176
Vother
p177
atp178
Rp179
(dp180
g12
VJJ
p181
sbag0
(g1
g2
(lp182
Vchild
p183
atp184
Rp185
(dp186
g12
VNN
p187
sbatp188
Rp189
(dp190
g12
VNP
p191
sbag0
(g1
g2
(lp192
g0
(g1
g2
(lp193
Vis
p194
atp195
Rp196
(dp197
g12
VVBZ
p198
sbag0
(g1
g2
(lp199
g0
(g1
g2
(lp200
Vreceiving
p201
atp202
Rp203
(dp204
g12
VVBG
p205
sbag0
(g1
g2
(lp206
g0
(g1
g2
(lp207
Vthe
p208
atp209
Rp210
(dp211
g12
VDT
p212
sbag0
(g1
g2
(lp213
Vstolen
p214
atp215
Rp216
(dp217
g12
VVBN
p218
sbag0
(g1
g2
(lp219
Vcookies
p220
atp221
Rp222
(dp223
g12
VNNS
p224
sbatp225
Rp226
(dp227
g12
VNP
p228
sbatp229
Rp230
(dp231
g12
VVP
p232
sbatp233
Rp234
(dp235
g12
VVP
p236
sbatp237
Rp238
(dp239
g12
VS
p240
sbag0
(g1
g2
(lp241
V.
p242
atp243
Rp244
(dp245
g12
V.
p246
sbatp247
Rp248
(dp249
g12
VS
p250
sbatp251
Rp252
(dp253
g12
S'id: 1'
p254
sbag0
(g1
g2
(lp255
g0
(g1
g2
(lp256
g0
(g1
g2
(lp257
g0
(g1
g2
(lp258
g0
(g1
g2
(lp259
VLet
p260
atp261
Rp262
(dp263
g12
VVB
p264
sbag0
(g1
g2
(lp265
g0
(g1
g2
(lp266
g0
(g1
g2
(lp267
V's
p268
atp269
Rp270
(dp271
g12
VPRP
p272
sbatp273
Rp274
(dp275
g12
VNP
p276
sbag0
(g1
g2
(lp277
g0
(g1
g2
(lp278
Vsee
p279
atp280
Rp281
(dp282
g12
VVB
p283
sbatp284
Rp285
(dp286
g12
VVP
p287
sbatp288
Rp289
(dp290
g12
VS
p291
sbatp292
Rp293
(dp294
g12
VVP
p295
sbatp296
Rp297
(dp298
g12
VS
p299
sbag0
(g1
g2
(lp300
V,
p301
atp302
Rp303
(dp304
g12
V,
p305
sbag0
(g1
g2
(lp306
g0
(g1
g2
(lp307
Vthe
p308
atp309
Rp310
(dp311
g12
VDT
p312
sbag0
(g1
g2
(lp313
Vsink
p314
atp315
Rp316
(dp317
g12
VNN
p318
sbatp319
Rp320
(dp321
g12
VNP
p322
sbag0
(g1
g2
(lp323
g0
(g1
g2
(lp324
Vis
p325
atp326
Rp327
(dp328
g12
VVBZ
p329
sbag0
(g1
g2
(lp330
g0
(g1
g2
(lp331
Vover
p332
atp333
Rp334
(dp335
g12
VIN
p336
sbag0
(g1
g2
(lp337
g0
(g1
g2
(lp338
Vflowing
p339
atp340
Rp341
(dp342
g12
VVBG
p343
sbatp344
Rp345
(dp346
g12
VNP
p347
sbatp348
Rp349
(dp350
g12
VPP
p351
sbatp352
Rp353
(dp354
g12
VVP
p355
sbag0
(g1
g2
(lp356
V.
p357
atp358
Rp359
(dp360
g12
V.
p361
sbatp362
Rp363
(dp364
g12
VS
p365
sbatp366
Rp367
(dp368
g12
S'id: 2'
p369
sbag0
(g1
g2
(lp370
g0
(g1
g2
(lp371
g0
(g1
g2
(lp372
g0
(g1
g2
(lp373
VSomebody
p374
atp375
Rp376
(dp377
g12
VNN
p378
sbatp379
Rp380
(dp381
g12
VNP
p382
sbag0
(g1
g2
(lp383
g0
(g1
g2
(lp384
Vhas
p385
atp386
Rp387
(dp388
g12
VVBZ
p389
sbag0
(g1
g2
(lp390
g0
(g1
g2
(lp391
g0
(g1
g2
(lp392
Vto
p393
atp394
Rp395
(dp396
g12
VTO
p397
sbag0
(g1
g2
(lp398
g0
(g1
g2
(lp399
Vclean
p400
atp401
Rp402
(dp403
g12
VVB
p404
sbag0
(g1
g2
(lp405
g0
(g1
g2
(lp406
Vup
p407
atp408
Rp409
(dp410
g12
VRP
p411
sbatp412
Rp413
(dp414
g12
VPRT
p415
sbag0
(g1
g2
(lp416
g0
(g1
g2
(lp417
Vthat
p418
atp419
Rp420
(dp421
g12
VDT
p422
sbag0
(g1
g2
(lp423
Vmess
p424
atp425
Rp426
(dp427
g12
VNN
p428
sbatp429
Rp430
(dp431
g12
VNP
p432
sbatp433
Rp434
(dp435
g12
VVP
p436
sbatp437
Rp438
(dp439
g12
VVP
p440
sbatp441
Rp442
(dp443
g12
VS
p444
sbatp445
Rp446
(dp447
g12
VVP
p448
sbag0
(g1
g2
(lp449
V.
p450
atp451
Rp452
(dp453
g12
V.
p454
sbatp455
Rp456
(dp457
g12
VS
p458
sbatp459
Rp460
(dp461
g12
S'id: 3'
p462
sbag0
(g1
g2
(lp463
g0
(g1
g2
(lp464
g0
(g1
g2
(lp465
g0
(g1
g2
(lp466
VThere
p467
atp468
Rp469
(dp470
g12
VEX
p471
sbatp472
Rp473
(dp474
g12
VNP
p475
sbag0
(g1
g2
(lp476
g0
(g1
g2
(lp477
V's
p478
atp479
Rp480
(dp481
g12
VVBZ
p482
sbag0
(g1
g2
(lp483
g0
(g1
g2
(lp484
Vmore
p485
atp486
Rp487
(dp488
g12
VJJR
p489
sbag0
(g1
g2
(lp490
Vdishes
p491
atp492
Rp493
(dp494
g12
VNNS
p495
sbag0
(g1
g2
(lp496
g0
(g1
g2
(lp497
g0
(g1
g2
(lp498
Vto
p499
atp500
Rp501
(dp502
g12
VTO
p503
sbag0
(g1
g2
(lp504
g0
(g1
g2
(lp505
Vbe
p506
atp507
Rp508
(dp509
g12
VVB
p510
sbag0
(g1
g2
(lp511
g0
(g1
g2
(lp512
Vwashed
p513
atp514
Rp515
(dp516
g12
VVBN
p517
sbatp518
Rp519
(dp520
g12
VVP
p521
sbatp522
Rp523
(dp524
g12
VVP
p525
sbatp526
Rp527
(dp528
g12
VVP
p529
sbatp530
Rp531
(dp532
g12
VS
p533
sbatp534
Rp535
(dp536
g12
VNP
p537
sbatp538
Rp539
(dp540
g12
VVP
p541
sbag0
(g1
g2
(lp542
V.
p543
atp544
Rp545
(dp546
g12
V.
p547
sbatp548
Rp549
(dp550
g12
VS
p551
sbatp552
Rp553
(dp554
g12
S'id: 4'
p555
sbag0
(g1
g2
(lp556
g0
(g1
g2
(lp557
g0
(g1
g2
(lp558
g0
(g1
g2
(lp559
VWould
p560
atp561
Rp562
(dp563
g12
VMD
p564
sbag0
(g1
g2
(lp565
Vn't
p566
atp567
Rp568
(dp569
g12
VRB
p570
sbag0
(g1
g2
(lp571
g0
(g1
g2
(lp572
Vhard
p573
atp574
Rp575
(dp576
g12
VRB
p577
sbag0
(g1
g2
(lp578
g0
(g1
g2
(lp579
Vto
p580
atp581
Rp582
(dp583
g12
VTO
p584
sbatp585
Rp586
(dp587
g12
VPP
p588
sbatp589
Rp590
(dp591
g12
VADVP
p592
sbag0
(g1
g2
(lp593
g0
(g1
g2
(lp594
Vpaint
p595
atp596
Rp597
(dp598
g12
VVB
p599
sbag0
(g1
g2
(lp600
g0
(g1
g2
(lp601
Vthe
p602
atp603
Rp604
(dp605
g12
VDT
p606
sbag0
(g1
g2
(lp607
Vcabinets
p608
atp609
Rp610
(dp611
g12
VNNS
p612
sbatp613
Rp614
(dp615
g12
VNP
p616
sbatp617
Rp618
(dp619
g12
VVP
p620
sbatp621
Rp622
(dp623
g12
VVP
p624
sbag0
(g1
g2
(lp625
V.
p626
atp627
Rp628
(dp629
g12
V.
p630
sbatp631
Rp632
(dp633
g12
VS
p634
sbatp635
Rp636
(dp637
g12
S'id: 5'
p638
sbag0
(g1
g2
(lp639
g0
(g1
g2
(lp640
g0
(g1
g2
(lp641
g0
(g1
g2
(lp642
VI
p643
atp644
Rp645
(dp646
g12
VPRP
p647
sbatp648
Rp649
(dp650
g12
VNP
p651
sbag0
(g1
g2
(lp652
g0
(g1
g2
(lp653
Vsee
p654
atp655
Rp656
(dp657
g12
VVBP
p658
sbag0
(g1
g2
(lp659
g0
(g1
g2
(lp660
g0
(g1
g2
(lp661
g0
(g1
g2
(lp662
Va
p663
atp664
Rp665
(dp666
g12
VDT
p667
sbag0
(g1
g2
(lp668
Vtree
p669
atp670
Rp671
(dp672
g12
VNN
p673
sbatp674
Rp675
(dp676
g12
VNP
p677
sbag0
(g1
g2
(lp678
g0
(g1
g2
(lp679
Voutside
p680
atp681
Rp682
(dp683
g12
VIN
p684
sbatp685
Rp686
(dp687
g12
VADVP
p688
sbatp689
Rp690
(dp691
g12
VNP
p692
sbag0
(g1
g2
(lp693
V,
p694
atp695
Rp696
(dp697
g12
V,
p698
sbag0
(g1
g2
(lp699
Vand
p700
atp701
Rp702
(dp703
g12
VCC
p704
sbag0
(g1
g2
(lp705
g0
(g1
g2
(lp706
g0
(g1
g2
(lp707
Va
p708
atp709
Rp710
(dp711
g12
VDT
p712
sbag0
(g1
g2
(lp713
Vsidewalk
p714
atp715
Rp716
(dp717
g12
VNN
p718
sbatp719
Rp720
(dp721
g12
VNP
p722
sbag0
(g1
g2
(lp723
V,
p724
atp725
Rp726
(dp727
g12
V,
p728
sbag0
(g1
g2
(lp729
g0
(g1
g2
(lp730
g0
(g1
g2
(lp731
Vlots
p732
atp733
Rp734
(dp735
g12
VNNS
p736
sbatp737
Rp738
(dp739
g12
VNP
p740
sbag0
(g1
g2
(lp741
g0
(g1
g2
(lp742
Vof
p743
atp744
Rp745
(dp746
g12
VIN
p747
sbag0
(g1
g2
(lp748
g0
(g1
g2
(lp749
Vplants
p750
atp751
Rp752
(dp753
g12
VNNS
p754
sbatp755
Rp756
(dp757
g12
VNP
p758
sbatp759
Rp760
(dp761
g12
VPP
p762
sbatp763
Rp764
(dp765
g12
VNP
p766
sbatp767
Rp768
(dp769
g12
VNP
p770
sbatp771
Rp772
(dp773
g12
VNP
p774
sbatp775
Rp776
(dp777
g12
VVP
p778
sbag0
(g1
g2
(lp779
V.
p780
atp781
Rp782
(dp783
g12
V.
p784
sbatp785
Rp786
(dp787
g12
VS
p788
sbatp789
Rp790
(dp791
g12
S'id: 6'
p792
sbag0
(g1
g2
(lp793
g0
(g1
g2
(lp794
g0
(g1
g2
(lp795
g0
(g1
g2
(lp796
VThe
p797
atp798
Rp799
(dp800
g12
VDT
p801
sbag0
(g1
g2
(lp802
Vdaughter
p803
atp804
Rp805
(dp806
g12
VNN
p807
sbatp808
Rp809
(dp810
g12
VNP
p811
sbag0
(g1
g2
(lp812
g0
(g1
g2
(lp813
Vmight
p814
atp815
Rp816
(dp817
g12
VMD
p818
sbag0
(g1
g2
(lp819
g0
(g1
g2
(lp820
Vbe
p821
atp822
Rp823
(dp824
g12
VVB
p825
sbag0
(g1
g2
(lp826
g0
(g1
g2
(lp827
Vleft
p828
atp829
Rp830
(dp831
g12
VVBN
p832
sbag0
(g1
g2
(lp833
g0
(g1
g2
(lp834
g0
(g1
g2
(lp835
Vhanded
p836
atp837
Rp838
(dp839
g12
VNN
p840
sbatp841
Rp842
(dp843
g12
VADJP
p844
sbatp845
Rp846
(dp847
g12
VS
p848
sbag0
(g1
g2
(lp849
V,
p850
atp851
Rp852
(dp853
g12
V,
p854
sbag0
(g1
g2
(lp855
g0
(g1
g2
(lp856
g0
(g1
g2
(lp857
Vpossibly
p858
atp859
Rp860
(dp861
g12
VRB
p862
sbatp863
Rp864
(dp865
g12
VADVP
p866
sbatp867
Rp868
(dp869
g12
VS
p870
sbatp871
Rp872
(dp873
g12
VVP
p874
sbatp875
Rp876
(dp877
g12
VVP
p878
sbatp879
Rp880
(dp881
g12
VVP
p882
sbag0
(g1
g2
(lp883
V.
p884
atp885
Rp886
(dp887
g12
V.
p888
sbatp889
Rp890
(dp891
g12
VS
p892
sbatp893
Rp894
(dp895
g12
S'id: 7'
p896
sbag0
(g1
g2
(lp897
g0
(g1
g2
(lp898
g0
(g1
g2
(lp899
g0
(g1
g2
(lp900
VMom
p901
atp902
Rp903
(dp904
g12
VNN
p905
sbatp906
Rp907
(dp908
g12
VNP
p909
sbag0
(g1
g2
(lp910
g0
(g1
g2
(lp911
g0
(g1
g2
(lp912
g0
(g1
g2
(lp913
V's
p914
atp915
Rp916
(dp917
g12
VPOS
p918
sbatp919
Rp920
(dp921
g12
VNP
p922
sbag0
(g1
g2
(lp923
g0
(g1
g2
(lp924
Vgot
p925
atp926
Rp927
(dp928
g12
VVBD
p929
sbag0
(g1
g2
(lp930
g0
(g1
g2
(lp931
Va
p932
atp933
Rp934
(dp935
g12
VDT
p936
sbag0
(g1
g2
(lp937
Vsleeveless
p938
atp939
Rp940
(dp941
g12
VJJ
p942
sbag0
(g1
g2
(lp943
Vdress
p944
atp945
Rp946
(dp947
g12
VNN
p948
sbatp949
Rp950
(dp951
g12
VNP
p952
sbag0
(g1
g2
(lp953
g0
(g1
g2
(lp954
Von
p955
atp956
Rp957
(dp958
g12
VIN
p959
sbatp960
Rp961
(dp962
g12
VPP
p963
sbag0
(g1
g2
(lp964
V,
p965
atp966
Rp967
(dp968
g12
V,
p969
sbag0
(g1
g2
(lp970
g0
(g1
g2
(lp971
g0
(g1
g2
(lp972
Vapparently
p973
atp974
Rp975
(dp976
g12
VRB
p977
sbatp978
Rp979
(dp980
g12
VADVP
p981
sbag0
(g1
g2
(lp982
g0
(g1
g2
(lp983
Van
p984
atp985
Rp986
(dp987
g12
VDT
p988
sbag0
(g1
g2
(lp989
Vapron
p990
atp991
Rp992
(dp993
g12
VNN
p994
sbatp995
Rp996
(dp997
g12
VNP
p998
sbatp999
Rp1000
(dp1001
g12
VADVP
p1002
sbatp1003
Rp1004
(dp1005
g12
VVP
p1006
sbatp1007
Rp1008
(dp1009
g12
VS
p1010
sbatp1011
Rp1012
(dp1013
g12
VSBAR
p1014
sbag0
(g1
g2
(lp1015
V.
p1016
atp1017
Rp1018
(dp1019
g12
V.
p1020
sbatp1021
Rp1022
(dp1023
g12
VNP
p1024
sbatp1025
Rp1026
(dp1027
g12
S'id: 8'
p1028
sbag0
(g1
g2
(lp1029
g0
(g1
g2
(lp1030
g0
(g1
g2
(lp1031
g0
(g1
g2
(lp1032
g0
(g1
g2
(lp1033
VMaybe
p1034
atp1035
Rp1036
(dp1037
g12
VRB
p1038
sbatp1039
Rp1040
(dp1041
g12
VADVP
p1042
sbag0
(g1
g2
(lp1043
g0
(g1
g2
(lp1044
Vchocolate
p1045
atp1046
Rp1047
(dp1048
g12
VJJ
p1049
sbag0
(g1
g2
(lp1050
Vchip
p1051
atp1052
Rp1053
(dp1054
g12
VNN
p1055
sbag0
(g1
g2
(lp1056
Vcookies
p1057
atp1058
Rp1059
(dp1060
g12
VNNS
p1061
sbatp1062
Rp1063
(dp1064
g12
VNP
p1065
sbatp1066
Rp1067
(dp1068
g12
VS
p1069
sbag0
(g1
g2
(lp1070
V,
p1071
atp1072
Rp1073
(dp1074
g12
V,
p1075
sbag0
(g1
g2
(lp1076
g0
(g1
g2
(lp1077
VI
p1078
atp1079
Rp1080
(dp1081
g12
VPRP
p1082
sbatp1083
Rp1084
(dp1085
g12
VNP
p1086
sbag0
(g1
g2
(lp1087
g0
(g1
g2
(lp1088
Vcould
p1089
atp1090
Rp1091
(dp1092
g12
VMD
p1093
sbag0
(g1
g2
(lp1094
g0
(g1
g2
(lp1095
Vbe
p1096
atp1097
Rp1098
(dp1099
g12
VVB
p1100
sbag0
(g1
g2
(lp1101
g0
(g1
g2
(lp1102
Vprojecting
p1103
atp1104
Rp1105
(dp1106
g12
VVBG
p1107
sbatp1108
Rp1109
(dp1110
g12
VVP
p1111
sbatp1112
Rp1113
(dp1114
g12
VVP
p1115
sbatp1116
Rp1117
(dp1118
g12
VVP
p1119
sbag0
(g1
g2
(lp1120
V.
p1121
atp1122
Rp1123
(dp1124
g12
V.
p1125
sbatp1126
Rp1127
(dp1128
g12
VS
p1129
sbatp1130
Rp1131
(dp1132
g12
S'id: 9'
p1133
sbag0
(g1
g2
(lp1134
g0
(g1
g2
(lp1135
g0
(g1
g2
(lp1136
g0
(g1
g2
(lp1137
VThere
p1138
atp1139
Rp1140
(dp1141
g12
VEX
p1142
sbatp1143
Rp1144
(dp1145
g12
VNP
p1146
sbag0
(g1
g2
(lp1147
g0
(g1
g2
(lp1148
V's
p1149
atp1150
Rp1151
(dp1152
g12
VVBZ
p1153
sbag0
(g1
g2
(lp1154
g0
(g1
g2
(lp1155
g0
(g1
g2
(lp1156
Vsome
p1157
atp1158
Rp1159
(dp1160
g12
VDT
p1161
sbatp1162
Rp1163
(dp1164
g12
VNP
p1165
sbag0
(g1
g2
(lp1166
g0
(g1
g2
(lp1167
Vat
p1168
atp1169
Rp1170
(dp1171
g12
VIN
p1172
sbag0
(g1
g2
(lp1173
g0
(g1
g2
(lp1174
Vmy
p1175
atp1176
Rp1177
(dp1178
g12
VPRP$
p1179
sbag0
(g1
g2
(lp1180
Vhouse
p1181
atp1182
Rp1183
(dp1184
g12
VNN
p1185
sbatp1186
Rp1187
(dp1188
g12
VNP
p1189
sbatp1190
Rp1191
(dp1192
g12
VPP
p1193
sbatp1194
Rp1195
(dp1196
g12
VNP
p1197
sbatp1198
Rp1199
(dp1200
g12
VVP
p1201
sbag0
(g1
g2
(lp1202
V.
p1203
atp1204
Rp1205
(dp1206
g12
V.
p1207
sbatp1208
Rp1209
(dp1210
g12
VS
p1211
sbatp1212
Rp1213
(dp1214
g12
S'id: 10'
p1215
sbag0
(g1
g2
(lp1216
g0
(g1
g2
(lp1217
g0
(g1
g2
(lp1218
g0
(g1
g2
(lp1219
VThere
p1220
atp1221
Rp1222
(dp1223
g12
VEX
p1224
sbatp1225
Rp1226
(dp1227
g12
VNP
p1228
sbag0
(g1
g2
(lp1229
g0
(g1
g2
(lp1230
V's
p1231
atp1232
Rp1233
(dp1234
g12
VVBZ
p1235
sbag0
(g1
g2
(lp1236
g0
(g1
g2
(lp1237
g0
(g1
g2
(lp1238
Va
p1239
atp1240
Rp1241
(dp1242
g12
VDT
p1243
sbag0
(g1
g2
(lp1244
V90
p1245
atp1246
Rp1247
(dp1248
g12
VCD
p1249
sbag0
(g1
g2
(lp1250
Vdegree
p1251
atp1252
Rp1253
(dp1254
g12
VNN
p1255
sbag0
(g1
g2
(lp1256
Vangle
p1257
atp1258
Rp1259
(dp1260
g12
VNN
p1261
sbatp1262
Rp1263
(dp1264
g12
VNP
p1265
sbag0
(g1
g2
(lp1266
V,
p1267
atp1268
Rp1269
(dp1270
g12
V,
p1271
sbag0
(g1
g2
(lp1272
g0
(g1
g2
(lp1273
g0
(g1
g2
(lp1274
Vwhere
p1275
atp1276
Rp1277
(dp1278
g12
VWRB
p1279
sbatp1280
Rp1281
(dp1282
g12
VWHADVP
p1283
sbag0
(g1
g2
(lp1284
g0
(g1
g2
(lp1285
g0
(g1
g2
(lp1286
g0
(g1
g2
(lp1287
Vthe
p1288
atp1289
Rp1290
(dp1291
g12
VDT
p1292
sbag0
(g1
g2
(lp1293
Vcabinet
p1294
atp1295
Rp1296
(dp1297
g12
VNN
p1298
sbatp1299
Rp1300
(dp1301
g12
VNP
p1302
sbag0
(g1
g2
(lp1303
V,
p1304
atp1305
Rp1306
(dp1307
g12
V,
p1308
sbag0
(g1
g2
(lp1309
g0
(g1
g2
(lp1310
Vmeeches
p1311
atp1312
Rp1313
(dp1314
g12
VVBZ
p1315
sbag0
(g1
g2
(lp1316
g0
(g1
g2
(lp1317
Vthe
p1318
atp1319
Rp1320
(dp1321
g12
VDT
p1322
sbag0
(g1
g2
(lp1323
Vcounter
p1324
atp1325
Rp1326
(dp1327
g12
VNN
p1328
sbatp1329
Rp1330
(dp1331
g12
VNP
p1332
sbatp1333
Rp1334
(dp1335
g12
VVP
p1336
sbag0
(g1
g2
(lp1337
V,
p1338
atp1339
Rp1340
(dp1341
g12
V,
p1342
sbatp1343
Rp1344
(dp1345
g12
VNP
p1346
sbag0
(g1
g2
(lp1347
g0
(g1
g2
(lp1348
Vmeets
p1349
atp1350
Rp1351
(dp1352
g12
VVBZ
p1353
sbag0
(g1
g2
(lp1354
g0
(g1
g2
(lp1355
Vthe
p1356
atp1357
Rp1358
(dp1359
g12
VDT
p1360
sbag0
(g1
g2
(lp1361
Vcounter
p1362
atp1363
Rp1364
(dp1365
g12
VNN
p1366
sbatp1367
Rp1368
(dp1369
g12
VNP
p1370
sbag0
(g1
g2
(lp1371
V,
p1372
atp1373
Rp1374
(dp1375
g12
V,
p1376
sbag0
(g1
g2
(lp1377
g0
(g1
g2
(lp1378
Vright
p1379
atp1380
Rp1381
(dp1382
g12
VRB
p1383
sbag0
(g1
g2
(lp1384
Vthere
p1385
atp1386
Rp1387
(dp1388
g12
VRB
p1389
sbatp1390
Rp1391
(dp1392
g12
VADVP
p1393
sbatp1394
Rp1395
(dp1396
g12
VVP
p1397
sbatp1398
Rp1399
(dp1400
g12
VS
p1401
sbatp1402
Rp1403
(dp1404
g12
VSBAR
p1405
sbatp1406
Rp1407
(dp1408
g12
VNP
p1409
sbatp1410
Rp1411
(dp1412
g12
VVP
p1413
sbag0
(g1
g2
(lp1414
V.
p1415
atp1416
Rp1417
(dp1418
g12
V.
p1419
sbatp1420
Rp1421
(dp1422
g12
VS
p1423
sbatp1424
Rp1425
(dp1426
g12
S'id: 11'
p1427
sbag0
(g1
g2
(lp1428
g0
(g1
g2
(lp1429
g0
(g1
g2
(lp1430
g0
(g1
g2
(lp1431
VMom
p1432
atp1433
Rp1434
(dp1435
g12
VNN
p1436
sbatp1437
Rp1438
(dp1439
g12
VNP
p1440
sbag0
(g1
g2
(lp1441
g0
(g1
g2
(lp1442
Vhas
p1443
atp1444
Rp1445
(dp1446
g12
VVBZ
p1447
sbag0
(g1
g2
(lp1448
g0
(g1
g2
(lp1449
Vgot
p1450
atp1451
Rp1452
(dp1453
g12
VVBN
p1454
sbag0
(g1
g2
(lp1455
g0
(g1
g2
(lp1456
Vshort
p1457
atp1458
Rp1459
(dp1460
g12
VJJ
p1461
sbag0
(g1
g2
(lp1462
Vhair
p1463
atp1464
Rp1465
(dp1466
g12
VNN
p1467
sbatp1468
Rp1469
(dp1470
g12
VNP
p1471
sbatp1472
Rp1473
(dp1474
g12
VVP
p1475
sbatp1476
Rp1477
(dp1478
g12
VVP
p1479
sbag0
(g1
g2
(lp1480
V.
p1481
atp1482
Rp1483
(dp1484
g12
V.
p1485
sbatp1486
Rp1487
(dp1488
g12
VS
p1489
sbatp1490
Rp1491
(dp1492
g12
S'id: 12'
p1493
sbag0
(g1
g2
(lp1494
g0
(g1
g2
(lp1495
g0
(g1
g2
(lp1496
g0
(g1
g2
(lp1497
VThe
p1498
atp1499
Rp1500
(dp1501
g12
VDT
p1502
sbag0
(g1
g2
(lp1503
Vson
p1504
atp1505
Rp1506
(dp1507
g12
VNN
p1508
sbag0
(g1
g2
(lp1509
V's
p1510
atp1511
Rp1512
(dp1513
g12
VPOS
p1514
sbatp1515
Rp1516
(dp1517
g12
VNP
p1518
sbag0
(g1
g2
(lp1519
g0
(g1
g2
(lp1520
Vgot
p1521
atp1522
Rp1523
(dp1524
g12
VVBD
p1525
sbag0
(g1
g2
(lp1526
g0
(g1
g2
(lp1527
Vdark
p1528
atp1529
Rp1530
(dp1531
g12
VJJ
p1532
sbag0
(g1
g2
(lp1533
Vhair
p1534
atp1535
Rp1536
(dp1537
g12
VNN
p1538
sbatp1539
Rp1540
(dp1541
g12
VNP
p1542
sbatp1543
Rp1544
(dp1545
g12
VVP
p1546
sbag0
(g1
g2
(lp1547
V.
p1548
atp1549
Rp1550
(dp1551
g12
V.
p1552
sbatp1553
Rp1554
(dp1555
g12
VS
p1556
sbatp1557
Rp1558
(dp1559
g12
S'id: 13'
p1560
sbag0
(g1
g2
(lp1561
g0
(g1
g2
(lp1562
g0
(g1
g2
(lp1563
g0
(g1
g2
(lp1564
VI
p1565
atp1566
Rp1567
(dp1568
g12
VPRP
p1569
sbatp1570
Rp1571
(dp1572
g12
VNP
p1573
sbag0
(g1
g2
(lp1574
g0
(g1
g2
(lp1575
V'm
p1576
atp1577
Rp1578
(dp1579
g12
VVBP
p1580
sbag0
(g1
g2
(lp1581
g0
(g1
g2
(lp1582
Vassuming
p1583
atp1584
Rp1585
(dp1586
g12
VVBG
p1587
sbag0
(g1
g2
(lp1588
g0
(g1
g2
(lp1589
g0
(g1
g2
(lp1590
g0
(g1
g2
(lp1591
Vthe
p1592
atp1593
Rp1594
(dp1595
g12
VDT
p1596
sbag0
(g1
g2
(lp1597
Vdaughter
p1598
atp1599
Rp1600
(dp1601
g12
VNN
p1602
sbatp1603
Rp1604
(dp1605
g12
VNP
p1606
sbag0
(g1
g2
(lp1607
g0
(g1
g2
(lp1608
Vis
p1609
atp1610
Rp1611
(dp1612
g12
VVBZ
p1613
sbag0
(g1
g2
(lp1614
g0
(g1
g2
(lp1615
Vblonde
p1616
atp1617
Rp1618
(dp1619
g12
VJJ
p1620
sbatp1621
Rp1622
(dp1623
g12
VADJP
p1624
sbatp1625
Rp1626
(dp1627
g12
VVP
p1628
sbatp1629
Rp1630
(dp1631
g12
VS
p1632
sbatp1633
Rp1634
(dp1635
g12
VSBAR
p1636
sbatp1637
Rp1638
(dp1639
g12
VVP
p1640
sbatp1641
Rp1642
(dp1643
g12
VVP
p1644
sbag0
(g1
g2
(lp1645
V.
p1646
atp1647
Rp1648
(dp1649
g12
V.
p1650
sbatp1651
Rp1652
(dp1653
g12
VS
p1654
sbatp1655
Rp1656
(dp1657
g12
S'id: 14'
p1658
sbag0
(g1
g2
(lp1659
g0
(g1
g2
(lp1660
g0
(g1
g2
(lp1661
g0
(g1
g2
(lp1662
g0
(g1
g2
(lp1663
VThe
p1664
atp1665
Rp1666
(dp1667
g12
VDT
p1668
sbag0
(g1
g2
(lp1669
Vson
p1670
atp1671
Rp1672
(dp1673
g12
VNN
p1674
sbatp1675
Rp1676
(dp1677
g12
VNP
p1678
sbag0
(g1
g2
(lp1679
g0
(g1
g2
(lp1680
Vis
p1681
atp1682
Rp1683
(dp1684
g12
VVBZ
p1685
sbag0
(g1
g2
(lp1686
g0
(g1
g2
(lp1687
Vwearing
p1688
atp1689
Rp1690
(dp1691
g12
VVBG
p1692
sbag0
(g1
g2
(lp1693
g0
(g1
g2
(lp1694
Vtennis
p1695
atp1696
Rp1697
(dp1698
g12
VNN
p1699
sbag0
(g1
g2
(lp1700
Vshoes
p1701
atp1702
Rp1703
(dp1704
g12
VNNS
p1705
sbatp1706
Rp1707
(dp1708
g12
VNP
p1709
sbatp1710
Rp1711
(dp1712
g12
VVP
p1713
sbatp1714
Rp1715
(dp1716
g12
VVP
p1717
sbatp1718
Rp1719
(dp1720
g12
VS
p1721
sbag0
(g1
g2
(lp1722
V,
p1723
atp1724
Rp1725
(dp1726
g12
V,
p1727
sbag0
(g1
g2
(lp1728
g0
(g1
g2
(lp1729
Vmom
p1730
atp1731
Rp1732
(dp1733
g12
VNN
p1734
sbatp1735
Rp1736
(dp1737
g12
VNP
p1738
sbag0
(g1
g2
(lp1739
g0
(g1
g2
(lp1740
Vis
p1741
atp1742
Rp1743
(dp1744
g12
VVBZ
p1745
sbag0
(g1
g2
(lp1746
g0
(g1
g2
(lp1747
Vwearing
p1748
atp1749
Rp1750
(dp1751
g12
VVBG
p1752
sbag0
(g1
g2
(lp1753
g0
(g1
g2
(lp1754
Vheels
p1755
atp1756
Rp1757
(dp1758
g12
VNNS
p1759
sbatp1760
Rp1761
(dp1762
g12
VNP
p1763
sbatp1764
Rp1765
(dp1766
g12
VVP
p1767
sbatp1768
Rp1769
(dp1770
g12
VVP
p1771
sbag0
(g1
g2
(lp1772
V.
p1773
atp1774
Rp1775
(dp1776
g12
V.
p1777
sbatp1778
Rp1779
(dp1780
g12
VS
p1781
sbatp1782
Rp1783
(dp1784
g12
S'id: 15'
p1785
sbag0
(g1
g2
(lp1786
g0
(g1
g2
(lp1787
g0
(g1
g2
(lp1788
g0
(g1
g2
(lp1789
VThe
p1790
atp1791
Rp1792
(dp1793
g12
VDT
p1794
sbag0
(g1
g2
(lp1795
Vtwo
p1796
atp1797
Rp1798
(dp1799
g12
VCD
p1800
sbag0
(g1
g2
(lp1801
Vchildren
p1802
atp1803
Rp1804
(dp1805
g12
VNNS
p1806
sbatp1807
Rp1808
(dp1809
g12
VNP
p1810
sbag0
(g1
g2
(lp1811
g0
(g1
g2
(lp1812
Vhave
p1813
atp1814
Rp1815
(dp1816
g12
VVBP
p1817
sbag0
(g1
g2
(lp1818
g0
(g1
g2
(lp1819
Vsocks
p1820
atp1821
Rp1822
(dp1823
g12
VNNS
p1824
sbatp1825
Rp1826
(dp1827
g12
VNP
p1828
sbag0
(g1
g2
(lp1829
g0
(g1
g2
(lp1830
Von
p1831
atp1832
Rp1833
(dp1834
g12
VIN
p1835
sbatp1836
Rp1837
(dp1838
g12
VPP
p1839
sbatp1840
Rp1841
(dp1842
g12
VVP
p1843
sbag0
(g1
g2
(lp1844
V.
p1845
atp1846
Rp1847
(dp1848
g12
V.
p1849
sbatp1850
Rp1851
(dp1852
g12
VS
p1853
sbatp1854
Rp1855
(dp1856
g12
S'id: 16'
p1857
sbatp1858
Rp1859
(dp1860
g12
S'sentences'
p1861
sb.