ccopy_reg
_reconstructor
p0
(cnltk.tree
Tree
p1
c__builtin__
list
p2
(lp3
g0
(g1
g2
(lp4
tp5
Rp6
(dp7
S'_label'
p8
S'id: 0'
p9
sbag0
(g1
g2
(lp10
g0
(g1
g2
(lp11
g0
(g1
g2
(lp12
g0
(g1
g2
(lp13
g0
(g1
g2
(lp14
g0
(g1
g2
(lp15
g0
(g1
g2
(lp16
(lp17
S'word: the, index: 4'
p18
aatp19
Rp20
(dp21
g8
Vdet
p22
sbatp23
Rp24
(dp25
g8
S'word: dishes, index: 5'
p26
sbatp27
Rp28
(dp29
g8
Vdobj
p30
sbag0
(g1
g2
(lp31
(lp32
S"word: 's, index: 2"
p33
aatp34
Rp35
(dp36
g8
Vnsubj
p37
sbatp38
Rp39
(dp40
g8
S'word: washing, index: 3'
p41
sbatp42
Rp43
(dp44
g8
Vdep
p45
sbatp46
Rp47
(dp48
g8
S'word: Mom, index: 1'
p49
sbatp50
Rp51
(dp52
g8
S'id: 1'
p53
sbag0
(g1
g2
(lp54
g0
(g1
g2
(lp55
g0
(g1
g2
(lp56
g0
(g1
g2
(lp57
g0
(g1
g2
(lp58
(lp59
S'word: The, index: 1'
p60
aatp61
Rp62
(dp63
g8
Vdet
p64
sbatp65
Rp66
(dp67
g8
S'word: sink, index: 2'
p68
sbatp69
Rp70
(dp71
g8
Vnsubj
p72
sbag0
(g1
g2
(lp73
(lp74
S'word: is, index: 3'
p75
aatp76
Rp77
(dp78
g8
Vaux
p79
sbag0
(g1
g2
(lp80
(lp81
S'word: over, index: 5'
p82
aatp83
Rp84
(dp85
g8
Vprt
p86
sbatp87
Rp88
(dp89
g8
S'word: running, index: 4'
p90
sbatp91
Rp92
(dp93
g8
S'id: 2'
p94
sbag0
(g1
g2
(lp95
g0
(g1
g2
(lp96
g0
(g1
g2
(lp97
g0
(g1
g2
(lp98
g0
(g1
g2
(lp99
(lp100
S'word: the, index: 11'
p101
aatp102
Rp103
(dp104
g8
Vdet
p105
sbag0
(g1
g2
(lp106
(lp107
S'word: about, index: 14'
p108
aatp109
Rp110
(dp111
g8
Vprep
p112
sbatp113
Rp114
(dp115
g8
S'word: boy, index: 12'
p116
sbatp117
Rp118
(dp119
g8
Vprep
p120
sbag0
(g1
g2
(lp121
g0
(g1
g2
(lp122
g0
(g1
g2
(lp123
(lp124
S'word: to, index: 15'
p125
aatp126
Rp127
(dp128
g8
Vaux
p129
sbatp130
Rp131
(dp132
g8
S'word: fall, index: 16'
p133
sbatp134
Rp135
(dp136
g8
Vxcomp
p137
sbag0
(g1
g2
(lp138
g0
(g1
g2
(lp139
g0
(g1
g2
(lp140
(lp141
S'word: The, index: 1'
p142
aatp143
Rp144
(dp145
g8
Vdet
p146
sbatp147
Rp148
(dp149
g8
S'word: kids, index: 2'
p150
sbatp151
Rp152
(dp153
g8
Vnsubj
p154
sbag0
(g1
g2
(lp155
(lp156
S'word: are, index: 3'
p157
aatp158
Rp159
(dp160
g8
Vaux
p161
sbag0
(g1
g2
(lp162
g0
(g1
g2
(lp163
g0
(g1
g2
(lp164
g114
atp165
Rp166
(dp167
g8
Vconj
p168
sbag0
(g1
g2
(lp169
(lp170
S'word: the, index: 6'
p171
aatp172
Rp173
(dp174
g8
Vdet
p175
sbag0
(g1
g2
(lp176
(lp177
S'word: cookie, index: 7'
p178
aatp179
Rp180
(dp181
g8
Vnn
p182
sbatp183
Rp184
(dp185
g8
S'word: jar, index: 8'
p186
sbatp187
Rp188
(dp189
g8
Vprep
p190
sbatp191
Rp192
(dp193
g8
S'word: getting, index: 4'
p194
sbatp195
Rp196
(dp197
g8
S'id: 3'
p198
sbag0
(g1
g2
(lp199
g0
(g1
g2
(lp200
g0
(g1
g2
(lp201
(lp202
S'word: He, index: 1'
p203
aatp204
Rp205
(dp206
g8
Vnsubj
p207
sbag0
(g1
g2
(lp208
(lp209
S"word: 's, index: 2"
p210
aatp211
Rp212
(dp213
g8
Vaux
p214
sbag0
(g1
g2
(lp215
g0
(g1
g2
(lp216
g0
(g1
g2
(lp217
(lp218
S'word: the, index: 4'
p219
aatp220
Rp221
(dp222
g8
Vdet
p223
sbatp224
Rp225
(dp226
g8
S'word: cookies, index: 5'
p227
sbatp228
Rp229
(dp230
g8
Vdobj
p231
sbag0
(g1
g2
(lp232
g0
(g1
g2
(lp233
g0
(g1
g2
(lp234
g0
(g1
g2
(lp235
g0
(g1
g2
(lp236
(lp237
S'word: the, index: 8'
p238
aatp239
Rp240
(dp241
g8
Vdet
p242
sbatp243
Rp244
(dp245
g8
S'word: girl, index: 9'
p246
sbatp247
Rp248
(dp249
g8
Vprep
p250
sbatp251
Rp252
(dp253
g8
S'word: down, index: 6'
p254
sbatp255
Rp256
(dp257
g8
Vadvmod
p258
sbatp259
Rp260
(dp261
g8
S'word: handing, index: 3'
p262
sbatp263
Rp264
(dp265
g8
S'id: 4'
p266
sbag0
(g1
g2
(lp267
g0
(g1
g2
(lp268
g0
(g1
g2
(lp269
(lp270
S'word: It, index: 1'
p271
aatp272
Rp273
(dp274
g8
Vnsubj
p275
sbag0
(g1
g2
(lp276
g0
(g1
g2
(lp277
g0
(g1
g2
(lp278
(lp279
S'word: to, index: 3'
p280
aatp281
Rp282
(dp283
g8
Vaux
p284
sbag0
(g1
g2
(lp285
(lp286
S'word: maybe, index: 5'
p287
aatp288
Rp289
(dp290
g8
Vadvmod
p291
sbag0
(g1
g2
(lp292
g0
(g1
g2
(lp293
g0
(g1
g2
(lp294
(lp295
S'word: summer, index: 6'
p296
aatp297
Rp298
(dp299
g8
Vnn
p300
sbatp301
Rp302
(dp303
g8
S'word: time, index: 7'
p304
sbatp305
Rp306
(dp307
g8
Vtmod
p308
sbatp309
Rp310
(dp311
g8
S'word: be, index: 4'
p312
sbatp313
Rp314
(dp315
g8
Vxcomp
p316
sbag0
(g1
g2
(lp317
g0
(g1
g2
(lp318
g0
(g1
g2
(lp319
g0
(g1
g2
(lp320
g0
(g1
g2
(lp321
g0
(g1
g2
(lp322
g0
(g1
g2
(lp323
g0
(g1
g2
(lp324
g0
(g1
g2
(lp325
(lp326
S'word: the, index: 16'
p327
aatp328
Rp329
(dp330
g8
Vdet
p331
sbatp332
Rp333
(dp334
g8
S'word: window, index: 17'
p335
sbatp336
Rp337
(dp338
g8
Vnsubj
p339
sbatp340
Rp341
(dp342
g8
S'word: open, index: 18'
p343
sbatp344
Rp345
(dp346
g8
Vxcomp
p347
sbag0
(g1
g2
(lp348
(lp349
S'word: she, index: 13'
p350
aatp351
Rp352
(dp353
g8
Vnsubjpass
p354
sbag0
(g1
g2
(lp355
(lp356
S"word: 's, index: 14"
p357
aatp358
Rp359
(dp360
g8
Vauxpass
p361
sbatp362
Rp363
(dp364
g8
S'word: got, index: 15'
p365
sbatp366
Rp367
(dp368
g8
Vccomp
p369
sbag0
(g1
g2
(lp370
g0
(g1
g2
(lp371
g0
(g1
g2
(lp372
(lp373
S'word: spring, index: 10'
p374
aatp375
Rp376
(dp377
g8
Vnn
p378
sbatp379
Rp380
(dp381
g8
S'word: time, index: 11'
p382
sbatp383
Rp384
(dp385
g8
Vnsubj
p386
sbatp387
Rp388
(dp389
g8
S"word: 'cause, index: 12"
p390
sbatp391
Rp392
(dp393
g8
Vconj
p394
sbatp395
Rp396
(dp397
g8
S'word: appears, index: 2'
p398
sbatp399
Rp400
(dp401
g8
S'id: 5'
p402
sbag0
(g1
g2
(lp403
g0
(g1
g2
(lp404
g0
(g1
g2
(lp405
(lp406
S"word: 's, index: 2"
p407
aatp408
Rp409
(dp410
g8
Vcop
p411
sbag0
(g1
g2
(lp412
g0
(g1
g2
(lp413
g0
(g1
g2
(lp414
g0
(g1
g2
(lp415
g0
(g1
g2
(lp416
(lp417
S'word: the, index: 5'
p418
aatp419
Rp420
(dp421
g8
Vdet
p422
sbag0
(g1
g2
(lp423
g0
(g1
g2
(lp424
g0
(g1
g2
(lp425
g0
(g1
g2
(lp426
g0
(g1
g2
(lp427
(lp428
S'word: to, index: 8'
p429
aatp430
Rp431
(dp432
g8
Vaux
p433
sbag0
(g1
g2
(lp434
(lp435
S'word: over, index: 10'
p436
aatp437
Rp438
(dp439
g8
Vprt
p440
sbatp441
Rp442
(dp443
g8
S'word: run, index: 9'
p444
sbatp445
Rp446
(dp447
g8
Vxcomp
p448
sbatp449
Rp450
(dp451
g8
S'word: about, index: 7'
p452
sbatp453
Rp454
(dp455
g8
Vdep
p456
sbatp457
Rp458
(dp459
g8
S'word: sinks, index: 6'
p460
sbatp461
Rp462
(dp463
g8
Vdobj
p464
sbatp465
Rp466
(dp467
g8
S'word: realize, index: 4'
p468
sbatp469
Rp470
(dp471
g8
Vccomp
p472
sbag0
(g1
g2
(lp473
g0
(g1
g2
(lp474
g0
(g1
g2
(lp475
(lp476
S'word: now, index: 12'
p477
aatp478
Rp479
(dp480
g8
Vadvmod
p481
sbag0
(g1
g2
(lp482
(lp483
S'word: they, index: 13'
p484
aatp485
Rp486
(dp487
g8
Vnsubj
p488
sbag0
(g1
g2
(lp489
(lp490
S"word: 're, index: 14"
p491
aatp492
Rp493
(dp494
g8
Vaux
p495
sbag0
(g1
g2
(lp496
g0
(g1
g2
(lp497
g0
(g1
g2
(lp498
g0
(g1
g2
(lp499
g0
(g1
g2
(lp500
(lp501
S'word: ta, index: 18'
p502
aatp503
Rp504
(dp505
g8
Vnsubj
p506
sbag0
(g1
g2
(lp507
g0
(g1
g2
(lp508
g0
(g1
g2
(lp509
(lp510
S'word: the, index: 20'
p511
aatp512
Rp513
(dp514
g8
Vdet
p515
sbatp516
Rp517
(dp518
g8
S'word: floor, index: 21'
p519
sbatp520
Rp521
(dp522
g8
Vdobj
p523
sbatp524
Rp525
(dp526
g8
S'word: mop, index: 19'
p527
sbatp528
Rp529
(dp530
g8
Vccomp
p531
sbag0
(g1
g2
(lp532
(lp533
S'word: na, index: 16'
p534
aatp535
Rp536
(dp537
g8
Vaux
p538
sbatp539
Rp540
(dp541
g8
S'word: have, index: 17'
p542
sbatp543
Rp544
(dp545
g8
Vxcomp
p546
sbatp547
Rp548
(dp549
g8
S'word: gon, index: 15'
p550
sbatp551
Rp552
(dp553
g8
Vparataxis
p554
sbag0
(g1
g2
(lp555
(lp556
S'word: She, index: 1'
p557
aatp558
Rp559
(dp560
g8
Vnsubj
p561
sbatp562
Rp563
(dp564
g8
S'word: doesnt, index: 3'
p565
sbatp566
Rp567
(dp568
g8
S'id: 6'
p569
sbag0
(g1
g2
(lp570
g0
(g1
g2
(lp571
g0
(g1
g2
(lp572
(lp573
S'word: can, index: 7'
p574
aatp575
Rp576
(dp577
g8
Vaux
p578
sbag0
(g1
g2
(lp579
g0
(g1
g2
(lp580
g0
(g1
g2
(lp581
(lp582
S'word: that, index: 10'
p583
aatp584
Rp585
(dp586
g8
Vdet
p587
sbatp588
Rp589
(dp590
g8
S'word: picture, index: 11'
p591
sbatp592
Rp593
(dp594
g8
Vprep
p595
sbag0
(g1
g2
(lp596
g0
(g1
g2
(lp597
g0
(g1
g2
(lp598
g0
(g1
g2
(lp599
g0
(g1
g2
(lp600
(lp601
S'word: that, index: 2'
p602
aatp603
Rp604
(dp605
g8
Vnsubj
p606
sbag0
(g1
g2
(lp607
(lp608
S"word: 's, index: 3"
p609
aatp610
Rp611
(dp612
g8
Vcop
p613
sbag0
(g1
g2
(lp614
g0
(g1
g2
(lp615
g0
(g1
g2
(lp616
(lp617
S'word: all, index: 5'
p618
aatp619
Rp620
(dp621
g8
Vdep
p622
sbatp623
Rp624
(dp625
g8
S'word: about, index: 4'
p626
sbatp627
Rp628
(dp629
g8
Vadvmod
p630
sbatp631
Rp632
(dp633
g8
S'word: I, index: 6'
p634
sbatp635
Rp636
(dp637
g8
Vdep
p638
sbatp639
Rp640
(dp641
g8
S'word: An, index: 1'
p642
sbatp643
Rp644
(dp645
g8
Vnsubj
p646
sbatp647
Rp648
(dp649
g8
S'word: think, index: 8'
p650
sbatp651
Rp652
(dp653
g8
S'id: 7'
p654
sbatp655
Rp656
(dp657
g8
S'sentences'
p658
sb.