ccopy_reg
_reconstructor
p0
(cnltk.tree
Tree
p1
c__builtin__
list
p2
(lp3
g0
(g1
g2
(lp4
g0
(g1
g2
(lp5
g0
(g1
g2
(lp6
g0
(g1
g2
(lp7
VI
p8
atp9
Rp10
(dp11
S'_label'
p12
VPRP
p13
sbatp14
Rp15
(dp16
g12
VNP
p17
sbag0
(g1
g2
(lp18
g0
(g1
g2
(lp19
Vthink
p20
atp21
Rp22
(dp23
g12
VVBP
p24
sbag0
(g1
g2
(lp25
g0
(g1
g2
(lp26
Va
p27
atp28
Rp29
(dp30
g12
VDT
p31
sbag0
(g1
g2
(lp32
Vcircus
p33
atp34
Rp35
(dp36
g12
VNN
p37
sbatp38
Rp39
(dp40
g12
VNP
p41
sbatp42
Rp43
(dp44
g12
VVP
p45
sbag0
(g1
g2
(lp46
V.
p47
atp48
Rp49
(dp50
g12
V.
p51
sbatp52
Rp53
(dp54
g12
VS
p55
sbatp56
Rp57
(dp58
g12
S'id: 0'
p59
sbag0
(g1
g2
(lp60
g0
(g1
g2
(lp61
g0
(g1
g2
(lp62
g0
(g1
g2
(lp63
VClowns
p64
atp65
Rp66
(dp67
g12
VNNS
p68
sbatp69
Rp70
(dp71
g12
VNP
p72
sbag0
(g1
g2
(lp73
V,
p74
atp75
Rp76
(dp77
g12
V,
p78
sbag0
(g1
g2
(lp79
g0
(g1
g2
(lp80
g0
(g1
g2
(lp81
Vnice
p82
atp83
Rp84
(dp85
g12
VJJ
p86
sbag0
(g1
g2
(lp87
Vtables
p88
atp89
Rp90
(dp91
g12
VNNS
p92
sbatp93
Rp94
(dp95
g12
VNP
p96
sbag0
(g1
g2
(lp97
V,
p98
atp99
Rp100
(dp101
g12
V,
p102
sbag0
(g1
g2
(lp103
g0
(g1
g2
(lp104
Vlions
p105
atp106
Rp107
(dp108
g12
VNNS
p109
sbatp110
Rp111
(dp112
g12
VNP
p113
sbatp114
Rp115
(dp116
g12
VNP
p117
sbag0
(g1
g2
(lp118
V.
p119
atp120
Rp121
(dp122
g12
V.
p123
sbatp124
Rp125
(dp126
g12
VNP
p127
sbatp128
Rp129
(dp130
g12
S'id: 1'
p131
sbag0
(g1
g2
(lp132
g0
(g1
g2
(lp133
g0
(g1
g2
(lp134
g0
(g1
g2
(lp135
VWhat
p136
atp137
Rp138
(dp139
g12
VWP
p140
sbatp141
Rp142
(dp143
g12
VWHNP
p144
sbag0
(g1
g2
(lp145
g0
(g1
g2
(lp146
g0
(g1
g2
(lp147
Va
p148
atp149
Rp150
(dp151
g12
VDT
p152
sbatp153
Rp154
(dp155
g12
VNP
p156
sbag0
(g1
g2
(lp157
V,
p158
atp159
Rp160
(dp161
g12
V,
p162
sbag0
(g1
g2
(lp163
g0
(g1
g2
(lp164
Vwhat
p165
atp166
Rp167
(dp168
g12
VWP
p169
sbatp170
Rp171
(dp172
g12
VX
p173
sbag0
(g1
g2
(lp174
g0
(g1
g2
(lp175
Vyou
p176
atp177
Rp178
(dp179
g12
VPRP
p180
sbatp181
Rp182
(dp183
g12
VNP
p184
sbag0
(g1
g2
(lp185
g0
(g1
g2
(lp186
Vcall
p187
atp188
Rp189
(dp190
g12
VVBP
p191
sbag0
(g1
g2
(lp192
g0
(g1
g2
(lp193
Vit
p194
atp195
Rp196
(dp197
g12
VPRP
p198
sbatp199
Rp200
(dp201
g12
VNP
p202
sbatp203
Rp204
(dp205
g12
VVP
p206
sbatp207
Rp208
(dp209
g12
VS
p210
sbatp211
Rp212
(dp213
g12
VSBAR
p214
sbatp215
Rp216
(dp217
g12
S'id: 2'
p218
sbatp219
Rp220
(dp221
g12
S'sentences'
p222
sb.