ccopy_reg
_reconstructor
p0
(cnltk.tree
Tree
p1
c__builtin__
list
p2
(lp3
g0
(g1
g2
(lp4
g0
(g1
g2
(lp5
g0
(g1
g2
(lp6
g0
(g1
g2
(lp7
Vo
p8
atp9
Rp10
(dp11
S'_label'
p12
VNN
p13
sbatp14
Rp15
(dp16
g12
VNP
p17
sbag0
(g1
g2
(lp18
g0
(g1
g2
(lp19
Vyeah
p20
atp21
Rp22
(dp23
g12
VNN
p24
sbatp25
Rp26
(dp27
g12
VNP
p28
sbag0
(g1
g2
(lp29
V.
p30
atp31
Rp32
(dp33
g12
V.
p34
sbatp35
Rp36
(dp37
g12
VNP
p38
sbatp39
Rp40
(dp41
g12
S'id: 0'
p42
sbag0
(g1
g2
(lp43
g0
(g1
g2
(lp44
g0
(g1
g2
(lp45
g0
(g1
g2
(lp46
Vo.
p47
atp48
Rp49
(dp50
g12
VNN
p51
sbag0
(g1
g2
(lp52
Vtikie
p53
atp54
Rp55
(dp56
g12
VNN
p57
sbatp58
Rp59
(dp60
g12
VNP
p61
sbag0
(g1
g2
(lp62
V,
p63
atp64
Rp65
(dp66
g12
V,
p67
sbag0
(g1
g2
(lp68
g0
(g1
g2
(lp69
Vta
p70
atp71
Rp72
(dp73
g12
VNN
p74
sbatp75
Rp76
(dp77
g12
VNP
p78
sbag0
(g1
g2
(lp79
V.
p80
atp81
Rp82
(dp83
g12
V.
p84
sbatp85
Rp86
(dp87
g12
VNP
p88
sbatp89
Rp90
(dp91
g12
S'id: 1'
p92
sbag0
(g1
g2
(lp93
g0
(g1
g2
(lp94
g0
(g1
g2
(lp95
g0
(g1
g2
(lp96
Vw.
p97
atp98
Rp99
(dp100
g12
VNNP
p101
sbatp102
Rp103
(dp104
g12
VNP
p105
sbag0
(g1
g2
(lp106
g0
(g1
g2
(lp107
g0
(g1
g2
(lp108
Vkite
p109
atp110
Rp111
(dp112
g12
VNN
p113
sbag0
(g1
g2
(lp114
Vka
p115
atp116
Rp117
(dp118
g12
VFW
p119
sbag0
(g1
g2
(lp120
Vka
p121
atp122
Rp123
(dp124
g12
VFW
p125
sbag0
(g1
g2
(lp126
Vka
p127
atp128
Rp129
(dp130
g12
VFW
p131
sbag0
(g1
g2
(lp132
Vka
p133
atp134
Rp135
(dp136
g12
VFW
p137
sbag0
(g1
g2
(lp138
Vka
p139
atp140
Rp141
(dp142
g12
VFW
p143
sbatp144
Rp145
(dp146
g12
VNP
p147
sbag0
(g1
g2
(lp148
g0
(g1
g2
(lp149
Vkite
p150
atp151
Rp152
(dp153
g12
VNN
p154
sbag0
(g1
g2
(lp155
Vkike
p156
atp157
Rp158
(dp159
g12
VNN
p160
sbag0
(g1
g2
(lp161
Vkike
p162
atp163
Rp164
(dp165
g12
VNN
p166
sbatp167
Rp168
(dp169
g12
VNP
p170
sbatp171
Rp172
(dp173
g12
VNP
p174
sbag0
(g1
g2
(lp175
V.
p176
atp177
Rp178
(dp179
g12
V.
p180
sbatp181
Rp182
(dp183
g12
VNP
p184
sbatp185
Rp186
(dp187
g12
S'id: 2'
p188
sbag0
(g1
g2
(lp189
g0
(g1
g2
(lp190
g0
(g1
g2
(lp191
g0
(g1
g2
(lp192
Vshufa
p193
atp194
Rp195
(dp196
g12
VNN
p197
sbag0
(g1
g2
(lp198
Vsss
p199
atp200
Rp201
(dp202
g12
VNN
p203
sbag0
(g1
g2
(lp204
Vsifing
p205
atp206
Rp207
(dp208
g12
VNN
p209
sbag0
(g1
g2
(lp210
Vsifing
p211
atp212
Rp213
(dp214
g12
VNN
p215
sbag0
(g1
g2
(lp216
Vfishing
p217
atp218
Rp219
(dp220
g12
VNN
p221
sbatp222
Rp223
(dp224
g12
VNP
p225
sbag0
(g1
g2
(lp226
g0
(g1
g2
(lp227
Vfishing
p228
atp229
Rp230
(dp231
g12
VNN
p232
sbag0
(g1
g2
(lp233
g0
(g1
g2
(lp234
Vfishing
p235
atp236
Rp237
(dp238
g12
VNN
p239
sbatp240
Rp241
(dp242
g12
VNP
p243
sbatp244
Rp245
(dp246
g12
VPP
p247
sbag0
(g1
g2
(lp248
V.
p249
atp250
Rp251
(dp252
g12
V.
p253
sbatp254
Rp255
(dp256
g12
VNP
p257
sbatp258
Rp259
(dp260
g12
S'id: 3'
p261
sbag0
(g1
g2
(lp262
g0
(g1
g2
(lp263
g0
(g1
g2
(lp264
g0
(g1
g2
(lp265
Vwa
p266
atp267
Rp268
(dp269
g12
VNN
p270
sbatp271
Rp272
(dp273
g12
VNP
p274
sbag0
(g1
g2
(lp275
g0
(g1
g2
(lp276
g0
(g1
g2
(lp277
Vwa
p278
atp279
Rp280
(dp281
g12
VNN
p282
sbag0
(g1
g2
(lp283
Vwifing
p284
atp285
Rp286
(dp287
g12
VNN
p288
sbatp289
Rp290
(dp291
g12
VNP
p292
sbag0
(g1
g2
(lp293
V,
p294
atp295
Rp296
(dp297
g12
V,
p298
sbag0
(g1
g2
(lp299
Vand
p300
atp301
Rp302
(dp303
g12
VCC
p304
sbag0
(g1
g2
(lp305
g0
(g1
g2
(lp306
Vgog
p307
atp308
Rp309
(dp310
g12
VNN
p311
sbatp312
Rp313
(dp314
g12
VNP
p315
sbatp316
Rp317
(dp318
g12
VNP
p319
sbag0
(g1
g2
(lp320
V.
p321
atp322
Rp323
(dp324
g12
V.
p325
sbatp326
Rp327
(dp328
g12
VNP
p329
sbatp330
Rp331
(dp332
g12
S'id: 4'
p333
sbag0
(g1
g2
(lp334
g0
(g1
g2
(lp335
g0
(g1
g2
(lp336
g0
(g1
g2
(lp337
g0
(g1
g2
(lp338
Va
p339
atp340
Rp341
(dp342
g12
VDT
p343
sbag0
(g1
g2
(lp344
Vbog
p345
atp346
Rp347
(dp348
g12
VNN
p349
sbag0
(g1
g2
(lp350
Vdog
p351
atp352
Rp353
(dp354
g12
VNN
p355
sbag0
(g1
g2
(lp356
Vdog
p357
atp358
Rp359
(dp360
g12
VNN
p361
sbatp362
Rp363
(dp364
g12
VNP
p365
sbag0
(g1
g2
(lp366
g0
(g1
g2
(lp367
Vdog
p368
atp369
Rp370
(dp371
g12
VNN
p372
sbag0
(g1
g2
(lp373
Vand
p374
atp375
Rp376
(dp377
g12
VCC
p378
sbag0
(g1
g2
(lp379
Va
p380
atp381
Rp382
(dp383
g12
VDT
p384
sbatp385
Rp386
(dp387
g12
VNP
p388
sbatp389
Rp390
(dp391
g12
VNP-TMP
p392
sbag0
(g1
g2
(lp393
V,
p394
atp395
Rp396
(dp397
g12
V,
p398
sbag0
(g1
g2
(lp399
g0
(g1
g2
(lp400
g0
(g1
g2
(lp401
g0
(g1
g2
(lp402
Vthe
p403
atp404
Rp405
(dp406
g12
VDT
p407
sbag0
(g1
g2
(lp408
Vbrish
p409
atp410
Rp411
(dp412
g12
VNN
p413
sbatp414
Rp415
(dp416
g12
VNP
p417
sbag0
(g1
g2
(lp418
g0
(g1
g2
(lp419
Vthe
p420
atp421
Rp422
(dp423
g12
VDT
p424
sbag0
(g1
g2
(lp425
Vbrish
p426
atp427
Rp428
(dp429
g12
VJJ
p430
sbag0
(g1
g2
(lp431
Vbris
p432
atp433
Rp434
(dp435
g12
VNN
p436
sbag0
(g1
g2
(lp437
Vbrush
p438
atp439
Rp440
(dp441
g12
VNN
p442
sbatp443
Rp444
(dp445
g12
VNP
p446
sbatp447
Rp448
(dp449
g12
VNP
p450
sbag0
(g1
g2
(lp451
g0
(g1
g2
(lp452
Vthe
p453
atp454
Rp455
(dp456
g12
VDT
p457
sbag0
(g1
g2
(lp458
Vbrish
p459
atp460
Rp461
(dp462
g12
VJJ
p463
sbag0
(g1
g2
(lp464
Vbritch
p465
atp466
Rp467
(dp468
g12
VNN
p469
sbag0
(g1
g2
(lp470
Vb
p471
atp472
Rp473
(dp474
g12
VNN
p475
sbatp476
Rp477
(dp478
g12
VNP
p479
sbatp480
Rp481
(dp482
g12
VNP
p483
sbag0
(g1
g2
(lp484
g0
(g1
g2
(lp485
Vbritch
p486
atp487
Rp488
(dp489
g12
VVBP
p490
sbag0
(g1
g2
(lp491
g0
(g1
g2
(lp492
Vthe
p493
atp494
Rp495
(dp496
g12
VDT
p497
sbatp498
Rp499
(dp500
g12
VNP
p501
sbatp502
Rp503
(dp504
g12
VVP
p505
sbag0
(g1
g2
(lp506
V.
p507
atp508
Rp509
(dp510
g12
V.
p511
sbatp512
Rp513
(dp514
g12
VS
p515
sbatp516
Rp517
(dp518
g12
S'id: 5'
p519
sbag0
(g1
g2
(lp520
g0
(g1
g2
(lp521
g0
(g1
g2
(lp522
g0
(g1
g2
(lp523
g0
(g1
g2
(lp524
Vit
p525
atp526
Rp527
(dp528
g12
VPRP
p529
sbatp530
Rp531
(dp532
g12
VNP
p533
sbag0
(g1
g2
(lp534
g0
(g1
g2
(lp535
V's
p536
atp537
Rp538
(dp539
g12
VVBZ
p540
sbag0
(g1
g2
(lp541
g0
(g1
g2
(lp542
Vwhooom
p543
atp544
Rp545
(dp546
g12
VNN
p547
sbatp548
Rp549
(dp550
g12
VNP
p551
sbatp552
Rp553
(dp554
g12
VVP
p555
sbatp556
Rp557
(dp558
g12
VS
p559
sbag0
(g1
g2
(lp560
V,
p561
atp562
Rp563
(dp564
g12
V,
p565
sbag0
(g1
g2
(lp566
g0
(g1
g2
(lp567
g0
(g1
g2
(lp568
g0
(g1
g2
(lp569
Va
p570
atp571
Rp572
(dp573
g12
VDT
p574
sbag0
(g1
g2
(lp575
Vmho
p576
atp577
Rp578
(dp579
g12
VNN
p580
sbag0
(g1
g2
(lp581
Vmhome
p582
atp583
Rp584
(dp585
g12
VNN
p586
sbatp587
Rp588
(dp589
g12
VNP
p590
sbag0
(g1
g2
(lp591
g0
(g1
g2
(lp592
Va
p593
atp594
Rp595
(dp596
g12
VDT
p597
sbag0
(g1
g2
(lp598
Vhome
p599
atp600
Rp601
(dp602
g12
VNN
p603
sbatp604
Rp605
(dp606
g12
VNP
p607
sbag0
(g1
g2
(lp608
g0
(g1
g2
(lp609
g0
(g1
g2
(lp610
Va
p611
atp612
Rp613
(dp614
g12
VDT
p615
sbag0
(g1
g2
(lp616
Vhome
p617
atp618
Rp619
(dp620
g12
VNN
p621
sbatp622
Rp623
(dp624
g12
VNP
p625
sbag0
(g1
g2
(lp626
g0
(g1
g2
(lp627
Va
p628
atp629
Rp630
(dp631
g12
VDT
p632
sbatp633
Rp634
(dp635
g12
VNP
p636
sbatp637
Rp638
(dp639
g12
VNP
p640
sbatp641
Rp642
(dp643
g12
VNP
p644
sbag0
(g1
g2
(lp645
g0
(g1
g2
(lp646
Vca
p647
atp648
Rp649
(dp650
g12
VMD
p651
sbag0
(g1
g2
(lp652
g0
(g1
g2
(lp653
g0
(g1
g2
(lp654
Va
p655
atp656
Rp657
(dp658
g12
VDT
p659
sbag0
(g1
g2
(lp660
Vcar
p661
atp662
Rp663
(dp664
g12
VNN
p665
sbag0
(g1
g2
(lp666
Vcar
p667
atp668
Rp669
(dp670
g12
VNN
p671
sbatp672
Rp673
(dp674
g12
VNP
p675
sbatp676
Rp677
(dp678
g12
VVP
p679
sbatp680
Rp681
(dp682
g12
VVP
p683
sbatp684
Rp685
(dp686
g12
VS
p687
sbag0
(g1
g2
(lp688
Vand
p689
atp690
Rp691
(dp692
g12
VCC
p693
sbag0
(g1
g2
(lp694
g0
(g1
g2
(lp695
g0
(g1
g2
(lp696
Vclaf
p697
atp698
Rp699
(dp700
g12
VNN
p701
sbatp702
Rp703
(dp704
g12
VNP
p705
sbag0
(g1
g2
(lp706
g0
(g1
g2
(lp707
Vclaf
p708
atp709
Rp710
(dp711
g12
VVBP
p712
sbag0
(g1
g2
(lp713
g0
(g1
g2
(lp714
g0
(g1
g2
(lp715
Vcla
p716
atp717
Rp718
(dp719
g12
VNN
p720
sbag0
(g1
g2
(lp721
Vcla
p722
atp723
Rp724
(dp725
g12
VNN
p726
sbag0
(g1
g2
(lp727
Vcla
p728
atp729
Rp730
(dp731
g12
VNN
p732
sbatp733
Rp734
(dp735
g12
VNP
p736
sbag0
(g1
g2
(lp737
g0
(g1
g2
(lp738
Vclab
p739
atp740
Rp741
(dp742
g12
VNN
p743
sbag0
(g1
g2
(lp744
Vk
p745
atp746
Rp747
(dp748
g12
VNN
p749
sbag0
(g1
g2
(lp750
Vk
p751
atp752
Rp753
(dp754
g12
VNN
p755
sbag0
(g1
g2
(lp756
Vclag
p757
atp758
Rp759
(dp760
g12
VNN
p761
sbag0
(g1
g2
(lp762
Vclag
p763
atp764
Rp765
(dp766
g12
VNN
p767
sbag0
(g1
g2
(lp768
Vclag
p769
atp770
Rp771
(dp772
g12
VNN
p773
sbag0
(g1
g2
(lp774
Vtrag
p775
atp776
Rp777
(dp778
g12
VNN
p779
sbatp780
Rp781
(dp782
g12
VNP
p783
sbatp784
Rp785
(dp786
g12
VNP
p787
sbatp788
Rp789
(dp790
g12
VVP
p791
sbatp792
Rp793
(dp794
g12
VS
p795
sbag0
(g1
g2
(lp796
V.
p797
atp798
Rp799
(dp800
g12
V.
p801
sbatp802
Rp803
(dp804
g12
VS
p805
sbatp806
Rp807
(dp808
g12
S'id: 6'
p809
sbag0
(g1
g2
(lp810
g0
(g1
g2
(lp811
g0
(g1
g2
(lp812
g0
(g1
g2
(lp813
Vis
p814
atp815
Rp816
(dp817
g12
VVBZ
p818
sbag0
(g1
g2
(lp819
g0
(g1
g2
(lp820
g0
(g1
g2
(lp821
Va
p822
atp823
Rp824
(dp825
g12
VDT
p826
sbag0
(g1
g2
(lp827
Vtwo
p828
atp829
Rp830
(dp831
g12
VCD
p832
sbatp833
Rp834
(dp835
g12
VNP
p836
sbag0
(g1
g2
(lp837
V,
p838
atp839
Rp840
(dp841
g12
V,
p842
sbag0
(g1
g2
(lp843
g0
(g1
g2
(lp844
Vtwo
p845
atp846
Rp847
(dp848
g12
VCD
p849
sbatp850
Rp851
(dp852
g12
VNP
p853
sbatp854
Rp855
(dp856
g12
VNP
p857
sbatp858
Rp859
(dp860
g12
VVP
p861
sbag0
(g1
g2
(lp862
V.
p863
atp864
Rp865
(dp866
g12
V.
p867
sbatp868
Rp869
(dp870
g12
VS
p871
sbatp872
Rp873
(dp874
g12
S'id: 7'
p875
sbag0
(g1
g2
(lp876
g0
(g1
g2
(lp877
g0
(g1
g2
(lp878
g0
(g1
g2
(lp879
Vit
p880
atp881
Rp882
(dp883
g12
VPRP
p884
sbatp885
Rp886
(dp887
g12
VNP
p888
sbag0
(g1
g2
(lp889
g0
(g1
g2
(lp890
V's
p891
atp892
Rp893
(dp894
g12
VVBZ
p895
sbag0
(g1
g2
(lp896
g0
(g1
g2
(lp897
Vgone
p898
atp899
Rp900
(dp901
g12
VVBN
p902
sbatp903
Rp904
(dp905
g12
VVP
p906
sbatp907
Rp908
(dp909
g12
VVP
p910
sbag0
(g1
g2
(lp911
V.
p912
atp913
Rp914
(dp915
g12
V.
p916
sbatp917
Rp918
(dp919
g12
VS
p920
sbatp921
Rp922
(dp923
g12
S'id: 8'
p924
sbag0
(g1
g2
(lp925
g0
(g1
g2
(lp926
g0
(g1
g2
(lp927
g0
(g1
g2
(lp928
g0
(g1
g2
(lp929
g0
(g1
g2
(lp930
Vchew
p931
atp932
Rp933
(dp934
g12
VVB
p935
sbatp936
Rp937
(dp938
g12
VVP
p939
sbatp940
Rp941
(dp942
g12
VS
p943
sbag0
(g1
g2
(lp944
V,
p945
atp946
Rp947
(dp948
g12
V,
p949
sbag0
(g1
g2
(lp950
g0
(g1
g2
(lp951
Va
p952
atp953
Rp954
(dp955
g12
VDT
p956
sbatp957
Rp958
(dp959
g12
VNP
p960
sbag0
(g1
g2
(lp961
g0
(g1
g2
(lp962
Vchew
p963
atp964
Rp965
(dp966
g12
VVBP
p967
sbatp968
Rp969
(dp970
g12
VVP
p971
sbatp972
Rp973
(dp974
g12
VS
p975
sbag0
(g1
g2
(lp976
V,
p977
atp978
Rp979
(dp980
g12
V,
p981
sbag0
(g1
g2
(lp982
g0
(g1
g2
(lp983
Va
p984
atp985
Rp986
(dp987
g12
VDT
p988
sbatp989
Rp990
(dp991
g12
VNP
p992
sbag0
(g1
g2
(lp993
g0
(g1
g2
(lp994
Vchew
p995
atp996
Rp997
(dp998
g12
VVBP
p999
sbatp1000
Rp1001
(dp1002
g12
VVP
p1003
sbag0
(g1
g2
(lp1004
V.
p1005
atp1006
Rp1007
(dp1008
g12
V.
p1009
sbatp1010
Rp1011
(dp1012
g12
VS
p1013
sbatp1014
Rp1015
(dp1016
g12
S'id: 9'
p1017
sbag0
(g1
g2
(lp1018
g0
(g1
g2
(lp1019
g0
(g1
g2
(lp1020
g0
(g1
g2
(lp1021
Va
p1022
atp1023
Rp1024
(dp1025
g12
VDT
p1026
sbag0
(g1
g2
(lp1027
Vtree
p1028
atp1029
Rp1030
(dp1031
g12
VNN
p1032
sbatp1033
Rp1034
(dp1035
g12
VNP
p1036
sbag0
(g1
g2
(lp1037
V,
p1038
atp1039
Rp1040
(dp1041
g12
V,
p1042
sbag0
(g1
g2
(lp1043
g0
(g1
g2
(lp1044
Va
p1045
atp1046
Rp1047
(dp1048
g12
VDT
p1049
sbag0
(g1
g2
(lp1050
Vtree
p1051
atp1052
Rp1053
(dp1054
g12
VNN
p1055
sbatp1056
Rp1057
(dp1058
g12
VNP
p1059
sbag0
(g1
g2
(lp1060
V,
p1061
atp1062
Rp1063
(dp1064
g12
V,
p1065
sbag0
(g1
g2
(lp1066
g0
(g1
g2
(lp1067
Va
p1068
atp1069
Rp1070
(dp1071
g12
VDT
p1072
sbag0
(g1
g2
(lp1073
Vtree
p1074
atp1075
Rp1076
(dp1077
g12
VNN
p1078
sbatp1079
Rp1080
(dp1081
g12
VNP
p1082
sbag0
(g1
g2
(lp1083
V,
p1084
atp1085
Rp1086
(dp1087
g12
V,
p1088
sbag0
(g1
g2
(lp1089
g0
(g1
g2
(lp1090
Vtree
p1091
atp1092
Rp1093
(dp1094
g12
VNN
p1095
sbatp1096
Rp1097
(dp1098
g12
VNP
p1099
sbag0
(g1
g2
(lp1100
V.
p1101
atp1102
Rp1103
(dp1104
g12
V.
p1105
sbatp1106
Rp1107
(dp1108
g12
VNP
p1109
sbatp1110
Rp1111
(dp1112
g12
S'id: 10'
p1113
sbag0
(g1
g2
(lp1114
g0
(g1
g2
(lp1115
g0
(g1
g2
(lp1116
g0
(g1
g2
(lp1117
Va
p1118
atp1119
Rp1120
(dp1121
g12
VDT
p1122
sbag0
(g1
g2
(lp1123
Vbook
p1124
atp1125
Rp1126
(dp1127
g12
VNN
p1128
sbatp1129
Rp1130
(dp1131
g12
VNP
p1132
sbag0
(g1
g2
(lp1133
g0
(g1
g2
(lp1134
Vbook
p1135
atp1136
Rp1137
(dp1138
g12
VNN
p1139
sbag0
(g1
g2
(lp1140
Vbook
p1141
atp1142
Rp1143
(dp1144
g12
VNN
p1145
sbatp1146
Rp1147
(dp1148
g12
VNP
p1149
sbag0
(g1
g2
(lp1150
V.
p1151
atp1152
Rp1153
(dp1154
g12
V.
p1155
sbatp1156
Rp1157
(dp1158
g12
VNP
p1159
sbatp1160
Rp1161
(dp1162
g12
S'id: 11'
p1163
sbag0
(g1
g2
(lp1164
g0
(g1
g2
(lp1165
g0
(g1
g2
(lp1166
Vand
p1167
atp1168
Rp1169
(dp1170
g12
VCC
p1171
sbag0
(g1
g2
(lp1172
g0
(g1
g2
(lp1173
Va
p1174
atp1175
Rp1176
(dp1177
g12
VDT
p1178
sbatp1179
Rp1180
(dp1181
g12
VADVP
p1182
sbag0
(g1
g2
(lp1183
V.
p1184
atp1185
Rp1186
(dp1187
g12
V.
p1188
sbatp1189
Rp1190
(dp1191
g12
VFRAG
p1192
sbatp1193
Rp1194
(dp1195
g12
S'id: 12'
p1196
sbag0
(g1
g2
(lp1197
g0
(g1
g2
(lp1198
g0
(g1
g2
(lp1199
g0
(g1
g2
(lp1200
g0
(g1
g2
(lp1201
VA
p1202
atp1203
Rp1204
(dp1205
g12
VDT
p1206
sbag0
(g1
g2
(lp1207
g0
(g1
g2
(lp1208
Vblue
p1209
atp1210
Rp1211
(dp1212
g12
VJJ
p1213
sbatp1214
Rp1215
(dp1216
g12
VADJP
p1217
sbatp1218
Rp1219
(dp1220
g12
VNP
p1221
sbatp1222
Rp1223
(dp1224
g12
VVP
p1225
sbag0
(g1
g2
(lp1226
V.
p1227
atp1228
Rp1229
(dp1230
g12
V.
p1231
sbatp1232
Rp1233
(dp1234
g12
VS
p1235
sbatp1236
Rp1237
(dp1238
g12
S'id: 13'
p1239
sbag0
(g1
g2
(lp1240
g0
(g1
g2
(lp1241
g0
(g1
g2
(lp1242
Vboy
p1243
atp1244
Rp1245
(dp1246
g12
VNN
p1247
sbag0
(g1
g2
(lp1248
V.
p1249
atp1250
Rp1251
(dp1252
g12
V.
p1253
sbatp1254
Rp1255
(dp1256
g12
VNP
p1257
sbatp1258
Rp1259
(dp1260
g12
S'id: 14'
p1261
sbag0
(g1
g2
(lp1262
g0
(g1
g2
(lp1263
g0
(g1
g2
(lp1264
g0
(g1
g2
(lp1265
Vwoman
p1266
atp1267
Rp1268
(dp1269
g12
VNN
p1270
sbag0
(g1
g2
(lp1271
Vand
p1272
atp1273
Rp1274
(dp1275
g12
VCC
p1276
sbag0
(g1
g2
(lp1277
Vma
p1278
atp1279
Rp1280
(dp1281
g12
VNN
p1282
sbag0
(g1
g2
(lp1283
Vman
p1284
atp1285
Rp1286
(dp1287
g12
VNN
p1288
sbag0
(g1
g2
(lp1289
Vman
p1290
atp1291
Rp1292
(dp1293
g12
VNN
p1294
sbatp1295
Rp1296
(dp1297
g12
VNP
p1298
sbag0
(g1
g2
(lp1299
g0
(g1
g2
(lp1300
Vglass
p1301
atp1302
Rp1303
(dp1304
g12
VNN
p1305
sbag0
(g1
g2
(lp1306
Vglass
p1307
atp1308
Rp1309
(dp1310
g12
VNN
p1311
sbag0
(g1
g2
(lp1312
Vglasses
p1313
atp1314
Rp1315
(dp1316
g12
VNNS
p1317
sbatp1318
Rp1319
(dp1320
g12
VNP
p1321
sbag0
(g1
g2
(lp1322
V.
p1323
atp1324
Rp1325
(dp1326
g12
V.
p1327
sbatp1328
Rp1329
(dp1330
g12
VNP
p1331
sbatp1332
Rp1333
(dp1334
g12
S'id: 15'
p1335
sbag0
(g1
g2
(lp1336
g0
(g1
g2
(lp1337
g0
(g1
g2
(lp1338
g0
(g1
g2
(lp1339
Vglates
p1340
atp1341
Rp1342
(dp1343
g12
VNNS
p1344
sbatp1345
Rp1346
(dp1347
g12
VNP
p1348
sbag0
(g1
g2
(lp1349
g0
(g1
g2
(lp1350
g0
(g1
g2
(lp1351
g0
(g1
g2
(lp1352
Vglates
p1353
atp1354
Rp1355
(dp1356
g12
VNNS
p1357
sbag0
(g1
g2
(lp1358
Vglates
p1359
atp1360
Rp1361
(dp1362
g12
VNNS
p1363
sbatp1364
Rp1365
(dp1366
g12
VNP
p1367
sbag0
(g1
g2
(lp1368
g0
(g1
g2
(lp1369
Vand
p1370
atp1371
Rp1372
(dp1373
g12
VCC
p1374
sbatp1375
Rp1376
(dp1377
g12
VADVP
p1378
sbatp1379
Rp1380
(dp1381
g12
VNP
p1382
sbag0
(g1
g2
(lp1383
V,
p1384
atp1385
Rp1386
(dp1387
g12
V,
p1388
sbag0
(g1
g2
(lp1389
g0
(g1
g2
(lp1390
Vch
p1391
atp1392
Rp1393
(dp1394
g12
VNN
p1395
sbag0
(g1
g2
(lp1396
Vchickie
p1397
atp1398
Rp1399
(dp1400
g12
VNN
p1401
sbag0
(g1
g2
(lp1402
Vchickie
p1403
atp1404
Rp1405
(dp1406
g12
VNN
p1407
sbatp1408
Rp1409
(dp1410
g12
VNP
p1411
sbatp1412
Rp1413
(dp1414
g12
VNP
p1415
sbag0
(g1
g2
(lp1416
V.
p1417
atp1418
Rp1419
(dp1420
g12
V.
p1421
sbatp1422
Rp1423
(dp1424
g12
VNP
p1425
sbatp1426
Rp1427
(dp1428
g12
S'id: 16'
p1429
sbatp1430
Rp1431
(dp1432
g12
S'sentences'
p1433
sb.