ccopy_reg
_reconstructor
p0
(cnltk.tree
Tree
p1
c__builtin__
list
p2
(lp3
g0
(g1
g2
(lp4
g0
(g1
g2
(lp5
g0
(g1
g2
(lp6
VPictures
p7
atp8
Rp9
(dp10
S'_label'
p11
VNNS
p12
sbag0
(g1
g2
(lp13
V.
p14
atp15
Rp16
(dp17
g11
V.
p18
sbatp19
Rp20
(dp21
g11
VNP
p22
sbatp23
Rp24
(dp25
g11
S'id: 0'
p26
sbag0
(g1
g2
(lp27
g0
(g1
g2
(lp28
g0
(g1
g2
(lp29
VCookie
p30
atp31
Rp32
(dp33
g11
VNN
p34
sbag0
(g1
g2
(lp35
V.
p36
atp37
Rp38
(dp39
g11
V.
p40
sbatp41
Rp42
(dp43
g11
VNP
p44
sbatp45
Rp46
(dp47
g11
S'id: 1'
p48
sbag0
(g1
g2
(lp49
g0
(g1
g2
(lp50
g0
(g1
g2
(lp51
g0
(g1
g2
(lp52
VTwo
p53
atp54
Rp55
(dp56
g11
VCD
p57
sbatp58
Rp59
(dp60
g11
VNP
p61
sbag0
(g1
g2
(lp62
V,
p63
atp64
Rp65
(dp66
g11
V,
p67
sbag0
(g1
g2
(lp68
g0
(g1
g2
(lp69
Vtwo
p70
atp71
Rp72
(dp73
g11
VCD
p74
sbag0
(g1
g2
(lp75
Vboys
p76
atp77
Rp78
(dp79
g11
VNNS
p80
sbatp81
Rp82
(dp83
g11
VNP
p84
sbag0
(g1
g2
(lp85
V,
p86
atp87
Rp88
(dp89
g11
V,
p90
sbag0
(g1
g2
(lp91
g0
(g1
g2
(lp92
Vone
p93
atp94
Rp95
(dp96
g11
VCD
p97
sbag0
(g1
g2
(lp98
Vgirl
p99
atp100
Rp101
(dp102
g11
VNN
p103
sbatp104
Rp105
(dp106
g11
VNP
p107
sbag0
(g1
g2
(lp108
V,
p109
atp110
Rp111
(dp112
g11
V,
p113
sbag0
(g1
g2
(lp114
g0
(g1
g2
(lp115
Vone
p116
atp117
Rp118
(dp119
g11
VCD
p120
sbag0
(g1
g2
(lp121
Vboy
p122
atp123
Rp124
(dp125
g11
VNN
p126
sbatp127
Rp128
(dp129
g11
VNP
p130
sbag0
(g1
g2
(lp131
V.
p132
atp133
Rp134
(dp135
g11
V.
p136
sbatp137
Rp138
(dp139
g11
VNP
p140
sbatp141
Rp142
(dp143
g11
S'id: 2'
p144
sbag0
(g1
g2
(lp145
g0
(g1
g2
(lp146
g0
(g1
g2
(lp147
g0
(g1
g2
(lp148
VLadder
p149
atp150
Rp151
(dp152
g11
VNN
p153
sbatp154
Rp155
(dp156
g11
VNP
p157
sbag0
(g1
g2
(lp158
V,
p159
atp160
Rp161
(dp162
g11
V,
p163
sbag0
(g1
g2
(lp164
g0
(g1
g2
(lp165
Vstool
p166
atp167
Rp168
(dp169
g11
VNN
p170
sbatp171
Rp172
(dp173
g11
VNP
p174
sbag0
(g1
g2
(lp175
V.
p176
atp177
Rp178
(dp179
g11
V.
p180
sbatp181
Rp182
(dp183
g11
VNP
p184
sbatp185
Rp186
(dp187
g11
S'id: 3'
p188
sbag0
(g1
g2
(lp189
g0
(g1
g2
(lp190
g0
(g1
g2
(lp191
g0
(g1
g2
(lp192
VTwo
p193
atp194
Rp195
(dp196
g11
VCD
p197
sbatp198
Rp199
(dp200
g11
VNP
p201
sbag0
(g1
g2
(lp202
V,
p203
atp204
Rp205
(dp206
g11
V,
p207
sbag0
(g1
g2
(lp208
g0
(g1
g2
(lp209
g0
(g1
g2
(lp210
Vone
p211
atp212
Rp213
(dp214
g11
VCD
p215
sbag0
(g1
g2
(lp216
Vkid
p217
atp218
Rp219
(dp220
g11
VNN
p221
sbatp222
Rp223
(dp224
g11
VNP
p225
sbag0
(g1
g2
(lp226
V,
p227
atp228
Rp229
(dp230
g11
V,
p231
sbag0
(g1
g2
(lp232
g0
(g1
g2
(lp233
g0
(g1
g2
(lp234
Vone
p235
atp236
Rp237
(dp238
g11
VCD
p239
sbatp240
Rp241
(dp242
g11
VNP
p243
sbag0
(g1
g2
(lp244
Vup
p245
atp246
Rp247
(dp248
g11
VRB
p249
sbatp250
Rp251
(dp252
g11
VADVP
p253
sbag0
(g1
g2
(lp254
g0
(g1
g2
(lp255
Vhigh
p256
atp257
Rp258
(dp259
g11
VJJ
p260
sbag0
(g1
g2
(lp261
Vgrabbing
p262
atp263
Rp264
(dp265
g11
VNN
p266
sbatp267
Rp268
(dp269
g11
VNP
p270
sbatp271
Rp272
(dp273
g11
VNP
p274
sbag0
(g1
g2
(lp275
V.
p276
atp277
Rp278
(dp279
g11
V.
p280
sbatp281
Rp282
(dp283
g11
VNP
p284
sbatp285
Rp286
(dp287
g11
S'id: 4'
p288
sbag0
(g1
g2
(lp289
g0
(g1
g2
(lp290
g0
(g1
g2
(lp291
g0
(g1
g2
(lp292
VOne
p293
atp294
Rp295
(dp296
g11
VCD
p297
sbag0
(g1
g2
(lp298
Vlady
p299
atp300
Rp301
(dp302
g11
VNN
p303
sbatp304
Rp305
(dp306
g11
VNP
p307
sbag0
(g1
g2
(lp308
g0
(g1
g2
(lp309
Vwashing
p310
atp311
Rp312
(dp313
g11
VVBG
p314
sbatp315
Rp316
(dp317
g11
VVP
p318
sbag0
(g1
g2
(lp319
V.
p320
atp321
Rp322
(dp323
g11
V.
p324
sbatp325
Rp326
(dp327
g11
VNP
p328
sbatp329
Rp330
(dp331
g11
S'id: 5'
p332
sbag0
(g1
g2
(lp333
g0
(g1
g2
(lp334
g0
(g1
g2
(lp335
g0
(g1
g2
(lp336
VOne
p337
atp338
Rp339
(dp340
g11
VCD
p341
sbag0
(g1
g2
(lp342
Vsink
p343
atp344
Rp345
(dp346
g11
VNN
p347
sbatp348
Rp349
(dp350
g11
VNP
p351
sbag0
(g1
g2
(lp352
g0
(g1
g2
(lp353
Voverloaded
p354
atp355
Rp356
(dp357
g11
VVBN
p358
sbatp359
Rp360
(dp361
g11
VVP
p362
sbag0
(g1
g2
(lp363
V.
p364
atp365
Rp366
(dp367
g11
V.
p368
sbatp369
Rp370
(dp371
g11
VS
p372
sbatp373
Rp374
(dp375
g11
S'id: 6'
p376
sbag0
(g1
g2
(lp377
g0
(g1
g2
(lp378
g0
(g1
g2
(lp379
g0
(g1
g2
(lp380
VA
p381
atp382
Rp383
(dp384
g11
VDT
p385
sbag0
(g1
g2
(lp386
Vdrip
p387
atp388
Rp389
(dp390
g11
VNN
p391
sbatp392
Rp393
(dp394
g11
VNP
p395
sbag0
(g1
g2
(lp396
g0
(g1
g2
(lp397
Vis
p398
atp399
Rp400
(dp401
g11
VVBZ
p402
sbag0
(g1
g2
(lp403
g0
(g1
g2
(lp404
g0
(g1
g2
(lp405
Vwater
p406
atp407
Rp408
(dp409
g11
VNN
p410
sbatp411
Rp412
(dp413
g11
VNP
p414
sbag0
(g1
g2
(lp415
g0
(g1
g2
(lp416
Vdrench
p417
atp418
Rp419
(dp420
g11
VVB
p421
sbatp422
Rp423
(dp424
g11
VVP
p425
sbatp426
Rp427
(dp428
g11
VS
p429
sbatp430
Rp431
(dp432
g11
VVP
p433
sbag0
(g1
g2
(lp434
V.
p435
atp436
Rp437
(dp438
g11
V.
p439
sbatp440
Rp441
(dp442
g11
VS
p443
sbatp444
Rp445
(dp446
g11
S'id: 7'
p447
sbag0
(g1
g2
(lp448
g0
(g1
g2
(lp449
g0
(g1
g2
(lp450
g0
(g1
g2
(lp451
VNice
p452
atp453
Rp454
(dp455
g11
VJJ
p456
sbag0
(g1
g2
(lp457
Vwindow
p458
atp459
Rp460
(dp461
g11
VNN
p462
sbatp463
Rp464
(dp465
g11
VNP
p466
sbag0
(g1
g2
(lp467
V,
p468
atp469
Rp470
(dp471
g11
V,
p472
sbag0
(g1
g2
(lp473
g0
(g1
g2
(lp474
Vnice
p475
atp476
Rp477
(dp478
g11
VJJ
p479
sbag0
(g1
g2
(lp480
Vday
p481
atp482
Rp483
(dp484
g11
VNN
p485
sbatp486
Rp487
(dp488
g11
VNP
p489
sbag0
(g1
g2
(lp490
V.
p491
atp492
Rp493
(dp494
g11
V.
p495
sbatp496
Rp497
(dp498
g11
VNP
p499
sbatp500
Rp501
(dp502
g11
S'id: 8'
p503
sbag0
(g1
g2
(lp504
g0
(g1
g2
(lp505
g0
(g1
g2
(lp506
g0
(g1
g2
(lp507
VAir
p508
atp509
Rp510
(dp511
g11
VNNP
p512
sbatp513
Rp514
(dp515
g11
VNP
p516
sbag0
(g1
g2
(lp517
g0
(g1
g2
(lp518
Vis
p519
atp520
Rp521
(dp522
g11
VVBZ
p523
sbag0
(g1
g2
(lp524
g0
(g1
g2
(lp525
Vair
p526
atp527
Rp528
(dp529
g11
VNN
p530
sbatp531
Rp532
(dp533
g11
VNP
p534
sbatp535
Rp536
(dp537
g11
VVP
p538
sbag0
(g1
g2
(lp539
V.
p540
atp541
Rp542
(dp543
g11
V.
p544
sbatp545
Rp546
(dp547
g11
VS
p548
sbatp549
Rp550
(dp551
g11
S'id: 9'
p552
sbag0
(g1
g2
(lp553
g0
(g1
g2
(lp554
g0
(g1
g2
(lp555
VWindow
p556
atp557
Rp558
(dp559
g11
VNN
p560
sbag0
(g1
g2
(lp561
V.
p562
atp563
Rp564
(dp565
g11
V.
p566
sbatp567
Rp568
(dp569
g11
VNP
p570
sbatp571
Rp572
(dp573
g11
S'id: 10'
p574
sbag0
(g1
g2
(lp575
g0
(g1
g2
(lp576
g0
(g1
g2
(lp577
g0
(g1
g2
(lp578
VTwo
p579
atp580
Rp581
(dp582
g11
VCD
p583
sbatp584
Rp585
(dp586
g11
VNP
p587
sbag0
(g1
g2
(lp588
V,
p589
atp590
Rp591
(dp592
g11
V,
p593
sbag0
(g1
g2
(lp594
g0
(g1
g2
(lp595
Vtwo
p596
atp597
Rp598
(dp599
g11
VCD
p600
sbag0
(g1
g2
(lp601
Vspoons
p602
atp603
Rp604
(dp605
g11
VNNS
p606
sbatp607
Rp608
(dp609
g11
VNP
p610
sbag0
(g1
g2
(lp611
V.
p612
atp613
Rp614
(dp615
g11
V.
p616
sbatp617
Rp618
(dp619
g11
VNP
p620
sbatp621
Rp622
(dp623
g11
S'id: 11'
p624
sbag0
(g1
g2
(lp625
g0
(g1
g2
(lp626
g0
(g1
g2
(lp627
g0
(g1
g2
(lp628
g0
(g1
g2
(lp629
VOne
p630
atp631
Rp632
(dp633
g11
VCD
p634
sbatp635
Rp636
(dp637
g11
VNP
p638
sbag0
(g1
g2
(lp639
Vsick
p640
atp641
Rp642
(dp643
g11
VJJ
p644
sbatp645
Rp646
(dp647
g11
VADJP
p648
sbag0
(g1
g2
(lp649
V.
p650
atp651
Rp652
(dp653
g11
V.
p654
sbatp655
Rp656
(dp657
g11
VFRAG
p658
sbatp659
Rp660
(dp661
g11
S'id: 12'
p662
sbag0
(g1
g2
(lp663
g0
(g1
g2
(lp664
g0
(g1
g2
(lp665
g0
(g1
g2
(lp666
VKitten
p667
atp668
Rp669
(dp670
g11
VNNP
p671
sbatp672
Rp673
(dp674
g11
VNP
p675
sbag0
(g1
g2
(lp676
V,
p677
atp678
Rp679
(dp680
g11
V,
p681
sbag0
(g1
g2
(lp682
g0
(g1
g2
(lp683
Vkitten
p684
atp685
Rp686
(dp687
g11
VNN
p688
sbag0
(g1
g2
(lp689
Vcabinetry
p690
atp691
Rp692
(dp693
g11
VNN
p694
sbag0
(g1
g2
(lp695
Vkids
p696
atp697
Rp698
(dp699
g11
VNNS
p700
sbatp701
Rp702
(dp703
g11
VNP
p704
sbag0
(g1
g2
(lp705
V.
p706
atp707
Rp708
(dp709
g11
V.
p710
sbatp711
Rp712
(dp713
g11
VNP
p714
sbatp715
Rp716
(dp717
g11
S'id: 13'
p718
sbag0
(g1
g2
(lp719
g0
(g1
g2
(lp720
g0
(g1
g2
(lp721
g0
(g1
g2
(lp722
VOne
p723
atp724
Rp725
(dp726
g11
VCD
p727
sbag0
(g1
g2
(lp728
Vyes
p729
atp730
Rp731
(dp732
g11
VUH
p733
sbatp734
Rp735
(dp736
g11
VNP
p737
sbag0
(g1
g2
(lp738
V,
p739
atp740
Rp741
(dp742
g11
V,
p743
sbag0
(g1
g2
(lp744
g0
(g1
g2
(lp745
Vbush
p746
atp747
Rp748
(dp749
g11
VNN
p750
sbatp751
Rp752
(dp753
g11
VNP
p754
sbag0
(g1
g2
(lp755
V.
p756
atp757
Rp758
(dp759
g11
V.
p760
sbatp761
Rp762
(dp763
g11
VNP
p764
sbatp765
Rp766
(dp767
g11
S'id: 14'
p768
sbag0
(g1
g2
(lp769
g0
(g1
g2
(lp770
g0
(g1
g2
(lp771
g0
(g1
g2
(lp772
VOne
p773
atp774
Rp775
(dp776
g11
VCD
p777
sbatp778
Rp779
(dp780
g11
VNP
p781
sbag0
(g1
g2
(lp782
V,
p783
atp784
Rp785
(dp786
g11
V,
p787
sbag0
(g1
g2
(lp788
g0
(g1
g2
(lp789
g0
(g1
g2
(lp790
Vone
p791
atp792
Rp793
(dp794
g11
VCD
p795
sbag0
(g1
g2
(lp796
Vtree
p797
atp798
Rp799
(dp800
g11
VNN
p801
sbatp802
Rp803
(dp804
g11
VNP
p805
sbag0
(g1
g2
(lp806
V,
p807
atp808
Rp809
(dp810
g11
V,
p811
sbag0
(g1
g2
(lp812
g0
(g1
g2
(lp813
Vbig
p814
atp815
Rp816
(dp817
g11
VJJ
p818
sbag0
(g1
g2
(lp819
Vtree
p820
atp821
Rp822
(dp823
g11
VNN
p824
sbatp825
Rp826
(dp827
g11
VNP
p828
sbatp829
Rp830
(dp831
g11
VNP
p832
sbag0
(g1
g2
(lp833
V.
p834
atp835
Rp836
(dp837
g11
V.
p838
sbatp839
Rp840
(dp841
g11
VNP
p842
sbatp843
Rp844
(dp845
g11
S'id: 15'
p846
sbag0
(g1
g2
(lp847
g0
(g1
g2
(lp848
g0
(g1
g2
(lp849
g0
(g1
g2
(lp850
VIs
p851
atp852
Rp853
(dp854
g11
VVBZ
p855
sbag0
(g1
g2
(lp856
g0
(g1
g2
(lp857
Vdriveway
p858
atp859
Rp860
(dp861
g11
VNN
p862
sbatp863
Rp864
(dp865
g11
VNP
p866
sbatp867
Rp868
(dp869
g11
VVP
p870
sbag0
(g1
g2
(lp871
V.
p872
atp873
Rp874
(dp875
g11
V.
p876
sbatp877
Rp878
(dp879
g11
VS
p880
sbatp881
Rp882
(dp883
g11
S'id: 16'
p884
sbag0
(g1
g2
(lp885
g0
(g1
g2
(lp886
g0
(g1
g2
(lp887
VLawn
p888
atp889
Rp890
(dp891
g11
VNN
p892
sbag0
(g1
g2
(lp893
V.
p894
atp895
Rp896
(dp897
g11
V.
p898
sbatp899
Rp900
(dp901
g11
VNP
p902
sbatp903
Rp904
(dp905
g11
S'id: 17'
p906
sbag0
(g1
g2
(lp907
g0
(g1
g2
(lp908
g0
(g1
g2
(lp909
g0
(g1
g2
(lp910
VOne
p911
atp912
Rp913
(dp914
g11
VCD
p915
sbag0
(g1
g2
(lp916
Vlady
p917
atp918
Rp919
(dp920
g11
VNN
p921
sbatp922
Rp923
(dp924
g11
VNP
p925
sbag0
(g1
g2
(lp926
g0
(g1
g2
(lp927
Vnice
p928
atp929
Rp930
(dp931
g11
VJJ
p932
sbatp933
Rp934
(dp935
g11
VADJP
p936
sbag0
(g1
g2
(lp937
V.
p938
atp939
Rp940
(dp941
g11
V.
p942
sbatp943
Rp944
(dp945
g11
VS
p946
sbatp947
Rp948
(dp949
g11
S'id: 18'
p950
sbatp951
Rp952
(dp953
g11
S'sentences'
p954
sb.