ccopy_reg
_reconstructor
p0
(cnltk.tree
Tree
p1
c__builtin__
list
p2
(lp3
g0
(g1
g2
(lp4
g0
(g1
g2
(lp5
g0
(g1
g2
(lp6
Vso
p7
atp8
Rp9
(dp10
S'_label'
p11
VRB
p12
sbag0
(g1
g2
(lp13
g0
(g1
g2
(lp14
Vthere
p15
atp16
Rp17
(dp18
g11
VEX
p19
sbatp20
Rp21
(dp22
g11
VNP
p23
sbag0
(g1
g2
(lp24
g0
(g1
g2
(lp25
V's
p26
atp27
Rp28
(dp29
g11
VVBZ
p30
sbag0
(g1
g2
(lp31
g0
(g1
g2
(lp32
g0
(g1
g2
(lp33
Va
p34
atp35
Rp36
(dp37
g11
VDT
p38
sbag0
(g1
g2
(lp39
Vpicture
p40
atp41
Rp42
(dp43
g11
VNN
p44
sbatp45
Rp46
(dp47
g11
VNP
p48
sbag0
(g1
g2
(lp49
g0
(g1
g2
(lp50
Vof
p51
atp52
Rp53
(dp54
g11
VIN
p55
sbag0
(g1
g2
(lp56
g0
(g1
g2
(lp57
g0
(g1
g2
(lp58
Va
p59
atp60
Rp61
(dp62
g11
VDT
p63
sbag0
(g1
g2
(lp64
Vman
p65
atp66
Rp67
(dp68
g11
VNN
p69
sbatp70
Rp71
(dp72
g11
VNP
p73
sbag0
(g1
g2
(lp74
V,
p75
atp76
Rp77
(dp78
g11
V,
p79
sbag0
(g1
g2
(lp80
Vand
p81
atp82
Rp83
(dp84
g11
VCC
p85
sbag0
(g1
g2
(lp86
g0
(g1
g2
(lp87
Va
p88
atp89
Rp90
(dp91
g11
VDT
p92
sbag0
(g1
g2
(lp93
Vwoman
p94
atp95
Rp96
(dp97
g11
VNN
p98
sbatp99
Rp100
(dp101
g11
VNP
p102
sbatp103
Rp104
(dp105
g11
VNP
p106
sbatp107
Rp108
(dp109
g11
VPP
p110
sbatp111
Rp112
(dp113
g11
VNP
p114
sbatp115
Rp116
(dp117
g11
VVP
p118
sbag0
(g1
g2
(lp119
V.
p120
atp121
Rp122
(dp123
g11
V.
p124
sbatp125
Rp126
(dp127
g11
VS
p128
sbatp129
Rp130
(dp131
g11
S'id: 0'
p132
sbag0
(g1
g2
(lp133
g0
(g1
g2
(lp134
g0
(g1
g2
(lp135
g0
(g1
g2
(lp136
Vthey
p137
atp138
Rp139
(dp140
g11
VPRP
p141
sbatp142
Rp143
(dp144
g11
VNP
p145
sbag0
(g1
g2
(lp146
g0
(g1
g2
(lp147
V're
p148
atp149
Rp150
(dp151
g11
VVBP
p152
sbag0
(g1
g2
(lp153
g0
(g1
g2
(lp154
Vsitting
p155
atp156
Rp157
(dp158
g11
VVBG
p159
sbag0
(g1
g2
(lp160
g0
(g1
g2
(lp161
Vat
p162
atp163
Rp164
(dp165
g11
VIN
p166
sbag0
(g1
g2
(lp167
g0
(g1
g2
(lp168
Va
p169
atp170
Rp171
(dp172
g11
VDT
p173
sbag0
(g1
g2
(lp174
Vblanket
p175
atp176
Rp177
(dp178
g11
VNN
p179
sbatp180
Rp181
(dp182
g11
VNP
p183
sbatp184
Rp185
(dp186
g11
VPP
p187
sbatp188
Rp189
(dp190
g11
VVP
p191
sbatp192
Rp193
(dp194
g11
VVP
p195
sbag0
(g1
g2
(lp196
V.
p197
atp198
Rp199
(dp200
g11
V.
p201
sbatp202
Rp203
(dp204
g11
VS
p205
sbatp206
Rp207
(dp208
g11
S'id: 1'
p209
sbag0
(g1
g2
(lp210
g0
(g1
g2
(lp211
g0
(g1
g2
(lp212
g0
(g1
g2
(lp213
g0
(g1
g2
(lp214
Vthe
p215
atp216
Rp217
(dp218
g11
VDT
p219
sbag0
(g1
g2
(lp220
Vwoman
p221
atp222
Rp223
(dp224
g11
VNN
p225
sbatp226
Rp227
(dp228
g11
VNP
p229
sbag0
(g1
g2
(lp230
g0
(g1
g2
(lp231
Vis
p232
atp233
Rp234
(dp235
g11
VVBZ
p236
sbag0
(g1
g2
(lp237
g0
(g1
g2
(lp238
Vpouring
p239
atp240
Rp241
(dp242
g11
VVBG
p243
sbag0
(g1
g2
(lp244
g0
(g1
g2
(lp245
g0
(g1
g2
(lp246
Vwhat
p247
atp248
Rp249
(dp250
g11
VWP
p251
sbatp252
Rp253
(dp254
g11
VWHNP
p255
sbag0
(g1
g2
(lp256
g0
(g1
g2
(lp257
g0
(g1
g2
(lp258
Vappears
p259
atp260
Rp261
(dp262
g11
VVBZ
p263
sbag0
(g1
g2
(lp264
g0
(g1
g2
(lp265
g0
(g1
g2
(lp266
Vto
p267
atp268
Rp269
(dp270
g11
VTO
p271
sbag0
(g1
g2
(lp272
g0
(g1
g2
(lp273
Vbe
p274
atp275
Rp276
(dp277
g11
VVB
p278
sbag0
(g1
g2
(lp279
g0
(g1
g2
(lp280
Vwine
p281
atp282
Rp283
(dp284
g11
VNN
p285
sbatp286
Rp287
(dp288
g11
VNP
p289
sbatp290
Rp291
(dp292
g11
VVP
p293
sbatp294
Rp295
(dp296
g11
VVP
p297
sbatp298
Rp299
(dp300
g11
VS
p301
sbatp302
Rp303
(dp304
g11
VVP
p305
sbatp306
Rp307
(dp308
g11
VS
p309
sbatp310
Rp311
(dp312
g11
VSBAR
p313
sbatp314
Rp315
(dp316
g11
VVP
p317
sbatp318
Rp319
(dp320
g11
VVP
p321
sbatp322
Rp323
(dp324
g11
VS
p325
sbag0
(g1
g2
(lp326
V,
p327
atp328
Rp329
(dp330
g11
V,
p331
sbag0
(g1
g2
(lp332
Vand
p333
atp334
Rp335
(dp336
g11
VCC
p337
sbag0
(g1
g2
(lp338
g0
(g1
g2
(lp339
g0
(g1
g2
(lp340
g0
(g1
g2
(lp341
Vthere
p342
atp343
Rp344
(dp345
g11
VEX
p346
sbatp347
Rp348
(dp349
g11
VNP
p350
sbag0
(g1
g2
(lp351
g0
(g1
g2
(lp352
V's
p353
atp354
Rp355
(dp356
g11
VVBZ
p357
sbag0
(g1
g2
(lp358
g0
(g1
g2
(lp359
Va
p360
atp361
Rp362
(dp363
g11
VDT
p364
sbag0
(g1
g2
(lp365
Vbasket
p366
atp367
Rp368
(dp369
g11
VNN
p370
sbatp371
Rp372
(dp373
g11
VNP
p374
sbatp375
Rp376
(dp377
g11
VVP
p378
sbatp379
Rp380
(dp381
g11
VS
p382
sbag0
(g1
g2
(lp383
V,
p384
atp385
Rp386
(dp387
g11
V,
p388
sbag0
(g1
g2
(lp389
Vand
p390
atp391
Rp392
(dp393
g11
VCC
p394
sbag0
(g1
g2
(lp395
g0
(g1
g2
(lp396
g0
(g1
g2
(lp397
g0
(g1
g2
(lp398
VI
p399
atp400
Rp401
(dp402
g11
VPRP
p403
sbatp404
Rp405
(dp406
g11
VNP
p407
sbag0
(g1
g2
(lp408
g0
(g1
g2
(lp409
Vsee
p410
atp411
Rp412
(dp413
g11
VVBP
p414
sbag0
(g1
g2
(lp415
g0
(g1
g2
(lp416
Va
p417
atp418
Rp419
(dp420
g11
VDT
p421
sbag0
(g1
g2
(lp422
Vradio
p423
atp424
Rp425
(dp426
g11
VNN
p427
sbatp428
Rp429
(dp430
g11
VNP
p431
sbag0
(g1
g2
(lp432
g0
(g1
g2
(lp433
Vbeside
p434
atp435
Rp436
(dp437
g11
VIN
p438
sbag0
(g1
g2
(lp439
g0
(g1
g2
(lp440
Vthe
p441
atp442
Rp443
(dp444
g11
VDT
p445
sbag0
(g1
g2
(lp446
Vlady
p447
atp448
Rp449
(dp450
g11
VNN
p451
sbatp452
Rp453
(dp454
g11
VNP
p455
sbatp456
Rp457
(dp458
g11
VPP
p459
sbatp460
Rp461
(dp462
g11
VVP
p463
sbatp464
Rp465
(dp466
g11
VS
p467
sbag0
(g1
g2
(lp468
V,
p469
atp470
Rp471
(dp472
g11
V,
p473
sbag0
(g1
g2
(lp474
Vand
p475
atp476
Rp477
(dp478
g11
VCC
p479
sbag0
(g1
g2
(lp480
g0
(g1
g2
(lp481
g0
(g1
g2
(lp482
g0
(g1
g2
(lp483
Vthe
p484
atp485
Rp486
(dp487
g11
VDT
p488
sbag0
(g1
g2
(lp489
Vman
p490
atp491
Rp492
(dp493
g11
VNN
p494
sbatp495
Rp496
(dp497
g11
VNP
p498
sbag0
(g1
g2
(lp499
g0
(g1
g2
(lp500
Vis
p501
atp502
Rp503
(dp504
g11
VVBZ
p505
sbag0
(g1
g2
(lp506
g0
(g1
g2
(lp507
Va
p508
atp509
Rp510
(dp511
g11
VDT
p512
sbag0
(g1
g2
(lp513
Vwearing
p514
atp515
Rp516
(dp517
g11
VVBG
p518
sbag0
(g1
g2
(lp519
Vsandals
p520
atp521
Rp522
(dp523
g11
VNNS
p524
sbatp525
Rp526
(dp527
g11
VNP
p528
sbatp529
Rp530
(dp531
g11
VVP
p532
sbatp533
Rp534
(dp535
g11
VS
p536
sbag0
(g1
g2
(lp537
V,
p538
atp539
Rp540
(dp541
g11
V,
p542
sbag0
(g1
g2
(lp543
Vand
p544
atp545
Rp546
(dp547
g11
VCC
p548
sbag0
(g1
g2
(lp549
g0
(g1
g2
(lp550
g0
(g1
g2
(lp551
g0
(g1
g2
(lp552
Vright
p553
atp554
Rp555
(dp556
g11
VJJ
p557
sbag0
(g1
g2
(lp558
g0
(g1
g2
(lp559
Vbeside
p560
atp561
Rp562
(dp563
g11
VIN
p564
sbag0
(g1
g2
(lp565
g0
(g1
g2
(lp566
Vthe
p567
atp568
Rp569
(dp570
g11
VDT
p571
sbag0
(g1
g2
(lp572
g0
(g1
g2
(lp573
Vthis
p574
atp575
Rp576
(dp577
g11
VDT
p578
sbag0
(g1
g2
(lp579
Vnice
p580
atp581
Rp582
(dp583
g11
VJJ
p584
sbatp585
Rp586
(dp587
g11
VADJP
p588
sbag0
(g1
g2
(lp589
Vlittle
p590
atp591
Rp592
(dp593
g11
VJJ
p594
sbag0
(g1
g2
(lp595
Vfamily
p596
atp597
Rp598
(dp599
g11
VNN
p600
sbatp601
Rp602
(dp603
g11
VNP
p604
sbatp605
Rp606
(dp607
g11
VPP
p608
sbatp609
Rp610
(dp611
g11
VADVP
p612
sbag0
(g1
g2
(lp613
g0
(g1
g2
(lp614
Vthere
p615
atp616
Rp617
(dp618
g11
VEX
p619
sbatp620
Rp621
(dp622
g11
VNP
p623
sbag0
(g1
g2
(lp624
g0
(g1
g2
(lp625
Vappears
p626
atp627
Rp628
(dp629
g11
VVBZ
p630
sbag0
(g1
g2
(lp631
g0
(g1
g2
(lp632
g0
(g1
g2
(lp633
Vto
p634
atp635
Rp636
(dp637
g11
VTO
p638
sbag0
(g1
g2
(lp639
g0
(g1
g2
(lp640
Vbe
p641
atp642
Rp643
(dp644
g11
VVB
p645
sbag0
(g1
g2
(lp646
g0
(g1
g2
(lp647
g0
(g1
g2
(lp648
Vman
p649
atp650
Rp651
(dp652
g11
VNN
p653
sbatp654
Rp655
(dp656
g11
VNP
p657
sbag0
(g1
g2
(lp658
g0
(g1
g2
(lp659
g0
(g1
g2
(lp660
Vwho
p661
atp662
Rp663
(dp664
g11
VWP
p665
sbatp666
Rp667
(dp668
g11
VWHNP
p669
sbag0
(g1
g2
(lp670
g0
(g1
g2
(lp671
g0
(g1
g2
(lp672
V's
p673
atp674
Rp675
(dp676
g11
VVBZ
p677
sbag0
(g1
g2
(lp678
g0
(g1
g2
(lp679
Vrunning
p680
atp681
Rp682
(dp683
g11
VVBG
p684
sbag0
(g1
g2
(lp685
g0
(g1
g2
(lp686
Vwith
p687
atp688
Rp689
(dp690
g11
VIN
p691
sbag0
(g1
g2
(lp692
g0
(g1
g2
(lp693
Va
p694
atp695
Rp696
(dp697
g11
VDT
p698
sbag0
(g1
g2
(lp699
Vkite
p700
atp701
Rp702
(dp703
g11
VNN
p704
sbatp705
Rp706
(dp707
g11
VNP
p708
sbatp709
Rp710
(dp711
g11
VPP
p712
sbatp713
Rp714
(dp715
g11
VVP
p716
sbatp717
Rp718
(dp719
g11
VVP
p720
sbatp721
Rp722
(dp723
g11
VS
p724
sbatp725
Rp726
(dp727
g11
VSBAR
p728
sbatp729
Rp730
(dp731
g11
VNP
p732
sbatp733
Rp734
(dp735
g11
VVP
p736
sbatp737
Rp738
(dp739
g11
VVP
p740
sbatp741
Rp742
(dp743
g11
VS
p744
sbatp745
Rp746
(dp747
g11
VVP
p748
sbatp749
Rp750
(dp751
g11
VS
p752
sbag0
(g1
g2
(lp753
V,
p754
atp755
Rp756
(dp757
g11
V,
p758
sbag0
(g1
g2
(lp759
Vand
p760
atp761
Rp762
(dp763
g11
VCC
p764
sbag0
(g1
g2
(lp765
g0
(g1
g2
(lp766
g0
(g1
g2
(lp767
Vthe
p768
atp769
Rp770
(dp771
g11
VDT
p772
sbag0
(g1
g2
(lp773
Vdog
p774
atp775
Rp776
(dp777
g11
VNN
p778
sbatp779
Rp780
(dp781
g11
VNP
p782
sbag0
(g1
g2
(lp783
g0
(g1
g2
(lp784
Vis
p785
atp786
Rp787
(dp788
g11
VVBZ
p789
sbag0
(g1
g2
(lp790
g0
(g1
g2
(lp791
Vchasing
p792
atp793
Rp794
(dp795
g11
VVBG
p796
sbag0
(g1
g2
(lp797
g0
(g1
g2
(lp798
Vhim
p799
atp800
Rp801
(dp802
g11
VPRP
p803
sbatp804
Rp805
(dp806
g11
VNP
p807
sbatp808
Rp809
(dp810
g11
VVP
p811
sbatp812
Rp813
(dp814
g11
VVP
p815
sbatp816
Rp817
(dp818
g11
VS
p819
sbatp820
Rp821
(dp822
g11
VS
p823
sbatp824
Rp825
(dp826
g11
VS
p827
sbatp828
Rp829
(dp830
g11
VS
p831
sbatp832
Rp833
(dp834
g11
VS
p835
sbag0
(g1
g2
(lp836
V.
p837
atp838
Rp839
(dp840
g11
V.
p841
sbatp842
Rp843
(dp844
g11
VS
p845
sbatp846
Rp847
(dp848
g11
S'id: 2'
p849
sbag0
(g1
g2
(lp850
g0
(g1
g2
(lp851
g0
(g1
g2
(lp852
g0
(g1
g2
(lp853
Vbeside
p854
atp855
Rp856
(dp857
g11
VIN
p858
sbag0
(g1
g2
(lp859
g0
(g1
g2
(lp860
Vthe
p861
atp862
Rp863
(dp864
g11
VDT
p865
sbag0
(g1
g2
(lp866
Vthe
p867
atp868
Rp869
(dp870
g11
VDT
p871
sbag0
(g1
g2
(lp872
Vman
p873
atp874
Rp875
(dp876
g11
VNN
p877
sbatp878
Rp879
(dp880
g11
VNP
p881
sbatp882
Rp883
(dp884
g11
VPP
p885
sbag0
(g1
g2
(lp886
V,
p887
atp888
Rp889
(dp890
g11
V,
p891
sbag0
(g1
g2
(lp892
g0
(g1
g2
(lp893
g0
(g1
g2
(lp894
VI
p895
atp896
Rp897
(dp898
g11
VPRP
p899
sbatp900
Rp901
(dp902
g11
VNP
p903
sbag0
(g1
g2
(lp904
g0
(g1
g2
(lp905
V'm
p906
atp907
Rp908
(dp909
g11
VVBP
p910
sbag0
(g1
g2
(lp911
g0
(g1
g2
(lp912
Vsorry
p913
atp914
Rp915
(dp916
g11
VJJ
p917
sbag0
(g1
g2
(lp918
g0
(g1
g2
(lp919
g0
(g1
g2
(lp920
g0
(g1
g2
(lp921
Vthe
p922
atp923
Rp924
(dp925
g11
VDT
p926
sbag0
(g1
g2
(lp927
Vboy
p928
atp929
Rp930
(dp931
g11
VNN
p932
sbatp933
Rp934
(dp935
g11
VNP
p936
sbag0
(g1
g2
(lp937
V,
p938
atp939
Rp940
(dp941
g11
V,
p942
sbag0
(g1
g2
(lp943
g0
(g1
g2
(lp944
Vis
p945
atp946
Rp947
(dp948
g11
VVBZ
p949
sbag0
(g1
g2
(lp950
g0
(g1
g2
(lp951
g0
(g1
g2
(lp952
Va
p953
atp954
Rp955
(dp956
g11
VDT
p957
sbag0
(g1
g2
(lp958
Vlittle
p959
atp960
Rp961
(dp962
g11
VJJ
p963
sbag0
(g1
g2
(lp964
Vgirl
p965
atp966
Rp967
(dp968
g11
VNN
p969
sbatp970
Rp971
(dp972
g11
VNP
p973
sbag0
(g1
g2
(lp974
g0
(g1
g2
(lp975
g0
(g1
g2
(lp976
Vwho
p977
atp978
Rp979
(dp980
g11
VWP
p981
sbatp982
Rp983
(dp984
g11
VWHNP
p985
sbag0
(g1
g2
(lp986
g0
(g1
g2
(lp987
g0
(g1
g2
(lp988
V's
p989
atp990
Rp991
(dp992
g11
VVBZ
p993
sbag0
(g1
g2
(lp994
g0
(g1
g2
(lp995
Vat
p996
atp997
Rp998
(dp999
g11
VIN
p1000
sbag0
(g1
g2
(lp1001
g0
(g1
g2
(lp1002
g0
(g1
g2
(lp1003
Vthe
p1004
atp1005
Rp1006
(dp1007
g11
VDT
p1008
sbag0
(g1
g2
(lp1009
Vbeach
p1010
atp1011
Rp1012
(dp1013
g11
VNN
p1014
sbatp1015
Rp1016
(dp1017
g11
VNP
p1018
sbag0
(g1
g2
(lp1019
V,
p1020
atp1021
Rp1022
(dp1023
g11
V,
p1024
sbag0
(g1
g2
(lp1025
g0
(g1
g2
(lp1026
g0
(g1
g2
(lp1027
Vwho
p1028
atp1029
Rp1030
(dp1031
g11
VWP
p1032
sbatp1033
Rp1034
(dp1035
g11
VWHNP
p1036
sbag0
(g1
g2
(lp1037
g0
(g1
g2
(lp1038
g0
(g1
g2
(lp1039
V's
p1040
atp1041
Rp1042
(dp1043
g11
VVBZ
p1044
sbag0
(g1
g2
(lp1045
g0
(g1
g2
(lp1046
Vplaying
p1047
atp1048
Rp1049
(dp1050
g11
VVBG
p1051
sbag0
(g1
g2
(lp1052
g0
(g1
g2
(lp1053
Vwith
p1054
atp1055
Rp1056
(dp1057
g11
VIN
p1058
sbag0
(g1
g2
(lp1059
g0
(g1
g2
(lp1060
Vsand
p1061
atp1062
Rp1063
(dp1064
g11
VNN
p1065
sbatp1066
Rp1067
(dp1068
g11
VNP
p1069
sbatp1070
Rp1071
(dp1072
g11
VPP
p1073
sbatp1074
Rp1075
(dp1076
g11
VVP
p1077
sbatp1078
Rp1079
(dp1080
g11
VVP
p1081
sbatp1082
Rp1083
(dp1084
g11
VS
p1085
sbatp1086
Rp1087
(dp1088
g11
VSBAR
p1089
sbatp1090
Rp1091
(dp1092
g11
VNP
p1093
sbatp1094
Rp1095
(dp1096
g11
VPP
p1097
sbatp1098
Rp1099
(dp1100
g11
VVP
p1101
sbatp1102
Rp1103
(dp1104
g11
VS
p1105
sbatp1106
Rp1107
(dp1108
g11
VSBAR
p1109
sbatp1110
Rp1111
(dp1112
g11
VNP
p1113
sbatp1114
Rp1115
(dp1116
g11
VVP
p1117
sbatp1118
Rp1119
(dp1120
g11
VS
p1121
sbatp1122
Rp1123
(dp1124
g11
VSBAR
p1125
sbatp1126
Rp1127
(dp1128
g11
VADJP
p1129
sbatp1130
Rp1131
(dp1132
g11
VVP
p1133
sbatp1134
Rp1135
(dp1136
g11
VS
p1137
sbag0
(g1
g2
(lp1138
V,
p1139
atp1140
Rp1141
(dp1142
g11
V,
p1143
sbag0
(g1
g2
(lp1144
Vand
p1145
atp1146
Rp1147
(dp1148
g11
VCC
p1149
sbag0
(g1
g2
(lp1150
g0
(g1
g2
(lp1151
g0
(g1
g2
(lp1152
Vshe
p1153
atp1154
Rp1155
(dp1156
g11
VPRP
p1157
sbatp1158
Rp1159
(dp1160
g11
VNP
p1161
sbag0
(g1
g2
(lp1162
g0
(g1
g2
(lp1163
Vhas
p1164
atp1165
Rp1166
(dp1167
g11
VVBZ
p1168
sbag0
(g1
g2
(lp1169
g0
(g1
g2
(lp1170
g0
(g1
g2
(lp1171
Va
p1172
atp1173
Rp1174
(dp1175
g11
VDT
p1176
sbag0
(g1
g2
(lp1177
Vbucket
p1178
atp1179
Rp1180
(dp1181
g11
VNN
p1182
sbatp1183
Rp1184
(dp1185
g11
VNP
p1186
sbag0
(g1
g2
(lp1187
V,
p1188
atp1189
Rp1190
(dp1191
g11
V,
p1192
sbag0
(g1
g2
(lp1193
Vand
p1194
atp1195
Rp1196
(dp1197
g11
VCC
p1198
sbag0
(g1
g2
(lp1199
g0
(g1
g2
(lp1200
Va
p1201
atp1202
Rp1203
(dp1204
g11
VDT
p1205
sbag0
(g1
g2
(lp1206
Vshovel
p1207
atp1208
Rp1209
(dp1210
g11
VNN
p1211
sbatp1212
Rp1213
(dp1214
g11
VNP
p1215
sbatp1216
Rp1217
(dp1218
g11
VNP
p1219
sbatp1220
Rp1221
(dp1222
g11
VVP
p1223
sbatp1224
Rp1225
(dp1226
g11
VS
p1227
sbag0
(g1
g2
(lp1228
V.
p1229
atp1230
Rp1231
(dp1232
g11
V.
p1233
sbatp1234
Rp1235
(dp1236
g11
VS
p1237
sbatp1238
Rp1239
(dp1240
g11
S'id: 3'
p1241
sbag0
(g1
g2
(lp1242
g0
(g1
g2
(lp1243
g0
(g1
g2
(lp1244
Vand
p1245
atp1246
Rp1247
(dp1248
g11
VCC
p1249
sbag0
(g1
g2
(lp1250
g0
(g1
g2
(lp1251
Vin
p1252
atp1253
Rp1254
(dp1255
g11
VIN
p1256
sbag0
(g1
g2
(lp1257
g0
(g1
g2
(lp1258
Vthe
p1259
atp1260
Rp1261
(dp1262
g11
VDT
p1263
sbag0
(g1
g2
(lp1264
Vback
p1265
atp1266
Rp1267
(dp1268
g11
VRB
p1269
sbatp1270
Rp1271
(dp1272
g11
VNP
p1273
sbatp1274
Rp1275
(dp1276
g11
VPP
p1277
sbag0
(g1
g2
(lp1278
V,
p1279
atp1280
Rp1281
(dp1282
g11
V,
p1283
sbag0
(g1
g2
(lp1284
g0
(g1
g2
(lp1285
g0
(g1
g2
(lp1286
Vin
p1287
atp1288
Rp1289
(dp1290
g11
VIN
p1291
sbag0
(g1
g2
(lp1292
g0
(g1
g2
(lp1293
Vthe
p1294
atp1295
Rp1296
(dp1297
g11
VDT
p1298
sbag0
(g1
g2
(lp1299
Vback
p1300
atp1301
Rp1302
(dp1303
g11
VJJ
p1304
sbag0
(g1
g2
(lp1305
Varea
p1306
atp1307
Rp1308
(dp1309
g11
VNN
p1310
sbatp1311
Rp1312
(dp1313
g11
VNP
p1314
sbatp1315
Rp1316
(dp1317
g11
VPP
p1318
sbag0
(g1
g2
(lp1319
g0
(g1
g2
(lp1320
Vthere
p1321
atp1322
Rp1323
(dp1324
g11
VEX
p1325
sbatp1326
Rp1327
(dp1328
g11
VNP
p1329
sbag0
(g1
g2
(lp1330
g0
(g1
g2
(lp1331
V's
p1332
atp1333
Rp1334
(dp1335
g11
VVBZ
p1336
sbag0
(g1
g2
(lp1337
g0
(g1
g2
(lp1338
g0
(g1
g2
(lp1339
Va
p1340
atp1341
Rp1342
(dp1343
g11
VDT
p1344
sbag0
(g1
g2
(lp1345
Vpicture
p1346
atp1347
Rp1348
(dp1349
g11
VNN
p1350
sbatp1351
Rp1352
(dp1353
g11
VNP
p1354
sbag0
(g1
g2
(lp1355
g0
(g1
g2
(lp1356
Vof
p1357
atp1358
Rp1359
(dp1360
g11
VIN
p1361
sbag0
(g1
g2
(lp1362
g0
(g1
g2
(lp1363
g0
(g1
g2
(lp1364
Van
p1365
atp1366
Rp1367
(dp1368
g11
VDT
p1369
sbag0
(g1
g2
(lp1370
Volder
p1371
atp1372
Rp1373
(dp1374
g11
VJJR
p1375
sbag0
(g1
g2
(lp1376
Vman
p1377
atp1378
Rp1379
(dp1380
g11
VNN
p1381
sbatp1382
Rp1383
(dp1384
g11
VNP
p1385
sbag0
(g1
g2
(lp1386
g0
(g1
g2
(lp1387
g0
(g1
g2
(lp1388
Vwho
p1389
atp1390
Rp1391
(dp1392
g11
VWP
p1393
sbatp1394
Rp1395
(dp1396
g11
VWHNP
p1397
sbag0
(g1
g2
(lp1398
g0
(g1
g2
(lp1399
g0
(g1
g2
(lp1400
Vappears
p1401
atp1402
Rp1403
(dp1404
g11
VVBZ
p1405
sbag0
(g1
g2
(lp1406
g0
(g1
g2
(lp1407
g0
(g1
g2
(lp1408
Vto
p1409
atp1410
Rp1411
(dp1412
g11
VTO
p1413
sbag0
(g1
g2
(lp1414
g0
(g1
g2
(lp1415
Vbe
p1416
atp1417
Rp1418
(dp1419
g11
VVB
p1420
sbag0
(g1
g2
(lp1421
g0
(g1
g2
(lp1422
Vfishing
p1423
atp1424
Rp1425
(dp1426
g11
VNN
p1427
sbatp1428
Rp1429
(dp1430
g11
VNP
p1431
sbatp1432
Rp1433
(dp1434
g11
VVP
p1435
sbatp1436
Rp1437
(dp1438
g11
VVP
p1439
sbatp1440
Rp1441
(dp1442
g11
VS
p1443
sbatp1444
Rp1445
(dp1446
g11
VVP
p1447
sbatp1448
Rp1449
(dp1450
g11
VS
p1451
sbatp1452
Rp1453
(dp1454
g11
VSBAR
p1455
sbatp1456
Rp1457
(dp1458
g11
VNP
p1459
sbatp1460
Rp1461
(dp1462
g11
VPP
p1463
sbatp1464
Rp1465
(dp1466
g11
VNP
p1467
sbatp1468
Rp1469
(dp1470
g11
VVP
p1471
sbatp1472
Rp1473
(dp1474
g11
VS
p1475
sbag0
(g1
g2
(lp1476
V,
p1477
atp1478
Rp1479
(dp1480
g11
V,
p1481
sbag0
(g1
g2
(lp1482
Vand
p1483
atp1484
Rp1485
(dp1486
g11
VCC
p1487
sbag0
(g1
g2
(lp1488
g0
(g1
g2
(lp1489
g0
(g1
g2
(lp1490
Vit
p1491
atp1492
Rp1493
(dp1494
g11
VPRP
p1495
sbatp1496
Rp1497
(dp1498
g11
VNP
p1499
sbag0
(g1
g2
(lp1500
g0
(g1
g2
(lp1501
Vlooks
p1502
atp1503
Rp1504
(dp1505
g11
VVBZ
p1506
sbag0
(g1
g2
(lp1507
g0
(g1
g2
(lp1508
Vlike
p1509
atp1510
Rp1511
(dp1512
g11
VIN
p1513
sbag0
(g1
g2
(lp1514
g0
(g1
g2
(lp1515
g0
(g1
g2
(lp1516
Vhe
p1517
atp1518
Rp1519
(dp1520
g11
VPRP
p1521
sbatp1522
Rp1523
(dp1524
g11
VNP
p1525
sbag0
(g1
g2
(lp1526
g0
(g1
g2
(lp1527
Vhas
p1528
atp1529
Rp1530
(dp1531
g11
VVBZ
p1532
sbag0
(g1
g2
(lp1533
g0
(g1
g2
(lp1534
g0
(g1
g2
(lp1535
Va
p1536
atp1537
Rp1538
(dp1539
g11
VDT
p1540
sbag0
(g1
g2
(lp1541
Vfish
p1542
atp1543
Rp1544
(dp1545
g11
VNN
p1546
sbatp1547
Rp1548
(dp1549
g11
VNP
p1550
sbag0
(g1
g2
(lp1551
g0
(g1
g2
(lp1552
Von
p1553
atp1554
Rp1555
(dp1556
g11
VIN
p1557
sbag0
(g1
g2
(lp1558
g0
(g1
g2
(lp1559
g0
(g1
g2
(lp1560
Vthe
p1561
atp1562
Rp1563
(dp1564
g11
VDT
p1565
sbag0
(g1
g2
(lp1566
Vend
p1567
atp1568
Rp1569
(dp1570
g11
VNN
p1571
sbatp1572
Rp1573
(dp1574
g11
VNP
p1575
sbag0
(g1
g2
(lp1576
g0
(g1
g2
(lp1577
Vof
p1578
atp1579
Rp1580
(dp1581
g11
VIN
p1582
sbag0
(g1
g2
(lp1583
g0
(g1
g2
(lp1584
Vthe
p1585
atp1586
Rp1587
(dp1588
g11
VDT
p1589
sbag0
(g1
g2
(lp1590
Vline
p1591
atp1592
Rp1593
(dp1594
g11
VNN
p1595
sbatp1596
Rp1597
(dp1598
g11
VNP
p1599
sbatp1600
Rp1601
(dp1602
g11
VPP
p1603
sbatp1604
Rp1605
(dp1606
g11
VNP
p1607
sbatp1608
Rp1609
(dp1610
g11
VPP
p1611
sbatp1612
Rp1613
(dp1614
g11
VNP
p1615
sbatp1616
Rp1617
(dp1618
g11
VVP
p1619
sbatp1620
Rp1621
(dp1622
g11
VS
p1623
sbatp1624
Rp1625
(dp1626
g11
VSBAR
p1627
sbatp1628
Rp1629
(dp1630
g11
VVP
p1631
sbatp1632
Rp1633
(dp1634
g11
VS
p1635
sbag0
(g1
g2
(lp1636
V.
p1637
atp1638
Rp1639
(dp1640
g11
V.
p1641
sbatp1642
Rp1643
(dp1644
g11
VS
p1645
sbatp1646
Rp1647
(dp1648
g11
S'id: 4'
p1649
sbag0
(g1
g2
(lp1650
g0
(g1
g2
(lp1651
g0
(g1
g2
(lp1652
Vand
p1653
atp1654
Rp1655
(dp1656
g11
VCC
p1657
sbag0
(g1
g2
(lp1658
g0
(g1
g2
(lp1659
Vin
p1660
atp1661
Rp1662
(dp1663
g11
VIN
p1664
sbag0
(g1
g2
(lp1665
g0
(g1
g2
(lp1666
Vthe
p1667
atp1668
Rp1669
(dp1670
g11
VDT
p1671
sbag0
(g1
g2
(lp1672
Vback
p1673
atp1674
Rp1675
(dp1676
g11
VRB
p1677
sbatp1678
Rp1679
(dp1680
g11
VNP
p1681
sbatp1682
Rp1683
(dp1684
g11
VPP
p1685
sbag0
(g1
g2
(lp1686
V,
p1687
atp1688
Rp1689
(dp1690
g11
V,
p1691
sbag0
(g1
g2
(lp1692
g0
(g1
g2
(lp1693
Vin
p1694
atp1695
Rp1696
(dp1697
g11
VIN
p1698
sbag0
(g1
g2
(lp1699
g0
(g1
g2
(lp1700
Vthe
p1701
atp1702
Rp1703
(dp1704
g11
VDT
p1705
sbag0
(g1
g2
(lp1706
Vback
p1707
atp1708
Rp1709
(dp1710
g11
VRB
p1711
sbatp1712
Rp1713
(dp1714
g11
VNP
p1715
sbatp1716
Rp1717
(dp1718
g11
VPP
p1719
sbag0
(g1
g2
(lp1720
V,
p1721
atp1722
Rp1723
(dp1724
g11
V,
p1725
sbag0
(g1
g2
(lp1726
g0
(g1
g2
(lp1727
Vyou
p1728
atp1729
Rp1730
(dp1731
g11
VPRP
p1732
sbatp1733
Rp1734
(dp1735
g11
VNP
p1736
sbag0
(g1
g2
(lp1737
g0
(g1
g2
(lp1738
Vcan
p1739
atp1740
Rp1741
(dp1742
g11
VMD
p1743
sbag0
(g1
g2
(lp1744
g0
(g1
g2
(lp1745
Vsee
p1746
atp1747
Rp1748
(dp1749
g11
VVB
p1750
sbag0
(g1
g2
(lp1751
g0
(g1
g2
(lp1752
Va
p1753
atp1754
Rp1755
(dp1756
g11
VDT
p1757
sbag0
(g1
g2
(lp1758
Vsailboat
p1759
atp1760
Rp1761
(dp1762
g11
VNN
p1763
sbatp1764
Rp1765
(dp1766
g11
VNP
p1767
sbag0
(g1
g2
(lp1768
g0
(g1
g2
(lp1769
Vwith
p1770
atp1771
Rp1772
(dp1773
g11
VIN
p1774
sbag0
(g1
g2
(lp1775
g0
(g1
g2
(lp1776
g0
(g1
g2
(lp1777
Vtwo
p1778
atp1779
Rp1780
(dp1781
g11
VCD
p1782
sbag0
(g1
g2
(lp1783
Vpeople
p1784
atp1785
Rp1786
(dp1787
g11
VNNS
p1788
sbatp1789
Rp1790
(dp1791
g11
VNP
p1792
sbag0
(g1
g2
(lp1793
g0
(g1
g2
(lp1794
Von
p1795
atp1796
Rp1797
(dp1798
g11
VIN
p1799
sbag0
(g1
g2
(lp1800
g0
(g1
g2
(lp1801
g0
(g1
g2
(lp1802
Vthe
p1803
atp1804
Rp1805
(dp1806
g11
VDT
p1807
sbag0
(g1
g2
(lp1808
Vback
p1809
atp1810
Rp1811
(dp1812
g11
VNN
p1813
sbatp1814
Rp1815
(dp1816
g11
VNP
p1817
sbag0
(g1
g2
(lp1818
g0
(g1
g2
(lp1819
Vof
p1820
atp1821
Rp1822
(dp1823
g11
VIN
p1824
sbag0
(g1
g2
(lp1825
g0
(g1
g2
(lp1826
Vthe
p1827
atp1828
Rp1829
(dp1830
g11
VDT
p1831
sbag0
(g1
g2
(lp1832
Vsailboat
p1833
atp1834
Rp1835
(dp1836
g11
VNN
p1837
sbatp1838
Rp1839
(dp1840
g11
VNP
p1841
sbatp1842
Rp1843
(dp1844
g11
VPP
p1845
sbatp1846
Rp1847
(dp1848
g11
VNP
p1849
sbatp1850
Rp1851
(dp1852
g11
VPP
p1853
sbatp1854
Rp1855
(dp1856
g11
VNP
p1857
sbatp1858
Rp1859
(dp1860
g11
VPP
p1861
sbatp1862
Rp1863
(dp1864
g11
VVP
p1865
sbatp1866
Rp1867
(dp1868
g11
VVP
p1869
sbag0
(g1
g2
(lp1870
V.
p1871
atp1872
Rp1873
(dp1874
g11
V.
p1875
sbatp1876
Rp1877
(dp1878
g11
VS
p1879
sbatp1880
Rp1881
(dp1882
g11
S'id: 5'
p1883
sbag0
(g1
g2
(lp1884
g0
(g1
g2
(lp1885
g0
(g1
g2
(lp1886
g0
(g1
g2
(lp1887
Vand
p1888
atp1889
Rp1890
(dp1891
g11
VCC
p1892
sbag0
(g1
g2
(lp1893
g0
(g1
g2
(lp1894
Vthere
p1895
atp1896
Rp1897
(dp1898
g11
VEX
p1899
sbatp1900
Rp1901
(dp1902
g11
VNP
p1903
sbag0
(g1
g2
(lp1904
g0
(g1
g2
(lp1905
V's
p1906
atp1907
Rp1908
(dp1909
g11
VVBZ
p1910
sbag0
(g1
g2
(lp1911
g0
(g1
g2
(lp1912
Valso
p1913
atp1914
Rp1915
(dp1916
g11
VRB
p1917
sbatp1918
Rp1919
(dp1920
g11
VADVP
p1921
sbag0
(g1
g2
(lp1922
g0
(g1
g2
(lp1923
g0
(g1
g2
(lp1924
Va
p1925
atp1926
Rp1927
(dp1928
g11
VDT
p1929
sbag0
(g1
g2
(lp1930
Vpicture
p1931
atp1932
Rp1933
(dp1934
g11
VNN
p1935
sbatp1936
Rp1937
(dp1938
g11
VNP
p1939
sbag0
(g1
g2
(lp1940
g0
(g1
g2
(lp1941
Vof
p1942
atp1943
Rp1944
(dp1945
g11
VIN
p1946
sbag0
(g1
g2
(lp1947
g0
(g1
g2
(lp1948
Va
p1949
atp1950
Rp1951
(dp1952
g11
VDT
p1953
sbag0
(g1
g2
(lp1954
g0
(g1
g2
(lp1955
V,
p1956
atp1957
Rp1958
(dp1959
g11
V,
p1960
sbag0
(g1
g2
(lp1961
g0
(g1
g2
(lp1962
Vof
p1963
atp1964
Rp1965
(dp1966
g11
VIN
p1967
sbag0
(g1
g2
(lp1968
g0
(g1
g2
(lp1969
Va
p1970
atp1971
Rp1972
(dp1973
g11
VDT
p1974
sbag0
(g1
g2
(lp1975
Vhouse
p1976
atp1977
Rp1978
(dp1979
g11
VNN
p1980
sbatp1981
Rp1982
(dp1983
g11
VNP
p1984
sbatp1985
Rp1986
(dp1987
g11
VPP
p1988
sbag0
(g1
g2
(lp1989
V,
p1990
atp1991
Rp1992
(dp1993
g11
V,
p1994
sbatp1995
Rp1996
(dp1997
g11
VPRN
p1998
sbatp1999
Rp2000
(dp2001
g11
VNP
p2002
sbatp2003
Rp2004
(dp2005
g11
VPP
p2006
sbag0
(g1
g2
(lp2007
g0
(g1
g2
(lp2008
g0
(g1
g2
(lp2009
Vthat
p2010
atp2011
Rp2012
(dp2013
g11
VWDT
p2014
sbatp2015
Rp2016
(dp2017
g11
VWHNP
p2018
sbag0
(g1
g2
(lp2019
g0
(g1
g2
(lp2020
g0
(g1
g2
(lp2021
Vhas
p2022
atp2023
Rp2024
(dp2025
g11
VVBZ
p2026
sbag0
(g1
g2
(lp2027
g0
(g1
g2
(lp2028
Vtrees
p2029
atp2030
Rp2031
(dp2032
g11
VNNS
p2033
sbatp2034
Rp2035
(dp2036
g11
VNP
p2037
sbatp2038
Rp2039
(dp2040
g11
VVP
p2041
sbatp2042
Rp2043
(dp2044
g11
VS
p2045
sbatp2046
Rp2047
(dp2048
g11
VSBAR
p2049
sbatp2050
Rp2051
(dp2052
g11
VNP
p2053
sbatp2054
Rp2055
(dp2056
g11
VVP
p2057
sbatp2058
Rp2059
(dp2060
g11
VS
p2061
sbag0
(g1
g2
(lp2062
V,
p2063
atp2064
Rp2065
(dp2066
g11
V,
p2067
sbag0
(g1
g2
(lp2068
Vand
p2069
atp2070
Rp2071
(dp2072
g11
VCC
p2073
sbag0
(g1
g2
(lp2074
g0
(g1
g2
(lp2075
g0
(g1
g2
(lp2076
Vthere
p2077
atp2078
Rp2079
(dp2080
g11
VEX
p2081
sbatp2082
Rp2083
(dp2084
g11
VNP
p2085
sbag0
(g1
g2
(lp2086
g0
(g1
g2
(lp2087
V's
p2088
atp2089
Rp2090
(dp2091
g11
VVBZ
p2092
sbag0
(g1
g2
(lp2093
g0
(g1
g2
(lp2094
g0
(g1
g2
(lp2095
Va
p2096
atp2097
Rp2098
(dp2099
g11
VDT
p2100
sbag0
(g1
g2
(lp2101
Vflag
p2102
atp2103
Rp2104
(dp2105
g11
VNN
p2106
sbatp2107
Rp2108
(dp2109
g11
VNP
p2110
sbag0
(g1
g2
(lp2111
V,
p2112
atp2113
Rp2114
(dp2115
g11
V,
p2116
sbag0
(g1
g2
(lp2117
g0
(g1
g2
(lp2118
Va
p2119
atp2120
Rp2121
(dp2122
g11
VDT
p2123
sbag0
(g1
g2
(lp2124
Vflagpole
p2125
atp2126
Rp2127
(dp2128
g11
VNN
p2129
sbatp2130
Rp2131
(dp2132
g11
VNP
p2133
sbatp2134
Rp2135
(dp2136
g11
VNP
p2137
sbatp2138
Rp2139
(dp2140
g11
VVP
p2141
sbatp2142
Rp2143
(dp2144
g11
VS
p2145
sbag0
(g1
g2
(lp2146
V.
p2147
atp2148
Rp2149
(dp2150
g11
V.
p2151
sbatp2152
Rp2153
(dp2154
g11
VS
p2155
sbatp2156
Rp2157
(dp2158
g11
S'id: 6'
p2159
sbag0
(g1
g2
(lp2160
g0
(g1
g2
(lp2161
g0
(g1
g2
(lp2162
Vand
p2163
atp2164
Rp2165
(dp2166
g11
VCC
p2167
sbag0
(g1
g2
(lp2168
g0
(g1
g2
(lp2169
Vin
p2170
atp2171
Rp2172
(dp2173
g11
VIN
p2174
sbag0
(g1
g2
(lp2175
g0
(g1
g2
(lp2176
g0
(g1
g2
(lp2177
Vfront
p2178
atp2179
Rp2180
(dp2181
g11
VNN
p2182
sbatp2183
Rp2184
(dp2185
g11
VNP
p2186
sbag0
(g1
g2
(lp2187
g0
(g1
g2
(lp2188
Vof
p2189
atp2190
Rp2191
(dp2192
g11
VIN
p2193
sbag0
(g1
g2
(lp2194
g0
(g1
g2
(lp2195
Vthe
p2196
atp2197
Rp2198
(dp2199
g11
VDT
p2200
sbag0
(g1
g2
(lp2201
Vcar
p2202
atp2203
Rp2204
(dp2205
g11
VNN
p2206
sbatp2207
Rp2208
(dp2209
g11
VNP
p2210
sbatp2211
Rp2212
(dp2213
g11
VPP
p2214
sbatp2215
Rp2216
(dp2217
g11
VNP
p2218
sbatp2219
Rp2220
(dp2221
g11
VPP
p2222
sbag0
(g1
g2
(lp2223
V,
p2224
atp2225
Rp2226
(dp2227
g11
V,
p2228
sbag0
(g1
g2
(lp2229
g0
(g1
g2
(lp2230
Vthere
p2231
atp2232
Rp2233
(dp2234
g11
VEX
p2235
sbatp2236
Rp2237
(dp2238
g11
VNP
p2239
sbag0
(g1
g2
(lp2240
g0
(g1
g2
(lp2241
V's
p2242
atp2243
Rp2244
(dp2245
g11
VVBZ
p2246
sbag0
(g1
g2
(lp2247
g0
(g1
g2
(lp2248
g0
(g1
g2
(lp2249
Va
p2250
atp2251
Rp2252
(dp2253
g11
VDT
p2254
sbag0
(g1
g2
(lp2255
Vpicture
p2256
atp2257
Rp2258
(dp2259
g11
VNN
p2260
sbatp2261
Rp2262
(dp2263
g11
VNP
p2264
sbag0
(g1
g2
(lp2265
g0
(g1
g2
(lp2266
Vof
p2267
atp2268
Rp2269
(dp2270
g11
VIN
p2271
sbag0
(g1
g2
(lp2272
g0
(g1
g2
(lp2273
Vcar
p2274
atp2275
Rp2276
(dp2277
g11
VNN
p2278
sbatp2279
Rp2280
(dp2281
g11
VNP
p2282
sbatp2283
Rp2284
(dp2285
g11
VPP
p2286
sbatp2287
Rp2288
(dp2289
g11
VNP
p2290
sbatp2291
Rp2292
(dp2293
g11
VVP
p2294
sbag0
(g1
g2
(lp2295
V.
p2296
atp2297
Rp2298
(dp2299
g11
V.
p2300
sbatp2301
Rp2302
(dp2303
g11
VS
p2304
sbatp2305
Rp2306
(dp2307
g11
S'id: 7'
p2308
sbag0
(g1
g2
(lp2309
g0
(g1
g2
(lp2310
g0
(g1
g2
(lp2311
Vand
p2312
atp2313
Rp2314
(dp2315
g11
VCC
p2316
sbag0
(g1
g2
(lp2317
g0
(g1
g2
(lp2318
Vthere
p2319
atp2320
Rp2321
(dp2322
g11
VEX
p2323
sbatp2324
Rp2325
(dp2326
g11
VNP
p2327
sbag0
(g1
g2
(lp2328
g0
(g1
g2
(lp2329
V's
p2330
atp2331
Rp2332
(dp2333
g11
VVBZ
p2334
sbag0
(g1
g2
(lp2335
g0
(g1
g2
(lp2336
g0
(g1
g2
(lp2337
Vbushes
p2338
atp2339
Rp2340
(dp2341
g11
VNNS
p2342
sbatp2343
Rp2344
(dp2345
g11
VNP
p2346
sbag0
(g1
g2
(lp2347
g0
(g1
g2
(lp2348
Vbehind
p2349
atp2350
Rp2351
(dp2352
g11
VIN
p2353
sbag0
(g1
g2
(lp2354
g0
(g1
g2
(lp2355
Vthe
p2356
atp2357
Rp2358
(dp2359
g11
VDT
p2360
sbag0
(g1
g2
(lp2361
Vhouse
p2362
atp2363
Rp2364
(dp2365
g11
VNN
p2366
sbatp2367
Rp2368
(dp2369
g11
VNP
p2370
sbatp2371
Rp2372
(dp2373
g11
VPP
p2374
sbatp2375
Rp2376
(dp2377
g11
VNP
p2378
sbatp2379
Rp2380
(dp2381
g11
VVP
p2382
sbag0
(g1
g2
(lp2383
V.
p2384
atp2385
Rp2386
(dp2387
g11
V.
p2388
sbatp2389
Rp2390
(dp2391
g11
VS
p2392
sbatp2393
Rp2394
(dp2395
g11
S'id: 8'
p2396
sbag0
(g1
g2
(lp2397
g0
(g1
g2
(lp2398
g0
(g1
g2
(lp2399
Vand
p2400
atp2401
Rp2402
(dp2403
g11
VCC
p2404
sbag0
(g1
g2
(lp2405
g0
(g1
g2
(lp2406
g0
(g1
g2
(lp2407
Vthe
p2408
atp2409
Rp2410
(dp2411
g11
VDT
p2412
sbag0
(g1
g2
(lp2413
Vman
p2414
atp2415
Rp2416
(dp2417
g11
VNN
p2418
sbatp2419
Rp2420
(dp2421
g11
VNP
p2422
sbag0
(g1
g2
(lp2423
g0
(g1
g2
(lp2424
g0
(g1
g2
(lp2425
Vwho
p2426
atp2427
Rp2428
(dp2429
g11
VWP
p2430
sbatp2431
Rp2432
(dp2433
g11
VWHNP
p2434
sbag0
(g1
g2
(lp2435
g0
(g1
g2
(lp2436
g0
(g1
g2
(lp2437
Vis
p2438
atp2439
Rp2440
(dp2441
g11
VVBZ
p2442
sbag0
(g1
g2
(lp2443
g0
(g1
g2
(lp2444
Vfishing
p2445
atp2446
Rp2447
(dp2448
g11
VNN
p2449
sbatp2450
Rp2451
(dp2452
g11
VNP
p2453
sbatp2454
Rp2455
(dp2456
g11
VVP
p2457
sbatp2458
Rp2459
(dp2460
g11
VS
p2461
sbatp2462
Rp2463
(dp2464
g11
VSBAR
p2465
sbatp2466
Rp2467
(dp2468
g11
VNP
p2469
sbag0
(g1
g2
(lp2470
g0
(g1
g2
(lp2471
Vis
p2472
atp2473
Rp2474
(dp2475
g11
VVBZ
p2476
sbag0
(g1
g2
(lp2477
g0
(g1
g2
(lp2478
Vstanding
p2479
atp2480
Rp2481
(dp2482
g11
VVBG
p2483
sbag0
(g1
g2
(lp2484
g0
(g1
g2
(lp2485
Von
p2486
atp2487
Rp2488
(dp2489
g11
VIN
p2490
sbag0
(g1
g2
(lp2491
g0
(g1
g2
(lp2492
g0
(g1
g2
(lp2493
Vtop
p2494
atp2495
Rp2496
(dp2497
g11
VNN
p2498
sbatp2499
Rp2500
(dp2501
g11
VNP
p2502
sbag0
(g1
g2
(lp2503
g0
(g1
g2
(lp2504
Vof
p2505
atp2506
Rp2507
(dp2508
g11
VIN
p2509
sbag0
(g1
g2
(lp2510
g0
(g1
g2
(lp2511
Va
p2512
atp2513
Rp2514
(dp2515
g11
VDT
p2516
sbag0
(g1
g2
(lp2517
Vdock
p2518
atp2519
Rp2520
(dp2521
g11
VNN
p2522
sbatp2523
Rp2524
(dp2525
g11
VNP
p2526
sbatp2527
Rp2528
(dp2529
g11
VPP
p2530
sbatp2531
Rp2532
(dp2533
g11
VNP
p2534
sbatp2535
Rp2536
(dp2537
g11
VPP
p2538
sbatp2539
Rp2540
(dp2541
g11
VVP
p2542
sbatp2543
Rp2544
(dp2545
g11
VVP
p2546
sbag0
(g1
g2
(lp2547
V.
p2548
atp2549
Rp2550
(dp2551
g11
V.
p2552
sbatp2553
Rp2554
(dp2555
g11
VS
p2556
sbatp2557
Rp2558
(dp2559
g11
S'id: 9'
p2560
sbag0
(g1
g2
(lp2561
g0
(g1
g2
(lp2562
g0
(g1
g2
(lp2563
Vand
p2564
atp2565
Rp2566
(dp2567
g11
VCC
p2568
sbag0
(g1
g2
(lp2569
g0
(g1
g2
(lp2570
Vlooks
p2571
atp2572
Rp2573
(dp2574
g11
VVBZ
p2575
sbag0
(g1
g2
(lp2576
g0
(g1
g2
(lp2577
Vlike
p2578
atp2579
Rp2580
(dp2581
g11
VIN
p2582
sbag0
(g1
g2
(lp2583
g0
(g1
g2
(lp2584
g0
(g1
g2
(lp2585
Veveryone
p2586
atp2587
Rp2588
(dp2589
g11
VNN
p2590
sbag0
(g1
g2
(lp2591
V's
p2592
atp2593
Rp2594
(dp2595
g11
VPOS
p2596
sbatp2597
Rp2598
(dp2599
g11
VNP
p2600
sbag0
(g1
g2
(lp2601
g0
(g1
g2
(lp2602
Vhaving
p2603
atp2604
Rp2605
(dp2606
g11
VVBG
p2607
sbag0
(g1
g2
(lp2608
g0
(g1
g2
(lp2609
Va
p2610
atp2611
Rp2612
(dp2613
g11
VDT
p2614
sbag0
(g1
g2
(lp2615
Vwonderful
p2616
atp2617
Rp2618
(dp2619
g11
VJJ
p2620
sbag0
(g1
g2
(lp2621
Vday
p2622
atp2623
Rp2624
(dp2625
g11
VNN
p2626
sbatp2627
Rp2628
(dp2629
g11
VNP
p2630
sbatp2631
Rp2632
(dp2633
g11
VVP
p2634
sbatp2635
Rp2636
(dp2637
g11
VNP
p2638
sbatp2639
Rp2640
(dp2641
g11
VPP
p2642
sbatp2643
Rp2644
(dp2645
g11
VVP
p2646
sbag0
(g1
g2
(lp2647
V.
p2648
atp2649
Rp2650
(dp2651
g11
V.
p2652
sbatp2653
Rp2654
(dp2655
g11
VS
p2656
sbatp2657
Rp2658
(dp2659
g11
S'id: 10'
p2660
sbag0
(g1
g2
(lp2661
g0
(g1
g2
(lp2662
g0
(g1
g2
(lp2663
g0
(g1
g2
(lp2664
Vit
p2665
atp2666
Rp2667
(dp2668
g11
VPRP
p2669
sbatp2670
Rp2671
(dp2672
g11
VNP
p2673
sbag0
(g1
g2
(lp2674
g0
(g1
g2
(lp2675
V's
p2676
atp2677
Rp2678
(dp2679
g11
VVBZ
p2680
sbag0
(g1
g2
(lp2681
g0
(g1
g2
(lp2682
Va
p2683
atp2684
Rp2685
(dp2686
g11
VDT
p2687
sbag0
(g1
g2
(lp2688
Vhappy
p2689
atp2690
Rp2691
(dp2692
g11
VJJ
p2693
sbag0
(g1
g2
(lp2694
Vday
p2695
atp2696
Rp2697
(dp2698
g11
VNN
p2699
sbatp2700
Rp2701
(dp2702
g11
VNP
p2703
sbatp2704
Rp2705
(dp2706
g11
VVP
p2707
sbag0
(g1
g2
(lp2708
V.
p2709
atp2710
Rp2711
(dp2712
g11
V.
p2713
sbatp2714
Rp2715
(dp2716
g11
VS
p2717
sbatp2718
Rp2719
(dp2720
g11
S'id: 11'
p2721
sbag0
(g1
g2
(lp2722
g0
(g1
g2
(lp2723
g0
(g1
g2
(lp2724
g0
(g1
g2
(lp2725
Vman
p2726
atp2727
Rp2728
(dp2729
g11
VNN
p2730
sbatp2731
Rp2732
(dp2733
g11
VNP
p2734
sbag0
(g1
g2
(lp2735
g0
(g1
g2
(lp2736
Vhas
p2737
atp2738
Rp2739
(dp2740
g11
VVBZ
p2741
sbag0
(g1
g2
(lp2742
g0
(g1
g2
(lp2743
Vglasses
p2744
atp2745
Rp2746
(dp2747
g11
VNNS
p2748
sbatp2749
Rp2750
(dp2751
g11
VNP
p2752
sbag0
(g1
g2
(lp2753
g0
(g1
g2
(lp2754
Von
p2755
atp2756
Rp2757
(dp2758
g11
VIN
p2759
sbatp2760
Rp2761
(dp2762
g11
VPP
p2763
sbag0
(g1
g2
(lp2764
V,
p2765
atp2766
Rp2767
(dp2768
g11
V,
p2769
sbag0
(g1
g2
(lp2770
g0
(g1
g2
(lp2771
g0
(g1
g2
(lp2772
Vreading
p2773
atp2774
Rp2775
(dp2776
g11
VVBG
p2777
sbag0
(g1
g2
(lp2778
g0
(g1
g2
(lp2779
g0
(g1
g2
(lp2780
Va
p2781
atp2782
Rp2783
(dp2784
g11
VDT
p2785
sbag0
(g1
g2
(lp2786
Vbook
p2787
atp2788
Rp2789
(dp2790
g11
VNN
p2791
sbatp2792
Rp2793
(dp2794
g11
VNP
p2795
sbag0
(g1
g2
(lp2796
V,
p2797
atp2798
Rp2799
(dp2800
g11
V,
p2801
sbag0
(g1
g2
(lp2802
g0
(g1
g2
(lp2803
Vof
p2804
atp2805
Rp2806
(dp2807
g11
VIN
p2808
sbag0
(g1
g2
(lp2809
g0
(g1
g2
(lp2810
Vcourse
p2811
atp2812
Rp2813
(dp2814
g11
VNN
p2815
sbatp2816
Rp2817
(dp2818
g11
VNP
p2819
sbatp2820
Rp2821
(dp2822
g11
VPP
p2823
sbatp2824
Rp2825
(dp2826
g11
VNP
p2827
sbatp2828
Rp2829
(dp2830
g11
VVP
p2831
sbatp2832
Rp2833
(dp2834
g11
VS
p2835
sbatp2836
Rp2837
(dp2838
g11
VVP
p2839
sbag0
(g1
g2
(lp2840
V.
p2841
atp2842
Rp2843
(dp2844
g11
V.
p2845
sbatp2846
Rp2847
(dp2848
g11
VS
p2849
sbatp2850
Rp2851
(dp2852
g11
S'id: 12'
p2853
sbatp2854
Rp2855
(dp2856
g11
S'sentences'
p2857
sb.