ccopy_reg
_reconstructor
p0
(cnltk.tree
Tree
p1
c__builtin__
list
p2
(lp3
g0
(g1
g2
(lp4
g0
(g1
g2
(lp5
g0
(g1
g2
(lp6
Voh
p7
atp8
Rp9
(dp10
S'_label'
p11
VUH
p12
sbag0
(g1
g2
(lp13
g0
(g1
g2
(lp14
Vman
p15
atp16
Rp17
(dp18
g11
VUH
p19
sbatp20
Rp21
(dp22
g11
VINTJ
p23
sbag0
(g1
g2
(lp24
V.
p25
atp26
Rp27
(dp28
g11
V.
p29
sbatp30
Rp31
(dp32
g11
VFRAG
p33
sbatp34
Rp35
(dp36
g11
S'id: 0'
p37
sbag0
(g1
g2
(lp38
g0
(g1
g2
(lp39
g0
(g1
g2
(lp40
g0
(g1
g2
(lp41
Vit
p42
atp43
Rp44
(dp45
g11
VPRP
p46
sbatp47
Rp48
(dp49
g11
VNP
p50
sbag0
(g1
g2
(lp51
g0
(g1
g2
(lp52
V's
p53
atp54
Rp55
(dp56
g11
VVBZ
p57
sbag0
(g1
g2
(lp58
g0
(g1
g2
(lp59
Va.
p60
atp61
Rp62
(dp63
g11
VRB
p64
sbatp65
Rp66
(dp67
g11
VADVP
p68
sbag0
(g1
g2
(lp69
g0
(g1
g2
(lp70
g0
(g1
g2
(lp71
g0
(g1
g2
(lp72
Vthere
p73
atp74
Rp75
(dp76
g11
VEX
p77
sbatp78
Rp79
(dp80
g11
VNP
p81
sbag0
(g1
g2
(lp82
g0
(g1
g2
(lp83
V's
p84
atp85
Rp86
(dp87
g11
VVBZ
p88
sbag0
(g1
g2
(lp89
g0
(g1
g2
(lp90
g0
(g1
g2
(lp91
Va.
p92
atp93
Rp94
(dp95
g11
VNN
p96
sbatp97
Rp98
(dp99
g11
VNP
p100
sbag0
(g1
g2
(lp101
g0
(g1
g2
(lp102
g0
(g1
g2
(lp103
g0
(g1
g2
(lp104
Vthere
p105
atp106
Rp107
(dp108
g11
VEX
p109
sbatp110
Rp111
(dp112
g11
VNP
p113
sbag0
(g1
g2
(lp114
g0
(g1
g2
(lp115
V's
p116
atp117
Rp118
(dp119
g11
VVBZ
p120
sbag0
(g1
g2
(lp121
g0
(g1
g2
(lp122
Va
p123
atp124
Rp125
(dp126
g11
VDT
p127
sbag0
(g1
g2
(lp128
Vcookie
p129
atp130
Rp131
(dp132
g11
VNN
p133
sbatp134
Rp135
(dp136
g11
VNP
p137
sbatp138
Rp139
(dp140
g11
VVP
p141
sbatp142
Rp143
(dp144
g11
VS
p145
sbatp146
Rp147
(dp148
g11
VSBAR
p149
sbatp150
Rp151
(dp152
g11
VNP
p153
sbatp154
Rp155
(dp156
g11
VVP
p157
sbatp158
Rp159
(dp160
g11
VS
p161
sbatp162
Rp163
(dp164
g11
VSBAR
p165
sbatp166
Rp167
(dp168
g11
VVP
p169
sbag0
(g1
g2
(lp170
V.
p171
atp172
Rp173
(dp174
g11
V.
p175
sbatp176
Rp177
(dp178
g11
VS
p179
sbatp180
Rp181
(dp182
g11
S'id: 1'
p183
sbag0
(g1
g2
(lp184
g0
(g1
g2
(lp185
g0
(g1
g2
(lp186
g0
(g1
g2
(lp187
g0
(g1
g2
(lp188
Vthere
p189
atp190
Rp191
(dp192
g11
VEX
p193
sbatp194
Rp195
(dp196
g11
VNP
p197
sbag0
(g1
g2
(lp198
g0
(g1
g2
(lp199
V's
p200
atp201
Rp202
(dp203
g11
VVBZ
p204
sbag0
(g1
g2
(lp205
g0
(g1
g2
(lp206
Va.
p207
atp208
Rp209
(dp210
g11
VNN
p211
sbag0
(g1
g2
(lp212
Vwater
p213
atp214
Rp215
(dp216
g11
VNN
p217
sbatp218
Rp219
(dp220
g11
VNP
p221
sbatp222
Rp223
(dp224
g11
VVP
p225
sbatp226
Rp227
(dp228
g11
VS
p229
sbag0
(g1
g2
(lp230
V,
p231
atp232
Rp233
(dp234
g11
V,
p235
sbag0
(g1
g2
(lp236
g0
(g1
g2
(lp237
Vit
p238
atp239
Rp240
(dp241
g11
VPRP
p242
sbatp243
Rp244
(dp245
g11
VNP
p246
sbag0
(g1
g2
(lp247
g0
(g1
g2
(lp248
V's
p249
atp250
Rp251
(dp252
g11
VVBZ
p253
sbag0
(g1
g2
(lp254
g0
(g1
g2
(lp255
Vgoing
p256
atp257
Rp258
(dp259
g11
VVBG
p260
sbag0
(g1
g2
(lp261
g0
(g1
g2
(lp262
Veverywhere
p263
atp264
Rp265
(dp266
g11
VRB
p267
sbatp268
Rp269
(dp270
g11
VADVP
p271
sbatp272
Rp273
(dp274
g11
VVP
p275
sbatp276
Rp277
(dp278
g11
VVP
p279
sbag0
(g1
g2
(lp280
V.
p281
atp282
Rp283
(dp284
g11
V.
p285
sbatp286
Rp287
(dp288
g11
VS
p289
sbatp290
Rp291
(dp292
g11
S'id: 2'
p293
sbag0
(g1
g2
(lp294
g0
(g1
g2
(lp295
g0
(g1
g2
(lp296
g0
(g1
g2
(lp297
g0
(g1
g2
(lp298
Vand
p299
atp300
Rp301
(dp302
g11
VCC
p303
sbag0
(g1
g2
(lp304
g0
(g1
g2
(lp305
g0
(g1
g2
(lp306
Vthere
p307
atp308
Rp309
(dp310
g11
VEX
p311
sbatp312
Rp313
(dp314
g11
VNP
p315
sbag0
(g1
g2
(lp316
g0
(g1
g2
(lp317
V's
p318
atp319
Rp320
(dp321
g11
VVBZ
p322
sbag0
(g1
g2
(lp323
g0
(g1
g2
(lp324
Va
p325
atp326
Rp327
(dp328
g11
VDT
p329
sbatp330
Rp331
(dp332
g11
VNP
p333
sbatp334
Rp335
(dp336
g11
VVP
p337
sbatp338
Rp339
(dp340
g11
VS
p341
sbatp342
Rp343
(dp344
g11
VS
p345
sbag0
(g1
g2
(lp346
V,
p347
atp348
Rp349
(dp350
g11
V,
p351
sbag0
(g1
g2
(lp352
g0
(g1
g2
(lp353
VI
p354
atp355
Rp356
(dp357
g11
VPRP
p358
sbatp359
Rp360
(dp361
g11
VNP
p362
sbag0
(g1
g2
(lp363
g0
(g1
g2
(lp364
Vdo
p365
atp366
Rp367
(dp368
g11
VVBP
p369
sbag0
(g1
g2
(lp370
Vn't
p371
atp372
Rp373
(dp374
g11
VRB
p375
sbag0
(g1
g2
(lp376
g0
(g1
g2
(lp377
Vknow
p378
atp379
Rp380
(dp381
g11
VVB
p382
sbatp383
Rp384
(dp385
g11
VVP
p386
sbatp387
Rp388
(dp389
g11
VVP
p390
sbatp391
Rp392
(dp393
g11
VS
p394
sbag0
(g1
g2
(lp395
V,
p396
atp397
Rp398
(dp399
g11
V,
p400
sbag0
(g1
g2
(lp401
g0
(g1
g2
(lp402
Vit
p403
atp404
Rp405
(dp406
g11
VPRP
p407
sbatp408
Rp409
(dp410
g11
VNP
p411
sbag0
(g1
g2
(lp412
g0
(g1
g2
(lp413
V's
p414
atp415
Rp416
(dp417
g11
VVBZ
p418
sbag0
(g1
g2
(lp419
g0
(g1
g2
(lp420
Va
p421
atp422
Rp423
(dp424
g11
VDT
p425
sbag0
(g1
g2
(lp426
Vreally
p427
atp428
Rp429
(dp430
g11
VRB
p431
sbag0
(g1
g2
(lp432
Vgood
p433
atp434
Rp435
(dp436
g11
VJJ
p437
sbatp438
Rp439
(dp440
g11
VADJP
p441
sbatp442
Rp443
(dp444
g11
VVP
p445
sbag0
(g1
g2
(lp446
V.
p447
atp448
Rp449
(dp450
g11
V.
p451
sbatp452
Rp453
(dp454
g11
VS
p455
sbatp456
Rp457
(dp458
g11
S'id: 3'
p459
sbag0
(g1
g2
(lp460
g0
(g1
g2
(lp461
g0
(g1
g2
(lp462
Vcookie
p463
atp464
Rp465
(dp466
g11
VNN
p467
sbag0
(g1
g2
(lp468
V.
p469
atp470
Rp471
(dp472
g11
V.
p473
sbatp474
Rp475
(dp476
g11
VNP
p477
sbatp478
Rp479
(dp480
g11
S'id: 4'
p481
sbag0
(g1
g2
(lp482
g0
(g1
g2
(lp483
g0
(g1
g2
(lp484
Va
p485
atp486
Rp487
(dp488
g11
VDT
p489
sbag0
(g1
g2
(lp490
Vcookie
p491
atp492
Rp493
(dp494
g11
VNN
p495
sbag0
(g1
g2
(lp496
V.
p497
atp498
Rp499
(dp500
g11
V.
p501
sbatp502
Rp503
(dp504
g11
VNP
p505
sbatp506
Rp507
(dp508
g11
S'id: 5'
p509
sbag0
(g1
g2
(lp510
g0
(g1
g2
(lp511
g0
(g1
g2
(lp512
g0
(g1
g2
(lp513
Vthat
p514
atp515
Rp516
(dp517
g11
VDT
p518
sbatp519
Rp520
(dp521
g11
VNP
p522
sbag0
(g1
g2
(lp523
g0
(g1
g2
(lp524
V's
p525
atp526
Rp527
(dp528
g11
VVBZ
p529
sbag0
(g1
g2
(lp530
g0
(g1
g2
(lp531
Vit
p532
atp533
Rp534
(dp535
g11
VPRP
p536
sbatp537
Rp538
(dp539
g11
VNP
p540
sbatp541
Rp542
(dp543
g11
VVP
p544
sbag0
(g1
g2
(lp545
V.
p546
atp547
Rp548
(dp549
g11
V.
p550
sbatp551
Rp552
(dp553
g11
VS
p554
sbatp555
Rp556
(dp557
g11
S'id: 6'
p558
sbag0
(g1
g2
(lp559
g0
(g1
g2
(lp560
g0
(g1
g2
(lp561
Vcookie
p562
atp563
Rp564
(dp565
g11
VNN
p566
sbag0
(g1
g2
(lp567
V.
p568
atp569
Rp570
(dp571
g11
V.
p572
sbatp573
Rp574
(dp575
g11
VNP
p576
sbatp577
Rp578
(dp579
g11
S'id: 7'
p580
sbag0
(g1
g2
(lp581
g0
(g1
g2
(lp582
g0
(g1
g2
(lp583
g0
(g1
g2
(lp584
Vthat
p585
atp586
Rp587
(dp588
g11
VDT
p589
sbatp590
Rp591
(dp592
g11
VNP
p593
sbag0
(g1
g2
(lp594
g0
(g1
g2
(lp595
V's
p596
atp597
Rp598
(dp599
g11
VVBZ
p600
sbag0
(g1
g2
(lp601
g0
(g1
g2
(lp602
Vit
p603
atp604
Rp605
(dp606
g11
VPRP
p607
sbatp608
Rp609
(dp610
g11
VNP
p611
sbatp612
Rp613
(dp614
g11
VVP
p615
sbag0
(g1
g2
(lp616
V.
p617
atp618
Rp619
(dp620
g11
V.
p621
sbatp622
Rp623
(dp624
g11
VS
p625
sbatp626
Rp627
(dp628
g11
S'id: 8'
p629
sbag0
(g1
g2
(lp630
g0
(g1
g2
(lp631
g0
(g1
g2
(lp632
g0
(g1
g2
(lp633
V8
p634
atp635
Rp636
(dp637
g11
VCD
p638
sbatp639
Rp640
(dp641
g11
VNP
p642
sbag0
(g1
g2
(lp643
g0
(g1
g2
(lp644
Vdawn
p645
atp646
Rp647
(dp648
g11
VNN
p649
sbatp650
Rp651
(dp652
g11
VNP
p653
sbag0
(g1
g2
(lp654
V.
p655
atp656
Rp657
(dp658
g11
V.
p659
sbatp660
Rp661
(dp662
g11
VNP
p663
sbatp664
Rp665
(dp666
g11
S'id: 9'
p667
sbatp668
Rp669
(dp670
g11
S'sentences'
p671
sb.