ccopy_reg
_reconstructor
p0
(cnltk.tree
Tree
p1
c__builtin__
list
p2
(lp3
g0
(g1
g2
(lp4
g0
(g1
g2
(lp5
g0
(g1
g2
(lp6
g0
(g1
g2
(lp7
VThe
p8
atp9
Rp10
(dp11
S'_label'
p12
VDT
p13
sbag0
(g1
g2
(lp14
Vsame
p15
atp16
Rp17
(dp18
g12
VJJ
p19
sbag0
(g1
g2
(lp20
Vpicture
p21
atp22
Rp23
(dp24
g12
VNN
p25
sbatp26
Rp27
(dp28
g12
VNP
p29
sbag0
(g1
g2
(lp30
g0
(g1
g2
(lp31
VI
p32
atp33
Rp34
(dp35
g12
VPRP
p36
sbatp37
Rp38
(dp39
g12
VNP
p40
sbag0
(g1
g2
(lp41
g0
(g1
g2
(lp42
Vsaw
p43
atp44
Rp45
(dp46
g12
VVBD
p47
sbag0
(g1
g2
(lp48
g0
(g1
g2
(lp49
Vearlier
p50
atp51
Rp52
(dp53
g12
VRBR
p54
sbatp55
Rp56
(dp57
g12
VADVP
p58
sbatp59
Rp60
(dp61
g12
VVP
p62
sbag0
(g1
g2
(lp63
V.
p64
atp65
Rp66
(dp67
g12
V.
p68
sbatp69
Rp70
(dp71
g12
VS
p72
sbatp73
Rp74
(dp75
g12
S'id: 0'
p76
sbag0
(g1
g2
(lp77
g0
(g1
g2
(lp78
g0
(g1
g2
(lp79
g0
(g1
g2
(lp80
g0
(g1
g2
(lp81
VThis
p82
atp83
Rp84
(dp85
g12
VDT
p86
sbatp87
Rp88
(dp89
g12
VNP
p90
sbag0
(g1
g2
(lp91
V,
p92
atp93
Rp94
(dp95
g12
V,
p96
sbag0
(g1
g2
(lp97
g0
(g1
g2
(lp98
g0
(g1
g2
(lp99
Vthis
p100
atp101
Rp102
(dp103
g12
VDT
p104
sbag0
(g1
g2
(lp105
Va
p106
atp107
Rp108
(dp109
g12
VDT
p110
sbag0
(g1
g2
(lp111
Vcoup
p112
atp113
Rp114
(dp115
g12
VNN
p116
sbatp117
Rp118
(dp119
g12
VNP
p120
sbag0
(g1
g2
(lp121
V,
p122
atp123
Rp124
(dp125
g12
V,
p126
sbag0
(g1
g2
(lp127
g0
(g1
g2
(lp128
g0
(g1
g2
(lp129
g0
(g1
g2
(lp130
Vthis
p131
atp132
Rp133
(dp134
g12
VDT
p135
sbatp136
Rp137
(dp138
g12
VNP
p139
sbag0
(g1
g2
(lp140
g0
(g1
g2
(lp141
g0
(g1
g2
(lp142
Va
p143
atp144
Rp145
(dp146
g12
VDT
p147
sbag0
(g1
g2
(lp148
Vcouple
p149
atp150
Rp151
(dp152
g12
VNN
p153
sbatp154
Rp155
(dp156
g12
VNP
p157
sbag0
(g1
g2
(lp158
g0
(g1
g2
(lp159
Von
p160
atp161
Rp162
(dp163
g12
VIN
p164
sbag0
(g1
g2
(lp165
g0
(g1
g2
(lp166
Vtheir
p167
atp168
Rp169
(dp170
g12
VPRP$
p171
sbag0
(g1
g2
(lp172
Vfeh
p173
atp174
Rp175
(dp176
g12
VNN
p177
sbatp178
Rp179
(dp180
g12
VNP
p181
sbatp182
Rp183
(dp184
g12
VPP
p185
sbatp186
Rp187
(dp188
g12
VNP
p189
sbatp190
Rp191
(dp192
g12
VNP
p193
sbag0
(g1
g2
(lp194
V,
p195
atp196
Rp197
(dp198
g12
V,
p199
sbag0
(g1
g2
(lp200
Vand
p201
atp202
Rp203
(dp204
g12
VCC
p205
sbag0
(g1
g2
(lp206
g0
(g1
g2
(lp207
V,
p208
atp209
Rp210
(dp211
g12
V,
p212
sbag0
(g1
g2
(lp213
g0
(g1
g2
(lp214
Vin
p215
atp216
Rp217
(dp218
g12
VIN
p219
sbag0
(g1
g2
(lp220
g0
(g1
g2
(lp221
Vtheir
p222
atp223
Rp224
(dp225
g12
VPRP$
p226
sbatp227
Rp228
(dp229
g12
VNP
p230
sbatp231
Rp232
(dp233
g12
VPP
p234
sbag0
(g1
g2
(lp235
V,
p236
atp237
Rp238
(dp239
g12
V,
p240
sbatp241
Rp242
(dp243
g12
VPRN
p244
sbag0
(g1
g2
(lp245
g0
(g1
g2
(lp246
Vin
p247
atp248
Rp249
(dp250
g12
VIN
p251
sbag0
(g1
g2
(lp252
g0
(g1
g2
(lp253
Vtheir
p254
atp255
Rp256
(dp257
g12
VPRP$
p258
sbatp259
Rp260
(dp261
g12
VNP
p262
sbatp263
Rp264
(dp265
g12
VPP
p266
sbatp267
Rp268
(dp269
g12
VUCP
p270
sbatp271
Rp272
(dp273
g12
VNP
p274
sbag0
(g1
g2
(lp275
V,
p276
atp277
Rp278
(dp279
g12
V,
p280
sbatp281
Rp282
(dp283
g12
VNP
p284
sbag0
(g1
g2
(lp285
g0
(g1
g2
(lp286
Vrelative
p287
atp288
Rp289
(dp290
g12
VJJ
p291
sbag0
(g1
g2
(lp292
g0
(g1
g2
(lp293
Vin
p294
atp295
Rp296
(dp297
g12
VIN
p298
sbatp299
Rp300
(dp301
g12
VPP
p302
sbatp303
Rp304
(dp305
g12
VADJP
p306
sbag0
(g1
g2
(lp307
V.
p308
atp309
Rp310
(dp311
g12
V.
p312
sbatp313
Rp314
(dp315
g12
VNP
p316
sbatp317
Rp318
(dp319
g12
S'id: 1'
p320
sbag0
(g1
g2
(lp321
g0
(g1
g2
(lp322
g0
(g1
g2
(lp323
g0
(g1
g2
(lp324
VA
p325
atp326
Rp327
(dp328
g12
VDT
p329
sbag0
(g1
g2
(lp330
Vman
p331
atp332
Rp333
(dp334
g12
VNN
p335
sbatp336
Rp337
(dp338
g12
VNP
p339
sbag0
(g1
g2
(lp340
V,
p341
atp342
Rp343
(dp344
g12
V,
p345
sbag0
(g1
g2
(lp346
g0
(g1
g2
(lp347
g0
(g1
g2
(lp348
Va
p349
atp350
Rp351
(dp352
g12
VDT
p353
sbag0
(g1
g2
(lp354
Vwoman
p355
atp356
Rp357
(dp358
g12
VNN
p359
sbatp360
Rp361
(dp362
g12
VNP
p363
sbag0
(g1
g2
(lp364
g0
(g1
g2
(lp365
g0
(g1
g2
(lp366
g0
(g1
g2
(lp367
Vare
p368
atp369
Rp370
(dp371
g12
VVBP
p372
sbag0
(g1
g2
(lp373
g0
(g1
g2
(lp374
Von
p375
atp376
Rp377
(dp378
g12
VIN
p379
sbag0
(g1
g2
(lp380
g0
(g1
g2
(lp381
g0
(g1
g2
(lp382
g0
(g1
g2
(lp383
Va
p384
atp385
Rp386
(dp387
g12
VDT
p388
sbag0
(g1
g2
(lp389
Vpicnic
p390
atp391
Rp392
(dp393
g12
VNN
p394
sbatp395
Rp396
(dp397
g12
VNP
p398
sbag0
(g1
g2
(lp399
g0
(g1
g2
(lp400
Vwith
p401
atp402
Rp403
(dp404
g12
VIN
p405
sbag0
(g1
g2
(lp406
g0
(g1
g2
(lp407
Vthe
p408
atp409
Rp410
(dp411
g12
VDT
p412
sbag0
(g1
g2
(lp413
Vtwo
p414
atp415
Rp416
(dp417
g12
VCD
p418
sbag0
(g1
g2
(lp419
Vkids
p420
atp421
Rp422
(dp423
g12
VNNS
p424
sbatp425
Rp426
(dp427
g12
VNP
p428
sbatp429
Rp430
(dp431
g12
VPP
p432
sbatp433
Rp434
(dp435
g12
VNP
p436
sbag0
(g1
g2
(lp437
V,
p438
atp439
Rp440
(dp441
g12
V,
p442
sbag0
(g1
g2
(lp443
Vand
p444
atp445
Rp446
(dp447
g12
VCC
p448
sbag0
(g1
g2
(lp449
g0
(g1
g2
(lp450
g0
(g1
g2
(lp451
Vtheir
p452
atp453
Rp454
(dp455
g12
VPRP$
p456
sbag0
(g1
g2
(lp457
Vdog
p458
atp459
Rp460
(dp461
g12
VNN
p462
sbatp463
Rp464
(dp465
g12
VNP
p466
sbag0
(g1
g2
(lp467
V,
p468
atp469
Rp470
(dp471
g12
V,
p472
sbag0
(g1
g2
(lp473
g0
(g1
g2
(lp474
Vout
p475
atp476
Rp477
(dp478
g12
VRB
p479
sbag0
(g1
g2
(lp480
g0
(g1
g2
(lp481
Vat
p482
atp483
Rp484
(dp485
g12
VIN
p486
sbag0
(g1
g2
(lp487
g0
(g1
g2
(lp488
Vthe
p489
atp490
Rp491
(dp492
g12
VDT
p493
sbag0
(g1
g2
(lp494
Vlake
p495
atp496
Rp497
(dp498
g12
VNN
p499
sbatp500
Rp501
(dp502
g12
VNP
p503
sbatp504
Rp505
(dp506
g12
VPP
p507
sbatp508
Rp509
(dp510
g12
VADVP
p511
sbatp512
Rp513
(dp514
g12
VNP
p515
sbatp516
Rp517
(dp518
g12
VNP
p519
sbatp520
Rp521
(dp522
g12
VPP
p523
sbatp524
Rp525
(dp526
g12
VVP
p527
sbatp528
Rp529
(dp530
g12
VS
p531
sbatp532
Rp533
(dp534
g12
VSBAR
p535
sbatp536
Rp537
(dp538
g12
VNP
p539
sbag0
(g1
g2
(lp540
V,
p541
atp542
Rp543
(dp544
g12
V,
p545
sbag0
(g1
g2
(lp546
g0
(g1
g2
(lp547
Vat
p548
atp549
Rp550
(dp551
g12
VIN
p552
sbag0
(g1
g2
(lp553
g0
(g1
g2
(lp554
Vthe
p555
atp556
Rp557
(dp558
g12
VDT
p559
sbag0
(g1
g2
(lp560
Vlake
p561
atp562
Rp563
(dp564
g12
VNN
p565
sbag0
(g1
g2
(lp566
Vhouse
p567
atp568
Rp569
(dp570
g12
VNN
p571
sbatp572
Rp573
(dp574
g12
VNP
p575
sbatp576
Rp577
(dp578
g12
VPP
p579
sbag0
(g1
g2
(lp580
V.
p581
atp582
Rp583
(dp584
g12
V.
p585
sbatp586
Rp587
(dp588
g12
VNP
p589
sbatp590
Rp591
(dp592
g12
S'id: 2'
p593
sbag0
(g1
g2
(lp594
g0
(g1
g2
(lp595
g0
(g1
g2
(lp596
g0
(g1
g2
(lp597
g0
(g1
g2
(lp598
VThere
p599
atp600
Rp601
(dp602
g12
VEX
p603
sbatp604
Rp605
(dp606
g12
VNP
p607
sbag0
(g1
g2
(lp608
g0
(g1
g2
(lp609
V's
p610
atp611
Rp612
(dp613
g12
VVBZ
p614
sbag0
(g1
g2
(lp615
g0
(g1
g2
(lp616
g0
(g1
g2
(lp617
Va
p618
atp619
Rp620
(dp621
g12
VDT
p622
sbag0
(g1
g2
(lp623
Vman
p624
atp625
Rp626
(dp627
g12
VNN
p628
sbatp629
Rp630
(dp631
g12
VNP
p632
sbag0
(g1
g2
(lp633
g0
(g1
g2
(lp634
V,
p635
atp636
Rp637
(dp638
g12
V,
p639
sbag0
(g1
g2
(lp640
g0
(g1
g2
(lp641
g0
(g1
g2
(lp642
Vthere
p643
atp644
Rp645
(dp646
g12
VEX
p647
sbatp648
Rp649
(dp650
g12
VNP
p651
sbag0
(g1
g2
(lp652
g0
(g1
g2
(lp653
V's
p654
atp655
Rp656
(dp657
g12
VVBZ
p658
sbag0
(g1
g2
(lp659
g0
(g1
g2
(lp660
g0
(g1
g2
(lp661
Vanother
p662
atp663
Rp664
(dp665
g12
VDT
p666
sbag0
(g1
g2
(lp667
Vman
p668
atp669
Rp670
(dp671
g12
VNN
p672
sbatp673
Rp674
(dp675
g12
VNP
p676
sbag0
(g1
g2
(lp677
g0
(g1
g2
(lp678
Von
p679
atp680
Rp681
(dp682
g12
VIN
p683
sbag0
(g1
g2
(lp684
g0
(g1
g2
(lp685
Vthe
p686
atp687
Rp688
(dp689
g12
VDT
p690
sbatp691
Rp692
(dp693
g12
VNP
p694
sbatp695
Rp696
(dp697
g12
VPP
p698
sbatp699
Rp700
(dp701
g12
VNP
p702
sbatp703
Rp704
(dp705
g12
VVP
p706
sbatp707
Rp708
(dp709
g12
VS
p710
sbag0
(g1
g2
(lp711
V,
p712
atp713
Rp714
(dp715
g12
V,
p716
sbatp717
Rp718
(dp719
g12
VPRN
p720
sbag0
(g1
g2
(lp721
g0
(g1
g2
(lp722
Von
p723
atp724
Rp725
(dp726
g12
VIN
p727
sbag0
(g1
g2
(lp728
g0
(g1
g2
(lp729
g0
(g1
g2
(lp730
Vthe
p731
atp732
Rp733
(dp734
g12
VDT
p735
sbag0
(g1
g2
(lp736
Vdock
p737
atp738
Rp739
(dp740
g12
VNN
p741
sbatp742
Rp743
(dp744
g12
VNP
p745
sbag0
(g1
g2
(lp746
V,
p747
atp748
Rp749
(dp750
g12
V,
p751
sbag0
(g1
g2
(lp752
g0
(g1
g2
(lp753
g0
(g1
g2
(lp754
Vthat
p755
atp756
Rp757
(dp758
g12
VWDT
p759
sbatp760
Rp761
(dp762
g12
VWHNP
p763
sbag0
(g1
g2
(lp764
g0
(g1
g2
(lp765
g0
(g1
g2
(lp766
Vis
p767
atp768
Rp769
(dp770
g12
VVBZ
p771
sbag0
(g1
g2
(lp772
g0
(g1
g2
(lp773
Vfishing
p774
atp775
Rp776
(dp777
g12
VNN
p778
sbatp779
Rp780
(dp781
g12
VNP
p782
sbatp783
Rp784
(dp785
g12
VVP
p786
sbatp787
Rp788
(dp789
g12
VS
p790
sbatp791
Rp792
(dp793
g12
VSBAR
p794
sbatp795
Rp796
(dp797
g12
VNP
p798
sbatp799
Rp800
(dp801
g12
VPP
p802
sbatp803
Rp804
(dp805
g12
VNP
p806
sbatp807
Rp808
(dp809
g12
VVP
p810
sbatp811
Rp812
(dp813
g12
VS
p814
sbag0
(g1
g2
(lp815
V,
p816
atp817
Rp818
(dp819
g12
V,
p820
sbag0
(g1
g2
(lp821
g0
(g1
g2
(lp822
Vhe
p823
atp824
Rp825
(dp826
g12
VPRP
p827
sbatp828
Rp829
(dp830
g12
VNP
p831
sbag0
(g1
g2
(lp832
g0
(g1
g2
(lp833
V's
p834
atp835
Rp836
(dp837
g12
VVBZ
p838
sbag0
(g1
g2
(lp839
g0
(g1
g2
(lp840
g0
(g1
g2
(lp841
Vcaughten
p842
atp843
Rp844
(dp845
g12
VJJ
p846
sbag0
(g1
g2
(lp847
g0
(g1
g2
(lp848
Vone
p849
atp850
Rp851
(dp852
g12
VCD
p853
sbatp854
Rp855
(dp856
g12
VNP-TMP
p857
sbatp858
Rp859
(dp860
g12
VADJP
p861
sbag0
(g1
g2
(lp862
Vfish
p863
atp864
Rp865
(dp866
g12
VNN
p867
sbatp868
Rp869
(dp870
g12
VNP
p871
sbag0
(g1
g2
(lp872
g0
(g1
g2
(lp873
Vso
p874
atp875
Rp876
(dp877
g12
VRB
p878
sbag0
(g1
g2
(lp879
Vfar
p880
atp881
Rp882
(dp883
g12
VRB
p884
sbatp885
Rp886
(dp887
g12
VADVP
p888
sbatp889
Rp890
(dp891
g12
VVP
p892
sbag0
(g1
g2
(lp893
V.
p894
atp895
Rp896
(dp897
g12
V.
p898
sbatp899
Rp900
(dp901
g12
VS
p902
sbatp903
Rp904
(dp905
g12
S'id: 3'
p906
sbag0
(g1
g2
(lp907
g0
(g1
g2
(lp908
g0
(g1
g2
(lp909
g0
(g1
g2
(lp910
g0
(g1
g2
(lp911
VThere
p912
atp913
Rp914
(dp915
g12
VEX
p916
sbatp917
Rp918
(dp919
g12
VNP
p920
sbag0
(g1
g2
(lp921
g0
(g1
g2
(lp922
V's
p923
atp924
Rp925
(dp926
g12
VVBZ
p927
sbag0
(g1
g2
(lp928
V,
p929
atp930
Rp931
(dp932
g12
V,
p933
sbag0
(g1
g2
(lp934
g0
(g1
g2
(lp935
Vout
p936
atp937
Rp938
(dp939
g12
VRB
p940
sbatp941
Rp942
(dp943
g12
VADVP
p944
sbag0
(g1
g2
(lp945
g0
(g1
g2
(lp946
Von
p947
atp948
Rp949
(dp950
g12
VIN
p951
sbag0
(g1
g2
(lp952
g0
(g1
g2
(lp953
Vthe
p954
atp955
Rp956
(dp957
g12
VDT
p958
sbag0
(g1
g2
(lp959
Vlake
p960
atp961
Rp962
(dp963
g12
VNN
p964
sbatp965
Rp966
(dp967
g12
VNP
p968
sbatp969
Rp970
(dp971
g12
VPP
p972
sbatp973
Rp974
(dp975
g12
VVP
p976
sbatp977
Rp978
(dp979
g12
VS
p980
sbag0
(g1
g2
(lp981
V,
p982
atp983
Rp984
(dp985
g12
V,
p986
sbag0
(g1
g2
(lp987
g0
(g1
g2
(lp988
Vthere
p989
atp990
Rp991
(dp992
g12
VEX
p993
sbatp994
Rp995
(dp996
g12
VNP
p997
sbag0
(g1
g2
(lp998
g0
(g1
g2
(lp999
V's
p1000
atp1001
Rp1002
(dp1003
g12
VVBZ
p1004
sbag0
(g1
g2
(lp1005
g0
(g1
g2
(lp1006
g0
(g1
g2
(lp1007
Va
p1008
atp1009
Rp1010
(dp1011
g12
VDT
p1012
sbag0
(g1
g2
(lp1013
Vsailboat
p1014
atp1015
Rp1016
(dp1017
g12
VNN
p1018
sbatp1019
Rp1020
(dp1021
g12
VNP
p1022
sbag0
(g1
g2
(lp1023
V,
p1024
atp1025
Rp1026
(dp1027
g12
V,
p1028
sbag0
(g1
g2
(lp1029
g0
(g1
g2
(lp1030
g0
(g1
g2
(lp1031
g0
(g1
g2
(lp1032
Vhas
p1033
atp1034
Rp1035
(dp1036
g12
VVBZ
p1037
sbag0
(g1
g2
(lp1038
g0
(g1
g2
(lp1039
g0
(g1
g2
(lp1040
g0
(g1
g2
(lp1041
Vtwo
p1042
atp1043
Rp1044
(dp1045
g12
VCD
p1046
sbag0
(g1
g2
(lp1047
Vpeople
p1048
atp1049
Rp1050
(dp1051
g12
VNNS
p1052
sbatp1053
Rp1054
(dp1055
g12
VNP
p1056
sbag0
(g1
g2
(lp1057
g0
(g1
g2
(lp1058
Vin
p1059
atp1060
Rp1061
(dp1062
g12
VIN
p1063
sbag0
(g1
g2
(lp1064
g0
(g1
g2
(lp1065
Vit
p1066
atp1067
Rp1068
(dp1069
g12
VPRP
p1070
sbatp1071
Rp1072
(dp1073
g12
VNP
p1074
sbatp1075
Rp1076
(dp1077
g12
VPP
p1078
sbatp1079
Rp1080
(dp1081
g12
VNP
p1082
sbag0
(g1
g2
(lp1083
V,
p1084
atp1085
Rp1086
(dp1087
g12
V,
p1088
sbag0
(g1
g2
(lp1089
g0
(g1
g2
(lp1090
g0
(g1
g2
(lp1091
Vman
p1092
atp1093
Rp1094
(dp1095
g12
VNN
p1096
sbag0
(g1
g2
(lp1097
V's
p1098
atp1099
Rp1100
(dp1101
g12
VPOS
p1102
sbatp1103
Rp1104
(dp1105
g12
VNP
p1106
sbag0
(g1
g2
(lp1107
Vwaving
p1108
atp1109
Rp1110
(dp1111
g12
VVBG
p1112
sbatp1113
Rp1114
(dp1115
g12
VNP
p1116
sbatp1117
Rp1118
(dp1119
g12
VNP
p1120
sbatp1121
Rp1122
(dp1123
g12
VVP
p1124
sbatp1125
Rp1126
(dp1127
g12
VS
p1128
sbatp1129
Rp1130
(dp1131
g12
VSBAR
p1132
sbatp1133
Rp1134
(dp1135
g12
VNP
p1136
sbatp1137
Rp1138
(dp1139
g12
VVP
p1140
sbag0
(g1
g2
(lp1141
V.
p1142
atp1143
Rp1144
(dp1145
g12
V.
p1146
sbatp1147
Rp1148
(dp1149
g12
VS
p1150
sbatp1151
Rp1152
(dp1153
g12
S'id: 4'
p1154
sbag0
(g1
g2
(lp1155
g0
(g1
g2
(lp1156
g0
(g1
g2
(lp1157
g0
(g1
g2
(lp1158
VThe
p1159
atp1160
Rp1161
(dp1162
g12
VDT
p1163
sbag0
(g1
g2
(lp1164
Vdaughter
p1165
atp1166
Rp1167
(dp1168
g12
VNN
p1169
sbatp1170
Rp1171
(dp1172
g12
VNP
p1173
sbag0
(g1
g2
(lp1174
g0
(g1
g2
(lp1175
g0
(g1
g2
(lp1176
Vis
p1177
atp1178
Rp1179
(dp1180
g12
VVBZ
p1181
sbatp1182
Rp1183
(dp1184
g12
VVP
p1185
sbag0
(g1
g2
(lp1186
V,
p1187
atp1188
Rp1189
(dp1190
g12
V,
p1191
sbag0
(g1
g2
(lp1192
g0
(g1
g2
(lp1193
Vis
p1194
atp1195
Rp1196
(dp1197
g12
VVBZ
p1198
sbag0
(g1
g2
(lp1199
g0
(g1
g2
(lp1200
Vmaking
p1201
atp1202
Rp1203
(dp1204
g12
VVBG
p1205
sbag0
(g1
g2
(lp1206
g0
(g1
g2
(lp1207
Va
p1208
atp1209
Rp1210
(dp1211
g12
VDT
p1212
sbag0
(g1
g2
(lp1213
Vsandcastle
p1214
atp1215
Rp1216
(dp1217
g12
VNN
p1218
sbatp1219
Rp1220
(dp1221
g12
VNP
p1222
sbatp1223
Rp1224
(dp1225
g12
VVP
p1226
sbatp1227
Rp1228
(dp1229
g12
VVP
p1230
sbag0
(g1
g2
(lp1231
V,
p1232
atp1233
Rp1234
(dp1235
g12
V,
p1236
sbag0
(g1
g2
(lp1237
g0
(g1
g2
(lp1238
Von
p1239
atp1240
Rp1241
(dp1242
g12
VIN
p1243
sbag0
(g1
g2
(lp1244
g0
(g1
g2
(lp1245
g0
(g1
g2
(lp1246
Vthe
p1247
atp1248
Rp1249
(dp1250
g12
VDT
p1251
sbatp1252
Rp1253
(dp1254
g12
VNP
p1255
sbag0
(g1
g2
(lp1256
V,
p1257
atp1258
Rp1259
(dp1260
g12
V,
p1261
sbag0
(g1
g2
(lp1262
g0
(g1
g2
(lp1263
g0
(g1
g2
(lp1264
Von
p1265
atp1266
Rp1267
(dp1268
g12
VIN
p1269
sbag0
(g1
g2
(lp1270
g0
(g1
g2
(lp1271
g0
(g1
g2
(lp1272
Vthe
p1273
atp1274
Rp1275
(dp1276
g12
VDT
p1277
sbatp1278
Rp1279
(dp1280
g12
VWHNP
p1281
sbag0
(g1
g2
(lp1282
g0
(g1
g2
(lp1283
V,
p1284
atp1285
Rp1286
(dp1287
g12
V,
p1288
sbag0
(g1
g2
(lp1289
g0
(g1
g2
(lp1290
Von
p1291
atp1292
Rp1293
(dp1294
g12
VIN
p1295
sbag0
(g1
g2
(lp1296
g0
(g1
g2
(lp1297
Vthe
p1298
atp1299
Rp1300
(dp1301
g12
VDT
p1302
sbag0
(g1
g2
(lp1303
Vbeach
p1304
atp1305
Rp1306
(dp1307
g12
VNN
p1308
sbatp1309
Rp1310
(dp1311
g12
VNP
p1312
sbatp1313
Rp1314
(dp1315
g12
VPP
p1316
sbag0
(g1
g2
(lp1317
V,
p1318
atp1319
Rp1320
(dp1321
g12
V,
p1322
sbatp1323
Rp1324
(dp1325
g12
VPRN
p1326
sbatp1327
Rp1328
(dp1329
g12
VWHNP
p1330
sbatp1331
Rp1332
(dp1333
g12
VWHPP
p1334
sbag0
(g1
g2
(lp1335
g0
(g1
g2
(lp1336
g0
(g1
g2
(lp1337
Vshe
p1338
atp1339
Rp1340
(dp1341
g12
VPRP
p1342
sbatp1343
Rp1344
(dp1345
g12
VNP
p1346
sbag0
(g1
g2
(lp1347
g0
(g1
g2
(lp1348
Vgot
p1349
atp1350
Rp1351
(dp1352
g12
VVBD
p1353
sbag0
(g1
g2
(lp1354
g0
(g1
g2
(lp1355
g0
(g1
g2
(lp1356
Va
p1357
atp1358
Rp1359
(dp1360
g12
VDT
p1361
sbag0
(g1
g2
(lp1362
Vshovel
p1363
atp1364
Rp1365
(dp1366
g12
VNN
p1367
sbatp1368
Rp1369
(dp1370
g12
VNP
p1371
sbag0
(g1
g2
(lp1372
Vand
p1373
atp1374
Rp1375
(dp1376
g12
VCC
p1377
sbag0
(g1
g2
(lp1378
g0
(g1
g2
(lp1379
Va
p1380
atp1381
Rp1382
(dp1383
g12
VDT
p1384
sbag0
(g1
g2
(lp1385
Vbucket
p1386
atp1387
Rp1388
(dp1389
g12
VNN
p1390
sbatp1391
Rp1392
(dp1393
g12
VNP
p1394
sbatp1395
Rp1396
(dp1397
g12
VNP
p1398
sbatp1399
Rp1400
(dp1401
g12
VVP
p1402
sbatp1403
Rp1404
(dp1405
g12
VS
p1406
sbatp1407
Rp1408
(dp1409
g12
VSBAR
p1410
sbatp1411
Rp1412
(dp1413
g12
VNP
p1414
sbatp1415
Rp1416
(dp1417
g12
VPP
p1418
sbatp1419
Rp1420
(dp1421
g12
VVP
p1422
sbag0
(g1
g2
(lp1423
V.
p1424
atp1425
Rp1426
(dp1427
g12
V.
p1428
sbatp1429
Rp1430
(dp1431
g12
VS
p1432
sbatp1433
Rp1434
(dp1435
g12
S'id: 5'
p1436
sbag0
(g1
g2
(lp1437
g0
(g1
g2
(lp1438
g0
(g1
g2
(lp1439
VAnd
p1440
atp1441
Rp1442
(dp1443
g12
VCC
p1444
sbag0
(g1
g2
(lp1445
g0
(g1
g2
(lp1446
g0
(g1
g2
(lp1447
Vthe
p1448
atp1449
Rp1450
(dp1451
g12
VDT
p1452
sbag0
(g1
g2
(lp1453
Vboy
p1454
atp1455
Rp1456
(dp1457
g12
VNN
p1458
sbatp1459
Rp1460
(dp1461
g12
VNP
p1462
sbag0
(g1
g2
(lp1463
g0
(g1
g2
(lp1464
Vis
p1465
atp1466
Rp1467
(dp1468
g12
VVBZ
p1469
sbag0
(g1
g2
(lp1470
g0
(g1
g2
(lp1471
Vflying
p1472
atp1473
Rp1474
(dp1475
g12
VVBG
p1476
sbag0
(g1
g2
(lp1477
g0
(g1
g2
(lp1478
Va
p1479
atp1480
Rp1481
(dp1482
g12
VDT
p1483
sbag0
(g1
g2
(lp1484
Vkite
p1485
atp1486
Rp1487
(dp1488
g12
VNN
p1489
sbatp1490
Rp1491
(dp1492
g12
VNP
p1493
sbatp1494
Rp1495
(dp1496
g12
VVP
p1497
sbatp1498
Rp1499
(dp1500
g12
VVP
p1501
sbatp1502
Rp1503
(dp1504
g12
VS
p1505
sbag0
(g1
g2
(lp1506
V,
p1507
atp1508
Rp1509
(dp1510
g12
V,
p1511
sbag0
(g1
g2
(lp1512
Vand
p1513
atp1514
Rp1515
(dp1516
g12
VCC
p1517
sbag0
(g1
g2
(lp1518
g0
(g1
g2
(lp1519
g0
(g1
g2
(lp1520
Vwith
p1521
atp1522
Rp1523
(dp1524
g12
VIN
p1525
sbag0
(g1
g2
(lp1526
g0
(g1
g2
(lp1527
Vthe
p1528
atp1529
Rp1530
(dp1531
g12
VDT
p1532
sbatp1533
Rp1534
(dp1535
g12
VNP
p1536
sbatp1537
Rp1538
(dp1539
g12
VPP
p1540
sbag0
(g1
g2
(lp1541
V,
p1542
atp1543
Rp1544
(dp1545
g12
V,
p1546
sbag0
(g1
g2
(lp1547
g0
(g1
g2
(lp1548
Vhis
p1549
atp1550
Rp1551
(dp1552
g12
VPRP$
p1553
sbag0
(g1
g2
(lp1554
Vdog
p1555
atp1556
Rp1557
(dp1558
g12
VNN
p1559
sbatp1560
Rp1561
(dp1562
g12
VNP
p1563
sbag0
(g1
g2
(lp1564
g0
(g1
g2
(lp1565
Vis
p1566
atp1567
Rp1568
(dp1569
g12
VVBZ
p1570
sbag0
(g1
g2
(lp1571
g0
(g1
g2
(lp1572
Vchasing
p1573
atp1574
Rp1575
(dp1576
g12
VVBG
p1577
sbag0
(g1
g2
(lp1578
g0
(g1
g2
(lp1579
Vhim
p1580
atp1581
Rp1582
(dp1583
g12
VPRP
p1584
sbatp1585
Rp1586
(dp1587
g12
VNP
p1588
sbatp1589
Rp1590
(dp1591
g12
VVP
p1592
sbatp1593
Rp1594
(dp1595
g12
VVP
p1596
sbatp1597
Rp1598
(dp1599
g12
VS
p1600
sbag0
(g1
g2
(lp1601
V.
p1602
atp1603
Rp1604
(dp1605
g12
V.
p1606
sbatp1607
Rp1608
(dp1609
g12
VS
p1610
sbatp1611
Rp1612
(dp1613
g12
S'id: 6'
p1614
sbag0
(g1
g2
(lp1615
g0
(g1
g2
(lp1616
g0
(g1
g2
(lp1617
g0
(g1
g2
(lp1618
VThe
p1619
atp1620
Rp1621
(dp1622
g12
VDT
p1623
sbag0
(g1
g2
(lp1624
Vwoman
p1625
atp1626
Rp1627
(dp1628
g12
VNN
p1629
sbatp1630
Rp1631
(dp1632
g12
VNP
p1633
sbag0
(g1
g2
(lp1634
g0
(g1
g2
(lp1635
Vis
p1636
atp1637
Rp1638
(dp1639
g12
VVBZ
p1640
sbag0
(g1
g2
(lp1641
g0
(g1
g2
(lp1642
Vpouring
p1643
atp1644
Rp1645
(dp1646
g12
VVBG
p1647
sbag0
(g1
g2
(lp1648
g0
(g1
g2
(lp1649
g0
(g1
g2
(lp1650
Va
p1651
atp1652
Rp1653
(dp1654
g12
VDT
p1655
sbag0
(g1
g2
(lp1656
Vglass
p1657
atp1658
Rp1659
(dp1660
g12
VNN
p1661
sbatp1662
Rp1663
(dp1664
g12
VNP
p1665
sbag0
(g1
g2
(lp1666
g0
(g1
g2
(lp1667
Vof
p1668
atp1669
Rp1670
(dp1671
g12
VIN
p1672
sbag0
(g1
g2
(lp1673
g0
(g1
g2
(lp1674
Vwine
p1675
atp1676
Rp1677
(dp1678
g12
VNN
p1679
sbatp1680
Rp1681
(dp1682
g12
VNP
p1683
sbatp1684
Rp1685
(dp1686
g12
VPP
p1687
sbag0
(g1
g2
(lp1688
V,
p1689
atp1690
Rp1691
(dp1692
g12
V,
p1693
sbag0
(g1
g2
(lp1694
g0
(g1
g2
(lp1695
Vlistening
p1696
atp1697
Rp1698
(dp1699
g12
VVBG
p1700
sbag0
(g1
g2
(lp1701
g0
(g1
g2
(lp1702
Vto
p1703
atp1704
Rp1705
(dp1706
g12
VTO
p1707
sbag0
(g1
g2
(lp1708
g0
(g1
g2
(lp1709
Vmusic
p1710
atp1711
Rp1712
(dp1713
g12
VNN
p1714
sbatp1715
Rp1716
(dp1717
g12
VNP
p1718
sbatp1719
Rp1720
(dp1721
g12
VPP
p1722
sbatp1723
Rp1724
(dp1725
g12
VVP
p1726
sbatp1727
Rp1728
(dp1729
g12
VNP
p1730
sbatp1731
Rp1732
(dp1733
g12
VVP
p1734
sbatp1735
Rp1736
(dp1737
g12
VVP
p1738
sbag0
(g1
g2
(lp1739
V.
p1740
atp1741
Rp1742
(dp1743
g12
V.
p1744
sbatp1745
Rp1746
(dp1747
g12
VS
p1748
sbatp1749
Rp1750
(dp1751
g12
S'id: 7'
p1752
sbag0
(g1
g2
(lp1753
g0
(g1
g2
(lp1754
g0
(g1
g2
(lp1755
g0
(g1
g2
(lp1756
VThe
p1757
atp1758
Rp1759
(dp1760
g12
VDT
p1761
sbag0
(g1
g2
(lp1762
Vhusband
p1763
atp1764
Rp1765
(dp1766
g12
VNN
p1767
sbatp1768
Rp1769
(dp1770
g12
VNP
p1771
sbag0
(g1
g2
(lp1772
g0
(g1
g2
(lp1773
g0
(g1
g2
(lp1774
Vis
p1775
atp1776
Rp1777
(dp1778
g12
VVBZ
p1779
sbag0
(g1
g2
(lp1780
g0
(g1
g2
(lp1781
Vreading
p1782
atp1783
Rp1784
(dp1785
g12
VVBG
p1786
sbag0
(g1
g2
(lp1787
g0
(g1
g2
(lp1788
Va
p1789
atp1790
Rp1791
(dp1792
g12
VDT
p1793
sbag0
(g1
g2
(lp1794
Vbook
p1795
atp1796
Rp1797
(dp1798
g12
VNN
p1799
sbatp1800
Rp1801
(dp1802
g12
VNP
p1803
sbatp1804
Rp1805
(dp1806
g12
VVP
p1807
sbatp1808
Rp1809
(dp1810
g12
VVP
p1811
sbag0
(g1
g2
(lp1812
V,
p1813
atp1814
Rp1815
(dp1816
g12
V,
p1817
sbag0
(g1
g2
(lp1818
g0
(g1
g2
(lp1819
Vtook
p1820
atp1821
Rp1822
(dp1823
g12
VVBD
p1824
sbag0
(g1
g2
(lp1825
g0
(g1
g2
(lp1826
Vhis
p1827
atp1828
Rp1829
(dp1830
g12
VPRP$
p1831
sbag0
(g1
g2
(lp1832
Vsandals
p1833
atp1834
Rp1835
(dp1836
g12
VNNS
p1837
sbatp1838
Rp1839
(dp1840
g12
VNP
p1841
sbag0
(g1
g2
(lp1842
g0
(g1
g2
(lp1843
Voff
p1844
atp1845
Rp1846
(dp1847
g12
VRP
p1848
sbatp1849
Rp1850
(dp1851
g12
VPRT
p1852
sbatp1853
Rp1854
(dp1855
g12
VVP
p1856
sbatp1857
Rp1858
(dp1859
g12
VVP
p1860
sbag0
(g1
g2
(lp1861
V.
p1862
atp1863
Rp1864
(dp1865
g12
V.
p1866
sbatp1867
Rp1868
(dp1869
g12
VS
p1870
sbatp1871
Rp1872
(dp1873
g12
S'id: 8'
p1874
sbag0
(g1
g2
(lp1875
g0
(g1
g2
(lp1876
g0
(g1
g2
(lp1877
g0
(g1
g2
(lp1878
VThere
p1879
atp1880
Rp1881
(dp1882
g12
VEX
p1883
sbatp1884
Rp1885
(dp1886
g12
VNP
p1887
sbag0
(g1
g2
(lp1888
g0
(g1
g2
(lp1889
V's
p1890
atp1891
Rp1892
(dp1893
g12
VVBZ
p1894
sbag0
(g1
g2
(lp1895
g0
(g1
g2
(lp1896
g0
(g1
g2
(lp1897
g0
(g1
g2
(lp1898
Va
p1899
atp1900
Rp1901
(dp1902
g12
VDT
p1903
sbag0
(g1
g2
(lp1904
Vhouse
p1905
atp1906
Rp1907
(dp1908
g12
VNN
p1909
sbatp1910
Rp1911
(dp1912
g12
VNP
p1913
sbag0
(g1
g2
(lp1914
g0
(g1
g2
(lp1915
Vat
p1916
atp1917
Rp1918
(dp1919
g12
VIN
p1920
sbag0
(g1
g2
(lp1921
g0
(g1
g2
(lp1922
g0
(g1
g2
(lp1923
Vthe
p1924
atp1925
Rp1926
(dp1927
g12
VDT
p1928
sbag0
(g1
g2
(lp1929
Vlake
p1930
atp1931
Rp1932
(dp1933
g12
VNN
p1934
sbatp1935
Rp1936
(dp1937
g12
VNP
p1938
sbag0
(g1
g2
(lp1939
g0
(g1
g2
(lp1940
Vwith
p1941
atp1942
Rp1943
(dp1944
g12
VIN
p1945
sbag0
(g1
g2
(lp1946
g0
(g1
g2
(lp1947
g0
(g1
g2
(lp1948
Va
p1949
atp1950
Rp1951
(dp1952
g12
VDT
p1953
sbag0
(g1
g2
(lp1954
Vcar
p1955
atp1956
Rp1957
(dp1958
g12
VNN
p1959
sbatp1960
Rp1961
(dp1962
g12
VNP
p1963
sbag0
(g1
g2
(lp1964
g0
(g1
g2
(lp1965
Vparked
p1966
atp1967
Rp1968
(dp1969
g12
VVBN
p1970
sbatp1971
Rp1972
(dp1973
g12
VVP
p1974
sbatp1975
Rp1976
(dp1977
g12
VNP
p1978
sbatp1979
Rp1980
(dp1981
g12
VPP
p1982
sbatp1983
Rp1984
(dp1985
g12
VNP
p1986
sbatp1987
Rp1988
(dp1989
g12
VPP
p1990
sbatp1991
Rp1992
(dp1993
g12
VNP
p1994
sbag0
(g1
g2
(lp1995
V,
p1996
atp1997
Rp1998
(dp1999
g12
V,
p2000
sbag0
(g1
g2
(lp2001
Vand
p2002
atp2003
Rp2004
(dp2005
g12
VCC
p2006
sbag0
(g1
g2
(lp2007
g0
(g1
g2
(lp2008
g0
(g1
g2
(lp2009
Va
p2010
atp2011
Rp2012
(dp2013
g12
VDT
p2014
sbag0
(g1
g2
(lp2015
Vflag
p2016
atp2017
Rp2018
(dp2019
g12
VNN
p2020
sbatp2021
Rp2022
(dp2023
g12
VNP
p2024
sbag0
(g1
g2
(lp2025
g0
(g1
g2
(lp2026
Vflying
p2027
atp2028
Rp2029
(dp2030
g12
VVBG
p2031
sbatp2032
Rp2033
(dp2034
g12
VVP
p2035
sbatp2036
Rp2037
(dp2038
g12
VNP
p2039
sbatp2040
Rp2041
(dp2042
g12
VNP
p2043
sbatp2044
Rp2045
(dp2046
g12
VVP
p2047
sbag0
(g1
g2
(lp2048
V.
p2049
atp2050
Rp2051
(dp2052
g12
V.
p2053
sbatp2054
Rp2055
(dp2056
g12
VS
p2057
sbatp2058
Rp2059
(dp2060
g12
S'id: 9'
p2061
sbag0
(g1
g2
(lp2062
g0
(g1
g2
(lp2063
g0
(g1
g2
(lp2064
g0
(g1
g2
(lp2065
g0
(g1
g2
(lp2066
g0
(g1
g2
(lp2067
VThe
p2068
atp2069
Rp2070
(dp2071
g12
VDT
p2072
sbag0
(g1
g2
(lp2073
Vman
p2074
atp2075
Rp2076
(dp2077
g12
VNN
p2078
sbatp2079
Rp2080
(dp2081
g12
VNP
p2082
sbag0
(g1
g2
(lp2083
g0
(g1
g2
(lp2084
g0
(g1
g2
(lp2085
Vthat
p2086
atp2087
Rp2088
(dp2089
g12
VWDT
p2090
sbatp2091
Rp2092
(dp2093
g12
VWHNP
p2094
sbag0
(g1
g2
(lp2095
g0
(g1
g2
(lp2096
g0
(g1
g2
(lp2097
V's
p2098
atp2099
Rp2100
(dp2101
g12
VVBZ
p2102
sbag0
(g1
g2
(lp2103
g0
(g1
g2
(lp2104
Vfishing
p2105
atp2106
Rp2107
(dp2108
g12
VNN
p2109
sbatp2110
Rp2111
(dp2112
g12
VNP
p2113
sbatp2114
Rp2115
(dp2116
g12
VVP
p2117
sbatp2118
Rp2119
(dp2120
g12
VS
p2121
sbatp2122
Rp2123
(dp2124
g12
VSBAR
p2125
sbatp2126
Rp2127
(dp2128
g12
VNP
p2129
sbag0
(g1
g2
(lp2130
g0
(g1
g2
(lp2131
g0
(g1
g2
(lp2132
Vhas
p2133
atp2134
Rp2135
(dp2136
g12
VVBZ
p2137
sbag0
(g1
g2
(lp2138
g0
(g1
g2
(lp2139
Va
p2140
atp2141
Rp2142
(dp2143
g12
VDT
p2144
sbatp2145
Rp2146
(dp2147
g12
VNP
p2148
sbatp2149
Rp2150
(dp2151
g12
VVP
p2152
sbag0
(g1
g2
(lp2153
V,
p2154
atp2155
Rp2156
(dp2157
g12
V,
p2158
sbag0
(g1
g2
(lp2159
g0
(g1
g2
(lp2160
Vhas
p2161
atp2162
Rp2163
(dp2164
g12
VVBZ
p2165
sbag0
(g1
g2
(lp2166
g0
(g1
g2
(lp2167
Vcaughten
p2168
atp2169
Rp2170
(dp2171
g12
VVBN
p2172
sbatp2173
Rp2174
(dp2175
g12
VVP
p2176
sbatp2177
Rp2178
(dp2179
g12
VVP
p2180
sbag0
(g1
g2
(lp2181
V,
p2182
atp2183
Rp2184
(dp2185
g12
V,
p2186
sbag0
(g1
g2
(lp2187
g0
(g1
g2
(lp2188
Vhas
p2189
atp2190
Rp2191
(dp2192
g12
VVBZ
p2193
sbag0
(g1
g2
(lp2194
g0
(g1
g2
(lp2195
Vcaught
p2196
atp2197
Rp2198
(dp2199
g12
VVBN
p2200
sbag0
(g1
g2
(lp2201
g0
(g1
g2
(lp2202
Va
p2203
atp2204
Rp2205
(dp2206
g12
VDT
p2207
sbag0
(g1
g2
(lp2208
Vfish
p2209
atp2210
Rp2211
(dp2212
g12
VNN
p2213
sbatp2214
Rp2215
(dp2216
g12
VNP
p2217
sbatp2218
Rp2219
(dp2220
g12
VVP
p2221
sbatp2222
Rp2223
(dp2224
g12
VVP
p2225
sbatp2226
Rp2227
(dp2228
g12
VVP
p2229
sbatp2230
Rp2231
(dp2232
g12
VS
p2233
sbag0
(g1
g2
(lp2234
V,
p2235
atp2236
Rp2237
(dp2238
g12
V,
p2239
sbag0
(g1
g2
(lp2240
g0
(g1
g2
(lp2241
Vhe
p2242
atp2243
Rp2244
(dp2245
g12
VPRP
p2246
sbatp2247
Rp2248
(dp2249
g12
VNP
p2250
sbag0
(g1
g2
(lp2251
g0
(g1
g2
(lp2252
V's
p2253
atp2254
Rp2255
(dp2256
g12
VVBZ
p2257
sbag0
(g1
g2
(lp2258
g0
(g1
g2
(lp2259
Vwearing
p2260
atp2261
Rp2262
(dp2263
g12
VVBG
p2264
sbag0
(g1
g2
(lp2265
g0
(g1
g2
(lp2266
Va
p2267
atp2268
Rp2269
(dp2270
g12
VDT
p2271
sbag0
(g1
g2
(lp2272
Vhat
p2273
atp2274
Rp2275
(dp2276
g12
VNN
p2277
sbatp2278
Rp2279
(dp2280
g12
VNP
p2281
sbatp2282
Rp2283
(dp2284
g12
VVP
p2285
sbatp2286
Rp2287
(dp2288
g12
VVP
p2289
sbag0
(g1
g2
(lp2290
V.
p2291
atp2292
Rp2293
(dp2294
g12
V.
p2295
sbatp2296
Rp2297
(dp2298
g12
VS
p2299
sbatp2300
Rp2301
(dp2302
g12
S'id: 10'
p2303
sbag0
(g1
g2
(lp2304
g0
(g1
g2
(lp2305
g0
(g1
g2
(lp2306
g0
(g1
g2
(lp2307
VAnd
p2308
atp2309
Rp2310
(dp2311
g12
VCC
p2312
sbatp2313
Rp2314
(dp2315
g12
VVP
p2316
sbag0
(g1
g2
(lp2317
V.
p2318
atp2319
Rp2320
(dp2321
g12
V.
p2322
sbatp2323
Rp2324
(dp2325
g12
VS
p2326
sbatp2327
Rp2328
(dp2329
g12
S'id: 11'
p2330
sbag0
(g1
g2
(lp2331
g0
(g1
g2
(lp2332
g0
(g1
g2
(lp2333
g0
(g1
g2
(lp2334
VThe
p2335
atp2336
Rp2337
(dp2338
g12
VDT
p2339
sbatp2340
Rp2341
(dp2342
g12
VNP
p2343
sbag0
(g1
g2
(lp2344
V,
p2345
atp2346
Rp2347
(dp2348
g12
V,
p2349
sbag0
(g1
g2
(lp2350
g0
(g1
g2
(lp2351
Vthe
p2352
atp2353
Rp2354
(dp2355
g12
VDT
p2356
sbag0
(g1
g2
(lp2357
Vsailboat
p2358
atp2359
Rp2360
(dp2361
g12
VNN
p2362
sbatp2363
Rp2364
(dp2365
g12
VNP
p2366
sbag0
(g1
g2
(lp2367
g0
(g1
g2
(lp2368
Vis
p2369
atp2370
Rp2371
(dp2372
g12
VVBZ
p2373
sbag0
(g1
g2
(lp2374
g0
(g1
g2
(lp2375
Vnumber
p2376
atp2377
Rp2378
(dp2379
g12
VNN
p2380
sbatp2381
Rp2382
(dp2383
g12
VNP-TMP
p2384
sbag0
(g1
g2
(lp2385
g0
(g1
g2
(lp2386
Vfour
p2387
atp2388
Rp2389
(dp2390
g12
VCD
p2391
sbag0
(g1
g2
(lp2392
Vseventy
p2393
atp2394
Rp2395
(dp2396
g12
VCD
p2397
sbatp2398
Rp2399
(dp2400
g12
VNP
p2401
sbatp2402
Rp2403
(dp2404
g12
VVP
p2405
sbag0
(g1
g2
(lp2406
V.
p2407
atp2408
Rp2409
(dp2410
g12
V.
p2411
sbatp2412
Rp2413
(dp2414
g12
VS
p2415
sbatp2416
Rp2417
(dp2418
g12
S'id: 12'
p2419
sbag0
(g1
g2
(lp2420
g0
(g1
g2
(lp2421
g0
(g1
g2
(lp2422
g0
(g1
g2
(lp2423
VIt
p2424
atp2425
Rp2426
(dp2427
g12
VPRP
p2428
sbatp2429
Rp2430
(dp2431
g12
VNP
p2432
sbag0
(g1
g2
(lp2433
g0
(g1
g2
(lp2434
V's
p2435
atp2436
Rp2437
(dp2438
g12
VVBZ
p2439
sbag0
(g1
g2
(lp2440
g0
(g1
g2
(lp2441
Vgot
p2442
atp2443
Rp2444
(dp2445
g12
VVBD
p2446
sbag0
(g1
g2
(lp2447
g0
(g1
g2
(lp2448
Va
p2449
atp2450
Rp2451
(dp2452
g12
VDT
p2453
sbag0
(g1
g2
(lp2454
Vnumber
p2455
atp2456
Rp2457
(dp2458
g12
VNN
p2459
sbatp2460
Rp2461
(dp2462
g12
VNP
p2463
sbag0
(g1
g2
(lp2464
g0
(g1
g2
(lp2465
Von
p2466
atp2467
Rp2468
(dp2469
g12
VIN
p2470
sbag0
(g1
g2
(lp2471
g0
(g1
g2
(lp2472
Vthe
p2473
atp2474
Rp2475
(dp2476
g12
VDT
p2477
sbag0
(g1
g2
(lp2478
Vsail
p2479
atp2480
Rp2481
(dp2482
g12
VNN
p2483
sbatp2484
Rp2485
(dp2486
g12
VNP
p2487
sbatp2488
Rp2489
(dp2490
g12
VPP
p2491
sbatp2492
Rp2493
(dp2494
g12
VVP
p2495
sbatp2496
Rp2497
(dp2498
g12
VVP
p2499
sbag0
(g1
g2
(lp2500
V.
p2501
atp2502
Rp2503
(dp2504
g12
V.
p2505
sbatp2506
Rp2507
(dp2508
g12
VS
p2509
sbatp2510
Rp2511
(dp2512
g12
S'id: 13'
p2513
sbatp2514
Rp2515
(dp2516
g12
S'sentences'
p2517
sb.