ccopy_reg
_reconstructor
p0
(cnltk.tree
Tree
p1
c__builtin__
list
p2
(lp3
g0
(g1
g2
(lp4
tp5
Rp6
(dp7
S'_label'
p8
S'id: 0'
p9
sbag0
(g1
g2
(lp10
g0
(g1
g2
(lp11
g0
(g1
g2
(lp12
g0
(g1
g2
(lp13
g0
(g1
g2
(lp14
(lp15
S'word: the, index: 20'
p16
aatp17
Rp18
(dp19
g8
Vdet
p20
sbatp21
Rp22
(dp23
g8
S'word: children, index: 21'
p24
sbatp25
Rp26
(dp27
g8
Vprep
p28
sbag0
(g1
g2
(lp29
g0
(g1
g2
(lp30
g0
(g1
g2
(lp31
(lp32
S'word: no, index: 23'
p33
aatp34
Rp35
(dp36
g8
Vneg
p37
sbatp38
Rp39
(dp40
g8
S'word: he, index: 24'
p41
sbatp42
Rp43
(dp44
g8
Vnsubj
p45
sbag0
(g1
g2
(lp46
(lp47
S"word: 's, index: 25"
p48
aatp49
Rp50
(dp51
g8
Vaux
p52
sbag0
(g1
g2
(lp53
g0
(g1
g2
(lp54
g0
(g1
g2
(lp55
(lp56
S'word: a, index: 27'
p57
aatp58
Rp59
(dp60
g8
Vdet
p61
sbatp62
Rp63
(dp64
g8
S'word: book, index: 28'
p65
sbatp66
Rp67
(dp68
g8
Vdobj
p69
sbag0
(g1
g2
(lp70
g0
(g1
g2
(lp71
g0
(g1
g2
(lp72
g0
(g1
g2
(lp73
g0
(g1
g2
(lp74
(lp75
S'word: the, index: 3'
p76
aatp77
Rp78
(dp79
g8
Vdet
p80
sbag0
(g1
g2
(lp81
(lp82
S"word: 's, index: 5"
p83
aatp84
Rp85
(dp86
g8
Vpossessive
p87
sbag0
(g1
g2
(lp88
(lp89
S'word: the, index: 7'
p90
aatp91
Rp92
(dp93
g8
Vappos
p94
sbag0
(g1
g2
(lp95
(lp96
S'word: he, index: 9'
p97
aatp98
Rp99
(dp100
g8
Vappos
p101
sbatp102
Rp103
(dp104
g8
S'word: father, index: 4'
p105
sbatp106
Rp107
(dp108
g8
Vdep
p109
sbag0
(g1
g2
(lp110
g0
(g1
g2
(lp111
g0
(g1
g2
(lp112
(lp113
S'word: he, index: 11'
p114
aatp115
Rp116
(dp117
g8
Vnsubj
p118
sbag0
(g1
g2
(lp119
(lp120
S"word: 's, index: 12"
p121
aatp122
Rp123
(dp124
g8
Vaux
p125
sbag0
(g1
g2
(lp126
(lp127
S'word: to, index: 14'
p128
aatp129
Rp130
(dp131
g8
Vprep
p132
sbatp133
Rp134
(dp135
g8
S'word: reading, index: 13'
p136
sbatp137
Rp138
(dp139
g8
Vrcmod
p140
sbatp141
Rp142
(dp143
g8
S'word: The, index: 1'
p144
sbatp145
Rp146
(dp147
g8
Vnsubj
p148
sbag0
(g1
g2
(lp149
(lp150
S'word: the, index: 17'
p151
aatp152
Rp153
(dp154
g8
Vprep
p155
sbatp156
Rp157
(dp158
g8
S'word: reading, index: 26'
p159
sbatp160
Rp161
(dp162
g8
S'id: 1'
p163
sbag0
(g1
g2
(lp164
g0
(g1
g2
(lp165
g0
(g1
g2
(lp166
g0
(g1
g2
(lp167
g0
(g1
g2
(lp168
g0
(g1
g2
(lp169
g0
(g1
g2
(lp170
(lp171
S'word: the, index: 6'
p172
aatp173
Rp174
(dp175
g8
Vdet
p176
sbatp177
Rp178
(dp179
g8
S'word: leaves, index: 7'
p180
sbatp181
Rp182
(dp183
g8
Vnsubj
p184
sbag0
(g1
g2
(lp185
(lp186
S'word: on, index: 9'
p187
aatp188
Rp189
(dp190
g8
Vprep
p191
sbag0
(g1
g2
(lp192
g0
(g1
g2
(lp193
g0
(g1
g2
(lp194
(lp195
S'word: the, index: 3'
p196
aatp197
Rp198
(dp199
g8
Vdet
p200
sbatp201
Rp202
(dp203
g8
S'word: leaves, index: 4'
p204
sbatp205
Rp206
(dp207
g8
Vnsubj
p208
sbatp209
Rp210
(dp211
g8
S'word: are, index: 8'
p212
sbatp213
Rp214
(dp215
g8
Vparataxis
p216
sbag0
(g1
g2
(lp217
g0
(g1
g2
(lp218
g0
(g1
g2
(lp219
(lp220
S'word: the, index: 11'
p221
aatp222
Rp223
(dp224
g8
Vdet
p225
sbatp226
Rp227
(dp228
g8
S'word: leaves, index: 12'
p229
sbatp230
Rp231
(dp232
g8
Vnsubj
p233
sbag0
(g1
g2
(lp234
(lp235
S'word: are, index: 16'
p236
aatp237
Rp238
(dp239
g8
Vdep
p240
sbag0
(g1
g2
(lp241
(lp242
S'word: And, index: 1'
p243
aatp244
Rp245
(dp246
g8
Vcc
p247
sbag0
(g1
g2
(lp248
g0
(g1
g2
(lp249
g0
(g1
g2
(lp250
(lp251
S'word: o, index: 18'
p252
aatp253
Rp254
(dp255
g8
Vnn
p256
sbatp257
Rp258
(dp259
g8
S'word: gosh, index: 19'
p260
sbatp261
Rp262
(dp263
g8
Vprep
p264
sbatp265
Rp266
(dp267
g8
S'word: are, index: 13'
p268
sbatp269
Rp270
(dp271
g8
S'id: 2'
p272
sbag0
(g1
g2
(lp273
g0
(g1
g2
(lp274
g0
(g1
g2
(lp275
g0
(g1
g2
(lp276
g0
(g1
g2
(lp277
(lp278
S'word: no, index: 8'
p279
aatp280
Rp281
(dp282
g8
Vdep
p283
sbatp284
Rp285
(dp286
g8
S'word: it, index: 10'
p287
sbatp288
Rp289
(dp290
g8
Vparataxis
p291
sbag0
(g1
g2
(lp292
g0
(g1
g2
(lp293
g0
(g1
g2
(lp294
(lp295
S'word: they, index: 12'
p296
aatp297
Rp298
(dp299
g8
Vnsubj
p300
sbag0
(g1
g2
(lp301
(lp302
S'word: off, index: 14'
p303
aatp304
Rp305
(dp306
g8
Vprt
p307
sbag0
(g1
g2
(lp308
g0
(g1
g2
(lp309
g0
(g1
g2
(lp310
(lp311
S'word: his, index: 15'
p312
aatp313
Rp314
(dp315
g8
Vposs
p316
sbatp317
Rp318
(dp319
g8
S'word: feet, index: 16'
p320
sbatp321
Rp322
(dp323
g8
Vdobj
p324
sbatp325
Rp326
(dp327
g8
S'word: came, index: 13'
p328
sbatp329
Rp330
(dp331
g8
Vparataxis
p332
sbag0
(g1
g2
(lp333
(lp334
S'word: He, index: 1'
p335
aatp336
Rp337
(dp338
g8
Vnsubj
p339
sbag0
(g1
g2
(lp340
g0
(g1
g2
(lp341
g0
(g1
g2
(lp342
g0
(g1
g2
(lp343
g0
(g1
g2
(lp344
(lp345
S'word: his, index: 5'
p346
aatp347
Rp348
(dp349
g8
Vposs
p350
sbatp351
Rp352
(dp353
g8
S'word: feet, index: 6'
p354
sbatp355
Rp356
(dp357
g8
Vprep
p358
sbatp359
Rp360
(dp361
g8
S'word: sandals, index: 3'
p362
sbatp363
Rp364
(dp365
g8
Vdobj
p366
sbatp367
Rp368
(dp369
g8
S'word: has, index: 2'
p370
sbatp371
Rp372
(dp373
g8
S'id: 3'
p374
sbag0
(g1
g2
(lp375
g0
(g1
g2
(lp376
g0
(g1
g2
(lp377
(lp378
S'word: And, index: 1'
p379
aatp380
Rp381
(dp382
g8
Vcc
p383
sbag0
(g1
g2
(lp384
(lp385
S'word: he, index: 2'
p386
aatp387
Rp388
(dp389
g8
Vnsubjpass
p390
sbag0
(g1
g2
(lp391
(lp392
S'word: she, index: 4'
p393
aatp394
Rp395
(dp396
g8
Vnsubjpass
p397
sbag0
(g1
g2
(lp398
(lp399
S"word: 's, index: 5"
p400
aatp401
Rp402
(dp403
g8
Vauxpass
p404
sbag0
(g1
g2
(lp405
g0
(g1
g2
(lp406
g0
(g1
g2
(lp407
(lp408
S'word: a, index: 7'
p409
aatp410
Rp411
(dp412
g8
Vdet
p413
sbag0
(g1
g2
(lp414
(lp415
S'word: picnic, index: 8'
p416
aatp417
Rp418
(dp419
g8
Vnn
p420
sbatp421
Rp422
(dp423
g8
S'word: basket, index: 9'
p424
sbatp425
Rp426
(dp427
g8
Vdobj
p428
sbatp429
Rp430
(dp431
g8
S'word: got, index: 6'
p432
sbatp433
Rp434
(dp435
g8
S'id: 4'
p436
sbag0
(g1
g2
(lp437
g0
(g1
g2
(lp438
g0
(g1
g2
(lp439
(lp440
S'word: And, index: 1'
p441
aatp442
Rp443
(dp444
g8
Vcc
p445
sbag0
(g1
g2
(lp446
g0
(g1
g2
(lp447
g0
(g1
g2
(lp448
(lp449
S'word: the, index: 2'
p450
aatp451
Rp452
(dp453
g8
Vdet
p454
sbatp455
Rp456
(dp457
g8
S'word: radio, index: 3'
p458
sbatp459
Rp460
(dp461
g8
Vnsubj
p462
sbag0
(g1
g2
(lp463
g0
(g1
g2
(lp464
g0
(g1
g2
(lp465
(lp466
S'word: is, index: 6'
p467
aatp468
Rp469
(dp470
g8
Vaux
p471
sbatp472
Rp473
(dp474
g8
S'word: playing, index: 7'
p475
sbatp476
Rp477
(dp478
g8
Vccomp
p479
sbatp480
Rp481
(dp482
g8
S'word: is, index: 4'
p483
sbatp484
Rp485
(dp486
g8
S'id: 5'
p487
sbag0
(g1
g2
(lp488
g0
(g1
g2
(lp489
g0
(g1
g2
(lp490
g0
(g1
g2
(lp491
g0
(g1
g2
(lp492
(lp493
S'word: he, index: 2'
p494
aatp495
Rp496
(dp497
g8
Vnsubj
p498
sbag0
(g1
g2
(lp499
(lp500
S"word: 's, index: 3"
p501
aatp502
Rp503
(dp504
g8
Vaux
p505
sbag0
(g1
g2
(lp506
g0
(g1
g2
(lp507
g0
(g1
g2
(lp508
(lp509
S'word: a, index: 5'
p510
aatp511
Rp512
(dp513
g8
Vdet
p514
sbatp515
Rp516
(dp517
g8
S'word: kite, index: 6'
p518
sbatp519
Rp520
(dp521
g8
Vdobj
p522
sbag0
(g1
g2
(lp523
(lp524
S'word: And, index: 1'
p525
aatp526
Rp527
(dp528
g8
Vcc
p529
sbatp530
Rp531
(dp532
g8
S'word: flying, index: 4'
p533
sbatp534
Rp535
(dp536
g8
Vccomp
p537
sbag0
(g1
g2
(lp538
g0
(g1
g2
(lp539
g0
(g1
g2
(lp540
(lp541
S'word: the, index: 8'
p542
aatp543
Rp544
(dp545
g8
Vdet
p546
sbatp547
Rp548
(dp549
g8
S'word: dog, index: 9'
p550
sbatp551
Rp552
(dp553
g8
Vnsubj
p554
sbag0
(g1
g2
(lp555
(lp556
S'word: is, index: 10'
p557
aatp558
Rp559
(dp560
g8
Vaux
p561
sbag0
(g1
g2
(lp562
(lp563
S'word: him, index: 12'
p564
aatp565
Rp566
(dp567
g8
Vdobj
p568
sbatp569
Rp570
(dp571
g8
S'word: following, index: 11'
p572
sbatp573
Rp574
(dp575
g8
S'id: 6'
p576
sbag0
(g1
g2
(lp577
g0
(g1
g2
(lp578
g0
(g1
g2
(lp579
g0
(g1
g2
(lp580
g0
(g1
g2
(lp581
(lp582
S'word: a, index: 4'
p583
aatp584
Rp585
(dp586
g8
Vdet
p587
sbatp588
Rp589
(dp590
g8
S'word: fish, index: 5'
p591
sbatp592
Rp593
(dp594
g8
Vdobj
p595
sbag0
(g1
g2
(lp596
g0
(g1
g2
(lp597
g0
(g1
g2
(lp598
(lp599
S'word: The, index: 1'
p600
aatp601
Rp602
(dp603
g8
Vdet
p604
sbatp605
Rp606
(dp607
g8
S'word: fisherman, index: 2'
p608
sbatp609
Rp610
(dp611
g8
Vnsubj
p612
sbatp613
Rp614
(dp615
g8
S'word: caught, index: 3'
p616
sbatp617
Rp618
(dp619
g8
S'id: 7'
p620
sbag0
(g1
g2
(lp621
tp622
Rp623
(dp624
g8
S'id: 8'
p625
sbag0
(g1
g2
(lp626
g0
(g1
g2
(lp627
g0
(g1
g2
(lp628
g0
(g1
g2
(lp629
g0
(g1
g2
(lp630
(lp631
S'word: the, index: 12'
p632
aatp633
Rp634
(dp635
g8
Vdet
p636
sbatp637
Rp638
(dp639
g8
S'word: tree, index: 13'
p640
sbatp641
Rp642
(dp643
g8
Vprep
p644
sbag0
(g1
g2
(lp645
(lp646
S'word: There, index: 1'
p647
aatp648
Rp649
(dp650
g8
Vadvmod
p651
sbag0
(g1
g2
(lp652
(lp653
S'word: there, index: 3'
p654
aatp655
Rp656
(dp657
g8
Vexpl
p658
sbag0
(g1
g2
(lp659
g0
(g1
g2
(lp660
g0
(g1
g2
(lp661
g0
(g1
g2
(lp662
g0
(g1
g2
(lp663
(lp664
S'word: no, index: 7'
p665
aatp666
Rp667
(dp668
g8
Vneg
p669
sbatp670
Rp671
(dp672
g8
S'word: they, index: 8'
p673
sbatp674
Rp675
(dp676
g8
Vappos
p677
sbatp678
Rp679
(dp680
g8
S'word: a, index: 5'
p681
sbatp682
Rp683
(dp684
g8
Vprep
p685
sbag0
(g1
g2
(lp686
(lp687
S'word: not, index: 10'
p688
aatp689
Rp690
(dp691
g8
Vneg
p692
sbatp693
Rp694
(dp695
g8
S"word: 're, index: 9"
p696
sbatp697
Rp698
(dp699
g8
S'id: 9'
p700
sbag0
(g1
g2
(lp701
g0
(g1
g2
(lp702
g0
(g1
g2
(lp703
g0
(g1
g2
(lp704
g0
(g1
g2
(lp705
(lp706
S'word: flying, index: 2'
p707
aatp708
Rp709
(dp710
g8
Vvmod
p711
sbatp712
Rp713
(dp714
g8
S'word: Flags, index: 1'
p715
sbatp716
Rp717
(dp718
g8
Vnsubj
p719
sbag0
(g1
g2
(lp720
g0
(g1
g2
(lp721
g0
(g1
g2
(lp722
(lp723
S'word: kite, index: 4'
p724
aatp725
Rp726
(dp727
g8
Vnsubj
p728
sbag0
(g1
g2
(lp729
(lp730
S'word: is, index: 5'
p731
aatp732
Rp733
(dp734
g8
Vcop
p735
sbatp736
Rp737
(dp738
g8
S'word: dang, index: 6'
p739
sbatp740
Rp741
(dp742
g8
Vparataxis
p743
sbag0
(g1
g2
(lp744
(lp745
S'word: is, index: 8'
p746
aatp747
Rp748
(dp749
g8
Vaux
p750
sbag0
(g1
g2
(lp751
(lp752
S'word: to, index: 10'
p753
aatp754
Rp755
(dp756
g8
Vprep
p757
sbatp758
Rp759
(dp760
g8
S'word: flying, index: 9'
p761
sbatp762
Rp763
(dp764
g8
S'id: 10'
p765
sbag0
(g1
g2
(lp766
g0
(g1
g2
(lp767
g0
(g1
g2
(lp768
(lp769
S'word: And, index: 1'
p770
aatp771
Rp772
(dp773
g8
Vcc
p774
sbag0
(g1
g2
(lp775
g0
(g1
g2
(lp776
g0
(g1
g2
(lp777
(lp778
S'word: a, index: 2'
p779
aatp780
Rp781
(dp782
g8
Vdet
p783
sbatp784
Rp785
(dp786
g8
S'word: car, index: 3'
p787
sbatp788
Rp789
(dp790
g8
Vnsubj
p791
sbag0
(g1
g2
(lp792
(lp793
S'word: it, index: 5'
p794
aatp795
Rp796
(dp797
g8
Vnsubj
p798
sbag0
(g1
g2
(lp799
g0
(g1
g2
(lp800
g0
(g1
g2
(lp801
(lp802
S'word: it, index: 8'
p803
aatp804
Rp805
(dp806
g8
Vnsubjpass
p807
sbag0
(g1
g2
(lp808
(lp809
S"word: 's, index: 9"
p810
aatp811
Rp812
(dp813
g8
Vauxpass
p814
sbatp815
Rp816
(dp817
g8
S'word: parked, index: 10'
p818
sbatp819
Rp820
(dp821
g8
Vccomp
p822
sbatp823
Rp824
(dp825
g8
S"word: 's, index: 6"
p826
sbatp827
Rp828
(dp829
g8
S'id: 11'
p830
sbag0
(g1
g2
(lp831
g0
(g1
g2
(lp832
g0
(g1
g2
(lp833
(lp834
S'word: a, index: 5'
p835
aatp836
Rp837
(dp838
g8
Vnsubjpass
p839
sbag0
(g1
g2
(lp840
g0
(g1
g2
(lp841
g0
(g1
g2
(lp842
(lp843
S'word: the, index: 7'
p844
aatp845
Rp846
(dp847
g8
Vdet
p848
sbatp849
Rp850
(dp851
g8
S'word: door, index: 8'
p852
sbatp853
Rp854
(dp855
g8
Vnsubjpass
p856
sbag0
(g1
g2
(lp857
g0
(g1
g2
(lp858
g0
(g1
g2
(lp859
(lp860
S'word: the, index: 10'
p861
aatp862
Rp863
(dp864
g8
Vdet
p865
sbatp866
Rp867
(dp868
g8
S'word: door, index: 11'
p869
sbatp870
Rp871
(dp872
g8
Vnsubjpass
p873
sbag0
(g1
g2
(lp874
(lp875
S'word: is, index: 12'
p876
aatp877
Rp878
(dp879
g8
Vauxpass
p880
sbag0
(g1
g2
(lp881
(lp882
S'word: And, index: 1'
p883
aatp884
Rp885
(dp886
g8
Vcc
p887
sbag0
(g1
g2
(lp888
g0
(g1
g2
(lp889
g0
(g1
g2
(lp890
(lp891
S'word: a, index: 5'
p892
aatp893
Rp894
(dp895
g8
Vconj
p896
sbag0
(g1
g2
(lp897
g850
atp898
Rp899
(dp900
g8
Vconj
p901
sbag0
(g1
g2
(lp902
g867
atp903
Rp904
(dp905
g8
Vconj
p906
sbatp907
Rp908
(dp909
g8
S'word: a, index: 2'
p910
sbatp911
Rp912
(dp913
g8
Vnsubjpass
p914
sbatp915
Rp916
(dp917
g8
S'word: closed, index: 13'
p918
sbatp919
Rp920
(dp921
g8
S'id: 12'
p922
sbag0
(g1
g2
(lp923
g0
(g1
g2
(lp924
g0
(g1
g2
(lp925
(lp926
S'word: a, index: 2'
p927
aatp928
Rp929
(dp930
g8
Vadvmod
p931
sbag0
(g1
g2
(lp932
g0
(g1
g2
(lp933
g0
(g1
g2
(lp934
(lp935
S'word: there, index: 18'
p936
aatp937
Rp938
(dp939
g8
Vexpl
p940
sbag0
(g1
g2
(lp941
g0
(g1
g2
(lp942
g0
(g1
g2
(lp943
g0
(g1
g2
(lp944
g0
(g1
g2
(lp945
(lp946
S'word: no, index: 24'
p947
aatp948
Rp949
(dp950
g8
Vneg
p951
sbag0
(g1
g2
(lp952
(lp953
S'word: a, index: 25'
p954
aatp955
Rp956
(dp957
g8
Vdet
p958
sbag0
(g1
g2
(lp959
(lp960
S'word: it, index: 28'
p961
aatp962
Rp963
(dp964
g8
Vprep
p965
sbatp966
Rp967
(dp968
g8
S'word: boat, index: 26'
p969
sbatp970
Rp971
(dp972
g8
Vappos
p973
sbag0
(g1
g2
(lp974
(lp975
S'word: it, index: 22'
p976
aatp977
Rp978
(dp979
g8
Vprep
p980
sbatp981
Rp982
(dp983
g8
S'word: boats, index: 20'
p984
sbatp985
Rp986
(dp987
g8
Vnsubj
p988
sbatp989
Rp990
(dp991
g8
S"word: 's, index: 19"
p992
sbatp993
Rp994
(dp995
g8
Vconj
p996
sbag0
(g1
g2
(lp997
(lp998
S'word: there, index: 4'
p999
aatp1000
Rp1001
(dp1002
g8
Vexpl
p1003
sbag0
(g1
g2
(lp1004
g0
(g1
g2
(lp1005
g0
(g1
g2
(lp1006
g0
(g1
g2
(lp1007
g0
(g1
g2
(lp1008
g0
(g1
g2
(lp1009
g0
(g1
g2
(lp1010
g0
(g1
g2
(lp1011
g0
(g1
g2
(lp1012
(lp1013
S'word: the, index: 12'
p1014
aatp1015
Rp1016
(dp1017
g8
Vdet
p1018
sbatp1019
Rp1020
(dp1021
g8
S'word: lake, index: 13'
p1022
sbatp1023
Rp1024
(dp1025
g8
Vprep
p1026
sbatp1027
Rp1028
(dp1029
g8
S'word: water, index: 10'
p1030
sbatp1031
Rp1032
(dp1033
g8
Vappos
p1034
sbatp1035
Rp1036
(dp1037
g8
S'word: the, index: 8'
p1038
sbatp1039
Rp1040
(dp1041
g8
Vprep
p1042
sbatp1043
Rp1044
(dp1045
g8
S'word: water, index: 6'
p1046
sbatp1047
Rp1048
(dp1049
g8
Vnsubj
p1050
sbatp1051
Rp1052
(dp1053
g8
S"word: 's, index: 5"
p1054
sbatp1055
Rp1056
(dp1057
g8
S'id: 13'
p1058
sbatp1059
Rp1060
(dp1061
g8
S'sentences'
p1062
sb.