ccopy_reg
_reconstructor
p0
(cnltk.tree
Tree
p1
c__builtin__
list
p2
(lp3
g0
(g1
g2
(lp4
g0
(g1
g2
(lp5
g0
(g1
g2
(lp6
g0
(g1
g2
(lp7
g0
(g1
g2
(lp8
(lp9
S'word: wow, index: 2'
p10
aatp11
Rp12
(dp13
S'_label'
p14
Vdep
p15
sbatp16
Rp17
(dp18
g14
S'word: Oh, index: 1'
p19
sbatp20
Rp21
(dp22
g14
Vdiscourse
p23
sbag0
(g1
g2
(lp24
(lp25
S'word: this, index: 4'
p26
aatp27
Rp28
(dp29
g14
Vnsubj
p30
sbag0
(g1
g2
(lp31
g0
(g1
g2
(lp32
g0
(g1
g2
(lp33
(lp34
S'word: a, index: 7'
p35
aatp36
Rp37
(dp38
g14
Vdet
p39
sbatp40
Rp41
(dp42
g14
S'word: picnic, index: 8'
p43
sbatp44
Rp45
(dp46
g14
Vprep
p47
sbatp48
Rp49
(dp50
g14
S'word: is, index: 5'
p51
sbatp52
Rp53
(dp54
g14
S'id: 0'
p55
sbag0
(g1
g2
(lp56
g0
(g1
g2
(lp57
g0
(g1
g2
(lp58
(lp59
S'word: home, index: 4'
p60
aatp61
Rp62
(dp63
g14
Vprep
p64
sbag0
(g1
g2
(lp65
(lp66
S'word: they, index: 2'
p67
aatp68
Rp69
(dp70
g14
Vnsubj
p71
sbatp72
Rp73
(dp74
g14
S'word: are, index: 1'
p75
sbatp76
Rp77
(dp78
g14
S'id: 1'
p79
sbatp80
Rp81
(dp82
g14
S'sentences'
p83
sb.