ccopy_reg
_reconstructor
p0
(cnltk.tree
Tree
p1
c__builtin__
list
p2
(lp3
g0
(g1
g2
(lp4
g0
(g1
g2
(lp5
g0
(g1
g2
(lp6
(lp7
S'word: I, index: 1'
p8
aatp9
Rp10
(dp11
S'_label'
p12
Vnsubj
p13
sbag0
(g1
g2
(lp14
(lp15
S"word: 've, index: 2"
p16
aatp17
Rp18
(dp19
g12
Vaux
p20
sbag0
(g1
g2
(lp21
g0
(g1
g2
(lp22
g0
(g1
g2
(lp23
(lp24
S'word: this, index: 4'
p25
aatp26
Rp27
(dp28
g12
Vdet
p29
sbatp30
Rp31
(dp32
g12
S'word: one, index: 5'
p33
sbatp34
Rp35
(dp36
g12
Vdobj
p37
sbatp38
Rp39
(dp40
g12
S'word: seen, index: 3'
p41
sbatp42
Rp43
(dp44
g12
S'id: 0'
p45
sbag0
(g1
g2
(lp46
g0
(g1
g2
(lp47
g0
(g1
g2
(lp48
(lp49
S'word: two, index: 4'
p50
aatp51
Rp52
(dp53
g12
Vamod
p54
sbag0
(g1
g2
(lp55
g0
(g1
g2
(lp56
g0
(g1
g2
(lp57
(lp58
S'word: four, index: 8'
p59
aatp60
Rp61
(dp62
g12
Vamod
p63
sbag0
(g1
g2
(lp64
(lp65
S'word: five, index: 10'
p66
aatp67
Rp68
(dp69
g12
Vamod
p70
sbatp71
Rp72
(dp73
g12
S'word: three, index: 6'
p74
sbatp75
Rp76
(dp77
g12
Vappos
p78
sbag0
(g1
g2
(lp79
(lp80
S'word: Probably, index: 1'
p81
aatp82
Rp83
(dp84
g12
Vdep
p85
sbatp86
Rp87
(dp88
g12
S'word: one, index: 2'
p89
sbatp90
Rp91
(dp92
g12
S'id: 1'
p93
sbag0
(g1
g2
(lp94
tp95
Rp96
(dp97
g12
S'id: 2'
p98
sbatp99
Rp100
(dp101
g12
S'sentences'
p102
sb.