ccopy_reg
_reconstructor
p0
(cnltk.tree
Tree
p1
c__builtin__
list
p2
(lp3
g0
(g1
g2
(lp4
g0
(g1
g2
(lp5
g0
(g1
g2
(lp6
g0
(g1
g2
(lp7
Vthe
p8
atp9
Rp10
(dp11
S'_label'
p12
VDT
p13
sbag0
(g1
g2
(lp14
g0
(g1
g2
(lp15
Vbaby
p16
atp17
Rp18
(dp19
g12
VNN
p20
sbag0
(g1
g2
(lp21
V's
p22
atp23
Rp24
(dp25
g12
VPOS
p26
sbatp27
Rp28
(dp29
g12
VNP
p30
sbatp31
Rp32
(dp33
g12
VNP
p34
sbag0
(g1
g2
(lp35
g0
(g1
g2
(lp36
Vwatching
p37
atp38
Rp39
(dp40
g12
VVBG
p41
sbag0
(g1
g2
(lp42
g0
(g1
g2
(lp43
Vthe
p44
atp45
Rp46
(dp47
g12
VDT
p48
sbag0
(g1
g2
(lp49
Vclowns
p50
atp51
Rp52
(dp53
g12
VNNS
p54
sbatp55
Rp56
(dp57
g12
VNP
p58
sbatp59
Rp60
(dp61
g12
VVP
p62
sbag0
(g1
g2
(lp63
V.
p64
atp65
Rp66
(dp67
g12
V.
p68
sbatp69
Rp70
(dp71
g12
VNP
p72
sbatp73
Rp74
(dp75
g12
S'id: 0'
p76
sbag0
(g1
g2
(lp77
g0
(g1
g2
(lp78
g0
(g1
g2
(lp79
g0
(g1
g2
(lp80
g0
(g1
g2
(lp81
VThe
p82
atp83
Rp84
(dp85
g12
VDT
p86
sbag0
(g1
g2
(lp87
Vman
p88
atp89
Rp90
(dp91
g12
VNN
p92
sbatp93
Rp94
(dp95
g12
VNP
p96
sbag0
(g1
g2
(lp97
g0
(g1
g2
(lp98
Vis
p99
atp100
Rp101
(dp102
g12
VVBZ
p103
sbag0
(g1
g2
(lp104
g0
(g1
g2
(lp105
Vtaming
p106
atp107
Rp108
(dp109
g12
VVBG
p110
sbag0
(g1
g2
(lp111
g0
(g1
g2
(lp112
Vthe
p113
atp114
Rp115
(dp116
g12
VDT
p117
sbag0
(g1
g2
(lp118
Vlion
p119
atp120
Rp121
(dp122
g12
VNN
p123
sbatp124
Rp125
(dp126
g12
VNP
p127
sbatp128
Rp129
(dp130
g12
VVP
p131
sbatp132
Rp133
(dp134
g12
VVP
p135
sbatp136
Rp137
(dp138
g12
VS
p139
sbag0
(g1
g2
(lp140
V,
p141
atp142
Rp143
(dp144
g12
V,
p145
sbag0
(g1
g2
(lp146
g0
(g1
g2
(lp147
Vis
p148
atp149
Rp150
(dp151
g12
VVBZ
p152
sbag0
(g1
g2
(lp153
g0
(g1
g2
(lp154
Vit
p155
atp156
Rp157
(dp158
g12
VPRP
p159
sbatp160
Rp161
(dp162
g12
VNP
p163
sbatp164
Rp165
(dp166
g12
VVP
p167
sbag0
(g1
g2
(lp168
g0
(g1
g2
(lp169
g0
(g1
g2
(lp170
Va
p171
atp172
Rp173
(dp174
g12
VDT
p175
sbag0
(g1
g2
(lp176
Vlion
p177
atp178
Rp179
(dp180
g12
VNN
p181
sbatp182
Rp183
(dp184
g12
VNP
p185
sbag0
(g1
g2
(lp186
Vor
p187
atp188
Rp189
(dp190
g12
VCC
p191
sbag0
(g1
g2
(lp192
g0
(g1
g2
(lp193
Va
p194
atp195
Rp196
(dp197
g12
VDT
p198
sbag0
(g1
g2
(lp199
Vtiger
p200
atp201
Rp202
(dp203
g12
VNN
p204
sbatp205
Rp206
(dp207
g12
VNP
p208
sbatp209
Rp210
(dp211
g12
VNP
p212
sbatp213
Rp214
(dp215
g12
VSINV
p216
sbatp217
Rp218
(dp219
g12
S'id: 1'
p220
sbatp221
Rp222
(dp223
g12
S'sentences'
p224
sb.