ccopy_reg
_reconstructor
p0
(cnltk.tree
Tree
p1
c__builtin__
list
p2
(lp3
g0
(g1
g2
(lp4
g0
(g1
g2
(lp5
g0
(g1
g2
(lp6
g0
(g1
g2
(lp7
VThe
p8
atp9
Rp10
(dp11
S'_label'
p12
VDT
p13
sbatp14
Rp15
(dp16
g12
VNP
p17
sbag0
(g1
g2
(lp18
V,
p19
atp20
Rp21
(dp22
g12
V,
p23
sbag0
(g1
g2
(lp24
g0
(g1
g2
(lp25
Vthe
p26
atp27
Rp28
(dp29
g12
VDT
p30
sbatp31
Rp32
(dp33
g12
VX
p34
sbag0
(g1
g2
(lp35
g0
(g1
g2
(lp36
Vthis
p37
atp38
Rp39
(dp40
g12
VDT
p41
sbatp42
Rp43
(dp44
g12
VNP
p45
sbag0
(g1
g2
(lp46
g0
(g1
g2
(lp47
Vis
p48
atp49
Rp50
(dp51
g12
VVBZ
p52
sbag0
(g1
g2
(lp53
g0
(g1
g2
(lp54
g0
(g1
g2
(lp55
Vwhere
p56
atp57
Rp58
(dp59
g12
VWRB
p60
sbatp61
Rp62
(dp63
g12
VWHADVP
p64
sbag0
(g1
g2
(lp65
g0
(g1
g2
(lp66
g0
(g1
g2
(lp67
g0
(g1
g2
(lp68
g0
(g1
g2
(lp69
Vthe
p70
atp71
Rp72
(dp73
g12
VDT
p74
sbag0
(g1
g2
(lp75
Vcircus
p76
atp77
Rp78
(dp79
g12
VNN
p80
sbatp81
Rp82
(dp83
g12
VNP
p84
sbag0
(g1
g2
(lp85
V,
p86
atp87
Rp88
(dp89
g12
V,
p90
sbag0
(g1
g2
(lp91
Vand
p92
atp93
Rp94
(dp95
g12
VCC
p96
sbag0
(g1
g2
(lp97
g0
(g1
g2
(lp98
VI
p99
atp100
Rp101
(dp102
g12
VPRP
p103
sbatp104
Rp105
(dp106
g12
VNP
p107
sbatp108
Rp109
(dp110
g12
VNP
p111
sbag0
(g1
g2
(lp112
g0
(g1
g2
(lp113
Vsee
p114
atp115
Rp116
(dp117
g12
VVBP
p118
sbag0
(g1
g2
(lp119
g0
(g1
g2
(lp120
Va
p121
atp122
Rp123
(dp124
g12
VDT
p125
sbag0
(g1
g2
(lp126
Vlion
p127
atp128
Rp129
(dp130
g12
VNN
p131
sbatp132
Rp133
(dp134
g12
VNP
p135
sbatp136
Rp137
(dp138
g12
VVP
p139
sbatp140
Rp141
(dp142
g12
VS
p143
sbag0
(g1
g2
(lp144
V,
p145
atp146
Rp147
(dp148
g12
V,
p149
sbag0
(g1
g2
(lp150
Vand
p151
atp152
Rp153
(dp154
g12
VCC
p155
sbag0
(g1
g2
(lp156
g0
(g1
g2
(lp157
g0
(g1
g2
(lp158
Va
p159
atp160
Rp161
(dp162
g12
VDT
p163
sbag0
(g1
g2
(lp164
Vlion
p165
atp166
Rp167
(dp168
g12
VNN
p169
sbatp170
Rp171
(dp172
g12
VNP
p173
sbag0
(g1
g2
(lp174
g0
(g1
g2
(lp175
Vtamer
p176
atp177
Rp178
(dp179
g12
VJJR
p180
sbatp181
Rp182
(dp183
g12
VADJP
p184
sbatp185
Rp186
(dp187
g12
VS
p188
sbatp189
Rp190
(dp191
g12
VS
p192
sbatp193
Rp194
(dp195
g12
VSBAR
p196
sbatp197
Rp198
(dp199
g12
VVP
p200
sbag0
(g1
g2
(lp201
V.
p202
atp203
Rp204
(dp205
g12
V.
p206
sbatp207
Rp208
(dp209
g12
VS
p210
sbatp211
Rp212
(dp213
g12
S'id: 0'
p214
sbag0
(g1
g2
(lp215
g0
(g1
g2
(lp216
g0
(g1
g2
(lp217
g0
(g1
g2
(lp218
Vthe
p219
atp220
Rp221
(dp222
g12
VDT
p223
sbag0
(g1
g2
(lp224
Vlion
p225
atp226
Rp227
(dp228
g12
VNN
p229
sbatp230
Rp231
(dp232
g12
VNP
p233
sbag0
(g1
g2
(lp234
g0
(g1
g2
(lp235
Vis
p236
atp237
Rp238
(dp239
g12
VVBZ
p240
sbag0
(g1
g2
(lp241
g0
(g1
g2
(lp242
Vstanding
p243
atp244
Rp245
(dp246
g12
VVBG
p247
sbag0
(g1
g2
(lp248
g0
(g1
g2
(lp249
Von
p250
atp251
Rp252
(dp253
g12
VIN
p254
sbag0
(g1
g2
(lp255
g0
(g1
g2
(lp256
Vhis
p257
atp258
Rp259
(dp260
g12
VPRP$
p261
sbatp262
Rp263
(dp264
g12
VNP
p265
sbatp266
Rp267
(dp268
g12
VPP
p269
sbag0
(g1
g2
(lp270
V,
p271
atp272
Rp273
(dp274
g12
V,
p275
sbag0
(g1
g2
(lp276
g0
(g1
g2
(lp277
Von
p278
atp279
Rp280
(dp281
g12
VIN
p282
sbag0
(g1
g2
(lp283
g0
(g1
g2
(lp284
Vhis
p285
atp286
Rp287
(dp288
g12
VPRP$
p289
sbag0
(g1
g2
(lp290
Vback
p291
atp292
Rp293
(dp294
g12
VNN
p295
sbatp296
Rp297
(dp298
g12
VNP
p299
sbatp300
Rp301
(dp302
g12
VPP
p303
sbatp304
Rp305
(dp306
g12
VVP
p307
sbatp308
Rp309
(dp310
g12
VVP
p311
sbag0
(g1
g2
(lp312
V.
p313
atp314
Rp315
(dp316
g12
V.
p317
sbatp318
Rp319
(dp320
g12
VS
p321
sbatp322
Rp323
(dp324
g12
S'id: 1'
p325
sbag0
(g1
g2
(lp326
g0
(g1
g2
(lp327
g0
(g1
g2
(lp328
g0
(g1
g2
(lp329
Vand
p330
atp331
Rp332
(dp333
g12
VCC
p334
sbag0
(g1
g2
(lp335
g0
(g1
g2
(lp336
g0
(g1
g2
(lp337
Vin
p338
atp339
Rp340
(dp341
g12
VIN
p342
sbag0
(g1
g2
(lp343
g0
(g1
g2
(lp344
g0
(g1
g2
(lp345
Vfront
p346
atp347
Rp348
(dp349
g12
VNN
p350
sbatp351
Rp352
(dp353
g12
VNP
p354
sbag0
(g1
g2
(lp355
g0
(g1
g2
(lp356
Vof
p357
atp358
Rp359
(dp360
g12
VIN
p361
sbag0
(g1
g2
(lp362
g0
(g1
g2
(lp363
g0
(g1
g2
(lp364
Vthe
p365
atp366
Rp367
(dp368
g12
VDT
p369
sbatp370
Rp371
(dp372
g12
VNP
p373
sbag0
(g1
g2
(lp374
V,
p375
atp376
Rp377
(dp378
g12
V,
p379
sbag0
(g1
g2
(lp380
g0
(g1
g2
(lp381
g0
(g1
g2
(lp382
Vthe
p383
atp384
Rp385
(dp386
g12
VDT
p387
sbatp388
Rp389
(dp390
g12
VNP
p391
sbag0
(g1
g2
(lp392
V,
p393
atp394
Rp395
(dp396
g12
V,
p397
sbag0
(g1
g2
(lp398
g0
(g1
g2
(lp399
Vthe
p400
atp401
Rp402
(dp403
g12
VDT
p404
sbag0
(g1
g2
(lp405
Vroom
p406
atp407
Rp408
(dp409
g12
VNN
p410
sbatp411
Rp412
(dp413
g12
VNP
p414
sbatp415
Rp416
(dp417
g12
VNP
p418
sbatp419
Rp420
(dp421
g12
VNP
p422
sbatp423
Rp424
(dp425
g12
VPP
p426
sbatp427
Rp428
(dp429
g12
VNP
p430
sbatp431
Rp432
(dp433
g12
VPP
p434
sbag0
(g1
g2
(lp435
V,
p436
atp437
Rp438
(dp439
g12
V,
p440
sbag0
(g1
g2
(lp441
g0
(g1
g2
(lp442
VI
p443
atp444
Rp445
(dp446
g12
VPRP
p447
sbatp448
Rp449
(dp450
g12
VNP
p451
sbag0
(g1
g2
(lp452
g0
(g1
g2
(lp453
Vsee
p454
atp455
Rp456
(dp457
g12
VVBP
p458
sbag0
(g1
g2
(lp459
g0
(g1
g2
(lp460
g0
(g1
g2
(lp461
Va
p462
atp463
Rp464
(dp465
g12
VDT
p466
sbag0
(g1
g2
(lp467
Vpicture
p468
atp469
Rp470
(dp471
g12
VNN
p472
sbatp473
Rp474
(dp475
g12
VNP
p476
sbag0
(g1
g2
(lp477
g0
(g1
g2
(lp478
Vof
p479
atp480
Rp481
(dp482
g12
VIN
p483
sbag0
(g1
g2
(lp484
g0
(g1
g2
(lp485
Va
p486
atp487
Rp488
(dp489
g12
VDT
p490
sbag0
(g1
g2
(lp491
Vman
p492
atp493
Rp494
(dp495
g12
VNN
p496
sbatp497
Rp498
(dp499
g12
VNP
p500
sbatp501
Rp502
(dp503
g12
VPP
p504
sbatp505
Rp506
(dp507
g12
VNP
p508
sbatp509
Rp510
(dp511
g12
VVP
p512
sbatp513
Rp514
(dp515
g12
VS
p516
sbatp517
Rp518
(dp519
g12
VS
p520
sbag0
(g1
g2
(lp521
V,
p522
atp523
Rp524
(dp525
g12
V,
p526
sbag0
(g1
g2
(lp527
g0
(g1
g2
(lp528
Vhe
p529
atp530
Rp531
(dp532
g12
VPRP
p533
sbatp534
Rp535
(dp536
g12
VNP
p537
sbag0
(g1
g2
(lp538
g0
(g1
g2
(lp539
V's
p540
atp541
Rp542
(dp543
g12
VVBZ
p544
sbag0
(g1
g2
(lp545
g0
(g1
g2
(lp546
Vthere
p547
atp548
Rp549
(dp550
g12
VEX
p551
sbatp552
Rp553
(dp554
g12
VNP
p555
sbag0
(g1
g2
(lp556
g0
(g1
g2
(lp557
Vwith
p558
atp559
Rp560
(dp561
g12
VIN
p562
sbag0
(g1
g2
(lp563
g0
(g1
g2
(lp564
Vhis
p565
atp566
Rp567
(dp568
g12
VPRP$
p569
sbag0
(g1
g2
(lp570
Vlittle
p571
atp572
Rp573
(dp574
g12
VJJ
p575
sbag0
(g1
g2
(lp576
Vgirl
p577
atp578
Rp579
(dp580
g12
VNN
p581
sbatp582
Rp583
(dp584
g12
VNP
p585
sbatp586
Rp587
(dp588
g12
VPP
p589
sbatp590
Rp591
(dp592
g12
VVP
p593
sbag0
(g1
g2
(lp594
V.
p595
atp596
Rp597
(dp598
g12
V.
p599
sbatp600
Rp601
(dp602
g12
VS
p603
sbatp604
Rp605
(dp606
g12
S'id: 2'
p607
sbag0
(g1
g2
(lp608
g0
(g1
g2
(lp609
g0
(g1
g2
(lp610
Vand
p611
atp612
Rp613
(dp614
g12
VCC
p615
sbag0
(g1
g2
(lp616
g0
(g1
g2
(lp617
V,
p618
atp619
Rp620
(dp621
g12
V,
p622
sbag0
(g1
g2
(lp623
g0
(g1
g2
(lp624
g0
(g1
g2
(lp625
VI
p626
atp627
Rp628
(dp629
g12
VPRP
p630
sbatp631
Rp632
(dp633
g12
VNP
p634
sbag0
(g1
g2
(lp635
g0
(g1
g2
(lp636
Vsee
p637
atp638
Rp639
(dp640
g12
VVBP
p641
sbag0
(g1
g2
(lp642
g0
(g1
g2
(lp643
Va
p644
atp645
Rp646
(dp647
g12
VDT
p648
sbag0
(g1
g2
(lp649
Vclown
p650
atp651
Rp652
(dp653
g12
VNN
p654
sbatp655
Rp656
(dp657
g12
VNP
p658
sbatp659
Rp660
(dp661
g12
VVP
p662
sbatp663
Rp664
(dp665
g12
VS
p666
sbag0
(g1
g2
(lp667
V,
p668
atp669
Rp670
(dp671
g12
V,
p672
sbatp673
Rp674
(dp675
g12
VPRN
p676
sbag0
(g1
g2
(lp677
g0
(g1
g2
(lp678
Vthe
p679
atp680
Rp681
(dp682
g12
VDT
p683
sbag0
(g1
g2
(lp684
Vclown
p685
atp686
Rp687
(dp688
g12
VNN
p689
sbatp690
Rp691
(dp692
g12
VNP
p693
sbag0
(g1
g2
(lp694
g0
(g1
g2
(lp695
Vhas
p696
atp697
Rp698
(dp699
g12
VVBZ
p700
sbag0
(g1
g2
(lp701
g0
(g1
g2
(lp702
g0
(g1
g2
(lp703
Va
p704
atp705
Rp706
(dp707
g12
VDT
p708
sbag0
(g1
g2
(lp709
Vhat
p710
atp711
Rp712
(dp713
g12
VNN
p714
sbatp715
Rp716
(dp717
g12
VNP
p718
sbag0
(g1
g2
(lp719
V,
p720
atp721
Rp722
(dp723
g12
V,
p724
sbag0
(g1
g2
(lp725
g0
(g1
g2
(lp726
g0
(g1
g2
(lp727
Va
p728
atp729
Rp730
(dp731
g12
VDT
p732
sbag0
(g1
g2
(lp733
g0
(g1
g2
(lp734
Vrose
p735
atp736
Rp737
(dp738
g12
VNN
p739
sbatp740
Rp741
(dp742
g12
VNX
p743
sbatp744
Rp745
(dp746
g12
VNP
p747
sbag0
(g1
g2
(lp748
g0
(g1
g2
(lp749
Von
p750
atp751
Rp752
(dp753
g12
VIN
p754
sbag0
(g1
g2
(lp755
g0
(g1
g2
(lp756
Vhis
p757
atp758
Rp759
(dp760
g12
VPRP$
p761
sbag0
(g1
g2
(lp762
Vhat
p763
atp764
Rp765
(dp766
g12
VNN
p767
sbatp768
Rp769
(dp770
g12
VNP
p771
sbatp772
Rp773
(dp774
g12
VPP
p775
sbatp776
Rp777
(dp778
g12
VNP
p779
sbatp780
Rp781
(dp782
g12
VNP
p783
sbatp784
Rp785
(dp786
g12
VVP
p787
sbag0
(g1
g2
(lp788
V,
p789
atp790
Rp791
(dp792
g12
V,
p793
sbag0
(g1
g2
(lp794
Vand
p795
atp796
Rp797
(dp798
g12
VCC
p799
sbag0
(g1
g2
(lp800
g0
(g1
g2
(lp801
g0
(g1
g2
(lp802
Vhe
p803
atp804
Rp805
(dp806
g12
VPRP
p807
sbatp808
Rp809
(dp810
g12
VNP
p811
sbag0
(g1
g2
(lp812
g0
(g1
g2
(lp813
Vapparently
p814
atp815
Rp816
(dp817
g12
VRB
p818
sbatp819
Rp820
(dp821
g12
VADVP
p822
sbag0
(g1
g2
(lp823
g0
(g1
g2
(lp824
Vis
p825
atp826
Rp827
(dp828
g12
VVBZ
p829
sbag0
(g1
g2
(lp830
g0
(g1
g2
(lp831
Vthrowing
p832
atp833
Rp834
(dp835
g12
VVBG
p836
sbag0
(g1
g2
(lp837
g0
(g1
g2
(lp838
g0
(g1
g2
(lp839
Vballoons
p840
atp841
Rp842
(dp843
g12
VNNS
p844
sbatp845
Rp846
(dp847
g12
VNP
p848
sbag0
(g1
g2
(lp849
V,
p850
atp851
Rp852
(dp853
g12
V,
p854
sbag0
(g1
g2
(lp855
g0
(g1
g2
(lp856
g0
(g1
g2
(lp857
Vballoons
p858
atp859
Rp860
(dp861
g12
VNNS
p862
sbatp863
Rp864
(dp865
g12
VNP
p866
sbag0
(g1
g2
(lp867
V,
p868
atp869
Rp870
(dp871
g12
V,
p872
sbag0
(g1
g2
(lp873
g0
(g1
g2
(lp874
Vnot
p875
atp876
Rp877
(dp878
g12
VRB
p879
sbag0
(g1
g2
(lp880
Vballoons
p881
atp882
Rp883
(dp884
g12
VNNS
p885
sbatp886
Rp887
(dp888
g12
VNP
p889
sbatp890
Rp891
(dp892
g12
VNP
p893
sbatp894
Rp895
(dp896
g12
VNP
p897
sbatp898
Rp899
(dp900
g12
VVP
p901
sbatp902
Rp903
(dp904
g12
VVP
p905
sbatp906
Rp907
(dp908
g12
VS
p909
sbag0
(g1
g2
(lp910
V.
p911
atp912
Rp913
(dp914
g12
V.
p915
sbatp916
Rp917
(dp918
g12
VS
p919
sbatp920
Rp921
(dp922
g12
S'id: 3'
p923
sbag0
(g1
g2
(lp924
g0
(g1
g2
(lp925
g0
(g1
g2
(lp926
g0
(g1
g2
(lp927
g0
(g1
g2
(lp928
Vhe
p929
atp930
Rp931
(dp932
g12
VPRP
p933
sbatp934
Rp935
(dp936
g12
VNP
p937
sbag0
(g1
g2
(lp938
g0
(g1
g2
(lp939
V's
p940
atp941
Rp942
(dp943
g12
VVBZ
p944
sbag0
(g1
g2
(lp945
g0
(g1
g2
(lp946
Vshowing
p947
atp948
Rp949
(dp950
g12
VVBG
p951
sbatp952
Rp953
(dp954
g12
VVP
p955
sbatp956
Rp957
(dp958
g12
VVP
p959
sbatp960
Rp961
(dp962
g12
VS
p963
sbag0
(g1
g2
(lp964
V,
p965
atp966
Rp967
(dp968
g12
V,
p969
sbag0
(g1
g2
(lp970
g0
(g1
g2
(lp971
g0
(g1
g2
(lp972
VI
p973
atp974
Rp975
(dp976
g12
VPRP
p977
sbatp978
Rp979
(dp980
g12
VNP
p981
sbag0
(g1
g2
(lp982
g0
(g1
g2
(lp983
Vca
p984
atp985
Rp986
(dp987
g12
VMD
p988
sbag0
(g1
g2
(lp989
Vn't
p990
atp991
Rp992
(dp993
g12
VRB
p994
sbag0
(g1
g2
(lp995
g0
(g1
g2
(lp996
Vthink
p997
atp998
Rp999
(dp1000
g12
VVB
p1001
sbag0
(g1
g2
(lp1002
g0
(g1
g2
(lp1003
Vof
p1004
atp1005
Rp1006
(dp1007
g12
VIN
p1008
sbag0
(g1
g2
(lp1009
g0
(g1
g2
(lp1010
Vthe
p1011
atp1012
Rp1013
(dp1014
g12
VDT
p1015
sbag0
(g1
g2
(lp1016
Vword
p1017
atp1018
Rp1019
(dp1020
g12
VNN
p1021
sbatp1022
Rp1023
(dp1024
g12
VNP
p1025
sbatp1026
Rp1027
(dp1028
g12
VPP
p1029
sbatp1030
Rp1031
(dp1032
g12
VVP
p1033
sbatp1034
Rp1035
(dp1036
g12
VVP
p1037
sbatp1038
Rp1039
(dp1040
g12
VS
p1041
sbag0
(g1
g2
(lp1042
V,
p1043
atp1044
Rp1045
(dp1046
g12
V,
p1047
sbag0
(g1
g2
(lp1048
g0
(g1
g2
(lp1049
g0
(g1
g2
(lp1050
Vi
p1051
atp1052
Rp1053
(dp1054
g12
VFW
p1055
sbatp1056
Rp1057
(dp1058
g12
VNP
p1059
sbag0
(g1
g2
(lp1060
g0
(g1
g2
(lp1061
Vca
p1062
atp1063
Rp1064
(dp1065
g12
VMD
p1066
sbag0
(g1
g2
(lp1067
Vn't
p1068
atp1069
Rp1070
(dp1071
g12
VRB
p1072
sbag0
(g1
g2
(lp1073
g0
(g1
g2
(lp1074
Vthink
p1075
atp1076
Rp1077
(dp1078
g12
VVB
p1079
sbag0
(g1
g2
(lp1080
g0
(g1
g2
(lp1081
g0
(g1
g2
(lp1082
g0
(g1
g2
(lp1083
Vhe
p1084
atp1085
Rp1086
(dp1087
g12
VPRP
p1088
sbatp1089
Rp1090
(dp1091
g12
VNP
p1092
sbag0
(g1
g2
(lp1093
g0
(g1
g2
(lp1094
V's
p1095
atp1096
Rp1097
(dp1098
g12
VVBZ
p1099
sbag0
(g1
g2
(lp1100
g0
(g1
g2
(lp1101
Vshowing
p1102
atp1103
Rp1104
(dp1105
g12
VVBG
p1106
sbatp1107
Rp1108
(dp1109
g12
VVP
p1110
sbatp1111
Rp1112
(dp1113
g12
VVP
p1114
sbatp1115
Rp1116
(dp1117
g12
VS
p1118
sbatp1119
Rp1120
(dp1121
g12
VSBAR
p1122
sbatp1123
Rp1124
(dp1125
g12
VVP
p1126
sbatp1127
Rp1128
(dp1129
g12
VVP
p1130
sbatp1131
Rp1132
(dp1133
g12
VS
p1134
sbag0
(g1
g2
(lp1135
V.
p1136
atp1137
Rp1138
(dp1139
g12
V.
p1140
sbatp1141
Rp1142
(dp1143
g12
VS
p1144
sbatp1145
Rp1146
(dp1147
g12
S'id: 4'
p1148
sbag0
(g1
g2
(lp1149
g0
(g1
g2
(lp1150
g0
(g1
g2
(lp1151
g0
(g1
g2
(lp1152
Va
p1153
atp1154
Rp1155
(dp1156
g12
VDT
p1157
sbag0
(g1
g2
(lp1158
Vman
p1159
atp1160
Rp1161
(dp1162
g12
VNN
p1163
sbatp1164
Rp1165
(dp1166
g12
VNP
p1167
sbag0
(g1
g2
(lp1168
g0
(g1
g2
(lp1169
Vwith
p1170
atp1171
Rp1172
(dp1173
g12
VIN
p1174
sbag0
(g1
g2
(lp1175
g0
(g1
g2
(lp1176
Vanother
p1177
atp1178
Rp1179
(dp1180
g12
VDT
p1181
sbag0
(g1
g2
(lp1182
Vlittle
p1183
atp1184
Rp1185
(dp1186
g12
VJJ
p1187
sbag0
(g1
g2
(lp1188
Vgirl
p1189
atp1190
Rp1191
(dp1192
g12
VNN
p1193
sbag0
(g1
g2
(lp1194
Vand
p1195
atp1196
Rp1197
(dp1198
g12
VCC
p1199
sbag0
(g1
g2
(lp1200
Vboy
p1201
atp1202
Rp1203
(dp1204
g12
VNN
p1205
sbatp1206
Rp1207
(dp1208
g12
VNP
p1209
sbatp1210
Rp1211
(dp1212
g12
VPP
p1213
sbag0
(g1
g2
(lp1214
V.
p1215
atp1216
Rp1217
(dp1218
g12
V.
p1219
sbatp1220
Rp1221
(dp1222
g12
VNP
p1223
sbatp1224
Rp1225
(dp1226
g12
S'id: 5'
p1227
sbag0
(g1
g2
(lp1228
g0
(g1
g2
(lp1229
g0
(g1
g2
(lp1230
Vand
p1231
atp1232
Rp1233
(dp1234
g12
VCC
p1235
sbag0
(g1
g2
(lp1236
g0
(g1
g2
(lp1237
Vthen
p1238
atp1239
Rp1240
(dp1241
g12
VRB
p1242
sbatp1243
Rp1244
(dp1245
g12
VADVP
p1246
sbag0
(g1
g2
(lp1247
g0
(g1
g2
(lp1248
VI
p1249
atp1250
Rp1251
(dp1252
g12
VPRP
p1253
sbatp1254
Rp1255
(dp1256
g12
VNP
p1257
sbag0
(g1
g2
(lp1258
g0
(g1
g2
(lp1259
Vsee
p1260
atp1261
Rp1262
(dp1263
g12
VVBP
p1264
sbag0
(g1
g2
(lp1265
g0
(g1
g2
(lp1266
g0
(g1
g2
(lp1267
g0
(g1
g2
(lp1268
Va
p1269
atp1270
Rp1271
(dp1272
g12
VDT
p1273
sbag0
(g1
g2
(lp1274
Vhorse
p1275
atp1276
Rp1277
(dp1278
g12
VNN
p1279
sbatp1280
Rp1281
(dp1282
g12
VNP
p1283
sbag0
(g1
g2
(lp1284
V,
p1285
atp1286
Rp1287
(dp1288
g12
V,
p1289
sbag0
(g1
g2
(lp1290
Vand
p1291
atp1292
Rp1293
(dp1294
g12
VCC
p1295
sbag0
(g1
g2
(lp1296
g0
(g1
g2
(lp1297
Va
p1298
atp1299
Rp1300
(dp1301
g12
VDT
p1302
sbag0
(g1
g2
(lp1303
Vring
p1304
atp1305
Rp1306
(dp1307
g12
VNN
p1308
sbatp1309
Rp1310
(dp1311
g12
VNP
p1312
sbatp1313
Rp1314
(dp1315
g12
VNP
p1316
sbag0
(g1
g2
(lp1317
V,
p1318
atp1319
Rp1320
(dp1321
g12
V,
p1322
sbag0
(g1
g2
(lp1323
Vand
p1324
atp1325
Rp1326
(dp1327
g12
VCC
p1328
sbag0
(g1
g2
(lp1329
g0
(g1
g2
(lp1330
g0
(g1
g2
(lp1331
Vthe
p1332
atp1333
Rp1334
(dp1335
g12
VDT
p1336
sbag0
(g1
g2
(lp1337
Vlady
p1338
atp1339
Rp1340
(dp1341
g12
VNN
p1342
sbag0
(g1
g2
(lp1343
V's
p1344
atp1345
Rp1346
(dp1347
g12
VPOS
p1348
sbatp1349
Rp1350
(dp1351
g12
VNP
p1352
sbag0
(g1
g2
(lp1353
g0
(g1
g2
(lp1354
Von
p1355
atp1356
Rp1357
(dp1358
g12
VIN
p1359
sbag0
(g1
g2
(lp1360
g0
(g1
g2
(lp1361
g0
(g1
g2
(lp1362
Vtop
p1363
atp1364
Rp1365
(dp1366
g12
VNN
p1367
sbatp1368
Rp1369
(dp1370
g12
VNP
p1371
sbag0
(g1
g2
(lp1372
g0
(g1
g2
(lp1373
Vof
p1374
atp1375
Rp1376
(dp1377
g12
VIN
p1378
sbag0
(g1
g2
(lp1379
g0
(g1
g2
(lp1380
Vthe
p1381
atp1382
Rp1383
(dp1384
g12
VDT
p1385
sbag0
(g1
g2
(lp1386
Vhorse
p1387
atp1388
Rp1389
(dp1390
g12
VNN
p1391
sbatp1392
Rp1393
(dp1394
g12
VNP
p1395
sbatp1396
Rp1397
(dp1398
g12
VPP
p1399
sbatp1400
Rp1401
(dp1402
g12
VNP
p1403
sbatp1404
Rp1405
(dp1406
g12
VPP
p1407
sbatp1408
Rp1409
(dp1410
g12
VNP
p1411
sbatp1412
Rp1413
(dp1414
g12
VNP
p1415
sbatp1416
Rp1417
(dp1418
g12
VVP
p1419
sbag0
(g1
g2
(lp1420
V.
p1421
atp1422
Rp1423
(dp1424
g12
V.
p1425
sbatp1426
Rp1427
(dp1428
g12
VS
p1429
sbatp1430
Rp1431
(dp1432
g12
S'id: 6'
p1433
sbag0
(g1
g2
(lp1434
g0
(g1
g2
(lp1435
g0
(g1
g2
(lp1436
g0
(g1
g2
(lp1437
Vthey
p1438
atp1439
Rp1440
(dp1441
g12
VPRP
p1442
sbatp1443
Rp1444
(dp1445
g12
VNP
p1446
sbag0
(g1
g2
(lp1447
g0
(g1
g2
(lp1448
V're
p1449
atp1450
Rp1451
(dp1452
g12
VVBP
p1453
sbag0
(g1
g2
(lp1454
g0
(g1
g2
(lp1455
Vgoing
p1456
atp1457
Rp1458
(dp1459
g12
VVBG
p1460
sbag0
(g1
g2
(lp1461
g0
(g1
g2
(lp1462
Vin
p1463
atp1464
Rp1465
(dp1466
g12
VIN
p1467
sbag0
(g1
g2
(lp1468
g0
(g1
g2
(lp1469
g0
(g1
g2
(lp1470
Vcircles
p1471
atp1472
Rp1473
(dp1474
g12
VNNS
p1475
sbatp1476
Rp1477
(dp1478
g12
VNP
p1479
sbag0
(g1
g2
(lp1480
g0
(g1
g2
(lp1481
Vin
p1482
atp1483
Rp1484
(dp1485
g12
VIN
p1486
sbag0
(g1
g2
(lp1487
g0
(g1
g2
(lp1488
Vthe
p1489
atp1490
Rp1491
(dp1492
g12
VDT
p1493
sbag0
(g1
g2
(lp1494
Vring
p1495
atp1496
Rp1497
(dp1498
g12
VNN
p1499
sbatp1500
Rp1501
(dp1502
g12
VNP
p1503
sbatp1504
Rp1505
(dp1506
g12
VPP
p1507
sbatp1508
Rp1509
(dp1510
g12
VNP
p1511
sbatp1512
Rp1513
(dp1514
g12
VPP
p1515
sbatp1516
Rp1517
(dp1518
g12
VVP
p1519
sbatp1520
Rp1521
(dp1522
g12
VVP
p1523
sbag0
(g1
g2
(lp1524
V.
p1525
atp1526
Rp1527
(dp1528
g12
V.
p1529
sbatp1530
Rp1531
(dp1532
g12
VS
p1533
sbatp1534
Rp1535
(dp1536
g12
S'id: 7'
p1537
sbag0
(g1
g2
(lp1538
g0
(g1
g2
(lp1539
g0
(g1
g2
(lp1540
g0
(g1
g2
(lp1541
Vand
p1542
atp1543
Rp1544
(dp1545
g12
VCC
p1546
sbag0
(g1
g2
(lp1547
g0
(g1
g2
(lp1548
Vthen
p1549
atp1550
Rp1551
(dp1552
g12
VRB
p1553
sbag0
(g1
g2
(lp1554
g0
(g1
g2
(lp1555
Von
p1556
atp1557
Rp1558
(dp1559
g12
VIN
p1560
sbag0
(g1
g2
(lp1561
g0
(g1
g2
(lp1562
g0
(g1
g2
(lp1563
Vtop
p1564
atp1565
Rp1566
(dp1567
g12
VNN
p1568
sbatp1569
Rp1570
(dp1571
g12
VNP
p1572
sbag0
(g1
g2
(lp1573
g0
(g1
g2
(lp1574
Vof
p1575
atp1576
Rp1577
(dp1578
g12
VIN
p1579
sbag0
(g1
g2
(lp1580
g0
(g1
g2
(lp1581
Vthat
p1582
atp1583
Rp1584
(dp1585
g12
VIN
p1586
sbag0
(g1
g2
(lp1587
g0
(g1
g2
(lp1588
g0
(g1
g2
(lp1589
VI
p1590
atp1591
Rp1592
(dp1593
g12
VPRP
p1594
sbatp1595
Rp1596
(dp1597
g12
VNP
p1598
sbag0
(g1
g2
(lp1599
g0
(g1
g2
(lp1600
Vsee
p1601
atp1602
Rp1603
(dp1604
g12
VVBP
p1605
sbag0
(g1
g2
(lp1606
g0
(g1
g2
(lp1607
Va
p1608
atp1609
Rp1610
(dp1611
g12
VDT
p1612
sbag0
(g1
g2
(lp1613
Vman
p1614
atp1615
Rp1616
(dp1617
g12
VNN
p1618
sbatp1619
Rp1620
(dp1621
g12
VNP
p1622
sbag0
(g1
g2
(lp1623
V,
p1624
atp1625
Rp1626
(dp1627
g12
V,
p1628
sbag0
(g1
g2
(lp1629
g0
(g1
g2
(lp1630
g0
(g1
g2
(lp1631
g0
(g1
g2
(lp1632
Vsee
p1633
atp1634
Rp1635
(dp1636
g12
VVB
p1637
sbag0
(g1
g2
(lp1638
g0
(g1
g2
(lp1639
g0
(g1
g2
(lp1640
Vhim
p1641
atp1642
Rp1643
(dp1644
g12
VPRP
p1645
sbatp1646
Rp1647
(dp1648
g12
VNP
p1649
sbag0
(g1
g2
(lp1650
g0
(g1
g2
(lp1651
Vwalking
p1652
atp1653
Rp1654
(dp1655
g12
VVBG
p1656
sbatp1657
Rp1658
(dp1659
g12
VVP
p1660
sbatp1661
Rp1662
(dp1663
g12
VS
p1664
sbatp1665
Rp1666
(dp1667
g12
VVP
p1668
sbag0
(g1
g2
(lp1669
V,
p1670
atp1671
Rp1672
(dp1673
g12
V,
p1674
sbag0
(g1
g2
(lp1675
g0
(g1
g2
(lp1676
Vskate
p1677
atp1678
Rp1679
(dp1680
g12
VVB
p1681
sbag0
(g1
g2
(lp1682
g0
(g1
g2
(lp1683
g0
(g1
g2
(lp1684
Vwalking
p1685
atp1686
Rp1687
(dp1688
g12
VVBG
p1689
sbatp1690
Rp1691
(dp1692
g12
VVP
p1693
sbatp1694
Rp1695
(dp1696
g12
VS
p1697
sbatp1698
Rp1699
(dp1700
g12
VVP
p1701
sbag0
(g1
g2
(lp1702
V,
p1703
atp1704
Rp1705
(dp1706
g12
V,
p1707
sbag0
(g1
g2
(lp1708
g0
(g1
g2
(lp1709
Vskate
p1710
atp1711
Rp1712
(dp1713
g12
VVB
p1714
sbag0
(g1
g2
(lp1715
g0
(g1
g2
(lp1716
g0
(g1
g2
(lp1717
Vwalking
p1718
atp1719
Rp1720
(dp1721
g12
VVBG
p1722
sbatp1723
Rp1724
(dp1725
g12
VVP
p1726
sbatp1727
Rp1728
(dp1729
g12
VS
p1730
sbatp1731
Rp1732
(dp1733
g12
VVP
p1734
sbatp1735
Rp1736
(dp1737
g12
VVP
p1738
sbatp1739
Rp1740
(dp1741
g12
VS
p1742
sbatp1743
Rp1744
(dp1745
g12
VVP
p1746
sbatp1747
Rp1748
(dp1749
g12
VS
p1750
sbatp1751
Rp1752
(dp1753
g12
VSBAR
p1754
sbatp1755
Rp1756
(dp1757
g12
VPP
p1758
sbatp1759
Rp1760
(dp1761
g12
VNP
p1762
sbatp1763
Rp1764
(dp1765
g12
VPP
p1766
sbatp1767
Rp1768
(dp1769
g12
VADVP
p1770
sbatp1771
Rp1772
(dp1773
g12
VFRAG
p1774
sbag0
(g1
g2
(lp1775
V,
p1776
atp1777
Rp1778
(dp1779
g12
V,
p1780
sbag0
(g1
g2
(lp1781
g0
(g1
g2
(lp1782
g0
(g1
g2
(lp1783
g0
(g1
g2
(lp1784
Vsome
p1785
atp1786
Rp1787
(dp1788
g12
VDT
p1789
sbag0
(g1
g2
(lp1790
Vkind
p1791
atp1792
Rp1793
(dp1794
g12
VNN
p1795
sbatp1796
Rp1797
(dp1798
g12
VNP
p1799
sbag0
(g1
g2
(lp1800
g0
(g1
g2
(lp1801
Vof
p1802
atp1803
Rp1804
(dp1805
g12
VIN
p1806
sbag0
(g1
g2
(lp1807
g0
(g1
g2
(lp1808
Vwalking
p1809
atp1810
Rp1811
(dp1812
g12
VVBG
p1813
sbatp1814
Rp1815
(dp1816
g12
VNP
p1817
sbatp1818
Rp1819
(dp1820
g12
VPP
p1821
sbatp1822
Rp1823
(dp1824
g12
VNP
p1825
sbag0
(g1
g2
(lp1826
V.
p1827
atp1828
Rp1829
(dp1830
g12
V.
p1831
sbatp1832
Rp1833
(dp1834
g12
VFRAG
p1835
sbatp1836
Rp1837
(dp1838
g12
VFRAG
p1839
sbatp1840
Rp1841
(dp1842
g12
S'id: 8'
p1843
sbag0
(g1
g2
(lp1844
g0
(g1
g2
(lp1845
g0
(g1
g2
(lp1846
g0
(g1
g2
(lp1847
Vand
p1848
atp1849
Rp1850
(dp1851
g12
VCC
p1852
sbag0
(g1
g2
(lp1853
g0
(g1
g2
(lp1854
g0
(g1
g2
(lp1855
Vbehind
p1856
atp1857
Rp1858
(dp1859
g12
VIN
p1860
sbag0
(g1
g2
(lp1861
g0
(g1
g2
(lp1862
g0
(g1
g2
(lp1863
Vthe
p1864
atp1865
Rp1866
(dp1867
g12
VDT
p1868
sbatp1869
Rp1870
(dp1871
g12
VNP
p1872
sbag0
(g1
g2
(lp1873
V,
p1874
atp1875
Rp1876
(dp1877
g12
V,
p1878
sbag0
(g1
g2
(lp1879
g0
(g1
g2
(lp1880
Vthe
p1881
atp1882
Rp1883
(dp1884
g12
VDT
p1885
sbag0
(g1
g2
(lp1886
Vring
p1887
atp1888
Rp1889
(dp1890
g12
VNN
p1891
sbatp1892
Rp1893
(dp1894
g12
VNP
p1895
sbatp1896
Rp1897
(dp1898
g12
VNP
p1899
sbatp1900
Rp1901
(dp1902
g12
VPP
p1903
sbag0
(g1
g2
(lp1904
V,
p1905
atp1906
Rp1907
(dp1908
g12
V,
p1909
sbag0
(g1
g2
(lp1910
g0
(g1
g2
(lp1911
VI
p1912
atp1913
Rp1914
(dp1915
g12
VPRP
p1916
sbatp1917
Rp1918
(dp1919
g12
VNP
p1920
sbag0
(g1
g2
(lp1921
g0
(g1
g2
(lp1922
Vsee
p1923
atp1924
Rp1925
(dp1926
g12
VVBP
p1927
sbag0
(g1
g2
(lp1928
g0
(g1
g2
(lp1929
g0
(g1
g2
(lp1930
Vsome
p1931
atp1932
Rp1933
(dp1934
g12
VDT
p1935
sbatp1936
Rp1937
(dp1938
g12
VNP
p1939
sbag0
(g1
g2
(lp1940
g0
(g1
g2
(lp1941
Vblacked
p1942
atp1943
Rp1944
(dp1945
g12
VVBN
p1946
sbag0
(g1
g2
(lp1947
g0
(g1
g2
(lp1948
Vout
p1949
atp1950
Rp1951
(dp1952
g12
VIN
p1953
sbag0
(g1
g2
(lp1954
g0
(g1
g2
(lp1955
Vpeople
p1956
atp1957
Rp1958
(dp1959
g12
VNNS
p1960
sbag0
(g1
g2
(lp1961
Vfolks
p1962
atp1963
Rp1964
(dp1965
g12
VNNS
p1966
sbatp1967
Rp1968
(dp1969
g12
VNP
p1970
sbatp1971
Rp1972
(dp1973
g12
VPP
p1974
sbatp1975
Rp1976
(dp1977
g12
VVP
p1978
sbatp1979
Rp1980
(dp1981
g12
VS
p1982
sbatp1983
Rp1984
(dp1985
g12
VVP
p1986
sbatp1987
Rp1988
(dp1989
g12
VS
p1990
sbatp1991
Rp1992
(dp1993
g12
VS
p1994
sbag0
(g1
g2
(lp1995
V,
p1996
atp1997
Rp1998
(dp1999
g12
V,
p2000
sbag0
(g1
g2
(lp2001
g0
(g1
g2
(lp2002
Vit
p2003
atp2004
Rp2005
(dp2006
g12
VPRP
p2007
sbatp2008
Rp2009
(dp2010
g12
VNP
p2011
sbag0
(g1
g2
(lp2012
g0
(g1
g2
(lp2013
Vlooks
p2014
atp2015
Rp2016
(dp2017
g12
VVBZ
p2018
sbag0
(g1
g2
(lp2019
g0
(g1
g2
(lp2020
Vlike
p2021
atp2022
Rp2023
(dp2024
g12
VIN
p2025
sbag0
(g1
g2
(lp2026
g0
(g1
g2
(lp2027
g0
(g1
g2
(lp2028
Vthere
p2029
atp2030
Rp2031
(dp2032
g12
VEX
p2033
sbatp2034
Rp2035
(dp2036
g12
VNP
p2037
sbag0
(g1
g2
(lp2038
g0
(g1
g2
(lp2039
V's
p2040
atp2041
Rp2042
(dp2043
g12
VVBZ
p2044
sbag0
(g1
g2
(lp2045
g0
(g1
g2
(lp2046
g0
(g1
g2
(lp2047
g0
(g1
g2
(lp2048
Vfour
p2049
atp2050
Rp2051
(dp2052
g12
VCD
p2053
sbatp2054
Rp2055
(dp2056
g12
VNP
p2057
sbag0
(g1
g2
(lp2058
V,
p2059
atp2060
Rp2061
(dp2062
g12
V,
p2063
sbag0
(g1
g2
(lp2064
Vor
p2065
atp2066
Rp2067
(dp2068
g12
VCC
p2069
sbag0
(g1
g2
(lp2070
g0
(g1
g2
(lp2071
Vfive
p2072
atp2073
Rp2074
(dp2075
g12
VCD
p2076
sbag0
(g1
g2
(lp2077
Vfolks
p2078
atp2079
Rp2080
(dp2081
g12
VNNS
p2082
sbatp2083
Rp2084
(dp2085
g12
VNP
p2086
sbag0
(g1
g2
(lp2087
V,
p2088
atp2089
Rp2090
(dp2091
g12
V,
p2092
sbatp2093
Rp2094
(dp2095
g12
VNP
p2096
sbag0
(g1
g2
(lp2097
g0
(g1
g2
(lp2098
g0
(g1
g2
(lp2099
g0
(g1
g2
(lp2100
Vca
p2101
atp2102
Rp2103
(dp2104
g12
VMD
p2105
sbag0
(g1
g2
(lp2106
Vn't
p2107
atp2108
Rp2109
(dp2110
g12
VRB
p2111
sbag0
(g1
g2
(lp2112
g0
(g1
g2
(lp2113
Vsee
p2114
atp2115
Rp2116
(dp2117
g12
VVB
p2118
sbag0
(g1
g2
(lp2119
g0
(g1
g2
(lp2120
Vtheir
p2121
atp2122
Rp2123
(dp2124
g12
VPRP$
p2125
sbag0
(g1
g2
(lp2126
Vfaces
p2127
atp2128
Rp2129
(dp2130
g12
VNNS
p2131
sbatp2132
Rp2133
(dp2134
g12
VNP
p2135
sbatp2136
Rp2137
(dp2138
g12
VVP
p2139
sbatp2140
Rp2141
(dp2142
g12
VVP
p2143
sbatp2144
Rp2145
(dp2146
g12
VS
p2147
sbatp2148
Rp2149
(dp2150
g12
VSBAR
p2151
sbatp2152
Rp2153
(dp2154
g12
VNP
p2155
sbatp2156
Rp2157
(dp2158
g12
VVP
p2159
sbatp2160
Rp2161
(dp2162
g12
VS
p2163
sbatp2164
Rp2165
(dp2166
g12
VSBAR
p2167
sbatp2168
Rp2169
(dp2170
g12
VVP
p2171
sbag0
(g1
g2
(lp2172
V.
p2173
atp2174
Rp2175
(dp2176
g12
V.
p2177
sbatp2178
Rp2179
(dp2180
g12
VS
p2181
sbatp2182
Rp2183
(dp2184
g12
S'id: 9'
p2185
sbatp2186
Rp2187
(dp2188
g12
S'sentences'
p2189
sb.