ccopy_reg
_reconstructor
p0
(cnltk.tree
Tree
p1
c__builtin__
list
p2
(lp3
g0
(g1
g2
(lp4
g0
(g1
g2
(lp5
g0
(g1
g2
(lp6
g0
(g1
g2
(lp7
VThe
p8
atp9
Rp10
(dp11
S'_label'
p12
VDT
p13
sbag0
(g1
g2
(lp14
Vcookie
p15
atp16
Rp17
(dp18
g12
VNN
p19
sbag0
(g1
g2
(lp20
Vjar
p21
atp22
Rp23
(dp24
g12
VNN
p25
sbatp26
Rp27
(dp28
g12
VNP
p29
sbag0
(g1
g2
(lp30
g0
(g1
g2
(lp31
V,
p32
atp33
Rp34
(dp35
g12
V,
p36
sbag0
(g1
g2
(lp37
Vand
p38
atp39
Rp40
(dp41
g12
VCC
p42
sbag0
(g1
g2
(lp43
g0
(g1
g2
(lp44
g0
(g1
g2
(lp45
Va
p46
atp47
Rp48
(dp49
g12
VDT
p50
sbag0
(g1
g2
(lp51
Vboy
p52
atp53
Rp54
(dp55
g12
VNN
p56
sbatp57
Rp58
(dp59
g12
VNP
p60
sbag0
(g1
g2
(lp61
g0
(g1
g2
(lp62
Vis
p63
atp64
Rp65
(dp66
g12
VVBZ
p67
sbag0
(g1
g2
(lp68
g0
(g1
g2
(lp69
g0
(g1
g2
(lp70
Va
p71
atp72
Rp73
(dp74
g12
VDT
p75
sbag0
(g1
g2
(lp76
Vcookie
p77
atp78
Rp79
(dp80
g12
VNN
p81
sbag0
(g1
g2
(lp82
Vjar
p83
atp84
Rp85
(dp86
g12
VNN
p87
sbatp88
Rp89
(dp90
g12
VNP
p91
sbag0
(g1
g2
(lp92
g0
(g1
g2
(lp93
g0
(g1
g2
(lp94
g0
(g1
g2
(lp95
Vis
p96
atp97
Rp98
(dp99
g12
VVBZ
p100
sbag0
(g1
g2
(lp101
g0
(g1
g2
(lp102
Vfilling
p103
atp104
Rp105
(dp106
g12
VVBG
p107
sbatp108
Rp109
(dp110
g12
VVP
p111
sbatp112
Rp113
(dp114
g12
VVP
p115
sbatp116
Rp117
(dp118
g12
VS
p119
sbatp120
Rp121
(dp122
g12
VSBAR
p123
sbatp124
Rp125
(dp126
g12
VNP
p127
sbatp128
Rp129
(dp130
g12
VVP
p131
sbatp132
Rp133
(dp134
g12
VS
p135
sbag0
(g1
g2
(lp136
V,
p137
atp138
Rp139
(dp140
g12
V,
p141
sbatp142
Rp143
(dp144
g12
VPRN
p145
sbag0
(g1
g2
(lp146
g0
(g1
g2
(lp147
Vfall
p148
atp149
Rp150
(dp151
g12
VVB
p152
sbatp153
Rp154
(dp155
g12
VVP
p156
sbag0
(g1
g2
(lp157
V.
p158
atp159
Rp160
(dp161
g12
V.
p162
sbatp163
Rp164
(dp165
g12
VS
p166
sbatp167
Rp168
(dp169
g12
S'id: 0'
p170
sbag0
(g1
g2
(lp171
g0
(g1
g2
(lp172
g0
(g1
g2
(lp173
VAnd
p174
atp175
Rp176
(dp177
g12
VCC
p178
sbag0
(g1
g2
(lp179
g0
(g1
g2
(lp180
Va
p181
atp182
Rp183
(dp184
g12
VDT
p185
sbag0
(g1
g2
(lp186
Vgirl
p187
atp188
Rp189
(dp190
g12
VNN
p191
sbatp192
Rp193
(dp194
g12
VNP
p195
sbag0
(g1
g2
(lp196
g0
(g1
g2
(lp197
Vis
p198
atp199
Rp200
(dp201
g12
VVBZ
p202
sbag0
(g1
g2
(lp203
g0
(g1
g2
(lp204
Vlaughing
p205
atp206
Rp207
(dp208
g12
VVBG
p209
sbatp210
Rp211
(dp212
g12
VVP
p213
sbatp214
Rp215
(dp216
g12
VVP
p217
sbag0
(g1
g2
(lp218
V.
p219
atp220
Rp221
(dp222
g12
V.
p223
sbatp224
Rp225
(dp226
g12
VS
p227
sbatp228
Rp229
(dp230
g12
S'id: 1'
p231
sbag0
(g1
g2
(lp232
g0
(g1
g2
(lp233
g0
(g1
g2
(lp234
g0
(g1
g2
(lp235
VThe
p236
atp237
Rp238
(dp239
g12
VDT
p240
sbag0
(g1
g2
(lp241
Vwomen
p242
atp243
Rp244
(dp245
g12
VNNS
p246
sbatp247
Rp248
(dp249
g12
VNP
p250
sbag0
(g1
g2
(lp251
g0
(g1
g2
(lp252
Vis
p253
atp254
Rp255
(dp256
g12
VVBZ
p257
sbag0
(g1
g2
(lp258
g0
(g1
g2
(lp259
Vto
p260
atp261
Rp262
(dp263
g12
VTO
p264
sbag0
(g1
g2
(lp265
g0
(g1
g2
(lp266
g0
(g1
g2
(lp267
Vrunning
p268
atp269
Rp270
(dp271
g12
VVBG
p272
sbag0
(g1
g2
(lp273
g0
(g1
g2
(lp274
Vover
p275
atp276
Rp277
(dp278
g12
VIN
p279
sbag0
(g1
g2
(lp280
g0
(g1
g2
(lp281
Vthe
p282
atp283
Rp284
(dp285
g12
VDT
p286
sbag0
(g1
g2
(lp287
Vwash
p288
atp289
Rp290
(dp291
g12
VNN
p292
sbatp293
Rp294
(dp295
g12
VNP
p296
sbatp297
Rp298
(dp299
g12
VPP
p300
sbatp301
Rp302
(dp303
g12
VVP
p304
sbatp305
Rp306
(dp307
g12
VS
p308
sbatp309
Rp310
(dp311
g12
VPP
p312
sbag0
(g1
g2
(lp313
V,
p314
atp315
Rp316
(dp317
g12
V,
p318
sbag0
(g1
g2
(lp319
Vand
p320
atp321
Rp322
(dp323
g12
VCC
p324
sbag0
(g1
g2
(lp325
g0
(g1
g2
(lp326
Vis
p327
atp328
Rp329
(dp330
g12
VVBZ
p331
sbag0
(g1
g2
(lp332
g0
(g1
g2
(lp333
g0
(g1
g2
(lp334
Vday
p335
atp336
Rp337
(dp338
g12
VNN
p339
sbatp340
Rp341
(dp342
g12
VNP
p343
sbag0
(g1
g2
(lp344
g0
(g1
g2
(lp345
Vdreaming
p346
atp347
Rp348
(dp349
g12
VVBG
p350
sbatp351
Rp352
(dp353
g12
VVP
p354
sbatp355
Rp356
(dp357
g12
VNP
p358
sbatp359
Rp360
(dp361
g12
VVP
p362
sbatp363
Rp364
(dp365
g12
VVP
p366
sbag0
(g1
g2
(lp367
V.
p368
atp369
Rp370
(dp371
g12
V.
p372
sbatp373
Rp374
(dp375
g12
VS
p376
sbatp377
Rp378
(dp379
g12
S'id: 2'
p380
sbag0
(g1
g2
(lp381
g0
(g1
g2
(lp382
g0
(g1
g2
(lp383
g0
(g1
g2
(lp384
g0
(g1
g2
(lp385
VThe
p386
atp387
Rp388
(dp389
g12
VDT
p390
sbag0
(g1
g2
(lp391
Vwalk
p392
atp393
Rp394
(dp395
g12
VNN
p396
sbatp397
Rp398
(dp399
g12
VNP
p400
sbag0
(g1
g2
(lp401
g0
(g1
g2
(lp402
Vis
p403
atp404
Rp405
(dp406
g12
VVBZ
p407
sbatp408
Rp409
(dp410
g12
VVP
p411
sbatp412
Rp413
(dp414
g12
VNP
p415
sbag0
(g1
g2
(lp416
g0
(g1
g2
(lp417
Vis
p418
atp419
Rp420
(dp421
g12
VVBZ
p422
sbag0
(g1
g2
(lp423
V,
p424
atp425
Rp426
(dp427
g12
V,
p428
sbag0
(g1
g2
(lp429
g0
(g1
g2
(lp430
g0
(g1
g2
(lp431
g0
(g1
g2
(lp432
Vis
p433
atp434
Rp435
(dp436
g12
VVBZ
p437
sbag0
(g1
g2
(lp438
g0
(g1
g2
(lp439
Vwalking
p440
atp441
Rp442
(dp443
g12
VVBG
p444
sbag0
(g1
g2
(lp445
g0
(g1
g2
(lp446
Vand
p447
atp448
Rp449
(dp450
g12
VCC
p451
sbatp452
Rp453
(dp454
g12
VADVP
p455
sbatp456
Rp457
(dp458
g12
VVP
p459
sbatp460
Rp461
(dp462
g12
VVP
p463
sbatp464
Rp465
(dp466
g12
VS
p467
sbatp468
Rp469
(dp470
g12
VSBAR
p471
sbatp472
Rp473
(dp474
g12
VVP
p475
sbag0
(g1
g2
(lp476
V.
p477
atp478
Rp479
(dp480
g12
V.
p481
sbatp482
Rp483
(dp484
g12
VS
p485
sbatp486
Rp487
(dp488
g12
S'id: 3'
p489
sbag0
(g1
g2
(lp490
g0
(g1
g2
(lp491
g0
(g1
g2
(lp492
g0
(g1
g2
(lp493
VSalt
p494
atp495
Rp496
(dp497
g12
VNNP
p498
sbatp499
Rp500
(dp501
g12
VNP
p502
sbag0
(g1
g2
(lp503
g0
(g1
g2
(lp504
Vshakers
p505
atp506
Rp507
(dp508
g12
VNNS
p509
sbatp510
Rp511
(dp512
g12
VNP
p513
sbag0
(g1
g2
(lp514
V.
p515
atp516
Rp517
(dp518
g12
V.
p519
sbatp520
Rp521
(dp522
g12
VNP
p523
sbatp524
Rp525
(dp526
g12
S'id: 4'
p527
sbag0
(g1
g2
(lp528
g0
(g1
g2
(lp529
g0
(g1
g2
(lp530
VAnd
p531
atp532
Rp533
(dp534
g12
VCC
p535
sbag0
(g1
g2
(lp536
g0
(g1
g2
(lp537
g0
(g1
g2
(lp538
Vwash
p539
atp540
Rp541
(dp542
g12
VNN
p543
sbatp544
Rp545
(dp546
g12
VNP
p547
sbag0
(g1
g2
(lp548
V,
p549
atp550
Rp551
(dp552
g12
V,
p553
sbag0
(g1
g2
(lp554
g0
(g1
g2
(lp555
Vand
p556
atp557
Rp558
(dp559
g12
VCC
p560
sbag0
(g1
g2
(lp561
Vwash
p562
atp563
Rp564
(dp565
g12
VNN
p566
sbatp567
Rp568
(dp569
g12
VNP
p570
sbag0
(g1
g2
(lp571
V,
p572
atp573
Rp574
(dp575
g12
V,
p576
sbag0
(g1
g2
(lp577
Vand
p578
atp579
Rp580
(dp581
g12
VCC
p582
sbag0
(g1
g2
(lp583
g0
(g1
g2
(lp584
Vcold
p585
atp586
Rp587
(dp588
g12
VNN
p589
sbatp590
Rp591
(dp592
g12
VNP
p593
sbatp594
Rp595
(dp596
g12
VNP
p597
sbag0
(g1
g2
(lp598
V.
p599
atp600
Rp601
(dp602
g12
V.
p603
sbatp604
Rp605
(dp606
g12
VFRAG
p607
sbatp608
Rp609
(dp610
g12
S'id: 5'
p611
sbag0
(g1
g2
(lp612
g0
(g1
g2
(lp613
g0
(g1
g2
(lp614
g0
(g1
g2
(lp615
VThe
p616
atp617
Rp618
(dp619
g12
VDT
p620
sbag0
(g1
g2
(lp621
Vwoman
p622
atp623
Rp624
(dp625
g12
VNN
p626
sbatp627
Rp628
(dp629
g12
VNP
p630
sbag0
(g1
g2
(lp631
g0
(g1
g2
(lp632
Vis
p633
atp634
Rp635
(dp636
g12
VVBZ
p637
sbag0
(g1
g2
(lp638
g0
(g1
g2
(lp639
Vwashing
p640
atp641
Rp642
(dp643
g12
VVBG
p644
sbag0
(g1
g2
(lp645
V,
p646
atp647
Rp648
(dp649
g12
V,
p650
sbag0
(g1
g2
(lp651
g0
(g1
g2
(lp652
g0
(g1
g2
(lp653
Vwashing
p654
atp655
Rp656
(dp657
g12
VVBG
p658
sbag0
(g1
g2
(lp659
g0
(g1
g2
(lp660
Vthe
p661
atp662
Rp663
(dp664
g12
VDT
p665
sbag0
(g1
g2
(lp666
Vdishes
p667
atp668
Rp669
(dp670
g12
VNNS
p671
sbatp672
Rp673
(dp674
g12
VNP
p675
sbatp676
Rp677
(dp678
g12
VVP
p679
sbatp680
Rp681
(dp682
g12
VS
p683
sbatp684
Rp685
(dp686
g12
VVP
p687
sbatp688
Rp689
(dp690
g12
VVP
p691
sbag0
(g1
g2
(lp692
V.
p693
atp694
Rp695
(dp696
g12
V.
p697
sbatp698
Rp699
(dp700
g12
VS
p701
sbatp702
Rp703
(dp704
g12
S'id: 6'
p705
sbag0
(g1
g2
(lp706
g0
(g1
g2
(lp707
g0
(g1
g2
(lp708
g0
(g1
g2
(lp709
VThats
p710
atp711
Rp712
(dp713
g12
VVBZ
p714
sbag0
(g1
g2
(lp715
g0
(g1
g2
(lp716
Vit
p717
atp718
Rp719
(dp720
g12
VPRP
p721
sbatp722
Rp723
(dp724
g12
VNP
p725
sbatp726
Rp727
(dp728
g12
VVP
p729
sbag0
(g1
g2
(lp730
V.
p731
atp732
Rp733
(dp734
g12
V.
p735
sbatp736
Rp737
(dp738
g12
VS
p739
sbatp740
Rp741
(dp742
g12
S'id: 7'
p743
sbatp744
Rp745
(dp746
g12
S'sentences'
p747
sb.