ccopy_reg
_reconstructor
p0
(cnltk.tree
Tree
p1
c__builtin__
list
p2
(lp3
g0
(g1
g2
(lp4
g0
(g1
g2
(lp5
g0
(g1
g2
(lp6
VNo
p7
atp8
Rp9
(dp10
S'_label'
p11
S'start: 1'
p12
sbatp13
Rp14
(dp15
g11
S'sent: 2'
p16
sbag0
(g1
g2
(lp17
g0
(g1
g2
(lp18
VNo
p19
atp20
Rp21
(dp22
g11
S'start: 1'
p23
sbatp24
Rp25
(dp26
g11
S'sent: 10'
p27
sbatp28
Rp29
(dp30
g11
S'id: 2'
p31
sbag0
(g1
g2
(lp32
g0
(g1
g2
(lp33
g0
(g1
g2
(lp34
VA. Man
p35
atp36
Rp37
(dp38
g11
S'start: 1'
p39
sbatp40
Rp41
(dp42
g11
S'sent: 3'
p43
sbag0
(g1
g2
(lp44
g0
(g1
g2
(lp45
VMan .
p46
atp47
Rp48
(dp49
g11
S'start: 1'
p50
sbatp51
Rp52
(dp53
g11
S'sent: 11'
p54
sbatp55
Rp56
(dp57
g11
S'id: 3'
p58
sbag0
(g1
g2
(lp59
g0
(g1
g2
(lp60
g0
(g1
g2
(lp61
VI
p62
atp63
Rp64
(dp65
g11
S'start: 4'
p66
sbatp67
Rp68
(dp69
g11
S'sent: 4'
p70
sbag0
(g1
g2
(lp71
g0
(g1
g2
(lp72
VI
p73
atp74
Rp75
(dp76
g11
S'start: 1'
p77
sbatp78
Rp79
(dp80
g11
S'sent: 13'
p81
sbag0
(g1
g2
(lp82
g0
(g1
g2
(lp83
VI
p84
atp85
Rp86
(dp87
g11
S'start: 1'
p88
sbatp89
Rp90
(dp91
g11
S'sent: 16'
p92
sbatp93
Rp94
(dp95
g11
S'id: 5'
p96
sbag0
(g1
g2
(lp97
g0
(g1
g2
(lp98
g0
(g1
g2
(lp99
VWords
p100
atp101
Rp102
(dp103
g11
S'start: 1'
p104
sbatp105
Rp106
(dp107
g11
S'sent: 5'
p108
sbag0
(g1
g2
(lp109
g0
(g1
g2
(lp110
Vwords
p111
atp112
Rp113
(dp114
g11
S'start: 3'
p115
sbatp116
Rp117
(dp118
g11
S'sent: 5'
p119
sbatp120
Rp121
(dp122
g11
S'id: 7'
p123
sbag0
(g1
g2
(lp124
g0
(g1
g2
(lp125
g0
(g1
g2
(lp126
VBaby
p127
atp128
Rp129
(dp130
g11
S'start: 1'
p131
sbatp132
Rp133
(dp134
g11
S'sent: 14'
p135
sbag0
(g1
g2
(lp136
g0
(g1
g2
(lp137
VBaby
p138
atp139
Rp140
(dp141
g11
S'start: 1'
p142
sbatp143
Rp144
(dp145
g11
S'sent: 15'
p146
sbatp147
Rp148
(dp149
g11
S'id: 13'
p150
sbatp151
Rp152
(dp153
g11
S'coreferences'
p154
sb.