ccopy_reg
_reconstructor
p0
(cnltk.tree
Tree
p1
c__builtin__
list
p2
(lp3
g0
(g1
g2
(lp4
g0
(g1
g2
(lp5
g0
(g1
g2
(lp6
g0
(g1
g2
(lp7
g0
(g1
g2
(lp8
VThis
p9
atp10
Rp11
(dp12
S'_label'
p13
VDT
p14
sbatp15
Rp16
(dp17
g13
VNP
p18
sbag0
(g1
g2
(lp19
g0
(g1
g2
(lp20
Vlooks
p21
atp22
Rp23
(dp24
g13
VVBZ
p25
sbag0
(g1
g2
(lp26
g0
(g1
g2
(lp27
Vlike
p28
atp29
Rp30
(dp31
g13
VIN
p32
sbag0
(g1
g2
(lp33
g0
(g1
g2
(lp34
g0
(g1
g2
(lp35
Va
p36
atp37
Rp38
(dp39
g13
VDT
p40
sbag0
(g1
g2
(lp41
Vkitchen
p42
atp43
Rp44
(dp45
g13
VNN
p46
sbatp47
Rp48
(dp49
g13
VNP
p50
sbag0
(g1
g2
(lp51
g0
(g1
g2
(lp52
Vwith
p53
atp54
Rp55
(dp56
g13
VIN
p57
sbag0
(g1
g2
(lp58
g0
(g1
g2
(lp59
g0
(g1
g2
(lp60
Vthe
p61
atp62
Rp63
(dp64
g13
VDT
p65
sbag0
(g1
g2
(lp66
Vmother
p67
atp68
Rp69
(dp70
g13
VNN
p71
sbatp72
Rp73
(dp74
g13
VNP
p75
sbag0
(g1
g2
(lp76
g0
(g1
g2
(lp77
Vwashing
p78
atp79
Rp80
(dp81
g13
VVBG
p82
sbag0
(g1
g2
(lp83
g0
(g1
g2
(lp84
Vdishes
p85
atp86
Rp87
(dp88
g13
VNNS
p89
sbatp90
Rp91
(dp92
g13
VNP
p93
sbatp94
Rp95
(dp96
g13
VVP
p97
sbatp98
Rp99
(dp100
g13
VNP
p101
sbatp102
Rp103
(dp104
g13
VPP
p105
sbatp106
Rp107
(dp108
g13
VNP
p109
sbatp110
Rp111
(dp112
g13
VPP
p113
sbatp114
Rp115
(dp116
g13
VVP
p117
sbatp118
Rp119
(dp120
g13
VS
p121
sbag0
(g1
g2
(lp122
V,
p123
atp124
Rp125
(dp126
g13
V,
p127
sbag0
(g1
g2
(lp128
Vand
p129
atp130
Rp131
(dp132
g13
VCC
p133
sbag0
(g1
g2
(lp134
g0
(g1
g2
(lp135
g0
(g1
g2
(lp136
Vshes
p137
atp138
Rp139
(dp140
g13
VNNS
p141
sbatp142
Rp143
(dp144
g13
VNP
p145
sbag0
(g1
g2
(lp146
g0
(g1
g2
(lp147
Vgot
p148
atp149
Rp150
(dp151
g13
VVBD
p152
sbag0
(g1
g2
(lp153
g0
(g1
g2
(lp154
g0
(g1
g2
(lp155
Va
p156
atp157
Rp158
(dp159
g13
VDT
p160
sbag0
(g1
g2
(lp161
Vskin
p162
atp163
Rp164
(dp165
g13
VNN
p166
sbatp167
Rp168
(dp169
g13
VNP
p170
sbag0
(g1
g2
(lp171
g0
(g1
g2
(lp172
Voverflowing
p173
atp174
Rp175
(dp176
g13
VVBG
p177
sbatp178
Rp179
(dp180
g13
VVP
p181
sbatp182
Rp183
(dp184
g13
VNP
p185
sbatp186
Rp187
(dp188
g13
VVP
p189
sbatp190
Rp191
(dp192
g13
VS
p193
sbag0
(g1
g2
(lp194
V.
p195
atp196
Rp197
(dp198
g13
V.
p199
sbatp200
Rp201
(dp202
g13
VS
p203
sbatp204
Rp205
(dp206
g13
S'id: 0'
p207
sbag0
(g1
g2
(lp208
g0
(g1
g2
(lp209
g0
(g1
g2
(lp210
g0
(g1
g2
(lp211
g0
(g1
g2
(lp212
VShe
p213
atp214
Rp215
(dp216
g13
VPRP
p217
sbatp218
Rp219
(dp220
g13
VNP
p221
sbag0
(g1
g2
(lp222
g0
(g1
g2
(lp223
Vlooks
p224
atp225
Rp226
(dp227
g13
VVBZ
p228
sbag0
(g1
g2
(lp229
g0
(g1
g2
(lp230
Vlike
p231
atp232
Rp233
(dp234
g13
VIN
p235
sbag0
(g1
g2
(lp236
g0
(g1
g2
(lp237
g0
(g1
g2
(lp238
Vshe
p239
atp240
Rp241
(dp242
g13
VPRP
p243
sbatp244
Rp245
(dp246
g13
VNP
p247
sbag0
(g1
g2
(lp248
g0
(g1
g2
(lp249
V's
p250
atp251
Rp252
(dp253
g13
VVBZ
p254
sbag0
(g1
g2
(lp255
g0
(g1
g2
(lp256
Vgot
p257
atp258
Rp259
(dp260
g13
VVBD
p261
sbag0
(g1
g2
(lp262
g0
(g1
g2
(lp263
Va
p264
atp265
Rp266
(dp267
g13
VDT
p268
sbag0
(g1
g2
(lp269
g0
(g1
g2
(lp270
g0
(g1
g2
(lp271
Vvery
p272
atp273
Rp274
(dp275
g13
VRB
p276
sbag0
(g1
g2
(lp277
Vnice
p278
atp279
Rp280
(dp281
g13
VJJ
p282
sbatp283
Rp284
(dp285
g13
VADJP
p286
sbag0
(g1
g2
(lp287
g0
(g1
g2
(lp288
Vback
p289
atp290
Rp291
(dp292
g13
VRB
p293
sbatp294
Rp295
(dp296
g13
VADVP
p297
sbatp298
Rp299
(dp300
g13
VADJP
p301
sbag0
(g1
g2
(lp302
Vyard
p303
atp304
Rp305
(dp306
g13
VNN
p307
sbatp308
Rp309
(dp310
g13
VNP
p311
sbatp312
Rp313
(dp314
g13
VVP
p315
sbatp316
Rp317
(dp318
g13
VVP
p319
sbatp320
Rp321
(dp322
g13
VS
p323
sbatp324
Rp325
(dp326
g13
VSBAR
p327
sbatp328
Rp329
(dp330
g13
VVP
p331
sbatp332
Rp333
(dp334
g13
VS
p335
sbag0
(g1
g2
(lp336
V,
p337
atp338
Rp339
(dp340
g13
V,
p341
sbag0
(g1
g2
(lp342
g0
(g1
g2
(lp343
Vthat
p344
atp345
Rp346
(dp347
g13
VDT
p348
sbatp349
Rp350
(dp351
g13
VNP
p352
sbag0
(g1
g2
(lp353
g0
(g1
g2
(lp354
g0
(g1
g2
(lp355
V's
p356
atp357
Rp358
(dp359
g13
VVBZ
p360
sbag0
(g1
g2
(lp361
g0
(g1
g2
(lp362
Vkind
p363
atp364
Rp365
(dp366
g13
VNN
p367
sbag0
(g1
g2
(lp368
Vof
p369
atp370
Rp371
(dp372
g13
VIN
p373
sbatp374
Rp375
(dp376
g13
VADVP
p377
sbag0
(g1
g2
(lp378
g0
(g1
g2
(lp379
Vmanicured
p380
atp381
Rp382
(dp383
g13
VVBN
p384
sbag0
(g1
g2
(lp385
g0
(g1
g2
(lp386
Vwith
p387
atp388
Rp389
(dp390
g13
VIN
p391
sbag0
(g1
g2
(lp392
g0
(g1
g2
(lp393
Vshrubbery
p394
atp395
Rp396
(dp397
g13
VNN
p398
sbatp399
Rp400
(dp401
g13
VNP
p402
sbatp403
Rp404
(dp405
g13
VPP
p406
sbatp407
Rp408
(dp409
g13
VVP
p410
sbatp411
Rp412
(dp413
g13
VVP
p414
sbag0
(g1
g2
(lp415
Vand
p416
atp417
Rp418
(dp419
g13
VCC
p420
sbag0
(g1
g2
(lp421
V,
p422
atp423
Rp424
(dp425
g13
V,
p426
sbag0
(g1
g2
(lp427
g0
(g1
g2
(lp428
g0
(g1
g2
(lp429
Vwhat
p430
atp431
Rp432
(dp433
g13
VWP
p434
sbatp435
Rp436
(dp437
g13
VNP
p438
sbag0
(g1
g2
(lp439
g0
(g1
g2
(lp440
Vnot
p441
atp442
Rp443
(dp444
g13
VRB
p445
sbatp446
Rp447
(dp448
g13
VADJP
p449
sbatp450
Rp451
(dp452
g13
VS
p453
sbatp454
Rp455
(dp456
g13
VVP
p457
sbag0
(g1
g2
(lp458
V.
p459
atp460
Rp461
(dp462
g13
V.
p463
sbatp464
Rp465
(dp466
g13
VS
p467
sbatp468
Rp469
(dp470
g13
S'id: 1'
p471
sbag0
(g1
g2
(lp472
g0
(g1
g2
(lp473
g0
(g1
g2
(lp474
g0
(g1
g2
(lp475
g0
(g1
g2
(lp476
VShe
p477
atp478
Rp479
(dp480
g13
VPRP
p481
sbatp482
Rp483
(dp484
g13
VNP
p485
sbag0
(g1
g2
(lp486
g0
(g1
g2
(lp487
V's
p488
atp489
Rp490
(dp491
g13
VVBZ
p492
sbag0
(g1
g2
(lp493
g0
(g1
g2
(lp494
Vgot
p495
atp496
Rp497
(dp498
g13
VVBD
p499
sbag0
(g1
g2
(lp500
g0
(g1
g2
(lp501
Va
p502
atp503
Rp504
(dp505
g13
VDT
p506
sbag0
(g1
g2
(lp507
Vson
p508
atp509
Rp510
(dp511
g13
VNN
p512
sbatp513
Rp514
(dp515
g13
VNP
p516
sbatp517
Rp518
(dp519
g13
VVP
p520
sbatp521
Rp522
(dp523
g13
VVP
p524
sbatp525
Rp526
(dp527
g13
VS
p528
sbag0
(g1
g2
(lp529
V,
p530
atp531
Rp532
(dp533
g13
V,
p534
sbag0
(g1
g2
(lp535
g0
(g1
g2
(lp536
g0
(g1
g2
(lp537
VI
p538
atp539
Rp540
(dp541
g13
VPRP
p542
sbatp543
Rp544
(dp545
g13
VNP
p546
sbag0
(g1
g2
(lp547
g0
(g1
g2
(lp548
Vassume
p549
atp550
Rp551
(dp552
g13
VVBP
p553
sbatp554
Rp555
(dp556
g13
VVP
p557
sbatp558
Rp559
(dp560
g13
VS
p561
sbag0
(g1
g2
(lp562
V,
p563
atp564
Rp565
(dp566
g13
V,
p567
sbag0
(g1
g2
(lp568
g0
(g1
g2
(lp569
g0
(g1
g2
(lp570
Vthat
p571
atp572
Rp573
(dp574
g13
VDT
p575
sbatp576
Rp577
(dp578
g13
VNP
p579
sbag0
(g1
g2
(lp580
g0
(g1
g2
(lp581
V's
p582
atp583
Rp584
(dp585
g13
VVBZ
p586
sbag0
(g1
g2
(lp587
g0
(g1
g2
(lp588
Vtrying
p589
atp590
Rp591
(dp592
g13
VVBG
p593
sbag0
(g1
g2
(lp594
g0
(g1
g2
(lp595
g0
(g1
g2
(lp596
Vto
p597
atp598
Rp599
(dp600
g13
VTO
p601
sbag0
(g1
g2
(lp602
g0
(g1
g2
(lp603
Vget
p604
atp605
Rp606
(dp607
g13
VVB
p608
sbag0
(g1
g2
(lp609
g0
(g1
g2
(lp610
Vcookies
p611
atp612
Rp613
(dp614
g13
VNNS
p615
sbatp616
Rp617
(dp618
g13
VNP
p619
sbag0
(g1
g2
(lp620
g0
(g1
g2
(lp621
Vout
p622
atp623
Rp624
(dp625
g13
VIN
p626
sbag0
(g1
g2
(lp627
g0
(g1
g2
(lp628
Vof
p629
atp630
Rp631
(dp632
g13
VIN
p633
sbag0
(g1
g2
(lp634
g0
(g1
g2
(lp635
Va
p636
atp637
Rp638
(dp639
g13
VDT
p640
sbag0
(g1
g2
(lp641
Vcookie
p642
atp643
Rp644
(dp645
g13
VNN
p646
sbag0
(g1
g2
(lp647
Vjar
p648
atp649
Rp650
(dp651
g13
VNN
p652
sbatp653
Rp654
(dp655
g13
VNP
p656
sbatp657
Rp658
(dp659
g13
VPP
p660
sbatp661
Rp662
(dp663
g13
VADVP
p664
sbatp665
Rp666
(dp667
g13
VVP
p668
sbatp669
Rp670
(dp671
g13
VVP
p672
sbatp673
Rp674
(dp675
g13
VS
p676
sbatp677
Rp678
(dp679
g13
VVP
p680
sbatp681
Rp682
(dp683
g13
VVP
p684
sbatp685
Rp686
(dp687
g13
VS
p688
sbag0
(g1
g2
(lp689
V,
p690
atp691
Rp692
(dp693
g13
V,
p694
sbag0
(g1
g2
(lp695
Vand
p696
atp697
Rp698
(dp699
g13
VCC
p700
sbag0
(g1
g2
(lp701
g0
(g1
g2
(lp702
g0
(g1
g2
(lp703
Vhe
p704
atp705
Rp706
(dp707
g13
VPRP
p708
sbatp709
Rp710
(dp711
g13
VNP
p712
sbag0
(g1
g2
(lp713
g0
(g1
g2
(lp714
V's
p715
atp716
Rp717
(dp718
g13
VVBZ
p719
sbag0
(g1
g2
(lp720
g0
(g1
g2
(lp721
Vfalling
p722
atp723
Rp724
(dp725
g13
VVBG
p726
sbag0
(g1
g2
(lp727
g0
(g1
g2
(lp728
Voff
p729
atp730
Rp731
(dp732
g13
VRB
p733
sbatp734
Rp735
(dp736
g13
VADVP
p737
sbag0
(g1
g2
(lp738
g0
(g1
g2
(lp739
Vof
p740
atp741
Rp742
(dp743
g13
VIN
p744
sbag0
(g1
g2
(lp745
g0
(g1
g2
(lp746
Va
p747
atp748
Rp749
(dp750
g13
VDT
p751
sbag0
(g1
g2
(lp752
Vstool
p753
atp754
Rp755
(dp756
g13
VNN
p757
sbatp758
Rp759
(dp760
g13
VNP
p761
sbatp762
Rp763
(dp764
g13
VPP
p765
sbatp766
Rp767
(dp768
g13
VVP
p769
sbatp770
Rp771
(dp772
g13
VVP
p773
sbatp774
Rp775
(dp776
g13
VS
p777
sbag0
(g1
g2
(lp778
V.
p779
atp780
Rp781
(dp782
g13
V.
p783
sbatp784
Rp785
(dp786
g13
VS
p787
sbatp788
Rp789
(dp790
g13
S'id: 2'
p791
sbag0
(g1
g2
(lp792
g0
(g1
g2
(lp793
g0
(g1
g2
(lp794
g0
(g1
g2
(lp795
VThe
p796
atp797
Rp798
(dp799
g13
VDT
p800
sbag0
(g1
g2
(lp801
Vdaughter
p802
atp803
Rp804
(dp805
g13
VNN
p806
sbatp807
Rp808
(dp809
g13
VNP
p810
sbag0
(g1
g2
(lp811
g0
(g1
g2
(lp812
Vlooks
p813
atp814
Rp815
(dp816
g13
VVBZ
p817
sbag0
(g1
g2
(lp818
g0
(g1
g2
(lp819
Vlike
p820
atp821
Rp822
(dp823
g13
VIN
p824
sbag0
(g1
g2
(lp825
g0
(g1
g2
(lp826
g0
(g1
g2
(lp827
Vshe
p828
atp829
Rp830
(dp831
g13
VPRP
p832
sbatp833
Rp834
(dp835
g13
VNP
p836
sbag0
(g1
g2
(lp837
g0
(g1
g2
(lp838
V's
p839
atp840
Rp841
(dp842
g13
VVBZ
p843
sbag0
(g1
g2
(lp844
g0
(g1
g2
(lp845
Vreaching
p846
atp847
Rp848
(dp849
g13
VVBG
p850
sbag0
(g1
g2
(lp851
g0
(g1
g2
(lp852
Vfor
p853
atp854
Rp855
(dp856
g13
VIN
p857
sbag0
(g1
g2
(lp858
g0
(g1
g2
(lp859
g0
(g1
g2
(lp860
Vcookie
p861
atp862
Rp863
(dp864
g13
VNN
p865
sbatp866
Rp867
(dp868
g13
VNP
p869
sbag0
(g1
g2
(lp870
V,
p871
atp872
Rp873
(dp874
g13
V,
p875
sbag0
(g1
g2
(lp876
Vand
p877
atp878
Rp879
(dp880
g13
VCC
p881
sbag0
(g1
g2
(lp882
Vnot
p883
atp884
Rp885
(dp886
g13
VRB
p887
sbag0
(g1
g2
(lp888
g0
(g1
g2
(lp889
Vaware
p890
atp891
Rp892
(dp893
g13
VJJ
p894
sbatp895
Rp896
(dp897
g13
VADJP
p898
sbatp899
Rp900
(dp901
g13
VUCP
p902
sbatp903
Rp904
(dp905
g13
VPP
p906
sbag0
(g1
g2
(lp907
g0
(g1
g2
(lp908
Vthat
p909
atp910
Rp911
(dp912
g13
VIN
p913
sbag0
(g1
g2
(lp914
g0
(g1
g2
(lp915
g0
(g1
g2
(lp916
Vhe
p917
atp918
Rp919
(dp920
g13
VPRP
p921
sbatp922
Rp923
(dp924
g13
VNP
p925
sbag0
(g1
g2
(lp926
g0
(g1
g2
(lp927
V's
p928
atp929
Rp930
(dp931
g13
VVBZ
p932
sbag0
(g1
g2
(lp933
g0
(g1
g2
(lp934
Vfalling
p935
atp936
Rp937
(dp938
g13
VVBG
p939
sbag0
(g1
g2
(lp940
g0
(g1
g2
(lp941
Voff
p942
atp943
Rp944
(dp945
g13
VRP
p946
sbatp947
Rp948
(dp949
g13
VPRT
p950
sbag0
(g1
g2
(lp951
g0
(g1
g2
(lp952
Vthe
p953
atp954
Rp955
(dp956
g13
VDT
p957
sbag0
(g1
g2
(lp958
Vstool
p959
atp960
Rp961
(dp962
g13
VNN
p963
sbatp964
Rp965
(dp966
g13
VNP
p967
sbatp968
Rp969
(dp970
g13
VVP
p971
sbatp972
Rp973
(dp974
g13
VVP
p975
sbatp976
Rp977
(dp978
g13
VS
p979
sbatp980
Rp981
(dp982
g13
VSBAR
p983
sbatp984
Rp985
(dp986
g13
VVP
p987
sbatp988
Rp989
(dp990
g13
VVP
p991
sbatp992
Rp993
(dp994
g13
VS
p995
sbatp996
Rp997
(dp998
g13
VSBAR
p999
sbatp1000
Rp1001
(dp1002
g13
VVP
p1003
sbag0
(g1
g2
(lp1004
V.
p1005
atp1006
Rp1007
(dp1008
g13
V.
p1009
sbatp1010
Rp1011
(dp1012
g13
VS
p1013
sbatp1014
Rp1015
(dp1016
g13
S'id: 3'
p1017
sbag0
(g1
g2
(lp1018
g0
(g1
g2
(lp1019
g0
(g1
g2
(lp1020
g0
(g1
g2
(lp1021
g0
(g1
g2
(lp1022
VThe
p1023
atp1024
Rp1025
(dp1026
g13
VDT
p1027
sbag0
(g1
g2
(lp1028
Vmother
p1029
atp1030
Rp1031
(dp1032
g13
VNN
p1033
sbatp1034
Rp1035
(dp1036
g13
VNP
p1037
sbag0
(g1
g2
(lp1038
g0
(g1
g2
(lp1039
Vhas
p1040
atp1041
Rp1042
(dp1043
g13
VVBZ
p1044
sbag0
(g1
g2
(lp1045
g0
(g1
g2
(lp1046
g0
(g1
g2
(lp1047
Von
p1048
atp1049
Rp1050
(dp1051
g13
VIN
p1052
sbag0
(g1
g2
(lp1053
g0
(g1
g2
(lp1054
Van
p1055
atp1056
Rp1057
(dp1058
g13
VDT
p1059
sbag0
(g1
g2
(lp1060
Vapron
p1061
atp1062
Rp1063
(dp1064
g13
VNN
p1065
sbatp1066
Rp1067
(dp1068
g13
VNP
p1069
sbatp1070
Rp1071
(dp1072
g13
VPP
p1073
sbatp1074
Rp1075
(dp1076
g13
VVP
p1077
sbatp1078
Rp1079
(dp1080
g13
VVP
p1081
sbatp1082
Rp1083
(dp1084
g13
VS
p1085
sbag0
(g1
g2
(lp1086
V,
p1087
atp1088
Rp1089
(dp1090
g13
V,
p1091
sbag0
(g1
g2
(lp1092
Vand
p1093
atp1094
Rp1095
(dp1096
g13
VCC
p1097
sbag0
(g1
g2
(lp1098
Vnot
p1099
atp1100
Rp1101
(dp1102
g13
VRB
p1103
sbag0
(g1
g2
(lp1104
g0
(g1
g2
(lp1105
g0
(g1
g2
(lp1106
Vmany
p1107
atp1108
Rp1109
(dp1110
g13
VJJ
p1111
sbag0
(g1
g2
(lp1112
Vpeople
p1113
atp1114
Rp1115
(dp1116
g13
VNNS
p1117
sbatp1118
Rp1119
(dp1120
g13
VNP
p1121
sbag0
(g1
g2
(lp1122
g0
(g1
g2
(lp1123
Vwear
p1124
atp1125
Rp1126
(dp1127
g13
VVBP
p1128
sbag0
(g1
g2
(lp1129
g0
(g1
g2
(lp1130
g0
(g1
g2
(lp1131
Vaprons
p1132
atp1133
Rp1134
(dp1135
g13
VNNS
p1136
sbatp1137
Rp1138
(dp1139
g13
VNP
p1140
sbag0
(g1
g2
(lp1141
g0
(g1
g2
(lp1142
Vanymore
p1143
atp1144
Rp1145
(dp1146
g13
VRB
p1147
sbatp1148
Rp1149
(dp1150
g13
VADVP
p1151
sbatp1152
Rp1153
(dp1154
g13
VNP
p1155
sbag0
(g1
g2
(lp1156
g0
(g1
g2
(lp1157
Vthese
p1158
atp1159
Rp1160
(dp1161
g13
VDT
p1162
sbag0
(g1
g2
(lp1163
Vdays
p1164
atp1165
Rp1166
(dp1167
g13
VNNS
p1168
sbatp1169
Rp1170
(dp1171
g13
VNP-TMP
p1172
sbatp1173
Rp1174
(dp1175
g13
VVP
p1176
sbatp1177
Rp1178
(dp1179
g13
VS
p1180
sbag0
(g1
g2
(lp1181
V.
p1182
atp1183
Rp1184
(dp1185
g13
V.
p1186
sbatp1187
Rp1188
(dp1189
g13
VS
p1190
sbatp1191
Rp1192
(dp1193
g13
S'id: 4'
p1194
sbag0
(g1
g2
(lp1195
g0
(g1
g2
(lp1196
g0
(g1
g2
(lp1197
VBut
p1198
atp1199
Rp1200
(dp1201
g13
VCC
p1202
sbag0
(g1
g2
(lp1203
g0
(g1
g2
(lp1204
Vshe
p1205
atp1206
Rp1207
(dp1208
g13
VPRP
p1209
sbatp1210
Rp1211
(dp1212
g13
VNP
p1213
sbag0
(g1
g2
(lp1214
g0
(g1
g2
(lp1215
V's
p1216
atp1217
Rp1218
(dp1219
g13
VVBZ
p1220
sbag0
(g1
g2
(lp1221
g0
(g1
g2
(lp1222
Vgot
p1223
atp1224
Rp1225
(dp1226
g13
VVBD
p1227
sbag0
(g1
g2
(lp1228
g0
(g1
g2
(lp1229
Va
p1230
atp1231
Rp1232
(dp1233
g13
VDT
p1234
sbag0
(g1
g2
(lp1235
Vnice
p1236
atp1237
Rp1238
(dp1239
g13
VJJ
p1240
sbag0
(g1
g2
(lp1241
V,
p1242
atp1243
Rp1244
(dp1245
g13
V,
p1246
sbag0
(g1
g2
(lp1247
Vnice
p1248
atp1249
Rp1250
(dp1251
g13
VJJ
p1252
sbag0
(g1
g2
(lp1253
Vkitchen
p1254
atp1255
Rp1256
(dp1257
g13
VNN
p1258
sbatp1259
Rp1260
(dp1261
g13
VNP
p1262
sbag0
(g1
g2
(lp1263
V,
p1264
atp1265
Rp1266
(dp1267
g13
V,
p1268
sbag0
(g1
g2
(lp1269
g0
(g1
g2
(lp1270
Vwith
p1271
atp1272
Rp1273
(dp1274
g13
VIN
p1275
sbag0
(g1
g2
(lp1276
g0
(g1
g2
(lp1277
Vnice
p1278
atp1279
Rp1280
(dp1281
g13
VJJ
p1282
sbag0
(g1
g2
(lp1283
Vstorage
p1284
atp1285
Rp1286
(dp1287
g13
VNN
p1288
sbag0
(g1
g2
(lp1289
Varea
p1290
atp1291
Rp1292
(dp1293
g13
VNN
p1294
sbatp1295
Rp1296
(dp1297
g13
VNP
p1298
sbatp1299
Rp1300
(dp1301
g13
VPP
p1302
sbatp1303
Rp1304
(dp1305
g13
VVP
p1306
sbatp1307
Rp1308
(dp1309
g13
VVP
p1310
sbag0
(g1
g2
(lp1311
V.
p1312
atp1313
Rp1314
(dp1315
g13
V.
p1316
sbatp1317
Rp1318
(dp1319
g13
VS
p1320
sbatp1321
Rp1322
(dp1323
g13
S'id: 5'
p1324
sbag0
(g1
g2
(lp1325
g0
(g1
g2
(lp1326
g0
(g1
g2
(lp1327
g0
(g1
g2
(lp1328
VKih
p1329
atp1330
Rp1331
(dp1332
g13
VNNP
p1333
sbatp1334
Rp1335
(dp1336
g13
VNP
p1337
sbag0
(g1
g2
(lp1338
V,
p1339
atp1340
Rp1341
(dp1342
g13
V,
p1343
sbag0
(g1
g2
(lp1344
g0
(g1
g2
(lp1345
Vkih
p1346
atp1347
Rp1348
(dp1349
g13
VNN
p1350
sbatp1351
Rp1352
(dp1353
g13
VNP
p1354
sbag0
(g1
g2
(lp1355
V,
p1356
atp1357
Rp1358
(dp1359
g13
V,
p1360
sbag0
(g1
g2
(lp1361
g0
(g1
g2
(lp1362
g0
(g1
g2
(lp1363
Vshe
p1364
atp1365
Rp1366
(dp1367
g13
VPRP
p1368
sbatp1369
Rp1370
(dp1371
g13
VNP
p1372
sbag0
(g1
g2
(lp1373
g0
(g1
g2
(lp1374
Vhas
p1375
atp1376
Rp1377
(dp1378
g13
VVBZ
p1379
sbatp1380
Rp1381
(dp1382
g13
VVP
p1383
sbatp1384
Rp1385
(dp1386
g13
VS
p1387
sbag0
(g1
g2
(lp1388
V,
p1389
atp1390
Rp1391
(dp1392
g13
V,
p1393
sbag0
(g1
g2
(lp1394
g0
(g1
g2
(lp1395
g0
(g1
g2
(lp1396
Vcurtains
p1397
atp1398
Rp1399
(dp1400
g13
VNNS
p1401
sbatp1402
Rp1403
(dp1404
g13
VNP
p1405
sbag0
(g1
g2
(lp1406
g0
(g1
g2
(lp1407
Von
p1408
atp1409
Rp1410
(dp1411
g13
VIN
p1412
sbag0
(g1
g2
(lp1413
g0
(g1
g2
(lp1414
V,
p1415
atp1416
Rp1417
(dp1418
g13
V,
p1419
sbag0
(g1
g2
(lp1420
g0
(g1
g2
(lp1421
Vat
p1422
atp1423
Rp1424
(dp1425
g13
VIN
p1426
sbag0
(g1
g2
(lp1427
g0
(g1
g2
(lp1428
g0
(g1
g2
(lp1429
Vher
p1430
atp1431
Rp1432
(dp1433
g13
VPRP$
p1434
sbag0
(g1
g2
(lp1435
Vwindow
p1436
atp1437
Rp1438
(dp1439
g13
VNN
p1440
sbatp1441
Rp1442
(dp1443
g13
VNP
p1444
sbag0
(g1
g2
(lp1445
V,
p1446
atp1447
Rp1448
(dp1449
g13
V,
p1450
sbag0
(g1
g2
(lp1451
g0
(g1
g2
(lp1452
g0
(g1
g2
(lp1453
Vwhere
p1454
atp1455
Rp1456
(dp1457
g13
VWRB
p1458
sbatp1459
Rp1460
(dp1461
g13
VWHADVP
p1462
sbag0
(g1
g2
(lp1463
g0
(g1
g2
(lp1464
g0
(g1
g2
(lp1465
Vshe
p1466
atp1467
Rp1468
(dp1469
g13
VPRP
p1470
sbatp1471
Rp1472
(dp1473
g13
VNP
p1474
sbag0
(g1
g2
(lp1475
g0
(g1
g2
(lp1476
Vcan
p1477
atp1478
Rp1479
(dp1480
g13
VMD
p1481
sbag0
(g1
g2
(lp1482
g0
(g1
g2
(lp1483
Vlook
p1484
atp1485
Rp1486
(dp1487
g13
VVB
p1488
sbag0
(g1
g2
(lp1489
g0
(g1
g2
(lp1490
Vout
p1491
atp1492
Rp1493
(dp1494
g13
VIN
p1495
sbatp1496
Rp1497
(dp1498
g13
VPRT
p1499
sbag0
(g1
g2
(lp1500
g0
(g1
g2
(lp1501
Vof
p1502
atp1503
Rp1504
(dp1505
g13
VIN
p1506
sbag0
(g1
g2
(lp1507
g0
(g1
g2
(lp1508
Vher
p1509
atp1510
Rp1511
(dp1512
g13
VPRP
p1513
sbatp1514
Rp1515
(dp1516
g13
VNP
p1517
sbatp1518
Rp1519
(dp1520
g13
VPP
p1521
sbatp1522
Rp1523
(dp1524
g13
VVP
p1525
sbatp1526
Rp1527
(dp1528
g13
VVP
p1529
sbatp1530
Rp1531
(dp1532
g13
VS
p1533
sbatp1534
Rp1535
(dp1536
g13
VSBAR
p1537
sbatp1538
Rp1539
(dp1540
g13
VNP
p1541
sbatp1542
Rp1543
(dp1544
g13
VPP
p1545
sbag0
(g1
g2
(lp1546
V,
p1547
atp1548
Rp1549
(dp1550
g13
V,
p1551
sbatp1552
Rp1553
(dp1554
g13
VPRN
p1555
sbag0
(g1
g2
(lp1556
g0
(g1
g2
(lp1557
g0
(g1
g2
(lp1558
Vher
p1559
atp1560
Rp1561
(dp1562
g13
VPRP$
p1563
sbag0
(g1
g2
(lp1564
Vwindow
p1565
atp1566
Rp1567
(dp1568
g13
VNN
p1569
sbatp1570
Rp1571
(dp1572
g13
VNP
p1573
sbag0
(g1
g2
(lp1574
g0
(g1
g2
(lp1575
Vinto
p1576
atp1577
Rp1578
(dp1579
g13
VIN
p1580
sbag0
(g1
g2
(lp1581
g0
(g1
g2
(lp1582
Vthe
p1583
atp1584
Rp1585
(dp1586
g13
VDT
p1587
sbag0
(g1
g2
(lp1588
Vyard
p1589
atp1590
Rp1591
(dp1592
g13
VNN
p1593
sbatp1594
Rp1595
(dp1596
g13
VNP
p1597
sbatp1598
Rp1599
(dp1600
g13
VPP
p1601
sbatp1602
Rp1603
(dp1604
g13
VNP
p1605
sbatp1606
Rp1607
(dp1608
g13
VPP
p1609
sbatp1610
Rp1611
(dp1612
g13
VNP
p1613
sbag0
(g1
g2
(lp1614
V.
p1615
atp1616
Rp1617
(dp1618
g13
V.
p1619
sbatp1620
Rp1621
(dp1622
g13
VNP
p1623
sbatp1624
Rp1625
(dp1626
g13
S'id: 6'
p1627
sbag0
(g1
g2
(lp1628
g0
(g1
g2
(lp1629
g0
(g1
g2
(lp1630
g0
(g1
g2
(lp1631
g0
(g1
g2
(lp1632
VThere
p1633
atp1634
Rp1635
(dp1636
g13
VEX
p1637
sbatp1638
Rp1639
(dp1640
g13
VNP
p1641
sbag0
(g1
g2
(lp1642
g0
(g1
g2
(lp1643
Vlooks
p1644
atp1645
Rp1646
(dp1647
g13
VVBZ
p1648
sbag0
(g1
g2
(lp1649
g0
(g1
g2
(lp1650
Vlike
p1651
atp1652
Rp1653
(dp1654
g13
VIN
p1655
sbag0
(g1
g2
(lp1656
g0
(g1
g2
(lp1657
g0
(g1
g2
(lp1658
Vthere
p1659
atp1660
Rp1661
(dp1662
g13
VEX
p1663
sbatp1664
Rp1665
(dp1666
g13
VNP
p1667
sbag0
(g1
g2
(lp1668
g0
(g1
g2
(lp1669
Vis
p1670
atp1671
Rp1672
(dp1673
g13
VVBZ
p1674
sbag0
(g1
g2
(lp1675
g0
(g1
g2
(lp1676
g0
(g1
g2
(lp1677
Va
p1678
atp1679
Rp1680
(dp1681
g13
VDT
p1682
sbag0
(g1
g2
(lp1683
Vtree
p1684
atp1685
Rp1686
(dp1687
g13
VNN
p1688
sbatp1689
Rp1690
(dp1691
g13
VNP
p1692
sbag0
(g1
g2
(lp1693
Voutside
p1694
atp1695
Rp1696
(dp1697
g13
VIN
p1698
sbatp1699
Rp1700
(dp1701
g13
VADVP
p1702
sbag0
(g1
g2
(lp1703
g0
(g1
g2
(lp1704
Vof
p1705
atp1706
Rp1707
(dp1708
g13
VIN
p1709
sbatp1710
Rp1711
(dp1712
g13
VPP
p1713
sbatp1714
Rp1715
(dp1716
g13
VVP
p1717
sbatp1718
Rp1719
(dp1720
g13
VS
p1721
sbatp1722
Rp1723
(dp1724
g13
VSBAR
p1725
sbag0
(g1
g2
(lp1726
V,
p1727
atp1728
Rp1729
(dp1730
g13
V,
p1731
sbag0
(g1
g2
(lp1732
g0
(g1
g2
(lp1733
Vno
p1734
atp1735
Rp1736
(dp1737
g13
VDT
p1738
sbag0
(g1
g2
(lp1739
Vmaybe
p1740
atp1741
Rp1742
(dp1743
g13
VRB
p1744
sbag0
(g1
g2
(lp1745
g0
(g1
g2
(lp1746
g0
(g1
g2
(lp1747
g0
(g1
g2
(lp1748
Vthat
p1749
atp1750
Rp1751
(dp1752
g13
VDT
p1753
sbatp1754
Rp1755
(dp1756
g13
VNP
p1757
sbag0
(g1
g2
(lp1758
g0
(g1
g2
(lp1759
V's
p1760
atp1761
Rp1762
(dp1763
g13
VVBZ
p1764
sbag0
(g1
g2
(lp1765
g0
(g1
g2
(lp1766
g0
(g1
g2
(lp1767
Va
p1768
atp1769
Rp1770
(dp1771
g13
VDT
p1772
sbag0
(g1
g2
(lp1773
Vdriveway
p1774
atp1775
Rp1776
(dp1777
g13
VNN
p1778
sbatp1779
Rp1780
(dp1781
g13
VNP
p1782
sbag0
(g1
g2
(lp1783
g0
(g1
g2
(lp1784
g0
(g1
g2
(lp1785
Vthat
p1786
atp1787
Rp1788
(dp1789
g13
VWDT
p1790
sbatp1791
Rp1792
(dp1793
g13
VWHNP
p1794
sbag0
(g1
g2
(lp1795
g0
(g1
g2
(lp1796
g0
(g1
g2
(lp1797
Vhas
p1798
atp1799
Rp1800
(dp1801
g13
VVBZ
p1802
sbag0
(g1
g2
(lp1803
g0
(g1
g2
(lp1804
g0
(g1
g2
(lp1805
Vsome
p1806
atp1807
Rp1808
(dp1809
g13
VDT
p1810
sbatp1811
Rp1812
(dp1813
g13
VNP
p1814
sbag0
(g1
g2
(lp1815
V,
p1816
atp1817
Rp1818
(dp1819
g13
V,
p1820
sbag0
(g1
g2
(lp1821
g0
(g1
g2
(lp1822
Vflowers
p1823
atp1824
Rp1825
(dp1826
g13
VNNS
p1827
sbatp1828
Rp1829
(dp1830
g13
VNP
p1831
sbag0
(g1
g2
(lp1832
Vor
p1833
atp1834
Rp1835
(dp1836
g13
VCC
p1837
sbag0
(g1
g2
(lp1838
g0
(g1
g2
(lp1839
Vsomething
p1840
atp1841
Rp1842
(dp1843
g13
VNN
p1844
sbatp1845
Rp1846
(dp1847
g13
VNP
p1848
sbatp1849
Rp1850
(dp1851
g13
VNP
p1852
sbag0
(g1
g2
(lp1853
g0
(g1
g2
(lp1854
Vat
p1855
atp1856
Rp1857
(dp1858
g13
VIN
p1859
sbag0
(g1
g2
(lp1860
g0
(g1
g2
(lp1861
g0
(g1
g2
(lp1862
Vthe
p1863
atp1864
Rp1865
(dp1866
g13
VDT
p1867
sbag0
(g1
g2
(lp1868
Vend
p1869
atp1870
Rp1871
(dp1872
g13
VNN
p1873
sbatp1874
Rp1875
(dp1876
g13
VNP
p1877
sbag0
(g1
g2
(lp1878
g0
(g1
g2
(lp1879
Vof
p1880
atp1881
Rp1882
(dp1883
g13
VIN
p1884
sbag0
(g1
g2
(lp1885
g0
(g1
g2
(lp1886
Vdriveway
p1887
atp1888
Rp1889
(dp1890
g13
VNN
p1891
sbatp1892
Rp1893
(dp1894
g13
VNP
p1895
sbatp1896
Rp1897
(dp1898
g13
VPP
p1899
sbatp1900
Rp1901
(dp1902
g13
VNP
p1903
sbatp1904
Rp1905
(dp1906
g13
VPP
p1907
sbatp1908
Rp1909
(dp1910
g13
VVP
p1911
sbatp1912
Rp1913
(dp1914
g13
VS
p1915
sbatp1916
Rp1917
(dp1918
g13
VSBAR
p1919
sbatp1920
Rp1921
(dp1922
g13
VNP
p1923
sbatp1924
Rp1925
(dp1926
g13
VVP
p1927
sbatp1928
Rp1929
(dp1930
g13
VS
p1931
sbatp1932
Rp1933
(dp1934
g13
VSBAR
p1935
sbatp1936
Rp1937
(dp1938
g13
VADVP
p1939
sbatp1940
Rp1941
(dp1942
g13
VVP
p1943
sbatp1944
Rp1945
(dp1946
g13
VS
p1947
sbag0
(g1
g2
(lp1948
V,
p1949
atp1950
Rp1951
(dp1952
g13
V,
p1953
sbag0
(g1
g2
(lp1954
Vbut
p1955
atp1956
Rp1957
(dp1958
g13
VCC
p1959
sbag0
(g1
g2
(lp1960
g0
(g1
g2
(lp1961
g0
(g1
g2
(lp1962
Vthat
p1963
atp1964
Rp1965
(dp1966
g13
VDT
p1967
sbatp1968
Rp1969
(dp1970
g13
VNP
p1971
sbag0
(g1
g2
(lp1972
g0
(g1
g2
(lp1973
V's
p1974
atp1975
Rp1976
(dp1977
g13
VVBZ
p1978
sbag0
(g1
g2
(lp1979
g0
(g1
g2
(lp1980
Veither
p1981
atp1982
Rp1983
(dp1984
g13
VRB
p1985
sbatp1986
Rp1987
(dp1988
g13
VADVP
p1989
sbag0
(g1
g2
(lp1990
g0
(g1
g2
(lp1991
g0
(g1
g2
(lp1992
Vanother
p1993
atp1994
Rp1995
(dp1996
g13
VDT
p1997
sbag0
(g1
g2
(lp1998
Vpart
p1999
atp2000
Rp2001
(dp2002
g13
VNN
p2003
sbatp2004
Rp2005
(dp2006
g13
VNP
p2007
sbag0
(g1
g2
(lp2008
g0
(g1
g2
(lp2009
Vof
p2010
atp2011
Rp2012
(dp2013
g13
VIN
p2014
sbag0
(g1
g2
(lp2015
g0
(g1
g2
(lp2016
g0
(g1
g2
(lp2017
Vher
p2018
atp2019
Rp2020
(dp2021
g13
VPRP$
p2022
sbag0
(g1
g2
(lp2023
Vhouse
p2024
atp2025
Rp2026
(dp2027
g13
VNN
p2028
sbatp2029
Rp2030
(dp2031
g13
VNP
p2032
sbag0
(g1
g2
(lp2033
Vor
p2034
atp2035
Rp2036
(dp2037
g13
VCC
p2038
sbag0
(g1
g2
(lp2039
g0
(g1
g2
(lp2040
g0
(g1
g2
(lp2041
Va
p2042
atp2043
Rp2044
(dp2045
g13
VDT
p2046
sbag0
(g1
g2
(lp2047
Vneighbor
p2048
atp2049
Rp2050
(dp2051
g13
VNN
p2052
sbag0
(g1
g2
(lp2053
V's
p2054
atp2055
Rp2056
(dp2057
g13
VPOS
p2058
sbatp2059
Rp2060
(dp2061
g13
VNP
p2062
sbag0
(g1
g2
(lp2063
Vhouse
p2064
atp2065
Rp2066
(dp2067
g13
VNN
p2068
sbatp2069
Rp2070
(dp2071
g13
VNP
p2072
sbatp2073
Rp2074
(dp2075
g13
VNP
p2076
sbatp2077
Rp2078
(dp2079
g13
VPP
p2080
sbatp2081
Rp2082
(dp2083
g13
VNP
p2084
sbag0
(g1
g2
(lp2085
g0
(g1
g2
(lp2086
Vthat
p2087
atp2088
Rp2089
(dp2090
g13
VIN
p2091
sbag0
(g1
g2
(lp2092
g0
(g1
g2
(lp2093
g0
(g1
g2
(lp2094
Vshe
p2095
atp2096
Rp2097
(dp2098
g13
VPRP
p2099
sbatp2100
Rp2101
(dp2102
g13
VNP
p2103
sbag0
(g1
g2
(lp2104
g0
(g1
g2
(lp2105
Vcan
p2106
atp2107
Rp2108
(dp2109
g13
VMD
p2110
sbag0
(g1
g2
(lp2111
g0
(g1
g2
(lp2112
Vlook
p2113
atp2114
Rp2115
(dp2116
g13
VVB
p2117
sbag0
(g1
g2
(lp2118
g0
(g1
g2
(lp2119
Vout
p2120
atp2121
Rp2122
(dp2123
g13
VIN
p2124
sbag0
(g1
g2
(lp2125
g0
(g1
g2
(lp2126
Vof
p2127
atp2128
Rp2129
(dp2130
g13
VIN
p2131
sbag0
(g1
g2
(lp2132
g0
(g1
g2
(lp2133
Vher
p2134
atp2135
Rp2136
(dp2137
g13
VPRP$
p2138
sbag0
(g1
g2
(lp2139
Vwindow
p2140
atp2141
Rp2142
(dp2143
g13
VNN
p2144
sbatp2145
Rp2146
(dp2147
g13
VNP
p2148
sbatp2149
Rp2150
(dp2151
g13
VPP
p2152
sbatp2153
Rp2154
(dp2155
g13
VADVP
p2156
sbag0
(g1
g2
(lp2157
g0
(g1
g2
(lp2158
Vat
p2159
atp2160
Rp2161
(dp2162
g13
VIN
p2163
sbatp2164
Rp2165
(dp2166
g13
VPP
p2167
sbatp2168
Rp2169
(dp2170
g13
VVP
p2171
sbatp2172
Rp2173
(dp2174
g13
VVP
p2175
sbatp2176
Rp2177
(dp2178
g13
VS
p2179
sbatp2180
Rp2181
(dp2182
g13
VSBAR
p2183
sbatp2184
Rp2185
(dp2186
g13
VVP
p2187
sbatp2188
Rp2189
(dp2190
g13
VS
p2191
sbag0
(g1
g2
(lp2192
V.
p2193
atp2194
Rp2195
(dp2196
g13
V.
p2197
sbatp2198
Rp2199
(dp2200
g13
VS
p2201
sbatp2202
Rp2203
(dp2204
g13
S'id: 7'
p2205
sbag0
(g1
g2
(lp2206
g0
(g1
g2
(lp2207
g0
(g1
g2
(lp2208
VSo
p2209
atp2210
Rp2211
(dp2212
g13
VRB
p2213
sbag0
(g1
g2
(lp2214
g0
(g1
g2
(lp2215
g0
(g1
g2
(lp2216
Vthere
p2217
atp2218
Rp2219
(dp2220
g13
VEX
p2221
sbatp2222
Rp2223
(dp2224
g13
VNP
p2225
sbag0
(g1
g2
(lp2226
g0
(g1
g2
(lp2227
Vactually
p2228
atp2229
Rp2230
(dp2231
g13
VRB
p2232
sbatp2233
Rp2234
(dp2235
g13
VADVP
p2236
sbag0
(g1
g2
(lp2237
g0
(g1
g2
(lp2238
Vlook
p2239
atp2240
Rp2241
(dp2242
g13
VVB
p2243
sbag0
(g1
g2
(lp2244
g0
(g1
g2
(lp2245
Vlike
p2246
atp2247
Rp2248
(dp2249
g13
VIN
p2250
sbag0
(g1
g2
(lp2251
g0
(g1
g2
(lp2252
g0
(g1
g2
(lp2253
Vtwo
p2254
atp2255
Rp2256
(dp2257
g13
VCD
p2258
sbag0
(g1
g2
(lp2259
Vcatastrophes
p2260
atp2261
Rp2262
(dp2263
g13
VNNS
p2264
sbatp2265
Rp2266
(dp2267
g13
VNP
p2268
sbag0
(g1
g2
(lp2269
g0
(g1
g2
(lp2270
Vgoing
p2271
atp2272
Rp2273
(dp2274
g13
VVBG
p2275
sbag0
(g1
g2
(lp2276
g0
(g1
g2
(lp2277
Von
p2278
atp2279
Rp2280
(dp2281
g13
VIN
p2282
sbag0
(g1
g2
(lp2283
Vat
p2284
atp2285
Rp2286
(dp2287
g13
VIN
p2288
sbag0
(g1
g2
(lp2289
g0
(g1
g2
(lp2290
g0
(g1
g2
(lp2291
Vthe
p2292
atp2293
Rp2294
(dp2295
g13
VDT
p2296
sbag0
(g1
g2
(lp2297
Vsame
p2298
atp2299
Rp2300
(dp2301
g13
VJJ
p2302
sbag0
(g1
g2
(lp2303
Vtime
p2304
atp2305
Rp2306
(dp2307
g13
VNN
p2308
sbatp2309
Rp2310
(dp2311
g13
VNP
p2312
sbag0
(g1
g2
(lp2313
V,
p2314
atp2315
Rp2316
(dp2317
g13
V,
p2318
sbag0
(g1
g2
(lp2319
g0
(g1
g2
(lp2320
Vthe
p2321
atp2322
Rp2323
(dp2324
g13
VDT
p2325
sbag0
(g1
g2
(lp2326
Vsink
p2327
atp2328
Rp2329
(dp2330
g13
VNN
p2331
sbag0
(g1
g2
(lp2332
Voverflowing
p2333
atp2334
Rp2335
(dp2336
g13
VVBG
p2337
sbatp2338
Rp2339
(dp2340
g13
VNP
p2341
sbatp2342
Rp2343
(dp2344
g13
VNP
p2345
sbatp2346
Rp2347
(dp2348
g13
VPP
p2349
sbatp2350
Rp2351
(dp2352
g13
VVP
p2353
sbatp2354
Rp2355
(dp2356
g13
VNP
p2357
sbatp2358
Rp2359
(dp2360
g13
VPP
p2361
sbatp2362
Rp2363
(dp2364
g13
VVP
p2365
sbatp2366
Rp2367
(dp2368
g13
VS
p2369
sbag0
(g1
g2
(lp2370
V,
p2371
atp2372
Rp2373
(dp2374
g13
V,
p2375
sbag0
(g1
g2
(lp2376
Vand
p2377
atp2378
Rp2379
(dp2380
g13
VCC
p2381
sbag0
(g1
g2
(lp2382
g0
(g1
g2
(lp2383
g0
(g1
g2
(lp2384
g0
(g1
g2
(lp2385
Vthe
p2386
atp2387
Rp2388
(dp2389
g13
VDT
p2390
sbag0
(g1
g2
(lp2391
Vson
p2392
atp2393
Rp2394
(dp2395
g13
VNN
p2396
sbatp2397
Rp2398
(dp2399
g13
VNP
p2400
sbag0
(g1
g2
(lp2401
g0
(g1
g2
(lp2402
Vabout
p2403
atp2404
Rp2405
(dp2406
g13
VIN
p2407
sbatp2408
Rp2409
(dp2410
g13
VADVP
p2411
sbatp2412
Rp2413
(dp2414
g13
VNP
p2415
sbag0
(g1
g2
(lp2416
g0
(g1
g2
(lp2417
Vto
p2418
atp2419
Rp2420
(dp2421
g13
VTO
p2422
sbag0
(g1
g2
(lp2423
g0
(g1
g2
(lp2424
Vfall
p2425
atp2426
Rp2427
(dp2428
g13
VVB
p2429
sbag0
(g1
g2
(lp2430
g0
(g1
g2
(lp2431
Voff
p2432
atp2433
Rp2434
(dp2435
g13
VIN
p2436
sbatp2437
Rp2438
(dp2439
g13
VPRT
p2440
sbag0
(g1
g2
(lp2441
g0
(g1
g2
(lp2442
Vof
p2443
atp2444
Rp2445
(dp2446
g13
VIN
p2447
sbag0
(g1
g2
(lp2448
g0
(g1
g2
(lp2449
Vthe
p2450
atp2451
Rp2452
(dp2453
g13
VDT
p2454
sbag0
(g1
g2
(lp2455
Vstool
p2456
atp2457
Rp2458
(dp2459
g13
VNN
p2460
sbatp2461
Rp2462
(dp2463
g13
VNP
p2464
sbatp2465
Rp2466
(dp2467
g13
VPP
p2468
sbatp2469
Rp2470
(dp2471
g13
VVP
p2472
sbatp2473
Rp2474
(dp2475
g13
VVP
p2476
sbatp2477
Rp2478
(dp2479
g13
VS
p2480
sbag0
(g1
g2
(lp2481
V.
p2482
atp2483
Rp2484
(dp2485
g13
V.
p2486
sbatp2487
Rp2488
(dp2489
g13
VS
p2490
sbatp2491
Rp2492
(dp2493
g13
S'id: 8'
p2494
sbag0
(g1
g2
(lp2495
g0
(g1
g2
(lp2496
g0
(g1
g2
(lp2497
g0
(g1
g2
(lp2498
VShe
p2499
atp2500
Rp2501
(dp2502
g13
VPRP
p2503
sbatp2504
Rp2505
(dp2506
g13
VNP
p2507
sbag0
(g1
g2
(lp2508
g0
(g1
g2
(lp2509
V's
p2510
atp2511
Rp2512
(dp2513
g13
VVBZ
p2514
sbag0
(g1
g2
(lp2515
g0
(g1
g2
(lp2516
Vgot
p2517
atp2518
Rp2519
(dp2520
g13
VVBD
p2521
sbag0
(g1
g2
(lp2522
g0
(g1
g2
(lp2523
g0
(g1
g2
(lp2524
g0
(g1
g2
(lp2525
Vsome
p2526
atp2527
Rp2528
(dp2529
g13
VDT
p2530
sbag0
(g1
g2
(lp2531
Vdishes
p2532
atp2533
Rp2534
(dp2535
g13
VNNS
p2536
sbatp2537
Rp2538
(dp2539
g13
VNP
p2540
sbag0
(g1
g2
(lp2541
g0
(g1
g2
(lp2542
g0
(g1
g2
(lp2543
Vdried
p2544
atp2545
Rp2546
(dp2547
g13
VVBD
p2548
sbatp2549
Rp2550
(dp2551
g13
VVP
p2552
sbag0
(g1
g2
(lp2553
V,
p2554
atp2555
Rp2556
(dp2557
g13
V,
p2558
sbag0
(g1
g2
(lp2559
Vbut
p2560
atp2561
Rp2562
(dp2563
g13
VCC
p2564
sbag0
(g1
g2
(lp2565
g0
(g1
g2
(lp2566
Vlooks
p2567
atp2568
Rp2569
(dp2570
g13
VVBZ
p2571
sbag0
(g1
g2
(lp2572
g0
(g1
g2
(lp2573
Vlike
p2574
atp2575
Rp2576
(dp2577
g13
VIN
p2578
sbag0
(g1
g2
(lp2579
g0
(g1
g2
(lp2580
g0
(g1
g2
(lp2581
Vshe
p2582
atp2583
Rp2584
(dp2585
g13
VPRP
p2586
sbatp2587
Rp2588
(dp2589
g13
VNP
p2590
sbag0
(g1
g2
(lp2591
g0
(g1
g2
(lp2592
Vforgot
p2593
atp2594
Rp2595
(dp2596
g13
VVBD
p2597
sbag0
(g1
g2
(lp2598
g0
(g1
g2
(lp2599
g0
(g1
g2
(lp2600
Vto
p2601
atp2602
Rp2603
(dp2604
g13
VTO
p2605
sbag0
(g1
g2
(lp2606
g0
(g1
g2
(lp2607
Vturn
p2608
atp2609
Rp2610
(dp2611
g13
VVB
p2612
sbag0
(g1
g2
(lp2613
g0
(g1
g2
(lp2614
Vthe
p2615
atp2616
Rp2617
(dp2618
g13
VDT
p2619
sbag0
(g1
g2
(lp2620
Vfaucet
p2621
atp2622
Rp2623
(dp2624
g13
VNN
p2625
sbatp2626
Rp2627
(dp2628
g13
VNP
p2629
sbag0
(g1
g2
(lp2630
g0
(g1
g2
(lp2631
Voff
p2632
atp2633
Rp2634
(dp2635
g13
VRP
p2636
sbatp2637
Rp2638
(dp2639
g13
VPRT
p2640
sbatp2641
Rp2642
(dp2643
g13
VVP
p2644
sbatp2645
Rp2646
(dp2647
g13
VVP
p2648
sbatp2649
Rp2650
(dp2651
g13
VS
p2652
sbatp2653
Rp2654
(dp2655
g13
VVP
p2656
sbatp2657
Rp2658
(dp2659
g13
VS
p2660
sbatp2661
Rp2662
(dp2663
g13
VSBAR
p2664
sbatp2665
Rp2666
(dp2667
g13
VVP
p2668
sbatp2669
Rp2670
(dp2671
g13
VVP
p2672
sbatp2673
Rp2674
(dp2675
g13
VS
p2676
sbatp2677
Rp2678
(dp2679
g13
VSBAR
p2680
sbatp2681
Rp2682
(dp2683
g13
VVP
p2684
sbatp2685
Rp2686
(dp2687
g13
VVP
p2688
sbag0
(g1
g2
(lp2689
V.
p2690
atp2691
Rp2692
(dp2693
g13
V.
p2694
sbatp2695
Rp2696
(dp2697
g13
VS
p2698
sbatp2699
Rp2700
(dp2701
g13
S'id: 9'
p2702
sbag0
(g1
g2
(lp2703
g0
(g1
g2
(lp2704
g0
(g1
g2
(lp2705
VAnd
p2706
atp2707
Rp2708
(dp2709
g13
VCC
p2710
sbag0
(g1
g2
(lp2711
g0
(g1
g2
(lp2712
Vthe
p2713
atp2714
Rp2715
(dp2716
g13
VDT
p2717
sbag0
(g1
g2
(lp2718
Vdaughter
p2719
atp2720
Rp2721
(dp2722
g13
VNN
p2723
sbatp2724
Rp2725
(dp2726
g13
VNP
p2727
sbag0
(g1
g2
(lp2728
g0
(g1
g2
(lp2729
Vlooks
p2730
atp2731
Rp2732
(dp2733
g13
VVBZ
p2734
sbag0
(g1
g2
(lp2735
g0
(g1
g2
(lp2736
Vlike
p2737
atp2738
Rp2739
(dp2740
g13
VIN
p2741
sbag0
(g1
g2
(lp2742
g0
(g1
g2
(lp2743
g0
(g1
g2
(lp2744
Vshe
p2745
atp2746
Rp2747
(dp2748
g13
VPRP
p2749
sbatp2750
Rp2751
(dp2752
g13
VNP
p2753
sbag0
(g1
g2
(lp2754
g0
(g1
g2
(lp2755
Vmight
p2756
atp2757
Rp2758
(dp2759
g13
VMD
p2760
sbag0
(g1
g2
(lp2761
g0
(g1
g2
(lp2762
Vbe
p2763
atp2764
Rp2765
(dp2766
g13
VVB
p2767
sbag0
(g1
g2
(lp2768
g0
(g1
g2
(lp2769
Vlaughing
p2770
atp2771
Rp2772
(dp2773
g13
VVBG
p2774
sbag0
(g1
g2
(lp2775
g0
(g1
g2
(lp2776
Va
p2777
atp2778
Rp2779
(dp2780
g13
VDT
p2781
sbag0
(g1
g2
(lp2782
Vlittle
p2783
atp2784
Rp2785
(dp2786
g13
VJJ
p2787
sbag0
(g1
g2
(lp2788
Vbit
p2789
atp2790
Rp2791
(dp2792
g13
VNN
p2793
sbatp2794
Rp2795
(dp2796
g13
VNP
p2797
sbag0
(g1
g2
(lp2798
g0
(g1
g2
(lp2799
Vthat
p2800
atp2801
Rp2802
(dp2803
g13
VIN
p2804
sbag0
(g1
g2
(lp2805
g0
(g1
g2
(lp2806
g0
(g1
g2
(lp2807
Vhe
p2808
atp2809
Rp2810
(dp2811
g13
VPRP
p2812
sbatp2813
Rp2814
(dp2815
g13
VNP
p2816
sbag0
(g1
g2
(lp2817
g0
(g1
g2
(lp2818
V's
p2819
atp2820
Rp2821
(dp2822
g13
VVBZ
p2823
sbag0
(g1
g2
(lp2824
g0
(g1
g2
(lp2825
Vactually
p2826
atp2827
Rp2828
(dp2829
g13
VRB
p2830
sbatp2831
Rp2832
(dp2833
g13
VADVP
p2834
sbag0
(g1
g2
(lp2835
g0
(g1
g2
(lp2836
Vabout
p2837
atp2838
Rp2839
(dp2840
g13
VIN
p2841
sbag0
(g1
g2
(lp2842
g0
(g1
g2
(lp2843
g0
(g1
g2
(lp2844
Vto
p2845
atp2846
Rp2847
(dp2848
g13
VTO
p2849
sbag0
(g1
g2
(lp2850
g0
(g1
g2
(lp2851
Vfall
p2852
atp2853
Rp2854
(dp2855
g13
VVB
p2856
sbag0
(g1
g2
(lp2857
V,
p2858
atp2859
Rp2860
(dp2861
g13
V,
p2862
sbag0
(g1
g2
(lp2863
g0
(g1
g2
(lp2864
g0
(g1
g2
(lp2865
Vbeing
p2866
atp2867
Rp2868
(dp2869
g13
VVBG
p2870
sbag0
(g1
g2
(lp2871
g0
(g1
g2
(lp2872
Va
p2873
atp2874
Rp2875
(dp2876
g13
VDT
p2877
sbag0
(g1
g2
(lp2878
Vtypical
p2879
atp2880
Rp2881
(dp2882
g13
VJJ
p2883
sbag0
(g1
g2
(lp2884
Vsister
p2885
atp2886
Rp2887
(dp2888
g13
VNN
p2889
sbag0
(g1
g2
(lp2890
Vmaybe
p2891
atp2892
Rp2893
(dp2894
g13
VRB
p2895
sbatp2896
Rp2897
(dp2898
g13
VNP
p2899
sbatp2900
Rp2901
(dp2902
g13
VVP
p2903
sbatp2904
Rp2905
(dp2906
g13
VS
p2907
sbatp2908
Rp2909
(dp2910
g13
VVP
p2911
sbatp2912
Rp2913
(dp2914
g13
VVP
p2915
sbatp2916
Rp2917
(dp2918
g13
VS
p2919
sbatp2920
Rp2921
(dp2922
g13
VVP
p2923
sbatp2924
Rp2925
(dp2926
g13
VVP
p2927
sbatp2928
Rp2929
(dp2930
g13
VS
p2931
sbatp2932
Rp2933
(dp2934
g13
VSBAR
p2935
sbatp2936
Rp2937
(dp2938
g13
VVP
p2939
sbatp2940
Rp2941
(dp2942
g13
VVP
p2943
sbatp2944
Rp2945
(dp2946
g13
VVP
p2947
sbatp2948
Rp2949
(dp2950
g13
VS
p2951
sbatp2952
Rp2953
(dp2954
g13
VSBAR
p2955
sbatp2956
Rp2957
(dp2958
g13
VVP
p2959
sbag0
(g1
g2
(lp2960
V.
p2961
atp2962
Rp2963
(dp2964
g13
V.
p2965
sbatp2966
Rp2967
(dp2968
g13
VS
p2969
sbatp2970
Rp2971
(dp2972
g13
S'id: 10'
p2973
sbag0
(g1
g2
(lp2974
g0
(g1
g2
(lp2975
g0
(g1
g2
(lp2976
g0
(g1
g2
(lp2977
VThe
p2978
atp2979
Rp2980
(dp2981
g13
VDT
p2982
sbag0
(g1
g2
(lp2983
Vchildren
p2984
atp2985
Rp2986
(dp2987
g13
VNNS
p2988
sbatp2989
Rp2990
(dp2991
g13
VNP
p2992
sbag0
(g1
g2
(lp2993
g0
(g1
g2
(lp2994
Vare
p2995
atp2996
Rp2997
(dp2998
g13
VVBP
p2999
sbag0
(g1
g2
(lp3000
g0
(g1
g2
(lp3001
Vvery
p3002
atp3003
Rp3004
(dp3005
g13
VRB
p3006
sbag0
(g1
g2
(lp3007
Vneat
p3008
atp3009
Rp3010
(dp3011
g13
VJJ
p3012
sbatp3013
Rp3014
(dp3015
g13
VADJP
p3016
sbatp3017
Rp3018
(dp3019
g13
VVP
p3020
sbatp3021
Rp3022
(dp3023
g13
VS
p3024
sbatp3025
Rp3026
(dp3027
g13
S'id: 11'
p3028
sbatp3029
Rp3030
(dp3031
g13
S'sentences'
p3032
sb.