ccopy_reg
_reconstructor
p0
(cnltk.tree
Tree
p1
c__builtin__
list
p2
(lp3
g0
(g1
g2
(lp4
g0
(g1
g2
(lp5
g0
(g1
g2
(lp6
Vok .
p7
atp8
Rp9
(dp10
S'_label'
p11
S'start: 1'
p12
sbatp13
Rp14
(dp15
g11
S'sent: 1'
p16
sbag0
(g1
g2
(lp17
g0
(g1
g2
(lp18
Vok .
p19
atp20
Rp21
(dp22
g11
S'start: 1'
p23
sbatp24
Rp25
(dp26
g11
S'sent: 3'
p27
sbatp28
Rp29
(dp30
g11
S'id: 1'
p31
sbag0
(g1
g2
(lp32
g0
(g1
g2
(lp33
g0
(g1
g2
(lp34
Vthe man and her daughter
p35
atp36
Rp37
(dp38
g11
S'start: 1'
p39
sbatp40
Rp41
(dp42
g11
S'sent: 4'
p43
sbag0
(g1
g2
(lp44
g0
(g1
g2
(lp45
Va klow , boutcorn , popcorn , rasor
p46
atp47
Rp48
(dp49
g11
S'start: 7'
p50
sbatp51
Rp52
(dp53
g11
S'sent: 4'
p54
sbag0
(g1
g2
(lp55
g0
(g1
g2
(lp56
Va klow
p57
atp58
Rp59
(dp60
g11
S'start: 7'
p61
sbatp62
Rp63
(dp64
g11
S'sent: 4'
p65
sbatp66
Rp67
(dp68
g11
S'id: 5'
p69
sbag0
(g1
g2
(lp70
g0
(g1
g2
(lp71
g0
(g1
g2
(lp72
Vthe man
p73
atp74
Rp75
(dp76
g11
S'start: 1'
p77
sbatp78
Rp79
(dp80
g11
S'sent: 4'
p81
sbag0
(g1
g2
(lp82
g0
(g1
g2
(lp83
Vthe man
p84
atp85
Rp86
(dp87
g11
S'start: 7'
p88
sbatp89
Rp90
(dp91
g11
S'sent: 12'
p92
sbatp93
Rp94
(dp95
g11
S'id: 6'
p96
sbag0
(g1
g2
(lp97
g0
(g1
g2
(lp98
g0
(g1
g2
(lp99
Vher daughter
p100
atp101
Rp102
(dp103
g11
S'start: 4'
p104
sbatp105
Rp106
(dp107
g11
S'sent: 4'
p108
sbag0
(g1
g2
(lp109
g0
(g1
g2
(lp110
Vhis daughter
p111
atp112
Rp113
(dp114
g11
S'start: 10'
p115
sbatp116
Rp117
(dp118
g11
S'sent: 12'
p119
sbatp120
Rp121
(dp122
g11
S'id: 7'
p123
sbag0
(g1
g2
(lp124
g0
(g1
g2
(lp125
g0
(g1
g2
(lp126
Vthe guy
p127
atp128
Rp129
(dp130
g11
S'start: 1'
p131
sbatp132
Rp133
(dp134
g11
S'sent: 5'
p135
sbag0
(g1
g2
(lp136
g0
(g1
g2
(lp137
Vhe
p138
atp139
Rp140
(dp141
g11
S'start: 5'
p142
sbatp143
Rp144
(dp145
g11
S'sent: 5'
p146
sbag0
(g1
g2
(lp147
g0
(g1
g2
(lp148
Vhis
p149
atp150
Rp151
(dp152
g11
S'start: 8'
p153
sbatp154
Rp155
(dp156
g11
S'sent: 6'
p157
sbatp158
Rp159
(dp160
g11
S'id: 11'
p161
sbag0
(g1
g2
(lp162
g0
(g1
g2
(lp163
g0
(g1
g2
(lp164
Vthe little girl
p165
atp166
Rp167
(dp168
g11
S'start: 2'
p169
sbatp170
Rp171
(dp172
g11
S'sent: 6'
p173
sbag0
(g1
g2
(lp174
g0
(g1
g2
(lp175
Vher
p176
atp177
Rp178
(dp179
g11
S'start: 6'
p180
sbatp181
Rp182
(dp183
g11
S'sent: 7'
p184
sbag0
(g1
g2
(lp185
g0
(g1
g2
(lp186
Vher
p187
atp188
Rp189
(dp190
g11
S'start: 11'
p191
sbatp192
Rp193
(dp194
g11
S'sent: 8'
p195
sbag0
(g1
g2
(lp196
g0
(g1
g2
(lp197
Vshe looking around
p198
atp199
Rp200
(dp201
g11
S'start: 16'
p202
sbatp203
Rp204
(dp205
g11
S'sent: 8'
p206
sbatp207
Rp208
(dp209
g11
S'id: 13'
p210
sbag0
(g1
g2
(lp211
g0
(g1
g2
(lp212
g0
(g1
g2
(lp213
Vthe circus
p214
atp215
Rp216
(dp217
g11
S'start: 5'
p218
sbatp219
Rp220
(dp221
g11
S'sent: 9'
p222
sbag0
(g1
g2
(lp223
g0
(g1
g2
(lp224
Vthe big part
p225
atp226
Rp227
(dp228
g11
S'start: 8'
p229
sbatp230
Rp231
(dp232
g11
S'sent: 9'
p233
sbatp234
Rp235
(dp236
g11
S'id: 30'
p237
sbag0
(g1
g2
(lp238
g0
(g1
g2
(lp239
g0
(g1
g2
(lp240
Va linon
p241
atp242
Rp243
(dp244
g11
S'start: 2'
p245
sbatp246
Rp247
(dp248
g11
S'sent: 10'
p249
sbag0
(g1
g2
(lp250
g0
(g1
g2
(lp251
Vhe
p252
atp253
Rp254
(dp255
g11
S'start: 9'
p256
sbatp257
Rp258
(dp259
g11
S'sent: 10'
p260
sbag0
(g1
g2
(lp261
g0
(g1
g2
(lp262
Vhe
p263
atp264
Rp265
(dp266
g11
S'start: 11'
p267
sbatp268
Rp269
(dp270
g11
S'sent: 10'
p271
sbag0
(g1
g2
(lp272
g0
(g1
g2
(lp273
Vhis
p274
atp275
Rp276
(dp277
g11
S'start: 13'
p278
sbatp279
Rp280
(dp281
g11
S'sent: 10'
p282
sbatp283
Rp284
(dp285
g11
S'id: 33'
p286
sbag0
(g1
g2
(lp287
g0
(g1
g2
(lp288
g0
(g1
g2
(lp289
Vhis arm
p290
atp291
Rp292
(dp293
g11
S'start: 13'
p294
sbatp295
Rp296
(dp297
g11
S'sent: 10'
p298
sbag0
(g1
g2
(lp299
g0
(g1
g2
(lp300
Vthat
p301
atp302
Rp303
(dp304
g11
S'start: 20'
p305
sbatp306
Rp307
(dp308
g11
S'sent: 10'
p309
sbatp310
Rp311
(dp312
g11
S'id: 37'
p313
sbag0
(g1
g2
(lp314
g0
(g1
g2
(lp315
g0
(g1
g2
(lp316
VThe little boy
p317
atp318
Rp319
(dp320
g11
S'start: 1'
p321
sbatp322
Rp323
(dp324
g11
S'sent: 12'
p325
sbag0
(g1
g2
(lp326
g0
(g1
g2
(lp327
Vhis
p328
atp329
Rp330
(dp331
g11
S'start: 10'
p332
sbatp333
Rp334
(dp335
g11
S'sent: 12'
p336
sbatp337
Rp338
(dp339
g11
S'id: 43'
p340
sbatp341
Rp342
(dp343
g11
S'coreferences'
p344
sb.