ccopy_reg
_reconstructor
p0
(cnltk.tree
Tree
p1
c__builtin__
list
p2
(lp3
g0
(g1
g2
(lp4
g0
(g1
g2
(lp5
g0
(g1
g2
(lp6
g0
(g1
g2
(lp7
Vbay
p8
atp9
Rp10
(dp11
S'_label'
p12
VNN
p13
sbatp14
Rp15
(dp16
g12
VNP
p17
sbag0
(g1
g2
(lp18
g0
(g1
g2
(lp19
Vdied
p20
atp21
Rp22
(dp23
g12
VVBD
p24
sbatp25
Rp26
(dp27
g12
VVP
p28
sbag0
(g1
g2
(lp29
V.
p30
atp31
Rp32
(dp33
g12
V.
p34
sbatp35
Rp36
(dp37
g12
VS
p38
sbatp39
Rp40
(dp41
g12
S'id: 0'
p42
sbag0
(g1
g2
(lp43
g0
(g1
g2
(lp44
g0
(g1
g2
(lp45
g0
(g1
g2
(lp46
Va
p47
atp48
Rp49
(dp50
g12
VDT
p51
sbag0
(g1
g2
(lp52
Vbay
p53
atp54
Rp55
(dp56
g12
VNN
p57
sbatp58
Rp59
(dp60
g12
VNP
p61
sbag0
(g1
g2
(lp62
g0
(g1
g2
(lp63
g0
(g1
g2
(lp64
Vdied
p65
atp66
Rp67
(dp68
g12
VVBD
p69
sbatp70
Rp71
(dp72
g12
VVP
p73
sbag0
(g1
g2
(lp74
V,
p75
atp76
Rp77
(dp78
g12
V,
p79
sbag0
(g1
g2
(lp80
Vand
p81
atp82
Rp83
(dp84
g12
VCC
p85
sbag0
(g1
g2
(lp86
g0
(g1
g2
(lp87
g0
(g1
g2
(lp88
Vhorses
p89
atp90
Rp91
(dp92
g12
VNNS
p93
sbatp94
Rp95
(dp96
g12
VNP
p97
sbatp98
Rp99
(dp100
g12
VVP
p101
sbatp102
Rp103
(dp104
g12
VVP
p105
sbag0
(g1
g2
(lp106
V.
p107
atp108
Rp109
(dp110
g12
V.
p111
sbatp112
Rp113
(dp114
g12
VS
p115
sbatp116
Rp117
(dp118
g12
S'id: 1'
p119
sbag0
(g1
g2
(lp120
g0
(g1
g2
(lp121
g0
(g1
g2
(lp122
VNothin
p123
atp124
Rp125
(dp126
g12
VNN
p127
sbag0
(g1
g2
(lp128
V.
p129
atp130
Rp131
(dp132
g12
V.
p133
sbatp134
Rp135
(dp136
g12
VNP
p137
sbatp138
Rp139
(dp140
g12
S'id: 2'
p141
sbag0
(g1
g2
(lp142
g0
(g1
g2
(lp143
g0
(g1
g2
(lp144
VAnd
p145
atp146
Rp147
(dp148
g12
VCC
p149
sbag0
(g1
g2
(lp150
g0
(g1
g2
(lp151
g0
(g1
g2
(lp152
Vmy
p153
atp154
Rp155
(dp156
g12
VPRP$
p157
sbatp158
Rp159
(dp160
g12
VNP
p161
sbag0
(g1
g2
(lp162
g0
(g1
g2
(lp163
Vtiger
p164
atp165
Rp166
(dp167
g12
VNN
p168
sbatp169
Rp170
(dp171
g12
VNP
p172
sbatp173
Rp174
(dp175
g12
VNP
p176
sbag0
(g1
g2
(lp177
V.
p178
atp179
Rp180
(dp181
g12
V.
p182
sbatp183
Rp184
(dp185
g12
VFRAG
p186
sbatp187
Rp188
(dp189
g12
S'id: 3'
p190
sbag0
(g1
g2
(lp191
g0
(g1
g2
(lp192
g0
(g1
g2
(lp193
g0
(g1
g2
(lp194
VTium
p195
atp196
Rp197
(dp198
g12
VNNP
p199
sbatp200
Rp201
(dp202
g12
VNP
p203
sbag0
(g1
g2
(lp204
V,
p205
atp206
Rp207
(dp208
g12
V,
p209
sbag0
(g1
g2
(lp210
g0
(g1
g2
(lp211
g0
(g1
g2
(lp212
Vring
p213
atp214
Rp215
(dp216
g12
VNN
p217
sbatp218
Rp219
(dp220
g12
VNP
p221
sbag0
(g1
g2
(lp222
V,
p223
atp224
Rp225
(dp226
g12
V,
p227
sbag0
(g1
g2
(lp228
g0
(g1
g2
(lp229
Vround
p230
atp231
Rp232
(dp233
g12
VJJ
p234
sbag0
(g1
g2
(lp235
Vthings
p236
atp237
Rp238
(dp239
g12
VNNS
p240
sbatp241
Rp242
(dp243
g12
VNP
p244
sbatp245
Rp246
(dp247
g12
VNP
p248
sbag0
(g1
g2
(lp249
V.
p250
atp251
Rp252
(dp253
g12
V.
p254
sbatp255
Rp256
(dp257
g12
VNP
p258
sbatp259
Rp260
(dp261
g12
S'id: 4'
p262
sbag0
(g1
g2
(lp263
g0
(g1
g2
(lp264
g0
(g1
g2
(lp265
g0
(g1
g2
(lp266
VPopporn
p267
atp268
Rp269
(dp270
g12
VNNP
p271
sbatp272
Rp273
(dp274
g12
VNP
p275
sbag0
(g1
g2
(lp276
V.
p277
atp278
Rp279
(dp280
g12
V.
p281
sbatp282
Rp283
(dp284
g12
VFRAG
p285
sbatp286
Rp287
(dp288
g12
S'id: 5'
p289
sbag0
(g1
g2
(lp290
g0
(g1
g2
(lp291
g0
(g1
g2
(lp292
g0
(g1
g2
(lp293
VI
p294
atp295
Rp296
(dp297
g12
VPRP
p298
sbatp299
Rp300
(dp301
g12
VNP
p302
sbag0
(g1
g2
(lp303
g0
(g1
g2
(lp304
Vknow
p305
atp306
Rp307
(dp308
g12
VVBP
p309
sbatp310
Rp311
(dp312
g12
VVP
p313
sbag0
(g1
g2
(lp314
V.
p315
atp316
Rp317
(dp318
g12
V.
p319
sbatp320
Rp321
(dp322
g12
VS
p323
sbatp324
Rp325
(dp326
g12
S'id: 6'
p327
sbag0
(g1
g2
(lp328
g0
(g1
g2
(lp329
g0
(g1
g2
(lp330
VYeah
p331
atp332
Rp333
(dp334
g12
VUH
p335
sbag0
(g1
g2
(lp336
V.
p337
atp338
Rp339
(dp340
g12
V.
p341
sbatp342
Rp343
(dp344
g12
VINTJ
p345
sbatp346
Rp347
(dp348
g12
S'id: 7'
p349
sbag0
(g1
g2
(lp350
g0
(g1
g2
(lp351
g0
(g1
g2
(lp352
g0
(g1
g2
(lp353
VBefore
p354
atp355
Rp356
(dp357
g12
VIN
p358
sbatp359
Rp360
(dp361
g12
VPP
p362
sbag0
(g1
g2
(lp363
V.
p364
atp365
Rp366
(dp367
g12
V.
p368
sbatp369
Rp370
(dp371
g12
VFRAG
p372
sbatp373
Rp374
(dp375
g12
S'id: 8'
p376
sbag0
(g1
g2
(lp377
g0
(g1
g2
(lp378
g0
(g1
g2
(lp379
g0
(g1
g2
(lp380
VYet
p381
atp382
Rp383
(dp384
g12
VRB
p385
sbatp386
Rp387
(dp388
g12
VADVP
p389
sbag0
(g1
g2
(lp390
V,
p391
atp392
Rp393
(dp394
g12
V,
p395
sbag0
(g1
g2
(lp396
g0
(g1
g2
(lp397
Vyet
p398
atp399
Rp400
(dp401
g12
VRB
p402
sbatp403
Rp404
(dp405
g12
VADVP
p406
sbag0
(g1
g2
(lp407
V,
p408
atp409
Rp410
(dp411
g12
V,
p412
sbag0
(g1
g2
(lp413
g0
(g1
g2
(lp414
Vyet
p415
atp416
Rp417
(dp418
g12
VRB
p419
sbatp420
Rp421
(dp422
g12
VADVP
p423
sbag0
(g1
g2
(lp424
V,
p425
atp426
Rp427
(dp428
g12
V,
p429
sbag0
(g1
g2
(lp430
g0
(g1
g2
(lp431
Vyet
p432
atp433
Rp434
(dp435
g12
VRB
p436
sbatp437
Rp438
(dp439
g12
VNP
p440
sbag0
(g1
g2
(lp441
V.
p442
atp443
Rp444
(dp445
g12
V.
p446
sbatp447
Rp448
(dp449
g12
VFRAG
p450
sbatp451
Rp452
(dp453
g12
S'id: 9'
p454
sbag0
(g1
g2
(lp455
g0
(g1
g2
(lp456
g0
(g1
g2
(lp457
g0
(g1
g2
(lp458
Vfortied
p459
atp460
Rp461
(dp462
g12
VVBN
p463
sbatp464
Rp465
(dp466
g12
VVP
p467
sbag0
(g1
g2
(lp468
V.
p469
atp470
Rp471
(dp472
g12
V.
p473
sbatp474
Rp475
(dp476
g12
VS
p477
sbatp478
Rp479
(dp480
g12
S'id: 10'
p481
sbag0
(g1
g2
(lp482
g0
(g1
g2
(lp483
g0
(g1
g2
(lp484
g0
(g1
g2
(lp485
VJut
p486
atp487
Rp488
(dp489
g12
VNN
p490
sbag0
(g1
g2
(lp491
Vpopporn
p492
atp493
Rp494
(dp495
g12
VNN
p496
sbag0
(g1
g2
(lp497
Vbrids
p498
atp499
Rp500
(dp501
g12
VNNS
p502
sbatp503
Rp504
(dp505
g12
VNP
p506
sbag0
(g1
g2
(lp507
g0
(g1
g2
(lp508
Vtiger
p509
atp510
Rp511
(dp512
g12
VNN
p513
sbatp514
Rp515
(dp516
g12
VNP
p517
sbag0
(g1
g2
(lp518
V.
p519
atp520
Rp521
(dp522
g12
V.
p523
sbatp524
Rp525
(dp526
g12
VNP
p527
sbatp528
Rp529
(dp530
g12
S'id: 11'
p531
sbag0
(g1
g2
(lp532
g0
(g1
g2
(lp533
g0
(g1
g2
(lp534
g0
(g1
g2
(lp535
VTaladay
p536
atp537
Rp538
(dp539
g12
VNNP
p540
sbatp541
Rp542
(dp543
g12
VNP
p544
sbag0
(g1
g2
(lp545
V.
p546
atp547
Rp548
(dp549
g12
V.
p550
sbatp551
Rp552
(dp553
g12
VFRAG
p554
sbatp555
Rp556
(dp557
g12
S'id: 12'
p558
sbatp559
Rp560
(dp561
g12
S'sentences'
p562
sb.