ccopy_reg
_reconstructor
p0
(cnltk.tree
Tree
p1
c__builtin__
list
p2
(lp3
g0
(g1
g2
(lp4
g0
(g1
g2
(lp5
g0
(g1
g2
(lp6
g0
(g1
g2
(lp7
VThere
p8
atp9
Rp10
(dp11
S'_label'
p12
VEX
p13
sbatp14
Rp15
(dp16
g12
VNP
p17
sbag0
(g1
g2
(lp18
g0
(g1
g2
(lp19
V's
p20
atp21
Rp22
(dp23
g12
VVBZ
p24
sbag0
(g1
g2
(lp25
g0
(g1
g2
(lp26
g0
(g1
g2
(lp27
Va
p28
atp29
Rp30
(dp31
g12
VDT
p32
sbag0
(g1
g2
(lp33
Vman
p34
atp35
Rp36
(dp37
g12
VNN
p38
sbatp39
Rp40
(dp41
g12
VNP
p42
sbag0
(g1
g2
(lp43
g0
(g1
g2
(lp44
Von
p45
atp46
Rp47
(dp48
g12
VIN
p49
sbag0
(g1
g2
(lp50
g0
(g1
g2
(lp51
Va
p52
atp53
Rp54
(dp55
g12
VDT
p56
sbag0
(g1
g2
(lp57
Vtightrope
p58
atp59
Rp60
(dp61
g12
VNN
p62
sbatp63
Rp64
(dp65
g12
VNP
p66
sbatp67
Rp68
(dp69
g12
VPP
p70
sbatp71
Rp72
(dp73
g12
VNP
p74
sbatp75
Rp76
(dp77
g12
VVP
p78
sbag0
(g1
g2
(lp79
V.
p80
atp81
Rp82
(dp83
g12
V.
p84
sbatp85
Rp86
(dp87
g12
VS
p88
sbatp89
Rp90
(dp91
g12
S'id: 0'
p92
sbag0
(g1
g2
(lp93
g0
(g1
g2
(lp94
g0
(g1
g2
(lp95
g0
(g1
g2
(lp96
VThere
p97
atp98
Rp99
(dp100
g12
VEX
p101
sbatp102
Rp103
(dp104
g12
VNP
p105
sbag0
(g1
g2
(lp106
g0
(g1
g2
(lp107
V's
p108
atp109
Rp110
(dp111
g12
VVBZ
p112
sbag0
(g1
g2
(lp113
g0
(g1
g2
(lp114
Va
p115
atp116
Rp117
(dp118
g12
VDT
p119
sbag0
(g1
g2
(lp120
Vlion
p121
atp122
Rp123
(dp124
g12
VNN
p125
sbag0
(g1
g2
(lp126
Vtrainer
p127
atp128
Rp129
(dp130
g12
VNN
p131
sbatp132
Rp133
(dp134
g12
VNP
p135
sbatp136
Rp137
(dp138
g12
VVP
p139
sbag0
(g1
g2
(lp140
V.
p141
atp142
Rp143
(dp144
g12
V.
p145
sbatp146
Rp147
(dp148
g12
VS
p149
sbatp150
Rp151
(dp152
g12
S'id: 1'
p153
sbag0
(g1
g2
(lp154
g0
(g1
g2
(lp155
g0
(g1
g2
(lp156
g0
(g1
g2
(lp157
VThere
p158
atp159
Rp160
(dp161
g12
VEX
p162
sbatp163
Rp164
(dp165
g12
VNP
p166
sbag0
(g1
g2
(lp167
g0
(g1
g2
(lp168
V's
p169
atp170
Rp171
(dp172
g12
VVBZ
p173
sbag0
(g1
g2
(lp174
g0
(g1
g2
(lp175
g0
(g1
g2
(lp176
Va
p177
atp178
Rp179
(dp180
g12
VDT
p181
sbag0
(g1
g2
(lp182
Vclown
p183
atp184
Rp185
(dp186
g12
VNN
p187
sbatp188
Rp189
(dp190
g12
VNP
p191
sbag0
(g1
g2
(lp192
g0
(g1
g2
(lp193
Vthrowing
p194
atp195
Rp196
(dp197
g12
VVBG
p198
sbag0
(g1
g2
(lp199
g0
(g1
g2
(lp200
Vsomething
p201
atp202
Rp203
(dp204
g12
VNN
p205
sbatp206
Rp207
(dp208
g12
VNP
p209
sbag0
(g1
g2
(lp210
g0
(g1
g2
(lp211
Von
p212
atp213
Rp214
(dp215
g12
VIN
p216
sbag0
(g1
g2
(lp217
g0
(g1
g2
(lp218
Vthe
p219
atp220
Rp221
(dp222
g12
VDT
p223
sbag0
(g1
g2
(lp224
Vkids
p225
atp226
Rp227
(dp228
g12
VNNS
p229
sbatp230
Rp231
(dp232
g12
VNP
p233
sbatp234
Rp235
(dp236
g12
VPP
p237
sbatp238
Rp239
(dp240
g12
VVP
p241
sbatp242
Rp243
(dp244
g12
VNP
p245
sbatp246
Rp247
(dp248
g12
VVP
p249
sbag0
(g1
g2
(lp250
V.
p251
atp252
Rp253
(dp254
g12
V.
p255
sbatp256
Rp257
(dp258
g12
VS
p259
sbatp260
Rp261
(dp262
g12
S'id: 2'
p263
sbag0
(g1
g2
(lp264
g0
(g1
g2
(lp265
g0
(g1
g2
(lp266
g0
(g1
g2
(lp267
g0
(g1
g2
(lp268
VThe
p269
atp270
Rp271
(dp272
g12
VDT
p273
sbag0
(g1
g2
(lp274
Vlady
p275
atp276
Rp277
(dp278
g12
VNN
p279
sbatp280
Rp281
(dp282
g12
VNP
p283
sbag0
(g1
g2
(lp284
g0
(g1
g2
(lp285
Vis
p286
atp287
Rp288
(dp289
g12
VVBZ
p290
sbag0
(g1
g2
(lp291
g0
(g1
g2
(lp292
Vholding
p293
atp294
Rp295
(dp296
g12
VVBG
p297
sbag0
(g1
g2
(lp298
g0
(g1
g2
(lp299
Va
p300
atp301
Rp302
(dp303
g12
VDT
p304
sbag0
(g1
g2
(lp305
Vbaby
p306
atp307
Rp308
(dp309
g12
VNN
p310
sbatp311
Rp312
(dp313
g12
VNP
p314
sbatp315
Rp316
(dp317
g12
VVP
p318
sbatp319
Rp320
(dp321
g12
VVP
p322
sbatp323
Rp324
(dp325
g12
VS
p326
sbag0
(g1
g2
(lp327
Vand
p328
atp329
Rp330
(dp331
g12
VCC
p332
sbag0
(g1
g2
(lp333
g0
(g1
g2
(lp334
g0
(g1
g2
(lp335
Vthey
p336
atp337
Rp338
(dp339
g12
VPRP
p340
sbatp341
Rp342
(dp343
g12
VNP
p344
sbag0
(g1
g2
(lp345
g0
(g1
g2
(lp346
V're
p347
atp348
Rp349
(dp350
g12
VVBP
p351
sbag0
(g1
g2
(lp352
g0
(g1
g2
(lp353
Vall
p354
atp355
Rp356
(dp357
g12
VDT
p358
sbatp359
Rp360
(dp361
g12
VADVP
p362
sbag0
(g1
g2
(lp363
g0
(g1
g2
(lp364
Vwatching
p365
atp366
Rp367
(dp368
g12
VVBG
p369
sbag0
(g1
g2
(lp370
g0
(g1
g2
(lp371
Vthe
p372
atp373
Rp374
(dp375
g12
VDT
p376
sbag0
(g1
g2
(lp377
Vclown
p378
atp379
Rp380
(dp381
g12
VNN
p382
sbatp383
Rp384
(dp385
g12
VNP
p386
sbatp387
Rp388
(dp389
g12
VVP
p390
sbatp391
Rp392
(dp393
g12
VVP
p394
sbatp395
Rp396
(dp397
g12
VS
p398
sbag0
(g1
g2
(lp399
V.
p400
atp401
Rp402
(dp403
g12
V.
p404
sbatp405
Rp406
(dp407
g12
VS
p408
sbatp409
Rp410
(dp411
g12
S'id: 3'
p412
sbag0
(g1
g2
(lp413
g0
(g1
g2
(lp414
g0
(g1
g2
(lp415
g0
(g1
g2
(lp416
g0
(g1
g2
(lp417
VThere
p418
atp419
Rp420
(dp421
g12
VEX
p422
sbatp423
Rp424
(dp425
g12
VNP
p426
sbag0
(g1
g2
(lp427
g0
(g1
g2
(lp428
V's
p429
atp430
Rp431
(dp432
g12
VVBZ
p433
sbag0
(g1
g2
(lp434
g0
(g1
g2
(lp435
g0
(g1
g2
(lp436
Va
p437
atp438
Rp439
(dp440
g12
VDT
p441
sbag0
(g1
g2
(lp442
Vlady
p443
atp444
Rp445
(dp446
g12
VNN
p447
sbatp448
Rp449
(dp450
g12
VNP
p451
sbag0
(g1
g2
(lp452
g0
(g1
g2
(lp453
Von
p454
atp455
Rp456
(dp457
g12
VIN
p458
sbag0
(g1
g2
(lp459
g0
(g1
g2
(lp460
Vthe
p461
atp462
Rp463
(dp464
g12
VDT
p465
sbag0
(g1
g2
(lp466
Vhorse
p467
atp468
Rp469
(dp470
g12
VNN
p471
sbatp472
Rp473
(dp474
g12
VNP
p475
sbatp476
Rp477
(dp478
g12
VPP
p479
sbatp480
Rp481
(dp482
g12
VNP
p483
sbatp484
Rp485
(dp486
g12
VVP
p487
sbatp488
Rp489
(dp490
g12
VS
p491
sbag0
(g1
g2
(lp492
V,
p493
atp494
Rp495
(dp496
g12
V,
p497
sbag0
(g1
g2
(lp498
Vand
p499
atp500
Rp501
(dp502
g12
VCC
p503
sbag0
(g1
g2
(lp504
g0
(g1
g2
(lp505
g0
(g1
g2
(lp506
Vthere
p507
atp508
Rp509
(dp510
g12
VEX
p511
sbatp512
Rp513
(dp514
g12
VNP
p515
sbag0
(g1
g2
(lp516
g0
(g1
g2
(lp517
V's
p518
atp519
Rp520
(dp521
g12
VVBZ
p522
sbag0
(g1
g2
(lp523
g0
(g1
g2
(lp524
g0
(g1
g2
(lp525
Vring
p526
atp527
Rp528
(dp529
g12
VNN
p530
sbatp531
Rp532
(dp533
g12
VNP
p534
sbag0
(g1
g2
(lp535
V,
p536
atp537
Rp538
(dp539
g12
V,
p540
sbag0
(g1
g2
(lp541
g0
(g1
g2
(lp542
g0
(g1
g2
(lp543
V3
p544
atp545
Rp546
(dp547
g12
VCD
p548
sbag0
(g1
g2
(lp549
Vrings
p550
atp551
Rp552
(dp553
g12
VNNS
p554
sbatp555
Rp556
(dp557
g12
VNP
p558
sbag0
(g1
g2
(lp559
V,
p560
atp561
Rp562
(dp563
g12
V,
p564
sbag0
(g1
g2
(lp565
g0
(g1
g2
(lp566
g0
(g1
g2
(lp567
V1,2
p568
atp569
Rp570
(dp571
g12
VCD
p572
sbatp573
Rp574
(dp575
g12
VNP
p576
sbag0
(g1
g2
(lp577
g0
(g1
g2
(lp578
g0
(g1
g2
(lp579
g0
(g1
g2
(lp580
Vthere
p581
atp582
Rp583
(dp584
g12
VEX
p585
sbatp586
Rp587
(dp588
g12
VNP
p589
sbag0
(g1
g2
(lp590
g0
(g1
g2
(lp591
V's
p592
atp593
Rp594
(dp595
g12
VVBZ
p596
sbag0
(g1
g2
(lp597
g0
(g1
g2
(lp598
Vtwo
p599
atp600
Rp601
(dp602
g12
VCD
p603
sbag0
(g1
g2
(lp604
Vrings
p605
atp606
Rp607
(dp608
g12
VNNS
p609
sbatp610
Rp611
(dp612
g12
VNP
p613
sbatp614
Rp615
(dp616
g12
VVP
p617
sbatp618
Rp619
(dp620
g12
VS
p621
sbatp622
Rp623
(dp624
g12
VSBAR
p625
sbatp626
Rp627
(dp628
g12
VNP
p629
sbatp630
Rp631
(dp632
g12
VNP
p633
sbatp634
Rp635
(dp636
g12
VNP
p637
sbatp638
Rp639
(dp640
g12
VVP
p641
sbatp642
Rp643
(dp644
g12
VS
p645
sbag0
(g1
g2
(lp646
V.
p647
atp648
Rp649
(dp650
g12
V.
p651
sbatp652
Rp653
(dp654
g12
VS
p655
sbatp656
Rp657
(dp658
g12
S'id: 4'
p659
sbag0
(g1
g2
(lp660
g0
(g1
g2
(lp661
g0
(g1
g2
(lp662
g0
(g1
g2
(lp663
g0
(g1
g2
(lp664
VShe
p665
atp666
Rp667
(dp668
g12
VPRP
p669
sbatp670
Rp671
(dp672
g12
VNP
p673
sbag0
(g1
g2
(lp674
g0
(g1
g2
(lp675
V's
p676
atp677
Rp678
(dp679
g12
VVBZ
p680
sbag0
(g1
g2
(lp681
g0
(g1
g2
(lp682
g0
(g1
g2
(lp683
Vriding
p684
atp685
Rp686
(dp687
g12
VVBG
p688
sbag0
(g1
g2
(lp689
g0
(g1
g2
(lp690
Vthe
p691
atp692
Rp693
(dp694
g12
VDT
p695
sbag0
(g1
g2
(lp696
Vhorse
p697
atp698
Rp699
(dp700
g12
VNN
p701
sbatp702
Rp703
(dp704
g12
VNP
p705
sbatp706
Rp707
(dp708
g12
VVP
p709
sbag0
(g1
g2
(lp710
V,
p711
atp712
Rp713
(dp714
g12
V,
p715
sbag0
(g1
g2
(lp716
Vand
p717
atp718
Rp719
(dp720
g12
VCC
p721
sbag0
(g1
g2
(lp722
g0
(g1
g2
(lp723
Vdoing
p724
atp725
Rp726
(dp727
g12
VVBG
p728
sbatp729
Rp730
(dp731
g12
VVP
p732
sbatp733
Rp734
(dp735
g12
VVP
p736
sbatp737
Rp738
(dp739
g12
VVP
p740
sbatp741
Rp742
(dp743
g12
VS
p744
sbag0
(g1
g2
(lp745
V,
p746
atp747
Rp748
(dp749
g12
V,
p750
sbag0
(g1
g2
(lp751
g0
(g1
g2
(lp752
Vwell
p753
atp754
Rp755
(dp756
g12
VRB
p757
sbatp758
Rp759
(dp760
g12
VADVP
p761
sbag0
(g1
g2
(lp762
g0
(g1
g2
(lp763
g0
(g1
g2
(lp764
Vshe
p765
atp766
Rp767
(dp768
g12
VPRP
p769
sbatp770
Rp771
(dp772
g12
VNP
p773
sbag0
(g1
g2
(lp774
g0
(g1
g2
(lp775
V's
p776
atp777
Rp778
(dp779
g12
VVBZ
p780
sbag0
(g1
g2
(lp781
g0
(g1
g2
(lp782
Vkneeling
p783
atp784
Rp785
(dp786
g12
VVBG
p787
sbag0
(g1
g2
(lp788
g0
(g1
g2
(lp789
Von
p790
atp791
Rp792
(dp793
g12
VIN
p794
sbag0
(g1
g2
(lp795
g0
(g1
g2
(lp796
Vthe
p797
atp798
Rp799
(dp800
g12
VDT
p801
sbag0
(g1
g2
(lp802
Vhorse
p803
atp804
Rp805
(dp806
g12
VNN
p807
sbatp808
Rp809
(dp810
g12
VNP
p811
sbatp812
Rp813
(dp814
g12
VPP
p815
sbag0
(g1
g2
(lp816
V,
p817
atp818
Rp819
(dp820
g12
V,
p821
sbag0
(g1
g2
(lp822
g0
(g1
g2
(lp823
g0
(g1
g2
(lp824
Vshowing
p825
atp826
Rp827
(dp828
g12
VVBG
p829
sbag0
(g1
g2
(lp830
g0
(g1
g2
(lp831
Vthe
p832
atp833
Rp834
(dp835
g12
VDT
p836
sbag0
(g1
g2
(lp837
Vbalance
p838
atp839
Rp840
(dp841
g12
VNN
p842
sbatp843
Rp844
(dp845
g12
VNP
p846
sbatp847
Rp848
(dp849
g12
VVP
p850
sbatp851
Rp852
(dp853
g12
VS
p854
sbatp855
Rp856
(dp857
g12
VVP
p858
sbatp859
Rp860
(dp861
g12
VVP
p862
sbatp863
Rp864
(dp865
g12
VS
p866
sbag0
(g1
g2
(lp867
V.
p868
atp869
Rp870
(dp871
g12
V.
p872
sbatp873
Rp874
(dp875
g12
VS
p876
sbatp877
Rp878
(dp879
g12
S'id: 5'
p880
sbag0
(g1
g2
(lp881
g0
(g1
g2
(lp882
g0
(g1
g2
(lp883
g0
(g1
g2
(lp884
g0
(g1
g2
(lp885
VOne
p886
atp887
Rp888
(dp889
g12
VCD
p890
sbatp891
Rp892
(dp893
g12
VNP
p894
sbag0
(g1
g2
(lp895
V,
p896
atp897
Rp898
(dp899
g12
V,
p900
sbag0
(g1
g2
(lp901
g0
(g1
g2
(lp902
Vtwo
p903
atp904
Rp905
(dp906
g12
VCD
p907
sbatp908
Rp909
(dp910
g12
VNP
p911
sbag0
(g1
g2
(lp912
V,
p913
atp914
Rp915
(dp916
g12
V,
p917
sbag0
(g1
g2
(lp918
g0
(g1
g2
(lp919
Vthree
p920
atp921
Rp922
(dp923
g12
VCD
p924
sbatp925
Rp926
(dp927
g12
VNP
p928
sbag0
(g1
g2
(lp929
V,
p930
atp931
Rp932
(dp933
g12
V,
p934
sbag0
(g1
g2
(lp935
g0
(g1
g2
(lp936
Vone
p937
atp938
Rp939
(dp940
g12
VCD
p941
sbatp942
Rp943
(dp944
g12
VNP
p945
sbag0
(g1
g2
(lp946
V,
p947
atp948
Rp949
(dp950
g12
V,
p951
sbag0
(g1
g2
(lp952
g0
(g1
g2
(lp953
Vtwo
p954
atp955
Rp956
(dp957
g12
VCD
p958
sbatp959
Rp960
(dp961
g12
VNP
p962
sbag0
(g1
g2
(lp963
V,
p964
atp965
Rp966
(dp967
g12
V,
p968
sbag0
(g1
g2
(lp969
g0
(g1
g2
(lp970
Vthree
p971
atp972
Rp973
(dp974
g12
VCD
p975
sbatp976
Rp977
(dp978
g12
VNP
p979
sbag0
(g1
g2
(lp980
V,
p981
atp982
Rp983
(dp984
g12
V,
p985
sbag0
(g1
g2
(lp986
g0
(g1
g2
(lp987
Vfour
p988
atp989
Rp990
(dp991
g12
VCD
p992
sbatp993
Rp994
(dp995
g12
VNP
p996
sbag0
(g1
g2
(lp997
V,
p998
atp999
Rp1000
(dp1001
g12
V,
p1002
sbag0
(g1
g2
(lp1003
g0
(g1
g2
(lp1004
Vfive
p1005
atp1006
Rp1007
(dp1008
g12
VCD
p1009
sbatp1010
Rp1011
(dp1012
g12
VNP
p1013
sbag0
(g1
g2
(lp1014
V,
p1015
atp1016
Rp1017
(dp1018
g12
V,
p1019
sbag0
(g1
g2
(lp1020
g0
(g1
g2
(lp1021
g0
(g1
g2
(lp1022
Vthere
p1023
atp1024
Rp1025
(dp1026
g12
VEX
p1027
sbatp1028
Rp1029
(dp1030
g12
VNP
p1031
sbag0
(g1
g2
(lp1032
g0
(g1
g2
(lp1033
Vfive
p1034
atp1035
Rp1036
(dp1037
g12
VCD
p1038
sbatp1039
Rp1040
(dp1041
g12
VNP
p1042
sbatp1043
Rp1044
(dp1045
g12
VNP
p1046
sbag0
(g1
g2
(lp1047
V,
p1048
atp1049
Rp1050
(dp1051
g12
V,
p1052
sbag0
(g1
g2
(lp1053
g0
(g1
g2
(lp1054
Vsix
p1055
atp1056
Rp1057
(dp1058
g12
VCD
p1059
sbag0
(g1
g2
(lp1060
Vpeople
p1061
atp1062
Rp1063
(dp1064
g12
VNNS
p1065
sbatp1066
Rp1067
(dp1068
g12
VNP
p1069
sbatp1070
Rp1071
(dp1072
g12
VNP
p1073
sbag0
(g1
g2
(lp1074
g0
(g1
g2
(lp1075
Vsitting
p1076
atp1077
Rp1078
(dp1079
g12
VVBG
p1080
sbag0
(g1
g2
(lp1081
g0
(g1
g2
(lp1082
Von
p1083
atp1084
Rp1085
(dp1086
g12
VIN
p1087
sbag0
(g1
g2
(lp1088
g0
(g1
g2
(lp1089
g0
(g1
g2
(lp1090
Vthe
p1091
atp1092
Rp1093
(dp1094
g12
VDT
p1095
sbag0
(g1
g2
(lp1096
Vbench
p1097
atp1098
Rp1099
(dp1100
g12
VNN
p1101
sbatp1102
Rp1103
(dp1104
g12
VNP
p1105
sbag0
(g1
g2
(lp1106
g0
(g1
g2
(lp1107
Vwatching
p1108
atp1109
Rp1110
(dp1111
g12
VVBG
p1112
sbag0
(g1
g2
(lp1113
g0
(g1
g2
(lp1114
Vher
p1115
atp1116
Rp1117
(dp1118
g12
VPRP
p1119
sbatp1120
Rp1121
(dp1122
g12
VNP
p1123
sbatp1124
Rp1125
(dp1126
g12
VVP
p1127
sbatp1128
Rp1129
(dp1130
g12
VNP
p1131
sbatp1132
Rp1133
(dp1134
g12
VPP
p1135
sbatp1136
Rp1137
(dp1138
g12
VVP
p1139
sbag0
(g1
g2
(lp1140
V.
p1141
atp1142
Rp1143
(dp1144
g12
V.
p1145
sbatp1146
Rp1147
(dp1148
g12
VNP
p1149
sbatp1150
Rp1151
(dp1152
g12
S'id: 6'
p1153
sbag0
(g1
g2
(lp1154
g0
(g1
g2
(lp1155
g0
(g1
g2
(lp1156
VAnd
p1157
atp1158
Rp1159
(dp1160
g12
VCC
p1161
sbag0
(g1
g2
(lp1162
g0
(g1
g2
(lp1163
Vall
p1164
atp1165
Rp1166
(dp1167
g12
VDT
p1168
sbag0
(g1
g2
(lp1169
g0
(g1
g2
(lp1170
g0
(g1
g2
(lp1171
Vtogether
p1172
atp1173
Rp1174
(dp1175
g12
VRB
p1176
sbatp1177
Rp1178
(dp1179
g12
VADVP
p1180
sbag0
(g1
g2
(lp1181
V,
p1182
atp1183
Rp1184
(dp1185
g12
V,
p1186
sbag0
(g1
g2
(lp1187
g0
(g1
g2
(lp1188
Vthere
p1189
atp1190
Rp1191
(dp1192
g12
VEX
p1193
sbatp1194
Rp1195
(dp1196
g12
VNP
p1197
sbag0
(g1
g2
(lp1198
g0
(g1
g2
(lp1199
V's
p1200
atp1201
Rp1202
(dp1203
g12
VVBZ
p1204
sbag0
(g1
g2
(lp1205
g0
(g1
g2
(lp1206
g0
(g1
g2
(lp1207
Vone
p1208
atp1209
Rp1210
(dp1211
g12
VCD
p1212
sbatp1213
Rp1214
(dp1215
g12
VNP
p1216
sbag0
(g1
g2
(lp1217
V,
p1218
atp1219
Rp1220
(dp1221
g12
V,
p1222
sbag0
(g1
g2
(lp1223
g0
(g1
g2
(lp1224
Vtwo
p1225
atp1226
Rp1227
(dp1228
g12
VCD
p1229
sbatp1230
Rp1231
(dp1232
g12
VNP
p1233
sbag0
(g1
g2
(lp1234
V,
p1235
atp1236
Rp1237
(dp1238
g12
V,
p1239
sbag0
(g1
g2
(lp1240
g0
(g1
g2
(lp1241
Vthree
p1242
atp1243
Rp1244
(dp1245
g12
VCD
p1246
sbag0
(g1
g2
(lp1247
Vchildren
p1248
atp1249
Rp1250
(dp1251
g12
VNNS
p1252
sbatp1253
Rp1254
(dp1255
g12
VNP
p1256
sbag0
(g1
g2
(lp1257
V,
p1258
atp1259
Rp1260
(dp1261
g12
V,
p1262
sbag0
(g1
g2
(lp1263
g0
(g1
g2
(lp1264
Vtwo
p1265
atp1266
Rp1267
(dp1268
g12
VCD
p1269
sbag0
(g1
g2
(lp1270
Vadults
p1271
atp1272
Rp1273
(dp1274
g12
VNNS
p1275
sbatp1276
Rp1277
(dp1278
g12
VNP
p1279
sbag0
(g1
g2
(lp1280
V,
p1281
atp1282
Rp1283
(dp1284
g12
V,
p1285
sbag0
(g1
g2
(lp1286
Vand
p1287
atp1288
Rp1289
(dp1290
g12
VCC
p1291
sbag0
(g1
g2
(lp1292
g0
(g1
g2
(lp1293
Vthe
p1294
atp1295
Rp1296
(dp1297
g12
VDT
p1298
sbag0
(g1
g2
(lp1299
Vlion
p1300
atp1301
Rp1302
(dp1303
g12
VNN
p1304
sbatp1305
Rp1306
(dp1307
g12
VNP
p1308
sbatp1309
Rp1310
(dp1311
g12
VNP
p1312
sbatp1313
Rp1314
(dp1315
g12
VVP
p1316
sbatp1317
Rp1318
(dp1319
g12
VS
p1320
sbatp1321
Rp1322
(dp1323
g12
VNP
p1324
sbag0
(g1
g2
(lp1325
g0
(g1
g2
(lp1326
Vis
p1327
atp1328
Rp1329
(dp1330
g12
VVBZ
p1331
sbag0
(g1
g2
(lp1332
g0
(g1
g2
(lp1333
Vsitting
p1334
atp1335
Rp1336
(dp1337
g12
VVBG
p1338
sbag0
(g1
g2
(lp1339
g0
(g1
g2
(lp1340
Von
p1341
atp1342
Rp1343
(dp1344
g12
VIN
p1345
sbag0
(g1
g2
(lp1346
g0
(g1
g2
(lp1347
g0
(g1
g2
(lp1348
Vhis
p1349
atp1350
Rp1351
(dp1352
g12
VPRP$
p1353
sbag0
(g1
g2
(lp1354
Vpaws
p1355
atp1356
Rp1357
(dp1358
g12
VNNS
p1359
sbatp1360
Rp1361
(dp1362
g12
VNP
p1363
sbag0
(g1
g2
(lp1364
V,
p1365
atp1366
Rp1367
(dp1368
g12
V,
p1369
sbag0
(g1
g2
(lp1370
g0
(g1
g2
(lp1371
g0
(g1
g2
(lp1372
Vhis
p1373
atp1374
Rp1375
(dp1376
g12
VPRP$
p1377
sbag0
(g1
g2
(lp1378
Vback
p1379
atp1380
Rp1381
(dp1382
g12
VJJ
p1383
sbag0
(g1
g2
(lp1384
Vpaws
p1385
atp1386
Rp1387
(dp1388
g12
VNNS
p1389
sbatp1390
Rp1391
(dp1392
g12
VNP
p1393
sbag0
(g1
g2
(lp1394
g0
(g1
g2
(lp1395
Vsitting
p1396
atp1397
Rp1398
(dp1399
g12
VVBG
p1400
sbag0
(g1
g2
(lp1401
g0
(g1
g2
(lp1402
Vup
p1403
atp1404
Rp1405
(dp1406
g12
VRP
p1407
sbatp1408
Rp1409
(dp1410
g12
VPRT
p1411
sbag0
(g1
g2
(lp1412
g0
(g1
g2
(lp1413
Vstraight
p1414
atp1415
Rp1416
(dp1417
g12
VRB
p1418
sbatp1419
Rp1420
(dp1421
g12
VADVP
p1422
sbatp1423
Rp1424
(dp1425
g12
VVP
p1426
sbatp1427
Rp1428
(dp1429
g12
VNP
p1430
sbatp1431
Rp1432
(dp1433
g12
VNP
p1434
sbatp1435
Rp1436
(dp1437
g12
VPP
p1438
sbatp1439
Rp1440
(dp1441
g12
VVP
p1442
sbatp1443
Rp1444
(dp1445
g12
VVP
p1446
sbag0
(g1
g2
(lp1447
V.
p1448
atp1449
Rp1450
(dp1451
g12
V.
p1452
sbatp1453
Rp1454
(dp1455
g12
VS
p1456
sbatp1457
Rp1458
(dp1459
g12
S'id: 7'
p1460
sbag0
(g1
g2
(lp1461
g0
(g1
g2
(lp1462
g0
(g1
g2
(lp1463
g0
(g1
g2
(lp1464
VThat
p1465
atp1466
Rp1467
(dp1468
g12
VDT
p1469
sbatp1470
Rp1471
(dp1472
g12
VNP
p1473
sbag0
(g1
g2
(lp1474
g0
(g1
g2
(lp1475
V's
p1476
atp1477
Rp1478
(dp1479
g12
VVBZ
p1480
sbag0
(g1
g2
(lp1481
g0
(g1
g2
(lp1482
Vit
p1483
atp1484
Rp1485
(dp1486
g12
VPRP
p1487
sbatp1488
Rp1489
(dp1490
g12
VNP
p1491
sbatp1492
Rp1493
(dp1494
g12
VVP
p1495
sbag0
(g1
g2
(lp1496
V.
p1497
atp1498
Rp1499
(dp1500
g12
V.
p1501
sbatp1502
Rp1503
(dp1504
g12
VS
p1505
sbatp1506
Rp1507
(dp1508
g12
S'id: 8'
p1509
sbag0
(g1
g2
(lp1510
g0
(g1
g2
(lp1511
g0
(g1
g2
(lp1512
g0
(g1
g2
(lp1513
VNo
p1514
atp1515
Rp1516
(dp1517
g12
VDT
p1518
sbag0
(g1
g2
(lp1519
Vthat
p1520
atp1521
Rp1522
(dp1523
g12
VDT
p1524
sbatp1525
Rp1526
(dp1527
g12
VNP
p1528
sbag0
(g1
g2
(lp1529
g0
(g1
g2
(lp1530
V's
p1531
atp1532
Rp1533
(dp1534
g12
VVBZ
p1535
sbag0
(g1
g2
(lp1536
g0
(g1
g2
(lp1537
Vit
p1538
atp1539
Rp1540
(dp1541
g12
VPRP
p1542
sbatp1543
Rp1544
(dp1545
g12
VNP
p1546
sbatp1547
Rp1548
(dp1549
g12
VVP
p1550
sbag0
(g1
g2
(lp1551
V.
p1552
atp1553
Rp1554
(dp1555
g12
V.
p1556
sbatp1557
Rp1558
(dp1559
g12
VS
p1560
sbatp1561
Rp1562
(dp1563
g12
S'id: 9'
p1564
sbag0
(g1
g2
(lp1565
g0
(g1
g2
(lp1566
g0
(g1
g2
(lp1567
g0
(g1
g2
(lp1568
VI
p1569
atp1570
Rp1571
(dp1572
g12
VPRP
p1573
sbatp1574
Rp1575
(dp1576
g12
VNP
p1577
sbag0
(g1
g2
(lp1578
g0
(g1
g2
(lp1579
Vsaid
p1580
atp1581
Rp1582
(dp1583
g12
VVBD
p1584
sbag0
(g1
g2
(lp1585
g0
(g1
g2
(lp1586
Vthe
p1587
atp1588
Rp1589
(dp1590
g12
VDT
p1591
sbag0
(g1
g2
(lp1592
Vman
p1593
atp1594
Rp1595
(dp1596
g12
VNN
p1597
sbatp1598
Rp1599
(dp1600
g12
VNP
p1601
sbag0
(g1
g2
(lp1602
g0
(g1
g2
(lp1603
Von
p1604
atp1605
Rp1606
(dp1607
g12
VIN
p1608
sbag0
(g1
g2
(lp1609
g0
(g1
g2
(lp1610
Vthe
p1611
atp1612
Rp1613
(dp1614
g12
VDT
p1615
sbag0
(g1
g2
(lp1616
Vtight
p1617
atp1618
Rp1619
(dp1620
g12
VJJ
p1621
sbag0
(g1
g2
(lp1622
Vrope
p1623
atp1624
Rp1625
(dp1626
g12
VNN
p1627
sbag0
(g1
g2
(lp1628
Vright
p1629
atp1630
Rp1631
(dp1632
g12
VNN
p1633
sbatp1634
Rp1635
(dp1636
g12
VNP
p1637
sbatp1638
Rp1639
(dp1640
g12
VPP
p1641
sbatp1642
Rp1643
(dp1644
g12
VVP
p1645
sbatp1646
Rp1647
(dp1648
g12
VS
p1649
sbatp1650
Rp1651
(dp1652
g12
S'id: 10'
p1653
sbatp1654
Rp1655
(dp1656
g12
S'sentences'
p1657
sb.