ccopy_reg
_reconstructor
p0
(cnltk.tree
Tree
p1
c__builtin__
list
p2
(lp3
g0
(g1
g2
(lp4
g0
(g1
g2
(lp5
g0
(g1
g2
(lp6
(lp7
S'word: ok, index: 1'
p8
aatp9
Rp10
(dp11
S'_label'
p12
Vnsubj
p13
sbag0
(g1
g2
(lp14
(lp15
S'word: I, index: 2'
p16
aatp17
Rp18
(dp19
g12
Vnsubj
p20
sbag0
(g1
g2
(lp21
g0
(g1
g2
(lp22
g0
(g1
g2
(lp23
(lp24
S'word: this, index: 4'
p25
aatp26
Rp27
(dp28
g12
Vdet
p29
sbatp30
Rp31
(dp32
g12
S'word: yesterday, index: 5'
p33
sbatp34
Rp35
(dp36
g12
Vtmod
p37
sbatp38
Rp39
(dp40
g12
S'word: saw, index: 3'
p41
sbatp42
Rp43
(dp44
g12
S'id: 0'
p45
sbag0
(g1
g2
(lp46
g0
(g1
g2
(lp47
g0
(g1
g2
(lp48
g0
(g1
g2
(lp49
g0
(g1
g2
(lp50
(lp51
S'word: a, index: 3'
p52
aatp53
Rp54
(dp55
g12
Vdet
p56
sbag0
(g1
g2
(lp57
(lp58
S'word: little, index: 4'
p59
aatp60
Rp61
(dp62
g12
Vamod
p63
sbatp64
Rp65
(dp66
g12
S'word: girl, index: 5'
p67
sbatp68
Rp69
(dp70
g12
Vnsubj
p71
sbag0
(g1
g2
(lp72
g0
(g1
g2
(lp73
g0
(g1
g2
(lp74
(lp75
S'word: she, index: 8'
p76
aatp77
Rp78
(dp79
g12
Vnsubj
p80
sbag0
(g1
g2
(lp81
(lp82
S"word: 's, index: 9"
p83
aatp84
Rp85
(dp86
g12
Vaux
p87
sbag0
(g1
g2
(lp88
g0
(g1
g2
(lp89
g0
(g1
g2
(lp90
g0
(g1
g2
(lp91
g0
(g1
g2
(lp92
(lp93
S'word: the, index: 13'
p94
aatp95
Rp96
(dp97
g12
Vdet
p98
sbatp99
Rp100
(dp101
g12
S'word: sand, index: 14'
p102
sbatp103
Rp104
(dp105
g12
Vprep
p106
sbatp107
Rp108
(dp109
g12
S'word: this, index: 11'
p110
sbatp111
Rp112
(dp113
g12
Vdobj
p114
sbatp115
Rp116
(dp117
g12
S'word: getting, index: 10'
p118
sbatp119
Rp120
(dp121
g12
Vconj
p122
sbag0
(g1
g2
(lp123
(lp124
S'word: there, index: 1'
p125
aatp126
Rp127
(dp128
g12
Vexpl
p129
sbatp130
Rp131
(dp132
g12
S"word: 's, index: 2"
p133
sbatp134
Rp135
(dp136
g12
S'id: 1'
p137
sbag0
(g1
g2
(lp138
g0
(g1
g2
(lp139
g0
(g1
g2
(lp140
(lp141
S'word: and, index: 1'
p142
aatp143
Rp144
(dp145
g12
Vcc
p146
sbag0
(g1
g2
(lp147
(lp148
S'word: that, index: 2'
p149
aatp150
Rp151
(dp152
g12
Vnsubj
p153
sbag0
(g1
g2
(lp154
(lp155
S"word: 's, index: 3"
p156
aatp157
Rp158
(dp159
g12
Vcop
p160
sbatp161
Rp162
(dp163
g12
S'word: appell, index: 4'
p164
sbatp165
Rp166
(dp167
g12
S'id: 2'
p168
sbag0
(g1
g2
(lp169
g0
(g1
g2
(lp170
g0
(g1
g2
(lp171
(lp172
S'word: And, index: 1'
p173
aatp174
Rp175
(dp176
g12
Vcc
p177
sbag0
(g1
g2
(lp178
(lp179
S'word: that, index: 2'
p180
aatp181
Rp182
(dp183
g12
Vnsubj
p184
sbag0
(g1
g2
(lp185
(lp186
S"word: 's, index: 3"
p187
aatp188
Rp189
(dp190
g12
Vcop
p191
sbag0
(g1
g2
(lp192
(lp193
S'word: abanden, index: 6'
p194
aatp195
Rp196
(dp197
g12
Vappos
p198
sbatp199
Rp200
(dp201
g12
S'word: c-a-t-e-n, index: 4'
p202
sbatp203
Rp204
(dp205
g12
S'id: 3'
p206
sbag0
(g1
g2
(lp207
g0
(g1
g2
(lp208
g0
(g1
g2
(lp209
(lp210
S'word: And, index: 1'
p211
aatp212
Rp213
(dp214
g12
Vcc
p215
sbag0
(g1
g2
(lp216
(lp217
S'word: that, index: 2'
p218
aatp219
Rp220
(dp221
g12
Vnsubj
p222
sbag0
(g1
g2
(lp223
(lp224
S"word: 's, index: 3"
p225
aatp226
Rp227
(dp228
g12
Vcop
p229
sbag0
(g1
g2
(lp230
g0
(g1
g2
(lp231
g0
(g1
g2
(lp232
g0
(g1
g2
(lp233
g0
(g1
g2
(lp234
(lp235
S'word: a, index: 12'
p236
aatp237
Rp238
(dp239
g12
Vnn
p240
sbag0
(g1
g2
(lp241
(lp242
S'word: little, index: 14'
p243
aatp244
Rp245
(dp246
g12
Vamod
p247
sbag0
(g1
g2
(lp248
(lp249
S'word: there, index: 16'
p250
aatp251
Rp252
(dp253
g12
Vadvmod
p254
sbag0
(g1
g2
(lp255
(lp256
S'word: that, index: 10'
p257
aatp258
Rp259
(dp260
g12
Vnsubj
p261
sbag0
(g1
g2
(lp262
(lp263
S"word: 's, index: 11"
p264
aatp265
Rp266
(dp267
g12
Vcop
p268
sbatp269
Rp270
(dp271
g12
S'word: man, index: 15'
p272
sbatp273
Rp274
(dp275
g12
Vrcmod
p276
sbag0
(g1
g2
(lp277
(lp278
S'word: that, index: 6'
p279
aatp280
Rp281
(dp282
g12
Vnsubj
p283
sbag0
(g1
g2
(lp284
(lp285
S"word: 's, index: 7"
p286
aatp287
Rp288
(dp289
g12
Vcop
p290
sbatp291
Rp292
(dp293
g12
S'word: a, index: 8'
p294
sbatp295
Rp296
(dp297
g12
Vrcmod
p298
sbatp299
Rp300
(dp301
g12
S'word: a, index: 4'
p302
sbatp303
Rp304
(dp305
g12
S'id: 4'
p306
sbag0
(g1
g2
(lp307
g0
(g1
g2
(lp308
g0
(g1
g2
(lp309
(lp310
S'word: he, index: 1'
p311
aatp312
Rp313
(dp314
g12
Vnsubj
p315
sbag0
(g1
g2
(lp316
(lp317
S"word: 's, index: 2"
p318
aatp319
Rp320
(dp321
g12
Vcop
p322
sbag0
(g1
g2
(lp323
(lp324
S'word: actually, index: 3'
p325
aatp326
Rp327
(dp328
g12
Vadvmod
p329
sbag0
(g1
g2
(lp330
(lp331
S'word: a, index: 4'
p332
aatp333
Rp334
(dp335
g12
Vdet
p336
sbag0
(g1
g2
(lp337
(lp338
S'word: bigger, index: 5'
p339
aatp340
Rp341
(dp342
g12
Vamod
p343
sbatp344
Rp345
(dp346
g12
S'word: man, index: 6'
p347
sbatp348
Rp349
(dp350
g12
S'id: 5'
p351
sbag0
(g1
g2
(lp352
g0
(g1
g2
(lp353
g0
(g1
g2
(lp354
(lp355
S'word: that, index: 2'
p356
aatp357
Rp358
(dp359
g12
Vnsubj
p360
sbag0
(g1
g2
(lp361
(lp362
S"word: 's, index: 3"
p363
aatp364
Rp365
(dp366
g12
Vcop
p367
sbag0
(g1
g2
(lp368
(lp369
S'word: kite, index: 6'
p370
aatp371
Rp372
(dp373
g12
Vappos
p374
sbag0
(g1
g2
(lp375
(lp376
S'word: and, index: 1'
p377
aatp378
Rp379
(dp380
g12
Vcc
p381
sbatp382
Rp383
(dp384
g12
S'word: ki, index: 4'
p385
sbatp386
Rp387
(dp388
g12
S'id: 6'
p389
sbag0
(g1
g2
(lp390
g0
(g1
g2
(lp391
g0
(g1
g2
(lp392
(lp393
S'word: and, index: 1'
p394
aatp395
Rp396
(dp397
g12
Vcc
p398
sbag0
(g1
g2
(lp399
(lp400
S'word: that, index: 2'
p401
aatp402
Rp403
(dp404
g12
Vnsubj
p405
sbag0
(g1
g2
(lp406
(lp407
S"word: 's, index: 3"
p408
aatp409
Rp410
(dp411
g12
Vcop
p412
sbag0
(g1
g2
(lp413
(lp414
S'word: his, index: 4'
p415
aatp416
Rp417
(dp418
g12
Vposs
p419
sbatp420
Rp421
(dp422
g12
S'word: dog, index: 5'
p423
sbatp424
Rp425
(dp426
g12
S'id: 7'
p427
sbag0
(g1
g2
(lp428
g0
(g1
g2
(lp429
g0
(g1
g2
(lp430
(lp431
S"word: 's, index: 8"
p432
aatp433
Rp434
(dp435
g12
Vcop
p436
sbag0
(g1
g2
(lp437
(lp438
S'word: his, index: 9'
p439
aatp440
Rp441
(dp442
g12
Vposs
p443
sbag0
(g1
g2
(lp444
g0
(g1
g2
(lp445
g0
(g1
g2
(lp446
(lp447
S'word: and, index: 1'
p448
aatp449
Rp450
(dp451
g12
Vcc
p452
sbag0
(g1
g2
(lp453
(lp454
S'word: that, index: 2'
p455
aatp456
Rp457
(dp458
g12
Vnsubj
p459
sbag0
(g1
g2
(lp460
(lp461
S"word: 's, index: 3"
p462
aatp463
Rp464
(dp465
g12
Vcop
p466
sbag0
(g1
g2
(lp467
(lp468
S'word: his, index: 4'
p469
aatp470
Rp471
(dp472
g12
Vposs
p473
sbatp474
Rp475
(dp476
g12
S'word: mom, index: 5'
p477
sbatp478
Rp479
(dp480
g12
Vccomp
p481
sbag0
(g1
g2
(lp482
(lp483
S'word: that, index: 7'
p484
aatp485
Rp486
(dp487
g12
Vnsubj
p488
sbatp489
Rp490
(dp491
g12
S'word: dad, index: 10'
p492
sbatp493
Rp494
(dp495
g12
S'id: 8'
p496
sbag0
(g1
g2
(lp497
g0
(g1
g2
(lp498
g0
(g1
g2
(lp499
(lp500
S'word: there, index: 1'
p501
aatp502
Rp503
(dp504
g12
Vexpl
p505
sbag0
(g1
g2
(lp506
g0
(g1
g2
(lp507
g0
(g1
g2
(lp508
g0
(g1
g2
(lp509
g0
(g1
g2
(lp510
(lp511
S'word: the, index: 6'
p512
aatp513
Rp514
(dp515
g12
Vdet
p516
sbatp517
Rp518
(dp519
g12
S'word: man, index: 7'
p520
sbatp521
Rp522
(dp523
g12
Vconj
p524
sbatp525
Rp526
(dp527
g12
S'word: shoes, index: 3'
p528
sbatp529
Rp530
(dp531
g12
Vnsubj
p532
sbag0
(g1
g2
(lp533
g518
atp534
Rp535
(dp536
g12
Vnsubj
p537
sbag0
(g1
g2
(lp538
g0
(g1
g2
(lp539
g0
(g1
g2
(lp540
(lp541
S'word: there, index: 9'
p542
aatp543
Rp544
(dp545
g12
Vexpl
p546
sbatp547
Rp548
(dp549
g12
S'word: out, index: 10'
p550
sbatp551
Rp552
(dp553
g12
Vparataxis
p554
sbatp555
Rp556
(dp557
g12
S"word: 's, index: 2"
p558
sbatp559
Rp560
(dp561
g12
S'id: 9'
p562
sbag0
(g1
g2
(lp563
g0
(g1
g2
(lp564
g0
(g1
g2
(lp565
(lp566
S'word: that, index: 2'
p567
aatp568
Rp569
(dp570
g12
Vnsubj
p571
sbag0
(g1
g2
(lp572
(lp573
S"word: 's, index: 3"
p574
aatp575
Rp576
(dp577
g12
Vcop
p578
sbag0
(g1
g2
(lp579
(lp580
S'word: his, index: 4'
p581
aatp582
Rp583
(dp584
g12
Vposs
p585
sbag0
(g1
g2
(lp586
g0
(g1
g2
(lp587
g0
(g1
g2
(lp588
g0
(g1
g2
(lp589
g0
(g1
g2
(lp590
(lp591
S'word: that, index: 15'
p592
aatp593
Rp594
(dp595
g12
Vmark
p596
sbag0
(g1
g2
(lp597
(lp598
S'word: she, index: 16'
p599
aatp600
Rp601
(dp602
g12
Vnsubj
p603
sbag0
(g1
g2
(lp604
(lp605
S"word: 's, index: 17"
p606
aatp607
Rp608
(dp609
g12
Vaux
p610
sbatp611
Rp612
(dp613
g12
S'word: sitting, index: 18'
p614
sbatp615
Rp616
(dp617
g12
Vccomp
p618
sbag0
(g1
g2
(lp619
(lp620
S'word: she, index: 8'
p621
aatp622
Rp623
(dp624
g12
Vnsubjpass
p625
sbag0
(g1
g2
(lp626
(lp627
S"word: 's, index: 9"
p628
aatp629
Rp630
(dp631
g12
Vauxpass
p632
sbag0
(g1
g2
(lp633
g0
(g1
g2
(lp634
g0
(g1
g2
(lp635
(lp636
S'word: her, index: 11'
p637
aatp638
Rp639
(dp640
g12
Vposs
p641
sbatp642
Rp643
(dp644
g12
S'word: kids, index: 12'
p645
sbatp646
Rp647
(dp648
g12
Vdobj
p649
sbag0
(g1
g2
(lp650
g0
(g1
g2
(lp651
g0
(g1
g2
(lp652
(lp653
S'word: there, index: 14'
p654
aatp655
Rp656
(dp657
g12
Vadvmod
p658
sbatp659
Rp660
(dp661
g12
S'word: out, index: 13'
p662
sbatp663
Rp664
(dp665
g12
Vadvmod
p666
sbatp667
Rp668
(dp669
g12
S'word: got, index: 10'
p670
sbatp671
Rp672
(dp673
g12
Vconj
p674
sbatp675
Rp676
(dp677
g12
S'word: woman, index: 5'
p678
sbatp679
Rp680
(dp681
g12
S'id: 10'
p682
sbag0
(g1
g2
(lp683
g0
(g1
g2
(lp684
g0
(g1
g2
(lp685
(lp686
S'word: and, index: 1'
p687
aatp688
Rp689
(dp690
g12
Vcc
p691
sbag0
(g1
g2
(lp692
(lp693
S'word: that, index: 2'
p694
aatp695
Rp696
(dp697
g12
Vnsubj
p698
sbag0
(g1
g2
(lp699
(lp700
S"word: 's, index: 3"
p701
aatp702
Rp703
(dp704
g12
Vcop
p705
sbatp706
Rp707
(dp708
g12
S'word: picnic, index: 4'
p709
sbatp710
Rp711
(dp712
g12
S'id: 11'
p713
sbag0
(g1
g2
(lp714
g0
(g1
g2
(lp715
g0
(g1
g2
(lp716
g0
(g1
g2
(lp717
g0
(g1
g2
(lp718
(lp719
S'word: a, index: 5'
p720
aatp721
Rp722
(dp723
g12
Vdet
p724
sbatp725
Rp726
(dp727
g12
S'word: button, index: 6'
p728
sbatp729
Rp730
(dp731
g12
Vprep
p732
sbag0
(g1
g2
(lp733
(lp734
S'word: and, index: 1'
p735
aatp736
Rp737
(dp738
g12
Vcc
p739
sbag0
(g1
g2
(lp740
(lp741
S'word: that, index: 2'
p742
aatp743
Rp744
(dp745
g12
Vnsubj
p746
sbatp747
Rp748
(dp749
g12
S"word: 's, index: 3"
p750
sbatp751
Rp752
(dp753
g12
S'id: 12'
p754
sbag0
(g1
g2
(lp755
g0
(g1
g2
(lp756
g0
(g1
g2
(lp757
(lp758
S'word: that, index: 8'
p759
aatp760
Rp761
(dp762
g12
Vnsubj
p763
sbag0
(g1
g2
(lp764
(lp765
S"word: 's, index: 9"
p766
aatp767
Rp768
(dp769
g12
Vcop
p770
sbag0
(g1
g2
(lp771
(lp772
S'word: their, index: 10'
p773
aatp774
Rp775
(dp776
g12
Vposs
p777
sbag0
(g1
g2
(lp778
g0
(g1
g2
(lp779
g0
(g1
g2
(lp780
(lp781
S'word: them, index: 14'
p782
aatp783
Rp784
(dp785
g12
Viobj
p786
sbag0
(g1
g2
(lp787
g0
(g1
g2
(lp788
g0
(g1
g2
(lp789
g0
(g1
g2
(lp790
g0
(g1
g2
(lp791
(lp792
S'word: to, index: 16'
p793
aatp794
Rp795
(dp796
g12
Vaux
p797
sbatp798
Rp799
(dp800
g12
S'word: drink, index: 17'
p801
sbatp802
Rp803
(dp804
g12
Vvmod
p805
sbatp806
Rp807
(dp808
g12
S'word: something, index: 15'
p809
sbatp810
Rp811
(dp812
g12
Vdobj
p813
sbatp814
Rp815
(dp816
g12
S'word: giving, index: 13'
p817
sbatp818
Rp819
(dp820
g12
Vvmod
p821
sbag0
(g1
g2
(lp822
g0
(g1
g2
(lp823
g0
(g1
g2
(lp824
(lp825
S'word: and, index: 1'
p826
aatp827
Rp828
(dp829
g12
Vcc
p830
sbag0
(g1
g2
(lp831
(lp832
S'word: that, index: 2'
p833
aatp834
Rp835
(dp836
g12
Vnsubj
p837
sbag0
(g1
g2
(lp838
g0
(g1
g2
(lp839
g0
(g1
g2
(lp840
(lp841
S'word: the, index: 5'
p842
aatp843
Rp844
(dp845
g12
Vdet
p846
sbatp847
Rp848
(dp849
g12
S'word: wine, index: 6'
p850
sbatp851
Rp852
(dp853
g12
Vprep
p854
sbatp855
Rp856
(dp857
g12
S"word: 's, index: 3"
p858
sbatp859
Rp860
(dp861
g12
Vccomp
p862
sbatp863
Rp864
(dp865
g12
S'word: water, index: 11'
p866
sbatp867
Rp868
(dp869
g12
S'id: 13'
p870
sbag0
(g1
g2
(lp871
g0
(g1
g2
(lp872
g0
(g1
g2
(lp873
(lp874
S'word: and, index: 1'
p875
aatp876
Rp877
(dp878
g12
Vcc
p879
sbag0
(g1
g2
(lp880
(lp881
S'word: that, index: 2'
p882
aatp883
Rp884
(dp885
g12
Vnsubj
p886
sbag0
(g1
g2
(lp887
(lp888
S"word: 's, index: 3"
p889
aatp890
Rp891
(dp892
g12
Vcop
p893
sbag0
(g1
g2
(lp894
(lp895
S'word: a, index: 4'
p896
aatp897
Rp898
(dp899
g12
Vdet
p900
sbag0
(g1
g2
(lp901
g0
(g1
g2
(lp902
g0
(g1
g2
(lp903
g0
(g1
g2
(lp904
g0
(g1
g2
(lp905
(lp906
S'word: a, index: 9'
p907
aatp908
Rp909
(dp910
g12
Vdet
p911
sbatp912
Rp913
(dp914
g12
S'word: book, index: 10'
p915
sbatp916
Rp917
(dp918
g12
Vappos
p919
sbatp920
Rp921
(dp922
g12
S'word: book, index: 7'
p923
sbatp924
Rp925
(dp926
g12
Vappos
p927
sbatp928
Rp929
(dp930
g12
S'word: p-o-o-k, index: 5'
p931
sbatp932
Rp933
(dp934
g12
S'id: 14'
p935
sbag0
(g1
g2
(lp936
g0
(g1
g2
(lp937
g0
(g1
g2
(lp938
(lp939
S'word: and, index: 1'
p940
aatp941
Rp942
(dp943
g12
Vcc
p944
sbag0
(g1
g2
(lp945
(lp946
S'word: there, index: 2'
p947
aatp948
Rp949
(dp950
g12
Vexpl
p951
sbag0
(g1
g2
(lp952
g0
(g1
g2
(lp953
g0
(g1
g2
(lp954
(lp955
S'word: his, index: 4'
p956
aatp957
Rp958
(dp959
g12
Vposs
p960
sbatp961
Rp962
(dp963
g12
S'word: eyes, index: 5'
p964
sbatp965
Rp966
(dp967
g12
Vnsubj
p968
sbatp969
Rp970
(dp971
g12
S"word: 's, index: 3"
p972
sbatp973
Rp974
(dp975
g12
S'id: 15'
p976
sbag0
(g1
g2
(lp977
g0
(g1
g2
(lp978
g0
(g1
g2
(lp979
(lp980
S'word: and, index: 1'
p981
aatp982
Rp983
(dp984
g12
Vcc
p985
sbag0
(g1
g2
(lp986
(lp987
S'word: there, index: 2'
p988
aatp989
Rp990
(dp991
g12
Vexpl
p992
sbag0
(g1
g2
(lp993
g0
(g1
g2
(lp994
g0
(g1
g2
(lp995
(lp996
S'word: a, index: 4'
p997
aatp998
Rp999
(dp1000
g12
Vdet
p1001
sbag0
(g1
g2
(lp1002
g0
(g1
g2
(lp1003
g0
(g1
g2
(lp1004
(lp1005
S'word: the, index: 7'
p1006
aatp1007
Rp1008
(dp1009
g12
Vdet
p1010
sbatp1011
Rp1012
(dp1013
g12
S'word: fish, index: 8'
p1014
sbatp1015
Rp1016
(dp1017
g12
Vprep
p1018
sbatp1019
Rp1020
(dp1021
g12
S'word: man, index: 5'
p1022
sbatp1023
Rp1024
(dp1025
g12
Vnsubj
p1026
sbatp1027
Rp1028
(dp1029
g12
S"word: 's, index: 3"
p1030
sbatp1031
Rp1032
(dp1033
g12
S'id: 16'
p1034
sbag0
(g1
g2
(lp1035
g0
(g1
g2
(lp1036
g0
(g1
g2
(lp1037
g0
(g1
g2
(lp1038
g0
(g1
g2
(lp1039
(lp1040
S'word: a, index: 4'
p1041
aatp1042
Rp1043
(dp1044
g12
Vdet
p1045
sbag0
(g1
g2
(lp1046
(lp1047
S'word: the, index: 7'
p1048
aatp1049
Rp1050
(dp1051
g12
Vprep
p1052
sbatp1053
Rp1054
(dp1055
g12
S'word: boat, index: 5'
p1056
sbatp1057
Rp1058
(dp1059
g12
Vnsubj
p1060
sbag0
(g1
g2
(lp1061
g0
(g1
g2
(lp1062
g0
(g1
g2
(lp1063
(lp1064
S'word: that, index: 20'
p1065
aatp1066
Rp1067
(dp1068
g12
Vnsubj
p1069
sbag0
(g1
g2
(lp1070
g0
(g1
g2
(lp1071
g0
(g1
g2
(lp1072
(lp1073
S'word: the, index: 23'
p1074
aatp1075
Rp1076
(dp1077
g12
Vdet
p1078
sbatp1079
Rp1080
(dp1081
g12
S'word: water, index: 24'
p1082
sbatp1083
Rp1084
(dp1085
g12
Vprep
p1086
sbatp1087
Rp1088
(dp1089
g12
S"word: 's, index: 21"
p1090
sbatp1091
Rp1092
(dp1093
g12
Vconj
p1094
sbag0
(g1
g2
(lp1095
g0
(g1
g2
(lp1096
g0
(g1
g2
(lp1097
(lp1098
S'word: it, index: 9'
p1099
aatp1100
Rp1101
(dp1102
g12
Vnsubj
p1103
sbag0
(g1
g2
(lp1104
g0
(g1
g2
(lp1105
g0
(g1
g2
(lp1106
(lp1107
S'word: that, index: 11'
p1108
aatp1109
Rp1110
(dp1111
g12
Vnsubj
p1112
sbag0
(g1
g2
(lp1113
g0
(g1
g2
(lp1114
g0
(g1
g2
(lp1115
(lp1116
S'word: a, index: 14'
p1117
aatp1118
Rp1119
(dp1120
g12
Vdet
p1121
sbag0
(g1
g2
(lp1122
(lp1123
S'word: sailing, index: 17'
p1124
aatp1125
Rp1126
(dp1127
g12
Vappos
p1128
sbatp1129
Rp1130
(dp1131
g12
S'word: sail, index: 15'
p1132
sbatp1133
Rp1134
(dp1135
g12
Vprep
p1136
sbatp1137
Rp1138
(dp1139
g12
S"word: 's, index: 12"
p1140
sbatp1141
Rp1142
(dp1143
g12
Vccomp
p1144
sbatp1145
Rp1146
(dp1147
g12
S"word: 's, index: 10"
p1148
sbatp1149
Rp1150
(dp1151
g12
Vdep
p1152
sbag0
(g1
g2
(lp1153
(lp1154
S'word: there, index: 2'
p1155
aatp1156
Rp1157
(dp1158
g12
Vexpl
p1159
sbatp1160
Rp1161
(dp1162
g12
S"word: 's, index: 3"
p1163
sbatp1164
Rp1165
(dp1166
g12
S'id: 17'
p1167
sbag0
(g1
g2
(lp1168
g0
(g1
g2
(lp1169
g0
(g1
g2
(lp1170
(lp1171
S'word: that, index: 1'
p1172
aatp1173
Rp1174
(dp1175
g12
Vnsubj
p1176
sbag0
(g1
g2
(lp1177
(lp1178
S"word: 's, index: 2"
p1179
aatp1180
Rp1181
(dp1182
g12
Vcop
p1183
sbag0
(g1
g2
(lp1184
(lp1185
S'word: their, index: 3'
p1186
aatp1187
Rp1188
(dp1189
g12
Vposs
p1190
sbatp1191
Rp1192
(dp1193
g12
S'word: house, index: 4'
p1194
sbatp1195
Rp1196
(dp1197
g12
S'id: 18'
p1198
sbag0
(g1
g2
(lp1199
g0
(g1
g2
(lp1200
g0
(g1
g2
(lp1201
(lp1202
S'word: and, index: 1'
p1203
aatp1204
Rp1205
(dp1206
g12
Vcc
p1207
sbag0
(g1
g2
(lp1208
(lp1209
S'word: there, index: 2'
p1210
aatp1211
Rp1212
(dp1213
g12
Vexpl
p1214
sbag0
(g1
g2
(lp1215
g0
(g1
g2
(lp1216
g0
(g1
g2
(lp1217
(lp1218
S'word: their, index: 4'
p1219
aatp1220
Rp1221
(dp1222
g12
Vposs
p1223
sbatp1224
Rp1225
(dp1226
g12
S'word: car, index: 5'
p1227
sbatp1228
Rp1229
(dp1230
g12
Vnsubj
p1231
sbatp1232
Rp1233
(dp1234
g12
S"word: 's, index: 3"
p1235
sbatp1236
Rp1237
(dp1238
g12
S'id: 19'
p1239
sbag0
(g1
g2
(lp1240
g0
(g1
g2
(lp1241
g0
(g1
g2
(lp1242
(lp1243
S'word: and, index: 1'
p1244
aatp1245
Rp1246
(dp1247
g12
Vcc
p1248
sbag0
(g1
g2
(lp1249
(lp1250
S'word: that, index: 2'
p1251
aatp1252
Rp1253
(dp1254
g12
Vnsubj
p1255
sbag0
(g1
g2
(lp1256
g0
(g1
g2
(lp1257
g0
(g1
g2
(lp1258
(lp1259
S'word: where, index: 4'
p1260
aatp1261
Rp1262
(dp1263
g12
Vadvmod
p1264
sbag0
(g1
g2
(lp1265
(lp1266
S'word: they, index: 5'
p1267
aatp1268
Rp1269
(dp1270
g12
Vnsubj
p1271
sbag0
(g1
g2
(lp1272
(lp1273
S"word: 're, index: 6"
p1274
aatp1275
Rp1276
(dp1277
g12
Vaux
p1278
sbatp1279
Rp1280
(dp1281
g12
S'word: driving, index: 7'
p1282
sbatp1283
Rp1284
(dp1285
g12
Vadvcl
p1286
sbatp1287
Rp1288
(dp1289
g12
S"word: 's, index: 3"
p1290
sbatp1291
Rp1292
(dp1293
g12
S'id: 20'
p1294
sbag0
(g1
g2
(lp1295
g0
(g1
g2
(lp1296
g0
(g1
g2
(lp1297
(lp1298
S'word: and, index: 1'
p1299
aatp1300
Rp1301
(dp1302
g12
Vcc
p1303
sbag0
(g1
g2
(lp1304
(lp1305
S'word: there, index: 3'
p1306
aatp1307
Rp1308
(dp1309
g12
Vexpl
p1310
sbag0
(g1
g2
(lp1311
g0
(g1
g2
(lp1312
g0
(g1
g2
(lp1313
(lp1314
S'word: a, index: 5'
p1315
aatp1316
Rp1317
(dp1318
g12
Vdet
p1319
sbag0
(g1
g2
(lp1320
(lp1321
S'word: f-l-a-g, index: 6'
p1322
aatp1323
Rp1324
(dp1325
g12
Vamod
p1326
sbatp1327
Rp1328
(dp1329
g12
S'word: flag, index: 7'
p1330
sbatp1331
Rp1332
(dp1333
g12
Vnsubj
p1334
sbag0
(g1
g2
(lp1335
g0
(g1
g2
(lp1336
g0
(g1
g2
(lp1337
g0
(g1
g2
(lp1338
g0
(g1
g2
(lp1339
(lp1340
S'word: the, index: 20'
p1341
aatp1342
Rp1343
(dp1344
g12
Vdet
p1345
sbag0
(g1
g2
(lp1346
g0
(g1
g2
(lp1347
g0
(g1
g2
(lp1348
(lp1349
S'word: up, index: 21'
p1350
aatp1351
Rp1352
(dp1353
g12
Vadvmod
p1354
sbag0
(g1
g2
(lp1355
(lp1356
S'word: up, index: 24'
p1357
aatp1358
Rp1359
(dp1360
g12
Vadvmod
p1361
sbag0
(g1
g2
(lp1362
g0
(g1
g2
(lp1363
g0
(g1
g2
(lp1364
(lp1365
S'word: the, index: 26'
p1366
aatp1367
Rp1368
(dp1369
g12
Vdet
p1370
sbag0
(g1
g2
(lp1371
(lp1372
S'word: whar, index: 29'
p1373
aatp1374
Rp1375
(dp1376
g12
Vappos
p1377
sbatp1378
Rp1379
(dp1380
g12
S'word: w-h-a-r, index: 27'
p1381
sbatp1382
Rp1383
(dp1384
g12
Vprep
p1385
sbatp1386
Rp1387
(dp1388
g12
S'word: here, index: 22'
p1389
sbatp1390
Rp1391
(dp1392
g12
Vadvmod
p1393
sbatp1394
Rp1395
(dp1396
g12
S'word: wharf, index: 31'
p1397
sbatp1398
Rp1399
(dp1400
g12
Vprep
p1401
sbag0
(g1
g2
(lp1402
g0
(g1
g2
(lp1403
g0
(g1
g2
(lp1404
g0
(g1
g2
(lp1405
g0
(g1
g2
(lp1406
(lp1407
S'word: this, index: 14'
p1408
aatp1409
Rp1410
(dp1411
g12
Vdet
p1412
sbatp1413
Rp1414
(dp1415
g12
S'word: man, index: 15'
p1416
sbatp1417
Rp1418
(dp1419
g12
Vnsubj
p1420
sbag0
(g1
g2
(lp1421
(lp1422
S'word: in, index: 9'
p1423
aatp1424
Rp1425
(dp1426
g12
Vmark
p1427
sbag0
(g1
g2
(lp1428
g0
(g1
g2
(lp1429
g0
(g1
g2
(lp1430
g1414
atp1431
Rp1432
(dp1433
g12
Vconj
p1434
sbag0
(g1
g2
(lp1435
(lp1436
S'word: an, index: 16'
p1437
aatp1438
Rp1439
(dp1440
g12
Vdep
p1441
sbag0
(g1
g2
(lp1442
(lp1443
S'word: the, index: 10'
p1444
aatp1445
Rp1446
(dp1447
g12
Vdet
p1448
sbatp1449
Rp1450
(dp1451
g12
S'word: air, index: 11'
p1452
sbatp1453
Rp1454
(dp1455
g12
Vnsubj
p1456
sbatp1457
Rp1458
(dp1459
g12
S'word: is, index: 17'
p1460
sbatp1461
Rp1462
(dp1463
g12
Vadvcl
p1464
sbatp1465
Rp1466
(dp1467
g12
S'word: up, index: 8'
p1468
sbatp1469
Rp1470
(dp1471
g12
Vadvmod
p1472
sbatp1473
Rp1474
(dp1475
g12
S"word: 's, index: 4"
p1476
sbatp1477
Rp1478
(dp1479
g12
S'id: 21'
p1480
sbag0
(g1
g2
(lp1481
g0
(g1
g2
(lp1482
g0
(g1
g2
(lp1483
(lp1484
S'word: that, index: 2'
p1485
aatp1486
Rp1487
(dp1488
g12
Vnsubj
p1489
sbag0
(g1
g2
(lp1490
g0
(g1
g2
(lp1491
g0
(g1
g2
(lp1492
(lp1493
S'word: the, index: 5'
p1494
aatp1495
Rp1496
(dp1497
g12
Vdet
p1498
sbatp1499
Rp1500
(dp1501
g12
S'word: fishing, index: 6'
p1502
sbatp1503
Rp1504
(dp1505
g12
Vprep
p1506
sbag0
(g1
g2
(lp1507
(lp1508
S'word: and, index: 1'
p1509
aatp1510
Rp1511
(dp1512
g12
Vcc
p1513
sbatp1514
Rp1515
(dp1516
g12
S"word: 's, index: 3"
p1517
sbatp1518
Rp1519
(dp1520
g12
S'id: 22'
p1521
sbag0
(g1
g2
(lp1522
g0
(g1
g2
(lp1523
g0
(g1
g2
(lp1524
(lp1525
S'word: and, index: 1'
p1526
aatp1527
Rp1528
(dp1529
g12
Vcc
p1530
sbag0
(g1
g2
(lp1531
(lp1532
S'word: that, index: 2'
p1533
aatp1534
Rp1535
(dp1536
g12
Vnsubj
p1537
sbag0
(g1
g2
(lp1538
(lp1539
S"word: 's, index: 3"
p1540
aatp1541
Rp1542
(dp1543
g12
Vcop
p1544
sbag0
(g1
g2
(lp1545
(lp1546
S'word: his, index: 4'
p1547
aatp1548
Rp1549
(dp1550
g12
Vposs
p1551
sbatp1552
Rp1553
(dp1554
g12
S'word: boy, index: 5'
p1555
sbatp1556
Rp1557
(dp1558
g12
S'id: 23'
p1559
sbag0
(g1
g2
(lp1560
g0
(g1
g2
(lp1561
g0
(g1
g2
(lp1562
(lp1563
S'word: and, index: 1'
p1564
aatp1565
Rp1566
(dp1567
g12
Vcc
p1568
sbag0
(g1
g2
(lp1569
(lp1570
S'word: that, index: 2'
p1571
aatp1572
Rp1573
(dp1574
g12
Vnsubj
p1575
sbag0
(g1
g2
(lp1576
(lp1577
S"word: 's, index: 3"
p1578
aatp1579
Rp1580
(dp1581
g12
Vcop
p1582
sbag0
(g1
g2
(lp1583
(lp1584
S'word: his, index: 4'
p1585
aatp1586
Rp1587
(dp1588
g12
Vposs
p1589
sbag0
(g1
g2
(lp1590
(lp1591
S'word: little, index: 5'
p1592
aatp1593
Rp1594
(dp1595
g12
Vamod
p1596
sbatp1597
Rp1598
(dp1599
g12
S'word: dog, index: 6'
p1600
sbatp1601
Rp1602
(dp1603
g12
S'id: 24'
p1604
sbag0
(g1
g2
(lp1605
g0
(g1
g2
(lp1606
g0
(g1
g2
(lp1607
(lp1608
S'word: that, index: 1'
p1609
aatp1610
Rp1611
(dp1612
g12
Vnsubj
p1613
sbag0
(g1
g2
(lp1614
(lp1615
S"word: 's, index: 2"
p1616
aatp1617
Rp1618
(dp1619
g12
Vcop
p1620
sbag0
(g1
g2
(lp1621
(lp1622
S'word: his, index: 3'
p1623
aatp1624
Rp1625
(dp1626
g12
Vposs
p1627
sbag0
(g1
g2
(lp1628
(lp1629
S'word: dog, index: 4'
p1630
aatp1631
Rp1632
(dp1633
g12
Vnn
p1634
sbag0
(g1
g2
(lp1635
g0
(g1
g2
(lp1636
g0
(g1
g2
(lp1637
(lp1638
S'word: right, index: 7'
p1639
aatp1640
Rp1641
(dp1642
g12
Vadvmod
p1643
sbatp1644
Rp1645
(dp1646
g12
S'word: there, index: 8'
p1647
sbatp1648
Rp1649
(dp1650
g12
Vadvmod
p1651
sbag0
(g1
g2
(lp1652
g0
(g1
g2
(lp1653
g0
(g1
g2
(lp1654
g0
(g1
g2
(lp1655
g0
(g1
g2
(lp1656
(lp1657
S'word: l-e-c, index: 12'
p1658
aatp1659
Rp1660
(dp1661
g12
Vamod
p1662
sbatp1663
Rp1664
(dp1665
g12
S'word: cleegle, index: 13'
p1666
sbatp1667
Rp1668
(dp1669
g12
Vappos
p1670
sbatp1671
Rp1672
(dp1673
g12
S'word: little, index: 10'
p1674
sbatp1675
Rp1676
(dp1677
g12
Vappos
p1678
sbatp1679
Rp1680
(dp1681
g12
S'word: look, index: 5'
p1682
sbatp1683
Rp1684
(dp1685
g12
S'id: 25'
p1686
sbatp1687
Rp1688
(dp1689
g12
S'sentences'
p1690
sb.