ccopy_reg
_reconstructor
p0
(cnltk.tree
Tree
p1
c__builtin__
list
p2
(lp3
g0
(g1
g2
(lp4
g0
(g1
g2
(lp5
g0
(g1
g2
(lp6
g0
(g1
g2
(lp7
Vthis
p8
atp9
Rp10
(dp11
S'_label'
p12
VDT
p13
sbatp14
Rp15
(dp16
g12
VNP
p17
sbag0
(g1
g2
(lp18
g0
(g1
g2
(lp19
Vlooks
p20
atp21
Rp22
(dp23
g12
VVBZ
p24
sbag0
(g1
g2
(lp25
g0
(g1
g2
(lp26
Vlike
p27
atp28
Rp29
(dp30
g12
VIN
p31
sbag0
(g1
g2
(lp32
g0
(g1
g2
(lp33
Va
p34
atp35
Rp36
(dp37
g12
VDT
p38
sbag0
(g1
g2
(lp39
Vcircus
p40
atp41
Rp42
(dp43
g12
VNN
p44
sbatp45
Rp46
(dp47
g12
VNP
p48
sbatp49
Rp50
(dp51
g12
VPP
p52
sbatp53
Rp54
(dp55
g12
VVP
p56
sbag0
(g1
g2
(lp57
V.
p58
atp59
Rp60
(dp61
g12
V.
p62
sbatp63
Rp64
(dp65
g12
VS
p66
sbatp67
Rp68
(dp69
g12
S'id: 0'
p70
sbag0
(g1
g2
(lp71
g0
(g1
g2
(lp72
g0
(g1
g2
(lp73
g0
(g1
g2
(lp74
VSee
p75
atp76
Rp77
(dp78
g12
VVB
p79
sbag0
(g1
g2
(lp80
g0
(g1
g2
(lp81
g0
(g1
g2
(lp82
Va
p83
atp84
Rp85
(dp86
g12
VDT
p87
sbag0
(g1
g2
(lp88
Vlion
p89
atp90
Rp91
(dp92
g12
VNN
p93
sbatp94
Rp95
(dp96
g12
VNP
p97
sbag0
(g1
g2
(lp98
V,
p99
atp100
Rp101
(dp102
g12
V,
p103
sbag0
(g1
g2
(lp104
g0
(g1
g2
(lp105
Va
p106
atp107
Rp108
(dp109
g12
VDT
p110
sbag0
(g1
g2
(lp111
Vhigh
p112
atp113
Rp114
(dp115
g12
VJJ
p116
sbag0
(g1
g2
(lp117
Vwire
p118
atp119
Rp120
(dp121
g12
VNN
p122
sbag0
(g1
g2
(lp123
Vact
p124
atp125
Rp126
(dp127
g12
VNN
p128
sbatp129
Rp130
(dp131
g12
VNP
p132
sbag0
(g1
g2
(lp133
V,
p134
atp135
Rp136
(dp137
g12
V,
p138
sbag0
(g1
g2
(lp139
g0
(g1
g2
(lp140
Va
p141
atp142
Rp143
(dp144
g12
VDT
p145
sbag0
(g1
g2
(lp146
Vclown
p147
atp148
Rp149
(dp150
g12
VNN
p151
sbatp152
Rp153
(dp154
g12
VNP
p155
sbag0
(g1
g2
(lp156
V,
p157
atp158
Rp159
(dp160
g12
V,
p161
sbag0
(g1
g2
(lp162
g0
(g1
g2
(lp163
g0
(g1
g2
(lp164
Va
p165
atp166
Rp167
(dp168
g12
VDT
p169
sbag0
(g1
g2
(lp170
Vguy
p171
atp172
Rp173
(dp174
g12
VNN
p175
sbatp176
Rp177
(dp178
g12
VNP
p179
sbag0
(g1
g2
(lp180
g0
(g1
g2
(lp181
g0
(g1
g2
(lp182
Vin
p183
atp184
Rp185
(dp186
g12
VIN
p187
sbag0
(g1
g2
(lp188
g0
(g1
g2
(lp189
Va
p190
atp191
Rp192
(dp193
g12
VDT
p194
sbag0
(g1
g2
(lp195
Vcage
p196
atp197
Rp198
(dp199
g12
VNN
p200
sbatp201
Rp202
(dp203
g12
VNP
p204
sbatp205
Rp206
(dp207
g12
VPP
p208
sbag0
(g1
g2
(lp209
V,
p210
atp211
Rp212
(dp213
g12
V,
p214
sbag0
(g1
g2
(lp215
g0
(g1
g2
(lp216
Vin
p217
atp218
Rp219
(dp220
g12
VIN
p221
sbag0
(g1
g2
(lp222
g0
(g1
g2
(lp223
g0
(g1
g2
(lp224
Vwith
p225
atp226
Rp227
(dp228
g12
VIN
p229
sbag0
(g1
g2
(lp230
g0
(g1
g2
(lp231
Vthe
p232
atp233
Rp234
(dp235
g12
VDT
p236
sbag0
(g1
g2
(lp237
Vlion
p238
atp239
Rp240
(dp241
g12
VNN
p242
sbatp243
Rp244
(dp245
g12
VNP
p246
sbatp247
Rp248
(dp249
g12
VPP
p250
sbag0
(g1
g2
(lp251
V,
p252
atp253
Rp254
(dp255
g12
V,
p256
sbag0
(g1
g2
(lp257
Vand
p258
atp259
Rp260
(dp261
g12
VCC
p262
sbag0
(g1
g2
(lp263
g0
(g1
g2
(lp264
g0
(g1
g2
(lp265
Vlooks
p266
atp267
Rp268
(dp269
g12
VVBZ
p270
sbag0
(g1
g2
(lp271
g0
(g1
g2
(lp272
Vlike
p273
atp274
Rp275
(dp276
g12
VIN
p277
sbag0
(g1
g2
(lp278
g0
(g1
g2
(lp279
g0
(g1
g2
(lp280
Vsome
p281
atp282
Rp283
(dp284
g12
VDT
p285
sbag0
(g1
g2
(lp286
Vtwo
p287
atp288
Rp289
(dp290
g12
VCD
p291
sbag0
(g1
g2
(lp292
Vgirls
p293
atp294
Rp295
(dp296
g12
VNNS
p297
sbatp298
Rp299
(dp300
g12
VNP
p301
sbag0
(g1
g2
(lp302
Vand
p303
atp304
Rp305
(dp306
g12
VCC
p307
sbag0
(g1
g2
(lp308
g0
(g1
g2
(lp309
Va
p310
atp311
Rp312
(dp313
g12
VDT
p314
sbag0
(g1
g2
(lp315
Vboy
p316
atp317
Rp318
(dp319
g12
VNN
p320
sbatp321
Rp322
(dp323
g12
VNP
p324
sbatp325
Rp326
(dp327
g12
VNP
p328
sbatp329
Rp330
(dp331
g12
VPP
p332
sbag0
(g1
g2
(lp333
g0
(g1
g2
(lp334
Vdown
p335
atp336
Rp337
(dp338
g12
VIN
p339
sbag0
(g1
g2
(lp340
g0
(g1
g2
(lp341
g0
(g1
g2
(lp342
Vthere
p343
atp344
Rp345
(dp346
g12
VEX
p347
sbatp348
Rp349
(dp350
g12
VNP
p351
sbag0
(g1
g2
(lp352
g0
(g1
g2
(lp353
Vreaching
p354
atp355
Rp356
(dp357
g12
VVBG
p358
sbatp359
Rp360
(dp361
g12
VVP
p362
sbatp363
Rp364
(dp365
g12
VS
p366
sbatp367
Rp368
(dp369
g12
VPP
p370
sbatp371
Rp372
(dp373
g12
VVP
p374
sbatp375
Rp376
(dp377
g12
VS
p378
sbatp379
Rp380
(dp381
g12
VUCP
p382
sbatp383
Rp384
(dp385
g12
VPP
p386
sbatp387
Rp388
(dp389
g12
VRRC
p390
sbatp391
Rp392
(dp393
g12
VNP
p394
sbag0
(g1
g2
(lp395
V,
p396
atp397
Rp398
(dp399
g12
V,
p400
sbag0
(g1
g2
(lp401
g0
(g1
g2
(lp402
g0
(g1
g2
(lp403
Vfor
p404
atp405
Rp406
(dp407
g12
VIN
p408
sbag0
(g1
g2
(lp409
g0
(g1
g2
(lp410
Vwhatever
p411
atp412
Rp413
(dp414
g12
VWDT
p415
sbatp416
Rp417
(dp418
g12
VWHNP
p419
sbatp420
Rp421
(dp422
g12
VWHPP
p423
sbag0
(g1
g2
(lp424
g0
(g1
g2
(lp425
g0
(g1
g2
(lp426
Vthe
p427
atp428
Rp429
(dp430
g12
VDT
p431
sbag0
(g1
g2
(lp432
Vclown
p433
atp434
Rp435
(dp436
g12
VNN
p437
sbatp438
Rp439
(dp440
g12
VNP
p441
sbag0
(g1
g2
(lp442
g0
(g1
g2
(lp443
Vhas
p444
atp445
Rp446
(dp447
g12
VVBZ
p448
sbatp449
Rp450
(dp451
g12
VVP
p452
sbatp453
Rp454
(dp455
g12
VS
p456
sbatp457
Rp458
(dp459
g12
VSBAR
p460
sbatp461
Rp462
(dp463
g12
VNP
p464
sbatp465
Rp466
(dp467
g12
VVP
p468
sbag0
(g1
g2
(lp469
V.
p470
atp471
Rp472
(dp473
g12
V.
p474
sbatp475
Rp476
(dp477
g12
VS
p478
sbatp479
Rp480
(dp481
g12
S'id: 1'
p482
sbag0
(g1
g2
(lp483
g0
(g1
g2
(lp484
g0
(g1
g2
(lp485
VAnd
p486
atp487
Rp488
(dp489
g12
VCC
p490
sbag0
(g1
g2
(lp491
g0
(g1
g2
(lp492
Vthen
p493
atp494
Rp495
(dp496
g12
VRB
p497
sbatp498
Rp499
(dp500
g12
VADVP
p501
sbag0
(g1
g2
(lp502
g0
(g1
g2
(lp503
Vyou
p504
atp505
Rp506
(dp507
g12
VPRP
p508
sbatp509
Rp510
(dp511
g12
VNP
p512
sbag0
(g1
g2
(lp513
g0
(g1
g2
(lp514
Vhave
p515
atp516
Rp517
(dp518
g12
VVBP
p519
sbag0
(g1
g2
(lp520
g0
(g1
g2
(lp521
g0
(g1
g2
(lp522
Vsomeone
p523
atp524
Rp525
(dp526
g12
VNN
p527
sbatp528
Rp529
(dp530
g12
VNP
p531
sbag0
(g1
g2
(lp532
g0
(g1
g2
(lp533
Vriding
p534
atp535
Rp536
(dp537
g12
VVBG
p538
sbag0
(g1
g2
(lp539
g0
(g1
g2
(lp540
Va
p541
atp542
Rp543
(dp544
g12
VDT
p545
sbag0
(g1
g2
(lp546
Vhorse
p547
atp548
Rp549
(dp550
g12
VNN
p551
sbatp552
Rp553
(dp554
g12
VNP
p555
sbag0
(g1
g2
(lp556
g0
(g1
g2
(lp557
Vover
p558
atp559
Rp560
(dp561
g12
VIN
p562
sbag0
(g1
g2
(lp563
g0
(g1
g2
(lp564
g0
(g1
g2
(lp565
Vhere
p566
atp567
Rp568
(dp569
g12
VRB
p570
sbatp571
Rp572
(dp573
g12
VADVP
p574
sbag0
(g1
g2
(lp575
g0
(g1
g2
(lp576
Vdoing
p577
atp578
Rp579
(dp580
g12
VVBG
p581
sbag0
(g1
g2
(lp582
g0
(g1
g2
(lp583
g0
(g1
g2
(lp584
Vsome
p585
atp586
Rp587
(dp588
g12
VDT
p589
sbag0
(g1
g2
(lp590
Vkind
p591
atp592
Rp593
(dp594
g12
VNN
p595
sbatp596
Rp597
(dp598
g12
VNP
p599
sbag0
(g1
g2
(lp600
g0
(g1
g2
(lp601
Vof
p602
atp603
Rp604
(dp605
g12
VIN
p606
sbag0
(g1
g2
(lp607
g0
(g1
g2
(lp608
Va
p609
atp610
Rp611
(dp612
g12
VDT
p613
sbag0
(g1
g2
(lp614
Vtrick
p615
atp616
Rp617
(dp618
g12
VNN
p619
sbatp620
Rp621
(dp622
g12
VNP
p623
sbatp624
Rp625
(dp626
g12
VPP
p627
sbatp628
Rp629
(dp630
g12
VNP
p631
sbatp632
Rp633
(dp634
g12
VVP
p635
sbatp636
Rp637
(dp638
g12
VS
p639
sbatp640
Rp641
(dp642
g12
VPP
p643
sbatp644
Rp645
(dp646
g12
VVP
p647
sbatp648
Rp649
(dp650
g12
VNP
p651
sbatp652
Rp653
(dp654
g12
VVP
p655
sbag0
(g1
g2
(lp656
V.
p657
atp658
Rp659
(dp660
g12
V.
p661
sbatp662
Rp663
(dp664
g12
VS
p665
sbatp666
Rp667
(dp668
g12
S'id: 2'
p669
sbag0
(g1
g2
(lp670
g0
(g1
g2
(lp671
g0
(g1
g2
(lp672
g0
(g1
g2
(lp673
VAnd
p674
atp675
Rp676
(dp677
g12
VCC
p678
sbag0
(g1
g2
(lp679
Vthen
p680
atp681
Rp682
(dp683
g12
VRB
p684
sbag0
(g1
g2
(lp685
g0
(g1
g2
(lp686
VI
p687
atp688
Rp689
(dp690
g12
VPRP
p691
sbatp692
Rp693
(dp694
g12
VNP
p695
sbag0
(g1
g2
(lp696
g0
(g1
g2
(lp697
Vsee
p698
atp699
Rp700
(dp701
g12
VVBP
p702
sbag0
(g1
g2
(lp703
g0
(g1
g2
(lp704
g0
(g1
g2
(lp705
Vother
p706
atp707
Rp708
(dp709
g12
VJJ
p710
sbag0
(g1
g2
(lp711
Vpeople
p712
atp713
Rp714
(dp715
g12
VNNS
p716
sbatp717
Rp718
(dp719
g12
VNP
p720
sbag0
(g1
g2
(lp721
g0
(g1
g2
(lp722
Vin
p723
atp724
Rp725
(dp726
g12
VIN
p727
sbag0
(g1
g2
(lp728
g0
(g1
g2
(lp729
Vsilhouette
p730
atp731
Rp732
(dp733
g12
VNN
p734
sbatp735
Rp736
(dp737
g12
VNP
p738
sbatp739
Rp740
(dp741
g12
VPP
p742
sbatp743
Rp744
(dp745
g12
VNP
p746
sbatp747
Rp748
(dp749
g12
VVP
p750
sbatp751
Rp752
(dp753
g12
VS
p754
sbag0
(g1
g2
(lp755
V,
p756
atp757
Rp758
(dp759
g12
V,
p760
sbag0
(g1
g2
(lp761
g0
(g1
g2
(lp762
Vca
p763
atp764
Rp765
(dp766
g12
VMD
p767
sbag0
(g1
g2
(lp768
Vn't
p769
atp770
Rp771
(dp772
g12
VRB
p773
sbag0
(g1
g2
(lp774
g0
(g1
g2
(lp775
Vreally
p776
atp777
Rp778
(dp779
g12
VRB
p780
sbatp781
Rp782
(dp783
g12
VADVP
p784
sbag0
(g1
g2
(lp785
g0
(g1
g2
(lp786
Vsee
p787
atp788
Rp789
(dp790
g12
VVB
p791
sbatp792
Rp793
(dp794
g12
VVP
p795
sbatp796
Rp797
(dp798
g12
VVP
p799
sbag0
(g1
g2
(lp800
g0
(g1
g2
(lp801
Vthem
p802
atp803
Rp804
(dp805
g12
VPRP
p806
sbatp807
Rp808
(dp809
g12
VNP
p810
sbag0
(g1
g2
(lp811
V.
p812
atp813
Rp814
(dp815
g12
V.
p816
sbatp817
Rp818
(dp819
g12
VSINV
p820
sbatp821
Rp822
(dp823
g12
S'id: 3'
p824
sbag0
(g1
g2
(lp825
g0
(g1
g2
(lp826
g0
(g1
g2
(lp827
VAnd
p828
atp829
Rp830
(dp831
g12
VCC
p832
sbag0
(g1
g2
(lp833
g0
(g1
g2
(lp834
Vthat
p835
atp836
Rp837
(dp838
g12
VDT
p839
sbatp840
Rp841
(dp842
g12
VNP
p843
sbag0
(g1
g2
(lp844
g0
(g1
g2
(lp845
Vlooks
p846
atp847
Rp848
(dp849
g12
VVBZ
p850
sbag0
(g1
g2
(lp851
g0
(g1
g2
(lp852
Vlike
p853
atp854
Rp855
(dp856
g12
VIN
p857
sbag0
(g1
g2
(lp858
g0
(g1
g2
(lp859
g0
(g1
g2
(lp860
VI
p861
atp862
Rp863
(dp864
g12
VPRP
p865
sbatp866
Rp867
(dp868
g12
VNP
p869
sbag0
(g1
g2
(lp870
g0
(g1
g2
(lp871
Vguess
p872
atp873
Rp874
(dp875
g12
VVBP
p876
sbag0
(g1
g2
(lp877
g0
(g1
g2
(lp878
Va
p879
atp880
Rp881
(dp882
g12
VDT
p883
sbag0
(g1
g2
(lp884
Vpool
p885
atp886
Rp887
(dp888
g12
VNN
p889
sbatp890
Rp891
(dp892
g12
VNP
p893
sbatp894
Rp895
(dp896
g12
VVP
p897
sbatp898
Rp899
(dp900
g12
VS
p901
sbatp902
Rp903
(dp904
g12
VSBAR
p905
sbatp906
Rp907
(dp908
g12
VVP
p909
sbag0
(g1
g2
(lp910
V.
p911
atp912
Rp913
(dp914
g12
V.
p915
sbatp916
Rp917
(dp918
g12
VS
p919
sbatp920
Rp921
(dp922
g12
S'id: 4'
p923
sbag0
(g1
g2
(lp924
g0
(g1
g2
(lp925
g0
(g1
g2
(lp926
g0
(g1
g2
(lp927
VWith
p928
atp929
Rp930
(dp931
g12
VIN
p932
sbag0
(g1
g2
(lp933
g0
(g1
g2
(lp934
g0
(g1
g2
(lp935
Vstars
p936
atp937
Rp938
(dp939
g12
VNNS
p940
sbatp941
Rp942
(dp943
g12
VNP
p944
sbag0
(g1
g2
(lp945
g0
(g1
g2
(lp946
Von
p947
atp948
Rp949
(dp950
g12
VIN
p951
sbag0
(g1
g2
(lp952
g0
(g1
g2
(lp953
g0
(g1
g2
(lp954
Vthe
p955
atp956
Rp957
(dp958
g12
VDT
p959
sbag0
(g1
g2
(lp960
Vside
p961
atp962
Rp963
(dp964
g12
VNN
p965
sbatp966
Rp967
(dp968
g12
VNP
p969
sbag0
(g1
g2
(lp970
g0
(g1
g2
(lp971
Vof
p972
atp973
Rp974
(dp975
g12
VIN
p976
sbag0
(g1
g2
(lp977
g0
(g1
g2
(lp978
Vthe
p979
atp980
Rp981
(dp982
g12
VDT
p983
sbag0
(g1
g2
(lp984
Vpool
p985
atp986
Rp987
(dp988
g12
VNN
p989
sbatp990
Rp991
(dp992
g12
VNP
p993
sbatp994
Rp995
(dp996
g12
VPP
p997
sbatp998
Rp999
(dp1000
g12
VNP
p1001
sbatp1002
Rp1003
(dp1004
g12
VPP
p1005
sbatp1006
Rp1007
(dp1008
g12
VNP
p1009
sbatp1010
Rp1011
(dp1012
g12
VPP
p1013
sbag0
(g1
g2
(lp1014
V.
p1015
atp1016
Rp1017
(dp1018
g12
V.
p1019
sbatp1020
Rp1021
(dp1022
g12
VFRAG
p1023
sbatp1024
Rp1025
(dp1026
g12
S'id: 5'
p1027
sbag0
(g1
g2
(lp1028
g0
(g1
g2
(lp1029
g0
(g1
g2
(lp1030
g0
(g1
g2
(lp1031
VI
p1032
atp1033
Rp1034
(dp1035
g12
VPRP
p1036
sbatp1037
Rp1038
(dp1039
g12
VNP
p1040
sbag0
(g1
g2
(lp1041
g0
(g1
g2
(lp1042
Vsaid
p1043
atp1044
Rp1045
(dp1046
g12
VVBD
p1047
sbag0
(g1
g2
(lp1048
g0
(g1
g2
(lp1049
g0
(g1
g2
(lp1050
Vthe
p1051
atp1052
Rp1053
(dp1054
g12
VDT
p1055
sbag0
(g1
g2
(lp1056
Vhigh
p1057
atp1058
Rp1059
(dp1060
g12
VJJ
p1061
sbag0
(g1
g2
(lp1062
Vwire
p1063
atp1064
Rp1065
(dp1066
g12
VNN
p1067
sbag0
(g1
g2
(lp1068
Vact
p1069
atp1070
Rp1071
(dp1072
g12
VNN
p1073
sbatp1074
Rp1075
(dp1076
g12
VNP
p1077
sbag0
(g1
g2
(lp1078
V,
p1079
atp1080
Rp1081
(dp1082
g12
V,
p1083
sbag0
(g1
g2
(lp1084
g0
(g1
g2
(lp1085
Vright
p1086
atp1087
Rp1088
(dp1089
g12
VNN
p1090
sbatp1091
Rp1092
(dp1093
g12
VNP
p1094
sbatp1095
Rp1096
(dp1097
g12
VNP
p1098
sbatp1099
Rp1100
(dp1101
g12
VVP
p1102
sbatp1103
Rp1104
(dp1105
g12
VS
p1106
sbatp1107
Rp1108
(dp1109
g12
S'id: 6'
p1110
sbatp1111
Rp1112
(dp1113
g12
S'sentences'
p1114
sb.