ccopy_reg
_reconstructor
p0
(cnltk.tree
Tree
p1
c__builtin__
list
p2
(lp3
g0
(g1
g2
(lp4
g0
(g1
g2
(lp5
g0
(g1
g2
(lp6
g0
(g1
g2
(lp7
g0
(g1
g2
(lp8
g0
(g1
g2
(lp9
g0
(g1
g2
(lp10
g0
(g1
g2
(lp11
VThe
p12
atp13
Rp14
(dp15
S'_label'
p16
VDT
p17
sbag0
(g1
g2
(lp18
Vboy
p19
atp20
Rp21
(dp22
g16
VNN
p23
sbatp24
Rp25
(dp26
g16
VNP
p27
sbag0
(g1
g2
(lp28
V,
p29
atp30
Rp31
(dp32
g16
V,
p33
sbag0
(g1
g2
(lp34
g0
(g1
g2
(lp35
g0
(g1
g2
(lp36
g0
(g1
g2
(lp37
Vthe
p38
atp39
Rp40
(dp41
g16
VDT
p42
sbag0
(g1
g2
(lp43
Vboy
p44
atp45
Rp46
(dp47
g16
VNN
p48
sbag0
(g1
g2
(lp49
V's
p50
atp51
Rp52
(dp53
g16
VPOS
p54
sbatp55
Rp56
(dp57
g16
VNP
p58
sbag0
(g1
g2
(lp59
Vraiding
p60
atp61
Rp62
(dp63
g16
VNN
p64
sbatp65
Rp66
(dp67
g16
VNP
p68
sbag0
(g1
g2
(lp69
g0
(g1
g2
(lp70
Vthe
p71
atp72
Rp73
(dp74
g16
VDT
p75
sbag0
(g1
g2
(lp76
Vcooking
p77
atp78
Rp79
(dp80
g16
VNN
p81
sbag0
(g1
g2
(lp82
Vjar
p83
atp84
Rp85
(dp86
g16
VNN
p87
sbatp88
Rp89
(dp90
g16
VNP
p91
sbatp92
Rp93
(dp94
g16
VNP
p95
sbag0
(g1
g2
(lp96
V,
p97
atp98
Rp99
(dp100
g16
V,
p101
sbatp102
Rp103
(dp104
g16
VNP
p105
sbag0
(g1
g2
(lp106
Vand
p107
atp108
Rp109
(dp110
g16
VCC
p111
sbag0
(g1
g2
(lp112
g0
(g1
g2
(lp113
V,
p114
atp115
Rp116
(dp117
g16
V,
p118
sbag0
(g1
g2
(lp119
Vand
p120
atp121
Rp122
(dp123
g16
VCC
p124
sbag0
(g1
g2
(lp125
g0
(g1
g2
(lp126
Vhe
p127
atp128
Rp129
(dp130
g16
VPRP
p131
sbatp132
Rp133
(dp134
g16
VNP
p135
sbag0
(g1
g2
(lp136
V,
p137
atp138
Rp139
(dp140
g16
V,
p141
sbatp142
Rp143
(dp144
g16
VPRN
p145
sbag0
(g1
g2
(lp146
g0
(g1
g2
(lp147
Vhe
p148
atp149
Rp150
(dp151
g16
VPRP
p152
sbatp153
Rp154
(dp155
g16
VNP
p156
sbatp157
Rp158
(dp159
g16
VNP
p160
sbag0
(g1
g2
(lp161
g0
(g1
g2
(lp162
V,
p163
atp164
Rp165
(dp166
g16
V,
p167
sbag0
(g1
g2
(lp168
g0
(g1
g2
(lp169
g0
(g1
g2
(lp170
Vhe
p171
atp172
Rp173
(dp174
g16
VPRP
p175
sbatp176
Rp177
(dp178
g16
VNP
p179
sbag0
(g1
g2
(lp180
g0
(g1
g2
(lp181
V's
p182
atp183
Rp184
(dp185
g16
VVBZ
p186
sbag0
(g1
g2
(lp187
g0
(g1
g2
(lp188
Vstanding
p189
atp190
Rp191
(dp192
g16
VVBG
p193
sbag0
(g1
g2
(lp194
g0
(g1
g2
(lp195
Von
p196
atp197
Rp198
(dp199
g16
VIN
p200
sbag0
(g1
g2
(lp201
g0
(g1
g2
(lp202
Va
p203
atp204
Rp205
(dp206
g16
VDT
p207
sbag0
(g1
g2
(lp208
Vstoo
p209
atp210
Rp211
(dp212
g16
VNN
p213
sbatp214
Rp215
(dp216
g16
VNP
p217
sbatp218
Rp219
(dp220
g16
VPP
p221
sbatp222
Rp223
(dp224
g16
VVP
p225
sbatp226
Rp227
(dp228
g16
VVP
p229
sbatp230
Rp231
(dp232
g16
VS
p233
sbag0
(g1
g2
(lp234
V,
p235
atp236
Rp237
(dp238
g16
V,
p239
sbatp240
Rp241
(dp242
g16
VPRN
p243
sbatp244
Rp245
(dp246
g16
VNP
p247
sbag0
(g1
g2
(lp248
g0
(g1
g2
(lp249
Von
p250
atp251
Rp252
(dp253
g16
VIN
p254
sbag0
(g1
g2
(lp255
g0
(g1
g2
(lp256
Va
p257
atp258
Rp259
(dp260
g16
VDT
p261
sbag0
(g1
g2
(lp262
Vstool
p263
atp264
Rp265
(dp266
g16
VNN
p267
sbatp268
Rp269
(dp270
g16
VNP
p271
sbatp272
Rp273
(dp274
g16
VPP
p275
sbatp276
Rp277
(dp278
g16
VS
p279
sbag0
(g1
g2
(lp280
V,
p281
atp282
Rp283
(dp284
g16
V,
p285
sbag0
(g1
g2
(lp286
Vand
p287
atp288
Rp289
(dp290
g16
VCC
p291
sbag0
(g1
g2
(lp292
g0
(g1
g2
(lp293
g0
(g1
g2
(lp294
Vhe
p295
atp296
Rp297
(dp298
g16
VPRP
p299
sbatp300
Rp301
(dp302
g16
VNP
p303
sbag0
(g1
g2
(lp304
V,
p305
atp306
Rp307
(dp308
g16
V,
p309
sbag0
(g1
g2
(lp310
g0
(g1
g2
(lp311
Vit
p312
atp313
Rp314
(dp315
g16
VPRP
p316
sbatp317
Rp318
(dp319
g16
VNP
p320
sbatp321
Rp322
(dp323
g16
VS
p324
sbag0
(g1
g2
(lp325
V,
p326
atp327
Rp328
(dp329
g16
V,
p330
sbag0
(g1
g2
(lp331
g0
(g1
g2
(lp332
g0
(g1
g2
(lp333
Vit
p334
atp335
Rp336
(dp337
g16
VPRP
p338
sbatp339
Rp340
(dp341
g16
VNP
p342
sbag0
(g1
g2
(lp343
g0
(g1
g2
(lp344
V's
p345
atp346
Rp347
(dp348
g16
VVBZ
p349
sbag0
(g1
g2
(lp350
g0
(g1
g2
(lp351
Vfalling
p352
atp353
Rp354
(dp355
g16
VVBG
p356
sbatp357
Rp358
(dp359
g16
VVP
p360
sbatp361
Rp362
(dp363
g16
VVP
p364
sbatp365
Rp366
(dp367
g16
VS
p368
sbag0
(g1
g2
(lp369
V.
p370
atp371
Rp372
(dp373
g16
V.
p374
sbatp375
Rp376
(dp377
g16
VS
p378
sbatp379
Rp380
(dp381
g16
S'id: 0'
p382
sbag0
(g1
g2
(lp383
g0
(g1
g2
(lp384
g0
(g1
g2
(lp385
VAnd
p386
atp387
Rp388
(dp389
g16
VCC
p390
sbag0
(g1
g2
(lp391
g0
(g1
g2
(lp392
g0
(g1
g2
(lp393
Vthe
p394
atp395
Rp396
(dp397
g16
VDT
p398
sbag0
(g1
g2
(lp399
Vgirl
p400
atp401
Rp402
(dp403
g16
VNN
p404
sbatp405
Rp406
(dp407
g16
VNP
p408
sbag0
(g1
g2
(lp409
g0
(g1
g2
(lp410
Vis
p411
atp412
Rp413
(dp414
g16
VVBZ
p415
sbag0
(g1
g2
(lp416
g0
(g1
g2
(lp417
Vtelling
p418
atp419
Rp420
(dp421
g16
VVBG
p422
sbag0
(g1
g2
(lp423
g0
(g1
g2
(lp424
g0
(g1
g2
(lp425
g0
(g1
g2
(lp426
Vhim
p427
atp428
Rp429
(dp430
g16
VPRP
p431
sbatp432
Rp433
(dp434
g16
VNP
p435
sbag0
(g1
g2
(lp436
V,
p437
atp438
Rp439
(dp440
g16
V,
p441
sbag0
(g1
g2
(lp442
g0
(g1
g2
(lp443
Vhim
p444
atp445
Rp446
(dp447
g16
VPRP
p448
sbatp449
Rp450
(dp451
g16
VNP
p452
sbag0
(g1
g2
(lp453
V,
p454
atp455
Rp456
(dp457
g16
V,
p458
sbatp459
Rp460
(dp461
g16
VNP
p462
sbag0
(g1
g2
(lp463
g0
(g1
g2
(lp464
Vto
p465
atp466
Rp467
(dp468
g16
VTO
p469
sbag0
(g1
g2
(lp470
g0
(g1
g2
(lp471
Vbe
p472
atp473
Rp474
(dp475
g16
VVB
p476
sbag0
(g1
g2
(lp477
g0
(g1
g2
(lp478
Vquiet
p479
atp480
Rp481
(dp482
g16
VJJ
p483
sbatp484
Rp485
(dp486
g16
VADJP
p487
sbatp488
Rp489
(dp490
g16
VVP
p491
sbatp492
Rp493
(dp494
g16
VVP
p495
sbatp496
Rp497
(dp498
g16
VS
p499
sbatp500
Rp501
(dp502
g16
VVP
p503
sbatp504
Rp505
(dp506
g16
VVP
p507
sbatp508
Rp509
(dp510
g16
VS
p511
sbag0
(g1
g2
(lp512
V,
p513
atp514
Rp515
(dp516
g16
V,
p517
sbag0
(g1
g2
(lp518
Vbut
p519
atp520
Rp521
(dp522
g16
VCC
p523
sbag0
(g1
g2
(lp524
g0
(g1
g2
(lp525
g0
(g1
g2
(lp526
g0
(g1
g2
(lp527
g0
(g1
g2
(lp528
Vsh
p529
atp530
Rp531
(dp532
g16
VNN
p533
sbatp534
Rp535
(dp536
g16
VNP
p537
sbag0
(g1
g2
(lp538
V,
p539
atp540
Rp541
(dp542
g16
V,
p543
sbag0
(g1
g2
(lp544
g0
(g1
g2
(lp545
Vsh
p546
atp547
Rp548
(dp549
g16
VNN
p550
sbatp551
Rp552
(dp553
g16
VNP
p554
sbag0
(g1
g2
(lp555
V,
p556
atp557
Rp558
(dp559
g16
V,
p560
sbatp561
Rp562
(dp563
g16
VNP
p564
sbatp565
Rp566
(dp567
g16
VS
p568
sbag0
(g1
g2
(lp569
g0
(g1
g2
(lp570
Vshe
p571
atp572
Rp573
(dp574
g16
VPRP
p575
sbatp576
Rp577
(dp578
g16
VNP
p579
sbag0
(g1
g2
(lp580
g0
(g1
g2
(lp581
Valso
p582
atp583
Rp584
(dp585
g16
VRB
p586
sbatp587
Rp588
(dp589
g16
VADVP
p590
sbag0
(g1
g2
(lp591
g0
(g1
g2
(lp592
Vgot
p593
atp594
Rp595
(dp596
g16
VVBD
p597
sbag0
(g1
g2
(lp598
g0
(g1
g2
(lp599
Va
p600
atp601
Rp602
(dp603
g16
VDT
p604
sbag0
(g1
g2
(lp605
Vcookie
p606
atp607
Rp608
(dp609
g16
VNN
p610
sbatp611
Rp612
(dp613
g16
VNP
p614
sbatp615
Rp616
(dp617
g16
VVP
p618
sbatp619
Rp620
(dp621
g16
VS
p622
sbag0
(g1
g2
(lp623
V.
p624
atp625
Rp626
(dp627
g16
V.
p628
sbatp629
Rp630
(dp631
g16
VS
p632
sbatp633
Rp634
(dp635
g16
S'id: 1'
p636
sbag0
(g1
g2
(lp637
g0
(g1
g2
(lp638
g0
(g1
g2
(lp639
g0
(g1
g2
(lp640
g0
(g1
g2
(lp641
g0
(g1
g2
(lp642
g0
(g1
g2
(lp643
VOk
p644
atp645
Rp646
(dp647
g16
VNNP
p648
sbatp649
Rp650
(dp651
g16
VNP
p652
sbag0
(g1
g2
(lp653
V,
p654
atp655
Rp656
(dp657
g16
V,
p658
sbag0
(g1
g2
(lp659
g0
(g1
g2
(lp660
g0
(g1
g2
(lp661
g0
(g1
g2
(lp662
Vthe
p663
atp664
Rp665
(dp666
g16
VDT
p667
sbag0
(g1
g2
(lp668
Vmom
p669
atp670
Rp671
(dp672
g16
VNN
p673
sbatp674
Rp675
(dp676
g16
VNP
p677
sbag0
(g1
g2
(lp678
g0
(g1
g2
(lp679
Vwashing
p680
atp681
Rp682
(dp683
g16
VVBG
p684
sbag0
(g1
g2
(lp685
g0
(g1
g2
(lp686
Vdishes
p687
atp688
Rp689
(dp690
g16
VNNS
p691
sbatp692
Rp693
(dp694
g16
VNP
p695
sbatp696
Rp697
(dp698
g16
VVP
p699
sbatp700
Rp701
(dp702
g16
VNP
p703
sbag0
(g1
g2
(lp704
V,
p705
atp706
Rp707
(dp708
g16
V,
p709
sbag0
(g1
g2
(lp710
Vand
p711
atp712
Rp713
(dp714
g16
VCC
p715
sbag0
(g1
g2
(lp716
g0
(g1
g2
(lp717
g0
(g1
g2
(lp718
Vthe
p719
atp720
Rp721
(dp722
g16
VDT
p723
sbag0
(g1
g2
(lp724
Vsink
p725
atp726
Rp727
(dp728
g16
VNN
p729
sbag0
(g1
g2
(lp730
V's
p731
atp732
Rp733
(dp734
g16
VPOS
p735
sbatp736
Rp737
(dp738
g16
VNP
p739
sbag0
(g1
g2
(lp740
Voverflowing
p741
atp742
Rp743
(dp744
g16
VVBG
p745
sbatp746
Rp747
(dp748
g16
VNP
p749
sbatp750
Rp751
(dp752
g16
VNP
p753
sbatp754
Rp755
(dp756
g16
VNP
p757
sbag0
(g1
g2
(lp758
V,
p759
atp760
Rp761
(dp762
g16
V,
p763
sbag0
(g1
g2
(lp764
g0
(g1
g2
(lp765
g0
(g1
g2
(lp766
Vthe
p767
atp768
Rp769
(dp770
g16
VDT
p771
sbag0
(g1
g2
(lp772
Vsink
p773
atp774
Rp775
(dp776
g16
VNN
p777
sbag0
(g1
g2
(lp778
V's
p779
atp780
Rp781
(dp782
g16
VPOS
p783
sbatp784
Rp785
(dp786
g16
VNP
p787
sbag0
(g1
g2
(lp788
Voverflowing
p789
atp790
Rp791
(dp792
g16
VVBG
p793
sbatp794
Rp795
(dp796
g16
VNP
p797
sbatp798
Rp799
(dp800
g16
VNP
p801
sbatp802
Rp803
(dp804
g16
VVP
p805
sbag0
(g1
g2
(lp806
V.
p807
atp808
Rp809
(dp810
g16
V.
p811
sbatp812
Rp813
(dp814
g16
VS
p815
sbatp816
Rp817
(dp818
g16
S'id: 2'
p819
sbag0
(g1
g2
(lp820
g0
(g1
g2
(lp821
g0
(g1
g2
(lp822
g0
(g1
g2
(lp823
g0
(g1
g2
(lp824
VOk
p825
atp826
Rp827
(dp828
g16
VNNP
p829
sbatp830
Rp831
(dp832
g16
VNP
p833
sbag0
(g1
g2
(lp834
V,
p835
atp836
Rp837
(dp838
g16
V,
p839
sbag0
(g1
g2
(lp840
Vand
p841
atp842
Rp843
(dp844
g16
VCC
p845
sbag0
(g1
g2
(lp846
g0
(g1
g2
(lp847
Vthe
p848
atp849
Rp850
(dp851
g16
VDT
p852
sbag0
(g1
g2
(lp853
Vcurtians
p854
atp855
Rp856
(dp857
g16
VNNS
p858
sbatp859
Rp860
(dp861
g16
VNP
p862
sbatp863
Rp864
(dp865
g16
VNP
p866
sbag0
(g1
g2
(lp867
g0
(g1
g2
(lp868
g0
(g1
g2
(lp869
Vare
p870
atp871
Rp872
(dp873
g16
VVBP
p874
sbatp875
Rp876
(dp877
g16
VVP
p878
sbag0
(g1
g2
(lp879
V,
p880
atp881
Rp882
(dp883
g16
V,
p884
sbag0
(g1
g2
(lp885
g0
(g1
g2
(lp886
g0
(g1
g2
(lp887
Vwhatever
p888
atp889
Rp890
(dp891
g16
VWDT
p892
sbag0
(g1
g2
(lp893
Vcolor
p894
atp895
Rp896
(dp897
g16
VNN
p898
sbatp899
Rp900
(dp901
g16
VWHNP
p902
sbag0
(g1
g2
(lp903
g0
(g1
g2
(lp904
g0
(g1
g2
(lp905
Vthey
p906
atp907
Rp908
(dp909
g16
VPRP
p910
sbatp911
Rp912
(dp913
g16
VNP
p914
sbag0
(g1
g2
(lp915
g0
(g1
g2
(lp916
Vare
p917
atp918
Rp919
(dp920
g16
VVBP
p921
sbatp922
Rp923
(dp924
g16
VVP
p925
sbatp926
Rp927
(dp928
g16
VS
p929
sbatp930
Rp931
(dp932
g16
VSBAR
p933
sbatp934
Rp935
(dp936
g16
VVP
p937
sbag0
(g1
g2
(lp938
V.
p939
atp940
Rp941
(dp942
g16
V.
p943
sbatp944
Rp945
(dp946
g16
VS
p947
sbatp948
Rp949
(dp950
g16
S'id: 3'
p951
sbag0
(g1
g2
(lp952
g0
(g1
g2
(lp953
g0
(g1
g2
(lp954
VAnd
p955
atp956
Rp957
(dp958
g16
VCC
p959
sbag0
(g1
g2
(lp960
g0
(g1
g2
(lp961
Vthere
p962
atp963
Rp964
(dp965
g16
VEX
p966
sbatp967
Rp968
(dp969
g16
VNP
p970
sbag0
(g1
g2
(lp971
g0
(g1
g2
(lp972
Vshrubery
p973
atp974
Rp975
(dp976
g16
VVBZ
p977
sbag0
(g1
g2
(lp978
g0
(g1
g2
(lp979
Vout
p980
atp981
Rp982
(dp983
g16
VRP
p984
sbatp985
Rp986
(dp987
g16
VPRT
p988
sbag0
(g1
g2
(lp989
V,
p990
atp991
Rp992
(dp993
g16
V,
p994
sbag0
(g1
g2
(lp995
g0
(g1
g2
(lp996
Voutside
p997
atp998
Rp999
(dp1000
g16
VJJ
p1001
sbatp1002
Rp1003
(dp1004
g16
VADVP
p1005
sbatp1006
Rp1007
(dp1008
g16
VVP
p1009
sbag0
(g1
g2
(lp1010
V.
p1011
atp1012
Rp1013
(dp1014
g16
V.
p1015
sbatp1016
Rp1017
(dp1018
g16
VS
p1019
sbatp1020
Rp1021
(dp1022
g16
S'id: 4'
p1023
sbag0
(g1
g2
(lp1024
g0
(g1
g2
(lp1025
g0
(g1
g2
(lp1026
VAnd
p1027
atp1028
Rp1029
(dp1030
g16
VCC
p1031
sbag0
(g1
g2
(lp1032
V,
p1033
atp1034
Rp1035
(dp1036
g16
V,
p1037
sbag0
(g1
g2
(lp1038
g0
(g1
g2
(lp1039
Vand
p1040
atp1041
Rp1042
(dp1043
g16
VCC
p1044
sbag0
(g1
g2
(lp1045
g0
(g1
g2
(lp1046
Vtrees
p1047
atp1048
Rp1049
(dp1050
g16
VNNS
p1051
sbatp1052
Rp1053
(dp1054
g16
VNP
p1055
sbag0
(g1
g2
(lp1056
g0
(g1
g2
(lp1057
Vare
p1058
atp1059
Rp1060
(dp1061
g16
VVBP
p1062
sbag0
(g1
g2
(lp1063
g0
(g1
g2
(lp1064
Voutside
p1065
atp1066
Rp1067
(dp1068
g16
VJJ
p1069
sbatp1070
Rp1071
(dp1072
g16
VADVP
p1073
sbatp1074
Rp1075
(dp1076
g16
VVP
p1077
sbatp1078
Rp1079
(dp1080
g16
VS
p1081
sbag0
(g1
g2
(lp1082
V.
p1083
atp1084
Rp1085
(dp1086
g16
V.
p1087
sbatp1088
Rp1089
(dp1090
g16
VS
p1091
sbatp1092
Rp1093
(dp1094
g16
S'id: 5'
p1095
sbag0
(g1
g2
(lp1096
g0
(g1
g2
(lp1097
g0
(g1
g2
(lp1098
g0
(g1
g2
(lp1099
VAnd
p1100
atp1101
Rp1102
(dp1103
g16
VCC
p1104
sbatp1105
Rp1106
(dp1107
g16
VVP
p1108
sbag0
(g1
g2
(lp1109
V.
p1110
atp1111
Rp1112
(dp1113
g16
V.
p1114
sbatp1115
Rp1116
(dp1117
g16
VS
p1118
sbatp1119
Rp1120
(dp1121
g16
S'id: 6'
p1122
sbag0
(g1
g2
(lp1123
g0
(g1
g2
(lp1124
g0
(g1
g2
(lp1125
g0
(g1
g2
(lp1126
Vbraiden
p1127
atp1128
Rp1129
(dp1130
g16
VNN
p1131
sbatp1132
Rp1133
(dp1134
g16
VNP
p1135
sbag0
(g1
g2
(lp1136
V,
p1137
atp1138
Rp1139
(dp1140
g16
V,
p1141
sbag0
(g1
g2
(lp1142
g0
(g1
g2
(lp1143
Vno
p1144
atp1145
Rp1146
(dp1147
g16
VDT
p1148
sbatp1149
Rp1150
(dp1151
g16
VNP
p1152
sbag0
(g1
g2
(lp1153
V.
p1154
atp1155
Rp1156
(dp1157
g16
V.
p1158
sbatp1159
Rp1160
(dp1161
g16
VNP
p1162
sbatp1163
Rp1164
(dp1165
g16
S'id: 7'
p1166
sbag0
(g1
g2
(lp1167
g0
(g1
g2
(lp1168
g0
(g1
g2
(lp1169
g0
(g1
g2
(lp1170
VThe
p1171
atp1172
Rp1173
(dp1174
g16
VDT
p1175
sbag0
(g1
g2
(lp1176
Vcookie
p1177
atp1178
Rp1179
(dp1180
g16
VNN
p1181
sbag0
(g1
g2
(lp1182
Vjar
p1183
atp1184
Rp1185
(dp1186
g16
VNN
p1187
sbatp1188
Rp1189
(dp1190
g16
VNP
p1191
sbag0
(g1
g2
(lp1192
V,
p1193
atp1194
Rp1195
(dp1196
g16
V,
p1197
sbag0
(g1
g2
(lp1198
g0
(g1
g2
(lp1199
Vno
p1200
atp1201
Rp1202
(dp1203
g16
VDT
p1204
sbatp1205
Rp1206
(dp1207
g16
VNP
p1208
sbag0
(g1
g2
(lp1209
V.
p1210
atp1211
Rp1212
(dp1213
g16
V.
p1214
sbatp1215
Rp1216
(dp1217
g16
VNP
p1218
sbatp1219
Rp1220
(dp1221
g16
S'id: 8'
p1222
sbag0
(g1
g2
(lp1223
g0
(g1
g2
(lp1224
g0
(g1
g2
(lp1225
g0
(g1
g2
(lp1226
g0
(g1
g2
(lp1227
g0
(g1
g2
(lp1228
VThe
p1229
atp1230
Rp1231
(dp1232
g16
VDT
p1233
sbag0
(g1
g2
(lp1234
Vcookie
p1235
atp1236
Rp1237
(dp1238
g16
VNN
p1239
sbag0
(g1
g2
(lp1240
Vjar
p1241
atp1242
Rp1243
(dp1244
g16
VNN
p1245
sbatp1246
Rp1247
(dp1248
g16
VNP
p1249
sbag0
(g1
g2
(lp1250
g0
(g1
g2
(lp1251
Vis
p1252
atp1253
Rp1254
(dp1255
g16
VVBZ
p1256
sbag0
(g1
g2
(lp1257
g0
(g1
g2
(lp1258
Von
p1259
atp1260
Rp1261
(dp1262
g16
VIN
p1263
sbag0
(g1
g2
(lp1264
g0
(g1
g2
(lp1265
Vthe
p1266
atp1267
Rp1268
(dp1269
g16
VDT
p1270
sbag0
(g1
g2
(lp1271
Vinside
p1272
atp1273
Rp1274
(dp1275
g16
VNN
p1276
sbatp1277
Rp1278
(dp1279
g16
VNP
p1280
sbatp1281
Rp1282
(dp1283
g16
VPP
p1284
sbatp1285
Rp1286
(dp1287
g16
VVP
p1288
sbatp1289
Rp1290
(dp1291
g16
VS
p1292
sbag0
(g1
g2
(lp1293
V,
p1294
atp1295
Rp1296
(dp1297
g16
V,
p1298
sbag0
(g1
g2
(lp1299
Vand
p1300
atp1301
Rp1302
(dp1303
g16
VCC
p1304
sbag0
(g1
g2
(lp1305
g0
(g1
g2
(lp1306
g0
(g1
g2
(lp1307
Vit
p1308
atp1309
Rp1310
(dp1311
g16
VPRP
p1312
sbatp1313
Rp1314
(dp1315
g16
VNP
p1316
sbag0
(g1
g2
(lp1317
g0
(g1
g2
(lp1318
V's
p1319
atp1320
Rp1321
(dp1322
g16
VVBZ
p1323
sbag0
(g1
g2
(lp1324
g0
(g1
g2
(lp1325
Vbr
p1326
atp1327
Rp1328
(dp1329
g16
VNN
p1330
sbatp1331
Rp1332
(dp1333
g16
VNP
p1334
sbatp1335
Rp1336
(dp1337
g16
VVP
p1338
sbatp1339
Rp1340
(dp1341
g16
VS
p1342
sbatp1343
Rp1344
(dp1345
g16
VS
p1346
sbag0
(g1
g2
(lp1347
V,
p1348
atp1349
Rp1350
(dp1351
g16
V,
p1352
sbag0
(g1
g2
(lp1353
g0
(g1
g2
(lp1354
Vbroke
p1355
atp1356
Rp1357
(dp1358
g16
VVBD
p1359
sbatp1360
Rp1361
(dp1362
g16
VVP
p1363
sbag0
(g1
g2
(lp1364
g0
(g1
g2
(lp1365
g0
(g1
g2
(lp1366
Vthe
p1367
atp1368
Rp1369
(dp1370
g16
VDT
p1371
sbag0
(g1
g2
(lp1372
Vcookie
p1373
atp1374
Rp1375
(dp1376
g16
VNN
p1377
sbag0
(g1
g2
(lp1378
Vjar
p1379
atp1380
Rp1381
(dp1382
g16
VNN
p1383
sbatp1384
Rp1385
(dp1386
g16
VNP
p1387
sbag0
(g1
g2
(lp1388
g0
(g1
g2
(lp1389
Von
p1390
atp1391
Rp1392
(dp1393
g16
VIN
p1394
sbag0
(g1
g2
(lp1395
g0
(g1
g2
(lp1396
Vit
p1397
atp1398
Rp1399
(dp1400
g16
VPRP
p1401
sbatp1402
Rp1403
(dp1404
g16
VNP
p1405
sbatp1406
Rp1407
(dp1408
g16
VPP
p1409
sbatp1410
Rp1411
(dp1412
g16
VNP
p1413
sbag0
(g1
g2
(lp1414
V.
p1415
atp1416
Rp1417
(dp1418
g16
V.
p1419
sbatp1420
Rp1421
(dp1422
g16
VSINV
p1423
sbatp1424
Rp1425
(dp1426
g16
S'id: 9'
p1427
sbag0
(g1
g2
(lp1428
g0
(g1
g2
(lp1429
g0
(g1
g2
(lp1430
VAnd
p1431
atp1432
Rp1433
(dp1434
g16
VCC
p1435
sbag0
(g1
g2
(lp1436
g0
(g1
g2
(lp1437
g0
(g1
g2
(lp1438
Vhe
p1439
atp1440
Rp1441
(dp1442
g16
VPRP
p1443
sbatp1444
Rp1445
(dp1446
g16
VNP
p1447
sbag0
(g1
g2
(lp1448
V,
p1449
atp1450
Rp1451
(dp1452
g16
V,
p1453
sbag0
(g1
g2
(lp1454
g0
(g1
g2
(lp1455
g0
(g1
g2
(lp1456
Vtheir
p1457
atp1458
Rp1459
(dp1460
g16
VPRP$
p1461
sbatp1462
Rp1463
(dp1464
g16
VNP
p1465
sbag0
(g1
g2
(lp1466
g0
(g1
g2
(lp1467
Vboth
p1468
atp1469
Rp1470
(dp1471
g16
VDT
p1472
sbatp1473
Rp1474
(dp1475
g16
VNP
p1476
sbatp1477
Rp1478
(dp1479
g16
VNP
p1480
sbatp1481
Rp1482
(dp1483
g16
VNP
p1484
sbag0
(g1
g2
(lp1485
g0
(g1
g2
(lp1486
Vdressed
p1487
atp1488
Rp1489
(dp1490
g16
VVBN
p1491
sbag0
(g1
g2
(lp1492
g0
(g1
g2
(lp1493
Vin
p1494
atp1495
Rp1496
(dp1497
g16
VIN
p1498
sbag0
(g1
g2
(lp1499
g0
(g1
g2
(lp1500
V,
p1501
atp1502
Rp1503
(dp1504
g16
V,
p1505
sbag0
(g1
g2
(lp1506
g0
(g1
g2
(lp1507
Vfor
p1508
atp1509
Rp1510
(dp1511
g16
VIN
p1512
sbag0
(g1
g2
(lp1513
g0
(g1
g2
(lp1514
Voutside
p1515
atp1516
Rp1517
(dp1518
g16
VJJ
p1519
sbatp1520
Rp1521
(dp1522
g16
VNP
p1523
sbatp1524
Rp1525
(dp1526
g16
VPP
p1527
sbag0
(g1
g2
(lp1528
V,
p1529
atp1530
Rp1531
(dp1532
g16
V,
p1533
sbatp1534
Rp1535
(dp1536
g16
VPRN
p1537
sbatp1538
Rp1539
(dp1540
g16
VPP
p1541
sbag0
(g1
g2
(lp1542
g0
(g1
g2
(lp1543
Vafter
p1544
atp1545
Rp1546
(dp1547
g16
VIN
p1548
sbag0
(g1
g2
(lp1549
g0
(g1
g2
(lp1550
Va
p1551
atp1552
Rp1553
(dp1554
g16
VDT
p1555
sbag0
(g1
g2
(lp1556
Vwhile
p1557
atp1558
Rp1559
(dp1560
g16
VNN
p1561
sbatp1562
Rp1563
(dp1564
g16
VNP
p1565
sbatp1566
Rp1567
(dp1568
g16
VPP
p1569
sbatp1570
Rp1571
(dp1572
g16
VVP
p1573
sbag0
(g1
g2
(lp1574
V.
p1575
atp1576
Rp1577
(dp1578
g16
V.
p1579
sbatp1580
Rp1581
(dp1582
g16
VS
p1583
sbatp1584
Rp1585
(dp1586
g16
S'id: 10'
p1587
sbag0
(g1
g2
(lp1588
g0
(g1
g2
(lp1589
g0
(g1
g2
(lp1590
VBut
p1591
atp1592
Rp1593
(dp1594
g16
VCC
p1595
sbag0
(g1
g2
(lp1596
g0
(g1
g2
(lp1597
V,
p1598
atp1599
Rp1600
(dp1601
g16
V,
p1602
sbag0
(g1
g2
(lp1603
g0
(g1
g2
(lp1604
g0
(g1
g2
(lp1605
Vthe
p1606
atp1607
Rp1608
(dp1609
g16
VDT
p1610
sbag0
(g1
g2
(lp1611
Vgirl
p1612
atp1613
Rp1614
(dp1615
g16
VNN
p1616
sbatp1617
Rp1618
(dp1619
g16
VNP
p1620
sbag0
(g1
g2
(lp1621
g0
(g1
g2
(lp1622
Vhas
p1623
atp1624
Rp1625
(dp1626
g16
VVBZ
p1627
sbag0
(g1
g2
(lp1628
g0
(g1
g2
(lp1629
g0
(g1
g2
(lp1630
Von
p1631
atp1632
Rp1633
(dp1634
g16
VIN
p1635
sbag0
(g1
g2
(lp1636
g0
(g1
g2
(lp1637
Va
p1638
atp1639
Rp1640
(dp1641
g16
VDT
p1642
sbag0
(g1
g2
(lp1643
Vskirt
p1644
atp1645
Rp1646
(dp1647
g16
VNN
p1648
sbatp1649
Rp1650
(dp1651
g16
VNP
p1652
sbatp1653
Rp1654
(dp1655
g16
VPP
p1656
sbatp1657
Rp1658
(dp1659
g16
VVP
p1660
sbatp1661
Rp1662
(dp1663
g16
VVP
p1664
sbatp1665
Rp1666
(dp1667
g16
VS
p1668
sbag0
(g1
g2
(lp1669
V,
p1670
atp1671
Rp1672
(dp1673
g16
V,
p1674
sbatp1675
Rp1676
(dp1677
g16
VPRN
p1678
sbag0
(g1
g2
(lp1679
g0
(g1
g2
(lp1680
Vthe
p1681
atp1682
Rp1683
(dp1684
g16
VDT
p1685
sbag0
(g1
g2
(lp1686
Vgirl
p1687
atp1688
Rp1689
(dp1690
g16
VNN
p1691
sbatp1692
Rp1693
(dp1694
g16
VNP
p1695
sbag0
(g1
g2
(lp1696
g0
(g1
g2
(lp1697
Vhas
p1698
atp1699
Rp1700
(dp1701
g16
VVBZ
p1702
sbag0
(g1
g2
(lp1703
g0
(g1
g2
(lp1704
g0
(g1
g2
(lp1705
Von
p1706
atp1707
Rp1708
(dp1709
g16
VIN
p1710
sbag0
(g1
g2
(lp1711
g0
(g1
g2
(lp1712
Va
p1713
atp1714
Rp1715
(dp1716
g16
VDT
p1717
sbag0
(g1
g2
(lp1718
Vskirt
p1719
atp1720
Rp1721
(dp1722
g16
VNN
p1723
sbag0
(g1
g2
(lp1724
Vand
p1725
atp1726
Rp1727
(dp1728
g16
VCC
p1729
sbag0
(g1
g2
(lp1730
Vblouse
p1731
atp1732
Rp1733
(dp1734
g16
VNN
p1735
sbatp1736
Rp1737
(dp1738
g16
VNP
p1739
sbatp1740
Rp1741
(dp1742
g16
VPP
p1743
sbatp1744
Rp1745
(dp1746
g16
VVP
p1747
sbatp1748
Rp1749
(dp1750
g16
VVP
p1751
sbag0
(g1
g2
(lp1752
V,
p1753
atp1754
Rp1755
(dp1756
g16
V,
p1757
sbag0
(g1
g2
(lp1758
Vand
p1759
atp1760
Rp1761
(dp1762
g16
VCC
p1763
sbag0
(g1
g2
(lp1764
g0
(g1
g2
(lp1765
g0
(g1
g2
(lp1766
Vthe
p1767
atp1768
Rp1769
(dp1770
g16
VDT
p1771
sbag0
(g1
g2
(lp1772
Vboy
p1773
atp1774
Rp1775
(dp1776
g16
VNN
p1777
sbatp1778
Rp1779
(dp1780
g16
VNP
p1781
sbag0
(g1
g2
(lp1782
g0
(g1
g2
(lp1783
Vhas
p1784
atp1785
Rp1786
(dp1787
g16
VVBZ
p1788
sbag0
(g1
g2
(lp1789
g0
(g1
g2
(lp1790
Von
p1791
atp1792
Rp1793
(dp1794
g16
VIN
p1795
sbag0
(g1
g2
(lp1796
g0
(g1
g2
(lp1797
g0
(g1
g2
(lp1798
Va
p1799
atp1800
Rp1801
(dp1802
g16
VDT
p1803
sbatp1804
Rp1805
(dp1806
g16
VNP
p1807
sbag0
(g1
g2
(lp1808
V,
p1809
atp1810
Rp1811
(dp1812
g16
V,
p1813
sbag0
(g1
g2
(lp1814
g0
(g1
g2
(lp1815
Va
p1816
atp1817
Rp1818
(dp1819
g16
VDT
p1820
sbag0
(g1
g2
(lp1821
Vshirt
p1822
atp1823
Rp1824
(dp1825
g16
VNN
p1826
sbatp1827
Rp1828
(dp1829
g16
VNP
p1830
sbag0
(g1
g2
(lp1831
Vand
p1832
atp1833
Rp1834
(dp1835
g16
VCC
p1836
sbag0
(g1
g2
(lp1837
g0
(g1
g2
(lp1838
Va
p1839
atp1840
Rp1841
(dp1842
g16
VDT
p1843
sbatp1844
Rp1845
(dp1846
g16
VNP
p1847
sbag0
(g1
g2
(lp1848
V,
p1849
atp1850
Rp1851
(dp1852
g16
V,
p1853
sbag0
(g1
g2
(lp1854
Vand
p1855
atp1856
Rp1857
(dp1858
g16
VCC
p1859
sbag0
(g1
g2
(lp1860
g0
(g1
g2
(lp1861
Va
p1862
atp1863
Rp1864
(dp1865
g16
VDT
p1866
sbatp1867
Rp1868
(dp1869
g16
VNP
p1870
sbag0
(g1
g2
(lp1871
V,
p1872
atp1873
Rp1874
(dp1875
g16
V,
p1876
sbag0
(g1
g2
(lp1877
Vand
p1878
atp1879
Rp1880
(dp1881
g16
VCC
p1882
sbag0
(g1
g2
(lp1883
g0
(g1
g2
(lp1884
Va
p1885
atp1886
Rp1887
(dp1888
g16
VDT
p1889
sbatp1890
Rp1891
(dp1892
g16
VNP
p1893
sbag0
(g1
g2
(lp1894
V,
p1895
atp1896
Rp1897
(dp1898
g16
V,
p1899
sbatp1900
Rp1901
(dp1902
g16
VNP
p1903
sbatp1904
Rp1905
(dp1906
g16
VPP
p1907
sbag0
(g1
g2
(lp1908
g0
(g1
g2
(lp1909
g0
(g1
g2
(lp1910
Vmarch
p1911
atp1912
Rp1913
(dp1914
g16
VVB
p1915
sbatp1916
Rp1917
(dp1918
g16
VNP
p1919
sbag0
(g1
g2
(lp1920
V,
p1921
atp1922
Rp1923
(dp1924
g16
V,
p1925
sbag0
(g1
g2
(lp1926
g0
(g1
g2
(lp1927
Vtwo
p1928
atp1929
Rp1930
(dp1931
g16
VCD
p1932
sbag0
(g1
g2
(lp1933
Vshoes
p1934
atp1935
Rp1936
(dp1937
g16
VNNS
p1938
sbatp1939
Rp1940
(dp1941
g16
VNP
p1942
sbatp1943
Rp1944
(dp1945
g16
VNP
p1946
sbatp1947
Rp1948
(dp1949
g16
VVP
p1950
sbatp1951
Rp1952
(dp1953
g16
VS
p1954
sbag0
(g1
g2
(lp1955
V.
p1956
atp1957
Rp1958
(dp1959
g16
V.
p1960
sbatp1961
Rp1962
(dp1963
g16
VS
p1964
sbatp1965
Rp1966
(dp1967
g16
S'id: 11'
p1968
sbag0
(g1
g2
(lp1969
g0
(g1
g2
(lp1970
g0
(g1
g2
(lp1971
g0
(g1
g2
(lp1972
g0
(g1
g2
(lp1973
VOk
p1974
atp1975
Rp1976
(dp1977
g16
VNNP
p1978
sbatp1979
Rp1980
(dp1981
g16
VNP
p1982
sbag0
(g1
g2
(lp1983
g0
(g1
g2
(lp1984
V,
p1985
atp1986
Rp1987
(dp1988
g16
V,
p1989
sbag0
(g1
g2
(lp1990
g0
(g1
g2
(lp1991
g0
(g1
g2
(lp1992
Vthe
p1993
atp1994
Rp1995
(dp1996
g16
VDT
p1997
sbag0
(g1
g2
(lp1998
Vgirl
p1999
atp2000
Rp2001
(dp2002
g16
VNN
p2003
sbatp2004
Rp2005
(dp2006
g16
VNP
p2007
sbag0
(g1
g2
(lp2008
g0
(g1
g2
(lp2009
Vhas
p2010
atp2011
Rp2012
(dp2013
g16
VVBZ
p2014
sbag0
(g1
g2
(lp2015
g0
(g1
g2
(lp2016
g0
(g1
g2
(lp2017
Von
p2018
atp2019
Rp2020
(dp2021
g16
VIN
p2022
sbag0
(g1
g2
(lp2023
g0
(g1
g2
(lp2024
Vballet
p2025
atp2026
Rp2027
(dp2028
g16
VJJ
p2029
sbag0
(g1
g2
(lp2030
Vsh
p2031
atp2032
Rp2033
(dp2034
g16
VNN
p2035
sbatp2036
Rp2037
(dp2038
g16
VNP
p2039
sbatp2040
Rp2041
(dp2042
g16
VPP
p2043
sbatp2044
Rp2045
(dp2046
g16
VVP
p2047
sbatp2048
Rp2049
(dp2050
g16
VVP
p2051
sbatp2052
Rp2053
(dp2054
g16
VS
p2055
sbag0
(g1
g2
(lp2056
V,
p2057
atp2058
Rp2059
(dp2060
g16
V,
p2061
sbatp2062
Rp2063
(dp2064
g16
VPRN
p2065
sbag0
(g1
g2
(lp2066
g0
(g1
g2
(lp2067
Vno
p2068
atp2069
Rp2070
(dp2071
g16
VDT
p2072
sbag0
(g1
g2
(lp2073
VI
p2074
atp2075
Rp2076
(dp2077
g16
VPRP
p2078
sbatp2079
Rp2080
(dp2081
g16
VNP
p2082
sbag0
(g1
g2
(lp2083
g0
(g1
g2
(lp2084
Vdo
p2085
atp2086
Rp2087
(dp2088
g16
VVBP
p2089
sbag0
(g1
g2
(lp2090
Vn't
p2091
atp2092
Rp2093
(dp2094
g16
VRB
p2095
sbag0
(g1
g2
(lp2096
g0
(g1
g2
(lp2097
Vknow
p2098
atp2099
Rp2100
(dp2101
g16
VVB
p2102
sbatp2103
Rp2104
(dp2105
g16
VVP
p2106
sbatp2107
Rp2108
(dp2109
g16
VVP
p2110
sbatp2111
Rp2112
(dp2113
g16
VS
p2114
sbag0
(g1
g2
(lp2115
V,
p2116
atp2117
Rp2118
(dp2119
g16
V,
p2120
sbag0
(g1
g2
(lp2121
g0
(g1
g2
(lp2122
Vit
p2123
atp2124
Rp2125
(dp2126
g16
VPRP
p2127
sbatp2128
Rp2129
(dp2130
g16
VNP
p2131
sbag0
(g1
g2
(lp2132
g0
(g1
g2
(lp2133
Vlooks
p2134
atp2135
Rp2136
(dp2137
g16
VVBZ
p2138
sbag0
(g1
g2
(lp2139
g0
(g1
g2
(lp2140
Vlike
p2141
atp2142
Rp2143
(dp2144
g16
VIN
p2145
sbag0
(g1
g2
(lp2146
g0
(g1
g2
(lp2147
Vballet
p2148
atp2149
Rp2150
(dp2151
g16
VJJ
p2152
sbag0
(g1
g2
(lp2153
Vshoes
p2154
atp2155
Rp2156
(dp2157
g16
VNNS
p2158
sbatp2159
Rp2160
(dp2161
g16
VNP
p2162
sbatp2163
Rp2164
(dp2165
g16
VPP
p2166
sbatp2167
Rp2168
(dp2169
g16
VVP
p2170
sbag0
(g1
g2
(lp2171
V.
p2172
atp2173
Rp2174
(dp2175
g16
V.
p2176
sbatp2177
Rp2178
(dp2179
g16
VS
p2180
sbatp2181
Rp2182
(dp2183
g16
S'id: 12'
p2184
sbatp2185
Rp2186
(dp2187
g16
S'sentences'
p2188
sb.