ccopy_reg
_reconstructor
p0
(cnltk.tree
Tree
p1
c__builtin__
list
p2
(lp3
g0
(g1
g2
(lp4
g0
(g1
g2
(lp5
g0
(g1
g2
(lp6
g0
(g1
g2
(lp7
g0
(g1
g2
(lp8
Voh
p9
atp10
Rp11
(dp12
S'_label'
p13
VUH
p14
sbatp15
Rp16
(dp17
g13
VNP
p18
sbag0
(g1
g2
(lp19
g0
(g1
g2
(lp20
g0
(g1
g2
(lp21
Vmy
p22
atp23
Rp24
(dp25
g13
VPRP$
p26
sbag0
(g1
g2
(lp27
Vgosh
p28
atp29
Rp30
(dp31
g13
VJJ
p32
sbag0
(g1
g2
(lp33
Vlook
p34
atp35
Rp36
(dp37
g13
VNN
p38
sbatp39
Rp40
(dp41
g13
VNP
p42
sbag0
(g1
g2
(lp43
Vat
p44
atp45
Rp46
(dp47
g13
VIN
p48
sbag0
(g1
g2
(lp49
g0
(g1
g2
(lp50
Vthat
p51
atp52
Rp53
(dp54
g13
VDT
p55
sbatp56
Rp57
(dp58
g13
VNP
p59
sbatp60
Rp61
(dp62
g13
VPP
p63
sbatp64
Rp65
(dp66
g13
VPP
p67
sbag0
(g1
g2
(lp68
V.
p69
atp70
Rp71
(dp72
g13
V.
p73
sbatp74
Rp75
(dp76
g13
VFRAG
p77
sbatp78
Rp79
(dp80
g13
S'id: 0'
p81
sbag0
(g1
g2
(lp82
g0
(g1
g2
(lp83
g0
(g1
g2
(lp84
VAnd
p85
atp86
Rp87
(dp88
g13
VCC
p89
sbag0
(g1
g2
(lp90
g0
(g1
g2
(lp91
g0
(g1
g2
(lp92
Vyou
p93
atp94
Rp95
(dp96
g13
VPRP
p97
sbatp98
Rp99
(dp100
g13
VNP
p101
sbag0
(g1
g2
(lp102
g0
(g1
g2
(lp103
Vlooking
p104
atp105
Rp106
(dp107
g13
VVBG
p108
sbag0
(g1
g2
(lp109
g0
(g1
g2
(lp110
Vat
p111
atp112
Rp113
(dp114
g13
VIN
p115
sbag0
(g1
g2
(lp116
g0
(g1
g2
(lp117
Vthe
p118
atp119
Rp120
(dp121
g13
VDT
p122
sbag0
(g1
g2
(lp123
Vguy
p124
atp125
Rp126
(dp127
g13
VNN
p128
sbatp129
Rp130
(dp131
g13
VNP
p132
sbatp133
Rp134
(dp135
g13
VPP
p136
sbatp137
Rp138
(dp139
g13
VVP
p140
sbatp141
Rp142
(dp143
g13
VS
p144
sbag0
(g1
g2
(lp145
V,
p146
atp147
Rp148
(dp149
g13
V,
p150
sbag0
(g1
g2
(lp151
Vand
p152
atp153
Rp154
(dp155
g13
VCC
p156
sbag0
(g1
g2
(lp157
g0
(g1
g2
(lp158
g0
(g1
g2
(lp159
g0
(g1
g2
(lp160
Vhe
p161
atp162
Rp163
(dp164
g13
VPRP
p165
sbatp166
Rp167
(dp168
g13
VNP
p169
sbag0
(g1
g2
(lp170
g0
(g1
g2
(lp171
V's
p172
atp173
Rp174
(dp175
g13
VVBZ
p176
sbag0
(g1
g2
(lp177
g0
(g1
g2
(lp178
Vback
p179
atp180
Rp181
(dp182
g13
VRB
p183
sbag0
(g1
g2
(lp184
Vand
p185
atp186
Rp187
(dp188
g13
VCC
p189
sbag0
(g1
g2
(lp190
Vforth
p191
atp192
Rp193
(dp194
g13
VRB
p195
sbatp196
Rp197
(dp198
g13
VADVP
p199
sbag0
(g1
g2
(lp200
g0
(g1
g2
(lp201
Vwith
p202
atp203
Rp204
(dp205
g13
VIN
p206
sbag0
(g1
g2
(lp207
g0
(g1
g2
(lp208
Vthis
p209
atp210
Rp211
(dp212
g13
VDT
p213
sbatp214
Rp215
(dp216
g13
VNP
p217
sbatp218
Rp219
(dp220
g13
VPP
p221
sbatp222
Rp223
(dp224
g13
VVP
p225
sbatp226
Rp227
(dp228
g13
VS
p229
sbag0
(g1
g2
(lp230
V,
p231
atp232
Rp233
(dp234
g13
V,
p235
sbag0
(g1
g2
(lp236
Vand
p237
atp238
Rp239
(dp240
g13
VCC
p241
sbag0
(g1
g2
(lp242
g0
(g1
g2
(lp243
g0
(g1
g2
(lp244
Vhe
p245
atp246
Rp247
(dp248
g13
VPRP
p249
sbatp250
Rp251
(dp252
g13
VNP
p253
sbag0
(g1
g2
(lp254
g0
(g1
g2
(lp255
V's
p256
atp257
Rp258
(dp259
g13
VVBZ
p260
sbag0
(g1
g2
(lp261
g0
(g1
g2
(lp262
Vdoing
p263
atp264
Rp265
(dp266
g13
VVBG
p267
sbag0
(g1
g2
(lp268
g0
(g1
g2
(lp269
Vback
p270
atp271
Rp272
(dp273
g13
VRB
p274
sbag0
(g1
g2
(lp275
Vand
p276
atp277
Rp278
(dp279
g13
VCC
p280
sbag0
(g1
g2
(lp281
Vforth
p282
atp283
Rp284
(dp285
g13
VRB
p286
sbatp287
Rp288
(dp289
g13
VADVP
p290
sbatp291
Rp292
(dp293
g13
VVP
p294
sbatp295
Rp296
(dp297
g13
VVP
p298
sbatp299
Rp300
(dp301
g13
VS
p302
sbatp303
Rp304
(dp305
g13
VS
p306
sbag0
(g1
g2
(lp307
V.
p308
atp309
Rp310
(dp311
g13
V.
p312
sbatp313
Rp314
(dp315
g13
VS
p316
sbatp317
Rp318
(dp319
g13
S'id: 1'
p320
sbag0
(g1
g2
(lp321
g0
(g1
g2
(lp322
g0
(g1
g2
(lp323
g0
(g1
g2
(lp324
g0
(g1
g2
(lp325
VHe
p326
atp327
Rp328
(dp329
g13
VPRP
p330
sbatp331
Rp332
(dp333
g13
VNP
p334
sbag0
(g1
g2
(lp335
g0
(g1
g2
(lp336
V's
p337
atp338
Rp339
(dp340
g13
VVBZ
p341
sbag0
(g1
g2
(lp342
g0
(g1
g2
(lp343
Vreally
p344
atp345
Rp346
(dp347
g13
VRB
p348
sbag0
(g1
g2
(lp349
Vgood
p350
atp351
Rp352
(dp353
g13
VJJ
p354
sbatp355
Rp356
(dp357
g13
VADJP
p358
sbatp359
Rp360
(dp361
g13
VVP
p362
sbatp363
Rp364
(dp365
g13
VS
p366
sbag0
(g1
g2
(lp367
V,
p368
atp369
Rp370
(dp371
g13
V,
p372
sbag0
(g1
g2
(lp373
g0
(g1
g2
(lp374
Vthey
p375
atp376
Rp377
(dp378
g13
VPRP
p379
sbatp380
Rp381
(dp382
g13
VNP
p383
sbag0
(g1
g2
(lp384
g0
(g1
g2
(lp385
V're
p386
atp387
Rp388
(dp389
g13
VVBP
p390
sbag0
(g1
g2
(lp391
g0
(g1
g2
(lp392
Vlooking
p393
atp394
Rp395
(dp396
g13
VVBG
p397
sbag0
(g1
g2
(lp398
g0
(g1
g2
(lp399
Vat
p400
atp401
Rp402
(dp403
g13
VIN
p404
sbag0
(g1
g2
(lp405
g0
(g1
g2
(lp406
Vhim
p407
atp408
Rp409
(dp410
g13
VPRP
p411
sbatp412
Rp413
(dp414
g13
VNP
p415
sbatp416
Rp417
(dp418
g13
VPP
p419
sbag0
(g1
g2
(lp420
g0
(g1
g2
(lp421
Vbecause
p422
atp423
Rp424
(dp425
g13
VIN
p426
sbag0
(g1
g2
(lp427
g0
(g1
g2
(lp428
g0
(g1
g2
(lp429
Vhe
p430
atp431
Rp432
(dp433
g13
VPRP
p434
sbatp435
Rp436
(dp437
g13
VNP
p438
sbag0
(g1
g2
(lp439
g0
(g1
g2
(lp440
Vlooks
p441
atp442
Rp443
(dp444
g13
VVBZ
p445
sbag0
(g1
g2
(lp446
g0
(g1
g2
(lp447
Vlike
p448
atp449
Rp450
(dp451
g13
VIN
p452
sbag0
(g1
g2
(lp453
g0
(g1
g2
(lp454
g0
(g1
g2
(lp455
Vhe
p456
atp457
Rp458
(dp459
g13
VPRP
p460
sbatp461
Rp462
(dp463
g13
VNP
p464
sbag0
(g1
g2
(lp465
g0
(g1
g2
(lp466
V's
p467
atp468
Rp469
(dp470
g13
VVBZ
p471
sbag0
(g1
g2
(lp472
g0
(g1
g2
(lp473
Vreally
p474
atp475
Rp476
(dp477
g13
VRB
p478
sbag0
(g1
g2
(lp479
Vgood
p480
atp481
Rp482
(dp483
g13
VJJ
p484
sbatp485
Rp486
(dp487
g13
VADJP
p488
sbatp489
Rp490
(dp491
g13
VVP
p492
sbatp493
Rp494
(dp495
g13
VS
p496
sbatp497
Rp498
(dp499
g13
VSBAR
p500
sbatp501
Rp502
(dp503
g13
VVP
p504
sbatp505
Rp506
(dp507
g13
VS
p508
sbatp509
Rp510
(dp511
g13
VSBAR
p512
sbatp513
Rp514
(dp515
g13
VVP
p516
sbatp517
Rp518
(dp519
g13
VVP
p520
sbag0
(g1
g2
(lp521
V.
p522
atp523
Rp524
(dp525
g13
V.
p526
sbatp527
Rp528
(dp529
g13
VS
p530
sbatp531
Rp532
(dp533
g13
S'id: 2'
p534
sbag0
(g1
g2
(lp535
g0
(g1
g2
(lp536
g0
(g1
g2
(lp537
g0
(g1
g2
(lp538
VIt
p539
atp540
Rp541
(dp542
g13
VPRP
p543
sbatp544
Rp545
(dp546
g13
VNP
p547
sbag0
(g1
g2
(lp548
g0
(g1
g2
(lp549
V's
p550
atp551
Rp552
(dp553
g13
VVBZ
p554
sbag0
(g1
g2
(lp555
g0
(g1
g2
(lp556
Vgot
p557
atp558
Rp559
(dp560
g13
VVBN
p561
sbatp562
Rp563
(dp564
g13
VVP
p565
sbatp566
Rp567
(dp568
g13
VVP
p569
sbag0
(g1
g2
(lp570
V,
p571
atp572
Rp573
(dp574
g13
V,
p575
sbag0
(g1
g2
(lp576
g0
(g1
g2
(lp577
g0
(g1
g2
(lp578
g0
(g1
g2
(lp579
Vhe
p580
atp581
Rp582
(dp583
g13
VPRP
p584
sbatp585
Rp586
(dp587
g13
VNP
p588
sbag0
(g1
g2
(lp589
V,
p590
atp591
Rp592
(dp593
g13
V,
p594
sbag0
(g1
g2
(lp595
g0
(g1
g2
(lp596
Vone
p597
atp598
Rp599
(dp600
g13
VCD
p601
sbatp602
Rp603
(dp604
g13
VNP
p605
sbag0
(g1
g2
(lp606
V,
p607
atp608
Rp609
(dp610
g13
V,
p611
sbag0
(g1
g2
(lp612
g0
(g1
g2
(lp613
Vtwo
p614
atp615
Rp616
(dp617
g13
VCD
p618
sbatp619
Rp620
(dp621
g13
VNP
p622
sbag0
(g1
g2
(lp623
V,
p624
atp625
Rp626
(dp627
g13
V,
p628
sbag0
(g1
g2
(lp629
g0
(g1
g2
(lp630
g0
(g1
g2
(lp631
Vtwo
p632
atp633
Rp634
(dp635
g13
VCD
p636
sbatp637
Rp638
(dp639
g13
VNP
p640
sbag0
(g1
g2
(lp641
g0
(g1
g2
(lp642
Von
p643
atp644
Rp645
(dp646
g13
VIN
p647
sbag0
(g1
g2
(lp648
g0
(g1
g2
(lp649
g0
(g1
g2
(lp650
Vthe
p651
atp652
Rp653
(dp654
g13
VDT
p655
sbag0
(g1
g2
(lp656
Vma/man
p657
atp658
Rp659
(dp660
g13
VNN
p661
sbatp662
Rp663
(dp664
g13
VNP
p665
sbag0
(g1
g2
(lp666
Vand
p667
atp668
Rp669
(dp670
g13
VCC
p671
sbag0
(g1
g2
(lp672
g0
(g1
g2
(lp673
Vthe
p674
atp675
Rp676
(dp677
g13
VDT
p678
sbag0
(g1
g2
(lp679
Vquirl
p680
atp681
Rp682
(dp683
g13
VNN
p684
sbatp685
Rp686
(dp687
g13
VNP
p688
sbatp689
Rp690
(dp691
g13
VNP
p692
sbatp693
Rp694
(dp695
g13
VPP
p696
sbatp697
Rp698
(dp699
g13
VNP
p700
sbag0
(g1
g2
(lp701
V,
p702
atp703
Rp704
(dp705
g13
V,
p706
sbag0
(g1
g2
(lp707
g0
(g1
g2
(lp708
Van
p709
atp710
Rp711
(dp712
g13
VDT
p713
sbag0
(g1
g2
(lp714
Vtwo
p715
atp716
Rp717
(dp718
g13
VCD
p719
sbag0
(g1
g2
(lp720
Vlittle
p721
atp722
Rp723
(dp724
g13
VJJ
p725
sbag0
(g1
g2
(lp726
Vones
p727
atp728
Rp729
(dp730
g13
VNNS
p731
sbatp732
Rp733
(dp734
g13
VNP
p735
sbatp736
Rp737
(dp738
g13
VNP
p739
sbatp740
Rp741
(dp742
g13
VX
p743
sbag0
(g1
g2
(lp744
V.
p745
atp746
Rp747
(dp748
g13
V.
p749
sbatp750
Rp751
(dp752
g13
VS
p753
sbatp754
Rp755
(dp756
g13
S'id: 3'
p757
sbag0
(g1
g2
(lp758
g0
(g1
g2
(lp759
g0
(g1
g2
(lp760
VAnd
p761
atp762
Rp763
(dp764
g13
VCC
p765
sbag0
(g1
g2
(lp766
g0
(g1
g2
(lp767
Vthey
p768
atp769
Rp770
(dp771
g13
VPRP
p772
sbatp773
Rp774
(dp775
g13
VNP
p776
sbag0
(g1
g2
(lp777
g0
(g1
g2
(lp778
V're
p779
atp780
Rp781
(dp782
g13
VVBP
p783
sbag0
(g1
g2
(lp784
g0
(g1
g2
(lp785
Vlooking
p786
atp787
Rp788
(dp789
g13
VVBG
p790
sbag0
(g1
g2
(lp791
g0
(g1
g2
(lp792
Vat
p793
atp794
Rp795
(dp796
g13
VIN
p797
sbatp798
Rp799
(dp800
g13
VPP
p801
sbatp802
Rp803
(dp804
g13
VVP
p805
sbatp806
Rp807
(dp808
g13
VVP
p809
sbag0
(g1
g2
(lp810
V.
p811
atp812
Rp813
(dp814
g13
V.
p815
sbatp816
Rp817
(dp818
g13
VS
p819
sbatp820
Rp821
(dp822
g13
S'id: 4'
p823
sbag0
(g1
g2
(lp824
g0
(g1
g2
(lp825
g0
(g1
g2
(lp826
VAnd
p827
atp828
Rp829
(dp830
g13
VCC
p831
sbag0
(g1
g2
(lp832
Vthen
p833
atp834
Rp835
(dp836
g13
VRB
p837
sbag0
(g1
g2
(lp838
g0
(g1
g2
(lp839
g0
(g1
g2
(lp840
Vall
p841
atp842
Rp843
(dp844
g13
VDT
p845
sbatp846
Rp847
(dp848
g13
VNP
p849
sbag0
(g1
g2
(lp850
g0
(g1
g2
(lp851
Vof
p852
atp853
Rp854
(dp855
g13
VIN
p856
sbag0
(g1
g2
(lp857
g0
(g1
g2
(lp858
g0
(g1
g2
(lp859
Va
p860
atp861
Rp862
(dp863
g13
VDT
p864
sbag0
(g1
g2
(lp865
Vsudden
p866
atp867
Rp868
(dp869
g13
VJJ
p870
sbatp871
Rp872
(dp873
g13
VNP
p874
sbag0
(g1
g2
(lp875
g0
(g1
g2
(lp876
g0
(g1
g2
(lp877
g0
(g1
g2
(lp878
Vshe
p879
atp880
Rp881
(dp882
g13
VPRP
p883
sbatp884
Rp885
(dp886
g13
VNP
p887
sbag0
(g1
g2
(lp888
g0
(g1
g2
(lp889
V's
p890
atp891
Rp892
(dp893
g13
VVBZ
p894
sbag0
(g1
g2
(lp895
g0
(g1
g2
(lp896
Vlooking
p897
atp898
Rp899
(dp900
g13
VVBG
p901
sbag0
(g1
g2
(lp902
g0
(g1
g2
(lp903
Vat
p904
atp905
Rp906
(dp907
g13
VIN
p908
sbatp909
Rp910
(dp911
g13
VADVP
p912
sbag0
(g1
g2
(lp913
V,
p914
atp915
Rp916
(dp917
g13
V,
p918
sbag0
(g1
g2
(lp919
g0
(g1
g2
(lp920
Vat
p921
atp922
Rp923
(dp924
g13
VIN
p925
sbag0
(g1
g2
(lp926
g0
(g1
g2
(lp927
Vthe
p928
atp929
Rp930
(dp931
g13
VDT
p932
sbag0
(g1
g2
(lp933
Vdrawing
p934
atp935
Rp936
(dp937
g13
VNN
p938
sbatp939
Rp940
(dp941
g13
VNP
p942
sbatp943
Rp944
(dp945
g13
VPP
p946
sbatp947
Rp948
(dp949
g13
VVP
p950
sbatp951
Rp952
(dp953
g13
VVP
p954
sbatp955
Rp956
(dp957
g13
VS
p958
sbatp959
Rp960
(dp961
g13
VSBAR
p962
sbatp963
Rp964
(dp965
g13
VNP
p966
sbatp967
Rp968
(dp969
g13
VPP
p970
sbatp971
Rp972
(dp973
g13
VNP
p974
sbag0
(g1
g2
(lp975
V.
p976
atp977
Rp978
(dp979
g13
V.
p980
sbatp981
Rp982
(dp983
g13
VFRAG
p984
sbatp985
Rp986
(dp987
g13
S'id: 5'
p988
sbag0
(g1
g2
(lp989
g0
(g1
g2
(lp990
g0
(g1
g2
(lp991
VAnd
p992
atp993
Rp994
(dp995
g13
VCC
p996
sbag0
(g1
g2
(lp997
g0
(g1
g2
(lp998
Vshe
p999
atp1000
Rp1001
(dp1002
g13
VPRP
p1003
sbatp1004
Rp1005
(dp1006
g13
VNP
p1007
sbag0
(g1
g2
(lp1008
g0
(g1
g2
(lp1009
V's
p1010
atp1011
Rp1012
(dp1013
g13
VVBZ
p1014
sbag0
(g1
g2
(lp1015
g0
(g1
g2
(lp1016
Vback
p1017
atp1018
Rp1019
(dp1020
g13
VRB
p1021
sbag0
(g1
g2
(lp1022
Vand
p1023
atp1024
Rp1025
(dp1026
g13
VCC
p1027
sbag0
(g1
g2
(lp1028
Vforth
p1029
atp1030
Rp1031
(dp1032
g13
VRB
p1033
sbatp1034
Rp1035
(dp1036
g13
VADVP
p1037
sbag0
(g1
g2
(lp1038
g0
(g1
g2
(lp1039
Vwith
p1040
atp1041
Rp1042
(dp1043
g13
VIN
p1044
sbag0
(g1
g2
(lp1045
g0
(g1
g2
(lp1046
Vit
p1047
atp1048
Rp1049
(dp1050
g13
VPRP
p1051
sbatp1052
Rp1053
(dp1054
g13
VNP
p1055
sbatp1056
Rp1057
(dp1058
g13
VPP
p1059
sbatp1060
Rp1061
(dp1062
g13
VVP
p1063
sbag0
(g1
g2
(lp1064
V.
p1065
atp1066
Rp1067
(dp1068
g13
V.
p1069
sbatp1070
Rp1071
(dp1072
g13
VS
p1073
sbatp1074
Rp1075
(dp1076
g13
S'id: 6'
p1077
sbag0
(g1
g2
(lp1078
g0
(g1
g2
(lp1079
g0
(g1
g2
(lp1080
VAnd
p1081
atp1082
Rp1083
(dp1084
g13
VCC
p1085
sbag0
(g1
g2
(lp1086
g0
(g1
g2
(lp1087
Vshe
p1088
atp1089
Rp1090
(dp1091
g13
VPRP
p1092
sbatp1093
Rp1094
(dp1095
g13
VNP
p1096
sbag0
(g1
g2
(lp1097
g0
(g1
g2
(lp1098
V's
p1099
atp1100
Rp1101
(dp1102
g13
VVBZ
p1103
sbag0
(g1
g2
(lp1104
g0
(g1
g2
(lp1105
Vreally
p1106
atp1107
Rp1108
(dp1109
g13
VRB
p1110
sbag0
(g1
g2
(lp1111
Vgood
p1112
atp1113
Rp1114
(dp1115
g13
VJJ
p1116
sbatp1117
Rp1118
(dp1119
g13
VADJP
p1120
sbatp1121
Rp1122
(dp1123
g13
VVP
p1124
sbag0
(g1
g2
(lp1125
V.
p1126
atp1127
Rp1128
(dp1129
g13
V.
p1130
sbatp1131
Rp1132
(dp1133
g13
VS
p1134
sbatp1135
Rp1136
(dp1137
g13
S'id: 7'
p1138
sbag0
(g1
g2
(lp1139
g0
(g1
g2
(lp1140
g0
(g1
g2
(lp1141
g0
(g1
g2
(lp1142
g0
(g1
g2
(lp1143
VShe
p1144
atp1145
Rp1146
(dp1147
g13
VPRP
p1148
sbatp1149
Rp1150
(dp1151
g13
VNP
p1152
sbag0
(g1
g2
(lp1153
g0
(g1
g2
(lp1154
Vis
p1155
atp1156
Rp1157
(dp1158
g13
VVBZ
p1159
sbag0
(g1
g2
(lp1160
V,
p1161
atp1162
Rp1163
(dp1164
g13
V,
p1165
sbag0
(g1
g2
(lp1166
g0
(g1
g2
(lp1167
g0
(g1
g2
(lp1168
g0
(g1
g2
(lp1169
Vshe
p1170
atp1171
Rp1172
(dp1173
g13
VPRP
p1174
sbatp1175
Rp1176
(dp1177
g13
VNP
p1178
sbag0
(g1
g2
(lp1179
g0
(g1
g2
(lp1180
V's
p1181
atp1182
Rp1183
(dp1184
g13
VVBZ
p1185
sbag0
(g1
g2
(lp1186
g0
(g1
g2
(lp1187
Vreally
p1188
atp1189
Rp1190
(dp1191
g13
VRB
p1192
sbatp1193
Rp1194
(dp1195
g13
VADVP
p1196
sbatp1197
Rp1198
(dp1199
g13
VVP
p1200
sbatp1201
Rp1202
(dp1203
g13
VS
p1204
sbatp1205
Rp1206
(dp1207
g13
VSBAR
p1208
sbatp1209
Rp1210
(dp1211
g13
VVP
p1212
sbatp1213
Rp1214
(dp1215
g13
VS
p1216
sbag0
(g1
g2
(lp1217
V,
p1218
atp1219
Rp1220
(dp1221
g13
V,
p1222
sbag0
(g1
g2
(lp1223
g0
(g1
g2
(lp1224
Vshe
p1225
atp1226
Rp1227
(dp1228
g13
VPRP
p1229
sbatp1230
Rp1231
(dp1232
g13
VNP
p1233
sbag0
(g1
g2
(lp1234
g0
(g1
g2
(lp1235
V's
p1236
atp1237
Rp1238
(dp1239
g13
VVBZ
p1240
sbag0
(g1
g2
(lp1241
g0
(g1
g2
(lp1242
g0
(g1
g2
(lp1243
Vthe
p1244
atp1245
Rp1246
(dp1247
g13
VDT
p1248
sbag0
(g1
g2
(lp1249
Vgirl
p1250
atp1251
Rp1252
(dp1253
g13
VNN
p1254
sbatp1255
Rp1256
(dp1257
g13
VNP
p1258
sbag0
(g1
g2
(lp1259
g0
(g1
g2
(lp1260
Vwith
p1261
atp1262
Rp1263
(dp1264
g13
VIN
p1265
sbag0
(g1
g2
(lp1266
g0
(g1
g2
(lp1267
Vtwo
p1268
atp1269
Rp1270
(dp1271
g13
VCD
p1272
sbag0
(g1
g2
(lp1273
Vlittle
p1274
atp1275
Rp1276
(dp1277
g13
VJJ
p1278
sbag0
(g1
g2
(lp1279
Vones
p1280
atp1281
Rp1282
(dp1283
g13
VNNS
p1284
sbatp1285
Rp1286
(dp1287
g13
VNP
p1288
sbatp1289
Rp1290
(dp1291
g13
VPP
p1292
sbatp1293
Rp1294
(dp1295
g13
VNP
p1296
sbatp1297
Rp1298
(dp1299
g13
VVP
p1300
sbag0
(g1
g2
(lp1301
V.
p1302
atp1303
Rp1304
(dp1305
g13
V.
p1306
sbatp1307
Rp1308
(dp1309
g13
VS
p1310
sbatp1311
Rp1312
(dp1313
g13
S'id: 8'
p1314
sbag0
(g1
g2
(lp1315
g0
(g1
g2
(lp1316
g0
(g1
g2
(lp1317
VAnd
p1318
atp1319
Rp1320
(dp1321
g13
VCC
p1322
sbag0
(g1
g2
(lp1323
g0
(g1
g2
(lp1324
g0
(g1
g2
(lp1325
Vshe
p1326
atp1327
Rp1328
(dp1329
g13
VPRP
p1330
sbatp1331
Rp1332
(dp1333
g13
VNP
p1334
sbag0
(g1
g2
(lp1335
g0
(g1
g2
(lp1336
Vgot
p1337
atp1338
Rp1339
(dp1340
g13
VVBD
p1341
sbatp1342
Rp1343
(dp1344
g13
VVP
p1345
sbatp1346
Rp1347
(dp1348
g13
VS
p1349
sbag0
(g1
g2
(lp1350
V,
p1351
atp1352
Rp1353
(dp1354
g13
V,
p1355
sbag0
(g1
g2
(lp1356
g0
(g1
g2
(lp1357
g0
(g1
g2
(lp1358
Vthe
p1359
atp1360
Rp1361
(dp1362
g13
VDT
p1363
sbag0
(g1
g2
(lp1364
Vga
p1365
atp1366
Rp1367
(dp1368
g13
VNN
p1369
sbatp1370
Rp1371
(dp1372
g13
VNP
p1373
sbatp1374
Rp1375
(dp1376
g13
VS
p1377
sbag0
(g1
g2
(lp1378
V,
p1379
atp1380
Rp1381
(dp1382
g13
V,
p1383
sbag0
(g1
g2
(lp1384
Vand
p1385
atp1386
Rp1387
(dp1388
g13
VCC
p1389
sbag0
(g1
g2
(lp1390
g0
(g1
g2
(lp1391
g0
(g1
g2
(lp1392
g0
(g1
g2
(lp1393
Vhe
p1394
atp1395
Rp1396
(dp1397
g13
VPRP
p1398
sbatp1399
Rp1400
(dp1401
g13
VNP
p1402
sbag0
(g1
g2
(lp1403
g0
(g1
g2
(lp1404
V's
p1405
atp1406
Rp1407
(dp1408
g13
VVBZ
p1409
sbag0
(g1
g2
(lp1410
g0
(g1
g2
(lp1411
Vgot
p1412
atp1413
Rp1414
(dp1415
g13
VVBN
p1416
sbag0
(g1
g2
(lp1417
g0
(g1
g2
(lp1418
Vpicture
p1419
atp1420
Rp1421
(dp1422
g13
VNN
p1423
sbatp1424
Rp1425
(dp1426
g13
VNP
p1427
sbatp1428
Rp1429
(dp1430
g13
VVP
p1431
sbatp1432
Rp1433
(dp1434
g13
VVP
p1435
sbatp1436
Rp1437
(dp1438
g13
VS
p1439
sbag0
(g1
g2
(lp1440
V,
p1441
atp1442
Rp1443
(dp1444
g13
V,
p1445
sbag0
(g1
g2
(lp1446
Vand
p1447
atp1448
Rp1449
(dp1450
g13
VCC
p1451
sbag0
(g1
g2
(lp1452
g0
(g1
g2
(lp1453
g0
(g1
g2
(lp1454
Vshe
p1455
atp1456
Rp1457
(dp1458
g13
VPRP
p1459
sbatp1460
Rp1461
(dp1462
g13
VNP
p1463
sbag0
(g1
g2
(lp1464
g0
(g1
g2
(lp1465
V's
p1466
atp1467
Rp1468
(dp1469
g13
VVBZ
p1470
sbag0
(g1
g2
(lp1471
g0
(g1
g2
(lp1472
Vgot
p1473
atp1474
Rp1475
(dp1476
g13
VVBN
p1477
sbag0
(g1
g2
(lp1478
g0
(g1
g2
(lp1479
Vstuff
p1480
atp1481
Rp1482
(dp1483
g13
VNN
p1484
sbatp1485
Rp1486
(dp1487
g13
VNP
p1488
sbag0
(g1
g2
(lp1489
g0
(g1
g2
(lp1490
Vhere
p1491
atp1492
Rp1493
(dp1494
g13
VRB
p1495
sbatp1496
Rp1497
(dp1498
g13
VADVP
p1499
sbag0
(g1
g2
(lp1500
V,
p1501
atp1502
Rp1503
(dp1504
g13
V,
p1505
sbag0
(g1
g2
(lp1506
g0
(g1
g2
(lp1507
Vso
p1508
atp1509
Rp1510
(dp1511
g13
VIN
p1512
sbag0
(g1
g2
(lp1513
g0
(g1
g2
(lp1514
g0
(g1
g2
(lp1515
Vhe
p1516
atp1517
Rp1518
(dp1519
g13
VPRP
p1520
sbatp1521
Rp1522
(dp1523
g13
VNP
p1524
sbag0
(g1
g2
(lp1525
g0
(g1
g2
(lp1526
V's
p1527
atp1528
Rp1529
(dp1530
g13
VVBZ
p1531
sbag0
(g1
g2
(lp1532
g0
(g1
g2
(lp1533
Vgot
p1534
atp1535
Rp1536
(dp1537
g13
VVBD
p1538
sbag0
(g1
g2
(lp1539
g0
(g1
g2
(lp1540
Vsome
p1541
atp1542
Rp1543
(dp1544
g13
VDT
p1545
sbatp1546
Rp1547
(dp1548
g13
VNP
p1549
sbag0
(g1
g2
(lp1550
g0
(g1
g2
(lp1551
g0
(g1
g2
(lp1552
Vright
p1553
atp1554
Rp1555
(dp1556
g13
VRB
p1557
sbag0
(g1
g2
(lp1558
Vnow
p1559
atp1560
Rp1561
(dp1562
g13
VRB
p1563
sbatp1564
Rp1565
(dp1566
g13
VADVP
p1567
sbag0
(g1
g2
(lp1568
g0
(g1
g2
(lp1569
Vfor
p1570
atp1571
Rp1572
(dp1573
g13
VIN
p1574
sbag0
(g1
g2
(lp1575
g0
(g1
g2
(lp1576
Vher
p1577
atp1578
Rp1579
(dp1580
g13
VPRP
p1581
sbatp1582
Rp1583
(dp1584
g13
VNP
p1585
sbatp1586
Rp1587
(dp1588
g13
VPP
p1589
sbatp1590
Rp1591
(dp1592
g13
VADVP
p1593
sbatp1594
Rp1595
(dp1596
g13
VVP
p1597
sbatp1598
Rp1599
(dp1600
g13
VVP
p1601
sbatp1602
Rp1603
(dp1604
g13
VS
p1605
sbatp1606
Rp1607
(dp1608
g13
VSBAR
p1609
sbatp1610
Rp1611
(dp1612
g13
VVP
p1613
sbatp1614
Rp1615
(dp1616
g13
VVP
p1617
sbatp1618
Rp1619
(dp1620
g13
VS
p1621
sbatp1622
Rp1623
(dp1624
g13
VS
p1625
sbag0
(g1
g2
(lp1626
V.
p1627
atp1628
Rp1629
(dp1630
g13
V.
p1631
sbatp1632
Rp1633
(dp1634
g13
VS
p1635
sbatp1636
Rp1637
(dp1638
g13
S'id: 9'
p1639
sbag0
(g1
g2
(lp1640
g0
(g1
g2
(lp1641
g0
(g1
g2
(lp1642
g0
(g1
g2
(lp1643
VAnd
p1644
atp1645
Rp1646
(dp1647
g13
VCC
p1648
sbag0
(g1
g2
(lp1649
g0
(g1
g2
(lp1650
Vthen
p1651
atp1652
Rp1653
(dp1654
g13
VRB
p1655
sbatp1656
Rp1657
(dp1658
g13
VADVP
p1659
sbag0
(g1
g2
(lp1660
g0
(g1
g2
(lp1661
Vthis
p1662
atp1663
Rp1664
(dp1665
g13
VDT
p1666
sbag0
(g1
g2
(lp1667
Vone
p1668
atp1669
Rp1670
(dp1671
g13
VCD
p1672
sbatp1673
Rp1674
(dp1675
g13
VNP
p1676
sbag0
(g1
g2
(lp1677
g0
(g1
g2
(lp1678
Vis
p1679
atp1680
Rp1681
(dp1682
g13
VVBZ
p1683
sbag0
(g1
g2
(lp1684
g0
(g1
g2
(lp1685
g0
(g1
g2
(lp1686
Vthe
p1687
atp1688
Rp1689
(dp1690
g13
VDT
p1691
sbag0
(g1
g2
(lp1692
Vguy
p1693
atp1694
Rp1695
(dp1696
g13
VNN
p1697
sbatp1698
Rp1699
(dp1700
g13
VNP
p1701
sbag0
(g1
g2
(lp1702
g0
(g1
g2
(lp1703
Vwith
p1704
atp1705
Rp1706
(dp1707
g13
VIN
p1708
sbag0
(g1
g2
(lp1709
g0
(g1
g2
(lp1710
Vthe
p1711
atp1712
Rp1713
(dp1714
g13
VDT
p1715
sbag0
(g1
g2
(lp1716
Vlittle
p1717
atp1718
Rp1719
(dp1720
g13
VJJ
p1721
sbag0
(g1
g2
(lp1722
Vone
p1723
atp1724
Rp1725
(dp1726
g13
VCD
p1727
sbag0
(g1
g2
(lp1728
Vgirl
p1729
atp1730
Rp1731
(dp1732
g13
VNN
p1733
sbatp1734
Rp1735
(dp1736
g13
VNP
p1737
sbatp1738
Rp1739
(dp1740
g13
VPP
p1741
sbatp1742
Rp1743
(dp1744
g13
VNP
p1745
sbatp1746
Rp1747
(dp1748
g13
VVP
p1749
sbatp1750
Rp1751
(dp1752
g13
VS
p1753
sbag0
(g1
g2
(lp1754
V,
p1755
atp1756
Rp1757
(dp1758
g13
V,
p1759
sbag0
(g1
g2
(lp1760
Vand
p1761
atp1762
Rp1763
(dp1764
g13
VCC
p1765
sbag0
(g1
g2
(lp1766
g0
(g1
g2
(lp1767
g0
(g1
g2
(lp1768
Vthey
p1769
atp1770
Rp1771
(dp1772
g13
VPRP
p1773
sbatp1774
Rp1775
(dp1776
g13
VNP
p1777
sbag0
(g1
g2
(lp1778
g0
(g1
g2
(lp1779
V're
p1780
atp1781
Rp1782
(dp1783
g13
VVBP
p1784
sbag0
(g1
g2
(lp1785
g0
(g1
g2
(lp1786
Vdoing
p1787
atp1788
Rp1789
(dp1790
g13
VVBG
p1791
sbag0
(g1
g2
(lp1792
g0
(g1
g2
(lp1793
Vreally
p1794
atp1795
Rp1796
(dp1797
g13
VRB
p1798
sbag0
(g1
g2
(lp1799
Vgood
p1800
atp1801
Rp1802
(dp1803
g13
VJJ
p1804
sbatp1805
Rp1806
(dp1807
g13
VADJP
p1808
sbatp1809
Rp1810
(dp1811
g13
VVP
p1812
sbatp1813
Rp1814
(dp1815
g13
VVP
p1816
sbatp1817
Rp1818
(dp1819
g13
VS
p1820
sbag0
(g1
g2
(lp1821
V.
p1822
atp1823
Rp1824
(dp1825
g13
V.
p1826
sbatp1827
Rp1828
(dp1829
g13
VS
p1830
sbatp1831
Rp1832
(dp1833
g13
S'id: 10'
p1834
sbag0
(g1
g2
(lp1835
g0
(g1
g2
(lp1836
g0
(g1
g2
(lp1837
g0
(g1
g2
(lp1838
VHe
p1839
atp1840
Rp1841
(dp1842
g13
VPRP
p1843
sbatp1844
Rp1845
(dp1846
g13
VNP
p1847
sbag0
(g1
g2
(lp1848
g0
(g1
g2
(lp1849
Vwants
p1850
atp1851
Rp1852
(dp1853
g13
VVBZ
p1854
sbag0
(g1
g2
(lp1855
g0
(g1
g2
(lp1856
g0
(g1
g2
(lp1857
Vto
p1858
atp1859
Rp1860
(dp1861
g13
VTO
p1862
sbag0
(g1
g2
(lp1863
g0
(g1
g2
(lp1864
Vsee
p1865
atp1866
Rp1867
(dp1868
g13
VVB
p1869
sbag0
(g1
g2
(lp1870
g0
(g1
g2
(lp1871
Vif
p1872
atp1873
Rp1874
(dp1875
g13
VIN
p1876
sbag0
(g1
g2
(lp1877
g0
(g1
g2
(lp1878
g0
(g1
g2
(lp1879
Vhe
p1880
atp1881
Rp1882
(dp1883
g13
VPRP
p1884
sbatp1885
Rp1886
(dp1887
g13
VNP
p1888
sbag0
(g1
g2
(lp1889
g0
(g1
g2
(lp1890
V's
p1891
atp1892
Rp1893
(dp1894
g13
VVBZ
p1895
sbag0
(g1
g2
(lp1896
g0
(g1
g2
(lp1897
Vgot
p1898
atp1899
Rp1900
(dp1901
g13
VVBD
p1902
sbag0
(g1
g2
(lp1903
g0
(g1
g2
(lp1904
Vsomething
p1905
atp1906
Rp1907
(dp1908
g13
VNN
p1909
sbatp1910
Rp1911
(dp1912
g13
VNP
p1913
sbag0
(g1
g2
(lp1914
g0
(g1
g2
(lp1915
Vfor
p1916
atp1917
Rp1918
(dp1919
g13
VIN
p1920
sbag0
(g1
g2
(lp1921
g0
(g1
g2
(lp1922
Vher
p1923
atp1924
Rp1925
(dp1926
g13
VPRP
p1927
sbatp1928
Rp1929
(dp1930
g13
VNP
p1931
sbatp1932
Rp1933
(dp1934
g13
VPP
p1935
sbatp1936
Rp1937
(dp1938
g13
VVP
p1939
sbatp1940
Rp1941
(dp1942
g13
VVP
p1943
sbatp1944
Rp1945
(dp1946
g13
VS
p1947
sbatp1948
Rp1949
(dp1950
g13
VSBAR
p1951
sbatp1952
Rp1953
(dp1954
g13
VVP
p1955
sbatp1956
Rp1957
(dp1958
g13
VVP
p1959
sbatp1960
Rp1961
(dp1962
g13
VS
p1963
sbatp1964
Rp1965
(dp1966
g13
VVP
p1967
sbag0
(g1
g2
(lp1968
V.
p1969
atp1970
Rp1971
(dp1972
g13
V.
p1973
sbatp1974
Rp1975
(dp1976
g13
VS
p1977
sbatp1978
Rp1979
(dp1980
g13
S'id: 11'
p1981
sbag0
(g1
g2
(lp1982
g0
(g1
g2
(lp1983
g0
(g1
g2
(lp1984
VAnd
p1985
atp1986
Rp1987
(dp1988
g13
VCC
p1989
sbag0
(g1
g2
(lp1990
g0
(g1
g2
(lp1991
Vthen
p1992
atp1993
Rp1994
(dp1995
g13
VRB
p1996
sbatp1997
Rp1998
(dp1999
g13
VADVP
p2000
sbag0
(g1
g2
(lp2001
V,
p2002
atp2003
Rp2004
(dp2005
g13
V,
p2006
sbag0
(g1
g2
(lp2007
g0
(g1
g2
(lp2008
Vand
p2009
atp2010
Rp2011
(dp2012
g13
VCC
p2013
sbag0
(g1
g2
(lp2014
g0
(g1
g2
(lp2015
Vthen
p2016
atp2017
Rp2018
(dp2019
g13
VRB
p2020
sbatp2021
Rp2022
(dp2023
g13
VADVP
p2024
sbag0
(g1
g2
(lp2025
g0
(g1
g2
(lp2026
Vthis
p2027
atp2028
Rp2029
(dp2030
g13
VDT
p2031
sbatp2032
Rp2033
(dp2034
g13
VNP
p2035
sbag0
(g1
g2
(lp2036
g0
(g1
g2
(lp2037
Vis
p2038
atp2039
Rp2040
(dp2041
g13
VVBZ
p2042
sbag0
(g1
g2
(lp2043
g0
(g1
g2
(lp2044
g0
(g1
g2
(lp2045
Va
p2046
atp2047
Rp2048
(dp2049
g13
VDT
p2050
sbag0
(g1
g2
(lp2051
Vcat
p2052
atp2053
Rp2054
(dp2055
g13
VNN
p2056
sbatp2057
Rp2058
(dp2059
g13
VNP
p2060
sbag0
(g1
g2
(lp2061
V,
p2062
atp2063
Rp2064
(dp2065
g13
V,
p2066
sbag0
(g1
g2
(lp2067
g0
(g1
g2
(lp2068
Vcat
p2069
atp2070
Rp2071
(dp2072
g13
VNN
p2073
sbatp2074
Rp2075
(dp2076
g13
VNP
p2077
sbatp2078
Rp2079
(dp2080
g13
VNP
p2081
sbatp2082
Rp2083
(dp2084
g13
VVP
p2085
sbatp2086
Rp2087
(dp2088
g13
VS
p2089
sbag0
(g1
g2
(lp2090
Vbut
p2091
atp2092
Rp2093
(dp2094
g13
VCC
p2095
sbag0
(g1
g2
(lp2096
g0
(g1
g2
(lp2097
g0
(g1
g2
(lp2098
Vit
p2099
atp2100
Rp2101
(dp2102
g13
VPRP
p2103
sbatp2104
Rp2105
(dp2106
g13
VNP
p2107
sbag0
(g1
g2
(lp2108
g0
(g1
g2
(lp2109
V's
p2110
atp2111
Rp2112
(dp2113
g13
VVBZ
p2114
sbag0
(g1
g2
(lp2115
g0
(g1
g2
(lp2116
g0
(g1
g2
(lp2117
Vmore
p2118
atp2119
Rp2120
(dp2121
g13
VJJR
p2122
sbatp2123
Rp2124
(dp2125
g13
VADJP
p2126
sbag0
(g1
g2
(lp2127
g0
(g1
g2
(lp2128
Vthan
p2129
atp2130
Rp2131
(dp2132
g13
VIN
p2133
sbag0
(g1
g2
(lp2134
g0
(g1
g2
(lp2135
Vthat
p2136
atp2137
Rp2138
(dp2139
g13
VDT
p2140
sbatp2141
Rp2142
(dp2143
g13
VNP
p2144
sbatp2145
Rp2146
(dp2147
g13
VPP
p2148
sbatp2149
Rp2150
(dp2151
g13
VADJP
p2152
sbatp2153
Rp2154
(dp2155
g13
VVP
p2156
sbatp2157
Rp2158
(dp2159
g13
VS
p2160
sbag0
(g1
g2
(lp2161
V.
p2162
atp2163
Rp2164
(dp2165
g13
V.
p2166
sbatp2167
Rp2168
(dp2169
g13
VS
p2170
sbatp2171
Rp2172
(dp2173
g13
S'id: 12'
p2174
sbag0
(g1
g2
(lp2175
g0
(g1
g2
(lp2176
g0
(g1
g2
(lp2177
VAnd
p2178
atp2179
Rp2180
(dp2181
g13
VCC
p2182
sbag0
(g1
g2
(lp2183
V,
p2184
atp2185
Rp2186
(dp2187
g13
V,
p2188
sbag0
(g1
g2
(lp2189
g0
(g1
g2
(lp2190
Vno
p2191
atp2192
Rp2193
(dp2194
g13
VDT
p2195
sbatp2196
Rp2197
(dp2198
g13
VNP
p2199
sbag0
(g1
g2
(lp2200
V.
p2201
atp2202
Rp2203
(dp2204
g13
V.
p2205
sbatp2206
Rp2207
(dp2208
g13
VFRAG
p2209
sbatp2210
Rp2211
(dp2212
g13
S'id: 13'
p2213
sbag0
(g1
g2
(lp2214
g0
(g1
g2
(lp2215
g0
(g1
g2
(lp2216
VAnd
p2217
atp2218
Rp2219
(dp2220
g13
VCC
p2221
sbag0
(g1
g2
(lp2222
g0
(g1
g2
(lp2223
Vso
p2224
atp2225
Rp2226
(dp2227
g13
VRB
p2228
sbatp2229
Rp2230
(dp2231
g13
VADVP
p2232
sbag0
(g1
g2
(lp2233
g0
(g1
g2
(lp2234
Vhe
p2235
atp2236
Rp2237
(dp2238
g13
VPRP
p2239
sbatp2240
Rp2241
(dp2242
g13
VNP
p2243
sbag0
(g1
g2
(lp2244
g0
(g1
g2
(lp2245
V's
p2246
atp2247
Rp2248
(dp2249
g13
VVBZ
p2250
sbag0
(g1
g2
(lp2251
g0
(g1
g2
(lp2252
Vgon
p2253
atp2254
Rp2255
(dp2256
g13
VVBG
p2257
sbag0
(g1
g2
(lp2258
g0
(g1
g2
(lp2259
g0
(g1
g2
(lp2260
Vna
p2261
atp2262
Rp2263
(dp2264
g13
VTO
p2265
sbag0
(g1
g2
(lp2266
g0
(g1
g2
(lp2267
Vbe
p2268
atp2269
Rp2270
(dp2271
g13
VVB
p2272
sbag0
(g1
g2
(lp2273
g0
(g1
g2
(lp2274
Vback
p2275
atp2276
Rp2277
(dp2278
g13
VRB
p2279
sbag0
(g1
g2
(lp2280
Van
p2281
atp2282
Rp2283
(dp2284
g13
VDT
p2285
sbag0
(g1
g2
(lp2286
Vforth
p2287
atp2288
Rp2289
(dp2290
g13
VRB
p2291
sbatp2292
Rp2293
(dp2294
g13
VADVP
p2295
sbag0
(g1
g2
(lp2296
g0
(g1
g2
(lp2297
Vwith
p2298
atp2299
Rp2300
(dp2301
g13
VIN
p2302
sbag0
(g1
g2
(lp2303
g0
(g1
g2
(lp2304
Vit
p2305
atp2306
Rp2307
(dp2308
g13
VPRP
p2309
sbatp2310
Rp2311
(dp2312
g13
VNP
p2313
sbatp2314
Rp2315
(dp2316
g13
VPP
p2317
sbag0
(g1
g2
(lp2318
V,
p2319
atp2320
Rp2321
(dp2322
g13
V,
p2323
sbag0
(g1
g2
(lp2324
g0
(g1
g2
(lp2325
Vbecause
p2326
atp2327
Rp2328
(dp2329
g13
VIN
p2330
sbag0
(g1
g2
(lp2331
g0
(g1
g2
(lp2332
g0
(g1
g2
(lp2333
Vhe
p2334
atp2335
Rp2336
(dp2337
g13
VPRP
p2338
sbatp2339
Rp2340
(dp2341
g13
VNP
p2342
sbag0
(g1
g2
(lp2343
g0
(g1
g2
(lp2344
V's
p2345
atp2346
Rp2347
(dp2348
g13
VVBZ
p2349
sbag0
(g1
g2
(lp2350
g0
(g1
g2
(lp2351
g0
(g1
g2
(lp2352
g0
(g1
g2
(lp2353
Vhe
p2354
atp2355
Rp2356
(dp2357
g13
VPRP
p2358
sbatp2359
Rp2360
(dp2361
g13
VNP
p2362
sbag0
(g1
g2
(lp2363
g0
(g1
g2
(lp2364
V's
p2365
atp2366
Rp2367
(dp2368
g13
VVBZ
p2369
sbag0
(g1
g2
(lp2370
g0
(g1
g2
(lp2371
Vsupposed
p2372
atp2373
Rp2374
(dp2375
g13
VVBN
p2376
sbag0
(g1
g2
(lp2377
g0
(g1
g2
(lp2378
g0
(g1
g2
(lp2379
Vto
p2380
atp2381
Rp2382
(dp2383
g13
VTO
p2384
sbag0
(g1
g2
(lp2385
g0
(g1
g2
(lp2386
Vbe
p2387
atp2388
Rp2389
(dp2390
g13
VVB
p2391
sbag0
(g1
g2
(lp2392
g0
(g1
g2
(lp2393
Vreally
p2394
atp2395
Rp2396
(dp2397
g13
VRB
p2398
sbag0
(g1
g2
(lp2399
Vgood
p2400
atp2401
Rp2402
(dp2403
g13
VJJ
p2404
sbatp2405
Rp2406
(dp2407
g13
VADJP
p2408
sbatp2409
Rp2410
(dp2411
g13
VVP
p2412
sbatp2413
Rp2414
(dp2415
g13
VVP
p2416
sbatp2417
Rp2418
(dp2419
g13
VS
p2420
sbatp2421
Rp2422
(dp2423
g13
VVP
p2424
sbatp2425
Rp2426
(dp2427
g13
VVP
p2428
sbatp2429
Rp2430
(dp2431
g13
VS
p2432
sbatp2433
Rp2434
(dp2435
g13
VSBAR
p2436
sbatp2437
Rp2438
(dp2439
g13
VVP
p2440
sbatp2441
Rp2442
(dp2443
g13
VS
p2444
sbatp2445
Rp2446
(dp2447
g13
VSBAR
p2448
sbatp2449
Rp2450
(dp2451
g13
VVP
p2452
sbatp2453
Rp2454
(dp2455
g13
VVP
p2456
sbatp2457
Rp2458
(dp2459
g13
VS
p2460
sbatp2461
Rp2462
(dp2463
g13
VVP
p2464
sbatp2465
Rp2466
(dp2467
g13
VVP
p2468
sbag0
(g1
g2
(lp2469
V.
p2470
atp2471
Rp2472
(dp2473
g13
V.
p2474
sbatp2475
Rp2476
(dp2477
g13
VS
p2478
sbatp2479
Rp2480
(dp2481
g13
S'id: 14'
p2482
sbatp2483
Rp2484
(dp2485
g13
S'sentences'
p2486
sb.