ccopy_reg
_reconstructor
p0
(cnltk.tree
Tree
p1
c__builtin__
list
p2
(lp3
g0
(g1
g2
(lp4
g0
(g1
g2
(lp5
g0
(g1
g2
(lp6
VBoy , and boy
p7
atp8
Rp9
(dp10
S'_label'
p11
S'start: 1'
p12
sbatp13
Rp14
(dp15
g11
S'sent: 2'
p16
sbag0
(g1
g2
(lp17
g0
(g1
g2
(lp18
Vthe boy
p19
atp20
Rp21
(dp22
g11
S'start: 3'
p23
sbatp24
Rp25
(dp26
g11
S'sent: 3'
p27
sbag0
(g1
g2
(lp28
g0
(g1
g2
(lp29
Vthe boy
p30
atp31
Rp32
(dp33
g11
S'start: 3'
p34
sbatp35
Rp36
(dp37
g11
S'sent: 7'
p38
sbag0
(g1
g2
(lp39
g0
(g1
g2
(lp40
Vno boy
p41
atp42
Rp43
(dp44
g11
S'start: 6'
p45
sbatp46
Rp47
(dp48
g11
S'sent: 7'
p49
sbag0
(g1
g2
(lp50
g0
(g1
g2
(lp51
Vthe boy
p52
atp53
Rp54
(dp55
g11
S'start: 20'
p56
sbatp57
Rp58
(dp59
g11
S'sent: 7'
p60
sbag0
(g1
g2
(lp61
g0
(g1
g2
(lp62
Vthey
p63
atp64
Rp65
(dp66
g11
S'start: 26'
p67
sbatp68
Rp69
(dp70
g11
S'sent: 7'
p71
sbag0
(g1
g2
(lp72
g0
(g1
g2
(lp73
VThe boy
p74
atp75
Rp76
(dp77
g11
S'start: 1'
p78
sbatp79
Rp80
(dp81
g11
S'sent: 11'
p82
sbag0
(g1
g2
(lp83
g0
(g1
g2
(lp84
Vno boy
p85
atp86
Rp87
(dp88
g11
S'start: 10'
p89
sbatp90
Rp91
(dp92
g11
S'sent: 11'
p93
sbag0
(g1
g2
(lp94
g0
(g1
g2
(lp95
Vno
p96
atp97
Rp98
(dp99
g11
S'start: 14'
p100
sbatp101
Rp102
(dp103
g11
S'sent: 11'
p104
sbatp105
Rp106
(dp107
g11
S'id: 1'
p108
sbag0
(g1
g2
(lp109
g0
(g1
g2
(lp110
g0
(g1
g2
(lp111
Vno
p112
atp113
Rp114
(dp115
g11
S'start: 13'
p116
sbatp117
Rp118
(dp119
g11
S'sent: 2'
p120
sbag0
(g1
g2
(lp121
g0
(g1
g2
(lp122
Vno , man
p123
atp124
Rp125
(dp126
g11
S'start: 14'
p127
sbatp128
Rp129
(dp130
g11
S'sent: 11'
p131
sbag0
(g1
g2
(lp132
g0
(g1
g2
(lp133
Vhe
p134
atp135
Rp136
(dp137
g11
S'start: 18'
p138
sbatp139
Rp140
(dp141
g11
S'sent: 11'
p142
sbatp143
Rp144
(dp145
g11
S'id: 3'
p146
sbag0
(g1
g2
(lp147
g0
(g1
g2
(lp148
g0
(g1
g2
(lp149
Va drink
p150
atp151
Rp152
(dp153
g11
S'start: 14'
p154
sbatp155
Rp156
(dp157
g11
S'sent: 2'
p158
sbag0
(g1
g2
(lp159
g0
(g1
g2
(lp160
Va drink
p161
atp162
Rp163
(dp164
g11
S'start: 10'
p165
sbatp166
Rp167
(dp168
g11
S'sent: 12'
p169
sbatp170
Rp171
(dp172
g11
S'id: 4'
p173
sbag0
(g1
g2
(lp174
g0
(g1
g2
(lp175
g0
(g1
g2
(lp176
VThe
p177
atp178
Rp179
(dp180
g11
S'start: 1'
p181
sbatp182
Rp183
(dp184
g11
S'sent: 3'
p185
sbag0
(g1
g2
(lp186
g0
(g1
g2
(lp187
VThe , the sailboat , and the singing .
p188
atp189
Rp190
(dp191
g11
S'start: 1'
p192
sbatp193
Rp194
(dp195
g11
S'sent: 4'
p196
sbag0
(g1
g2
(lp197
g0
(g1
g2
(lp198
VThe
p199
atp200
Rp201
(dp202
g11
S'start: 1'
p203
sbatp204
Rp205
(dp206
g11
S'sent: 4'
p207
sbag0
(g1
g2
(lp208
g0
(g1
g2
(lp209
Vthe sailboat , and the singing
p210
atp211
Rp212
(dp213
g11
S'start: 3'
p214
sbatp215
Rp216
(dp217
g11
S'sent: 4'
p218
sbag0
(g1
g2
(lp219
g0
(g1
g2
(lp220
Vthe sailboat
p221
atp222
Rp223
(dp224
g11
S'start: 3'
p225
sbatp226
Rp227
(dp228
g11
S'sent: 4'
p229
sbag0
(g1
g2
(lp230
g0
(g1
g2
(lp231
VThe
p232
atp233
Rp234
(dp235
g11
S'start: 1'
p236
sbatp237
Rp238
(dp239
g11
S'sent: 7'
p240
sbag0
(g1
g2
(lp241
g0
(g1
g2
(lp242
Vit , singing , with the boy and , singing and they
p243
atp244
Rp245
(dp246
g11
S'start: 15'
p247
sbatp248
Rp249
(dp250
g11
S'sent: 7'
p251
sbag0
(g1
g2
(lp252
g0
(g1
g2
(lp253
Vit , singing
p254
atp255
Rp256
(dp257
g11
S'start: 15'
p258
sbatp259
Rp260
(dp261
g11
S'sent: 7'
p262
sbag0
(g1
g2
(lp263
g0
(g1
g2
(lp264
Vit
p265
atp266
Rp267
(dp268
g11
S'start: 15'
p269
sbatp270
Rp271
(dp272
g11
S'sent: 7'
p273
sbag0
(g1
g2
(lp274
g0
(g1
g2
(lp275
VThe , the kite , with a boy , with the little dog
p276
atp277
Rp278
(dp279
g11
S'start: 1'
p280
sbatp281
Rp282
(dp283
g11
S'sent: 9'
p284
sbag0
(g1
g2
(lp285
g0
(g1
g2
(lp286
VThe , the kite
p287
atp288
Rp289
(dp290
g11
S'start: 1'
p291
sbatp292
Rp293
(dp294
g11
S'sent: 9'
p295
sbag0
(g1
g2
(lp296
g0
(g1
g2
(lp297
VThe
p298
atp299
Rp300
(dp301
g11
S'start: 1'
p302
sbatp303
Rp304
(dp305
g11
S'sent: 9'
p306
sbag0
(g1
g2
(lp307
g0
(g1
g2
(lp308
VThe , the sitting with a book .
p309
atp310
Rp311
(dp312
g11
S'start: 1'
p313
sbatp314
Rp315
(dp316
g11
S'sent: 10'
p317
sbag0
(g1
g2
(lp318
g0
(g1
g2
(lp319
VThe
p320
atp321
Rp322
(dp323
g11
S'start: 1'
p324
sbatp325
Rp326
(dp327
g11
S'sent: 10'
p328
sbag0
(g1
g2
(lp329
g0
(g1
g2
(lp330
Vthe sitting with a book
p331
atp332
Rp333
(dp334
g11
S'start: 3'
p335
sbatp336
Rp337
(dp338
g11
S'sent: 10'
p339
sbatp340
Rp341
(dp342
g11
S'id: 7'
p343
sbag0
(g1
g2
(lp344
g0
(g1
g2
(lp345
g0
(g1
g2
(lp346
Vme
p347
atp348
Rp349
(dp350
g11
S'start: 19'
p351
sbatp352
Rp353
(dp354
g11
S'sent: 3'
p355
sbag0
(g1
g2
(lp356
g0
(g1
g2
(lp357
VI
p358
atp359
Rp360
(dp361
g11
S'start: 6'
p362
sbatp363
Rp364
(dp365
g11
S'sent: 5'
p366
sbag0
(g1
g2
(lp367
g0
(g1
g2
(lp368
VI
p369
atp370
Rp371
(dp372
g11
S'start: 4'
p373
sbatp374
Rp375
(dp376
g11
S'sent: 11'
p377
sbatp378
Rp379
(dp380
g11
S'id: 11'
p381
sbag0
(g1
g2
(lp382
g0
(g1
g2
(lp383
g0
(g1
g2
(lp384
VThe girl , boy , I mean , the boy sitting with a fishing .
p385
atp386
Rp387
(dp388
g11
S'start: 1'
p389
sbatp390
Rp391
(dp392
g11
S'sent: 5'
p393
sbag0
(g1
g2
(lp394
g0
(g1
g2
(lp395
VTheir
p396
atp397
Rp398
(dp399
g11
S'start: 1'
p400
sbatp401
Rp402
(dp403
g11
S'sent: 6'
p404
sbatp405
Rp406
(dp407
g11
S'id: 17'
p408
sbag0
(g1
g2
(lp409
g0
(g1
g2
(lp410
g0
(g1
g2
(lp411
VTheir house
p412
atp413
Rp414
(dp415
g11
S'start: 1'
p416
sbatp417
Rp418
(dp419
g11
S'sent: 6'
p420
sbag0
(g1
g2
(lp421
g0
(g1
g2
(lp422
Va , nice
p423
atp424
Rp425
(dp426
g11
S'start: 4'
p427
sbatp428
Rp429
(dp430
g11
S'sent: 6'
p431
sbag0
(g1
g2
(lp432
g0
(g1
g2
(lp433
Va
p434
atp435
Rp436
(dp437
g11
S'start: 4'
p438
sbatp439
Rp440
(dp441
g11
S'sent: 6'
p442
sbag0
(g1
g2
(lp443
g0
(g1
g2
(lp444
VThe house
p445
atp446
Rp447
(dp448
g11
S'start: 1'
p449
sbatp450
Rp451
(dp452
g11
S'sent: 13'
p453
sbatp454
Rp455
(dp456
g11
S'id: 22'
p457
sbag0
(g1
g2
(lp458
g0
(g1
g2
(lp459
g0
(g1
g2
(lp460
Vthe girl sitting , playing
p461
atp462
Rp463
(dp464
g11
S'start: 2'
p465
sbatp466
Rp467
(dp468
g11
S'sent: 8'
p469
sbag0
(g1
g2
(lp470
g0
(g1
g2
(lp471
Vthe girl
p472
atp473
Rp474
(dp475
g11
S'start: 5'
p476
sbatp477
Rp478
(dp479
g11
S'sent: 12'
p480
sbatp481
Rp482
(dp483
g11
S'id: 38'
p484
sbag0
(g1
g2
(lp485
g0
(g1
g2
(lp486
g0
(g1
g2
(lp487
Va book
p488
atp489
Rp490
(dp491
g11
S'start: 6'
p492
sbatp493
Rp494
(dp495
g11
S'sent: 10'
p496
sbag0
(g1
g2
(lp497
g0
(g1
g2
(lp498
Va book
p499
atp500
Rp501
(dp502
g11
S'start: 26'
p503
sbatp504
Rp505
(dp506
g11
S'sent: 11'
p507
sbatp508
Rp509
(dp510
g11
S'id: 48'
p511
sbatp512
Rp513
(dp514
g11
S'coreferences'
p515
sb.