ccopy_reg
_reconstructor
p0
(cnltk.tree
Tree
p1
c__builtin__
list
p2
(lp3
g0
(g1
g2
(lp4
g0
(g1
g2
(lp5
g0
(g1
g2
(lp6
(lp7
S'word: There, index: 1'
p8
aatp9
Rp10
(dp11
S'_label'
p12
Vexpl
p13
sbag0
(g1
g2
(lp14
g0
(g1
g2
(lp15
g0
(g1
g2
(lp16
(lp17
S'word: a, index: 3'
p18
aatp19
Rp20
(dp21
g12
Vdet
p22
sbag0
(g1
g2
(lp23
g0
(g1
g2
(lp24
g0
(g1
g2
(lp25
g0
(g1
g2
(lp26
g0
(g1
g2
(lp27
g0
(g1
g2
(lp28
g0
(g1
g2
(lp29
(lp30
S'word: the, index: 17'
p31
aatp32
Rp33
(dp34
g12
Vdet
p35
sbag0
(g1
g2
(lp36
(lp37
S'word: trees, index: 20'
p38
aatp39
Rp40
(dp41
g12
Vconj
p42
sbatp43
Rp44
(dp45
g12
S'word: bushes, index: 18'
p46
sbatp47
Rp48
(dp49
g12
Vpobj
p50
sbag0
(g1
g2
(lp51
(lp52
S'word: trees, index: 20'
p53
aatp54
Rp55
(dp56
g12
Vpobj
p57
sbatp58
Rp59
(dp60
g12
S'word: as, index: 16'
p61
sbatp62
Rp63
(dp64
g12
Vdep
p65
sbag0
(g1
g2
(lp66
g0
(g1
g2
(lp67
g0
(g1
g2
(lp68
(lp69
S'word: the, index: 7'
p70
aatp71
Rp72
(dp73
g12
Vdet
p74
sbag0
(g1
g2
(lp75
(lp76
S'word: far, index: 8'
p77
aatp78
Rp79
(dp80
g12
Vamod
p81
sbatp82
Rp83
(dp84
g12
S'word: background, index: 9'
p85
sbatp86
Rp87
(dp88
g12
Vpobj
p89
sbag0
(g1
g2
(lp90
(lp91
S'word: not, index: 12'
p92
aatp93
Rp94
(dp95
g12
Vconj
p96
sbag0
(g1
g2
(lp97
(lp98
S'word: as, index: 13'
p99
aatp100
Rp101
(dp102
g12
Vdep
p103
sbag0
(g1
g2
(lp104
g0
(g1
g2
(lp105
g0
(g1
g2
(lp106
(lp107
S'word: far, index: 14'
p108
aatp109
Rp110
(dp111
g12
Vadvmod
p112
sbatp113
Rp114
(dp115
g12
S'word: back, index: 15'
p116
sbatp117
Rp118
(dp119
g12
Vdep
p120
sbatp121
Rp122
(dp123
g12
S'word: in, index: 6'
p124
sbatp125
Rp126
(dp127
g12
Vprep
p128
sbag0
(g1
g2
(lp129
(lp130
S'word: not, index: 12'
p131
aatp132
Rp133
(dp134
g12
Vprep
p135
sbatp136
Rp137
(dp138
g12
S'word: sailboat, index: 4'
p139
sbatp140
Rp141
(dp142
g12
Vnsubj
p143
sbatp144
Rp145
(dp146
g12
S"word: 's, index: 2"
p147
sbatp148
Rp149
(dp150
g12
S'id: 0'
p151
sbag0
(g1
g2
(lp152
g0
(g1
g2
(lp153
g0
(g1
g2
(lp154
(lp155
S'word: is, index: 4'
p156
aatp157
Rp158
(dp159
g12
Vcop
p160
sbag0
(g1
g2
(lp161
g0
(g1
g2
(lp162
g0
(g1
g2
(lp163
(lp164
S'word: the, index: 19'
p165
aatp166
Rp167
(dp168
g12
Vdet
p169
sbag0
(g1
g2
(lp170
g0
(g1
g2
(lp171
g0
(g1
g2
(lp172
(lp173
S'word: the, index: 22'
p174
aatp175
Rp176
(dp177
g12
Vdet
p178
sbag0
(g1
g2
(lp179
g0
(g1
g2
(lp180
g0
(g1
g2
(lp181
(lp182
S'word: a, index: 25'
p183
aatp184
Rp185
(dp186
g12
Vdet
p187
sbatp188
Rp189
(dp190
g12
S'word: flagpole, index: 26'
p191
sbatp192
Rp193
(dp194
g12
Vappos
p195
sbatp196
Rp197
(dp198
g12
S'word: driveway, index: 23'
p199
sbatp200
Rp201
(dp202
g12
Vprep
p203
sbatp204
Rp205
(dp206
g12
S'word: car, index: 20'
p207
sbatp208
Rp209
(dp210
g12
Vprep
p211
sbag0
(g1
g2
(lp212
(lp213
S'word: the, index: 5'
p214
aatp215
Rp216
(dp217
g12
Vdet
p218
sbag0
(g1
g2
(lp219
g0
(g1
g2
(lp220
g0
(g1
g2
(lp221
g0
(g1
g2
(lp222
g0
(g1
g2
(lp223
(lp224
S'word: the, index: 10'
p225
aatp226
Rp227
(dp228
g12
Vdet
p229
sbag0
(g1
g2
(lp230
(lp231
S'word: left, index: 11'
p232
aatp233
Rp234
(dp235
g12
Vamod
p236
sbatp237
Rp238
(dp239
g12
S'word: side, index: 12'
p240
sbatp241
Rp242
(dp243
g12
Vprep
p244
sbag0
(g1
g2
(lp245
g0
(g1
g2
(lp246
g0
(g1
g2
(lp247
g0
(g1
g2
(lp248
g0
(g1
g2
(lp249
(lp250
S'word: the, index: 15'
p251
aatp252
Rp253
(dp254
g12
Vdet
p255
sbatp256
Rp257
(dp258
g12
S'word: house, index: 16'
p259
sbatp260
Rp261
(dp262
g12
Vpobj
p263
sbatp264
Rp265
(dp266
g12
S'word: around, index: 14'
p267
sbatp268
Rp269
(dp270
g12
Vdep
p271
sbatp272
Rp273
(dp274
g12
S'word: trees, index: 8'
p275
sbatp276
Rp277
(dp278
g12
Vconj
p279
sbag0
(g1
g2
(lp280
g0
(g1
g2
(lp281
g0
(g1
g2
(lp282
g0
(g1
g2
(lp283
g0
(g1
g2
(lp284
(lp285
S'word: a, index: 38'
p286
aatp287
Rp288
(dp289
g12
Vdet
p290
sbag0
(g1
g2
(lp291
g0
(g1
g2
(lp292
g0
(g1
g2
(lp293
(lp294
S'word: him, index: 41'
p295
aatp296
Rp297
(dp298
g12
Vdobj
p299
sbatp300
Rp301
(dp302
g12
S'word: chasing, index: 40'
p303
sbatp304
Rp305
(dp306
g12
Vvmod
p307
sbatp308
Rp309
(dp310
g12
S'word: dog, index: 39'
p311
sbatp312
Rp313
(dp314
g12
Vnsubj
p315
sbag0
(g1
g2
(lp316
(lp317
S'word: there, index: 29'
p318
aatp319
Rp320
(dp321
g12
Vexpl
p322
sbag0
(g1
g2
(lp323
g0
(g1
g2
(lp324
g0
(g1
g2
(lp325
g309
atp326
Rp327
(dp328
g12
Vconj
p329
sbag0
(g1
g2
(lp330
(lp331
S'word: a, index: 31'
p332
aatp333
Rp334
(dp335
g12
Vdet
p336
sbag0
(g1
g2
(lp337
g0
(g1
g2
(lp338
g0
(g1
g2
(lp339
g0
(g1
g2
(lp340
g0
(g1
g2
(lp341
(lp342
S'word: a, index: 34'
p343
aatp344
Rp345
(dp346
g12
Vdet
p347
sbatp348
Rp349
(dp350
g12
S'word: kite, index: 35'
p351
sbatp352
Rp353
(dp354
g12
Vdobj
p355
sbatp356
Rp357
(dp358
g12
S'word: flying, index: 33'
p359
sbatp360
Rp361
(dp362
g12
Vvmod
p363
sbatp364
Rp365
(dp366
g12
S'word: boy, index: 32'
p367
sbatp368
Rp369
(dp370
g12
Vnsubj
p371
sbatp372
Rp373
(dp374
g12
S"word: 's, index: 30"
p375
sbatp376
Rp377
(dp378
g12
Vconj
p379
sbag0
(g1
g2
(lp380
g0
(g1
g2
(lp381
g0
(g1
g2
(lp382
(lp383
S'word: us, index: 3'
p384
aatp385
Rp386
(dp387
g12
Vprep
p388
sbatp389
Rp390
(dp391
g12
S'word: Coming, index: 1'
p392
sbatp393
Rp394
(dp395
g12
Vcsubj
p396
sbatp397
Rp398
(dp399
g12
S'word: bushes, index: 6'
p400
sbatp401
Rp402
(dp403
g12
S'id: 1'
p404
sbag0
(g1
g2
(lp405
g0
(g1
g2
(lp406
g0
(g1
g2
(lp407
g0
(g1
g2
(lp408
g0
(g1
g2
(lp409
(lp410
S'word: there, index: 8'
p411
aatp412
Rp413
(dp414
g12
Vexpl
p415
sbag0
(g1
g2
(lp416
g0
(g1
g2
(lp417
g0
(g1
g2
(lp418
(lp419
S'word: a, index: 10'
p420
aatp421
Rp422
(dp423
g12
Vdet
p424
sbag0
(g1
g2
(lp425
(lp426
S'word: man, index: 11'
p427
aatp428
Rp429
(dp430
g12
Vnn
p431
sbatp432
Rp433
(dp434
g12
S'word: fishing, index: 12'
p435
sbatp436
Rp437
(dp438
g12
Vnsubj
p439
sbatp440
Rp441
(dp442
g12
S"word: 's, index: 9"
p443
sbatp444
Rp445
(dp446
g12
Vdep
p447
sbag0
(g1
g2
(lp448
g0
(g1
g2
(lp449
g0
(g1
g2
(lp450
(lp451
S'word: he, index: 23'
p452
aatp453
Rp454
(dp455
g12
Vnsubj
p456
sbag0
(g1
g2
(lp457
(lp458
S"word: 's, index: 24"
p459
aatp460
Rp461
(dp462
g12
Vaux
p463
sbag0
(g1
g2
(lp464
g0
(g1
g2
(lp465
g0
(g1
g2
(lp466
(lp467
S'word: the, index: 27'
p468
aatp469
Rp470
(dp471
g12
Vdet
p472
sbatp473
Rp474
(dp475
g12
S'word: pier, index: 28'
p476
sbatp477
Rp478
(dp479
g12
Vprep
p480
sbatp481
Rp482
(dp483
g12
S'word: standing, index: 25'
p484
sbatp485
Rp486
(dp487
g12
Vconj
p488
sbag0
(g1
g2
(lp489
(lp490
S'word: there, index: 14'
p491
aatp492
Rp493
(dp494
g12
Vexpl
p495
sbag0
(g1
g2
(lp496
g0
(g1
g2
(lp497
g0
(g1
g2
(lp498
(lp499
S'word: a, index: 16'
p500
aatp501
Rp502
(dp503
g12
Vdet
p504
sbag0
(g1
g2
(lp505
g0
(g1
g2
(lp506
g0
(g1
g2
(lp507
(lp508
S'word: the, index: 19'
p509
aatp510
Rp511
(dp512
g12
Vdet
p513
sbatp514
Rp515
(dp516
g12
S'word: line, index: 20'
p517
sbatp518
Rp519
(dp520
g12
Vprep
p521
sbatp522
Rp523
(dp524
g12
S'word: fish, index: 17'
p525
sbatp526
Rp527
(dp528
g12
Vnsubj
p529
sbag0
(g1
g2
(lp530
g0
(g1
g2
(lp531
g0
(g1
g2
(lp532
(lp533
S'word: him, index: 6'
p534
aatp535
Rp536
(dp537
g12
Vprep
p538
sbag0
(g1
g2
(lp539
(lp540
S'word: before, index: 2'
p541
aatp542
Rp543
(dp544
g12
Vmark
p545
sbag0
(g1
g2
(lp546
(lp547
S'word: you, index: 3'
p548
aatp549
Rp550
(dp551
g12
Vnsubj
p552
sbatp553
Rp554
(dp555
g12
S'word: get, index: 4'
p556
sbatp557
Rp558
(dp559
g12
Vadvcl
p560
sbatp561
Rp562
(dp563
g12
S"word: 's, index: 15"
p564
sbatp565
Rp566
(dp567
g12
S'id: 2'
p568
sbag0
(g1
g2
(lp569
g0
(g1
g2
(lp570
g0
(g1
g2
(lp571
(lp572
S'word: she, index: 13'
p573
aatp574
Rp575
(dp576
g12
Vnsubj
p577
sbag0
(g1
g2
(lp578
g0
(g1
g2
(lp579
g0
(g1
g2
(lp580
(lp581
S'word: a, index: 15'
p582
aatp583
Rp584
(dp585
g12
Vdet
p586
sbag0
(g1
g2
(lp587
g0
(g1
g2
(lp588
g0
(g1
g2
(lp589
(lp590
S'word: a, index: 18'
p591
aatp592
Rp593
(dp594
g12
Vdet
p595
sbag0
(g1
g2
(lp596
(lp597
S'word: her, index: 21'
p598
aatp599
Rp600
(dp601
g12
Vprep
p602
sbatp603
Rp604
(dp605
g12
S'word: pail, index: 19'
p606
sbatp607
Rp608
(dp609
g12
Vconj
p610
sbatp611
Rp612
(dp613
g12
S'word: shovel, index: 16'
p614
sbatp615
Rp616
(dp617
g12
Vdobj
p618
sbag0
(g1
g2
(lp619
g0
(g1
g2
(lp620
g0
(g1
g2
(lp621
(lp622
S'word: and, index: 1'
p623
aatp624
Rp625
(dp626
g12
Vcc
p627
sbag0
(g1
g2
(lp628
(lp629
S'word: there, index: 2'
p630
aatp631
Rp632
(dp633
g12
Vexpl
p634
sbag0
(g1
g2
(lp635
g0
(g1
g2
(lp636
g0
(g1
g2
(lp637
(lp638
S'word: a, index: 4'
p639
aatp640
Rp641
(dp642
g12
Vdet
p643
sbag0
(g1
g2
(lp644
(lp645
S'word: little, index: 5'
p646
aatp647
Rp648
(dp649
g12
Vamod
p650
sbatp651
Rp652
(dp653
g12
S'word: girl, index: 6'
p654
sbatp655
Rp656
(dp657
g12
Vnsubj
p658
sbag0
(g1
g2
(lp659
g0
(g1
g2
(lp660
g0
(g1
g2
(lp661
g0
(g1
g2
(lp662
g0
(g1
g2
(lp663
(lp664
S'word: a, index: 9'
p665
aatp666
Rp667
(dp668
g12
Vdet
p669
sbag0
(g1
g2
(lp670
(lp671
S'word: sand, index: 10'
p672
aatp673
Rp674
(dp675
g12
Vnn
p676
sbatp677
Rp678
(dp679
g12
S'word: castle, index: 11'
p680
sbatp681
Rp682
(dp683
g12
Vdobj
p684
sbatp685
Rp686
(dp687
g12
S'word: building, index: 8'
p688
sbatp689
Rp690
(dp691
g12
Vvmod
p692
sbatp693
Rp694
(dp695
g12
S"word: 's, index: 3"
p696
sbatp697
Rp698
(dp699
g12
Vccomp
p700
sbag0
(g1
g2
(lp701
g604
atp702
Rp703
(dp704
g12
Vdobj
p705
sbatp706
Rp707
(dp708
g12
S'word: has, index: 14'
p709
sbatp710
Rp711
(dp712
g12
S'id: 3'
p713
sbag0
(g1
g2
(lp714
g0
(g1
g2
(lp715
g0
(g1
g2
(lp716
g0
(g1
g2
(lp717
g0
(g1
g2
(lp718
(lp719
S'word: wine, index: 15'
p720
aatp721
Rp722
(dp723
g12
Vprep
p724
sbatp725
Rp726
(dp727
g12
S'word: pouring, index: 13'
p728
sbatp729
Rp730
(dp731
g12
Vvmod
p732
sbag0
(g1
g2
(lp733
(lp734
S'word: and, index: 1'
p735
aatp736
Rp737
(dp738
g12
Vcc
p739
sbag0
(g1
g2
(lp740
(lp741
S'word: there, index: 2'
p742
aatp743
Rp744
(dp745
g12
Vexpl
p746
sbag0
(g1
g2
(lp747
g0
(g1
g2
(lp748
g0
(g1
g2
(lp749
(lp750
S'word: a, index: 4'
p751
aatp752
Rp753
(dp754
g12
Vdet
p755
sbag0
(g1
g2
(lp756
(lp757
S'word: old, index: 5'
p758
aatp759
Rp760
(dp761
g12
Vamod
p762
sbag0
(g1
g2
(lp763
g0
(g1
g2
(lp764
g0
(g1
g2
(lp765
(lp766
S'word: the, index: 8'
p767
aatp768
Rp769
(dp770
g12
Vdet
p771
sbag0
(g1
g2
(lp772
(lp773
S'word: wine, index: 9'
p774
aatp775
Rp776
(dp777
g12
Vnn
p778
sbatp779
Rp780
(dp781
g12
S'word: hole, index: 10'
p782
sbatp783
Rp784
(dp785
g12
Vprep
p786
sbatp787
Rp788
(dp789
g12
S'word: lady, index: 6'
p790
sbatp791
Rp792
(dp793
g12
Vnsubj
p794
sbag0
(g1
g2
(lp795
(lp796
S'word: again, index: 11'
p797
aatp798
Rp799
(dp800
g12
Vadvmod
p801
sbatp802
Rp803
(dp804
g12
S"word: 's, index: 3"
p805
sbatp806
Rp807
(dp808
g12
S'id: 4'
p809
sbag0
(g1
g2
(lp810
g0
(g1
g2
(lp811
g0
(g1
g2
(lp812
g0
(g1
g2
(lp813
g0
(g1
g2
(lp814
(lp815
S'word: a, index: 3'
p816
aatp817
Rp818
(dp819
g12
Vdet
p820
sbatp821
Rp822
(dp823
g12
S'word: picnic, index: 4'
p824
sbatp825
Rp826
(dp827
g12
Vdobj
p828
sbag0
(g1
g2
(lp829
g0
(g1
g2
(lp830
g0
(g1
g2
(lp831
(lp832
S'word: her, index: 6'
p833
aatp834
Rp835
(dp836
g12
Vposs
p837
sbatp838
Rp839
(dp840
g12
S'word: husband, index: 7'
p841
sbatp842
Rp843
(dp844
g12
Vprep
p845
sbag0
(g1
g2
(lp846
g0
(g1
g2
(lp847
g0
(g1
g2
(lp848
g0
(g1
g2
(lp849
g0
(g1
g2
(lp850
(lp851
S'word: some, index: 15'
p852
aatp853
Rp854
(dp855
g12
Vdet
p856
sbag0
(g1
g2
(lp857
g0
(g1
g2
(lp858
g0
(g1
g2
(lp859
(lp860
S'word: who, index: 17'
p861
aatp862
Rp863
(dp864
g12
Vnsubj
p865
sbag0
(g1
g2
(lp866
(lp867
S"word: 's, index: 18"
p868
aatp869
Rp870
(dp871
g12
Vaux
p872
sbag0
(g1
g2
(lp873
g0
(g1
g2
(lp874
g0
(g1
g2
(lp875
(lp876
S'word: a, index: 20'
p877
aatp878
Rp879
(dp880
g12
Vdet
p881
sbatp882
Rp883
(dp884
g12
S'word: book, index: 21'
p885
sbatp886
Rp887
(dp888
g12
Vdobj
p889
sbatp890
Rp891
(dp892
g12
S'word: reading, index: 19'
p893
sbatp894
Rp895
(dp896
g12
Vrcmod
p897
sbatp898
Rp899
(dp900
g12
S'word: guy, index: 16'
p901
sbatp902
Rp903
(dp904
g12
Vprep
p905
sbag0
(g1
g2
(lp906
(lp907
S'word: well, index: 10'
p908
aatp909
Rp910
(dp911
g12
Vadvmod
p912
sbag0
(g1
g2
(lp913
g0
(g1
g2
(lp914
g0
(g1
g2
(lp915
(lp916
S'word: a, index: 12'
p917
aatp918
Rp919
(dp920
g12
Vdet
p921
sbatp922
Rp923
(dp924
g12
S'word: picnic, index: 13'
p925
sbatp926
Rp927
(dp928
g12
Vdobj
p929
sbatp930
Rp931
(dp932
g12
S'word: having, index: 11'
p933
sbatp934
Rp935
(dp936
g12
Vconj
p937
sbatp938
Rp939
(dp940
g12
S'word: having, index: 2'
p941
sbatp942
Rp943
(dp944
g12
S'id: 5'
p945
sbag0
(g1
g2
(lp946
g0
(g1
g2
(lp947
g0
(g1
g2
(lp948
g0
(g1
g2
(lp949
g0
(g1
g2
(lp950
(lp951
S'word: a, index: 3'
p952
aatp953
Rp954
(dp955
g12
Vdet
p956
sbag0
(g1
g2
(lp957
g0
(g1
g2
(lp958
g0
(g1
g2
(lp959
(lp960
S'word: a, index: 6'
p961
aatp962
Rp963
(dp964
g12
Vdet
p965
sbag0
(g1
g2
(lp966
(lp967
S'word: picnic, index: 7'
p968
aatp969
Rp970
(dp971
g12
Vnn
p972
sbatp973
Rp974
(dp975
g12
S'word: blanket, index: 8'
p976
sbatp977
Rp978
(dp979
g12
Vprep
p980
sbatp981
Rp982
(dp983
g12
S'word: blanket, index: 4'
p984
sbatp985
Rp986
(dp987
g12
Vprep
p988
sbatp989
Rp990
(dp991
g12
S'word: Sitting, index: 1'
p992
sbatp993
Rp994
(dp995
g12
S'id: 6'
p996
sbag0
(g1
g2
(lp997
g0
(g1
g2
(lp998
g0
(g1
g2
(lp999
g0
(g1
g2
(lp1000
g0
(g1
g2
(lp1001
g0
(g1
g2
(lp1002
g0
(g1
g2
(lp1003
(lp1004
S'word: the, index: 6'
p1005
aatp1006
Rp1007
(dp1008
g12
Vdet
p1009
sbatp1010
Rp1011
(dp1012
g12
S'word: shoes, index: 7'
p1013
sbatp1014
Rp1015
(dp1016
g12
Vnsubj
p1017
sbag0
(g1
g2
(lp1018
(lp1019
S'word: off, index: 8'
p1020
aatp1021
Rp1022
(dp1023
g12
Vadvmod
p1024
sbag0
(g1
g2
(lp1025
(lp1026
S'word: and, index: 10'
p1027
aatp1028
Rp1029
(dp1030
g12
Vcc
p1031
sbag0
(g1
g2
(lp1032
g0
(g1
g2
(lp1033
g0
(g1
g2
(lp1034
(lp1035
S'word: I, index: 12'
p1036
aatp1037
Rp1038
(dp1039
g12
Vnsubj
p1040
sbag0
(g1
g2
(lp1041
g0
(g1
g2
(lp1042
g0
(g1
g2
(lp1043
(lp1044
S'word: the, index: 14'
p1045
aatp1046
Rp1047
(dp1048
g12
Vdet
p1049
sbatp1050
Rp1051
(dp1052
g12
S'word: dog, index: 15'
p1053
sbatp1054
Rp1055
(dp1056
g12
Vdobj
p1057
sbatp1058
Rp1059
(dp1060
g12
S'word: mention, index: 13'
p1061
sbatp1062
Rp1063
(dp1064
g12
Vccomp
p1065
sbag0
(g1
g2
(lp1066
(lp1067
S'word: And, index: 1'
p1068
aatp1069
Rp1070
(dp1071
g12
Vcc
p1072
sbag0
(g1
g2
(lp1073
g0
(g1
g2
(lp1074
g0
(g1
g2
(lp1075
g1011
atp1076
Rp1077
(dp1078
g12
Vconj
p1079
sbag0
(g1
g2
(lp1080
(lp1081
S'word: the, index: 2'
p1082
aatp1083
Rp1084
(dp1085
g12
Vdet
p1086
sbatp1087
Rp1088
(dp1089
g12
S'word: radio, index: 3'
p1090
sbatp1091
Rp1092
(dp1093
g12
Vnsubj
p1094
sbatp1095
Rp1096
(dp1097
g12
S'word: did, index: 11'
p1098
sbatp1099
Rp1100
(dp1101
g12
Vdep
p1102
sbag0
(g1
g2
(lp1103
(lp1104
S'word: is, index: 16'
p1105
aatp1106
Rp1107
(dp1108
g12
Vaux
p1109
sbag0
(g1
g2
(lp1110
g0
(g1
g2
(lp1111
g0
(g1
g2
(lp1112
(lp1113
S'word: the, index: 18'
p1114
aatp1115
Rp1116
(dp1117
g12
Vdet
p1118
sbatp1119
Rp1120
(dp1121
g12
S'word: boy, index: 19'
p1122
sbatp1123
Rp1124
(dp1125
g12
Vnsubj
p1126
sbatp1127
Rp1128
(dp1129
g12
S'word: chasing, index: 17'
p1130
sbatp1131
Rp1132
(dp1133
g12
S'id: 7'
p1134
sbatp1135
Rp1136
(dp1137
g12
S'sentences'
p1138
sb.