ccopy_reg
_reconstructor
p0
(cnltk.tree
Tree
p1
c__builtin__
list
p2
(lp3
g0
(g1
g2
(lp4
g0
(g1
g2
(lp5
g0
(g1
g2
(lp6
g0
(g1
g2
(lp7
VThe
p8
atp9
Rp10
(dp11
S'_label'
p12
VDT
p13
sbag0
(g1
g2
(lp14
Vboy
p15
atp16
Rp17
(dp18
g12
VNN
p19
sbatp20
Rp21
(dp22
g12
VNP
p23
sbag0
(g1
g2
(lp24
g0
(g1
g2
(lp25
Vis
p26
atp27
Rp28
(dp29
g12
VVBZ
p30
sbag0
(g1
g2
(lp31
g0
(g1
g2
(lp32
Vstealing
p33
atp34
Rp35
(dp36
g12
VVBG
p37
sbag0
(g1
g2
(lp38
g0
(g1
g2
(lp39
Vcookies
p40
atp41
Rp42
(dp43
g12
VNNS
p44
sbatp45
Rp46
(dp47
g12
VNP
p48
sbag0
(g1
g2
(lp49
g0
(g1
g2
(lp50
Vout
p51
atp52
Rp53
(dp54
g12
VIN
p55
sbatp56
Rp57
(dp58
g12
VPRT
p59
sbag0
(g1
g2
(lp60
g0
(g1
g2
(lp61
Vof
p62
atp63
Rp64
(dp65
g12
VIN
p66
sbag0
(g1
g2
(lp67
g0
(g1
g2
(lp68
Vthe
p69
atp70
Rp71
(dp72
g12
VDT
p73
sbag0
(g1
g2
(lp74
Vcookie
p75
atp76
Rp77
(dp78
g12
VNN
p79
sbag0
(g1
g2
(lp80
Vjar
p81
atp82
Rp83
(dp84
g12
VNN
p85
sbatp86
Rp87
(dp88
g12
VNP
p89
sbatp90
Rp91
(dp92
g12
VPP
p93
sbag0
(g1
g2
(lp94
g0
(g1
g2
(lp95
g0
(g1
g2
(lp96
Vto
p97
atp98
Rp99
(dp100
g12
VTO
p101
sbag0
(g1
g2
(lp102
g0
(g1
g2
(lp103
Vgive
p104
atp105
Rp106
(dp107
g12
VVB
p108
sbag0
(g1
g2
(lp109
g0
(g1
g2
(lp110
Vto
p111
atp112
Rp113
(dp114
g12
VTO
p115
sbag0
(g1
g2
(lp116
g0
(g1
g2
(lp117
Vhis
p118
atp119
Rp120
(dp121
g12
VPRP$
p122
sbag0
(g1
g2
(lp123
Vsister
p124
atp125
Rp126
(dp127
g12
VNN
p128
sbatp129
Rp130
(dp131
g12
VNP
p132
sbatp133
Rp134
(dp135
g12
VPP
p136
sbatp137
Rp138
(dp139
g12
VVP
p140
sbatp141
Rp142
(dp143
g12
VVP
p144
sbatp145
Rp146
(dp147
g12
VS
p148
sbatp149
Rp150
(dp151
g12
VVP
p152
sbatp153
Rp154
(dp155
g12
VVP
p156
sbag0
(g1
g2
(lp157
V.
p158
atp159
Rp160
(dp161
g12
V.
p162
sbatp163
Rp164
(dp165
g12
VS
p166
sbatp167
Rp168
(dp169
g12
S'id: 0'
p170
sbag0
(g1
g2
(lp171
g0
(g1
g2
(lp172
g0
(g1
g2
(lp173
g0
(g1
g2
(lp174
VUp
p175
atp176
Rp177
(dp178
g12
VIN
p179
sbatp180
Rp181
(dp182
g12
VPP
p183
sbag0
(g1
g2
(lp184
V,
p185
atp186
Rp187
(dp188
g12
V,
p189
sbag0
(g1
g2
(lp190
g0
(g1
g2
(lp191
g0
(g1
g2
(lp192
Vhe
p193
atp194
Rp195
(dp196
g12
VPRP
p197
sbatp198
Rp199
(dp200
g12
VNP
p201
sbag0
(g1
g2
(lp202
g0
(g1
g2
(lp203
V's
p204
atp205
Rp206
(dp207
g12
VVBZ
p208
sbag0
(g1
g2
(lp209
g0
(g1
g2
(lp210
Vup
p211
atp212
Rp213
(dp214
g12
VRP
p215
sbatp216
Rp217
(dp218
g12
VADVP
p219
sbag0
(g1
g2
(lp220
g0
(g1
g2
(lp221
Von
p222
atp223
Rp224
(dp225
g12
VIN
p226
sbag0
(g1
g2
(lp227
g0
(g1
g2
(lp228
Va
p229
atp230
Rp231
(dp232
g12
VDT
p233
sbag0
(g1
g2
(lp234
Vstool
p235
atp236
Rp237
(dp238
g12
VNN
p239
sbatp240
Rp241
(dp242
g12
VNP
p243
sbatp244
Rp245
(dp246
g12
VPP
p247
sbatp248
Rp249
(dp250
g12
VVP
p251
sbatp252
Rp253
(dp254
g12
VS
p255
sbag0
(g1
g2
(lp256
V,
p257
atp258
Rp259
(dp260
g12
V,
p261
sbag0
(g1
g2
(lp262
Vand
p263
atp264
Rp265
(dp266
g12
VCC
p267
sbag0
(g1
g2
(lp268
g0
(g1
g2
(lp269
g0
(g1
g2
(lp270
Vhe
p271
atp272
Rp273
(dp274
g12
VPRP
p275
sbatp276
Rp277
(dp278
g12
VNP
p279
sbag0
(g1
g2
(lp280
g0
(g1
g2
(lp281
V's
p282
atp283
Rp284
(dp285
g12
VVBZ
p286
sbag0
(g1
g2
(lp287
g0
(g1
g2
(lp288
Vabout
p289
atp290
Rp291
(dp292
g12
VRB
p293
sbag0
(g1
g2
(lp294
g0
(g1
g2
(lp295
g0
(g1
g2
(lp296
Vto
p297
atp298
Rp299
(dp300
g12
VTO
p301
sbag0
(g1
g2
(lp302
g0
(g1
g2
(lp303
Vfall
p304
atp305
Rp306
(dp307
g12
VVB
p308
sbatp309
Rp310
(dp311
g12
VVP
p312
sbatp313
Rp314
(dp315
g12
VVP
p316
sbatp317
Rp318
(dp319
g12
VS
p320
sbatp321
Rp322
(dp323
g12
VNP
p324
sbatp325
Rp326
(dp327
g12
VVP
p328
sbatp329
Rp330
(dp331
g12
VS
p332
sbag0
(g1
g2
(lp333
V.
p334
atp335
Rp336
(dp337
g12
V.
p338
sbatp339
Rp340
(dp341
g12
VS
p342
sbatp343
Rp344
(dp345
g12
S'id: 1'
p346
sbag0
(g1
g2
(lp347
g0
(g1
g2
(lp348
g0
(g1
g2
(lp349
VAnd
p350
atp351
Rp352
(dp353
g12
VCC
p354
sbag0
(g1
g2
(lp355
g0
(g1
g2
(lp356
g0
(g1
g2
(lp357
Vthe
p358
atp359
Rp360
(dp361
g12
VDT
p362
sbag0
(g1
g2
(lp363
Vmama
p364
atp365
Rp366
(dp367
g12
VNN
p368
sbag0
(g1
g2
(lp369
V's
p370
atp371
Rp372
(dp373
g12
VPOS
p374
sbatp375
Rp376
(dp377
g12
VNP
p378
sbag0
(g1
g2
(lp379
g0
(g1
g2
(lp380
Vwashing
p381
atp382
Rp383
(dp384
g12
VVBG
p385
sbag0
(g1
g2
(lp386
g0
(g1
g2
(lp387
Vthe
p388
atp389
Rp390
(dp391
g12
VDT
p392
sbag0
(g1
g2
(lp393
Vdishes
p394
atp395
Rp396
(dp397
g12
VNNS
p398
sbatp399
Rp400
(dp401
g12
VNP
p402
sbatp403
Rp404
(dp405
g12
VVP
p406
sbatp407
Rp408
(dp409
g12
VS
p410
sbag0
(g1
g2
(lp411
V,
p412
atp413
Rp414
(dp415
g12
V,
p416
sbag0
(g1
g2
(lp417
Vand
p418
atp419
Rp420
(dp421
g12
VCC
p422
sbag0
(g1
g2
(lp423
g0
(g1
g2
(lp424
g0
(g1
g2
(lp425
g0
(g1
g2
(lp426
Vshe
p427
atp428
Rp429
(dp430
g12
VPRP
p431
sbatp432
Rp433
(dp434
g12
VNP
p435
sbag0
(g1
g2
(lp436
g0
(g1
g2
(lp437
Vwasting
p438
atp439
Rp440
(dp441
g12
VVBG
p442
sbag0
(g1
g2
(lp443
g0
(g1
g2
(lp444
Vwater
p445
atp446
Rp447
(dp448
g12
VNN
p449
sbatp450
Rp451
(dp452
g12
VNP
p453
sbag0
(g1
g2
(lp454
g0
(g1
g2
(lp455
Vall
p456
atp457
Rp458
(dp459
g12
VDT
p460
sbag0
(g1
g2
(lp461
Vover
p462
atp463
Rp464
(dp465
g12
VIN
p466
sbag0
(g1
g2
(lp467
g0
(g1
g2
(lp468
Vthe
p469
atp470
Rp471
(dp472
g12
VDT
p473
sbag0
(g1
g2
(lp474
Vfloor
p475
atp476
Rp477
(dp478
g12
VNN
p479
sbatp480
Rp481
(dp482
g12
VNP
p483
sbatp484
Rp485
(dp486
g12
VPP
p487
sbatp488
Rp489
(dp490
g12
VVP
p491
sbatp492
Rp493
(dp494
g12
VS
p495
sbag0
(g1
g2
(lp496
V,
p497
atp498
Rp499
(dp500
g12
V,
p501
sbag0
(g1
g2
(lp502
Vand
p503
atp504
Rp505
(dp506
g12
VCC
p507
sbag0
(g1
g2
(lp508
g0
(g1
g2
(lp509
g0
(g1
g2
(lp510
Vshe
p511
atp512
Rp513
(dp514
g12
VPRP
p515
sbatp516
Rp517
(dp518
g12
VNP
p519
sbag0
(g1
g2
(lp520
g0
(g1
g2
(lp521
V's
p522
atp523
Rp524
(dp525
g12
VVBZ
p526
sbag0
(g1
g2
(lp527
Vnot
p528
atp529
Rp530
(dp531
g12
VRB
p532
sbag0
(g1
g2
(lp533
g0
(g1
g2
(lp534
Vnoticing
p535
atp536
Rp537
(dp538
g12
VVBG
p539
sbag0
(g1
g2
(lp540
g0
(g1
g2
(lp541
Vthe
p542
atp543
Rp544
(dp545
g12
VDT
p546
sbag0
(g1
g2
(lp547
Vchildren
p548
atp549
Rp550
(dp551
g12
VNNS
p552
sbatp553
Rp554
(dp555
g12
VNP
p556
sbatp557
Rp558
(dp559
g12
VVP
p560
sbatp561
Rp562
(dp563
g12
VVP
p564
sbatp565
Rp566
(dp567
g12
VS
p568
sbatp569
Rp570
(dp571
g12
VS
p572
sbag0
(g1
g2
(lp573
V.
p574
atp575
Rp576
(dp577
g12
V.
p578
sbatp579
Rp580
(dp581
g12
VS
p582
sbatp583
Rp584
(dp585
g12
S'id: 2'
p586
sbag0
(g1
g2
(lp587
g0
(g1
g2
(lp588
g0
(g1
g2
(lp589
g0
(g1
g2
(lp590
g0
(g1
g2
(lp591
VAnd
p592
atp593
Rp594
(dp595
g12
VCC
p596
sbag0
(g1
g2
(lp597
g0
(g1
g2
(lp598
g0
(g1
g2
(lp599
Vshe
p600
atp601
Rp602
(dp603
g12
VPRP
p604
sbatp605
Rp606
(dp607
g12
VNP
p608
sbag0
(g1
g2
(lp609
g0
(g1
g2
(lp610
V's
p611
atp612
Rp613
(dp614
g12
VVBZ
p615
sbag0
(g1
g2
(lp616
V,
p617
atp618
Rp619
(dp620
g12
V,
p621
sbag0
(g1
g2
(lp622
g0
(g1
g2
(lp623
g0
(g1
g2
(lp624
g0
(g1
g2
(lp625
Vshe
p626
atp627
Rp628
(dp629
g12
VPRP
p630
sbatp631
Rp632
(dp633
g12
VNP
p634
sbag0
(g1
g2
(lp635
g0
(g1
g2
(lp636
V's
p637
atp638
Rp639
(dp640
g12
VVBZ
p641
sbag0
(g1
g2
(lp642
g0
(g1
g2
(lp643
Vwatchin
p644
atp645
Rp646
(dp647
g12
VNN
p648
sbatp649
Rp650
(dp651
g12
VNP
p652
sbatp653
Rp654
(dp655
g12
VVP
p656
sbatp657
Rp658
(dp659
g12
VS
p660
sbatp661
Rp662
(dp663
g12
VSBAR
p664
sbatp665
Rp666
(dp667
g12
VVP
p668
sbatp669
Rp670
(dp671
g12
VS
p672
sbag0
(g1
g2
(lp673
Vand
p674
atp675
Rp676
(dp677
g12
VCC
p678
sbag0
(g1
g2
(lp679
g0
(g1
g2
(lp680
g0
(g1
g2
(lp681
Vdrying
p682
atp683
Rp684
(dp685
g12
VVBG
p686
sbag0
(g1
g2
(lp687
g0
(g1
g2
(lp688
Vdishes
p689
atp690
Rp691
(dp692
g12
VNNS
p693
sbatp694
Rp695
(dp696
g12
VNP
p697
sbatp698
Rp699
(dp700
g12
VVP
p701
sbatp702
Rp703
(dp704
g12
VS
p705
sbatp706
Rp707
(dp708
g12
VS
p709
sbag0
(g1
g2
(lp710
V,
p711
atp712
Rp713
(dp714
g12
V,
p715
sbag0
(g1
g2
(lp716
Vand
p717
atp718
Rp719
(dp720
g12
VCC
p721
sbag0
(g1
g2
(lp722
g0
(g1
g2
(lp723
g0
(g1
g2
(lp724
Vif
p725
atp726
Rp727
(dp728
g12
VIN
p729
sbag0
(g1
g2
(lp730
g0
(g1
g2
(lp731
g0
(g1
g2
(lp732
Vshe
p733
atp734
Rp735
(dp736
g12
VPRP
p737
sbatp738
Rp739
(dp740
g12
VNP
p741
sbag0
(g1
g2
(lp742
g0
(g1
g2
(lp743
V's
p744
atp745
Rp746
(dp747
g12
VVBZ
p748
sbag0
(g1
g2
(lp749
Vnot
p750
atp751
Rp752
(dp753
g12
VRB
p754
sbag0
(g1
g2
(lp755
g0
(g1
g2
(lp756
Vcareful
p757
atp758
Rp759
(dp760
g12
VJJ
p761
sbatp762
Rp763
(dp764
g12
VADJP
p765
sbatp766
Rp767
(dp768
g12
VVP
p769
sbatp770
Rp771
(dp772
g12
VS
p773
sbatp774
Rp775
(dp776
g12
VSBAR
p777
sbag0
(g1
g2
(lp778
V,
p779
atp780
Rp781
(dp782
g12
V,
p783
sbag0
(g1
g2
(lp784
g0
(g1
g2
(lp785
Vmother
p786
atp787
Rp788
(dp789
g12
VNN
p790
sbatp791
Rp792
(dp793
g12
VNP
p794
sbag0
(g1
g2
(lp795
g0
(g1
g2
(lp796
Vis
p797
atp798
Rp799
(dp800
g12
VVBZ
p801
sbag0
(g1
g2
(lp802
g0
(g1
g2
(lp803
Vgon
p804
atp805
Rp806
(dp807
g12
VVBG
p808
sbag0
(g1
g2
(lp809
g0
(g1
g2
(lp810
g0
(g1
g2
(lp811
Vna
p812
atp813
Rp814
(dp815
g12
VTO
p816
sbag0
(g1
g2
(lp817
g0
(g1
g2
(lp818
Vslide
p819
atp820
Rp821
(dp822
g12
VVB
p823
sbag0
(g1
g2
(lp824
g0
(g1
g2
(lp825
Vdown
p826
atp827
Rp828
(dp829
g12
VRP
p830
sbatp831
Rp832
(dp833
g12
VPRT
p834
sbag0
(g1
g2
(lp835
g0
(g1
g2
(lp836
Von
p837
atp838
Rp839
(dp840
g12
VIN
p841
sbag0
(g1
g2
(lp842
g0
(g1
g2
(lp843
Vthe
p844
atp845
Rp846
(dp847
g12
VDT
p848
sbag0
(g1
g2
(lp849
Vfloor
p850
atp851
Rp852
(dp853
g12
VNN
p854
sbatp855
Rp856
(dp857
g12
VNP
p858
sbatp859
Rp860
(dp861
g12
VPP
p862
sbatp863
Rp864
(dp865
g12
VVP
p866
sbatp867
Rp868
(dp869
g12
VVP
p870
sbatp871
Rp872
(dp873
g12
VS
p874
sbatp875
Rp876
(dp877
g12
VVP
p878
sbatp879
Rp880
(dp881
g12
VVP
p882
sbatp883
Rp884
(dp885
g12
VS
p886
sbag0
(g1
g2
(lp887
Vand
p888
atp889
Rp890
(dp891
g12
VCC
p892
sbag0
(g1
g2
(lp893
g0
(g1
g2
(lp894
g0
(g1
g2
(lp895
Vshe
p896
atp897
Rp898
(dp899
g12
VPRP
p900
sbatp901
Rp902
(dp903
g12
VNP
p904
sbag0
(g1
g2
(lp905
g0
(g1
g2
(lp906
V'll
p907
atp908
Rp909
(dp910
g12
VMD
p911
sbag0
(g1
g2
(lp912
g0
(g1
g2
(lp913
Vbe
p914
atp915
Rp916
(dp917
g12
VVB
p918
sbag0
(g1
g2
(lp919
g0
(g1
g2
(lp920
Vdown
p921
atp922
Rp923
(dp924
g12
VRB
p925
sbag0
(g1
g2
(lp926
g0
(g1
g2
(lp927
Von
p928
atp929
Rp930
(dp931
g12
VIN
p932
sbag0
(g1
g2
(lp933
g0
(g1
g2
(lp934
g0
(g1
g2
(lp935
Vthe
p936
atp937
Rp938
(dp939
g12
VDT
p940
sbag0
(g1
g2
(lp941
Vfloor
p942
atp943
Rp944
(dp945
g12
VNN
p946
sbatp947
Rp948
(dp949
g12
VNP
p950
sbag0
(g1
g2
(lp951
g0
(g1
g2
(lp952
Vwith
p953
atp954
Rp955
(dp956
g12
VIN
p957
sbag0
(g1
g2
(lp958
g0
(g1
g2
(lp959
Vthe
p960
atp961
Rp962
(dp963
g12
VDT
p964
sbag0
(g1
g2
(lp965
Vlittle
p966
atp967
Rp968
(dp969
g12
VJJ
p970
sbag0
(g1
g2
(lp971
Vboy
p972
atp973
Rp974
(dp975
g12
VNN
p976
sbatp977
Rp978
(dp979
g12
VNP
p980
sbatp981
Rp982
(dp983
g12
VPP
p984
sbatp985
Rp986
(dp987
g12
VNP
p988
sbatp989
Rp990
(dp991
g12
VPP
p992
sbatp993
Rp994
(dp995
g12
VADVP
p996
sbag0
(g1
g2
(lp997
g0
(g1
g2
(lp998
Vtoo
p999
atp1000
Rp1001
(dp1002
g12
VRB
p1003
sbatp1004
Rp1005
(dp1006
g12
VADVP
p1007
sbatp1008
Rp1009
(dp1010
g12
VVP
p1011
sbatp1012
Rp1013
(dp1014
g12
VVP
p1015
sbatp1016
Rp1017
(dp1018
g12
VS
p1019
sbatp1020
Rp1021
(dp1022
g12
VS
p1023
sbag0
(g1
g2
(lp1024
V,
p1025
atp1026
Rp1027
(dp1028
g12
V,
p1029
sbag0
(g1
g2
(lp1030
Vand
p1031
atp1032
Rp1033
(dp1034
g12
VCC
p1035
sbag0
(g1
g2
(lp1036
g0
(g1
g2
(lp1037
g0
(g1
g2
(lp1038
Vthe
p1039
atp1040
Rp1041
(dp1042
g12
VDT
p1043
sbag0
(g1
g2
(lp1044
Vgirl
p1045
atp1046
Rp1047
(dp1048
g12
VNN
p1049
sbatp1050
Rp1051
(dp1052
g12
VNP
p1053
sbag0
(g1
g2
(lp1054
g0
(g1
g2
(lp1055
Vis
p1056
atp1057
Rp1058
(dp1059
g12
VVBZ
p1060
sbag0
(g1
g2
(lp1061
g0
(g1
g2
(lp1062
g0
(g1
g2
(lp1063
Vthe
p1064
atp1065
Rp1066
(dp1067
g12
VDT
p1068
sbag0
(g1
g2
(lp1069
g0
(g1
g2
(lp1070
Vonly
p1071
atp1072
Rp1073
(dp1074
g12
VRB
p1075
sbag0
(g1
g2
(lp1076
Vone
p1077
atp1078
Rp1079
(dp1080
g12
VCD
p1081
sbatp1082
Rp1083
(dp1084
g12
VQP
p1085
sbatp1086
Rp1087
(dp1088
g12
VNP
p1089
sbag0
(g1
g2
(lp1090
g0
(g1
g2
(lp1091
g0
(g1
g2
(lp1092
Vthat
p1093
atp1094
Rp1095
(dp1096
g12
VWDT
p1097
sbatp1098
Rp1099
(dp1100
g12
VWHNP
p1101
sbag0
(g1
g2
(lp1102
g0
(g1
g2
(lp1103
g0
(g1
g2
(lp1104
V's
p1105
atp1106
Rp1107
(dp1108
g12
VVBZ
p1109
sbag0
(g1
g2
(lp1110
g0
(g1
g2
(lp1111
Vgon
p1112
atp1113
Rp1114
(dp1115
g12
VVBG
p1116
sbag0
(g1
g2
(lp1117
g0
(g1
g2
(lp1118
g0
(g1
g2
(lp1119
Vna
p1120
atp1121
Rp1122
(dp1123
g12
VTO
p1124
sbag0
(g1
g2
(lp1125
g0
(g1
g2
(lp1126
Vbe
p1127
atp1128
Rp1129
(dp1130
g12
VVB
p1131
sbag0
(g1
g2
(lp1132
g0
(g1
g2
(lp1133
Vstanding
p1134
atp1135
Rp1136
(dp1137
g12
VVBG
p1138
sbatp1139
Rp1140
(dp1141
g12
VVP
p1142
sbatp1143
Rp1144
(dp1145
g12
VVP
p1146
sbatp1147
Rp1148
(dp1149
g12
VVP
p1150
sbatp1151
Rp1152
(dp1153
g12
VS
p1154
sbatp1155
Rp1156
(dp1157
g12
VVP
p1158
sbatp1159
Rp1160
(dp1161
g12
VVP
p1162
sbatp1163
Rp1164
(dp1165
g12
VS
p1166
sbatp1167
Rp1168
(dp1169
g12
VSBAR
p1170
sbatp1171
Rp1172
(dp1173
g12
VNP
p1174
sbatp1175
Rp1176
(dp1177
g12
VVP
p1178
sbatp1179
Rp1180
(dp1181
g12
VS
p1182
sbag0
(g1
g2
(lp1183
V.
p1184
atp1185
Rp1186
(dp1187
g12
V.
p1188
sbatp1189
Rp1190
(dp1191
g12
VS
p1192
sbatp1193
Rp1194
(dp1195
g12
S'id: 3'
p1196
sbag0
(g1
g2
(lp1197
g0
(g1
g2
(lp1198
g0
(g1
g2
(lp1199
VAnd
p1200
atp1201
Rp1202
(dp1203
g12
VCC
p1204
sbag0
(g1
g2
(lp1205
g0
(g1
g2
(lp1206
Vthat
p1207
atp1208
Rp1209
(dp1210
g12
VDT
p1211
sbatp1212
Rp1213
(dp1214
g12
VNP
p1215
sbag0
(g1
g2
(lp1216
g0
(g1
g2
(lp1217
V's
p1218
atp1219
Rp1220
(dp1221
g12
VVBZ
p1222
sbag0
(g1
g2
(lp1223
g0
(g1
g2
(lp1224
g0
(g1
g2
(lp1225
Vall
p1226
atp1227
Rp1228
(dp1229
g12
VDT
p1230
sbatp1231
Rp1232
(dp1233
g12
VNP
p1234
sbag0
(g1
g2
(lp1235
g0
(g1
g2
(lp1236
g0
(g1
g2
(lp1237
g0
(g1
g2
(lp1238
VI
p1239
atp1240
Rp1241
(dp1242
g12
VPRP
p1243
sbatp1244
Rp1245
(dp1246
g12
VNP
p1247
sbag0
(g1
g2
(lp1248
g0
(g1
g2
(lp1249
Vknow
p1250
atp1251
Rp1252
(dp1253
g12
VVBP
p1254
sbag0
(g1
g2
(lp1255
g0
(g1
g2
(lp1256
Vabout
p1257
atp1258
Rp1259
(dp1260
g12
VIN
p1261
sbag0
(g1
g2
(lp1262
g0
(g1
g2
(lp1263
Vthe
p1264
atp1265
Rp1266
(dp1267
g12
VDT
p1268
sbag0
(g1
g2
(lp1269
Vpicture
p1270
atp1271
Rp1272
(dp1273
g12
VNN
p1274
sbatp1275
Rp1276
(dp1277
g12
VNP
p1278
sbatp1279
Rp1280
(dp1281
g12
VPP
p1282
sbatp1283
Rp1284
(dp1285
g12
VVP
p1286
sbatp1287
Rp1288
(dp1289
g12
VS
p1290
sbatp1291
Rp1292
(dp1293
g12
VSBAR
p1294
sbatp1295
Rp1296
(dp1297
g12
VNP
p1298
sbatp1299
Rp1300
(dp1301
g12
VVP
p1302
sbag0
(g1
g2
(lp1303
V.
p1304
atp1305
Rp1306
(dp1307
g12
V.
p1308
sbatp1309
Rp1310
(dp1311
g12
VS
p1312
sbatp1313
Rp1314
(dp1315
g12
S'id: 4'
p1316
sbag0
(g1
g2
(lp1317
g0
(g1
g2
(lp1318
g0
(g1
g2
(lp1319
VAnd
p1320
atp1321
Rp1322
(dp1323
g12
VCC
p1324
sbag0
(g1
g2
(lp1325
g0
(g1
g2
(lp1326
Vmother
p1327
atp1328
Rp1329
(dp1330
g12
VNN
p1331
sbatp1332
Rp1333
(dp1334
g12
VNP
p1335
sbag0
(g1
g2
(lp1336
g0
(g1
g2
(lp1337
Vhas
p1338
atp1339
Rp1340
(dp1341
g12
VVBZ
p1342
sbag0
(g1
g2
(lp1343
g0
(g1
g2
(lp1344
g0
(g1
g2
(lp1345
Von
p1346
atp1347
Rp1348
(dp1349
g12
VIN
p1350
sbag0
(g1
g2
(lp1351
g0
(g1
g2
(lp1352
g0
(g1
g2
(lp1353
Vher
p1354
atp1355
Rp1356
(dp1357
g12
VPRP$
p1358
sbag0
(g1
g2
(lp1359
Vnice
p1360
atp1361
Rp1362
(dp1363
g12
VJJ
p1364
sbag0
(g1
g2
(lp1365
Vdress
p1366
atp1367
Rp1368
(dp1369
g12
VNN
p1370
sbatp1371
Rp1372
(dp1373
g12
VNP
p1374
sbag0
(g1
g2
(lp1375
Vand
p1376
atp1377
Rp1378
(dp1379
g12
VCC
p1380
sbag0
(g1
g2
(lp1381
g0
(g1
g2
(lp1382
Vshoes
p1383
atp1384
Rp1385
(dp1386
g12
VNNS
p1387
sbatp1388
Rp1389
(dp1390
g12
VNP
p1391
sbatp1392
Rp1393
(dp1394
g12
VNP
p1395
sbatp1396
Rp1397
(dp1398
g12
VPP
p1399
sbatp1400
Rp1401
(dp1402
g12
VVP
p1403
sbatp1404
Rp1405
(dp1406
g12
VVP
p1407
sbag0
(g1
g2
(lp1408
V.
p1409
atp1410
Rp1411
(dp1412
g12
V.
p1413
sbatp1414
Rp1415
(dp1416
g12
VS
p1417
sbatp1418
Rp1419
(dp1420
g12
S'id: 5'
p1421
sbag0
(g1
g2
(lp1422
g0
(g1
g2
(lp1423
g0
(g1
g2
(lp1424
VAnd
p1425
atp1426
Rp1427
(dp1428
g12
VCC
p1429
sbag0
(g1
g2
(lp1430
g0
(g1
g2
(lp1431
Vlook
p1432
atp1433
Rp1434
(dp1435
g12
VVB
p1436
sbag0
(g1
g2
(lp1437
g0
(g1
g2
(lp1438
Vlike
p1439
atp1440
Rp1441
(dp1442
g12
VIN
p1443
sbag0
(g1
g2
(lp1444
g0
(g1
g2
(lp1445
g0
(g1
g2
(lp1446
Vthe
p1447
atp1448
Rp1449
(dp1450
g12
VDT
p1451
sbag0
(g1
g2
(lp1452
Vlittle
p1453
atp1454
Rp1455
(dp1456
g12
VJJ
p1457
sbag0
(g1
g2
(lp1458
Vboy
p1459
atp1460
Rp1461
(dp1462
g12
VNN
p1463
sbatp1464
Rp1465
(dp1466
g12
VNP
p1467
sbag0
(g1
g2
(lp1468
g0
(g1
g2
(lp1469
Vhas
p1470
atp1471
Rp1472
(dp1473
g12
VVBZ
p1474
sbag0
(g1
g2
(lp1475
g0
(g1
g2
(lp1476
g0
(g1
g2
(lp1477
Von
p1478
atp1479
Rp1480
(dp1481
g12
VIN
p1482
sbag0
(g1
g2
(lp1483
g0
(g1
g2
(lp1484
g0
(g1
g2
(lp1485
g0
(g1
g2
(lp1486
Va
p1487
atp1488
Rp1489
(dp1490
g12
VDT
p1491
sbag0
(g1
g2
(lp1492
Vpair
p1493
atp1494
Rp1495
(dp1496
g12
VNN
p1497
sbatp1498
Rp1499
(dp1500
g12
VNP
p1501
sbag0
(g1
g2
(lp1502
g0
(g1
g2
(lp1503
Vof
p1504
atp1505
Rp1506
(dp1507
g12
VIN
p1508
sbag0
(g1
g2
(lp1509
g0
(g1
g2
(lp1510
Vsocks
p1511
atp1512
Rp1513
(dp1514
g12
VNNS
p1515
sbatp1516
Rp1517
(dp1518
g12
VNP
p1519
sbatp1520
Rp1521
(dp1522
g12
VPP
p1523
sbatp1524
Rp1525
(dp1526
g12
VNP
p1527
sbag0
(g1
g2
(lp1528
V,
p1529
atp1530
Rp1531
(dp1532
g12
V,
p1533
sbag0
(g1
g2
(lp1534
Vand
p1535
atp1536
Rp1537
(dp1538
g12
VCC
p1539
sbag0
(g1
g2
(lp1540
g0
(g1
g2
(lp1541
g0
(g1
g2
(lp1542
g0
(g1
g2
(lp1543
Va
p1544
atp1545
Rp1546
(dp1547
g12
VDT
p1548
sbag0
(g1
g2
(lp1549
Vpair
p1550
atp1551
Rp1552
(dp1553
g12
VNN
p1554
sbatp1555
Rp1556
(dp1557
g12
VNP
p1558
sbag0
(g1
g2
(lp1559
g0
(g1
g2
(lp1560
Vof
p1561
atp1562
Rp1563
(dp1564
g12
VIN
p1565
sbag0
(g1
g2
(lp1566
g0
(g1
g2
(lp1567
Vshoes
p1568
atp1569
Rp1570
(dp1571
g12
VNNS
p1572
sbatp1573
Rp1574
(dp1575
g12
VNP
p1576
sbatp1577
Rp1578
(dp1579
g12
VPP
p1580
sbatp1581
Rp1582
(dp1583
g12
VNP
p1584
sbag0
(g1
g2
(lp1585
V,
p1586
atp1587
Rp1588
(dp1589
g12
V,
p1590
sbag0
(g1
g2
(lp1591
Vand
p1592
atp1593
Rp1594
(dp1595
g12
VCC
p1596
sbag0
(g1
g2
(lp1597
g0
(g1
g2
(lp1598
Vhis
p1599
atp1600
Rp1601
(dp1602
g12
VPRP$
p1603
sbag0
(g1
g2
(lp1604
Vhair
p1605
atp1606
Rp1607
(dp1608
g12
VNN
p1609
sbatp1610
Rp1611
(dp1612
g12
VNP
p1613
sbatp1614
Rp1615
(dp1616
g12
VNP
p1617
sbatp1618
Rp1619
(dp1620
g12
VNP
p1621
sbatp1622
Rp1623
(dp1624
g12
VPP
p1625
sbatp1626
Rp1627
(dp1628
g12
VVP
p1629
sbatp1630
Rp1631
(dp1632
g12
VVP
p1633
sbatp1634
Rp1635
(dp1636
g12
VS
p1637
sbatp1638
Rp1639
(dp1640
g12
VSBAR
p1641
sbatp1642
Rp1643
(dp1644
g12
VVP
p1645
sbag0
(g1
g2
(lp1646
V.
p1647
atp1648
Rp1649
(dp1650
g12
V.
p1651
sbatp1652
Rp1653
(dp1654
g12
VS
p1655
sbatp1656
Rp1657
(dp1658
g12
S'id: 6'
p1659
sbag0
(g1
g2
(lp1660
g0
(g1
g2
(lp1661
g0
(g1
g2
(lp1662
g0
(g1
g2
(lp1663
g0
(g1
g2
(lp1664
VAll
p1665
atp1666
Rp1667
(dp1668
g12
VDT
p1669
sbatp1670
Rp1671
(dp1672
g12
VNP
p1673
sbag0
(g1
g2
(lp1674
g0
(g1
g2
(lp1675
Vof
p1676
atp1677
Rp1678
(dp1679
g12
VIN
p1680
sbag0
(g1
g2
(lp1681
g0
(g1
g2
(lp1682
Vthem
p1683
atp1684
Rp1685
(dp1686
g12
VPRP
p1687
sbatp1688
Rp1689
(dp1690
g12
VNP
p1691
sbatp1692
Rp1693
(dp1694
g12
VPP
p1695
sbatp1696
Rp1697
(dp1698
g12
VNP
p1699
sbag0
(g1
g2
(lp1700
g0
(g1
g2
(lp1701
Vhave
p1702
atp1703
Rp1704
(dp1705
g12
VVBP
p1706
sbag0
(g1
g2
(lp1707
g0
(g1
g2
(lp1708
Vcombed
p1709
atp1710
Rp1711
(dp1712
g12
VVBN
p1713
sbag0
(g1
g2
(lp1714
g0
(g1
g2
(lp1715
Vnicely
p1716
atp1717
Rp1718
(dp1719
g12
VRB
p1720
sbatp1721
Rp1722
(dp1723
g12
VADVP
p1724
sbatp1725
Rp1726
(dp1727
g12
VVP
p1728
sbatp1729
Rp1730
(dp1731
g12
VVP
p1732
sbag0
(g1
g2
(lp1733
V.
p1734
atp1735
Rp1736
(dp1737
g12
V.
p1738
sbatp1739
Rp1740
(dp1741
g12
VS
p1742
sbatp1743
Rp1744
(dp1745
g12
S'id: 7'
p1746
sbag0
(g1
g2
(lp1747
g0
(g1
g2
(lp1748
g0
(g1
g2
(lp1749
g0
(g1
g2
(lp1750
g0
(g1
g2
(lp1751
VShe
p1752
atp1753
Rp1754
(dp1755
g12
VPRP
p1756
sbatp1757
Rp1758
(dp1759
g12
VNP
p1760
sbag0
(g1
g2
(lp1761
g0
(g1
g2
(lp1762
Vgon
p1763
atp1764
Rp1765
(dp1766
g12
VVBG
p1767
sbag0
(g1
g2
(lp1768
g0
(g1
g2
(lp1769
g0
(g1
g2
(lp1770
Vna
p1771
atp1772
Rp1773
(dp1774
g12
VTO
p1775
sbag0
(g1
g2
(lp1776
g0
(g1
g2
(lp1777
Vhave
p1778
atp1779
Rp1780
(dp1781
g12
VVB
p1782
sbag0
(g1
g2
(lp1783
g0
(g1
g2
(lp1784
g0
(g1
g2
(lp1785
Vta
p1786
atp1787
Rp1788
(dp1789
g12
VNN
p1790
sbag0
(g1
g2
(lp1791
Vturn
p1792
atp1793
Rp1794
(dp1795
g12
VNN
p1796
sbatp1797
Rp1798
(dp1799
g12
VNP
p1800
sbag0
(g1
g2
(lp1801
g0
(g1
g2
(lp1802
g0
(g1
g2
(lp1803
Vthat
p1804
atp1805
Rp1806
(dp1807
g12
VWDT
p1808
sbatp1809
Rp1810
(dp1811
g12
VWHNP
p1812
sbag0
(g1
g2
(lp1813
g0
(g1
g2
(lp1814
g0
(g1
g2
(lp1815
Vwater
p1816
atp1817
Rp1818
(dp1819
g12
VNN
p1820
sbatp1821
Rp1822
(dp1823
g12
VNP
p1824
sbag0
(g1
g2
(lp1825
g0
(g1
g2
(lp1826
Voff
p1827
atp1828
Rp1829
(dp1830
g12
VRB
p1831
sbatp1832
Rp1833
(dp1834
g12
VADJP
p1835
sbatp1836
Rp1837
(dp1838
g12
VS
p1839
sbatp1840
Rp1841
(dp1842
g12
VSBAR
p1843
sbatp1844
Rp1845
(dp1846
g12
VNP
p1847
sbatp1848
Rp1849
(dp1850
g12
VVP
p1851
sbatp1852
Rp1853
(dp1854
g12
VVP
p1855
sbatp1856
Rp1857
(dp1858
g12
VS
p1859
sbatp1860
Rp1861
(dp1862
g12
VVP
p1863
sbatp1864
Rp1865
(dp1866
g12
VS
p1867
sbag0
(g1
g2
(lp1868
V,
p1869
atp1870
Rp1871
(dp1872
g12
V,
p1873
sbag0
(g1
g2
(lp1874
g0
(g1
g2
(lp1875
Vunless
p1876
atp1877
Rp1878
(dp1879
g12
VIN
p1880
sbag0
(g1
g2
(lp1881
g0
(g1
g2
(lp1882
g0
(g1
g2
(lp1883
Vshe
p1884
atp1885
Rp1886
(dp1887
g12
VPRP
p1888
sbatp1889
Rp1890
(dp1891
g12
VNP
p1892
sbag0
(g1
g2
(lp1893
g0
(g1
g2
(lp1894
Vhave
p1895
atp1896
Rp1897
(dp1898
g12
VVBP
p1899
sbag0
(g1
g2
(lp1900
g0
(g1
g2
(lp1901
g0
(g1
g2
(lp1902
Vgon
p1903
atp1904
Rp1905
(dp1906
g12
VVBG
p1907
sbag0
(g1
g2
(lp1908
g0
(g1
g2
(lp1909
g0
(g1
g2
(lp1910
Vna
p1911
atp1912
Rp1913
(dp1914
g12
VTO
p1915
sbag0
(g1
g2
(lp1916
g0
(g1
g2
(lp1917
Vhave
p1918
atp1919
Rp1920
(dp1921
g12
VVB
p1922
sbag0
(g1
g2
(lp1923
g0
(g1
g2
(lp1924
Va
p1925
atp1926
Rp1927
(dp1928
g12
VDT
p1929
sbag0
(g1
g2
(lp1930
Vhigh
p1931
atp1932
Rp1933
(dp1934
g12
VJJ
p1935
sbag0
(g1
g2
(lp1936
Vwater
p1937
atp1938
Rp1939
(dp1940
g12
VNN
p1941
sbag0
(g1
g2
(lp1942
Vbill
p1943
atp1944
Rp1945
(dp1946
g12
VNN
p1947
sbatp1948
Rp1949
(dp1950
g12
VNP
p1951
sbag0
(g1
g2
(lp1952
g0
(g1
g2
(lp1953
Vtoo
p1954
atp1955
Rp1956
(dp1957
g12
VRB
p1958
sbatp1959
Rp1960
(dp1961
g12
VADVP
p1962
sbatp1963
Rp1964
(dp1965
g12
VVP
p1966
sbatp1967
Rp1968
(dp1969
g12
VVP
p1970
sbatp1971
Rp1972
(dp1973
g12
VS
p1974
sbatp1975
Rp1976
(dp1977
g12
VVP
p1978
sbatp1979
Rp1980
(dp1981
g12
VS
p1982
sbatp1983
Rp1984
(dp1985
g12
VVP
p1986
sbatp1987
Rp1988
(dp1989
g12
VS
p1990
sbatp1991
Rp1992
(dp1993
g12
VSBAR
p1994
sbag0
(g1
g2
(lp1995
V.
p1996
atp1997
Rp1998
(dp1999
g12
V.
p2000
sbatp2001
Rp2002
(dp2003
g12
VFRAG
p2004
sbatp2005
Rp2006
(dp2007
g12
S'id: 8'
p2008
sbag0
(g1
g2
(lp2009
g0
(g1
g2
(lp2010
g0
(g1
g2
(lp2011
g0
(g1
g2
(lp2012
VShe
p2013
atp2014
Rp2015
(dp2016
g12
VPRP
p2017
sbatp2018
Rp2019
(dp2020
g12
VNP
p2021
sbag0
(g1
g2
(lp2022
V,
p2023
atp2024
Rp2025
(dp2026
g12
V,
p2027
sbag0
(g1
g2
(lp2028
g0
(g1
g2
(lp2029
Vthere
p2030
atp2031
Rp2032
(dp2033
g12
VEX
p2034
sbatp2035
Rp2036
(dp2037
g12
VNP
p2038
sbag0
(g1
g2
(lp2039
g0
(g1
g2
(lp2040
Vmust
p2041
atp2042
Rp2043
(dp2044
g12
VMD
p2045
sbag0
(g1
g2
(lp2046
g0
(g1
g2
(lp2047
Vbe
p2048
atp2049
Rp2050
(dp2051
g12
VVB
p2052
sbag0
(g1
g2
(lp2053
g0
(g1
g2
(lp2054
g0
(g1
g2
(lp2055
Va
p2056
atp2057
Rp2058
(dp2059
g12
VDT
p2060
sbag0
(g1
g2
(lp2061
Vjust
p2062
atp2063
Rp2064
(dp2065
g12
VRB
p2066
sbatp2067
Rp2068
(dp2069
g12
VNP
p2070
sbag0
(g1
g2
(lp2071
g0
(g1
g2
(lp2072
Vfinishing
p2073
atp2074
Rp2075
(dp2076
g12
VVBG
p2077
sbag0
(g1
g2
(lp2078
g0
(g1
g2
(lp2079
Vup
p2080
atp2081
Rp2082
(dp2083
g12
VRP
p2084
sbatp2085
Rp2086
(dp2087
g12
VPRT
p2088
sbag0
(g1
g2
(lp2089
g0
(g1
g2
(lp2090
Vsupper
p2091
atp2092
Rp2093
(dp2094
g12
VNN
p2095
sbatp2096
Rp2097
(dp2098
g12
VNP
p2099
sbatp2100
Rp2101
(dp2102
g12
VVP
p2103
sbatp2104
Rp2105
(dp2106
g12
VNP
p2107
sbatp2108
Rp2109
(dp2110
g12
VVP
p2111
sbatp2112
Rp2113
(dp2114
g12
VVP
p2115
sbag0
(g1
g2
(lp2116
V.
p2117
atp2118
Rp2119
(dp2120
g12
V.
p2121
sbatp2122
Rp2123
(dp2124
g12
VS
p2125
sbatp2126
Rp2127
(dp2128
g12
S'id: 9'
p2129
sbag0
(g1
g2
(lp2130
g0
(g1
g2
(lp2131
g0
(g1
g2
(lp2132
g0
(g1
g2
(lp2133
VWhat
p2134
atp2135
Rp2136
(dp2137
g12
VWP
p2138
sbatp2139
Rp2140
(dp2141
g12
VWHNP
p2142
sbag0
(g1
g2
(lp2143
g0
(g1
g2
(lp2144
Vis
p2145
atp2146
Rp2147
(dp2148
g12
VVBZ
p2149
sbag0
(g1
g2
(lp2150
g0
(g1
g2
(lp2151
Vit
p2152
atp2153
Rp2154
(dp2155
g12
VPRP
p2156
sbatp2157
Rp2158
(dp2159
g12
VNP
p2160
sbatp2161
Rp2162
(dp2163
g12
VSQ
p2164
sbatp2165
Rp2166
(dp2167
g12
VSBARQ
p2168
sbatp2169
Rp2170
(dp2171
g12
S'id: 10'
p2172
sbatp2173
Rp2174
(dp2175
g12
S'sentences'
p2176
sb.