ccopy_reg
_reconstructor
p0
(cnltk.tree
Tree
p1
c__builtin__
list
p2
(lp3
g0
(g1
g2
(lp4
g0
(g1
g2
(lp5
g0
(g1
g2
(lp6
g0
(g1
g2
(lp7
g0
(g1
g2
(lp8
(lp9
S'word: the, index: 1'
p10
aatp11
Rp12
(dp13
S'_label'
p14
Vdet
p15
sbatp16
Rp17
(dp18
g14
S'word: boy, index: 2'
p19
sbatp20
Rp21
(dp22
g14
Vnsubj
p23
sbag0
(g1
g2
(lp24
(lp25
S'word: is, index: 3'
p26
aatp27
Rp28
(dp29
g14
Vaux
p30
sbag0
(g1
g2
(lp31
g0
(g1
g2
(lp32
g0
(g1
g2
(lp33
(lp34
S'word: a, index: 5'
p35
aatp36
Rp37
(dp38
g14
Vdet
p39
sbatp40
Rp41
(dp42
g14
S'word: kite, index: 6'
p43
sbatp44
Rp45
(dp46
g14
Vdobj
p47
sbatp48
Rp49
(dp50
g14
S'word: flying, index: 4'
p51
sbatp52
Rp53
(dp54
g14
S'id: 0'
p55
sbag0
(g1
g2
(lp56
g0
(g1
g2
(lp57
g0
(g1
g2
(lp58
(lp59
S'word: is, index: 3'
p60
aatp61
Rp62
(dp63
g14
Vaux
p64
sbag0
(g1
g2
(lp65
g0
(g1
g2
(lp66
g0
(g1
g2
(lp67
(lp68
S'word: the, index: 5'
p69
aatp70
Rp71
(dp72
g14
Vdet
p73
sbatp74
Rp75
(dp76
g14
S'word: boy, index: 6'
p77
sbatp78
Rp79
(dp80
g14
Vdobj
p81
sbag0
(g1
g2
(lp82
g0
(g1
g2
(lp83
g0
(g1
g2
(lp84
(lp85
S'word: The, index: 1'
p86
aatp87
Rp88
(dp89
g14
Vdet
p90
sbatp91
Rp92
(dp93
g14
S'word: dog, index: 2'
p94
sbatp95
Rp96
(dp97
g14
Vnsubj
p98
sbatp99
Rp100
(dp101
g14
S'word: chasing, index: 4'
p102
sbatp103
Rp104
(dp105
g14
S'id: 1'
p106
sbag0
(g1
g2
(lp107
g0
(g1
g2
(lp108
g0
(g1
g2
(lp109
g0
(g1
g2
(lp110
g0
(g1
g2
(lp111
(lp112
S'word: The, index: 1'
p113
aatp114
Rp115
(dp116
g14
Vdet
p117
sbatp118
Rp119
(dp120
g14
S'word: boy, index: 2'
p121
sbatp122
Rp123
(dp124
g14
Vnsubj
p125
sbag0
(g1
g2
(lp126
g0
(g1
g2
(lp127
g0
(g1
g2
(lp128
(lp129
S'word: t-shirt, index: 7'
p130
aatp131
Rp132
(dp133
g14
Vappos
p134
sbag0
(g1
g2
(lp135
(lp136
S'word: on, index: 5'
p137
aatp138
Rp139
(dp140
g14
Vprep
p141
sbatp142
Rp143
(dp144
g14
S'word: shorts, index: 4'
p145
sbatp146
Rp147
(dp148
g14
Vdobj
p149
sbatp150
Rp151
(dp152
g14
S'word: has, index: 3'
p153
sbatp154
Rp155
(dp156
g14
S'id: 2'
p157
sbag0
(g1
g2
(lp158
g0
(g1
g2
(lp159
g0
(g1
g2
(lp160
g0
(g1
g2
(lp161
g0
(g1
g2
(lp162
(lp163
S'word: The, index: 1'
p164
aatp165
Rp166
(dp167
g14
Vdet
p168
sbag0
(g1
g2
(lp169
(lp170
S'word: kite, index: 2'
p171
aatp172
Rp173
(dp174
g14
Vnn
p175
sbatp176
Rp177
(dp178
g14
S'word: strings, index: 3'
p179
sbatp180
Rp181
(dp182
g14
Vnsubj
p183
sbag0
(g1
g2
(lp184
g0
(g1
g2
(lp185
g0
(g1
g2
(lp186
(lp187
S'word: to, index: 5'
p188
aatp189
Rp190
(dp191
g14
Vaux
p192
sbag0
(g1
g2
(lp193
g0
(g1
g2
(lp194
g0
(g1
g2
(lp195
(lp196
S'word: very, index: 7'
p197
aatp198
Rp199
(dp200
g14
Vadvmod
p201
sbatp202
Rp203
(dp204
g14
S'word: long, index: 8'
p205
sbatp206
Rp207
(dp208
g14
Vadvmod
p209
sbatp210
Rp211
(dp212
g14
S'word: be, index: 6'
p213
sbatp214
Rp215
(dp216
g14
Vxcomp
p217
sbatp218
Rp219
(dp220
g14
S'word: appear, index: 4'
p221
sbatp222
Rp223
(dp224
g14
S'id: 3'
p225
sbag0
(g1
g2
(lp226
g0
(g1
g2
(lp227
g0
(g1
g2
(lp228
(lp229
S'word: There, index: 1'
p230
aatp231
Rp232
(dp233
g14
Vexpl
p234
sbag0
(g1
g2
(lp235
g0
(g1
g2
(lp236
g0
(g1
g2
(lp237
(lp238
S'word: a, index: 3'
p239
aatp240
Rp241
(dp242
g14
Vdet
p243
sbag0
(g1
g2
(lp244
g0
(g1
g2
(lp245
g0
(g1
g2
(lp246
g0
(g1
g2
(lp247
g0
(g1
g2
(lp248
(lp249
S'word: the, index: 6'
p250
aatp251
Rp252
(dp253
g14
Vdet
p254
sbag0
(g1
g2
(lp255
g0
(g1
g2
(lp256
g0
(g1
g2
(lp257
(lp258
S'word: the, index: 9'
p259
aatp260
Rp261
(dp262
g14
Vdet
p263
sbatp264
Rp265
(dp266
g14
S'word: beach, index: 10'
p267
sbatp268
Rp269
(dp270
g14
Vprep
p271
sbatp272
Rp273
(dp274
g14
S'word: castle, index: 7'
p275
sbatp276
Rp277
(dp278
g14
Vdobj
p279
sbatp280
Rp281
(dp282
g14
S'word: making, index: 5'
p283
sbatp284
Rp285
(dp286
g14
Vvmod
p287
sbatp288
Rp289
(dp290
g14
S'word: girl, index: 4'
p291
sbatp292
Rp293
(dp294
g14
Vnsubj
p295
sbatp296
Rp297
(dp298
g14
S"word: 's, index: 2"
p299
sbatp300
Rp301
(dp302
g14
S'id: 4'
p303
sbag0
(g1
g2
(lp304
g0
(g1
g2
(lp305
g0
(g1
g2
(lp306
g0
(g1
g2
(lp307
g0
(g1
g2
(lp308
(lp309
S'word: There, index: 1'
p310
aatp311
Rp312
(dp313
g14
Vexpl
p314
sbag0
(g1
g2
(lp315
g0
(g1
g2
(lp316
g0
(g1
g2
(lp317
(lp318
S'word: the, index: 3'
p319
aatp320
Rp321
(dp322
g14
Vdet
p323
sbatp324
Rp325
(dp326
g14
S'word: sailboat, index: 4'
p327
sbatp328
Rp329
(dp330
g14
Vnsubj
p331
sbatp332
Rp333
(dp334
g14
S"word: 's, index: 2"
p335
sbatp336
Rp337
(dp338
g14
Vccomp
p339
sbag0
(g1
g2
(lp340
(lp341
S'word: it, index: 6'
p342
aatp343
Rp344
(dp345
g14
Vnsubj
p346
sbag0
(g1
g2
(lp347
g0
(g1
g2
(lp348
g0
(g1
g2
(lp349
g0
(g1
g2
(lp350
g0
(g1
g2
(lp351
(lp352
S'word: the, index: 10'
p353
aatp354
Rp355
(dp356
g14
Vdet
p357
sbag0
(g1
g2
(lp358
g0
(g1
g2
(lp359
g0
(g1
g2
(lp360
g0
(g1
g2
(lp361
g0
(g1
g2
(lp362
(lp363
S'word: the, index: 13'
p364
aatp365
Rp366
(dp367
g14
Vdet
p368
sbag0
(g1
g2
(lp369
(lp370
S'word: four, index: 14'
p371
aatp372
Rp373
(dp374
g14
Vnum
p375
sbatp376
Rp377
(dp378
g14
S'word: seventy, index: 15'
p379
sbatp380
Rp381
(dp382
g14
Vdep
p383
sbatp384
Rp385
(dp386
g14
S'word: is, index: 12'
p387
sbatp388
Rp389
(dp390
g14
Vprep
p391
sbatp392
Rp393
(dp394
g14
S'word: sail, index: 11'
p395
sbatp396
Rp397
(dp398
g14
Vprep
p399
sbatp400
Rp401
(dp402
g14
S'word: number, index: 8'
p403
sbatp404
Rp405
(dp406
g14
Vdep
p407
sbatp408
Rp409
(dp410
g14
S"word: 's, index: 7"
p411
sbatp412
Rp413
(dp414
g14
S'id: 5'
p415
sbag0
(g1
g2
(lp416
g0
(g1
g2
(lp417
g0
(g1
g2
(lp418
g0
(g1
g2
(lp419
g0
(g1
g2
(lp420
(lp421
S'word: an, index: 3'
p422
aatp423
Rp424
(dp425
g14
Vdet
p426
sbag0
(g1
g2
(lp427
(lp428
S'word: older, index: 4'
p429
aatp430
Rp431
(dp432
g14
Vamod
p433
sbag0
(g1
g2
(lp434
g0
(g1
g2
(lp435
g0
(g1
g2
(lp436
(lp437
S'word: fish, index: 8'
p438
aatp439
Rp440
(dp441
g14
Vprep
p442
sbatp443
Rp444
(dp445
g14
S'word: trying, index: 6'
p446
sbatp447
Rp448
(dp449
g14
Vvmod
p450
sbatp451
Rp452
(dp453
g14
S'word: gentleman, index: 5'
p454
sbatp455
Rp456
(dp457
g14
Vnsubj
p458
sbag0
(g1
g2
(lp459
(lp460
S'word: There, index: 1'
p461
aatp462
Rp463
(dp464
g14
Vexpl
p465
sbatp466
Rp467
(dp468
g14
S"word: 's, index: 2"
p469
sbatp470
Rp471
(dp472
g14
S'id: 6'
p473
sbag0
(g1
g2
(lp474
g0
(g1
g2
(lp475
g0
(g1
g2
(lp476
(lp477
S'word: he, index: 7'
p478
aatp479
Rp480
(dp481
g14
Vnsubj
p482
sbag0
(g1
g2
(lp483
g0
(g1
g2
(lp484
g0
(g1
g2
(lp485
(lp486
S'word: a, index: 10'
p487
aatp488
Rp489
(dp490
g14
Vdet
p491
sbatp492
Rp493
(dp494
g14
S'word: dock, index: 11'
p495
sbatp496
Rp497
(dp498
g14
Vprep
p499
sbag0
(g1
g2
(lp500
g0
(g1
g2
(lp501
g0
(g1
g2
(lp502
g0
(g1
g2
(lp503
g0
(g1
g2
(lp504
(lp505
S'word: a, index: 3'
p506
aatp507
Rp508
(dp509
g14
Vdet
p510
sbag0
(g1
g2
(lp511
(lp512
S'word: call, index: 4'
p513
aatp514
Rp515
(dp516
g14
Vnn
p517
sbatp518
Rp519
(dp520
g14
S'word: fish, index: 5'
p521
sbatp522
Rp523
(dp524
g14
Vnsubj
p525
sbag0
(g1
g2
(lp526
(lp527
S'word: There, index: 1'
p528
aatp529
Rp530
(dp531
g14
Vexpl
p532
sbatp533
Rp534
(dp535
g14
S"word: 's, index: 2"
p536
sbatp537
Rp538
(dp539
g14
Vccomp
p540
sbatp541
Rp542
(dp543
g14
S"word: 's, index: 8"
p544
sbatp545
Rp546
(dp547
g14
S'id: 7'
p548
sbag0
(g1
g2
(lp549
g0
(g1
g2
(lp550
g0
(g1
g2
(lp551
g0
(g1
g2
(lp552
g0
(g1
g2
(lp553
(lp554
S'word: The, index: 1'
p555
aatp556
Rp557
(dp558
g14
Vdet
p559
sbatp560
Rp561
(dp562
g14
S'word: bee, index: 2'
p563
sbatp564
Rp565
(dp566
g14
Vnsubj
p567
sbag0
(g1
g2
(lp568
g0
(g1
g2
(lp569
g0
(g1
g2
(lp570
g0
(g1
g2
(lp571
g0
(g1
g2
(lp572
(lp573
S'word: stuff, index: 10'
p574
aatp575
Rp576
(dp577
g14
Vconj
p578
sbag0
(g1
g2
(lp579
(lp580
S'word: a, index: 7'
p581
aatp582
Rp583
(dp584
g14
Vdet
p585
sbatp586
Rp587
(dp588
g14
S'word: inlet, index: 8'
p589
sbatp590
Rp591
(dp592
g14
Vprep
p593
sbag0
(g1
g2
(lp594
(lp595
S'word: stuff, index: 10'
p596
aatp597
Rp598
(dp599
g14
Vprep
p600
sbag0
(g1
g2
(lp601
(lp602
S'word: to, index: 4'
p603
aatp604
Rp605
(dp606
g14
Vaux
p607
sbatp608
Rp609
(dp610
g14
S'word: be, index: 5'
p611
sbatp612
Rp613
(dp614
g14
Vxcomp
p615
sbatp616
Rp617
(dp618
g14
S'word: appears, index: 3'
p619
sbatp620
Rp621
(dp622
g14
S'id: 8'
p623
sbag0
(g1
g2
(lp624
g0
(g1
g2
(lp625
g0
(g1
g2
(lp626
(lp627
S'word: There, index: 1'
p628
aatp629
Rp630
(dp631
g14
Vexpl
p632
sbag0
(g1
g2
(lp633
g0
(g1
g2
(lp634
g0
(g1
g2
(lp635
(lp636
S'word: a, index: 3'
p637
aatp638
Rp639
(dp640
g14
Vdet
p641
sbag0
(g1
g2
(lp642
(lp643
S'word: large, index: 4'
p644
aatp645
Rp646
(dp647
g14
Vamod
p648
sbag0
(g1
g2
(lp649
g0
(g1
g2
(lp650
g0
(g1
g2
(lp651
(lp652
S'word: the, index: 9'
p653
aatp654
Rp655
(dp656
g14
Vdet
p657
sbatp658
Rp659
(dp660
g14
S'word: house, index: 10'
p661
sbatp662
Rp663
(dp664
g14
Vprep
p665
sbatp666
Rp667
(dp668
g14
S'word: tree, index: 5'
p669
sbatp670
Rp671
(dp672
g14
Vnsubj
p673
sbatp674
Rp675
(dp676
g14
S"word: 's, index: 2"
p677
sbatp678
Rp679
(dp680
g14
S'id: 9'
p681
sbag0
(g1
g2
(lp682
g0
(g1
g2
(lp683
g0
(g1
g2
(lp684
(lp685
S'word: There, index: 1'
p686
aatp687
Rp688
(dp689
g14
Vexpl
p690
sbag0
(g1
g2
(lp691
g0
(g1
g2
(lp692
g0
(g1
g2
(lp693
(lp694
S'word: a, index: 3'
p695
aatp696
Rp697
(dp698
g14
Vdet
p699
sbag0
(g1
g2
(lp700
g0
(g1
g2
(lp701
g0
(g1
g2
(lp702
(lp703
S'word: the, index: 6'
p704
aatp705
Rp706
(dp707
g14
Vdet
p708
sbatp709
Rp710
(dp711
g14
S'word: house, index: 7'
p712
sbatp713
Rp714
(dp715
g14
Vprep
p716
sbatp717
Rp718
(dp719
g14
S'word: cornrow, index: 4'
p720
sbatp721
Rp722
(dp723
g14
Vnsubj
p724
sbatp725
Rp726
(dp727
g14
S"word: 's, index: 2"
p728
sbatp729
Rp730
(dp731
g14
S'id: 10'
p732
sbag0
(g1
g2
(lp733
g0
(g1
g2
(lp734
g0
(g1
g2
(lp735
(lp736
S'word: There, index: 1'
p737
aatp738
Rp739
(dp740
g14
Vexpl
p741
sbag0
(g1
g2
(lp742
g0
(g1
g2
(lp743
g0
(g1
g2
(lp744
(lp745
S'word: a, index: 3'
p746
aatp747
Rp748
(dp749
g14
Vdet
p750
sbag0
(g1
g2
(lp751
(lp752
S'word: small, index: 4'
p753
aatp754
Rp755
(dp756
g14
Vamod
p757
sbag0
(g1
g2
(lp758
g0
(g1
g2
(lp759
g0
(g1
g2
(lp760
(lp761
S'word: the, index: 9'
p762
aatp763
Rp764
(dp765
g14
Vdet
p766
sbag0
(g1
g2
(lp767
g0
(g1
g2
(lp768
g0
(g1
g2
(lp769
(lp770
S'word: a, index: 12'
p771
aatp772
Rp773
(dp774
g14
Vdet
p775
sbag0
(g1
g2
(lp776
g0
(g1
g2
(lp777
g0
(g1
g2
(lp778
(lp779
S'word: rather, index: 13'
p780
aatp781
Rp782
(dp783
g14
Vadvmod
p784
sbatp785
Rp786
(dp787
g14
S'word: large, index: 14'
p788
sbatp789
Rp790
(dp791
g14
Vamod
p792
sbatp793
Rp794
(dp795
g14
S'word: shrubbery, index: 15'
p796
sbatp797
Rp798
(dp799
g14
Vappos
p800
sbatp801
Rp802
(dp803
g14
S'word: house, index: 10'
p804
sbatp805
Rp806
(dp807
g14
Vprep
p808
sbatp809
Rp810
(dp811
g14
S'word: shrubbery, index: 5'
p812
sbatp813
Rp814
(dp815
g14
Vnsubj
p816
sbatp817
Rp818
(dp819
g14
S"word: 's, index: 2"
p820
sbatp821
Rp822
(dp823
g14
S'id: 11'
p824
sbag0
(g1
g2
(lp825
g0
(g1
g2
(lp826
g0
(g1
g2
(lp827
g0
(g1
g2
(lp828
g0
(g1
g2
(lp829
(lp830
S'word: thre/two, index: 4'
p831
aatp832
Rp833
(dp834
g14
Vamod
p835
sbatp836
Rp837
(dp838
g14
S'word: windows, index: 5'
p839
sbatp840
Rp841
(dp842
g14
Vappos
p843
sbag0
(g1
g2
(lp844
(lp845
S'word: One, index: 1'
p846
aatp847
Rp848
(dp849
g14
Vnum
p850
sbatp851
Rp852
(dp853
g14
S'word: door, index: 2'
p854
sbatp855
Rp856
(dp857
g14
S'id: 12'
p858
sbag0
(g1
g2
(lp859
g0
(g1
g2
(lp860
g0
(g1
g2
(lp861
g0
(g1
g2
(lp862
g0
(g1
g2
(lp863
(lp864
S'word: that, index: 3'
p865
aatp866
Rp867
(dp868
g14
Vmark
p869
sbag0
(g1
g2
(lp870
g0
(g1
g2
(lp871
g0
(g1
g2
(lp872
(lp873
S'word: the, index: 4'
p874
aatp875
Rp876
(dp877
g14
Vdet
p878
sbatp879
Rp880
(dp881
g14
S'word: brooms, index: 5'
p882
sbatp883
Rp884
(dp885
g14
Vnsubj
p886
sbag0
(g1
g2
(lp887
(lp888
S'word: is, index: 6'
p889
aatp890
Rp891
(dp892
g14
Vcop
p893
sbatp894
Rp895
(dp896
g14
S'word: straight, index: 7'
p897
sbatp898
Rp899
(dp900
g14
Vccomp
p901
sbag0
(g1
g2
(lp902
(lp903
S'word: It, index: 1'
p904
aatp905
Rp906
(dp907
g14
Vnsubj
p908
sbatp909
Rp910
(dp911
g14
S'word: appears, index: 2'
p912
sbatp913
Rp914
(dp915
g14
S'id: 13'
p916
sbag0
(g1
g2
(lp917
g0
(g1
g2
(lp918
g0
(g1
g2
(lp919
(lp920
S'word: on, index: 10'
p921
aatp922
Rp923
(dp924
g14
Vprep
p925
sbag0
(g1
g2
(lp926
g0
(g1
g2
(lp927
g0
(g1
g2
(lp928
(lp929
S'word: he, index: 12'
p930
aatp931
Rp932
(dp933
g14
Vnsubj
p934
sbag0
(g1
g2
(lp935
(lp936
S'word: sandals, index: 14'
p937
aatp938
Rp939
(dp940
g14
Vdobj
p941
sbatp942
Rp943
(dp944
g14
S'word: wears, index: 13'
p945
sbatp946
Rp947
(dp948
g14
Vparataxis
p949
sbag0
(g1
g2
(lp950
g0
(g1
g2
(lp951
g0
(g1
g2
(lp952
(lp953
S'word: he, index: 16'
p954
aatp955
Rp956
(dp957
g14
Vnsubj
p958
sbag0
(g1
g2
(lp959
(lp960
S'word: jeans, index: 18'
p961
aatp962
Rp963
(dp964
g14
Vdobj
p965
sbatp966
Rp967
(dp968
g14
S'word: wear, index: 17'
p969
sbatp970
Rp971
(dp972
g14
Vparataxis
p973
sbag0
(g1
g2
(lp974
g0
(g1
g2
(lp975
g0
(g1
g2
(lp976
(lp977
S'word: The, index: 1'
p978
aatp979
Rp980
(dp981
g14
Vdet
p982
sbag0
(g1
g2
(lp983
(lp984
S"word: 's, index: 3"
p985
aatp986
Rp987
(dp988
g14
Vpossessive
p989
sbatp990
Rp991
(dp992
g14
S'word: man, index: 2'
p993
sbatp994
Rp995
(dp996
g14
Vnsubj
p997
sbag0
(g1
g2
(lp998
g0
(g1
g2
(lp999
g0
(g1
g2
(lp1000
(lp1001
S'word: he, index: 20'
p1002
aatp1003
Rp1004
(dp1005
g14
Vnsubj
p1006
sbag0
(g1
g2
(lp1007
(lp1008
S'word: t-shirt, index: 22'
p1009
aatp1010
Rp1011
(dp1012
g14
Vdobj
p1013
sbatp1014
Rp1015
(dp1016
g14
S'word: has, index: 21'
p1017
sbatp1018
Rp1019
(dp1020
g14
Vparataxis
p1021
sbag0
(g1
g2
(lp1022
g0
(g1
g2
(lp1023
g0
(g1
g2
(lp1024
(lp1025
S'word: the, index: 5'
p1026
aatp1027
Rp1028
(dp1029
g14
Vdet
p1030
sbatp1031
Rp1032
(dp1033
g14
S'word: book, index: 6'
p1034
sbatp1035
Rp1036
(dp1037
g14
Vdobj
p1038
sbag0
(g1
g2
(lp1039
g0
(g1
g2
(lp1040
g0
(g1
g2
(lp1041
(lp1042
S'word: any, index: 8'
p1043
aatp1044
Rp1045
(dp1046
g14
Vdet
p1047
sbatp1048
Rp1049
(dp1050
g14
S'word: trues, index: 9'
p1051
sbatp1052
Rp1053
(dp1054
g14
Vprep
p1055
sbag0
(g1
g2
(lp1056
g0
(g1
g2
(lp1057
g0
(g1
g2
(lp1058
(lp1059
S'word: glasses, index: 26'
p1060
aatp1061
Rp1062
(dp1063
g14
Vdobj
p1064
sbag0
(g1
g2
(lp1065
(lp1066
S'word: he, index: 24'
p1067
aatp1068
Rp1069
(dp1070
g14
Vnsubj
p1071
sbatp1072
Rp1073
(dp1074
g14
S'word: wears, index: 25'
p1075
sbatp1076
Rp1077
(dp1078
g14
Vparataxis
p1079
sbatp1080
Rp1081
(dp1082
g14
S'word: reading, index: 4'
p1083
sbatp1084
Rp1085
(dp1086
g14
S'id: 14'
p1087
sbag0
(g1
g2
(lp1088
g0
(g1
g2
(lp1089
g0
(g1
g2
(lp1090
g0
(g1
g2
(lp1091
g0
(g1
g2
(lp1092
g0
(g1
g2
(lp1093
g0
(g1
g2
(lp1094
(lp1095
S'word: in, index: 14'
p1096
aatp1097
Rp1098
(dp1099
g14
Vadvmod
p1100
sbag0
(g1
g2
(lp1101
(lp1102
S'word: down, index: 16'
p1103
aatp1104
Rp1105
(dp1106
g14
Vprt
p1107
sbag0
(g1
g2
(lp1108
(lp1109
S'word: shorts, index: 17'
p1110
aatp1111
Rp1112
(dp1113
g14
Vdobj
p1114
sbatp1115
Rp1116
(dp1117
g14
S'word: take, index: 15'
p1118
sbatp1119
Rp1120
(dp1121
g14
Vccomp
p1122
sbag0
(g1
g2
(lp1123
(lp1124
S'word: she, index: 10'
p1125
aatp1126
Rp1127
(dp1128
g14
Vnsubj
p1129
sbatp1130
Rp1131
(dp1132
g14
S'word: is, index: 13'
p1133
sbatp1134
Rp1135
(dp1136
g14
Vconj
p1137
sbag0
(g1
g2
(lp1138
g0
(g1
g2
(lp1139
g0
(g1
g2
(lp1140
g0
(g1
g2
(lp1141
g0
(g1
g2
(lp1142
(lp1143
S'word: The, index: 1'
p1144
aatp1145
Rp1146
(dp1147
g14
Vdet
p1148
sbatp1149
Rp1150
(dp1151
g14
S'word: woman, index: 2'
p1152
sbatp1153
Rp1154
(dp1155
g14
Vnsubj
p1156
sbag0
(g1
g2
(lp1157
(lp1158
S'word: is, index: 3'
p1159
aatp1160
Rp1161
(dp1162
g14
Vaux
p1163
sbag0
(g1
g2
(lp1164
g0
(g1
g2
(lp1165
g0
(g1
g2
(lp1166
(lp1167
S'word: a, index: 5'
p1168
aatp1169
Rp1170
(dp1171
g14
Vdet
p1172
sbag0
(g1
g2
(lp1173
(lp1174
S'word: wine, index: 8'
p1175
aatp1176
Rp1177
(dp1178
g14
Vprep
p1179
sbatp1180
Rp1181
(dp1182
g14
S'word: glass, index: 6'
p1183
sbatp1184
Rp1185
(dp1186
g14
Vdobj
p1187
sbatp1188
Rp1189
(dp1190
g14
S'word: pouring, index: 4'
p1191
sbatp1192
Rp1193
(dp1194
g14
Vccomp
p1195
sbag0
(g1
g2
(lp1196
g0
(g1
g2
(lp1197
g0
(g1
g2
(lp1198
g0
(g1
g2
(lp1199
g0
(g1
g2
(lp1200
(lp1201
S'word: to, index: 21'
p1202
aatp1203
Rp1204
(dp1205
g14
Vaux
p1206
sbag0
(g1
g2
(lp1207
(lp1208
S'word: be, index: 22'
p1209
aatp1210
Rp1211
(dp1212
g14
Vcop
p1213
sbatp1214
Rp1215
(dp1216
g14
S'word: shoes, index: 23'
p1217
sbatp1218
Rp1219
(dp1220
g14
Vxcomp
p1221
sbag0
(g1
g2
(lp1222
(lp1223
S'word: she, index: 10'
p1224
aatp1225
Rp1226
(dp1227
g14
Vnsubj
p1228
sbatp1229
Rp1230
(dp1231
g14
S'word: appears, index: 20'
p1232
sbatp1233
Rp1234
(dp1235
g14
Vconj
p1236
sbag0
(g1
g2
(lp1237
(lp1238
S'word: she, index: 10'
p1239
aatp1240
Rp1241
(dp1242
g14
Vnsubj
p1243
sbatp1244
Rp1245
(dp1246
g14
S'word: is, index: 11'
p1247
sbatp1248
Rp1249
(dp1250
g14
S'id: 15'
p1251
sbag0
(g1
g2
(lp1252
g0
(g1
g2
(lp1253
g0
(g1
g2
(lp1254
g0
(g1
g2
(lp1255
g0
(g1
g2
(lp1256
(lp1257
S'word: There, index: 1'
p1258
aatp1259
Rp1260
(dp1261
g14
Vexpl
p1262
sbag0
(g1
g2
(lp1263
g0
(g1
g2
(lp1264
g0
(g1
g2
(lp1265
(lp1266
S'word: a, index: 3'
p1267
aatp1268
Rp1269
(dp1270
g14
Vdet
p1271
sbatp1272
Rp1273
(dp1274
g14
S'word: jukebox, index: 4'
p1275
sbatp1276
Rp1277
(dp1278
g14
Vnsubj
p1279
sbatp1280
Rp1281
(dp1282
g14
S'word: is, index: 2'
p1283
sbatp1284
Rp1285
(dp1286
g14
Vccomp
p1287
sbag0
(g1
g2
(lp1288
(lp1289
S'word: I, index: 6'
p1290
aatp1291
Rp1292
(dp1293
g14
Vnsubj
p1294
sbag0
(g1
g2
(lp1295
g0
(g1
g2
(lp1296
g0
(g1
g2
(lp1297
(lp1298
S'word: to, index: 8'
p1299
aatp1300
Rp1301
(dp1302
g14
Vaux
p1303
sbag0
(g1
g2
(lp1304
g0
(g1
g2
(lp1305
g0
(g1
g2
(lp1306
(lp1307
S'word: music, index: 11'
p1308
aatp1309
Rp1310
(dp1311
g14
Vdobj
p1312
sbatp1313
Rp1314
(dp1315
g14
S'word: playing, index: 10'
p1316
sbatp1317
Rp1318
(dp1319
g14
Vxcomp
p1320
sbatp1321
Rp1322
(dp1323
g14
S'word: say, index: 9'
p1324
sbatp1325
Rp1326
(dp1327
g14
Vxcomp
p1328
sbatp1329
Rp1330
(dp1331
g14
S'word: want, index: 7'
p1332
sbatp1333
Rp1334
(dp1335
g14
S'id: 16'
p1336
sbag0
(g1
g2
(lp1337
g0
(g1
g2
(lp1338
g0
(g1
g2
(lp1339
g0
(g1
g2
(lp1340
g0
(g1
g2
(lp1341
(lp1342
S'word: her, index: 4'
p1343
aatp1344
Rp1345
(dp1346
g14
Vposs
p1347
sbag0
(g1
g2
(lp1348
g0
(g1
g2
(lp1349
g0
(g1
g2
(lp1350
(lp1351
S'word: back, index: 7'
p1352
aatp1353
Rp1354
(dp1355
g14
Vadvmod
p1356
sbag0
(g1
g2
(lp1357
g0
(g1
g2
(lp1358
g0
(g1
g2
(lp1359
g0
(g1
g2
(lp1360
g0
(g1
g2
(lp1361
(lp1362
S'word: a, index: 11'
p1363
aatp1364
Rp1365
(dp1366
g14
Vdet
p1367
sbatp1368
Rp1369
(dp1370
g14
S'word: tie, index: 12'
p1371
sbatp1372
Rp1373
(dp1374
g14
Vconj
p1375
sbag0
(g1
g2
(lp1376
(lp1377
S'word: stuff, index: 14'
p1378
aatp1379
Rp1380
(dp1381
g14
Vconj
p1382
sbatp1383
Rp1384
(dp1385
g14
S'word: a, index: 9'
p1386
sbatp1387
Rp1388
(dp1389
g14
Vprep
p1390
sbag0
(g1
g2
(lp1391
g1369
atp1392
Rp1393
(dp1394
g14
Vprep
p1395
sbag0
(g1
g2
(lp1396
(lp1397
S'word: stuff, index: 14'
p1398
aatp1399
Rp1400
(dp1401
g14
Vprep
p1402
sbatp1403
Rp1404
(dp1405
g14
S'word: pulled, index: 6'
p1406
sbatp1407
Rp1408
(dp1409
g14
Vrcmod
p1410
sbatp1411
Rp1412
(dp1413
g14
S'word: hair, index: 5'
p1414
sbatp1415
Rp1416
(dp1417
g14
Vdobj
p1418
sbag0
(g1
g2
(lp1419
g0
(g1
g2
(lp1420
g0
(g1
g2
(lp1421
(lp1422
S'word: The, index: 1'
p1423
aatp1424
Rp1425
(dp1426
g14
Vdet
p1427
sbatp1428
Rp1429
(dp1430
g14
S'word: woman, index: 2'
p1431
sbatp1432
Rp1433
(dp1434
g14
Vnsubj
p1435
sbatp1436
Rp1437
(dp1438
g14
S'word: has, index: 3'
p1439
sbatp1440
Rp1441
(dp1442
g14
S'id: 17'
p1443
sbag0
(g1
g2
(lp1444
g0
(g1
g2
(lp1445
g0
(g1
g2
(lp1446
(lp1447
S'word: There, index: 1'
p1448
aatp1449
Rp1450
(dp1451
g14
Vexpl
p1452
sbag0
(g1
g2
(lp1453
g0
(g1
g2
(lp1454
g0
(g1
g2
(lp1455
g0
(g1
g2
(lp1456
g0
(g1
g2
(lp1457
(lp1458
S'word: a, index: 6'
p1459
aatp1460
Rp1461
(dp1462
g14
Vdet
p1463
sbag0
(g1
g2
(lp1464
(lp1465
S'word: lunch, index: 7'
p1466
aatp1467
Rp1468
(dp1469
g14
Vnn
p1470
sbag0
(g1
g2
(lp1471
(lp1472
S'word: that, index: 9'
p1473
aatp1474
Rp1475
(dp1476
g14
Vrcmod
p1477
sbatp1478
Rp1479
(dp1480
g14
S'word: bucket, index: 8'
p1481
sbatp1482
Rp1483
(dp1484
g14
Vappos
p1485
sbag0
(g1
g2
(lp1486
(lp1487
S'word: a, index: 3'
p1488
aatp1489
Rp1490
(dp1491
g14
Vdet
p1492
sbatp1493
Rp1494
(dp1495
g14
S'word: lunch, index: 4'
p1496
sbatp1497
Rp1498
(dp1499
g14
Vnsubj
p1500
sbatp1501
Rp1502
(dp1503
g14
S"word: 's, index: 2"
p1504
sbatp1505
Rp1506
(dp1507
g14
S'id: 18'
p1508
sbag0
(g1
g2
(lp1509
g0
(g1
g2
(lp1510
g0
(g1
g2
(lp1511
g0
(g1
g2
(lp1512
g0
(g1
g2
(lp1513
(lp1514
S'word: the, index: 15'
p1515
aatp1516
Rp1517
(dp1518
g14
Vdet
p1519
sbatp1520
Rp1521
(dp1522
g14
S'word: wine, index: 16'
p1523
sbatp1524
Rp1525
(dp1526
g14
Vdobj
p1527
sbag0
(g1
g2
(lp1528
g0
(g1
g2
(lp1529
g0
(g1
g2
(lp1530
(lp1531
S'word: she, index: 13'
p1532
aatp1533
Rp1534
(dp1535
g14
Vprep
p1536
sbag0
(g1
g2
(lp1537
(lp1538
S'word: That, index: 1'
p1539
aatp1540
Rp1541
(dp1542
g14
Vmark
p1543
sbag0
(g1
g2
(lp1544
g0
(g1
g2
(lp1545
g0
(g1
g2
(lp1546
(lp1547
S'word: the, index: 2'
p1548
aatp1549
Rp1550
(dp1551
g14
Vdet
p1552
sbatp1553
Rp1554
(dp1555
g14
S'word: woman, index: 3'
p1556
sbatp1557
Rp1558
(dp1559
g14
Vnsubj
p1560
sbag0
(g1
g2
(lp1561
g0
(g1
g2
(lp1562
g0
(g1
g2
(lp1563
g0
(g1
g2
(lp1564
g0
(g1
g2
(lp1565
(lp1566
S'word: the, index: 8'
p1567
aatp1568
Rp1569
(dp1570
g14
Vdet
p1571
sbatp1572
Rp1573
(dp1574
g14
S'word: glass, index: 9'
p1575
sbatp1576
Rp1577
(dp1578
g14
Vdobj
p1579
sbag0
(g1
g2
(lp1580
(lp1581
S'word: on, index: 10'
p1582
aatp1583
Rp1584
(dp1585
g14
Vprep
p1586
sbag0
(g1
g2
(lp1587
(lp1588
S'word: to, index: 5'
p1589
aatp1590
Rp1591
(dp1592
g14
Vaux
p1593
sbag0
(g1
g2
(lp1594
(lp1595
S'word: be, index: 6'
p1596
aatp1597
Rp1598
(dp1599
g14
Vaux
p1600
sbatp1601
Rp1602
(dp1603
g14
S'word: setting, index: 7'
p1604
sbatp1605
Rp1606
(dp1607
g14
Vxcomp
p1608
sbatp1609
Rp1610
(dp1611
g14
S'word: appears, index: 4'
p1612
sbatp1613
Rp1614
(dp1615
g14
Vcsubj
p1616
sbatp1617
Rp1618
(dp1619
g14
S'word: pours, index: 14'
p1620
sbatp1621
Rp1622
(dp1623
g14
S'id: 19'
p1624
sbag0
(g1
g2
(lp1625
g0
(g1
g2
(lp1626
g0
(g1
g2
(lp1627
g0
(g1
g2
(lp1628
g0
(g1
g2
(lp1629
(lp1630
S'word: The, index: 1'
p1631
aatp1632
Rp1633
(dp1634
g14
Vdet
p1635
sbag0
(g1
g2
(lp1636
(lp1637
S'word: bot, index: 2'
p1638
aatp1639
Rp1640
(dp1641
g14
Vnn
p1642
sbatp1643
Rp1644
(dp1645
g14
S'word: suits, index: 3'
p1646
sbatp1647
Rp1648
(dp1649
g14
Vnsubj
p1650
sbag0
(g1
g2
(lp1651
g0
(g1
g2
(lp1652
g0
(g1
g2
(lp1653
(lp1654
S'word: three, index: 4'
p1655
aatp1656
Rp1657
(dp1658
g14
Vnum
p1659
sbatp1660
Rp1661
(dp1662
g14
S'word: clothes, index: 5'
p1663
sbatp1664
Rp1665
(dp1666
g14
Vdep
p1667
sbag0
(g1
g2
(lp1668
(lp1669
S'word: right, index: 6'
p1670
aatp1671
Rp1672
(dp1673
g14
Vadvmod
p1674
sbatp1675
Rp1676
(dp1677
g14
S'word: now, index: 7'
p1678
sbatp1679
Rp1680
(dp1681
g14
S'id: 20'
p1682
sbag0
(g1
g2
(lp1683
g0
(g1
g2
(lp1684
g0
(g1
g2
(lp1685
g0
(g1
g2
(lp1686
g0
(g1
g2
(lp1687
(lp1688
S'word: The, index: 1'
p1689
aatp1690
Rp1691
(dp1692
g14
Vdet
p1693
sbatp1694
Rp1695
(dp1696
g14
S'word: boy, index: 2'
p1697
sbatp1698
Rp1699
(dp1700
g14
Vnsubj
p1701
sbag0
(g1
g2
(lp1702
(lp1703
S'word: is, index: 3'
p1704
aatp1705
Rp1706
(dp1707
g14
Vaux
p1708
sbag0
(g1
g2
(lp1709
g0
(g1
g2
(lp1710
g0
(g1
g2
(lp1711
(lp1712
S'word: sox, index: 7'
p1713
aatp1714
Rp1715
(dp1716
g14
Vconj
p1717
sbatp1718
Rp1719
(dp1720
g14
S'word: t-shoes, index: 5'
p1721
sbatp1722
Rp1723
(dp1724
g14
Vdobj
p1725
sbag0
(g1
g2
(lp1726
(lp1727
S'word: sox, index: 7'
p1728
aatp1729
Rp1730
(dp1731
g14
Vdobj
p1732
sbatp1733
Rp1734
(dp1735
g14
S'word: wearing, index: 4'
p1736
sbatp1737
Rp1738
(dp1739
g14
S'id: 21'
p1740
sbag0
(g1
g2
(lp1741
g0
(g1
g2
(lp1742
g0
(g1
g2
(lp1743
g0
(g1
g2
(lp1744
g0
(g1
g2
(lp1745
g0
(g1
g2
(lp1746
g0
(g1
g2
(lp1747
(lp1748
S'word: The, index: 1'
p1749
aatp1750
Rp1751
(dp1752
g14
Vdet
p1753
sbatp1754
Rp1755
(dp1756
g14
S'word: dog, index: 2'
p1757
sbatp1758
Rp1759
(dp1760
g14
Vnsubj
p1761
sbag0
(g1
g2
(lp1762
g0
(g1
g2
(lp1763
g0
(g1
g2
(lp1764
(lp1765
S'word: a, index: 4'
p1766
aatp1767
Rp1768
(dp1769
g14
Vdet
p1770
sbatp1771
Rp1772
(dp1773
g14
S'word: collar, index: 5'
p1774
sbatp1775
Rp1776
(dp1777
g14
Vdobj
p1778
sbag0
(g1
g2
(lp1779
g0
(g1
g2
(lp1780
g0
(g1
g2
(lp1781
(lp1782
S'word: he, index: 8'
p1783
aatp1784
Rp1785
(dp1786
g14
Vnsubj
p1787
sbatp1788
Rp1789
(dp1790
g14
S'word: has, index: 9'
p1791
sbatp1792
Rp1793
(dp1794
g14
Vconj
p1795
sbatp1796
Rp1797
(dp1798
g14
S'word: has, index: 3'
p1799
sbatp1800
Rp1801
(dp1802
g14
Vccomp
p1803
sbag0
(g1
g2
(lp1804
g1789
atp1805
Rp1806
(dp1807
g14
Vccomp
p1808
sbag0
(g1
g2
(lp1809
(lp1810
S'word: I, index: 11'
p1811
aatp1812
Rp1813
(dp1814
g14
Vnsubj
p1815
sbag0
(g1
g2
(lp1816
g0
(g1
g2
(lp1817
g0
(g1
g2
(lp1818
g0
(g1
g2
(lp1819
g0
(g1
g2
(lp1820
g0
(g1
g2
(lp1821
g0
(g1
g2
(lp1822
(lp1823
S'word: the, index: 17'
p1824
aatp1825
Rp1826
(dp1827
g14
Vdet
p1828
sbatp1829
Rp1830
(dp1831
g14
S'word: collar, index: 18'
p1832
sbatp1833
Rp1834
(dp1835
g14
Vprep
p1836
sbag0
(g1
g2
(lp1837
g0
(g1
g2
(lp1838
g0
(g1
g2
(lp1839
g0
(g1
g2
(lp1840
g0
(g1
g2
(lp1841
(lp1842
S'word: the, index: 21'
p1843
aatp1844
Rp1845
(dp1846
g14
Vdet
p1847
sbatp1848
Rp1849
(dp1850
g14
S'word: bevisis, index: 22'
p1851
sbatp1852
Rp1853
(dp1854
g14
Vappos
p1855
sbatp1856
Rp1857
(dp1858
g14
S'word: the, index: 19'
p1859
sbatp1860
Rp1861
(dp1862
g14
Vnsubj
p1863
sbag0
(g1
g2
(lp1864
(lp1865
S'word: there, index: 14'
p1866
aatp1867
Rp1868
(dp1869
g14
Vexpl
p1870
sbatp1871
Rp1872
(dp1873
g14
S"word: 's, index: 15"
p1874
sbatp1875
Rp1876
(dp1877
g14
Vrcmod
p1878
sbatp1879
Rp1880
(dp1881
g14
S'word: identification, index: 13'
p1882
sbatp1883
Rp1884
(dp1885
g14
Vdobj
p1886
sbatp1887
Rp1888
(dp1889
g14
S'word: guess, index: 12'
p1890
sbatp1891
Rp1892
(dp1893
g14
S'id: 22'
p1894
sbag0
(g1
g2
(lp1895
g0
(g1
g2
(lp1896
g0
(g1
g2
(lp1897
g0
(g1
g2
(lp1898
g0
(g1
g2
(lp1899
(lp1900
S'word: be, index: 6'
p1901
aatp1902
Rp1903
(dp1904
g14
Vcop
p1905
sbag0
(g1
g2
(lp1906
(lp1907
S'word: a, index: 7'
p1908
aatp1909
Rp1910
(dp1911
g14
Vdet
p1912
sbag0
(g1
g2
(lp1913
(lp1914
S'word: big, index: 8'
p1915
aatp1916
Rp1917
(dp1918
g14
Vamod
p1919
sbag0
(g1
g2
(lp1920
g0
(g1
g2
(lp1921
g0
(g1
g2
(lp1922
(lp1923
S'word: because, index: 10'
p1924
aatp1925
Rp1926
(dp1927
g14
Vmark
p1928
sbag0
(g1
g2
(lp1929
(lp1930
S'word: there, index: 11'
p1931
aatp1932
Rp1933
(dp1934
g14
Vexpl
p1935
sbag0
(g1
g2
(lp1936
g0
(g1
g2
(lp1937
g0
(g1
g2
(lp1938
g0
(g1
g2
(lp1939
g0
(g1
g2
(lp1940
(lp1941
S'word: the, index: 15'
p1942
aatp1943
Rp1944
(dp1945
g14
Vdet
p1946
sbatp1947
Rp1948
(dp1949
g14
S'word: sailboat, index: 16'
p1950
sbatp1951
Rp1952
(dp1953
g14
Vprep
p1954
sbatp1955
Rp1956
(dp1957
g14
S'word: trees, index: 13'
p1958
sbatp1959
Rp1960
(dp1961
g14
Vnsubj
p1962
sbatp1963
Rp1964
(dp1965
g14
S"word: 's, index: 12"
p1966
sbatp1967
Rp1968
(dp1969
g14
Vadvcl
p1970
sbatp1971
Rp1972
(dp1973
g14
S'word: lake, index: 9'
p1974
sbatp1975
Rp1976
(dp1977
g14
Vnsubj
p1978
sbag0
(g1
g2
(lp1979
g0
(g1
g2
(lp1980
g0
(g1
g2
(lp1981
(lp1982
S'word: There, index: 1'
p1983
aatp1984
Rp1985
(dp1986
g14
Vexpl
p1987
sbatp1988
Rp1989
(dp1990
g14
S'word: appear, index: 2'
p1991
sbatp1992
Rp1993
(dp1994
g14
Vccomp
p1995
sbag0
(g1
g2
(lp1996
(lp1997
S'word: there, index: 4'
p1998
aatp1999
Rp2000
(dp2001
g14
Vexpl
p2002
sbatp2003
Rp2004
(dp2005
g14
S'word: appears, index: 5'
p2006
sbatp2007
Rp2008
(dp2009
g14
S'id: 23'
p2010
sbag0
(g1
g2
(lp2011
tp2012
Rp2013
(dp2014
g14
S'id: 24'
p2015
sbatp2016
Rp2017
(dp2018
g14
S'sentences'
p2019
sb.