ccopy_reg
_reconstructor
p0
(cnltk.tree
Tree
p1
c__builtin__
list
p2
(lp3
g0
(g1
g2
(lp4
g0
(g1
g2
(lp5
g0
(g1
g2
(lp6
g0
(g1
g2
(lp7
VSeems
p8
atp9
Rp10
(dp11
S'_label'
p12
VVBZ
p13
sbag0
(g1
g2
(lp14
g0
(g1
g2
(lp15
Vlike
p16
atp17
Rp18
(dp19
g12
VIN
p20
sbag0
(g1
g2
(lp21
g0
(g1
g2
(lp22
g0
(g1
g2
(lp23
Vthey
p24
atp25
Rp26
(dp27
g12
VPRP
p28
sbatp29
Rp30
(dp31
g12
VNP
p32
sbag0
(g1
g2
(lp33
g0
(g1
g2
(lp34
V're
p35
atp36
Rp37
(dp38
g12
VVBP
p39
sbag0
(g1
g2
(lp40
g0
(g1
g2
(lp41
Vat
p42
atp43
Rp44
(dp45
g12
VIN
p46
sbag0
(g1
g2
(lp47
g0
(g1
g2
(lp48
Va
p49
atp50
Rp51
(dp52
g12
VDT
p53
sbag0
(g1
g2
(lp54
Vcircus
p55
atp56
Rp57
(dp58
g12
VNN
p59
sbatp60
Rp61
(dp62
g12
VNP
p63
sbatp64
Rp65
(dp66
g12
VPP
p67
sbatp68
Rp69
(dp70
g12
VVP
p71
sbatp72
Rp73
(dp74
g12
VS
p75
sbatp76
Rp77
(dp78
g12
VSBAR
p79
sbatp80
Rp81
(dp82
g12
VVP
p83
sbag0
(g1
g2
(lp84
V.
p85
atp86
Rp87
(dp88
g12
V.
p89
sbatp90
Rp91
(dp92
g12
VS
p93
sbatp94
Rp95
(dp96
g12
S'id: 0'
p97
sbag0
(g1
g2
(lp98
g0
(g1
g2
(lp99
g0
(g1
g2
(lp100
g0
(g1
g2
(lp101
VSee
p102
atp103
Rp104
(dp105
g12
VVB
p106
sbag0
(g1
g2
(lp107
g0
(g1
g2
(lp108
g0
(g1
g2
(lp109
Va
p110
atp111
Rp112
(dp113
g12
VDT
p114
sbag0
(g1
g2
(lp115
Va
p116
atp117
Rp118
(dp119
g12
VDT
p120
sbag0
(g1
g2
(lp121
Vlion
p122
atp123
Rp124
(dp125
g12
VNN
p126
sbatp127
Rp128
(dp129
g12
VNP
p130
sbag0
(g1
g2
(lp131
g0
(g1
g2
(lp132
Vin
p133
atp134
Rp135
(dp136
g12
VIN
p137
sbag0
(g1
g2
(lp138
g0
(g1
g2
(lp139
Va
p140
atp141
Rp142
(dp143
g12
VDT
p144
sbag0
(g1
g2
(lp145
Vcage
p146
atp147
Rp148
(dp149
g12
VNN
p150
sbatp151
Rp152
(dp153
g12
VNP
p154
sbatp155
Rp156
(dp157
g12
VPP
p158
sbatp159
Rp160
(dp161
g12
VNP
p162
sbag0
(g1
g2
(lp163
V,
p164
atp165
Rp166
(dp167
g12
V,
p168
sbag0
(g1
g2
(lp169
g0
(g1
g2
(lp170
Vwith
p171
atp172
Rp173
(dp174
g12
VIN
p175
sbag0
(g1
g2
(lp176
g0
(g1
g2
(lp177
g0
(g1
g2
(lp178
Va
p179
atp180
Rp181
(dp182
g12
VDT
p183
sbag0
(g1
g2
(lp184
Vman
p185
atp186
Rp187
(dp188
g12
VNN
p189
sbatp190
Rp191
(dp192
g12
VNP
p193
sbag0
(g1
g2
(lp194
g0
(g1
g2
(lp195
Vwith
p196
atp197
Rp198
(dp199
g12
VIN
p200
sbag0
(g1
g2
(lp201
g0
(g1
g2
(lp202
g0
(g1
g2
(lp203
Va
p204
atp205
Rp206
(dp207
g12
VDT
p208
sbag0
(g1
g2
(lp209
Vtuxedo
p210
atp211
Rp212
(dp213
g12
VNN
p214
sbatp215
Rp216
(dp217
g12
VNP
p218
sbag0
(g1
g2
(lp219
g0
(g1
g2
(lp220
Von
p221
atp222
Rp223
(dp224
g12
VIN
p225
sbatp226
Rp227
(dp228
g12
VPP
p229
sbatp230
Rp231
(dp232
g12
VNP
p233
sbatp234
Rp235
(dp236
g12
VPP
p237
sbatp238
Rp239
(dp240
g12
VNP
p241
sbatp242
Rp243
(dp244
g12
VPP
p245
sbatp246
Rp247
(dp248
g12
VVP
p249
sbag0
(g1
g2
(lp250
V.
p251
atp252
Rp253
(dp254
g12
V.
p255
sbatp256
Rp257
(dp258
g12
VS
p259
sbatp260
Rp261
(dp262
g12
S'id: 1'
p263
sbag0
(g1
g2
(lp264
g0
(g1
g2
(lp265
g0
(g1
g2
(lp266
g0
(g1
g2
(lp267
g0
(g1
g2
(lp268
VThey
p269
atp270
Rp271
(dp272
g12
VPRP
p273
sbatp274
Rp275
(dp276
g12
VNP
p277
sbag0
(g1
g2
(lp278
g0
(g1
g2
(lp279
Vhave
p280
atp281
Rp282
(dp283
g12
VVBP
p284
sbag0
(g1
g2
(lp285
g0
(g1
g2
(lp286
g0
(g1
g2
(lp287
Va
p288
atp289
Rp290
(dp291
g12
VDT
p292
sbatp293
Rp294
(dp295
g12
VNP
p296
sbag0
(g1
g2
(lp297
V,
p298
atp299
Rp300
(dp301
g12
V,
p302
sbag0
(g1
g2
(lp303
g0
(g1
g2
(lp304
g0
(g1
g2
(lp305
Va
p306
atp307
Rp308
(dp309
g12
VDT
p310
sbag0
(g1
g2
(lp311
Vwire
p312
atp313
Rp314
(dp315
g12
VNN
p316
sbatp317
Rp318
(dp319
g12
VNP
p320
sbag0
(g1
g2
(lp321
g0
(g1
g2
(lp322
Vrunning
p323
atp324
Rp325
(dp326
g12
VVBG
p327
sbag0
(g1
g2
(lp328
g0
(g1
g2
(lp329
Vover
p330
atp331
Rp332
(dp333
g12
VIN
p334
sbag0
(g1
g2
(lp335
g0
(g1
g2
(lp336
Vthe
p337
atp338
Rp339
(dp340
g12
VDT
p341
sbag0
(g1
g2
(lp342
Vthing
p343
atp344
Rp345
(dp346
g12
VNN
p347
sbatp348
Rp349
(dp350
g12
VNP
p351
sbatp352
Rp353
(dp354
g12
VPP
p355
sbatp356
Rp357
(dp358
g12
VVP
p359
sbatp360
Rp361
(dp362
g12
VNP
p363
sbatp364
Rp365
(dp366
g12
VNP
p367
sbatp368
Rp369
(dp370
g12
VVP
p371
sbatp372
Rp373
(dp374
g12
VS
p375
sbag0
(g1
g2
(lp376
V,
p377
atp378
Rp379
(dp380
g12
V,
p381
sbag0
(g1
g2
(lp382
Vand
p383
atp384
Rp385
(dp386
g12
VCC
p387
sbag0
(g1
g2
(lp388
g0
(g1
g2
(lp389
g0
(g1
g2
(lp390
Vthe
p391
atp392
Rp393
(dp394
g12
VDT
p395
sbag0
(g1
g2
(lp396
Vman
p397
atp398
Rp399
(dp400
g12
VNN
p401
sbatp402
Rp403
(dp404
g12
VNP
p405
sbag0
(g1
g2
(lp406
g0
(g1
g2
(lp407
Vis
p408
atp409
Rp410
(dp411
g12
VVBZ
p412
sbag0
(g1
g2
(lp413
g0
(g1
g2
(lp414
Vtrying
p415
atp416
Rp417
(dp418
g12
VVBG
p419
sbag0
(g1
g2
(lp420
g0
(g1
g2
(lp421
g0
(g1
g2
(lp422
Vto
p423
atp424
Rp425
(dp426
g12
VTO
p427
sbag0
(g1
g2
(lp428
g0
(g1
g2
(lp429
Vwalk
p430
atp431
Rp432
(dp433
g12
VVB
p434
sbag0
(g1
g2
(lp435
g0
(g1
g2
(lp436
Vthe
p437
atp438
Rp439
(dp440
g12
VDT
p441
sbag0
(g1
g2
(lp442
Vwire
p443
atp444
Rp445
(dp446
g12
VNN
p447
sbatp448
Rp449
(dp450
g12
VNP
p451
sbag0
(g1
g2
(lp452
g0
(g1
g2
(lp453
Vwith
p454
atp455
Rp456
(dp457
g12
VIN
p458
sbag0
(g1
g2
(lp459
g0
(g1
g2
(lp460
g0
(g1
g2
(lp461
Va
p462
atp463
Rp464
(dp465
g12
VDT
p466
sbatp467
Rp468
(dp469
g12
VNP
p470
sbag0
(g1
g2
(lp471
V,
p472
atp473
Rp474
(dp475
g12
V,
p476
sbag0
(g1
g2
(lp477
g0
(g1
g2
(lp478
g0
(g1
g2
(lp479
Va
p480
atp481
Rp482
(dp483
g12
VDT
p484
sbatp485
Rp486
(dp487
g12
VNP
p488
sbag0
(g1
g2
(lp489
V,
p490
atp491
Rp492
(dp493
g12
V,
p494
sbag0
(g1
g2
(lp495
g0
(g1
g2
(lp496
g0
(g1
g2
(lp497
Va
p498
atp499
Rp500
(dp501
g12
VDT
p502
sbag0
(g1
g2
(lp503
Vbar
p504
atp505
Rp506
(dp507
g12
VNN
p508
sbatp509
Rp510
(dp511
g12
VNP
p512
sbag0
(g1
g2
(lp513
g0
(g1
g2
(lp514
Vin
p515
atp516
Rp517
(dp518
g12
VIN
p519
sbag0
(g1
g2
(lp520
g0
(g1
g2
(lp521
Vhis
p522
atp523
Rp524
(dp525
g12
VPRP$
p526
sbag0
(g1
g2
(lp527
Vhand
p528
atp529
Rp530
(dp531
g12
VNN
p532
sbatp533
Rp534
(dp535
g12
VNP
p536
sbatp537
Rp538
(dp539
g12
VPP
p540
sbatp541
Rp542
(dp543
g12
VNP
p544
sbatp545
Rp546
(dp547
g12
VNP
p548
sbatp549
Rp550
(dp551
g12
VNP
p552
sbatp553
Rp554
(dp555
g12
VPP
p556
sbatp557
Rp558
(dp559
g12
VVP
p560
sbatp561
Rp562
(dp563
g12
VVP
p564
sbatp565
Rp566
(dp567
g12
VS
p568
sbatp569
Rp570
(dp571
g12
VVP
p572
sbatp573
Rp574
(dp575
g12
VVP
p576
sbatp577
Rp578
(dp579
g12
VS
p580
sbag0
(g1
g2
(lp581
V.
p582
atp583
Rp584
(dp585
g12
V.
p586
sbatp587
Rp588
(dp589
g12
VS
p590
sbatp591
Rp592
(dp593
g12
S'id: 2'
p594
sbag0
(g1
g2
(lp595
g0
(g1
g2
(lp596
g0
(g1
g2
(lp597
g0
(g1
g2
(lp598
g0
(g1
g2
(lp599
VSome
p600
atp601
Rp602
(dp603
g12
VDT
p604
sbag0
(g1
g2
(lp605
Vpeople
p606
atp607
Rp608
(dp609
g12
VNNS
p610
sbatp611
Rp612
(dp613
g12
VNP
p614
sbag0
(g1
g2
(lp615
g0
(g1
g2
(lp616
Vsitting
p617
atp618
Rp619
(dp620
g12
VVBG
p621
sbag0
(g1
g2
(lp622
g0
(g1
g2
(lp623
Vthere
p624
atp625
Rp626
(dp627
g12
VRB
p628
sbatp629
Rp630
(dp631
g12
VADVP
p632
sbag0
(g1
g2
(lp633
g0
(g1
g2
(lp634
g0
(g1
g2
(lp635
Vwatching
p636
atp637
Rp638
(dp639
g12
VVBG
p640
sbatp641
Rp642
(dp643
g12
VVP
p644
sbatp645
Rp646
(dp647
g12
VS
p648
sbatp649
Rp650
(dp651
g12
VVP
p652
sbatp653
Rp654
(dp655
g12
VS
p656
sbag0
(g1
g2
(lp657
g0
(g1
g2
(lp658
V,
p659
atp660
Rp661
(dp662
g12
V,
p663
sbag0
(g1
g2
(lp664
g0
(g1
g2
(lp665
g0
(g1
g2
(lp666
Vit
p667
atp668
Rp669
(dp670
g12
VPRP
p671
sbatp672
Rp673
(dp674
g12
VNP
p675
sbag0
(g1
g2
(lp676
g0
(g1
g2
(lp677
V's
p678
atp679
Rp680
(dp681
g12
VVBZ
p682
sbag0
(g1
g2
(lp683
g0
(g1
g2
(lp684
g0
(g1
g2
(lp685
Vtwo
p686
atp687
Rp688
(dp689
g12
VCD
p690
sbatp691
Rp692
(dp693
g12
VNP
p694
sbag0
(g1
g2
(lp695
V,
p696
atp697
Rp698
(dp699
g12
V,
p700
sbag0
(g1
g2
(lp701
g0
(g1
g2
(lp702
Vfour
p703
atp704
Rp705
(dp706
g12
VCD
p707
sbatp708
Rp709
(dp710
g12
VNP
p711
sbag0
(g1
g2
(lp712
V,
p713
atp714
Rp715
(dp716
g12
V,
p717
sbag0
(g1
g2
(lp718
g0
(g1
g2
(lp719
g0
(g1
g2
(lp720
Vfive
p721
atp722
Rp723
(dp724
g12
VCD
p725
sbag0
(g1
g2
(lp726
Vpeople
p727
atp728
Rp729
(dp730
g12
VNNS
p731
sbatp732
Rp733
(dp734
g12
VNP
p735
sbag0
(g1
g2
(lp736
g0
(g1
g2
(lp737
Vsitting
p738
atp739
Rp740
(dp741
g12
VVBG
p742
sbag0
(g1
g2
(lp743
g0
(g1
g2
(lp744
Vthere
p745
atp746
Rp747
(dp748
g12
VRB
p749
sbatp750
Rp751
(dp752
g12
VADVP
p753
sbag0
(g1
g2
(lp754
g0
(g1
g2
(lp755
g0
(g1
g2
(lp756
Vwatching
p757
atp758
Rp759
(dp760
g12
VVBG
p761
sbag0
(g1
g2
(lp762
g0
(g1
g2
(lp763
Vthe
p764
atp765
Rp766
(dp767
g12
VDT
p768
sbag0
(g1
g2
(lp769
Vlungly
p770
atp771
Rp772
(dp773
g12
VJJ
p774
sbag0
(g1
g2
(lp775
Vlady
p776
atp777
Rp778
(dp779
g12
VNN
p780
sbatp781
Rp782
(dp783
g12
VNP
p784
sbag0
(g1
g2
(lp785
g0
(g1
g2
(lp786
Von
p787
atp788
Rp789
(dp790
g12
VIN
p791
sbag0
(g1
g2
(lp792
g0
(g1
g2
(lp793
Va
p794
atp795
Rp796
(dp797
g12
VDT
p798
sbag0
(g1
g2
(lp799
Vhorse
p800
atp801
Rp802
(dp803
g12
VNN
p804
sbatp805
Rp806
(dp807
g12
VNP
p808
sbatp809
Rp810
(dp811
g12
VPP
p812
sbatp813
Rp814
(dp815
g12
VVP
p816
sbatp817
Rp818
(dp819
g12
VS
p820
sbatp821
Rp822
(dp823
g12
VVP
p824
sbatp825
Rp826
(dp827
g12
VNP
p828
sbag0
(g1
g2
(lp829
V,
p830
atp831
Rp832
(dp833
g12
V,
p834
sbag0
(g1
g2
(lp835
g0
(g1
g2
(lp836
Vin
p837
atp838
Rp839
(dp840
g12
VIN
p841
sbag0
(g1
g2
(lp842
g0
(g1
g2
(lp843
Va
p844
atp845
Rp846
(dp847
g12
VDT
p848
sbag0
(g1
g2
(lp849
Vring
p850
atp851
Rp852
(dp853
g12
VNN
p854
sbatp855
Rp856
(dp857
g12
VNP
p858
sbatp859
Rp860
(dp861
g12
VPP
p862
sbatp863
Rp864
(dp865
g12
VNP
p866
sbatp867
Rp868
(dp869
g12
VVP
p870
sbatp871
Rp872
(dp873
g12
VS
p874
sbag0
(g1
g2
(lp875
V,
p876
atp877
Rp878
(dp879
g12
V,
p880
sbatp881
Rp882
(dp883
g12
VPRN
p884
sbag0
(g1
g2
(lp885
Vand
p886
atp887
Rp888
(dp889
g12
VCC
p890
sbag0
(g1
g2
(lp891
g0
(g1
g2
(lp892
g0
(g1
g2
(lp893
Vshe
p894
atp895
Rp896
(dp897
g12
VPRP
p898
sbatp899
Rp900
(dp901
g12
VNP
p902
sbag0
(g1
g2
(lp903
g0
(g1
g2
(lp904
V's
p905
atp906
Rp907
(dp908
g12
VVBZ
p909
sbag0
(g1
g2
(lp910
g0
(g1
g2
(lp911
g0
(g1
g2
(lp912
Va
p913
atp914
Rp915
(dp916
g12
VDT
p917
sbatp918
Rp919
(dp920
g12
VNP
p921
sbag0
(g1
g2
(lp922
V,
p923
atp924
Rp925
(dp926
g12
V,
p927
sbag0
(g1
g2
(lp928
g0
(g1
g2
(lp929
Vlike
p930
atp931
Rp932
(dp933
g12
VIN
p934
sbag0
(g1
g2
(lp935
g0
(g1
g2
(lp936
Va
p937
atp938
Rp939
(dp940
g12
VDT
p941
sbag0
(g1
g2
(lp942
Vlittle
p943
atp944
Rp945
(dp946
g12
VJJ
p947
sbag0
(g1
g2
(lp948
Vballerina
p949
atp950
Rp951
(dp952
g12
VNN
p953
sbatp954
Rp955
(dp956
g12
VNP
p957
sbatp958
Rp959
(dp960
g12
VPP
p961
sbag0
(g1
g2
(lp962
V,
p963
atp964
Rp965
(dp966
g12
V,
p967
sbag0
(g1
g2
(lp968
Vor
p969
atp970
Rp971
(dp972
g12
VCC
p973
sbag0
(g1
g2
(lp974
g0
(g1
g2
(lp975
Vsomething
p976
atp977
Rp978
(dp979
g12
VNN
p980
sbatp981
Rp982
(dp983
g12
VNP
p984
sbatp985
Rp986
(dp987
g12
VNP
p988
sbatp989
Rp990
(dp991
g12
VVP
p992
sbatp993
Rp994
(dp995
g12
VS
p996
sbag0
(g1
g2
(lp997
V.
p998
atp999
Rp1000
(dp1001
g12
V.
p1002
sbatp1003
Rp1004
(dp1005
g12
VS
p1006
sbatp1007
Rp1008
(dp1009
g12
S'id: 3'
p1010
sbag0
(g1
g2
(lp1011
g0
(g1
g2
(lp1012
g0
(g1
g2
(lp1013
VAnd
p1014
atp1015
Rp1016
(dp1017
g12
VCC
p1018
sbag0
(g1
g2
(lp1019
g0
(g1
g2
(lp1020
Vthe
p1021
atp1022
Rp1023
(dp1024
g12
VDT
p1025
sbag0
(g1
g2
(lp1026
Vclown
p1027
atp1028
Rp1029
(dp1030
g12
VNN
p1031
sbatp1032
Rp1033
(dp1034
g12
VNP
p1035
sbag0
(g1
g2
(lp1036
g0
(g1
g2
(lp1037
Vseem
p1038
atp1039
Rp1040
(dp1041
g12
VVBP
p1042
sbag0
(g1
g2
(lp1043
g0
(g1
g2
(lp1044
Vlike
p1045
atp1046
Rp1047
(dp1048
g12
VIN
p1049
sbag0
(g1
g2
(lp1050
g0
(g1
g2
(lp1051
g0
(g1
g2
(lp1052
Vhe
p1053
atp1054
Rp1055
(dp1056
g12
VPRP
p1057
sbatp1058
Rp1059
(dp1060
g12
VNP
p1061
sbag0
(g1
g2
(lp1062
g0
(g1
g2
(lp1063
V's
p1064
atp1065
Rp1066
(dp1067
g12
VVBZ
p1068
sbag0
(g1
g2
(lp1069
g0
(g1
g2
(lp1070
g0
(g1
g2
(lp1071
Vthrowing
p1072
atp1073
Rp1074
(dp1075
g12
VVBG
p1076
sbag0
(g1
g2
(lp1077
V,
p1078
atp1079
Rp1080
(dp1081
g12
V,
p1082
sbag0
(g1
g2
(lp1083
Vlettng
p1084
atp1085
Rp1086
(dp1087
g12
VVBG
p1088
sbag0
(g1
g2
(lp1089
g0
(g1
g2
(lp1090
g0
(g1
g2
(lp1091
g0
(g1
g2
(lp1092
Vsome
p1093
atp1094
Rp1095
(dp1096
g12
VDT
p1097
sbag0
(g1
g2
(lp1098
Vpopcorn
p1099
atp1100
Rp1101
(dp1102
g12
VNN
p1103
sbatp1104
Rp1105
(dp1106
g12
VNP
p1107
sbag0
(g1
g2
(lp1108
V,
p1109
atp1110
Rp1111
(dp1112
g12
V,
p1113
sbag0
(g1
g2
(lp1114
g0
(g1
g2
(lp1115
g0
(g1
g2
(lp1116
Vsome
p1117
atp1118
Rp1119
(dp1120
g12
VDT
p1121
sbatp1122
Rp1123
(dp1124
g12
VNP
p1125
sbag0
(g1
g2
(lp1126
V,
p1127
atp1128
Rp1129
(dp1130
g12
V,
p1131
sbag0
(g1
g2
(lp1132
g0
(g1
g2
(lp1133
Vsomething
p1134
atp1135
Rp1136
(dp1137
g12
VNN
p1138
sbatp1139
Rp1140
(dp1141
g12
VNP
p1142
sbatp1143
Rp1144
(dp1145
g12
VNP
p1146
sbatp1147
Rp1148
(dp1149
g12
VNP
p1150
sbag0
(g1
g2
(lp1151
g0
(g1
g2
(lp1152
Vgo
p1153
atp1154
Rp1155
(dp1156
g12
VVB
p1157
sbag0
(g1
g2
(lp1158
g0
(g1
g2
(lp1159
Vto
p1160
atp1161
Rp1162
(dp1163
g12
VTO
p1164
sbag0
(g1
g2
(lp1165
g0
(g1
g2
(lp1166
g0
(g1
g2
(lp1167
Vthe
p1168
atp1169
Rp1170
(dp1171
g12
VDT
p1172
sbag0
(g1
g2
(lp1173
Vkids
p1174
atp1175
Rp1176
(dp1177
g12
VNNS
p1178
sbatp1179
Rp1180
(dp1181
g12
VNP
p1182
sbag0
(g1
g2
(lp1183
g0
(g1
g2
(lp1184
g0
(g1
g2
(lp1185
Vthat
p1186
atp1187
Rp1188
(dp1189
g12
VWDT
p1190
sbatp1191
Rp1192
(dp1193
g12
VWHNP
p1194
sbag0
(g1
g2
(lp1195
g0
(g1
g2
(lp1196
g0
(g1
g2
(lp1197
Vare
p1198
atp1199
Rp1200
(dp1201
g12
VVBP
p1202
sbag0
(g1
g2
(lp1203
g0
(g1
g2
(lp1204
Vwatching
p1205
atp1206
Rp1207
(dp1208
g12
VVBG
p1209
sbatp1210
Rp1211
(dp1212
g12
VVP
p1213
sbatp1214
Rp1215
(dp1216
g12
VVP
p1217
sbatp1218
Rp1219
(dp1220
g12
VS
p1221
sbatp1222
Rp1223
(dp1224
g12
VSBAR
p1225
sbatp1226
Rp1227
(dp1228
g12
VNP
p1229
sbatp1230
Rp1231
(dp1232
g12
VPP
p1233
sbatp1234
Rp1235
(dp1236
g12
VVP
p1237
sbatp1238
Rp1239
(dp1240
g12
VS
p1241
sbatp1242
Rp1243
(dp1244
g12
VVP
p1245
sbatp1246
Rp1247
(dp1248
g12
VS
p1249
sbatp1250
Rp1251
(dp1252
g12
VVP
p1253
sbatp1254
Rp1255
(dp1256
g12
VS
p1257
sbatp1258
Rp1259
(dp1260
g12
VSBAR
p1261
sbatp1262
Rp1263
(dp1264
g12
VVP
p1265
sbag0
(g1
g2
(lp1266
V.
p1267
atp1268
Rp1269
(dp1270
g12
V.
p1271
sbatp1272
Rp1273
(dp1274
g12
VS
p1275
sbatp1276
Rp1277
(dp1278
g12
S'id: 4'
p1279
sbag0
(g1
g2
(lp1280
g0
(g1
g2
(lp1281
g0
(g1
g2
(lp1282
g0
(g1
g2
(lp1283
g0
(g1
g2
(lp1284
VSeem
p1285
atp1286
Rp1287
(dp1288
g12
VNNP
p1289
sbatp1290
Rp1291
(dp1292
g12
VNP
p1293
sbag0
(g1
g2
(lp1294
g0
(g1
g2
(lp1295
Vlike
p1296
atp1297
Rp1298
(dp1299
g12
VIN
p1300
sbag0
(g1
g2
(lp1301
g0
(g1
g2
(lp1302
Vit
p1303
atp1304
Rp1305
(dp1306
g12
VPRP
p1307
sbatp1308
Rp1309
(dp1310
g12
VNP
p1311
sbatp1312
Rp1313
(dp1314
g12
VPP
p1315
sbatp1316
Rp1317
(dp1318
g12
VNP
p1319
sbag0
(g1
g2
(lp1320
g0
(g1
g2
(lp1321
V's
p1322
atp1323
Rp1324
(dp1325
g12
VVBZ
p1326
sbag0
(g1
g2
(lp1327
g0
(g1
g2
(lp1328
g0
(g1
g2
(lp1329
g0
(g1
g2
(lp1330
Va
p1331
atp1332
Rp1333
(dp1334
g12
VDT
p1335
sbag0
(g1
g2
(lp1336
Vlady
p1337
atp1338
Rp1339
(dp1340
g12
VNN
p1341
sbatp1342
Rp1343
(dp1344
g12
VNP
p1345
sbag0
(g1
g2
(lp1346
V,
p1347
atp1348
Rp1349
(dp1350
g12
V,
p1351
sbag0
(g1
g2
(lp1352
Vand
p1353
atp1354
Rp1355
(dp1356
g12
VCC
p1357
sbag0
(g1
g2
(lp1358
g0
(g1
g2
(lp1359
Va
p1360
atp1361
Rp1362
(dp1363
g12
VDT
p1364
sbag0
(g1
g2
(lp1365
Vbaby
p1366
atp1367
Rp1368
(dp1369
g12
VNN
p1370
sbatp1371
Rp1372
(dp1373
g12
VNP
p1374
sbag0
(g1
g2
(lp1375
V,
p1376
atp1377
Rp1378
(dp1379
g12
V,
p1380
sbatp1381
Rp1382
(dp1383
g12
VNP
p1384
sbag0
(g1
g2
(lp1385
Vand
p1386
atp1387
Rp1388
(dp1389
g12
VCC
p1390
sbag0
(g1
g2
(lp1391
g0
(g1
g2
(lp1392
g0
(g1
g2
(lp1393
Vanother
p1394
atp1395
Rp1396
(dp1397
g12
VDT
p1398
sbag0
(g1
g2
(lp1399
Vyoung
p1400
atp1401
Rp1402
(dp1403
g12
VJJ
p1404
sbag0
(g1
g2
(lp1405
Vman
p1406
atp1407
Rp1408
(dp1409
g12
VNN
p1410
sbatp1411
Rp1412
(dp1413
g12
VNP
p1414
sbag0
(g1
g2
(lp1415
g0
(g1
g2
(lp1416
Vwatching
p1417
atp1418
Rp1419
(dp1420
g12
VVBG
p1421
sbatp1422
Rp1423
(dp1424
g12
VVP
p1425
sbatp1426
Rp1427
(dp1428
g12
VNP
p1429
sbatp1430
Rp1431
(dp1432
g12
VNP
p1433
sbatp1434
Rp1435
(dp1436
g12
VVP
p1437
sbag0
(g1
g2
(lp1438
V.
p1439
atp1440
Rp1441
(dp1442
g12
V.
p1443
sbatp1444
Rp1445
(dp1446
g12
VS
p1447
sbatp1448
Rp1449
(dp1450
g12
S'id: 5'
p1451
sbag0
(g1
g2
(lp1452
g0
(g1
g2
(lp1453
g0
(g1
g2
(lp1454
g0
(g1
g2
(lp1455
VAnd
p1456
atp1457
Rp1458
(dp1459
g12
VCC
p1460
sbag0
(g1
g2
(lp1461
g0
(g1
g2
(lp1462
Vthere
p1463
atp1464
Rp1465
(dp1466
g12
VEX
p1467
sbatp1468
Rp1469
(dp1470
g12
VNP
p1471
sbag0
(g1
g2
(lp1472
g0
(g1
g2
(lp1473
g0
(g1
g2
(lp1474
V's
p1475
atp1476
Rp1477
(dp1478
g12
VVBZ
p1479
sbatp1480
Rp1481
(dp1482
g12
VVP
p1483
sbag0
(g1
g2
(lp1484
V,
p1485
atp1486
Rp1487
(dp1488
g12
V,
p1489
sbag0
(g1
g2
(lp1490
g0
(g1
g2
(lp1491
Vseems
p1492
atp1493
Rp1494
(dp1495
g12
VVBZ
p1496
sbag0
(g1
g2
(lp1497
g0
(g1
g2
(lp1498
Vlike
p1499
atp1500
Rp1501
(dp1502
g12
VIN
p1503
sbag0
(g1
g2
(lp1504
g0
(g1
g2
(lp1505
g0
(g1
g2
(lp1506
Va
p1507
atp1508
Rp1509
(dp1510
g12
VDT
p1511
sbag0
(g1
g2
(lp1512
Vman
p1513
atp1514
Rp1515
(dp1516
g12
VNN
p1517
sbatp1518
Rp1519
(dp1520
g12
VNP
p1521
sbag0
(g1
g2
(lp1522
Vand
p1523
atp1524
Rp1525
(dp1526
g12
VCC
p1527
sbag0
(g1
g2
(lp1528
g0
(g1
g2
(lp1529
g0
(g1
g2
(lp1530
Vhis
p1531
atp1532
Rp1533
(dp1534
g12
VPRP$
p1535
sbag0
(g1
g2
(lp1536
Vdaughter
p1537
atp1538
Rp1539
(dp1540
g12
VNN
p1541
sbatp1542
Rp1543
(dp1544
g12
VNP
p1545
sbag0
(g1
g2
(lp1546
V,
p1547
atp1548
Rp1549
(dp1550
g12
V,
p1551
sbag0
(g1
g2
(lp1552
g0
(g1
g2
(lp1553
Va
p1554
atp1555
Rp1556
(dp1557
g12
VDT
p1558
sbag0
(g1
g2
(lp1559
Vman
p1560
atp1561
Rp1562
(dp1563
g12
VNN
p1564
sbatp1565
Rp1566
(dp1567
g12
VNP
p1568
sbag0
(g1
g2
(lp1569
Vand
p1570
atp1571
Rp1572
(dp1573
g12
VCC
p1574
sbag0
(g1
g2
(lp1575
g0
(g1
g2
(lp1576
Va
p1577
atp1578
Rp1579
(dp1580
g12
VDT
p1581
sbag0
(g1
g2
(lp1582
Vgir
p1583
atp1584
Rp1585
(dp1586
g12
VNN
p1587
sbatp1588
Rp1589
(dp1590
g12
VNP
p1591
sbatp1592
Rp1593
(dp1594
g12
VNP
p1595
sbatp1596
Rp1597
(dp1598
g12
VNP
p1599
sbatp1600
Rp1601
(dp1602
g12
VPP
p1603
sbag0
(g1
g2
(lp1604
g0
(g1
g2
(lp1605
Vto
p1606
atp1607
Rp1608
(dp1609
g12
VTO
p1610
sbag0
(g1
g2
(lp1611
g0
(g1
g2
(lp1612
g0
(g1
g2
(lp1613
Vthe
p1614
atp1615
Rp1616
(dp1617
g12
VDT
p1618
sbag0
(g1
g2
(lp1619
Vleft
p1620
atp1621
Rp1622
(dp1623
g12
VNN
p1624
sbatp1625
Rp1626
(dp1627
g12
VNP
p1628
sbag0
(g1
g2
(lp1629
g0
(g1
g2
(lp1630
Vof
p1631
atp1632
Rp1633
(dp1634
g12
VIN
p1635
sbag0
(g1
g2
(lp1636
g0
(g1
g2
(lp1637
Vthe
p1638
atp1639
Rp1640
(dp1641
g12
VDT
p1642
sbag0
(g1
g2
(lp1643
Vclown
p1644
atp1645
Rp1646
(dp1647
g12
VNN
p1648
sbatp1649
Rp1650
(dp1651
g12
VNP
p1652
sbatp1653
Rp1654
(dp1655
g12
VPP
p1656
sbatp1657
Rp1658
(dp1659
g12
VNP
p1660
sbatp1661
Rp1662
(dp1663
g12
VPP
p1664
sbatp1665
Rp1666
(dp1667
g12
VVP
p1668
sbatp1669
Rp1670
(dp1671
g12
VVP
p1672
sbatp1673
Rp1674
(dp1675
g12
VS
p1676
sbag0
(g1
g2
(lp1677
V,
p1678
atp1679
Rp1680
(dp1681
g12
V,
p1682
sbag0
(g1
g2
(lp1683
g0
(g1
g2
(lp1684
Vshe
p1685
atp1686
Rp1687
(dp1688
g12
VPRP
p1689
sbatp1690
Rp1691
(dp1692
g12
VNP
p1693
sbag0
(g1
g2
(lp1694
g0
(g1
g2
(lp1695
V's
p1696
atp1697
Rp1698
(dp1699
g12
VVBZ
p1700
sbag0
(g1
g2
(lp1701
g0
(g1
g2
(lp1702
Vpointing
p1703
atp1704
Rp1705
(dp1706
g12
VVBG
p1707
sbag0
(g1
g2
(lp1708
g0
(g1
g2
(lp1709
Vat
p1710
atp1711
Rp1712
(dp1713
g12
VIN
p1714
sbag0
(g1
g2
(lp1715
g0
(g1
g2
(lp1716
Vthe
p1717
atp1718
Rp1719
(dp1720
g12
VDT
p1721
sbag0
(g1
g2
(lp1722
Vclown
p1723
atp1724
Rp1725
(dp1726
g12
VNN
p1727
sbatp1728
Rp1729
(dp1730
g12
VNP
p1731
sbatp1732
Rp1733
(dp1734
g12
VPP
p1735
sbatp1736
Rp1737
(dp1738
g12
VVP
p1739
sbatp1740
Rp1741
(dp1742
g12
VVP
p1743
sbag0
(g1
g2
(lp1744
V.
p1745
atp1746
Rp1747
(dp1748
g12
V.
p1749
sbatp1750
Rp1751
(dp1752
g12
VS
p1753
sbatp1754
Rp1755
(dp1756
g12
S'id: 6'
p1757
sbag0
(g1
g2
(lp1758
g0
(g1
g2
(lp1759
g0
(g1
g2
(lp1760
g0
(g1
g2
(lp1761
g0
(g1
g2
(lp1762
g0
(g1
g2
(lp1763
VThe
p1764
atp1765
Rp1766
(dp1767
g12
VDT
p1768
sbag0
(g1
g2
(lp1769
Vyoung
p1770
atp1771
Rp1772
(dp1773
g12
VJJ
p1774
sbag0
(g1
g2
(lp1775
Vman
p1776
atp1777
Rp1778
(dp1779
g12
VNN
p1780
sbatp1781
Rp1782
(dp1783
g12
VNP
p1784
sbag0
(g1
g2
(lp1785
g0
(g1
g2
(lp1786
Vwith
p1787
atp1788
Rp1789
(dp1790
g12
VIN
p1791
sbag0
(g1
g2
(lp1792
g0
(g1
g2
(lp1793
g0
(g1
g2
(lp1794
Vhis
p1795
atp1796
Rp1797
(dp1798
g12
VPRP$
p1799
sbag0
(g1
g2
(lp1800
Vlady
p1801
atp1802
Rp1803
(dp1804
g12
VNN
p1805
sbatp1806
Rp1807
(dp1808
g12
VNP
p1809
sbag0
(g1
g2
(lp1810
Vand
p1811
atp1812
Rp1813
(dp1814
g12
VCC
p1815
sbag0
(g1
g2
(lp1816
g0
(g1
g2
(lp1817
Va
p1818
atp1819
Rp1820
(dp1821
g12
VDT
p1822
sbag0
(g1
g2
(lp1823
Vbaby
p1824
atp1825
Rp1826
(dp1827
g12
VNN
p1828
sbatp1829
Rp1830
(dp1831
g12
VNP
p1832
sbatp1833
Rp1834
(dp1835
g12
VNP
p1836
sbatp1837
Rp1838
(dp1839
g12
VPP
p1840
sbatp1841
Rp1842
(dp1843
g12
VNP
p1844
sbatp1845
Rp1846
(dp1847
g12
VS
p1848
sbag0
(g1
g2
(lp1849
V,
p1850
atp1851
Rp1852
(dp1853
g12
V,
p1854
sbag0
(g1
g2
(lp1855
g0
(g1
g2
(lp1856
Vhe
p1857
atp1858
Rp1859
(dp1860
g12
VPRP
p1861
sbatp1862
Rp1863
(dp1864
g12
VNP
p1865
sbag0
(g1
g2
(lp1866
g0
(g1
g2
(lp1867
Vgot
p1868
atp1869
Rp1870
(dp1871
g12
VVBD
p1872
sbag0
(g1
g2
(lp1873
g0
(g1
g2
(lp1874
Vhis
p1875
atp1876
Rp1877
(dp1878
g12
VPRP$
p1879
sbag0
(g1
g2
(lp1880
Vhand
p1881
atp1882
Rp1883
(dp1884
g12
VNN
p1885
sbatp1886
Rp1887
(dp1888
g12
VNP
p1889
sbag0
(g1
g2
(lp1890
g0
(g1
g2
(lp1891
Vlike
p1892
atp1893
Rp1894
(dp1895
g12
VIN
p1896
sbag0
(g1
g2
(lp1897
g0
(g1
g2
(lp1898
g0
(g1
g2
(lp1899
Vhe
p1900
atp1901
Rp1902
(dp1903
g12
VPRP
p1904
sbatp1905
Rp1906
(dp1907
g12
VNP
p1908
sbag0
(g1
g2
(lp1909
g0
(g1
g2
(lp1910
V's
p1911
atp1912
Rp1913
(dp1914
g12
VVBZ
p1915
sbag0
(g1
g2
(lp1916
g0
(g1
g2
(lp1917
Vtrying
p1918
atp1919
Rp1920
(dp1921
g12
VVBG
p1922
sbag0
(g1
g2
(lp1923
g0
(g1
g2
(lp1924
g0
(g1
g2
(lp1925
Vto
p1926
atp1927
Rp1928
(dp1929
g12
VTO
p1930
sbag0
(g1
g2
(lp1931
g0
(g1
g2
(lp1932
Vcatch
p1933
atp1934
Rp1935
(dp1936
g12
VVB
p1937
sbag0
(g1
g2
(lp1938
g0
(g1
g2
(lp1939
g0
(g1
g2
(lp1940
Vsome
p1941
atp1942
Rp1943
(dp1944
g12
VDT
p1945
sbatp1946
Rp1947
(dp1948
g12
VNP
p1949
sbag0
(g1
g2
(lp1950
g0
(g1
g2
(lp1951
Vof
p1952
atp1953
Rp1954
(dp1955
g12
VIN
p1956
sbag0
(g1
g2
(lp1957
g0
(g1
g2
(lp1958
g0
(g1
g2
(lp1959
Vthe
p1960
atp1961
Rp1962
(dp1963
g12
VDT
p1964
sbag0
(g1
g2
(lp1965
Vstuff
p1966
atp1967
Rp1968
(dp1969
g12
VNN
p1970
sbatp1971
Rp1972
(dp1973
g12
VNP
p1974
sbag0
(g1
g2
(lp1975
g0
(g1
g2
(lp1976
g0
(g1
g2
(lp1977
Vthat
p1978
atp1979
Rp1980
(dp1981
g12
VWDT
p1982
sbatp1983
Rp1984
(dp1985
g12
VWHNP
p1986
sbag0
(g1
g2
(lp1987
g0
(g1
g2
(lp1988
g0
(g1
g2
(lp1989
V's
p1990
atp1991
Rp1992
(dp1993
g12
VVBZ
p1994
sbag0
(g1
g2
(lp1995
g0
(g1
g2
(lp1996
Vcoming
p1997
atp1998
Rp1999
(dp2000
g12
VVBG
p2001
sbag0
(g1
g2
(lp2002
g0
(g1
g2
(lp2003
Vout
p2004
atp2005
Rp2006
(dp2007
g12
VRB
p2008
sbatp2009
Rp2010
(dp2011
g12
VADVP
p2012
sbag0
(g1
g2
(lp2013
g0
(g1
g2
(lp2014
Vof
p2015
atp2016
Rp2017
(dp2018
g12
VIN
p2019
sbag0
(g1
g2
(lp2020
g0
(g1
g2
(lp2021
Vthe
p2022
atp2023
Rp2024
(dp2025
g12
VDT
p2026
sbag0
(g1
g2
(lp2027
Vclown
p2028
atp2029
Rp2030
(dp2031
g12
VNN
p2032
sbag0
(g1
g2
(lp2033
Vbucket
p2034
atp2035
Rp2036
(dp2037
g12
VNN
p2038
sbatp2039
Rp2040
(dp2041
g12
VNP
p2042
sbatp2043
Rp2044
(dp2045
g12
VPP
p2046
sbatp2047
Rp2048
(dp2049
g12
VVP
p2050
sbatp2051
Rp2052
(dp2053
g12
VVP
p2054
sbatp2055
Rp2056
(dp2057
g12
VS
p2058
sbatp2059
Rp2060
(dp2061
g12
VSBAR
p2062
sbatp2063
Rp2064
(dp2065
g12
VNP
p2066
sbatp2067
Rp2068
(dp2069
g12
VPP
p2070
sbatp2071
Rp2072
(dp2073
g12
VNP
p2074
sbatp2075
Rp2076
(dp2077
g12
VVP
p2078
sbatp2079
Rp2080
(dp2081
g12
VVP
p2082
sbatp2083
Rp2084
(dp2085
g12
VS
p2086
sbatp2087
Rp2088
(dp2089
g12
VVP
p2090
sbatp2091
Rp2092
(dp2093
g12
VVP
p2094
sbatp2095
Rp2096
(dp2097
g12
VS
p2098
sbatp2099
Rp2100
(dp2101
g12
VSBAR
p2102
sbatp2103
Rp2104
(dp2105
g12
VVP
p2106
sbag0
(g1
g2
(lp2107
V.
p2108
atp2109
Rp2110
(dp2111
g12
V.
p2112
sbatp2113
Rp2114
(dp2115
g12
VS
p2116
sbatp2117
Rp2118
(dp2119
g12
S'id: 7'
p2120
sbag0
(g1
g2
(lp2121
g0
(g1
g2
(lp2122
g0
(g1
g2
(lp2123
g0
(g1
g2
(lp2124
VThe
p2125
atp2126
Rp2127
(dp2128
g12
VDT
p2129
sbag0
(g1
g2
(lp2130
Vclown
p2131
atp2132
Rp2133
(dp2134
g12
VNN
p2135
sbatp2136
Rp2137
(dp2138
g12
VNP
p2139
sbag0
(g1
g2
(lp2140
g0
(g1
g2
(lp2141
g0
(g1
g2
(lp2142
Vhave
p2143
atp2144
Rp2145
(dp2146
g12
VVBP
p2147
sbag0
(g1
g2
(lp2148
g0
(g1
g2
(lp2149
Von
p2150
atp2151
Rp2152
(dp2153
g12
VIN
p2154
sbag0
(g1
g2
(lp2155
g0
(g1
g2
(lp2156
g0
(g1
g2
(lp2157
g0
(g1
g2
(lp2158
Va
p2159
atp2160
Rp2161
(dp2162
g12
VDT
p2163
sbag0
(g1
g2
(lp2164
Vclown
p2165
atp2166
Rp2167
(dp2168
g12
VNN
p2169
sbag0
(g1
g2
(lp2170
Vsuit
p2171
atp2172
Rp2173
(dp2174
g12
VNN
p2175
sbatp2176
Rp2177
(dp2178
g12
VNP
p2179
sbag0
(g1
g2
(lp2180
g0
(g1
g2
(lp2181
Vwith
p2182
atp2183
Rp2184
(dp2185
g12
VIN
p2186
sbag0
(g1
g2
(lp2187
g0
(g1
g2
(lp2188
Va
p2189
atp2190
Rp2191
(dp2192
g12
VDT
p2193
sbag0
(g1
g2
(lp2194
Vrubber
p2195
atp2196
Rp2197
(dp2198
g12
VNN
p2199
sbag0
(g1
g2
(lp2200
Vnose
p2201
atp2202
Rp2203
(dp2204
g12
VNN
p2205
sbatp2206
Rp2207
(dp2208
g12
VNP
p2209
sbatp2210
Rp2211
(dp2212
g12
VPP
p2213
sbatp2214
Rp2215
(dp2216
g12
VNP
p2217
sbag0
(g1
g2
(lp2218
Vand
p2219
atp2220
Rp2221
(dp2222
g12
VCC
p2223
sbag0
(g1
g2
(lp2224
g0
(g1
g2
(lp2225
g0
(g1
g2
(lp2226
Va
p2227
atp2228
Rp2229
(dp2230
g12
VDT
p2231
sbag0
(g1
g2
(lp2232
Vlittle
p2233
atp2234
Rp2235
(dp2236
g12
VJJ
p2237
sbag0
(g1
g2
(lp2238
Vcap
p2239
atp2240
Rp2241
(dp2242
g12
VNN
p2243
sbatp2244
Rp2245
(dp2246
g12
VNP
p2247
sbag0
(g1
g2
(lp2248
g0
(g1
g2
(lp2249
Von
p2250
atp2251
Rp2252
(dp2253
g12
VIN
p2254
sbag0
(g1
g2
(lp2255
g0
(g1
g2
(lp2256
Vhis
p2257
atp2258
Rp2259
(dp2260
g12
VPRP$
p2261
sbag0
(g1
g2
(lp2262
Vhead
p2263
atp2264
Rp2265
(dp2266
g12
VNN
p2267
sbatp2268
Rp2269
(dp2270
g12
VNP
p2271
sbatp2272
Rp2273
(dp2274
g12
VPP
p2275
sbatp2276
Rp2277
(dp2278
g12
VNP
p2279
sbatp2280
Rp2281
(dp2282
g12
VNP
p2283
sbatp2284
Rp2285
(dp2286
g12
VPP
p2287
sbatp2288
Rp2289
(dp2290
g12
VVP
p2291
sbag0
(g1
g2
(lp2292
V,
p2293
atp2294
Rp2295
(dp2296
g12
V,
p2297
sbag0
(g1
g2
(lp2298
Vand
p2299
atp2300
Rp2301
(dp2302
g12
VCC
p2303
sbag0
(g1
g2
(lp2304
g0
(g1
g2
(lp2305
Vhave
p2306
atp2307
Rp2308
(dp2309
g12
VVBP
p2310
sbag0
(g1
g2
(lp2311
g0
(g1
g2
(lp2312
g0
(g1
g2
(lp2313
Va
p2314
atp2315
Rp2316
(dp2317
g12
VDT
p2318
sbag0
(g1
g2
(lp2319
Vbucket
p2320
atp2321
Rp2322
(dp2323
g12
VNN
p2324
sbatp2325
Rp2326
(dp2327
g12
VNP
p2328
sbag0
(g1
g2
(lp2329
g0
(g1
g2
(lp2330
Vin
p2331
atp2332
Rp2333
(dp2334
g12
VIN
p2335
sbag0
(g1
g2
(lp2336
g0
(g1
g2
(lp2337
g0
(g1
g2
(lp2338
Vhis
p2339
atp2340
Rp2341
(dp2342
g12
VPRP$
p2343
sbag0
(g1
g2
(lp2344
Vhand
p2345
atp2346
Rp2347
(dp2348
g12
VNN
p2349
sbatp2350
Rp2351
(dp2352
g12
VNP
p2353
sbag0
(g1
g2
(lp2354
g0
(g1
g2
(lp2355
Vthat
p2356
atp2357
Rp2358
(dp2359
g12
VIN
p2360
sbag0
(g1
g2
(lp2361
g0
(g1
g2
(lp2362
Vhe
p2363
atp2364
Rp2365
(dp2366
g12
VPRP
p2367
sbatp2368
Rp2369
(dp2370
g12
VNP
p2371
sbatp2372
Rp2373
(dp2374
g12
VPP
p2375
sbatp2376
Rp2377
(dp2378
g12
VNP
p2379
sbatp2380
Rp2381
(dp2382
g12
VPP
p2383
sbatp2384
Rp2385
(dp2386
g12
VNP
p2387
sbatp2388
Rp2389
(dp2390
g12
VVP
p2391
sbatp2392
Rp2393
(dp2394
g12
VVP
p2395
sbag0
(g1
g2
(lp2396
V.
p2397
atp2398
Rp2399
(dp2400
g12
V.
p2401
sbatp2402
Rp2403
(dp2404
g12
VS
p2405
sbatp2406
Rp2407
(dp2408
g12
S'id: 8'
p2409
sbag0
(g1
g2
(lp2410
g0
(g1
g2
(lp2411
g0
(g1
g2
(lp2412
g0
(g1
g2
(lp2413
VHe
p2414
atp2415
Rp2416
(dp2417
g12
VPRP
p2418
sbatp2419
Rp2420
(dp2421
g12
VNP
p2422
sbag0
(g1
g2
(lp2423
g0
(g1
g2
(lp2424
Vhas
p2425
atp2426
Rp2427
(dp2428
g12
VVBZ
p2429
sbag0
(g1
g2
(lp2430
g0
(g1
g2
(lp2431
Vsome
p2432
atp2433
Rp2434
(dp2435
g12
VDT
p2436
sbag0
(g1
g2
(lp2437
Vbig
p2438
atp2439
Rp2440
(dp2441
g12
VJJ
p2442
sbag0
(g1
g2
(lp2443
Vold
p2444
atp2445
Rp2446
(dp2447
g12
VJJ
p2448
sbag0
(g1
g2
(lp2449
Vtrousers
p2450
atp2451
Rp2452
(dp2453
g12
VNNS
p2454
sbatp2455
Rp2456
(dp2457
g12
VNP
p2458
sbag0
(g1
g2
(lp2459
g0
(g1
g2
(lp2460
Von
p2461
atp2462
Rp2463
(dp2464
g12
VIN
p2465
sbatp2466
Rp2467
(dp2468
g12
VPP
p2469
sbag0
(g1
g2
(lp2470
V,
p2471
atp2472
Rp2473
(dp2474
g12
V,
p2475
sbag0
(g1
g2
(lp2476
g0
(g1
g2
(lp2477
Vwith
p2478
atp2479
Rp2480
(dp2481
g12
VIN
p2482
sbag0
(g1
g2
(lp2483
g0
(g1
g2
(lp2484
g0
(g1
g2
(lp2485
Vsuspenders
p2486
atp2487
Rp2488
(dp2489
g12
VNNS
p2490
sbatp2491
Rp2492
(dp2493
g12
VNP
p2494
sbag0
(g1
g2
(lp2495
Vand
p2496
atp2497
Rp2498
(dp2499
g12
VCC
p2500
sbag0
(g1
g2
(lp2501
g0
(g1
g2
(lp2502
Va
p2503
atp2504
Rp2505
(dp2506
g12
VDT
p2507
sbag0
(g1
g2
(lp2508
Vneck
p2509
atp2510
Rp2511
(dp2512
g12
VNN
p2513
sbag0
(g1
g2
(lp2514
Vtie
p2515
atp2516
Rp2517
(dp2518
g12
VNN
p2519
sbatp2520
Rp2521
(dp2522
g12
VNP
p2523
sbatp2524
Rp2525
(dp2526
g12
VNP
p2527
sbatp2528
Rp2529
(dp2530
g12
VPP
p2531
sbatp2532
Rp2533
(dp2534
g12
VVP
p2535
sbag0
(g1
g2
(lp2536
V.
p2537
atp2538
Rp2539
(dp2540
g12
V.
p2541
sbatp2542
Rp2543
(dp2544
g12
VS
p2545
sbatp2546
Rp2547
(dp2548
g12
S'id: 9'
p2549
sbag0
(g1
g2
(lp2550
g0
(g1
g2
(lp2551
g0
(g1
g2
(lp2552
VAnd
p2553
atp2554
Rp2555
(dp2556
g12
VCC
p2557
sbag0
(g1
g2
(lp2558
g0
(g1
g2
(lp2559
Vthe
p2560
atp2561
Rp2562
(dp2563
g12
VDT
p2564
sbag0
(g1
g2
(lp2565
Vballerina
p2566
atp2567
Rp2568
(dp2569
g12
VNN
p2570
sbatp2571
Rp2572
(dp2573
g12
VNP
p2574
sbag0
(g1
g2
(lp2575
V,
p2576
atp2577
Rp2578
(dp2579
g12
V,
p2580
sbag0
(g1
g2
(lp2581
g0
(g1
g2
(lp2582
Vshe
p2583
atp2584
Rp2585
(dp2586
g12
VPRP
p2587
sbatp2588
Rp2589
(dp2590
g12
VNP
p2591
sbag0
(g1
g2
(lp2592
g0
(g1
g2
(lp2593
Vgot
p2594
atp2595
Rp2596
(dp2597
g12
VVBD
p2598
sbag0
(g1
g2
(lp2599
g0
(g1
g2
(lp2600
Va
p2601
atp2602
Rp2603
(dp2604
g12
VDT
p2605
sbag0
(g1
g2
(lp2606
Vlittle
p2607
atp2608
Rp2609
(dp2610
g12
VJJ
p2611
sbag0
(g1
g2
(lp2612
Vshort
p2613
atp2614
Rp2615
(dp2616
g12
VJJ
p2617
sbag0
(g1
g2
(lp2618
Vdress
p2619
atp2620
Rp2621
(dp2622
g12
VNN
p2623
sbatp2624
Rp2625
(dp2626
g12
VNP
p2627
sbag0
(g1
g2
(lp2628
g0
(g1
g2
(lp2629
Von
p2630
atp2631
Rp2632
(dp2633
g12
VIN
p2634
sbag0
(g1
g2
(lp2635
g0
(g1
g2
(lp2636
Vwith
p2637
atp2638
Rp2639
(dp2640
g12
VIN
p2641
sbag0
(g1
g2
(lp2642
g0
(g1
g2
(lp2643
Vlace
p2644
atp2645
Rp2646
(dp2647
g12
VNN
p2648
sbatp2649
Rp2650
(dp2651
g12
VNP
p2652
sbatp2653
Rp2654
(dp2655
g12
VPP
p2656
sbatp2657
Rp2658
(dp2659
g12
VPP
p2660
sbag0
(g1
g2
(lp2661
g0
(g1
g2
(lp2662
Varound
p2663
atp2664
Rp2665
(dp2666
g12
VIN
p2667
sbag0
(g1
g2
(lp2668
g0
(g1
g2
(lp2669
Vit
p2670
atp2671
Rp2672
(dp2673
g12
VPRP
p2674
sbatp2675
Rp2676
(dp2677
g12
VNP
p2678
sbatp2679
Rp2680
(dp2681
g12
VPP
p2682
sbatp2683
Rp2684
(dp2685
g12
VVP
p2686
sbag0
(g1
g2
(lp2687
V.
p2688
atp2689
Rp2690
(dp2691
g12
V.
p2692
sbatp2693
Rp2694
(dp2695
g12
VS
p2696
sbatp2697
Rp2698
(dp2699
g12
S'id: 10'
p2700
sbag0
(g1
g2
(lp2701
g0
(g1
g2
(lp2702
g0
(g1
g2
(lp2703
VAnd
p2704
atp2705
Rp2706
(dp2707
g12
VCC
p2708
sbag0
(g1
g2
(lp2709
g0
(g1
g2
(lp2710
Vthe
p2711
atp2712
Rp2713
(dp2714
g12
VDT
p2715
sbag0
(g1
g2
(lp2716
Vclown
p2717
atp2718
Rp2719
(dp2720
g12
VNN
p2721
sbatp2722
Rp2723
(dp2724
g12
VNP
p2725
sbag0
(g1
g2
(lp2726
g0
(g1
g2
(lp2727
Valso
p2728
atp2729
Rp2730
(dp2731
g12
VRB
p2732
sbatp2733
Rp2734
(dp2735
g12
VADVP
p2736
sbag0
(g1
g2
(lp2737
g0
(g1
g2
(lp2738
Vgot
p2739
atp2740
Rp2741
(dp2742
g12
VVBD
p2743
sbag0
(g1
g2
(lp2744
g0
(g1
g2
(lp2745
g0
(g1
g2
(lp2746
Va
p2747
atp2748
Rp2749
(dp2750
g12
VDT
p2751
sbatp2752
Rp2753
(dp2754
g12
VNP
p2755
sbag0
(g1
g2
(lp2756
V,
p2757
atp2758
Rp2759
(dp2760
g12
V,
p2761
sbag0
(g1
g2
(lp2762
g0
(g1
g2
(lp2763
Va
p2764
atp2765
Rp2766
(dp2767
g12
VDT
p2768
sbag0
(g1
g2
(lp2769
Vplower
p2770
atp2771
Rp2772
(dp2773
g12
VJJ
p2774
sbag0
(g1
g2
(lp2775
Vstickig
p2776
atp2777
Rp2778
(dp2779
g12
VNN
p2780
sbatp2781
Rp2782
(dp2783
g12
VNP
p2784
sbatp2785
Rp2786
(dp2787
g12
VNP
p2788
sbag0
(g1
g2
(lp2789
g0
(g1
g2
(lp2790
Vout
p2791
atp2792
Rp2793
(dp2794
g12
VIN
p2795
sbag0
(g1
g2
(lp2796
g0
(g1
g2
(lp2797
Vhis
p2798
atp2799
Rp2800
(dp2801
g12
VPRP$
p2802
sbag0
(g1
g2
(lp2803
Vhair
p2804
atp2805
Rp2806
(dp2807
g12
VNN
p2808
sbatp2809
Rp2810
(dp2811
g12
VNP
p2812
sbatp2813
Rp2814
(dp2815
g12
VPP
p2816
sbatp2817
Rp2818
(dp2819
g12
VVP
p2820
sbag0
(g1
g2
(lp2821
V.
p2822
atp2823
Rp2824
(dp2825
g12
V.
p2826
sbatp2827
Rp2828
(dp2829
g12
VS
p2830
sbatp2831
Rp2832
(dp2833
g12
S'id: 11'
p2834
sbag0
(g1
g2
(lp2835
g0
(g1
g2
(lp2836
g0
(g1
g2
(lp2837
VAnd
p2838
atp2839
Rp2840
(dp2841
g12
VCC
p2842
sbag0
(g1
g2
(lp2843
g0
(g1
g2
(lp2844
g0
(g1
g2
(lp2845
g0
(g1
g2
(lp2846
g0
(g1
g2
(lp2847
Vthe
p2848
atp2849
Rp2850
(dp2851
g12
VDT
p2852
sbag0
(g1
g2
(lp2853
Vman
p2854
atp2855
Rp2856
(dp2857
g12
VNN
p2858
sbatp2859
Rp2860
(dp2861
g12
VNP
p2862
sbag0
(g1
g2
(lp2863
g0
(g1
g2
(lp2864
Vin
p2865
atp2866
Rp2867
(dp2868
g12
VIN
p2869
sbag0
(g1
g2
(lp2870
g0
(g1
g2
(lp2871
g0
(g1
g2
(lp2872
Vthe
p2873
atp2874
Rp2875
(dp2876
g12
VDT
p2877
sbag0
(g1
g2
(lp2878
Vcage
p2879
atp2880
Rp2881
(dp2882
g12
VNN
p2883
sbatp2884
Rp2885
(dp2886
g12
VNP
p2887
sbag0
(g1
g2
(lp2888
g0
(g1
g2
(lp2889
Vwith
p2890
atp2891
Rp2892
(dp2893
g12
VIN
p2894
sbag0
(g1
g2
(lp2895
g0
(g1
g2
(lp2896
Vthe
p2897
atp2898
Rp2899
(dp2900
g12
VDT
p2901
sbag0
(g1
g2
(lp2902
Vlion
p2903
atp2904
Rp2905
(dp2906
g12
VNN
p2907
sbatp2908
Rp2909
(dp2910
g12
VNP
p2911
sbatp2912
Rp2913
(dp2914
g12
VPP
p2915
sbatp2916
Rp2917
(dp2918
g12
VNP
p2919
sbatp2920
Rp2921
(dp2922
g12
VPP
p2923
sbatp2924
Rp2925
(dp2926
g12
VNP
p2927
sbatp2928
Rp2929
(dp2930
g12
VS
p2931
sbag0
(g1
g2
(lp2932
V,
p2933
atp2934
Rp2935
(dp2936
g12
V,
p2937
sbag0
(g1
g2
(lp2938
g0
(g1
g2
(lp2939
Vhe
p2940
atp2941
Rp2942
(dp2943
g12
VPRP
p2944
sbatp2945
Rp2946
(dp2947
g12
VNP
p2948
sbag0
(g1
g2
(lp2949
g0
(g1
g2
(lp2950
Vjust
p2951
atp2952
Rp2953
(dp2954
g12
VRB
p2955
sbatp2956
Rp2957
(dp2958
g12
VADVP
p2959
sbag0
(g1
g2
(lp2960
g0
(g1
g2
(lp2961
Vseem
p2962
atp2963
Rp2964
(dp2965
g12
VVBP
p2966
sbag0
(g1
g2
(lp2967
g0
(g1
g2
(lp2968
g0
(g1
g2
(lp2969
Vto
p2970
atp2971
Rp2972
(dp2973
g12
VTO
p2974
sbag0
(g1
g2
(lp2975
g0
(g1
g2
(lp2976
Vbe
p2977
atp2978
Rp2979
(dp2980
g12
VVB
p2981
sbag0
(g1
g2
(lp2982
g0
(g1
g2
(lp2983
Vpointing
p2984
atp2985
Rp2986
(dp2987
g12
VVBG
p2988
sbag0
(g1
g2
(lp2989
g0
(g1
g2
(lp2990
Vat
p2991
atp2992
Rp2993
(dp2994
g12
VIN
p2995
sbag0
(g1
g2
(lp2996
g0
(g1
g2
(lp2997
Vthe
p2998
atp2999
Rp3000
(dp3001
g12
VDT
p3002
sbag0
(g1
g2
(lp3003
Vlion
p3004
atp3005
Rp3006
(dp3007
g12
VNN
p3008
sbatp3009
Rp3010
(dp3011
g12
VNP
p3012
sbatp3013
Rp3014
(dp3015
g12
VPP
p3016
sbatp3017
Rp3018
(dp3019
g12
VVP
p3020
sbatp3021
Rp3022
(dp3023
g12
VVP
p3024
sbatp3025
Rp3026
(dp3027
g12
VVP
p3028
sbatp3029
Rp3030
(dp3031
g12
VS
p3032
sbatp3033
Rp3034
(dp3035
g12
VVP
p3036
sbatp3037
Rp3038
(dp3039
g12
VS
p3040
sbag0
(g1
g2
(lp3041
V,
p3042
atp3043
Rp3044
(dp3045
g12
V,
p3046
sbag0
(g1
g2
(lp3047
Vand
p3048
atp3049
Rp3050
(dp3051
g12
VCC
p3052
sbag0
(g1
g2
(lp3053
g0
(g1
g2
(lp3054
g0
(g1
g2
(lp3055
Vthe
p3056
atp3057
Rp3058
(dp3059
g12
VDT
p3060
sbag0
(g1
g2
(lp3061
Vlion
p3062
atp3063
Rp3064
(dp3065
g12
VNN
p3066
sbatp3067
Rp3068
(dp3069
g12
VNP
p3070
sbag0
(g1
g2
(lp3071
g0
(g1
g2
(lp3072
Vis
p3073
atp3074
Rp3075
(dp3076
g12
VVBZ
p3077
sbag0
(g1
g2
(lp3078
g0
(g1
g2
(lp3079
Von
p3080
atp3081
Rp3082
(dp3083
g12
VIN
p3084
sbag0
(g1
g2
(lp3085
g0
(g1
g2
(lp3086
g0
(g1
g2
(lp3087
Vhis
p3088
atp3089
Rp3090
(dp3091
g12
VPRP$
p3092
sbag0
(g1
g2
(lp3093
Vvye
p3094
atp3095
Rp3096
(dp3097
g12
VNN
p3098
sbatp3099
Rp3100
(dp3101
g12
VNP
p3102
sbag0
(g1
g2
(lp3103
V,
p3104
atp3105
Rp3106
(dp3107
g12
V,
p3108
sbag0
(g1
g2
(lp3109
g0
(g1
g2
(lp3110
Vrear
p3111
atp3112
Rp3113
(dp3114
g12
VJJ
p3115
sbag0
(g1
g2
(lp3116
Vfeet
p3117
atp3118
Rp3119
(dp3120
g12
VNNS
p3121
sbatp3122
Rp3123
(dp3124
g12
VNP
p3125
sbag0
(g1
g2
(lp3126
V,
p3127
atp3128
Rp3129
(dp3130
g12
V,
p3131
sbatp3132
Rp3133
(dp3134
g12
VNP
p3135
sbatp3136
Rp3137
(dp3138
g12
VPP
p3139
sbag0
(g1
g2
(lp3140
g0
(g1
g2
(lp3141
Vwith
p3142
atp3143
Rp3144
(dp3145
g12
VIN
p3146
sbag0
(g1
g2
(lp3147
g0
(g1
g2
(lp3148
Vhis
p3149
atp3150
Rp3151
(dp3152
g12
VPRP$
p3153
sbag0
(g1
g2
(lp3154
Vtwo
p3155
atp3156
Rp3157
(dp3158
g12
VCD
p3159
sbag0
(g1
g2
(lp3160
Vpaws
p3161
atp3162
Rp3163
(dp3164
g12
VNNS
p3165
sbag0
(g1
g2
(lp3166
Vkinda
p3167
atp3168
Rp3169
(dp3170
g12
VNN
p3171
sbatp3172
Rp3173
(dp3174
g12
VNP
p3175
sbatp3176
Rp3177
(dp3178
g12
VPP
p3179
sbatp3180
Rp3181
(dp3182
g12
VVP
p3183
sbatp3184
Rp3185
(dp3186
g12
VS
p3187
sbag0
(g1
g2
(lp3188
V.
p3189
atp3190
Rp3191
(dp3192
g12
V.
p3193
sbatp3194
Rp3195
(dp3196
g12
VS
p3197
sbatp3198
Rp3199
(dp3200
g12
S'id: 12'
p3201
sbatp3202
Rp3203
(dp3204
g12
S'sentences'
p3205
sb.