ccopy_reg
_reconstructor
p0
(cnltk.tree
Tree
p1
c__builtin__
list
p2
(lp3
g0
(g1
g2
(lp4
g0
(g1
g2
(lp5
g0
(g1
g2
(lp6
Vme
p7
atp8
Rp9
(dp10
S'_label'
p11
S'start: 2'
p12
sbatp13
Rp14
(dp15
g11
S'sent: 2'
p16
sbag0
(g1
g2
(lp17
g0
(g1
g2
(lp18
Vme
p19
atp20
Rp21
(dp22
g11
S'start: 3'
p23
sbatp24
Rp25
(dp26
g11
S'sent: 5'
p27
sbag0
(g1
g2
(lp28
g0
(g1
g2
(lp29
VI
p30
atp31
Rp32
(dp33
g11
S'start: 9'
p34
sbatp35
Rp36
(dp37
g11
S'sent: 6'
p38
sbag0
(g1
g2
(lp39
g0
(g1
g2
(lp40
Vthat
p41
atp42
Rp43
(dp44
g11
S'start: 13'
p45
sbatp46
Rp47
(dp48
g11
S'sent: 6'
p49
sbag0
(g1
g2
(lp50
g0
(g1
g2
(lp51
Vme
p52
atp53
Rp54
(dp55
g11
S'start: 18'
p56
sbatp57
Rp58
(dp59
g11
S'sent: 6'
p60
sbag0
(g1
g2
(lp61
g0
(g1
g2
(lp62
Vme
p63
atp64
Rp65
(dp66
g11
S'start: 3'
p67
sbatp68
Rp69
(dp70
g11
S'sent: 8'
p71
sbag0
(g1
g2
(lp72
g0
(g1
g2
(lp73
VI
p74
atp75
Rp76
(dp77
g11
S'start: 1'
p78
sbatp79
Rp80
(dp81
g11
S'sent: 9'
p82
sbag0
(g1
g2
(lp83
g0
(g1
g2
(lp84
Vthat
p85
atp86
Rp87
(dp88
g11
S'start: 6'
p89
sbatp90
Rp91
(dp92
g11
S'sent: 9'
p93
sbatp94
Rp95
(dp96
g11
S'id: 3'
p97
sbag0
(g1
g2
(lp98
g0
(g1
g2
(lp99
g0
(g1
g2
(lp100
Vbozo the clown , as the tightrope walker , the lady on the horse , the spectators , and a merry go round , or the lion tamer
p101
atp102
Rp103
(dp104
g11
S'start: 2'
p105
sbatp106
Rp107
(dp108
g11
S'sent: 3'
p109
sbag0
(g1
g2
(lp110
g0
(g1
g2
(lp111
VBozo , Bozo
p112
atp113
Rp114
(dp115
g11
S'start: 1'
p116
sbatp117
Rp118
(dp119
g11
S'sent: 6'
p120
sbag0
(g1
g2
(lp121
g0
(g1
g2
(lp122
Vthem
p123
atp124
Rp125
(dp126
g11
S'start: 24'
p127
sbatp128
Rp129
(dp130
g11
S'sent: 6'
p131
sbatp132
Rp133
(dp134
g11
S'id: 5'
p135
sbag0
(g1
g2
(lp136
g0
(g1
g2
(lp137
g0
(g1
g2
(lp138
Vbozo the clown
p139
atp140
Rp141
(dp142
g11
S'start: 2'
p143
sbatp144
Rp145
(dp146
g11
S'sent: 3'
p147
sbag0
(g1
g2
(lp148
g0
(g1
g2
(lp149
VBozo
p150
atp151
Rp152
(dp153
g11
S'start: 1'
p154
sbatp155
Rp156
(dp157
g11
S'sent: 6'
p158
sbag0
(g1
g2
(lp159
g0
(g1
g2
(lp160
Vhe
p161
atp162
Rp163
(dp164
g11
S'start: 21'
p165
sbatp166
Rp167
(dp168
g11
S'sent: 6'
p169
sbatp170
Rp171
(dp172
g11
S'id: 6'
p173
sbag0
(g1
g2
(lp174
g0
(g1
g2
(lp175
g0
(g1
g2
(lp176
Vthe lion tamer
p177
atp178
Rp179
(dp180
g11
S'start: 27'
p181
sbatp182
Rp183
(dp184
g11
S'sent: 3'
p185
sbag0
(g1
g2
(lp186
g0
(g1
g2
(lp187
VThe
p188
atp189
Rp190
(dp191
g11
S'start: 1'
p192
sbatp193
Rp194
(dp195
g11
S'sent: 10'
p196
sbag0
(g1
g2
(lp197
g0
(g1
g2
(lp198
Vthe lion
p199
atp200
Rp201
(dp202
g11
S'start: 3'
p203
sbatp204
Rp205
(dp206
g11
S'sent: 10'
p207
sbag0
(g1
g2
(lp208
g0
(g1
g2
(lp209
Vthe
p210
atp211
Rp212
(dp213
g11
S'start: 12'
p214
sbatp215
Rp216
(dp217
g11
S'sent: 10'
p218
sbatp219
Rp220
(dp221
g11
S'id: 14'
p222
sbag0
(g1
g2
(lp223
g0
(g1
g2
(lp224
g0
(g1
g2
(lp225
Vtamer
p226
atp227
Rp228
(dp229
g11
S'start: 29'
p230
sbatp231
Rp232
(dp233
g11
S'sent: 3'
p234
sbag0
(g1
g2
(lp235
g0
(g1
g2
(lp236
Vthe tamer
p237
atp238
Rp239
(dp240
g11
S'start: 14'
p241
sbatp242
Rp243
(dp244
g11
S'sent: 10'
p245
sbatp246
Rp247
(dp248
g11
S'id: 15'
p249
sbag0
(g1
g2
(lp250
g0
(g1
g2
(lp251
g0
(g1
g2
(lp252
Vthe little girl
p253
atp254
Rp255
(dp256
g11
S'start: 3'
p257
sbatp258
Rp259
(dp260
g11
S'sent: 4'
p261
sbag0
(g1
g2
(lp262
g0
(g1
g2
(lp263
Vthe little girl
p264
atp265
Rp266
(dp267
g11
S'start: 2'
p268
sbatp269
Rp270
(dp271
g11
S'sent: 7'
p272
sbag0
(g1
g2
(lp273
g0
(g1
g2
(lp274
Vshe
p275
atp276
Rp277
(dp278
g11
S'start: 11'
p279
sbatp280
Rp281
(dp282
g11
S'sent: 7'
p283
sbatp284
Rp285
(dp286
g11
S'id: 16'
p287
sbag0
(g1
g2
(lp288
g0
(g1
g2
(lp289
g0
(g1
g2
(lp290
Vsome
p291
atp292
Rp293
(dp294
g11
S'start: 16'
p295
sbatp296
Rp297
(dp298
g11
S'sent: 7'
p299
sbag0
(g1
g2
(lp300
g0
(g1
g2
(lp301
Vherself
p302
atp303
Rp304
(dp305
g11
S'start: 17'
p306
sbatp307
Rp308
(dp309
g11
S'sent: 7'
p310
sbatp311
Rp312
(dp313
g11
S'id: 32'
p314
sbatp315
Rp316
(dp317
g11
S'coreferences'
p318
sb.