ccopy_reg
_reconstructor
p0
(cnltk.tree
Tree
p1
c__builtin__
list
p2
(lp3
g0
(g1
g2
(lp4
g0
(g1
g2
(lp5
g0
(g1
g2
(lp6
g0
(g1
g2
(lp7
g0
(g1
g2
(lp8
(lp9
S'word: The, index: 1'
p10
aatp11
Rp12
(dp13
S'_label'
p14
Vdet
p15
sbag0
(g1
g2
(lp16
(lp17
S'word: little, index: 2'
p18
aatp19
Rp20
(dp21
g14
Vamod
p22
sbatp23
Rp24
(dp25
g14
S'word: boy, index: 3'
p26
sbatp27
Rp28
(dp29
g14
Vnsubj
p30
sbag0
(g1
g2
(lp31
g0
(g1
g2
(lp32
g0
(g1
g2
(lp33
g0
(g1
g2
(lp34
g0
(g1
g2
(lp35
(lp36
S'word: cookie, index: 7'
p37
aatp38
Rp39
(dp40
g14
Vnn
p41
sbatp42
Rp43
(dp44
g14
S'word: jar, index: 8'
p45
sbatp46
Rp47
(dp48
g14
Vprep
p49
sbatp50
Rp51
(dp52
g14
S'word: cookies, index: 5'
p53
sbatp54
Rp55
(dp56
g14
Vdobj
p57
sbag0
(g1
g2
(lp58
g0
(g1
g2
(lp59
g0
(g1
g2
(lp60
g0
(g1
g2
(lp61
g0
(g1
g2
(lp62
(lp63
S'word: the, index: 23'
p64
aatp65
Rp66
(dp67
g14
Vdet
p68
sbag0
(g1
g2
(lp69
(lp70
S'word: little, index: 24'
p71
aatp72
Rp73
(dp74
g14
Vamod
p75
sbatp76
Rp77
(dp78
g14
S'word: girl, index: 25'
p79
sbatp80
Rp81
(dp82
g14
Vnsubj
p83
sbag0
(g1
g2
(lp84
(lp85
S'word: is, index: 26'
p86
aatp87
Rp88
(dp89
g14
Vaux
p90
sbag0
(g1
g2
(lp91
(lp92
S'word: him, index: 29'
p93
aatp94
Rp95
(dp96
g14
Vprep
p97
sbatp98
Rp99
(dp100
g14
S'word: laughing, index: 27'
p101
sbatp102
Rp103
(dp104
g14
Vparataxis
p105
sbag0
(g1
g2
(lp106
g0
(g1
g2
(lp107
g0
(g1
g2
(lp108
(lp109
S'word: he, index: 10'
p110
aatp111
Rp112
(dp113
g14
Vnsubj
p114
sbag0
(g1
g2
(lp115
(lp116
S"word: 's, index: 11"
p117
aatp118
Rp119
(dp120
g14
Vaux
p121
sbag0
(g1
g2
(lp122
g0
(g1
g2
(lp123
g0
(g1
g2
(lp124
g0
(g1
g2
(lp125
g0
(g1
g2
(lp126
(lp127
S'word: that, index: 16'
p128
aatp129
Rp130
(dp131
g14
Vnsubj
p132
sbag0
(g1
g2
(lp133
(lp134
S"word: 's, index: 17"
p135
aatp136
Rp137
(dp138
g14
Vaux
p139
sbag0
(g1
g2
(lp140
(lp141
S'word: getting, index: 18'
p142
aatp143
Rp144
(dp145
g14
Vdep
p146
sbag0
(g1
g2
(lp147
g0
(g1
g2
(lp148
g0
(g1
g2
(lp149
(lp150
S'word: to, index: 20'
p151
aatp152
Rp153
(dp154
g14
Vaux
p155
sbatp156
Rp157
(dp158
g14
S'word: tip, index: 21'
p159
sbatp160
Rp161
(dp162
g14
Vxcomp
p163
sbatp164
Rp165
(dp166
g14
S'word: ready, index: 19'
p167
sbatp168
Rp169
(dp170
g14
Vrcmod
p171
sbag0
(g1
g2
(lp172
(lp173
S'word: a, index: 14'
p174
aatp175
Rp176
(dp177
g14
Vdet
p178
sbatp179
Rp180
(dp181
g14
S'word: stool, index: 15'
p182
sbatp183
Rp184
(dp185
g14
Vprep
p186
sbatp187
Rp188
(dp189
g14
S'word: standing, index: 12'
p190
sbatp191
Rp192
(dp193
g14
Vparataxis
p194
sbatp195
Rp196
(dp197
g14
S'word: stealing, index: 4'
p198
sbatp199
Rp200
(dp201
g14
S'id: 0'
p202
sbag0
(g1
g2
(lp203
g0
(g1
g2
(lp204
g0
(g1
g2
(lp205
g0
(g1
g2
(lp206
g0
(g1
g2
(lp207
(lp208
S"word: 's, index: 19"
p209
aatp210
Rp211
(dp212
g14
Vaux
p213
sbag0
(g1
g2
(lp214
g0
(g1
g2
(lp215
g0
(g1
g2
(lp216
g0
(g1
g2
(lp217
g0
(g1
g2
(lp218
(lp219
S'word: the, index: 21'
p220
aatp221
Rp222
(dp223
g14
Vdet
p224
sbatp225
Rp226
(dp227
g14
S'word: water, index: 22'
p228
sbatp229
Rp230
(dp231
g14
Vnsubj
p232
sbag0
(g1
g2
(lp233
g0
(g1
g2
(lp234
g0
(g1
g2
(lp235
(lp236
S'word: the, index: 25'
p237
aatp238
Rp239
(dp240
g14
Vdet
p241
sbatp242
Rp243
(dp244
g14
S'word: sink, index: 26'
p245
sbatp246
Rp247
(dp248
g14
Vprep
p249
sbatp250
Rp251
(dp252
g14
S'word: run, index: 23'
p253
sbatp254
Rp255
(dp256
g14
Vccomp
p257
sbag0
(g1
g2
(lp258
(lp259
S'word: she, index: 18'
p260
aatp261
Rp262
(dp263
g14
Vnsubj
p264
sbatp265
Rp266
(dp267
g14
S'word: letting, index: 20'
p268
sbatp269
Rp270
(dp271
g14
Vparataxis
p272
sbag0
(g1
g2
(lp273
g0
(g1
g2
(lp274
g0
(g1
g2
(lp275
(lp276
S'word: is, index: 4'
p277
aatp278
Rp279
(dp280
g14
Vaux
p281
sbag0
(g1
g2
(lp282
(lp283
S'word: dishes, index: 6'
p284
aatp285
Rp286
(dp287
g14
Vdobj
p288
sbag0
(g1
g2
(lp289
g0
(g1
g2
(lp290
g0
(g1
g2
(lp291
(lp292
S"word: 's, index: 2"
p293
aatp294
Rp295
(dp296
g14
Vpossessive
p297
sbatp298
Rp299
(dp300
g14
S'word: Mother, index: 1'
p301
sbatp302
Rp303
(dp304
g14
Vccomp
p305
sbatp306
Rp307
(dp308
g14
S'word: washing, index: 5'
p309
sbatp310
Rp311
(dp312
g14
Vadvcl
p313
sbag0
(g1
g2
(lp314
(lp315
S'word: she, index: 8'
p316
aatp317
Rp318
(dp319
g14
Vnsubj
p320
sbag0
(g1
g2
(lp321
g0
(g1
g2
(lp322
g0
(g1
g2
(lp323
(lp324
S'word: a, index: 10'
p325
aatp326
Rp327
(dp328
g14
Vdet
p329
sbag0
(g1
g2
(lp330
(lp331
S'word: solemn, index: 11'
p332
aatp333
Rp334
(dp335
g14
Vamod
p336
sbag0
(g1
g2
(lp337
g0
(g1
g2
(lp338
g0
(g1
g2
(lp339
(lp340
S'word: her, index: 14'
p341
aatp342
Rp343
(dp344
g14
Vposs
p345
sbatp346
Rp347
(dp348
g14
S'word: face, index: 15'
p349
sbatp350
Rp351
(dp352
g14
Vprep
p353
sbatp354
Rp355
(dp356
g14
S'word: look, index: 12'
p357
sbatp358
Rp359
(dp360
g14
Vdobj
p361
sbag0
(g1
g2
(lp362
(lp363
S'word: so, index: 17'
p364
aatp365
Rp366
(dp367
g14
Vdep
p368
sbatp369
Rp370
(dp371
g14
S'word: has, index: 9'
p372
sbatp373
Rp374
(dp375
g14
S'id: 1'
p376
sbag0
(g1
g2
(lp377
g0
(g1
g2
(lp378
g0
(g1
g2
(lp379
(lp380
S'word: That, index: 1'
p381
aatp382
Rp383
(dp384
g14
Vnsubj
p385
sbag0
(g1
g2
(lp386
(lp387
S"word: 's, index: 2"
p388
aatp389
Rp390
(dp391
g14
Vcop
p392
sbag0
(g1
g2
(lp393
g0
(g1
g2
(lp394
g0
(g1
g2
(lp395
(lp396
S'word: I, index: 4'
p397
aatp398
Rp399
(dp400
g14
Vnsubj
p401
sbatp402
Rp403
(dp404
g14
S'word: see, index: 5'
p405
sbatp406
Rp407
(dp408
g14
Vrcmod
p409
sbatp410
Rp411
(dp412
g14
S'word: all, index: 3'
p413
sbatp414
Rp415
(dp416
g14
S'id: 2'
p417
sbag0
(g1
g2
(lp418
g0
(g1
g2
(lp419
g0
(g1
g2
(lp420
g0
(g1
g2
(lp421
g0
(g1
g2
(lp422
(lp423
S'word: he, index: 11'
p424
aatp425
Rp426
(dp427
g14
Vnsubj
p428
sbag0
(g1
g2
(lp429
(lp430
S"word: 's, index: 12"
p431
aatp432
Rp433
(dp434
g14
Vaux
p435
sbag0
(g1
g2
(lp436
(lp437
S'word: him, index: 15'
p438
aatp439
Rp440
(dp441
g14
Vprep
p442
sbatp443
Rp444
(dp445
g14
S'word: laughing, index: 13'
p446
sbatp447
Rp448
(dp449
g14
Vconj
p450
sbag0
(g1
g2
(lp451
g0
(g1
g2
(lp452
g0
(g1
g2
(lp453
(lp454
S'word: Little, index: 1'
p455
aatp456
Rp457
(dp458
g14
Vamod
p459
sbatp460
Rp461
(dp462
g14
S'word: girl, index: 2'
p463
sbatp464
Rp465
(dp466
g14
Vnsubj
p467
sbag0
(g1
g2
(lp468
(lp469
S'word: must, index: 3'
p470
aatp471
Rp472
(dp473
g14
Vaux
p474
sbag0
(g1
g2
(lp475
(lp476
S'word: be, index: 4'
p477
aatp478
Rp479
(dp480
g14
Vaux
p481
sbag0
(g1
g2
(lp482
g0
(g1
g2
(lp483
g0
(g1
g2
(lp484
(lp485
S'word: a, index: 7'
p486
aatp487
Rp488
(dp489
g14
Vdet
p490
sbatp491
Rp492
(dp493
g14
S'word: cookie, index: 8'
p494
sbatp495
Rp496
(dp497
g14
Vprep
p498
sbatp499
Rp500
(dp501
g14
S'word: asking, index: 5'
p502
sbatp503
Rp504
(dp505
g14
S'id: 3'
p506
sbag0
(g1
g2
(lp507
tp508
Rp509
(dp510
g14
S'id: 4'
p511
sbag0
(g1
g2
(lp512
g0
(g1
g2
(lp513
g0
(g1
g2
(lp514
g0
(g1
g2
(lp515
g0
(g1
g2
(lp516
(lp517
S'word: out, index: 2'
p518
aatp519
Rp520
(dp521
g14
Vprt
p522
sbag0
(g1
g2
(lp523
g0
(g1
g2
(lp524
g0
(g1
g2
(lp525
(lp526
S'word: the, index: 3'
p527
aatp528
Rp529
(dp530
g14
Vdet
p531
sbatp532
Rp533
(dp534
g14
S'word: window, index: 4'
p535
sbatp536
Rp537
(dp538
g14
Vdobj
p539
sbatp540
Rp541
(dp542
g14
S'word: Looking, index: 1'
p543
sbatp544
Rp545
(dp546
g14
Vdep
p547
sbag0
(g1
g2
(lp548
g0
(g1
g2
(lp549
g0
(g1
g2
(lp550
(lp551
S'word: next, index: 15'
p552
aatp553
Rp554
(dp555
g14
Vamod
p556
sbag0
(g1
g2
(lp557
(lp558
S'word: door, index: 16'
p559
aatp560
Rp561
(dp562
g14
Vnn
p563
sbag0
(g1
g2
(lp564
(lp565
S'word: neighbor, index: 17'
p566
aatp567
Rp568
(dp569
g14
Vnn
p570
sbag0
(g1
g2
(lp571
(lp572
S'word: the, index: 14'
p573
aatp574
Rp575
(dp576
g14
Vdet
p577
sbatp578
Rp579
(dp580
g14
S'word: house, index: 18'
p581
sbatp582
Rp583
(dp584
g14
Vdobj
p585
sbag0
(g1
g2
(lp586
(lp587
S'word: you, index: 5'
p588
aatp589
Rp590
(dp591
g14
Vnsubj
p592
sbag0
(g1
g2
(lp593
g0
(g1
g2
(lp594
g0
(g1
g2
(lp595
g579
atp596
Rp597
(dp598
g14
Vconj
p599
sbag0
(g1
g2
(lp600
(lp601
S'word: the, index: 7'
p602
aatp603
Rp604
(dp605
g14
Vdet
p606
sbag0
(g1
g2
(lp607
g0
(g1
g2
(lp608
g0
(g1
g2
(lp609
(lp610
S'word: the, index: 10'
p611
aatp612
Rp613
(dp614
g14
Vdet
p615
sbatp616
Rp617
(dp618
g14
S'word: shrubbery, index: 11'
p619
sbatp620
Rp621
(dp622
g14
Vconj
p623
sbatp624
Rp625
(dp626
g14
S'word: pathway, index: 8'
p627
sbatp628
Rp629
(dp630
g14
Vdobj
p631
sbag0
(g1
g2
(lp632
g617
atp633
Rp634
(dp635
g14
Vdobj
p636
sbatp637
Rp638
(dp639
g14
S'word: see, index: 6'
p640
sbatp641
Rp642
(dp643
g14
S'id: 5'
p644
sbag0
(g1
g2
(lp645
g0
(g1
g2
(lp646
g0
(g1
g2
(lp647
g0
(g1
g2
(lp648
g0
(g1
g2
(lp649
(lp650
S'word: you, index: 3'
p651
aatp652
Rp653
(dp654
g14
Vnsubj
p655
sbag0
(g1
g2
(lp656
g0
(g1
g2
(lp657
g0
(g1
g2
(lp658
(lp659
S'word: two, index: 5'
p660
aatp661
Rp662
(dp663
g14
Vnsubj
p664
sbag0
(g1
g2
(lp665
g0
(g1
g2
(lp666
g0
(g1
g2
(lp667
(lp668
S'word: the, index: 8'
p669
aatp670
Rp671
(dp672
g14
Vdet
p673
sbag0
(g1
g2
(lp674
g0
(g1
g2
(lp675
g0
(g1
g2
(lp676
(lp677
S'word: one, index: 11'
p678
aatp679
Rp680
(dp681
g14
Vnum
p682
sbag0
(g1
g2
(lp683
g0
(g1
g2
(lp684
g0
(g1
g2
(lp685
(lp686
S'word: the, index: 14'
p687
aatp688
Rp689
(dp690
g14
Vdet
p691
sbatp692
Rp693
(dp694
g14
S'word: counter, index: 15'
p695
sbatp696
Rp697
(dp698
g14
Vprep
p699
sbatp700
Rp701
(dp702
g14
S'word: plate, index: 12'
p703
sbatp704
Rp705
(dp706
g14
Vappos
p707
sbatp708
Rp709
(dp710
g14
S'word: counter, index: 9'
p711
sbatp712
Rp713
(dp714
g14
Vprep
p715
sbatp716
Rp717
(dp718
g14
S'word: bowls, index: 6'
p719
sbatp720
Rp721
(dp722
g14
Vccomp
p723
sbatp724
Rp725
(dp726
g14
S'word: see, index: 4'
p727
sbatp728
Rp729
(dp730
g14
Vccomp
p731
sbag0
(g1
g2
(lp732
(lp733
S'word: I, index: 1'
p734
aatp735
Rp736
(dp737
g14
Vnsubj
p738
sbatp739
Rp740
(dp741
g14
S'word: think, index: 2'
p742
sbatp743
Rp744
(dp745
g14
S'id: 6'
p746
sbag0
(g1
g2
(lp747
g0
(g1
g2
(lp748
g0
(g1
g2
(lp749
(lp750
S'word: Mother, index: 1'
p751
aatp752
Rp753
(dp754
g14
Vnsubj
p755
sbag0
(g1
g2
(lp756
g0
(g1
g2
(lp757
g0
(g1
g2
(lp758
g0
(g1
g2
(lp759
g0
(g1
g2
(lp760
(lp761
S'word: her, index: 6'
p762
aatp763
Rp764
(dp765
g14
Vposs
p766
sbag0
(g1
g2
(lp767
g0
(g1
g2
(lp768
g0
(g1
g2
(lp769
(lp770
S'word: a, index: 9'
p771
aatp772
Rp773
(dp774
g14
Vdet
p775
sbag0
(g1
g2
(lp776
(lp777
S'word: dish, index: 10'
p778
aatp779
Rp780
(dp781
g14
Vnn
p782
sbatp783
Rp784
(dp785
g14
S'word: rag, index: 11'
p786
sbatp787
Rp788
(dp789
g14
Vprep
p790
sbatp791
Rp792
(dp793
g14
S'word: hand, index: 7'
p794
sbatp795
Rp796
(dp797
g14
Vprep
p798
sbag0
(g1
g2
(lp799
g0
(g1
g2
(lp800
g0
(g1
g2
(lp801
(lp802
S'word: she, index: 12'
p803
aatp804
Rp805
(dp806
g14
Vnsubj
p807
sbag0
(g1
g2
(lp808
(lp809
S"word: 's, index: 13"
p810
aatp811
Rp812
(dp813
g14
Vaux
p814
sbag0
(g1
g2
(lp815
g0
(g1
g2
(lp816
g0
(g1
g2
(lp817
(lp818
S'word: the, index: 15'
p819
aatp820
Rp821
(dp822
g14
Vdet
p823
sbatp824
Rp825
(dp826
g14
S'word: plate, index: 16'
p827
sbatp828
Rp829
(dp830
g14
Vdobj
p831
sbatp832
Rp833
(dp834
g14
S'word: drying, index: 14'
p835
sbatp836
Rp837
(dp838
g14
Vrcmod
p839
sbag0
(g1
g2
(lp840
(lp841
S'word: a, index: 3'
p842
aatp843
Rp844
(dp845
g14
Vdet
p846
sbatp847
Rp848
(dp849
g14
S'word: plate, index: 4'
p850
sbatp851
Rp852
(dp853
g14
Vdobj
p854
sbatp855
Rp856
(dp857
g14
S'word: has, index: 2'
p858
sbatp859
Rp860
(dp861
g14
S'id: 7'
p862
sbag0
(g1
g2
(lp863
g0
(g1
g2
(lp864
g0
(g1
g2
(lp865
(lp866
S"word: 's, index: 14"
p867
aatp868
Rp869
(dp870
g14
Vaux
p871
sbag0
(g1
g2
(lp872
(lp873
S'word: one, index: 16'
p874
aatp875
Rp876
(dp877
g14
Vdobj
p878
sbag0
(g1
g2
(lp879
g0
(g1
g2
(lp880
g0
(g1
g2
(lp881
(lp882
S'word: The, index: 1'
p883
aatp884
Rp885
(dp886
g14
Vdet
p887
sbag0
(g1
g2
(lp888
(lp889
S'word: little, index: 2'
p890
aatp891
Rp892
(dp893
g14
Vamod
p894
sbag0
(g1
g2
(lp895
(lp896
S"word: 's, index: 4"
p897
aatp898
Rp899
(dp900
g14
Vpossessive
p901
sbag0
(g1
g2
(lp902
g0
(g1
g2
(lp903
g0
(g1
g2
(lp904
g0
(g1
g2
(lp905
g0
(g1
g2
(lp906
(lp907
S'word: the, index: 6'
p908
aatp909
Rp910
(dp911
g14
Vdet
p912
sbag0
(g1
g2
(lp913
(lp914
S'word: little, index: 7'
p915
aatp916
Rp917
(dp918
g14
Vamod
p919
sbatp920
Rp921
(dp922
g14
S'word: girl, index: 8'
p923
sbatp924
Rp925
(dp926
g14
Viobj
p927
sbag0
(g1
g2
(lp928
g0
(g1
g2
(lp929
g0
(g1
g2
(lp930
(lp931
S'word: a, index: 9'
p932
aatp933
Rp934
(dp935
g14
Vdet
p936
sbag0
(g1
g2
(lp937
(lp938
S'word: he, index: 13'
p939
aatp940
Rp941
(dp942
g14
Vconj
p943
sbatp944
Rp945
(dp946
g14
S'word: cookie, index: 10'
p947
sbatp948
Rp949
(dp950
g14
Vdobj
p951
sbag0
(g1
g2
(lp952
(lp953
S'word: he, index: 13'
p954
aatp955
Rp956
(dp957
g14
Vdobj
p958
sbatp959
Rp960
(dp961
g14
S'word: given, index: 5'
p962
sbatp963
Rp964
(dp965
g14
Vvmod
p966
sbatp967
Rp968
(dp969
g14
S'word: boy, index: 3'
p970
sbatp971
Rp972
(dp973
g14
Vnsubj
p974
sbag0
(g1
g2
(lp975
g0
(g1
g2
(lp976
g0
(g1
g2
(lp977
(lp978
S'word: his, index: 18'
p979
aatp980
Rp981
(dp982
g14
Vposs
p983
sbatp984
Rp985
(dp986
g14
S'word: self, index: 19'
p987
sbatp988
Rp989
(dp990
g14
Vprep
p991
sbatp992
Rp993
(dp994
g14
S'word: taking, index: 15'
p995
sbatp996
Rp997
(dp998
g14
S'id: 8'
p999
sbag0
(g1
g2
(lp1000
g0
(g1
g2
(lp1001
g0
(g1
g2
(lp1002
(lp1003
S'word: And, index: 1'
p1004
aatp1005
Rp1006
(dp1007
g14
Vnsubj
p1008
sbag0
(g1
g2
(lp1009
g0
(g1
g2
(lp1010
g0
(g1
g2
(lp1011
(lp1012
S'word: the, index: 2'
p1013
aatp1014
Rp1015
(dp1016
g14
Vdet
p1017
sbatp1018
Rp1019
(dp1020
g14
S'word: mother, index: 3'
p1021
sbatp1022
Rp1023
(dp1024
g14
Vposs
p1025
sbag0
(g1
g2
(lp1026
g0
(g1
g2
(lp1027
g0
(g1
g2
(lp1028
g0
(g1
g2
(lp1029
g0
(g1
g2
(lp1030
g0
(g1
g2
(lp1031
g0
(g1
g2
(lp1032
(lp1033
S"word: 's, index: 12"
p1034
aatp1035
Rp1036
(dp1037
g14
Vpossessive
p1038
sbag0
(g1
g2
(lp1039
g0
(g1
g2
(lp1040
g0
(g1
g2
(lp1041
(lp1042
S'word: out, index: 14'
p1043
aatp1044
Rp1045
(dp1046
g14
Vprt
p1047
sbag0
(g1
g2
(lp1048
(lp1049
S'word: the, index: 15'
p1050
aatp1051
Rp1052
(dp1053
g14
Vdobj
p1054
sbatp1055
Rp1056
(dp1057
g14
S'word: running, index: 13'
p1058
sbatp1059
Rp1060
(dp1061
g14
Vvmod
p1062
sbag0
(g1
g2
(lp1063
(lp1064
S'word: the, index: 10'
p1065
aatp1066
Rp1067
(dp1068
g14
Vdet
p1069
sbatp1070
Rp1071
(dp1072
g14
S'word: water, index: 11'
p1073
sbatp1074
Rp1075
(dp1076
g14
Vnsubj
p1077
sbag0
(g1
g2
(lp1078
(lp1079
S'word: where, index: 9'
p1080
aatp1081
Rp1082
(dp1083
g14
Vadvmod
p1084
sbatp1085
Rp1086
(dp1087
g14
S'word: sink, index: 16'
p1088
sbatp1089
Rp1090
(dp1091
g14
Vrcmod
p1092
sbatp1093
Rp1094
(dp1095
g14
S'word: water, index: 7'
p1096
sbatp1097
Rp1098
(dp1099
g14
Vprep
p1100
sbatp1101
Rp1102
(dp1103
g14
S'word: standing, index: 5'
p1104
sbatp1105
Rp1106
(dp1107
g14
S'id: 9'
p1108
sbag0
(g1
g2
(lp1109
g0
(g1
g2
(lp1110
g0
(g1
g2
(lp1111
(lp1112
S'word: two, index: 3'
p1113
aatp1114
Rp1115
(dp1116
g14
Vamod
p1117
sbag0
(g1
g2
(lp1118
g0
(g1
g2
(lp1119
g0
(g1
g2
(lp1120
(lp1121
S'word: there, index: 5'
p1122
aatp1123
Rp1124
(dp1125
g14
Vexpl
p1126
sbag0
(g1
g2
(lp1127
g0
(g1
g2
(lp1128
g0
(g1
g2
(lp1129
(lp1130
S'word: three, index: 7'
p1131
aatp1132
Rp1133
(dp1134
g14
Vnum
p1135
sbag0
(g1
g2
(lp1136
(lp1137
S'word: cabinet, index: 8'
p1138
aatp1139
Rp1140
(dp1141
g14
Vnn
p1142
sbag0
(g1
g2
(lp1143
(lp1144
S'word: drawers/cabinet, index: 9'
p1145
aatp1146
Rp1147
(dp1148
g14
Vnn
p1149
sbatp1150
Rp1151
(dp1152
g14
S'word: doors, index: 10'
p1153
sbatp1154
Rp1155
(dp1156
g14
Vnsubj
p1157
sbag0
(g1
g2
(lp1158
g0
(g1
g2
(lp1159
g0
(g1
g2
(lp1160
(lp1161
S"word: 's, index: 14"
p1162
aatp1163
Rp1164
(dp1165
g14
Vpossessive
p1166
sbag0
(g1
g2
(lp1167
g0
(g1
g2
(lp1168
g0
(g1
g2
(lp1169
g0
(g1
g2
(lp1170
g0
(g1
g2
(lp1171
(lp1172
S'word: the, index: 16'
p1173
aatp1174
Rp1175
(dp1176
g14
Vdet
p1177
sbatp1178
Rp1179
(dp1180
g14
S'word: cookies, index: 17'
p1181
sbatp1182
Rp1183
(dp1184
g14
Vdobj
p1185
sbag0
(g1
g2
(lp1186
(lp1187
S'word: out, index: 18'
p1188
aatp1189
Rp1190
(dp1191
g14
Vprt
p1192
sbatp1193
Rp1194
(dp1195
g14
S'word: taking, index: 15'
p1196
sbatp1197
Rp1198
(dp1199
g14
Vvmod
p1200
sbag0
(g1
g2
(lp1201
g0
(g1
g2
(lp1202
g0
(g1
g2
(lp1203
g0
(g1
g2
(lp1204
g0
(g1
g2
(lp1205
(lp1206
S'word: him, index: 23'
p1207
aatp1208
Rp1209
(dp1210
g14
Vprep
p1211
sbatp1212
Rp1213
(dp1214
g14
S'word: up, index: 21'
p1215
sbatp1216
Rp1217
(dp1218
g14
Vadvmod
p1219
sbatp1220
Rp1221
(dp1222
g14
S'word: two, index: 20'
p1223
sbatp1224
Rp1225
(dp1226
g14
Vdobj
p1227
sbag0
(g1
g2
(lp1228
(lp1229
S'word: where, index: 11'
p1230
aatp1231
Rp1232
(dp1233
g14
Vadvmod
p1234
sbag0
(g1
g2
(lp1235
(lp1236
S'word: the, index: 12'
p1237
aatp1238
Rp1239
(dp1240
g14
Vdet
p1241
sbatp1242
Rp1243
(dp1244
g14
S'word: boy, index: 13'
p1245
sbatp1246
Rp1247
(dp1248
g14
Vadvcl
p1249
sbatp1250
Rp1251
(dp1252
g14
S"word: 's, index: 6"
p1253
sbatp1254
Rp1255
(dp1256
g14
Vdep
p1257
sbatp1258
Rp1259
(dp1260
g14
S'word: One, index: 1'
p1261
sbatp1262
Rp1263
(dp1264
g14
S'id: 10'
p1265
sbag0
(g1
g2
(lp1266
g0
(g1
g2
(lp1267
g0
(g1
g2
(lp1268
(lp1269
S'word: The, index: 1'
p1270
aatp1271
Rp1272
(dp1273
g14
Vdet
p1274
sbag0
(g1
g2
(lp1275
(lp1276
S"word: 's, index: 3"
p1277
aatp1278
Rp1279
(dp1280
g14
Vpossessive
p1281
sbag0
(g1
g2
(lp1282
(lp1283
S'word: splashing, index: 4'
p1284
aatp1285
Rp1286
(dp1287
g14
Vamod
p1288
sbag0
(g1
g2
(lp1289
g0
(g1
g2
(lp1290
g0
(g1
g2
(lp1291
(lp1292
S'word: the, index: 6'
p1293
aatp1294
Rp1295
(dp1296
g14
Vdet
p1297
sbatp1298
Rp1299
(dp1300
g14
S'word: floor, index: 7'
p1301
sbatp1302
Rp1303
(dp1304
g14
Vprep
p1305
sbatp1306
Rp1307
(dp1308
g14
S'word: water, index: 2'
p1309
sbatp1310
Rp1311
(dp1312
g14
S'id: 11'
p1313
sbag0
(g1
g2
(lp1314
g0
(g1
g2
(lp1315
g0
(g1
g2
(lp1316
(lp1317
S'word: I, index: 1'
p1318
aatp1319
Rp1320
(dp1321
g14
Vnsubj
p1322
sbag0
(g1
g2
(lp1323
g0
(g1
g2
(lp1324
g0
(g1
g2
(lp1325
g0
(g1
g2
(lp1326
g0
(g1
g2
(lp1327
(lp1328
S'word: shrubbery, index: 6'
p1329
aatp1330
Rp1331
(dp1332
g14
Vnpadvmod
p1333
sbatp1334
Rp1335
(dp1336
g14
S'word: outside, index: 7'
p1337
sbatp1338
Rp1339
(dp1340
g14
Vdep
p1341
sbag0
(g1
g2
(lp1342
g0
(g1
g2
(lp1343
g0
(g1
g2
(lp1344
(lp1345
S'word: grass, index: 9'
p1346
aatp1347
Rp1348
(dp1349
g14
Vnn
p1350
sbatp1351
Rp1352
(dp1353
g14
S'word: outside, index: 10'
p1354
sbatp1355
Rp1356
(dp1357
g14
Vprep
p1358
sbatp1359
Rp1360
(dp1361
g14
S'word: trees, index: 3'
p1362
sbatp1363
Rp1364
(dp1365
g14
Vdobj
p1366
sbatp1367
Rp1368
(dp1369
g14
S'word: see, index: 2'
p1370
sbatp1371
Rp1372
(dp1373
g14
S'id: 12'
p1374
sbag0
(g1
g2
(lp1375
g0
(g1
g2
(lp1376
g0
(g1
g2
(lp1377
(lp1378
S'word: Curtains, index: 1'
p1379
aatp1380
Rp1381
(dp1382
g14
Vnsubjpass
p1383
sbag0
(g1
g2
(lp1384
(lp1385
S'word: are, index: 2'
p1386
aatp1387
Rp1388
(dp1389
g14
Vauxpass
p1390
sbag0
(g1
g2
(lp1391
(lp1392
S'word: back, index: 4'
p1393
aatp1394
Rp1395
(dp1396
g14
Vadvmod
p1397
sbatp1398
Rp1399
(dp1400
g14
S'word: pulled/tied, index: 3'
p1401
sbatp1402
Rp1403
(dp1404
g14
S'id: 13'
p1405
sbag0
(g1
g2
(lp1406
g0
(g1
g2
(lp1407
g0
(g1
g2
(lp1408
(lp1409
S'word: Mother, index: 1'
p1410
aatp1411
Rp1412
(dp1413
g14
Vnsubj
p1414
sbag0
(g1
g2
(lp1415
(lp1416
S'word: has, index: 2'
p1417
aatp1418
Rp1419
(dp1420
g14
Vaux
p1421
sbag0
(g1
g2
(lp1422
g0
(g1
g2
(lp1423
g0
(g1
g2
(lp1424
(lp1425
S'word: a, index: 4'
p1426
aatp1427
Rp1428
(dp1429
g14
Vdet
p1430
sbatp1431
Rp1432
(dp1433
g14
S'word: apron, index: 5'
p1434
sbatp1435
Rp1436
(dp1437
g14
Vpobj
p1438
sbag0
(g1
g2
(lp1439
g0
(g1
g2
(lp1440
g0
(g1
g2
(lp1441
(lp1442
S'word: Mother, index: 1'
p1443
aatp1444
Rp1445
(dp1446
g14
Vnsubj
p1447
sbag0
(g1
g2
(lp1448
g0
(g1
g2
(lp1449
g0
(g1
g2
(lp1450
(lp1451
S'word: a, index: 8'
p1452
aatp1453
Rp1454
(dp1455
g14
Vdet
p1456
sbatp1457
Rp1458
(dp1459
g14
S'word: dress, index: 9'
p1460
sbatp1461
Rp1462
(dp1463
g14
Vdobj
p1464
sbatp1465
Rp1466
(dp1467
g14
S'word: wearing, index: 7'
p1468
sbatp1469
Rp1470
(dp1471
g14
Vconj
p1472
sbatp1473
Rp1474
(dp1475
g14
S'word: on, index: 3'
p1476
sbatp1477
Rp1478
(dp1479
g14
S'id: 14'
p1480
sbag0
(g1
g2
(lp1481
g0
(g1
g2
(lp1482
g0
(g1
g2
(lp1483
(lp1484
S'word: There, index: 1'
p1485
aatp1486
Rp1487
(dp1488
g14
Vexpl
p1489
sbag0
(g1
g2
(lp1490
g0
(g1
g2
(lp1491
g0
(g1
g2
(lp1492
(lp1493
S'word: nothing, index: 3'
p1494
aatp1495
Rp1496
(dp1497
g14
Vnpadvmod
p1498
sbatp1499
Rp1500
(dp1501
g14
S'word: else, index: 4'
p1502
sbatp1503
Rp1504
(dp1505
g14
Vacomp
p1506
sbag0
(g1
g2
(lp1507
g0
(g1
g2
(lp1508
g0
(g1
g2
(lp1509
(lp1510
S'word: to, index: 5'
p1511
aatp1512
Rp1513
(dp1514
g14
Vaux
p1515
sbag0
(g1
g2
(lp1516
(lp1517
S'word: it, index: 8'
p1518
aatp1519
Rp1520
(dp1521
g14
Vprep
p1522
sbatp1523
Rp1524
(dp1525
g14
S'word: say, index: 6'
p1526
sbatp1527
Rp1528
(dp1529
g14
Vxcomp
p1530
sbatp1531
Rp1532
(dp1533
g14
S"word: 's, index: 2"
p1534
sbatp1535
Rp1536
(dp1537
g14
S'id: 15'
p1538
sbag0
(g1
g2
(lp1539
g0
(g1
g2
(lp1540
g0
(g1
g2
(lp1541
(lp1542
S'word: There, index: 1'
p1543
aatp1544
Rp1545
(dp1546
g14
Vexpl
p1547
sbag0
(g1
g2
(lp1548
g0
(g1
g2
(lp1549
g0
(g1
g2
(lp1550
(lp1551
S'word: a, index: 3'
p1552
aatp1553
Rp1554
(dp1555
g14
Vdet
p1556
sbag0
(g1
g2
(lp1557
g0
(g1
g2
(lp1558
g0
(g1
g2
(lp1559
(lp1560
S'word: two, index: 7'
p1561
aatp1562
Rp1563
(dp1564
g14
Vnum
p1565
sbag0
(g1
g2
(lp1566
g0
(g1
g2
(lp1567
g0
(g1
g2
(lp1568
(lp1569
S'word: a, index: 10'
p1570
aatp1571
Rp1572
(dp1573
g14
Vdet
p1574
sbag0
(g1
g2
(lp1575
(lp1576
S'word: hot, index: 11'
p1577
aatp1578
Rp1579
(dp1580
g14
Vamod
p1581
sbatp1582
Rp1583
(dp1584
g14
S'word: water, index: 12'
p1585
sbatp1586
Rp1587
(dp1588
g14
Vappos
p1589
sbatp1590
Rp1591
(dp1592
g14
S'word: waterfalls, index: 8'
p1593
sbatp1594
Rp1595
(dp1596
g14
Vconj
p1597
sbatp1598
Rp1599
(dp1600
g14
S'word: spicket, index: 4'
p1601
sbatp1602
Rp1603
(dp1604
g14
Vnsubj
p1605
sbag0
(g1
g2
(lp1606
g1591
atp1607
Rp1608
(dp1609
g14
Vnsubj
p1610
sbatp1611
Rp1612
(dp1613
g14
S"word: 's, index: 2"
p1614
sbatp1615
Rp1616
(dp1617
g14
S'id: 16'
p1618
sbag0
(g1
g2
(lp1619
g0
(g1
g2
(lp1620
g0
(g1
g2
(lp1621
g0
(g1
g2
(lp1622
g0
(g1
g2
(lp1623
g0
(g1
g2
(lp1624
g0
(g1
g2
(lp1625
(lp1626
S'word: an, index: 4'
p1627
aatp1628
Rp1629
(dp1630
g14
Vdet
p1631
sbatp1632
Rp1633
(dp1634
g14
S'word: apron, index: 5'
p1635
sbatp1636
Rp1637
(dp1638
g14
Vdobj
p1639
sbag0
(g1
g2
(lp1640
g0
(g1
g2
(lp1641
g0
(g1
g2
(lp1642
(lp1643
S"word: 's, index: 2"
p1644
aatp1645
Rp1646
(dp1647
g14
Vpossessive
p1648
sbatp1649
Rp1650
(dp1651
g14
S'word: Mother, index: 1'
p1652
sbatp1653
Rp1654
(dp1655
g14
Vnsubj
p1656
sbatp1657
Rp1658
(dp1659
g14
S'word: wearing, index: 3'
p1660
sbatp1661
Rp1662
(dp1663
g14
Vvmod
p1664
sbag0
(g1
g2
(lp1665
(lp1666
S'word: I, index: 7'
p1667
aatp1668
Rp1669
(dp1670
g14
Vnsubj
p1671
sbag0
(g1
g2
(lp1672
(lp1673
S'word: do, index: 8'
p1674
aatp1675
Rp1676
(dp1677
g14
Vaux
p1678
sbag0
(g1
g2
(lp1679
(lp1680
S"word: n't, index: 9"
p1681
aatp1682
Rp1683
(dp1684
g14
Vneg
p1685
sbag0
(g1
g2
(lp1686
g0
(g1
g2
(lp1687
g0
(g1
g2
(lp1688
(lp1689
S'word: if, index: 11'
p1690
aatp1691
Rp1692
(dp1693
g14
Vmark
p1694
sbag0
(g1
g2
(lp1695
(lp1696
S'word: I, index: 12'
p1697
aatp1698
Rp1699
(dp1700
g14
Vnsubj
p1701
sbag0
(g1
g2
(lp1702
(lp1703
S'word: that, index: 14'
p1704
aatp1705
Rp1706
(dp1707
g14
Vadvmod
p1708
sbag0
(g1
g2
(lp1709
(lp1710
S'word: already, index: 15'
p1711
aatp1712
Rp1713
(dp1714
g14
Vadvmod
p1715
sbatp1716
Rp1717
(dp1718
g14
S'word: said, index: 13'
p1719
sbatp1720
Rp1721
(dp1722
g14
Vadvcl
p1723
sbatp1724
Rp1725
(dp1726
g14
S'word: know, index: 10'
p1727
sbatp1728
Rp1729
(dp1730
g14
S'id: 17'
p1731
sbag0
(g1
g2
(lp1732
g0
(g1
g2
(lp1733
g0
(g1
g2
(lp1734
g0
(g1
g2
(lp1735
g0
(g1
g2
(lp1736
(lp1737
S'word: her, index: 6'
p1738
aatp1739
Rp1740
(dp1741
g14
Vposs
p1742
sbag0
(g1
g2
(lp1743
g0
(g1
g2
(lp1744
g0
(g1
g2
(lp1745
(lp1746
S'word: her, index: 9'
p1747
aatp1748
Rp1749
(dp1750
g14
Vposs
p1751
sbag0
(g1
g2
(lp1752
g0
(g1
g2
(lp1753
g0
(g1
g2
(lp1754
(lp1755
S'word: is, index: 11'
p1756
aatp1757
Rp1758
(dp1759
g14
Vcop
p1760
sbag0
(g1
g2
(lp1761
(lp1762
S'word: shoulder, index: 12'
p1763
aatp1764
Rp1765
(dp1766
g14
Vnn
p1767
sbatp1768
Rp1769
(dp1770
g14
S'word: length, index: 13'
p1771
sbatp1772
Rp1773
(dp1774
g14
Vrcmod
p1775
sbatp1776
Rp1777
(dp1778
g14
S'word: hair, index: 10'
p1779
sbatp1780
Rp1781
(dp1782
g14
Vappos
p1783
sbatp1784
Rp1785
(dp1786
g14
S'word: dress, index: 7'
p1787
sbatp1788
Rp1789
(dp1790
g14
Vdep
p1791
sbag0
(g1
g2
(lp1792
(lp1793
S'word: The, index: 1'
p1794
aatp1795
Rp1796
(dp1797
g14
Vdet
p1798
sbag0
(g1
g2
(lp1799
(lp1800
S'word: little, index: 2'
p1801
aatp1802
Rp1803
(dp1804
g14
Vamod
p1805
sbag0
(g1
g2
(lp1806
(lp1807
S"word: 's, index: 4"
p1808
aatp1809
Rp1810
(dp1811
g14
Vpossessive
p1812
sbag0
(g1
g2
(lp1813
(lp1814
S'word: wearing, index: 5'
p1815
aatp1816
Rp1817
(dp1818
g14
Vamod
p1819
sbatp1820
Rp1821
(dp1822
g14
S'word: girl, index: 3'
p1823
sbatp1824
Rp1825
(dp1826
g14
S'id: 18'
p1827
sbag0
(g1
g2
(lp1828
g0
(g1
g2
(lp1829
g0
(g1
g2
(lp1830
g0
(g1
g2
(lp1831
g0
(g1
g2
(lp1832
(lp1833
S'word: I, index: 7'
p1834
aatp1835
Rp1836
(dp1837
g14
Vnsubj
p1838
sbag0
(g1
g2
(lp1839
(lp1840
S"word: 'll, index: 8"
p1841
aatp1842
Rp1843
(dp1844
g14
Vaux
p1845
sbatp1846
Rp1847
(dp1848
g14
S'word: say, index: 9'
p1849
sbatp1850
Rp1851
(dp1852
g14
Vrcmod
p1853
sbag0
(g1
g2
(lp1854
g0
(g1
g2
(lp1855
g0
(g1
g2
(lp1856
(lp1857
S'word: The, index: 1'
p1858
aatp1859
Rp1860
(dp1861
g14
Vdet
p1862
sbag0
(g1
g2
(lp1863
(lp1864
S'word: boy, index: 2'
p1865
aatp1866
Rp1867
(dp1868
g14
Vnn
p1869
sbatp1870
Rp1871
(dp1872
g14
S'word: hair, index: 3'
p1873
sbatp1874
Rp1875
(dp1876
g14
Vnsubj
p1877
sbag0
(g1
g2
(lp1878
(lp1879
S'word: is, index: 4'
p1880
aatp1881
Rp1882
(dp1883
g14
Vcop
p1884
sbag0
(g1
g2
(lp1885
(lp1886
S'word: crew, index: 5'
p1887
aatp1888
Rp1889
(dp1890
g14
Vnn
p1891
sbatp1892
Rp1893
(dp1894
g14
S'word: cut, index: 6'
p1895
sbatp1896
Rp1897
(dp1898
g14
S'id: 19'
p1899
sbatp1900
Rp1901
(dp1902
g14
S'sentences'
p1903
sb.