ccopy_reg
_reconstructor
p0
(cnltk.tree
Tree
p1
c__builtin__
list
p2
(lp3
g0
(g1
g2
(lp4
g0
(g1
g2
(lp5
g0
(g1
g2
(lp6
g0
(g1
g2
(lp7
g0
(g1
g2
(lp8
(lp9
S'word: it, index: 1'
p10
aatp11
Rp12
(dp13
S'_label'
p14
Vnsubj
p15
sbag0
(g1
g2
(lp16
(lp17
S"word: 's, index: 2"
p18
aatp19
Rp20
(dp21
g14
Vcop
p22
sbatp23
Rp24
(dp25
g14
S'word: a, index: 3'
p26
sbatp27
Rp28
(dp29
g14
Vccomp
p30
sbag0
(g1
g2
(lp31
(lp32
S'word: it, index: 5'
p33
aatp34
Rp35
(dp36
g14
Vnsubj
p37
sbag0
(g1
g2
(lp38
(lp39
S'word: is, index: 6'
p40
aatp41
Rp42
(dp43
g14
Vcop
p44
sbag0
(g1
g2
(lp45
(lp46
S'word: a, index: 7'
p47
aatp48
Rp49
(dp50
g14
Vdet
p51
sbatp52
Rp53
(dp54
g14
S'word: circus, index: 8'
p55
sbatp56
Rp57
(dp58
g14
S'id: 0'
p59
sbag0
(g1
g2
(lp60
g0
(g1
g2
(lp61
g0
(g1
g2
(lp62
(lp63
S'word: a, index: 3'
p64
aatp65
Rp66
(dp67
g14
Vdet
p68
sbag0
(g1
g2
(lp69
g0
(g1
g2
(lp70
g0
(g1
g2
(lp71
(lp72
S'word: it, index: 7'
p73
aatp74
Rp75
(dp76
g14
Vnsubj
p77
sbag0
(g1
g2
(lp78
(lp79
S"word: 's, index: 8"
p80
aatp81
Rp82
(dp83
g14
Vcop
p84
sbag0
(g1
g2
(lp85
g0
(g1
g2
(lp86
g0
(g1
g2
(lp87
g0
(g1
g2
(lp88
g0
(g1
g2
(lp89
(lp90
S'word: a, index: 12'
p91
aatp92
Rp93
(dp94
g14
Vdet
p95
sbatp96
Rp97
(dp98
g14
S'word: horse, index: 13'
p99
sbatp100
Rp101
(dp102
g14
Vdobj
p103
sbatp104
Rp105
(dp106
g14
S'word: riding, index: 11'
p107
sbatp108
Rp109
(dp110
g14
Vvmod
p111
sbatp112
Rp113
(dp114
g14
S'word: woman, index: 9'
p115
sbatp116
Rp117
(dp118
g14
Vconj
p119
sbag0
(g1
g2
(lp120
(lp121
S'word: it, index: 1'
p122
aatp123
Rp124
(dp125
g14
Vnsubj
p126
sbag0
(g1
g2
(lp127
(lp128
S"word: 's, index: 2"
p129
aatp130
Rp131
(dp132
g14
Vcop
p133
sbatp134
Rp135
(dp136
g14
S'word: horse, index: 4'
p137
sbatp138
Rp139
(dp140
g14
S'id: 1'
p141
sbag0
(g1
g2
(lp142
g0
(g1
g2
(lp143
g0
(g1
g2
(lp144
g0
(g1
g2
(lp145
g0
(g1
g2
(lp146
(lp147
S'word: lady, index: 8'
p148
aatp149
Rp150
(dp151
g14
Vnsubj
p152
sbag0
(g1
g2
(lp153
g0
(g1
g2
(lp154
g0
(g1
g2
(lp155
(lp156
S'word: a, index: 10'
p157
aatp158
Rp159
(dp160
g14
Vdet
p161
sbatp162
Rp163
(dp164
g14
S'word: child, index: 11'
p165
sbatp166
Rp167
(dp168
g14
Vdobj
p169
sbatp170
Rp171
(dp172
g14
S'word: holding, index: 9'
p173
sbatp174
Rp175
(dp176
g14
Vconj
p177
sbag0
(g1
g2
(lp178
g0
(g1
g2
(lp179
g0
(g1
g2
(lp180
(lp181
S'word: a, index: 2'
p182
aatp183
Rp184
(dp185
g14
Vdet
p186
sbatp187
Rp188
(dp189
g14
S'word: clown, index: 3'
p190
sbatp191
Rp192
(dp193
g14
Vnsubj
p194
sbag0
(g1
g2
(lp195
(lp196
S'word: is, index: 4'
p197
aatp198
Rp199
(dp200
g14
Vcop
p201
sbatp202
Rp203
(dp204
g14
S'word: popcorn, index: 5'
p205
sbatp206
Rp207
(dp208
g14
S'id: 2'
p209
sbag0
(g1
g2
(lp210
g0
(g1
g2
(lp211
g0
(g1
g2
(lp212
(lp213
S'word: And, index: 1'
p214
aatp215
Rp216
(dp217
g14
Vcc
p218
sbag0
(g1
g2
(lp219
g0
(g1
g2
(lp220
g0
(g1
g2
(lp221
(lp222
S'word: the, index: 2'
p223
aatp224
Rp225
(dp226
g14
Vdet
p227
sbatp228
Rp229
(dp230
g14
S'word: boy, index: 3'
p231
sbatp232
Rp233
(dp234
g14
Vnsubj
p235
sbag0
(g1
g2
(lp236
(lp237
S'word: is, index: 4'
p238
aatp239
Rp240
(dp241
g14
Vaux
p242
sbag0
(g1
g2
(lp243
g0
(g1
g2
(lp244
g0
(g1
g2
(lp245
(lp246
S'word: the, index: 6'
p247
aatp248
Rp249
(dp250
g14
Vdet
p251
sbatp252
Rp253
(dp254
g14
S'word: popcorn, index: 7'
p255
sbatp256
Rp257
(dp258
g14
Vdobj
p259
sbatp260
Rp261
(dp262
g14
S'word: catching, index: 5'
p263
sbatp264
Rp265
(dp266
g14
S'id: 3'
p267
sbag0
(g1
g2
(lp268
g0
(g1
g2
(lp269
g0
(g1
g2
(lp270
g0
(g1
g2
(lp271
g0
(g1
g2
(lp272
(lp273
S'word: a, index: 10'
p274
aatp275
Rp276
(dp277
g14
Vdet
p278
sbag0
(g1
g2
(lp279
(lp280
S'word: little, index: 11'
p281
aatp282
Rp283
(dp284
g14
Vamod
p285
sbatp286
Rp287
(dp288
g14
S'word: girl, index: 12'
p289
sbatp290
Rp291
(dp292
g14
Vnsubj
p293
sbag0
(g1
g2
(lp294
(lp295
S'word: is, index: 14'
p296
aatp297
Rp298
(dp299
g14
Vaux
p300
sbag0
(g1
g2
(lp301
g0
(g1
g2
(lp302
g0
(g1
g2
(lp303
g287
atp304
Rp305
(dp306
g14
Vconj
p307
sbag0
(g1
g2
(lp308
(lp309
S'word: The, index: 1'
p310
aatp311
Rp312
(dp313
g14
Vdet
p314
sbag0
(g1
g2
(lp315
g0
(g1
g2
(lp316
g0
(g1
g2
(lp317
g0
(g1
g2
(lp318
g0
(g1
g2
(lp319
(lp320
S'word: the, index: 2'
p321
aatp322
Rp323
(dp324
g14
Vdep
p325
sbatp326
Rp327
(dp328
g14
S'word: the, index: 3'
p329
sbatp330
Rp331
(dp332
g14
Vadvmod
p333
sbatp334
Rp335
(dp336
g14
S'word: the, index: 4'
p337
sbatp338
Rp339
(dp340
g14
Vamod
p341
sbag0
(g1
g2
(lp342
(lp343
S'word: two, index: 8'
p344
aatp345
Rp346
(dp347
g14
Vconj
p348
sbatp349
Rp350
(dp351
g14
S'word: man, index: 5'
p352
sbatp353
Rp354
(dp355
g14
Vnsubj
p356
sbag0
(g1
g2
(lp357
(lp358
S'word: two, index: 8'
p359
aatp360
Rp361
(dp362
g14
Vnsubj
p363
sbatp364
Rp365
(dp366
g14
S'word: laughing, index: 15'
p367
sbatp368
Rp369
(dp370
g14
S'id: 4'
p371
sbag0
(g1
g2
(lp372
g0
(g1
g2
(lp373
g0
(g1
g2
(lp374
(lp375
S'word: The, index: 1'
p376
aatp377
Rp378
(dp379
g14
Vdet
p380
sbatp381
Rp382
(dp383
g14
S'word: ring, index: 2'
p384
sbatp385
Rp386
(dp387
g14
S'id: 5'
p388
sbag0
(g1
g2
(lp389
g0
(g1
g2
(lp390
g0
(g1
g2
(lp391
(lp392
S'word: The, index: 1'
p393
aatp394
Rp395
(dp396
g14
Vdet
p397
sbatp398
Rp399
(dp400
g14
S'word: mass, index: 2'
p401
sbatp402
Rp403
(dp404
g14
S'id: 6'
p405
sbag0
(g1
g2
(lp406
g0
(g1
g2
(lp407
g0
(g1
g2
(lp408
g0
(g1
g2
(lp409
g0
(g1
g2
(lp410
(lp411
S'word: is, index: 4'
p412
aatp413
Rp414
(dp415
g14
Vaux
p416
sbatp417
Rp418
(dp419
g14
S'word: is, index: 5'
p420
sbatp421
Rp422
(dp423
g14
Vccomp
p424
sbag0
(g1
g2
(lp425
g0
(g1
g2
(lp426
g0
(g1
g2
(lp427
(lp428
S'word: a, index: 7'
p429
aatp430
Rp431
(dp432
g14
Vdet
p433
sbatp434
Rp435
(dp436
g14
S'word: lion, index: 8'
p437
sbatp438
Rp439
(dp440
g14
Vnsubj
p441
sbag0
(g1
g2
(lp442
(lp443
S'word: is, index: 9'
p444
aatp445
Rp446
(dp447
g14
Vaux
p448
sbag0
(g1
g2
(lp449
g0
(g1
g2
(lp450
g0
(g1
g2
(lp451
(lp452
S'word: the, index: 12'
p453
aatp454
Rp455
(dp456
g14
Vdet
p457
sbag0
(g1
g2
(lp458
(lp459
S'word: ring, index: 13'
p460
aatp461
Rp462
(dp463
g14
Vnn
p464
sbatp465
Rp466
(dp467
g14
S'word: master, index: 14'
p468
sbatp469
Rp470
(dp471
g14
Vprep
p472
sbag0
(g1
g2
(lp473
g0
(g1
g2
(lp474
g0
(g1
g2
(lp475
(lp476
S'word: The, index: 1'
p477
aatp478
Rp479
(dp480
g14
Vdet
p481
sbatp482
Rp483
(dp484
g14
S'word: lion, index: 2'
p485
sbatp486
Rp487
(dp488
g14
Vnsubj
p489
sbatp490
Rp491
(dp492
g14
S'word: sitting, index: 10'
p493
sbatp494
Rp495
(dp496
g14
S'id: 7'
p497
sbag0
(g1
g2
(lp498
tp499
Rp500
(dp501
g14
S'id: 8'
p502
sbag0
(g1
g2
(lp503
g0
(g1
g2
(lp504
g0
(g1
g2
(lp505
g0
(g1
g2
(lp506
g0
(g1
g2
(lp507
(lp508
S'word: The, index: 1'
p509
aatp510
Rp511
(dp512
g14
Vnsubj
p513
sbatp514
Rp515
(dp516
g14
S'word: riding, index: 2'
p517
sbatp518
Rp519
(dp520
g14
Vadvcl
p521
sbag0
(g1
g2
(lp522
g0
(g1
g2
(lp523
g0
(g1
g2
(lp524
(lp525
S'word: a, index: 4'
p526
aatp527
Rp528
(dp529
g14
Vdet
p530
sbatp531
Rp532
(dp533
g14
S'word: type, index: 5'
p534
sbatp535
Rp536
(dp537
g14
Vnsubj
p538
sbatp539
Rp540
(dp541
g14
S'word: write, index: 6'
p542
sbatp543
Rp544
(dp545
g14
S'id: 9'
p546
sbag0
(g1
g2
(lp547
g0
(g1
g2
(lp548
g0
(g1
g2
(lp549
g0
(g1
g2
(lp550
g0
(g1
g2
(lp551
(lp552
S'word: a, index: 2'
p553
aatp554
Rp555
(dp556
g14
Vpredet
p557
sbag0
(g1
g2
(lp558
(lp559
S'word: the, index: 3'
p560
aatp561
Rp562
(dp563
g14
Vdet
p564
sbatp565
Rp566
(dp567
g14
S'word: walk, index: 4'
p568
sbatp569
Rp570
(dp571
g14
Vdobj
p572
sbatp573
Rp574
(dp575
g14
S'word: Riding, index: 1'
p576
sbatp577
Rp578
(dp579
g14
S'id: 10'
p580
sbag0
(g1
g2
(lp581
g0
(g1
g2
(lp582
g0
(g1
g2
(lp583
(lp584
S'word: The, index: 1'
p585
aatp586
Rp587
(dp588
g14
Vdet
p589
sbag0
(g1
g2
(lp590
g0
(g1
g2
(lp591
g0
(g1
g2
(lp592
(lp593
S'word: the, index: 4'
p594
aatp595
Rp596
(dp597
g14
Vdet
p598
sbag0
(g1
g2
(lp599
(lp600
S'word: tight, index: 5'
p601
aatp602
Rp603
(dp604
g14
Vamod
p605
sbatp606
Rp607
(dp608
g14
S'word: wire, index: 6'
p609
sbatp610
Rp611
(dp612
g14
Vappos
p613
sbag0
(g1
g2
(lp614
(lp615
S'word: balancing, index: 8'
p616
aatp617
Rp618
(dp619
g14
Vappos
p620
sbag0
(g1
g2
(lp621
g0
(g1
g2
(lp622
g0
(g1
g2
(lp623
(lp624
S'word: the, index: 10'
p625
aatp626
Rp627
(dp628
g14
Vnsubj
p629
sbag0
(g1
g2
(lp630
g0
(g1
g2
(lp631
g0
(g1
g2
(lp632
(lp633
S'word: the, index: 12'
p634
aatp635
Rp636
(dp637
g14
Vdet
p638
sbatp639
Rp640
(dp641
g14
S'word: person, index: 13'
p642
sbatp643
Rp644
(dp645
g14
Vdobj
p646
sbatp647
Rp648
(dp649
g14
S'word: balancing, index: 11'
p650
sbatp651
Rp652
(dp653
g14
Vdep
p654
sbatp655
Rp656
(dp657
g14
S'word: type, index: 2'
p658
sbatp659
Rp660
(dp661
g14
S'id: 11'
p662
sbatp663
Rp664
(dp665
g14
S'sentences'
p666
sb.