ccopy_reg
_reconstructor
p0
(cnltk.tree
Tree
p1
c__builtin__
list
p2
(lp3
g0
(g1
g2
(lp4
g0
(g1
g2
(lp5
g0
(g1
g2
(lp6
Vso
p7
atp8
Rp9
(dp10
S'_label'
p11
VIN
p12
sbag0
(g1
g2
(lp13
g0
(g1
g2
(lp14
g0
(g1
g2
(lp15
Vthe
p16
atp17
Rp18
(dp19
g11
VDT
p20
sbag0
(g1
g2
(lp21
Vgirl
p22
atp23
Rp24
(dp25
g11
VNN
p26
sbatp27
Rp28
(dp29
g11
VNP
p30
sbag0
(g1
g2
(lp31
Vand
p32
atp33
Rp34
(dp35
g11
VCC
p36
sbag0
(g1
g2
(lp37
g0
(g1
g2
(lp38
Vthe
p39
atp40
Rp41
(dp42
g11
VDT
p43
sbag0
(g1
g2
(lp44
Vboy
p45
atp46
Rp47
(dp48
g11
VNN
p49
sbatp50
Rp51
(dp52
g11
VNP
p53
sbatp54
Rp55
(dp56
g11
VNP
p57
sbag0
(g1
g2
(lp58
g0
(g1
g2
(lp59
Vare
p60
atp61
Rp62
(dp63
g11
VVBP
p64
sbag0
(g1
g2
(lp65
g0
(g1
g2
(lp66
Vpicking
p67
atp68
Rp69
(dp70
g11
VVBG
p71
sbag0
(g1
g2
(lp72
g0
(g1
g2
(lp73
Vup
p74
atp75
Rp76
(dp77
g11
VRP
p78
sbatp79
Rp80
(dp81
g11
VPRT
p82
sbag0
(g1
g2
(lp83
g0
(g1
g2
(lp84
Vfood
p85
atp86
Rp87
(dp88
g11
VNN
p89
sbatp90
Rp91
(dp92
g11
VNP
p93
sbag0
(g1
g2
(lp94
V,
p95
atp96
Rp97
(dp98
g11
V,
p99
sbag0
(g1
g2
(lp100
g0
(g1
g2
(lp101
Vup
p102
atp103
Rp104
(dp105
g11
VRB
p106
sbag0
(g1
g2
(lp107
Vhigh
p108
atp109
Rp110
(dp111
g11
VJJ
p112
sbatp113
Rp114
(dp115
g11
VADVP
p116
sbatp117
Rp118
(dp119
g11
VVP
p120
sbatp121
Rp122
(dp123
g11
VVP
p124
sbag0
(g1
g2
(lp125
V.
p126
atp127
Rp128
(dp129
g11
V.
p130
sbatp131
Rp132
(dp133
g11
VS
p134
sbatp135
Rp136
(dp137
g11
S'id: 0'
p138
sbag0
(g1
g2
(lp139
g0
(g1
g2
(lp140
g0
(g1
g2
(lp141
g0
(g1
g2
(lp142
g0
(g1
g2
(lp143
VThe
p144
atp145
Rp146
(dp147
g11
VDT
p148
sbag0
(g1
g2
(lp149
Vlady
p150
atp151
Rp152
(dp153
g11
VNN
p154
sbatp155
Rp156
(dp157
g11
VNP
p158
sbag0
(g1
g2
(lp159
g0
(g1
g2
(lp160
Vis
p161
atp162
Rp163
(dp164
g11
VVBZ
p165
sbag0
(g1
g2
(lp166
V,
p167
atp168
Rp169
(dp170
g11
V,
p171
sbag0
(g1
g2
(lp172
g0
(g1
g2
(lp173
g0
(g1
g2
(lp174
g0
(g1
g2
(lp175
Vthe
p176
atp177
Rp178
(dp179
g11
VDT
p180
sbag0
(g1
g2
(lp181
Vlady
p182
atp183
Rp184
(dp185
g11
VNN
p186
sbatp187
Rp188
(dp189
g11
VNP
p190
sbag0
(g1
g2
(lp191
g0
(g1
g2
(lp192
Vis
p193
atp194
Rp195
(dp196
g11
VVBZ
p197
sbag0
(g1
g2
(lp198
g0
(g1
g2
(lp199
Vwashing
p200
atp201
Rp202
(dp203
g11
VVBG
p204
sbag0
(g1
g2
(lp205
g0
(g1
g2
(lp206
Vher
p207
atp208
Rp209
(dp210
g11
VPRP$
p211
sbag0
(g1
g2
(lp212
Vfood
p213
atp214
Rp215
(dp216
g11
VNN
p217
sbatp218
Rp219
(dp220
g11
VNP
p221
sbatp222
Rp223
(dp224
g11
VVP
p225
sbatp226
Rp227
(dp228
g11
VVP
p229
sbatp230
Rp231
(dp232
g11
VS
p233
sbatp234
Rp235
(dp236
g11
VSBAR
p237
sbatp238
Rp239
(dp240
g11
VVP
p241
sbatp242
Rp243
(dp244
g11
VS
p245
sbag0
(g1
g2
(lp246
V,
p247
atp248
Rp249
(dp250
g11
V,
p251
sbag0
(g1
g2
(lp252
Vand
p253
atp254
Rp255
(dp256
g11
VCC
p257
sbag0
(g1
g2
(lp258
Vnot
p259
atp260
Rp261
(dp262
g11
VRB
p263
sbag0
(g1
g2
(lp264
g0
(g1
g2
(lp265
g0
(g1
g2
(lp266
Vpaying
p267
atp268
Rp269
(dp270
g11
VVBG
p271
sbag0
(g1
g2
(lp272
g0
(g1
g2
(lp273
g0
(g1
g2
(lp274
Vattention
p275
atp276
Rp277
(dp278
g11
VNN
p279
sbatp280
Rp281
(dp282
g11
VNP
p283
sbag0
(g1
g2
(lp284
g0
(g1
g2
(lp285
g0
(g1
g2
(lp286
g0
(g1
g2
(lp287
Vthe
p288
atp289
Rp290
(dp291
g11
VDT
p292
sbag0
(g1
g2
(lp293
Vwater
p294
atp295
Rp296
(dp297
g11
VNN
p298
sbatp299
Rp300
(dp301
g11
VNP
p302
sbag0
(g1
g2
(lp303
g0
(g1
g2
(lp304
Vis
p305
atp306
Rp307
(dp308
g11
VVBZ
p309
sbag0
(g1
g2
(lp310
g0
(g1
g2
(lp311
Vcoming
p312
atp313
Rp314
(dp315
g11
VVBG
p316
sbag0
(g1
g2
(lp317
g0
(g1
g2
(lp318
Vdown
p319
atp320
Rp321
(dp322
g11
VRP
p323
sbatp324
Rp325
(dp326
g11
VPRT
p327
sbag0
(g1
g2
(lp328
g0
(g1
g2
(lp329
Von
p330
atp331
Rp332
(dp333
g11
VIN
p334
sbag0
(g1
g2
(lp335
g0
(g1
g2
(lp336
Vthe
p337
atp338
Rp339
(dp340
g11
VDT
p341
sbag0
(g1
g2
(lp342
Vfloor
p343
atp344
Rp345
(dp346
g11
VNN
p347
sbatp348
Rp349
(dp350
g11
VNP
p351
sbatp352
Rp353
(dp354
g11
VPP
p355
sbatp356
Rp357
(dp358
g11
VVP
p359
sbatp360
Rp361
(dp362
g11
VVP
p363
sbatp364
Rp365
(dp366
g11
VS
p367
sbatp368
Rp369
(dp370
g11
VSBAR
p371
sbatp372
Rp373
(dp374
g11
VNP
p375
sbatp376
Rp377
(dp378
g11
VVP
p379
sbatp380
Rp381
(dp382
g11
VS
p383
sbag0
(g1
g2
(lp384
V.
p385
atp386
Rp387
(dp388
g11
V.
p389
sbatp390
Rp391
(dp392
g11
VS
p393
sbatp394
Rp395
(dp396
g11
S'id: 1'
p397
sbag0
(g1
g2
(lp398
g0
(g1
g2
(lp399
g0
(g1
g2
(lp400
g0
(g1
g2
(lp401
g0
(g1
g2
(lp402
VWhy
p403
atp404
Rp405
(dp406
g11
VWRB
p407
sbatp408
Rp409
(dp410
g11
VWHADVP
p411
sbag0
(g1
g2
(lp412
g0
(g1
g2
(lp413
g0
(g1
g2
(lp414
VShe
p415
atp416
Rp417
(dp418
g11
VPRP
p419
sbatp420
Rp421
(dp422
g11
VNP
p423
sbag0
(g1
g2
(lp424
g0
(g1
g2
(lp425
V's
p426
atp427
Rp428
(dp429
g11
VVBZ
p430
sbag0
(g1
g2
(lp431
g0
(g1
g2
(lp432
Vlooking
p433
atp434
Rp435
(dp436
g11
VVBG
p437
sbag0
(g1
g2
(lp438
g0
(g1
g2
(lp439
Vat
p440
atp441
Rp442
(dp443
g11
VIN
p444
sbag0
(g1
g2
(lp445
g0
(g1
g2
(lp446
g0
(g1
g2
(lp447
Vthe
p448
atp449
Rp450
(dp451
g11
VDT
p452
sbag0
(g1
g2
(lp453
Vman
p454
atp455
Rp456
(dp457
g11
VNN
p458
sbatp459
Rp460
(dp461
g11
VNP
p462
sbag0
(g1
g2
(lp463
g0
(g1
g2
(lp464
Vin
p465
atp466
Rp467
(dp468
g11
VIN
p469
sbag0
(g1
g2
(lp470
g0
(g1
g2
(lp471
Vthe
p472
atp473
Rp474
(dp475
g11
VDT
p476
sbag0
(g1
g2
(lp477
Vother
p478
atp479
Rp480
(dp481
g11
VJJ
p482
sbag0
(g1
g2
(lp483
Vroom
p484
atp485
Rp486
(dp487
g11
VNN
p488
sbatp489
Rp490
(dp491
g11
VNP
p492
sbatp493
Rp494
(dp495
g11
VPP
p496
sbatp497
Rp498
(dp499
g11
VNP
p500
sbatp501
Rp502
(dp503
g11
VPP
p504
sbatp505
Rp506
(dp507
g11
VVP
p508
sbatp509
Rp510
(dp511
g11
VVP
p512
sbatp513
Rp514
(dp515
g11
VS
p516
sbatp517
Rp518
(dp519
g11
VSBAR
p520
sbag0
(g1
g2
(lp521
V,
p522
atp523
Rp524
(dp525
g11
V,
p526
sbag0
(g1
g2
(lp527
g0
(g1
g2
(lp528
VI
p529
atp530
Rp531
(dp532
g11
VPRP
p533
sbatp534
Rp535
(dp536
g11
VNP
p537
sbag0
(g1
g2
(lp538
g0
(g1
g2
(lp539
Vguess
p540
atp541
Rp542
(dp543
g11
VVBP
p544
sbatp545
Rp546
(dp547
g11
VVP
p548
sbag0
(g1
g2
(lp549
V.
p550
atp551
Rp552
(dp553
g11
V.
p554
sbatp555
Rp556
(dp557
g11
VS
p558
sbatp559
Rp560
(dp561
g11
S'id: 2'
p562
sbag0
(g1
g2
(lp563
g0
(g1
g2
(lp564
g0
(g1
g2
(lp565
VAnd
p566
atp567
Rp568
(dp569
g11
VCC
p570
sbag0
(g1
g2
(lp571
g0
(g1
g2
(lp572
g0
(g1
g2
(lp573
Vthe
p574
atp575
Rp576
(dp577
g11
VDT
p578
sbag0
(g1
g2
(lp579
Vboy
p580
atp581
Rp582
(dp583
g11
VNN
p584
sbatp585
Rp586
(dp587
g11
VNP
p588
sbag0
(g1
g2
(lp589
g0
(g1
g2
(lp590
g0
(g1
g2
(lp591
Vwho
p592
atp593
Rp594
(dp595
g11
VWP
p596
sbatp597
Rp598
(dp599
g11
VWHNP
p600
sbag0
(g1
g2
(lp601
g0
(g1
g2
(lp602
g0
(g1
g2
(lp603
V's
p604
atp605
Rp606
(dp607
g11
VVBZ
p608
sbag0
(g1
g2
(lp609
g0
(g1
g2
(lp610
g0
(g1
g2
(lp611
Vpicking
p612
atp613
Rp614
(dp615
g11
VVBG
p616
sbag0
(g1
g2
(lp617
g0
(g1
g2
(lp618
Vup
p619
atp620
Rp621
(dp622
g11
VRP
p623
sbatp624
Rp625
(dp626
g11
VPRT
p627
sbag0
(g1
g2
(lp628
g0
(g1
g2
(lp629
Vthe
p630
atp631
Rp632
(dp633
g11
VDT
p634
sbag0
(g1
g2
(lp635
Vfood
p636
atp637
Rp638
(dp639
g11
VNN
p640
sbag0
(g1
g2
(lp641
Vthing
p642
atp643
Rp644
(dp645
g11
VNN
p646
sbatp647
Rp648
(dp649
g11
VNP
p650
sbag0
(g1
g2
(lp651
g0
(g1
g2
(lp652
Vup
p653
atp654
Rp655
(dp656
g11
VRB
p657
sbag0
(g1
g2
(lp658
Vabove
p659
atp660
Rp661
(dp662
g11
VRB
p663
sbatp664
Rp665
(dp666
g11
VADVP
p667
sbatp668
Rp669
(dp670
g11
VVP
p671
sbatp672
Rp673
(dp674
g11
VS
p675
sbatp676
Rp677
(dp678
g11
VVP
p679
sbatp680
Rp681
(dp682
g11
VS
p683
sbatp684
Rp685
(dp686
g11
VSBAR
p687
sbatp688
Rp689
(dp690
g11
VNP
p691
sbag0
(g1
g2
(lp692
V,
p693
atp694
Rp695
(dp696
g11
V,
p697
sbag0
(g1
g2
(lp698
g0
(g1
g2
(lp699
Vis
p700
atp701
Rp702
(dp703
g11
VVBZ
p704
sbag0
(g1
g2
(lp705
g0
(g1
g2
(lp706
Vgetting
p707
atp708
Rp709
(dp710
g11
VVBG
p711
sbag0
(g1
g2
(lp712
g0
(g1
g2
(lp713
Vready
p714
atp715
Rp716
(dp717
g11
VJJ
p718
sbag0
(g1
g2
(lp719
g0
(g1
g2
(lp720
g0
(g1
g2
(lp721
Vto
p722
atp723
Rp724
(dp725
g11
VTO
p726
sbag0
(g1
g2
(lp727
g0
(g1
g2
(lp728
Vfall
p729
atp730
Rp731
(dp732
g11
VVB
p733
sbag0
(g1
g2
(lp734
g0
(g1
g2
(lp735
Voff
p736
atp737
Rp738
(dp739
g11
VRP
p740
sbatp741
Rp742
(dp743
g11
VPRT
p744
sbatp745
Rp746
(dp747
g11
VVP
p748
sbatp749
Rp750
(dp751
g11
VVP
p752
sbatp753
Rp754
(dp755
g11
VS
p756
sbatp757
Rp758
(dp759
g11
VADJP
p760
sbatp761
Rp762
(dp763
g11
VVP
p764
sbatp765
Rp766
(dp767
g11
VVP
p768
sbag0
(g1
g2
(lp769
V.
p770
atp771
Rp772
(dp773
g11
V.
p774
sbatp775
Rp776
(dp777
g11
VS
p778
sbatp779
Rp780
(dp781
g11
S'id: 3'
p782
sbag0
(g1
g2
(lp783
g0
(g1
g2
(lp784
g0
(g1
g2
(lp785
g0
(g1
g2
(lp786
VI
p787
atp788
Rp789
(dp790
g11
VPRP
p791
sbatp792
Rp793
(dp794
g11
VNP
p795
sbag0
(g1
g2
(lp796
g0
(g1
g2
(lp797
Vcant
p798
atp799
Rp800
(dp801
g11
VVBP
p802
sbag0
(g1
g2
(lp803
g0
(g1
g2
(lp804
g0
(g1
g2
(lp805
Vthink
p806
atp807
Rp808
(dp809
g11
VNN
p810
sbatp811
Rp812
(dp813
g11
VNP
p814
sbag0
(g1
g2
(lp815
g0
(g1
g2
(lp816
Vof
p817
atp818
Rp819
(dp820
g11
VIN
p821
sbag0
(g1
g2
(lp822
g0
(g1
g2
(lp823
Vanything
p824
atp825
Rp826
(dp827
g11
VNN
p828
sbag0
(g1
g2
(lp829
Velse
p830
atp831
Rp832
(dp833
g11
VRB
p834
sbatp835
Rp836
(dp837
g11
VNP
p838
sbatp839
Rp840
(dp841
g11
VPP
p842
sbatp843
Rp844
(dp845
g11
VNP
p846
sbatp847
Rp848
(dp849
g11
VVP
p850
sbag0
(g1
g2
(lp851
V.
p852
atp853
Rp854
(dp855
g11
V.
p856
sbatp857
Rp858
(dp859
g11
VS
p860
sbatp861
Rp862
(dp863
g11
S'id: 4'
p864
sbag0
(g1
g2
(lp865
g0
(g1
g2
(lp866
g0
(g1
g2
(lp867
g0
(g1
g2
(lp868
g0
(g1
g2
(lp869
VShe
p870
atp871
Rp872
(dp873
g11
VPRP
p874
sbatp875
Rp876
(dp877
g11
VNP
p878
sbag0
(g1
g2
(lp879
g0
(g1
g2
(lp880
V's
p881
atp882
Rp883
(dp884
g11
VVBZ
p885
sbag0
(g1
g2
(lp886
g0
(g1
g2
(lp887
Vlooking
p888
atp889
Rp890
(dp891
g11
VVBG
p892
sbag0
(g1
g2
(lp893
g0
(g1
g2
(lp894
Voutside
p895
atp896
Rp897
(dp898
g11
VRB
p899
sbatp900
Rp901
(dp902
g11
VADVP
p903
sbatp904
Rp905
(dp906
g11
VVP
p907
sbatp908
Rp909
(dp910
g11
VVP
p911
sbatp912
Rp913
(dp914
g11
VS
p915
sbag0
(g1
g2
(lp916
V,
p917
atp918
Rp919
(dp920
g11
V,
p921
sbag0
(g1
g2
(lp922
Vbut
p923
atp924
Rp925
(dp926
g11
VCC
p927
sbag0
(g1
g2
(lp928
g0
(g1
g2
(lp929
g0
(g1
g2
(lp930
VI
p931
atp932
Rp933
(dp934
g11
VPRP
p935
sbatp936
Rp937
(dp938
g11
VNP
p939
sbag0
(g1
g2
(lp940
g0
(g1
g2
(lp941
Vca
p942
atp943
Rp944
(dp945
g11
VMD
p946
sbag0
(g1
g2
(lp947
Vn't
p948
atp949
Rp950
(dp951
g11
VRB
p952
sbag0
(g1
g2
(lp953
g0
(g1
g2
(lp954
Vreally
p955
atp956
Rp957
(dp958
g11
VRB
p959
sbatp960
Rp961
(dp962
g11
VADVP
p963
sbag0
(g1
g2
(lp964
g0
(g1
g2
(lp965
Vunderstand
p966
atp967
Rp968
(dp969
g11
VVB
p970
sbag0
(g1
g2
(lp971
g0
(g1
g2
(lp972
g0
(g1
g2
(lp973
Vwhat
p974
atp975
Rp976
(dp977
g11
VWP
p978
sbatp979
Rp980
(dp981
g11
VNP
p982
sbag0
(g1
g2
(lp983
g0
(g1
g2
(lp984
Vit
p985
atp986
Rp987
(dp988
g11
VPRP
p989
sbatp990
Rp991
(dp992
g11
VNP
p993
sbatp994
Rp995
(dp996
g11
VS
p997
sbatp998
Rp999
(dp1000
g11
VVP
p1001
sbatp1002
Rp1003
(dp1004
g11
VVP
p1005
sbatp1006
Rp1007
(dp1008
g11
VS
p1009
sbag0
(g1
g2
(lp1010
V.
p1011
atp1012
Rp1013
(dp1014
g11
V.
p1015
sbatp1016
Rp1017
(dp1018
g11
VS
p1019
sbatp1020
Rp1021
(dp1022
g11
S'id: 5'
p1023
sbag0
(g1
g2
(lp1024
g0
(g1
g2
(lp1025
g0
(g1
g2
(lp1026
g0
(g1
g2
(lp1027
g0
(g1
g2
(lp1028
VI
p1029
atp1030
Rp1031
(dp1032
g11
VPRP
p1033
sbatp1034
Rp1035
(dp1036
g11
VNP
p1037
sbag0
(g1
g2
(lp1038
g0
(g1
g2
(lp1039
Vthought
p1040
atp1041
Rp1042
(dp1043
g11
VVBD
p1044
sbag0
(g1
g2
(lp1045
g0
(g1
g2
(lp1046
g0
(g1
g2
(lp1047
g0
(g1
g2
(lp1048
Vshe
p1049
atp1050
Rp1051
(dp1052
g11
VPRP
p1053
sbatp1054
Rp1055
(dp1056
g11
VNP
p1057
sbag0
(g1
g2
(lp1058
g0
(g1
g2
(lp1059
Vwas
p1060
atp1061
Rp1062
(dp1063
g11
VVBD
p1064
sbag0
(g1
g2
(lp1065
g0
(g1
g2
(lp1066
Vlooking
p1067
atp1068
Rp1069
(dp1070
g11
VVBG
p1071
sbag0
(g1
g2
(lp1072
g0
(g1
g2
(lp1073
Voutside
p1074
atp1075
Rp1076
(dp1077
g11
VJJ
p1078
sbatp1079
Rp1080
(dp1081
g11
VADVP
p1082
sbatp1083
Rp1084
(dp1085
g11
VVP
p1086
sbatp1087
Rp1088
(dp1089
g11
VVP
p1090
sbatp1091
Rp1092
(dp1093
g11
VS
p1094
sbatp1095
Rp1096
(dp1097
g11
VSBAR
p1098
sbatp1099
Rp1100
(dp1101
g11
VVP
p1102
sbatp1103
Rp1104
(dp1105
g11
VS
p1106
sbag0
(g1
g2
(lp1107
g0
(g1
g2
(lp1108
V,
p1109
atp1110
Rp1111
(dp1112
g11
V,
p1113
sbag0
(g1
g2
(lp1114
g0
(g1
g2
(lp1115
g0
(g1
g2
(lp1116
VI
p1117
atp1118
Rp1119
(dp1120
g11
VPRP
p1121
sbatp1122
Rp1123
(dp1124
g11
VNP
p1125
sbag0
(g1
g2
(lp1126
g0
(g1
g2
(lp1127
Vthought
p1128
atp1129
Rp1130
(dp1131
g11
VVBD
p1132
sbag0
(g1
g2
(lp1133
g0
(g1
g2
(lp1134
g0
(g1
g2
(lp1135
g0
(g1
g2
(lp1136
Vmaybe
p1137
atp1138
Rp1139
(dp1140
g11
VRB
p1141
sbag0
(g1
g2
(lp1142
Vsomebody
p1143
atp1144
Rp1145
(dp1146
g11
VNN
p1147
sbatp1148
Rp1149
(dp1150
g11
VNP
p1151
sbag0
(g1
g2
(lp1152
g0
(g1
g2
(lp1153
Vwas
p1154
atp1155
Rp1156
(dp1157
g11
VVBD
p1158
sbag0
(g1
g2
(lp1159
g0
(g1
g2
(lp1160
Vcutting
p1161
atp1162
Rp1163
(dp1164
g11
VVBG
p1165
sbag0
(g1
g2
(lp1166
g0
(g1
g2
(lp1167
Vthe
p1168
atp1169
Rp1170
(dp1171
g11
VDT
p1172
sbag0
(g1
g2
(lp1173
Vgrass
p1174
atp1175
Rp1176
(dp1177
g11
VNN
p1178
sbag0
(g1
g2
(lp1179
Vor
p1180
atp1181
Rp1182
(dp1183
g11
VCC
p1184
sbag0
(g1
g2
(lp1185
Vsomething
p1186
atp1187
Rp1188
(dp1189
g11
VNN
p1190
sbatp1191
Rp1192
(dp1193
g11
VNP
p1194
sbatp1195
Rp1196
(dp1197
g11
VVP
p1198
sbatp1199
Rp1200
(dp1201
g11
VVP
p1202
sbatp1203
Rp1204
(dp1205
g11
VS
p1206
sbatp1207
Rp1208
(dp1209
g11
VSBAR
p1210
sbatp1211
Rp1212
(dp1213
g11
VVP
p1214
sbatp1215
Rp1216
(dp1217
g11
VS
p1218
sbag0
(g1
g2
(lp1219
V,
p1220
atp1221
Rp1222
(dp1223
g11
V,
p1224
sbatp1225
Rp1226
(dp1227
g11
VPRN
p1228
sbag0
(g1
g2
(lp1229
Vbut
p1230
atp1231
Rp1232
(dp1233
g11
VCC
p1234
sbag0
(g1
g2
(lp1235
g0
(g1
g2
(lp1236
g0
(g1
g2
(lp1237
g0
(g1
g2
(lp1238
VI
p1239
atp1240
Rp1241
(dp1242
g11
VPRP
p1243
sbatp1244
Rp1245
(dp1246
g11
VNP
p1247
sbag0
(g1
g2
(lp1248
g0
(g1
g2
(lp1249
Vdont
p1250
atp1251
Rp1252
(dp1253
g11
VVBP
p1254
sbag0
(g1
g2
(lp1255
g0
(g1
g2
(lp1256
Vsee
p1257
atp1258
Rp1259
(dp1260
g11
VVB
p1261
sbag0
(g1
g2
(lp1262
g0
(g1
g2
(lp1263
g0
(g1
g2
(lp1264
Vno
p1265
atp1266
Rp1267
(dp1268
g11
VDT
p1269
sbag0
(g1
g2
(lp1270
Vperson
p1271
atp1272
Rp1273
(dp1274
g11
VNN
p1275
sbatp1276
Rp1277
(dp1278
g11
VNP
p1279
sbag0
(g1
g2
(lp1280
g0
(g1
g2
(lp1281
Vcutting
p1282
atp1283
Rp1284
(dp1285
g11
VVBG
p1286
sbag0
(g1
g2
(lp1287
g0
(g1
g2
(lp1288
Vthe
p1289
atp1290
Rp1291
(dp1292
g11
VDT
p1293
sbag0
(g1
g2
(lp1294
Vgrass
p1295
atp1296
Rp1297
(dp1298
g11
VNN
p1299
sbatp1300
Rp1301
(dp1302
g11
VNP
p1303
sbatp1304
Rp1305
(dp1306
g11
VVP
p1307
sbatp1308
Rp1309
(dp1310
g11
VNP
p1311
sbatp1312
Rp1313
(dp1314
g11
VVP
p1315
sbatp1316
Rp1317
(dp1318
g11
VVP
p1319
sbatp1320
Rp1321
(dp1322
g11
VS
p1323
sbag0
(g1
g2
(lp1324
V,
p1325
atp1326
Rp1327
(dp1328
g11
V,
p1329
sbag0
(g1
g2
(lp1330
Vbut
p1331
atp1332
Rp1333
(dp1334
g11
VCC
p1335
sbag0
(g1
g2
(lp1336
g0
(g1
g2
(lp1337
g0
(g1
g2
(lp1338
Vshe
p1339
atp1340
Rp1341
(dp1342
g11
VPRP
p1343
sbatp1344
Rp1345
(dp1346
g11
VNP
p1347
sbag0
(g1
g2
(lp1348
g0
(g1
g2
(lp1349
V's
p1350
atp1351
Rp1352
(dp1353
g11
VVBZ
p1354
sbag0
(g1
g2
(lp1355
g0
(g1
g2
(lp1356
Vlooking
p1357
atp1358
Rp1359
(dp1360
g11
VVBG
p1361
sbatp1362
Rp1363
(dp1364
g11
VVP
p1365
sbatp1366
Rp1367
(dp1368
g11
VVP
p1369
sbatp1370
Rp1371
(dp1372
g11
VS
p1373
sbatp1374
Rp1375
(dp1376
g11
VS
p1377
sbag0
(g1
g2
(lp1378
V.
p1379
atp1380
Rp1381
(dp1382
g11
V.
p1383
sbatp1384
Rp1385
(dp1386
g11
VS
p1387
sbatp1388
Rp1389
(dp1390
g11
S'id: 6'
p1391
sbag0
(g1
g2
(lp1392
g0
(g1
g2
(lp1393
g0
(g1
g2
(lp1394
g0
(g1
g2
(lp1395
VDid
p1396
atp1397
Rp1398
(dp1399
g11
VVBD
p1400
sbatp1401
Rp1402
(dp1403
g11
VVP
p1404
sbag0
(g1
g2
(lp1405
g0
(g1
g2
(lp1406
g0
(g1
g2
(lp1407
g0
(g1
g2
(lp1408
Vthe
p1409
atp1410
Rp1411
(dp1412
g11
VDT
p1413
sbag0
(g1
g2
(lp1414
Vhouse
p1415
atp1416
Rp1417
(dp1418
g11
VNN
p1419
sbatp1420
Rp1421
(dp1422
g11
VNP
p1423
sbag0
(g1
g2
(lp1424
g0
(g1
g2
(lp1425
g0
(g1
g2
(lp1426
g0
(g1
g2
(lp1427
Vburn
p1428
atp1429
Rp1430
(dp1431
g11
VVBP
p1432
sbatp1433
Rp1434
(dp1435
g11
VVP
p1436
sbatp1437
Rp1438
(dp1439
g11
VS
p1440
sbatp1441
Rp1442
(dp1443
g11
VSBAR
p1444
sbatp1445
Rp1446
(dp1447
g11
VNP
p1448
sbag0
(g1
g2
(lp1449
Vor
p1450
atp1451
Rp1452
(dp1453
g11
VCC
p1454
sbag0
(g1
g2
(lp1455
g0
(g1
g2
(lp1456
Vsomething
p1457
atp1458
Rp1459
(dp1460
g11
VNN
p1461
sbatp1462
Rp1463
(dp1464
g11
VNP
p1465
sbatp1466
Rp1467
(dp1468
g11
VNP
p1469
sbatp1470
Rp1471
(dp1472
g11
VSINV
p1473
sbatp1474
Rp1475
(dp1476
g11
S'id: 7'
p1477
sbatp1478
Rp1479
(dp1480
g11
S'sentences'
p1481
sb.