ccopy_reg
_reconstructor
p0
(cnltk.tree
Tree
p1
c__builtin__
list
p2
(lp3
g0
(g1
g2
(lp4
g0
(g1
g2
(lp5
g0
(g1
g2
(lp6
g0
(g1
g2
(lp7
g0
(g1
g2
(lp8
VThe
p9
atp10
Rp11
(dp12
S'_label'
p13
VDT
p14
sbag0
(g1
g2
(lp15
Vlittle
p16
atp17
Rp18
(dp19
g13
VJJ
p20
sbag0
(g1
g2
(lp21
Vboy
p22
atp23
Rp24
(dp25
g13
VNN
p26
sbatp27
Rp28
(dp29
g13
VNP
p30
sbag0
(g1
g2
(lp31
g0
(g1
g2
(lp32
Vstealing
p33
atp34
Rp35
(dp36
g13
VVBG
p37
sbag0
(g1
g2
(lp38
g0
(g1
g2
(lp39
g0
(g1
g2
(lp40
Vcookies
p41
atp42
Rp43
(dp44
g13
VNNS
p45
sbatp46
Rp47
(dp48
g13
VNP
p49
sbag0
(g1
g2
(lp50
g0
(g1
g2
(lp51
Vof
p52
atp53
Rp54
(dp55
g13
VIN
p56
sbag0
(g1
g2
(lp57
g0
(g1
g2
(lp58
Vcookie
p59
atp60
Rp61
(dp62
g13
VNN
p63
sbag0
(g1
g2
(lp64
Vjar
p65
atp66
Rp67
(dp68
g13
VNN
p69
sbatp70
Rp71
(dp72
g13
VNP
p73
sbatp74
Rp75
(dp76
g13
VPP
p77
sbatp78
Rp79
(dp80
g13
VNP
p81
sbatp82
Rp83
(dp84
g13
VVP
p85
sbatp86
Rp87
(dp88
g13
VS
p89
sbag0
(g1
g2
(lp90
V,
p91
atp92
Rp93
(dp94
g13
V,
p95
sbag0
(g1
g2
(lp96
g0
(g1
g2
(lp97
g0
(g1
g2
(lp98
Vhe
p99
atp100
Rp101
(dp102
g13
VPRP
p103
sbatp104
Rp105
(dp106
g13
VNP
p107
sbag0
(g1
g2
(lp108
g0
(g1
g2
(lp109
V's
p110
atp111
Rp112
(dp113
g13
VVBZ
p114
sbag0
(g1
g2
(lp115
g0
(g1
g2
(lp116
Vstanding
p117
atp118
Rp119
(dp120
g13
VVBG
p121
sbag0
(g1
g2
(lp122
g0
(g1
g2
(lp123
Von
p124
atp125
Rp126
(dp127
g13
VIN
p128
sbag0
(g1
g2
(lp129
g0
(g1
g2
(lp130
g0
(g1
g2
(lp131
Va
p132
atp133
Rp134
(dp135
g13
VDT
p136
sbag0
(g1
g2
(lp137
Vstool
p138
atp139
Rp140
(dp141
g13
VNN
p142
sbatp143
Rp144
(dp145
g13
VNP
p146
sbag0
(g1
g2
(lp147
g0
(g1
g2
(lp148
g0
(g1
g2
(lp149
Vthat
p150
atp151
Rp152
(dp153
g13
VWDT
p154
sbatp155
Rp156
(dp157
g13
VWHNP
p158
sbag0
(g1
g2
(lp159
g0
(g1
g2
(lp160
g0
(g1
g2
(lp161
V's
p162
atp163
Rp164
(dp165
g13
VVBZ
p166
sbag0
(g1
g2
(lp167
g0
(g1
g2
(lp168
Vgetting
p169
atp170
Rp171
(dp172
g13
VVBG
p173
sbag0
(g1
g2
(lp174
g0
(g1
g2
(lp175
Vready
p176
atp177
Rp178
(dp179
g13
VJJ
p180
sbag0
(g1
g2
(lp181
g0
(g1
g2
(lp182
g0
(g1
g2
(lp183
Vto
p184
atp185
Rp186
(dp187
g13
VTO
p188
sbag0
(g1
g2
(lp189
g0
(g1
g2
(lp190
Vtip
p191
atp192
Rp193
(dp194
g13
VVB
p195
sbatp196
Rp197
(dp198
g13
VVP
p199
sbatp200
Rp201
(dp202
g13
VVP
p203
sbatp204
Rp205
(dp206
g13
VS
p207
sbatp208
Rp209
(dp210
g13
VADJP
p211
sbatp212
Rp213
(dp214
g13
VVP
p215
sbatp216
Rp217
(dp218
g13
VVP
p219
sbatp220
Rp221
(dp222
g13
VS
p223
sbatp224
Rp225
(dp226
g13
VSBAR
p227
sbatp228
Rp229
(dp230
g13
VNP
p231
sbatp232
Rp233
(dp234
g13
VPP
p235
sbatp236
Rp237
(dp238
g13
VVP
p239
sbatp240
Rp241
(dp242
g13
VVP
p243
sbatp244
Rp245
(dp246
g13
VS
p247
sbag0
(g1
g2
(lp248
V,
p249
atp250
Rp251
(dp252
g13
V,
p253
sbag0
(g1
g2
(lp254
g0
(g1
g2
(lp255
g0
(g1
g2
(lp256
Vthe
p257
atp258
Rp259
(dp260
g13
VDT
p261
sbag0
(g1
g2
(lp262
Vlittle
p263
atp264
Rp265
(dp266
g13
VJJ
p267
sbag0
(g1
g2
(lp268
Vgirl
p269
atp270
Rp271
(dp272
g13
VNN
p273
sbatp274
Rp275
(dp276
g13
VNP
p277
sbag0
(g1
g2
(lp278
g0
(g1
g2
(lp279
Vis
p280
atp281
Rp282
(dp283
g13
VVBZ
p284
sbag0
(g1
g2
(lp285
g0
(g1
g2
(lp286
Vlaughing
p287
atp288
Rp289
(dp290
g13
VVBG
p291
sbag0
(g1
g2
(lp292
g0
(g1
g2
(lp293
Vat
p294
atp295
Rp296
(dp297
g13
VIN
p298
sbag0
(g1
g2
(lp299
g0
(g1
g2
(lp300
Vhim
p301
atp302
Rp303
(dp304
g13
VPRP
p305
sbatp306
Rp307
(dp308
g13
VNP
p309
sbatp310
Rp311
(dp312
g13
VPP
p313
sbatp314
Rp315
(dp316
g13
VVP
p317
sbatp318
Rp319
(dp320
g13
VVP
p321
sbatp322
Rp323
(dp324
g13
VS
p325
sbag0
(g1
g2
(lp326
V.
p327
atp328
Rp329
(dp330
g13
V.
p331
sbatp332
Rp333
(dp334
g13
VS
p335
sbatp336
Rp337
(dp338
g13
S'id: 0'
p339
sbag0
(g1
g2
(lp340
g0
(g1
g2
(lp341
g0
(g1
g2
(lp342
g0
(g1
g2
(lp343
g0
(g1
g2
(lp344
g0
(g1
g2
(lp345
g0
(g1
g2
(lp346
g0
(g1
g2
(lp347
VMother
p348
atp349
Rp350
(dp351
g13
VNNP
p352
sbag0
(g1
g2
(lp353
V's
p354
atp355
Rp356
(dp357
g13
VPOS
p358
sbatp359
Rp360
(dp361
g13
VNP
p362
sbatp363
Rp364
(dp365
g13
VS
p366
sbag0
(g1
g2
(lp367
V,
p368
atp369
Rp370
(dp371
g13
V,
p372
sbag0
(g1
g2
(lp373
g0
(g1
g2
(lp374
Vis
p375
atp376
Rp377
(dp378
g13
VVBZ
p379
sbag0
(g1
g2
(lp380
g0
(g1
g2
(lp381
Vwashing
p382
atp383
Rp384
(dp385
g13
VVBG
p386
sbag0
(g1
g2
(lp387
g0
(g1
g2
(lp388
Vdishes
p389
atp390
Rp391
(dp392
g13
VNNS
p393
sbatp394
Rp395
(dp396
g13
VNP
p397
sbatp398
Rp399
(dp400
g13
VVP
p401
sbatp402
Rp403
(dp404
g13
VVP
p405
sbatp406
Rp407
(dp408
g13
VS
p409
sbatp410
Rp411
(dp412
g13
VSBAR
p413
sbag0
(g1
g2
(lp414
V,
p415
atp416
Rp417
(dp418
g13
V,
p419
sbag0
(g1
g2
(lp420
g0
(g1
g2
(lp421
Vshe
p422
atp423
Rp424
(dp425
g13
VPRP
p426
sbatp427
Rp428
(dp429
g13
VNP
p430
sbag0
(g1
g2
(lp431
g0
(g1
g2
(lp432
Vhas
p433
atp434
Rp435
(dp436
g13
VVBZ
p437
sbag0
(g1
g2
(lp438
g0
(g1
g2
(lp439
g0
(g1
g2
(lp440
Va
p441
atp442
Rp443
(dp444
g13
VDT
p445
sbag0
(g1
g2
(lp446
Vsolemn
p447
atp448
Rp449
(dp450
g13
VJJ
p451
sbag0
(g1
g2
(lp452
Vlook
p453
atp454
Rp455
(dp456
g13
VNN
p457
sbatp458
Rp459
(dp460
g13
VNP
p461
sbag0
(g1
g2
(lp462
g0
(g1
g2
(lp463
Von
p464
atp465
Rp466
(dp467
g13
VIN
p468
sbag0
(g1
g2
(lp469
g0
(g1
g2
(lp470
Vher
p471
atp472
Rp473
(dp474
g13
VPRP$
p475
sbag0
(g1
g2
(lp476
Vface
p477
atp478
Rp479
(dp480
g13
VNN
p481
sbatp482
Rp483
(dp484
g13
VNP
p485
sbatp486
Rp487
(dp488
g13
VPP
p489
sbatp490
Rp491
(dp492
g13
VNP
p493
sbatp494
Rp495
(dp496
g13
VVP
p497
sbatp498
Rp499
(dp500
g13
VS
p501
sbag0
(g1
g2
(lp502
V,
p503
atp504
Rp505
(dp506
g13
V,
p507
sbag0
(g1
g2
(lp508
Vso
p509
atp510
Rp511
(dp512
g13
VIN
p513
sbag0
(g1
g2
(lp514
g0
(g1
g2
(lp515
g0
(g1
g2
(lp516
Vshe
p517
atp518
Rp519
(dp520
g13
VPRP
p521
sbatp522
Rp523
(dp524
g13
VNP
p525
sbag0
(g1
g2
(lp526
g0
(g1
g2
(lp527
V's
p528
atp529
Rp530
(dp531
g13
VVBZ
p532
sbag0
(g1
g2
(lp533
g0
(g1
g2
(lp534
Vletting
p535
atp536
Rp537
(dp538
g13
VVBG
p539
sbag0
(g1
g2
(lp540
g0
(g1
g2
(lp541
g0
(g1
g2
(lp542
Vthe
p543
atp544
Rp545
(dp546
g13
VDT
p547
sbag0
(g1
g2
(lp548
Vwater
p549
atp550
Rp551
(dp552
g13
VNN
p553
sbatp554
Rp555
(dp556
g13
VNP
p557
sbag0
(g1
g2
(lp558
g0
(g1
g2
(lp559
Vrun
p560
atp561
Rp562
(dp563
g13
VVB
p564
sbag0
(g1
g2
(lp565
g0
(g1
g2
(lp566
Vover
p567
atp568
Rp569
(dp570
g13
VIN
p571
sbag0
(g1
g2
(lp572
g0
(g1
g2
(lp573
Vthe
p574
atp575
Rp576
(dp577
g13
VDT
p578
sbag0
(g1
g2
(lp579
Vsink
p580
atp581
Rp582
(dp583
g13
VNN
p584
sbatp585
Rp586
(dp587
g13
VNP
p588
sbatp589
Rp590
(dp591
g13
VPP
p592
sbatp593
Rp594
(dp595
g13
VVP
p596
sbatp597
Rp598
(dp599
g13
VS
p600
sbatp601
Rp602
(dp603
g13
VVP
p604
sbatp605
Rp606
(dp607
g13
VVP
p608
sbatp609
Rp610
(dp611
g13
VS
p612
sbag0
(g1
g2
(lp613
V.
p614
atp615
Rp616
(dp617
g13
V.
p618
sbatp619
Rp620
(dp621
g13
VS
p622
sbatp623
Rp624
(dp625
g13
S'id: 1'
p626
sbag0
(g1
g2
(lp627
g0
(g1
g2
(lp628
g0
(g1
g2
(lp629
g0
(g1
g2
(lp630
VThat
p631
atp632
Rp633
(dp634
g13
VDT
p635
sbatp636
Rp637
(dp638
g13
VNP
p639
sbag0
(g1
g2
(lp640
g0
(g1
g2
(lp641
V's
p642
atp643
Rp644
(dp645
g13
VVBZ
p646
sbag0
(g1
g2
(lp647
g0
(g1
g2
(lp648
g0
(g1
g2
(lp649
Vall
p650
atp651
Rp652
(dp653
g13
VDT
p654
sbatp655
Rp656
(dp657
g13
VNP
p658
sbag0
(g1
g2
(lp659
g0
(g1
g2
(lp660
g0
(g1
g2
(lp661
g0
(g1
g2
(lp662
VI
p663
atp664
Rp665
(dp666
g13
VPRP
p667
sbatp668
Rp669
(dp670
g13
VNP
p671
sbag0
(g1
g2
(lp672
g0
(g1
g2
(lp673
Vsee
p674
atp675
Rp676
(dp677
g13
VVBP
p678
sbatp679
Rp680
(dp681
g13
VVP
p682
sbatp683
Rp684
(dp685
g13
VS
p686
sbatp687
Rp688
(dp689
g13
VSBAR
p690
sbatp691
Rp692
(dp693
g13
VNP
p694
sbatp695
Rp696
(dp697
g13
VVP
p698
sbag0
(g1
g2
(lp699
V.
p700
atp701
Rp702
(dp703
g13
V.
p704
sbatp705
Rp706
(dp707
g13
VS
p708
sbatp709
Rp710
(dp711
g13
S'id: 2'
p712
sbag0
(g1
g2
(lp713
g0
(g1
g2
(lp714
g0
(g1
g2
(lp715
g0
(g1
g2
(lp716
g0
(g1
g2
(lp717
VLittle
p718
atp719
Rp720
(dp721
g13
VJJ
p722
sbag0
(g1
g2
(lp723
Vgirl
p724
atp725
Rp726
(dp727
g13
VNN
p728
sbatp729
Rp730
(dp731
g13
VNP
p732
sbag0
(g1
g2
(lp733
g0
(g1
g2
(lp734
Vmust
p735
atp736
Rp737
(dp738
g13
VMD
p739
sbag0
(g1
g2
(lp740
g0
(g1
g2
(lp741
Vbe
p742
atp743
Rp744
(dp745
g13
VVB
p746
sbag0
(g1
g2
(lp747
g0
(g1
g2
(lp748
Vasking
p749
atp750
Rp751
(dp752
g13
VVBG
p753
sbag0
(g1
g2
(lp754
g0
(g1
g2
(lp755
Vfor
p756
atp757
Rp758
(dp759
g13
VIN
p760
sbag0
(g1
g2
(lp761
g0
(g1
g2
(lp762
Va
p763
atp764
Rp765
(dp766
g13
VDT
p767
sbag0
(g1
g2
(lp768
Vcookie
p769
atp770
Rp771
(dp772
g13
VNN
p773
sbatp774
Rp775
(dp776
g13
VNP
p777
sbatp778
Rp779
(dp780
g13
VPP
p781
sbatp782
Rp783
(dp784
g13
VVP
p785
sbatp786
Rp787
(dp788
g13
VVP
p789
sbatp790
Rp791
(dp792
g13
VVP
p793
sbatp794
Rp795
(dp796
g13
VS
p797
sbag0
(g1
g2
(lp798
V,
p799
atp800
Rp801
(dp802
g13
V,
p803
sbag0
(g1
g2
(lp804
Vand
p805
atp806
Rp807
(dp808
g13
VCC
p809
sbag0
(g1
g2
(lp810
g0
(g1
g2
(lp811
g0
(g1
g2
(lp812
Vhe
p813
atp814
Rp815
(dp816
g13
VPRP
p817
sbatp818
Rp819
(dp820
g13
VNP
p821
sbag0
(g1
g2
(lp822
g0
(g1
g2
(lp823
V's
p824
atp825
Rp826
(dp827
g13
VVBZ
p828
sbag0
(g1
g2
(lp829
g0
(g1
g2
(lp830
Vlaughing
p831
atp832
Rp833
(dp834
g13
VVBG
p835
sbag0
(g1
g2
(lp836
g0
(g1
g2
(lp837
Vat
p838
atp839
Rp840
(dp841
g13
VIN
p842
sbag0
(g1
g2
(lp843
g0
(g1
g2
(lp844
Vhim
p845
atp846
Rp847
(dp848
g13
VPRP
p849
sbatp850
Rp851
(dp852
g13
VNP
p853
sbatp854
Rp855
(dp856
g13
VPP
p857
sbatp858
Rp859
(dp860
g13
VVP
p861
sbatp862
Rp863
(dp864
g13
VVP
p865
sbatp866
Rp867
(dp868
g13
VS
p869
sbag0
(g1
g2
(lp870
V.
p871
atp872
Rp873
(dp874
g13
V.
p875
sbatp876
Rp877
(dp878
g13
VS
p879
sbatp880
Rp881
(dp882
g13
S'id: 3'
p883
sbag0
(g1
g2
(lp884
g0
(g1
g2
(lp885
g0
(g1
g2
(lp886
VCurtains
p887
atp888
Rp889
(dp890
g13
VNNS
p891
sbag0
(g1
g2
(lp892
V.
p893
atp894
Rp895
(dp896
g13
V.
p897
sbatp898
Rp899
(dp900
g13
VNP
p901
sbatp902
Rp903
(dp904
g13
S'id: 4'
p905
sbag0
(g1
g2
(lp906
g0
(g1
g2
(lp907
g0
(g1
g2
(lp908
g0
(g1
g2
(lp909
g0
(g1
g2
(lp910
VLooking
p911
atp912
Rp913
(dp914
g13
VVBG
p915
sbag0
(g1
g2
(lp916
g0
(g1
g2
(lp917
Vout
p918
atp919
Rp920
(dp921
g13
VRP
p922
sbatp923
Rp924
(dp925
g13
VPRT
p926
sbag0
(g1
g2
(lp927
g0
(g1
g2
(lp928
Vthe
p929
atp930
Rp931
(dp932
g13
VDT
p933
sbag0
(g1
g2
(lp934
Vwindow
p935
atp936
Rp937
(dp938
g13
VNN
p939
sbatp940
Rp941
(dp942
g13
VNP
p943
sbatp944
Rp945
(dp946
g13
VVP
p947
sbatp948
Rp949
(dp950
g13
VS
p951
sbag0
(g1
g2
(lp952
g0
(g1
g2
(lp953
Vyou
p954
atp955
Rp956
(dp957
g13
VPRP
p958
sbatp959
Rp960
(dp961
g13
VNP
p962
sbag0
(g1
g2
(lp963
g0
(g1
g2
(lp964
Vsee
p965
atp966
Rp967
(dp968
g13
VVBP
p969
sbag0
(g1
g2
(lp970
g0
(g1
g2
(lp971
g0
(g1
g2
(lp972
Vthe
p973
atp974
Rp975
(dp976
g13
VDT
p977
sbag0
(g1
g2
(lp978
Vpathway
p979
atp980
Rp981
(dp982
g13
VNN
p983
sbatp984
Rp985
(dp986
g13
VNP
p987
sbag0
(g1
g2
(lp988
V,
p989
atp990
Rp991
(dp992
g13
V,
p993
sbag0
(g1
g2
(lp994
g0
(g1
g2
(lp995
Vthe
p996
atp997
Rp998
(dp999
g13
VDT
p1000
sbag0
(g1
g2
(lp1001
Vshrubbery
p1002
atp1003
Rp1004
(dp1005
g13
VNN
p1006
sbatp1007
Rp1008
(dp1009
g13
VNP
p1010
sbag0
(g1
g2
(lp1011
V,
p1012
atp1013
Rp1014
(dp1015
g13
V,
p1016
sbag0
(g1
g2
(lp1017
Vand
p1018
atp1019
Rp1020
(dp1021
g13
VCC
p1022
sbag0
(g1
g2
(lp1023
g0
(g1
g2
(lp1024
Vthe
p1025
atp1026
Rp1027
(dp1028
g13
VDT
p1029
sbag0
(g1
g2
(lp1030
Vnext
p1031
atp1032
Rp1033
(dp1034
g13
VJJ
p1035
sbag0
(g1
g2
(lp1036
Vdoor
p1037
atp1038
Rp1039
(dp1040
g13
VNN
p1041
sbag0
(g1
g2
(lp1042
Vneighbor
p1043
atp1044
Rp1045
(dp1046
g13
VNN
p1047
sbag0
(g1
g2
(lp1048
Vhouse
p1049
atp1050
Rp1051
(dp1052
g13
VNN
p1053
sbatp1054
Rp1055
(dp1056
g13
VNP
p1057
sbatp1058
Rp1059
(dp1060
g13
VNP
p1061
sbatp1062
Rp1063
(dp1064
g13
VVP
p1065
sbag0
(g1
g2
(lp1066
V.
p1067
atp1068
Rp1069
(dp1070
g13
V.
p1071
sbatp1072
Rp1073
(dp1074
g13
VS
p1075
sbatp1076
Rp1077
(dp1078
g13
S'id: 5'
p1079
sbag0
(g1
g2
(lp1080
g0
(g1
g2
(lp1081
g0
(g1
g2
(lp1082
g0
(g1
g2
(lp1083
VI
p1084
atp1085
Rp1086
(dp1087
g13
VPRP
p1088
sbatp1089
Rp1090
(dp1091
g13
VNP
p1092
sbag0
(g1
g2
(lp1093
g0
(g1
g2
(lp1094
Vthink
p1095
atp1096
Rp1097
(dp1098
g13
VVBP
p1099
sbag0
(g1
g2
(lp1100
g0
(g1
g2
(lp1101
g0
(g1
g2
(lp1102
Vyou
p1103
atp1104
Rp1105
(dp1106
g13
VPRP
p1107
sbatp1108
Rp1109
(dp1110
g13
VNP
p1111
sbag0
(g1
g2
(lp1112
g0
(g1
g2
(lp1113
Vsee
p1114
atp1115
Rp1116
(dp1117
g13
VVB
p1118
sbag0
(g1
g2
(lp1119
g0
(g1
g2
(lp1120
g0
(g1
g2
(lp1121
g0
(g1
g2
(lp1122
Vtwo
p1123
atp1124
Rp1125
(dp1126
g13
VCD
p1127
sbatp1128
Rp1129
(dp1130
g13
VNP
p1131
sbag0
(g1
g2
(lp1132
g0
(g1
g2
(lp1133
Vbowls
p1134
atp1135
Rp1136
(dp1137
g13
VVBZ
p1138
sbag0
(g1
g2
(lp1139
g0
(g1
g2
(lp1140
Von
p1141
atp1142
Rp1143
(dp1144
g13
VIN
p1145
sbag0
(g1
g2
(lp1146
g0
(g1
g2
(lp1147
g0
(g1
g2
(lp1148
Vthe
p1149
atp1150
Rp1151
(dp1152
g13
VDT
p1153
sbag0
(g1
g2
(lp1154
Vcounter
p1155
atp1156
Rp1157
(dp1158
g13
VNN
p1159
sbatp1160
Rp1161
(dp1162
g13
VNP
p1163
sbag0
(g1
g2
(lp1164
V,
p1165
atp1166
Rp1167
(dp1168
g13
V,
p1169
sbag0
(g1
g2
(lp1170
g0
(g1
g2
(lp1171
g0
(g1
g2
(lp1172
Vone
p1173
atp1174
Rp1175
(dp1176
g13
VCD
p1177
sbag0
(g1
g2
(lp1178
Vplate
p1179
atp1180
Rp1181
(dp1182
g13
VNN
p1183
sbatp1184
Rp1185
(dp1186
g13
VNP
p1187
sbag0
(g1
g2
(lp1188
g0
(g1
g2
(lp1189
Von
p1190
atp1191
Rp1192
(dp1193
g13
VIN
p1194
sbag0
(g1
g2
(lp1195
g0
(g1
g2
(lp1196
Vthe
p1197
atp1198
Rp1199
(dp1200
g13
VDT
p1201
sbag0
(g1
g2
(lp1202
Vcounter
p1203
atp1204
Rp1205
(dp1206
g13
VNN
p1207
sbatp1208
Rp1209
(dp1210
g13
VNP
p1211
sbatp1212
Rp1213
(dp1214
g13
VPP
p1215
sbatp1216
Rp1217
(dp1218
g13
VNP
p1219
sbatp1220
Rp1221
(dp1222
g13
VNP
p1223
sbatp1224
Rp1225
(dp1226
g13
VPP
p1227
sbatp1228
Rp1229
(dp1230
g13
VVP
p1231
sbatp1232
Rp1233
(dp1234
g13
VS
p1235
sbatp1236
Rp1237
(dp1238
g13
VSBAR
p1239
sbatp1240
Rp1241
(dp1242
g13
VVP
p1243
sbatp1244
Rp1245
(dp1246
g13
VS
p1247
sbatp1248
Rp1249
(dp1250
g13
VVP
p1251
sbag0
(g1
g2
(lp1252
V.
p1253
atp1254
Rp1255
(dp1256
g13
V.
p1257
sbatp1258
Rp1259
(dp1260
g13
VS
p1261
sbatp1262
Rp1263
(dp1264
g13
S'id: 6'
p1265
sbag0
(g1
g2
(lp1266
g0
(g1
g2
(lp1267
g0
(g1
g2
(lp1268
g0
(g1
g2
(lp1269
VMother
p1270
atp1271
Rp1272
(dp1273
g13
VNN
p1274
sbatp1275
Rp1276
(dp1277
g13
VNP
p1278
sbag0
(g1
g2
(lp1279
g0
(g1
g2
(lp1280
Vhas
p1281
atp1282
Rp1283
(dp1284
g13
VVBZ
p1285
sbag0
(g1
g2
(lp1286
g0
(g1
g2
(lp1287
g0
(g1
g2
(lp1288
Va
p1289
atp1290
Rp1291
(dp1292
g13
VDT
p1293
sbag0
(g1
g2
(lp1294
Vplate
p1295
atp1296
Rp1297
(dp1298
g13
VNN
p1299
sbatp1300
Rp1301
(dp1302
g13
VNP
p1303
sbag0
(g1
g2
(lp1304
g0
(g1
g2
(lp1305
Vin
p1306
atp1307
Rp1308
(dp1309
g13
VIN
p1310
sbag0
(g1
g2
(lp1311
g0
(g1
g2
(lp1312
g0
(g1
g2
(lp1313
Vher
p1314
atp1315
Rp1316
(dp1317
g13
VPRP$
p1318
sbag0
(g1
g2
(lp1319
Vhand
p1320
atp1321
Rp1322
(dp1323
g13
VNN
p1324
sbatp1325
Rp1326
(dp1327
g13
VNP
p1328
sbag0
(g1
g2
(lp1329
g0
(g1
g2
(lp1330
Vwith
p1331
atp1332
Rp1333
(dp1334
g13
VIN
p1335
sbag0
(g1
g2
(lp1336
g0
(g1
g2
(lp1337
Va
p1338
atp1339
Rp1340
(dp1341
g13
VDT
p1342
sbag0
(g1
g2
(lp1343
Vdish
p1344
atp1345
Rp1346
(dp1347
g13
VNN
p1348
sbag0
(g1
g2
(lp1349
Vrag
p1350
atp1351
Rp1352
(dp1353
g13
VNN
p1354
sbatp1355
Rp1356
(dp1357
g13
VNP
p1358
sbatp1359
Rp1360
(dp1361
g13
VPP
p1362
sbatp1363
Rp1364
(dp1365
g13
VNP
p1366
sbatp1367
Rp1368
(dp1369
g13
VPP
p1370
sbag0
(g1
g2
(lp1371
g0
(g1
g2
(lp1372
g0
(g1
g2
(lp1373
g0
(g1
g2
(lp1374
Vshe
p1375
atp1376
Rp1377
(dp1378
g13
VPRP
p1379
sbatp1380
Rp1381
(dp1382
g13
VNP
p1383
sbag0
(g1
g2
(lp1384
g0
(g1
g2
(lp1385
V's
p1386
atp1387
Rp1388
(dp1389
g13
VVBZ
p1390
sbag0
(g1
g2
(lp1391
g0
(g1
g2
(lp1392
Vdrying
p1393
atp1394
Rp1395
(dp1396
g13
VVBG
p1397
sbag0
(g1
g2
(lp1398
g0
(g1
g2
(lp1399
Vthe
p1400
atp1401
Rp1402
(dp1403
g13
VDT
p1404
sbag0
(g1
g2
(lp1405
Vplate
p1406
atp1407
Rp1408
(dp1409
g13
VNN
p1410
sbatp1411
Rp1412
(dp1413
g13
VNP
p1414
sbatp1415
Rp1416
(dp1417
g13
VVP
p1418
sbatp1419
Rp1420
(dp1421
g13
VVP
p1422
sbatp1423
Rp1424
(dp1425
g13
VS
p1426
sbatp1427
Rp1428
(dp1429
g13
VSBAR
p1430
sbatp1431
Rp1432
(dp1433
g13
VNP
p1434
sbatp1435
Rp1436
(dp1437
g13
VVP
p1438
sbag0
(g1
g2
(lp1439
V.
p1440
atp1441
Rp1442
(dp1443
g13
V.
p1444
sbatp1445
Rp1446
(dp1447
g13
VS
p1448
sbatp1449
Rp1450
(dp1451
g13
S'id: 7'
p1452
sbag0
(g1
g2
(lp1453
g0
(g1
g2
(lp1454
g0
(g1
g2
(lp1455
g0
(g1
g2
(lp1456
g0
(g1
g2
(lp1457
VThe
p1458
atp1459
Rp1460
(dp1461
g13
VDT
p1462
sbag0
(g1
g2
(lp1463
g0
(g1
g2
(lp1464
Vlittle
p1465
atp1466
Rp1467
(dp1468
g13
VJJ
p1469
sbag0
(g1
g2
(lp1470
Vboy
p1471
atp1472
Rp1473
(dp1474
g13
VNN
p1475
sbag0
(g1
g2
(lp1476
V's
p1477
atp1478
Rp1479
(dp1480
g13
VPOS
p1481
sbatp1482
Rp1483
(dp1484
g13
VNP
p1485
sbatp1486
Rp1487
(dp1488
g13
VNP
p1489
sbag0
(g1
g2
(lp1490
g0
(g1
g2
(lp1491
Vgiven
p1492
atp1493
Rp1494
(dp1495
g13
VVBN
p1496
sbag0
(g1
g2
(lp1497
g0
(g1
g2
(lp1498
Vthe
p1499
atp1500
Rp1501
(dp1502
g13
VDT
p1503
sbag0
(g1
g2
(lp1504
Vlittle
p1505
atp1506
Rp1507
(dp1508
g13
VJJ
p1509
sbag0
(g1
g2
(lp1510
Vgirl
p1511
atp1512
Rp1513
(dp1514
g13
VNN
p1515
sbatp1516
Rp1517
(dp1518
g13
VNP
p1519
sbag0
(g1
g2
(lp1520
g0
(g1
g2
(lp1521
g0
(g1
g2
(lp1522
Va
p1523
atp1524
Rp1525
(dp1526
g13
VDT
p1527
sbag0
(g1
g2
(lp1528
Vcookie
p1529
atp1530
Rp1531
(dp1532
g13
VNN
p1533
sbatp1534
Rp1535
(dp1536
g13
VNP
p1537
sbag0
(g1
g2
(lp1538
V,
p1539
atp1540
Rp1541
(dp1542
g13
V,
p1543
sbag0
(g1
g2
(lp1544
Vand
p1545
atp1546
Rp1547
(dp1548
g13
VCC
p1549
sbag0
(g1
g2
(lp1550
g0
(g1
g2
(lp1551
Vhe
p1552
atp1553
Rp1554
(dp1555
g13
VPRP
p1556
sbatp1557
Rp1558
(dp1559
g13
VNP
p1560
sbatp1561
Rp1562
(dp1563
g13
VNP
p1564
sbatp1565
Rp1566
(dp1567
g13
VVP
p1568
sbatp1569
Rp1570
(dp1571
g13
VNP
p1572
sbag0
(g1
g2
(lp1573
g0
(g1
g2
(lp1574
V's
p1575
atp1576
Rp1577
(dp1578
g13
VVBZ
p1579
sbag0
(g1
g2
(lp1580
g0
(g1
g2
(lp1581
Vtaking
p1582
atp1583
Rp1584
(dp1585
g13
VVBG
p1586
sbag0
(g1
g2
(lp1587
g0
(g1
g2
(lp1588
Vone
p1589
atp1590
Rp1591
(dp1592
g13
VCD
p1593
sbatp1594
Rp1595
(dp1596
g13
VNP
p1597
sbag0
(g1
g2
(lp1598
g0
(g1
g2
(lp1599
Vfor
p1600
atp1601
Rp1602
(dp1603
g13
VIN
p1604
sbag0
(g1
g2
(lp1605
g0
(g1
g2
(lp1606
Vhis
p1607
atp1608
Rp1609
(dp1610
g13
VPRP$
p1611
sbag0
(g1
g2
(lp1612
Vself
p1613
atp1614
Rp1615
(dp1616
g13
VNN
p1617
sbatp1618
Rp1619
(dp1620
g13
VNP
p1621
sbatp1622
Rp1623
(dp1624
g13
VPP
p1625
sbatp1626
Rp1627
(dp1628
g13
VVP
p1629
sbatp1630
Rp1631
(dp1632
g13
VVP
p1633
sbag0
(g1
g2
(lp1634
V.
p1635
atp1636
Rp1637
(dp1638
g13
V.
p1639
sbatp1640
Rp1641
(dp1642
g13
VS
p1643
sbatp1644
Rp1645
(dp1646
g13
S'id: 8'
p1647
sbag0
(g1
g2
(lp1648
g0
(g1
g2
(lp1649
g0
(g1
g2
(lp1650
g0
(g1
g2
(lp1651
VAnd
p1652
atp1653
Rp1654
(dp1655
g13
VCC
p1656
sbatp1657
Rp1658
(dp1659
g13
VNP
p1660
sbag0
(g1
g2
(lp1661
g0
(g1
g2
(lp1662
g0
(g1
g2
(lp1663
g0
(g1
g2
(lp1664
g0
(g1
g2
(lp1665
g0
(g1
g2
(lp1666
Vthe
p1667
atp1668
Rp1669
(dp1670
g13
VDT
p1671
sbag0
(g1
g2
(lp1672
Vmother
p1673
atp1674
Rp1675
(dp1676
g13
VNN
p1677
sbag0
(g1
g2
(lp1678
V's
p1679
atp1680
Rp1681
(dp1682
g13
VPOS
p1683
sbatp1684
Rp1685
(dp1686
g13
VNP
p1687
sbag0
(g1
g2
(lp1688
Vstanding
p1689
atp1690
Rp1691
(dp1692
g13
VNN
p1693
sbatp1694
Rp1695
(dp1696
g13
VNP
p1697
sbag0
(g1
g2
(lp1698
g0
(g1
g2
(lp1699
Vin
p1700
atp1701
Rp1702
(dp1703
g13
VIN
p1704
sbag0
(g1
g2
(lp1705
g0
(g1
g2
(lp1706
g0
(g1
g2
(lp1707
Vwater
p1708
atp1709
Rp1710
(dp1711
g13
VNN
p1712
sbatp1713
Rp1714
(dp1715
g13
VNP
p1716
sbag0
(g1
g2
(lp1717
V,
p1718
atp1719
Rp1720
(dp1721
g13
V,
p1722
sbag0
(g1
g2
(lp1723
g0
(g1
g2
(lp1724
g0
(g1
g2
(lp1725
Vwhere
p1726
atp1727
Rp1728
(dp1729
g13
VWRB
p1730
sbatp1731
Rp1732
(dp1733
g13
VWHADVP
p1734
sbag0
(g1
g2
(lp1735
g0
(g1
g2
(lp1736
g0
(g1
g2
(lp1737
g0
(g1
g2
(lp1738
Vthe
p1739
atp1740
Rp1741
(dp1742
g13
VDT
p1743
sbag0
(g1
g2
(lp1744
g0
(g1
g2
(lp1745
Vwater
p1746
atp1747
Rp1748
(dp1749
g13
VNN
p1750
sbag0
(g1
g2
(lp1751
V's
p1752
atp1753
Rp1754
(dp1755
g13
VPOS
p1756
sbatp1757
Rp1758
(dp1759
g13
VNP
p1760
sbatp1761
Rp1762
(dp1763
g13
VNP
p1764
sbag0
(g1
g2
(lp1765
g0
(g1
g2
(lp1766
Vrunning
p1767
atp1768
Rp1769
(dp1770
g13
VVBG
p1771
sbag0
(g1
g2
(lp1772
g0
(g1
g2
(lp1773
Vout
p1774
atp1775
Rp1776
(dp1777
g13
VRP
p1778
sbatp1779
Rp1780
(dp1781
g13
VPRT
p1782
sbag0
(g1
g2
(lp1783
g0
(g1
g2
(lp1784
Vthe
p1785
atp1786
Rp1787
(dp1788
g13
VDT
p1789
sbatp1790
Rp1791
(dp1792
g13
VNP
p1793
sbatp1794
Rp1795
(dp1796
g13
VVP
p1797
sbatp1798
Rp1799
(dp1800
g13
VNP
p1801
sbag0
(g1
g2
(lp1802
g0
(g1
g2
(lp1803
Vsink
p1804
atp1805
Rp1806
(dp1807
g13
VNN
p1808
sbatp1809
Rp1810
(dp1811
g13
VVP
p1812
sbatp1813
Rp1814
(dp1815
g13
VS
p1816
sbatp1817
Rp1818
(dp1819
g13
VSBAR
p1820
sbatp1821
Rp1822
(dp1823
g13
VNP
p1824
sbatp1825
Rp1826
(dp1827
g13
VPP
p1828
sbatp1829
Rp1830
(dp1831
g13
VNP
p1832
sbatp1833
Rp1834
(dp1835
g13
VS
p1836
sbatp1837
Rp1838
(dp1839
g13
VVP
p1840
sbag0
(g1
g2
(lp1841
V.
p1842
atp1843
Rp1844
(dp1845
g13
V.
p1846
sbatp1847
Rp1848
(dp1849
g13
VS
p1850
sbatp1851
Rp1852
(dp1853
g13
S'id: 9'
p1854
sbag0
(g1
g2
(lp1855
g0
(g1
g2
(lp1856
g0
(g1
g2
(lp1857
g0
(g1
g2
(lp1858
VOne
p1859
atp1860
Rp1861
(dp1862
g13
VCD
p1863
sbatp1864
Rp1865
(dp1866
g13
VNP
p1867
sbag0
(g1
g2
(lp1868
V,
p1869
atp1870
Rp1871
(dp1872
g13
V,
p1873
sbag0
(g1
g2
(lp1874
g0
(g1
g2
(lp1875
Vtwo
p1876
atp1877
Rp1878
(dp1879
g13
VCD
p1880
sbatp1881
Rp1882
(dp1883
g13
VNP
p1884
sbag0
(g1
g2
(lp1885
V,
p1886
atp1887
Rp1888
(dp1889
g13
V,
p1890
sbag0
(g1
g2
(lp1891
g0
(g1
g2
(lp1892
g0
(g1
g2
(lp1893
Vthere
p1894
atp1895
Rp1896
(dp1897
g13
VEX
p1898
sbatp1899
Rp1900
(dp1901
g13
VNP
p1902
sbag0
(g1
g2
(lp1903
g0
(g1
g2
(lp1904
V's
p1905
atp1906
Rp1907
(dp1908
g13
VVBZ
p1909
sbag0
(g1
g2
(lp1910
g0
(g1
g2
(lp1911
Vthree
p1912
atp1913
Rp1914
(dp1915
g13
VCD
p1916
sbag0
(g1
g2
(lp1917
Vcabinet
p1918
atp1919
Rp1920
(dp1921
g13
VNN
p1922
sbag0
(g1
g2
(lp1923
Vdrawers/cabinet
p1924
atp1925
Rp1926
(dp1927
g13
VNN
p1928
sbag0
(g1
g2
(lp1929
Vdoors
p1930
atp1931
Rp1932
(dp1933
g13
VNNS
p1934
sbatp1935
Rp1936
(dp1937
g13
VNP
p1938
sbag0
(g1
g2
(lp1939
g0
(g1
g2
(lp1940
g0
(g1
g2
(lp1941
Vwhere
p1942
atp1943
Rp1944
(dp1945
g13
VWRB
p1946
sbatp1947
Rp1948
(dp1949
g13
VWHADVP
p1950
sbag0
(g1
g2
(lp1951
g0
(g1
g2
(lp1952
g0
(g1
g2
(lp1953
g0
(g1
g2
(lp1954
g0
(g1
g2
(lp1955
Vthe
p1956
atp1957
Rp1958
(dp1959
g13
VDT
p1960
sbag0
(g1
g2
(lp1961
g0
(g1
g2
(lp1962
Vboy
p1963
atp1964
Rp1965
(dp1966
g13
VNN
p1967
sbag0
(g1
g2
(lp1968
V's
p1969
atp1970
Rp1971
(dp1972
g13
VPOS
p1973
sbatp1974
Rp1975
(dp1976
g13
VNP
p1977
sbatp1978
Rp1979
(dp1980
g13
VNP
p1981
sbag0
(g1
g2
(lp1982
g0
(g1
g2
(lp1983
Vtaking
p1984
atp1985
Rp1986
(dp1987
g13
VVBG
p1988
sbag0
(g1
g2
(lp1989
g0
(g1
g2
(lp1990
Vthe
p1991
atp1992
Rp1993
(dp1994
g13
VDT
p1995
sbag0
(g1
g2
(lp1996
Vcookies
p1997
atp1998
Rp1999
(dp2000
g13
VNNS
p2001
sbatp2002
Rp2003
(dp2004
g13
VNP
p2005
sbag0
(g1
g2
(lp2006
g0
(g1
g2
(lp2007
Vout
p2008
atp2009
Rp2010
(dp2011
g13
VRP
p2012
sbatp2013
Rp2014
(dp2015
g13
VPRT
p2016
sbatp2017
Rp2018
(dp2019
g13
VVP
p2020
sbatp2021
Rp2022
(dp2023
g13
VNP
p2024
sbag0
(g1
g2
(lp2025
V,
p2026
atp2027
Rp2028
(dp2029
g13
V,
p2030
sbag0
(g1
g2
(lp2031
g0
(g1
g2
(lp2032
g0
(g1
g2
(lp2033
Vtwo
p2034
atp2035
Rp2036
(dp2037
g13
VCD
p2038
sbatp2039
Rp2040
(dp2041
g13
VNP
p2042
sbag0
(g1
g2
(lp2043
g0
(g1
g2
(lp2044
Vup
p2045
atp2046
Rp2047
(dp2048
g13
VRP
p2049
sbag0
(g1
g2
(lp2050
g0
(g1
g2
(lp2051
Vunder
p2052
atp2053
Rp2054
(dp2055
g13
VIN
p2056
sbag0
(g1
g2
(lp2057
g0
(g1
g2
(lp2058
Vhim
p2059
atp2060
Rp2061
(dp2062
g13
VPRP
p2063
sbatp2064
Rp2065
(dp2066
g13
VNP
p2067
sbatp2068
Rp2069
(dp2070
g13
VPP
p2071
sbatp2072
Rp2073
(dp2074
g13
VADVP
p2075
sbatp2076
Rp2077
(dp2078
g13
VNP
p2079
sbatp2080
Rp2081
(dp2082
g13
VVP
p2083
sbatp2084
Rp2085
(dp2086
g13
VS
p2087
sbatp2088
Rp2089
(dp2090
g13
VSBAR
p2091
sbatp2092
Rp2093
(dp2094
g13
VVP
p2095
sbatp2096
Rp2097
(dp2098
g13
VS
p2099
sbag0
(g1
g2
(lp2100
V.
p2101
atp2102
Rp2103
(dp2104
g13
V.
p2105
sbatp2106
Rp2107
(dp2108
g13
VNP
p2109
sbatp2110
Rp2111
(dp2112
g13
S'id: 10'
p2113
sbag0
(g1
g2
(lp2114
g0
(g1
g2
(lp2115
g0
(g1
g2
(lp2116
g0
(g1
g2
(lp2117
g0
(g1
g2
(lp2118
g0
(g1
g2
(lp2119
VThe
p2120
atp2121
Rp2122
(dp2123
g13
VDT
p2124
sbag0
(g1
g2
(lp2125
Vwater
p2126
atp2127
Rp2128
(dp2129
g13
VNN
p2130
sbag0
(g1
g2
(lp2131
V's
p2132
atp2133
Rp2134
(dp2135
g13
VPOS
p2136
sbatp2137
Rp2138
(dp2139
g13
VNP
p2140
sbag0
(g1
g2
(lp2141
Vsplashing
p2142
atp2143
Rp2144
(dp2145
g13
VVBG
p2146
sbatp2147
Rp2148
(dp2149
g13
VNP
p2150
sbag0
(g1
g2
(lp2151
g0
(g1
g2
(lp2152
Von
p2153
atp2154
Rp2155
(dp2156
g13
VIN
p2157
sbag0
(g1
g2
(lp2158
g0
(g1
g2
(lp2159
Vthe
p2160
atp2161
Rp2162
(dp2163
g13
VDT
p2164
sbag0
(g1
g2
(lp2165
Vfloor
p2166
atp2167
Rp2168
(dp2169
g13
VNN
p2170
sbatp2171
Rp2172
(dp2173
g13
VNP
p2174
sbatp2175
Rp2176
(dp2177
g13
VPP
p2178
sbatp2179
Rp2180
(dp2181
g13
VNP
p2182
sbag0
(g1
g2
(lp2183
V.
p2184
atp2185
Rp2186
(dp2187
g13
V.
p2188
sbatp2189
Rp2190
(dp2191
g13
VNP
p2192
sbatp2193
Rp2194
(dp2195
g13
S'id: 11'
p2196
sbag0
(g1
g2
(lp2197
g0
(g1
g2
(lp2198
g0
(g1
g2
(lp2199
g0
(g1
g2
(lp2200
VI
p2201
atp2202
Rp2203
(dp2204
g13
VPRP
p2205
sbatp2206
Rp2207
(dp2208
g13
VNP
p2209
sbag0
(g1
g2
(lp2210
g0
(g1
g2
(lp2211
Vsee
p2212
atp2213
Rp2214
(dp2215
g13
VVBP
p2216
sbag0
(g1
g2
(lp2217
g0
(g1
g2
(lp2218
g0
(g1
g2
(lp2219
Vtrees
p2220
atp2221
Rp2222
(dp2223
g13
VNNS
p2224
sbatp2225
Rp2226
(dp2227
g13
VNP
p2228
sbag0
(g1
g2
(lp2229
g0
(g1
g2
(lp2230
Voutside
p2231
atp2232
Rp2233
(dp2234
g13
VIN
p2235
sbag0
(g1
g2
(lp2236
g0
(g1
g2
(lp2237
V,
p2238
atp2239
Rp2240
(dp2241
g13
V,
p2242
sbag0
(g1
g2
(lp2243
g0
(g1
g2
(lp2244
g0
(g1
g2
(lp2245
Vshrubbery
p2246
atp2247
Rp2248
(dp2249
g13
VNN
p2250
sbatp2251
Rp2252
(dp2253
g13
VNP
p2254
sbag0
(g1
g2
(lp2255
Voutside
p2256
atp2257
Rp2258
(dp2259
g13
VRB
p2260
sbatp2261
Rp2262
(dp2263
g13
VADVP
p2264
sbag0
(g1
g2
(lp2265
V,
p2266
atp2267
Rp2268
(dp2269
g13
V,
p2270
sbatp2271
Rp2272
(dp2273
g13
VPRN
p2274
sbag0
(g1
g2
(lp2275
g0
(g1
g2
(lp2276
Vgrass
p2277
atp2278
Rp2279
(dp2280
g13
VNN
p2281
sbag0
(g1
g2
(lp2282
Voutside
p2283
atp2284
Rp2285
(dp2286
g13
VNN
p2287
sbatp2288
Rp2289
(dp2290
g13
VNP
p2291
sbatp2292
Rp2293
(dp2294
g13
VPP
p2295
sbatp2296
Rp2297
(dp2298
g13
VNP
p2299
sbatp2300
Rp2301
(dp2302
g13
VVP
p2303
sbag0
(g1
g2
(lp2304
V.
p2305
atp2306
Rp2307
(dp2308
g13
V.
p2309
sbatp2310
Rp2311
(dp2312
g13
VS
p2313
sbatp2314
Rp2315
(dp2316
g13
S'id: 12'
p2317
sbag0
(g1
g2
(lp2318
g0
(g1
g2
(lp2319
g0
(g1
g2
(lp2320
g0
(g1
g2
(lp2321
VCurtains
p2322
atp2323
Rp2324
(dp2325
g13
VNNS
p2326
sbatp2327
Rp2328
(dp2329
g13
VNP
p2330
sbag0
(g1
g2
(lp2331
g0
(g1
g2
(lp2332
Vare
p2333
atp2334
Rp2335
(dp2336
g13
VVBP
p2337
sbag0
(g1
g2
(lp2338
g0
(g1
g2
(lp2339
Vpulled/tied
p2340
atp2341
Rp2342
(dp2343
g13
VVBN
p2344
sbag0
(g1
g2
(lp2345
g0
(g1
g2
(lp2346
Vback
p2347
atp2348
Rp2349
(dp2350
g13
VRB
p2351
sbatp2352
Rp2353
(dp2354
g13
VADVP
p2355
sbatp2356
Rp2357
(dp2358
g13
VVP
p2359
sbatp2360
Rp2361
(dp2362
g13
VVP
p2363
sbag0
(g1
g2
(lp2364
V.
p2365
atp2366
Rp2367
(dp2368
g13
V.
p2369
sbatp2370
Rp2371
(dp2372
g13
VS
p2373
sbatp2374
Rp2375
(dp2376
g13
S'id: 13'
p2377
sbag0
(g1
g2
(lp2378
g0
(g1
g2
(lp2379
g0
(g1
g2
(lp2380
g0
(g1
g2
(lp2381
g0
(g1
g2
(lp2382
VMother
p2383
atp2384
Rp2385
(dp2386
g13
VNN
p2387
sbatp2388
Rp2389
(dp2390
g13
VNP
p2391
sbag0
(g1
g2
(lp2392
g0
(g1
g2
(lp2393
Vhas
p2394
atp2395
Rp2396
(dp2397
g13
VVBZ
p2398
sbag0
(g1
g2
(lp2399
g0
(g1
g2
(lp2400
g0
(g1
g2
(lp2401
Von
p2402
atp2403
Rp2404
(dp2405
g13
VIN
p2406
sbag0
(g1
g2
(lp2407
g0
(g1
g2
(lp2408
Va
p2409
atp2410
Rp2411
(dp2412
g13
VDT
p2413
sbag0
(g1
g2
(lp2414
Vapron
p2415
atp2416
Rp2417
(dp2418
g13
VNN
p2419
sbatp2420
Rp2421
(dp2422
g13
VNP
p2423
sbatp2424
Rp2425
(dp2426
g13
VPP
p2427
sbatp2428
Rp2429
(dp2430
g13
VVP
p2431
sbatp2432
Rp2433
(dp2434
g13
VVP
p2435
sbatp2436
Rp2437
(dp2438
g13
VS
p2439
sbag0
(g1
g2
(lp2440
Vand
p2441
atp2442
Rp2443
(dp2444
g13
VCC
p2445
sbag0
(g1
g2
(lp2446
g0
(g1
g2
(lp2447
g0
(g1
g2
(lp2448
Vwearing
p2449
atp2450
Rp2451
(dp2452
g13
VVBG
p2453
sbag0
(g1
g2
(lp2454
g0
(g1
g2
(lp2455
Va
p2456
atp2457
Rp2458
(dp2459
g13
VDT
p2460
sbag0
(g1
g2
(lp2461
Vdress
p2462
atp2463
Rp2464
(dp2465
g13
VNN
p2466
sbatp2467
Rp2468
(dp2469
g13
VNP
p2470
sbatp2471
Rp2472
(dp2473
g13
VVP
p2474
sbatp2475
Rp2476
(dp2477
g13
VS
p2478
sbag0
(g1
g2
(lp2479
V.
p2480
atp2481
Rp2482
(dp2483
g13
V.
p2484
sbatp2485
Rp2486
(dp2487
g13
VS
p2488
sbatp2489
Rp2490
(dp2491
g13
S'id: 14'
p2492
sbag0
(g1
g2
(lp2493
g0
(g1
g2
(lp2494
g0
(g1
g2
(lp2495
g0
(g1
g2
(lp2496
VThere
p2497
atp2498
Rp2499
(dp2500
g13
VEX
p2501
sbatp2502
Rp2503
(dp2504
g13
VNP
p2505
sbag0
(g1
g2
(lp2506
g0
(g1
g2
(lp2507
V's
p2508
atp2509
Rp2510
(dp2511
g13
VVBZ
p2512
sbag0
(g1
g2
(lp2513
g0
(g1
g2
(lp2514
Vnothing
p2515
atp2516
Rp2517
(dp2518
g13
VNN
p2519
sbag0
(g1
g2
(lp2520
Velse
p2521
atp2522
Rp2523
(dp2524
g13
VJJ
p2525
sbatp2526
Rp2527
(dp2528
g13
VADJP
p2529
sbag0
(g1
g2
(lp2530
g0
(g1
g2
(lp2531
g0
(g1
g2
(lp2532
Vto
p2533
atp2534
Rp2535
(dp2536
g13
VTO
p2537
sbag0
(g1
g2
(lp2538
g0
(g1
g2
(lp2539
Vsay
p2540
atp2541
Rp2542
(dp2543
g13
VVB
p2544
sbag0
(g1
g2
(lp2545
g0
(g1
g2
(lp2546
Vabout
p2547
atp2548
Rp2549
(dp2550
g13
VIN
p2551
sbag0
(g1
g2
(lp2552
g0
(g1
g2
(lp2553
Vit
p2554
atp2555
Rp2556
(dp2557
g13
VPRP
p2558
sbatp2559
Rp2560
(dp2561
g13
VNP
p2562
sbatp2563
Rp2564
(dp2565
g13
VPP
p2566
sbatp2567
Rp2568
(dp2569
g13
VVP
p2570
sbatp2571
Rp2572
(dp2573
g13
VVP
p2574
sbatp2575
Rp2576
(dp2577
g13
VS
p2578
sbatp2579
Rp2580
(dp2581
g13
VVP
p2582
sbag0
(g1
g2
(lp2583
V.
p2584
atp2585
Rp2586
(dp2587
g13
V.
p2588
sbatp2589
Rp2590
(dp2591
g13
VS
p2592
sbatp2593
Rp2594
(dp2595
g13
S'id: 15'
p2596
sbag0
(g1
g2
(lp2597
g0
(g1
g2
(lp2598
g0
(g1
g2
(lp2599
g0
(g1
g2
(lp2600
VThere
p2601
atp2602
Rp2603
(dp2604
g13
VEX
p2605
sbatp2606
Rp2607
(dp2608
g13
VNP
p2609
sbag0
(g1
g2
(lp2610
g0
(g1
g2
(lp2611
V's
p2612
atp2613
Rp2614
(dp2615
g13
VVBZ
p2616
sbag0
(g1
g2
(lp2617
g0
(g1
g2
(lp2618
g0
(g1
g2
(lp2619
Va
p2620
atp2621
Rp2622
(dp2623
g13
VDT
p2624
sbag0
(g1
g2
(lp2625
Vspicket
p2626
atp2627
Rp2628
(dp2629
g13
VNN
p2630
sbatp2631
Rp2632
(dp2633
g13
VNP
p2634
sbag0
(g1
g2
(lp2635
V,
p2636
atp2637
Rp2638
(dp2639
g13
V,
p2640
sbag0
(g1
g2
(lp2641
Vand
p2642
atp2643
Rp2644
(dp2645
g13
VCC
p2646
sbag0
(g1
g2
(lp2647
g0
(g1
g2
(lp2648
g0
(g1
g2
(lp2649
Vtwo
p2650
atp2651
Rp2652
(dp2653
g13
VCD
p2654
sbag0
(g1
g2
(lp2655
Vwaterfalls
p2656
atp2657
Rp2658
(dp2659
g13
VNNS
p2660
sbatp2661
Rp2662
(dp2663
g13
VNP
p2664
sbag0
(g1
g2
(lp2665
V,
p2666
atp2667
Rp2668
(dp2669
g13
V,
p2670
sbag0
(g1
g2
(lp2671
g0
(g1
g2
(lp2672
Va
p2673
atp2674
Rp2675
(dp2676
g13
VDT
p2677
sbag0
(g1
g2
(lp2678
Vhot
p2679
atp2680
Rp2681
(dp2682
g13
VJJ
p2683
sbag0
(g1
g2
(lp2684
Vwater
p2685
atp2686
Rp2687
(dp2688
g13
VNN
p2689
sbatp2690
Rp2691
(dp2692
g13
VNP
p2693
sbatp2694
Rp2695
(dp2696
g13
VNP
p2697
sbatp2698
Rp2699
(dp2700
g13
VNP
p2701
sbatp2702
Rp2703
(dp2704
g13
VVP
p2705
sbag0
(g1
g2
(lp2706
V.
p2707
atp2708
Rp2709
(dp2710
g13
V.
p2711
sbatp2712
Rp2713
(dp2714
g13
VS
p2715
sbatp2716
Rp2717
(dp2718
g13
S'id: 16'
p2719
sbag0
(g1
g2
(lp2720
g0
(g1
g2
(lp2721
g0
(g1
g2
(lp2722
g0
(g1
g2
(lp2723
g0
(g1
g2
(lp2724
VMother
p2725
atp2726
Rp2727
(dp2728
g13
VNNP
p2729
sbag0
(g1
g2
(lp2730
V's
p2731
atp2732
Rp2733
(dp2734
g13
VPOS
p2735
sbatp2736
Rp2737
(dp2738
g13
VNP
p2739
sbag0
(g1
g2
(lp2740
g0
(g1
g2
(lp2741
Vwearing
p2742
atp2743
Rp2744
(dp2745
g13
VVBG
p2746
sbag0
(g1
g2
(lp2747
g0
(g1
g2
(lp2748
Van
p2749
atp2750
Rp2751
(dp2752
g13
VDT
p2753
sbag0
(g1
g2
(lp2754
Vapron
p2755
atp2756
Rp2757
(dp2758
g13
VNN
p2759
sbatp2760
Rp2761
(dp2762
g13
VNP
p2763
sbatp2764
Rp2765
(dp2766
g13
VVP
p2767
sbatp2768
Rp2769
(dp2770
g13
VS
p2771
sbag0
(g1
g2
(lp2772
V,
p2773
atp2774
Rp2775
(dp2776
g13
V,
p2777
sbag0
(g1
g2
(lp2778
g0
(g1
g2
(lp2779
VI
p2780
atp2781
Rp2782
(dp2783
g13
VPRP
p2784
sbatp2785
Rp2786
(dp2787
g13
VNP
p2788
sbag0
(g1
g2
(lp2789
g0
(g1
g2
(lp2790
Vdo
p2791
atp2792
Rp2793
(dp2794
g13
VVBP
p2795
sbag0
(g1
g2
(lp2796
Vn't
p2797
atp2798
Rp2799
(dp2800
g13
VRB
p2801
sbag0
(g1
g2
(lp2802
g0
(g1
g2
(lp2803
Vknow
p2804
atp2805
Rp2806
(dp2807
g13
VVB
p2808
sbag0
(g1
g2
(lp2809
g0
(g1
g2
(lp2810
Vif
p2811
atp2812
Rp2813
(dp2814
g13
VIN
p2815
sbag0
(g1
g2
(lp2816
g0
(g1
g2
(lp2817
g0
(g1
g2
(lp2818
VI
p2819
atp2820
Rp2821
(dp2822
g13
VPRP
p2823
sbatp2824
Rp2825
(dp2826
g13
VNP
p2827
sbag0
(g1
g2
(lp2828
g0
(g1
g2
(lp2829
Vsaid
p2830
atp2831
Rp2832
(dp2833
g13
VVBD
p2834
sbag0
(g1
g2
(lp2835
g0
(g1
g2
(lp2836
Vthat
p2837
atp2838
Rp2839
(dp2840
g13
VIN
p2841
sbatp2842
Rp2843
(dp2844
g13
VADVP
p2845
sbag0
(g1
g2
(lp2846
g0
(g1
g2
(lp2847
Valready
p2848
atp2849
Rp2850
(dp2851
g13
VRB
p2852
sbatp2853
Rp2854
(dp2855
g13
VADVP
p2856
sbatp2857
Rp2858
(dp2859
g13
VVP
p2860
sbatp2861
Rp2862
(dp2863
g13
VS
p2864
sbatp2865
Rp2866
(dp2867
g13
VSBAR
p2868
sbatp2869
Rp2870
(dp2871
g13
VVP
p2872
sbatp2873
Rp2874
(dp2875
g13
VVP
p2876
sbag0
(g1
g2
(lp2877
V.
p2878
atp2879
Rp2880
(dp2881
g13
V.
p2882
sbatp2883
Rp2884
(dp2885
g13
VS
p2886
sbatp2887
Rp2888
(dp2889
g13
S'id: 17'
p2890
sbag0
(g1
g2
(lp2891
g0
(g1
g2
(lp2892
g0
(g1
g2
(lp2893
g0
(g1
g2
(lp2894
g0
(g1
g2
(lp2895
VThe
p2896
atp2897
Rp2898
(dp2899
g13
VDT
p2900
sbag0
(g1
g2
(lp2901
Vlittle
p2902
atp2903
Rp2904
(dp2905
g13
VJJ
p2906
sbag0
(g1
g2
(lp2907
Vgirl
p2908
atp2909
Rp2910
(dp2911
g13
VNN
p2912
sbatp2913
Rp2914
(dp2915
g13
VNP
p2916
sbag0
(g1
g2
(lp2917
V's
p2918
atp2919
Rp2920
(dp2921
g13
VPOS
p2922
sbag0
(g1
g2
(lp2923
Vwearing
p2924
atp2925
Rp2926
(dp2927
g13
VVBG
p2928
sbatp2929
Rp2930
(dp2931
g13
VNP
p2932
sbag0
(g1
g2
(lp2933
g0
(g1
g2
(lp2934
g0
(g1
g2
(lp2935
Vher
p2936
atp2937
Rp2938
(dp2939
g13
VPRP$
p2940
sbag0
(g1
g2
(lp2941
Vdress
p2942
atp2943
Rp2944
(dp2945
g13
VNN
p2946
sbatp2947
Rp2948
(dp2949
g13
VNP
p2950
sbag0
(g1
g2
(lp2951
V,
p2952
atp2953
Rp2954
(dp2955
g13
V,
p2956
sbag0
(g1
g2
(lp2957
g0
(g1
g2
(lp2958
g0
(g1
g2
(lp2959
Vher
p2960
atp2961
Rp2962
(dp2963
g13
VPRP$
p2964
sbag0
(g1
g2
(lp2965
Vhair
p2966
atp2967
Rp2968
(dp2969
g13
VNN
p2970
sbatp2971
Rp2972
(dp2973
g13
VNP
p2974
sbag0
(g1
g2
(lp2975
g0
(g1
g2
(lp2976
g0
(g1
g2
(lp2977
g0
(g1
g2
(lp2978
Vis
p2979
atp2980
Rp2981
(dp2982
g13
VVBZ
p2983
sbag0
(g1
g2
(lp2984
g0
(g1
g2
(lp2985
Vshoulder
p2986
atp2987
Rp2988
(dp2989
g13
VNN
p2990
sbag0
(g1
g2
(lp2991
Vlength
p2992
atp2993
Rp2994
(dp2995
g13
VNN
p2996
sbatp2997
Rp2998
(dp2999
g13
VNP
p3000
sbatp3001
Rp3002
(dp3003
g13
VVP
p3004
sbatp3005
Rp3006
(dp3007
g13
VS
p3008
sbatp3009
Rp3010
(dp3011
g13
VSBAR
p3012
sbatp3013
Rp3014
(dp3015
g13
VNP
p3016
sbatp3017
Rp3018
(dp3019
g13
VNP
p3020
sbag0
(g1
g2
(lp3021
V.
p3022
atp3023
Rp3024
(dp3025
g13
V.
p3026
sbatp3027
Rp3028
(dp3029
g13
VNP
p3030
sbatp3031
Rp3032
(dp3033
g13
S'id: 18'
p3034
sbag0
(g1
g2
(lp3035
g0
(g1
g2
(lp3036
g0
(g1
g2
(lp3037
g0
(g1
g2
(lp3038
VThe
p3039
atp3040
Rp3041
(dp3042
g13
VDT
p3043
sbag0
(g1
g2
(lp3044
Vboy
p3045
atp3046
Rp3047
(dp3048
g13
VNN
p3049
sbag0
(g1
g2
(lp3050
Vhair
p3051
atp3052
Rp3053
(dp3054
g13
VNN
p3055
sbatp3056
Rp3057
(dp3058
g13
VNP
p3059
sbag0
(g1
g2
(lp3060
g0
(g1
g2
(lp3061
Vis
p3062
atp3063
Rp3064
(dp3065
g13
VVBZ
p3066
sbag0
(g1
g2
(lp3067
g0
(g1
g2
(lp3068
g0
(g1
g2
(lp3069
Vcrew
p3070
atp3071
Rp3072
(dp3073
g13
VNN
p3074
sbag0
(g1
g2
(lp3075
Vcut
p3076
atp3077
Rp3078
(dp3079
g13
VNN
p3080
sbatp3081
Rp3082
(dp3083
g13
VNP
p3084
sbag0
(g1
g2
(lp3085
g0
(g1
g2
(lp3086
g0
(g1
g2
(lp3087
g0
(g1
g2
(lp3088
VI
p3089
atp3090
Rp3091
(dp3092
g13
VPRP
p3093
sbatp3094
Rp3095
(dp3096
g13
VNP
p3097
sbag0
(g1
g2
(lp3098
g0
(g1
g2
(lp3099
V'll
p3100
atp3101
Rp3102
(dp3103
g13
VMD
p3104
sbag0
(g1
g2
(lp3105
g0
(g1
g2
(lp3106
Vsay
p3107
atp3108
Rp3109
(dp3110
g13
VVB
p3111
sbatp3112
Rp3113
(dp3114
g13
VVP
p3115
sbatp3116
Rp3117
(dp3118
g13
VVP
p3119
sbatp3120
Rp3121
(dp3122
g13
VS
p3123
sbatp3124
Rp3125
(dp3126
g13
VSBAR
p3127
sbatp3128
Rp3129
(dp3130
g13
VNP
p3131
sbatp3132
Rp3133
(dp3134
g13
VVP
p3135
sbag0
(g1
g2
(lp3136
V.
p3137
atp3138
Rp3139
(dp3140
g13
V.
p3141
sbatp3142
Rp3143
(dp3144
g13
VS
p3145
sbatp3146
Rp3147
(dp3148
g13
S'id: 19'
p3149
sbatp3150
Rp3151
(dp3152
g13
S'sentences'
p3153
sb.