ccopy_reg
_reconstructor
p0
(cnltk.tree
Tree
p1
c__builtin__
list
p2
(lp3
g0
(g1
g2
(lp4
g0
(g1
g2
(lp5
g0
(g1
g2
(lp6
g0
(g1
g2
(lp7
VGosh
p8
atp9
Rp10
(dp11
S'_label'
p12
VNNP
p13
sbag0
(g1
g2
(lp14
Vit
p15
atp16
Rp17
(dp18
g12
VPRP
p19
sbatp20
Rp21
(dp22
g12
VNP
p23
sbag0
(g1
g2
(lp24
g0
(g1
g2
(lp25
V's
p26
atp27
Rp28
(dp29
g12
VVBZ
p30
sbag0
(g1
g2
(lp31
g0
(g1
g2
(lp32
Vthat
p33
atp34
Rp35
(dp36
g12
VIN
p37
sbag0
(g1
g2
(lp38
g0
(g1
g2
(lp39
g0
(g1
g2
(lp40
Vsame
p41
atp42
Rp43
(dp44
g12
VJJ
p45
sbag0
(g1
g2
(lp46
Vscene
p47
atp48
Rp49
(dp50
g12
VNN
p51
sbatp52
Rp53
(dp54
g12
VNP
p55
sbag0
(g1
g2
(lp56
g0
(g1
g2
(lp57
Vthat
p58
atp59
Rp60
(dp61
g12
VIN
p62
sbag0
(g1
g2
(lp63
g0
(g1
g2
(lp64
g0
(g1
g2
(lp65
Vwe
p66
atp67
Rp68
(dp69
g12
VPRP
p70
sbatp71
Rp72
(dp73
g12
VNP
p74
sbag0
(g1
g2
(lp75
g0
(g1
g2
(lp76
Vlooked
p77
atp78
Rp79
(dp80
g12
VVBD
p81
sbag0
(g1
g2
(lp82
g0
(g1
g2
(lp83
Vat
p84
atp85
Rp86
(dp87
g12
VIN
p88
sbatp89
Rp90
(dp91
g12
VPP
p92
sbatp93
Rp94
(dp95
g12
VVP
p96
sbatp97
Rp98
(dp99
g12
VS
p100
sbatp101
Rp102
(dp103
g12
VSBAR
p104
sbatp105
Rp106
(dp107
g12
VX
p108
sbatp109
Rp110
(dp111
g12
VSBAR
p112
sbatp113
Rp114
(dp115
g12
VVP
p116
sbag0
(g1
g2
(lp117
V.
p118
atp119
Rp120
(dp121
g12
V.
p122
sbatp123
Rp124
(dp125
g12
VS
p126
sbatp127
Rp128
(dp129
g12
S'id: 0'
p130
sbag0
(g1
g2
(lp131
g0
(g1
g2
(lp132
g0
(g1
g2
(lp133
g0
(g1
g2
(lp134
g0
(g1
g2
(lp135
VLooks
p136
atp137
Rp138
(dp139
g12
VVBZ
p140
sbag0
(g1
g2
(lp141
g0
(g1
g2
(lp142
Vto
p143
atp144
Rp145
(dp146
g12
VTO
p147
sbag0
(g1
g2
(lp148
g0
(g1
g2
(lp149
Vme
p150
atp151
Rp152
(dp153
g12
VPRP
p154
sbatp155
Rp156
(dp157
g12
VNP
p158
sbatp159
Rp160
(dp161
g12
VPP
p162
sbag0
(g1
g2
(lp163
g0
(g1
g2
(lp164
Vlike
p165
atp166
Rp167
(dp168
g12
VIN
p169
sbag0
(g1
g2
(lp170
g0
(g1
g2
(lp171
Veverybody
p172
atp173
Rp174
(dp175
g12
VNN
p176
sbatp177
Rp178
(dp179
g12
VNP
p180
sbatp181
Rp182
(dp183
g12
VPP
p184
sbatp185
Rp186
(dp187
g12
VVP
p188
sbatp189
Rp190
(dp191
g12
VS
p192
sbag0
(g1
g2
(lp193
g0
(g1
g2
(lp194
Vis
p195
atp196
Rp197
(dp198
g12
VVBZ
p199
sbag0
(g1
g2
(lp200
g0
(g1
g2
(lp201
Vat
p202
atp203
Rp204
(dp205
g12
VIN
p206
sbag0
(g1
g2
(lp207
g0
(g1
g2
(lp208
Vthe
p209
atp210
Rp211
(dp212
g12
VDT
p213
sbag0
(g1
g2
(lp214
Vbeach
p215
atp216
Rp217
(dp218
g12
VNN
p219
sbatp220
Rp221
(dp222
g12
VNP
p223
sbatp224
Rp225
(dp226
g12
VPP
p227
sbatp228
Rp229
(dp230
g12
VVP
p231
sbag0
(g1
g2
(lp232
V.
p233
atp234
Rp235
(dp236
g12
V.
p237
sbatp238
Rp239
(dp240
g12
VS
p241
sbatp242
Rp243
(dp244
g12
S'id: 1'
p245
sbag0
(g1
g2
(lp246
g0
(g1
g2
(lp247
g0
(g1
g2
(lp248
g0
(g1
g2
(lp249
VDo
p250
atp251
Rp252
(dp253
g12
VVBP
p254
sbag0
(g1
g2
(lp255
Vn't
p256
atp257
Rp258
(dp259
g12
VRB
p260
sbag0
(g1
g2
(lp261
g0
(g1
g2
(lp262
Vunderstand
p263
atp264
Rp265
(dp266
g12
VVB
p267
sbag0
(g1
g2
(lp268
g0
(g1
g2
(lp269
g0
(g1
g2
(lp270
Vwhy
p271
atp272
Rp273
(dp274
g12
VWRB
p275
sbatp276
Rp277
(dp278
g12
VWHADVP
p279
sbag0
(g1
g2
(lp280
g0
(g1
g2
(lp281
g0
(g1
g2
(lp282
Vthe
p283
atp284
Rp285
(dp286
g12
VDT
p287
sbag0
(g1
g2
(lp288
Vhouse
p289
atp290
Rp291
(dp292
g12
VNN
p293
sbatp294
Rp295
(dp296
g12
VNP
p297
sbag0
(g1
g2
(lp298
g0
(g1
g2
(lp299
Vis
p300
atp301
Rp302
(dp303
g12
VVBZ
p304
sbag0
(g1
g2
(lp305
g0
(g1
g2
(lp306
Vin
p307
atp308
Rp309
(dp310
g12
VIN
p311
sbag0
(g1
g2
(lp312
g0
(g1
g2
(lp313
g0
(g1
g2
(lp314
Vthe
p315
atp316
Rp317
(dp318
g12
VDT
p319
sbag0
(g1
g2
(lp320
Vpicture
p321
atp322
Rp323
(dp324
g12
VNN
p325
sbatp326
Rp327
(dp328
g12
VNP
p329
sbag0
(g1
g2
(lp330
V,
p331
atp332
Rp333
(dp334
g12
V,
p335
sbag0
(g1
g2
(lp336
g0
(g1
g2
(lp337
Vbut
p338
atp339
Rp340
(dp341
g12
VCC
p342
sbatp343
Rp344
(dp345
g12
VADVP
p346
sbatp347
Rp348
(dp349
g12
VNP
p350
sbatp351
Rp352
(dp353
g12
VPP
p354
sbatp355
Rp356
(dp357
g12
VVP
p358
sbatp359
Rp360
(dp361
g12
VS
p362
sbatp363
Rp364
(dp365
g12
VSBAR
p366
sbatp367
Rp368
(dp369
g12
VVP
p370
sbatp371
Rp372
(dp373
g12
VVP
p374
sbag0
(g1
g2
(lp375
V.
p376
atp377
Rp378
(dp379
g12
V.
p380
sbatp381
Rp382
(dp383
g12
VS
p384
sbatp385
Rp386
(dp387
g12
S'id: 2'
p388
sbag0
(g1
g2
(lp389
g0
(g1
g2
(lp390
g0
(g1
g2
(lp391
g0
(g1
g2
(lp392
VThe
p393
atp394
Rp395
(dp396
g12
VDT
p397
sbag0
(g1
g2
(lp398
Vson
p399
atp400
Rp401
(dp402
g12
VNN
p403
sbatp404
Rp405
(dp406
g12
VNP
p407
sbag0
(g1
g2
(lp408
g0
(g1
g2
(lp409
Vis
p410
atp411
Rp412
(dp413
g12
VVBZ
p414
sbag0
(g1
g2
(lp415
g0
(g1
g2
(lp416
Vplaying
p417
atp418
Rp419
(dp420
g12
VVBG
p421
sbag0
(g1
g2
(lp422
g0
(g1
g2
(lp423
Vwith
p424
atp425
Rp426
(dp427
g12
VIN
p428
sbag0
(g1
g2
(lp429
g0
(g1
g2
(lp430
Vhis
p431
atp432
Rp433
(dp434
g12
VPRP$
p435
sbag0
(g1
g2
(lp436
Vkite
p437
atp438
Rp439
(dp440
g12
VNN
p441
sbatp442
Rp443
(dp444
g12
VNP
p445
sbatp446
Rp447
(dp448
g12
VPP
p449
sbag0
(g1
g2
(lp450
g0
(g1
g2
(lp451
Vagain
p452
atp453
Rp454
(dp455
g12
VRB
p456
sbatp457
Rp458
(dp459
g12
VADVP
p460
sbatp461
Rp462
(dp463
g12
VVP
p464
sbatp465
Rp466
(dp467
g12
VVP
p468
sbag0
(g1
g2
(lp469
V.
p470
atp471
Rp472
(dp473
g12
V.
p474
sbatp475
Rp476
(dp477
g12
VS
p478
sbatp479
Rp480
(dp481
g12
S'id: 3'
p482
sbag0
(g1
g2
(lp483
g0
(g1
g2
(lp484
g0
(g1
g2
(lp485
g0
(g1
g2
(lp486
g0
(g1
g2
(lp487
VThe
p488
atp489
Rp490
(dp491
g12
VDT
p492
sbag0
(g1
g2
(lp493
Vdog
p494
atp495
Rp496
(dp497
g12
VNN
p498
sbatp499
Rp500
(dp501
g12
VNP
p502
sbag0
(g1
g2
(lp503
g0
(g1
g2
(lp504
Vis
p505
atp506
Rp507
(dp508
g12
VVBZ
p509
sbag0
(g1
g2
(lp510
g0
(g1
g2
(lp511
Vchasing
p512
atp513
Rp514
(dp515
g12
VVBG
p516
sbag0
(g1
g2
(lp517
g0
(g1
g2
(lp518
Vthe
p519
atp520
Rp521
(dp522
g12
VDT
p523
sbag0
(g1
g2
(lp524
Vson
p525
atp526
Rp527
(dp528
g12
VNN
p529
sbatp530
Rp531
(dp532
g12
VNP
p533
sbatp534
Rp535
(dp536
g12
VVP
p537
sbatp538
Rp539
(dp540
g12
VVP
p541
sbatp542
Rp543
(dp544
g12
VS
p545
sbag0
(g1
g2
(lp546
g0
(g1
g2
(lp547
V,
p548
atp549
Rp550
(dp551
g12
V,
p552
sbag0
(g1
g2
(lp553
g0
(g1
g2
(lp554
g0
(g1
g2
(lp555
Vthe
p556
atp557
Rp558
(dp559
g12
VDT
p560
sbag0
(g1
g2
(lp561
Vmother
p562
atp563
Rp564
(dp565
g12
VNN
p566
sbatp567
Rp568
(dp569
g12
VNP
p570
sbag0
(g1
g2
(lp571
g0
(g1
g2
(lp572
Vlooks
p573
atp574
Rp575
(dp576
g12
VVBZ
p577
sbag0
(g1
g2
(lp578
g0
(g1
g2
(lp579
Vlike
p580
atp581
Rp582
(dp583
g12
VIN
p584
sbag0
(g1
g2
(lp585
g0
(g1
g2
(lp586
g0
(g1
g2
(lp587
Vshe
p588
atp589
Rp590
(dp591
g12
VPRP
p592
sbatp593
Rp594
(dp595
g12
VNP
p596
sbag0
(g1
g2
(lp597
g0
(g1
g2
(lp598
V's
p599
atp600
Rp601
(dp602
g12
VVBZ
p603
sbag0
(g1
g2
(lp604
g0
(g1
g2
(lp605
Vhaving
p606
atp607
Rp608
(dp609
g12
VVBG
p610
sbag0
(g1
g2
(lp611
g0
(g1
g2
(lp612
g0
(g1
g2
(lp613
Va
p614
atp615
Rp616
(dp617
g12
VDT
p618
sbag0
(g1
g2
(lp619
Vglass
p620
atp621
Rp622
(dp623
g12
VNN
p624
sbatp625
Rp626
(dp627
g12
VNP
p628
sbag0
(g1
g2
(lp629
g0
(g1
g2
(lp630
Vof
p631
atp632
Rp633
(dp634
g12
VIN
p635
sbag0
(g1
g2
(lp636
g0
(g1
g2
(lp637
Vwine
p638
atp639
Rp640
(dp641
g12
VNN
p642
sbatp643
Rp644
(dp645
g12
VNP
p646
sbatp647
Rp648
(dp649
g12
VPP
p650
sbatp651
Rp652
(dp653
g12
VNP
p654
sbatp655
Rp656
(dp657
g12
VVP
p658
sbatp659
Rp660
(dp661
g12
VVP
p662
sbatp663
Rp664
(dp665
g12
VS
p666
sbatp667
Rp668
(dp669
g12
VSBAR
p670
sbatp671
Rp672
(dp673
g12
VVP
p674
sbatp675
Rp676
(dp677
g12
VS
p678
sbag0
(g1
g2
(lp679
V,
p680
atp681
Rp682
(dp683
g12
V,
p684
sbatp685
Rp686
(dp687
g12
VPRN
p688
sbag0
(g1
g2
(lp689
Vand
p690
atp691
Rp692
(dp693
g12
VCC
p694
sbag0
(g1
g2
(lp695
g0
(g1
g2
(lp696
g0
(g1
g2
(lp697
Vthe
p698
atp699
Rp700
(dp701
g12
VDT
p702
sbag0
(g1
g2
(lp703
Vfather
p704
atp705
Rp706
(dp707
g12
VNN
p708
sbatp709
Rp710
(dp711
g12
VNP
p712
sbag0
(g1
g2
(lp713
g0
(g1
g2
(lp714
Vis
p715
atp716
Rp717
(dp718
g12
VVBZ
p719
sbag0
(g1
g2
(lp720
g0
(g1
g2
(lp721
Vreading
p722
atp723
Rp724
(dp725
g12
VVBG
p726
sbag0
(g1
g2
(lp727
g0
(g1
g2
(lp728
Vhis
p729
atp730
Rp731
(dp732
g12
VPRP$
p733
sbag0
(g1
g2
(lp734
Vfavorite
p735
atp736
Rp737
(dp738
g12
VJJ
p739
sbag0
(g1
g2
(lp740
Vbook
p741
atp742
Rp743
(dp744
g12
VNN
p745
sbatp746
Rp747
(dp748
g12
VNP
p749
sbag0
(g1
g2
(lp750
V,
p751
atp752
Rp753
(dp754
g12
V,
p755
sbag0
(g1
g2
(lp756
g0
(g1
g2
(lp757
Vwith
p758
atp759
Rp760
(dp761
g12
VIN
p762
sbag0
(g1
g2
(lp763
g0
(g1
g2
(lp764
Vthe
p765
atp766
Rp767
(dp768
g12
VDT
p769
sbag0
(g1
g2
(lp770
Vradio
p771
atp772
Rp773
(dp774
g12
VNN
p775
sbag0
(g1
g2
(lp776
Vblasting
p777
atp778
Rp779
(dp780
g12
VNN
p781
sbatp782
Rp783
(dp784
g12
VNP
p785
sbatp786
Rp787
(dp788
g12
VPP
p789
sbatp790
Rp791
(dp792
g12
VVP
p793
sbatp794
Rp795
(dp796
g12
VVP
p797
sbatp798
Rp799
(dp800
g12
VS
p801
sbag0
(g1
g2
(lp802
V.
p803
atp804
Rp805
(dp806
g12
V.
p807
sbatp808
Rp809
(dp810
g12
VS
p811
sbatp812
Rp813
(dp814
g12
S'id: 4'
p815
sbag0
(g1
g2
(lp816
g0
(g1
g2
(lp817
g0
(g1
g2
(lp818
g0
(g1
g2
(lp819
VThe
p820
atp821
Rp822
(dp823
g12
VDT
p824
sbag0
(g1
g2
(lp825
Vsailboat
p826
atp827
Rp828
(dp829
g12
VNN
p830
sbatp831
Rp832
(dp833
g12
VNP
p834
sbag0
(g1
g2
(lp835
g0
(g1
g2
(lp836
Vis
p837
atp838
Rp839
(dp840
g12
VVBZ
p841
sbag0
(g1
g2
(lp842
g0
(g1
g2
(lp843
Vout
p844
atp845
Rp846
(dp847
g12
VRP
p848
sbag0
(g1
g2
(lp849
g0
(g1
g2
(lp850
Von
p851
atp852
Rp853
(dp854
g12
VIN
p855
sbag0
(g1
g2
(lp856
g0
(g1
g2
(lp857
g0
(g1
g2
(lp858
Vthe
p859
atp860
Rp861
(dp862
g12
VDT
p863
sbag0
(g1
g2
(lp864
Vhigh
p865
atp866
Rp867
(dp868
g12
VJJ
p869
sbag0
(g1
g2
(lp870
Vsea
p871
atp872
Rp873
(dp874
g12
VNN
p875
sbatp876
Rp877
(dp878
g12
VNP
p879
sbag0
(g1
g2
(lp880
V,
p881
atp882
Rp883
(dp884
g12
V,
p885
sbag0
(g1
g2
(lp886
g0
(g1
g2
(lp887
Vlooks
p888
atp889
Rp890
(dp891
g12
VVBZ
p892
sbag0
(g1
g2
(lp893
g0
(g1
g2
(lp894
Vlike
p895
atp896
Rp897
(dp898
g12
VIN
p899
sbag0
(g1
g2
(lp900
g0
(g1
g2
(lp901
g0
(g1
g2
(lp902
g0
(g1
g2
(lp903
Va
p904
atp905
Rp906
(dp907
g12
VDT
p908
sbag0
(g1
g2
(lp909
Vcouple
p910
atp911
Rp912
(dp913
g12
VNN
p914
sbatp915
Rp916
(dp917
g12
VNP
p918
sbag0
(g1
g2
(lp919
g0
(g1
g2
(lp920
Vof
p921
atp922
Rp923
(dp924
g12
VIN
p925
sbag0
(g1
g2
(lp926
g0
(g1
g2
(lp927
Vpeople
p928
atp929
Rp930
(dp931
g12
VNNS
p932
sbatp933
Rp934
(dp935
g12
VNP
p936
sbatp937
Rp938
(dp939
g12
VPP
p940
sbatp941
Rp942
(dp943
g12
VNP
p944
sbag0
(g1
g2
(lp945
g0
(g1
g2
(lp946
Vare
p947
atp948
Rp949
(dp950
g12
VVBP
p951
sbag0
(g1
g2
(lp952
g0
(g1
g2
(lp953
Vhaving
p954
atp955
Rp956
(dp957
g12
VVBG
p958
sbag0
(g1
g2
(lp959
g0
(g1
g2
(lp960
Va
p961
atp962
Rp963
(dp964
g12
VDT
p965
sbag0
(g1
g2
(lp966
Vgood
p967
atp968
Rp969
(dp970
g12
VJJ
p971
sbag0
(g1
g2
(lp972
Vtime
p973
atp974
Rp975
(dp976
g12
VNN
p977
sbatp978
Rp979
(dp980
g12
VNP
p981
sbatp982
Rp983
(dp984
g12
VVP
p985
sbatp986
Rp987
(dp988
g12
VVP
p989
sbatp990
Rp991
(dp992
g12
VS
p993
sbatp994
Rp995
(dp996
g12
VSBAR
p997
sbatp998
Rp999
(dp1000
g12
VVP
p1001
sbag0
(g1
g2
(lp1002
V,
p1003
atp1004
Rp1005
(dp1006
g12
V,
p1007
sbatp1008
Rp1009
(dp1010
g12
VNP
p1011
sbag0
(g1
g2
(lp1012
g0
(g1
g2
(lp1013
Von
p1014
atp1015
Rp1016
(dp1017
g12
VIN
p1018
sbag0
(g1
g2
(lp1019
g0
(g1
g2
(lp1020
Vthe
p1021
atp1022
Rp1023
(dp1024
g12
VDT
p1025
sbag0
(g1
g2
(lp1026
Vsailboat
p1027
atp1028
Rp1029
(dp1030
g12
VNN
p1031
sbatp1032
Rp1033
(dp1034
g12
VNP
p1035
sbatp1036
Rp1037
(dp1038
g12
VPP
p1039
sbatp1040
Rp1041
(dp1042
g12
VPP
p1043
sbatp1044
Rp1045
(dp1046
g12
VADVP
p1047
sbatp1048
Rp1049
(dp1050
g12
VVP
p1051
sbag0
(g1
g2
(lp1052
V.
p1053
atp1054
Rp1055
(dp1056
g12
V.
p1057
sbatp1058
Rp1059
(dp1060
g12
VS
p1061
sbatp1062
Rp1063
(dp1064
g12
S'id: 5'
p1065
sbag0
(g1
g2
(lp1066
g0
(g1
g2
(lp1067
g0
(g1
g2
(lp1068
VAnd
p1069
atp1070
Rp1071
(dp1072
g12
VCC
p1073
sbag0
(g1
g2
(lp1074
g0
(g1
g2
(lp1075
Vthe
p1076
atp1077
Rp1078
(dp1079
g12
VDT
p1080
sbag0
(g1
g2
(lp1081
Vlittle
p1082
atp1083
Rp1084
(dp1085
g12
VJJ
p1086
sbag0
(g1
g2
(lp1087
Vgirl
p1088
atp1089
Rp1090
(dp1091
g12
VNN
p1092
sbatp1093
Rp1094
(dp1095
g12
VNP
p1096
sbag0
(g1
g2
(lp1097
g0
(g1
g2
(lp1098
Vis
p1099
atp1100
Rp1101
(dp1102
g12
VVBZ
p1103
sbag0
(g1
g2
(lp1104
g0
(g1
g2
(lp1105
Vplaying
p1106
atp1107
Rp1108
(dp1109
g12
VVBG
p1110
sbag0
(g1
g2
(lp1111
g0
(g1
g2
(lp1112
Vwith
p1113
atp1114
Rp1115
(dp1116
g12
VIN
p1117
sbag0
(g1
g2
(lp1118
g0
(g1
g2
(lp1119
Vthe
p1120
atp1121
Rp1122
(dp1123
g12
VDT
p1124
sbag0
(g1
g2
(lp1125
Vsandbox
p1126
atp1127
Rp1128
(dp1129
g12
VNN
p1130
sbatp1131
Rp1132
(dp1133
g12
VNP
p1134
sbatp1135
Rp1136
(dp1137
g12
VPP
p1138
sbag0
(g1
g2
(lp1139
V,
p1140
atp1141
Rp1142
(dp1143
g12
V,
p1144
sbag0
(g1
g2
(lp1145
g0
(g1
g2
(lp1146
Vwith
p1147
atp1148
Rp1149
(dp1150
g12
VIN
p1151
sbag0
(g1
g2
(lp1152
g0
(g1
g2
(lp1153
Vthe
p1154
atp1155
Rp1156
(dp1157
g12
VDT
p1158
sbag0
(g1
g2
(lp1159
Vsand
p1160
atp1161
Rp1162
(dp1163
g12
VNN
p1164
sbag0
(g1
g2
(lp1165
Vdunes
p1166
atp1167
Rp1168
(dp1169
g12
VNNS
p1170
sbatp1171
Rp1172
(dp1173
g12
VNP
p1174
sbatp1175
Rp1176
(dp1177
g12
VPP
p1178
sbatp1179
Rp1180
(dp1181
g12
VVP
p1182
sbatp1183
Rp1184
(dp1185
g12
VVP
p1186
sbag0
(g1
g2
(lp1187
V.
p1188
atp1189
Rp1190
(dp1191
g12
V.
p1192
sbatp1193
Rp1194
(dp1195
g12
VS
p1196
sbatp1197
Rp1198
(dp1199
g12
S'id: 6'
p1200
sbag0
(g1
g2
(lp1201
g0
(g1
g2
(lp1202
g0
(g1
g2
(lp1203
VAnd
p1204
atp1205
Rp1206
(dp1207
g12
VCC
p1208
sbag0
(g1
g2
(lp1209
g0
(g1
g2
(lp1210
g0
(g1
g2
(lp1211
Vthe
p1212
atp1213
Rp1214
(dp1215
g12
VDT
p1216
sbag0
(g1
g2
(lp1217
Vfather
p1218
atp1219
Rp1220
(dp1221
g12
VNN
p1222
sbatp1223
Rp1224
(dp1225
g12
VNP
p1226
sbag0
(g1
g2
(lp1227
V,
p1228
atp1229
Rp1230
(dp1231
g12
V,
p1232
sbag0
(g1
g2
(lp1233
g0
(g1
g2
(lp1234
Vthe
p1235
atp1236
Rp1237
(dp1238
g12
VDT
p1239
sbag0
(g1
g2
(lp1240
Vgrandfather
p1241
atp1242
Rp1243
(dp1244
g12
VNN
p1245
sbatp1246
Rp1247
(dp1248
g12
VNP
p1249
sbatp1250
Rp1251
(dp1252
g12
VNP
p1253
sbag0
(g1
g2
(lp1254
g0
(g1
g2
(lp1255
Vis
p1256
atp1257
Rp1258
(dp1259
g12
VVBZ
p1260
sbag0
(g1
g2
(lp1261
g0
(g1
g2
(lp1262
Vout
p1263
atp1264
Rp1265
(dp1266
g12
VIN
p1267
sbag0
(g1
g2
(lp1268
g0
(g1
g2
(lp1269
Vfishing
p1270
atp1271
Rp1272
(dp1273
g12
VNN
p1274
sbatp1275
Rp1276
(dp1277
g12
VNP
p1278
sbatp1279
Rp1280
(dp1281
g12
VPP
p1282
sbag0
(g1
g2
(lp1283
V,
p1284
atp1285
Rp1286
(dp1287
g12
V,
p1288
sbag0
(g1
g2
(lp1289
g0
(g1
g2
(lp1290
Von
p1291
atp1292
Rp1293
(dp1294
g12
VIN
p1295
sbag0
(g1
g2
(lp1296
Vthe
p1297
atp1298
Rp1299
(dp1300
g12
VDT
p1301
sbatp1302
Rp1303
(dp1304
g12
VADVP
p1305
sbag0
(g1
g2
(lp1306
V,
p1307
atp1308
Rp1309
(dp1310
g12
V,
p1311
sbag0
(g1
g2
(lp1312
g0
(g1
g2
(lp1313
Von
p1314
atp1315
Rp1316
(dp1317
g12
VIN
p1318
sbag0
(g1
g2
(lp1319
g0
(g1
g2
(lp1320
Vthe
p1321
atp1322
Rp1323
(dp1324
g12
VDT
p1325
sbag0
(g1
g2
(lp1326
Vpier
p1327
atp1328
Rp1329
(dp1330
g12
VNN
p1331
sbatp1332
Rp1333
(dp1334
g12
VNP
p1335
sbatp1336
Rp1337
(dp1338
g12
VPP
p1339
sbatp1340
Rp1341
(dp1342
g12
VVP
p1343
sbag0
(g1
g2
(lp1344
V.
p1345
atp1346
Rp1347
(dp1348
g12
V.
p1349
sbatp1350
Rp1351
(dp1352
g12
VS
p1353
sbatp1354
Rp1355
(dp1356
g12
S'id: 7'
p1357
sbag0
(g1
g2
(lp1358
g0
(g1
g2
(lp1359
g0
(g1
g2
(lp1360
g0
(g1
g2
(lp1361
g0
(g1
g2
(lp1362
g0
(g1
g2
(lp1363
VLooks
p1364
atp1365
Rp1366
(dp1367
g12
VVBZ
p1368
sbag0
(g1
g2
(lp1369
g0
(g1
g2
(lp1370
Vlike
p1371
atp1372
Rp1373
(dp1374
g12
VIN
p1375
sbag0
(g1
g2
(lp1376
g0
(g1
g2
(lp1377
Vthe
p1378
atp1379
Rp1380
(dp1381
g12
VDT
p1382
sbag0
(g1
g2
(lp1383
Vcouple
p1384
atp1385
Rp1386
(dp1387
g12
VNN
p1388
sbatp1389
Rp1390
(dp1391
g12
VNP
p1392
sbatp1393
Rp1394
(dp1395
g12
VPP
p1396
sbatp1397
Rp1398
(dp1399
g12
VVP
p1400
sbatp1401
Rp1402
(dp1403
g12
VS
p1404
sbag0
(g1
g2
(lp1405
g0
(g1
g2
(lp1406
Vis
p1407
atp1408
Rp1409
(dp1410
g12
VVBZ
p1411
sbag0
(g1
g2
(lp1412
g0
(g1
g2
(lp1413
Vgetting
p1414
atp1415
Rp1416
(dp1417
g12
VVBG
p1418
sbag0
(g1
g2
(lp1419
g0
(g1
g2
(lp1420
Vready
p1421
atp1422
Rp1423
(dp1424
g12
VJJ
p1425
sbag0
(g1
g2
(lp1426
g0
(g1
g2
(lp1427
g0
(g1
g2
(lp1428
Vto
p1429
atp1430
Rp1431
(dp1432
g12
VTO
p1433
sbag0
(g1
g2
(lp1434
g0
(g1
g2
(lp1435
Venjoy
p1436
atp1437
Rp1438
(dp1439
g12
VVB
p1440
sbag0
(g1
g2
(lp1441
g0
(g1
g2
(lp1442
Va
p1443
atp1444
Rp1445
(dp1446
g12
VDT
p1447
sbag0
(g1
g2
(lp1448
Vpicnic
p1449
atp1450
Rp1451
(dp1452
g12
VNN
p1453
sbag0
(g1
g2
(lp1454
Vlunch
p1455
atp1456
Rp1457
(dp1458
g12
VNN
p1459
sbatp1460
Rp1461
(dp1462
g12
VNP
p1463
sbatp1464
Rp1465
(dp1466
g12
VVP
p1467
sbatp1468
Rp1469
(dp1470
g12
VVP
p1471
sbatp1472
Rp1473
(dp1474
g12
VS
p1475
sbatp1476
Rp1477
(dp1478
g12
VADJP
p1479
sbatp1480
Rp1481
(dp1482
g12
VVP
p1483
sbatp1484
Rp1485
(dp1486
g12
VVP
p1487
sbatp1488
Rp1489
(dp1490
g12
VS
p1491
sbag0
(g1
g2
(lp1492
V,
p1493
atp1494
Rp1495
(dp1496
g12
V,
p1497
sbag0
(g1
g2
(lp1498
Vand
p1499
atp1500
Rp1501
(dp1502
g12
VCC
p1503
sbag0
(g1
g2
(lp1504
g0
(g1
g2
(lp1505
g0
(g1
g2
(lp1506
Vshe
p1507
atp1508
Rp1509
(dp1510
g12
VPRP
p1511
sbatp1512
Rp1513
(dp1514
g12
VNP
p1515
sbag0
(g1
g2
(lp1516
g0
(g1
g2
(lp1517
Vbrought
p1518
atp1519
Rp1520
(dp1521
g12
VVBD
p1522
sbag0
(g1
g2
(lp1523
g0
(g1
g2
(lp1524
g0
(g1
g2
(lp1525
Va
p1526
atp1527
Rp1528
(dp1529
g12
VDT
p1530
sbag0
(g1
g2
(lp1531
Vset
p1532
atp1533
Rp1534
(dp1535
g12
VNN
p1536
sbatp1537
Rp1538
(dp1539
g12
VNP
p1540
sbag0
(g1
g2
(lp1541
g0
(g1
g2
(lp1542
Vof
p1543
atp1544
Rp1545
(dp1546
g12
VIN
p1547
sbag0
(g1
g2
(lp1548
g0
(g1
g2
(lp1549
Vsandals
p1550
atp1551
Rp1552
(dp1553
g12
VNNS
p1554
sbatp1555
Rp1556
(dp1557
g12
VNP
p1558
sbatp1559
Rp1560
(dp1561
g12
VPP
p1562
sbatp1563
Rp1564
(dp1565
g12
VNP
p1566
sbag0
(g1
g2
(lp1567
g0
(g1
g2
(lp1568
Vso
p1569
atp1570
Rp1571
(dp1572
g12
VIN
p1573
sbag0
(g1
g2
(lp1574
g0
(g1
g2
(lp1575
g0
(g1
g2
(lp1576
Vshe
p1577
atp1578
Rp1579
(dp1580
g12
VPRP
p1581
sbatp1582
Rp1583
(dp1584
g12
VNP
p1585
sbag0
(g1
g2
(lp1586
g0
(g1
g2
(lp1587
Vcan
p1588
atp1589
Rp1590
(dp1591
g12
VMD
p1592
sbag0
(g1
g2
(lp1593
g0
(g1
g2
(lp1594
Vwalk
p1595
atp1596
Rp1597
(dp1598
g12
VVB
p1599
sbag0
(g1
g2
(lp1600
g0
(g1
g2
(lp1601
Vin
p1602
atp1603
Rp1604
(dp1605
g12
VIN
p1606
sbag0
(g1
g2
(lp1607
Vthe
p1608
atp1609
Rp1610
(dp1611
g12
VDT
p1612
sbatp1613
Rp1614
(dp1615
g12
VADVP
p1616
sbag0
(g1
g2
(lp1617
V,
p1618
atp1619
Rp1620
(dp1621
g12
V,
p1622
sbag0
(g1
g2
(lp1623
g0
(g1
g2
(lp1624
Vin
p1625
atp1626
Rp1627
(dp1628
g12
VIN
p1629
sbag0
(g1
g2
(lp1630
g0
(g1
g2
(lp1631
Vthe
p1632
atp1633
Rp1634
(dp1635
g12
VDT
p1636
sbag0
(g1
g2
(lp1637
Vsand
p1638
atp1639
Rp1640
(dp1641
g12
VNN
p1642
sbatp1643
Rp1644
(dp1645
g12
VNP
p1646
sbatp1647
Rp1648
(dp1649
g12
VPP
p1650
sbatp1651
Rp1652
(dp1653
g12
VVP
p1654
sbatp1655
Rp1656
(dp1657
g12
VVP
p1658
sbatp1659
Rp1660
(dp1661
g12
VS
p1662
sbatp1663
Rp1664
(dp1665
g12
VSBAR
p1666
sbatp1667
Rp1668
(dp1669
g12
VVP
p1670
sbatp1671
Rp1672
(dp1673
g12
VS
p1674
sbag0
(g1
g2
(lp1675
V.
p1676
atp1677
Rp1678
(dp1679
g12
V.
p1680
sbatp1681
Rp1682
(dp1683
g12
VS
p1684
sbatp1685
Rp1686
(dp1687
g12
S'id: 8'
p1688
sbag0
(g1
g2
(lp1689
g0
(g1
g2
(lp1690
g0
(g1
g2
(lp1691
g0
(g1
g2
(lp1692
VNo
p1693
atp1694
Rp1695
(dp1696
g12
VDT
p1697
sbag0
(g1
g2
(lp1698
Vthat
p1699
atp1700
Rp1701
(dp1702
g12
VDT
p1703
sbatp1704
Rp1705
(dp1706
g12
VNP
p1707
sbag0
(g1
g2
(lp1708
g0
(g1
g2
(lp1709
V's
p1710
atp1711
Rp1712
(dp1713
g12
VVBZ
p1714
sbag0
(g1
g2
(lp1715
g0
(g1
g2
(lp1716
g0
(g1
g2
(lp1717
Vthe
p1718
atp1719
Rp1720
(dp1721
g12
VDT
p1722
sbag0
(g1
g2
(lp1723
Vfather
p1724
atp1725
Rp1726
(dp1727
g12
VNN
p1728
sbag0
(g1
g2
(lp1729
V's
p1730
atp1731
Rp1732
(dp1733
g12
VPOS
p1734
sbatp1735
Rp1736
(dp1737
g12
VNP
p1738
sbag0
(g1
g2
(lp1739
g0
(g1
g2
(lp1740
Vnow
p1741
atp1742
Rp1743
(dp1744
g12
VRB
p1745
sbatp1746
Rp1747
(dp1748
g12
VNP
p1749
sbatp1750
Rp1751
(dp1752
g12
VNP
p1753
sbatp1754
Rp1755
(dp1756
g12
VVP
p1757
sbag0
(g1
g2
(lp1758
V.
p1759
atp1760
Rp1761
(dp1762
g12
V.
p1763
sbatp1764
Rp1765
(dp1766
g12
VS
p1767
sbatp1768
Rp1769
(dp1770
g12
S'id: 9'
p1771
sbag0
(g1
g2
(lp1772
g0
(g1
g2
(lp1773
g0
(g1
g2
(lp1774
g0
(g1
g2
(lp1775
VHe
p1776
atp1777
Rp1778
(dp1779
g12
VPRP
p1780
sbatp1781
Rp1782
(dp1783
g12
VNP
p1784
sbag0
(g1
g2
(lp1785
g0
(g1
g2
(lp1786
Vlooks
p1787
atp1788
Rp1789
(dp1790
g12
VVBZ
p1791
sbag0
(g1
g2
(lp1792
g0
(g1
g2
(lp1793
Vlike
p1794
atp1795
Rp1796
(dp1797
g12
VIN
p1798
sbag0
(g1
g2
(lp1799
g0
(g1
g2
(lp1800
Vthe
p1801
atp1802
Rp1803
(dp1804
g12
VDT
p1805
sbag0
(g1
g2
(lp1806
Vmysterious
p1807
atp1808
Rp1809
(dp1810
g12
VJJ
p1811
sbag0
(g1
g2
(lp1812
Vone
p1813
atp1814
Rp1815
(dp1816
g12
VCD
p1817
sbatp1818
Rp1819
(dp1820
g12
VNP
p1821
sbatp1822
Rp1823
(dp1824
g12
VPP
p1825
sbatp1826
Rp1827
(dp1828
g12
VVP
p1829
sbag0
(g1
g2
(lp1830
V.
p1831
atp1832
Rp1833
(dp1834
g12
V.
p1835
sbatp1836
Rp1837
(dp1838
g12
VS
p1839
sbatp1840
Rp1841
(dp1842
g12
S'id: 10'
p1843
sbag0
(g1
g2
(lp1844
g0
(g1
g2
(lp1845
g0
(g1
g2
(lp1846
g0
(g1
g2
(lp1847
VThe
p1848
atp1849
Rp1850
(dp1851
g12
VDT
p1852
sbag0
(g1
g2
(lp1853
Vcar
p1854
atp1855
Rp1856
(dp1857
g12
VNN
p1858
sbatp1859
Rp1860
(dp1861
g12
VNP
p1862
sbag0
(g1
g2
(lp1863
g0
(g1
g2
(lp1864
Vis
p1865
atp1866
Rp1867
(dp1868
g12
VVBZ
p1869
sbag0
(g1
g2
(lp1870
g0
(g1
g2
(lp1871
Vstill
p1872
atp1873
Rp1874
(dp1875
g12
VRB
p1876
sbatp1877
Rp1878
(dp1879
g12
VADVP
p1880
sbag0
(g1
g2
(lp1881
g0
(g1
g2
(lp1882
Vin
p1883
atp1884
Rp1885
(dp1886
g12
VIN
p1887
sbag0
(g1
g2
(lp1888
g0
(g1
g2
(lp1889
Vthe
p1890
atp1891
Rp1892
(dp1893
g12
VDT
p1894
sbag0
(g1
g2
(lp1895
Vdriveway
p1896
atp1897
Rp1898
(dp1899
g12
VNN
p1900
sbatp1901
Rp1902
(dp1903
g12
VNP
p1904
sbatp1905
Rp1906
(dp1907
g12
VPP
p1908
sbatp1909
Rp1910
(dp1911
g12
VVP
p1912
sbag0
(g1
g2
(lp1913
V.
p1914
atp1915
Rp1916
(dp1917
g12
V.
p1918
sbatp1919
Rp1920
(dp1921
g12
VS
p1922
sbatp1923
Rp1924
(dp1925
g12
S'id: 11'
p1926
sbag0
(g1
g2
(lp1927
g0
(g1
g2
(lp1928
g0
(g1
g2
(lp1929
g0
(g1
g2
(lp1930
VI
p1931
atp1932
Rp1933
(dp1934
g12
VPRP
p1935
sbatp1936
Rp1937
(dp1938
g12
VNP
p1939
sbag0
(g1
g2
(lp1940
g0
(g1
g2
(lp1941
Vsuppose
p1942
atp1943
Rp1944
(dp1945
g12
VVBP
p1946
sbag0
(g1
g2
(lp1947
g0
(g1
g2
(lp1948
g0
(g1
g2
(lp1949
g0
(g1
g2
(lp1950
Vsomeone
p1951
atp1952
Rp1953
(dp1954
g12
VNN
p1955
sbatp1956
Rp1957
(dp1958
g12
VNP
p1959
sbag0
(g1
g2
(lp1960
g0
(g1
g2
(lp1961
Vmust
p1962
atp1963
Rp1964
(dp1965
g12
VMD
p1966
sbag0
(g1
g2
(lp1967
g0
(g1
g2
(lp1968
Vlive
p1969
atp1970
Rp1971
(dp1972
g12
VVB
p1973
sbag0
(g1
g2
(lp1974
g0
(g1
g2
(lp1975
Vin
p1976
atp1977
Rp1978
(dp1979
g12
VIN
p1980
sbag0
(g1
g2
(lp1981
g0
(g1
g2
(lp1982
Vit
p1983
atp1984
Rp1985
(dp1986
g12
VPRP
p1987
sbatp1988
Rp1989
(dp1990
g12
VNP
p1991
sbatp1992
Rp1993
(dp1994
g12
VPP
p1995
sbatp1996
Rp1997
(dp1998
g12
VVP
p1999
sbatp2000
Rp2001
(dp2002
g12
VVP
p2003
sbatp2004
Rp2005
(dp2006
g12
VS
p2007
sbatp2008
Rp2009
(dp2010
g12
VSBAR
p2011
sbatp2012
Rp2013
(dp2014
g12
VVP
p2015
sbag0
(g1
g2
(lp2016
V.
p2017
atp2018
Rp2019
(dp2020
g12
V.
p2021
sbatp2022
Rp2023
(dp2024
g12
VS
p2025
sbatp2026
Rp2027
(dp2028
g12
S'id: 12'
p2029
sbag0
(g1
g2
(lp2030
g0
(g1
g2
(lp2031
g0
(g1
g2
(lp2032
g0
(g1
g2
(lp2033
VThe
p2034
atp2035
Rp2036
(dp2037
g12
VDT
p2038
sbag0
(g1
g2
(lp2039
Vflag
p2040
atp2041
Rp2042
(dp2043
g12
VNN
p2044
sbatp2045
Rp2046
(dp2047
g12
VNP
p2048
sbag0
(g1
g2
(lp2049
g0
(g1
g2
(lp2050
Vis
p2051
atp2052
Rp2053
(dp2054
g12
VVBZ
p2055
sbag0
(g1
g2
(lp2056
g0
(g1
g2
(lp2057
Vflying
p2058
atp2059
Rp2060
(dp2061
g12
VVBG
p2062
sbag0
(g1
g2
(lp2063
g0
(g1
g2
(lp2064
Vat
p2065
atp2066
Rp2067
(dp2068
g12
VIN
p2069
sbag0
(g1
g2
(lp2070
g0
(g1
g2
(lp2071
Vfull
p2072
atp2073
Rp2074
(dp2075
g12
VJJ
p2076
sbag0
(g1
g2
(lp2077
Vmast
p2078
atp2079
Rp2080
(dp2081
g12
VNN
p2082
sbatp2083
Rp2084
(dp2085
g12
VNP
p2086
sbatp2087
Rp2088
(dp2089
g12
VPP
p2090
sbatp2091
Rp2092
(dp2093
g12
VVP
p2094
sbatp2095
Rp2096
(dp2097
g12
VVP
p2098
sbag0
(g1
g2
(lp2099
V.
p2100
atp2101
Rp2102
(dp2103
g12
V.
p2104
sbatp2105
Rp2106
(dp2107
g12
VS
p2108
sbatp2109
Rp2110
(dp2111
g12
S'id: 13'
p2112
sbag0
(g1
g2
(lp2113
g0
(g1
g2
(lp2114
g0
(g1
g2
(lp2115
VAnd
p2116
atp2117
Rp2118
(dp2119
g12
VCC
p2120
sbag0
(g1
g2
(lp2121
g0
(g1
g2
(lp2122
Vthe
p2123
atp2124
Rp2125
(dp2126
g12
VDT
p2127
sbag0
(g1
g2
(lp2128
Vdaughter
p2129
atp2130
Rp2131
(dp2132
g12
VNN
p2133
sbatp2134
Rp2135
(dp2136
g12
VNP
p2137
sbag0
(g1
g2
(lp2138
g0
(g1
g2
(lp2139
Vis
p2140
atp2141
Rp2142
(dp2143
g12
VVBZ
p2144
sbag0
(g1
g2
(lp2145
V,
p2146
atp2147
Rp2148
(dp2149
g12
V,
p2150
sbag0
(g1
g2
(lp2151
g0
(g1
g2
(lp2152
g0
(g1
g2
(lp2153
g0
(g1
g2
(lp2154
Vis
p2155
atp2156
Rp2157
(dp2158
g12
VVBZ
p2159
sbag0
(g1
g2
(lp2160
g0
(g1
g2
(lp2161
Vbusy
p2162
atp2163
Rp2164
(dp2165
g12
VJJ
p2166
sbatp2167
Rp2168
(dp2169
g12
VADJP
p2170
sbag0
(g1
g2
(lp2171
g0
(g1
g2
(lp2172
g0
(g1
g2
(lp2173
Vbuilding
p2174
atp2175
Rp2176
(dp2177
g12
VVBG
p2178
sbag0
(g1
g2
(lp2179
g0
(g1
g2
(lp2180
g0
(g1
g2
(lp2181
Va
p2182
atp2183
Rp2184
(dp2185
g12
VDT
p2186
sbag0
(g1
g2
(lp2187
Vsand
p2188
atp2189
Rp2190
(dp2191
g12
VNN
p2192
sbag0
(g1
g2
(lp2193
Vdune
p2194
atp2195
Rp2196
(dp2197
g12
VNN
p2198
sbatp2199
Rp2200
(dp2201
g12
VNP
p2202
sbag0
(g1
g2
(lp2203
V,
p2204
atp2205
Rp2206
(dp2207
g12
V,
p2208
sbag0
(g1
g2
(lp2209
g0
(g1
g2
(lp2210
Vcastle
p2211
atp2212
Rp2213
(dp2214
g12
VNN
p2215
sbatp2216
Rp2217
(dp2218
g12
VNP
p2219
sbatp2220
Rp2221
(dp2222
g12
VNP
p2223
sbatp2224
Rp2225
(dp2226
g12
VVP
p2227
sbatp2228
Rp2229
(dp2230
g12
VS
p2231
sbatp2232
Rp2233
(dp2234
g12
VVP
p2235
sbatp2236
Rp2237
(dp2238
g12
VS
p2239
sbatp2240
Rp2241
(dp2242
g12
VSBAR
p2243
sbatp2244
Rp2245
(dp2246
g12
VVP
p2247
sbag0
(g1
g2
(lp2248
V.
p2249
atp2250
Rp2251
(dp2252
g12
V.
p2253
sbatp2254
Rp2255
(dp2256
g12
VS
p2257
sbatp2258
Rp2259
(dp2260
g12
S'id: 14'
p2261
sbag0
(g1
g2
(lp2262
g0
(g1
g2
(lp2263
g0
(g1
g2
(lp2264
g0
(g1
g2
(lp2265
VIt
p2266
atp2267
Rp2268
(dp2269
g12
VPRP
p2270
sbatp2271
Rp2272
(dp2273
g12
VNP
p2274
sbag0
(g1
g2
(lp2275
g0
(g1
g2
(lp2276
Vlooks
p2277
atp2278
Rp2279
(dp2280
g12
VVBZ
p2281
sbag0
(g1
g2
(lp2282
g0
(g1
g2
(lp2283
Vlike
p2284
atp2285
Rp2286
(dp2287
g12
VIN
p2288
sbag0
(g1
g2
(lp2289
g0
(g1
g2
(lp2290
g0
(g1
g2
(lp2291
Vthe
p2292
atp2293
Rp2294
(dp2295
g12
VDT
p2296
sbag0
(g1
g2
(lp2297
Vfish
p2298
atp2299
Rp2300
(dp2301
g12
VNN
p2302
sbatp2303
Rp2304
(dp2305
g12
VNP
p2306
sbag0
(g1
g2
(lp2307
g0
(g1
g2
(lp2308
Vare
p2309
atp2310
Rp2311
(dp2312
g12
VVBP
p2313
sbag0
(g1
g2
(lp2314
g0
(g1
g2
(lp2315
Vbiting
p2316
atp2317
Rp2318
(dp2319
g12
VVBG
p2320
sbatp2321
Rp2322
(dp2323
g12
VVP
p2324
sbatp2325
Rp2326
(dp2327
g12
VVP
p2328
sbatp2329
Rp2330
(dp2331
g12
VS
p2332
sbatp2333
Rp2334
(dp2335
g12
VSBAR
p2336
sbatp2337
Rp2338
(dp2339
g12
VVP
p2340
sbag0
(g1
g2
(lp2341
V.
p2342
atp2343
Rp2344
(dp2345
g12
V.
p2346
sbatp2347
Rp2348
(dp2349
g12
VS
p2350
sbatp2351
Rp2352
(dp2353
g12
S'id: 15'
p2354
sbag0
(g1
g2
(lp2355
g0
(g1
g2
(lp2356
g0
(g1
g2
(lp2357
g0
(g1
g2
(lp2358
VI
p2359
atp2360
Rp2361
(dp2362
g12
VPRP
p2363
sbatp2364
Rp2365
(dp2366
g12
VNP
p2367
sbag0
(g1
g2
(lp2368
g0
(g1
g2
(lp2369
g0
(g1
g2
(lp2370
V'm
p2371
atp2372
Rp2373
(dp2374
g12
VVBP
p2375
sbag0
(g1
g2
(lp2376
Vnot
p2377
atp2378
Rp2379
(dp2380
g12
VRB
p2381
sbag0
(g1
g2
(lp2382
g0
(g1
g2
(lp2383
Vsure
p2384
atp2385
Rp2386
(dp2387
g12
VJJ
p2388
sbag0
(g1
g2
(lp2389
g0
(g1
g2
(lp2390
g0
(g1
g2
(lp2391
Vwho
p2392
atp2393
Rp2394
(dp2395
g12
VWP
p2396
sbatp2397
Rp2398
(dp2399
g12
VWHNP
p2400
sbag0
(g1
g2
(lp2401
g0
(g1
g2
(lp2402
g0
(g1
g2
(lp2403
V's
p2404
atp2405
Rp2406
(dp2407
g12
VVBZ
p2408
sbag0
(g1
g2
(lp2409
g0
(g1
g2
(lp2410
Vgon
p2411
atp2412
Rp2413
(dp2414
g12
VVBG
p2415
sbag0
(g1
g2
(lp2416
g0
(g1
g2
(lp2417
g0
(g1
g2
(lp2418
Vna
p2419
atp2420
Rp2421
(dp2422
g12
VTO
p2423
sbag0
(g1
g2
(lp2424
g0
(g1
g2
(lp2425
Vwind
p2426
atp2427
Rp2428
(dp2429
g12
VVB
p2430
sbag0
(g1
g2
(lp2431
g0
(g1
g2
(lp2432
Vup
p2433
atp2434
Rp2435
(dp2436
g12
VRP
p2437
sbatp2438
Rp2439
(dp2440
g12
VPRT
p2441
sbag0
(g1
g2
(lp2442
g0
(g1
g2
(lp2443
g0
(g1
g2
(lp2444
Vthat
p2445
atp2446
Rp2447
(dp2448
g12
VDT
p2449
sbag0
(g1
g2
(lp2450
Vglass
p2451
atp2452
Rp2453
(dp2454
g12
VNN
p2455
sbatp2456
Rp2457
(dp2458
g12
VNP
p2459
sbag0
(g1
g2
(lp2460
g0
(g1
g2
(lp2461
Vof
p2462
atp2463
Rp2464
(dp2465
g12
VIN
p2466
sbag0
(g1
g2
(lp2467
g0
(g1
g2
(lp2468
Vwine
p2469
atp2470
Rp2471
(dp2472
g12
VNN
p2473
sbatp2474
Rp2475
(dp2476
g12
VNP
p2477
sbatp2478
Rp2479
(dp2480
g12
VPP
p2481
sbatp2482
Rp2483
(dp2484
g12
VNP
p2485
sbatp2486
Rp2487
(dp2488
g12
VVP
p2489
sbatp2490
Rp2491
(dp2492
g12
VVP
p2493
sbatp2494
Rp2495
(dp2496
g12
VS
p2497
sbatp2498
Rp2499
(dp2500
g12
VVP
p2501
sbatp2502
Rp2503
(dp2504
g12
VVP
p2505
sbatp2506
Rp2507
(dp2508
g12
VS
p2509
sbatp2510
Rp2511
(dp2512
g12
VSBAR
p2513
sbatp2514
Rp2515
(dp2516
g12
VADJP
p2517
sbatp2518
Rp2519
(dp2520
g12
VVP
p2521
sbag0
(g1
g2
(lp2522
V,
p2523
atp2524
Rp2525
(dp2526
g12
V,
p2527
sbag0
(g1
g2
(lp2528
Vbut
p2529
atp2530
Rp2531
(dp2532
g12
VCC
p2533
sbag0
(g1
g2
(lp2534
g0
(g1
g2
(lp2535
Vlooks
p2536
atp2537
Rp2538
(dp2539
g12
VVBZ
p2540
sbag0
(g1
g2
(lp2541
g0
(g1
g2
(lp2542
Vlike
p2543
atp2544
Rp2545
(dp2546
g12
VIN
p2547
sbag0
(g1
g2
(lp2548
g0
(g1
g2
(lp2549
g0
(g1
g2
(lp2550
Vshe
p2551
atp2552
Rp2553
(dp2554
g12
VPRP
p2555
sbatp2556
Rp2557
(dp2558
g12
VNP
p2559
sbag0
(g1
g2
(lp2560
g0
(g1
g2
(lp2561
V's
p2562
atp2563
Rp2564
(dp2565
g12
VVBZ
p2566
sbatp2567
Rp2568
(dp2569
g12
VVP
p2570
sbatp2571
Rp2572
(dp2573
g12
VS
p2574
sbatp2575
Rp2576
(dp2577
g12
VSBAR
p2578
sbatp2579
Rp2580
(dp2581
g12
VVP
p2582
sbatp2583
Rp2584
(dp2585
g12
VVP
p2586
sbatp2587
Rp2588
(dp2589
g12
VS
p2590
sbatp2591
Rp2592
(dp2593
g12
S'id: 16'
p2594
sbatp2595
Rp2596
(dp2597
g12
S'sentences'
p2598
sb.