ccopy_reg
_reconstructor
p0
(cnltk.tree
Tree
p1
c__builtin__
list
p2
(lp3
g0
(g1
g2
(lp4
g0
(g1
g2
(lp5
g0
(g1
g2
(lp6
(lp7
S'word: well, index: 1'
p8
aatp9
Rp10
(dp11
S'_label'
p12
Vadvmod
p13
sbag0
(g1
g2
(lp14
g0
(g1
g2
(lp15
g0
(g1
g2
(lp16
(lp17
S'word: the, index: 2'
p18
aatp19
Rp20
(dp21
g12
Vdet
p22
sbatp23
Rp24
(dp25
g12
S'word: woman, index: 3'
p26
sbatp27
Rp28
(dp29
g12
Vnsubj
p30
sbag0
(g1
g2
(lp31
(lp32
S'word: is, index: 4'
p33
aatp34
Rp35
(dp36
g12
Vaux
p37
sbag0
(g1
g2
(lp38
g0
(g1
g2
(lp39
g0
(g1
g2
(lp40
g0
(g1
g2
(lp41
g0
(g1
g2
(lp42
(lp43
S"word: 's, index: 9"
p44
aatp45
Rp46
(dp47
g12
Vpossessive
p48
sbag0
(g1
g2
(lp49
(lp50
S'word: overflowing, index: 10'
p51
aatp52
Rp53
(dp54
g12
Vamod
p55
sbatp56
Rp57
(dp58
g12
S'word: water, index: 8'
p59
sbatp60
Rp61
(dp62
g12
Vappos
p63
sbatp64
Rp65
(dp66
g12
S'word: dishes, index: 6'
p67
sbatp68
Rp69
(dp70
g12
Vdobj
p71
sbatp72
Rp73
(dp74
g12
S'word: washing, index: 5'
p75
sbatp76
Rp77
(dp78
g12
S'id: 0'
p79
sbag0
(g1
g2
(lp80
g0
(g1
g2
(lp81
g0
(g1
g2
(lp82
g0
(g1
g2
(lp83
g0
(g1
g2
(lp84
(lp85
S'word: school, index: 7'
p86
aatp87
Rp88
(dp89
g12
Vprep
p90
sbag0
(g1
g2
(lp91
g0
(g1
g2
(lp92
g0
(g1
g2
(lp93
(lp94
S'word: as, index: 8'
p95
aatp96
Rp97
(dp98
g12
Vmark
p99
sbag0
(g1
g2
(lp100
(lp101
S'word: he, index: 9'
p102
aatp103
Rp104
(dp105
g12
Vnsubj
p106
sbag0
(g1
g2
(lp107
(lp108
S'word: cookie, index: 12'
p109
aatp110
Rp111
(dp112
g12
Vprep
p113
sbatp114
Rp115
(dp116
g12
S'word: reaches, index: 10'
p117
sbatp118
Rp119
(dp120
g12
Vadvcl
p121
sbag0
(g1
g2
(lp122
g0
(g1
g2
(lp123
g0
(g1
g2
(lp124
(lp125
S"word: 's, index: 3"
p126
aatp127
Rp128
(dp129
g12
Vpossessive
p130
sbag0
(g1
g2
(lp131
(lp132
S'word: The, index: 1'
p133
aatp134
Rp135
(dp136
g12
Vdet
p137
sbatp138
Rp139
(dp140
g12
S'word: boy, index: 2'
p141
sbatp142
Rp143
(dp144
g12
Vnsubj
p145
sbatp146
Rp147
(dp148
g12
S'word: falling, index: 4'
p149
sbatp150
Rp151
(dp152
g12
Vvmod
p153
sbag0
(g1
g2
(lp154
g0
(g1
g2
(lp155
g0
(g1
g2
(lp156
(lp157
S'word: the, index: 14'
p158
aatp159
Rp160
(dp161
g12
Vdet
p162
sbatp163
Rp164
(dp165
g12
S'word: girl, index: 15'
p166
sbatp167
Rp168
(dp169
g12
Vnsubj
p170
sbag0
(g1
g2
(lp171
(lp172
S'word: is, index: 16'
p173
aatp174
Rp175
(dp176
g12
Vaux
p177
sbatp178
Rp179
(dp180
g12
S'word: laughing, index: 17'
p181
sbatp182
Rp183
(dp184
g12
S'id: 1'
p185
sbag0
(g1
g2
(lp186
g0
(g1
g2
(lp187
g0
(g1
g2
(lp188
(lp189
S'word: there, index: 8'
p190
aatp191
Rp192
(dp193
g12
Vexpl
p194
sbag0
(g1
g2
(lp195
g0
(g1
g2
(lp196
g0
(g1
g2
(lp197
g0
(g1
g2
(lp198
g0
(g1
g2
(lp199
(lp200
S'word: the, index: 12'
p201
aatp202
Rp203
(dp204
g12
Vdet
p205
sbatp206
Rp207
(dp208
g12
S'word: counter, index: 13'
p209
sbatp210
Rp211
(dp212
g12
Vprep
p213
sbatp214
Rp215
(dp216
g12
S'word: dishes, index: 10'
p217
sbatp218
Rp219
(dp220
g12
Vnsubj
p221
sbag0
(g1
g2
(lp222
g0
(g1
g2
(lp223
g0
(g1
g2
(lp224
g0
(g1
g2
(lp225
g0
(g1
g2
(lp226
(lp227
S'word: like, index: 2'
p228
aatp229
Rp230
(dp231
g12
Vmark
p232
sbag0
(g1
g2
(lp233
g0
(g1
g2
(lp234
g0
(g1
g2
(lp235
(lp236
S'word: the, index: 3'
p237
aatp238
Rp239
(dp240
g12
Vdet
p241
sbatp242
Rp243
(dp244
g12
S'word: window, index: 4'
p245
sbatp246
Rp247
(dp248
g12
Vnsubj
p249
sbag0
(g1
g2
(lp250
(lp251
S'word: is, index: 5'
p252
aatp253
Rp254
(dp255
g12
Vcop
p256
sbatp257
Rp258
(dp259
g12
S'word: open, index: 6'
p260
sbatp261
Rp262
(dp263
g12
Vadvcl
p264
sbatp265
Rp266
(dp267
g12
S'word: Looks, index: 1'
p268
sbatp269
Rp270
(dp271
g12
Vccomp
p272
sbatp273
Rp274
(dp275
g12
S"word: 's, index: 9"
p276
sbatp277
Rp278
(dp279
g12
S'id: 2'
p280
sbag0
(g1
g2
(lp281
g0
(g1
g2
(lp282
g0
(g1
g2
(lp283
(lp284
S'word: The, index: 1'
p285
aatp286
Rp287
(dp288
g12
Vdet
p289
sbag0
(g1
g2
(lp290
(lp291
S"word: 's, index: 3"
p292
aatp293
Rp294
(dp295
g12
Vpossessive
p296
sbag0
(g1
g2
(lp297
g0
(g1
g2
(lp298
g0
(g1
g2
(lp299
g0
(g1
g2
(lp300
g0
(g1
g2
(lp301
(lp302
S'word: a, index: 5'
p303
aatp304
Rp305
(dp306
g12
Vdet
p307
sbatp308
Rp309
(dp310
g12
S'word: plate, index: 6'
p311
sbatp312
Rp313
(dp314
g12
Vdobj
p315
sbatp316
Rp317
(dp318
g12
S'word: hopeing, index: 4'
p319
sbatp320
Rp321
(dp322
g12
Vvmod
p323
sbatp324
Rp325
(dp326
g12
S'word: woman, index: 2'
p327
sbatp328
Rp329
(dp330
g12
S'id: 3'
p331
sbag0
(g1
g2
(lp332
g0
(g1
g2
(lp333
g0
(g1
g2
(lp334
(lp335
S'word: She, index: 1'
p336
aatp337
Rp338
(dp339
g12
Vnsubj
p340
sbag0
(g1
g2
(lp341
(lp342
S"word: 's, index: 2"
p343
aatp344
Rp345
(dp346
g12
Vaux
p347
sbag0
(g1
g2
(lp348
g0
(g1
g2
(lp349
g0
(g1
g2
(lp350
(lp351
S'word: a, index: 4'
p352
aatp353
Rp354
(dp355
g12
Vdet
p356
sbatp357
Rp358
(dp359
g12
S'word: dress, index: 5'
p360
sbatp361
Rp362
(dp363
g12
Vdobj
p364
sbag0
(g1
g2
(lp365
g0
(g1
g2
(lp366
g0
(g1
g2
(lp367
(lp368
S'word: an, index: 7'
p369
aatp370
Rp371
(dp372
g12
Vdet
p373
sbatp374
Rp375
(dp376
g12
S'word: apron, index: 8'
p377
sbatp378
Rp379
(dp380
g12
Vprep
p381
sbatp382
Rp383
(dp384
g12
S'word: wearing, index: 3'
p385
sbatp386
Rp387
(dp388
g12
S'id: 4'
p389
sbag0
(g1
g2
(lp390
g0
(g1
g2
(lp391
g0
(g1
g2
(lp392
(lp393
S'word: There, index: 1'
p394
aatp395
Rp396
(dp397
g12
Vexpl
p398
sbag0
(g1
g2
(lp399
g0
(g1
g2
(lp400
g0
(g1
g2
(lp401
g0
(g1
g2
(lp402
g0
(g1
g2
(lp403
(lp404
S'word: the, index: 5'
p405
aatp406
Rp407
(dp408
g12
Vdet
p409
sbatp410
Rp411
(dp412
g12
S'word: floor, index: 6'
p413
sbatp414
Rp415
(dp416
g12
Vprep
p417
sbatp418
Rp419
(dp420
g12
S'word: water, index: 3'
p421
sbatp422
Rp423
(dp424
g12
Vnsubj
p425
sbatp426
Rp427
(dp428
g12
S"word: 's, index: 2"
p429
sbatp430
Rp431
(dp432
g12
S'id: 5'
p433
sbag0
(g1
g2
(lp434
g0
(g1
g2
(lp435
g0
(g1
g2
(lp436
(lp437
S'word: cabinets, index: 3'
p438
aatp439
Rp440
(dp441
g12
Vnsubj
p442
sbag0
(g1
g2
(lp443
(lp444
S'word: There, index: 1'
p445
aatp446
Rp447
(dp448
g12
Vexpl
p449
sbatp450
Rp451
(dp452
g12
S"word: 's, index: 2"
p453
sbatp454
Rp455
(dp456
g12
S'id: 6'
p457
sbag0
(g1
g2
(lp458
g0
(g1
g2
(lp459
g0
(g1
g2
(lp460
g0
(g1
g2
(lp461
g0
(g1
g2
(lp462
g0
(g1
g2
(lp463
g0
(g1
g2
(lp464
(lp465
S'word: a, index: 3'
p466
aatp467
Rp468
(dp469
g12
Vdet
p470
sbatp471
Rp472
(dp473
g12
S'word: door, index: 4'
p474
sbatp475
Rp476
(dp477
g12
Vnpadvmod
p478
sbatp479
Rp480
(dp481
g12
S'word: open, index: 5'
p482
sbatp483
Rp484
(dp485
g12
Vacomp
p486
sbag0
(g1
g2
(lp487
(lp488
S'word: There, index: 1'
p489
aatp490
Rp491
(dp492
g12
Vexpl
p493
sbatp494
Rp495
(dp496
g12
S"word: 's, index: 2"
p497
sbatp498
Rp499
(dp500
g12
S'id: 7'
p501
sbag0
(g1
g2
(lp502
g0
(g1
g2
(lp503
g0
(g1
g2
(lp504
(lp505
S'word: There, index: 1'
p506
aatp507
Rp508
(dp509
g12
Vexpl
p510
sbag0
(g1
g2
(lp511
g0
(g1
g2
(lp512
g0
(g1
g2
(lp513
g0
(g1
g2
(lp514
g0
(g1
g2
(lp515
(lp516
S'word: the, index: 5'
p517
aatp518
Rp519
(dp520
g12
Vdet
p521
sbatp522
Rp523
(dp524
g12
S'word: window, index: 6'
p525
sbatp526
Rp527
(dp528
g12
Vprep
p529
sbatp530
Rp531
(dp532
g12
S'word: curtains, index: 3'
p533
sbatp534
Rp535
(dp536
g12
Vnsubj
p537
sbatp538
Rp539
(dp540
g12
S"word: 's, index: 2"
p541
sbatp542
Rp543
(dp544
g12
S'id: 8'
p545
sbag0
(g1
g2
(lp546
g0
(g1
g2
(lp547
g0
(g1
g2
(lp548
(lp549
S'word: She, index: 1'
p550
aatp551
Rp552
(dp553
g12
Vnsubj
p554
sbag0
(g1
g2
(lp555
(lp556
S"word: 's, index: 2"
p557
aatp558
Rp559
(dp560
g12
Vaux
p561
sbag0
(g1
g2
(lp562
g0
(g1
g2
(lp563
g0
(g1
g2
(lp564
(lp565
S'word: a, index: 4'
p566
aatp567
Rp568
(dp569
g12
Vdet
p570
sbatp571
Rp572
(dp573
g12
S'word: rag, index: 5'
p574
sbatp575
Rp576
(dp577
g12
Vdobj
p578
sbatp579
Rp580
(dp581
g12
S'word: holding, index: 3'
p582
sbatp583
Rp584
(dp585
g12
S'id: 9'
p586
sbag0
(g1
g2
(lp587
g0
(g1
g2
(lp588
g0
(g1
g2
(lp589
(lp590
S'word: not, index: 15'
p591
aatp592
Rp593
(dp594
g12
Vadvcl
p595
sbag0
(g1
g2
(lp596
g0
(g1
g2
(lp597
g0
(g1
g2
(lp598
(lp599
S'word: There, index: 1'
p600
aatp601
Rp602
(dp603
g12
Vexpl
p604
sbag0
(g1
g2
(lp605
g0
(g1
g2
(lp606
g0
(g1
g2
(lp607
(lp608
S'word: a, index: 3'
p609
aatp610
Rp611
(dp612
g12
Vdet
p613
sbatp614
Rp615
(dp616
g12
S'word: house, index: 4'
p617
sbatp618
Rp619
(dp620
g12
Vnsubj
p621
sbatp622
Rp623
(dp624
g12
S"word: 's, index: 2"
p625
sbatp626
Rp627
(dp628
g12
Vccomp
p629
sbag0
(g1
g2
(lp630
(lp631
S'word: I, index: 6'
p632
aatp633
Rp634
(dp635
g12
Vnsubj
p636
sbag0
(g1
g2
(lp637
(lp638
S'word: do, index: 7'
p639
aatp640
Rp641
(dp642
g12
Vaux
p643
sbag0
(g1
g2
(lp644
(lp645
S"word: n't, index: 8"
p646
aatp647
Rp648
(dp649
g12
Vneg
p650
sbag0
(g1
g2
(lp651
g0
(g1
g2
(lp652
g0
(g1
g2
(lp653
(lp654
S'word: not, index: 15'
p655
aatp656
Rp657
(dp658
g12
Vconj
p659
sbag0
(g1
g2
(lp660
(lp661
S'word: if, index: 10'
p662
aatp663
Rp664
(dp665
g12
Vmark
p666
sbag0
(g1
g2
(lp667
(lp668
S'word: it, index: 11'
p669
aatp670
Rp671
(dp672
g12
Vnsubj
p673
sbag0
(g1
g2
(lp674
(lp675
S"word: 's, index: 12"
p676
aatp677
Rp678
(dp679
g12
Vcop
p680
sbatp681
Rp682
(dp683
g12
S'word: hers, index: 13'
p684
sbatp685
Rp686
(dp687
g12
Vadvcl
p688
sbatp689
Rp690
(dp691
g12
S'word: know, index: 9'
p692
sbatp693
Rp694
(dp695
g12
S'id: 10'
p696
sbag0
(g1
g2
(lp697
g0
(g1
g2
(lp698
g0
(g1
g2
(lp699
g0
(g1
g2
(lp700
g0
(g1
g2
(lp701
(lp702
S'word: grass, index: 5'
p703
aatp704
Rp705
(dp706
g12
Vappos
p707
sbatp708
Rp709
(dp710
g12
S'word: trees, index: 3'
p711
sbatp712
Rp713
(dp714
g12
Vappos
p715
sbatp716
Rp717
(dp718
g12
S'word: Bushes, index: 1'
p719
sbatp720
Rp721
(dp722
g12
S'id: 11'
p723
sbag0
(g1
g2
(lp724
g0
(g1
g2
(lp725
g0
(g1
g2
(lp726
g0
(g1
g2
(lp727
g0
(g1
g2
(lp728
g0
(g1
g2
(lp729
g0
(g1
g2
(lp730
(lp731
S'word: two, index: 6'
p732
aatp733
Rp734
(dp735
g12
Vnum
p736
sbatp737
Rp738
(dp739
g12
S'word: cups, index: 7'
p740
sbatp741
Rp742
(dp743
g12
Vappos
p744
sbag0
(g1
g2
(lp745
(lp746
S'word: a, index: 3'
p747
aatp748
Rp749
(dp750
g12
Vdet
p751
sbatp752
Rp753
(dp754
g12
S'word: plate, index: 4'
p755
sbatp756
Rp757
(dp758
g12
Vnsubj
p759
sbag0
(g1
g2
(lp760
(lp761
S'word: There, index: 1'
p762
aatp763
Rp764
(dp765
g12
Vexpl
p766
sbatp767
Rp768
(dp769
g12
S"word: 's, index: 2"
p770
sbatp771
Rp772
(dp773
g12
S'id: 12'
p774
sbag0
(g1
g2
(lp775
g0
(g1
g2
(lp776
g0
(g1
g2
(lp777
(lp778
S'word: And, index: 1'
p779
aatp780
Rp781
(dp782
g12
Vcc
p783
sbag0
(g1
g2
(lp784
(lp785
S'word: boy, index: 2'
p786
aatp787
Rp788
(dp789
g12
Vadvmod
p790
sbag0
(g1
g2
(lp791
(lp792
S"word: 's, index: 3"
p793
aatp794
Rp795
(dp796
g12
Vnsubj
p797
sbag0
(g1
g2
(lp798
(lp799
S'word: shorts, index: 5'
p800
aatp801
Rp802
(dp803
g12
Vdobj
p804
sbatp805
Rp806
(dp807
g12
S'word: wearing, index: 4'
p808
sbatp809
Rp810
(dp811
g12
S'id: 13'
p812
sbag0
(g1
g2
(lp813
tp814
Rp815
(dp816
g12
S'id: 14'
p817
sbag0
(g1
g2
(lp818
g0
(g1
g2
(lp819
g0
(g1
g2
(lp820
g0
(g1
g2
(lp821
g0
(g1
g2
(lp822
(lp823
S"word: 's, index: 2"
p824
aatp825
Rp826
(dp827
g12
Vpossessive
p828
sbatp829
Rp830
(dp831
g12
S'word: Girl, index: 1'
p832
sbatp833
Rp834
(dp835
g12
Vnsubj
p836
sbag0
(g1
g2
(lp837
g0
(g1
g2
(lp838
g0
(g1
g2
(lp839
(lp840
S'word: a, index: 4'
p841
aatp842
Rp843
(dp844
g12
Vdet
p845
sbag0
(g1
g2
(lp846
(lp847
S'word: shoes, index: 7'
p848
aatp849
Rp850
(dp851
g12
Vconj
p852
sbatp853
Rp854
(dp855
g12
S'word: dress, index: 5'
p856
sbatp857
Rp858
(dp859
g12
Vdobj
p860
sbag0
(g1
g2
(lp861
(lp862
S'word: shoes, index: 7'
p863
aatp864
Rp865
(dp866
g12
Vdobj
p867
sbatp868
Rp869
(dp870
g12
S'word: wearing, index: 3'
p871
sbatp872
Rp873
(dp874
g12
S'id: 15'
p875
sbatp876
Rp877
(dp878
g12
S'sentences'
p879
sb.