ccopy_reg
_reconstructor
p0
(cnltk.tree
Tree
p1
c__builtin__
list
p2
(lp3
g0
(g1
g2
(lp4
g0
(g1
g2
(lp5
g0
(g1
g2
(lp6
Vthe sink
p7
atp8
Rp9
(dp10
S'_label'
p11
S'start: 1'
p12
sbatp13
Rp14
(dp15
g11
S'sent: 1'
p16
sbag0
(g1
g2
(lp17
g0
(g1
g2
(lp18
Vthe sink
p19
atp20
Rp21
(dp22
g11
S'start: 10'
p23
sbatp24
Rp25
(dp26
g11
S'sent: 12'
p27
sbag0
(g1
g2
(lp28
g0
(g1
g2
(lp29
Vthe sink
p30
atp31
Rp32
(dp33
g11
S'start: 18'
p34
sbatp35
Rp36
(dp37
g11
S'sent: 16'
p38
sbatp39
Rp40
(dp41
g11
S'id: 1'
p42
sbag0
(g1
g2
(lp43
g0
(g1
g2
(lp44
g0
(g1
g2
(lp45
VThe woman
p46
atp47
Rp48
(dp49
g11
S'start: 1'
p50
sbatp51
Rp52
(dp53
g11
S'sent: 2'
p54
sbag0
(g1
g2
(lp55
g0
(g1
g2
(lp56
VThe woman
p57
atp58
Rp59
(dp60
g11
S'start: 1'
p61
sbatp62
Rp63
(dp64
g11
S'sent: 7'
p65
sbatp66
Rp67
(dp68
g11
S'id: 2'
p69
sbag0
(g1
g2
(lp70
g0
(g1
g2
(lp71
g0
(g1
g2
(lp72
Vthe window
p73
atp74
Rp75
(dp76
g11
S'start: 6'
p77
sbatp78
Rp79
(dp80
g11
S'sent: 2'
p81
sbag0
(g1
g2
(lp82
g0
(g1
g2
(lp83
Vthe window
p84
atp85
Rp86
(dp87
g11
S'start: 4'
p88
sbatp89
Rp90
(dp91
g11
S'sent: 6'
p92
sbatp93
Rp94
(dp95
g11
S'id: 3'
p96
sbag0
(g1
g2
(lp97
g0
(g1
g2
(lp98
g0
(g1
g2
(lp99
VThe boy
p100
atp101
Rp102
(dp103
g11
S'start: 1'
p104
sbatp105
Rp106
(dp107
g11
S'sent: 3'
p108
sbag0
(g1
g2
(lp109
g0
(g1
g2
(lp110
Vhe
p111
atp112
Rp113
(dp114
g11
S'start: 12'
p115
sbatp116
Rp117
(dp118
g11
S'sent: 3'
p119
sbag0
(g1
g2
(lp120
g0
(g1
g2
(lp121
Vhe
p122
atp123
Rp124
(dp125
g11
S'start: 19'
p126
sbatp127
Rp128
(dp129
g11
S'sent: 3'
p130
sbag0
(g1
g2
(lp131
g0
(g1
g2
(lp132
Vhis
p133
atp134
Rp135
(dp136
g11
S'start: 22'
p137
sbatp138
Rp139
(dp140
g11
S'sent: 3'
p141
sbag0
(g1
g2
(lp142
g0
(g1
g2
(lp143
VThe boy
p144
atp145
Rp146
(dp147
g11
S'start: 1'
p148
sbatp149
Rp150
(dp151
g11
S'sent: 9'
p152
sbatp153
Rp154
(dp155
g11
S'id: 5'
p156
sbag0
(g1
g2
(lp157
g0
(g1
g2
(lp158
g0
(g1
g2
(lp159
Va kiki
p160
atp161
Rp162
(dp163
g11
S'start: 5'
p164
sbatp165
Rp166
(dp167
g11
S'sent: 3'
p168
sbag0
(g1
g2
(lp169
g0
(g1
g2
(lp170
VThe kiki
p171
atp172
Rp173
(dp174
g11
S'start: 1'
p175
sbatp176
Rp177
(dp178
g11
S'sent: 13'
p179
sbatp180
Rp181
(dp182
g11
S'id: 6'
p183
sbag0
(g1
g2
(lp184
g0
(g1
g2
(lp185
g0
(g1
g2
(lp186
VThe girl
p187
atp188
Rp189
(dp190
g11
S'start: 1'
p191
sbatp192
Rp193
(dp194
g11
S'sent: 8'
p195
sbag0
(g1
g2
(lp196
g0
(g1
g2
(lp197
VThe girl
p198
atp199
Rp200
(dp201
g11
S'start: 1'
p202
sbatp203
Rp204
(dp205
g11
S'sent: 10'
p206
sbatp207
Rp208
(dp209
g11
S'id: 22'
p210
sbag0
(g1
g2
(lp211
g0
(g1
g2
(lp212
g0
(g1
g2
(lp213
Va brow
p214
atp215
Rp216
(dp217
g11
S'start: 6'
p218
sbatp219
Rp220
(dp221
g11
S'sent: 10'
p222
sbag0
(g1
g2
(lp223
g0
(g1
g2
(lp224
Va blouse with skirt
p225
atp226
Rp227
(dp228
g11
S'start: 9'
p229
sbatp230
Rp231
(dp232
g11
S'sent: 10'
p233
sbatp234
Rp235
(dp236
g11
S'id: 30'
p237
sbag0
(g1
g2
(lp238
g0
(g1
g2
(lp239
g0
(g1
g2
(lp240
VThe
p241
atp242
Rp243
(dp244
g11
S'start: 1'
p245
sbatp246
Rp247
(dp248
g11
S'sent: 15'
p249
sbag0
(g1
g2
(lp250
g0
(g1
g2
(lp251
VThe
p252
atp253
Rp254
(dp255
g11
S'start: 1'
p256
sbatp257
Rp258
(dp259
g11
S'sent: 16'
p260
sbag0
(g1
g2
(lp261
g0
(g1
g2
(lp262
Vthe
p263
atp264
Rp265
(dp266
g11
S'start: 15'
p267
sbatp268
Rp269
(dp270
g11
S'sent: 16'
p271
sbatp272
Rp273
(dp274
g11
S'id: 46'
p275
sbatp276
Rp277
(dp278
g11
S'coreferences'
p279
sb.