ccopy_reg
_reconstructor
p0
(cnltk.tree
Tree
p1
c__builtin__
list
p2
(lp3
g0
(g1
g2
(lp4
tp5
Rp6
(dp7
S'_label'
p8
S'id: 0'
p9
sbag0
(g1
g2
(lp10
g0
(g1
g2
(lp11
g0
(g1
g2
(lp12
g0
(g1
g2
(lp13
g0
(g1
g2
(lp14
g0
(g1
g2
(lp15
g0
(g1
g2
(lp16
(lp17
S'word: two, index: 5'
p18
aatp19
Rp20
(dp21
g8
Vnum
p22
sbatp23
Rp24
(dp25
g8
S'word: people, index: 6'
p26
sbatp27
Rp28
(dp29
g8
Vappos
p30
sbatp31
Rp32
(dp33
g8
S'word: two, index: 3'
p34
sbatp35
Rp36
(dp37
g8
Vappos
p38
sbatp39
Rp40
(dp41
g8
S'word: Two, index: 1'
p42
sbatp43
Rp44
(dp45
g8
S'id: 1'
p46
sbag0
(g1
g2
(lp47
g0
(g1
g2
(lp48
g0
(g1
g2
(lp49
(lp50
S'word: One, index: 1'
p51
aatp52
Rp53
(dp54
g8
Vnsubj
p55
sbag0
(g1
g2
(lp56
(lp57
S'word: is, index: 2'
p58
aatp59
Rp60
(dp61
g8
Vaux
p62
sbatp63
Rp64
(dp65
g8
S'word: sitting, index: 3'
p66
sbatp67
Rp68
(dp69
g8
S'id: 2'
p70
sbag0
(g1
g2
(lp71
g0
(g1
g2
(lp72
g0
(g1
g2
(lp73
(lp74
S'word: One, index: 1'
p75
aatp76
Rp77
(dp78
g8
Vnum
p79
sbag0
(g1
g2
(lp80
(lp81
S'word: drinking, index: 3'
p82
aatp83
Rp84
(dp85
g8
Vdep
p86
sbatp87
Rp88
(dp89
g8
S'word: lady, index: 2'
p90
sbatp91
Rp92
(dp93
g8
S'id: 3'
p94
sbag0
(g1
g2
(lp95
g0
(g1
g2
(lp96
g0
(g1
g2
(lp97
g0
(g1
g2
(lp98
g0
(g1
g2
(lp99
(lp100
S'word: digs, index: 2'
p101
aatp102
Rp103
(dp104
g8
Vnsubj
p105
sbatp106
Rp107
(dp108
g8
S'word: basket, index: 3'
p109
sbatp110
Rp111
(dp112
g8
Vxcomp
p113
sbatp114
Rp115
(dp116
g8
S'word: Picked, index: 1'
p117
sbatp118
Rp119
(dp120
g8
S'id: 4'
p121
sbag0
(g1
g2
(lp122
g0
(g1
g2
(lp123
g0
(g1
g2
(lp124
(lp125
S'word: Clothe, index: 1'
p126
aatp127
Rp128
(dp129
g8
Vnsubj
p130
sbatp131
Rp132
(dp133
g8
S'word: clothe, index: 3'
p134
sbatp135
Rp136
(dp137
g8
S'id: 5'
p138
sbag0
(g1
g2
(lp139
g0
(g1
g2
(lp140
g0
(g1
g2
(lp141
g0
(g1
g2
(lp142
g0
(g1
g2
(lp143
(lp144
S'word: no, index: 3'
p145
aatp146
Rp147
(dp148
g8
Vneg
p149
sbatp150
Rp151
(dp152
g8
S'word: stereo, index: 4'
p153
sbatp154
Rp155
(dp156
g8
Vappos
p157
sbatp158
Rp159
(dp160
g8
S'word: TV, index: 1'
p161
sbatp162
Rp163
(dp164
g8
S'id: 6'
p165
sbag0
(g1
g2
(lp166
g0
(g1
g2
(lp167
g0
(g1
g2
(lp168
(lp169
S'word: is, index: 7'
p170
aatp171
Rp172
(dp173
g8
Vcop
p174
sbag0
(g1
g2
(lp175
g0
(g1
g2
(lp176
g0
(g1
g2
(lp177
g0
(g1
g2
(lp178
g0
(g1
g2
(lp179
(lp180
S'word: one, index: 5'
p181
aatp182
Rp183
(dp184
g8
Vnum
p185
sbatp186
Rp187
(dp188
g8
S'word: man, index: 6'
p189
sbatp190
Rp191
(dp192
g8
Vappos
p193
sbag0
(g1
g2
(lp194
(lp195
S'word: One, index: 1'
p196
aatp197
Rp198
(dp199
g8
Vnum
p200
sbag0
(g1
g2
(lp201
(lp202
S'word: man, index: 2'
p203
aatp204
Rp205
(dp206
g8
Vnn
p207
sbatp208
Rp209
(dp210
g8
S'word: book, index: 3'
p211
sbatp212
Rp213
(dp214
g8
Vnsubj
p215
sbatp216
Rp217
(dp218
g8
S'word: glasses, index: 8'
p219
sbatp220
Rp221
(dp222
g8
S'id: 7'
p223
sbag0
(g1
g2
(lp224
g0
(g1
g2
(lp225
g0
(g1
g2
(lp226
(lp227
S'word: Book, index: 1'
p228
aatp229
Rp230
(dp231
g8
Vnsubj
p232
sbatp233
Rp234
(dp235
g8
S'word: is, index: 2'
p236
sbatp237
Rp238
(dp239
g8
S'id: 8'
p240
sbag0
(g1
g2
(lp241
g0
(g1
g2
(lp242
g0
(g1
g2
(lp243
(lp244
S'word: Big, index: 1'
p245
aatp246
Rp247
(dp248
g8
Vamod
p249
sbag0
(g1
g2
(lp250
(lp251
S'word: house, index: 3'
p252
aatp253
Rp254
(dp255
g8
Vdep
p256
sbatp257
Rp258
(dp259
g8
S'word: tree, index: 2'
p260
sbatp261
Rp262
(dp263
g8
S'id: 9'
p264
sbag0
(g1
g2
(lp265
g0
(g1
g2
(lp266
g0
(g1
g2
(lp267
(lp268
S'word: Four, index: 1'
p269
aatp270
Rp271
(dp272
g8
Vnum
p273
sbatp274
Rp275
(dp276
g8
S'word: panes, index: 2'
p277
sbatp278
Rp279
(dp280
g8
S'id: 10'
p281
sbag0
(g1
g2
(lp282
g0
(g1
g2
(lp283
g0
(g1
g2
(lp284
(lp285
S'word: Door, index: 1'
p286
aatp287
Rp288
(dp289
g8
Vdep
p290
sbag0
(g1
g2
(lp291
(lp292
S'word: trees, index: 5'
p293
aatp294
Rp295
(dp296
g8
Vappos
p297
sbag0
(g1
g2
(lp298
(lp299
S'word: grass, index: 7'
p300
aatp301
Rp302
(dp303
g8
Vappos
p304
sbag0
(g1
g2
(lp305
(lp306
S'word: driveway, index: 9'
p307
aatp308
Rp309
(dp310
g8
Vappos
p311
sbatp312
Rp313
(dp314
g8
S'word: grass, index: 3'
p315
sbatp316
Rp317
(dp318
g8
S'id: 11'
p319
sbag0
(g1
g2
(lp320
g0
(g1
g2
(lp321
g0
(g1
g2
(lp322
g0
(g1
g2
(lp323
g0
(g1
g2
(lp324
g0
(g1
g2
(lp325
g0
(g1
g2
(lp326
(lp327
S'word: one, index: 4'
p328
aatp329
Rp330
(dp331
g8
Vnum
p332
sbatp333
Rp334
(dp335
g8
S'word: car, index: 5'
p336
sbatp337
Rp338
(dp339
g8
Vappos
p340
sbatp341
Rp342
(dp343
g8
S'word: a, index: 2'
p344
sbatp345
Rp346
(dp347
g8
Vdep
p348
sbatp349
Rp350
(dp351
g8
S'word: One, index: 1'
p352
sbatp353
Rp354
(dp355
g8
S'id: 12'
p356
sbag0
(g1
g2
(lp357
g0
(g1
g2
(lp358
g0
(g1
g2
(lp359
(lp360
S'word: kid, index: 2'
p361
aatp362
Rp363
(dp364
g8
Vdep
p365
sbatp366
Rp367
(dp368
g8
S'word: One, index: 1'
p369
sbatp370
Rp371
(dp372
g8
S'id: 13'
p373
sbag0
(g1
g2
(lp374
g0
(g1
g2
(lp375
g0
(g1
g2
(lp376
g0
(g1
g2
(lp377
g0
(g1
g2
(lp378
(lp379
S'word: kite, index: 5'
p380
aatp381
Rp382
(dp383
g8
Vappos
p384
sbatp385
Rp386
(dp387
g8
S'word: kite, index: 3'
p388
sbatp389
Rp390
(dp391
g8
Vappos
p392
sbatp393
Rp394
(dp395
g8
S'word: Kite, index: 1'
p396
sbatp397
Rp398
(dp399
g8
S'id: 14'
p400
sbag0
(g1
g2
(lp401
g0
(g1
g2
(lp402
g0
(g1
g2
(lp403
(lp404
S'word: sailboat, index: 2'
p405
aatp406
Rp407
(dp408
g8
Vdep
p409
sbatp410
Rp411
(dp412
g8
S'word: One, index: 1'
p413
sbatp414
Rp415
(dp416
g8
S'id: 15'
p417
sbag0
(g1
g2
(lp418
g0
(g1
g2
(lp419
g0
(g1
g2
(lp420
(lp421
S'word: Two, index: 1'
p422
aatp423
Rp424
(dp425
g8
Vnum
p426
sbag0
(g1
g2
(lp427
g0
(g1
g2
(lp428
g0
(g1
g2
(lp429
(lp430
S'word: alone, index: 4'
p431
aatp432
Rp433
(dp434
g8
Vadvmod
p435
sbatp436
Rp437
(dp438
g8
S'word: sailing, index: 3'
p439
sbatp440
Rp441
(dp442
g8
Vdep
p443
sbatp444
Rp445
(dp446
g8
S'word: people, index: 2'
p447
sbatp448
Rp449
(dp450
g8
S'id: 16'
p451
sbag0
(g1
g2
(lp452
g0
(g1
g2
(lp453
g0
(g1
g2
(lp454
g0
(g1
g2
(lp455
g0
(g1
g2
(lp456
(lp457
S'word: a, index: 4'
p458
aatp459
Rp460
(dp461
g8
Vdet
p462
sbag0
(g1
g2
(lp463
(lp464
S'word: one, index: 5'
p465
aatp466
Rp467
(dp468
g8
Vnum
p469
sbag0
(g1
g2
(lp470
g0
(g1
g2
(lp471
g0
(g1
g2
(lp472
(lp473
S'word: fis, index: 8'
p474
aatp475
Rp476
(dp477
g8
Vdobj
p478
sbatp479
Rp480
(dp481
g8
S'word: catching, index: 7'
p482
sbatp483
Rp484
(dp485
g8
Vvmod
p486
sbatp487
Rp488
(dp489
g8
S'word: fis, index: 6'
p490
sbatp491
Rp492
(dp493
g8
Vappos
p494
sbag0
(g1
g2
(lp495
(lp496
S'word: One, index: 1'
p497
aatp498
Rp499
(dp500
g8
Vnum
p501
sbatp502
Rp503
(dp504
g8
S'word: fis, index: 2'
p505
sbatp506
Rp507
(dp508
g8
S'id: 17'
p509
sbag0
(g1
g2
(lp510
g0
(g1
g2
(lp511
g0
(g1
g2
(lp512
g0
(g1
g2
(lp513
g0
(g1
g2
(lp514
(lp515
S'word: One, index: 1'
p516
aatp517
Rp518
(dp519
g8
Vnum
p520
sbatp521
Rp522
(dp523
g8
S'word: man, index: 2'
p524
sbatp525
Rp526
(dp527
g8
Vnsubj
p528
sbag0
(g1
g2
(lp529
(lp530
S'word: fis, index: 5'
p531
aatp532
Rp533
(dp534
g8
Vprep
p535
sbatp536
Rp537
(dp538
g8
S'word: cast, index: 3'
p539
sbatp540
Rp541
(dp542
g8
S'id: 18'
p543
sbatp544
Rp545
(dp546
g8
S'sentences'
p547
sb.