ccopy_reg
_reconstructor
p0
(cnltk.tree
Tree
p1
c__builtin__
list
p2
(lp3
g0
(g1
g2
(lp4
g0
(g1
g2
(lp5
g0
(g1
g2
(lp6
Vthe lake
p7
atp8
Rp9
(dp10
S'_label'
p11
S'start: 5'
p12
sbatp13
Rp14
(dp15
g11
S'sent: 1'
p16
sbag0
(g1
g2
(lp17
g0
(g1
g2
(lp18
Vthe lake
p19
atp20
Rp21
(dp22
g11
S'start: 9'
p23
sbatp24
Rp25
(dp26
g11
S'sent: 7'
p27
sbag0
(g1
g2
(lp28
g0
(g1
g2
(lp29
Vthe lake
p30
atp31
Rp32
(dp33
g11
S'start: 5'
p34
sbatp35
Rp36
(dp37
g11
S'sent: 20'
p38
sbatp39
Rp40
(dp41
g11
S'id: 2'
p42
sbag0
(g1
g2
(lp43
g0
(g1
g2
(lp44
g0
(g1
g2
(lp45
VFirst of all
p46
atp47
Rp48
(dp49
g11
S'start: 1'
p50
sbatp51
Rp52
(dp53
g11
S'sent: 2'
p54
sbag0
(g1
g2
(lp55
g0
(g1
g2
(lp56
Vit that way , sitting on a blanket
p57
atp58
Rp59
(dp60
g11
S'start: 21'
p61
sbatp62
Rp63
(dp64
g11
S'sent: 2'
p65
sbag0
(g1
g2
(lp66
g0
(g1
g2
(lp67
Vit that way
p68
atp69
Rp70
(dp71
g11
S'start: 21'
p72
sbatp73
Rp74
(dp75
g11
S'sent: 2'
p76
sbatp77
Rp78
(dp79
g11
S'id: 3'
p80
sbag0
(g1
g2
(lp81
g0
(g1
g2
(lp82
g0
(g1
g2
(lp83
VI
p84
atp85
Rp86
(dp87
g11
S'start: 5'
p88
sbatp89
Rp90
(dp91
g11
S'sent: 2'
p92
sbag0
(g1
g2
(lp93
g0
(g1
g2
(lp94
VI
p95
atp96
Rp97
(dp98
g11
S'start: 18'
p99
sbatp100
Rp101
(dp102
g11
S'sent: 2'
p103
sbag0
(g1
g2
(lp104
g0
(g1
g2
(lp105
VI
p106
atp107
Rp108
(dp109
g11
S'start: 1'
p110
sbatp111
Rp112
(dp113
g11
S'sent: 9'
p114
sbag0
(g1
g2
(lp115
g0
(g1
g2
(lp116
VI
p117
atp118
Rp119
(dp120
g11
S'start: 2'
p121
sbatp122
Rp123
(dp124
g11
S'sent: 21'
p125
sbag0
(g1
g2
(lp126
g0
(g1
g2
(lp127
VI
p128
atp129
Rp130
(dp131
g11
S'start: 2'
p132
sbatp133
Rp134
(dp135
g11
S'sent: 23'
p136
sbag0
(g1
g2
(lp137
g0
(g1
g2
(lp138
VI
p139
atp140
Rp141
(dp142
g11
S'start: 1'
p143
sbatp144
Rp145
(dp146
g11
S'sent: 24'
p147
sbatp148
Rp149
(dp150
g11
S'id: 4'
p151
sbag0
(g1
g2
(lp152
g0
(g1
g2
(lp153
g0
(g1
g2
(lp154
Va husband , or a wife
p155
atp156
Rp157
(dp158
g11
S'start: 7'
p159
sbatp160
Rp161
(dp162
g11
S'sent: 2'
p163
sbag0
(g1
g2
(lp164
g0
(g1
g2
(lp165
Vthey
p166
atp167
Rp168
(dp169
g11
S'start: 5'
p170
sbatp171
Rp172
(dp173
g11
S'sent: 3'
p174
sbag0
(g1
g2
(lp175
g0
(g1
g2
(lp176
Vthem
p177
atp178
Rp179
(dp180
g11
S'start: 3'
p181
sbatp182
Rp183
(dp184
g11
S'sent: 4'
p185
sbatp186
Rp187
(dp188
g11
S'id: 6'
p189
sbag0
(g1
g2
(lp190
g0
(g1
g2
(lp191
g0
(g1
g2
(lp192
Va husband
p193
atp194
Rp195
(dp196
g11
S'start: 7'
p197
sbatp198
Rp199
(dp200
g11
S'sent: 2'
p201
sbag0
(g1
g2
(lp202
g0
(g1
g2
(lp203
Vhe
p204
atp205
Rp206
(dp207
g11
S'start: 20'
p208
sbatp209
Rp210
(dp211
g11
S'sent: 3'
p212
sbatp213
Rp214
(dp215
g11
S'id: 7'
p216
sbag0
(g1
g2
(lp217
g0
(g1
g2
(lp218
g0
(g1
g2
(lp219
Va wife
p220
atp221
Rp222
(dp223
g11
S'start: 11'
p224
sbatp225
Rp226
(dp227
g11
S'sent: 2'
p228
sbag0
(g1
g2
(lp229
g0
(g1
g2
(lp230
Vshe
p231
atp232
Rp233
(dp234
g11
S'start: 2'
p235
sbatp236
Rp237
(dp238
g11
S'sent: 3'
p239
sbag0
(g1
g2
(lp240
g0
(g1
g2
(lp241
Vshe
p242
atp243
Rp244
(dp245
g11
S'start: 12'
p246
sbatp247
Rp248
(dp249
g11
S'sent: 3'
p250
sbatp251
Rp252
(dp253
g11
S'id: 8'
p254
sbag0
(g1
g2
(lp255
g0
(g1
g2
(lp256
g0
(g1
g2
(lp257
Vwine in a bottle
p258
atp259
Rp260
(dp261
g11
S'start: 15'
p262
sbatp263
Rp264
(dp265
g11
S'sent: 3'
p266
sbag0
(g1
g2
(lp267
g0
(g1
g2
(lp268
Vthe wine
p269
atp270
Rp271
(dp272
g11
S'start: 17'
p273
sbatp274
Rp275
(dp276
g11
S'sent: 16'
p277
sbatp278
Rp279
(dp280
g11
S'id: 20'
p281
sbag0
(g1
g2
(lp282
g0
(g1
g2
(lp283
g0
(g1
g2
(lp284
Va little boy flying a kite
p285
atp286
Rp287
(dp288
g11
S'start: 5'
p289
sbatp290
Rp291
(dp292
g11
S'sent: 4'
p293
sbag0
(g1
g2
(lp294
g0
(g1
g2
(lp295
Vhe
p296
atp297
Rp298
(dp299
g11
S'start: 15'
p300
sbatp301
Rp302
(dp303
g11
S'sent: 6'
p304
sbag0
(g1
g2
(lp305
g0
(g1
g2
(lp306
VThe little boy
p307
atp308
Rp309
(dp310
g11
S'start: 1'
p311
sbatp312
Rp313
(dp314
g11
S'sent: 14'
p315
sbag0
(g1
g2
(lp316
g0
(g1
g2
(lp317
Vthe little boy
p318
atp319
Rp320
(dp321
g11
S'start: 8'
p322
sbatp323
Rp324
(dp325
g11
S'sent: 14'
p326
sbatp327
Rp328
(dp329
g11
S'id: 25'
p330
sbag0
(g1
g2
(lp331
g0
(g1
g2
(lp332
g0
(g1
g2
(lp333
Va kite
p334
atp335
Rp336
(dp337
g11
S'start: 9'
p338
sbatp339
Rp340
(dp341
g11
S'sent: 4'
p342
sbag0
(g1
g2
(lp343
g0
(g1
g2
(lp344
Va kite
p345
atp346
Rp347
(dp348
g11
S'start: 19'
p349
sbatp350
Rp351
(dp352
g11
S'sent: 12'
p353
sbatp354
Rp355
(dp356
g11
S'id: 26'
p357
sbag0
(g1
g2
(lp358
g0
(g1
g2
(lp359
g0
(g1
g2
(lp360
Vthe dog
p361
atp362
Rp363
(dp364
g11
S'start: 13'
p365
sbatp366
Rp367
(dp368
g11
S'sent: 4'
p369
sbag0
(g1
g2
(lp370
g0
(g1
g2
(lp371
Vhim
p372
atp373
Rp374
(dp375
g11
S'start: 18'
p376
sbatp377
Rp378
(dp379
g11
S'sent: 4'
p380
sbag0
(g1
g2
(lp381
g0
(g1
g2
(lp382
VThe dog
p383
atp384
Rp385
(dp386
g11
S'start: 1'
p387
sbatp388
Rp389
(dp390
g11
S'sent: 15'
p391
sbag0
(g1
g2
(lp392
g0
(g1
g2
(lp393
Vhis
p394
atp395
Rp396
(dp397
g11
S'start: 4'
p398
sbatp399
Rp400
(dp401
g11
S'sent: 15'
p402
sbag0
(g1
g2
(lp403
g0
(g1
g2
(lp404
Vhe
p405
atp406
Rp407
(dp408
g11
S'start: 12'
p409
sbatp410
Rp411
(dp412
g11
S'sent: 15'
p413
sbatp414
Rp415
(dp416
g11
S'id: 27'
p417
sbag0
(g1
g2
(lp418
g0
(g1
g2
(lp419
g0
(g1
g2
(lp420
Vthe lakeshore
p421
atp422
Rp423
(dp424
g11
S'start: 11'
p425
sbatp426
Rp427
(dp428
g11
S'sent: 5'
p429
sbag0
(g1
g2
(lp430
g0
(g1
g2
(lp431
Vthe lakeshore
p432
atp433
Rp434
(dp435
g11
S'start: 3'
p436
sbatp437
Rp438
(dp439
g11
S'sent: 6'
p440
sbatp441
Rp442
(dp443
g11
S'id: 31'
p444
sbag0
(g1
g2
(lp445
g0
(g1
g2
(lp446
g0
(g1
g2
(lp447
Va little girl making a sandcastle
p448
atp449
Rp450
(dp451
g11
S'start: 16'
p452
sbatp453
Rp454
(dp455
g11
S'sent: 5'
p456
sbag0
(g1
g2
(lp457
g0
(g1
g2
(lp458
Vher
p459
atp460
Rp461
(dp462
g11
S'start: 26'
p463
sbatp464
Rp465
(dp466
g11
S'sent: 5'
p467
sbag0
(g1
g2
(lp468
g0
(g1
g2
(lp469
Vshe
p470
atp471
Rp472
(dp473
g11
S'start: 34'
p474
sbatp475
Rp476
(dp477
g11
S'sent: 5'
p478
sbag0
(g1
g2
(lp479
g0
(g1
g2
(lp480
Vher
p481
atp482
Rp483
(dp484
g11
S'start: 36'
p485
sbatp486
Rp487
(dp488
g11
S'sent: 5'
p489
sbatp490
Rp491
(dp492
g11
S'id: 32'
p493
sbag0
(g1
g2
(lp494
g0
(g1
g2
(lp495
g0
(g1
g2
(lp496
Vnext to her
p497
atp498
Rp499
(dp500
g11
S'start: 24'
p501
sbatp502
Rp503
(dp504
g11
S'sent: 5'
p505
sbag0
(g1
g2
(lp506
g0
(g1
g2
(lp507
Va bucket and a pail which she gets her sand
p508
atp509
Rp510
(dp511
g11
S'start: 28'
p512
sbatp513
Rp514
(dp515
g11
S'sent: 5'
p516
sbag0
(g1
g2
(lp517
g0
(g1
g2
(lp518
Va bucket
p519
atp520
Rp521
(dp522
g11
S'start: 28'
p523
sbatp524
Rp525
(dp526
g11
S'sent: 5'
p527
sbatp528
Rp529
(dp530
g11
S'id: 34'
p531
sbag0
(g1
g2
(lp532
g0
(g1
g2
(lp533
g0
(g1
g2
(lp534
Vtrees
p535
atp536
Rp537
(dp538
g11
S'start: 4'
p539
sbatp540
Rp541
(dp542
g11
S'sent: 8'
p543
sbag0
(g1
g2
(lp544
g0
(g1
g2
(lp545
Vtrees
p546
atp547
Rp548
(dp549
g11
S'start: 4'
p550
sbatp551
Rp552
(dp553
g11
S'sent: 21'
p554
sbatp555
Rp556
(dp557
g11
S'id: 50'
p558
sbag0
(g1
g2
(lp559
g0
(g1
g2
(lp560
g0
(g1
g2
(lp561
Vthis
p562
atp563
Rp564
(dp565
g11
S'start: 3'
p566
sbatp567
Rp568
(dp569
g11
S'sent: 9'
p570
sbag0
(g1
g2
(lp571
g0
(g1
g2
(lp572
Vresort house
p573
atp574
Rp575
(dp576
g11
S'start: 5'
p577
sbatp578
Rp579
(dp580
g11
S'sent: 9'
p581
sbatp582
Rp583
(dp584
g11
S'id: 52'
p585
sbag0
(g1
g2
(lp586
g0
(g1
g2
(lp587
g0
(g1
g2
(lp588
Va car in the driveway
p589
atp590
Rp591
(dp592
g11
S'start: 3'
p593
sbatp594
Rp595
(dp596
g11
S'sent: 10'
p597
sbag0
(g1
g2
(lp598
g0
(g1
g2
(lp599
VIt
p600
atp601
Rp602
(dp603
g11
S'start: 1'
p604
sbatp605
Rp606
(dp607
g11
S'sent: 11'
p608
sbag0
(g1
g2
(lp609
g0
(g1
g2
(lp610
Va single story house
p611
atp612
Rp613
(dp614
g11
S'start: 3'
p615
sbatp616
Rp617
(dp618
g11
S'sent: 11'
p619
sbatp620
Rp621
(dp622
g11
S'id: 54'
p623
sbag0
(g1
g2
(lp624
g0
(g1
g2
(lp625
g0
(g1
g2
(lp626
Vthe driveway
p627
atp628
Rp629
(dp630
g11
S'start: 6'
p631
sbatp632
Rp633
(dp634
g11
S'sent: 10'
p635
sbag0
(g1
g2
(lp636
g0
(g1
g2
(lp637
Vthe driveway
p638
atp639
Rp640
(dp641
g11
S'start: 11'
p642
sbatp643
Rp644
(dp645
g11
S'sent: 12'
p646
sbatp647
Rp648
(dp649
g11
S'id: 55'
p650
sbag0
(g1
g2
(lp651
g0
(g1
g2
(lp652
g0
(g1
g2
(lp653
VEverybody 's happy on the , on the picture , even the lady that 's pouring the wine .
p654
atp655
Rp656
(dp657
g11
S'start: 1'
p658
sbatp659
Rp660
(dp661
g11
S'sent: 16'
p662
sbag0
(g1
g2
(lp663
g0
(g1
g2
(lp664
Vhe
p665
atp666
Rp667
(dp668
g11
S'start: 10'
p669
sbatp670
Rp671
(dp672
g11
S'sent: 17'
p673
sbag0
(g1
g2
(lp674
g0
(g1
g2
(lp675
VHe
p676
atp677
Rp678
(dp679
g11
S'start: 1'
p680
sbatp681
Rp682
(dp683
g11
S'sent: 18'
p684
sbag0
(g1
g2
(lp685
g0
(g1
g2
(lp686
Vhis
p687
atp688
Rp689
(dp690
g11
S'start: 3'
p691
sbatp692
Rp693
(dp694
g11
S'sent: 18'
p695
sbatp696
Rp697
(dp698
g11
S'id: 71'
p699
sbag0
(g1
g2
(lp700
g0
(g1
g2
(lp701
g0
(g1
g2
(lp702
VEverybody 's happy on the , on the picture
p703
atp704
Rp705
(dp706
g11
S'start: 1'
p707
sbatp708
Rp709
(dp710
g11
S'sent: 16'
p711
sbag0
(g1
g2
(lp712
g0
(g1
g2
(lp713
Veven the lady that 's pouring the wine
p714
atp715
Rp716
(dp717
g11
S'start: 11'
p718
sbatp719
Rp720
(dp721
g11
S'sent: 16'
p722
sbag0
(g1
g2
(lp723
g0
(g1
g2
(lp724
VShe
p725
atp726
Rp727
(dp728
g11
S'start: 1'
p729
sbatp730
Rp731
(dp732
g11
S'sent: 17'
p733
sbag0
(g1
g2
(lp734
g0
(g1
g2
(lp735
Vshe
p736
atp737
Rp738
(dp739
g11
S'start: 7'
p740
sbatp741
Rp742
(dp743
g11
S'sent: 18'
p744
sbag0
(g1
g2
(lp745
g0
(g1
g2
(lp746
Vher
p747
atp748
Rp749
(dp750
g11
S'start: 9'
p751
sbatp752
Rp753
(dp754
g11
S'sent: 18'
p755
sbatp756
Rp757
(dp758
g11
S'id: 72'
p759
sbag0
(g1
g2
(lp760
g0
(g1
g2
(lp761
g0
(g1
g2
(lp762
Vhis shoes
p763
atp764
Rp765
(dp766
g11
S'start: 3'
p767
sbatp768
Rp769
(dp770
g11
S'sent: 18'
p771
sbag0
(g1
g2
(lp772
g0
(g1
g2
(lp773
Vher shoes
p774
atp775
Rp776
(dp777
g11
S'start: 9'
p778
sbatp779
Rp780
(dp781
g11
S'sent: 18'
p782
sbatp783
Rp784
(dp785
g11
S'id: 85'
p786
sbag0
(g1
g2
(lp787
g0
(g1
g2
(lp788
g0
(g1
g2
(lp789
Va radio
p790
atp791
Rp792
(dp793
g11
S'start: 3'
p794
sbatp795
Rp796
(dp797
g11
S'sent: 19'
p798
sbag0
(g1
g2
(lp799
g0
(g1
g2
(lp800
V's
p801
atp802
Rp803
(dp804
g11
S'start: 2'
p805
sbatp806
Rp807
(dp808
g11
S'sent: 20'
p809
sbatp810
Rp811
(dp812
g11
S'id: 90'
p813
sbag0
(g1
g2
(lp814
g0
(g1
g2
(lp815
g0
(g1
g2
(lp816
Vthe shore
p817
atp818
Rp819
(dp820
g11
S'start: 8'
p821
sbatp822
Rp823
(dp824
g11
S'sent: 22'
p825
sbag0
(g1
g2
(lp826
g0
(g1
g2
(lp827
Vit
p828
atp829
Rp830
(dp831
g11
S'start: 10'
p832
sbatp833
Rp834
(dp835
g11
S'sent: 23'
p836
sbatp837
Rp838
(dp839
g11
S'id: 99'
p840
sbag0
(g1
g2
(lp841
g0
(g1
g2
(lp842
g0
(g1
g2
(lp843
Vone
p844
atp845
Rp846
(dp847
g11
S'start: 11'
p848
sbatp849
Rp850
(dp851
g11
S'sent: 24'
p852
sbag0
(g1
g2
(lp853
g0
(g1
g2
(lp854
Vthat
p855
atp856
Rp857
(dp858
g11
S'start: 13'
p859
sbatp860
Rp861
(dp862
g11
S'sent: 24'
p863
sbatp864
Rp865
(dp866
g11
S'id: 102'
p867
sbag0
(g1
g2
(lp868
g0
(g1
g2
(lp869
g0
(g1
g2
(lp870
Vone
p871
atp872
Rp873
(dp874
g11
S'start: 15'
p875
sbatp876
Rp877
(dp878
g11
S'sent: 24'
p879
sbag0
(g1
g2
(lp880
g0
(g1
g2
(lp881
Va speck , a bird in the sky
p882
atp883
Rp884
(dp885
g11
S'start: 18'
p886
sbatp887
Rp888
(dp889
g11
S'sent: 24'
p890
sbag0
(g1
g2
(lp891
g0
(g1
g2
(lp892
Va speck
p893
atp894
Rp895
(dp896
g11
S'start: 18'
p897
sbatp898
Rp899
(dp900
g11
S'sent: 24'
p901
sbag0
(g1
g2
(lp902
g0
(g1
g2
(lp903
Va bird in the sky
p904
atp905
Rp906
(dp907
g11
S'start: 21'
p908
sbatp909
Rp910
(dp911
g11
S'sent: 24'
p912
sbatp913
Rp914
(dp915
g11
S'id: 103'
p916
sbatp917
Rp918
(dp919
g11
S'coreferences'
p920
sb.