ccopy_reg
_reconstructor
p0
(cnltk.tree
Tree
p1
c__builtin__
list
p2
(lp3
g0
(g1
g2
(lp4
g0
(g1
g2
(lp5
g0
(g1
g2
(lp6
Vok
p7
atp8
Rp9
(dp10
S'_label'
p11
VNN
p12
sbag0
(g1
g2
(lp13
V.
p14
atp15
Rp16
(dp17
g11
V.
p18
sbatp19
Rp20
(dp21
g11
VNP
p22
sbatp23
Rp24
(dp25
g11
S'id: 0'
p26
sbag0
(g1
g2
(lp27
g0
(g1
g2
(lp28
g0
(g1
g2
(lp29
g0
(g1
g2
(lp30
Vin
p31
atp32
Rp33
(dp34
g11
VIN
p35
sbag0
(g1
g2
(lp36
g0
(g1
g2
(lp37
g0
(g1
g2
(lp38
g0
(g1
g2
(lp39
Vthe
p40
atp41
Rp42
(dp43
g11
VDT
p44
sbag0
(g1
g2
(lp45
Vkitchen
p46
atp47
Rp48
(dp49
g11
VNN
p50
sbatp51
Rp52
(dp53
g11
VNP
p54
sbag0
(g1
g2
(lp55
V,
p56
atp57
Rp58
(dp59
g11
V,
p60
sbag0
(g1
g2
(lp61
g0
(g1
g2
(lp62
g0
(g1
g2
(lp63
Vmother
p64
atp65
Rp66
(dp67
g11
VNN
p68
sbatp69
Rp70
(dp71
g11
VNP
p72
sbag0
(g1
g2
(lp73
V's
p74
atp75
Rp76
(dp77
g11
VPOS
p78
sbatp79
Rp80
(dp81
g11
VNP
p82
sbatp83
Rp84
(dp85
g11
VNP
p86
sbag0
(g1
g2
(lp87
g0
(g1
g2
(lp88
Vwashing
p89
atp90
Rp91
(dp92
g11
VVBG
p93
sbag0
(g1
g2
(lp94
g0
(g1
g2
(lp95
g0
(g1
g2
(lp96
Vthe
p97
atp98
Rp99
(dp100
g11
VDT
p101
sbatp102
Rp103
(dp104
g11
VNP
p105
sbag0
(g1
g2
(lp106
V,
p107
atp108
Rp109
(dp110
g11
V,
p111
sbag0
(g1
g2
(lp112
g0
(g1
g2
(lp113
Vwashing
p114
atp115
Rp116
(dp117
g11
VVBG
p118
sbag0
(g1
g2
(lp119
g0
(g1
g2
(lp120
Vthe
p121
atp122
Rp123
(dp124
g11
VDT
p125
sbag0
(g1
g2
(lp126
Vdishes
p127
atp128
Rp129
(dp130
g11
VNNS
p131
sbatp132
Rp133
(dp134
g11
VNP
p135
sbatp136
Rp137
(dp138
g11
VVP
p139
sbag0
(g1
g2
(lp140
V,
p141
atp142
Rp143
(dp144
g11
V,
p145
sbag0
(g1
g2
(lp146
g0
(g1
g2
(lp147
Vof
p148
atp149
Rp150
(dp151
g11
VIN
p152
sbag0
(g1
g2
(lp153
g0
(g1
g2
(lp154
Vcourse
p155
atp156
Rp157
(dp158
g11
VNN
p159
sbatp160
Rp161
(dp162
g11
VNP
p163
sbatp164
Rp165
(dp166
g11
VPP
p167
sbatp168
Rp169
(dp170
g11
VNP
p171
sbatp172
Rp173
(dp174
g11
VVP
p175
sbatp176
Rp177
(dp178
g11
VS
p179
sbatp180
Rp181
(dp182
g11
VPP
p183
sbag0
(g1
g2
(lp184
g0
(g1
g2
(lp185
Vthe
p186
atp187
Rp188
(dp189
g11
VDT
p190
sbag0
(g1
g2
(lp191
Vsink
p192
atp193
Rp194
(dp195
g11
VNN
p196
sbatp197
Rp198
(dp199
g11
VNP
p200
sbag0
(g1
g2
(lp201
g0
(g1
g2
(lp202
Vis
p203
atp204
Rp205
(dp206
g11
VVBZ
p207
sbag0
(g1
g2
(lp208
g0
(g1
g2
(lp209
Vover
p210
atp211
Rp212
(dp213
g11
VIN
p214
sbag0
(g1
g2
(lp215
g0
(g1
g2
(lp216
Vflowing
p217
atp218
Rp219
(dp220
g11
VVBG
p221
sbatp222
Rp223
(dp224
g11
VNP
p225
sbatp226
Rp227
(dp228
g11
VPP
p229
sbatp230
Rp231
(dp232
g11
VVP
p233
sbag0
(g1
g2
(lp234
V.
p235
atp236
Rp237
(dp238
g11
V.
p239
sbatp240
Rp241
(dp242
g11
VS
p243
sbatp244
Rp245
(dp246
g11
S'id: 1'
p247
sbag0
(g1
g2
(lp248
g0
(g1
g2
(lp249
g0
(g1
g2
(lp250
g0
(g1
g2
(lp251
Vthe
p252
atp253
Rp254
(dp255
g11
VDT
p256
sbag0
(g1
g2
(lp257
Vkids
p258
atp259
Rp260
(dp261
g11
VNNS
p262
sbatp263
Rp264
(dp265
g11
VNP
p266
sbag0
(g1
g2
(lp267
g0
(g1
g2
(lp268
Vare
p269
atp270
Rp271
(dp272
g11
VVBP
p273
sbag0
(g1
g2
(lp274
g0
(g1
g2
(lp275
Vgetting
p276
atp277
Rp278
(dp279
g11
VVBG
p280
sbag0
(g1
g2
(lp281
g0
(g1
g2
(lp282
g0
(g1
g2
(lp283
Vrave
p284
atp285
Rp286
(dp287
g11
VVB
p288
sbatp289
Rp290
(dp291
g11
VVP
p292
sbatp293
Rp294
(dp295
g11
VS
p296
sbag0
(g1
g2
(lp297
V,
p298
atp299
Rp300
(dp301
g11
V,
p302
sbag0
(g1
g2
(lp303
g0
(g1
g2
(lp304
g0
(g1
g2
(lp305
Vraving
p306
atp307
Rp308
(dp309
g11
VVBG
p310
sbag0
(g1
g2
(lp311
g0
(g1
g2
(lp312
Vthe
p313
atp314
Rp315
(dp316
g11
VDT
p317
sbag0
(g1
g2
(lp318
Vcookie
p319
atp320
Rp321
(dp322
g11
VNN
p323
sbag0
(g1
g2
(lp324
Vjar
p325
atp326
Rp327
(dp328
g11
VNN
p329
sbatp330
Rp331
(dp332
g11
VNP
p333
sbag0
(g1
g2
(lp334
g0
(g1
g2
(lp335
Vin
p336
atp337
Rp338
(dp339
g11
VIN
p340
sbag0
(g1
g2
(lp341
g0
(g1
g2
(lp342
Vthe
p343
atp344
Rp345
(dp346
g11
VDT
p347
sbag0
(g1
g2
(lp348
Vtop
p349
atp350
Rp351
(dp352
g11
VJJ
p353
sbag0
(g1
g2
(lp354
Vcabinet
p355
atp356
Rp357
(dp358
g11
VNN
p359
sbatp360
Rp361
(dp362
g11
VNP
p363
sbatp364
Rp365
(dp366
g11
VPP
p367
sbatp368
Rp369
(dp370
g11
VVP
p371
sbatp372
Rp373
(dp374
g11
VS
p375
sbatp376
Rp377
(dp378
g11
VVP
p379
sbatp380
Rp381
(dp382
g11
VVP
p383
sbag0
(g1
g2
(lp384
V.
p385
atp386
Rp387
(dp388
g11
V.
p389
sbatp390
Rp391
(dp392
g11
VS
p393
sbatp394
Rp395
(dp396
g11
S'id: 2'
p397
sbag0
(g1
g2
(lp398
g0
(g1
g2
(lp399
g0
(g1
g2
(lp400
g0
(g1
g2
(lp401
g0
(g1
g2
(lp402
Vher
p403
atp404
Rp405
(dp406
g11
VPRP$
p407
sbag0
(g1
g2
(lp408
Vson
p409
atp410
Rp411
(dp412
g11
VNN
p413
sbag0
(g1
g2
(lp414
V's
p415
atp416
Rp417
(dp418
g11
VPOS
p419
sbatp420
Rp421
(dp422
g11
VNP
p423
sbag0
(g1
g2
(lp424
g0
(g1
g2
(lp425
Vabout
p426
atp427
Rp428
(dp429
g11
VIN
p430
sbatp431
Rp432
(dp433
g11
VPP
p434
sbatp435
Rp436
(dp437
g11
VNP
p438
sbag0
(g1
g2
(lp439
g0
(g1
g2
(lp440
g0
(g1
g2
(lp441
g0
(g1
g2
(lp442
Vto
p443
atp444
Rp445
(dp446
g11
VTO
p447
sbag0
(g1
g2
(lp448
g0
(g1
g2
(lp449
Vfall
p450
atp451
Rp452
(dp453
g11
VVB
p454
sbag0
(g1
g2
(lp455
g0
(g1
g2
(lp456
Vover
p457
atp458
Rp459
(dp460
g11
VIN
p461
sbag0
(g1
g2
(lp462
g0
(g1
g2
(lp463
Vthe
p464
atp465
Rp466
(dp467
g11
VDT
p468
sbag0
(g1
g2
(lp469
Vstool
p470
atp471
Rp472
(dp473
g11
VNN
p474
sbatp475
Rp476
(dp477
g11
VNP
p478
sbatp479
Rp480
(dp481
g11
VPP
p482
sbatp483
Rp484
(dp485
g11
VVP
p486
sbatp487
Rp488
(dp489
g11
VVP
p490
sbatp491
Rp492
(dp493
g11
VS
p494
sbatp495
Rp496
(dp497
g11
VSBAR
p498
sbag0
(g1
g2
(lp499
V.
p500
atp501
Rp502
(dp503
g11
V.
p504
sbatp505
Rp506
(dp507
g11
VNP
p508
sbatp509
Rp510
(dp511
g11
S'id: 3'
p512
sbag0
(g1
g2
(lp513
g0
(g1
g2
(lp514
g0
(g1
g2
(lp515
g0
(g1
g2
(lp516
Vthat
p517
atp518
Rp519
(dp520
g11
VDT
p521
sbatp522
Rp523
(dp524
g11
VNP
p525
sbag0
(g1
g2
(lp526
g0
(g1
g2
(lp527
V's
p528
atp529
Rp530
(dp531
g11
VVBZ
p532
sbag0
(g1
g2
(lp533
g0
(g1
g2
(lp534
Vabout
p535
atp536
Rp537
(dp538
g11
VIN
p539
sbag0
(g1
g2
(lp540
g0
(g1
g2
(lp541
g0
(g1
g2
(lp542
Vit
p543
atp544
Rp545
(dp546
g11
VPRP
p547
sbatp548
Rp549
(dp550
g11
VNP
p551
sbag0
(g1
g2
(lp552
g0
(g1
g2
(lp553
Vfor
p554
atp555
Rp556
(dp557
g11
VIN
p558
sbag0
(g1
g2
(lp559
g0
(g1
g2
(lp560
Vthat
p561
atp562
Rp563
(dp564
g11
VDT
p565
sbag0
(g1
g2
(lp566
Vone
p567
atp568
Rp569
(dp570
g11
VCD
p571
sbatp572
Rp573
(dp574
g11
VNP
p575
sbatp576
Rp577
(dp578
g11
VPP
p579
sbatp580
Rp581
(dp582
g11
VNP
p583
sbatp584
Rp585
(dp586
g11
VPP
p587
sbatp588
Rp589
(dp590
g11
VVP
p591
sbag0
(g1
g2
(lp592
V.
p593
atp594
Rp595
(dp596
g11
V.
p597
sbatp598
Rp599
(dp600
g11
VS
p601
sbatp602
Rp603
(dp604
g11
S'id: 4'
p605
sbag0
(g1
g2
(lp606
g0
(g1
g2
(lp607
g0
(g1
g2
(lp608
g0
(g1
g2
(lp609
Vthere
p610
atp611
Rp612
(dp613
g11
VEX
p614
sbatp615
Rp616
(dp617
g11
VNP
p618
sbag0
(g1
g2
(lp619
g0
(g1
g2
(lp620
V's
p621
atp622
Rp623
(dp624
g11
VVBZ
p625
sbag0
(g1
g2
(lp626
g0
(g1
g2
(lp627
g0
(g1
g2
(lp628
Vtwo
p629
atp630
Rp631
(dp632
g11
VCD
p633
sbag0
(g1
g2
(lp634
Vcups
p635
atp636
Rp637
(dp638
g11
VNNS
p639
sbatp640
Rp641
(dp642
g11
VNP
p643
sbag0
(g1
g2
(lp644
V,
p645
atp646
Rp647
(dp648
g11
V,
p649
sbag0
(g1
g2
(lp650
g0
(g1
g2
(lp651
g0
(g1
g2
(lp652
Va
p653
atp654
Rp655
(dp656
g11
VDT
p657
sbag0
(g1
g2
(lp658
Vplate
p659
atp660
Rp661
(dp662
g11
VNN
p663
sbatp664
Rp665
(dp666
g11
VNP
p667
sbag0
(g1
g2
(lp668
g0
(g1
g2
(lp669
Von
p670
atp671
Rp672
(dp673
g11
VIN
p674
sbag0
(g1
g2
(lp675
g0
(g1
g2
(lp676
g0
(g1
g2
(lp677
Vthe
p678
atp679
Rp680
(dp681
g11
VDT
p682
sbag0
(g1
g2
(lp683
Vcounter
p684
atp685
Rp686
(dp687
g11
VNN
p688
sbatp689
Rp690
(dp691
g11
VNP
p692
sbag0
(g1
g2
(lp693
V,
p694
atp695
Rp696
(dp697
g11
V,
p698
sbag0
(g1
g2
(lp699
g0
(g1
g2
(lp700
Vthe
p701
atp702
Rp703
(dp704
g11
VDT
p705
sbag0
(g1
g2
(lp706
Vcounter
p707
atp708
Rp709
(dp710
g11
VNN
p711
sbatp712
Rp713
(dp714
g11
VNP
p715
sbatp716
Rp717
(dp718
g11
VNP
p719
sbatp720
Rp721
(dp722
g11
VPP
p723
sbatp724
Rp725
(dp726
g11
VNP
p727
sbatp728
Rp729
(dp730
g11
VNP
p731
sbatp732
Rp733
(dp734
g11
VVP
p735
sbag0
(g1
g2
(lp736
V.
p737
atp738
Rp739
(dp740
g11
V.
p741
sbatp742
Rp743
(dp744
g11
VS
p745
sbatp746
Rp747
(dp748
g11
S'id: 5'
p749
sbag0
(g1
g2
(lp750
g0
(g1
g2
(lp751
g0
(g1
g2
(lp752
g0
(g1
g2
(lp753
VI
p754
atp755
Rp756
(dp757
g11
VPRP
p758
sbatp759
Rp760
(dp761
g11
VNP
p762
sbag0
(g1
g2
(lp763
g0
(g1
g2
(lp764
Vsee
p765
atp766
Rp767
(dp768
g11
VVBP
p769
sbag0
(g1
g2
(lp770
g0
(g1
g2
(lp771
g0
(g1
g2
(lp772
Vthe
p773
atp774
Rp775
(dp776
g11
VDT
p777
sbag0
(g1
g2
(lp778
Vflowers
p779
atp780
Rp781
(dp782
g11
VNNS
p783
sbatp784
Rp785
(dp786
g11
VNP
p787
sbag0
(g1
g2
(lp788
V,
p789
atp790
Rp791
(dp792
g11
V,
p793
sbag0
(g1
g2
(lp794
g0
(g1
g2
(lp795
Vthe
p796
atp797
Rp798
(dp799
g11
VDT
p800
sbag0
(g1
g2
(lp801
Vtrees
p802
atp803
Rp804
(dp805
g11
VNNS
p806
sbatp807
Rp808
(dp809
g11
VNP
p810
sbag0
(g1
g2
(lp811
V,
p812
atp813
Rp814
(dp815
g11
V,
p816
sbag0
(g1
g2
(lp817
Vand
p818
atp819
Rp820
(dp821
g11
VCC
p822
sbag0
(g1
g2
(lp823
g0
(g1
g2
(lp824
g0
(g1
g2
(lp825
Vthe
p826
atp827
Rp828
(dp829
g11
VDT
p830
sbag0
(g1
g2
(lp831
g0
(g1
g2
(lp832
g0
(g1
g2
(lp833
g0
(g1
g2
(lp834
Vbushes
p835
atp836
Rp837
(dp838
g11
VNNS
p839
sbatp840
Rp841
(dp842
g11
VNX
p843
sbag0
(g1
g2
(lp844
g0
(g1
g2
(lp845
V,
p846
atp847
Rp848
(dp849
g11
V,
p850
sbag0
(g1
g2
(lp851
g0
(g1
g2
(lp852
Vout
p853
atp854
Rp855
(dp856
g11
VIN
p857
sbag0
(g1
g2
(lp858
g0
(g1
g2
(lp859
Vof
p860
atp861
Rp862
(dp863
g11
VIN
p864
sbag0
(g1
g2
(lp865
g0
(g1
g2
(lp866
Vthe
p867
atp868
Rp869
(dp870
g11
VDT
p871
sbatp872
Rp873
(dp874
g11
VNP
p875
sbatp876
Rp877
(dp878
g11
VPP
p879
sbatp880
Rp881
(dp882
g11
VADVP
p883
sbag0
(g1
g2
(lp884
V,
p885
atp886
Rp887
(dp888
g11
V,
p889
sbatp890
Rp891
(dp892
g11
VPRN
p893
sbatp894
Rp895
(dp896
g11
VNX
p897
sbag0
(g1
g2
(lp898
Vor
p899
atp900
Rp901
(dp902
g11
VCC
p903
sbag0
(g1
g2
(lp904
g0
(g1
g2
(lp905
Vbushes
p906
atp907
Rp908
(dp909
g11
VNNS
p910
sbatp911
Rp912
(dp913
g11
VNX
p914
sbatp915
Rp916
(dp917
g11
VNX
p918
sbatp919
Rp920
(dp921
g11
VNP
p922
sbag0
(g1
g2
(lp923
g0
(g1
g2
(lp924
Voutside
p925
atp926
Rp927
(dp928
g11
VIN
p929
sbatp930
Rp931
(dp932
g11
VADVP
p933
sbatp934
Rp935
(dp936
g11
VNP
p937
sbatp938
Rp939
(dp940
g11
VNP
p941
sbatp942
Rp943
(dp944
g11
VVP
p945
sbag0
(g1
g2
(lp946
V.
p947
atp948
Rp949
(dp950
g11
V.
p951
sbatp952
Rp953
(dp954
g11
VS
p955
sbatp956
Rp957
(dp958
g11
S'id: 6'
p959
sbag0
(g1
g2
(lp960
g0
(g1
g2
(lp961
g0
(g1
g2
(lp962
g0
(g1
g2
(lp963
Vin
p964
atp965
Rp966
(dp967
g11
VIN
p968
sbag0
(g1
g2
(lp969
g0
(g1
g2
(lp970
Vfact
p971
atp972
Rp973
(dp974
g11
VNN
p975
sbatp976
Rp977
(dp978
g11
VNP
p979
sbatp980
Rp981
(dp982
g11
VPP
p983
sbag0
(g1
g2
(lp984
V,
p985
atp986
Rp987
(dp988
g11
V,
p989
sbag0
(g1
g2
(lp990
g0
(g1
g2
(lp991
g0
(g1
g2
(lp992
Vgarage
p993
atp994
Rp995
(dp996
g11
VNN
p997
sbatp998
Rp999
(dp1000
g11
VNP
p1001
sbag0
(g1
g2
(lp1002
g0
(g1
g2
(lp1003
Vover
p1004
atp1005
Rp1006
(dp1007
g11
VIN
p1008
sbag0
(g1
g2
(lp1009
g0
(g1
g2
(lp1010
Vthere
p1011
atp1012
Rp1013
(dp1014
g11
VEX
p1015
sbatp1016
Rp1017
(dp1018
g11
VNP
p1019
sbatp1020
Rp1021
(dp1022
g11
VPP
p1023
sbag0
(g1
g2
(lp1024
g0
(g1
g2
(lp1025
Vin
p1026
atp1027
Rp1028
(dp1029
g11
VIN
p1030
sbag0
(g1
g2
(lp1031
g0
(g1
g2
(lp1032
Vthe
p1033
atp1034
Rp1035
(dp1036
g11
VDT
p1037
sbag0
(g1
g2
(lp1038
Vsidewalk
p1039
atp1040
Rp1041
(dp1042
g11
VNN
p1043
sbatp1044
Rp1045
(dp1046
g11
VNP
p1047
sbatp1048
Rp1049
(dp1050
g11
VPP
p1051
sbatp1052
Rp1053
(dp1054
g11
VNP
p1055
sbag0
(g1
g2
(lp1056
V.
p1057
atp1058
Rp1059
(dp1060
g11
V.
p1061
sbatp1062
Rp1063
(dp1064
g11
VFRAG
p1065
sbatp1066
Rp1067
(dp1068
g11
S'id: 7'
p1069
sbag0
(g1
g2
(lp1070
g0
(g1
g2
(lp1071
g0
(g1
g2
(lp1072
g0
(g1
g2
(lp1073
Vmom
p1074
atp1075
Rp1076
(dp1077
g11
VNN
p1078
sbag0
(g1
g2
(lp1079
g0
(g1
g2
(lp1080
g0
(g1
g2
(lp1081
V's
p1082
atp1083
Rp1084
(dp1085
g11
VPOS
p1086
sbatp1087
Rp1088
(dp1089
g11
VNP
p1090
sbag0
(g1
g2
(lp1091
g0
(g1
g2
(lp1092
Vwearing
p1093
atp1094
Rp1095
(dp1096
g11
VVBG
p1097
sbag0
(g1
g2
(lp1098
g0
(g1
g2
(lp1099
Va
p1100
atp1101
Rp1102
(dp1103
g11
VDT
p1104
sbag0
(g1
g2
(lp1105
Vdress
p1106
atp1107
Rp1108
(dp1109
g11
VNN
p1110
sbatp1111
Rp1112
(dp1113
g11
VNP
p1114
sbatp1115
Rp1116
(dp1117
g11
VVP
p1118
sbatp1119
Rp1120
(dp1121
g11
VS
p1122
sbatp1123
Rp1124
(dp1125
g11
VVP
p1126
sbag0
(g1
g2
(lp1127
V.
p1128
atp1129
Rp1130
(dp1131
g11
V.
p1132
sbatp1133
Rp1134
(dp1135
g11
VS
p1136
sbatp1137
Rp1138
(dp1139
g11
S'id: 8'
p1140
sbag0
(g1
g2
(lp1141
g0
(g1
g2
(lp1142
g0
(g1
g2
(lp1143
g0
(g1
g2
(lp1144
Vwhat
p1145
atp1146
Rp1147
(dp1148
g11
VWDT
p1149
sbatp1150
Rp1151
(dp1152
g11
VWHNP
p1153
sbag0
(g1
g2
(lp1154
g0
(g1
g2
(lp1155
Vam
p1156
atp1157
Rp1158
(dp1159
g11
VVBP
p1160
sbag0
(g1
g2
(lp1161
g0
(g1
g2
(lp1162
VI
p1163
atp1164
Rp1165
(dp1166
g11
VPRP
p1167
sbatp1168
Rp1169
(dp1170
g11
VNP
p1171
sbag0
(g1
g2
(lp1172
g0
(g1
g2
(lp1173
Vmissing
p1174
atp1175
Rp1176
(dp1177
g11
VVBG
p1178
sbag0
(g1
g2
(lp1179
g0
(g1
g2
(lp1180
Vhere
p1181
atp1182
Rp1183
(dp1184
g11
VRB
p1185
sbatp1186
Rp1187
(dp1188
g11
VADVP
p1189
sbatp1190
Rp1191
(dp1192
g11
VVP
p1193
sbatp1194
Rp1195
(dp1196
g11
VSQ
p1197
sbatp1198
Rp1199
(dp1200
g11
VSBARQ
p1201
sbatp1202
Rp1203
(dp1204
g11
S'id: 9'
p1205
sbatp1206
Rp1207
(dp1208
g11
S'sentences'
p1209
sb.