ccopy_reg
_reconstructor
p0
(cnltk.tree
Tree
p1
c__builtin__
list
p2
(lp3
g0
(g1
g2
(lp4
tp5
Rp6
(dp7
S'_label'
p8
S'id: 0'
p9
sbag0
(g1
g2
(lp10
g0
(g1
g2
(lp11
g0
(g1
g2
(lp12
g0
(g1
g2
(lp13
g0
(g1
g2
(lp14
g0
(g1
g2
(lp15
g0
(g1
g2
(lp16
(lp17
S'word: the, index: 6'
p18
aatp19
Rp20
(dp21
g8
Vdet
p22
sbatp23
Rp24
(dp25
g8
S'word: man, index: 7'
p26
sbatp27
Rp28
(dp29
g8
Vconj
p30
sbatp31
Rp32
(dp33
g8
S'word: lion, index: 3'
p34
sbatp35
Rp36
(dp37
g8
Vnsubj
p38
sbag0
(g1
g2
(lp39
g24
atp40
Rp41
(dp42
g8
Vnsubj
p43
sbag0
(g1
g2
(lp44
(lp45
S'word: Totally, index: 1'
p46
aatp47
Rp48
(dp49
g8
Vadvmod
p50
sbatp51
Rp52
(dp53
g8
S'word: is, index: 8'
p54
sbatp55
Rp56
(dp57
g8
S'id: 1'
p58
sbag0
(g1
g2
(lp59
g0
(g1
g2
(lp60
g0
(g1
g2
(lp61
g0
(g1
g2
(lp62
g0
(g1
g2
(lp63
(lp64
S'word: The, index: 1'
p65
aatp66
Rp67
(dp68
g8
Vdet
p69
sbatp70
Rp71
(dp72
g8
S'word: man, index: 2'
p73
sbatp74
Rp75
(dp76
g8
Vnsubj
p77
sbag0
(g1
g2
(lp78
(lp79
S'word: is, index: 3'
p80
aatp81
Rp82
(dp83
g8
Vcop
p84
sbag0
(g1
g2
(lp85
(lp86
S'word: the, index: 4'
p87
aatp88
Rp89
(dp90
g8
Vdet
p91
sbatp92
Rp93
(dp94
g8
S'word: bleeding, index: 5'
p95
sbatp96
Rp97
(dp98
g8
S'id: 2'
p99
sbag0
(g1
g2
(lp100
g0
(g1
g2
(lp101
g0
(g1
g2
(lp102
g0
(g1
g2
(lp103
g0
(g1
g2
(lp104
(lp105
S'word: the, index: 12'
p106
aatp107
Rp108
(dp109
g8
Vdet
p110
sbatp111
Rp112
(dp113
g8
S'word: bigit, index: 13'
p114
sbatp115
Rp116
(dp117
g8
Vprep
p118
sbag0
(g1
g2
(lp119
g0
(g1
g2
(lp120
g0
(g1
g2
(lp121
(lp122
S'word: so, index: 2'
p123
aatp124
Rp125
(dp126
g8
Vadvmod
p127
sbatp128
Rp129
(dp130
g8
S'word: It, index: 1'
p131
sbatp132
Rp133
(dp134
g8
Vccomp
p135
sbag0
(g1
g2
(lp136
g0
(g1
g2
(lp137
g0
(g1
g2
(lp138
g0
(g1
g2
(lp139
g0
(g1
g2
(lp140
g0
(g1
g2
(lp141
g0
(g1
g2
(lp142
(lp143
S'word: the, index: 8'
p144
aatp145
Rp146
(dp147
g8
Vdet
p148
sbatp149
Rp150
(dp151
g8
S'word: man, index: 9'
p152
sbatp153
Rp154
(dp155
g8
Vappos
p156
sbatp157
Rp158
(dp159
g8
S'word: cor, index: 6'
p160
sbatp161
Rp162
(dp163
g8
Vappos
p164
sbatp165
Rp166
(dp167
g8
S'word: corp, index: 4'
p168
sbatp169
Rp170
(dp171
g8
Vnsubj
p172
sbatp173
Rp174
(dp175
g8
S'word: crawls, index: 10'
p176
sbatp177
Rp178
(dp179
g8
S'id: 3'
p180
sbag0
(g1
g2
(lp181
g0
(g1
g2
(lp182
g0
(g1
g2
(lp183
g0
(g1
g2
(lp184
g0
(g1
g2
(lp185
(lp186
S'word: hornt, index: 15'
p187
aatp188
Rp189
(dp190
g8
Vappos
p191
sbatp192
Rp193
(dp194
g8
S'word: drinking, index: 13'
p195
sbatp196
Rp197
(dp198
g8
Vnsubj
p199
sbag0
(g1
g2
(lp200
g0
(g1
g2
(lp201
g0
(g1
g2
(lp202
(lp203
S'word: I, index: 1'
p204
aatp205
Rp206
(dp207
g8
Vnsubj
p208
sbag0
(g1
g2
(lp209
g0
(g1
g2
(lp210
g0
(g1
g2
(lp211
(lp212
S'word: a, index: 3'
p213
aatp214
Rp215
(dp216
g8
Vdet
p217
sbag0
(g1
g2
(lp218
(lp219
S'word: girl, index: 6'
p220
aatp221
Rp222
(dp223
g8
Vconj
p224
sbag0
(g1
g2
(lp225
g0
(g1
g2
(lp226
g0
(g1
g2
(lp227
(lp228
S'word: the, index: 9'
p229
aatp230
Rp231
(dp232
g8
Vdet
p233
sbatp234
Rp235
(dp236
g8
S'word: man, index: 10'
p237
sbatp238
Rp239
(dp240
g8
Vconj
p241
sbatp242
Rp243
(dp244
g8
S'word: man, index: 4'
p245
sbatp246
Rp247
(dp248
g8
Vdobj
p249
sbag0
(g1
g2
(lp250
(lp251
S'word: girl, index: 6'
p252
aatp253
Rp254
(dp255
g8
Vdobj
p256
sbag0
(g1
g2
(lp257
g235
atp258
Rp259
(dp260
g8
Vdobj
p261
sbatp262
Rp263
(dp264
g8
S'word: saw, index: 2'
p265
sbatp266
Rp267
(dp268
g8
Vdep
p269
sbag0
(g1
g2
(lp270
(lp271
S'word: is, index: 11'
p272
aatp273
Rp274
(dp275
g8
Vcop
p276
sbatp277
Rp278
(dp279
g8
S'word: there, index: 12'
p280
sbatp281
Rp282
(dp283
g8
S'id: 4'
p284
sbag0
(g1
g2
(lp285
g0
(g1
g2
(lp286
g0
(g1
g2
(lp287
(lp288
S'word: And, index: 1'
p289
aatp290
Rp291
(dp292
g8
Vcc
p293
sbag0
(g1
g2
(lp294
(lp295
S'word: I, index: 2'
p296
aatp297
Rp298
(dp299
g8
Vnsubj
p300
sbag0
(g1
g2
(lp301
(lp302
S'word: is, index: 19'
p303
aatp304
Rp305
(dp306
g8
Vcop
p307
sbag0
(g1
g2
(lp308
(lp309
S'word: so, index: 4'
p310
aatp311
Rp312
(dp313
g8
Vadvmod
p314
sbag0
(g1
g2
(lp315
g0
(g1
g2
(lp316
g0
(g1
g2
(lp317
(lp318
S'word: man, index: 8'
p319
aatp320
Rp321
(dp322
g8
Vconj
p323
sbag0
(g1
g2
(lp324
g0
(g1
g2
(lp325
g0
(g1
g2
(lp326
g0
(g1
g2
(lp327
g0
(g1
g2
(lp328
(lp329
S'word: berry, index: 16'
p330
aatp331
Rp332
(dp333
g8
Vamod
p334
sbag0
(g1
g2
(lp335
(lp336
S'word: berry, index: 17'
p337
aatp338
Rp339
(dp340
g8
Vnn
p341
sbag0
(g1
g2
(lp342
(lp343
S'word: black, index: 14'
p344
aatp345
Rp346
(dp347
g8
Vamod
p348
sbatp349
Rp350
(dp351
g8
S'word: gary, index: 18'
p352
sbatp353
Rp354
(dp355
g8
Vappos
p356
sbag0
(g1
g2
(lp357
(lp358
S'word: a, index: 12'
p359
aatp360
Rp361
(dp362
g8
Vconj
p363
sbatp364
Rp365
(dp366
g8
S'word: girl, index: 10'
p367
sbatp368
Rp369
(dp370
g8
Vconj
p371
sbag0
(g1
g2
(lp372
(lp373
S'word: a, index: 12'
p374
aatp375
Rp376
(dp377
g8
Vconj
p378
sbatp379
Rp380
(dp381
g8
S'word: thaw, index: 6'
p382
sbatp383
Rp384
(dp385
g8
Vnsubj
p386
sbag0
(g1
g2
(lp387
(lp388
S'word: man, index: 8'
p389
aatp390
Rp391
(dp392
g8
Vnsubj
p393
sbag0
(g1
g2
(lp394
g365
atp395
Rp396
(dp397
g8
Vnsubj
p398
sbatp399
Rp400
(dp401
g8
S'word: good, index: 20'
p402
sbatp403
Rp404
(dp405
g8
S'id: 5'
p406
sbag0
(g1
g2
(lp407
g0
(g1
g2
(lp408
g0
(g1
g2
(lp409
(lp410
S'word: man, index: 2'
p411
aatp412
Rp413
(dp414
g8
Vnsubj
p415
sbag0
(g1
g2
(lp416
(lp417
S'word: is, index: 3'
p418
aatp419
Rp420
(dp421
g8
Vaux
p422
sbag0
(g1
g2
(lp423
g0
(g1
g2
(lp424
g0
(g1
g2
(lp425
(lp426
S'word: the, index: 5'
p427
aatp428
Rp429
(dp430
g8
Vdet
p431
sbatp432
Rp433
(dp434
g8
S'word: showder, index: 6'
p435
sbatp436
Rp437
(dp438
g8
Vdobj
p439
sbag0
(g1
g2
(lp440
(lp441
S'word: And, index: 1'
p442
aatp443
Rp444
(dp445
g8
Vcc
p446
sbatp447
Rp448
(dp449
g8
S'word: drinking, index: 4'
p450
sbatp451
Rp452
(dp453
g8
S'id: 6'
p454
sbag0
(g1
g2
(lp455
g0
(g1
g2
(lp456
g0
(g1
g2
(lp457
g0
(g1
g2
(lp458
g0
(g1
g2
(lp459
(lp460
S'word: somebody, index: 3'
p461
aatp462
Rp463
(dp464
g8
Vconj
p465
sbatp466
Rp467
(dp468
g8
S'word: Clown, index: 1'
p469
sbatp470
Rp471
(dp472
g8
Vnsubj
p473
sbag0
(g1
g2
(lp474
(lp475
S'word: somebody, index: 3'
p476
aatp477
Rp478
(dp479
g8
Vnsubj
p480
sbag0
(g1
g2
(lp481
(lp482
S'word: is, index: 4'
p483
aatp484
Rp485
(dp486
g8
Vaux
p487
sbatp488
Rp489
(dp490
g8
S'word: drinking, index: 5'
p491
sbatp492
Rp493
(dp494
g8
S'id: 7'
p495
sbag0
(g1
g2
(lp496
g0
(g1
g2
(lp497
g0
(g1
g2
(lp498
g0
(g1
g2
(lp499
g0
(g1
g2
(lp500
(lp501
S'word: the, index: 9'
p502
aatp503
Rp504
(dp505
g8
Vdet
p506
sbatp507
Rp508
(dp509
g8
S'word: girl, index: 10'
p510
sbatp511
Rp512
(dp513
g8
Vnsubj
p514
sbag0
(g1
g2
(lp515
g0
(g1
g2
(lp516
g0
(g1
g2
(lp517
(lp518
S'word: another, index: 12'
p519
aatp520
Rp521
(dp522
g8
Vdet
p523
sbatp524
Rp525
(dp526
g8
S'word: one, index: 13'
p527
sbatp528
Rp529
(dp530
g8
Vnsubj
p531
sbag0
(g1
g2
(lp532
(lp533
S'word: is, index: 14'
p534
aatp535
Rp536
(dp537
g8
Vaux
p538
sbag0
(g1
g2
(lp539
(lp540
S'word: They, index: 1'
p541
aatp542
Rp543
(dp544
g8
Vnsubj
p545
sbag0
(g1
g2
(lp546
(lp547
S'word: but, index: 17'
p548
aatp549
Rp550
(dp551
g8
Vadvmod
p552
sbag0
(g1
g2
(lp553
g0
(g1
g2
(lp554
g0
(g1
g2
(lp555
g508
atp556
Rp557
(dp558
g8
Vconj
p559
sbag0
(g1
g2
(lp560
g525
atp561
Rp562
(dp563
g8
Vconj
p564
sbag0
(g1
g2
(lp565
(lp566
S'word: girl, index: 5'
p567
aatp568
Rp569
(dp570
g8
Vconj
p571
sbag0
(g1
g2
(lp572
(lp573
S'word: boy, index: 7'
p574
aatp575
Rp576
(dp577
g8
Vconj
p578
sbatp579
Rp580
(dp581
g8
S'word: man, index: 3'
p582
sbatp583
Rp584
(dp585
g8
Vnsubj
p586
sbag0
(g1
g2
(lp587
(lp588
S'word: girl, index: 5'
p589
aatp590
Rp591
(dp592
g8
Vnsubj
p593
sbag0
(g1
g2
(lp594
(lp595
S'word: boy, index: 7'
p596
aatp597
Rp598
(dp599
g8
Vnsubj
p600
sbatp601
Rp602
(dp603
g8
S'word: laughing, index: 15'
p604
sbatp605
Rp606
(dp607
g8
S'id: 8'
p608
sbatp609
Rp610
(dp611
g8
S'sentences'
p612
sb.