ccopy_reg
_reconstructor
p0
(cnltk.tree
Tree
p1
c__builtin__
list
p2
(lp3
g0
(g1
g2
(lp4
g0
(g1
g2
(lp5
g0
(g1
g2
(lp6
VAll
p7
atp8
Rp9
(dp10
S'_label'
p11
VDT
p12
sbag0
(g1
g2
(lp13
Vright
p14
atp15
Rp16
(dp17
g11
VNN
p18
sbag0
(g1
g2
(lp19
V.
p20
atp21
Rp22
(dp23
g11
V.
p24
sbatp25
Rp26
(dp27
g11
VNP
p28
sbatp29
Rp30
(dp31
g11
S'id: 0'
p32
sbag0
(g1
g2
(lp33
g0
(g1
g2
(lp34
g0
(g1
g2
(lp35
g0
(g1
g2
(lp36
VAh
p37
atp38
Rp39
(dp40
g11
VNN
p41
sbatp42
Rp43
(dp44
g11
VNP
p45
sbag0
(g1
g2
(lp46
g0
(g1
g2
(lp47
Vwell
p48
atp49
Rp50
(dp51
g11
VRB
p52
sbatp53
Rp54
(dp55
g11
VADVP
p56
sbag0
(g1
g2
(lp57
V.
p58
atp59
Rp60
(dp61
g11
V.
p62
sbatp63
Rp64
(dp65
g11
VFRAG
p66
sbatp67
Rp68
(dp69
g11
S'id: 1'
p70
sbag0
(g1
g2
(lp71
g0
(g1
g2
(lp72
g0
(g1
g2
(lp73
g0
(g1
g2
(lp74
VThere
p75
atp76
Rp77
(dp78
g11
VEX
p79
sbatp80
Rp81
(dp82
g11
VNP
p83
sbag0
(g1
g2
(lp84
g0
(g1
g2
(lp85
V's
p86
atp87
Rp88
(dp89
g11
VVBZ
p90
sbag0
(g1
g2
(lp91
g0
(g1
g2
(lp92
Va
p93
atp94
Rp95
(dp96
g11
VDT
p97
sbag0
(g1
g2
(lp98
Vkitchen
p99
atp100
Rp101
(dp102
g11
VNN
p103
sbatp104
Rp105
(dp106
g11
VNP
p107
sbag0
(g1
g2
(lp108
g0
(g1
g2
(lp109
Vhere
p110
atp111
Rp112
(dp113
g11
VRB
p114
sbatp115
Rp116
(dp117
g11
VADVP
p118
sbatp119
Rp120
(dp121
g11
VVP
p122
sbag0
(g1
g2
(lp123
V.
p124
atp125
Rp126
(dp127
g11
V.
p128
sbatp129
Rp130
(dp131
g11
VS
p132
sbatp133
Rp134
(dp135
g11
S'id: 2'
p136
sbag0
(g1
g2
(lp137
g0
(g1
g2
(lp138
g0
(g1
g2
(lp139
g0
(g1
g2
(lp140
g0
(g1
g2
(lp141
VBoy
p142
atp143
Rp144
(dp145
g11
VNN
p146
sbag0
(g1
g2
(lp147
V's
p148
atp149
Rp150
(dp151
g11
VPOS
p152
sbatp153
Rp154
(dp155
g11
VNP
p156
sbag0
(g1
g2
(lp157
g0
(g1
g2
(lp158
Vabout
p159
atp160
Rp161
(dp162
g11
VIN
p163
sbag0
(g1
g2
(lp164
g0
(g1
g2
(lp165
g0
(g1
g2
(lp166
Vto
p167
atp168
Rp169
(dp170
g11
VTO
p171
sbag0
(g1
g2
(lp172
g0
(g1
g2
(lp173
Vfall
p174
atp175
Rp176
(dp177
g11
VVB
p178
sbag0
(g1
g2
(lp179
V,
p180
atp181
Rp182
(dp183
g11
V,
p184
sbag0
(g1
g2
(lp185
g0
(g1
g2
(lp186
g0
(g1
g2
(lp187
Vtaking
p188
atp189
Rp190
(dp191
g11
VVBG
p192
sbatp193
Rp194
(dp195
g11
VVP
p196
sbatp197
Rp198
(dp199
g11
VS
p200
sbatp201
Rp202
(dp203
g11
VVP
p204
sbatp205
Rp206
(dp207
g11
VVP
p208
sbatp209
Rp210
(dp211
g11
VS
p212
sbatp213
Rp214
(dp215
g11
VADJP
p216
sbag0
(g1
g2
(lp217
Vthings
p218
atp219
Rp220
(dp221
g11
VNNS
p222
sbatp223
Rp224
(dp225
g11
VNP
p226
sbag0
(g1
g2
(lp227
g0
(g1
g2
(lp228
Vout
p229
atp230
Rp231
(dp232
g11
VIN
p233
sbag0
(g1
g2
(lp234
g0
(g1
g2
(lp235
Vof
p236
atp237
Rp238
(dp239
g11
VIN
p240
sbag0
(g1
g2
(lp241
Vthe
p242
atp243
Rp244
(dp245
g11
VDT
p246
sbag0
(g1
g2
(lp247
Vcabinet
p248
atp249
Rp250
(dp251
g11
VNN
p252
sbatp253
Rp254
(dp255
g11
VNP
p256
sbatp257
Rp258
(dp259
g11
VVP
p260
sbag0
(g1
g2
(lp261
V.
p262
atp263
Rp264
(dp265
g11
V.
p266
sbatp267
Rp268
(dp269
g11
VS
p270
sbatp271
Rp272
(dp273
g11
S'id: 3'
p274
sbag0
(g1
g2
(lp275
g0
(g1
g2
(lp276
g0
(g1
g2
(lp277
g0
(g1
g2
(lp278
VLooks
p279
atp280
Rp281
(dp282
g11
VVBZ
p283
sbag0
(g1
g2
(lp284
g0
(g1
g2
(lp285
Vlike
p286
atp287
Rp288
(dp289
g11
VIN
p290
sbag0
(g1
g2
(lp291
g0
(g1
g2
(lp292
g0
(g1
g2
(lp293
Vwater
p294
atp295
Rp296
(dp297
g11
VNN
p298
sbag0
(g1
g2
(lp299
V's
p300
atp301
Rp302
(dp303
g11
VPOS
p304
sbatp305
Rp306
(dp307
g11
VNP
p308
sbag0
(g1
g2
(lp309
g0
(g1
g2
(lp310
Vrunning
p311
atp312
Rp313
(dp314
g11
VVBG
p315
sbag0
(g1
g2
(lp316
g0
(g1
g2
(lp317
Vover
p318
atp319
Rp320
(dp321
g11
VRB
p322
sbatp323
Rp324
(dp325
g11
VADVP
p326
sbatp327
Rp328
(dp329
g11
VVP
p330
sbatp331
Rp332
(dp333
g11
VNP
p334
sbatp335
Rp336
(dp337
g11
VPP
p338
sbatp339
Rp340
(dp341
g11
VVP
p342
sbag0
(g1
g2
(lp343
V.
p344
atp345
Rp346
(dp347
g11
V.
p348
sbatp349
Rp350
(dp351
g11
VS
p352
sbatp353
Rp354
(dp355
g11
S'id: 4'
p356
sbag0
(g1
g2
(lp357
g0
(g1
g2
(lp358
g0
(g1
g2
(lp359
VAnd
p360
atp361
Rp362
(dp363
g11
VCC
p364
sbag0
(g1
g2
(lp365
g0
(g1
g2
(lp366
Vthe
p367
atp368
Rp369
(dp370
g11
VDT
p371
sbag0
(g1
g2
(lp372
Vsink
p373
atp374
Rp375
(dp376
g11
VNN
p377
sbatp378
Rp379
(dp380
g11
VNP
p381
sbag0
(g1
g2
(lp382
g0
(g1
g2
(lp383
Vlooks
p384
atp385
Rp386
(dp387
g11
VVBZ
p388
sbag0
(g1
g2
(lp389
g0
(g1
g2
(lp390
Vlike
p391
atp392
Rp393
(dp394
g11
VIN
p395
sbag0
(g1
g2
(lp396
g0
(g1
g2
(lp397
g0
(g1
g2
(lp398
Va
p399
atp400
Rp401
(dp402
g11
VDT
p403
sbag0
(g1
g2
(lp404
Vnineteen
p405
atp406
Rp407
(dp408
g11
VCD
p409
sbag0
(g1
g2
(lp410
Vfifties
p411
atp412
Rp413
(dp414
g11
VNNS
p415
sbag0
(g1
g2
(lp416
Vtype
p417
atp418
Rp419
(dp420
g11
VNN
p421
sbatp422
Rp423
(dp424
g11
VNP
p425
sbag0
(g1
g2
(lp426
g0
(g1
g2
(lp427
Vof
p428
atp429
Rp430
(dp431
g11
VIN
p432
sbag0
(g1
g2
(lp433
g0
(g1
g2
(lp434
Vthing
p435
atp436
Rp437
(dp438
g11
VNN
p439
sbatp440
Rp441
(dp442
g11
VNP
p443
sbatp444
Rp445
(dp446
g11
VPP
p447
sbatp448
Rp449
(dp450
g11
VNP
p451
sbatp452
Rp453
(dp454
g11
VPP
p455
sbatp456
Rp457
(dp458
g11
VVP
p459
sbag0
(g1
g2
(lp460
V.
p461
atp462
Rp463
(dp464
g11
V.
p465
sbatp466
Rp467
(dp468
g11
VS
p469
sbatp470
Rp471
(dp472
g11
S'id: 5'
p473
sbag0
(g1
g2
(lp474
g0
(g1
g2
(lp475
g0
(g1
g2
(lp476
g0
(g1
g2
(lp477
VOk
p478
atp479
Rp480
(dp481
g11
VNNP
p482
sbatp483
Rp484
(dp485
g11
VNP
p486
sbag0
(g1
g2
(lp487
g0
(g1
g2
(lp488
g0
(g1
g2
(lp489
Vwhat
p490
atp491
Rp492
(dp493
g11
VWP
p494
sbatp495
Rp496
(dp497
g11
VWHNP
p498
sbag0
(g1
g2
(lp499
g0
(g1
g2
(lp500
g0
(g1
g2
(lp501
V's
p502
atp503
Rp504
(dp505
g11
VVBZ
p506
sbag0
(g1
g2
(lp507
g0
(g1
g2
(lp508
Vhappening
p509
atp510
Rp511
(dp512
g11
VVBG
p513
sbag0
(g1
g2
(lp514
g0
(g1
g2
(lp515
Von
p516
atp517
Rp518
(dp519
g11
VIN
p520
sbag0
(g1
g2
(lp521
g0
(g1
g2
(lp522
g0
(g1
g2
(lp523
Vthe
p524
atp525
Rp526
(dp527
g11
VDT
p528
sbag0
(g1
g2
(lp529
Voutside
p530
atp531
Rp532
(dp533
g11
VNN
p534
sbatp535
Rp536
(dp537
g11
VNP
p538
sbag0
(g1
g2
(lp539
g0
(g1
g2
(lp540
g0
(g1
g2
(lp541
Vthat
p542
atp543
Rp544
(dp545
g11
VWDT
p546
sbatp547
Rp548
(dp549
g11
VWHNP
p550
sbag0
(g1
g2
(lp551
g0
(g1
g2
(lp552
g0
(g1
g2
(lp553
Vwindow
p554
atp555
Rp556
(dp557
g11
VNN
p558
sbatp559
Rp560
(dp561
g11
VNP
p562
sbatp563
Rp564
(dp565
g11
VS
p566
sbatp567
Rp568
(dp569
g11
VSBAR
p570
sbatp571
Rp572
(dp573
g11
VNP
p574
sbatp575
Rp576
(dp577
g11
VPP
p578
sbatp579
Rp580
(dp581
g11
VVP
p582
sbatp583
Rp584
(dp585
g11
VVP
p586
sbatp587
Rp588
(dp589
g11
VS
p590
sbatp591
Rp592
(dp593
g11
VSBAR
p594
sbatp595
Rp596
(dp597
g11
VFRAG
p598
sbatp599
Rp600
(dp601
g11
S'id: 6'
p602
sbatp603
Rp604
(dp605
g11
S'sentences'
p606
sb.