ccopy_reg
_reconstructor
p0
(cnltk.tree
Tree
p1
c__builtin__
list
p2
(lp3
g0
(g1
g2
(lp4
g0
(g1
g2
(lp5
g0
(g1
g2
(lp6
g0
(g1
g2
(lp7
VHere
p8
atp9
Rp10
(dp11
S'_label'
p12
VRB
p13
sbatp14
Rp15
(dp16
g12
VADVP
p17
sbag0
(g1
g2
(lp18
g0
(g1
g2
(lp19
Vwe
p20
atp21
Rp22
(dp23
g12
VPRP
p24
sbatp25
Rp26
(dp27
g12
VNP
p28
sbag0
(g1
g2
(lp29
g0
(g1
g2
(lp30
Vare
p31
atp32
Rp33
(dp34
g12
VVBP
p35
sbag0
(g1
g2
(lp36
g0
(g1
g2
(lp37
Vat
p38
atp39
Rp40
(dp41
g12
VIN
p42
sbag0
(g1
g2
(lp43
g0
(g1
g2
(lp44
Vthe
p45
atp46
Rp47
(dp48
g12
VDT
p49
sbag0
(g1
g2
(lp50
Vzoo
p51
atp52
Rp53
(dp54
g12
VNN
p55
sbatp56
Rp57
(dp58
g12
VNP
p59
sbatp60
Rp61
(dp62
g12
VPP
p63
sbatp64
Rp65
(dp66
g12
VVP
p67
sbag0
(g1
g2
(lp68
V.
p69
atp70
Rp71
(dp72
g12
V.
p73
sbatp74
Rp75
(dp76
g12
VS
p77
sbatp78
Rp79
(dp80
g12
S'id: 0'
p81
sbag0
(g1
g2
(lp82
g0
(g1
g2
(lp83
g0
(g1
g2
(lp84
g0
(g1
g2
(lp85
VExcuse
p86
atp87
Rp88
(dp89
g12
VVB
p90
sbag0
(g1
g2
(lp91
g0
(g1
g2
(lp92
Vme
p93
atp94
Rp95
(dp96
g12
VPRP
p97
sbatp98
Rp99
(dp100
g12
VNP
p101
sbag0
(g1
g2
(lp102
V,
p103
atp104
Rp105
(dp106
g12
V,
p107
sbag0
(g1
g2
(lp108
g0
(g1
g2
(lp109
Vat
p110
atp111
Rp112
(dp113
g12
VIN
p114
sbag0
(g1
g2
(lp115
g0
(g1
g2
(lp116
Vthe
p117
atp118
Rp119
(dp120
g12
VDT
p121
sbag0
(g1
g2
(lp122
Vcarnival
p123
atp124
Rp125
(dp126
g12
VNN
p127
sbatp128
Rp129
(dp130
g12
VNP
p131
sbatp132
Rp133
(dp134
g12
VPP
p135
sbatp136
Rp137
(dp138
g12
VVP
p139
sbag0
(g1
g2
(lp140
V.
p141
atp142
Rp143
(dp144
g12
V.
p145
sbatp146
Rp147
(dp148
g12
VS
p149
sbatp150
Rp151
(dp152
g12
S'id: 1'
p153
sbag0
(g1
g2
(lp154
g0
(g1
g2
(lp155
g0
(g1
g2
(lp156
g0
(g1
g2
(lp157
VAs
p158
atp159
Rp160
(dp161
g12
VIN
p162
sbag0
(g1
g2
(lp163
g0
(g1
g2
(lp164
g0
(g1
g2
(lp165
g0
(g1
g2
(lp166
Vbozo
p167
atp168
Rp169
(dp170
g12
VNN
p171
sbatp172
Rp173
(dp174
g12
VNP
p175
sbag0
(g1
g2
(lp176
g0
(g1
g2
(lp177
Vthe
p178
atp179
Rp180
(dp181
g12
VDT
p182
sbag0
(g1
g2
(lp183
Vclown
p184
atp185
Rp186
(dp187
g12
VNN
p188
sbatp189
Rp190
(dp191
g12
VNP
p192
sbatp193
Rp194
(dp195
g12
VNP
p196
sbag0
(g1
g2
(lp197
V,
p198
atp199
Rp200
(dp201
g12
V,
p202
sbag0
(g1
g2
(lp203
g0
(g1
g2
(lp204
Vas
p205
atp206
Rp207
(dp208
g12
VIN
p209
sbag0
(g1
g2
(lp210
g0
(g1
g2
(lp211
Vthe
p212
atp213
Rp214
(dp215
g12
VDT
p216
sbag0
(g1
g2
(lp217
Vtightrope
p218
atp219
Rp220
(dp221
g12
VNN
p222
sbag0
(g1
g2
(lp223
Vwalker
p224
atp225
Rp226
(dp227
g12
VNN
p228
sbatp229
Rp230
(dp231
g12
VNP
p232
sbatp233
Rp234
(dp235
g12
VPP
p236
sbag0
(g1
g2
(lp237
V,
p238
atp239
Rp240
(dp241
g12
V,
p242
sbag0
(g1
g2
(lp243
g0
(g1
g2
(lp244
g0
(g1
g2
(lp245
Vthe
p246
atp247
Rp248
(dp249
g12
VDT
p250
sbag0
(g1
g2
(lp251
Vlady
p252
atp253
Rp254
(dp255
g12
VNN
p256
sbatp257
Rp258
(dp259
g12
VNP
p260
sbag0
(g1
g2
(lp261
g0
(g1
g2
(lp262
Von
p263
atp264
Rp265
(dp266
g12
VIN
p267
sbag0
(g1
g2
(lp268
g0
(g1
g2
(lp269
g0
(g1
g2
(lp270
Vthe
p271
atp272
Rp273
(dp274
g12
VDT
p275
sbag0
(g1
g2
(lp276
Vhorse
p277
atp278
Rp279
(dp280
g12
VNN
p281
sbatp282
Rp283
(dp284
g12
VNP
p285
sbag0
(g1
g2
(lp286
V,
p287
atp288
Rp289
(dp290
g12
V,
p291
sbag0
(g1
g2
(lp292
g0
(g1
g2
(lp293
Vthe
p294
atp295
Rp296
(dp297
g12
VDT
p298
sbag0
(g1
g2
(lp299
Vspectators
p300
atp301
Rp302
(dp303
g12
VNNS
p304
sbatp305
Rp306
(dp307
g12
VNP
p308
sbag0
(g1
g2
(lp309
V,
p310
atp311
Rp312
(dp313
g12
V,
p314
sbag0
(g1
g2
(lp315
Vand
p316
atp317
Rp318
(dp319
g12
VCC
p320
sbag0
(g1
g2
(lp321
g0
(g1
g2
(lp322
Va
p323
atp324
Rp325
(dp326
g12
VDT
p327
sbag0
(g1
g2
(lp328
Vmerry
p329
atp330
Rp331
(dp332
g12
VJJ
p333
sbag0
(g1
g2
(lp334
Vgo
p335
atp336
Rp337
(dp338
g12
VNN
p339
sbag0
(g1
g2
(lp340
Vround
p341
atp342
Rp343
(dp344
g12
VNN
p345
sbatp346
Rp347
(dp348
g12
VNP
p349
sbatp350
Rp351
(dp352
g12
VNP
p353
sbatp354
Rp355
(dp356
g12
VPP
p357
sbatp358
Rp359
(dp360
g12
VNP
p361
sbag0
(g1
g2
(lp362
V,
p363
atp364
Rp365
(dp366
g12
V,
p367
sbag0
(g1
g2
(lp368
Vor
p369
atp370
Rp371
(dp372
g12
VCC
p373
sbag0
(g1
g2
(lp374
g0
(g1
g2
(lp375
g0
(g1
g2
(lp376
Vthe
p377
atp378
Rp379
(dp380
g12
VDT
p381
sbag0
(g1
g2
(lp382
Vlion
p383
atp384
Rp385
(dp386
g12
VNN
p387
sbatp388
Rp389
(dp390
g12
VNP
p391
sbag0
(g1
g2
(lp392
g0
(g1
g2
(lp393
Vtamer
p394
atp395
Rp396
(dp397
g12
VJJR
p398
sbatp399
Rp400
(dp401
g12
VNP
p402
sbatp403
Rp404
(dp405
g12
VNP
p406
sbatp407
Rp408
(dp409
g12
VNP
p410
sbatp411
Rp412
(dp413
g12
VPP
p414
sbag0
(g1
g2
(lp415
V.
p416
atp417
Rp418
(dp419
g12
V.
p420
sbatp421
Rp422
(dp423
g12
VFRAG
p424
sbatp425
Rp426
(dp427
g12
S'id: 2'
p428
sbag0
(g1
g2
(lp429
g0
(g1
g2
(lp430
g0
(g1
g2
(lp431
VAnd
p432
atp433
Rp434
(dp435
g12
VCC
p436
sbag0
(g1
g2
(lp437
V,
p438
atp439
Rp440
(dp441
g12
V,
p442
sbag0
(g1
g2
(lp443
g0
(g1
g2
(lp444
g0
(g1
g2
(lp445
g0
(g1
g2
(lp446
Vthe
p447
atp448
Rp449
(dp450
g12
VDT
p451
sbag0
(g1
g2
(lp452
Vlittle
p453
atp454
Rp455
(dp456
g12
VJJ
p457
sbag0
(g1
g2
(lp458
Vgirl
p459
atp460
Rp461
(dp462
g12
VNN
p463
sbatp464
Rp465
(dp466
g12
VNP
p467
sbag0
(g1
g2
(lp468
g0
(g1
g2
(lp469
Vis
p470
atp471
Rp472
(dp473
g12
VVBZ
p474
sbag0
(g1
g2
(lp475
g0
(g1
g2
(lp476
Vwatching
p477
atp478
Rp479
(dp480
g12
VVBG
p481
sbag0
(g1
g2
(lp482
g0
(g1
g2
(lp483
Vbozo
p484
atp485
Rp486
(dp487
g12
VNN
p488
sbatp489
Rp490
(dp491
g12
VNP
p492
sbatp493
Rp494
(dp495
g12
VVP
p496
sbatp497
Rp498
(dp499
g12
VVP
p500
sbatp501
Rp502
(dp503
g12
VS
p504
sbag0
(g1
g2
(lp505
V,
p506
atp507
Rp508
(dp509
g12
V,
p510
sbag0
(g1
g2
(lp511
Vand
p512
atp513
Rp514
(dp515
g12
VCC
p516
sbag0
(g1
g2
(lp517
g0
(g1
g2
(lp518
g0
(g1
g2
(lp519
Vthe
p520
atp521
Rp522
(dp523
g12
VDT
p524
sbag0
(g1
g2
(lp525
Vlittle
p526
atp527
Rp528
(dp529
g12
VJJ
p530
sbag0
(g1
g2
(lp531
Vboy
p532
atp533
Rp534
(dp535
g12
VNN
p536
sbatp537
Rp538
(dp539
g12
VNP
p540
sbag0
(g1
g2
(lp541
g0
(g1
g2
(lp542
Vis
p543
atp544
Rp545
(dp546
g12
VVBZ
p547
sbag0
(g1
g2
(lp548
g0
(g1
g2
(lp549
Vpushing
p550
atp551
Rp552
(dp553
g12
VVBG
p554
sbag0
(g1
g2
(lp555
g0
(g1
g2
(lp556
Vsomething
p557
atp558
Rp559
(dp560
g12
VNN
p561
sbatp562
Rp563
(dp564
g12
VNP
p565
sbatp566
Rp567
(dp568
g12
VVP
p569
sbatp570
Rp571
(dp572
g12
VVP
p573
sbatp574
Rp575
(dp576
g12
VS
p577
sbatp578
Rp579
(dp580
g12
VS
p581
sbag0
(g1
g2
(lp582
V.
p583
atp584
Rp585
(dp586
g12
V.
p587
sbatp588
Rp589
(dp590
g12
VS
p591
sbatp592
Rp593
(dp594
g12
S'id: 3'
p595
sbag0
(g1
g2
(lp596
g0
(g1
g2
(lp597
g0
(g1
g2
(lp598
g0
(g1
g2
(lp599
g0
(g1
g2
(lp600
VLooks
p601
atp602
Rp603
(dp604
g12
VVBZ
p605
sbag0
(g1
g2
(lp606
g0
(g1
g2
(lp607
Vto
p608
atp609
Rp610
(dp611
g12
VTO
p612
sbag0
(g1
g2
(lp613
g0
(g1
g2
(lp614
Vme
p615
atp616
Rp617
(dp618
g12
VPRP
p619
sbatp620
Rp621
(dp622
g12
VNP
p623
sbatp624
Rp625
(dp626
g12
VPP
p627
sbag0
(g1
g2
(lp628
g0
(g1
g2
(lp629
Vlike
p630
atp631
Rp632
(dp633
g12
VIN
p634
sbag0
(g1
g2
(lp635
g0
(g1
g2
(lp636
Veverybody
p637
atp638
Rp639
(dp640
g12
VNN
p641
sbatp642
Rp643
(dp644
g12
VNP
p645
sbatp646
Rp647
(dp648
g12
VPP
p649
sbatp650
Rp651
(dp652
g12
VVP
p653
sbatp654
Rp655
(dp656
g12
VS
p657
sbag0
(g1
g2
(lp658
g0
(g1
g2
(lp659
Vis
p660
atp661
Rp662
(dp663
g12
VVBZ
p664
sbag0
(g1
g2
(lp665
g0
(g1
g2
(lp666
Vhaving
p667
atp668
Rp669
(dp670
g12
VVBG
p671
sbag0
(g1
g2
(lp672
g0
(g1
g2
(lp673
Va
p674
atp675
Rp676
(dp677
g12
VDT
p678
sbag0
(g1
g2
(lp679
Vgood
p680
atp681
Rp682
(dp683
g12
VJJ
p684
sbag0
(g1
g2
(lp685
Vtime
p686
atp687
Rp688
(dp689
g12
VNN
p690
sbatp691
Rp692
(dp693
g12
VNP
p694
sbatp695
Rp696
(dp697
g12
VVP
p698
sbatp699
Rp700
(dp701
g12
VVP
p702
sbag0
(g1
g2
(lp703
V.
p704
atp705
Rp706
(dp707
g12
V.
p708
sbatp709
Rp710
(dp711
g12
VS
p712
sbatp713
Rp714
(dp715
g12
S'id: 4'
p716
sbag0
(g1
g2
(lp717
g0
(g1
g2
(lp718
g0
(g1
g2
(lp719
g0
(g1
g2
(lp720
g0
(g1
g2
(lp721
VBozo
p722
atp723
Rp724
(dp725
g12
VNNP
p726
sbag0
(g1
g2
(lp727
V,
p728
atp729
Rp730
(dp731
g12
V,
p732
sbag0
(g1
g2
(lp733
VBozo
p734
atp735
Rp736
(dp737
g12
VNNP
p738
sbatp739
Rp740
(dp741
g12
VNP
p742
sbag0
(g1
g2
(lp743
g0
(g1
g2
(lp744
Vis
p745
atp746
Rp747
(dp748
g12
VVBZ
p749
sbag0
(g1
g2
(lp750
g0
(g1
g2
(lp751
Vflipping
p752
atp753
Rp754
(dp755
g12
VVBG
p756
sbag0
(g1
g2
(lp757
g0
(g1
g2
(lp758
Von
p759
atp760
Rp761
(dp762
g12
VIN
p763
sbag0
(g1
g2
(lp764
g0
(g1
g2
(lp765
Vsomething
p766
atp767
Rp768
(dp769
g12
VNN
p770
sbatp771
Rp772
(dp773
g12
VNP
p774
sbatp775
Rp776
(dp777
g12
VPP
p778
sbatp779
Rp780
(dp781
g12
VVP
p782
sbatp783
Rp784
(dp785
g12
VVP
p786
sbatp787
Rp788
(dp789
g12
VS
p790
sbag0
(g1
g2
(lp791
V,
p792
atp793
Rp794
(dp795
g12
V,
p796
sbag0
(g1
g2
(lp797
g0
(g1
g2
(lp798
VI
p799
atp800
Rp801
(dp802
g12
VPRP
p803
sbatp804
Rp805
(dp806
g12
VNP
p807
sbag0
(g1
g2
(lp808
g0
(g1
g2
(lp809
Vcant
p810
atp811
Rp812
(dp813
g12
VVBP
p814
sbag0
(g1
g2
(lp815
g0
(g1
g2
(lp816
Vtell
p817
atp818
Rp819
(dp820
g12
VVB
p821
sbag0
(g1
g2
(lp822
g0
(g1
g2
(lp823
g0
(g1
g2
(lp824
Vwhat
p825
atp826
Rp827
(dp828
g12
VWP
p829
sbatp830
Rp831
(dp832
g12
VWHNP
p833
sbag0
(g1
g2
(lp834
g0
(g1
g2
(lp835
g0
(g1
g2
(lp836
Vthat
p837
atp838
Rp839
(dp840
g12
VDT
p841
sbatp842
Rp843
(dp844
g12
VNP
p845
sbag0
(g1
g2
(lp846
g0
(g1
g2
(lp847
Vis
p848
atp849
Rp850
(dp851
g12
VVBZ
p852
sbag0
(g1
g2
(lp853
V,
p854
atp855
Rp856
(dp857
g12
V,
p858
sbag0
(g1
g2
(lp859
g0
(g1
g2
(lp860
g0
(g1
g2
(lp861
g0
(g1
g2
(lp862
Vlooks
p863
atp864
Rp865
(dp866
g12
VVBZ
p867
sbag0
(g1
g2
(lp868
g0
(g1
g2
(lp869
Vto
p870
atp871
Rp872
(dp873
g12
VTO
p874
sbag0
(g1
g2
(lp875
g0
(g1
g2
(lp876
Vme
p877
atp878
Rp879
(dp880
g12
VPRP
p881
sbatp882
Rp883
(dp884
g12
VNP
p885
sbatp886
Rp887
(dp888
g12
VPP
p889
sbag0
(g1
g2
(lp890
g0
(g1
g2
(lp891
Vlike
p892
atp893
Rp894
(dp895
g12
VIN
p896
sbag0
(g1
g2
(lp897
g0
(g1
g2
(lp898
g0
(g1
g2
(lp899
Vmaybe
p900
atp901
Rp902
(dp903
g12
VRB
p904
sbatp905
Rp906
(dp907
g12
VADVP
p908
sbag0
(g1
g2
(lp909
g0
(g1
g2
(lp910
Vhe
p911
atp912
Rp913
(dp914
g12
VPRP
p915
sbatp916
Rp917
(dp918
g12
VNP
p919
sbag0
(g1
g2
(lp920
g0
(g1
g2
(lp921
V's
p922
atp923
Rp924
(dp925
g12
VVBZ
p926
sbag0
(g1
g2
(lp927
g0
(g1
g2
(lp928
Vthrowing
p929
atp930
Rp931
(dp932
g12
VVBG
p933
sbag0
(g1
g2
(lp934
g0
(g1
g2
(lp935
g0
(g1
g2
(lp936
Vthem
p937
atp938
Rp939
(dp940
g12
VPRP
p941
sbatp942
Rp943
(dp944
g12
VNP
p945
sbag0
(g1
g2
(lp946
g0
(g1
g2
(lp947
Vsome
p948
atp949
Rp950
(dp951
g12
VDT
p952
sbag0
(g1
g2
(lp953
Vpepper
p954
atp955
Rp956
(dp957
g12
VNN
p958
sbag0
(g1
g2
(lp959
Vmints
p960
atp961
Rp962
(dp963
g12
VNNS
p964
sbatp965
Rp966
(dp967
g12
VNP
p968
sbatp969
Rp970
(dp971
g12
VS
p972
sbatp973
Rp974
(dp975
g12
VVP
p976
sbatp977
Rp978
(dp979
g12
VVP
p980
sbatp981
Rp982
(dp983
g12
VS
p984
sbatp985
Rp986
(dp987
g12
VSBAR
p988
sbatp989
Rp990
(dp991
g12
VVP
p992
sbatp993
Rp994
(dp995
g12
VS
p996
sbatp997
Rp998
(dp999
g12
VSBAR
p1000
sbatp1001
Rp1002
(dp1003
g12
VVP
p1004
sbatp1005
Rp1006
(dp1007
g12
VS
p1008
sbatp1009
Rp1010
(dp1011
g12
VSBAR
p1012
sbatp1013
Rp1014
(dp1015
g12
VVP
p1016
sbatp1017
Rp1018
(dp1019
g12
VVP
p1020
sbag0
(g1
g2
(lp1021
V.
p1022
atp1023
Rp1024
(dp1025
g12
V.
p1026
sbatp1027
Rp1028
(dp1029
g12
VS
p1030
sbatp1031
Rp1032
(dp1033
g12
S'id: 5'
p1034
sbag0
(g1
g2
(lp1035
g0
(g1
g2
(lp1036
g0
(g1
g2
(lp1037
VAnd
p1038
atp1039
Rp1040
(dp1041
g12
VCC
p1042
sbag0
(g1
g2
(lp1043
g0
(g1
g2
(lp1044
g0
(g1
g2
(lp1045
Vthe
p1046
atp1047
Rp1048
(dp1049
g12
VDT
p1050
sbag0
(g1
g2
(lp1051
Vlittle
p1052
atp1053
Rp1054
(dp1055
g12
VJJ
p1056
sbag0
(g1
g2
(lp1057
Vgirl
p1058
atp1059
Rp1060
(dp1061
g12
VNN
p1062
sbatp1063
Rp1064
(dp1065
g12
VNP
p1066
sbag0
(g1
g2
(lp1067
Vin
p1068
atp1069
Rp1070
(dp1071
g12
VIN
p1072
sbag0
(g1
g2
(lp1073
g0
(g1
g2
(lp1074
g0
(g1
g2
(lp1075
Vthe
p1076
atp1077
Rp1078
(dp1079
g12
VDT
p1080
sbag0
(g1
g2
(lp1081
Vmother
p1082
atp1083
Rp1084
(dp1085
g12
VNN
p1086
sbag0
(g1
g2
(lp1087
V's
p1088
atp1089
Rp1090
(dp1091
g12
VPOS
p1092
sbatp1093
Rp1094
(dp1095
g12
VNP
p1096
sbag0
(g1
g2
(lp1097
Varms
p1098
atp1099
Rp1100
(dp1101
g12
VNNS
p1102
sbatp1103
Rp1104
(dp1105
g12
VNP
p1106
sbatp1107
Rp1108
(dp1109
g12
VPP
p1110
sbag0
(g1
g2
(lp1111
V,
p1112
atp1113
Rp1114
(dp1115
g12
V,
p1116
sbag0
(g1
g2
(lp1117
g0
(g1
g2
(lp1118
Vshe
p1119
atp1120
Rp1121
(dp1122
g12
VPRP
p1123
sbatp1124
Rp1125
(dp1126
g12
VNP
p1127
sbag0
(g1
g2
(lp1128
g0
(g1
g2
(lp1129
Vis
p1130
atp1131
Rp1132
(dp1133
g12
VVBZ
p1134
sbag0
(g1
g2
(lp1135
g0
(g1
g2
(lp1136
Vwaiting
p1137
atp1138
Rp1139
(dp1140
g12
VVBG
p1141
sbag0
(g1
g2
(lp1142
g0
(g1
g2
(lp1143
g0
(g1
g2
(lp1144
Vto
p1145
atp1146
Rp1147
(dp1148
g12
VTO
p1149
sbag0
(g1
g2
(lp1150
g0
(g1
g2
(lp1151
Vget
p1152
atp1153
Rp1154
(dp1155
g12
VVB
p1156
sbag0
(g1
g2
(lp1157
g0
(g1
g2
(lp1158
g0
(g1
g2
(lp1159
Vsome
p1160
atp1161
Rp1162
(dp1163
g12
VDT
p1164
sbatp1165
Rp1166
(dp1167
g12
VNP
p1168
sbag0
(g1
g2
(lp1169
g0
(g1
g2
(lp1170
Vherself
p1171
atp1172
Rp1173
(dp1174
g12
VPRP
p1175
sbatp1176
Rp1177
(dp1178
g12
VNP
p1179
sbatp1180
Rp1181
(dp1182
g12
VS
p1183
sbatp1184
Rp1185
(dp1186
g12
VVP
p1187
sbatp1188
Rp1189
(dp1190
g12
VVP
p1191
sbatp1192
Rp1193
(dp1194
g12
VS
p1195
sbatp1196
Rp1197
(dp1198
g12
VVP
p1199
sbatp1200
Rp1201
(dp1202
g12
VVP
p1203
sbag0
(g1
g2
(lp1204
V.
p1205
atp1206
Rp1207
(dp1208
g12
V.
p1209
sbatp1210
Rp1211
(dp1212
g12
VS
p1213
sbatp1214
Rp1215
(dp1216
g12
S'id: 6'
p1217
sbag0
(g1
g2
(lp1218
g0
(g1
g2
(lp1219
g0
(g1
g2
(lp1220
g0
(g1
g2
(lp1221
VLooks
p1222
atp1223
Rp1224
(dp1225
g12
VVBZ
p1226
sbag0
(g1
g2
(lp1227
g0
(g1
g2
(lp1228
Vto
p1229
atp1230
Rp1231
(dp1232
g12
VTO
p1233
sbag0
(g1
g2
(lp1234
g0
(g1
g2
(lp1235
Vme
p1236
atp1237
Rp1238
(dp1239
g12
VPRP
p1240
sbatp1241
Rp1242
(dp1243
g12
VNP
p1244
sbatp1245
Rp1246
(dp1247
g12
VPP
p1248
sbag0
(g1
g2
(lp1249
g0
(g1
g2
(lp1250
Vlike
p1251
atp1252
Rp1253
(dp1254
g12
VIN
p1255
sbag0
(g1
g2
(lp1256
g0
(g1
g2
(lp1257
g0
(g1
g2
(lp1258
Vjust
p1259
atp1260
Rp1261
(dp1262
g12
VRB
p1263
sbag0
(g1
g2
(lp1264
Va
p1265
atp1266
Rp1267
(dp1268
g12
VDT
p1269
sbag0
(g1
g2
(lp1270
Vtypical
p1271
atp1272
Rp1273
(dp1274
g12
VJJ
p1275
sbag0
(g1
g2
(lp1276
Vcircus
p1277
atp1278
Rp1279
(dp1280
g12
VNN
p1281
sbag0
(g1
g2
(lp1282
Vtype
p1283
atp1284
Rp1285
(dp1286
g12
VNN
p1287
sbag0
(g1
g2
(lp1288
Vselling
p1289
atp1290
Rp1291
(dp1292
g12
VNN
p1293
sbatp1294
Rp1295
(dp1296
g12
VNP
p1297
sbag0
(g1
g2
(lp1298
V,
p1299
atp1300
Rp1301
(dp1302
g12
V,
p1303
sbag0
(g1
g2
(lp1304
g0
(g1
g2
(lp1305
Vsetting
p1306
atp1307
Rp1308
(dp1309
g12
VNN
p1310
sbatp1311
Rp1312
(dp1313
g12
VNP
p1314
sbatp1315
Rp1316
(dp1317
g12
VNP
p1318
sbatp1319
Rp1320
(dp1321
g12
VPP
p1322
sbatp1323
Rp1324
(dp1325
g12
VVP
p1326
sbag0
(g1
g2
(lp1327
V.
p1328
atp1329
Rp1330
(dp1331
g12
V.
p1332
sbatp1333
Rp1334
(dp1335
g12
VS
p1336
sbatp1337
Rp1338
(dp1339
g12
S'id: 7'
p1340
sbag0
(g1
g2
(lp1341
g0
(g1
g2
(lp1342
g0
(g1
g2
(lp1343
g0
(g1
g2
(lp1344
VI
p1345
atp1346
Rp1347
(dp1348
g12
VPRP
p1349
sbatp1350
Rp1351
(dp1352
g12
VNP
p1353
sbag0
(g1
g2
(lp1354
g0
(g1
g2
(lp1355
Vca
p1356
atp1357
Rp1358
(dp1359
g12
VMD
p1360
sbag0
(g1
g2
(lp1361
Vn't
p1362
atp1363
Rp1364
(dp1365
g12
VRB
p1366
sbag0
(g1
g2
(lp1367
g0
(g1
g2
(lp1368
Vtell
p1369
atp1370
Rp1371
(dp1372
g12
VVB
p1373
sbag0
(g1
g2
(lp1374
g0
(g1
g2
(lp1375
Vwhether
p1376
atp1377
Rp1378
(dp1379
g12
VIN
p1380
sbag0
(g1
g2
(lp1381
g0
(g1
g2
(lp1382
g0
(g1
g2
(lp1383
Vthat
p1384
atp1385
Rp1386
(dp1387
g12
VDT
p1388
sbatp1389
Rp1390
(dp1391
g12
VNP
p1392
sbag0
(g1
g2
(lp1393
g0
(g1
g2
(lp1394
V's
p1395
atp1396
Rp1397
(dp1398
g12
VVBZ
p1399
sbag0
(g1
g2
(lp1400
g0
(g1
g2
(lp1401
Vunder
p1402
atp1403
Rp1404
(dp1405
g12
VIN
p1406
sbag0
(g1
g2
(lp1407
g0
(g1
g2
(lp1408
Vthe
p1409
atp1410
Rp1411
(dp1412
g12
VDT
p1413
sbag0
(g1
g2
(lp1414
Vbig
p1415
atp1416
Rp1417
(dp1418
g12
VJJ
p1419
sbag0
(g1
g2
(lp1420
Vtop
p1421
atp1422
Rp1423
(dp1424
g12
VNN
p1425
sbag0
(g1
g2
(lp1426
Vor
p1427
atp1428
Rp1429
(dp1430
g12
VCC
p1431
sbag0
(g1
g2
(lp1432
Vnot
p1433
atp1434
Rp1435
(dp1436
g12
VRB
p1437
sbatp1438
Rp1439
(dp1440
g12
VNP
p1441
sbatp1442
Rp1443
(dp1444
g12
VPP
p1445
sbatp1446
Rp1447
(dp1448
g12
VVP
p1449
sbatp1450
Rp1451
(dp1452
g12
VS
p1453
sbatp1454
Rp1455
(dp1456
g12
VSBAR
p1457
sbatp1458
Rp1459
(dp1460
g12
VVP
p1461
sbatp1462
Rp1463
(dp1464
g12
VVP
p1465
sbag0
(g1
g2
(lp1466
V.
p1467
atp1468
Rp1469
(dp1470
g12
V.
p1471
sbatp1472
Rp1473
(dp1474
g12
VS
p1475
sbatp1476
Rp1477
(dp1478
g12
S'id: 8'
p1479
sbag0
(g1
g2
(lp1480
g0
(g1
g2
(lp1481
g0
(g1
g2
(lp1482
g0
(g1
g2
(lp1483
VThe
p1484
atp1485
Rp1486
(dp1487
g12
VDT
p1488
sbatp1489
Rp1490
(dp1491
g12
VNP
p1492
sbag0
(g1
g2
(lp1493
V,
p1494
atp1495
Rp1496
(dp1497
g12
V,
p1498
sbag0
(g1
g2
(lp1499
g0
(g1
g2
(lp1500
Vthe
p1501
atp1502
Rp1503
(dp1504
g12
VDT
p1505
sbag0
(g1
g2
(lp1506
Vlion
p1507
atp1508
Rp1509
(dp1510
g12
VNN
p1511
sbatp1512
Rp1513
(dp1514
g12
VNP
p1515
sbag0
(g1
g2
(lp1516
V,
p1517
atp1518
Rp1519
(dp1520
g12
V,
p1521
sbag0
(g1
g2
(lp1522
g0
(g1
g2
(lp1523
g0
(g1
g2
(lp1524
Vhe
p1525
atp1526
Rp1527
(dp1528
g12
VPRP
p1529
sbatp1530
Rp1531
(dp1532
g12
VNP
p1533
sbag0
(g1
g2
(lp1534
g0
(g1
g2
(lp1535
V's
p1536
atp1537
Rp1538
(dp1539
g12
VVBZ
p1540
sbag0
(g1
g2
(lp1541
g0
(g1
g2
(lp1542
Vperforming
p1543
atp1544
Rp1545
(dp1546
g12
VVBG
p1547
sbag0
(g1
g2
(lp1548
g0
(g1
g2
(lp1549
Vreal
p1550
atp1551
Rp1552
(dp1553
g12
VRB
p1554
sbag0
(g1
g2
(lp1555
Vwell
p1556
atp1557
Rp1558
(dp1559
g12
VRB
p1560
sbatp1561
Rp1562
(dp1563
g12
VADVP
p1564
sbag0
(g1
g2
(lp1565
g0
(g1
g2
(lp1566
Vfor
p1567
atp1568
Rp1569
(dp1570
g12
VIN
p1571
sbag0
(g1
g2
(lp1572
g0
(g1
g2
(lp1573
g0
(g1
g2
(lp1574
Vthe
p1575
atp1576
Rp1577
(dp1578
g12
VDT
p1579
sbatp1580
Rp1581
(dp1582
g12
VNP
p1583
sbag0
(g1
g2
(lp1584
V,
p1585
atp1586
Rp1587
(dp1588
g12
V,
p1589
sbag0
(g1
g2
(lp1590
g0
(g1
g2
(lp1591
Vthe
p1592
atp1593
Rp1594
(dp1595
g12
VDT
p1596
sbag0
(g1
g2
(lp1597
Vtamer
p1598
atp1599
Rp1600
(dp1601
g12
VJJR
p1602
sbatp1603
Rp1604
(dp1605
g12
VNP
p1606
sbatp1607
Rp1608
(dp1609
g12
VNP
p1610
sbatp1611
Rp1612
(dp1613
g12
VPP
p1614
sbatp1615
Rp1616
(dp1617
g12
VVP
p1618
sbatp1619
Rp1620
(dp1621
g12
VVP
p1622
sbatp1623
Rp1624
(dp1625
g12
VS
p1626
sbag0
(g1
g2
(lp1627
V.
p1628
atp1629
Rp1630
(dp1631
g12
V.
p1632
sbatp1633
Rp1634
(dp1635
g12
VNP
p1636
sbatp1637
Rp1638
(dp1639
g12
S'id: 9'
p1640
sbag0
(g1
g2
(lp1641
g0
(g1
g2
(lp1642
g0
(g1
g2
(lp1643
g0
(g1
g2
(lp1644
VYou
p1645
atp1646
Rp1647
(dp1648
g12
VPRP
p1649
sbatp1650
Rp1651
(dp1652
g12
VNP
p1653
sbag0
(g1
g2
(lp1654
g0
(g1
g2
(lp1655
Vready
p1656
atp1657
Rp1658
(dp1659
g12
VJJ
p1660
sbag0
(g1
g2
(lp1661
g0
(g1
g2
(lp1662
Vfor
p1663
atp1664
Rp1665
(dp1666
g12
VIN
p1667
sbag0
(g1
g2
(lp1668
g0
(g1
g2
(lp1669
Vthe
p1670
atp1671
Rp1672
(dp1673
g12
VDT
p1674
sbag0
(g1
g2
(lp1675
Vnext
p1676
atp1677
Rp1678
(dp1679
g12
VJJ
p1680
sbag0
(g1
g2
(lp1681
Vtype
p1682
atp1683
Rp1684
(dp1685
g12
VNN
p1686
sbatp1687
Rp1688
(dp1689
g12
VNP
p1690
sbatp1691
Rp1692
(dp1693
g12
VPP
p1694
sbatp1695
Rp1696
(dp1697
g12
VADJP
p1698
sbag0
(g1
g2
(lp1699
V.
p1700
atp1701
Rp1702
(dp1703
g12
V.
p1704
sbatp1705
Rp1706
(dp1707
g12
VS
p1708
sbatp1709
Rp1710
(dp1711
g12
S'id: 10'
p1712
sbatp1713
Rp1714
(dp1715
g12
S'sentences'
p1716
sb.