ccopy_reg
_reconstructor
p0
(cnltk.tree
Tree
p1
c__builtin__
list
p2
(lp3
g0
(g1
g2
(lp4
g0
(g1
g2
(lp5
g0
(g1
g2
(lp6
g0
(g1
g2
(lp7
VCircus
p8
atp9
Rp10
(dp11
S'_label'
p12
VNNP
p13
sbatp14
Rp15
(dp16
g12
VNP
p17
sbag0
(g1
g2
(lp18
g0
(g1
g2
(lp19
Vmeets
p20
atp21
Rp22
(dp23
g12
VVBZ
p24
sbag0
(g1
g2
(lp25
g0
(g1
g2
(lp26
Vthe
p27
atp28
Rp29
(dp30
g12
VDT
p31
sbag0
(g1
g2
(lp32
Vfair
p33
atp34
Rp35
(dp36
g12
VJJ
p37
sbatp38
Rp39
(dp40
g12
VNP
p41
sbatp42
Rp43
(dp44
g12
VVP
p45
sbag0
(g1
g2
(lp46
V.
p47
atp48
Rp49
(dp50
g12
V.
p51
sbatp52
Rp53
(dp54
g12
VS
p55
sbatp56
Rp57
(dp58
g12
S'id: 0'
p59
sbag0
(g1
g2
(lp60
g0
(g1
g2
(lp61
g0
(g1
g2
(lp62
g0
(g1
g2
(lp63
VEverybody
p64
atp65
Rp66
(dp67
g12
VNN
p68
sbatp69
Rp70
(dp71
g12
VNP
p72
sbag0
(g1
g2
(lp73
g0
(g1
g2
(lp74
Vhates
p75
atp76
Rp77
(dp78
g12
VVBZ
p79
sbag0
(g1
g2
(lp80
g0
(g1
g2
(lp81
Vclowns
p82
atp83
Rp84
(dp85
g12
VNNS
p86
sbatp87
Rp88
(dp89
g12
VNP
p90
sbatp91
Rp92
(dp93
g12
VVP
p94
sbag0
(g1
g2
(lp95
V.
p96
atp97
Rp98
(dp99
g12
V.
p100
sbatp101
Rp102
(dp103
g12
VS
p104
sbatp105
Rp106
(dp107
g12
S'id: 1'
p108
sbag0
(g1
g2
(lp109
g0
(g1
g2
(lp110
g0
(g1
g2
(lp111
VAnd
p112
atp113
Rp114
(dp115
g12
VCC
p116
sbag0
(g1
g2
(lp117
g0
(g1
g2
(lp118
VI
p119
atp120
Rp121
(dp122
g12
VPRP
p123
sbatp124
Rp125
(dp126
g12
VNP
p127
sbag0
(g1
g2
(lp128
g0
(g1
g2
(lp129
Vthink
p130
atp131
Rp132
(dp133
g12
VVBP
p134
sbag0
(g1
g2
(lp135
g0
(g1
g2
(lp136
Vthat
p137
atp138
Rp139
(dp140
g12
VIN
p141
sbag0
(g1
g2
(lp142
g0
(g1
g2
(lp143
g0
(g1
g2
(lp144
Vmaking
p145
atp146
Rp147
(dp148
g12
VVBG
p149
sbag0
(g1
g2
(lp150
Vlions
p151
atp152
Rp153
(dp154
g12
VNNS
p155
sbatp156
Rp157
(dp158
g12
VNP
p159
sbag0
(g1
g2
(lp160
g0
(g1
g2
(lp161
Vdo
p162
atp163
Rp164
(dp165
g12
VVBP
p166
sbag0
(g1
g2
(lp167
g0
(g1
g2
(lp168
g0
(g1
g2
(lp169
g0
(g1
g2
(lp170
Vtricks
p171
atp172
Rp173
(dp174
g12
VNNS
p175
sbatp176
Rp177
(dp178
g12
VNP
p179
sbag0
(g1
g2
(lp180
g0
(g1
g2
(lp181
Vis
p182
atp183
Rp184
(dp185
g12
VVBZ
p186
sbag0
(g1
g2
(lp187
g0
(g1
g2
(lp188
Vtorture
p189
atp190
Rp191
(dp192
g12
VVB
p193
sbatp194
Rp195
(dp196
g12
VVP
p197
sbatp198
Rp199
(dp200
g12
VVP
p201
sbatp202
Rp203
(dp204
g12
VS
p205
sbatp206
Rp207
(dp208
g12
VSBAR
p209
sbatp210
Rp211
(dp212
g12
VVP
p213
sbatp214
Rp215
(dp216
g12
VS
p217
sbatp218
Rp219
(dp220
g12
VSBAR
p221
sbatp222
Rp223
(dp224
g12
VVP
p225
sbag0
(g1
g2
(lp226
V.
p227
atp228
Rp229
(dp230
g12
V.
p231
sbatp232
Rp233
(dp234
g12
VS
p235
sbatp236
Rp237
(dp238
g12
S'id: 2'
p239
sbag0
(g1
g2
(lp240
g0
(g1
g2
(lp241
g0
(g1
g2
(lp242
g0
(g1
g2
(lp243
g0
(g1
g2
(lp244
VIt
p245
atp246
Rp247
(dp248
g12
VPRP
p249
sbatp250
Rp251
(dp252
g12
VNP
p253
sbag0
(g1
g2
(lp254
g0
(g1
g2
(lp255
V's
p256
atp257
Rp258
(dp259
g12
VVBZ
p260
sbag0
(g1
g2
(lp261
g0
(g1
g2
(lp262
Vabusive
p263
atp264
Rp265
(dp266
g12
VJJ
p267
sbatp268
Rp269
(dp270
g12
VADJP
p271
sbatp272
Rp273
(dp274
g12
VVP
p275
sbatp276
Rp277
(dp278
g12
VS
p279
sbag0
(g1
g2
(lp280
Vand
p281
atp282
Rp283
(dp284
g12
VCC
p285
sbag0
(g1
g2
(lp286
g0
(g1
g2
(lp287
g0
(g1
g2
(lp288
Vthe
p289
atp290
Rp291
(dp292
g12
VDT
p293
sbag0
(g1
g2
(lp294
Vlion
p295
atp296
Rp297
(dp298
g12
VNN
p299
sbatp300
Rp301
(dp302
g12
VNP
p303
sbag0
(g1
g2
(lp304
g0
(g1
g2
(lp305
Vshould
p306
atp307
Rp308
(dp309
g12
VMD
p310
sbag0
(g1
g2
(lp311
g0
(g1
g2
(lp312
Vdefinitely
p313
atp314
Rp315
(dp316
g12
VRB
p317
sbatp318
Rp319
(dp320
g12
VADVP
p321
sbag0
(g1
g2
(lp322
g0
(g1
g2
(lp323
Veat
p324
atp325
Rp326
(dp327
g12
VVB
p328
sbag0
(g1
g2
(lp329
g0
(g1
g2
(lp330
g0
(g1
g2
(lp331
Vthe
p332
atp333
Rp334
(dp335
g12
VDT
p336
sbag0
(g1
g2
(lp337
Vdude
p338
atp339
Rp340
(dp341
g12
VNN
p342
sbatp343
Rp344
(dp345
g12
VNP
p346
sbag0
(g1
g2
(lp347
g0
(g1
g2
(lp348
g0
(g1
g2
(lp349
Vthat
p350
atp351
Rp352
(dp353
g12
VWDT
p354
sbatp355
Rp356
(dp357
g12
VWHNP
p358
sbag0
(g1
g2
(lp359
g0
(g1
g2
(lp360
g0
(g1
g2
(lp361
V's
p362
atp363
Rp364
(dp365
g12
VVBZ
p366
sbag0
(g1
g2
(lp367
g0
(g1
g2
(lp368
Vin
p369
atp370
Rp371
(dp372
g12
VIN
p373
sbag0
(g1
g2
(lp374
g0
(g1
g2
(lp375
Vthere
p376
atp377
Rp378
(dp379
g12
VEX
p380
sbatp381
Rp382
(dp383
g12
VNP
p384
sbatp385
Rp386
(dp387
g12
VPP
p388
sbag0
(g1
g2
(lp389
g0
(g1
g2
(lp390
Vwith
p391
atp392
Rp393
(dp394
g12
VIN
p395
sbag0
(g1
g2
(lp396
g0
(g1
g2
(lp397
Vhim
p398
atp399
Rp400
(dp401
g12
VPRP
p402
sbatp403
Rp404
(dp405
g12
VNP
p406
sbatp407
Rp408
(dp409
g12
VPP
p410
sbatp411
Rp412
(dp413
g12
VVP
p414
sbatp415
Rp416
(dp417
g12
VS
p418
sbatp419
Rp420
(dp421
g12
VSBAR
p422
sbatp423
Rp424
(dp425
g12
VNP
p426
sbatp427
Rp428
(dp429
g12
VVP
p430
sbatp431
Rp432
(dp433
g12
VVP
p434
sbatp435
Rp436
(dp437
g12
VS
p438
sbag0
(g1
g2
(lp439
V.
p440
atp441
Rp442
(dp443
g12
V.
p444
sbatp445
Rp446
(dp447
g12
VS
p448
sbatp449
Rp450
(dp451
g12
S'id: 3'
p452
sbag0
(g1
g2
(lp453
g0
(g1
g2
(lp454
g0
(g1
g2
(lp455
VAnd
p456
atp457
Rp458
(dp459
g12
VCC
p460
sbag0
(g1
g2
(lp461
g0
(g1
g2
(lp462
Vthen
p463
atp464
Rp465
(dp466
g12
VRB
p467
sbatp468
Rp469
(dp470
g12
VADVP
p471
sbag0
(g1
g2
(lp472
g0
(g1
g2
(lp473
Vwe
p474
atp475
Rp476
(dp477
g12
VPRP
p478
sbatp479
Rp480
(dp481
g12
VNP
p482
sbag0
(g1
g2
(lp483
g0
(g1
g2
(lp484
Vgo
p485
atp486
Rp487
(dp488
g12
VVBP
p489
sbag0
(g1
g2
(lp490
g0
(g1
g2
(lp491
Vto
p492
atp493
Rp494
(dp495
g12
VTO
p496
sbag0
(g1
g2
(lp497
g0
(g1
g2
(lp498
Vthe
p499
atp500
Rp501
(dp502
g12
VDT
p503
sbag0
(g1
g2
(lp504
Vcircus
p505
atp506
Rp507
(dp508
g12
VNN
p509
sbatp510
Rp511
(dp512
g12
VNP
p513
sbatp514
Rp515
(dp516
g12
VPP
p517
sbag0
(g1
g2
(lp518
g0
(g1
g2
(lp519
g0
(g1
g2
(lp520
Vwhere
p521
atp522
Rp523
(dp524
g12
VWRB
p525
sbatp526
Rp527
(dp528
g12
VWHADVP
p529
sbag0
(g1
g2
(lp530
g0
(g1
g2
(lp531
g0
(g1
g2
(lp532
Vthe
p533
atp534
Rp535
(dp536
g12
VDT
p537
sbag0
(g1
g2
(lp538
Vlady
p539
atp540
Rp541
(dp542
g12
VNN
p543
sbatp544
Rp545
(dp546
g12
VNP
p547
sbag0
(g1
g2
(lp548
g0
(g1
g2
(lp549
Vis
p550
atp551
Rp552
(dp553
g12
VVBZ
p554
sbag0
(g1
g2
(lp555
g0
(g1
g2
(lp556
Valso
p557
atp558
Rp559
(dp560
g12
VRB
p561
sbatp562
Rp563
(dp564
g12
VADVP
p565
sbag0
(g1
g2
(lp566
g0
(g1
g2
(lp567
Vabusing
p568
atp569
Rp570
(dp571
g12
VVBG
p572
sbag0
(g1
g2
(lp573
g0
(g1
g2
(lp574
Vthe
p575
atp576
Rp577
(dp578
g12
VDT
p579
sbag0
(g1
g2
(lp580
Vhorse
p581
atp582
Rp583
(dp584
g12
VNN
p585
sbatp586
Rp587
(dp588
g12
VNP
p589
sbatp590
Rp591
(dp592
g12
VVP
p593
sbatp594
Rp595
(dp596
g12
VVP
p597
sbatp598
Rp599
(dp600
g12
VS
p601
sbatp602
Rp603
(dp604
g12
VSBAR
p605
sbatp606
Rp607
(dp608
g12
VVP
p609
sbag0
(g1
g2
(lp610
V.
p611
atp612
Rp613
(dp614
g12
V.
p615
sbatp616
Rp617
(dp618
g12
VS
p619
sbatp620
Rp621
(dp622
g12
S'id: 4'
p623
sbag0
(g1
g2
(lp624
g0
(g1
g2
(lp625
g0
(g1
g2
(lp626
VAnd
p627
atp628
Rp629
(dp630
g12
VCC
p631
sbag0
(g1
g2
(lp632
g0
(g1
g2
(lp633
Vthere
p634
atp635
Rp636
(dp637
g12
VEX
p638
sbatp639
Rp640
(dp641
g12
VNP
p642
sbag0
(g1
g2
(lp643
g0
(g1
g2
(lp644
V's
p645
atp646
Rp647
(dp648
g12
VVBZ
p649
sbag0
(g1
g2
(lp650
g0
(g1
g2
(lp651
Va
p652
atp653
Rp654
(dp655
g12
VDT
p656
sbag0
(g1
g2
(lp657
Vtrapeze
p658
atp659
Rp660
(dp661
g12
VNN
p662
sbag0
(g1
g2
(lp663
Vguy
p664
atp665
Rp666
(dp667
g12
VNN
p668
sbatp669
Rp670
(dp671
g12
VNP
p672
sbag0
(g1
g2
(lp673
V,
p674
atp675
Rp676
(dp677
g12
V,
p678
sbag0
(g1
g2
(lp679
g0
(g1
g2
(lp680
g0
(g1
g2
(lp681
Vkeeping
p682
atp683
Rp684
(dp685
g12
VVBG
p686
sbag0
(g1
g2
(lp687
g0
(g1
g2
(lp688
Vhis
p689
atp690
Rp691
(dp692
g12
VPRP$
p693
sbag0
(g1
g2
(lp694
Vbalance
p695
atp696
Rp697
(dp698
g12
VNN
p699
sbatp700
Rp701
(dp702
g12
VNP
p703
sbag0
(g1
g2
(lp704
g0
(g1
g2
(lp705
Vwith
p706
atp707
Rp708
(dp709
g12
VIN
p710
sbag0
(g1
g2
(lp711
g0
(g1
g2
(lp712
Va
p713
atp714
Rp715
(dp716
g12
VDT
p717
sbag0
(g1
g2
(lp718
Vpole
p719
atp720
Rp721
(dp722
g12
VNN
p723
sbatp724
Rp725
(dp726
g12
VNP
p727
sbatp728
Rp729
(dp730
g12
VPP
p731
sbatp732
Rp733
(dp734
g12
VVP
p735
sbatp736
Rp737
(dp738
g12
VS
p739
sbatp740
Rp741
(dp742
g12
VVP
p743
sbag0
(g1
g2
(lp744
V.
p745
atp746
Rp747
(dp748
g12
V.
p749
sbatp750
Rp751
(dp752
g12
VS
p753
sbatp754
Rp755
(dp756
g12
S'id: 5'
p757
sbag0
(g1
g2
(lp758
g0
(g1
g2
(lp759
g0
(g1
g2
(lp760
g0
(g1
g2
(lp761
g0
(g1
g2
(lp762
VThere
p763
atp764
Rp765
(dp766
g12
VEX
p767
sbatp768
Rp769
(dp770
g12
VNP
p771
sbag0
(g1
g2
(lp772
g0
(g1
g2
(lp773
Vlooks
p774
atp775
Rp776
(dp777
g12
VVBZ
p778
sbag0
(g1
g2
(lp779
g0
(g1
g2
(lp780
Vlike
p781
atp782
Rp783
(dp784
g12
VIN
p785
sbag0
(g1
g2
(lp786
g0
(g1
g2
(lp787
g0
(g1
g2
(lp788
Vthere
p789
atp790
Rp791
(dp792
g12
VEX
p793
sbatp794
Rp795
(dp796
g12
VNP
p797
sbag0
(g1
g2
(lp798
g0
(g1
g2
(lp799
Vmight
p800
atp801
Rp802
(dp803
g12
VMD
p804
sbag0
(g1
g2
(lp805
g0
(g1
g2
(lp806
Veven
p807
atp808
Rp809
(dp810
g12
VRB
p811
sbatp812
Rp813
(dp814
g12
VADVP
p815
sbag0
(g1
g2
(lp816
g0
(g1
g2
(lp817
Vbe
p818
atp819
Rp820
(dp821
g12
VVB
p822
sbag0
(g1
g2
(lp823
g0
(g1
g2
(lp824
Vsome
p825
atp826
Rp827
(dp828
g12
VDT
p829
sbag0
(g1
g2
(lp830
Vbirds
p831
atp832
Rp833
(dp834
g12
VNNS
p835
sbatp836
Rp837
(dp838
g12
VNP
p839
sbatp840
Rp841
(dp842
g12
VVP
p843
sbatp844
Rp845
(dp846
g12
VVP
p847
sbatp848
Rp849
(dp850
g12
VS
p851
sbatp852
Rp853
(dp854
g12
VSBAR
p855
sbatp856
Rp857
(dp858
g12
VVP
p859
sbatp860
Rp861
(dp862
g12
VS
p863
sbag0
(g1
g2
(lp864
V,
p865
atp866
Rp867
(dp868
g12
V,
p869
sbag0
(g1
g2
(lp870
Vso
p871
atp872
Rp873
(dp874
g12
VIN
p875
sbag0
(g1
g2
(lp876
g0
(g1
g2
(lp877
g0
(g1
g2
(lp878
Vthey
p879
atp880
Rp881
(dp882
g12
VPRP
p883
sbatp884
Rp885
(dp886
g12
VNP
p887
sbag0
(g1
g2
(lp888
g0
(g1
g2
(lp889
Vpossibly
p890
atp891
Rp892
(dp893
g12
VRB
p894
sbatp895
Rp896
(dp897
g12
VADVP
p898
sbag0
(g1
g2
(lp899
g0
(g1
g2
(lp900
Vmight
p901
atp902
Rp903
(dp904
g12
VMD
p905
sbag0
(g1
g2
(lp906
g0
(g1
g2
(lp907
Vbe
p908
atp909
Rp910
(dp911
g12
VVB
p912
sbag0
(g1
g2
(lp913
g0
(g1
g2
(lp914
Voutside
p915
atp916
Rp917
(dp918
g12
VJJ
p919
sbatp920
Rp921
(dp922
g12
VADVP
p923
sbatp924
Rp925
(dp926
g12
VVP
p927
sbatp928
Rp929
(dp930
g12
VVP
p931
sbatp932
Rp933
(dp934
g12
VS
p935
sbag0
(g1
g2
(lp936
V.
p937
atp938
Rp939
(dp940
g12
V.
p941
sbatp942
Rp943
(dp944
g12
VS
p945
sbatp946
Rp947
(dp948
g12
S'id: 6'
p949
sbag0
(g1
g2
(lp950
g0
(g1
g2
(lp951
g0
(g1
g2
(lp952
VAnd
p953
atp954
Rp955
(dp956
g12
VCC
p957
sbag0
(g1
g2
(lp958
g0
(g1
g2
(lp959
g0
(g1
g2
(lp960
Vthe
p961
atp962
Rp963
(dp964
g12
VDT
p965
sbag0
(g1
g2
(lp966
Vchildren
p967
atp968
Rp969
(dp970
g12
VNNS
p971
sbatp972
Rp973
(dp974
g12
VNP
p975
sbag0
(g1
g2
(lp976
g0
(g1
g2
(lp977
Vwith
p978
atp979
Rp980
(dp981
g12
VIN
p982
sbag0
(g1
g2
(lp983
g0
(g1
g2
(lp984
g0
(g1
g2
(lp985
Vtheir
p986
atp987
Rp988
(dp989
g12
VPRP$
p990
sbag0
(g1
g2
(lp991
Vmother
p992
atp993
Rp994
(dp995
g12
VNN
p996
sbatp997
Rp998
(dp999
g12
VNP
p1000
sbag0
(g1
g2
(lp1001
V,
p1002
atp1003
Rp1004
(dp1005
g12
V,
p1006
sbag0
(g1
g2
(lp1007
Vor
p1008
atp1009
Rp1010
(dp1011
g12
VCC
p1012
sbag0
(g1
g2
(lp1013
Vprobably
p1014
atp1015
Rp1016
(dp1017
g12
VRB
p1018
sbag0
(g1
g2
(lp1019
g0
(g1
g2
(lp1020
Vtheir
p1021
atp1022
Rp1023
(dp1024
g12
VPRP$
p1025
sbag0
(g1
g2
(lp1026
Vgrandmother
p1027
atp1028
Rp1029
(dp1030
g12
VNN
p1031
sbatp1032
Rp1033
(dp1034
g12
VNP
p1035
sbag0
(g1
g2
(lp1036
V,
p1037
atp1038
Rp1039
(dp1040
g12
V,
p1041
sbatp1042
Rp1043
(dp1044
g12
VNP
p1045
sbatp1046
Rp1047
(dp1048
g12
VPP
p1049
sbag0
(g1
g2
(lp1050
g0
(g1
g2
(lp1051
V'cause
p1052
atp1053
Rp1054
(dp1055
g12
VIN
p1056
sbag0
(g1
g2
(lp1057
g0
(g1
g2
(lp1058
g0
(g1
g2
(lp1059
Vnobody
p1060
atp1061
Rp1062
(dp1063
g12
VNN
p1064
sbag0
(g1
g2
(lp1065
V's
p1066
atp1067
Rp1068
(dp1069
g12
VPOS
p1070
sbatp1071
Rp1072
(dp1073
g12
VNP
p1074
sbag0
(g1
g2
(lp1075
Vmother
p1076
atp1077
Rp1078
(dp1079
g12
VNN
p1080
sbatp1081
Rp1082
(dp1083
g12
VNP
p1084
sbatp1085
Rp1086
(dp1087
g12
VPP
p1088
sbatp1089
Rp1090
(dp1091
g12
VNP
p1092
sbag0
(g1
g2
(lp1093
g0
(g1
g2
(lp1094
Vhas
p1095
atp1096
Rp1097
(dp1098
g12
VVBZ
p1099
sbag0
(g1
g2
(lp1100
g0
(g1
g2
(lp1101
Vtime
p1102
atp1103
Rp1104
(dp1105
g12
VNN
p1106
sbag0
(g1
g2
(lp1107
g0
(g1
g2
(lp1108
g0
(g1
g2
(lp1109
Vto
p1110
atp1111
Rp1112
(dp1113
g12
VTO
p1114
sbag0
(g1
g2
(lp1115
g0
(g1
g2
(lp1116
Vtake
p1117
atp1118
Rp1119
(dp1120
g12
VVB
p1121
sbag0
(g1
g2
(lp1122
g0
(g1
g2
(lp1123
Vthem
p1124
atp1125
Rp1126
(dp1127
g12
VPRP
p1128
sbatp1129
Rp1130
(dp1131
g12
VNP
p1132
sbag0
(g1
g2
(lp1133
g0
(g1
g2
(lp1134
Vanywhere
p1135
atp1136
Rp1137
(dp1138
g12
VRB
p1139
sbatp1140
Rp1141
(dp1142
g12
VADVP
p1143
sbatp1144
Rp1145
(dp1146
g12
VVP
p1147
sbatp1148
Rp1149
(dp1150
g12
VVP
p1151
sbatp1152
Rp1153
(dp1154
g12
VS
p1155
sbatp1156
Rp1157
(dp1158
g12
VNP
p1159
sbatp1160
Rp1161
(dp1162
g12
VVP
p1163
sbag0
(g1
g2
(lp1164
V.
p1165
atp1166
Rp1167
(dp1168
g12
V.
p1169
sbatp1170
Rp1171
(dp1172
g12
VS
p1173
sbatp1174
Rp1175
(dp1176
g12
S'id: 7'
p1177
sbag0
(g1
g2
(lp1178
g0
(g1
g2
(lp1179
g0
(g1
g2
(lp1180
VAnd
p1181
atp1182
Rp1183
(dp1184
g12
VCC
p1185
sbag0
(g1
g2
(lp1186
g0
(g1
g2
(lp1187
Vthen
p1188
atp1189
Rp1190
(dp1191
g12
VRB
p1192
sbatp1193
Rp1194
(dp1195
g12
VADVP
p1196
sbag0
(g1
g2
(lp1197
g0
(g1
g2
(lp1198
Vthere
p1199
atp1200
Rp1201
(dp1202
g12
VEX
p1203
sbatp1204
Rp1205
(dp1206
g12
VNP
p1207
sbag0
(g1
g2
(lp1208
g0
(g1
g2
(lp1209
V's
p1210
atp1211
Rp1212
(dp1213
g12
VVBZ
p1214
sbag0
(g1
g2
(lp1215
g0
(g1
g2
(lp1216
g0
(g1
g2
(lp1217
Vpossibly
p1218
atp1219
Rp1220
(dp1221
g12
VRB
p1222
sbag0
(g1
g2
(lp1223
Vsome
p1224
atp1225
Rp1226
(dp1227
g12
VDT
p1228
sbag0
(g1
g2
(lp1229
Vblack
p1230
atp1231
Rp1232
(dp1233
g12
VJJ
p1234
sbatp1235
Rp1236
(dp1237
g12
VNP
p1238
sbag0
(g1
g2
(lp1239
V,
p1240
atp1241
Rp1242
(dp1243
g12
V,
p1244
sbag0
(g1
g2
(lp1245
g0
(g1
g2
(lp1246
g0
(g1
g2
(lp1247
Va
p1248
atp1249
Rp1250
(dp1251
g12
VDT
p1252
sbag0
(g1
g2
(lp1253
Vblack
p1254
atp1255
Rp1256
(dp1257
g12
VJJ
p1258
sbag0
(g1
g2
(lp1259
Vman
p1260
atp1261
Rp1262
(dp1263
g12
VNN
p1264
sbatp1265
Rp1266
(dp1267
g12
VNP
p1268
sbag0
(g1
g2
(lp1269
g0
(g1
g2
(lp1270
Vwith
p1271
atp1272
Rp1273
(dp1274
g12
VIN
p1275
sbag0
(g1
g2
(lp1276
g0
(g1
g2
(lp1277
Vhis
p1278
atp1279
Rp1280
(dp1281
g12
VPRP$
p1282
sbag0
(g1
g2
(lp1283
Vdaughter
p1284
atp1285
Rp1286
(dp1287
g12
VNN
p1288
sbatp1289
Rp1290
(dp1291
g12
VNP
p1292
sbatp1293
Rp1294
(dp1295
g12
VPP
p1296
sbatp1297
Rp1298
(dp1299
g12
VNP
p1300
sbag0
(g1
g2
(lp1301
V,
p1302
atp1303
Rp1304
(dp1305
g12
V,
p1306
sbatp1307
Rp1308
(dp1309
g12
VNP
p1310
sbag0
(g1
g2
(lp1311
g0
(g1
g2
(lp1312
Vmaybe
p1313
atp1314
Rp1315
(dp1316
g12
VRB
p1317
sbatp1318
Rp1319
(dp1320
g12
VADVP
p1321
sbatp1322
Rp1323
(dp1324
g12
VVP
p1325
sbag0
(g1
g2
(lp1326
V.
p1327
atp1328
Rp1329
(dp1330
g12
V.
p1331
sbatp1332
Rp1333
(dp1334
g12
VS
p1335
sbatp1336
Rp1337
(dp1338
g12
S'id: 8'
p1339
sbag0
(g1
g2
(lp1340
g0
(g1
g2
(lp1341
g0
(g1
g2
(lp1342
VAnd
p1343
atp1344
Rp1345
(dp1346
g12
VCC
p1347
sbag0
(g1
g2
(lp1348
g0
(g1
g2
(lp1349
Vthen
p1350
atp1351
Rp1352
(dp1353
g12
VRB
p1354
sbatp1355
Rp1356
(dp1357
g12
VADVP
p1358
sbag0
(g1
g2
(lp1359
g0
(g1
g2
(lp1360
Vthere
p1361
atp1362
Rp1363
(dp1364
g12
VEX
p1365
sbatp1366
Rp1367
(dp1368
g12
VNP
p1369
sbag0
(g1
g2
(lp1370
g0
(g1
g2
(lp1371
V's
p1372
atp1373
Rp1374
(dp1375
g12
VVBZ
p1376
sbag0
(g1
g2
(lp1377
g0
(g1
g2
(lp1378
Vsome
p1379
atp1380
Rp1381
(dp1382
g12
VDT
p1383
sbag0
(g1
g2
(lp1384
Vshadow
p1385
atp1386
Rp1387
(dp1388
g12
VNN
p1389
sbag0
(g1
g2
(lp1390
Vpeople
p1391
atp1392
Rp1393
(dp1394
g12
VNNS
p1395
sbatp1396
Rp1397
(dp1398
g12
VNP
p1399
sbag0
(g1
g2
(lp1400
g0
(g1
g2
(lp1401
Vover
p1402
atp1403
Rp1404
(dp1405
g12
VIN
p1406
sbag0
(g1
g2
(lp1407
g0
(g1
g2
(lp1408
Vthere
p1409
atp1410
Rp1411
(dp1412
g12
VEX
p1413
sbatp1414
Rp1415
(dp1416
g12
VNP
p1417
sbatp1418
Rp1419
(dp1420
g12
VPP
p1421
sbag0
(g1
g2
(lp1422
g0
(g1
g2
(lp1423
Vby
p1424
atp1425
Rp1426
(dp1427
g12
VIN
p1428
sbag0
(g1
g2
(lp1429
g0
(g1
g2
(lp1430
Vthe
p1431
atp1432
Rp1433
(dp1434
g12
VDT
p1435
sbag0
(g1
g2
(lp1436
Vhorse
p1437
atp1438
Rp1439
(dp1440
g12
VNN
p1441
sbatp1442
Rp1443
(dp1444
g12
VNP
p1445
sbatp1446
Rp1447
(dp1448
g12
VPP
p1449
sbatp1450
Rp1451
(dp1452
g12
VVP
p1453
sbag0
(g1
g2
(lp1454
V.
p1455
atp1456
Rp1457
(dp1458
g12
V.
p1459
sbatp1460
Rp1461
(dp1462
g12
VS
p1463
sbatp1464
Rp1465
(dp1466
g12
S'id: 9'
p1467
sbag0
(g1
g2
(lp1468
g0
(g1
g2
(lp1469
g0
(g1
g2
(lp1470
g0
(g1
g2
(lp1471
VIt
p1472
atp1473
Rp1474
(dp1475
g12
VPRP
p1476
sbatp1477
Rp1478
(dp1479
g12
VNP
p1480
sbag0
(g1
g2
(lp1481
g0
(g1
g2
(lp1482
V's
p1483
atp1484
Rp1485
(dp1486
g12
VVBZ
p1487
sbag0
(g1
g2
(lp1488
g0
(g1
g2
(lp1489
Vprobably
p1490
atp1491
Rp1492
(dp1493
g12
VRB
p1494
sbatp1495
Rp1496
(dp1497
g12
VADVP
p1498
sbag0
(g1
g2
(lp1499
g0
(g1
g2
(lp1500
g0
(g1
g2
(lp1501
Vthere
p1502
atp1503
Rp1504
(dp1505
g12
VRB
p1506
sbatp1507
Rp1508
(dp1509
g12
VNP
p1510
sbag0
(g1
g2
(lp1511
g0
(g1
g2
(lp1512
Vin
p1513
atp1514
Rp1515
(dp1516
g12
VIN
p1517
sbag0
(g1
g2
(lp1518
g0
(g1
g2
(lp1519
Vsilhouette
p1520
atp1521
Rp1522
(dp1523
g12
VNN
p1524
sbatp1525
Rp1526
(dp1527
g12
VNP
p1528
sbatp1529
Rp1530
(dp1531
g12
VPP
p1532
sbatp1533
Rp1534
(dp1535
g12
VNP
p1536
sbatp1537
Rp1538
(dp1539
g12
VVP
p1540
sbag0
(g1
g2
(lp1541
V.
p1542
atp1543
Rp1544
(dp1545
g12
V.
p1546
sbatp1547
Rp1548
(dp1549
g12
VS
p1550
sbatp1551
Rp1552
(dp1553
g12
S'id: 10'
p1554
sbag0
(g1
g2
(lp1555
g0
(g1
g2
(lp1556
g0
(g1
g2
(lp1557
g0
(g1
g2
(lp1558
g0
(g1
g2
(lp1559
VHorses
p1560
atp1561
Rp1562
(dp1563
g12
VNNS
p1564
sbatp1565
Rp1566
(dp1567
g12
VNP
p1568
sbag0
(g1
g2
(lp1569
g0
(g1
g2
(lp1570
Vshould
p1571
atp1572
Rp1573
(dp1574
g12
VMD
p1575
sbag0
(g1
g2
(lp1576
Vnot
p1577
atp1578
Rp1579
(dp1580
g12
VRB
p1581
sbag0
(g1
g2
(lp1582
g0
(g1
g2
(lp1583
Vbe
p1584
atp1585
Rp1586
(dp1587
g12
VVB
p1588
sbag0
(g1
g2
(lp1589
g0
(g1
g2
(lp1590
Vmade
p1591
atp1592
Rp1593
(dp1594
g12
VVBN
p1595
sbag0
(g1
g2
(lp1596
g0
(g1
g2
(lp1597
g0
(g1
g2
(lp1598
Vto
p1599
atp1600
Rp1601
(dp1602
g12
VTO
p1603
sbag0
(g1
g2
(lp1604
g0
(g1
g2
(lp1605
Vrun
p1606
atp1607
Rp1608
(dp1609
g12
VVB
p1610
sbag0
(g1
g2
(lp1611
g0
(g1
g2
(lp1612
Varound
p1613
atp1614
Rp1615
(dp1616
g12
VRB
p1617
sbatp1618
Rp1619
(dp1620
g12
VADVP
p1621
sbag0
(g1
g2
(lp1622
g0
(g1
g2
(lp1623
Vin
p1624
atp1625
Rp1626
(dp1627
g12
VIN
p1628
sbag0
(g1
g2
(lp1629
g0
(g1
g2
(lp1630
Vcircles
p1631
atp1632
Rp1633
(dp1634
g12
VNNS
p1635
sbatp1636
Rp1637
(dp1638
g12
VNP
p1639
sbatp1640
Rp1641
(dp1642
g12
VPP
p1643
sbatp1644
Rp1645
(dp1646
g12
VVP
p1647
sbatp1648
Rp1649
(dp1650
g12
VVP
p1651
sbatp1652
Rp1653
(dp1654
g12
VS
p1655
sbatp1656
Rp1657
(dp1658
g12
VVP
p1659
sbatp1660
Rp1661
(dp1662
g12
VVP
p1663
sbatp1664
Rp1665
(dp1666
g12
VVP
p1667
sbatp1668
Rp1669
(dp1670
g12
VS
p1671
sbag0
(g1
g2
(lp1672
V,
p1673
atp1674
Rp1675
(dp1676
g12
V,
p1677
sbag0
(g1
g2
(lp1678
g0
(g1
g2
(lp1679
Vmomma
p1680
atp1681
Rp1682
(dp1683
g12
VNN
p1684
sbatp1685
Rp1686
(dp1687
g12
VNP
p1688
sbag0
(g1
g2
(lp1689
g0
(g1
g2
(lp1690
Vdoes
p1691
atp1692
Rp1693
(dp1694
g12
VVBZ
p1695
sbag0
(g1
g2
(lp1696
Vn't
p1697
atp1698
Rp1699
(dp1700
g12
VRB
p1701
sbag0
(g1
g2
(lp1702
g0
(g1
g2
(lp1703
Vlike
p1704
atp1705
Rp1706
(dp1707
g12
VVB
p1708
sbag0
(g1
g2
(lp1709
g0
(g1
g2
(lp1710
Vthat
p1711
atp1712
Rp1713
(dp1714
g12
VDT
p1715
sbatp1716
Rp1717
(dp1718
g12
VNP
p1719
sbatp1720
Rp1721
(dp1722
g12
VVP
p1723
sbatp1724
Rp1725
(dp1726
g12
VVP
p1727
sbag0
(g1
g2
(lp1728
V.
p1729
atp1730
Rp1731
(dp1732
g12
V.
p1733
sbatp1734
Rp1735
(dp1736
g12
VS
p1737
sbatp1738
Rp1739
(dp1740
g12
S'id: 11'
p1741
sbag0
(g1
g2
(lp1742
g0
(g1
g2
(lp1743
g0
(g1
g2
(lp1744
g0
(g1
g2
(lp1745
g0
(g1
g2
(lp1746
VThe
p1747
atp1748
Rp1749
(dp1750
g12
VDT
p1751
sbag0
(g1
g2
(lp1752
Vlady
p1753
atp1754
Rp1755
(dp1756
g12
VNN
p1757
sbatp1758
Rp1759
(dp1760
g12
VNP
p1761
sbag0
(g1
g2
(lp1762
g0
(g1
g2
(lp1763
Von
p1764
atp1765
Rp1766
(dp1767
g12
VIN
p1768
sbag0
(g1
g2
(lp1769
g0
(g1
g2
(lp1770
Vthe
p1771
atp1772
Rp1773
(dp1774
g12
VDT
p1775
sbag0
(g1
g2
(lp1776
Vhorse
p1777
atp1778
Rp1779
(dp1780
g12
VNN
p1781
sbatp1782
Rp1783
(dp1784
g12
VNP
p1785
sbatp1786
Rp1787
(dp1788
g12
VPP
p1789
sbatp1790
Rp1791
(dp1792
g12
VNP
p1793
sbag0
(g1
g2
(lp1794
g0
(g1
g2
(lp1795
Vneeds
p1796
atp1797
Rp1798
(dp1799
g12
VVBZ
p1800
sbag0
(g1
g2
(lp1801
g0
(g1
g2
(lp1802
g0
(g1
g2
(lp1803
Vmore
p1804
atp1805
Rp1806
(dp1807
g12
VRBR
p1808
sbatp1809
Rp1810
(dp1811
g12
VQP
p1812
sbag0
(g1
g2
(lp1813
Vclothes
p1814
atp1815
Rp1816
(dp1817
g12
VNNS
p1818
sbatp1819
Rp1820
(dp1821
g12
VNP
p1822
sbag0
(g1
g2
(lp1823
g0
(g1
g2
(lp1824
Von
p1825
atp1826
Rp1827
(dp1828
g12
VIN
p1829
sbatp1830
Rp1831
(dp1832
g12
VPP
p1833
sbatp1834
Rp1835
(dp1836
g12
VVP
p1837
sbag0
(g1
g2
(lp1838
V.
p1839
atp1840
Rp1841
(dp1842
g12
V.
p1843
sbatp1844
Rp1845
(dp1846
g12
VS
p1847
sbatp1848
Rp1849
(dp1850
g12
S'id: 12'
p1851
sbag0
(g1
g2
(lp1852
g0
(g1
g2
(lp1853
g0
(g1
g2
(lp1854
g0
(g1
g2
(lp1855
VThere
p1856
atp1857
Rp1858
(dp1859
g12
VEX
p1860
sbatp1861
Rp1862
(dp1863
g12
VNP
p1864
sbag0
(g1
g2
(lp1865
g0
(g1
g2
(lp1866
V's
p1867
atp1868
Rp1869
(dp1870
g12
VVBZ
p1871
sbag0
(g1
g2
(lp1872
g0
(g1
g2
(lp1873
Vmountains
p1874
atp1875
Rp1876
(dp1877
g12
VNNS
p1878
sbatp1879
Rp1880
(dp1881
g12
VNP
p1882
sbag0
(g1
g2
(lp1883
g0
(g1
g2
(lp1884
Vpossibly
p1885
atp1886
Rp1887
(dp1888
g12
VRB
p1889
sbatp1890
Rp1891
(dp1892
g12
VADVP
p1893
sbag0
(g1
g2
(lp1894
V,
p1895
atp1896
Rp1897
(dp1898
g12
V,
p1899
sbag0
(g1
g2
(lp1900
g0
(g1
g2
(lp1901
Vso
p1902
atp1903
Rp1904
(dp1905
g12
VRB
p1906
sbag0
(g1
g2
(lp1907
g0
(g1
g2
(lp1908
g0
(g1
g2
(lp1909
Vthere
p1910
atp1911
Rp1912
(dp1913
g12
VRB
p1914
sbatp1915
Rp1916
(dp1917
g12
VADVP
p1918
sbag0
(g1
g2
(lp1919
g0
(g1
g2
(lp1920
Vshould
p1921
atp1922
Rp1923
(dp1924
g12
VMD
p1925
sbag0
(g1
g2
(lp1926
g0
(g1
g2
(lp1927
Vbe
p1928
atp1929
Rp1930
(dp1931
g12
VVB
p1932
sbag0
(g1
g2
(lp1933
g0
(g1
g2
(lp1934
Voutside
p1935
atp1936
Rp1937
(dp1938
g12
VJJ
p1939
sbatp1940
Rp1941
(dp1942
g12
VADVP
p1943
sbatp1944
Rp1945
(dp1946
g12
VVP
p1947
sbatp1948
Rp1949
(dp1950
g12
VVP
p1951
sbatp1952
Rp1953
(dp1954
g12
VS
p1955
sbatp1956
Rp1957
(dp1958
g12
VSBAR
p1959
sbatp1960
Rp1961
(dp1962
g12
VVP
p1963
sbag0
(g1
g2
(lp1964
V.
p1965
atp1966
Rp1967
(dp1968
g12
V.
p1969
sbatp1970
Rp1971
(dp1972
g12
VS
p1973
sbatp1974
Rp1975
(dp1976
g12
S'id: 13'
p1977
sbag0
(g1
g2
(lp1978
g0
(g1
g2
(lp1979
g0
(g1
g2
(lp1980
g0
(g1
g2
(lp1981
VOh
p1982
atp1983
Rp1984
(dp1985
g12
VUH
p1986
sbatp1987
Rp1988
(dp1989
g12
VINTJ
p1990
sbag0
(g1
g2
(lp1991
V,
p1992
atp1993
Rp1994
(dp1995
g12
V,
p1996
sbag0
(g1
g2
(lp1997
g0
(g1
g2
(lp1998
Vthe
p1999
atp2000
Rp2001
(dp2002
g12
VDT
p2003
sbag0
(g1
g2
(lp2004
Vclown
p2005
atp2006
Rp2007
(dp2008
g12
VNN
p2009
sbatp2010
Rp2011
(dp2012
g12
VNP
p2013
sbag0
(g1
g2
(lp2014
g0
(g1
g2
(lp2015
Vis
p2016
atp2017
Rp2018
(dp2019
g12
VVBZ
p2020
sbag0
(g1
g2
(lp2021
g0
(g1
g2
(lp2022
Vthrowing
p2023
atp2024
Rp2025
(dp2026
g12
VVBG
p2027
sbag0
(g1
g2
(lp2028
g0
(g1
g2
(lp2029
Vprobably
p2030
atp2031
Rp2032
(dp2033
g12
VRB
p2034
sbag0
(g1
g2
(lp2035
Vcandy
p2036
atp2037
Rp2038
(dp2039
g12
VNN
p2040
sbatp2041
Rp2042
(dp2043
g12
VNP
p2044
sbag0
(g1
g2
(lp2045
V,
p2046
atp2047
Rp2048
(dp2049
g12
V,
p2050
sbag0
(g1
g2
(lp2051
g0
(g1
g2
(lp2052
Vat
p2053
atp2054
Rp2055
(dp2056
g12
VIN
p2057
sbag0
(g1
g2
(lp2058
g0
(g1
g2
(lp2059
Vthe
p2060
atp2061
Rp2062
(dp2063
g12
VDT
p2064
sbag0
(g1
g2
(lp2065
Vchildren
p2066
atp2067
Rp2068
(dp2069
g12
VNNS
p2070
sbatp2071
Rp2072
(dp2073
g12
VNP
p2074
sbatp2075
Rp2076
(dp2077
g12
VPP
p2078
sbatp2079
Rp2080
(dp2081
g12
VVP
p2082
sbatp2083
Rp2084
(dp2085
g12
VVP
p2086
sbag0
(g1
g2
(lp2087
V.
p2088
atp2089
Rp2090
(dp2091
g12
V.
p2092
sbatp2093
Rp2094
(dp2095
g12
VS
p2096
sbatp2097
Rp2098
(dp2099
g12
S'id: 14'
p2100
sbag0
(g1
g2
(lp2101
g0
(g1
g2
(lp2102
g0
(g1
g2
(lp2103
g0
(g1
g2
(lp2104
VThe
p2105
atp2106
Rp2107
(dp2108
g12
VDT
p2109
sbag0
(g1
g2
(lp2110
Vlittle
p2111
atp2112
Rp2113
(dp2114
g12
VJJ
p2115
sbag0
(g1
g2
(lp2116
Vgirl
p2117
atp2118
Rp2119
(dp2120
g12
VNN
p2121
sbatp2122
Rp2123
(dp2124
g12
VNP
p2125
sbag0
(g1
g2
(lp2126
g0
(g1
g2
(lp2127
Vis
p2128
atp2129
Rp2130
(dp2131
g12
VVBZ
p2132
sbag0
(g1
g2
(lp2133
g0
(g1
g2
(lp2134
Vpointing
p2135
atp2136
Rp2137
(dp2138
g12
VVBG
p2139
sbag0
(g1
g2
(lp2140
g0
(g1
g2
(lp2141
Vto
p2142
atp2143
Rp2144
(dp2145
g12
VTO
p2146
sbag0
(g1
g2
(lp2147
g0
(g1
g2
(lp2148
g0
(g1
g2
(lp2149
Vthe
p2150
atp2151
Rp2152
(dp2153
g12
VDT
p2154
sbag0
(g1
g2
(lp2155
Vlady
p2156
atp2157
Rp2158
(dp2159
g12
VNN
p2160
sbatp2161
Rp2162
(dp2163
g12
VNP
p2164
sbag0
(g1
g2
(lp2165
g0
(g1
g2
(lp2166
Von
p2167
atp2168
Rp2169
(dp2170
g12
VIN
p2171
sbag0
(g1
g2
(lp2172
g0
(g1
g2
(lp2173
g0
(g1
g2
(lp2174
Vthe
p2175
atp2176
Rp2177
(dp2178
g12
VDT
p2179
sbag0
(g1
g2
(lp2180
Vhorse
p2181
atp2182
Rp2183
(dp2184
g12
VNN
p2185
sbatp2186
Rp2187
(dp2188
g12
VNP
p2189
sbag0
(g1
g2
(lp2190
V,
p2191
atp2192
Rp2193
(dp2194
g12
V,
p2195
sbag0
(g1
g2
(lp2196
g0
(g1
g2
(lp2197
g0
(g1
g2
(lp2198
Vwho
p2199
atp2200
Rp2201
(dp2202
g12
VWP
p2203
sbatp2204
Rp2205
(dp2206
g12
VWHNP
p2207
sbag0
(g1
g2
(lp2208
g0
(g1
g2
(lp2209
g0
(g1
g2
(lp2210
Vis
p2211
atp2212
Rp2213
(dp2214
g12
VVBZ
p2215
sbag0
(g1
g2
(lp2216
g0
(g1
g2
(lp2217
g0
(g1
g2
(lp2218
Va
p2219
atp2220
Rp2221
(dp2222
g12
VDT
p2223
sbag0
(g1
g2
(lp2224
Vcriminal
p2225
atp2226
Rp2227
(dp2228
g12
VJJ
p2229
sbatp2230
Rp2231
(dp2232
g12
VNP
p2233
sbag0
(g1
g2
(lp2234
g0
(g1
g2
(lp2235
Vin
p2236
atp2237
Rp2238
(dp2239
g12
VIN
p2240
sbag0
(g1
g2
(lp2241
g0
(g1
g2
(lp2242
Vmy
p2243
atp2244
Rp2245
(dp2246
g12
VPRP$
p2247
sbag0
(g1
g2
(lp2248
Vopinion
p2249
atp2250
Rp2251
(dp2252
g12
VNN
p2253
sbatp2254
Rp2255
(dp2256
g12
VNP
p2257
sbatp2258
Rp2259
(dp2260
g12
VPP
p2261
sbatp2262
Rp2263
(dp2264
g12
VNP
p2265
sbatp2266
Rp2267
(dp2268
g12
VVP
p2269
sbatp2270
Rp2271
(dp2272
g12
VS
p2273
sbatp2274
Rp2275
(dp2276
g12
VSBAR
p2277
sbatp2278
Rp2279
(dp2280
g12
VNP
p2281
sbatp2282
Rp2283
(dp2284
g12
VPP
p2285
sbatp2286
Rp2287
(dp2288
g12
VNP
p2289
sbatp2290
Rp2291
(dp2292
g12
VPP
p2293
sbatp2294
Rp2295
(dp2296
g12
VVP
p2297
sbatp2298
Rp2299
(dp2300
g12
VVP
p2301
sbag0
(g1
g2
(lp2302
V.
p2303
atp2304
Rp2305
(dp2306
g12
V.
p2307
sbatp2308
Rp2309
(dp2310
g12
VS
p2311
sbatp2312
Rp2313
(dp2314
g12
S'id: 15'
p2315
sbag0
(g1
g2
(lp2316
g0
(g1
g2
(lp2317
g0
(g1
g2
(lp2318
g0
(g1
g2
(lp2319
VLet
p2320
atp2321
Rp2322
(dp2323
g12
VVB
p2324
sbag0
(g1
g2
(lp2325
g0
(g1
g2
(lp2326
g0
(g1
g2
(lp2327
V's
p2328
atp2329
Rp2330
(dp2331
g12
VPRP
p2332
sbatp2333
Rp2334
(dp2335
g12
VNP
p2336
sbag0
(g1
g2
(lp2337
g0
(g1
g2
(lp2338
Vsee
p2339
atp2340
Rp2341
(dp2342
g12
VVB
p2343
sbag0
(g1
g2
(lp2344
g0
(g1
g2
(lp2345
g0
(g1
g2
(lp2346
Vone
p2347
atp2348
Rp2349
(dp2350
g12
VCD
p2351
sbag0
(g1
g2
(lp2352
V,
p2353
atp2354
Rp2355
(dp2356
g12
V,
p2357
sbag0
(g1
g2
(lp2358
Vtwo
p2359
atp2360
Rp2361
(dp2362
g12
VCD
p2363
sbag0
(g1
g2
(lp2364
V,
p2365
atp2366
Rp2367
(dp2368
g12
V,
p2369
sbag0
(g1
g2
(lp2370
Vthree
p2371
atp2372
Rp2373
(dp2374
g12
VCD
p2375
sbag0
(g1
g2
(lp2376
V,
p2377
atp2378
Rp2379
(dp2380
g12
V,
p2381
sbag0
(g1
g2
(lp2382
Vfour
p2383
atp2384
Rp2385
(dp2386
g12
VCD
p2387
sbag0
(g1
g2
(lp2388
Vstars
p2389
atp2390
Rp2391
(dp2392
g12
VNNS
p2393
sbatp2394
Rp2395
(dp2396
g12
VNP
p2397
sbag0
(g1
g2
(lp2398
g0
(g1
g2
(lp2399
Varound
p2400
atp2401
Rp2402
(dp2403
g12
VIN
p2404
sbag0
(g1
g2
(lp2405
g0
(g1
g2
(lp2406
Vthe
p2407
atp2408
Rp2409
(dp2410
g12
VDT
p2411
sbag0
(g1
g2
(lp2412
Vring
p2413
atp2414
Rp2415
(dp2416
g12
VNN
p2417
sbatp2418
Rp2419
(dp2420
g12
VNP
p2421
sbatp2422
Rp2423
(dp2424
g12
VPP
p2425
sbatp2426
Rp2427
(dp2428
g12
VNP
p2429
sbatp2430
Rp2431
(dp2432
g12
VVP
p2433
sbatp2434
Rp2435
(dp2436
g12
VS
p2437
sbatp2438
Rp2439
(dp2440
g12
VVP
p2441
sbag0
(g1
g2
(lp2442
V.
p2443
atp2444
Rp2445
(dp2446
g12
V.
p2447
sbatp2448
Rp2449
(dp2450
g12
VS
p2451
sbatp2452
Rp2453
(dp2454
g12
S'id: 16'
p2455
sbag0
(g1
g2
(lp2456
g0
(g1
g2
(lp2457
g0
(g1
g2
(lp2458
VAnd
p2459
atp2460
Rp2461
(dp2462
g12
VCC
p2463
sbag0
(g1
g2
(lp2464
V,
p2465
atp2466
Rp2467
(dp2468
g12
V,
p2469
sbag0
(g1
g2
(lp2470
g0
(g1
g2
(lp2471
g0
(g1
g2
(lp2472
Vwhat
p2473
atp2474
Rp2475
(dp2476
g12
VWP
p2477
sbatp2478
Rp2479
(dp2480
g12
VNP
p2481
sbag0
(g1
g2
(lp2482
g0
(g1
g2
(lp2483
Velse
p2484
atp2485
Rp2486
(dp2487
g12
VRB
p2488
sbatp2489
Rp2490
(dp2491
g12
VADJP
p2492
sbatp2493
Rp2494
(dp2495
g12
VNP
p2496
sbag0
(g1
g2
(lp2497
g0
(g1
g2
(lp2498
Vcan
p2499
atp2500
Rp2501
(dp2502
g12
VMD
p2503
sbag0
(g1
g2
(lp2504
g0
(g1
g2
(lp2505
VI
p2506
atp2507
Rp2508
(dp2509
g12
VPRP
p2510
sbatp2511
Rp2512
(dp2513
g12
VNP
p2514
sbag0
(g1
g2
(lp2515
g0
(g1
g2
(lp2516
g0
(g1
g2
(lp2517
Vsee
p2518
atp2519
Rp2520
(dp2521
g12
VVB
p2522
sbatp2523
Rp2524
(dp2525
g12
VVP
p2526
sbatp2527
Rp2528
(dp2529
g12
VS
p2530
sbatp2531
Rp2532
(dp2533
g12
VVP
p2534
sbatp2535
Rp2536
(dp2537
g12
VS
p2538
sbatp2539
Rp2540
(dp2541
g12
S'id: 17'
p2542
sbatp2543
Rp2544
(dp2545
g12
S'sentences'
p2546
sb.