ccopy_reg
_reconstructor
p0
(cnltk.tree
Tree
p1
c__builtin__
list
p2
(lp3
g0
(g1
g2
(lp4
g0
(g1
g2
(lp5
g0
(g1
g2
(lp6
g0
(g1
g2
(lp7
g0
(g1
g2
(lp8
Vok
p9
atp10
Rp11
(dp12
S'_label'
p13
VNN
p14
sbatp15
Rp16
(dp17
g13
VNP
p18
sbag0
(g1
g2
(lp19
g0
(g1
g2
(lp20
g0
(g1
g2
(lp21
g0
(g1
g2
(lp22
Vthis
p23
atp24
Rp25
(dp26
g13
VDT
p27
sbatp28
Rp29
(dp30
g13
VNP
p31
sbag0
(g1
g2
(lp32
g0
(g1
g2
(lp33
Vis
p34
atp35
Rp36
(dp37
g13
VVBZ
p38
sbag0
(g1
g2
(lp39
g0
(g1
g2
(lp40
g0
(g1
g2
(lp41
Vthe
p42
atp43
Rp44
(dp45
g13
VDT
p46
sbag0
(g1
g2
(lp47
Vone
p48
atp49
Rp50
(dp51
g13
VCD
p52
sbatp53
Rp54
(dp55
g13
VNP
p56
sbag0
(g1
g2
(lp57
g0
(g1
g2
(lp58
g0
(g1
g2
(lp59
g0
(g1
g2
(lp60
VI
p61
atp62
Rp63
(dp64
g13
VPRP
p65
sbatp66
Rp67
(dp68
g13
VNP
p69
sbag0
(g1
g2
(lp70
g0
(g1
g2
(lp71
Vsaw
p72
atp73
Rp74
(dp75
g13
VVBD
p76
sbag0
(g1
g2
(lp77
g0
(g1
g2
(lp78
Vyesterday
p79
atp80
Rp81
(dp82
g13
VNN
p83
sbatp84
Rp85
(dp86
g13
VNP-TMP
p87
sbatp88
Rp89
(dp90
g13
VVP
p91
sbatp92
Rp93
(dp94
g13
VS
p95
sbatp96
Rp97
(dp98
g13
VSBAR
p99
sbatp100
Rp101
(dp102
g13
VNP
p103
sbatp104
Rp105
(dp106
g13
VVP
p107
sbatp108
Rp109
(dp110
g13
VS
p111
sbatp112
Rp113
(dp114
g13
VSBAR
p115
sbatp116
Rp117
(dp118
g13
VNP-TMP
p119
sbag0
(g1
g2
(lp120
V,
p121
atp122
Rp123
(dp124
g13
V,
p125
sbag0
(g1
g2
(lp126
g0
(g1
g2
(lp127
Vwith
p128
atp129
Rp130
(dp131
g13
VIN
p132
sbag0
(g1
g2
(lp133
g0
(g1
g2
(lp134
Vthe
p135
atp136
Rp137
(dp138
g13
VDT
p139
sbag0
(g1
g2
(lp140
Vfamily
p141
atp142
Rp143
(dp144
g13
VNN
p145
sbatp146
Rp147
(dp148
g13
VNP
p149
sbatp150
Rp151
(dp152
g13
VPP
p153
sbag0
(g1
g2
(lp154
V,
p155
atp156
Rp157
(dp158
g13
V,
p159
sbag0
(g1
g2
(lp160
g0
(g1
g2
(lp161
Vit
p162
atp163
Rp164
(dp165
g13
VPRP
p166
sbatp167
Rp168
(dp169
g13
VNP
p170
sbag0
(g1
g2
(lp171
g0
(g1
g2
(lp172
V's
p173
atp174
Rp175
(dp176
g13
VVBZ
p177
sbag0
(g1
g2
(lp178
g0
(g1
g2
(lp179
g0
(g1
g2
(lp180
Vkind
p181
atp182
Rp183
(dp184
g13
VNN
p185
sbatp186
Rp187
(dp188
g13
VNP
p189
sbag0
(g1
g2
(lp190
g0
(g1
g2
(lp191
Vof
p192
atp193
Rp194
(dp195
g13
VIN
p196
sbag0
(g1
g2
(lp197
g0
(g1
g2
(lp198
g0
(g1
g2
(lp199
Vhard
p200
atp201
Rp202
(dp203
g13
VJJ
p204
sbag0
(g1
g2
(lp205
g0
(g1
g2
(lp206
g0
(g1
g2
(lp207
Vto
p208
atp209
Rp210
(dp211
g13
VTO
p212
sbag0
(g1
g2
(lp213
g0
(g1
g2
(lp214
Vdetermine
p215
atp216
Rp217
(dp218
g13
VVB
p219
sbag0
(g1
g2
(lp220
g0
(g1
g2
(lp221
Vif
p222
atp223
Rp224
(dp225
g13
VIN
p226
sbag0
(g1
g2
(lp227
g0
(g1
g2
(lp228
g0
(g1
g2
(lp229
Vit
p230
atp231
Rp232
(dp233
g13
VPRP
p234
sbatp235
Rp236
(dp237
g13
VNP
p238
sbag0
(g1
g2
(lp239
g0
(g1
g2
(lp240
V's
p241
atp242
Rp243
(dp244
g13
VVBZ
p245
sbag0
(g1
g2
(lp246
V,
p247
atp248
Rp249
(dp250
g13
V,
p251
sbag0
(g1
g2
(lp252
g0
(g1
g2
(lp253
g0
(g1
g2
(lp254
Vif
p255
atp256
Rp257
(dp258
g13
VIN
p259
sbag0
(g1
g2
(lp260
g0
(g1
g2
(lp261
g0
(g1
g2
(lp262
Vthey
p263
atp264
Rp265
(dp266
g13
VPRP
p267
sbatp268
Rp269
(dp270
g13
VNP
p271
sbag0
(g1
g2
(lp272
g0
(g1
g2
(lp273
V're
p274
atp275
Rp276
(dp277
g13
VVBP
p278
sbag0
(g1
g2
(lp279
g0
(g1
g2
(lp280
Vat
p281
atp282
Rp283
(dp284
g13
VIN
p285
sbag0
(g1
g2
(lp286
g0
(g1
g2
(lp287
Vtheir
p288
atp289
Rp290
(dp291
g13
VPRP$
p292
sbag0
(g1
g2
(lp293
Vhouse
p294
atp295
Rp296
(dp297
g13
VNN
p298
sbatp299
Rp300
(dp301
g13
VNP
p302
sbatp303
Rp304
(dp305
g13
VPP
p306
sbatp307
Rp308
(dp309
g13
VVP
p310
sbatp311
Rp312
(dp313
g13
VS
p314
sbatp315
Rp316
(dp317
g13
VSBAR
p318
sbag0
(g1
g2
(lp319
V,
p320
atp321
Rp322
(dp323
g13
V,
p324
sbag0
(g1
g2
(lp325
Vor
p326
atp327
Rp328
(dp329
g13
VCC
p330
sbag0
(g1
g2
(lp331
g0
(g1
g2
(lp332
Vif
p333
atp334
Rp335
(dp336
g13
VIN
p337
sbag0
(g1
g2
(lp338
g0
(g1
g2
(lp339
g0
(g1
g2
(lp340
Vthey
p341
atp342
Rp343
(dp344
g13
VPRP
p345
sbatp346
Rp347
(dp348
g13
VNP
p349
sbag0
(g1
g2
(lp350
g0
(g1
g2
(lp351
V're
p352
atp353
Rp354
(dp355
g13
VVBP
p356
sbag0
(g1
g2
(lp357
g0
(g1
g2
(lp358
Vat
p359
atp360
Rp361
(dp362
g13
VIN
p363
sbag0
(g1
g2
(lp364
Va
p365
atp366
Rp367
(dp368
g13
VDT
p369
sbatp370
Rp371
(dp372
g13
VADVP
p373
sbag0
(g1
g2
(lp374
V,
p375
atp376
Rp377
(dp378
g13
V,
p379
sbag0
(g1
g2
(lp380
g0
(g1
g2
(lp381
Va
p382
atp383
Rp384
(dp385
g13
VDT
p386
sbag0
(g1
g2
(lp387
Vcabin
p388
atp389
Rp390
(dp391
g13
VNN
p392
sbag0
(g1
g2
(lp393
Vkinda
p394
atp395
Rp396
(dp397
g13
VNN
p398
sbag0
(g1
g2
(lp399
Vthing
p400
atp401
Rp402
(dp403
g13
VNN
p404
sbatp405
Rp406
(dp407
g13
VNP
p408
sbatp409
Rp410
(dp411
g13
VVP
p412
sbatp413
Rp414
(dp415
g13
VS
p416
sbatp417
Rp418
(dp419
g13
VSBAR
p420
sbatp421
Rp422
(dp423
g13
VSBAR
p424
sbag0
(g1
g2
(lp425
g0
(g1
g2
(lp426
V,
p427
atp428
Rp429
(dp430
g13
V,
p431
sbag0
(g1
g2
(lp432
g0
(g1
g2
(lp433
g0
(g1
g2
(lp434
Vthat
p435
atp436
Rp437
(dp438
g13
VDT
p439
sbatp440
Rp441
(dp442
g13
VNP
p443
sbag0
(g1
g2
(lp444
g0
(g1
g2
(lp445
V's
p446
atp447
Rp448
(dp449
g13
VVBZ
p450
sbag0
(g1
g2
(lp451
g0
(g1
g2
(lp452
Vgot
p453
atp454
Rp455
(dp456
g13
VVBD
p457
sbag0
(g1
g2
(lp458
g0
(g1
g2
(lp459
Va
p460
atp461
Rp462
(dp463
g13
VDT
p464
sbag0
(g1
g2
(lp465
Vflag
p466
atp467
Rp468
(dp469
g13
VNN
p470
sbatp471
Rp472
(dp473
g13
VNP
p474
sbag0
(g1
g2
(lp475
g0
(g1
g2
(lp476
Vin
p477
atp478
Rp479
(dp480
g13
VIN
p481
sbag0
(g1
g2
(lp482
g0
(g1
g2
(lp483
Vthe
p484
atp485
Rp486
(dp487
g13
VDT
p488
sbag0
(g1
g2
(lp489
Vyard
p490
atp491
Rp492
(dp493
g13
VNN
p494
sbatp495
Rp496
(dp497
g13
VNP
p498
sbatp499
Rp500
(dp501
g13
VPP
p502
sbatp503
Rp504
(dp505
g13
VVP
p506
sbatp507
Rp508
(dp509
g13
VVP
p510
sbatp511
Rp512
(dp513
g13
VS
p514
sbag0
(g1
g2
(lp515
V,
p516
atp517
Rp518
(dp519
g13
V,
p520
sbatp521
Rp522
(dp523
g13
VPRN
p524
sbatp525
Rp526
(dp527
g13
VVP
p528
sbatp529
Rp530
(dp531
g13
VS
p532
sbatp533
Rp534
(dp535
g13
VSBAR
p536
sbatp537
Rp538
(dp539
g13
VVP
p540
sbatp541
Rp542
(dp543
g13
VVP
p544
sbatp545
Rp546
(dp547
g13
VS
p548
sbag0
(g1
g2
(lp549
g0
(g1
g2
(lp550
Vwith
p551
atp552
Rp553
(dp554
g13
VIN
p555
sbag0
(g1
g2
(lp556
g0
(g1
g2
(lp557
Va
p558
atp559
Rp560
(dp561
g13
VDT
p562
sbag0
(g1
g2
(lp563
Vnice
p564
atp565
Rp566
(dp567
g13
VJJ
p568
sbag0
(g1
g2
(lp569
Vtree
p570
atp571
Rp572
(dp573
g13
VNN
p574
sbatp575
Rp576
(dp577
g13
VNP
p578
sbatp579
Rp580
(dp581
g13
VPP
p582
sbatp583
Rp584
(dp585
g13
VADJP
p586
sbag0
(g1
g2
(lp587
Vand
p588
atp589
Rp590
(dp591
g13
VCC
p592
sbag0
(g1
g2
(lp593
g0
(g1
g2
(lp594
Vmanicured
p595
atp596
Rp597
(dp598
g13
VVBN
p599
sbag0
(g1
g2
(lp600
g0
(g1
g2
(lp601
Vyard
p602
atp603
Rp604
(dp605
g13
VNN
p606
sbatp607
Rp608
(dp609
g13
VNP
p610
sbag0
(g1
g2
(lp611
g0
(g1
g2
(lp612
Vwith
p613
atp614
Rp615
(dp616
g13
VIN
p617
sbag0
(g1
g2
(lp618
g0
(g1
g2
(lp619
Vshrubbery
p620
atp621
Rp622
(dp623
g13
VNN
p624
sbatp625
Rp626
(dp627
g13
VNP
p628
sbatp629
Rp630
(dp631
g13
VPP
p632
sbatp633
Rp634
(dp635
g13
VVP
p636
sbatp637
Rp638
(dp639
g13
VUCP
p640
sbatp641
Rp642
(dp643
g13
VPP
p644
sbatp645
Rp646
(dp647
g13
VNP
p648
sbatp649
Rp650
(dp651
g13
VVP
p652
sbag0
(g1
g2
(lp653
V.
p654
atp655
Rp656
(dp657
g13
V.
p658
sbatp659
Rp660
(dp661
g13
VS
p662
sbatp663
Rp664
(dp665
g13
S'id: 0'
p666
sbag0
(g1
g2
(lp667
g0
(g1
g2
(lp668
g0
(g1
g2
(lp669
g0
(g1
g2
(lp670
VThe
p671
atp672
Rp673
(dp674
g13
VDT
p675
sbag0
(g1
g2
(lp676
Vparents
p677
atp678
Rp679
(dp680
g13
VNNS
p681
sbatp682
Rp683
(dp684
g13
VNP
p685
sbag0
(g1
g2
(lp686
g0
(g1
g2
(lp687
V,
p688
atp689
Rp690
(dp691
g13
V,
p692
sbag0
(g1
g2
(lp693
g0
(g1
g2
(lp694
g0
(g1
g2
(lp695
VI
p696
atp697
Rp698
(dp699
g13
VPRP
p700
sbatp701
Rp702
(dp703
g13
VNP
p704
sbag0
(g1
g2
(lp705
g0
(g1
g2
(lp706
V'm
p707
atp708
Rp709
(dp710
g13
VVBP
p711
sbag0
(g1
g2
(lp712
g0
(g1
g2
(lp713
Vassuming
p714
atp715
Rp716
(dp717
g13
VVBG
p718
sbatp719
Rp720
(dp721
g13
VVP
p722
sbatp723
Rp724
(dp725
g13
VVP
p726
sbatp727
Rp728
(dp729
g13
VS
p730
sbag0
(g1
g2
(lp731
V,
p732
atp733
Rp734
(dp735
g13
V,
p736
sbatp737
Rp738
(dp739
g13
VPRN
p740
sbag0
(g1
g2
(lp741
g0
(g1
g2
(lp742
Vare
p743
atp744
Rp745
(dp746
g13
VVBP
p747
sbag0
(g1
g2
(lp748
g0
(g1
g2
(lp749
Von
p750
atp751
Rp752
(dp753
g13
VIN
p754
sbag0
(g1
g2
(lp755
g0
(g1
g2
(lp756
Vthe
p757
atp758
Rp759
(dp760
g13
VDT
p761
sbag0
(g1
g2
(lp762
Vblanket
p763
atp764
Rp765
(dp766
g13
VNN
p767
sbag0
(g1
g2
(lp768
Vrelaxing
p769
atp770
Rp771
(dp772
g13
VNN
p773
sbatp774
Rp775
(dp776
g13
VNP
p777
sbatp778
Rp779
(dp780
g13
VPP
p781
sbatp782
Rp783
(dp784
g13
VVP
p785
sbag0
(g1
g2
(lp786
V.
p787
atp788
Rp789
(dp790
g13
V.
p791
sbatp792
Rp793
(dp794
g13
VS
p795
sbatp796
Rp797
(dp798
g13
S'id: 1'
p799
sbag0
(g1
g2
(lp800
g0
(g1
g2
(lp801
g0
(g1
g2
(lp802
g0
(g1
g2
(lp803
g0
(g1
g2
(lp804
VThe
p805
atp806
Rp807
(dp808
g13
VDT
p809
sbag0
(g1
g2
(lp810
Vfather
p811
atp812
Rp813
(dp814
g13
VNN
p815
sbatp816
Rp817
(dp818
g13
VNP
p819
sbag0
(g1
g2
(lp820
g0
(g1
g2
(lp821
Vis
p822
atp823
Rp824
(dp825
g13
VVBZ
p826
sbag0
(g1
g2
(lp827
g0
(g1
g2
(lp828
Vreading
p829
atp830
Rp831
(dp832
g13
VVBG
p833
sbag0
(g1
g2
(lp834
g0
(g1
g2
(lp835
Va
p836
atp837
Rp838
(dp839
g13
VDT
p840
sbag0
(g1
g2
(lp841
Vbook
p842
atp843
Rp844
(dp845
g13
VNN
p846
sbatp847
Rp848
(dp849
g13
VNP
p850
sbatp851
Rp852
(dp853
g13
VVP
p854
sbatp855
Rp856
(dp857
g13
VVP
p858
sbatp859
Rp860
(dp861
g13
VS
p862
sbag0
(g1
g2
(lp863
V,
p864
atp865
Rp866
(dp867
g13
V,
p868
sbag0
(g1
g2
(lp869
g0
(g1
g2
(lp870
Vhe
p871
atp872
Rp873
(dp874
g13
VPRP
p875
sbatp876
Rp877
(dp878
g13
VNP
p879
sbag0
(g1
g2
(lp880
g0
(g1
g2
(lp881
V's
p882
atp883
Rp884
(dp885
g13
VVBZ
p886
sbag0
(g1
g2
(lp887
g0
(g1
g2
(lp888
Vkicked
p889
atp890
Rp891
(dp892
g13
VVBD
p893
sbag0
(g1
g2
(lp894
g0
(g1
g2
(lp895
Vhis
p896
atp897
Rp898
(dp899
g13
VPRP$
p900
sbag0
(g1
g2
(lp901
Vsandals
p902
atp903
Rp904
(dp905
g13
VNNS
p906
sbatp907
Rp908
(dp909
g13
VNP
p910
sbag0
(g1
g2
(lp911
g0
(g1
g2
(lp912
Voff
p913
atp914
Rp915
(dp916
g13
VRP
p917
sbatp918
Rp919
(dp920
g13
VPRT
p921
sbatp922
Rp923
(dp924
g13
VVP
p925
sbatp926
Rp927
(dp928
g13
VVP
p929
sbag0
(g1
g2
(lp930
V.
p931
atp932
Rp933
(dp934
g13
V.
p935
sbatp936
Rp937
(dp938
g13
VS
p939
sbatp940
Rp941
(dp942
g13
S'id: 2'
p943
sbag0
(g1
g2
(lp944
g0
(g1
g2
(lp945
g0
(g1
g2
(lp946
g0
(g1
g2
(lp947
g0
(g1
g2
(lp948
VThe
p949
atp950
Rp951
(dp952
g13
VDT
p953
sbag0
(g1
g2
(lp954
Vmom
p955
atp956
Rp957
(dp958
g13
VNN
p959
sbatp960
Rp961
(dp962
g13
VNP
p963
sbag0
(g1
g2
(lp964
g0
(g1
g2
(lp965
Vlooks
p966
atp967
Rp968
(dp969
g13
VVBZ
p970
sbag0
(g1
g2
(lp971
g0
(g1
g2
(lp972
Vlike
p973
atp974
Rp975
(dp976
g13
VIN
p977
sbag0
(g1
g2
(lp978
g0
(g1
g2
(lp979
g0
(g1
g2
(lp980
Vshe
p981
atp982
Rp983
(dp984
g13
VPRP
p985
sbatp986
Rp987
(dp988
g13
VNP
p989
sbag0
(g1
g2
(lp990
g0
(g1
g2
(lp991
Vmight
p992
atp993
Rp994
(dp995
g13
VMD
p996
sbag0
(g1
g2
(lp997
g0
(g1
g2
(lp998
Vbe
p999
atp1000
Rp1001
(dp1002
g13
VVB
p1003
sbag0
(g1
g2
(lp1004
g0
(g1
g2
(lp1005
Vpouring
p1006
atp1007
Rp1008
(dp1009
g13
VVBG
p1010
sbag0
(g1
g2
(lp1011
g0
(g1
g2
(lp1012
Veither
p1013
atp1014
Rp1015
(dp1016
g13
VCC
p1017
sbag0
(g1
g2
(lp1018
g0
(g1
g2
(lp1019
g0
(g1
g2
(lp1020
Vsoda
p1021
atp1022
Rp1023
(dp1024
g13
VNN
p1025
sbatp1026
Rp1027
(dp1028
g13
VNP
p1029
sbag0
(g1
g2
(lp1030
V,
p1031
atp1032
Rp1033
(dp1034
g13
V,
p1035
sbag0
(g1
g2
(lp1036
Vor
p1037
atp1038
Rp1039
(dp1040
g13
VCC
p1041
sbag0
(g1
g2
(lp1042
g0
(g1
g2
(lp1043
g0
(g1
g2
(lp1044
Va
p1045
atp1046
Rp1047
(dp1048
g13
VDT
p1049
sbag0
(g1
g2
(lp1050
Vglass
p1051
atp1052
Rp1053
(dp1054
g13
VNN
p1055
sbatp1056
Rp1057
(dp1058
g13
VNP
p1059
sbag0
(g1
g2
(lp1060
g0
(g1
g2
(lp1061
Vof
p1062
atp1063
Rp1064
(dp1065
g13
VIN
p1066
sbag0
(g1
g2
(lp1067
g0
(g1
g2
(lp1068
Vwine
p1069
atp1070
Rp1071
(dp1072
g13
VNN
p1073
sbatp1074
Rp1075
(dp1076
g13
VNP
p1077
sbatp1078
Rp1079
(dp1080
g13
VPP
p1081
sbatp1082
Rp1083
(dp1084
g13
VNP
p1085
sbatp1086
Rp1087
(dp1088
g13
VNP
p1089
sbatp1090
Rp1091
(dp1092
g13
VPP
p1093
sbatp1094
Rp1095
(dp1096
g13
VVP
p1097
sbatp1098
Rp1099
(dp1100
g13
VVP
p1101
sbatp1102
Rp1103
(dp1104
g13
VVP
p1105
sbatp1106
Rp1107
(dp1108
g13
VS
p1109
sbatp1110
Rp1111
(dp1112
g13
VSBAR
p1113
sbatp1114
Rp1115
(dp1116
g13
VVP
p1117
sbatp1118
Rp1119
(dp1120
g13
VS
p1121
sbag0
(g1
g2
(lp1122
V,
p1123
atp1124
Rp1125
(dp1126
g13
V,
p1127
sbag0
(g1
g2
(lp1128
g0
(g1
g2
(lp1129
Vthey
p1130
atp1131
Rp1132
(dp1133
g13
VPRP
p1134
sbatp1135
Rp1136
(dp1137
g13
VNP
p1138
sbag0
(g1
g2
(lp1139
g0
(g1
g2
(lp1140
V're
p1141
atp1142
Rp1143
(dp1144
g13
VVBP
p1145
sbag0
(g1
g2
(lp1146
g0
(g1
g2
(lp1147
Vlistening
p1148
atp1149
Rp1150
(dp1151
g13
VVBG
p1152
sbag0
(g1
g2
(lp1153
g0
(g1
g2
(lp1154
Vto
p1155
atp1156
Rp1157
(dp1158
g13
VTO
p1159
sbag0
(g1
g2
(lp1160
g0
(g1
g2
(lp1161
Vmusic
p1162
atp1163
Rp1164
(dp1165
g13
VNN
p1166
sbatp1167
Rp1168
(dp1169
g13
VNP
p1170
sbatp1171
Rp1172
(dp1173
g13
VPP
p1174
sbatp1175
Rp1176
(dp1177
g13
VVP
p1178
sbatp1179
Rp1180
(dp1181
g13
VVP
p1182
sbag0
(g1
g2
(lp1183
V.
p1184
atp1185
Rp1186
(dp1187
g13
V.
p1188
sbatp1189
Rp1190
(dp1191
g13
VS
p1192
sbatp1193
Rp1194
(dp1195
g13
S'id: 3'
p1196
sbag0
(g1
g2
(lp1197
g0
(g1
g2
(lp1198
g0
(g1
g2
(lp1199
g0
(g1
g2
(lp1200
g0
(g1
g2
(lp1201
VThe
p1202
atp1203
Rp1204
(dp1205
g13
VDT
p1206
sbag0
(g1
g2
(lp1207
Vson
p1208
atp1209
Rp1210
(dp1211
g13
VNN
p1212
sbatp1213
Rp1214
(dp1215
g13
VNP
p1216
sbag0
(g1
g2
(lp1217
g0
(g1
g2
(lp1218
Vis
p1219
atp1220
Rp1221
(dp1222
g13
VVBZ
p1223
sbag0
(g1
g2
(lp1224
g0
(g1
g2
(lp1225
Vplaying
p1226
atp1227
Rp1228
(dp1229
g13
VVBG
p1230
sbag0
(g1
g2
(lp1231
g0
(g1
g2
(lp1232
Vwith
p1233
atp1234
Rp1235
(dp1236
g13
VIN
p1237
sbag0
(g1
g2
(lp1238
g0
(g1
g2
(lp1239
Vhis
p1240
atp1241
Rp1242
(dp1243
g13
VPRP$
p1244
sbag0
(g1
g2
(lp1245
Vkite
p1246
atp1247
Rp1248
(dp1249
g13
VNN
p1250
sbatp1251
Rp1252
(dp1253
g13
VNP
p1254
sbatp1255
Rp1256
(dp1257
g13
VPP
p1258
sbatp1259
Rp1260
(dp1261
g13
VVP
p1262
sbatp1263
Rp1264
(dp1265
g13
VVP
p1266
sbatp1267
Rp1268
(dp1269
g13
VS
p1270
sbag0
(g1
g2
(lp1271
V,
p1272
atp1273
Rp1274
(dp1275
g13
V,
p1276
sbag0
(g1
g2
(lp1277
Vand
p1278
atp1279
Rp1280
(dp1281
g13
VCC
p1282
sbag0
(g1
g2
(lp1283
g0
(g1
g2
(lp1284
g0
(g1
g2
(lp1285
Vthe
p1286
atp1287
Rp1288
(dp1289
g13
VDT
p1290
sbag0
(g1
g2
(lp1291
Vdog
p1292
atp1293
Rp1294
(dp1295
g13
VNN
p1296
sbatp1297
Rp1298
(dp1299
g13
VNP
p1300
sbag0
(g1
g2
(lp1301
g0
(g1
g2
(lp1302
Vis
p1303
atp1304
Rp1305
(dp1306
g13
VVBZ
p1307
sbag0
(g1
g2
(lp1308
g0
(g1
g2
(lp1309
Vrunning
p1310
atp1311
Rp1312
(dp1313
g13
VVBG
p1314
sbag0
(g1
g2
(lp1315
g0
(g1
g2
(lp1316
Valong
p1317
atp1318
Rp1319
(dp1320
g13
VRP
p1321
sbatp1322
Rp1323
(dp1324
g13
VPRT
p1325
sbag0
(g1
g2
(lp1326
g0
(g1
g2
(lp1327
Vwith
p1328
atp1329
Rp1330
(dp1331
g13
VIN
p1332
sbag0
(g1
g2
(lp1333
g0
(g1
g2
(lp1334
Vhim
p1335
atp1336
Rp1337
(dp1338
g13
VPRP
p1339
sbatp1340
Rp1341
(dp1342
g13
VNP
p1343
sbatp1344
Rp1345
(dp1346
g13
VPP
p1347
sbag0
(g1
g2
(lp1348
V,
p1349
atp1350
Rp1351
(dp1352
g13
V,
p1353
sbag0
(g1
g2
(lp1354
g0
(g1
g2
(lp1355
Vwhile
p1356
atp1357
Rp1358
(dp1359
g13
VIN
p1360
sbag0
(g1
g2
(lp1361
g0
(g1
g2
(lp1362
g0
(g1
g2
(lp1363
Vhis
p1364
atp1365
Rp1366
(dp1367
g13
VPRP$
p1368
sbag0
(g1
g2
(lp1369
Vsister
p1370
atp1371
Rp1372
(dp1373
g13
VNN
p1374
sbatp1375
Rp1376
(dp1377
g13
VNP
p1378
sbag0
(g1
g2
(lp1379
g0
(g1
g2
(lp1380
Vis
p1381
atp1382
Rp1383
(dp1384
g13
VVBZ
p1385
sbag0
(g1
g2
(lp1386
g0
(g1
g2
(lp1387
Vmaking
p1388
atp1389
Rp1390
(dp1391
g13
VVBG
p1392
sbag0
(g1
g2
(lp1393
g0
(g1
g2
(lp1394
Va
p1395
atp1396
Rp1397
(dp1398
g13
VDT
p1399
sbag0
(g1
g2
(lp1400
Vsandcastle
p1401
atp1402
Rp1403
(dp1404
g13
VNN
p1405
sbatp1406
Rp1407
(dp1408
g13
VNP
p1409
sbatp1410
Rp1411
(dp1412
g13
VVP
p1413
sbatp1414
Rp1415
(dp1416
g13
VVP
p1417
sbatp1418
Rp1419
(dp1420
g13
VS
p1421
sbatp1422
Rp1423
(dp1424
g13
VSBAR
p1425
sbag0
(g1
g2
(lp1426
V,
p1427
atp1428
Rp1429
(dp1430
g13
V,
p1431
sbag0
(g1
g2
(lp1432
g0
(g1
g2
(lp1433
Vby
p1434
atp1435
Rp1436
(dp1437
g13
VIN
p1438
sbag0
(g1
g2
(lp1439
g0
(g1
g2
(lp1440
Vthe
p1441
atp1442
Rp1443
(dp1444
g13
VDT
p1445
sbag0
(g1
g2
(lp1446
Vshore
p1447
atp1448
Rp1449
(dp1450
g13
VNN
p1451
sbatp1452
Rp1453
(dp1454
g13
VNP
p1455
sbatp1456
Rp1457
(dp1458
g13
VPP
p1459
sbatp1460
Rp1461
(dp1462
g13
VVP
p1463
sbatp1464
Rp1465
(dp1466
g13
VVP
p1467
sbatp1468
Rp1469
(dp1470
g13
VS
p1471
sbag0
(g1
g2
(lp1472
V.
p1473
atp1474
Rp1475
(dp1476
g13
V.
p1477
sbatp1478
Rp1479
(dp1480
g13
VS
p1481
sbatp1482
Rp1483
(dp1484
g13
S'id: 4'
p1485
sbag0
(g1
g2
(lp1486
g0
(g1
g2
(lp1487
g0
(g1
g2
(lp1488
g0
(g1
g2
(lp1489
VThere
p1490
atp1491
Rp1492
(dp1493
g13
VEX
p1494
sbatp1495
Rp1496
(dp1497
g13
VNP
p1498
sbag0
(g1
g2
(lp1499
g0
(g1
g2
(lp1500
V's
p1501
atp1502
Rp1503
(dp1504
g13
VVBZ
p1505
sbag0
(g1
g2
(lp1506
g0
(g1
g2
(lp1507
Va
p1508
atp1509
Rp1510
(dp1511
g13
VDT
p1512
sbag0
(g1
g2
(lp1513
Vboat
p1514
atp1515
Rp1516
(dp1517
g13
VNN
p1518
sbatp1519
Rp1520
(dp1521
g13
VNP
p1522
sbag0
(g1
g2
(lp1523
g0
(g1
g2
(lp1524
Voff
p1525
atp1526
Rp1527
(dp1528
g13
VRP
p1529
sbag0
(g1
g2
(lp1530
g0
(g1
g2
(lp1531
Vin
p1532
atp1533
Rp1534
(dp1535
g13
VIN
p1536
sbag0
(g1
g2
(lp1537
g0
(g1
g2
(lp1538
g0
(g1
g2
(lp1539
Vthe
p1540
atp1541
Rp1542
(dp1543
g13
VDT
p1544
sbag0
(g1
g2
(lp1545
Vdistance
p1546
atp1547
Rp1548
(dp1549
g13
VNN
p1550
sbatp1551
Rp1552
(dp1553
g13
VNP
p1554
sbag0
(g1
g2
(lp1555
V,
p1556
atp1557
Rp1558
(dp1559
g13
V,
p1560
sbag0
(g1
g2
(lp1561
g0
(g1
g2
(lp1562
Va
p1563
atp1564
Rp1565
(dp1566
g13
VDT
p1567
sbag0
(g1
g2
(lp1568
Vsailboat
p1569
atp1570
Rp1571
(dp1572
g13
VNN
p1573
sbatp1574
Rp1575
(dp1576
g13
VNP
p1577
sbag0
(g1
g2
(lp1578
V,
p1579
atp1580
Rp1581
(dp1582
g13
V,
p1583
sbatp1584
Rp1585
(dp1586
g13
VNP
p1587
sbatp1588
Rp1589
(dp1590
g13
VPP
p1591
sbatp1592
Rp1593
(dp1594
g13
VPP
p1595
sbag0
(g1
g2
(lp1596
g0
(g1
g2
(lp1597
Vwith
p1598
atp1599
Rp1600
(dp1601
g13
VIN
p1602
sbag0
(g1
g2
(lp1603
g0
(g1
g2
(lp1604
g0
(g1
g2
(lp1605
Vlooks
p1606
atp1607
Rp1608
(dp1609
g13
VNNS
p1610
sbatp1611
Rp1612
(dp1613
g13
VNP
p1614
sbag0
(g1
g2
(lp1615
g0
(g1
g2
(lp1616
Vlike
p1617
atp1618
Rp1619
(dp1620
g13
VIN
p1621
sbag0
(g1
g2
(lp1622
g0
(g1
g2
(lp1623
g0
(g1
g2
(lp1624
Vtwo
p1625
atp1626
Rp1627
(dp1628
g13
VCD
p1629
sbag0
(g1
g2
(lp1630
Vpeople
p1631
atp1632
Rp1633
(dp1634
g13
VNNS
p1635
sbatp1636
Rp1637
(dp1638
g13
VNP
p1639
sbag0
(g1
g2
(lp1640
g0
(g1
g2
(lp1641
Von
p1642
atp1643
Rp1644
(dp1645
g13
VIN
p1646
sbag0
(g1
g2
(lp1647
g0
(g1
g2
(lp1648
Vit
p1649
atp1650
Rp1651
(dp1652
g13
VPRP
p1653
sbatp1654
Rp1655
(dp1656
g13
VNP
p1657
sbatp1658
Rp1659
(dp1660
g13
VPP
p1661
sbatp1662
Rp1663
(dp1664
g13
VNP
p1665
sbatp1666
Rp1667
(dp1668
g13
VPP
p1669
sbatp1670
Rp1671
(dp1672
g13
VNP
p1673
sbatp1674
Rp1675
(dp1676
g13
VPP
p1677
sbatp1678
Rp1679
(dp1680
g13
VVP
p1681
sbag0
(g1
g2
(lp1682
V.
p1683
atp1684
Rp1685
(dp1686
g13
V.
p1687
sbatp1688
Rp1689
(dp1690
g13
VS
p1691
sbatp1692
Rp1693
(dp1694
g13
S'id: 5'
p1695
sbag0
(g1
g2
(lp1696
g0
(g1
g2
(lp1697
g0
(g1
g2
(lp1698
g0
(g1
g2
(lp1699
VAnd
p1700
atp1701
Rp1702
(dp1703
g13
VCC
p1704
sbag0
(g1
g2
(lp1705
g0
(g1
g2
(lp1706
Vthen
p1707
atp1708
Rp1709
(dp1710
g13
VRB
p1711
sbatp1712
Rp1713
(dp1714
g13
VADVP
p1715
sbag0
(g1
g2
(lp1716
g0
(g1
g2
(lp1717
Vthere
p1718
atp1719
Rp1720
(dp1721
g13
VEX
p1722
sbatp1723
Rp1724
(dp1725
g13
VNP
p1726
sbag0
(g1
g2
(lp1727
g0
(g1
g2
(lp1728
V's
p1729
atp1730
Rp1731
(dp1732
g13
VVBZ
p1733
sbag0
(g1
g2
(lp1734
g0
(g1
g2
(lp1735
g0
(g1
g2
(lp1736
Va
p1737
atp1738
Rp1739
(dp1740
g13
VDT
p1741
sbag0
(g1
g2
(lp1742
Vgentleman
p1743
atp1744
Rp1745
(dp1746
g13
VNN
p1747
sbatp1748
Rp1749
(dp1750
g13
VNP
p1751
sbag0
(g1
g2
(lp1752
g0
(g1
g2
(lp1753
Von
p1754
atp1755
Rp1756
(dp1757
g13
VIN
p1758
sbag0
(g1
g2
(lp1759
g0
(g1
g2
(lp1760
g0
(g1
g2
(lp1761
Vthe
p1762
atp1763
Rp1764
(dp1765
g13
VDT
p1766
sbag0
(g1
g2
(lp1767
Vdock
p1768
atp1769
Rp1770
(dp1771
g13
VNN
p1772
sbatp1773
Rp1774
(dp1775
g13
VNP
p1776
sbag0
(g1
g2
(lp1777
V,
p1778
atp1779
Rp1780
(dp1781
g13
V,
p1782
sbag0
(g1
g2
(lp1783
g0
(g1
g2
(lp1784
g0
(g1
g2
(lp1785
Vwho
p1786
atp1787
Rp1788
(dp1789
g13
VWP
p1790
sbatp1791
Rp1792
(dp1793
g13
VWHNP
p1794
sbag0
(g1
g2
(lp1795
g0
(g1
g2
(lp1796
g0
(g1
g2
(lp1797
Vjust
p1798
atp1799
Rp1800
(dp1801
g13
VRB
p1802
sbatp1803
Rp1804
(dp1805
g13
VADVP
p1806
sbag0
(g1
g2
(lp1807
g0
(g1
g2
(lp1808
Vcaught
p1809
atp1810
Rp1811
(dp1812
g13
VVBD
p1813
sbag0
(g1
g2
(lp1814
g0
(g1
g2
(lp1815
Va
p1816
atp1817
Rp1818
(dp1819
g13
VDT
p1820
sbag0
(g1
g2
(lp1821
Vfish
p1822
atp1823
Rp1824
(dp1825
g13
VNN
p1826
sbatp1827
Rp1828
(dp1829
g13
VNP
p1830
sbatp1831
Rp1832
(dp1833
g13
VVP
p1834
sbatp1835
Rp1836
(dp1837
g13
VS
p1838
sbatp1839
Rp1840
(dp1841
g13
VSBAR
p1842
sbatp1843
Rp1844
(dp1845
g13
VNP
p1846
sbatp1847
Rp1848
(dp1849
g13
VPP
p1850
sbatp1851
Rp1852
(dp1853
g13
VNP
p1854
sbatp1855
Rp1856
(dp1857
g13
VVP
p1858
sbatp1859
Rp1860
(dp1861
g13
VS
p1862
sbag0
(g1
g2
(lp1863
V,
p1864
atp1865
Rp1866
(dp1867
g13
V,
p1868
sbag0
(g1
g2
(lp1869
Vso
p1870
atp1871
Rp1872
(dp1873
g13
VRB
p1874
sbag0
(g1
g2
(lp1875
g0
(g1
g2
(lp1876
g0
(g1
g2
(lp1877
Vhe
p1878
atp1879
Rp1880
(dp1881
g13
VPRP
p1882
sbatp1883
Rp1884
(dp1885
g13
VNP
p1886
sbag0
(g1
g2
(lp1887
g0
(g1
g2
(lp1888
Vseems
p1889
atp1890
Rp1891
(dp1892
g13
VVBZ
p1893
sbag0
(g1
g2
(lp1894
g0
(g1
g2
(lp1895
g0
(g1
g2
(lp1896
Vto
p1897
atp1898
Rp1899
(dp1900
g13
VTO
p1901
sbag0
(g1
g2
(lp1902
g0
(g1
g2
(lp1903
Vbe
p1904
atp1905
Rp1906
(dp1907
g13
VVB
p1908
sbag0
(g1
g2
(lp1909
g0
(g1
g2
(lp1910
g0
(g1
g2
(lp1911
Vreal
p1912
atp1913
Rp1914
(dp1915
g13
VJJ
p1916
sbag0
(g1
g2
(lp1917
Vexcited
p1918
atp1919
Rp1920
(dp1921
g13
VJJ
p1922
sbatp1923
Rp1924
(dp1925
g13
VADJP
p1926
sbag0
(g1
g2
(lp1927
g0
(g1
g2
(lp1928
Vabout
p1929
atp1930
Rp1931
(dp1932
g13
VIN
p1933
sbag0
(g1
g2
(lp1934
g0
(g1
g2
(lp1935
Vthat
p1936
atp1937
Rp1938
(dp1939
g13
VDT
p1940
sbatp1941
Rp1942
(dp1943
g13
VNP
p1944
sbatp1945
Rp1946
(dp1947
g13
VPP
p1948
sbatp1949
Rp1950
(dp1951
g13
VADJP
p1952
sbatp1953
Rp1954
(dp1955
g13
VVP
p1956
sbatp1957
Rp1958
(dp1959
g13
VVP
p1960
sbatp1961
Rp1962
(dp1963
g13
VS
p1964
sbatp1965
Rp1966
(dp1967
g13
VVP
p1968
sbatp1969
Rp1970
(dp1971
g13
VS
p1972
sbag0
(g1
g2
(lp1973
V.
p1974
atp1975
Rp1976
(dp1977
g13
V.
p1978
sbatp1979
Rp1980
(dp1981
g13
VS
p1982
sbatp1983
Rp1984
(dp1985
g13
S'id: 6'
p1986
sbag0
(g1
g2
(lp1987
g0
(g1
g2
(lp1988
g0
(g1
g2
(lp1989
g0
(g1
g2
(lp1990
VThey
p1991
atp1992
Rp1993
(dp1994
g13
VPRP
p1995
sbatp1996
Rp1997
(dp1998
g13
VNP
p1999
sbag0
(g1
g2
(lp2000
g0
(g1
g2
(lp2001
Vseem
p2002
atp2003
Rp2004
(dp2005
g13
VVBP
p2006
sbag0
(g1
g2
(lp2007
g0
(g1
g2
(lp2008
g0
(g1
g2
(lp2009
Vto
p2010
atp2011
Rp2012
(dp2013
g13
VTO
p2014
sbag0
(g1
g2
(lp2015
g0
(g1
g2
(lp2016
Vbe
p2017
atp2018
Rp2019
(dp2020
g13
VVB
p2021
sbag0
(g1
g2
(lp2022
g0
(g1
g2
(lp2023
Vhaving
p2024
atp2025
Rp2026
(dp2027
g13
VVBG
p2028
sbag0
(g1
g2
(lp2029
g0
(g1
g2
(lp2030
g0
(g1
g2
(lp2031
Va
p2032
atp2033
Rp2034
(dp2035
g13
VDT
p2036
sbag0
(g1
g2
(lp2037
g0
(g1
g2
(lp2038
Vvery
p2039
atp2040
Rp2041
(dp2042
g13
VRB
p2043
sbag0
(g1
g2
(lp2044
Vnice
p2045
atp2046
Rp2047
(dp2048
g13
VJJ
p2049
sbatp2050
Rp2051
(dp2052
g13
VADJP
p2053
sbag0
(g1
g2
(lp2054
Vafternoon
p2055
atp2056
Rp2057
(dp2058
g13
VNN
p2059
sbatp2060
Rp2061
(dp2062
g13
VNP
p2063
sbag0
(g1
g2
(lp2064
V,
p2065
atp2066
Rp2067
(dp2068
g13
V,
p2069
sbag0
(g1
g2
(lp2070
g0
(g1
g2
(lp2071
Venjoying
p2072
atp2073
Rp2074
(dp2075
g13
VVBG
p2076
sbag0
(g1
g2
(lp2077
g0
(g1
g2
(lp2078
Vthings
p2079
atp2080
Rp2081
(dp2082
g13
VNNS
p2083
sbatp2084
Rp2085
(dp2086
g13
VNP
p2087
sbag0
(g1
g2
(lp2088
g0
(g1
g2
(lp2089
Vthat
p2090
atp2091
Rp2092
(dp2093
g13
VIN
p2094
sbag0
(g1
g2
(lp2095
g0
(g1
g2
(lp2096
g0
(g1
g2
(lp2097
Vthey
p2098
atp2099
Rp2100
(dp2101
g13
VPRP
p2102
sbatp2103
Rp2104
(dp2105
g13
VNP
p2106
sbag0
(g1
g2
(lp2107
g0
(g1
g2
(lp2108
Vlike
p2109
atp2110
Rp2111
(dp2112
g13
VVBP
p2113
sbag0
(g1
g2
(lp2114
g0
(g1
g2
(lp2115
g0
(g1
g2
(lp2116
Vto
p2117
atp2118
Rp2119
(dp2120
g13
VTO
p2121
sbag0
(g1
g2
(lp2122
g0
(g1
g2
(lp2123
Vdo
p2124
atp2125
Rp2126
(dp2127
g13
VVB
p2128
sbatp2129
Rp2130
(dp2131
g13
VVP
p2132
sbatp2133
Rp2134
(dp2135
g13
VVP
p2136
sbatp2137
Rp2138
(dp2139
g13
VS
p2140
sbatp2141
Rp2142
(dp2143
g13
VVP
p2144
sbatp2145
Rp2146
(dp2147
g13
VS
p2148
sbatp2149
Rp2150
(dp2151
g13
VSBAR
p2152
sbatp2153
Rp2154
(dp2155
g13
VVP
p2156
sbatp2157
Rp2158
(dp2159
g13
VNP
p2160
sbatp2161
Rp2162
(dp2163
g13
VVP
p2164
sbatp2165
Rp2166
(dp2167
g13
VVP
p2168
sbatp2169
Rp2170
(dp2171
g13
VVP
p2172
sbatp2173
Rp2174
(dp2175
g13
VS
p2176
sbatp2177
Rp2178
(dp2179
g13
VVP
p2180
sbag0
(g1
g2
(lp2181
V.
p2182
atp2183
Rp2184
(dp2185
g13
V.
p2186
sbatp2187
Rp2188
(dp2189
g13
VS
p2190
sbatp2191
Rp2192
(dp2193
g13
S'id: 7'
p2194
sbag0
(g1
g2
(lp2195
g0
(g1
g2
(lp2196
g0
(g1
g2
(lp2197
g0
(g1
g2
(lp2198
VThe
p2199
atp2200
Rp2201
(dp2202
g13
VDT
p2203
sbag0
(g1
g2
(lp2204
Vmom
p2205
atp2206
Rp2207
(dp2208
g13
VNN
p2209
sbatp2210
Rp2211
(dp2212
g13
VNP
p2213
sbag0
(g1
g2
(lp2214
g0
(g1
g2
(lp2215
Vis
p2216
atp2217
Rp2218
(dp2219
g13
VVBZ
p2220
sbag0
(g1
g2
(lp2221
g0
(g1
g2
(lp2222
Vin
p2223
atp2224
Rp2225
(dp2226
g13
VIN
p2227
sbag0
(g1
g2
(lp2228
g0
(g1
g2
(lp2229
Vtennis
p2230
atp2231
Rp2232
(dp2233
g13
VNN
p2234
sbag0
(g1
g2
(lp2235
Vshoes
p2236
atp2237
Rp2238
(dp2239
g13
VNNS
p2240
sbatp2241
Rp2242
(dp2243
g13
VNP
p2244
sbatp2245
Rp2246
(dp2247
g13
VPP
p2248
sbag0
(g1
g2
(lp2249
V,
p2250
atp2251
Rp2252
(dp2253
g13
V,
p2254
sbag0
(g1
g2
(lp2255
g0
(g1
g2
(lp2256
Vwhile
p2257
atp2258
Rp2259
(dp2260
g13
VIN
p2261
sbag0
(g1
g2
(lp2262
g0
(g1
g2
(lp2263
g0
(g1
g2
(lp2264
Vthe
p2265
atp2266
Rp2267
(dp2268
g13
VDT
p2269
sbag0
(g1
g2
(lp2270
Vdad
p2271
atp2272
Rp2273
(dp2274
g13
VNN
p2275
sbatp2276
Rp2277
(dp2278
g13
VNP
p2279
sbag0
(g1
g2
(lp2280
g0
(g1
g2
(lp2281
Vkicked
p2282
atp2283
Rp2284
(dp2285
g13
VVBD
p2286
sbag0
(g1
g2
(lp2287
g0
(g1
g2
(lp2288
Vhis
p2289
atp2290
Rp2291
(dp2292
g13
VPRP$
p2293
sbag0
(g1
g2
(lp2294
Vsandals
p2295
atp2296
Rp2297
(dp2298
g13
VNNS
p2299
sbatp2300
Rp2301
(dp2302
g13
VNP
p2303
sbag0
(g1
g2
(lp2304
g0
(g1
g2
(lp2305
Voff
p2306
atp2307
Rp2308
(dp2309
g13
VRP
p2310
sbatp2311
Rp2312
(dp2313
g13
VPRT
p2314
sbatp2315
Rp2316
(dp2317
g13
VVP
p2318
sbatp2319
Rp2320
(dp2321
g13
VS
p2322
sbatp2323
Rp2324
(dp2325
g13
VSBAR
p2326
sbatp2327
Rp2328
(dp2329
g13
VVP
p2330
sbag0
(g1
g2
(lp2331
V.
p2332
atp2333
Rp2334
(dp2335
g13
V.
p2336
sbatp2337
Rp2338
(dp2339
g13
VS
p2340
sbatp2341
Rp2342
(dp2343
g13
S'id: 8'
p2344
sbag0
(g1
g2
(lp2345
g0
(g1
g2
(lp2346
g0
(g1
g2
(lp2347
g0
(g1
g2
(lp2348
g0
(g1
g2
(lp2349
VThere
p2350
atp2351
Rp2352
(dp2353
g13
VEX
p2354
sbatp2355
Rp2356
(dp2357
g13
VNP
p2358
sbag0
(g1
g2
(lp2359
g0
(g1
g2
(lp2360
V's
p2361
atp2362
Rp2363
(dp2364
g13
VVBZ
p2365
sbag0
(g1
g2
(lp2366
g0
(g1
g2
(lp2367
g0
(g1
g2
(lp2368
Va
p2369
atp2370
Rp2371
(dp2372
g13
VDT
p2373
sbag0
(g1
g2
(lp2374
Vcar
p2375
atp2376
Rp2377
(dp2378
g13
VNN
p2379
sbatp2380
Rp2381
(dp2382
g13
VNP
p2383
sbag0
(g1
g2
(lp2384
g0
(g1
g2
(lp2385
Vparked
p2386
atp2387
Rp2388
(dp2389
g13
VVBN
p2390
sbag0
(g1
g2
(lp2391
g0
(g1
g2
(lp2392
Vin
p2393
atp2394
Rp2395
(dp2396
g13
VIN
p2397
sbag0
(g1
g2
(lp2398
g0
(g1
g2
(lp2399
Vthe
p2400
atp2401
Rp2402
(dp2403
g13
VDT
p2404
sbag0
(g1
g2
(lp2405
Vyard
p2406
atp2407
Rp2408
(dp2409
g13
VNN
p2410
sbatp2411
Rp2412
(dp2413
g13
VNP
p2414
sbatp2415
Rp2416
(dp2417
g13
VPP
p2418
sbatp2419
Rp2420
(dp2421
g13
VVP
p2422
sbatp2423
Rp2424
(dp2425
g13
VNP
p2426
sbatp2427
Rp2428
(dp2429
g13
VVP
p2430
sbatp2431
Rp2432
(dp2433
g13
VS
p2434
sbag0
(g1
g2
(lp2435
V,
p2436
atp2437
Rp2438
(dp2439
g13
V,
p2440
sbag0
(g1
g2
(lp2441
g0
(g1
g2
(lp2442
VI
p2443
atp2444
Rp2445
(dp2446
g13
VPRP
p2447
sbatp2448
Rp2449
(dp2450
g13
VNP
p2451
sbag0
(g1
g2
(lp2452
g0
(g1
g2
(lp2453
V'm
p2454
atp2455
Rp2456
(dp2457
g13
VVBP
p2458
sbag0
(g1
g2
(lp2459
g0
(g1
g2
(lp2460
Vassuming
p2461
atp2462
Rp2463
(dp2464
g13
VVBG
p2465
sbag0
(g1
g2
(lp2466
g0
(g1
g2
(lp2467
Vthat
p2468
atp2469
Rp2470
(dp2471
g13
VIN
p2472
sbag0
(g1
g2
(lp2473
g0
(g1
g2
(lp2474
g0
(g1
g2
(lp2475
Vbelongs
p2476
atp2477
Rp2478
(dp2479
g13
VVBZ
p2480
sbag0
(g1
g2
(lp2481
g0
(g1
g2
(lp2482
Vto
p2483
atp2484
Rp2485
(dp2486
g13
VTO
p2487
sbag0
(g1
g2
(lp2488
g0
(g1
g2
(lp2489
Vthem
p2490
atp2491
Rp2492
(dp2493
g13
VPRP
p2494
sbatp2495
Rp2496
(dp2497
g13
VNP
p2498
sbatp2499
Rp2500
(dp2501
g13
VPP
p2502
sbatp2503
Rp2504
(dp2505
g13
VVP
p2506
sbatp2507
Rp2508
(dp2509
g13
VS
p2510
sbatp2511
Rp2512
(dp2513
g13
VSBAR
p2514
sbatp2515
Rp2516
(dp2517
g13
VVP
p2518
sbatp2519
Rp2520
(dp2521
g13
VVP
p2522
sbag0
(g1
g2
(lp2523
V.
p2524
atp2525
Rp2526
(dp2527
g13
V.
p2528
sbatp2529
Rp2530
(dp2531
g13
VS
p2532
sbatp2533
Rp2534
(dp2535
g13
S'id: 9'
p2536
sbag0
(g1
g2
(lp2537
g0
(g1
g2
(lp2538
g0
(g1
g2
(lp2539
g0
(g1
g2
(lp2540
g0
(g1
g2
(lp2541
VAnd
p2542
atp2543
Rp2544
(dp2545
g13
VCC
p2546
sbag0
(g1
g2
(lp2547
g0
(g1
g2
(lp2548
Vagain
p2549
atp2550
Rp2551
(dp2552
g13
VRB
p2553
sbatp2554
Rp2555
(dp2556
g13
VADVP
p2557
sbag0
(g1
g2
(lp2558
g0
(g1
g2
(lp2559
VI
p2560
atp2561
Rp2562
(dp2563
g13
VPRP
p2564
sbatp2565
Rp2566
(dp2567
g13
VNP
p2568
sbag0
(g1
g2
(lp2569
g0
(g1
g2
(lp2570
Vca
p2571
atp2572
Rp2573
(dp2574
g13
VMD
p2575
sbag0
(g1
g2
(lp2576
Vn't
p2577
atp2578
Rp2579
(dp2580
g13
VRB
p2581
sbag0
(g1
g2
(lp2582
g0
(g1
g2
(lp2583
Vtell
p2584
atp2585
Rp2586
(dp2587
g13
VVB
p2588
sbag0
(g1
g2
(lp2589
g0
(g1
g2
(lp2590
Vwhether
p2591
atp2592
Rp2593
(dp2594
g13
VIN
p2595
sbag0
(g1
g2
(lp2596
g0
(g1
g2
(lp2597
g0
(g1
g2
(lp2598
Vit
p2599
atp2600
Rp2601
(dp2602
g13
VPRP
p2603
sbatp2604
Rp2605
(dp2606
g13
VNP
p2607
sbag0
(g1
g2
(lp2608
g0
(g1
g2
(lp2609
V's
p2610
atp2611
Rp2612
(dp2613
g13
VVBZ
p2614
sbag0
(g1
g2
(lp2615
g0
(g1
g2
(lp2616
Vtheir
p2617
atp2618
Rp2619
(dp2620
g13
VPRP$
p2621
sbag0
(g1
g2
(lp2622
Vpersonal
p2623
atp2624
Rp2625
(dp2626
g13
VJJ
p2627
sbag0
(g1
g2
(lp2628
Vhome
p2629
atp2630
Rp2631
(dp2632
g13
VNN
p2633
sbatp2634
Rp2635
(dp2636
g13
VNP
p2637
sbatp2638
Rp2639
(dp2640
g13
VVP
p2641
sbatp2642
Rp2643
(dp2644
g13
VS
p2645
sbatp2646
Rp2647
(dp2648
g13
VSBAR
p2649
sbatp2650
Rp2651
(dp2652
g13
VVP
p2653
sbatp2654
Rp2655
(dp2656
g13
VVP
p2657
sbatp2658
Rp2659
(dp2660
g13
VS
p2661
sbag0
(g1
g2
(lp2662
V,
p2663
atp2664
Rp2665
(dp2666
g13
V,
p2667
sbag0
(g1
g2
(lp2668
Vor
p2669
atp2670
Rp2671
(dp2672
g13
VCC
p2673
sbag0
(g1
g2
(lp2674
g0
(g1
g2
(lp2675
g0
(g1
g2
(lp2676
Vit
p2677
atp2678
Rp2679
(dp2680
g13
VPRP
p2681
sbatp2682
Rp2683
(dp2684
g13
VNP
p2685
sbag0
(g1
g2
(lp2686
g0
(g1
g2
(lp2687
V's
p2688
atp2689
Rp2690
(dp2691
g13
VVBZ
p2692
sbag0
(g1
g2
(lp2693
g0
(g1
g2
(lp2694
Vlike
p2695
atp2696
Rp2697
(dp2698
g13
VIN
p2699
sbag0
(g1
g2
(lp2700
g0
(g1
g2
(lp2701
Va
p2702
atp2703
Rp2704
(dp2705
g13
VDT
p2706
sbag0
(g1
g2
(lp2707
Vcamp
p2708
atp2709
Rp2710
(dp2711
g13
VNN
p2712
sbatp2713
Rp2714
(dp2715
g13
VNP
p2716
sbatp2717
Rp2718
(dp2719
g13
VPP
p2720
sbatp2721
Rp2722
(dp2723
g13
VVP
p2724
sbatp2725
Rp2726
(dp2727
g13
VS
p2728
sbatp2729
Rp2730
(dp2731
g13
VS
p2732
sbag0
(g1
g2
(lp2733
V,
p2734
atp2735
Rp2736
(dp2737
g13
V,
p2738
sbag0
(g1
g2
(lp2739
g0
(g1
g2
(lp2740
VI
p2741
atp2742
Rp2743
(dp2744
g13
VPRP
p2745
sbatp2746
Rp2747
(dp2748
g13
VNP
p2749
sbag0
(g1
g2
(lp2750
g0
(g1
g2
(lp2751
Vmean
p2752
atp2753
Rp2754
(dp2755
g13
VVBP
p2756
sbag0
(g1
g2
(lp2757
g0
(g1
g2
(lp2758
Va
p2759
atp2760
Rp2761
(dp2762
g13
VDT
p2763
sbag0
(g1
g2
(lp2764
g0
(g1
g2
(lp2765
Va
p2766
atp2767
Rp2768
(dp2769
g13
VDT
p2770
sbag0
(g1
g2
(lp2771
Vcabin
p2772
atp2773
Rp2774
(dp2775
g13
VNN
p2776
sbatp2777
Rp2778
(dp2779
g13
VNP
p2780
sbag0
(g1
g2
(lp2781
V,
p2782
atp2783
Rp2784
(dp2785
g13
V,
p2786
sbag0
(g1
g2
(lp2787
Vor
p2788
atp2789
Rp2790
(dp2791
g13
VCC
p2792
sbag0
(g1
g2
(lp2793
g0
(g1
g2
(lp2794
Vsomething
p2795
atp2796
Rp2797
(dp2798
g13
VNN
p2799
sbatp2800
Rp2801
(dp2802
g13
VNP
p2803
sbatp2804
Rp2805
(dp2806
g13
VNP
p2807
sbatp2808
Rp2809
(dp2810
g13
VVP
p2811
sbag0
(g1
g2
(lp2812
V.
p2813
atp2814
Rp2815
(dp2816
g13
V.
p2817
sbatp2818
Rp2819
(dp2820
g13
VS
p2821
sbatp2822
Rp2823
(dp2824
g13
S'id: 10'
p2825
sbag0
(g1
g2
(lp2826
g0
(g1
g2
(lp2827
g0
(g1
g2
(lp2828
g0
(g1
g2
(lp2829
g0
(g1
g2
(lp2830
VYou
p2831
atp2832
Rp2833
(dp2834
g13
VPRP
p2835
sbatp2836
Rp2837
(dp2838
g13
VNP
p2839
sbag0
(g1
g2
(lp2840
g0
(g1
g2
(lp2841
Vdont
p2842
atp2843
Rp2844
(dp2845
g13
VVBP
p2846
sbag0
(g1
g2
(lp2847
g0
(g1
g2
(lp2848
Vsee
p2849
atp2850
Rp2851
(dp2852
g13
VVB
p2853
sbag0
(g1
g2
(lp2854
g0
(g1
g2
(lp2855
g0
(g1
g2
(lp2856
Va
p2857
atp2858
Rp2859
(dp2860
g13
VDT
p2861
sbag0
(g1
g2
(lp2862
Vlot
p2863
atp2864
Rp2865
(dp2866
g13
VNN
p2867
sbatp2868
Rp2869
(dp2870
g13
VNP
p2871
sbag0
(g1
g2
(lp2872
g0
(g1
g2
(lp2873
Vof
p2874
atp2875
Rp2876
(dp2877
g13
VIN
p2878
sbag0
(g1
g2
(lp2879
g0
(g1
g2
(lp2880
g0
(g1
g2
(lp2881
Vflags
p2882
atp2883
Rp2884
(dp2885
g13
VNNS
p2886
sbatp2887
Rp2888
(dp2889
g13
VNP
p2890
sbag0
(g1
g2
(lp2891
g0
(g1
g2
(lp2892
Vin
p2893
atp2894
Rp2895
(dp2896
g13
VIN
p2897
sbag0
(g1
g2
(lp2898
g0
(g1
g2
(lp2899
g0
(g1
g2
(lp2900
Vpeople
p2901
atp2902
Rp2903
(dp2904
g13
VNNS
p2905
sbag0
(g1
g2
(lp2906
V's
p2907
atp2908
Rp2909
(dp2910
g13
VPOS
p2911
sbatp2912
Rp2913
(dp2914
g13
VNP
p2915
sbag0
(g1
g2
(lp2916
Vyards
p2917
atp2918
Rp2919
(dp2920
g13
VNNS
p2921
sbatp2922
Rp2923
(dp2924
g13
VNP
p2925
sbatp2926
Rp2927
(dp2928
g13
VPP
p2929
sbatp2930
Rp2931
(dp2932
g13
VNP
p2933
sbatp2934
Rp2935
(dp2936
g13
VPP
p2937
sbatp2938
Rp2939
(dp2940
g13
VNP
p2941
sbatp2942
Rp2943
(dp2944
g13
VVP
p2945
sbatp2946
Rp2947
(dp2948
g13
VVP
p2949
sbatp2950
Rp2951
(dp2952
g13
VS
p2953
sbag0
(g1
g2
(lp2954
V,
p2955
atp2956
Rp2957
(dp2958
g13
V,
p2959
sbag0
(g1
g2
(lp2960
Vso
p2961
atp2962
Rp2963
(dp2964
g13
VIN
p2965
sbag0
(g1
g2
(lp2966
g0
(g1
g2
(lp2967
g0
(g1
g2
(lp2968
Vthat
p2969
atp2970
Rp2971
(dp2972
g13
VDT
p2973
sbatp2974
Rp2975
(dp2976
g13
VNP
p2977
sbag0
(g1
g2
(lp2978
g0
(g1
g2
(lp2979
V's
p2980
atp2981
Rp2982
(dp2983
g13
VVBZ
p2984
sbag0
(g1
g2
(lp2985
g0
(g1
g2
(lp2986
g0
(g1
g2
(lp2987
Vwhy
p2988
atp2989
Rp2990
(dp2991
g13
VWRB
p2992
sbatp2993
Rp2994
(dp2995
g13
VWHADVP
p2996
sbag0
(g1
g2
(lp2997
g0
(g1
g2
(lp2998
g0
(g1
g2
(lp2999
VI
p3000
atp3001
Rp3002
(dp3003
g13
VPRP
p3004
sbatp3005
Rp3006
(dp3007
g13
VNP
p3008
sbag0
(g1
g2
(lp3009
g0
(g1
g2
(lp3010
g0
(g1
g2
(lp3011
Vkind
p3012
atp3013
Rp3014
(dp3015
g13
VNN
p3016
sbag0
(g1
g2
(lp3017
Vof
p3018
atp3019
Rp3020
(dp3021
g13
VIN
p3022
sbatp3023
Rp3024
(dp3025
g13
VADVP
p3026
sbag0
(g1
g2
(lp3027
Vthought
p3028
atp3029
Rp3030
(dp3031
g13
VVBN
p3032
sbag0
(g1
g2
(lp3033
g0
(g1
g2
(lp3034
g0
(g1
g2
(lp3035
g0
(g1
g2
(lp3036
Vit
p3037
atp3038
Rp3039
(dp3040
g13
VPRP
p3041
sbatp3042
Rp3043
(dp3044
g13
VNP
p3045
sbag0
(g1
g2
(lp3046
g0
(g1
g2
(lp3047
Vmight
p3048
atp3049
Rp3050
(dp3051
g13
VMD
p3052
sbag0
(g1
g2
(lp3053
g0
(g1
g2
(lp3054
Vbe
p3055
atp3056
Rp3057
(dp3058
g13
VVB
p3059
sbag0
(g1
g2
(lp3060
g0
(g1
g2
(lp3061
Va
p3062
atp3063
Rp3064
(dp3065
g13
VDT
p3066
sbag0
(g1
g2
(lp3067
Vcabin
p3068
atp3069
Rp3070
(dp3071
g13
VNN
p3072
sbag0
(g1
g2
(lp3073
Vor
p3074
atp3075
Rp3076
(dp3077
g13
VCC
p3078
sbag0
(g1
g2
(lp3079
Vsomething
p3080
atp3081
Rp3082
(dp3083
g13
VNN
p3084
sbatp3085
Rp3086
(dp3087
g13
VNP
p3088
sbatp3089
Rp3090
(dp3091
g13
VVP
p3092
sbatp3093
Rp3094
(dp3095
g13
VVP
p3096
sbatp3097
Rp3098
(dp3099
g13
VS
p3100
sbag0
(g1
g2
(lp3101
V,
p3102
atp3103
Rp3104
(dp3105
g13
V,
p3106
sbag0
(g1
g2
(lp3107
Vbut
p3108
atp3109
Rp3110
(dp3111
g13
VCC
p3112
sbag0
(g1
g2
(lp3113
g0
(g1
g2
(lp3114
g0
(g1
g2
(lp3115
Vit
p3116
atp3117
Rp3118
(dp3119
g13
VPRP
p3120
sbatp3121
Rp3122
(dp3123
g13
VNP
p3124
sbag0
(g1
g2
(lp3125
g0
(g1
g2
(lp3126
Vcould
p3127
atp3128
Rp3129
(dp3130
g13
VMD
p3131
sbag0
(g1
g2
(lp3132
g0
(g1
g2
(lp3133
Vbe
p3134
atp3135
Rp3136
(dp3137
g13
VVB
p3138
sbag0
(g1
g2
(lp3139
g0
(g1
g2
(lp3140
Vtheir
p3141
atp3142
Rp3143
(dp3144
g13
VPRP$
p3145
sbag0
(g1
g2
(lp3146
Vhouse
p3147
atp3148
Rp3149
(dp3150
g13
VNN
p3151
sbatp3152
Rp3153
(dp3154
g13
VNP
p3155
sbatp3156
Rp3157
(dp3158
g13
VVP
p3159
sbatp3160
Rp3161
(dp3162
g13
VVP
p3163
sbatp3164
Rp3165
(dp3166
g13
VS
p3167
sbatp3168
Rp3169
(dp3170
g13
VSBAR
p3171
sbatp3172
Rp3173
(dp3174
g13
VVP
p3175
sbatp3176
Rp3177
(dp3178
g13
VS
p3179
sbatp3180
Rp3181
(dp3182
g13
VSBAR
p3183
sbatp3184
Rp3185
(dp3186
g13
VVP
p3187
sbatp3188
Rp3189
(dp3190
g13
VS
p3191
sbag0
(g1
g2
(lp3192
V.
p3193
atp3194
Rp3195
(dp3196
g13
V.
p3197
sbatp3198
Rp3199
(dp3200
g13
VS
p3201
sbatp3202
Rp3203
(dp3204
g13
S'id: 11'
p3205
sbag0
(g1
g2
(lp3206
g0
(g1
g2
(lp3207
g0
(g1
g2
(lp3208
VAnd
p3209
atp3210
Rp3211
(dp3212
g13
VCC
p3213
sbag0
(g1
g2
(lp3214
g0
(g1
g2
(lp3215
Vit
p3216
atp3217
Rp3218
(dp3219
g13
VPRP
p3220
sbatp3221
Rp3222
(dp3223
g13
VNP
p3224
sbag0
(g1
g2
(lp3225
g0
(g1
g2
(lp3226
V's
p3227
atp3228
Rp3229
(dp3230
g13
VVBZ
p3231
sbag0
(g1
g2
(lp3232
g0
(g1
g2
(lp3233
Vright
p3234
atp3235
Rp3236
(dp3237
g13
VJJ
p3238
sbag0
(g1
g2
(lp3239
g0
(g1
g2
(lp3240
Von
p3241
atp3242
Rp3243
(dp3244
g13
VIN
p3245
sbag0
(g1
g2
(lp3246
g0
(g1
g2
(lp3247
g0
(g1
g2
(lp3248
Vthe
p3249
atp3250
Rp3251
(dp3252
g13
VDT
p3253
sbag0
(g1
g2
(lp3254
Vedge
p3255
atp3256
Rp3257
(dp3258
g13
VNN
p3259
sbatp3260
Rp3261
(dp3262
g13
VNP
p3263
sbag0
(g1
g2
(lp3264
g0
(g1
g2
(lp3265
Vof
p3266
atp3267
Rp3268
(dp3269
g13
VIN
p3270
sbatp3271
Rp3272
(dp3273
g13
VPP
p3274
sbatp3275
Rp3276
(dp3277
g13
VNP
p3278
sbatp3279
Rp3280
(dp3281
g13
VPP
p3282
sbatp3283
Rp3284
(dp3285
g13
VADJP
p3286
sbatp3287
Rp3288
(dp3289
g13
VVP
p3290
sbatp3291
Rp3292
(dp3293
g13
VS
p3294
sbatp3295
Rp3296
(dp3297
g13
S'id: 12'
p3298
sbatp3299
Rp3300
(dp3301
g13
S'sentences'
p3302
sb.