ccopy_reg
_reconstructor
p0
(cnltk.tree
Tree
p1
c__builtin__
list
p2
(lp3
g0
(g1
g2
(lp4
g0
(g1
g2
(lp5
g0
(g1
g2
(lp6
g0
(g1
g2
(lp7
g0
(g1
g2
(lp8
(lp9
S'word: The, index: 1'
p10
aatp11
Rp12
(dp13
S'_label'
p14
Vdet
p15
sbag0
(g1
g2
(lp16
(lp17
S'word: cookie, index: 2'
p18
aatp19
Rp20
(dp21
g14
Vnn
p22
sbatp23
Rp24
(dp25
g14
S'word: jar, index: 3'
p26
sbatp27
Rp28
(dp29
g14
Vnsubj
p30
sbag0
(g1
g2
(lp31
g0
(g1
g2
(lp32
g0
(g1
g2
(lp33
(lp34
S'word: and, index: 5'
p35
aatp36
Rp37
(dp38
g14
Vcc
p39
sbag0
(g1
g2
(lp40
g0
(g1
g2
(lp41
g0
(g1
g2
(lp42
(lp43
S'word: a, index: 6'
p44
aatp45
Rp46
(dp47
g14
Vdet
p48
sbatp49
Rp50
(dp51
g14
S'word: boy, index: 7'
p52
sbatp53
Rp54
(dp55
g14
Vnsubj
p56
sbag0
(g1
g2
(lp57
(lp58
S'word: is, index: 8'
p59
aatp60
Rp61
(dp62
g14
Vcop
p63
sbag0
(g1
g2
(lp64
(lp65
S'word: a, index: 9'
p66
aatp67
Rp68
(dp69
g14
Vdet
p70
sbag0
(g1
g2
(lp71
(lp72
S'word: cookie, index: 10'
p73
aatp74
Rp75
(dp76
g14
Vnn
p77
sbag0
(g1
g2
(lp78
g0
(g1
g2
(lp79
g0
(g1
g2
(lp80
(lp81
S'word: is, index: 12'
p82
aatp83
Rp84
(dp85
g14
Vaux
p86
sbatp87
Rp88
(dp89
g14
S'word: filling, index: 13'
p90
sbatp91
Rp92
(dp93
g14
Vrcmod
p94
sbatp95
Rp96
(dp97
g14
S'word: jar, index: 11'
p98
sbatp99
Rp100
(dp101
g14
Vparataxis
p102
sbatp103
Rp104
(dp105
g14
S'word: fall, index: 15'
p106
sbatp107
Rp108
(dp109
g14
S'id: 0'
p110
sbag0
(g1
g2
(lp111
g0
(g1
g2
(lp112
g0
(g1
g2
(lp113
g0
(g1
g2
(lp114
g0
(g1
g2
(lp115
(lp116
S'word: a, index: 2'
p117
aatp118
Rp119
(dp120
g14
Vdet
p121
sbatp122
Rp123
(dp124
g14
S'word: girl, index: 3'
p125
sbatp126
Rp127
(dp128
g14
Vnsubj
p129
sbag0
(g1
g2
(lp130
(lp131
S'word: is, index: 4'
p132
aatp133
Rp134
(dp135
g14
Vaux
p136
sbag0
(g1
g2
(lp137
(lp138
S'word: And, index: 1'
p139
aatp140
Rp141
(dp142
g14
Vcc
p143
sbatp144
Rp145
(dp146
g14
S'word: laughing, index: 5'
p147
sbatp148
Rp149
(dp150
g14
S'id: 1'
p151
sbag0
(g1
g2
(lp152
g0
(g1
g2
(lp153
g0
(g1
g2
(lp154
g0
(g1
g2
(lp155
g0
(g1
g2
(lp156
(lp157
S'word: is, index: 11'
p158
aatp159
Rp160
(dp161
g14
Vcop
p162
sbag0
(g1
g2
(lp163
(lp164
S'word: dreaming, index: 13'
p165
aatp166
Rp167
(dp168
g14
Vvmod
p169
sbatp170
Rp171
(dp172
g14
S'word: day, index: 12'
p173
sbatp174
Rp175
(dp176
g14
Vconj
p177
sbag0
(g1
g2
(lp178
g0
(g1
g2
(lp179
g0
(g1
g2
(lp180
(lp181
S'word: The, index: 1'
p182
aatp183
Rp184
(dp185
g14
Vdet
p186
sbatp187
Rp188
(dp189
g14
S'word: women, index: 2'
p190
sbatp191
Rp192
(dp193
g14
Vnsubj
p194
sbag0
(g1
g2
(lp195
(lp196
S'word: is, index: 3'
p197
aatp198
Rp199
(dp200
g14
Vaux
p201
sbag0
(g1
g2
(lp202
g0
(g1
g2
(lp203
g0
(g1
g2
(lp204
g0
(g1
g2
(lp205
g0
(g1
g2
(lp206
(lp207
S'word: the, index: 7'
p208
aatp209
Rp210
(dp211
g14
Vdet
p212
sbatp213
Rp214
(dp215
g14
S'word: wash, index: 8'
p216
sbatp217
Rp218
(dp219
g14
Vprep
p220
sbatp221
Rp222
(dp223
g14
S'word: running, index: 5'
p224
sbatp225
Rp226
(dp227
g14
Vpcomp
p228
sbatp229
Rp230
(dp231
g14
S'word: to, index: 4'
p232
sbatp233
Rp234
(dp235
g14
S'id: 2'
p236
sbag0
(g1
g2
(lp237
g0
(g1
g2
(lp238
g0
(g1
g2
(lp239
g0
(g1
g2
(lp240
g0
(g1
g2
(lp241
(lp242
S'word: The, index: 1'
p243
aatp244
Rp245
(dp246
g14
Vdet
p247
sbag0
(g1
g2
(lp248
(lp249
S'word: is, index: 3'
p250
aatp251
Rp252
(dp253
g14
Vdep
p254
sbatp255
Rp256
(dp257
g14
S'word: walk, index: 2'
p258
sbatp259
Rp260
(dp261
g14
Vnsubj
p262
sbag0
(g1
g2
(lp263
g0
(g1
g2
(lp264
g0
(g1
g2
(lp265
(lp266
S'word: is, index: 6'
p267
aatp268
Rp269
(dp270
g14
Vaux
p271
sbag0
(g1
g2
(lp272
(lp273
S'word: and, index: 8'
p274
aatp275
Rp276
(dp277
g14
Vadvmod
p278
sbatp279
Rp280
(dp281
g14
S'word: walking, index: 7'
p282
sbatp283
Rp284
(dp285
g14
Vccomp
p286
sbatp287
Rp288
(dp289
g14
S'word: is, index: 4'
p290
sbatp291
Rp292
(dp293
g14
S'id: 3'
p294
sbag0
(g1
g2
(lp295
g0
(g1
g2
(lp296
g0
(g1
g2
(lp297
(lp298
S'word: shakers, index: 2'
p299
aatp300
Rp301
(dp302
g14
Vdep
p303
sbatp304
Rp305
(dp306
g14
S'word: Salt, index: 1'
p307
sbatp308
Rp309
(dp310
g14
S'id: 4'
p311
sbag0
(g1
g2
(lp312
g0
(g1
g2
(lp313
g0
(g1
g2
(lp314
g0
(g1
g2
(lp315
g0
(g1
g2
(lp316
(lp317
S'word: and, index: 4'
p318
aatp319
Rp320
(dp321
g14
Vcc
p322
sbatp323
Rp324
(dp325
g14
S'word: wash, index: 5'
p326
sbatp327
Rp328
(dp329
g14
Vconj
p330
sbag0
(g1
g2
(lp331
(lp332
S'word: cold, index: 8'
p333
aatp334
Rp335
(dp336
g14
Vconj
p337
sbatp338
Rp339
(dp340
g14
S'word: wash, index: 2'
p341
sbatp342
Rp343
(dp344
g14
S'id: 5'
p345
sbag0
(g1
g2
(lp346
g0
(g1
g2
(lp347
g0
(g1
g2
(lp348
g0
(g1
g2
(lp349
g0
(g1
g2
(lp350
(lp351
S'word: The, index: 1'
p352
aatp353
Rp354
(dp355
g14
Vdet
p356
sbatp357
Rp358
(dp359
g14
S'word: woman, index: 2'
p360
sbatp361
Rp362
(dp363
g14
Vnsubj
p364
sbag0
(g1
g2
(lp365
(lp366
S'word: is, index: 3'
p367
aatp368
Rp369
(dp370
g14
Vaux
p371
sbag0
(g1
g2
(lp372
g0
(g1
g2
(lp373
g0
(g1
g2
(lp374
g0
(g1
g2
(lp375
g0
(g1
g2
(lp376
(lp377
S'word: the, index: 7'
p378
aatp379
Rp380
(dp381
g14
Vdet
p382
sbatp383
Rp384
(dp385
g14
S'word: dishes, index: 8'
p386
sbatp387
Rp388
(dp389
g14
Vdobj
p390
sbatp391
Rp392
(dp393
g14
S'word: washing, index: 6'
p394
sbatp395
Rp396
(dp397
g14
Vvmod
p398
sbatp399
Rp400
(dp401
g14
S'word: washing, index: 4'
p402
sbatp403
Rp404
(dp405
g14
S'id: 6'
p406
sbag0
(g1
g2
(lp407
g0
(g1
g2
(lp408
g0
(g1
g2
(lp409
(lp410
S'word: it, index: 2'
p411
aatp412
Rp413
(dp414
g14
Vdobj
p415
sbatp416
Rp417
(dp418
g14
S'word: Thats, index: 1'
p419
sbatp420
Rp421
(dp422
g14
S'id: 7'
p423
sbatp424
Rp425
(dp426
g14
S'sentences'
p427
sb.