ccopy_reg
_reconstructor
p0
(cnltk.tree
Tree
p1
c__builtin__
list
p2
(lp3
g0
(g1
g2
(lp4
g0
(g1
g2
(lp5
g0
(g1
g2
(lp6
g0
(g1
g2
(lp7
g0
(g1
g2
(lp8
(lp9
S'word: young, index: 3'
p10
aatp11
Rp12
(dp13
S'_label'
p14
Vamod
p15
sbag0
(g1
g2
(lp16
g0
(g1
g2
(lp17
g0
(g1
g2
(lp18
(lp19
S'word: the, index: 6'
p20
aatp21
Rp22
(dp23
g14
Vdet
p24
sbag0
(g1
g2
(lp25
(lp26
S'word: cookie, index: 7'
p27
aatp28
Rp29
(dp30
g14
Vnn
p31
sbag0
(g1
g2
(lp32
g0
(g1
g2
(lp33
g0
(g1
g2
(lp34
(lp35
S'word: a, index: 10'
p36
aatp37
Rp38
(dp39
g14
Vdet
p40
sbag0
(g1
g2
(lp41
(lp42
S'word: little, index: 11'
p43
aatp44
Rp45
(dp46
g14
Vamod
p47
sbag0
(g1
g2
(lp48
g0
(g1
g2
(lp49
g0
(g1
g2
(lp50
g0
(g1
g2
(lp51
g0
(g1
g2
(lp52
(lp53
S'word: a, index: 15'
p54
aatp55
Rp56
(dp57
g14
Vdet
p58
sbatp59
Rp60
(dp61
g14
S'word: cookie, index: 16'
p62
sbatp63
Rp64
(dp65
g14
Vprep
p66
sbatp67
Rp68
(dp69
g14
S'word: asking, index: 13'
p70
sbatp71
Rp72
(dp73
g14
Vvmod
p74
sbatp75
Rp76
(dp77
g14
S'word: girl, index: 12'
p78
sbatp79
Rp80
(dp81
g14
Vappos
p82
sbatp83
Rp84
(dp85
g14
S'word: jar, index: 8'
p86
sbatp87
Rp88
(dp89
g14
Vprep
p90
sbatp91
Rp92
(dp93
g14
S'word: boy, index: 4'
p94
sbatp95
Rp96
(dp97
g14
Vappos
p98
sbatp99
Rp100
(dp101
g14
S'word: ok, index: 1'
p102
sbatp103
Rp104
(dp105
g14
S'id: 0'
p106
sbag0
(g1
g2
(lp107
g0
(g1
g2
(lp108
g0
(g1
g2
(lp109
(lp110
S"word: 's, index: 3"
p111
aatp112
Rp113
(dp114
g14
Vpossessive
p115
sbag0
(g1
g2
(lp116
g0
(g1
g2
(lp117
g0
(g1
g2
(lp118
(lp119
S'word: she, index: 19'
p120
aatp121
Rp122
(dp123
g14
Vnsubj
p124
sbag0
(g1
g2
(lp125
g0
(g1
g2
(lp126
g0
(g1
g2
(lp127
(lp128
S'word: a, index: 21'
p129
aatp130
Rp131
(dp132
g14
Vdet
p133
sbag0
(g1
g2
(lp134
g0
(g1
g2
(lp135
g0
(g1
g2
(lp136
(lp137
S'word: her, index: 24'
p138
aatp139
Rp140
(dp141
g14
Vposs
p142
sbatp143
Rp144
(dp145
g14
S'word: hand, index: 25'
p146
sbatp147
Rp148
(dp149
g14
Vprep
p150
sbatp151
Rp152
(dp153
g14
S'word: dishcloth, index: 22'
p154
sbatp155
Rp156
(dp157
g14
Vdobj
p158
sbag0
(g1
g2
(lp159
g0
(g1
g2
(lp160
g0
(g1
g2
(lp161
(lp162
S'word: the, index: 11'
p163
aatp164
Rp165
(dp166
g14
Vdet
p167
sbag0
(g1
g2
(lp168
g0
(g1
g2
(lp169
g0
(g1
g2
(lp170
(lp171
S'word: the, index: 14'
p172
aatp173
Rp174
(dp175
g14
Vdet
p176
sbag0
(g1
g2
(lp177
(lp178
S"word: 's, index: 16"
p179
aatp180
Rp181
(dp182
g14
Vpossessive
p183
sbag0
(g1
g2
(lp184
(lp185
S'word: overflowing, index: 17'
p186
aatp187
Rp188
(dp189
g14
Vamod
p190
sbatp191
Rp192
(dp193
g14
S'word: sink, index: 15'
p194
sbatp195
Rp196
(dp197
g14
Vappos
p198
sbatp199
Rp200
(dp201
g14
S'word: sink, index: 12'
p202
sbatp203
Rp204
(dp205
g14
Vprep
p206
sbatp207
Rp208
(dp209
g14
S'word: has, index: 20'
p210
sbatp211
Rp212
(dp213
g14
Vdep
p214
sbag0
(g1
g2
(lp215
g0
(g1
g2
(lp216
g0
(g1
g2
(lp217
(lp218
S'word: at, index: 4'
p219
aatp220
Rp221
(dp222
g14
Vquantmod
p223
sbatp224
Rp225
(dp226
g14
S'word: the, index: 5'
p227
sbatp228
Rp229
(dp230
g14
Vnum
p231
sbag0
(g1
g2
(lp232
g0
(g1
g2
(lp233
g0
(g1
g2
(lp234
(lp235
S'word: a, index: 7'
p236
aatp237
Rp238
(dp239
g14
Vdet
p240
sbag0
(g1
g2
(lp241
(lp242
S"word: 's, index: 9"
p243
aatp244
Rp245
(dp246
g14
Vpossessive
p247
sbatp248
Rp249
(dp250
g14
S'word: female, index: 8'
p251
sbatp252
Rp253
(dp254
g14
Vappos
p255
sbag0
(g1
g2
(lp256
g0
(g1
g2
(lp257
g0
(g1
g2
(lp258
(lp259
S'word: wrenching, index: 27'
p260
aatp261
Rp262
(dp263
g14
Vnsubj
p264
sbag0
(g1
g2
(lp265
(lp266
S'word: phing, index: 29'
p267
aatp268
Rp269
(dp270
g14
Vdobj
p271
sbatp272
Rp273
(dp274
g14
S'word: trying, index: 28'
p275
sbatp276
Rp277
(dp278
g14
Vdep
p279
sbag0
(g1
g2
(lp280
(lp281
S'word: The, index: 1'
p282
aatp283
Rp284
(dp285
g14
Vdet
p286
sbatp287
Rp288
(dp289
g14
S'word: mother, index: 2'
p290
sbatp291
Rp292
(dp293
g14
S'id: 1'
p294
sbag0
(g1
g2
(lp295
g0
(g1
g2
(lp296
g0
(g1
g2
(lp297
g0
(g1
g2
(lp298
g0
(g1
g2
(lp299
(lp300
S'word: The, index: 1'
p301
aatp302
Rp303
(dp304
g14
Vdet
p305
sbatp306
Rp307
(dp308
g14
S'word: mother, index: 2'
p309
sbatp310
Rp311
(dp312
g14
Vnsubj
p313
sbag0
(g1
g2
(lp314
g0
(g1
g2
(lp315
g0
(g1
g2
(lp316
g0
(g1
g2
(lp317
g0
(g1
g2
(lp318
(lp319
S'word: an, index: 6'
p320
aatp321
Rp322
(dp323
g14
Vdet
p324
sbatp325
Rp326
(dp327
g14
S'word: apron, index: 7'
p328
sbatp329
Rp330
(dp331
g14
Vdobj
p332
sbag0
(g1
g2
(lp333
(lp334
S'word: on, index: 8'
p335
aatp336
Rp337
(dp338
g14
Vprep
p339
sbag0
(g1
g2
(lp340
(lp341
S'word: to, index: 4'
p342
aatp343
Rp344
(dp345
g14
Vaux
p346
sbatp347
Rp348
(dp349
g14
S'word: have, index: 5'
p350
sbatp351
Rp352
(dp353
g14
Vxcomp
p354
sbatp355
Rp356
(dp357
g14
S'word: seem, index: 3'
p358
sbatp359
Rp360
(dp361
g14
S'id: 2'
p362
sbag0
(g1
g2
(lp363
g0
(g1
g2
(lp364
g0
(g1
g2
(lp365
g0
(g1
g2
(lp366
g0
(g1
g2
(lp367
(lp368
S'word: a, index: 9'
p369
aatp370
Rp371
(dp372
g14
Vdet
p373
sbag0
(g1
g2
(lp374
(lp375
S'word: shir, index: 10'
p376
aatp377
Rp378
(dp379
g14
Vnn
p380
sbatp381
Rp382
(dp383
g14
S'word: shirt, index: 11'
p384
sbatp385
Rp386
(dp387
g14
Vprep
p388
sbag0
(g1
g2
(lp389
g0
(g1
g2
(lp390
g0
(g1
g2
(lp391
g0
(g1
g2
(lp392
g0
(g1
g2
(lp393
(lp394
S'word: the, index: 14'
p395
aatp396
Rp397
(dp398
g14
Vdet
p399
sbag0
(g1
g2
(lp400
(lp401
S'word: little, index: 15'
p402
aatp403
Rp404
(dp405
g14
Vamod
p406
sbatp407
Rp408
(dp409
g14
S'word: girl, index: 16'
p410
sbatp411
Rp412
(dp413
g14
Vnsubjpass
p414
sbag0
(g1
g2
(lp415
(lp416
S'word: is, index: 17'
p417
aatp418
Rp419
(dp420
g14
Vauxpass
p421
sbag0
(g1
g2
(lp422
g0
(g1
g2
(lp423
g0
(g1
g2
(lp424
(lp425
S'word: a, index: 20'
p426
aatp427
Rp428
(dp429
g14
Vdet
p430
sbag0
(g1
g2
(lp431
(lp432
S'word: shoot, index: 21'
p433
aatp434
Rp435
(dp436
g14
Vnn
p437
sbatp438
Rp439
(dp440
g14
S'word: dress, index: 22'
p441
sbatp442
Rp443
(dp444
g14
Vprep
p445
sbatp446
Rp447
(dp448
g14
S'word: dressed, index: 18'
p449
sbatp450
Rp451
(dp452
g14
Vconj
p453
sbag0
(g1
g2
(lp454
g0
(g1
g2
(lp455
g0
(g1
g2
(lp456
(lp457
S'word: The, index: 1'
p458
aatp459
Rp460
(dp461
g14
Vdet
p462
sbag0
(g1
g2
(lp463
(lp464
S'word: little, index: 2'
p465
aatp466
Rp467
(dp468
g14
Vamod
p469
sbatp470
Rp471
(dp472
g14
S'word: boy, index: 3'
p473
sbatp474
Rp475
(dp476
g14
Vnsubj
p477
sbag0
(g1
g2
(lp478
(lp479
S'word: shorts, index: 6'
p480
aatp481
Rp482
(dp483
g14
Vprep
p484
sbatp485
Rp486
(dp487
g14
S'word: dressed, index: 4'
p488
sbatp489
Rp490
(dp491
g14
S'id: 3'
p492
sbag0
(g1
g2
(lp493
g0
(g1
g2
(lp494
g0
(g1
g2
(lp495
g0
(g1
g2
(lp496
g0
(g1
g2
(lp497
(lp498
S'word: The, index: 1'
p499
aatp500
Rp501
(dp502
g14
Vdet
p503
sbag0
(g1
g2
(lp504
(lp505
S'word: cookie, index: 2'
p506
aatp507
Rp508
(dp509
g14
Vnn
p510
sbatp511
Rp512
(dp513
g14
S'word: jar, index: 3'
p514
sbatp515
Rp516
(dp517
g14
Vnsubjpass
p518
sbag0
(g1
g2
(lp519
(lp520
S'word: is, index: 4'
p521
aatp522
Rp523
(dp524
g14
Vauxpass
p525
sbag0
(g1
g2
(lp526
(lp527
S'word: cookies, index: 7'
p528
aatp529
Rp530
(dp531
g14
Vprep
p532
sbag0
(g1
g2
(lp533
g0
(g1
g2
(lp534
g0
(g1
g2
(lp535
(lp536
S'word: it, index: 13'
p537
aatp538
Rp539
(dp540
g14
Vprep
p541
sbag0
(g1
g2
(lp542
(lp543
S'word: the, index: 10'
p544
aatp545
Rp546
(dp547
g14
Vdet
p548
sbatp549
Rp550
(dp551
g14
S'word: top, index: 11'
p552
sbatp553
Rp554
(dp555
g14
Vprep
p556
sbatp557
Rp558
(dp559
g14
S'word: filled, index: 5'
p560
sbatp561
Rp562
(dp563
g14
S'id: 4'
p564
sbag0
(g1
g2
(lp565
g0
(g1
g2
(lp566
g0
(g1
g2
(lp567
(lp568
S'word: And, index: 1'
p569
aatp570
Rp571
(dp572
g14
Vcc
p573
sbag0
(g1
g2
(lp574
g0
(g1
g2
(lp575
g0
(g1
g2
(lp576
g0
(g1
g2
(lp577
g0
(g1
g2
(lp578
g0
(g1
g2
(lp579
g0
(g1
g2
(lp580
(lp581
S'word: the, index: 2'
p582
aatp583
Rp584
(dp585
g14
Vdet
p586
sbatp587
Rp588
(dp589
g14
S'word: mother, index: 3'
p590
sbatp591
Rp592
(dp593
g14
Vposs
p594
sbatp595
Rp596
(dp597
g14
S'word: standing, index: 5'
p598
sbatp599
Rp600
(dp601
g14
Vnpadvmod
p602
sbag0
(g1
g2
(lp603
(lp604
S'word: over, index: 7'
p605
aatp606
Rp607
(dp608
g14
Vprep
p609
sbatp610
Rp611
(dp612
g14
S'word: at, index: 6'
p613
sbatp614
Rp615
(dp616
g14
Vdep
p617
sbag0
(g1
g2
(lp618
(lp619
S'word: the, index: 8'
p620
aatp621
Rp622
(dp623
g14
Vdet
p624
sbag0
(g1
g2
(lp625
g0
(g1
g2
(lp626
g0
(g1
g2
(lp627
g0
(g1
g2
(lp628
g0
(g1
g2
(lp629
(lp630
S'word: the, index: 11'
p631
aatp632
Rp633
(dp634
g14
Vdet
p635
sbatp636
Rp637
(dp638
g14
S'word: window, index: 12'
p639
sbatp640
Rp641
(dp642
g14
Vdobj
p643
sbag0
(g1
g2
(lp644
(lp645
S'word: curtains, index: 14'
p646
aatp647
Rp648
(dp649
g14
Vprep
p650
sbatp651
Rp652
(dp653
g14
S'word: watching, index: 10'
p654
sbatp655
Rp656
(dp657
g14
Vdep
p658
sbatp659
Rp660
(dp661
g14
S'word: sink, index: 9'
p662
sbatp663
Rp664
(dp665
g14
S'id: 5'
p666
sbag0
(g1
g2
(lp667
g0
(g1
g2
(lp668
g0
(g1
g2
(lp669
g0
(g1
g2
(lp670
g0
(g1
g2
(lp671
g0
(g1
g2
(lp672
g0
(g1
g2
(lp673
(lp674
S'word: the, index: 3'
p675
aatp676
Rp677
(dp678
g14
Vdet
p679
sbatp680
Rp681
(dp682
g14
S'word: yard, index: 4'
p683
sbatp684
Rp685
(dp686
g14
Vdobj
p687
sbatp688
Rp689
(dp690
g14
S'word: showing, index: 2'
p691
sbatp692
Rp693
(dp694
g14
Vvmod
p695
sbag0
(g1
g2
(lp696
g0
(g1
g2
(lp697
g0
(g1
g2
(lp698
(lp699
S'word: the, index: 6'
p700
aatp701
Rp702
(dp703
g14
Vdet
p704
sbatp705
Rp706
(dp707
g14
S'word: sink, index: 7'
p708
sbatp709
Rp710
(dp711
g14
Vnsubj
p712
sbag0
(g1
g2
(lp713
g0
(g1
g2
(lp714
g0
(g1
g2
(lp715
(lp716
S'word: water, index: 12'
p717
aatp718
Rp719
(dp720
g14
Vprep
p721
sbatp722
Rp723
(dp724
g14
S'word: filling, index: 10'
p725
sbatp726
Rp727
(dp728
g14
Vprepc
p729
sbag0
(g1
g2
(lp730
(lp731
S'word: And, index: 1'
p732
aatp733
Rp734
(dp735
g14
Vcc
p736
sbatp737
Rp738
(dp739
g14
S'word: is, index: 8'
p740
sbatp741
Rp742
(dp743
g14
S'id: 6'
p744
sbag0
(g1
g2
(lp745
g0
(g1
g2
(lp746
g0
(g1
g2
(lp747
(lp748
S'word: There, index: 1'
p749
aatp750
Rp751
(dp752
g14
Vexpl
p753
sbag0
(g1
g2
(lp754
g0
(g1
g2
(lp755
g0
(g1
g2
(lp756
g0
(g1
g2
(lp757
g0
(g1
g2
(lp758
(lp759
S'word: the, index: 6'
p760
aatp761
Rp762
(dp763
g14
Vdet
p764
sbag0
(g1
g2
(lp765
(lp766
S'word: counter, index: 7'
p767
aatp768
Rp769
(dp770
g14
Vnn
p771
sbatp772
Rp773
(dp774
g14
S'word: top, index: 8'
p775
sbatp776
Rp777
(dp778
g14
Vprep
p779
sbag0
(g1
g2
(lp780
(lp781
S'word: some, index: 3'
p782
aatp783
Rp784
(dp785
g14
Vdet
p786
sbatp787
Rp788
(dp789
g14
S'word: dishes, index: 4'
p790
sbatp791
Rp792
(dp793
g14
Vnsubj
p794
sbatp795
Rp796
(dp797
g14
S"word: 's, index: 2"
p798
sbatp799
Rp800
(dp801
g14
S'id: 7'
p802
sbag0
(g1
g2
(lp803
g0
(g1
g2
(lp804
g0
(g1
g2
(lp805
g0
(g1
g2
(lp806
g0
(g1
g2
(lp807
(lp808
S'word: up, index: 8'
p809
aatp810
Rp811
(dp812
g14
Vadvmod
p813
sbag0
(g1
g2
(lp814
(lp815
S'word: a, index: 10'
p816
aatp817
Rp818
(dp819
g14
Vdep
p820
sbatp821
Rp822
(dp823
g14
S'word: on, index: 9'
p824
sbatp825
Rp826
(dp827
g14
Vadvmod
p828
sbag0
(g1
g2
(lp829
g0
(g1
g2
(lp830
g0
(g1
g2
(lp831
(lp832
S'word: a, index: 12'
p833
aatp834
Rp835
(dp836
g14
Vdet
p837
sbatp838
Rp839
(dp840
g14
S'word: stool, index: 13'
p841
sbatp842
Rp843
(dp844
g14
Vdep
p845
sbag0
(g1
g2
(lp846
g0
(g1
g2
(lp847
g0
(g1
g2
(lp848
(lp849
S'word: it, index: 16'
p850
aatp851
Rp852
(dp853
g14
Vnsubj
p854
sbag0
(g1
g2
(lp855
g0
(g1
g2
(lp856
g0
(g1
g2
(lp857
(lp858
S'word: to, index: 18'
p859
aatp860
Rp861
(dp862
g14
Vaux
p863
sbag0
(g1
g2
(lp864
(lp865
S'word: be, index: 19'
p866
aatp867
Rp868
(dp869
g14
Vaux
p870
sbag0
(g1
g2
(lp871
(lp872
S'word: over, index: 21'
p873
aatp874
Rp875
(dp876
g14
Vprep
p877
sbatp878
Rp879
(dp880
g14
S'word: falling, index: 20'
p881
sbatp882
Rp883
(dp884
g14
Vxcomp
p885
sbatp886
Rp887
(dp888
g14
S'word: seem, index: 17'
p889
sbatp890
Rp891
(dp892
g14
Vconj
p893
sbag0
(g1
g2
(lp894
g0
(g1
g2
(lp895
g0
(g1
g2
(lp896
(lp897
S'word: The, index: 1'
p898
aatp899
Rp900
(dp901
g14
Vdet
p902
sbag0
(g1
g2
(lp903
(lp904
S'word: little, index: 2'
p905
aatp906
Rp907
(dp908
g14
Vamod
p909
sbatp910
Rp911
(dp912
g14
S'word: boy, index: 3'
p913
sbatp914
Rp915
(dp916
g14
Vnsubj
p917
sbag0
(g1
g2
(lp918
(lp919
S'word: is, index: 4'
p920
aatp921
Rp922
(dp923
g14
Vcop
p924
sbag0
(g1
g2
(lp925
(lp926
S'word: in, index: 6'
p927
aatp928
Rp929
(dp930
g14
Vprt
p931
sbatp932
Rp933
(dp934
g14
S'word: climbing, index: 5'
p935
sbatp936
Rp937
(dp938
g14
S'id: 8'
p939
sbag0
(g1
g2
(lp940
g0
(g1
g2
(lp941
g0
(g1
g2
(lp942
g0
(g1
g2
(lp943
g0
(g1
g2
(lp944
g0
(g1
g2
(lp945
g0
(g1
g2
(lp946
(lp947
S'word: the, index: 16'
p948
aatp949
Rp950
(dp951
g14
Vdet
p952
sbag0
(g1
g2
(lp953
(lp954
S'word: little, index: 17'
p955
aatp956
Rp957
(dp958
g14
Vamod
p959
sbatp960
Rp961
(dp962
g14
S'word: girl, index: 18'
p963
sbatp964
Rp965
(dp966
g14
Vnsubj
p967
sbag0
(g1
g2
(lp968
g0
(g1
g2
(lp969
g0
(g1
g2
(lp970
(lp971
S'word: to, index: 20'
p972
aatp973
Rp974
(dp975
g14
Vaux
p976
sbag0
(g1
g2
(lp977
(lp978
S'word: be, index: 21'
p979
aatp980
Rp981
(dp982
g14
Vaux
p983
sbag0
(g1
g2
(lp984
g0
(g1
g2
(lp985
g0
(g1
g2
(lp986
(lp987
S'word: a, index: 24'
p988
aatp989
Rp990
(dp991
g14
Vdet
p992
sbatp993
Rp994
(dp995
g14
S'word: cookie, index: 25'
p996
sbatp997
Rp998
(dp999
g14
Vprep
p1000
sbatp1001
Rp1002
(dp1003
g14
S'word: begging, index: 22'
p1004
sbatp1005
Rp1006
(dp1007
g14
Vxcomp
p1008
sbatp1009
Rp1010
(dp1011
g14
S'word: seem, index: 19'
p1012
sbatp1013
Rp1014
(dp1015
g14
Vconj
p1016
sbag0
(g1
g2
(lp1017
g0
(g1
g2
(lp1018
g0
(g1
g2
(lp1019
(lp1020
S'word: the, index: 2'
p1021
aatp1022
Rp1023
(dp1024
g14
Vdet
p1025
sbag0
(g1
g2
(lp1026
(lp1027
S'word: little, index: 3'
p1028
aatp1029
Rp1030
(dp1031
g14
Vamod
p1032
sbatp1033
Rp1034
(dp1035
g14
S'word: girl, index: 4'
p1036
sbatp1037
Rp1038
(dp1039
g14
Vnsubj
p1040
sbag0
(g1
g2
(lp1041
g0
(g1
g2
(lp1042
g0
(g1
g2
(lp1043
g0
(g1
g2
(lp1044
g0
(g1
g2
(lp1045
(lp1046
S'word: the, index: 12'
p1047
aatp1048
Rp1049
(dp1050
g14
Vdet
p1051
sbatp1052
Rp1053
(dp1054
g14
S'word: pantry, index: 13'
p1055
sbatp1056
Rp1057
(dp1058
g14
Vprep
p1059
sbag0
(g1
g2
(lp1060
g0
(g1
g2
(lp1061
g0
(g1
g2
(lp1062
(lp1063
S'word: the, index: 7'
p1064
aatp1065
Rp1066
(dp1067
g14
Vdet
p1068
sbatp1069
Rp1070
(dp1071
g14
S'word: doors, index: 8'
p1072
sbatp1073
Rp1074
(dp1075
g14
Vnsubj
p1076
sbag0
(g1
g2
(lp1077
(lp1078
S'word: are, index: 9'
p1079
aatp1080
Rp1081
(dp1082
g14
Vcop
p1083
sbatp1084
Rp1085
(dp1086
g14
S'word: open, index: 10'
p1087
sbatp1088
Rp1089
(dp1090
g14
Vccomp
p1091
sbatp1092
Rp1093
(dp1094
g14
S'word: is, index: 5'
p1095
sbatp1096
Rp1097
(dp1098
g14
S'id: 9'
p1099
sbag0
(g1
g2
(lp1100
g0
(g1
g2
(lp1101
g0
(g1
g2
(lp1102
g0
(g1
g2
(lp1103
g0
(g1
g2
(lp1104
(lp1105
S'word: The, index: 1'
p1106
aatp1107
Rp1108
(dp1109
g14
Vdet
p1110
sbag0
(g1
g2
(lp1111
(lp1112
S'word: water, index: 4'
p1113
aatp1114
Rp1115
(dp1116
g14
Vappos
p1117
sbatp1118
Rp1119
(dp1120
g14
S'word: mother, index: 2'
p1121
sbatp1122
Rp1123
(dp1124
g14
Vnsubj
p1125
sbag0
(g1
g2
(lp1126
(lp1127
S'word: is, index: 5'
p1128
aatp1129
Rp1130
(dp1131
g14
Vaux
p1132
sbag0
(g1
g2
(lp1133
g0
(g1
g2
(lp1134
g0
(g1
g2
(lp1135
g0
(g1
g2
(lp1136
g0
(g1
g2
(lp1137
(lp1138
S'word: her, index: 9'
p1139
aatp1140
Rp1141
(dp1142
g14
Vposs
p1143
sbatp1144
Rp1145
(dp1146
g14
S'word: shoes, index: 10'
p1147
sbatp1148
Rp1149
(dp1150
g14
Vprep
p1151
sbatp1152
Rp1153
(dp1154
g14
S'word: all, index: 7'
p1155
sbatp1156
Rp1157
(dp1158
g14
Vdobj
p1159
sbatp1160
Rp1161
(dp1162
g14
S'word: running, index: 6'
p1163
sbatp1164
Rp1165
(dp1166
g14
S'id: 10'
p1167
sbag0
(g1
g2
(lp1168
g0
(g1
g2
(lp1169
g0
(g1
g2
(lp1170
(lp1171
S'word: They, index: 1'
p1172
aatp1173
Rp1174
(dp1175
g14
Vnsubj
p1176
sbag0
(g1
g2
(lp1177
g0
(g1
g2
(lp1178
g0
(g1
g2
(lp1179
g0
(g1
g2
(lp1180
g0
(g1
g2
(lp1181
(lp1182
S'word: to, index: 18'
p1183
aatp1184
Rp1185
(dp1186
g14
Vaux
p1187
sbag0
(g1
g2
(lp1188
(lp1189
S'word: be, index: 19'
p1190
aatp1191
Rp1192
(dp1193
g14
Vaux
p1194
sbag0
(g1
g2
(lp1195
(lp1196
S'word: down, index: 21'
p1197
aatp1198
Rp1199
(dp1200
g14
Vadvmod
p1201
sbatp1202
Rp1203
(dp1204
g14
S'word: falling, index: 20'
p1205
sbatp1206
Rp1207
(dp1208
g14
Vxcomp
p1209
sbag0
(g1
g2
(lp1210
g0
(g1
g2
(lp1211
g0
(g1
g2
(lp1212
(lp1213
S'word: the, index: 14'
p1214
aatp1215
Rp1216
(dp1217
g14
Vdet
p1218
sbag0
(g1
g2
(lp1219
(lp1220
S'word: little, index: 15'
p1221
aatp1222
Rp1223
(dp1224
g14
Vamod
p1225
sbatp1226
Rp1227
(dp1228
g14
S'word: boy, index: 16'
p1229
sbatp1230
Rp1231
(dp1232
g14
Vnsubj
p1233
sbatp1234
Rp1235
(dp1236
g14
S'word: seem, index: 17'
p1237
sbatp1238
Rp1239
(dp1240
g14
Vconj
p1241
sbag0
(g1
g2
(lp1242
g0
(g1
g2
(lp1243
g0
(g1
g2
(lp1244
(lp1245
S'word: to, index: 3'
p1246
aatp1247
Rp1248
(dp1249
g14
Vaux
p1250
sbag0
(g1
g2
(lp1251
g0
(g1
g2
(lp1252
g0
(g1
g2
(lp1253
(lp1254
S'word: the, index: 6'
p1255
aatp1256
Rp1257
(dp1258
g14
Vdet
p1259
sbatp1260
Rp1261
(dp1262
g14
S'word: kitchen, index: 7'
p1263
sbatp1264
Rp1265
(dp1266
g14
Vprep
p1267
sbag0
(g1
g2
(lp1268
g0
(g1
g2
(lp1269
g0
(g1
g2
(lp1270
g0
(g1
g2
(lp1271
g0
(g1
g2
(lp1272
(lp1273
S'word: kitchen, index: 10'
p1274
aatp1275
Rp1276
(dp1277
g14
Vnn
p1278
sbatp1279
Rp1280
(dp1281
g14
S'word: work, index: 11'
p1282
sbatp1283
Rp1284
(dp1285
g14
Vdobj
p1286
sbatp1287
Rp1288
(dp1289
g14
S'word: doing, index: 9'
p1290
sbatp1291
Rp1292
(dp1293
g14
Vxcomp
p1294
sbatp1295
Rp1296
(dp1297
g14
S'word: be, index: 4'
p1298
sbatp1299
Rp1300
(dp1301
g14
Vxcomp
p1302
sbatp1303
Rp1304
(dp1305
g14
S'word: seem, index: 2'
p1306
sbatp1307
Rp1308
(dp1309
g14
S'id: 11'
p1310
sbag0
(g1
g2
(lp1311
g0
(g1
g2
(lp1312
g0
(g1
g2
(lp1313
(lp1314
S'word: can, index: 4'
p1315
aatp1316
Rp1317
(dp1318
g14
Vaux
p1319
sbag0
(g1
g2
(lp1320
g0
(g1
g2
(lp1321
g0
(g1
g2
(lp1322
g0
(g1
g2
(lp1323
g0
(g1
g2
(lp1324
(lp1325
S'word: That, index: 1'
p1326
aatp1327
Rp1328
(dp1329
g14
Vdet
p1330
sbatp1331
Rp1332
(dp1333
g14
S'word: everything, index: 2'
p1334
sbatp1335
Rp1336
(dp1337
g14
Vnsubj
p1338
sbatp1339
Rp1340
(dp1341
g14
S'word: recognize, index: 7'
p1342
sbatp1343
Rp1344
(dp1345
g14
Vconj
p1346
sbag0
(g1
g2
(lp1347
g1332
atp1348
Rp1349
(dp1350
g14
Vnsubj
p1351
sbag0
(g1
g2
(lp1352
(lp1353
S'word: I, index: 3'
p1354
aatp1355
Rp1356
(dp1357
g14
Vnsubj
p1358
sbatp1359
Rp1360
(dp1361
g14
S'word: see, index: 5'
p1362
sbatp1363
Rp1364
(dp1365
g14
S'id: 12'
p1366
sbatp1367
Rp1368
(dp1369
g14
S'sentences'
p1370
sb.