ccopy_reg
_reconstructor
p0
(cnltk.tree
Tree
p1
c__builtin__
list
p2
(lp3
g0
(g1
g2
(lp4
g0
(g1
g2
(lp5
g0
(g1
g2
(lp6
VOkay
p7
atp8
Rp9
(dp10
S'_label'
p11
VUH
p12
sbag0
(g1
g2
(lp13
V.
p14
atp15
Rp16
(dp17
g11
V.
p18
sbatp19
Rp20
(dp21
g11
VINTJ
p22
sbatp23
Rp24
(dp25
g11
S'id: 0'
p26
sbag0
(g1
g2
(lp27
g0
(g1
g2
(lp28
g0
(g1
g2
(lp29
g0
(g1
g2
(lp30
g0
(g1
g2
(lp31
g0
(g1
g2
(lp32
VBoy
p33
atp34
Rp35
(dp36
g11
VNN
p37
sbatp38
Rp39
(dp40
g11
VNP
p41
sbag0
(g1
g2
(lp42
V,
p43
atp44
Rp45
(dp46
g11
V,
p47
sbag0
(g1
g2
(lp48
Vand
p49
atp50
Rp51
(dp52
g11
VCC
p53
sbag0
(g1
g2
(lp54
g0
(g1
g2
(lp55
Vboy
p56
atp57
Rp58
(dp59
g11
VNN
p60
sbatp61
Rp62
(dp63
g11
VNP
p64
sbag0
(g1
g2
(lp65
V,
p66
atp67
Rp68
(dp69
g11
V,
p70
sbatp71
Rp72
(dp73
g11
VNP
p74
sbag0
(g1
g2
(lp75
g0
(g1
g2
(lp76
Vsitting
p77
atp78
Rp79
(dp80
g11
VVBG
p81
sbag0
(g1
g2
(lp82
g0
(g1
g2
(lp83
Von
p84
atp85
Rp86
(dp87
g11
VIN
p88
sbag0
(g1
g2
(lp89
g0
(g1
g2
(lp90
Va
p91
atp92
Rp93
(dp94
g11
VDT
p95
sbag0
(g1
g2
(lp96
Vbasket
p97
atp98
Rp99
(dp100
g11
VNN
p101
sbatp102
Rp103
(dp104
g11
VNP
p105
sbatp106
Rp107
(dp108
g11
VPP
p109
sbatp110
Rp111
(dp112
g11
VVP
p113
sbatp114
Rp115
(dp116
g11
VS
p117
sbag0
(g1
g2
(lp118
V,
p119
atp120
Rp121
(dp122
g11
V,
p123
sbag0
(g1
g2
(lp124
Vor
p125
atp126
Rp127
(dp128
g11
VCC
p129
sbag0
(g1
g2
(lp130
V,
p131
atp132
Rp133
(dp134
g11
V,
p135
sbag0
(g1
g2
(lp136
g0
(g1
g2
(lp137
g0
(g1
g2
(lp138
Vno
p139
atp140
Rp141
(dp142
g11
VDT
p143
sbatp144
Rp145
(dp146
g11
VNP
p147
sbag0
(g1
g2
(lp148
g0
(g1
g2
(lp149
Va
p150
atp151
Rp152
(dp153
g11
VDT
p154
sbag0
(g1
g2
(lp155
Vdrink
p156
atp157
Rp158
(dp159
g11
VNN
p160
sbatp161
Rp162
(dp163
g11
VNP
p164
sbatp165
Rp166
(dp167
g11
VS
p168
sbag0
(g1
g2
(lp169
V.
p170
atp171
Rp172
(dp173
g11
V.
p174
sbatp175
Rp176
(dp177
g11
VS
p178
sbatp179
Rp180
(dp181
g11
S'id: 1'
p182
sbag0
(g1
g2
(lp183
g0
(g1
g2
(lp184
g0
(g1
g2
(lp185
g0
(g1
g2
(lp186
g0
(g1
g2
(lp187
g0
(g1
g2
(lp188
VThe
p189
atp190
Rp191
(dp192
g11
VDT
p193
sbatp194
Rp195
(dp196
g11
VNP
p197
sbag0
(g1
g2
(lp198
V,
p199
atp200
Rp201
(dp202
g11
V,
p203
sbag0
(g1
g2
(lp204
g0
(g1
g2
(lp205
g0
(g1
g2
(lp206
Vthe
p207
atp208
Rp209
(dp210
g11
VDT
p211
sbag0
(g1
g2
(lp212
Vboy
p213
atp214
Rp215
(dp216
g11
VNN
p217
sbatp218
Rp219
(dp220
g11
VNP
p221
sbag0
(g1
g2
(lp222
V,
p223
atp224
Rp225
(dp226
g11
V,
p227
sbag0
(g1
g2
(lp228
Vand
p229
atp230
Rp231
(dp232
g11
VCC
p233
sbag0
(g1
g2
(lp234
g0
(g1
g2
(lp235
Vwalking
p236
atp237
Rp238
(dp239
g11
VVBG
p240
sbag0
(g1
g2
(lp241
g0
(g1
g2
(lp242
Vthe
p243
atp244
Rp245
(dp246
g11
VDT
p247
sbag0
(g1
g2
(lp248
g0
(g1
g2
(lp249
V,
p250
atp251
Rp252
(dp253
g11
V,
p254
sbag0
(g1
g2
(lp255
g0
(g1
g2
(lp256
Vthe
p257
atp258
Rp259
(dp260
g11
VDT
p261
sbatp262
Rp263
(dp264
g11
VADVP
p265
sbag0
(g1
g2
(lp266
V,
p267
atp268
Rp269
(dp270
g11
V,
p271
sbatp272
Rp273
(dp274
g11
VPRN
p275
sbag0
(g1
g2
(lp276
Vplane
p277
atp278
Rp279
(dp280
g11
VNN
p281
sbatp282
Rp283
(dp284
g11
VNP
p285
sbatp286
Rp287
(dp288
g11
VVP
p289
sbatp290
Rp291
(dp292
g11
VUCP
p293
sbatp294
Rp295
(dp296
g11
VNP
p297
sbag0
(g1
g2
(lp298
V,
p299
atp300
Rp301
(dp302
g11
V,
p303
sbag0
(g1
g2
(lp304
Vand
p305
atp306
Rp307
(dp308
g11
VCC
p309
sbag0
(g1
g2
(lp310
g0
(g1
g2
(lp311
Vthe
p312
atp313
Rp314
(dp315
g11
VDT
p316
sbag0
(g1
g2
(lp317
Vdog
p318
atp319
Rp320
(dp321
g11
VNN
p322
sbatp323
Rp324
(dp325
g11
VNP
p326
sbatp327
Rp328
(dp329
g11
VNP
p330
sbag0
(g1
g2
(lp331
g0
(g1
g2
(lp332
Vgo
p333
atp334
Rp335
(dp336
g11
VVB
p337
sbag0
(g1
g2
(lp338
g0
(g1
g2
(lp339
Vwith
p340
atp341
Rp342
(dp343
g11
VIN
p344
sbag0
(g1
g2
(lp345
g0
(g1
g2
(lp346
Vme
p347
atp348
Rp349
(dp350
g11
VPRP
p351
sbatp352
Rp353
(dp354
g11
VNP
p355
sbatp356
Rp357
(dp358
g11
VPP
p359
sbatp360
Rp361
(dp362
g11
VVP
p363
sbag0
(g1
g2
(lp364
V.
p365
atp366
Rp367
(dp368
g11
V.
p369
sbatp370
Rp371
(dp372
g11
VS
p373
sbatp374
Rp375
(dp376
g11
S'id: 2'
p377
sbag0
(g1
g2
(lp378
g0
(g1
g2
(lp379
g0
(g1
g2
(lp380
g0
(g1
g2
(lp381
VThe
p382
atp383
Rp384
(dp385
g11
VDT
p386
sbatp387
Rp388
(dp389
g11
VNP
p390
sbag0
(g1
g2
(lp391
V,
p392
atp393
Rp394
(dp395
g11
V,
p396
sbag0
(g1
g2
(lp397
g0
(g1
g2
(lp398
g0
(g1
g2
(lp399
Vthe
p400
atp401
Rp402
(dp403
g11
VDT
p404
sbag0
(g1
g2
(lp405
Vsailboat
p406
atp407
Rp408
(dp409
g11
VNN
p410
sbatp411
Rp412
(dp413
g11
VNP
p414
sbag0
(g1
g2
(lp415
V,
p416
atp417
Rp418
(dp419
g11
V,
p420
sbag0
(g1
g2
(lp421
Vand
p422
atp423
Rp424
(dp425
g11
VCC
p426
sbag0
(g1
g2
(lp427
g0
(g1
g2
(lp428
Vthe
p429
atp430
Rp431
(dp432
g11
VDT
p433
sbag0
(g1
g2
(lp434
Vsinging
p435
atp436
Rp437
(dp438
g11
VNN
p439
sbatp440
Rp441
(dp442
g11
VNP
p443
sbatp444
Rp445
(dp446
g11
VNP
p447
sbag0
(g1
g2
(lp448
V.
p449
atp450
Rp451
(dp452
g11
V.
p453
sbatp454
Rp455
(dp456
g11
VNP
p457
sbatp458
Rp459
(dp460
g11
S'id: 3'
p461
sbag0
(g1
g2
(lp462
g0
(g1
g2
(lp463
g0
(g1
g2
(lp464
g0
(g1
g2
(lp465
VThe
p466
atp467
Rp468
(dp469
g11
VDT
p470
sbag0
(g1
g2
(lp471
Vgirl
p472
atp473
Rp474
(dp475
g11
VNN
p476
sbatp477
Rp478
(dp479
g11
VNP
p480
sbag0
(g1
g2
(lp481
V,
p482
atp483
Rp484
(dp485
g11
V,
p486
sbag0
(g1
g2
(lp487
g0
(g1
g2
(lp488
Vboy
p489
atp490
Rp491
(dp492
g11
VNN
p493
sbatp494
Rp495
(dp496
g11
VNP
p497
sbag0
(g1
g2
(lp498
V,
p499
atp500
Rp501
(dp502
g11
V,
p503
sbag0
(g1
g2
(lp504
g0
(g1
g2
(lp505
g0
(g1
g2
(lp506
VI
p507
atp508
Rp509
(dp510
g11
VPRP
p511
sbatp512
Rp513
(dp514
g11
VNP
p515
sbag0
(g1
g2
(lp516
g0
(g1
g2
(lp517
Vmean
p518
atp519
Rp520
(dp521
g11
VVBP
p522
sbatp523
Rp524
(dp525
g11
VVP
p526
sbatp527
Rp528
(dp529
g11
VS
p530
sbag0
(g1
g2
(lp531
V,
p532
atp533
Rp534
(dp535
g11
V,
p536
sbag0
(g1
g2
(lp537
g0
(g1
g2
(lp538
g0
(g1
g2
(lp539
Vthe
p540
atp541
Rp542
(dp543
g11
VDT
p544
sbag0
(g1
g2
(lp545
Vboy
p546
atp547
Rp548
(dp549
g11
VNN
p550
sbatp551
Rp552
(dp553
g11
VNP
p554
sbag0
(g1
g2
(lp555
g0
(g1
g2
(lp556
Vsitting
p557
atp558
Rp559
(dp560
g11
VVBG
p561
sbag0
(g1
g2
(lp562
g0
(g1
g2
(lp563
Vwith
p564
atp565
Rp566
(dp567
g11
VIN
p568
sbag0
(g1
g2
(lp569
g0
(g1
g2
(lp570
Va
p571
atp572
Rp573
(dp574
g11
VDT
p575
sbag0
(g1
g2
(lp576
Vfishing
p577
atp578
Rp579
(dp580
g11
VNN
p581
sbatp582
Rp583
(dp584
g11
VNP
p585
sbatp586
Rp587
(dp588
g11
VPP
p589
sbatp590
Rp591
(dp592
g11
VVP
p593
sbatp594
Rp595
(dp596
g11
VNP
p597
sbag0
(g1
g2
(lp598
V.
p599
atp600
Rp601
(dp602
g11
V.
p603
sbatp604
Rp605
(dp606
g11
VNP
p607
sbatp608
Rp609
(dp610
g11
S'id: 4'
p611
sbag0
(g1
g2
(lp612
g0
(g1
g2
(lp613
g0
(g1
g2
(lp614
g0
(g1
g2
(lp615
VTheir
p616
atp617
Rp618
(dp619
g11
VPRP$
p620
sbag0
(g1
g2
(lp621
Vhouse
p622
atp623
Rp624
(dp625
g11
VNN
p626
sbatp627
Rp628
(dp629
g11
VNP
p630
sbag0
(g1
g2
(lp631
g0
(g1
g2
(lp632
Vis
p633
atp634
Rp635
(dp636
g11
VVBZ
p637
sbag0
(g1
g2
(lp638
g0
(g1
g2
(lp639
g0
(g1
g2
(lp640
Va
p641
atp642
Rp643
(dp644
g11
VDT
p645
sbatp646
Rp647
(dp648
g11
VNP
p649
sbag0
(g1
g2
(lp650
V,
p651
atp652
Rp653
(dp654
g11
V,
p655
sbag0
(g1
g2
(lp656
g0
(g1
g2
(lp657
Vnice
p658
atp659
Rp660
(dp661
g11
VJJ
p662
sbatp663
Rp664
(dp665
g11
VADJP
p666
sbatp667
Rp668
(dp669
g11
VNP
p670
sbatp671
Rp672
(dp673
g11
VVP
p674
sbag0
(g1
g2
(lp675
V.
p676
atp677
Rp678
(dp679
g11
V.
p680
sbatp681
Rp682
(dp683
g11
VS
p684
sbatp685
Rp686
(dp687
g11
S'id: 5'
p688
sbag0
(g1
g2
(lp689
g0
(g1
g2
(lp690
g0
(g1
g2
(lp691
g0
(g1
g2
(lp692
g0
(g1
g2
(lp693
VThe
p694
atp695
Rp696
(dp697
g11
VDT
p698
sbatp699
Rp700
(dp701
g11
VNP
p702
sbag0
(g1
g2
(lp703
V,
p704
atp705
Rp706
(dp707
g11
V,
p708
sbag0
(g1
g2
(lp709
g0
(g1
g2
(lp710
Vthe
p711
atp712
Rp713
(dp714
g11
VDT
p715
sbag0
(g1
g2
(lp716
Vboy
p717
atp718
Rp719
(dp720
g11
VNN
p721
sbatp722
Rp723
(dp724
g11
VNP
p725
sbag0
(g1
g2
(lp726
V,
p727
atp728
Rp729
(dp730
g11
V,
p731
sbag0
(g1
g2
(lp732
g0
(g1
g2
(lp733
Vno
p734
atp735
Rp736
(dp737
g11
VDT
p738
sbag0
(g1
g2
(lp739
Vboy
p740
atp741
Rp742
(dp743
g11
VNN
p744
sbatp745
Rp746
(dp747
g11
VNP
p748
sbag0
(g1
g2
(lp749
V,
p750
atp751
Rp752
(dp753
g11
V,
p754
sbag0
(g1
g2
(lp755
g0
(g1
g2
(lp756
Vthe
p757
atp758
Rp759
(dp760
g11
VDT
p761
sbag0
(g1
g2
(lp762
Vlittle
p763
atp764
Rp765
(dp766
g11
VJJ
p767
sbag0
(g1
g2
(lp768
Vboy
p769
atp770
Rp771
(dp772
g11
VNN
p773
sbatp774
Rp775
(dp776
g11
VNP
p777
sbag0
(g1
g2
(lp778
V,
p779
atp780
Rp781
(dp782
g11
V,
p783
sbag0
(g1
g2
(lp784
g0
(g1
g2
(lp785
g0
(g1
g2
(lp786
Vwhat
p787
atp788
Rp789
(dp790
g11
VWP
p791
sbatp792
Rp793
(dp794
g11
VWHNP
p795
sbag0
(g1
g2
(lp796
g0
(g1
g2
(lp797
g0
(g1
g2
(lp798
Vis
p799
atp800
Rp801
(dp802
g11
VVBZ
p803
sbag0
(g1
g2
(lp804
g0
(g1
g2
(lp805
g0
(g1
g2
(lp806
g0
(g1
g2
(lp807
Vit
p808
atp809
Rp810
(dp811
g11
VPRP
p812
sbatp813
Rp814
(dp815
g11
VNP
p816
sbag0
(g1
g2
(lp817
V,
p818
atp819
Rp820
(dp821
g11
V,
p822
sbag0
(g1
g2
(lp823
g0
(g1
g2
(lp824
Vsinging
p825
atp826
Rp827
(dp828
g11
VNN
p829
sbatp830
Rp831
(dp832
g11
VNP
p833
sbag0
(g1
g2
(lp834
V,
p835
atp836
Rp837
(dp838
g11
V,
p839
sbatp840
Rp841
(dp842
g11
VNP
p843
sbag0
(g1
g2
(lp844
g0
(g1
g2
(lp845
Vwith
p846
atp847
Rp848
(dp849
g11
VIN
p850
sbag0
(g1
g2
(lp851
g0
(g1
g2
(lp852
g0
(g1
g2
(lp853
Vthe
p854
atp855
Rp856
(dp857
g11
VDT
p858
sbag0
(g1
g2
(lp859
Vboy
p860
atp861
Rp862
(dp863
g11
VNN
p864
sbatp865
Rp866
(dp867
g11
VNP
p868
sbag0
(g1
g2
(lp869
Vand
p870
atp871
Rp872
(dp873
g11
VCC
p874
sbag0
(g1
g2
(lp875
V,
p876
atp877
Rp878
(dp879
g11
V,
p880
sbag0
(g1
g2
(lp881
g0
(g1
g2
(lp882
Vsinging
p883
atp884
Rp885
(dp886
g11
VNN
p887
sbatp888
Rp889
(dp890
g11
VNP
p891
sbag0
(g1
g2
(lp892
Vand
p893
atp894
Rp895
(dp896
g11
VCC
p897
sbag0
(g1
g2
(lp898
g0
(g1
g2
(lp899
Vthey
p900
atp901
Rp902
(dp903
g11
VPRP
p904
sbatp905
Rp906
(dp907
g11
VNP
p908
sbatp909
Rp910
(dp911
g11
VNP
p912
sbatp913
Rp914
(dp915
g11
VPP
p916
sbatp917
Rp918
(dp919
g11
VNP
p920
sbatp921
Rp922
(dp923
g11
VVP
p924
sbatp925
Rp926
(dp927
g11
VS
p928
sbatp929
Rp930
(dp931
g11
VSBAR
p932
sbatp933
Rp934
(dp935
g11
VNP
p936
sbag0
(g1
g2
(lp937
g0
(g1
g2
(lp938
V're
p939
atp940
Rp941
(dp942
g11
VVBP
p943
sbag0
(g1
g2
(lp944
g0
(g1
g2
(lp945
Vboth
p946
atp947
Rp948
(dp949
g11
VDT
p950
sbatp951
Rp952
(dp953
g11
VADVP
p954
sbag0
(g1
g2
(lp955
g0
(g1
g2
(lp956
Vsitting
p957
atp958
Rp959
(dp960
g11
VVBG
p961
sbag0
(g1
g2
(lp962
g0
(g1
g2
(lp963
Vthe
p964
atp965
Rp966
(dp967
g11
VDT
p968
sbag0
(g1
g2
(lp969
Vbook
p970
atp971
Rp972
(dp973
g11
VNN
p974
sbatp975
Rp976
(dp977
g11
VNP
p978
sbatp979
Rp980
(dp981
g11
VVP
p982
sbatp983
Rp984
(dp985
g11
VVP
p986
sbag0
(g1
g2
(lp987
V.
p988
atp989
Rp990
(dp991
g11
V.
p992
sbatp993
Rp994
(dp995
g11
VS
p996
sbatp997
Rp998
(dp999
g11
S'id: 6'
p1000
sbag0
(g1
g2
(lp1001
g0
(g1
g2
(lp1002
g0
(g1
g2
(lp1003
VAnd
p1004
atp1005
Rp1006
(dp1007
g11
VCC
p1008
sbag0
(g1
g2
(lp1009
g0
(g1
g2
(lp1010
Vthe
p1011
atp1012
Rp1013
(dp1014
g11
VDT
p1015
sbag0
(g1
g2
(lp1016
Vgirl
p1017
atp1018
Rp1019
(dp1020
g11
VNN
p1021
sbag0
(g1
g2
(lp1022
g0
(g1
g2
(lp1023
g0
(g1
g2
(lp1024
g0
(g1
g2
(lp1025
g0
(g1
g2
(lp1026
Vsitting
p1027
atp1028
Rp1029
(dp1030
g11
VVBG
p1031
sbatp1032
Rp1033
(dp1034
g11
VVP
p1035
sbag0
(g1
g2
(lp1036
V,
p1037
atp1038
Rp1039
(dp1040
g11
V,
p1041
sbag0
(g1
g2
(lp1042
g0
(g1
g2
(lp1043
Vplaying
p1044
atp1045
Rp1046
(dp1047
g11
VVBG
p1048
sbatp1049
Rp1050
(dp1051
g11
VVP
p1052
sbatp1053
Rp1054
(dp1055
g11
VVP
p1056
sbatp1057
Rp1058
(dp1059
g11
VS
p1060
sbatp1061
Rp1062
(dp1063
g11
VSBAR
p1064
sbatp1065
Rp1066
(dp1067
g11
VNP
p1068
sbag0
(g1
g2
(lp1069
V.
p1070
atp1071
Rp1072
(dp1073
g11
V.
p1074
sbatp1075
Rp1076
(dp1077
g11
VFRAG
p1078
sbatp1079
Rp1080
(dp1081
g11
S'id: 7'
p1082
sbag0
(g1
g2
(lp1083
g0
(g1
g2
(lp1084
g0
(g1
g2
(lp1085
g0
(g1
g2
(lp1086
g0
(g1
g2
(lp1087
g0
(g1
g2
(lp1088
VThe
p1089
atp1090
Rp1091
(dp1092
g11
VDT
p1093
sbatp1094
Rp1095
(dp1096
g11
VNP
p1097
sbag0
(g1
g2
(lp1098
V,
p1099
atp1100
Rp1101
(dp1102
g11
V,
p1103
sbag0
(g1
g2
(lp1104
g0
(g1
g2
(lp1105
Vthe
p1106
atp1107
Rp1108
(dp1109
g11
VDT
p1110
sbag0
(g1
g2
(lp1111
Vkite
p1112
atp1113
Rp1114
(dp1115
g11
VNN
p1116
sbatp1117
Rp1118
(dp1119
g11
VNP
p1120
sbag0
(g1
g2
(lp1121
V,
p1122
atp1123
Rp1124
(dp1125
g11
V,
p1126
sbatp1127
Rp1128
(dp1129
g11
VNP
p1130
sbag0
(g1
g2
(lp1131
g0
(g1
g2
(lp1132
Vwith
p1133
atp1134
Rp1135
(dp1136
g11
VIN
p1137
sbag0
(g1
g2
(lp1138
g0
(g1
g2
(lp1139
Va
p1140
atp1141
Rp1142
(dp1143
g11
VDT
p1144
sbag0
(g1
g2
(lp1145
Vboy
p1146
atp1147
Rp1148
(dp1149
g11
VNN
p1150
sbatp1151
Rp1152
(dp1153
g11
VNP
p1154
sbatp1155
Rp1156
(dp1157
g11
VPP
p1158
sbag0
(g1
g2
(lp1159
V,
p1160
atp1161
Rp1162
(dp1163
g11
V,
p1164
sbag0
(g1
g2
(lp1165
g0
(g1
g2
(lp1166
Vwith
p1167
atp1168
Rp1169
(dp1170
g11
VIN
p1171
sbag0
(g1
g2
(lp1172
g0
(g1
g2
(lp1173
Vthe
p1174
atp1175
Rp1176
(dp1177
g11
VDT
p1178
sbag0
(g1
g2
(lp1179
Vlittle
p1180
atp1181
Rp1182
(dp1183
g11
VJJ
p1184
sbag0
(g1
g2
(lp1185
Vdog
p1186
atp1187
Rp1188
(dp1189
g11
VNN
p1190
sbatp1191
Rp1192
(dp1193
g11
VNP
p1194
sbatp1195
Rp1196
(dp1197
g11
VPP
p1198
sbatp1199
Rp1200
(dp1201
g11
VNP
p1202
sbag0
(g1
g2
(lp1203
g0
(g1
g2
(lp1204
Vgo
p1205
atp1206
Rp1207
(dp1208
g11
VVB
p1209
sbag0
(g1
g2
(lp1210
g0
(g1
g2
(lp1211
Vwith
p1212
atp1213
Rp1214
(dp1215
g11
VIN
p1216
sbag0
(g1
g2
(lp1217
g0
(g1
g2
(lp1218
Vplaying
p1219
atp1220
Rp1221
(dp1222
g11
VNN
p1223
sbatp1224
Rp1225
(dp1226
g11
VNP
p1227
sbatp1228
Rp1229
(dp1230
g11
VPP
p1231
sbatp1232
Rp1233
(dp1234
g11
VVP
p1235
sbag0
(g1
g2
(lp1236
V.
p1237
atp1238
Rp1239
(dp1240
g11
V.
p1241
sbatp1242
Rp1243
(dp1244
g11
VS
p1245
sbatp1246
Rp1247
(dp1248
g11
S'id: 8'
p1249
sbag0
(g1
g2
(lp1250
g0
(g1
g2
(lp1251
g0
(g1
g2
(lp1252
g0
(g1
g2
(lp1253
VThe
p1254
atp1255
Rp1256
(dp1257
g11
VDT
p1258
sbatp1259
Rp1260
(dp1261
g11
VNP
p1262
sbag0
(g1
g2
(lp1263
V,
p1264
atp1265
Rp1266
(dp1267
g11
V,
p1268
sbag0
(g1
g2
(lp1269
g0
(g1
g2
(lp1270
g0
(g1
g2
(lp1271
Vthe
p1272
atp1273
Rp1274
(dp1275
g11
VDT
p1276
sbag0
(g1
g2
(lp1277
Vsitting
p1278
atp1279
Rp1280
(dp1281
g11
VVBG
p1282
sbatp1283
Rp1284
(dp1285
g11
VNP
p1286
sbag0
(g1
g2
(lp1287
g0
(g1
g2
(lp1288
Vwith
p1289
atp1290
Rp1291
(dp1292
g11
VIN
p1293
sbag0
(g1
g2
(lp1294
g0
(g1
g2
(lp1295
Va
p1296
atp1297
Rp1298
(dp1299
g11
VDT
p1300
sbag0
(g1
g2
(lp1301
Vbook
p1302
atp1303
Rp1304
(dp1305
g11
VNN
p1306
sbatp1307
Rp1308
(dp1309
g11
VNP
p1310
sbatp1311
Rp1312
(dp1313
g11
VPP
p1314
sbatp1315
Rp1316
(dp1317
g11
VNP
p1318
sbag0
(g1
g2
(lp1319
V.
p1320
atp1321
Rp1322
(dp1323
g11
V.
p1324
sbatp1325
Rp1326
(dp1327
g11
VNP
p1328
sbatp1329
Rp1330
(dp1331
g11
S'id: 9'
p1332
sbag0
(g1
g2
(lp1333
g0
(g1
g2
(lp1334
g0
(g1
g2
(lp1335
g0
(g1
g2
(lp1336
VThe
p1337
atp1338
Rp1339
(dp1340
g11
VDT
p1341
sbag0
(g1
g2
(lp1342
Vboy
p1343
atp1344
Rp1345
(dp1346
g11
VNN
p1347
sbatp1348
Rp1349
(dp1350
g11
VNP
p1351
sbag0
(g1
g2
(lp1352
V,
p1353
atp1354
Rp1355
(dp1356
g11
V,
p1357
sbag0
(g1
g2
(lp1358
g0
(g1
g2
(lp1359
g0
(g1
g2
(lp1360
VI
p1361
atp1362
Rp1363
(dp1364
g11
VPRP
p1365
sbatp1366
Rp1367
(dp1368
g11
VNP
p1369
sbag0
(g1
g2
(lp1370
g0
(g1
g2
(lp1371
Vmean
p1372
atp1373
Rp1374
(dp1375
g11
VVBP
p1376
sbatp1377
Rp1378
(dp1379
g11
VVP
p1380
sbatp1381
Rp1382
(dp1383
g11
VS
p1384
sbag0
(g1
g2
(lp1385
V,
p1386
atp1387
Rp1388
(dp1389
g11
V,
p1390
sbag0
(g1
g2
(lp1391
g0
(g1
g2
(lp1392
g0
(g1
g2
(lp1393
g0
(g1
g2
(lp1394
g0
(g1
g2
(lp1395
Vboys
p1396
atp1397
Rp1398
(dp1399
g11
VNNS
p1400
sbag0
(g1
g2
(lp1401
Vsitting
p1402
atp1403
Rp1404
(dp1405
g11
VVBG
p1406
sbatp1407
Rp1408
(dp1409
g11
VNP
p1410
sbag0
(g1
g2
(lp1411
V,
p1412
atp1413
Rp1414
(dp1415
g11
V,
p1416
sbag0
(g1
g2
(lp1417
g0
(g1
g2
(lp1418
Vno
p1419
atp1420
Rp1421
(dp1422
g11
VDT
p1423
sbag0
(g1
g2
(lp1424
Vboy
p1425
atp1426
Rp1427
(dp1428
g11
VNN
p1429
sbatp1430
Rp1431
(dp1432
g11
VNP
p1433
sbag0
(g1
g2
(lp1434
V,
p1435
atp1436
Rp1437
(dp1438
g11
V,
p1439
sbatp1440
Rp1441
(dp1442
g11
VNP
p1443
sbag0
(g1
g2
(lp1444
g0
(g1
g2
(lp1445
Vwas
p1446
atp1447
Rp1448
(dp1449
g11
VVBD
p1450
sbag0
(g1
g2
(lp1451
g0
(g1
g2
(lp1452
g0
(g1
g2
(lp1453
Vno
p1454
atp1455
Rp1456
(dp1457
g11
VRB
p1458
sbatp1459
Rp1460
(dp1461
g11
VNP
p1462
sbag0
(g1
g2
(lp1463
V,
p1464
atp1465
Rp1466
(dp1467
g11
V,
p1468
sbag0
(g1
g2
(lp1469
g0
(g1
g2
(lp1470
Vman
p1471
atp1472
Rp1473
(dp1474
g11
VNN
p1475
sbatp1476
Rp1477
(dp1478
g11
VNP
p1479
sbatp1480
Rp1481
(dp1482
g11
VNP
p1483
sbatp1484
Rp1485
(dp1486
g11
VVP
p1487
sbatp1488
Rp1489
(dp1490
g11
VS
p1491
sbag0
(g1
g2
(lp1492
Vand
p1493
atp1494
Rp1495
(dp1496
g11
VCC
p1497
sbag0
(g1
g2
(lp1498
g0
(g1
g2
(lp1499
g0
(g1
g2
(lp1500
Vhe
p1501
atp1502
Rp1503
(dp1504
g11
VPRP
p1505
sbatp1506
Rp1507
(dp1508
g11
VNP
p1509
sbag0
(g1
g2
(lp1510
g0
(g1
g2
(lp1511
Vwas
p1512
atp1513
Rp1514
(dp1515
g11
VVBD
p1516
sbag0
(g1
g2
(lp1517
g0
(g1
g2
(lp1518
Vsawing
p1519
atp1520
Rp1521
(dp1522
g11
VVBG
p1523
sbag0
(g1
g2
(lp1524
g0
(g1
g2
(lp1525
Vdown
p1526
atp1527
Rp1528
(dp1529
g11
VRP
p1530
sbatp1531
Rp1532
(dp1533
g11
VPRT
p1534
sbatp1535
Rp1536
(dp1537
g11
VVP
p1538
sbatp1539
Rp1540
(dp1541
g11
VVP
p1542
sbatp1543
Rp1544
(dp1545
g11
VS
p1546
sbatp1547
Rp1548
(dp1549
g11
VS
p1550
sbag0
(g1
g2
(lp1551
V,
p1552
atp1553
Rp1554
(dp1555
g11
V,
p1556
sbag0
(g1
g2
(lp1557
g0
(g1
g2
(lp1558
Vsitting
p1559
atp1560
Rp1561
(dp1562
g11
VVBG
p1563
sbag0
(g1
g2
(lp1564
g0
(g1
g2
(lp1565
Vdown
p1566
atp1567
Rp1568
(dp1569
g11
VRP
p1570
sbatp1571
Rp1572
(dp1573
g11
VPRT
p1574
sbag0
(g1
g2
(lp1575
g0
(g1
g2
(lp1576
Vwith
p1577
atp1578
Rp1579
(dp1580
g11
VIN
p1581
sbag0
(g1
g2
(lp1582
g0
(g1
g2
(lp1583
Va
p1584
atp1585
Rp1586
(dp1587
g11
VDT
p1588
sbag0
(g1
g2
(lp1589
Vbook
p1590
atp1591
Rp1592
(dp1593
g11
VNN
p1594
sbatp1595
Rp1596
(dp1597
g11
VNP
p1598
sbatp1599
Rp1600
(dp1601
g11
VPP
p1602
sbatp1603
Rp1604
(dp1605
g11
VVP
p1606
sbag0
(g1
g2
(lp1607
V.
p1608
atp1609
Rp1610
(dp1611
g11
V.
p1612
sbatp1613
Rp1614
(dp1615
g11
VNP
p1616
sbatp1617
Rp1618
(dp1619
g11
S'id: 10'
p1620
sbag0
(g1
g2
(lp1621
g0
(g1
g2
(lp1622
g0
(g1
g2
(lp1623
g0
(g1
g2
(lp1624
VThe
p1625
atp1626
Rp1627
(dp1628
g11
VDT
p1629
sbag0
(g1
g2
(lp1630
Vother
p1631
atp1632
Rp1633
(dp1634
g11
VJJ
p1635
sbag0
(g1
g2
(lp1636
Vone
p1637
atp1638
Rp1639
(dp1640
g11
VCD
p1641
sbatp1642
Rp1643
(dp1644
g11
VNP
p1645
sbag0
(g1
g2
(lp1646
V,
p1647
atp1648
Rp1649
(dp1650
g11
V,
p1651
sbag0
(g1
g2
(lp1652
g0
(g1
g2
(lp1653
g0
(g1
g2
(lp1654
Vthe
p1655
atp1656
Rp1657
(dp1658
g11
VDT
p1659
sbag0
(g1
g2
(lp1660
Vgirl
p1661
atp1662
Rp1663
(dp1664
g11
VNN
p1665
sbatp1666
Rp1667
(dp1668
g11
VNP
p1669
sbag0
(g1
g2
(lp1670
V,
p1671
atp1672
Rp1673
(dp1674
g11
V,
p1675
sbag0
(g1
g2
(lp1676
g0
(g1
g2
(lp1677
Vsitting
p1678
atp1679
Rp1680
(dp1681
g11
VVBG
p1682
sbag0
(g1
g2
(lp1683
g0
(g1
g2
(lp1684
Vwith
p1685
atp1686
Rp1687
(dp1688
g11
VIN
p1689
sbag0
(g1
g2
(lp1690
g0
(g1
g2
(lp1691
Va
p1692
atp1693
Rp1694
(dp1695
g11
VDT
p1696
sbag0
(g1
g2
(lp1697
Vdrink
p1698
atp1699
Rp1700
(dp1701
g11
VNN
p1702
sbatp1703
Rp1704
(dp1705
g11
VNP
p1706
sbatp1707
Rp1708
(dp1709
g11
VPP
p1710
sbatp1711
Rp1712
(dp1713
g11
VVP
p1714
sbatp1715
Rp1716
(dp1717
g11
VNP
p1718
sbag0
(g1
g2
(lp1719
V,
p1720
atp1721
Rp1722
(dp1723
g11
V,
p1724
sbag0
(g1
g2
(lp1725
g0
(g1
g2
(lp1726
Vwith
p1727
atp1728
Rp1729
(dp1730
g11
VIN
p1731
sbag0
(g1
g2
(lp1732
g0
(g1
g2
(lp1733
Vsinging
p1734
atp1735
Rp1736
(dp1737
g11
VNN
p1738
sbatp1739
Rp1740
(dp1741
g11
VNP
p1742
sbatp1743
Rp1744
(dp1745
g11
VPP
p1746
sbag0
(g1
g2
(lp1747
V.
p1748
atp1749
Rp1750
(dp1751
g11
V.
p1752
sbatp1753
Rp1754
(dp1755
g11
VNP
p1756
sbatp1757
Rp1758
(dp1759
g11
S'id: 11'
p1760
sbag0
(g1
g2
(lp1761
g0
(g1
g2
(lp1762
g0
(g1
g2
(lp1763
g0
(g1
g2
(lp1764
VThe
p1765
atp1766
Rp1767
(dp1768
g11
VDT
p1769
sbag0
(g1
g2
(lp1770
Vhouse
p1771
atp1772
Rp1773
(dp1774
g11
VNN
p1775
sbatp1776
Rp1777
(dp1778
g11
VNP
p1779
sbag0
(g1
g2
(lp1780
g0
(g1
g2
(lp1781
Vis
p1782
atp1783
Rp1784
(dp1785
g11
VVBZ
p1786
sbag0
(g1
g2
(lp1787
g0
(g1
g2
(lp1788
Vnice
p1789
atp1790
Rp1791
(dp1792
g11
VJJ
p1793
sbatp1794
Rp1795
(dp1796
g11
VADJP
p1797
sbatp1798
Rp1799
(dp1800
g11
VVP
p1801
sbag0
(g1
g2
(lp1802
V.
p1803
atp1804
Rp1805
(dp1806
g11
V.
p1807
sbatp1808
Rp1809
(dp1810
g11
VS
p1811
sbatp1812
Rp1813
(dp1814
g11
S'id: 12'
p1815
sbatp1816
Rp1817
(dp1818
g11
S'sentences'
p1819
sb.