ccopy_reg
_reconstructor
p0
(cnltk.tree
Tree
p1
c__builtin__
list
p2
(lp3
g0
(g1
g2
(lp4
g0
(g1
g2
(lp5
g0
(g1
g2
(lp6
g0
(g1
g2
(lp7
g0
(g1
g2
(lp8
VLook
p9
atp10
Rp11
(dp12
S'_label'
p13
VVB
p14
sbag0
(g1
g2
(lp15
g0
(g1
g2
(lp16
Vlike
p17
atp18
Rp19
(dp20
g13
VIN
p21
sbag0
(g1
g2
(lp22
g0
(g1
g2
(lp23
Vthe
p24
atp25
Rp26
(dp27
g13
VDT
p28
sbag0
(g1
g2
(lp29
Vcown
p30
atp31
Rp32
(dp33
g13
VNN
p34
sbatp35
Rp36
(dp37
g13
VNP
p38
sbatp39
Rp40
(dp41
g13
VPP
p42
sbatp43
Rp44
(dp45
g13
VVP
p46
sbatp47
Rp48
(dp49
g13
VS
p50
sbag0
(g1
g2
(lp51
V,
p52
atp53
Rp54
(dp55
g13
V,
p56
sbag0
(g1
g2
(lp57
g0
(g1
g2
(lp58
Vthe
p59
atp60
Rp61
(dp62
g13
VDT
p63
sbag0
(g1
g2
(lp64
Vclown
p65
atp66
Rp67
(dp68
g13
VNN
p69
sbatp70
Rp71
(dp72
g13
VNP
p73
sbag0
(g1
g2
(lp74
g0
(g1
g2
(lp75
Vgot
p76
atp77
Rp78
(dp79
g13
VVBD
p80
sbag0
(g1
g2
(lp81
g0
(g1
g2
(lp82
Vpaper
p83
atp84
Rp85
(dp86
g13
VNN
p87
sbatp88
Rp89
(dp90
g13
VNP
p91
sbag0
(g1
g2
(lp92
V,
p93
atp94
Rp95
(dp96
g13
V,
p97
sbag0
(g1
g2
(lp98
g0
(g1
g2
(lp99
g0
(g1
g2
(lp100
Vthrowing
p101
atp102
Rp103
(dp104
g13
VVBG
p105
sbag0
(g1
g2
(lp106
g0
(g1
g2
(lp107
Vpaper
p108
atp109
Rp110
(dp111
g13
VNN
p112
sbatp113
Rp114
(dp115
g13
VNP
p116
sbag0
(g1
g2
(lp117
g0
(g1
g2
(lp118
Vout
p119
atp120
Rp121
(dp122
g13
VIN
p123
sbag0
(g1
g2
(lp124
g0
(g1
g2
(lp125
Vthe
p126
atp127
Rp128
(dp129
g13
VDT
p130
sbag0
(g1
g2
(lp131
Vbox
p132
atp133
Rp134
(dp135
g13
VNN
p136
sbatp137
Rp138
(dp139
g13
VNP
p140
sbatp141
Rp142
(dp143
g13
VPP
p144
sbag0
(g1
g2
(lp145
V,
p146
atp147
Rp148
(dp149
g13
V,
p150
sbag0
(g1
g2
(lp151
g0
(g1
g2
(lp152
Vout
p153
atp154
Rp155
(dp156
g13
VIN
p157
sbag0
(g1
g2
(lp158
g0
(g1
g2
(lp159
Vthe
p160
atp161
Rp162
(dp163
g13
VDT
p164
sbag0
(g1
g2
(lp165
Vbucket
p166
atp167
Rp168
(dp169
g13
VNN
p170
sbatp171
Rp172
(dp173
g13
VNP
p174
sbatp175
Rp176
(dp177
g13
VPP
p178
sbatp179
Rp180
(dp181
g13
VVP
p182
sbatp183
Rp184
(dp185
g13
VS
p186
sbatp187
Rp188
(dp189
g13
VVP
p190
sbag0
(g1
g2
(lp191
V.
p192
atp193
Rp194
(dp195
g13
V.
p196
sbatp197
Rp198
(dp199
g13
VS
p200
sbatp201
Rp202
(dp203
g13
S'id: 0'
p204
sbag0
(g1
g2
(lp205
g0
(g1
g2
(lp206
g0
(g1
g2
(lp207
g0
(g1
g2
(lp208
VLion
p209
atp210
Rp211
(dp212
g13
VNNP
p213
sbatp214
Rp215
(dp216
g13
VNP
p217
sbag0
(g1
g2
(lp218
V,
p219
atp220
Rp221
(dp222
g13
V,
p223
sbag0
(g1
g2
(lp224
g0
(g1
g2
(lp225
g0
(g1
g2
(lp226
Vman
p227
atp228
Rp229
(dp230
g13
VNN
p231
sbag0
(g1
g2
(lp232
Vtraining
p233
atp234
Rp235
(dp236
g13
VNN
p237
sbatp238
Rp239
(dp240
g13
VNP
p241
sbag0
(g1
g2
(lp242
g0
(g1
g2
(lp243
Vthe
p244
atp245
Rp246
(dp247
g13
VDT
p248
sbag0
(g1
g2
(lp249
Vlion
p250
atp251
Rp252
(dp253
g13
VNN
p254
sbatp255
Rp256
(dp257
g13
VNP
p258
sbatp259
Rp260
(dp261
g13
VNP
p262
sbag0
(g1
g2
(lp263
V.
p264
atp265
Rp266
(dp267
g13
V.
p268
sbatp269
Rp270
(dp271
g13
VNP
p272
sbatp273
Rp274
(dp275
g13
S'id: 1'
p276
sbag0
(g1
g2
(lp277
g0
(g1
g2
(lp278
g0
(g1
g2
(lp279
g0
(g1
g2
(lp280
VThere
p281
atp282
Rp283
(dp284
g13
VEX
p285
sbatp286
Rp287
(dp288
g13
VNP
p289
sbag0
(g1
g2
(lp290
g0
(g1
g2
(lp291
V's
p292
atp293
Rp294
(dp295
g13
VVBZ
p296
sbag0
(g1
g2
(lp297
g0
(g1
g2
(lp298
Vwhat
p299
atp300
Rp301
(dp302
g13
VWP
p303
sbatp304
Rp305
(dp306
g13
VNP
p307
sbag0
(g1
g2
(lp308
g0
(g1
g2
(lp309
g0
(g1
g2
(lp310
Vfive
p311
atp312
Rp313
(dp314
g13
VCD
p315
sbag0
(g1
g2
(lp316
Vpeople
p317
atp318
Rp319
(dp320
g13
VNNS
p321
sbatp322
Rp323
(dp324
g13
VNP
p325
sbag0
(g1
g2
(lp326
Von
p327
atp328
Rp329
(dp330
g13
VIN
p331
sbag0
(g1
g2
(lp332
g0
(g1
g2
(lp333
Va
p334
atp335
Rp336
(dp337
g13
VDT
p338
sbag0
(g1
g2
(lp339
Vbench
p340
atp341
Rp342
(dp343
g13
VNN
p344
sbatp345
Rp346
(dp347
g13
VNP
p348
sbatp349
Rp350
(dp351
g13
VPP
p352
sbatp353
Rp354
(dp355
g13
VVP
p356
sbatp357
Rp358
(dp359
g13
VS
p360
sbatp361
Rp362
(dp363
g13
S'id: 2'
p364
sbatp365
Rp366
(dp367
g13
S'sentences'
p368
sb.