ccopy_reg
_reconstructor
p0
(cnltk.tree
Tree
p1
c__builtin__
list
p2
(lp3
g0
(g1
g2
(lp4
g0
(g1
g2
(lp5
g0
(g1
g2
(lp6
(lp7
S'word: There, index: 1'
p8
aatp9
Rp10
(dp11
S'_label'
p12
Vexpl
p13
sbag0
(g1
g2
(lp14
g0
(g1
g2
(lp15
g0
(g1
g2
(lp16
(lp17
S'word: it, index: 5'
p18
aatp19
Rp20
(dp21
g12
Vprep
p22
sbatp23
Rp24
(dp25
g12
S'word: 3, index: 3'
p26
sbatp27
Rp28
(dp29
g12
Vnsubj
p30
sbag0
(g1
g2
(lp31
g0
(g1
g2
(lp32
g0
(g1
g2
(lp33
(lp34
S'word: I, index: 8'
p35
aatp36
Rp37
(dp38
g12
Vnsubj
p39
sbag0
(g1
g2
(lp40
(lp41
S'word: could, index: 9'
p42
aatp43
Rp44
(dp45
g12
Vaux
p46
sbag0
(g1
g2
(lp47
(lp48
S'word: just, index: 10'
p49
aatp50
Rp51
(dp52
g12
Vadvmod
p53
sbag0
(g1
g2
(lp54
g0
(g1
g2
(lp55
g0
(g1
g2
(lp56
(lp57
S'word: this, index: 13'
p58
aatp59
Rp60
(dp61
g12
Vdet
p62
sbatp63
Rp64
(dp65
g12
S'word: one, index: 14'
p66
sbatp67
Rp68
(dp69
g12
Vprep
p70
sbatp71
Rp72
(dp73
g12
S'word: talk, index: 11'
p74
sbatp75
Rp76
(dp77
g12
Vconj
p78
sbatp79
Rp80
(dp81
g12
S"word: 's, index: 2"
p82
sbatp83
Rp84
(dp85
g12
S'id: 0'
p86
sbatp87
Rp88
(dp89
g12
S'sentences'
p90
sb.