ccopy_reg
_reconstructor
p0
(cnltk.tree
Tree
p1
c__builtin__
list
p2
(lp3
g0
(g1
g2
(lp4
g0
(g1
g2
(lp5
g0
(g1
g2
(lp6
(lp7
S'word: I, index: 1'
p8
aatp9
Rp10
(dp11
S'_label'
p12
Vnsubj
p13
sbag0
(g1
g2
(lp14
(lp15
S'word: that, index: 3'
p16
aatp17
Rp18
(dp19
g12
Vadvmod
p20
sbatp21
Rp22
(dp23
g12
S'word: know, index: 2'
p24
sbatp25
Rp26
(dp27
g12
S'id: 0'
p28
sbag0
(g1
g2
(lp29
g0
(g1
g2
(lp30
g0
(g1
g2
(lp31
(lp32
S'word: out, index: 3'
p33
aatp34
Rp35
(dp36
g12
Vadvmod
p37
sbag0
(g1
g2
(lp38
g0
(g1
g2
(lp39
g0
(g1
g2
(lp40
(lp41
S'word: dar, index: 5'
p42
aatp43
Rp44
(dp45
g12
Vamod
p46
sbag0
(g1
g2
(lp47
(lp48
S'word: on, index: 7'
p49
aatp50
Rp51
(dp52
g12
Vprep
p53
sbatp54
Rp55
(dp56
g12
S'word: leg, index: 6'
p57
sbatp58
Rp59
(dp60
g12
Vappos
p61
sbatp62
Rp63
(dp64
g12
S'word: Re, index: 1'
p65
sbatp66
Rp67
(dp68
g12
S'id: 1'
p69
sbag0
(g1
g2
(lp70
tp71
Rp72
(dp73
g12
S'id: 2'
p74
sbag0
(g1
g2
(lp75
g0
(g1
g2
(lp76
g0
(g1
g2
(lp77
g0
(g1
g2
(lp78
g0
(g1
g2
(lp79
(lp80
S'word: Ja, index: 1'
p81
aatp82
Rp83
(dp84
g12
Vnsubj
p85
sbatp86
Rp87
(dp88
g12
S'word: died, index: 2'
p89
sbatp90
Rp91
(dp92
g12
Vccomp
p93
sbag0
(g1
g2
(lp94
(lp95
S'word: ja, index: 4'
p96
aatp97
Rp98
(dp99
g12
Vnsubj
p100
sbatp101
Rp102
(dp103
g12
S'word: died, index: 5'
p104
sbatp105
Rp106
(dp107
g12
S'id: 3'
p108
sbag0
(g1
g2
(lp109
tp110
Rp111
(dp112
g12
S'id: 4'
p113
sbag0
(g1
g2
(lp114
tp115
Rp116
(dp117
g12
S'id: 5'
p118
sbag0
(g1
g2
(lp119
tp120
Rp121
(dp122
g12
S'id: 6'
p123
sbag0
(g1
g2
(lp124
tp125
Rp126
(dp127
g12
S'id: 7'
p128
sbag0
(g1
g2
(lp129
g0
(g1
g2
(lp130
g0
(g1
g2
(lp131
(lp132
S'word: Tight, index: 1'
p133
aatp134
Rp135
(dp136
g12
Vnsubj
p137
sbag0
(g1
g2
(lp138
(lp139
S'word: ah, index: 4'
p140
aatp141
Rp142
(dp143
g12
Vadvmod
p144
sbag0
(g1
g2
(lp145
(lp146
S'word: dum, index: 5'
p147
aatp148
Rp149
(dp150
g12
Vdobj
p151
sbatp152
Rp153
(dp154
g12
S'word: do, index: 3'
p155
sbatp156
Rp157
(dp158
g12
S'id: 8'
p159
sbag0
(g1
g2
(lp160
tp161
Rp162
(dp163
g12
S'id: 9'
p164
sbag0
(g1
g2
(lp165
g0
(g1
g2
(lp166
g0
(g1
g2
(lp167
(lp168
S'word: water, index: 2'
p169
aatp170
Rp171
(dp172
g12
Vpobj
p173
sbatp174
Rp175
(dp176
g12
S'word: and, index: 1'
p177
sbatp178
Rp179
(dp180
g12
S'id: 10'
p181
sbag0
(g1
g2
(lp182
g0
(g1
g2
(lp183
g0
(g1
g2
(lp184
g0
(g1
g2
(lp185
g0
(g1
g2
(lp186
(lp187
S'word: the, index: 2'
p188
aatp189
Rp190
(dp191
g12
Vdet
p192
sbatp193
Rp194
(dp195
g12
S'word: dog, index: 3'
p196
sbatp197
Rp198
(dp199
g12
Vpobj
p200
sbatp201
Rp202
(dp203
g12
S'word: With, index: 1'
p204
sbatp205
Rp206
(dp207
g12
S'id: 11'
p208
sbag0
(g1
g2
(lp209
g0
(g1
g2
(lp210
g0
(g1
g2
(lp211
g0
(g1
g2
(lp212
g0
(g1
g2
(lp213
(lp214
S'word: read, index: 5'
p215
aatp216
Rp217
(dp218
g12
Vappos
p219
sbatp220
Rp221
(dp222
g12
S'word: nen, index: 3'
p223
sbatp224
Rp225
(dp226
g12
Vappos
p227
sbatp228
Rp229
(dp230
g12
S'word: Wine, index: 1'
p231
sbatp232
Rp233
(dp234
g12
S'id: 12'
p235
sbatp236
Rp237
(dp238
g12
S'sentences'
p239
sb.