ccopy_reg
_reconstructor
p0
(cnltk.tree
Tree
p1
c__builtin__
list
p2
(lp3
g0
(g1
g2
(lp4
g0
(g1
g2
(lp5
g0
(g1
g2
(lp6
(lp7
S'word: I, index: 1'
p8
aatp9
Rp10
(dp11
S'_label'
p12
Vnsubj
p13
sbag0
(g1
g2
(lp14
(lp15
S'word: this, index: 3'
p16
aatp17
Rp18
(dp19
g12
Vdobj
p20
sbag0
(g1
g2
(lp21
g0
(g1
g2
(lp22
g0
(g1
g2
(lp23
(lp24
S'word: one, index: 4'
p25
aatp26
Rp27
(dp28
g12
Vnum
p29
sbatp30
Rp31
(dp32
g12
S'word: yesterday, index: 5'
p33
sbatp34
Rp35
(dp36
g12
Vtmod
p37
sbatp38
Rp39
(dp40
g12
S'word: saw, index: 2'
p41
sbatp42
Rp43
(dp44
g12
S'id: 0'
p45
sbag0
(g1
g2
(lp46
g0
(g1
g2
(lp47
g0
(g1
g2
(lp48
g0
(g1
g2
(lp49
g0
(g1
g2
(lp50
(lp51
S'word: Nice, index: 1'
p52
aatp53
Rp54
(dp55
g12
Vamod
p56
sbag0
(g1
g2
(lp57
(lp58
S'word: family, index: 2'
p59
aatp60
Rp61
(dp62
g12
Vnn
p63
sbatp64
Rp65
(dp66
g12
S'word: vacation, index: 3'
p67
sbatp68
Rp69
(dp70
g12
Vnsubj
p71
sbag0
(g1
g2
(lp72
(lp73
S'word: they, index: 5'
p74
aatp75
Rp76
(dp77
g12
Vnsubj
p78
sbag0
(g1
g2
(lp79
(lp80
S"word: 've, index: 6"
p81
aatp82
Rp83
(dp84
g12
Vaux
p85
sbag0
(g1
g2
(lp86
g0
(g1
g2
(lp87
g0
(g1
g2
(lp88
(lp89
S'word: the, index: 9'
p90
aatp91
Rp92
(dp93
g12
Vdet
p94
sbatp95
Rp96
(dp97
g12
S'word: vacation, index: 10'
p98
sbatp99
Rp100
(dp101
g12
Vprep
p102
sbatp103
Rp104
(dp105
g12
S'word: driven, index: 7'
p106
sbatp107
Rp108
(dp109
g12
S'id: 1'
p110
sbag0
(g1
g2
(lp111
g0
(g1
g2
(lp112
g0
(g1
g2
(lp113
(lp114
S'word: I, index: 34'
p115
aatp116
Rp117
(dp118
g12
Vnsubj
p119
sbag0
(g1
g2
(lp120
g0
(g1
g2
(lp121
g0
(g1
g2
(lp122
g0
(g1
g2
(lp123
g0
(g1
g2
(lp124
(lp125
S'word: must, index: 6'
p126
aatp127
Rp128
(dp129
g12
Vaux
p130
sbag0
(g1
g2
(lp131
(lp132
S'word: Maine, index: 9'
p133
aatp134
Rp135
(dp136
g12
Vprep
p137
sbag0
(g1
g2
(lp138
(lp139
S'word: they, index: 5'
p140
aatp141
Rp142
(dp143
g12
Vnsubj
p144
sbatp145
Rp146
(dp147
g12
S'word: be, index: 7'
p148
sbatp149
Rp150
(dp151
g12
Vparataxis
p152
sbag0
(g1
g2
(lp153
g0
(g1
g2
(lp154
g0
(g1
g2
(lp155
g0
(g1
g2
(lp156
g0
(g1
g2
(lp157
(lp158
S'word: the, index: 22'
p159
aatp160
Rp161
(dp162
g12
Vdet
p163
sbag0
(g1
g2
(lp164
g0
(g1
g2
(lp165
g0
(g1
g2
(lp166
(lp167
S'word: the, index: 26'
p168
aatp169
Rp170
(dp171
g12
Vdet
p172
sbatp173
Rp174
(dp175
g12
S'word: sailboat, index: 27'
p176
sbatp177
Rp178
(dp179
g12
Vconj
p180
sbatp181
Rp182
(dp183
g12
S'word: water, index: 23'
p184
sbatp185
Rp186
(dp187
g12
Vdobj
p188
sbag0
(g1
g2
(lp189
(lp190
S'word: because, index: 11'
p191
aatp192
Rp193
(dp194
g12
Vmark
p195
sbag0
(g1
g2
(lp196
(lp197
S'word: they, index: 12'
p198
aatp199
Rp200
(dp201
g12
Vnsubj
p202
sbag0
(g1
g2
(lp203
g0
(g1
g2
(lp204
g0
(g1
g2
(lp205
g182
atp206
Rp207
(dp208
g12
Vconj
p209
sbag0
(g1
g2
(lp210
g174
atp211
Rp212
(dp213
g12
Vconj
p214
sbag0
(g1
g2
(lp215
(lp216
S'word: the, index: 14'
p217
aatp218
Rp219
(dp220
g12
Vdet
p221
sbag0
(g1
g2
(lp222
g0
(g1
g2
(lp223
g0
(g1
g2
(lp224
(lp225
S'word: the, index: 30'
p226
aatp227
Rp228
(dp229
g12
Vdet
p230
sbag0
(g1
g2
(lp231
(lp232
S'word: Maine, index: 33'
p233
aatp234
Rp235
(dp236
g12
Vprep
p237
sbatp238
Rp239
(dp240
g12
S'word: lake, index: 31'
p241
sbatp242
Rp243
(dp244
g12
Vconj
p245
sbag0
(g1
g2
(lp246
g0
(g1
g2
(lp247
g0
(g1
g2
(lp248
(lp249
S'word: the, index: 18'
p250
aatp251
Rp252
(dp253
g12
Vdet
p254
sbatp255
Rp256
(dp257
g12
S'word: trees, index: 19'
p258
sbatp259
Rp260
(dp261
g12
Vconj
p262
sbatp263
Rp264
(dp265
g12
S'word: beach, index: 15'
p266
sbatp267
Rp268
(dp269
g12
Vdobj
p270
sbag0
(g1
g2
(lp271
g239
atp272
Rp273
(dp274
g12
Vdobj
p275
sbag0
(g1
g2
(lp276
g256
atp277
Rp278
(dp279
g12
Vdobj
p280
sbatp281
Rp282
(dp283
g12
S'word: got, index: 13'
p284
sbatp285
Rp286
(dp287
g12
Vadvcl
p288
sbag0
(g1
g2
(lp289
(lp290
S'word: They, index: 1'
p291
aatp292
Rp293
(dp294
g12
Vnsubj
p295
sbag0
(g1
g2
(lp296
(lp297
S"word: 've, index: 2"
p298
aatp299
Rp300
(dp301
g12
Vaux
p302
sbatp303
Rp304
(dp305
g12
S'word: got, index: 3'
p306
sbatp307
Rp308
(dp309
g12
Vdep
p310
sbag0
(g1
g2
(lp311
(lp312
S"word: 'm, index: 35"
p313
aatp314
Rp315
(dp316
g12
Vaux
p317
sbatp318
Rp319
(dp320
g12
S'word: thinking, index: 36'
p321
sbatp322
Rp323
(dp324
g12
S'id: 2'
p325
sbag0
(g1
g2
(lp326
g0
(g1
g2
(lp327
g0
(g1
g2
(lp328
(lp329
S'word: you, index: 10'
p330
aatp331
Rp332
(dp333
g12
Vnsubj
p334
sbag0
(g1
g2
(lp335
(lp336
S'word: fish, index: 12'
p337
aatp338
Rp339
(dp340
g12
Vadvmod
p341
sbag0
(g1
g2
(lp342
g0
(g1
g2
(lp343
g0
(g1
g2
(lp344
(lp345
S'word: this, index: 14'
p346
aatp347
Rp348
(dp349
g12
Vdet
p350
sbatp351
Rp352
(dp353
g12
S'word: lake, index: 15'
p354
sbatp355
Rp356
(dp357
g12
Vprep
p358
sbag0
(g1
g2
(lp359
g0
(g1
g2
(lp360
g0
(g1
g2
(lp361
(lp362
S'word: You, index: 1'
p363
aatp364
Rp365
(dp366
g12
Vnsubj
p367
sbag0
(g1
g2
(lp368
(lp369
S'word: can, index: 2'
p370
aatp371
Rp372
(dp373
g12
Vaux
p374
sbag0
(g1
g2
(lp375
g0
(g1
g2
(lp376
g0
(g1
g2
(lp377
(lp378
S'word: your, index: 4'
p379
aatp380
Rp381
(dp382
g12
Vposs
p383
sbatp384
Rp385
(dp386
g12
S'word: dog, index: 5'
p387
sbatp388
Rp389
(dp390
g12
Vdobj
p391
sbag0
(g1
g2
(lp392
g0
(g1
g2
(lp393
g0
(g1
g2
(lp394
(lp395
S'word: this, index: 7'
p396
aatp397
Rp398
(dp399
g12
Vdet
p400
sbatp401
Rp402
(dp403
g12
S'word: lake, index: 8'
p404
sbatp405
Rp406
(dp407
g12
Vprep
p408
sbatp409
Rp410
(dp411
g12
S'word: bring, index: 3'
p412
sbatp413
Rp414
(dp415
g12
Vccomp
p416
sbatp417
Rp418
(dp419
g12
S'word: can, index: 11'
p420
sbatp421
Rp422
(dp423
g12
S'id: 3'
p424
sbag0
(g1
g2
(lp425
g0
(g1
g2
(lp426
g0
(g1
g2
(lp427
g0
(g1
g2
(lp428
g0
(g1
g2
(lp429
(lp430
S'word: all, index: 28'
p431
aatp432
Rp433
(dp434
g12
Vadvmod
p435
sbag0
(g1
g2
(lp436
(lp437
S'word: like, index: 26'
p438
aatp439
Rp440
(dp441
g12
Vmark
p442
sbag0
(g1
g2
(lp443
(lp444
S'word: they, index: 27'
p445
aatp446
Rp447
(dp448
g12
Vnsubj
p449
sbatp450
Rp451
(dp452
g12
S'word: do, index: 29'
p453
sbatp454
Rp455
(dp456
g12
Vadvcl
p457
sbag0
(g1
g2
(lp458
(lp459
S'word: You, index: 1'
p460
aatp461
Rp462
(dp463
g12
Vnsubj
p464
sbag0
(g1
g2
(lp465
(lp466
S'word: can, index: 2'
p467
aatp468
Rp469
(dp470
g12
Vaux
p471
sbag0
(g1
g2
(lp472
(lp473
S'word: be, index: 3'
p474
aatp475
Rp476
(dp477
g12
Vcop
p478
sbag0
(g1
g2
(lp479
(lp480
S'word: the, index: 4'
p481
aatp482
Rp483
(dp484
g12
Vdet
p485
sbag0
(g1
g2
(lp486
(lp487
S'word: good, index: 5'
p488
aatp489
Rp490
(dp491
g12
Vamod
p492
sbag0
(g1
g2
(lp493
g0
(g1
g2
(lp494
g0
(g1
g2
(lp495
g0
(g1
g2
(lp496
g0
(g1
g2
(lp497
(lp498
S'word: wine, index: 14'
p499
aatp500
Rp501
(dp502
g12
Vprep
p503
sbatp504
Rp505
(dp506
g12
S'word: lots, index: 12'
p507
sbatp508
Rp509
(dp510
g12
Vprep
p511
sbag0
(g1
g2
(lp512
g0
(g1
g2
(lp513
g0
(g1
g2
(lp514
(lp515
S'word: while, index: 16'
p516
aatp517
Rp518
(dp519
g12
Vmark
p520
sbag0
(g1
g2
(lp521
g0
(g1
g2
(lp522
g0
(g1
g2
(lp523
(lp524
S'word: the, index: 17'
p525
aatp526
Rp527
(dp528
g12
Vdet
p529
sbatp530
Rp531
(dp532
g12
S'word: husband, index: 18'
p533
sbatp534
Rp535
(dp536
g12
Vnsubj
p537
sbag0
(g1
g2
(lp538
(lp539
S'word: there, index: 20'
p540
aatp541
Rp542
(dp543
g12
Vdobj
p544
sbag0
(g1
g2
(lp545
g0
(g1
g2
(lp546
g0
(g1
g2
(lp547
g531
atp548
Rp549
(dp550
g12
Vnsubj
p551
sbag0
(g1
g2
(lp552
g0
(g1
g2
(lp553
g0
(g1
g2
(lp554
(lp555
S'word: his, index: 23'
p556
aatp557
Rp558
(dp559
g12
Vposs
p560
sbatp561
Rp562
(dp563
g12
S'word: book, index: 24'
p564
sbatp565
Rp566
(dp567
g12
Vdobj
p568
sbatp569
Rp570
(dp571
g12
S'word: reads, index: 22'
p572
sbatp573
Rp574
(dp575
g12
Vconj
p576
sbatp577
Rp578
(dp579
g12
S'word: sits, index: 19'
p580
sbatp581
Rp582
(dp583
g12
Vadvcl
p584
sbag0
(g1
g2
(lp585
g570
atp586
Rp587
(dp588
g12
Vadvcl
p589
sbag0
(g1
g2
(lp590
g0
(g1
g2
(lp591
g0
(g1
g2
(lp592
(lp593
S'word: the, index: 9'
p594
aatp595
Rp596
(dp597
g12
Vdet
p598
sbatp599
Rp600
(dp601
g12
S'word: picnic, index: 10'
p602
sbatp603
Rp604
(dp605
g12
Vdobj
p606
sbatp607
Rp608
(dp609
g12
S'word: pack, index: 8'
p610
sbatp611
Rp612
(dp613
g12
Vparataxis
p614
sbatp615
Rp616
(dp617
g12
S'word: mother, index: 6'
p618
sbatp619
Rp620
(dp621
g12
S'id: 4'
p622
sbag0
(g1
g2
(lp623
g0
(g1
g2
(lp624
g0
(g1
g2
(lp625
(lp626
S'word: And, index: 1'
p627
aatp628
Rp629
(dp630
g12
Vcc
p631
sbag0
(g1
g2
(lp632
(lp633
S'word: you, index: 2'
p634
aatp635
Rp636
(dp637
g12
Vnsubj
p638
sbag0
(g1
g2
(lp639
g0
(g1
g2
(lp640
g0
(g1
g2
(lp641
(lp642
S'word: a, index: 4'
p643
aatp644
Rp645
(dp646
g12
Vdet
p647
sbag0
(g1
g2
(lp648
g0
(g1
g2
(lp649
g0
(g1
g2
(lp650
(lp651
S'word: the, index: 7'
p652
aatp653
Rp654
(dp655
g12
Vdet
p656
sbatp657
Rp658
(dp659
g12
S'word: flagpole, index: 8'
p660
sbatp661
Rp662
(dp663
g12
Vprep
p664
sbatp665
Rp666
(dp667
g12
S'word: flag, index: 5'
p668
sbatp669
Rp670
(dp671
g12
Vdobj
p672
sbatp673
Rp674
(dp675
g12
S'word: have, index: 3'
p676
sbatp677
Rp678
(dp679
g12
S'id: 5'
p680
sbag0
(g1
g2
(lp681
g0
(g1
g2
(lp682
g0
(g1
g2
(lp683
g0
(g1
g2
(lp684
g0
(g1
g2
(lp685
(lp686
S'word: the, index: 3'
p687
aatp688
Rp689
(dp690
g12
Vdet
p691
sbag0
(g1
g2
(lp692
g0
(g1
g2
(lp693
g0
(g1
g2
(lp694
(lp695
S'word: bushes, index: 7'
p696
aatp697
Rp698
(dp699
g12
Vdep
p700
sbatp701
Rp702
(dp703
g12
S'word: and, index: 6'
p704
sbatp705
Rp706
(dp707
g12
Vdep
p708
sbag0
(g1
g2
(lp709
(lp710
S'word: water, index: 10'
p711
aatp712
Rp713
(dp714
g12
Vconj
p715
sbatp716
Rp717
(dp718
g12
S'word: trees, index: 4'
p719
sbatp720
Rp721
(dp722
g12
Vdobj
p723
sbag0
(g1
g2
(lp724
(lp725
S'word: water, index: 10'
p726
aatp727
Rp728
(dp729
g12
Vdobj
p730
sbag0
(g1
g2
(lp731
(lp732
S'word: I, index: 1'
p733
aatp734
Rp735
(dp736
g12
Vnsubj
p737
sbatp738
Rp739
(dp740
g12
S'word: like, index: 2'
p741
sbatp742
Rp743
(dp744
g12
S'id: 6'
p745
sbag0
(g1
g2
(lp746
g0
(g1
g2
(lp747
g0
(g1
g2
(lp748
g0
(g1
g2
(lp749
g0
(g1
g2
(lp750
(lp751
S'word: this, index: 4'
p752
aatp753
Rp754
(dp755
g12
Vdet
p756
sbatp757
Rp758
(dp759
g12
S'word: one, index: 5'
p760
sbatp761
Rp762
(dp763
g12
Vprep
p764
sbag0
(g1
g2
(lp765
(lp766
S'word: No, index: 1'
p767
aatp768
Rp769
(dp770
g12
Vneg
p771
sbatp772
Rp773
(dp774
g12
S'word: birds, index: 2'
p775
sbatp776
Rp777
(dp778
g12
S'id: 7'
p779
sbag0
(g1
g2
(lp780
g0
(g1
g2
(lp781
g0
(g1
g2
(lp782
(lp783
S'word: Yeah, index: 1'
p784
aatp785
Rp786
(dp787
g12
Vdiscourse
p788
sbag0
(g1
g2
(lp789
(lp790
S'word: that, index: 2'
p791
aatp792
Rp793
(dp794
g12
Vnsubj
p795
sbag0
(g1
g2
(lp796
(lp797
S"word: 's, index: 3"
p798
aatp799
Rp800
(dp801
g12
Vcop
p802
sbag0
(g1
g2
(lp803
(lp804
S'word: a, index: 4'
p805
aatp806
Rp807
(dp808
g12
Vdet
p809
sbatp810
Rp811
(dp812
g12
S'word: sailboat, index: 5'
p813
sbatp814
Rp815
(dp816
g12
S'id: 8'
p817
sbag0
(g1
g2
(lp818
g0
(g1
g2
(lp819
g0
(g1
g2
(lp820
(lp821
S'word: And, index: 1'
p822
aatp823
Rp824
(dp825
g12
Vcc
p826
sbag0
(g1
g2
(lp827
g0
(g1
g2
(lp828
g0
(g1
g2
(lp829
(lp830
S'word: sand, index: 3'
p831
aatp832
Rp833
(dp834
g12
Vnn
p835
sbatp836
Rp837
(dp838
g12
S'word: castles, index: 4'
p839
sbatp840
Rp841
(dp842
g12
Vdobj
p843
sbatp844
Rp845
(dp846
g12
S'word: make, index: 2'
p847
sbatp848
Rp849
(dp850
g12
S'id: 9'
p851
sbag0
(g1
g2
(lp852
g0
(g1
g2
(lp853
g0
(g1
g2
(lp854
g0
(g1
g2
(lp855
g0
(g1
g2
(lp856
g0
(g1
g2
(lp857
g0
(g1
g2
(lp858
(lp859
S'word: chase/fly, index: 5'
p860
aatp861
Rp862
(dp863
g12
Vadvmod
p864
sbag0
(g1
g2
(lp865
(lp866
S'word: a, index: 6'
p867
aatp868
Rp869
(dp870
g12
Vdet
p871
sbatp872
Rp873
(dp874
g12
S'word: kite, index: 7'
p875
sbatp876
Rp877
(dp878
g12
Vappos
p879
sbatp880
Rp881
(dp882
g12
S'word: blankets, index: 3'
p883
sbatp884
Rp885
(dp886
g12
Vprep
p887
sbag0
(g1
g2
(lp888
g0
(g1
g2
(lp889
g0
(g1
g2
(lp890
g0
(g1
g2
(lp891
g0
(g1
g2
(lp892
(lp893
S'word: the, index: 10'
p894
aatp895
Rp896
(dp897
g12
Vdet
p898
sbag0
(g1
g2
(lp899
g0
(g1
g2
(lp900
g0
(g1
g2
(lp901
g0
(g1
g2
(lp902
g0
(g1
g2
(lp903
(lp904
S'word: a, index: 13'
p905
aatp906
Rp907
(dp908
g12
Vdet
p909
sbatp910
Rp911
(dp912
g12
S'word: kite, index: 14'
p913
sbatp914
Rp915
(dp916
g12
Vdobj
p917
sbatp918
Rp919
(dp920
g12
S'word: flying, index: 12'
p921
sbatp922
Rp923
(dp924
g12
Vvmod
p925
sbatp926
Rp927
(dp928
g12
S'word: kid, index: 11'
p929
sbatp930
Rp931
(dp932
g12
Vdobj
p933
sbatp934
Rp935
(dp936
g12
S'word: chase, index: 9'
p937
sbatp938
Rp939
(dp940
g12
Vdep
p941
sbatp942
Rp943
(dp944
g12
S'word: Sit, index: 1'
p945
sbatp946
Rp947
(dp948
g12
S'id: 10'
p949
sbag0
(g1
g2
(lp950
g0
(g1
g2
(lp951
g0
(g1
g2
(lp952
g0
(g1
g2
(lp953
g0
(g1
g2
(lp954
(lp955
S'word: some, index: 3'
p956
aatp957
Rp958
(dp959
g12
Vdet
p960
sbatp961
Rp962
(dp963
g12
S'word: music, index: 4'
p964
sbatp965
Rp966
(dp967
g12
Vprep
p968
sbatp969
Rp970
(dp971
g12
S'word: Listen, index: 1'
p972
sbatp973
Rp974
(dp975
g12
S'id: 11'
p976
sbag0
(g1
g2
(lp977
g0
(g1
g2
(lp978
g0
(g1
g2
(lp979
g0
(g1
g2
(lp980
g0
(g1
g2
(lp981
(lp982
S'word: you, index: 9'
p983
aatp984
Rp985
(dp986
g12
Vnsubj
p987
sbag0
(g1
g2
(lp988
(lp989
S'word: should, index: 10'
p990
aatp991
Rp992
(dp993
g12
Vaux
p994
sbag0
(g1
g2
(lp995
g0
(g1
g2
(lp996
g0
(g1
g2
(lp997
(lp998
S'word: lots, index: 14'
p999
aatp1000
Rp1001
(dp1002
g12
Vconj
p1003
sbag0
(g1
g2
(lp1004
(lp1005
S'word: books, index: 16'
p1006
aatp1007
Rp1008
(dp1009
g12
Vprep
p1010
sbatp1011
Rp1012
(dp1013
g12
S'word: lots, index: 12'
p1014
sbatp1015
Rp1016
(dp1017
g12
Vdobj
p1018
sbag0
(g1
g2
(lp1019
(lp1020
S'word: lots, index: 14'
p1021
aatp1022
Rp1023
(dp1024
g12
Vdobj
p1025
sbag0
(g1
g2
(lp1026
g0
(g1
g2
(lp1027
g0
(g1
g2
(lp1028
(lp1029
S'word: read, index: 5'
p1030
aatp1031
Rp1032
(dp1033
g12
Vdep
p1034
sbag0
(g1
g2
(lp1035
g0
(g1
g2
(lp1036
g0
(g1
g2
(lp1037
(lp1038
S'word: a, index: 6'
p1039
aatp1040
Rp1041
(dp1042
g12
Vdet
p1043
sbatp1044
Rp1045
(dp1046
g12
S'word: book, index: 7'
p1047
sbatp1048
Rp1049
(dp1050
g12
Vdobj
p1051
sbag0
(g1
g2
(lp1052
(lp1053
S'word: I, index: 2'
p1054
aatp1055
Rp1056
(dp1057
g12
Vnsubj
p1058
sbatp1059
Rp1060
(dp1061
g12
S'word: said, index: 3'
p1062
sbatp1063
Rp1064
(dp1065
g12
Vprepc
p1066
sbatp1067
Rp1068
(dp1069
g12
S'word: read, index: 11'
p1070
sbatp1071
Rp1072
(dp1073
g12
Vccomp
p1074
sbag0
(g1
g2
(lp1075
(lp1076
S'word: books, index: 18'
p1077
aatp1078
Rp1079
(dp1080
g12
Vnsubj
p1081
sbag0
(g1
g2
(lp1082
(lp1083
S'word: are, index: 19'
p1084
aatp1085
Rp1086
(dp1087
g12
Vcop
p1088
sbatp1089
Rp1090
(dp1091
g12
S'word: good, index: 20'
p1092
sbatp1093
Rp1094
(dp1095
g12
S'id: 12'
p1096
sbag0
(g1
g2
(lp1097
g0
(g1
g2
(lp1098
g0
(g1
g2
(lp1099
(lp1100
S'word: that, index: 9'
p1101
aatp1102
Rp1103
(dp1104
g12
Vnsubj
p1105
sbag0
(g1
g2
(lp1106
g0
(g1
g2
(lp1107
g0
(g1
g2
(lp1108
(lp1109
S'word: where, index: 11'
p1110
aatp1111
Rp1112
(dp1113
g12
Vadvmod
p1114
sbag0
(g1
g2
(lp1115
(lp1116
S'word: I, index: 12'
p1117
aatp1118
Rp1119
(dp1120
g12
Vnsubj
p1121
sbag0
(g1
g2
(lp1122
(lp1123
S"word: 'd, index: 13"
p1124
aatp1125
Rp1126
(dp1127
g12
Vaux
p1128
sbag0
(g1
g2
(lp1129
g0
(g1
g2
(lp1130
g0
(g1
g2
(lp1131
(lp1132
S'word: to, index: 15'
p1133
aatp1134
Rp1135
(dp1136
g12
Vaux
p1137
sbatp1138
Rp1139
(dp1140
g12
S'word: go, index: 16'
p1141
sbatp1142
Rp1143
(dp1144
g12
Vxcomp
p1145
sbatp1146
Rp1147
(dp1148
g12
S'word: choose, index: 14'
p1149
sbatp1150
Rp1151
(dp1152
g12
Vadvcl
p1153
sbag0
(g1
g2
(lp1154
g0
(g1
g2
(lp1155
g0
(g1
g2
(lp1156
(lp1157
S'word: I, index: 1'
p1158
aatp1159
Rp1160
(dp1161
g12
Vnsubj
p1162
sbag0
(g1
g2
(lp1163
(lp1164
S'word: still, index: 2'
p1165
aatp1166
Rp1167
(dp1168
g12
Vadvmod
p1169
sbag0
(g1
g2
(lp1170
g0
(g1
g2
(lp1171
g0
(g1
g2
(lp1172
(lp1173
S'word: Maine, index: 7'
p1174
aatp1175
Rp1176
(dp1177
g12
Vprep
p1178
sbag0
(g1
g2
(lp1179
(lp1180
S'word: they, index: 4'
p1181
aatp1182
Rp1183
(dp1184
g12
Vnsubj
p1185
sbatp1186
Rp1187
(dp1188
g12
S"word: 're, index: 5"
p1189
sbatp1190
Rp1191
(dp1192
g12
Vccomp
p1193
sbatp1194
Rp1195
(dp1196
g12
S'word: think, index: 3'
p1197
sbatp1198
Rp1199
(dp1200
g12
Vccomp
p1201
sbatp1202
Rp1203
(dp1204
g12
S"word: 's, index: 10"
p1205
sbatp1206
Rp1207
(dp1208
g12
S'id: 13'
p1209
sbag0
(g1
g2
(lp1210
g0
(g1
g2
(lp1211
g0
(g1
g2
(lp1212
g0
(g1
g2
(lp1213
g0
(g1
g2
(lp1214
(lp1215
S'word: the, index: 10'
p1216
aatp1217
Rp1218
(dp1219
g12
Vdet
p1220
sbag0
(g1
g2
(lp1221
(lp1222
S'word: little, index: 11'
p1223
aatp1224
Rp1225
(dp1226
g12
Vamod
p1227
sbag0
(g1
g2
(lp1228
(lp1229
S'word: then, index: 9'
p1230
aatp1231
Rp1232
(dp1233
g12
Vadvmod
p1234
sbatp1235
Rp1236
(dp1237
g12
S'word: boy, index: 12'
p1238
sbatp1239
Rp1240
(dp1241
g12
Vnsubj
p1242
sbag0
(g1
g2
(lp1243
(lp1244
S'word: will, index: 13'
p1245
aatp1246
Rp1247
(dp1248
g12
Vaux
p1249
sbag0
(g1
g2
(lp1250
(lp1251
S'word: it, index: 16'
p1252
aatp1253
Rp1254
(dp1255
g12
Vprep
p1256
sbag0
(g1
g2
(lp1257
g0
(g1
g2
(lp1258
g0
(g1
g2
(lp1259
(lp1260
S'word: Little, index: 1'
p1261
aatp1262
Rp1263
(dp1264
g12
Vamod
p1265
sbatp1266
Rp1267
(dp1268
g12
S'word: girl, index: 2'
p1269
sbatp1270
Rp1271
(dp1272
g12
Vnsubj
p1273
sbag0
(g1
g2
(lp1274
g0
(g1
g2
(lp1275
g0
(g1
g2
(lp1276
g0
(g1
g2
(lp1277
g0
(g1
g2
(lp1278
(lp1279
S'word: kites, index: 35'
p1280
aatp1281
Rp1282
(dp1283
g12
Vnsubjpass
p1284
sbag0
(g1
g2
(lp1285
(lp1286
S'word: get, index: 36'
p1287
aatp1288
Rp1289
(dp1290
g12
Vauxpass
p1291
sbag0
(g1
g2
(lp1292
(lp1293
S'word: trees, index: 39'
p1294
aatp1295
Rp1296
(dp1297
g12
Vprep
p1298
sbatp1299
Rp1300
(dp1301
g12
S'word: caught, index: 37'
p1302
sbatp1303
Rp1304
(dp1305
g12
Vccomp
p1306
sbatp1307
Rp1308
(dp1309
g12
S'word: cause, index: 34'
p1310
sbatp1311
Rp1312
(dp1313
g12
Vdep
p1314
sbag0
(g1
g2
(lp1315
g0
(g1
g2
(lp1316
g0
(g1
g2
(lp1317
g0
(g1
g2
(lp1318
g0
(g1
g2
(lp1319
(lp1320
S'word: your, index: 5'
p1321
aatp1322
Rp1323
(dp1324
g12
Vposs
p1325
sbag0
(g1
g2
(lp1326
(lp1327
S'word: sand, index: 6'
p1328
aatp1329
Rp1330
(dp1331
g12
Vnn
p1332
sbatp1333
Rp1334
(dp1335
g12
S'word: castle, index: 7'
p1336
sbatp1337
Rp1338
(dp1339
g12
Vdobj
p1340
sbatp1341
Rp1342
(dp1343
g12
S'word: build, index: 4'
p1344
sbatp1345
Rp1346
(dp1347
g12
Vccomp
p1348
sbag0
(g1
g2
(lp1349
g0
(g1
g2
(lp1350
g0
(g1
g2
(lp1351
(lp1352
S'word: the, index: 19'
p1353
aatp1354
Rp1355
(dp1356
g12
Vdet
p1357
sbag0
(g1
g2
(lp1358
g0
(g1
g2
(lp1359
g0
(g1
g2
(lp1360
g0
(g1
g2
(lp1361
g0
(g1
g2
(lp1362
(lp1363
S'word: probably, index: 26'
p1364
aatp1365
Rp1366
(dp1367
g12
Vadvmod
p1368
sbag0
(g1
g2
(lp1369
(lp1370
S'word: might, index: 27'
p1371
aatp1372
Rp1373
(dp1374
g12
Vaux
p1375
sbag0
(g1
g2
(lp1376
(lp1377
S'word: get, index: 28'
p1378
aatp1379
Rp1380
(dp1381
g12
Vauxpass
p1382
sbag0
(g1
g2
(lp1383
g0
(g1
g2
(lp1384
g0
(g1
g2
(lp1385
(lp1386
S'word: the, index: 31'
p1387
aatp1388
Rp1389
(dp1390
g12
Vdet
p1391
sbatp1392
Rp1393
(dp1394
g12
S'word: tree, index: 32'
p1395
sbatp1396
Rp1397
(dp1398
g12
Vprep
p1399
sbag0
(g1
g2
(lp1400
(lp1401
S'word: which, index: 25'
p1402
aatp1403
Rp1404
(dp1405
g12
Vnsubjpass
p1406
sbatp1407
Rp1408
(dp1409
g12
S'word: caught, index: 29'
p1410
sbatp1411
Rp1412
(dp1413
g12
Vrcmod
p1414
sbag0
(g1
g2
(lp1415
(lp1416
S'word: the, index: 22'
p1417
aatp1418
Rp1419
(dp1420
g12
Vdet
p1421
sbatp1422
Rp1423
(dp1424
g12
S'word: kite, index: 23'
p1425
sbatp1426
Rp1427
(dp1428
g12
Vconj
p1429
sbatp1430
Rp1431
(dp1432
g12
S'word: dog, index: 20'
p1433
sbatp1434
Rp1435
(dp1436
g12
Vprep
p1437
sbag0
(g1
g2
(lp1438
g1423
atp1439
Rp1440
(dp1441
g12
Vprep
p1442
sbatp1443
Rp1444
(dp1445
g12
S'word: run, index: 14'
p1446
sbatp1447
Rp1448
(dp1449
g12
S'id: 14'
p1450
sbag0
(g1
g2
(lp1451
g0
(g1
g2
(lp1452
g0
(g1
g2
(lp1453
(lp1454
S'word: then, index: 2'
p1455
aatp1456
Rp1457
(dp1458
g12
Vadvmod
p1459
sbag0
(g1
g2
(lp1460
g0
(g1
g2
(lp1461
g0
(g1
g2
(lp1462
(lp1463
S'word: the, index: 3'
p1464
aatp1465
Rp1466
(dp1467
g12
Vdet
p1468
sbatp1469
Rp1470
(dp1471
g12
S'word: dad, index: 4'
p1472
sbatp1473
Rp1474
(dp1475
g12
Vnsubj
p1476
sbag0
(g1
g2
(lp1477
(lp1478
S'word: can, index: 5'
p1479
aatp1480
Rp1481
(dp1482
g12
Vaux
p1483
sbag0
(g1
g2
(lp1484
(lp1485
S'word: up, index: 7'
p1486
aatp1487
Rp1488
(dp1489
g12
Vprt
p1490
sbag0
(g1
g2
(lp1491
g0
(g1
g2
(lp1492
g0
(g1
g2
(lp1493
(lp1494
S'word: the, index: 8'
p1495
aatp1496
Rp1497
(dp1498
g12
Vdet
p1499
sbatp1500
Rp1501
(dp1502
g12
S'word: tree, index: 9'
p1503
sbatp1504
Rp1505
(dp1506
g12
Vdobj
p1507
sbag0
(g1
g2
(lp1508
g0
(g1
g2
(lp1509
g0
(g1
g2
(lp1510
g0
(g1
g2
(lp1511
g0
(g1
g2
(lp1512
(lp1513
S'word: the, index: 12'
p1514
aatp1515
Rp1516
(dp1517
g12
Vdet
p1518
sbatp1519
Rp1520
(dp1521
g12
S'word: kite, index: 13'
p1522
sbatp1523
Rp1524
(dp1525
g12
Vdobj
p1526
sbag0
(g1
g2
(lp1527
g1470
atp1528
Rp1529
(dp1530
g12
Vnsubj
p1531
sbatp1532
Rp1533
(dp1534
g12
S'word: retrieve, index: 11'
p1535
sbatp1536
Rp1537
(dp1538
g12
Vconj
p1539
sbatp1540
Rp1541
(dp1542
g12
S'word: climb, index: 6'
p1543
sbatp1544
Rp1545
(dp1546
g12
S'id: 15'
p1547
sbag0
(g1
g2
(lp1548
g0
(g1
g2
(lp1549
g0
(g1
g2
(lp1550
(lp1551
S'word: And, index: 1'
p1552
aatp1553
Rp1554
(dp1555
g12
Vcc
p1556
sbag0
(g1
g2
(lp1557
(lp1558
S'word: definitely, index: 2'
p1559
aatp1560
Rp1561
(dp1562
g12
Vadvmod
p1563
sbag0
(g1
g2
(lp1564
(lp1565
S'word: that, index: 23'
p1566
aatp1567
Rp1568
(dp1569
g12
Vnsubj
p1570
sbag0
(g1
g2
(lp1571
(lp1572
S"word: 's, index: 24"
p1573
aatp1574
Rp1575
(dp1576
g12
Vcop
p1577
sbag0
(g1
g2
(lp1578
g0
(g1
g2
(lp1579
g0
(g1
g2
(lp1580
(lp1581
S'word: not, index: 3'
p1582
aatp1583
Rp1584
(dp1585
g12
Vdep
p1586
sbag0
(g1
g2
(lp1587
g0
(g1
g2
(lp1588
g0
(g1
g2
(lp1589
(lp1590
S'word: out, index: 5'
p1591
aatp1592
Rp1593
(dp1594
g12
Vprt
p1595
sbatp1596
Rp1597
(dp1598
g12
S'word: fall, index: 4'
p1599
sbatp1600
Rp1601
(dp1602
g12
Vccomp
p1603
sbag0
(g1
g2
(lp1604
g0
(g1
g2
(lp1605
g0
(g1
g2
(lp1606
(lp1607
S'word: because, index: 7'
p1608
aatp1609
Rp1610
(dp1611
g12
Vmark
p1612
sbatp1613
Rp1614
(dp1615
g12
S'word: then, index: 8'
p1616
sbatp1617
Rp1618
(dp1619
g12
Vadvcl
p1620
sbag0
(g1
g2
(lp1621
(lp1622
S'word: we, index: 10'
p1623
aatp1624
Rp1625
(dp1626
g12
Vnsubj
p1627
sbag0
(g1
g2
(lp1628
(lp1629
S'word: all, index: 11'
p1630
aatp1631
Rp1632
(dp1633
g12
Vadvmod
p1634
sbag0
(g1
g2
(lp1635
g0
(g1
g2
(lp1636
g0
(g1
g2
(lp1637
g0
(g1
g2
(lp1638
g0
(g1
g2
(lp1639
(lp1640
S'word: he, index: 16'
p1641
aatp1642
Rp1643
(dp1644
g12
Vnsubj
p1645
sbag0
(g1
g2
(lp1646
g0
(g1
g2
(lp1647
g0
(g1
g2
(lp1648
(lp1649
S'word: the, index: 20'
p1650
aatp1651
Rp1652
(dp1653
g12
Vdet
p1654
sbatp1655
Rp1656
(dp1657
g12
S'word: tree, index: 21'
p1658
sbatp1659
Rp1660
(dp1661
g12
Vprep
p1662
sbag0
(g1
g2
(lp1663
(lp1664
S'word: when, index: 15'
p1665
aatp1666
Rp1667
(dp1668
g12
Vadvmod
p1669
sbatp1670
Rp1671
(dp1672
g12
S'word: falls, index: 17'
p1673
sbatp1674
Rp1675
(dp1676
g12
Vadvcl
p1677
sbag0
(g1
g2
(lp1678
(lp1679
S'word: what, index: 13'
p1680
aatp1681
Rp1682
(dp1683
g12
Vnsubj
p1684
sbatp1685
Rp1686
(dp1687
g12
S'word: happens, index: 14'
p1688
sbatp1689
Rp1690
(dp1691
g12
Vccomp
p1692
sbatp1693
Rp1694
(dp1695
g12
S'word: know, index: 12'
p1696
sbatp1697
Rp1698
(dp1699
g12
Vadvcl
p1700
sbatp1701
Rp1702
(dp1703
g12
S'word: bad, index: 25'
p1704
sbatp1705
Rp1706
(dp1707
g12
S'id: 16'
p1708
sbag0
(g1
g2
(lp1709
g0
(g1
g2
(lp1710
g0
(g1
g2
(lp1711
(lp1712
S'word: Probably, index: 1'
p1713
aatp1714
Rp1715
(dp1716
g12
Vdep
p1717
sbag0
(g1
g2
(lp1718
(lp1719
S'word: white, index: 2'
p1720
aatp1721
Rp1722
(dp1723
g12
Vamod
p1724
sbatp1725
Rp1726
(dp1727
g12
S'word: wine, index: 3'
p1728
sbatp1729
Rp1730
(dp1731
g12
S'id: 17'
p1732
sbag0
(g1
g2
(lp1733
g0
(g1
g2
(lp1734
g0
(g1
g2
(lp1735
g0
(g1
g2
(lp1736
g0
(g1
g2
(lp1737
(lp1738
S'word: White, index: 1'
p1739
aatp1740
Rp1741
(dp1742
g12
Vnn
p1743
sbatp1744
Rp1745
(dp1746
g12
S'word: wine, index: 2'
p1747
sbatp1748
Rp1749
(dp1750
g12
Vnsubj
p1751
sbag0
(g1
g2
(lp1752
(lp1753
S'word: is, index: 3'
p1754
aatp1755
Rp1756
(dp1757
g12
Vcop
p1758
sbag0
(g1
g2
(lp1759
(lp1760
S'word: the, index: 4'
p1761
aatp1762
Rp1763
(dp1764
g12
Vdet
p1765
sbatp1766
Rp1767
(dp1768
g12
S'word: best, index: 5'
p1769
sbatp1770
Rp1771
(dp1772
g12
S'id: 18'
p1773
sbag0
(g1
g2
(lp1774
g0
(g1
g2
(lp1775
g0
(g1
g2
(lp1776
g0
(g1
g2
(lp1777
g0
(g1
g2
(lp1778
(lp1779
S'word: it, index: 10'
p1780
aatp1781
Rp1782
(dp1783
g12
Vnsubj
p1784
sbag0
(g1
g2
(lp1785
(lp1786
S'word: could, index: 11'
p1787
aatp1788
Rp1789
(dp1790
g12
Vaux
p1791
sbag0
(g1
g2
(lp1792
(lp1793
S'word: be, index: 12'
p1794
aatp1795
Rp1796
(dp1797
g12
Vcop
p1798
sbatp1799
Rp1800
(dp1801
g12
S'word: champagne, index: 13'
p1802
sbatp1803
Rp1804
(dp1805
g12
Vconj
p1806
sbag0
(g1
g2
(lp1807
(lp1808
S'word: Might, index: 1'
p1809
aatp1810
Rp1811
(dp1812
g12
Vnsubj
p1813
sbag0
(g1
g2
(lp1814
g0
(g1
g2
(lp1815
g0
(g1
g2
(lp1816
g0
(g1
g2
(lp1817
g0
(g1
g2
(lp1818
g0
(g1
g2
(lp1819
g0
(g1
g2
(lp1820
(lp1821
S'word: champagne, index: 7'
p1822
aatp1823
Rp1824
(dp1825
g12
Vdep
p1826
sbatp1827
Rp1828
(dp1829
g12
S'word: not, index: 6'
p1830
sbatp1831
Rp1832
(dp1833
g12
Vprep
p1834
sbatp1835
Rp1836
(dp1837
g12
S'word: its, index: 5'
p1838
sbatp1839
Rp1840
(dp1841
g12
Vdep
p1842
sbatp1843
Rp1844
(dp1845
g12
S'word: no, index: 4'
p1846
sbatp1847
Rp1848
(dp1849
g12
Vdobj
p1850
sbatp1851
Rp1852
(dp1853
g12
S'word: be, index: 2'
p1854
sbatp1855
Rp1856
(dp1857
g12
S'id: 19'
p1858
sbag0
(g1
g2
(lp1859
g0
(g1
g2
(lp1860
g0
(g1
g2
(lp1861
g0
(g1
g2
(lp1862
g0
(g1
g2
(lp1863
g0
(g1
g2
(lp1864
g0
(g1
g2
(lp1865
(lp1866
S'word: the, index: 14'
p1867
aatp1868
Rp1869
(dp1870
g12
Vdet
p1871
sbag0
(g1
g2
(lp1872
g0
(g1
g2
(lp1873
g0
(g1
g2
(lp1874
(lp1875
S'word: some, index: 17'
p1876
aatp1877
Rp1878
(dp1879
g12
Vdet
p1880
sbatp1881
Rp1882
(dp1883
g12
S'word: plates, index: 18'
p1884
sbatp1885
Rp1886
(dp1887
g12
Vprep
p1888
sbatp1889
Rp1890
(dp1891
g12
S'word: basket, index: 15'
p1892
sbatp1893
Rp1894
(dp1895
g12
Vprep
p1896
sbag0
(g1
g2
(lp1897
(lp1898
S'word: potato, index: 11'
p1899
aatp1900
Rp1901
(dp1902
g12
Vnn
p1903
sbatp1904
Rp1905
(dp1906
g12
S'word: salad, index: 12'
p1907
sbatp1908
Rp1909
(dp1910
g12
Vnsubj
p1911
sbag0
(g1
g2
(lp1912
(lp1913
S'word: And, index: 1'
p1914
aatp1915
Rp1916
(dp1917
g12
Vcc
p1918
sbag0
(g1
g2
(lp1919
(lp1920
S'word: there, index: 2'
p1921
aatp1922
Rp1923
(dp1924
g12
Vexpl
p1925
sbag0
(g1
g2
(lp1926
(lp1927
S'word: probably, index: 4'
p1928
aatp1929
Rp1930
(dp1931
g12
Vadvmod
p1932
sbag0
(g1
g2
(lp1933
g0
(g1
g2
(lp1934
g0
(g1
g2
(lp1935
g1905
atp1936
Rp1937
(dp1938
g12
Vconj
p1939
sbag0
(g1
g2
(lp1940
(lp1941
S'word: biscuits, index: 8'
p1942
aatp1943
Rp1944
(dp1945
g12
Vconj
p1946
sbatp1947
Rp1948
(dp1949
g12
S'word: chicken, index: 5'
p1950
sbatp1951
Rp1952
(dp1953
g12
Vnsubj
p1954
sbag0
(g1
g2
(lp1955
(lp1956
S'word: biscuits, index: 8'
p1957
aatp1958
Rp1959
(dp1960
g12
Vnsubj
p1961
sbatp1962
Rp1963
(dp1964
g12
S"word: 's, index: 3"
p1965
sbatp1966
Rp1967
(dp1968
g12
S'id: 20'
p1969
sbatp1970
Rp1971
(dp1972
g12
S'sentences'
p1973
sb.