ccopy_reg
_reconstructor
p0
(cnltk.tree
Tree
p1
c__builtin__
list
p2
(lp3
g0
(g1
g2
(lp4
g0
(g1
g2
(lp5
g0
(g1
g2
(lp6
g0
(g1
g2
(lp7
g0
(g1
g2
(lp8
Vthe
p9
atp10
Rp11
(dp12
S'_label'
p13
VDT
p14
sbag0
(g1
g2
(lp15
Vwoman
p16
atp17
Rp18
(dp19
g13
VNN
p20
sbag0
(g1
g2
(lp21
V's
p22
atp23
Rp24
(dp25
g13
VPOS
p26
sbatp27
Rp28
(dp29
g13
VNP
p30
sbag0
(g1
g2
(lp31
g0
(g1
g2
(lp32
Vwashing
p33
atp34
Rp35
(dp36
g13
VVBG
p37
sbag0
(g1
g2
(lp38
g0
(g1
g2
(lp39
Vthe
p40
atp41
Rp42
(dp43
g13
VDT
p44
sbag0
(g1
g2
(lp45
Vdishes
p46
atp47
Rp48
(dp49
g13
VNNS
p50
sbatp51
Rp52
(dp53
g13
VNP
p54
sbatp55
Rp56
(dp57
g13
VVP
p58
sbatp59
Rp60
(dp61
g13
VS
p62
sbag0
(g1
g2
(lp63
V,
p64
atp65
Rp66
(dp67
g13
V,
p68
sbag0
(g1
g2
(lp69
g0
(g1
g2
(lp70
Vwhile
p71
atp72
Rp73
(dp74
g13
VIN
p75
sbag0
(g1
g2
(lp76
Vthe
p77
atp78
Rp79
(dp80
g13
VDT
p81
sbatp82
Rp83
(dp84
g13
VADVP
p85
sbag0
(g1
g2
(lp86
V,
p87
atp88
Rp89
(dp90
g13
V,
p91
sbag0
(g1
g2
(lp92
g0
(g1
g2
(lp93
Vwhile
p94
atp95
Rp96
(dp97
g13
VIN
p98
sbag0
(g1
g2
(lp99
g0
(g1
g2
(lp100
g0
(g1
g2
(lp101
Vtheir
p102
atp103
Rp104
(dp105
g13
VPRP$
p106
sbag0
(g1
g2
(lp107
Vson
p108
atp109
Rp110
(dp111
g13
VNN
p112
sbatp113
Rp114
(dp115
g13
VNP
p116
sbag0
(g1
g2
(lp117
g0
(g1
g2
(lp118
Vis
p119
atp120
Rp121
(dp122
g13
VVBZ
p123
sbag0
(g1
g2
(lp124
g0
(g1
g2
(lp125
Vtipping
p126
atp127
Rp128
(dp129
g13
VVBG
p130
sbag0
(g1
g2
(lp131
g0
(g1
g2
(lp132
Vin
p133
atp134
Rp135
(dp136
g13
VIN
p137
sbag0
(g1
g2
(lp138
g0
(g1
g2
(lp139
Vthe
p140
atp141
Rp142
(dp143
g13
VDT
p144
sbag0
(g1
g2
(lp145
Vchair
p146
atp147
Rp148
(dp149
g13
VNN
p150
sbatp151
Rp152
(dp153
g13
VNP
p154
sbatp155
Rp156
(dp157
g13
VPP
p158
sbag0
(g1
g2
(lp159
V,
p160
atp161
Rp162
(dp163
g13
V,
p164
sbag0
(g1
g2
(lp165
g0
(g1
g2
(lp166
g0
(g1
g2
(lp167
Vgetting
p168
atp169
Rp170
(dp171
g13
VVBG
p172
sbag0
(g1
g2
(lp173
g0
(g1
g2
(lp174
Vcookies
p175
atp176
Rp177
(dp178
g13
VNNS
p179
sbatp180
Rp181
(dp182
g13
VNP
p183
sbatp184
Rp185
(dp186
g13
VVP
p187
sbatp188
Rp189
(dp190
g13
VS
p191
sbatp192
Rp193
(dp194
g13
VVP
p195
sbatp196
Rp197
(dp198
g13
VVP
p199
sbatp200
Rp201
(dp202
g13
VS
p203
sbatp204
Rp205
(dp206
g13
VSBAR
p207
sbag0
(g1
g2
(lp208
V.
p209
atp210
Rp211
(dp212
g13
V.
p213
sbatp214
Rp215
(dp216
g13
VS
p217
sbatp218
Rp219
(dp220
g13
S'id: 0'
p221
sbag0
(g1
g2
(lp222
g0
(g1
g2
(lp223
g0
(g1
g2
(lp224
VAnd
p225
atp226
Rp227
(dp228
g13
VCC
p229
sbag0
(g1
g2
(lp230
g0
(g1
g2
(lp231
Vthe
p232
atp233
Rp234
(dp235
g13
VDT
p236
sbag0
(g1
g2
(lp237
Vgirl
p238
atp239
Rp240
(dp241
g13
VNN
p242
sbatp243
Rp244
(dp245
g13
VNP
p246
sbag0
(g1
g2
(lp247
g0
(g1
g2
(lp248
Vis
p249
atp250
Rp251
(dp252
g13
VVBZ
p253
sbag0
(g1
g2
(lp254
g0
(g1
g2
(lp255
Vsnickering
p256
atp257
Rp258
(dp259
g13
VVBG
p260
sbag0
(g1
g2
(lp261
g0
(g1
g2
(lp262
Vat
p263
atp264
Rp265
(dp266
g13
VIN
p267
sbag0
(g1
g2
(lp268
g0
(g1
g2
(lp269
Vhim
p270
atp271
Rp272
(dp273
g13
VPRP
p274
sbatp275
Rp276
(dp277
g13
VNP
p278
sbatp279
Rp280
(dp281
g13
VPP
p282
sbatp283
Rp284
(dp285
g13
VVP
p286
sbatp287
Rp288
(dp289
g13
VVP
p290
sbag0
(g1
g2
(lp291
V.
p292
atp293
Rp294
(dp295
g13
V.
p296
sbatp297
Rp298
(dp299
g13
VS
p300
sbatp301
Rp302
(dp303
g13
S'id: 1'
p304
sbag0
(g1
g2
(lp305
g0
(g1
g2
(lp306
g0
(g1
g2
(lp307
g0
(g1
g2
(lp308
g0
(g1
g2
(lp309
VThe
p310
atp311
Rp312
(dp313
g13
VDT
p314
sbag0
(g1
g2
(lp315
Vmother
p316
atp317
Rp318
(dp319
g13
VNN
p320
sbag0
(g1
g2
(lp321
V's
p322
atp323
Rp324
(dp325
g13
VPOS
p326
sbatp327
Rp328
(dp329
g13
VNP
p330
sbatp331
Rp332
(dp333
g13
VS
p334
sbag0
(g1
g2
(lp335
V,
p336
atp337
Rp338
(dp339
g13
V,
p340
sbag0
(g1
g2
(lp341
g0
(g1
g2
(lp342
Vthe
p343
atp344
Rp345
(dp346
g13
VDT
p347
sbag0
(g1
g2
(lp348
Vdishes
p349
atp350
Rp351
(dp352
g13
VNNS
p353
sbatp354
Rp355
(dp356
g13
VNP
p357
sbag0
(g1
g2
(lp358
g0
(g1
g2
(lp359
Vis
p360
atp361
Rp362
(dp363
g13
VVBZ
p364
sbag0
(g1
g2
(lp365
g0
(g1
g2
(lp366
Voverflowing
p367
atp368
Rp369
(dp370
g13
VVBG
p371
sbatp372
Rp373
(dp374
g13
VVP
p375
sbatp376
Rp377
(dp378
g13
VVP
p379
sbag0
(g1
g2
(lp380
V.
p381
atp382
Rp383
(dp384
g13
V.
p385
sbatp386
Rp387
(dp388
g13
VS
p389
sbatp390
Rp391
(dp392
g13
S'id: 2'
p393
sbag0
(g1
g2
(lp394
g0
(g1
g2
(lp395
g0
(g1
g2
(lp396
g0
(g1
g2
(lp397
VThere
p398
atp399
Rp400
(dp401
g13
VEX
p402
sbatp403
Rp404
(dp405
g13
VNP
p406
sbag0
(g1
g2
(lp407
g0
(g1
g2
(lp408
V's
p409
atp410
Rp411
(dp412
g13
VVBZ
p413
sbag0
(g1
g2
(lp414
g0
(g1
g2
(lp415
g0
(g1
g2
(lp416
Va
p417
atp418
Rp419
(dp420
g13
VDT
p421
sbatp422
Rp423
(dp424
g13
VNP
p425
sbag0
(g1
g2
(lp426
V,
p427
atp428
Rp429
(dp430
g13
V,
p431
sbag0
(g1
g2
(lp432
g0
(g1
g2
(lp433
g0
(g1
g2
(lp434
Va
p435
atp436
Rp437
(dp438
g13
VDT
p439
sbag0
(g1
g2
(lp440
Vwindow
p441
atp442
Rp443
(dp444
g13
VNN
p445
sbatp446
Rp447
(dp448
g13
VNP
p449
sbag0
(g1
g2
(lp450
g0
(g1
g2
(lp451
Vwith
p452
atp453
Rp454
(dp455
g13
VIN
p456
sbag0
(g1
g2
(lp457
g0
(g1
g2
(lp458
Vcurtains
p459
atp460
Rp461
(dp462
g13
VNNS
p463
sbatp464
Rp465
(dp466
g13
VNP
p467
sbatp468
Rp469
(dp470
g13
VPP
p471
sbatp472
Rp473
(dp474
g13
VNP
p475
sbag0
(g1
g2
(lp476
V,
p477
atp478
Rp479
(dp480
g13
V,
p481
sbag0
(g1
g2
(lp482
g0
(g1
g2
(lp483
Vtwo
p484
atp485
Rp486
(dp487
g13
VCD
p488
sbag0
(g1
g2
(lp489
Vplates
p490
atp491
Rp492
(dp493
g13
VNNS
p494
sbatp495
Rp496
(dp497
g13
VNP
p498
sbag0
(g1
g2
(lp499
V,
p500
atp501
Rp502
(dp503
g13
V,
p504
sbag0
(g1
g2
(lp505
g0
(g1
g2
(lp506
Vone
p507
atp508
Rp509
(dp510
g13
VCD
p511
sbag0
(g1
g2
(lp512
Vplate
p513
atp514
Rp515
(dp516
g13
VNN
p517
sbatp518
Rp519
(dp520
g13
VNP
p521
sbag0
(g1
g2
(lp522
V,
p523
atp524
Rp525
(dp526
g13
V,
p527
sbag0
(g1
g2
(lp528
Vand
p529
atp530
Rp531
(dp532
g13
VCC
p533
sbag0
(g1
g2
(lp534
g0
(g1
g2
(lp535
g0
(g1
g2
(lp536
Vtwo
p537
atp538
Rp539
(dp540
g13
VCD
p541
sbatp542
Rp543
(dp544
g13
VNP
p545
sbag0
(g1
g2
(lp546
g0
(g1
g2
(lp547
Vbowls
p548
atp549
Rp550
(dp551
g13
VVBZ
p552
sbatp553
Rp554
(dp555
g13
VVP
p556
sbatp557
Rp558
(dp559
g13
VNP
p560
sbatp561
Rp562
(dp563
g13
VNP
p564
sbatp565
Rp566
(dp567
g13
VVP
p568
sbag0
(g1
g2
(lp569
V.
p570
atp571
Rp572
(dp573
g13
V.
p574
sbatp575
Rp576
(dp577
g13
VS
p578
sbatp579
Rp580
(dp581
g13
S'id: 3'
p582
sbag0
(g1
g2
(lp583
g0
(g1
g2
(lp584
g0
(g1
g2
(lp585
g0
(g1
g2
(lp586
g0
(g1
g2
(lp587
VShe
p588
atp589
Rp590
(dp591
g13
VPRP
p592
sbatp593
Rp594
(dp595
g13
VNP
p596
sbag0
(g1
g2
(lp597
g0
(g1
g2
(lp598
V's
p599
atp600
Rp601
(dp602
g13
VVBZ
p603
sbag0
(g1
g2
(lp604
V,
p605
atp606
Rp607
(dp608
g13
V,
p609
sbag0
(g1
g2
(lp610
g0
(g1
g2
(lp611
g0
(g1
g2
(lp612
g0
(g1
g2
(lp613
Vshe
p614
atp615
Rp616
(dp617
g13
VPRP
p618
sbatp619
Rp620
(dp621
g13
VNP
p622
sbag0
(g1
g2
(lp623
g0
(g1
g2
(lp624
V's
p625
atp626
Rp627
(dp628
g13
VVBZ
p629
sbag0
(g1
g2
(lp630
g0
(g1
g2
(lp631
Vdrying
p632
atp633
Rp634
(dp635
g13
VVBG
p636
sbag0
(g1
g2
(lp637
g0
(g1
g2
(lp638
Vthe
p639
atp640
Rp641
(dp642
g13
VDT
p643
sbag0
(g1
g2
(lp644
Vdishes
p645
atp646
Rp647
(dp648
g13
VNNS
p649
sbatp650
Rp651
(dp652
g13
VNP
p653
sbatp654
Rp655
(dp656
g13
VVP
p657
sbatp658
Rp659
(dp660
g13
VVP
p661
sbatp662
Rp663
(dp664
g13
VS
p665
sbatp666
Rp667
(dp668
g13
VSBAR
p669
sbatp670
Rp671
(dp672
g13
VVP
p673
sbatp674
Rp675
(dp676
g13
VS
p677
sbag0
(g1
g2
(lp678
V,
p679
atp680
Rp681
(dp682
g13
V,
p683
sbag0
(g1
g2
(lp684
Vbut
p685
atp686
Rp687
(dp688
g13
VCC
p689
sbag0
(g1
g2
(lp690
g0
(g1
g2
(lp691
g0
(g1
g2
(lp692
Vshe
p693
atp694
Rp695
(dp696
g13
VPRP
p697
sbatp698
Rp699
(dp700
g13
VNP
p701
sbag0
(g1
g2
(lp702
g0
(g1
g2
(lp703
Vleft
p704
atp705
Rp706
(dp707
g13
VVBD
p708
sbag0
(g1
g2
(lp709
g0
(g1
g2
(lp710
Vthe
p711
atp712
Rp713
(dp714
g13
VDT
p715
sbag0
(g1
g2
(lp716
Vwater
p717
atp718
Rp719
(dp720
g13
VNN
p721
sbag0
(g1
g2
(lp722
Vrunning
p723
atp724
Rp725
(dp726
g13
VNN
p727
sbatp728
Rp729
(dp730
g13
VNP
p731
sbatp732
Rp733
(dp734
g13
VVP
p735
sbatp736
Rp737
(dp738
g13
VS
p739
sbag0
(g1
g2
(lp740
V.
p741
atp742
Rp743
(dp744
g13
V.
p745
sbatp746
Rp747
(dp748
g13
VS
p749
sbatp750
Rp751
(dp752
g13
S'id: 4'
p753
sbag0
(g1
g2
(lp754
g0
(g1
g2
(lp755
g0
(g1
g2
(lp756
g0
(g1
g2
(lp757
VThere
p758
atp759
Rp760
(dp761
g13
VEX
p762
sbatp763
Rp764
(dp765
g13
VNP
p766
sbag0
(g1
g2
(lp767
g0
(g1
g2
(lp768
V's
p769
atp770
Rp771
(dp772
g13
VVBZ
p773
sbag0
(g1
g2
(lp774
g0
(g1
g2
(lp775
g0
(g1
g2
(lp776
Va
p777
atp778
Rp779
(dp780
g13
VDT
p781
sbag0
(g1
g2
(lp782
Vbig
p783
atp784
Rp785
(dp786
g13
VJJ
p787
sbag0
(g1
g2
(lp788
Vpuddle
p789
atp790
Rp791
(dp792
g13
VNN
p793
sbatp794
Rp795
(dp796
g13
VNP
p797
sbag0
(g1
g2
(lp798
g0
(g1
g2
(lp799
Von
p800
atp801
Rp802
(dp803
g13
VIN
p804
sbag0
(g1
g2
(lp805
g0
(g1
g2
(lp806
Vthe
p807
atp808
Rp809
(dp810
g13
VDT
p811
sbag0
(g1
g2
(lp812
Vfloor
p813
atp814
Rp815
(dp816
g13
VNN
p817
sbatp818
Rp819
(dp820
g13
VNP
p821
sbatp822
Rp823
(dp824
g13
VPP
p825
sbatp826
Rp827
(dp828
g13
VNP
p829
sbatp830
Rp831
(dp832
g13
VVP
p833
sbag0
(g1
g2
(lp834
V.
p835
atp836
Rp837
(dp838
g13
V.
p839
sbatp840
Rp841
(dp842
g13
VS
p843
sbatp844
Rp845
(dp846
g13
S'id: 5'
p847
sbag0
(g1
g2
(lp848
g0
(g1
g2
(lp849
g0
(g1
g2
(lp850
g0
(g1
g2
(lp851
VLet
p852
atp853
Rp854
(dp855
g13
VVB
p856
sbag0
(g1
g2
(lp857
g0
(g1
g2
(lp858
g0
(g1
g2
(lp859
V's
p860
atp861
Rp862
(dp863
g13
VPRP
p864
sbatp865
Rp866
(dp867
g13
VNP
p868
sbag0
(g1
g2
(lp869
g0
(g1
g2
(lp870
Vsee
p871
atp872
Rp873
(dp874
g13
VVB
p875
sbag0
(g1
g2
(lp876
g0
(g1
g2
(lp877
g0
(g1
g2
(lp878
Vthe
p879
atp880
Rp881
(dp882
g13
VDT
p883
sbatp884
Rp885
(dp886
g13
VNP
p887
sbag0
(g1
g2
(lp888
V,
p889
atp890
Rp891
(dp892
g13
V,
p893
sbag0
(g1
g2
(lp894
g0
(g1
g2
(lp895
Vthe
p896
atp897
Rp898
(dp899
g13
VDT
p900
sbag0
(g1
g2
(lp901
Vkitch
p902
atp903
Rp904
(dp905
g13
VNN
p906
sbatp907
Rp908
(dp909
g13
VNP
p910
sbag0
(g1
g2
(lp911
V,
p912
atp913
Rp914
(dp915
g13
V,
p916
sbag0
(g1
g2
(lp917
g0
(g1
g2
(lp918
g0
(g1
g2
(lp919
Vthe
p920
atp921
Rp922
(dp923
g13
VDT
p924
sbag0
(g1
g2
(lp925
Vkitchen
p926
atp927
Rp928
(dp929
g13
VNN
p930
sbag0
(g1
g2
(lp931
V's
p932
atp933
Rp934
(dp935
g13
VPOS
p936
sbatp937
Rp938
(dp939
g13
VNP
p940
sbag0
(g1
g2
(lp941
g0
(g1
g2
(lp942
Vfairly
p943
atp944
Rp945
(dp946
g13
VRB
p947
sbag0
(g1
g2
(lp948
Vgood
p949
atp950
Rp951
(dp952
g13
VJJ
p953
sbatp954
Rp955
(dp956
g13
VADJP
p957
sbag0
(g1
g2
(lp958
Vsize
p959
atp960
Rp961
(dp962
g13
VNN
p963
sbatp964
Rp965
(dp966
g13
VNP
p967
sbatp968
Rp969
(dp970
g13
VNP
p971
sbatp972
Rp973
(dp974
g13
VVP
p975
sbatp976
Rp977
(dp978
g13
VS
p979
sbatp980
Rp981
(dp982
g13
VVP
p983
sbag0
(g1
g2
(lp984
V.
p985
atp986
Rp987
(dp988
g13
V.
p989
sbatp990
Rp991
(dp992
g13
VS
p993
sbatp994
Rp995
(dp996
g13
S'id: 6'
p997
sbag0
(g1
g2
(lp998
g0
(g1
g2
(lp999
g0
(g1
g2
(lp1000
g0
(g1
g2
(lp1001
VIt
p1002
atp1003
Rp1004
(dp1005
g13
VPRP
p1006
sbatp1007
Rp1008
(dp1009
g13
VNP
p1010
sbag0
(g1
g2
(lp1011
g0
(g1
g2
(lp1012
V's
p1013
atp1014
Rp1015
(dp1016
g13
VVBZ
p1017
sbag0
(g1
g2
(lp1018
g0
(g1
g2
(lp1019
Vgot
p1020
atp1021
Rp1022
(dp1023
g13
VVBN
p1024
sbag0
(g1
g2
(lp1025
g0
(g1
g2
(lp1026
g0
(g1
g2
(lp1027
Vtwo
p1028
atp1029
Rp1030
(dp1031
g13
VCD
p1032
sbatp1033
Rp1034
(dp1035
g13
VNP
p1036
sbag0
(g1
g2
(lp1037
V,
p1038
atp1039
Rp1040
(dp1041
g13
V,
p1042
sbag0
(g1
g2
(lp1043
g0
(g1
g2
(lp1044
Vtwo
p1045
atp1046
Rp1047
(dp1048
g13
VCD
p1049
sbag0
(g1
g2
(lp1050
Vpluh
p1051
atp1052
Rp1053
(dp1054
g13
VNN
p1055
sbatp1056
Rp1057
(dp1058
g13
VNP
p1059
sbag0
(g1
g2
(lp1060
V,
p1061
atp1062
Rp1063
(dp1064
g13
V,
p1065
sbag0
(g1
g2
(lp1066
g0
(g1
g2
(lp1067
Vtwo
p1068
atp1069
Rp1070
(dp1071
g13
VCD
p1072
sbatp1073
Rp1074
(dp1075
g13
VNP
p1076
sbag0
(g1
g2
(lp1077
V,
p1078
atp1079
Rp1080
(dp1081
g13
V,
p1082
sbag0
(g1
g2
(lp1083
g0
(g1
g2
(lp1084
Vtwo
p1085
atp1086
Rp1087
(dp1088
g13
VCD
p1089
sbag0
(g1
g2
(lp1090
Vdruh
p1091
atp1092
Rp1093
(dp1094
g13
VNN
p1095
sbatp1096
Rp1097
(dp1098
g13
VNP
p1099
sbag0
(g1
g2
(lp1100
V,
p1101
atp1102
Rp1103
(dp1104
g13
V,
p1105
sbag0
(g1
g2
(lp1106
g0
(g1
g2
(lp1107
Vtwo
p1108
atp1109
Rp1110
(dp1111
g13
VCD
p1112
sbag0
(g1
g2
(lp1113
Vcabinets
p1114
atp1115
Rp1116
(dp1117
g13
VNNS
p1118
sbatp1119
Rp1120
(dp1121
g13
VNP
p1122
sbatp1123
Rp1124
(dp1125
g13
VNP
p1126
sbatp1127
Rp1128
(dp1129
g13
VVP
p1130
sbatp1131
Rp1132
(dp1133
g13
VVP
p1134
sbag0
(g1
g2
(lp1135
V.
p1136
atp1137
Rp1138
(dp1139
g13
V.
p1140
sbatp1141
Rp1142
(dp1143
g13
VS
p1144
sbatp1145
Rp1146
(dp1147
g13
S'id: 7'
p1148
sbag0
(g1
g2
(lp1149
g0
(g1
g2
(lp1150
g0
(g1
g2
(lp1151
VAnd
p1152
atp1153
Rp1154
(dp1155
g13
VCC
p1156
sbag0
(g1
g2
(lp1157
g0
(g1
g2
(lp1158
VI
p1159
atp1160
Rp1161
(dp1162
g13
VPRP
p1163
sbatp1164
Rp1165
(dp1166
g13
VNP
p1167
sbag0
(g1
g2
(lp1168
V,
p1169
atp1170
Rp1171
(dp1172
g13
V,
p1173
sbag0
(g1
g2
(lp1174
g0
(g1
g2
(lp1175
Vand
p1176
atp1177
Rp1178
(dp1179
g13
VCC
p1180
sbag0
(g1
g2
(lp1181
g0
(g1
g2
(lp1182
g0
(g1
g2
(lp1183
Vit
p1184
atp1185
Rp1186
(dp1187
g13
VPRP
p1188
sbatp1189
Rp1190
(dp1191
g13
VNP
p1192
sbag0
(g1
g2
(lp1193
V,
p1194
atp1195
Rp1196
(dp1197
g13
V,
p1198
sbag0
(g1
g2
(lp1199
g0
(g1
g2
(lp1200
Vit
p1201
atp1202
Rp1203
(dp1204
g13
VPRP
p1205
sbatp1206
Rp1207
(dp1208
g13
VNP
p1209
sbag0
(g1
g2
(lp1210
g0
(g1
g2
(lp1211
Vlooks
p1212
atp1213
Rp1214
(dp1215
g13
VVBZ
p1216
sbag0
(g1
g2
(lp1217
g0
(g1
g2
(lp1218
Voutside
p1219
atp1220
Rp1221
(dp1222
g13
VRB
p1223
sbatp1224
Rp1225
(dp1226
g13
VADVP
p1227
sbag0
(g1
g2
(lp1228
V,
p1229
atp1230
Rp1231
(dp1232
g13
V,
p1233
sbag0
(g1
g2
(lp1234
g0
(g1
g2
(lp1235
g0
(g1
g2
(lp1236
Vto
p1237
atp1238
Rp1239
(dp1240
g13
VTO
p1241
sbag0
(g1
g2
(lp1242
g0
(g1
g2
(lp1243
Vthe
p1244
atp1245
Rp1246
(dp1247
g13
VDT
p1248
sbag0
(g1
g2
(lp1249
Vgra
p1250
atp1251
Rp1252
(dp1253
g13
VNN
p1254
sbatp1255
Rp1256
(dp1257
g13
VNP
p1258
sbatp1259
Rp1260
(dp1261
g13
VPP
p1262
sbag0
(g1
g2
(lp1263
V,
p1264
atp1265
Rp1266
(dp1267
g13
V,
p1268
sbag0
(g1
g2
(lp1269
g0
(g1
g2
(lp1270
Vto
p1271
atp1272
Rp1273
(dp1274
g13
VTO
p1275
sbag0
(g1
g2
(lp1276
g0
(g1
g2
(lp1277
Vthe
p1278
atp1279
Rp1280
(dp1281
g13
VDT
p1282
sbatp1283
Rp1284
(dp1285
g13
VNP
p1286
sbatp1287
Rp1288
(dp1289
g13
VPP
p1290
sbag0
(g1
g2
(lp1291
V,
p1292
atp1293
Rp1294
(dp1295
g13
V,
p1296
sbag0
(g1
g2
(lp1297
g0
(g1
g2
(lp1298
Vto
p1299
atp1300
Rp1301
(dp1302
g13
VTO
p1303
sbag0
(g1
g2
(lp1304
g0
(g1
g2
(lp1305
Vthe
p1306
atp1307
Rp1308
(dp1309
g13
VDT
p1310
sbatp1311
Rp1312
(dp1313
g13
VNP
p1314
sbatp1315
Rp1316
(dp1317
g13
VPP
p1318
sbag0
(g1
g2
(lp1319
V,
p1320
atp1321
Rp1322
(dp1323
g13
V,
p1324
sbag0
(g1
g2
(lp1325
g0
(g1
g2
(lp1326
Vto
p1327
atp1328
Rp1329
(dp1330
g13
VTO
p1331
sbag0
(g1
g2
(lp1332
g0
(g1
g2
(lp1333
g0
(g1
g2
(lp1334
Vthe
p1335
atp1336
Rp1337
(dp1338
g13
VDT
p1339
sbag0
(g1
g2
(lp1340
Vyard
p1341
atp1342
Rp1343
(dp1344
g13
VNN
p1345
sbatp1346
Rp1347
(dp1348
g13
VNP
p1349
sbag0
(g1
g2
(lp1350
g0
(g1
g2
(lp1351
g0
(g1
g2
(lp1352
Vthat
p1353
atp1354
Rp1355
(dp1356
g13
VWDT
p1357
sbatp1358
Rp1359
(dp1360
g13
VWHNP
p1361
sbag0
(g1
g2
(lp1362
g0
(g1
g2
(lp1363
g0
(g1
g2
(lp1364
Vhas
p1365
atp1366
Rp1367
(dp1368
g13
VVBZ
p1369
sbatp1370
Rp1371
(dp1372
g13
VVP
p1373
sbatp1374
Rp1375
(dp1376
g13
VS
p1377
sbatp1378
Rp1379
(dp1380
g13
VSBAR
p1381
sbatp1382
Rp1383
(dp1384
g13
VNP
p1385
sbatp1386
Rp1387
(dp1388
g13
VPP
p1389
sbatp1390
Rp1391
(dp1392
g13
VPP
p1393
sbatp1394
Rp1395
(dp1396
g13
VVP
p1397
sbatp1398
Rp1399
(dp1400
g13
VS
p1401
sbatp1402
Rp1403
(dp1404
g13
VS
p1405
sbag0
(g1
g2
(lp1406
V,
p1407
atp1408
Rp1409
(dp1410
g13
V,
p1411
sbag0
(g1
g2
(lp1412
g0
(g1
g2
(lp1413
Vthat
p1414
atp1415
Rp1416
(dp1417
g13
VWDT
p1418
sbatp1419
Rp1420
(dp1421
g13
VNP
p1422
sbag0
(g1
g2
(lp1423
g0
(g1
g2
(lp1424
Vhas
p1425
atp1426
Rp1427
(dp1428
g13
VVBZ
p1429
sbag0
(g1
g2
(lp1430
g0
(g1
g2
(lp1431
g0
(g1
g2
(lp1432
Vgrass
p1433
atp1434
Rp1435
(dp1436
g13
VNN
p1437
sbatp1438
Rp1439
(dp1440
g13
VNP
p1441
sbag0
(g1
g2
(lp1442
V,
p1443
atp1444
Rp1445
(dp1446
g13
V,
p1447
sbag0
(g1
g2
(lp1448
g0
(g1
g2
(lp1449
g0
(g1
g2
(lp1450
Vthe
p1451
atp1452
Rp1453
(dp1454
g13
VDT
p1455
sbag0
(g1
g2
(lp1456
Vother
p1457
atp1458
Rp1459
(dp1460
g13
VJJ
p1461
sbag0
(g1
g2
(lp1462
Vside
p1463
atp1464
Rp1465
(dp1466
g13
VNN
p1467
sbatp1468
Rp1469
(dp1470
g13
VNP
p1471
sbag0
(g1
g2
(lp1472
g0
(g1
g2
(lp1473
Vof
p1474
atp1475
Rp1476
(dp1477
g13
VIN
p1478
sbag0
(g1
g2
(lp1479
g0
(g1
g2
(lp1480
Vthe
p1481
atp1482
Rp1483
(dp1484
g13
VDT
p1485
sbag0
(g1
g2
(lp1486
Vhouse
p1487
atp1488
Rp1489
(dp1490
g13
VNN
p1491
sbatp1492
Rp1493
(dp1494
g13
VNP
p1495
sbatp1496
Rp1497
(dp1498
g13
VPP
p1499
sbatp1500
Rp1501
(dp1502
g13
VNP
p1503
sbatp1504
Rp1505
(dp1506
g13
VNP
p1507
sbatp1508
Rp1509
(dp1510
g13
VVP
p1511
sbag0
(g1
g2
(lp1512
V.
p1513
atp1514
Rp1515
(dp1516
g13
V.
p1517
sbatp1518
Rp1519
(dp1520
g13
VS
p1521
sbatp1522
Rp1523
(dp1524
g13
S'id: 8'
p1525
sbag0
(g1
g2
(lp1526
g0
(g1
g2
(lp1527
g0
(g1
g2
(lp1528
g0
(g1
g2
(lp1529
VGot
p1530
atp1531
Rp1532
(dp1533
g13
VNNP
p1534
sbag0
(g1
g2
(lp1535
Vcurtains
p1536
atp1537
Rp1538
(dp1539
g13
VNNS
p1540
sbatp1541
Rp1542
(dp1543
g13
VNP
p1544
sbag0
(g1
g2
(lp1545
g0
(g1
g2
(lp1546
Vtied
p1547
atp1548
Rp1549
(dp1550
g13
VVBD
p1551
sbag0
(g1
g2
(lp1552
g0
(g1
g2
(lp1553
Vup
p1554
atp1555
Rp1556
(dp1557
g13
VRP
p1558
sbatp1559
Rp1560
(dp1561
g13
VPRT
p1562
sbag0
(g1
g2
(lp1563
g0
(g1
g2
(lp1564
Vso
p1565
atp1566
Rp1567
(dp1568
g13
VIN
p1569
sbag0
(g1
g2
(lp1570
g0
(g1
g2
(lp1571
g0
(g1
g2
(lp1572
Vyou
p1573
atp1574
Rp1575
(dp1576
g13
VPRP
p1577
sbatp1578
Rp1579
(dp1580
g13
VNP
p1581
sbag0
(g1
g2
(lp1582
g0
(g1
g2
(lp1583
Vcan
p1584
atp1585
Rp1586
(dp1587
g13
VMD
p1588
sbag0
(g1
g2
(lp1589
g0
(g1
g2
(lp1590
Vsee
p1591
atp1592
Rp1593
(dp1594
g13
VVB
p1595
sbag0
(g1
g2
(lp1596
g0
(g1
g2
(lp1597
Voutside
p1598
atp1599
Rp1600
(dp1601
g13
VJJ
p1602
sbatp1603
Rp1604
(dp1605
g13
VADVP
p1606
sbatp1607
Rp1608
(dp1609
g13
VVP
p1610
sbatp1611
Rp1612
(dp1613
g13
VVP
p1614
sbatp1615
Rp1616
(dp1617
g13
VS
p1618
sbatp1619
Rp1620
(dp1621
g13
VSBAR
p1622
sbatp1623
Rp1624
(dp1625
g13
VVP
p1626
sbag0
(g1
g2
(lp1627
V.
p1628
atp1629
Rp1630
(dp1631
g13
V.
p1632
sbatp1633
Rp1634
(dp1635
g13
VS
p1636
sbatp1637
Rp1638
(dp1639
g13
S'id: 9'
p1640
sbag0
(g1
g2
(lp1641
g0
(g1
g2
(lp1642
g0
(g1
g2
(lp1643
g0
(g1
g2
(lp1644
VShe
p1645
atp1646
Rp1647
(dp1648
g13
VPRP
p1649
sbatp1650
Rp1651
(dp1652
g13
VNP
p1653
sbag0
(g1
g2
(lp1654
g0
(g1
g2
(lp1655
V's
p1656
atp1657
Rp1658
(dp1659
g13
VVBZ
p1660
sbag0
(g1
g2
(lp1661
g0
(g1
g2
(lp1662
Vdrying
p1663
atp1664
Rp1665
(dp1666
g13
VVBG
p1667
sbag0
(g1
g2
(lp1668
g0
(g1
g2
(lp1669
Va
p1670
atp1671
Rp1672
(dp1673
g13
VDT
p1674
sbag0
(g1
g2
(lp1675
Vplate
p1676
atp1677
Rp1678
(dp1679
g13
VNN
p1680
sbatp1681
Rp1682
(dp1683
g13
VNP
p1684
sbatp1685
Rp1686
(dp1687
g13
VVP
p1688
sbatp1689
Rp1690
(dp1691
g13
VVP
p1692
sbag0
(g1
g2
(lp1693
V.
p1694
atp1695
Rp1696
(dp1697
g13
V.
p1698
sbatp1699
Rp1700
(dp1701
g13
VS
p1702
sbatp1703
Rp1704
(dp1705
g13
S'id: 10'
p1706
sbag0
(g1
g2
(lp1707
g0
(g1
g2
(lp1708
g0
(g1
g2
(lp1709
g0
(g1
g2
(lp1710
VI
p1711
atp1712
Rp1713
(dp1714
g13
VPRP
p1715
sbatp1716
Rp1717
(dp1718
g13
VNP
p1719
sbag0
(g1
g2
(lp1720
g0
(g1
g2
(lp1721
Vca
p1722
atp1723
Rp1724
(dp1725
g13
VMD
p1726
sbag0
(g1
g2
(lp1727
Vn't
p1728
atp1729
Rp1730
(dp1731
g13
VRB
p1732
sbag0
(g1
g2
(lp1733
g0
(g1
g2
(lp1734
Vsee
p1735
atp1736
Rp1737
(dp1738
g13
VVB
p1739
sbag0
(g1
g2
(lp1740
g0
(g1
g2
(lp1741
g0
(g1
g2
(lp1742
Vanything
p1743
atp1744
Rp1745
(dp1746
g13
VNN
p1747
sbatp1748
Rp1749
(dp1750
g13
VNP
p1751
sbag0
(g1
g2
(lp1752
g0
(g1
g2
(lp1753
Velse
p1754
atp1755
Rp1756
(dp1757
g13
VRB
p1758
sbatp1759
Rp1760
(dp1761
g13
VADJP
p1762
sbatp1763
Rp1764
(dp1765
g13
VS
p1766
sbatp1767
Rp1768
(dp1769
g13
VVP
p1770
sbatp1771
Rp1772
(dp1773
g13
VVP
p1774
sbag0
(g1
g2
(lp1775
V.
p1776
atp1777
Rp1778
(dp1779
g13
V.
p1780
sbatp1781
Rp1782
(dp1783
g13
VS
p1784
sbatp1785
Rp1786
(dp1787
g13
S'id: 11'
p1788
sbag0
(g1
g2
(lp1789
g0
(g1
g2
(lp1790
g0
(g1
g2
(lp1791
g0
(g1
g2
(lp1792
g0
(g1
g2
(lp1793
VLooks
p1794
atp1795
Rp1796
(dp1797
g13
VVBZ
p1798
sbag0
(g1
g2
(lp1799
g0
(g1
g2
(lp1800
Vlike
p1801
atp1802
Rp1803
(dp1804
g13
VIN
p1805
sbag0
(g1
g2
(lp1806
g0
(g1
g2
(lp1807
V,
p1808
atp1809
Rp1810
(dp1811
g13
V,
p1812
sbag0
(g1
g2
(lp1813
g0
(g1
g2
(lp1814
Vlooks
p1815
atp1816
Rp1817
(dp1818
g13
VVBZ
p1819
sbag0
(g1
g2
(lp1820
g0
(g1
g2
(lp1821
Vlike
p1822
atp1823
Rp1824
(dp1825
g13
VIN
p1826
sbag0
(g1
g2
(lp1827
g0
(g1
g2
(lp1828
g0
(g1
g2
(lp1829
Vthe
p1830
atp1831
Rp1832
(dp1833
g13
VDT
p1834
sbag0
(g1
g2
(lp1835
Vboy
p1836
atp1837
Rp1838
(dp1839
g13
VNN
p1840
sbatp1841
Rp1842
(dp1843
g13
VNP
p1844
sbag0
(g1
g2
(lp1845
g0
(g1
g2
(lp1846
Vmight
p1847
atp1848
Rp1849
(dp1850
g13
VMD
p1851
sbag0
(g1
g2
(lp1852
g0
(g1
g2
(lp1853
Vbe
p1854
atp1855
Rp1856
(dp1857
g13
VVB
p1858
sbag0
(g1
g2
(lp1859
g0
(g1
g2
(lp1860
Vwearing
p1861
atp1862
Rp1863
(dp1864
g13
VVBG
p1865
sbag0
(g1
g2
(lp1866
g0
(g1
g2
(lp1867
g0
(g1
g2
(lp1868
Vone
p1869
atp1870
Rp1871
(dp1872
g13
VCD
p1873
sbag0
(g1
g2
(lp1874
Vshoe
p1875
atp1876
Rp1877
(dp1878
g13
VNN
p1879
sbatp1880
Rp1881
(dp1882
g13
VNP
p1883
sbag0
(g1
g2
(lp1884
Vand
p1885
atp1886
Rp1887
(dp1888
g13
VCC
p1889
sbag0
(g1
g2
(lp1890
g0
(g1
g2
(lp1891
Vone
p1892
atp1893
Rp1894
(dp1895
g13
VCD
p1896
sbag0
(g1
g2
(lp1897
Vsock
p1898
atp1899
Rp1900
(dp1901
g13
VNN
p1902
sbatp1903
Rp1904
(dp1905
g13
VNP
p1906
sbatp1907
Rp1908
(dp1909
g13
VNP
p1910
sbatp1911
Rp1912
(dp1913
g13
VVP
p1914
sbatp1915
Rp1916
(dp1917
g13
VVP
p1918
sbatp1919
Rp1920
(dp1921
g13
VVP
p1922
sbatp1923
Rp1924
(dp1925
g13
VS
p1926
sbatp1927
Rp1928
(dp1929
g13
VSBAR
p1930
sbatp1931
Rp1932
(dp1933
g13
VVP
p1934
sbatp1935
Rp1936
(dp1937
g13
VS
p1938
sbatp1939
Rp1940
(dp1941
g13
VSBAR
p1942
sbatp1943
Rp1944
(dp1945
g13
VVP
p1946
sbatp1947
Rp1948
(dp1949
g13
VS
p1950
sbag0
(g1
g2
(lp1951
V,
p1952
atp1953
Rp1954
(dp1955
g13
V,
p1956
sbag0
(g1
g2
(lp1957
g0
(g1
g2
(lp1958
Vit
p1959
atp1960
Rp1961
(dp1962
g13
VPRP
p1963
sbatp1964
Rp1965
(dp1966
g13
VNP
p1967
sbag0
(g1
g2
(lp1968
g0
(g1
g2
(lp1969
V's
p1970
atp1971
Rp1972
(dp1973
g13
VVBZ
p1974
sbag0
(g1
g2
(lp1975
g0
(g1
g2
(lp1976
Vhard
p1977
atp1978
Rp1979
(dp1980
g13
VJJ
p1981
sbag0
(g1
g2
(lp1982
g0
(g1
g2
(lp1983
g0
(g1
g2
(lp1984
Vto
p1985
atp1986
Rp1987
(dp1988
g13
VTO
p1989
sbag0
(g1
g2
(lp1990
g0
(g1
g2
(lp1991
Vtell
p1992
atp1993
Rp1994
(dp1995
g13
VVB
p1996
sbatp1997
Rp1998
(dp1999
g13
VVP
p2000
sbatp2001
Rp2002
(dp2003
g13
VVP
p2004
sbatp2005
Rp2006
(dp2007
g13
VS
p2008
sbatp2009
Rp2010
(dp2011
g13
VADJP
p2012
sbatp2013
Rp2014
(dp2015
g13
VVP
p2016
sbag0
(g1
g2
(lp2017
V.
p2018
atp2019
Rp2020
(dp2021
g13
V.
p2022
sbatp2023
Rp2024
(dp2025
g13
VS
p2026
sbatp2027
Rp2028
(dp2029
g13
S'id: 12'
p2030
sbag0
(g1
g2
(lp2031
g0
(g1
g2
(lp2032
g0
(g1
g2
(lp2033
VBut
p2034
atp2035
Rp2036
(dp2037
g13
VCC
p2038
sbag0
(g1
g2
(lp2039
g0
(g1
g2
(lp2040
Vhe
p2041
atp2042
Rp2043
(dp2044
g13
VPRP
p2045
sbatp2046
Rp2047
(dp2048
g13
VNP
p2049
sbag0
(g1
g2
(lp2050
g0
(g1
g2
(lp2051
V's
p2052
atp2053
Rp2054
(dp2055
g13
VVBZ
p2056
sbag0
(g1
g2
(lp2057
g0
(g1
g2
(lp2058
Vabout
p2059
atp2060
Rp2061
(dp2062
g13
VIN
p2063
sbag0
(g1
g2
(lp2064
g0
(g1
g2
(lp2065
g0
(g1
g2
(lp2066
Vto
p2067
atp2068
Rp2069
(dp2070
g13
VTO
p2071
sbag0
(g1
g2
(lp2072
g0
(g1
g2
(lp2073
Vtip
p2074
atp2075
Rp2076
(dp2077
g13
VVB
p2078
sbag0
(g1
g2
(lp2079
g0
(g1
g2
(lp2080
Vover
p2081
atp2082
Rp2083
(dp2084
g13
VRP
p2085
sbatp2086
Rp2087
(dp2088
g13
VPRT
p2089
sbatp2090
Rp2091
(dp2092
g13
VVP
p2093
sbatp2094
Rp2095
(dp2096
g13
VVP
p2097
sbatp2098
Rp2099
(dp2100
g13
VS
p2101
sbatp2102
Rp2103
(dp2104
g13
VVP
p2105
sbatp2106
Rp2107
(dp2108
g13
VVP
p2109
sbag0
(g1
g2
(lp2110
V.
p2111
atp2112
Rp2113
(dp2114
g13
V.
p2115
sbatp2116
Rp2117
(dp2118
g13
VS
p2119
sbatp2120
Rp2121
(dp2122
g13
S'id: 13'
p2123
sbag0
(g1
g2
(lp2124
g0
(g1
g2
(lp2125
g0
(g1
g2
(lp2126
g0
(g1
g2
(lp2127
g0
(g1
g2
(lp2128
VHe
p2129
atp2130
Rp2131
(dp2132
g13
VPRP
p2133
sbatp2134
Rp2135
(dp2136
g13
VNP
p2137
sbag0
(g1
g2
(lp2138
g0
(g1
g2
(lp2139
Vdoes
p2140
atp2141
Rp2142
(dp2143
g13
VVBZ
p2144
sbag0
(g1
g2
(lp2145
g0
(g1
g2
(lp2146
Vhave
p2147
atp2148
Rp2149
(dp2150
g13
VVB
p2151
sbag0
(g1
g2
(lp2152
g0
(g1
g2
(lp2153
g0
(g1
g2
(lp2154
Va
p2155
atp2156
Rp2157
(dp2158
g13
VDT
p2159
sbag0
(g1
g2
(lp2160
Vcookie
p2161
atp2162
Rp2163
(dp2164
g13
VNN
p2165
sbatp2166
Rp2167
(dp2168
g13
VNP
p2169
sbag0
(g1
g2
(lp2170
g0
(g1
g2
(lp2171
Vin
p2172
atp2173
Rp2174
(dp2175
g13
VIN
p2176
sbag0
(g1
g2
(lp2177
g0
(g1
g2
(lp2178
Vhis
p2179
atp2180
Rp2181
(dp2182
g13
VPRP$
p2183
sbag0
(g1
g2
(lp2184
Vhand
p2185
atp2186
Rp2187
(dp2188
g13
VNN
p2189
sbatp2190
Rp2191
(dp2192
g13
VNP
p2193
sbatp2194
Rp2195
(dp2196
g13
VPP
p2197
sbatp2198
Rp2199
(dp2200
g13
VNP
p2201
sbatp2202
Rp2203
(dp2204
g13
VVP
p2205
sbatp2206
Rp2207
(dp2208
g13
VVP
p2209
sbatp2210
Rp2211
(dp2212
g13
VS
p2213
sbag0
(g1
g2
(lp2214
V,
p2215
atp2216
Rp2217
(dp2218
g13
V,
p2219
sbag0
(g1
g2
(lp2220
Vand
p2221
atp2222
Rp2223
(dp2224
g13
VCC
p2225
sbag0
(g1
g2
(lp2226
g0
(g1
g2
(lp2227
g0
(g1
g2
(lp2228
g0
(g1
g2
(lp2229
g0
(g1
g2
(lp2230
Vit
p2231
atp2232
Rp2233
(dp2234
g13
VPRP
p2235
sbatp2236
Rp2237
(dp2238
g13
VNP
p2239
sbag0
(g1
g2
(lp2240
g0
(g1
g2
(lp2241
Vkinda
p2242
atp2243
Rp2244
(dp2245
g13
VNN
p2246
sbatp2247
Rp2248
(dp2249
g13
VNP
p2250
sbatp2251
Rp2252
(dp2253
g13
VNP
p2254
sbag0
(g1
g2
(lp2255
g0
(g1
g2
(lp2256
Vlooks
p2257
atp2258
Rp2259
(dp2260
g13
VVBZ
p2261
sbag0
(g1
g2
(lp2262
g0
(g1
g2
(lp2263
Vlike
p2264
atp2265
Rp2266
(dp2267
g13
VIN
p2268
sbag0
(g1
g2
(lp2269
g0
(g1
g2
(lp2270
g0
(g1
g2
(lp2271
Vhe
p2272
atp2273
Rp2274
(dp2275
g13
VPRP
p2276
sbatp2277
Rp2278
(dp2279
g13
VNP
p2280
sbag0
(g1
g2
(lp2281
g0
(g1
g2
(lp2282
Vis
p2283
atp2284
Rp2285
(dp2286
g13
VVBZ
p2287
sbag0
(g1
g2
(lp2288
g0
(g1
g2
(lp2289
Vgoing
p2290
atp2291
Rp2292
(dp2293
g13
VVBG
p2294
sbag0
(g1
g2
(lp2295
g0
(g1
g2
(lp2296
g0
(g1
g2
(lp2297
Vto
p2298
atp2299
Rp2300
(dp2301
g13
VTO
p2302
sbag0
(g1
g2
(lp2303
g0
(g1
g2
(lp2304
Vgive
p2305
atp2306
Rp2307
(dp2308
g13
VVB
p2309
sbag0
(g1
g2
(lp2310
g0
(g1
g2
(lp2311
Vto
p2312
atp2313
Rp2314
(dp2315
g13
VTO
p2316
sbag0
(g1
g2
(lp2317
g0
(g1
g2
(lp2318
Vhis
p2319
atp2320
Rp2321
(dp2322
g13
VPRP$
p2323
sbag0
(g1
g2
(lp2324
Vsister
p2325
atp2326
Rp2327
(dp2328
g13
VNN
p2329
sbatp2330
Rp2331
(dp2332
g13
VNP
p2333
sbatp2334
Rp2335
(dp2336
g13
VPP
p2337
sbatp2338
Rp2339
(dp2340
g13
VVP
p2341
sbatp2342
Rp2343
(dp2344
g13
VVP
p2345
sbatp2346
Rp2347
(dp2348
g13
VS
p2349
sbatp2350
Rp2351
(dp2352
g13
VVP
p2353
sbatp2354
Rp2355
(dp2356
g13
VVP
p2357
sbatp2358
Rp2359
(dp2360
g13
VS
p2361
sbatp2362
Rp2363
(dp2364
g13
VSBAR
p2365
sbatp2366
Rp2367
(dp2368
g13
VVP
p2369
sbatp2370
Rp2371
(dp2372
g13
VS
p2373
sbag0
(g1
g2
(lp2374
V,
p2375
atp2376
Rp2377
(dp2378
g13
V,
p2379
sbag0
(g1
g2
(lp2380
Vand
p2381
atp2382
Rp2383
(dp2384
g13
VCC
p2385
sbag0
(g1
g2
(lp2386
g0
(g1
g2
(lp2387
g0
(g1
g2
(lp2388
Vhe
p2389
atp2390
Rp2391
(dp2392
g13
VPRP
p2393
sbatp2394
Rp2395
(dp2396
g13
VNP
p2397
sbag0
(g1
g2
(lp2398
g0
(g1
g2
(lp2399
Vtrying
p2400
atp2401
Rp2402
(dp2403
g13
VVBG
p2404
sbag0
(g1
g2
(lp2405
g0
(g1
g2
(lp2406
g0
(g1
g2
(lp2407
Vto
p2408
atp2409
Rp2410
(dp2411
g13
VTO
p2412
sbag0
(g1
g2
(lp2413
g0
(g1
g2
(lp2414
Vget
p2415
atp2416
Rp2417
(dp2418
g13
VVB
p2419
sbag0
(g1
g2
(lp2420
g0
(g1
g2
(lp2421
Vone
p2422
atp2423
Rp2424
(dp2425
g13
VCD
p2426
sbatp2427
Rp2428
(dp2429
g13
VNP
p2430
sbag0
(g1
g2
(lp2431
g0
(g1
g2
(lp2432
Vfor
p2433
atp2434
Rp2435
(dp2436
g13
VIN
p2437
sbag0
(g1
g2
(lp2438
g0
(g1
g2
(lp2439
Vhimself
p2440
atp2441
Rp2442
(dp2443
g13
VPRP
p2444
sbatp2445
Rp2446
(dp2447
g13
VNP
p2448
sbatp2449
Rp2450
(dp2451
g13
VPP
p2452
sbatp2453
Rp2454
(dp2455
g13
VVP
p2456
sbatp2457
Rp2458
(dp2459
g13
VVP
p2460
sbatp2461
Rp2462
(dp2463
g13
VS
p2464
sbatp2465
Rp2466
(dp2467
g13
VVP
p2468
sbatp2469
Rp2470
(dp2471
g13
VS
p2472
sbatp2473
Rp2474
(dp2475
g13
VS
p2476
sbag0
(g1
g2
(lp2477
V.
p2478
atp2479
Rp2480
(dp2481
g13
V.
p2482
sbatp2483
Rp2484
(dp2485
g13
VS
p2486
sbatp2487
Rp2488
(dp2489
g13
S'id: 14'
p2490
sbatp2491
Rp2492
(dp2493
g13
S'sentences'
p2494
sb.