ccopy_reg
_reconstructor
p0
(cnltk.tree
Tree
p1
c__builtin__
list
p2
(lp3
g0
(g1
g2
(lp4
g0
(g1
g2
(lp5
g0
(g1
g2
(lp6
g0
(g1
g2
(lp7
g0
(g1
g2
(lp8
Vok
p9
atp10
Rp11
(dp12
S'_label'
p13
VNN
p14
sbatp15
Rp16
(dp17
g13
VNP
p18
sbag0
(g1
g2
(lp19
V,
p20
atp21
Rp22
(dp23
g13
V,
p24
sbag0
(g1
g2
(lp25
g0
(g1
g2
(lp26
Vyou
p27
atp28
Rp29
(dp30
g13
VPRP
p31
sbatp32
Rp33
(dp34
g13
VNP
p35
sbag0
(g1
g2
(lp36
g0
(g1
g2
(lp37
Vwant
p38
atp39
Rp40
(dp41
g13
VVBP
p42
sbag0
(g1
g2
(lp43
g0
(g1
g2
(lp44
g0
(g1
g2
(lp45
Vme
p46
atp47
Rp48
(dp49
g13
VPRP
p50
sbatp51
Rp52
(dp53
g13
VNP
p54
sbag0
(g1
g2
(lp55
g0
(g1
g2
(lp56
Vto
p57
atp58
Rp59
(dp60
g13
VTO
p61
sbag0
(g1
g2
(lp62
g0
(g1
g2
(lp63
Vtell
p64
atp65
Rp66
(dp67
g13
VVB
p68
sbag0
(g1
g2
(lp69
g0
(g1
g2
(lp70
Vyou
p71
atp72
Rp73
(dp74
g13
VPRP
p75
sbatp76
Rp77
(dp78
g13
VNP
p79
sbag0
(g1
g2
(lp80
g0
(g1
g2
(lp81
Vabout
p82
atp83
Rp84
(dp85
g13
VIN
p86
sbag0
(g1
g2
(lp87
g0
(g1
g2
(lp88
Vit
p89
atp90
Rp91
(dp92
g13
VPRP
p93
sbatp94
Rp95
(dp96
g13
VNP
p97
sbatp98
Rp99
(dp100
g13
VPP
p101
sbatp102
Rp103
(dp104
g13
VVP
p105
sbatp106
Rp107
(dp108
g13
VVP
p109
sbatp110
Rp111
(dp112
g13
VS
p113
sbatp114
Rp115
(dp116
g13
VVP
p117
sbatp118
Rp119
(dp120
g13
VS
p121
sbatp122
Rp123
(dp124
g13
VNP
p125
sbatp126
Rp127
(dp128
g13
S'id: 0'
p129
sbatp130
Rp131
(dp132
g13
S'sentences'
p133
sb.