ccopy_reg
_reconstructor
p0
(cnltk.tree
Tree
p1
c__builtin__
list
p2
(lp3
g0
(g1
g2
(lp4
g0
(g1
g2
(lp5
g0
(g1
g2
(lp6
(lp7
S'word: we, index: 1'
p8
aatp9
Rp10
(dp11
S'_label'
p12
Vnsubj
p13
sbag0
(g1
g2
(lp14
g0
(g1
g2
(lp15
g0
(g1
g2
(lp16
(lp17
S'word: the, index: 4'
p18
aatp19
Rp20
(dp21
g12
Vdet
p22
sbatp23
Rp24
(dp25
g12
S'word: circus, index: 5'
p26
sbatp27
Rp28
(dp29
g12
Vprep
p30
sbatp31
Rp32
(dp33
g12
S"word: 're, index: 2"
p34
sbatp35
Rp36
(dp37
g12
S'id: 0'
p38
sbag0
(g1
g2
(lp39
g0
(g1
g2
(lp40
g0
(g1
g2
(lp41
g0
(g1
g2
(lp42
g0
(g1
g2
(lp43
(lp44
S'word: two, index: 5'
p45
aatp46
Rp47
(dp48
g12
Vamod
p49
sbag0
(g1
g2
(lp50
(lp51
S'word: three, index: 7'
p52
aatp53
Rp54
(dp55
g12
Vamod
p56
sbag0
(g1
g2
(lp57
(lp58
S'word: four, index: 9'
p59
aatp60
Rp61
(dp62
g12
Vamod
p63
sbag0
(g1
g2
(lp64
g0
(g1
g2
(lp65
g0
(g1
g2
(lp66
(lp67
S'word: five, index: 11'
p68
aatp69
Rp70
(dp71
g12
Vnum
p72
sbatp73
Rp74
(dp75
g12
S'word: participants, index: 12'
p76
sbatp77
Rp78
(dp79
g12
Vappos
p80
sbag0
(g1
g2
(lp81
g0
(g1
g2
(lp82
g0
(g1
g2
(lp83
g0
(g1
g2
(lp84
g0
(g1
g2
(lp85
(lp86
S'word: the, index: 16'
p87
aatp88
Rp89
(dp90
g12
Vdet
p91
sbatp92
Rp93
(dp94
g12
S'word: horse, index: 17'
p95
sbatp96
Rp97
(dp98
g12
Vprep
p99
sbatp100
Rp101
(dp102
g12
S'word: six, index: 14'
p103
sbatp104
Rp105
(dp106
g12
Vappos
p107
sbatp108
Rp109
(dp110
g12
S'word: one, index: 3'
p111
sbatp112
Rp113
(dp114
g12
Vnsubj
p115
sbag0
(g1
g2
(lp116
(lp117
S'word: There, index: 1'
p118
aatp119
Rp120
(dp121
g12
Vexpl
p122
sbatp123
Rp124
(dp125
g12
S"word: 's, index: 2"
p126
sbatp127
Rp128
(dp129
g12
S'id: 1'
p130
sbag0
(g1
g2
(lp131
g0
(g1
g2
(lp132
g0
(g1
g2
(lp133
g0
(g1
g2
(lp134
g0
(g1
g2
(lp135
(lp136
S'word: two, index: 7'
p137
aatp138
Rp139
(dp140
g12
Vexpl
p141
sbag0
(g1
g2
(lp142
g0
(g1
g2
(lp143
g0
(g1
g2
(lp144
(lp145
S'word: there, index: 26'
p146
aatp147
Rp148
(dp149
g12
Vdep
p150
sbatp151
Rp152
(dp153
g12
S'word: then, index: 25'
p154
sbatp155
Rp156
(dp157
g12
Vexpl
p158
sbag0
(g1
g2
(lp159
g0
(g1
g2
(lp160
g0
(g1
g2
(lp161
(lp162
S'word: three, index: 9'
p163
aatp164
Rp165
(dp166
g12
Vnum
p167
sbatp168
Rp169
(dp170
g12
S'word: children, index: 10'
p171
sbatp172
Rp173
(dp174
g12
Vexpl
p175
sbag0
(g1
g2
(lp176
(lp177
S'word: all, index: 27'
p178
aatp179
Rp180
(dp181
g12
Vpredet
p182
sbag0
(g1
g2
(lp183
(lp184
S'word: one, index: 13'
p185
aatp186
Rp187
(dp188
g12
Vexpl
p189
sbag0
(g1
g2
(lp190
g0
(g1
g2
(lp191
g0
(g1
g2
(lp192
g0
(g1
g2
(lp193
g0
(g1
g2
(lp194
(lp195
S'word: a, index: 21'
p196
aatp197
Rp198
(dp199
g12
Vdet
p200
sbatp201
Rp202
(dp203
g12
S'word: father, index: 22'
p204
sbatp205
Rp206
(dp207
g12
Vdep
p208
sbag0
(g1
g2
(lp209
(lp210
S'word: two, index: 15'
p211
aatp212
Rp213
(dp214
g12
Vnum
p215
sbag0
(g1
g2
(lp216
g0
(g1
g2
(lp217
g0
(g1
g2
(lp218
g202
atp219
Rp220
(dp221
g12
Vconj
p222
sbag0
(g1
g2
(lp223
(lp224
S'word: a, index: 18'
p225
aatp226
Rp227
(dp228
g12
Vdet
p229
sbatp230
Rp231
(dp232
g12
S'word: mother, index: 19'
p233
sbatp234
Rp235
(dp236
g12
Vdep
p237
sbatp238
Rp239
(dp240
g12
S'word: parents, index: 16'
p241
sbatp242
Rp243
(dp244
g12
Vexpl
p245
sbag0
(g1
g2
(lp246
g0
(g1
g2
(lp247
g0
(g1
g2
(lp248
(lp249
S'word: there, index: 30'
p250
aatp251
Rp252
(dp253
g12
Vexpl
p254
sbag0
(g1
g2
(lp255
(lp256
S'word: some, index: 31'
p257
aatp258
Rp259
(dp260
g12
Vdet
p261
sbatp262
Rp263
(dp264
g12
S'word: spectators, index: 32'
p265
sbatp266
Rp267
(dp268
g12
Vparataxis
p269
sbag0
(g1
g2
(lp270
g0
(g1
g2
(lp271
g0
(g1
g2
(lp272
(lp273
S'word: two, index: 7'
p274
aatp275
Rp276
(dp277
g12
Vconj
p278
sbag0
(g1
g2
(lp279
g152
atp280
Rp281
(dp282
g12
Vconj
p283
sbag0
(g1
g2
(lp284
g169
atp285
Rp286
(dp287
g12
Vconj
p288
sbag0
(g1
g2
(lp289
(lp290
S'word: one, index: 13'
p291
aatp292
Rp293
(dp294
g12
Vconj
p295
sbag0
(g1
g2
(lp296
g239
atp297
Rp298
(dp299
g12
Vconj
p300
sbatp301
Rp302
(dp303
g12
S'word: one, index: 5'
p304
sbatp305
Rp306
(dp307
g12
Vexpl
p308
sbatp309
Rp310
(dp311
g12
S'word: the, index: 28'
p312
sbatp313
Rp314
(dp315
g12
Vdep
p316
sbag0
(g1
g2
(lp317
(lp318
S'word: then, index: 2'
p319
aatp320
Rp321
(dp322
g12
Vadvmod
p323
sbag0
(g1
g2
(lp324
(lp325
S'word: we, index: 3'
p326
aatp327
Rp328
(dp329
g12
Vnsubj
p330
sbag0
(g1
g2
(lp331
g0
(g1
g2
(lp332
g0
(g1
g2
(lp333
g0
(g1
g2
(lp334
g0
(g1
g2
(lp335
g0
(g1
g2
(lp336
g0
(g1
g2
(lp337
(lp338
S'word: those, index: 41'
p339
aatp340
Rp341
(dp342
g12
Vprep
p343
sbatp344
Rp345
(dp346
g12
S'word: five, index: 39'
p347
sbatp348
Rp349
(dp350
g12
Vnsubj
p351
sbag0
(g1
g2
(lp352
(lp353
S'word: like, index: 36'
p354
aatp355
Rp356
(dp357
g12
Vmark
p358
sbag0
(g1
g2
(lp359
(lp360
S'word: there, index: 37'
p361
aatp362
Rp363
(dp364
g12
Vexpl
p365
sbatp366
Rp367
(dp368
g12
S'word: are, index: 38'
p369
sbatp370
Rp371
(dp372
g12
Vadvcl
p373
sbag0
(g1
g2
(lp374
(lp375
S'word: we, index: 3'
p376
aatp377
Rp378
(dp379
g12
Vnsubj
p380
sbatp381
Rp382
(dp383
g12
S'word: look, index: 35'
p384
sbatp385
Rp386
(dp387
g12
Vconj
p388
sbatp389
Rp390
(dp391
g12
S'word: have, index: 4'
p392
sbatp393
Rp394
(dp395
g12
S'id: 2'
p396
sbag0
(g1
g2
(lp397
g0
(g1
g2
(lp398
g0
(g1
g2
(lp399
g0
(g1
g2
(lp400
g0
(g1
g2
(lp401
g0
(g1
g2
(lp402
g0
(g1
g2
(lp403
(lp404
S'word: the, index: 26'
p405
aatp406
Rp407
(dp408
g12
Vdet
p409
sbag0
(g1
g2
(lp410
(lp411
S'word: little, index: 27'
p412
aatp413
Rp414
(dp415
g12
Vamod
p416
sbatp417
Rp418
(dp419
g12
S'word: girl, index: 28'
p420
sbatp421
Rp422
(dp423
g12
Vdep
p424
sbag0
(g1
g2
(lp425
(lp426
S'word: he, index: 23'
p427
aatp428
Rp429
(dp430
g12
Vnsubj
p431
sbag0
(g1
g2
(lp432
(lp433
S"word: 's, index: 24"
p434
aatp435
Rp436
(dp437
g12
Vcop
p438
sbatp439
Rp440
(dp441
g12
S'word: exciting, index: 25'
p442
sbatp443
Rp444
(dp445
g12
Vconj
p446
sbag0
(g1
g2
(lp447
g0
(g1
g2
(lp448
g0
(g1
g2
(lp449
(lp450
S'word: he, index: 9'
p451
aatp452
Rp453
(dp454
g12
Vnsubj
p455
sbag0
(g1
g2
(lp456
(lp457
S'word: is, index: 10'
p458
aatp459
Rp460
(dp461
g12
Vaux
p462
sbag0
(g1
g2
(lp463
(lp464
S'word: popcorn, index: 12'
p465
aatp466
Rp467
(dp468
g12
Vdobj
p469
sbag0
(g1
g2
(lp470
g0
(g1
g2
(lp471
g0
(g1
g2
(lp472
(lp473
S'word: the, index: 14'
p474
aatp475
Rp476
(dp477
g12
Vdet
p478
sbatp479
Rp480
(dp481
g12
S'word: child, index: 15'
p482
sbatp483
Rp484
(dp485
g12
Vprep
p486
sbatp487
Rp488
(dp489
g12
S'word: throwing, index: 11'
p490
sbatp491
Rp492
(dp493
g12
Vparataxis
p494
sbag0
(g1
g2
(lp495
g0
(g1
g2
(lp496
g0
(g1
g2
(lp497
(lp498
S'word: the, index: 2'
p499
aatp500
Rp501
(dp502
g12
Vdet
p503
sbatp504
Rp505
(dp506
g12
S'word: clown, index: 3'
p507
sbatp508
Rp509
(dp510
g12
Vnsubj
p511
sbag0
(g1
g2
(lp512
(lp513
S'word: is, index: 4'
p514
aatp515
Rp516
(dp517
g12
Vcop
p518
sbag0
(g1
g2
(lp519
g0
(g1
g2
(lp520
g0
(g1
g2
(lp521
(lp522
S'word: the, index: 18'
p523
aatp524
Rp525
(dp526
g12
Vdet
p527
sbag0
(g1
g2
(lp528
(lp529
S'word: little, index: 19'
p530
aatp531
Rp532
(dp533
g12
Vamod
p534
sbatp535
Rp536
(dp537
g12
S'word: boy, index: 20'
p538
sbatp539
Rp540
(dp541
g12
Vprep
p542
sbag0
(g1
g2
(lp543
(lp544
S'word: a, index: 5'
p545
aatp546
Rp547
(dp548
g12
Vdet
p549
sbag0
(g1
g2
(lp550
(lp551
S'word: funny, index: 6'
p552
aatp553
Rp554
(dp555
g12
Vamod
p556
sbatp557
Rp558
(dp559
g12
S'word: guy, index: 7'
p560
sbatp561
Rp562
(dp563
g12
S'id: 3'
p564
sbag0
(g1
g2
(lp565
g0
(g1
g2
(lp566
g0
(g1
g2
(lp567
(lp568
S'word: I, index: 1'
p569
aatp570
Rp571
(dp572
g12
Vnsubj
p573
sbag0
(g1
g2
(lp574
(lp575
S'word: do, index: 2'
p576
aatp577
Rp578
(dp579
g12
Vaux
p580
sbag0
(g1
g2
(lp581
(lp582
S"word: n't, index: 3"
p583
aatp584
Rp585
(dp586
g12
Vneg
p587
sbag0
(g1
g2
(lp588
(lp589
S'word: neither, index: 5'
p590
aatp591
Rp592
(dp593
g12
Vxcomp
p594
sbag0
(g1
g2
(lp595
g0
(g1
g2
(lp596
g0
(g1
g2
(lp597
(lp598
S'word: not, index: 7'
p599
aatp600
Rp601
(dp602
g12
Vneg
p603
sbag0
(g1
g2
(lp604
(lp605
S'word: they, index: 8'
p606
aatp607
Rp608
(dp609
g12
Vnsubj
p610
sbag0
(g1
g2
(lp611
(lp612
S"word: 're, index: 9"
p613
aatp614
Rp615
(dp616
g12
Vcop
p617
sbag0
(g1
g2
(lp618
(lp619
S'word: not, index: 10'
p620
aatp621
Rp622
(dp623
g12
Vneg
p624
sbatp625
Rp626
(dp627
g12
S'word: together, index: 11'
p628
sbatp629
Rp630
(dp631
g12
Vparataxis
p632
sbatp633
Rp634
(dp635
g12
S'word: think, index: 4'
p636
sbatp637
Rp638
(dp639
g12
S'id: 4'
p640
sbag0
(g1
g2
(lp641
g0
(g1
g2
(lp642
g0
(g1
g2
(lp643
(lp644
S'word: I, index: 1'
p645
aatp646
Rp647
(dp648
g12
Vnsubj
p649
sbag0
(g1
g2
(lp650
g0
(g1
g2
(lp651
g0
(g1
g2
(lp652
(lp653
S'word: she, index: 15'
p654
aatp655
Rp656
(dp657
g12
Vnsubj
p658
sbag0
(g1
g2
(lp659
(lp660
S"word: 's, index: 16"
p661
aatp662
Rp663
(dp664
g12
Vcop
p665
sbatp666
Rp667
(dp668
g12
S'word: white, index: 17'
p669
sbatp670
Rp671
(dp672
g12
Vconj
p673
sbag0
(g1
g2
(lp674
g0
(g1
g2
(lp675
g0
(g1
g2
(lp676
(lp677
S'word: he, index: 3'
p678
aatp679
Rp680
(dp681
g12
Vnsubj
p682
sbag0
(g1
g2
(lp683
(lp684
S"word: 's, index: 4"
p685
aatp686
Rp687
(dp688
g12
Vcop
p689
sbatp690
Rp691
(dp692
g12
S'word: black, index: 5'
p693
sbatp694
Rp695
(dp696
g12
Vccomp
p697
sbag0
(g1
g2
(lp698
g0
(g1
g2
(lp699
g0
(g1
g2
(lp700
(lp701
S'word: he, index: 7'
p702
aatp703
Rp704
(dp705
g12
Vnsubj
p706
sbag0
(g1
g2
(lp707
g0
(g1
g2
(lp708
g0
(g1
g2
(lp709
(lp710
S'word: bi-racial, index: 11'
p711
aatp712
Rp713
(dp714
g12
Vprep
p715
sbatp716
Rp717
(dp718
g12
S'word: kind, index: 9'
p719
sbatp720
Rp721
(dp722
g12
Vdobj
p723
sbag0
(g1
g2
(lp724
(lp725
S'word: maybe, index: 12'
p726
aatp727
Rp728
(dp729
g12
Vadvmod
p730
sbatp731
Rp732
(dp733
g12
S'word: looks, index: 8'
p734
sbatp735
Rp736
(dp737
g12
Vdep
p738
sbatp739
Rp740
(dp741
g12
S'word: think, index: 2'
p742
sbatp743
Rp744
(dp745
g12
S'id: 5'
p746
sbag0
(g1
g2
(lp747
g0
(g1
g2
(lp748
g0
(g1
g2
(lp749
(lp750
S'word: they, index: 2'
p751
aatp752
Rp753
(dp754
g12
Vnsubj
p755
sbag0
(g1
g2
(lp756
(lp757
S"word: 're, index: 3"
p758
aatp759
Rp760
(dp761
g12
Vaux
p762
sbag0
(g1
g2
(lp763
(lp764
S'word: just, index: 4'
p765
aatp766
Rp767
(dp768
g12
Vadvmod
p769
sbag0
(g1
g2
(lp770
g0
(g1
g2
(lp771
g0
(g1
g2
(lp772
(lp773
S'word: she, index: 7'
p774
aatp775
Rp776
(dp777
g12
Vnsubj
p778
sbag0
(g1
g2
(lp779
(lp780
S"word: 's, index: 8"
p781
aatp782
Rp783
(dp784
g12
Vaux
p785
sbatp786
Rp787
(dp788
g12
S'word: pointing, index: 9'
p789
sbatp790
Rp791
(dp792
g12
Vconj
p793
sbatp794
Rp795
(dp796
g12
S'word: looking, index: 5'
p797
sbatp798
Rp799
(dp800
g12
S'id: 6'
p801
sbag0
(g1
g2
(lp802
g0
(g1
g2
(lp803
g0
(g1
g2
(lp804
(lp805
S'word: is, index: 7'
p806
aatp807
Rp808
(dp809
g12
Vcop
p810
sbag0
(g1
g2
(lp811
g0
(g1
g2
(lp812
g0
(g1
g2
(lp813
(lp814
S'word: she, index: 22'
p815
aatp816
Rp817
(dp818
g12
Vnsubj
p819
sbag0
(g1
g2
(lp820
g0
(g1
g2
(lp821
g0
(g1
g2
(lp822
(lp823
S'word: like, index: 24'
p824
aatp825
Rp826
(dp827
g12
Vmark
p828
sbag0
(g1
g2
(lp829
(lp830
S'word: she, index: 25'
p831
aatp832
Rp833
(dp834
g12
Vnsubj
p835
sbag0
(g1
g2
(lp836
(lp837
S'word: is, index: 26'
p838
aatp839
Rp840
(dp841
g12
Vaux
p842
sbag0
(g1
g2
(lp843
g0
(g1
g2
(lp844
g0
(g1
g2
(lp845
(lp846
S'word: to, index: 28'
p847
aatp848
Rp849
(dp850
g12
Vaux
p851
sbag0
(g1
g2
(lp852
(lp853
S'word: up, index: 30'
p854
aatp855
Rp856
(dp857
g12
Vprt
p858
sbatp859
Rp860
(dp861
g12
S'word: stand, index: 29'
p862
sbatp863
Rp864
(dp865
g12
Vxcomp
p866
sbatp867
Rp868
(dp869
g12
S'word: going, index: 27'
p870
sbatp871
Rp872
(dp873
g12
Vadvcl
p874
sbatp875
Rp876
(dp877
g12
S'word: looks, index: 23'
p878
sbatp879
Rp880
(dp881
g12
Vconj
p882
sbag0
(g1
g2
(lp883
g0
(g1
g2
(lp884
g0
(g1
g2
(lp885
(lp886
S'word: she, index: 10'
p887
aatp888
Rp889
(dp890
g12
Vnsubj
p891
sbag0
(g1
g2
(lp892
(lp893
S'word: she, index: 12'
p894
aatp895
Rp896
(dp897
g12
Vnsubj
p898
sbag0
(g1
g2
(lp899
g0
(g1
g2
(lp900
g0
(g1
g2
(lp901
(lp902
S'word: like, index: 14'
p903
aatp904
Rp905
(dp906
g12
Vmark
p907
sbag0
(g1
g2
(lp908
(lp909
S'word: she, index: 15'
p910
aatp911
Rp912
(dp913
g12
Vnsubj
p914
sbag0
(g1
g2
(lp915
g0
(g1
g2
(lp916
g0
(g1
g2
(lp917
(lp918
S'word: her, index: 18'
p919
aatp920
Rp921
(dp922
g12
Vposs
p923
sbatp924
Rp925
(dp926
g12
S'word: knees, index: 19'
p927
sbatp928
Rp929
(dp930
g12
Vprep
p931
sbatp932
Rp933
(dp934
g12
S"word: 's, index: 16"
p935
sbatp936
Rp937
(dp938
g12
Vadvcl
p939
sbatp940
Rp941
(dp942
g12
S'word: looks, index: 13'
p943
sbatp944
Rp945
(dp946
g12
Vdep
p947
sbag0
(g1
g2
(lp948
g0
(g1
g2
(lp949
g0
(g1
g2
(lp950
g0
(g1
g2
(lp951
g0
(g1
g2
(lp952
(lp953
S'word: the, index: 5'
p954
aatp955
Rp956
(dp957
g12
Vdet
p958
sbatp959
Rp960
(dp961
g12
S'word: horse, index: 6'
p962
sbatp963
Rp964
(dp965
g12
Vprep
p966
sbag0
(g1
g2
(lp967
(lp968
S'word: the, index: 2'
p969
aatp970
Rp971
(dp972
g12
Vdet
p973
sbatp974
Rp975
(dp976
g12
S'word: lady, index: 3'
p977
sbatp978
Rp979
(dp980
g12
Vnsubj
p981
sbatp982
Rp983
(dp984
g12
S'word: interesting, index: 8'
p985
sbatp986
Rp987
(dp988
g12
S'id: 7'
p989
sbag0
(g1
g2
(lp990
g0
(g1
g2
(lp991
g0
(g1
g2
(lp992
g0
(g1
g2
(lp993
g0
(g1
g2
(lp994
(lp995
S'word: he, index: 8'
p996
aatp997
Rp998
(dp999
g12
Vnsubj
p1000
sbag0
(g1
g2
(lp1001
(lp1002
S'word: just, index: 10'
p1003
aatp1004
Rp1005
(dp1006
g12
Vadvmod
p1007
sbag0
(g1
g2
(lp1008
(lp1009
S'word: And, index: 1'
p1010
aatp1011
Rp1012
(dp1013
g12
Vcc
p1014
sbag0
(g1
g2
(lp1015
g0
(g1
g2
(lp1016
g0
(g1
g2
(lp1017
g0
(g1
g2
(lp1018
g0
(g1
g2
(lp1019
(lp1020
S'word: the, index: 3'
p1021
aatp1022
Rp1023
(dp1024
g12
Vdet
p1025
sbatp1026
Rp1027
(dp1028
g12
S'word: guy, index: 4'
p1029
sbatp1030
Rp1031
(dp1032
g12
Vpobj
p1033
sbag0
(g1
g2
(lp1034
g0
(g1
g2
(lp1035
g0
(g1
g2
(lp1036
(lp1037
S'word: the, index: 6'
p1038
aatp1039
Rp1040
(dp1041
g12
Vdet
p1042
sbatp1043
Rp1044
(dp1045
g12
S'word: tight-rope, index: 7'
p1046
sbatp1047
Rp1048
(dp1049
g12
Vprep
p1050
sbatp1051
Rp1052
(dp1053
g12
S'word: then, index: 2'
p1054
sbatp1055
Rp1056
(dp1057
g12
Vadvmod
p1058
sbatp1059
Rp1060
(dp1061
g12
S"word: 's, index: 9"
p1062
sbatp1063
Rp1064
(dp1065
g12
Vccomp
p1066
sbag0
(g1
g2
(lp1067
(lp1068
S'word: he, index: 12'
p1069
aatp1070
Rp1071
(dp1072
g12
Vnsubj
p1073
sbag0
(g1
g2
(lp1074
g0
(g1
g2
(lp1075
g0
(g1
g2
(lp1076
(lp1077
S'word: like, index: 14'
p1078
aatp1079
Rp1080
(dp1081
g12
Vmark
p1082
sbag0
(g1
g2
(lp1083
(lp1084
S'word: he, index: 15'
p1085
aatp1086
Rp1087
(dp1088
g12
Vnsubj
p1089
sbag0
(g1
g2
(lp1090
(lp1091
S"word: 's, index: 16"
p1092
aatp1093
Rp1094
(dp1095
g12
Vaux
p1096
sbag0
(g1
g2
(lp1097
(lp1098
S'word: being, index: 17'
p1099
aatp1100
Rp1101
(dp1102
g12
Vcop
p1103
sbag0
(g1
g2
(lp1104
(lp1105
S'word: very, index: 18'
p1106
aatp1107
Rp1108
(dp1109
g12
Vadvmod
p1110
sbatp1111
Rp1112
(dp1113
g12
S'word: careful, index: 19'
p1114
sbatp1115
Rp1116
(dp1117
g12
Vadvcl
p1118
sbatp1119
Rp1120
(dp1121
g12
S'word: looks, index: 13'
p1122
sbatp1123
Rp1124
(dp1125
g12
S'id: 8'
p1126
sbag0
(g1
g2
(lp1127
g0
(g1
g2
(lp1128
g0
(g1
g2
(lp1129
g0
(g1
g2
(lp1130
g0
(g1
g2
(lp1131
g0
(g1
g2
(lp1132
g0
(g1
g2
(lp1133
(lp1134
S'word: the, index: 10'
p1135
aatp1136
Rp1137
(dp1138
g12
Vdet
p1139
sbatp1140
Rp1141
(dp1142
g12
S'word: lion, index: 11'
p1143
sbatp1144
Rp1145
(dp1146
g12
Vposs
p1147
sbatp1148
Rp1149
(dp1150
g12
S'word: den, index: 13'
p1151
sbatp1152
Rp1153
(dp1154
g12
Vprep
p1155
sbag0
(g1
g2
(lp1156
(lp1157
S'word: he, index: 15'
p1158
aatp1159
Rp1160
(dp1161
g12
Vnsubj
p1162
sbag0
(g1
g2
(lp1163
g0
(g1
g2
(lp1164
g0
(g1
g2
(lp1165
(lp1166
S'word: I, index: 27'
p1167
aatp1168
Rp1169
(dp1170
g12
Vnsubj
p1171
sbag0
(g1
g2
(lp1172
(lp1173
S"word: 'm, index: 28"
p1174
aatp1175
Rp1176
(dp1177
g12
Vcop
p1178
sbag0
(g1
g2
(lp1179
(lp1180
S'word: not, index: 29'
p1181
aatp1182
Rp1183
(dp1184
g12
Vneg
p1185
sbag0
(g1
g2
(lp1186
(lp1187
S'word: quite, index: 30'
p1188
aatp1189
Rp1190
(dp1191
g12
Vadvmod
p1192
sbag0
(g1
g2
(lp1193
g0
(g1
g2
(lp1194
g0
(g1
g2
(lp1195
(lp1196
S'word: why, index: 32'
p1197
aatp1198
Rp1199
(dp1200
g12
Vadvmod
p1201
sbag0
(g1
g2
(lp1202
(lp1203
S'word: he, index: 33'
p1204
aatp1205
Rp1206
(dp1207
g12
Vnsubj
p1208
sbag0
(g1
g2
(lp1209
(lp1210
S'word: does, index: 34'
p1211
aatp1212
Rp1213
(dp1214
g12
Vaux
p1215
sbag0
(g1
g2
(lp1216
(lp1217
S"word: n't, index: 35"
p1218
aatp1219
Rp1220
(dp1221
g12
Vneg
p1222
sbag0
(g1
g2
(lp1223
g0
(g1
g2
(lp1224
g0
(g1
g2
(lp1225
g0
(g1
g2
(lp1226
g0
(g1
g2
(lp1227
g0
(g1
g2
(lp1228
g0
(g1
g2
(lp1229
g0
(g1
g2
(lp1230
g0
(g1
g2
(lp1231
(lp1232
S'word: a, index: 45'
p1233
aatp1234
Rp1235
(dp1236
g12
Vdet
p1237
sbatp1238
Rp1239
(dp1240
g12
S'word: whip, index: 46'
p1241
sbatp1242
Rp1243
(dp1244
g12
Vappos
p1245
sbatp1246
Rp1247
(dp1248
g12
S'word: thing, index: 43'
p1249
sbatp1250
Rp1251
(dp1252
g12
Vprep
p1253
sbag0
(g1
g2
(lp1254
(lp1255
S'word: what, index: 39'
p1256
aatp1257
Rp1258
(dp1259
g12
Vdobj
p1260
sbag0
(g1
g2
(lp1261
(lp1262
S'word: ya, index: 40'
p1263
aatp1264
Rp1265
(dp1266
g12
Vnsubj
p1267
sbatp1268
Rp1269
(dp1270
g12
S'word: call, index: 41'
p1271
sbatp1272
Rp1273
(dp1274
g12
Vrcmod
p1275
sbatp1276
Rp1277
(dp1278
g12
S'word: a, index: 37'
p1279
sbatp1280
Rp1281
(dp1282
g12
Vdobj
p1283
sbatp1284
Rp1285
(dp1286
g12
S'word: have, index: 36'
p1287
sbatp1288
Rp1289
(dp1290
g12
Vadvcl
p1291
sbatp1292
Rp1293
(dp1294
g12
S'word: sure, index: 31'
p1295
sbatp1296
Rp1297
(dp1298
g12
Vconj
p1299
sbag0
(g1
g2
(lp1300
g0
(g1
g2
(lp1301
g0
(g1
g2
(lp1302
g0
(g1
g2
(lp1303
g0
(g1
g2
(lp1304
(lp1305
S'word: the, index: 3'
p1306
aatp1307
Rp1308
(dp1309
g12
Vdet
p1310
sbatp1311
Rp1312
(dp1313
g12
S'word: guy, index: 4'
p1314
sbatp1315
Rp1316
(dp1317
g12
Vpobj
p1318
sbag0
(g1
g2
(lp1319
g0
(g1
g2
(lp1320
g0
(g1
g2
(lp1321
(lp1322
S'word: the, index: 6'
p1323
aatp1324
Rp1325
(dp1326
g12
Vdet
p1327
sbatp1328
Rp1329
(dp1330
g12
S'word: lion, index: 7'
p1331
sbatp1332
Rp1333
(dp1334
g12
Vprep
p1335
sbatp1336
Rp1337
(dp1338
g12
S'word: then, index: 2'
p1339
sbatp1340
Rp1341
(dp1342
g12
Vadvmod
p1343
sbag0
(g1
g2
(lp1344
g0
(g1
g2
(lp1345
g0
(g1
g2
(lp1346
(lp1347
S'word: he, index: 18'
p1348
aatp1349
Rp1350
(dp1351
g12
Vprep
p1352
sbag0
(g1
g2
(lp1353
(lp1354
S'word: he, index: 19'
p1355
aatp1356
Rp1357
(dp1358
g12
Vnsubj
p1359
sbag0
(g1
g2
(lp1360
(lp1361
S"word: 's, index: 20"
p1362
aatp1363
Rp1364
(dp1365
g12
Vaux
p1366
sbag0
(g1
g2
(lp1367
g0
(g1
g2
(lp1368
g0
(g1
g2
(lp1369
(lp1370
S'word: to, index: 22'
p1371
aatp1372
Rp1373
(dp1374
g12
Vaux
p1375
sbag0
(g1
g2
(lp1376
(lp1377
S'word: him, index: 24'
p1378
aatp1379
Rp1380
(dp1381
g12
Vdobj
p1382
sbatp1383
Rp1384
(dp1385
g12
S'word: tame, index: 23'
p1386
sbatp1387
Rp1388
(dp1389
g12
Vxcomp
p1390
sbatp1391
Rp1392
(dp1393
g12
S'word: trying, index: 21'
p1394
sbatp1395
Rp1396
(dp1397
g12
Vccomp
p1398
sbatp1399
Rp1400
(dp1401
g12
S'word: looks, index: 16'
p1402
sbatp1403
Rp1404
(dp1405
g12
S'id: 9'
p1406
sbag0
(g1
g2
(lp1407
g0
(g1
g2
(lp1408
g0
(g1
g2
(lp1409
(lp1410
S'word: He, index: 1'
p1411
aatp1412
Rp1413
(dp1414
g12
Vnsubj
p1415
sbag0
(g1
g2
(lp1416
g0
(g1
g2
(lp1417
g0
(g1
g2
(lp1418
(lp1419
S'word: I, index: 14'
p1420
aatp1421
Rp1422
(dp1423
g12
Vnsubj
p1424
sbag0
(g1
g2
(lp1425
(lp1426
S'word: do, index: 15'
p1427
aatp1428
Rp1429
(dp1430
g12
Vaux
p1431
sbag0
(g1
g2
(lp1432
(lp1433
S"word: n't, index: 16"
p1434
aatp1435
Rp1436
(dp1437
g12
Vneg
p1438
sbag0
(g1
g2
(lp1439
(lp1440
S'word: it, index: 18'
p1441
aatp1442
Rp1443
(dp1444
g12
Vdobj
p1445
sbatp1446
Rp1447
(dp1448
g12
S'word: see, index: 17'
p1449
sbatp1450
Rp1451
(dp1452
g12
Vconj
p1453
sbag0
(g1
g2
(lp1454
(lp1455
S"word: n't, index: 3"
p1456
aatp1457
Rp1458
(dp1459
g12
Vneg
p1460
sbag0
(g1
g2
(lp1461
g0
(g1
g2
(lp1462
g0
(g1
g2
(lp1463
(lp1464
S'word: he, index: 5'
p1465
aatp1466
Rp1467
(dp1468
g12
Vnsubj
p1469
sbag0
(g1
g2
(lp1470
(lp1471
S'word: does, index: 6'
p1472
aatp1473
Rp1474
(dp1475
g12
Vaux
p1476
sbag0
(g1
g2
(lp1477
(lp1478
S"word: n't, index: 7"
p1479
aatp1480
Rp1481
(dp1482
g12
Vneg
p1483
sbag0
(g1
g2
(lp1484
g0
(g1
g2
(lp1485
g0
(g1
g2
(lp1486
(lp1487
S'word: that, index: 11'
p1488
aatp1489
Rp1490
(dp1491
g12
Vprep
p1492
sbatp1493
Rp1494
(dp1495
g12
S'word: anything, index: 9'
p1496
sbatp1497
Rp1498
(dp1499
g12
Vdobj
p1500
sbatp1501
Rp1502
(dp1503
g12
S'word: have, index: 8'
p1504
sbatp1505
Rp1506
(dp1507
g12
Vdep
p1508
sbatp1509
Rp1510
(dp1511
g12
S'word: does, index: 2'
p1512
sbatp1513
Rp1514
(dp1515
g12
S'id: 10'
p1516
sbag0
(g1
g2
(lp1517
g0
(g1
g2
(lp1518
g0
(g1
g2
(lp1519
(lp1520
S'word: Yeah, index: 1'
p1521
aatp1522
Rp1523
(dp1524
g12
Vdiscourse
p1525
sbag0
(g1
g2
(lp1526
(lp1527
S'word: that, index: 3'
p1528
aatp1529
Rp1530
(dp1531
g12
Vnsubj
p1532
sbag0
(g1
g2
(lp1533
(lp1534
S"word: 's, index: 4"
p1535
aatp1536
Rp1537
(dp1538
g12
Vcop
p1539
sbag0
(g1
g2
(lp1540
g0
(g1
g2
(lp1541
g0
(g1
g2
(lp1542
(lp1543
S'word: kind, index: 5'
p1544
aatp1545
Rp1546
(dp1547
g12
Vdep
p1548
sbatp1549
Rp1550
(dp1551
g12
S'word: of, index: 6'
p1552
sbatp1553
Rp1554
(dp1555
g12
Vadvmod
p1556
sbag0
(g1
g2
(lp1557
g0
(g1
g2
(lp1558
g0
(g1
g2
(lp1559
(lp1560
S'word: that, index: 8'
p1561
aatp1562
Rp1563
(dp1564
g12
Vmark
p1565
sbag0
(g1
g2
(lp1566
(lp1567
S'word: he, index: 9'
p1568
aatp1569
Rp1570
(dp1571
g12
Vnsubj
p1572
sbag0
(g1
g2
(lp1573
(lp1574
S'word: would, index: 10'
p1575
aatp1576
Rp1577
(dp1578
g12
Vaux
p1579
sbag0
(g1
g2
(lp1580
(lp1581
S'word: that, index: 12'
p1582
aatp1583
Rp1584
(dp1585
g12
Vdobj
p1586
sbag0
(g1
g2
(lp1587
g0
(g1
g2
(lp1588
g0
(g1
g2
(lp1589
g0
(g1
g2
(lp1590
g0
(g1
g2
(lp1591
g0
(g1
g2
(lp1592
g0
(g1
g2
(lp1593
(lp1594
S'word: that, index: 18'
p1595
aatp1596
Rp1597
(dp1598
g12
Vdet
p1599
sbatp1600
Rp1601
(dp1602
g12
S'word: way, index: 19'
p1603
sbatp1604
Rp1605
(dp1606
g12
Vdep
p1607
sbatp1608
Rp1609
(dp1610
g12
S'word: him, index: 17'
p1611
sbatp1612
Rp1613
(dp1614
g12
Vprep
p1615
sbag0
(g1
g2
(lp1616
(lp1617
S'word: he, index: 9'
p1618
aatp1619
Rp1620
(dp1621
g12
Vnsubj
p1622
sbag0
(g1
g2
(lp1623
(lp1624
S'word: just, index: 14'
p1625
aatp1626
Rp1627
(dp1628
g12
Vadvmod
p1629
sbatp1630
Rp1631
(dp1632
g12
S'word: work, index: 15'
p1633
sbatp1634
Rp1635
(dp1636
g12
Vconj
p1637
sbatp1638
Rp1639
(dp1640
g12
S'word: do, index: 11'
p1641
sbatp1642
Rp1643
(dp1644
g12
Vccomp
p1645
sbag0
(g1
g2
(lp1646
g1631
atp1647
Rp1648
(dp1649
g12
Vccomp
p1650
sbatp1651
Rp1652
(dp1653
g12
S'word: odd, index: 7'
p1654
sbatp1655
Rp1656
(dp1657
g12
S'id: 11'
p1658
sbag0
(g1
g2
(lp1659
g0
(g1
g2
(lp1660
g0
(g1
g2
(lp1661
g0
(g1
g2
(lp1662
g0
(g1
g2
(lp1663
g0
(g1
g2
(lp1664
g0
(g1
g2
(lp1665
(lp1666
S'word: are, index: 5'
p1667
aatp1668
Rp1669
(dp1670
g12
Vcop
p1671
sbatp1672
Rp1673
(dp1674
g12
S'word: interesting, index: 6'
p1675
sbatp1676
Rp1677
(dp1678
g12
Vrcmod
p1679
sbag0
(g1
g2
(lp1680
(lp1681
S'word: those, index: 3'
p1682
aatp1683
Rp1684
(dp1685
g12
Vdet
p1686
sbatp1687
Rp1688
(dp1689
g12
S'word: people, index: 4'
p1690
sbatp1691
Rp1692
(dp1693
g12
Vxcomp
p1694
sbag0
(g1
g2
(lp1695
(lp1696
S'word: they, index: 8'
p1697
aatp1698
Rp1699
(dp1700
g12
Vadvmod
p1701
sbag0
(g1
g2
(lp1702
g0
(g1
g2
(lp1703
g0
(g1
g2
(lp1704
g0
(g1
g2
(lp1705
g0
(g1
g2
(lp1706
(lp1707
S'word: there, index: 12'
p1708
aatp1709
Rp1710
(dp1711
g12
Vadvmod
p1712
sbatp1713
Rp1714
(dp1715
g12
S'word: sitting, index: 11'
p1716
sbatp1717
Rp1718
(dp1719
g12
Vpcomp
p1720
sbatp1721
Rp1722
(dp1723
g12
S'word: just, index: 10'
p1724
sbatp1725
Rp1726
(dp1727
g12
Vprep
p1728
sbag0
(g1
g2
(lp1729
(lp1730
S'word: Yeah, index: 1'
p1731
aatp1732
Rp1733
(dp1734
g12
Vdiscourse
p1735
sbag0
(g1
g2
(lp1736
(lp1737
S'word: and, index: 2'
p1738
aatp1739
Rp1740
(dp1741
g12
Vnsubj
p1742
sbatp1743
Rp1744
(dp1745
g12
S"word: 're, index: 9"
p1746
sbatp1747
Rp1748
(dp1749
g12
S'id: 12'
p1750
sbag0
(g1
g2
(lp1751
g0
(g1
g2
(lp1752
g0
(g1
g2
(lp1753
g0
(g1
g2
(lp1754
g0
(g1
g2
(lp1755
(lp1756
S'word: So, index: 1'
p1757
aatp1758
Rp1759
(dp1760
g12
Vadvmod
p1761
sbatp1762
Rp1763
(dp1764
g12
S'word: this, index: 2'
p1765
sbatp1766
Rp1767
(dp1768
g12
Vnsubj
p1769
sbag0
(g1
g2
(lp1770
(lp1771
S'word: is, index: 3'
p1772
aatp1773
Rp1774
(dp1775
g12
Vcop
p1776
sbag0
(g1
g2
(lp1777
(lp1778
S'word: an, index: 4'
p1779
aatp1780
Rp1781
(dp1782
g12
Vdet
p1783
sbag0
(g1
g2
(lp1784
(lp1785
S'word: outside, index: 5'
p1786
aatp1787
Rp1788
(dp1789
g12
Vamod
p1790
sbatp1791
Rp1792
(dp1793
g12
S'word: circus, index: 6'
p1794
sbatp1795
Rp1796
(dp1797
g12
S'id: 13'
p1798
sbatp1799
Rp1800
(dp1801
g12
S'sentences'
p1802
sb.