ccopy_reg
_reconstructor
p0
(cnltk.tree
Tree
p1
c__builtin__
list
p2
(lp3
g0
(g1
g2
(lp4
g0
(g1
g2
(lp5
g0
(g1
g2
(lp6
Va horse
p7
atp8
Rp9
(dp10
S'_label'
p11
S'start: 11'
p12
sbatp13
Rp14
(dp15
g11
S'sent: 2'
p16
sbag0
(g1
g2
(lp17
g0
(g1
g2
(lp18
Vthe horse
p19
atp20
Rp21
(dp22
g11
S'start: 16'
p23
sbatp24
Rp25
(dp26
g11
S'sent: 10'
p27
sbatp28
Rp29
(dp30
g11
S'id: 12'
p31
sbag0
(g1
g2
(lp32
g0
(g1
g2
(lp33
g0
(g1
g2
(lp34
Vyou
p35
atp36
Rp37
(dp38
g11
S'start: 14'
p39
sbatp40
Rp41
(dp42
g11
S'sent: 4'
p43
sbag0
(g1
g2
(lp44
g0
(g1
g2
(lp45
Vthat
p46
atp47
Rp48
(dp49
g11
S'start: 20'
p50
sbatp51
Rp52
(dp53
g11
S'sent: 4'
p54
sbatp55
Rp56
(dp57
g11
S'id: 19'
p58
sbag0
(g1
g2
(lp59
g0
(g1
g2
(lp60
g0
(g1
g2
(lp61
Va clown there that 's either throwing popcorn , or , or paper , cut up paper , to the kids , or maybe even candy , who knows
p62
atp63
Rp64
(dp65
g11
S'start: 17'
p66
sbatp67
Rp68
(dp69
g11
S'sent: 4'
p70
sbag0
(g1
g2
(lp71
g0
(g1
g2
(lp72
VThe clown
p73
atp74
Rp75
(dp76
g11
S'start: 1'
p77
sbatp78
Rp79
(dp80
g11
S'sent: 6'
p81
sbag0
(g1
g2
(lp82
g0
(g1
g2
(lp83
Vhis
p84
atp85
Rp86
(dp87
g11
S'start: 7'
p88
sbatp89
Rp90
(dp91
g11
S'sent: 6'
p92
sbag0
(g1
g2
(lp93
g0
(g1
g2
(lp94
Vhe
p95
atp96
Rp97
(dp98
g11
S'start: 10'
p99
sbatp100
Rp101
(dp102
g11
S'sent: 6'
p103
sbag0
(g1
g2
(lp104
g0
(g1
g2
(lp105
Vhe
p106
atp107
Rp108
(dp109
g11
S'start: 19'
p110
sbatp111
Rp112
(dp113
g11
S'sent: 6'
p114
sbag0
(g1
g2
(lp115
g0
(g1
g2
(lp116
VHe
p117
atp118
Rp119
(dp120
g11
S'start: 1'
p121
sbatp122
Rp123
(dp124
g11
S'sent: 7'
p125
sbag0
(g1
g2
(lp126
g0
(g1
g2
(lp127
Vthe clown
p128
atp129
Rp130
(dp131
g11
S'start: 18'
p132
sbatp133
Rp134
(dp135
g11
S'sent: 9'
p136
sbatp137
Rp138
(dp139
g11
S'id: 20'
p140
sbag0
(g1
g2
(lp141
g0
(g1
g2
(lp142
g0
(g1
g2
(lp143
Vthe ring master
p144
atp145
Rp146
(dp147
g11
S'start: 5'
p148
sbatp149
Rp150
(dp151
g11
S'sent: 5'
p152
sbag0
(g1
g2
(lp153
g0
(g1
g2
(lp154
Vring master
p155
atp156
Rp157
(dp158
g11
S'start: 16'
p159
sbatp160
Rp161
(dp162
g11
S'sent: 5'
p163
sbag0
(g1
g2
(lp164
g0
(g1
g2
(lp165
Vhe
p166
atp167
Rp168
(dp169
g11
S'start: 33'
p170
sbatp171
Rp172
(dp173
g11
S'sent: 5'
p174
sbatp175
Rp176
(dp177
g11
S'id: 26'
p178
sbag0
(g1
g2
(lp179
g0
(g1
g2
(lp180
g0
(g1
g2
(lp181
Vno
p182
atp183
Rp184
(dp185
g11
S'start: 10'
p186
sbatp187
Rp188
(dp189
g11
S'sent: 5'
p190
sbag0
(g1
g2
(lp191
g0
(g1
g2
(lp192
Vher
p193
atp194
Rp195
(dp196
g11
S'start: 7'
p197
sbatp198
Rp199
(dp200
g11
S'sent: 8'
p201
sbatp202
Rp203
(dp204
g11
S'id: 27'
p205
sbag0
(g1
g2
(lp206
g0
(g1
g2
(lp207
g0
(g1
g2
(lp208
VI
p209
atp210
Rp211
(dp212
g11
S'start: 13'
p213
sbatp214
Rp215
(dp216
g11
S'sent: 5'
p217
sbag0
(g1
g2
(lp218
g0
(g1
g2
(lp219
VI
p220
atp221
Rp222
(dp223
g11
S'start: 53'
p224
sbatp225
Rp226
(dp227
g11
S'sent: 5'
p228
sbag0
(g1
g2
(lp229
g0
(g1
g2
(lp230
VI
p231
atp232
Rp233
(dp234
g11
S'start: 1'
p235
sbatp236
Rp237
(dp238
g11
S'sent: 9'
p239
sbag0
(g1
g2
(lp240
g0
(g1
g2
(lp241
VI
p242
atp243
Rp244
(dp245
g11
S'start: 28'
p246
sbatp247
Rp248
(dp249
g11
S'sent: 10'
p250
sbatp251
Rp252
(dp253
g11
S'id: 28'
p254
sbag0
(g1
g2
(lp255
g0
(g1
g2
(lp256
g0
(g1
g2
(lp257
Vthe lion
p258
atp259
Rp260
(dp261
g11
S'start: 20'
p262
sbatp263
Rp264
(dp265
g11
S'sent: 5'
p266
sbag0
(g1
g2
(lp267
g0
(g1
g2
(lp268
Vthe lion
p269
atp270
Rp271
(dp272
g11
S'start: 24'
p273
sbatp274
Rp275
(dp276
g11
S'sent: 5'
p277
sbag0
(g1
g2
(lp278
g0
(g1
g2
(lp279
Vit
p280
atp281
Rp282
(dp283
g11
S'start: 30'
p284
sbatp285
Rp286
(dp287
g11
S'sent: 5'
p288
sbag0
(g1
g2
(lp289
g0
(g1
g2
(lp290
Vthe lion
p291
atp292
Rp293
(dp294
g11
S'start: 55'
p295
sbatp296
Rp297
(dp298
g11
S'sent: 5'
p299
sbag0
(g1
g2
(lp300
g0
(g1
g2
(lp301
Vthe lion
p302
atp303
Rp304
(dp305
g11
S'start: 10'
p306
sbatp307
Rp308
(dp309
g11
S'sent: 9'
p310
sbatp311
Rp312
(dp313
g11
S'id: 30'
p314
sbag0
(g1
g2
(lp315
g0
(g1
g2
(lp316
g0
(g1
g2
(lp317
Va little girl with her father
p318
atp319
Rp320
(dp321
g11
S'start: 3'
p322
sbatp323
Rp324
(dp325
g11
S'sent: 8'
p326
sbag0
(g1
g2
(lp327
g0
(g1
g2
(lp328
Vshe
p329
atp330
Rp331
(dp332
g11
S'start: 6'
p333
sbatp334
Rp335
(dp336
g11
S'sent: 9'
p337
sbag0
(g1
g2
(lp338
g0
(g1
g2
(lp339
Vshe
p340
atp341
Rp342
(dp343
g11
S'start: 14'
p344
sbatp345
Rp346
(dp347
g11
S'sent: 9'
p348
sbatp349
Rp350
(dp351
g11
S'id: 54'
p352
sbag0
(g1
g2
(lp353
g0
(g1
g2
(lp354
g0
(g1
g2
(lp355
Vthey
p356
atp357
Rp358
(dp359
g11
S'start: 22'
p360
sbatp361
Rp362
(dp363
g11
S'sent: 9'
p364
sbag0
(g1
g2
(lp365
g0
(g1
g2
(lp366
Vthemselves , as well as the other family over here
p367
atp368
Rp369
(dp370
g11
S'start: 27'
p371
sbatp372
Rp373
(dp374
g11
S'sent: 9'
p375
sbag0
(g1
g2
(lp376
g0
(g1
g2
(lp377
Vthemselves
p378
atp379
Rp380
(dp381
g11
S'start: 27'
p382
sbatp383
Rp384
(dp385
g11
S'sent: 9'
p386
sbatp387
Rp388
(dp389
g11
S'id: 62'
p390
sbag0
(g1
g2
(lp391
g0
(g1
g2
(lp392
g0
(g1
g2
(lp393
Vthe
p394
atp395
Rp396
(dp397
g11
S'start: 7'
p398
sbatp399
Rp400
(dp401
g11
S'sent: 10'
p402
sbag0
(g1
g2
(lp403
g0
(g1
g2
(lp404
Vit
p405
atp406
Rp407
(dp408
g11
S'start: 21'
p409
sbatp410
Rp411
(dp412
g11
S'sent: 10'
p413
sbag0
(g1
g2
(lp414
g0
(g1
g2
(lp415
Va from
p416
atp417
Rp418
(dp419
g11
S'start: 23'
p420
sbatp421
Rp422
(dp423
g11
S'sent: 10'
p424
sbatp425
Rp426
(dp427
g11
S'id: 69'
p428
sbatp429
Rp430
(dp431
g11
S'coreferences'
p432
sb.