ccopy_reg
_reconstructor
p0
(cnltk.tree
Tree
p1
c__builtin__
list
p2
(lp3
g0
(g1
g2
(lp4
g0
(g1
g2
(lp5
g0
(g1
g2
(lp6
(lp7
S'word: Here, index: 1'
p8
aatp9
Rp10
(dp11
S'_label'
p12
Vadvmod
p13
sbag0
(g1
g2
(lp14
(lp15
S'word: we, index: 2'
p16
aatp17
Rp18
(dp19
g12
Vnsubj
p20
sbatp21
Rp22
(dp23
g12
S'word: are, index: 3'
p24
sbatp25
Rp26
(dp27
g12
S'id: 0'
p28
sbag0
(g1
g2
(lp29
g0
(g1
g2
(lp30
g0
(g1
g2
(lp31
g0
(g1
g2
(lp32
g0
(g1
g2
(lp33
(lp34
S'word: you, index: 20'
p35
aatp36
Rp37
(dp38
g12
Vnsubj
p39
sbag0
(g1
g2
(lp40
g0
(g1
g2
(lp41
g0
(g1
g2
(lp42
(lp43
S'word: the, index: 23'
p44
aatp45
Rp46
(dp47
g12
Vdet
p48
sbatp49
Rp50
(dp51
g12
S'word: friend, index: 24'
p52
sbatp53
Rp54
(dp55
g12
Vdobj
p56
sbag0
(g1
g2
(lp57
(lp58
S'word: here, index: 25'
p59
aatp60
Rp61
(dp62
g12
Vadvmod
p63
sbag0
(g1
g2
(lp64
(lp65
S'word: then, index: 14'
p66
aatp67
Rp68
(dp69
g12
Vadvmod
p70
sbag0
(g1
g2
(lp71
g0
(g1
g2
(lp72
g0
(g1
g2
(lp73
(lp74
S'word: they, index: 15'
p75
aatp76
Rp77
(dp78
g12
Vnsubj
p79
sbag0
(g1
g2
(lp80
g0
(g1
g2
(lp81
g0
(g1
g2
(lp82
(lp83
S'word: the, index: 17'
p84
aatp85
Rp86
(dp87
g12
Vdet
p88
sbatp89
Rp90
(dp91
g12
S'word: person, index: 18'
p92
sbatp93
Rp94
(dp95
g12
Vdobj
p96
sbatp97
Rp98
(dp99
g12
S'word: have, index: 16'
p100
sbatp101
Rp102
(dp103
g12
Vccomp
p104
sbatp105
Rp106
(dp107
g12
S'word: know, index: 21'
p108
sbatp109
Rp110
(dp111
g12
Vconj
p112
sbag0
(g1
g2
(lp113
g0
(g1
g2
(lp114
g0
(g1
g2
(lp115
g0
(g1
g2
(lp116
g0
(g1
g2
(lp117
(lp118
S'word: a, index: 5'
p119
aatp120
Rp121
(dp122
g12
Vdet
p123
sbatp124
Rp125
(dp126
g12
S'word: G-I-S-10-I-S, index: 6'
p127
sbatp128
Rp129
(dp130
g12
Vnsubj
p131
sbag0
(g1
g2
(lp132
(lp133
S'word: they, index: 8'
p134
aatp135
Rp136
(dp137
g12
Vnsubj
p138
sbag0
(g1
g2
(lp139
g0
(g1
g2
(lp140
g0
(g1
g2
(lp141
(lp142
S'word: all, index: 10'
p143
aatp144
Rp145
(dp146
g12
Vdep
p147
sbatp148
Rp149
(dp150
g12
S'word: here, index: 11'
p151
sbatp152
Rp153
(dp154
g12
Vadvmod
p155
sbatp156
Rp157
(dp158
g12
S"word: 're, index: 9"
p159
sbatp160
Rp161
(dp162
g12
Vdep
p163
sbag0
(g1
g2
(lp164
(lp165
S'word: So, index: 1'
p166
aatp167
Rp168
(dp169
g12
Vadvmod
p170
sbag0
(g1
g2
(lp171
(lp172
S'word: everybody, index: 2'
p173
aatp174
Rp175
(dp176
g12
Vnsubj
p177
sbatp178
Rp179
(dp180
g12
S'word: has, index: 3'
p181
sbatp182
Rp183
(dp184
g12
S'id: 1'
p185
sbag0
(g1
g2
(lp186
g0
(g1
g2
(lp187
g0
(g1
g2
(lp188
g0
(g1
g2
(lp189
g0
(g1
g2
(lp190
(lp191
S'word: not, index: 6'
p192
aatp193
Rp194
(dp195
g12
Vneg
p196
sbag0
(g1
g2
(lp197
(lp198
S'word: now, index: 8'
p199
aatp200
Rp201
(dp202
g12
Vdep
p203
sbag0
(g1
g2
(lp204
g0
(g1
g2
(lp205
g0
(g1
g2
(lp206
(lp207
S'word: the, index: 11'
p208
aatp209
Rp210
(dp211
g12
Vdet
p212
sbag0
(g1
g2
(lp213
(lp214
S'word: everybody, index: 14'
p215
aatp216
Rp217
(dp218
g12
Vprep
p219
sbatp220
Rp221
(dp222
g12
S'word: B-I-N-T, index: 12'
p223
sbatp224
Rp225
(dp226
g12
Vconj
p227
sbag0
(g1
g2
(lp228
(lp229
S'word: maybe, index: 5'
p230
aatp231
Rp232
(dp233
g12
Vadvmod
p234
sbatp235
Rp236
(dp237
g12
S'word: right, index: 7'
p238
sbatp239
Rp240
(dp241
g12
Vprep
p242
sbag0
(g1
g2
(lp243
g221
atp244
Rp245
(dp246
g12
Vprep
p247
sbag0
(g1
g2
(lp248
(lp249
S'word: Everybody, index: 1'
p250
aatp251
Rp252
(dp253
g12
Vnsubj
p254
sbag0
(g1
g2
(lp255
(lp256
S'word: to, index: 3'
p257
aatp258
Rp259
(dp260
g12
Vprep
p261
sbatp262
Rp263
(dp264
g12
S'word: wants, index: 2'
p265
sbatp266
Rp267
(dp268
g12
S'id: 2'
p269
sbag0
(g1
g2
(lp270
g0
(g1
g2
(lp271
g0
(g1
g2
(lp272
g0
(g1
g2
(lp273
g0
(g1
g2
(lp274
(lp275
S'word: he, index: 25'
p276
aatp277
Rp278
(dp279
g12
Vnsubj
p280
sbag0
(g1
g2
(lp281
(lp282
S"word: 's, index: 26"
p283
aatp284
Rp285
(dp286
g12
Vaux
p287
sbag0
(g1
g2
(lp288
(lp289
S'word: him, index: 29'
p290
aatp291
Rp292
(dp293
g12
Vprep
p294
sbatp295
Rp296
(dp297
g12
S'word: working, index: 27'
p298
sbatp299
Rp300
(dp301
g12
Vconj
p302
sbag0
(g1
g2
(lp303
g0
(g1
g2
(lp304
g0
(g1
g2
(lp305
(lp306
S'word: This, index: 1'
p307
aatp308
Rp309
(dp310
g12
Vdet
p311
sbatp312
Rp313
(dp314
g12
S'word: area, index: 2'
p315
sbatp316
Rp317
(dp318
g12
Vnsubj
p319
sbag0
(g1
g2
(lp320
g0
(g1
g2
(lp321
g0
(g1
g2
(lp322
(lp323
S'word: they, index: 12'
p324
aatp325
Rp326
(dp327
g12
Vnsubj
p328
sbag0
(g1
g2
(lp329
g0
(g1
g2
(lp330
g0
(g1
g2
(lp331
(lp332
S'word: you, index: 14'
p333
aatp334
Rp335
(dp336
g12
Vnsubj
p337
sbatp338
Rp339
(dp340
g12
S'word: know, index: 15'
p341
sbatp342
Rp343
(dp344
g12
Vparataxis
p345
sbag0
(g1
g2
(lp346
(lp347
S'word: he, index: 17'
p348
aatp349
Rp350
(dp351
g12
Vnsubj
p352
sbag0
(g1
g2
(lp353
g0
(g1
g2
(lp354
g0
(g1
g2
(lp355
(lp356
S'word: these, index: 21'
p357
aatp358
Rp359
(dp360
g12
Vprep
p361
sbatp362
Rp363
(dp364
g12
S'word: one, index: 19'
p365
sbatp366
Rp367
(dp368
g12
Vdobj
p369
sbag0
(g1
g2
(lp370
(lp371
S'word: there, index: 22'
p372
aatp373
Rp374
(dp375
g12
Vadvmod
p376
sbatp377
Rp378
(dp379
g12
S'word: has, index: 18'
p380
sbatp381
Rp382
(dp383
g12
Vccomp
p384
sbag0
(g1
g2
(lp385
(lp386
S'word: is, index: 3'
p387
aatp388
Rp389
(dp390
g12
Vaux
p391
sbag0
(g1
g2
(lp392
(lp393
S'word: themself, index: 5'
p394
aatp395
Rp396
(dp397
g12
Vadvmod
p398
sbag0
(g1
g2
(lp399
g0
(g1
g2
(lp400
g0
(g1
g2
(lp401
g0
(g1
g2
(lp402
g0
(g1
g2
(lp403
(lp404
S'word: good, index: 9'
p405
aatp406
Rp407
(dp408
g12
Vamod
p409
sbag0
(g1
g2
(lp410
(lp411
S'word: a, index: 8'
p412
aatp413
Rp414
(dp415
g12
Vdet
p416
sbatp417
Rp418
(dp419
g12
S'word: day, index: 10'
p420
sbatp421
Rp422
(dp423
g12
Vtmod
p424
sbag0
(g1
g2
(lp425
(lp426
S'word: to, index: 6'
p427
aatp428
Rp429
(dp430
g12
Vaux
p431
sbatp432
Rp433
(dp434
g12
S'word: have, index: 7'
p435
sbatp436
Rp437
(dp438
g12
Vxcomp
p439
sbatp440
Rp441
(dp442
g12
S'word: working, index: 4'
p443
sbatp444
Rp445
(dp446
g12
S'id: 3'
p447
sbag0
(g1
g2
(lp448
g0
(g1
g2
(lp449
g0
(g1
g2
(lp450
g0
(g1
g2
(lp451
g0
(g1
g2
(lp452
(lp453
S'word: you, index: 13'
p454
aatp455
Rp456
(dp457
g12
Vnsubj
p458
sbatp459
Rp460
(dp461
g12
S'word: know, index: 14'
p462
sbatp463
Rp464
(dp465
g12
Vparataxis
p466
sbag0
(g1
g2
(lp467
(lp468
S'word: I, index: 1'
p469
aatp470
Rp471
(dp472
g12
Vnsubj
p473
sbag0
(g1
g2
(lp474
(lp475
S'word: do, index: 2'
p476
aatp477
Rp478
(dp479
g12
Vaux
p480
sbag0
(g1
g2
(lp481
(lp482
S"word: n't, index: 3"
p483
aatp484
Rp485
(dp486
g12
Vneg
p487
sbag0
(g1
g2
(lp488
g0
(g1
g2
(lp489
g0
(g1
g2
(lp490
g0
(g1
g2
(lp491
g0
(g1
g2
(lp492
(lp493
S'word: everything, index: 17'
p494
aatp495
Rp496
(dp497
g12
Vdobj
p498
sbatp499
Rp500
(dp501
g12
S'word: opening, index: 16'
p502
sbatp503
Rp504
(dp505
g12
Vvmod
p506
sbag0
(g1
g2
(lp507
(lp508
S'word: you, index: 19'
p509
aatp510
Rp511
(dp512
g12
Vnsubj
p513
sbatp514
Rp515
(dp516
g12
S'word: know, index: 20'
p517
sbatp518
Rp519
(dp520
g12
Vparataxis
p521
sbag0
(g1
g2
(lp522
g0
(g1
g2
(lp523
g0
(g1
g2
(lp524
(lp525
S'word: this, index: 5'
p526
aatp527
Rp528
(dp529
g12
Vdet
p530
sbatp531
Rp532
(dp533
g12
S'word: much, index: 6'
p534
sbatp535
Rp536
(dp537
g12
Vdobj
p538
sbag0
(g1
g2
(lp539
(lp540
S'word: terrible, index: 22'
p541
aatp542
Rp543
(dp544
g12
Vdep
p545
sbag0
(g1
g2
(lp546
g0
(g1
g2
(lp547
g0
(g1
g2
(lp548
(lp549
S'word: they, index: 8'
p550
aatp551
Rp552
(dp553
g12
Vnsubj
p554
sbag0
(g1
g2
(lp555
g0
(g1
g2
(lp556
g0
(g1
g2
(lp557
(lp558
S'word: a, index: 10'
p559
aatp560
Rp561
(dp562
g12
Vdet
p563
sbatp564
Rp565
(dp566
g12
S'word: person, index: 11'
p567
sbatp568
Rp569
(dp570
g12
Vdobj
p571
sbatp572
Rp573
(dp574
g12
S'word: have, index: 9'
p575
sbatp576
Rp577
(dp578
g12
Vparataxis
p579
sbatp580
Rp581
(dp582
g12
S'word: like, index: 4'
p583
sbatp584
Rp585
(dp586
g12
S'id: 4'
p587
sbag0
(g1
g2
(lp588
g0
(g1
g2
(lp589
g0
(g1
g2
(lp590
(lp591
S'word: his, index: 2'
p592
aatp593
Rp594
(dp595
g12
Vnsubj
p596
sbag0
(g1
g2
(lp597
g0
(g1
g2
(lp598
g0
(g1
g2
(lp599
(lp600
S'word: friend, index: 4'
p601
aatp602
Rp603
(dp604
g12
Vnsubj
p605
sbatp606
Rp607
(dp608
g12
S'word: is, index: 5'
p609
sbatp610
Rp611
(dp612
g12
Vparataxis
p613
sbag0
(g1
g2
(lp614
g0
(g1
g2
(lp615
g0
(g1
g2
(lp616
(lp617
S'word: outdoors, index: 9'
p618
aatp619
Rp620
(dp621
g12
Vadvmod
p622
sbatp623
Rp624
(dp625
g12
S'word: being, index: 8'
p626
sbatp627
Rp628
(dp629
g12
Vxcomp
p630
sbag0
(g1
g2
(lp631
g0
(g1
g2
(lp632
g0
(g1
g2
(lp633
g0
(g1
g2
(lp634
g0
(g1
g2
(lp635
g0
(g1
g2
(lp636
g0
(g1
g2
(lp637
(lp638
S'word: even, index: 15'
p639
aatp640
Rp641
(dp642
g12
Vadvmod
p643
sbag0
(g1
g2
(lp644
(lp645
S'word: though, index: 16'
p646
aatp647
Rp648
(dp649
g12
Vmark
p650
sbag0
(g1
g2
(lp651
(lp652
S'word: it, index: 17'
p653
aatp654
Rp655
(dp656
g12
Vnsubj
p657
sbag0
(g1
g2
(lp658
(lp659
S"word: 's, index: 18"
p660
aatp661
Rp662
(dp663
g12
Vcop
p664
sbag0
(g1
g2
(lp665
(lp666
S'word: very, index: 19'
p667
aatp668
Rp669
(dp670
g12
Vadvmod
p671
sbatp672
Rp673
(dp674
g12
S'word: nice, index: 20'
p675
sbatp676
Rp677
(dp678
g12
Vadvcl
p679
sbag0
(g1
g2
(lp680
(lp681
S'word: it, index: 22'
p682
aatp683
Rp684
(dp685
g12
Vnsubj
p686
sbag0
(g1
g2
(lp687
g0
(g1
g2
(lp688
g0
(g1
g2
(lp689
(lp690
S'word: it, index: 25'
p691
aatp692
Rp693
(dp694
g12
Vnsubj
p695
sbag0
(g1
g2
(lp696
(lp697
S"word: 's, index: 26"
p698
aatp699
Rp700
(dp701
g12
Vcop
p702
sbatp703
Rp704
(dp705
g12
S'word: W-I-N-D-Y, index: 27'
p706
sbatp707
Rp708
(dp709
g12
Vccomp
p710
sbatp711
Rp712
(dp713
g12
S"word: 's, index: 23"
p714
sbatp715
Rp716
(dp717
g12
Vccomp
p718
sbag0
(g1
g2
(lp719
(lp720
S'word: you, index: 12'
p721
aatp722
Rp723
(dp724
g12
Vnsubj
p725
sbatp726
Rp727
(dp728
g12
S'word: know, index: 13'
p729
sbatp730
Rp731
(dp732
g12
Vconj
p733
sbatp734
Rp735
(dp736
g12
S'word: is, index: 7'
p737
sbatp738
Rp739
(dp740
g12
S'id: 5'
p741
sbag0
(g1
g2
(lp742
g0
(g1
g2
(lp743
g0
(g1
g2
(lp744
g0
(g1
g2
(lp745
g0
(g1
g2
(lp746
(lp747
S'word: they, index: 4'
p748
aatp749
Rp750
(dp751
g12
Vnsubj
p752
sbag0
(g1
g2
(lp753
g0
(g1
g2
(lp754
g0
(g1
g2
(lp755
(lp756
S'word: way, index: 6'
p757
aatp758
Rp759
(dp760
g12
Vdep
p761
sbatp762
Rp763
(dp764
g12
S'word: up, index: 7'
p765
sbatp766
Rp767
(dp768
g12
Vadvmod
p769
sbag0
(g1
g2
(lp770
(lp771
S'word: there, index: 8'
p772
aatp773
Rp774
(dp775
g12
Vadvmod
p776
sbatp777
Rp778
(dp779
g12
S'word: get, index: 5'
p780
sbatp781
Rp782
(dp783
g12
Vdep
p784
sbag0
(g1
g2
(lp785
g0
(g1
g2
(lp786
g0
(g1
g2
(lp787
(lp788
S'word: it, index: 24'
p789
aatp790
Rp791
(dp792
g12
Vnsubj
p793
sbag0
(g1
g2
(lp794
(lp795
S"word: 's, index: 25"
p796
aatp797
Rp798
(dp799
g12
Vcop
p800
sbag0
(g1
g2
(lp801
(lp802
S'word: very, index: 26'
p803
aatp804
Rp805
(dp806
g12
Vadvmod
p807
sbatp808
Rp809
(dp810
g12
S'word: nice, index: 27'
p811
sbatp812
Rp813
(dp814
g12
Vconj
p815
sbag0
(g1
g2
(lp816
g0
(g1
g2
(lp817
g0
(g1
g2
(lp818
(lp819
S'word: they, index: 11'
p820
aatp821
Rp822
(dp823
g12
Vnsubj
p824
sbag0
(g1
g2
(lp825
g809
atp826
Rp827
(dp828
g12
Vconj
p829
sbag0
(g1
g2
(lp830
(lp831
S'word: actually, index: 12'
p832
aatp833
Rp834
(dp835
g12
Vadvmod
p836
sbag0
(g1
g2
(lp837
g0
(g1
g2
(lp838
g0
(g1
g2
(lp839
g0
(g1
g2
(lp840
g0
(g1
g2
(lp841
g0
(g1
g2
(lp842
g0
(g1
g2
(lp843
(lp844
S'word: the, index: 19'
p845
aatp846
Rp847
(dp848
g12
Vdet
p849
sbag0
(g1
g2
(lp850
(lp851
S'word: same, index: 20'
p852
aatp853
Rp854
(dp855
g12
Vamod
p856
sbatp857
Rp858
(dp859
g12
S'word: area, index: 21'
p860
sbatp861
Rp862
(dp863
g12
Vprep
p864
sbag0
(g1
g2
(lp865
(lp866
S'word: another, index: 16'
p867
aatp868
Rp869
(dp870
g12
Vdet
p871
sbatp872
Rp873
(dp874
g12
S'word: one, index: 17'
p875
sbatp876
Rp877
(dp878
g12
Vappos
p879
sbatp880
Rp881
(dp882
g12
S'word: here, index: 14'
p883
sbatp884
Rp885
(dp886
g12
Vdobj
p887
sbatp888
Rp889
(dp890
g12
S'word: have, index: 13'
p891
sbatp892
Rp893
(dp894
g12
Vconj
p895
sbag0
(g1
g2
(lp896
(lp897
S'word: You, index: 1'
p898
aatp899
Rp900
(dp901
g12
Vnsubj
p902
sbatp903
Rp904
(dp905
g12
S'word: know, index: 2'
p906
sbatp907
Rp908
(dp909
g12
S'id: 6'
p910
sbag0
(g1
g2
(lp911
g0
(g1
g2
(lp912
g0
(g1
g2
(lp913
(lp914
S'word: he, index: 10'
p915
aatp916
Rp917
(dp918
g12
Vnsubj
p919
sbag0
(g1
g2
(lp920
g0
(g1
g2
(lp921
g0
(g1
g2
(lp922
g0
(g1
g2
(lp923
g0
(g1
g2
(lp924
(lp925
S'word: working, index: 15'
p926
aatp927
Rp928
(dp929
g12
Vamod
p930
sbag0
(g1
g2
(lp931
g0
(g1
g2
(lp932
g0
(g1
g2
(lp933
(lp934
S'word: each, index: 17'
p935
aatp936
Rp937
(dp938
g12
Vdet
p939
sbatp940
Rp941
(dp942
g12
S'word: other, index: 18'
p943
sbatp944
Rp945
(dp946
g12
Vprep
p947
sbatp948
Rp949
(dp950
g12
S'word: a, index: 14'
p951
sbatp952
Rp953
(dp954
g12
Vappos
p955
sbatp956
Rp957
(dp958
g12
S'word: a, index: 12'
p959
sbatp960
Rp961
(dp962
g12
Vdobj
p963
sbag0
(g1
g2
(lp964
g0
(g1
g2
(lp965
g0
(g1
g2
(lp966
g0
(g1
g2
(lp967
g0
(g1
g2
(lp968
(lp969
S'word: that, index: 5'
p970
aatp971
Rp972
(dp973
g12
Vmark
p974
sbag0
(g1
g2
(lp975
(lp976
S'word: you, index: 7'
p977
aatp978
Rp979
(dp980
g12
Vnsubj
p981
sbatp982
Rp983
(dp984
g12
S'word: know, index: 8'
p985
sbatp986
Rp987
(dp988
g12
Vccomp
p989
sbag0
(g1
g2
(lp990
g0
(g1
g2
(lp991
g0
(g1
g2
(lp992
(lp993
S'word: This, index: 1'
p994
aatp995
Rp996
(dp997
g12
Vdet
p998
sbatp999
Rp1000
(dp1001
g12
S'word: gentlemen, index: 2'
p1002
sbatp1003
Rp1004
(dp1005
g12
Vnsubj
p1006
sbag0
(g1
g2
(lp1007
(lp1008
S'word: here, index: 3'
p1009
aatp1010
Rp1011
(dp1012
g12
Vadvmod
p1013
sbatp1014
Rp1015
(dp1016
g12
S'word: says, index: 4'
p1017
sbatp1018
Rp1019
(dp1020
g12
Vccomp
p1021
sbatp1022
Rp1023
(dp1024
g12
S'word: has, index: 11'
p1025
sbatp1026
Rp1027
(dp1028
g12
S'id: 7'
p1029
sbag0
(g1
g2
(lp1030
g0
(g1
g2
(lp1031
g0
(g1
g2
(lp1032
(lp1033
S'word: he, index: 9'
p1034
aatp1035
Rp1036
(dp1037
g12
Vnsubj
p1038
sbag0
(g1
g2
(lp1039
g0
(g1
g2
(lp1040
g0
(g1
g2
(lp1041
(lp1042
S'word: he, index: 12'
p1043
aatp1044
Rp1045
(dp1046
g12
Vnsubj
p1047
sbag0
(g1
g2
(lp1048
g0
(g1
g2
(lp1049
g0
(g1
g2
(lp1050
g0
(g1
g2
(lp1051
g0
(g1
g2
(lp1052
(lp1053
S'word: to, index: 15'
p1054
aatp1055
Rp1056
(dp1057
g12
Vaux
p1058
sbag0
(g1
g2
(lp1059
(lp1060
S'word: it, index: 17'
p1061
aatp1062
Rp1063
(dp1064
g12
Vdobj
p1065
sbag0
(g1
g2
(lp1066
(lp1067
S'word: home, index: 18'
p1068
aatp1069
Rp1070
(dp1071
g12
Vadvmod
p1072
sbatp1073
Rp1074
(dp1075
g12
S'word: bring, index: 16'
p1076
sbatp1077
Rp1078
(dp1079
g12
Vdep
p1080
sbatp1081
Rp1082
(dp1083
g12
S'word: up, index: 14'
p1084
sbatp1085
Rp1086
(dp1087
g12
Vadvmod
p1088
sbatp1089
Rp1090
(dp1091
g12
S"word: 's, index: 13"
p1092
sbatp1093
Rp1094
(dp1095
g12
Vccomp
p1096
sbag0
(g1
g2
(lp1097
(lp1098
S'word: And, index: 1'
p1099
aatp1100
Rp1101
(dp1102
g12
Vcc
p1103
sbag0
(g1
g2
(lp1104
g0
(g1
g2
(lp1105
g0
(g1
g2
(lp1106
(lp1107
S'word: and, index: 3'
p1108
aatp1109
Rp1110
(dp1111
g12
Vcc
p1112
sbag0
(g1
g2
(lp1113
(lp1114
S'word: he, index: 4'
p1115
aatp1116
Rp1117
(dp1118
g12
Vnsubjpass
p1119
sbag0
(g1
g2
(lp1120
(lp1121
S"word: 's, index: 5"
p1122
aatp1123
Rp1124
(dp1125
g12
Vauxpass
p1126
sbag0
(g1
g2
(lp1127
(lp1128
S'word: one, index: 7'
p1129
aatp1130
Rp1131
(dp1132
g12
Vdobj
p1133
sbatp1134
Rp1135
(dp1136
g12
S'word: got, index: 6'
p1137
sbatp1138
Rp1139
(dp1140
g12
Vparataxis
p1141
sbatp1142
Rp1143
(dp1144
g12
S"word: 's, index: 10"
p1145
sbatp1146
Rp1147
(dp1148
g12
S'id: 8'
p1149
sbag0
(g1
g2
(lp1150
g0
(g1
g2
(lp1151
g0
(g1
g2
(lp1152
(lp1153
S'word: And, index: 1'
p1154
aatp1155
Rp1156
(dp1157
g12
Vcc
p1158
sbag0
(g1
g2
(lp1159
(lp1160
S'word: so, index: 3'
p1161
aatp1162
Rp1163
(dp1164
g12
Vdep
p1165
sbag0
(g1
g2
(lp1166
(lp1167
S'word: it, index: 4'
p1168
aatp1169
Rp1170
(dp1171
g12
Vnsubj
p1172
sbag0
(g1
g2
(lp1173
g0
(g1
g2
(lp1174
g0
(g1
g2
(lp1175
(lp1176
S'word: very, index: 6'
p1177
aatp1178
Rp1179
(dp1180
g12
Vadvmod
p1181
sbag0
(g1
g2
(lp1182
(lp1183
S'word: there, index: 8'
p1184
aatp1185
Rp1186
(dp1187
g12
Vexpl
p1188
sbatp1189
Rp1190
(dp1191
g12
S'word: nice, index: 7'
p1192
sbatp1193
Rp1194
(dp1195
g12
Vacomp
p1196
sbatp1197
Rp1198
(dp1199
g12
S"word: 's, index: 5"
p1200
sbatp1201
Rp1202
(dp1203
g12
S'id: 9'
p1204
sbag0
(g1
g2
(lp1205
g0
(g1
g2
(lp1206
g0
(g1
g2
(lp1207
(lp1208
S'word: So, index: 1'
p1209
aatp1210
Rp1211
(dp1212
g12
Vadvmod
p1213
sbag0
(g1
g2
(lp1214
(lp1215
S'word: so, index: 3'
p1216
aatp1217
Rp1218
(dp1219
g12
Vadvmod
p1220
sbag0
(g1
g2
(lp1221
(lp1222
S'word: they, index: 5'
p1223
aatp1224
Rp1225
(dp1226
g12
Vnsubj
p1227
sbag0
(g1
g2
(lp1228
(lp1229
S'word: they, index: 7'
p1230
aatp1231
Rp1232
(dp1233
g12
Vnsubj
p1234
sbag0
(g1
g2
(lp1235
g0
(g1
g2
(lp1236
g0
(g1
g2
(lp1237
(lp1238
S'word: a, index: 9'
p1239
aatp1240
Rp1241
(dp1242
g12
Vdet
p1243
sbag0
(g1
g2
(lp1244
(lp1245
S'word: good, index: 10'
p1246
aatp1247
Rp1248
(dp1249
g12
Vamod
p1250
sbatp1251
Rp1252
(dp1253
g12
S'word: day, index: 11'
p1254
sbatp1255
Rp1256
(dp1257
g12
Vdobj
p1258
sbag0
(g1
g2
(lp1259
(lp1260
S'word: there, index: 12'
p1261
aatp1262
Rp1263
(dp1264
g12
Vtmod
p1265
sbatp1266
Rp1267
(dp1268
g12
S'word: have, index: 8'
p1269
sbatp1270
Rp1271
(dp1272
g12
S'id: 10'
p1273
sbag0
(g1
g2
(lp1274
g0
(g1
g2
(lp1275
g0
(g1
g2
(lp1276
(lp1277
S'word: So, index: 1'
p1278
aatp1279
Rp1280
(dp1281
g12
Vadvmod
p1282
sbag0
(g1
g2
(lp1283
(lp1284
S'word: so, index: 3'
p1285
aatp1286
Rp1287
(dp1288
g12
Vadvmod
p1289
sbag0
(g1
g2
(lp1290
(lp1291
S'word: it, index: 5'
p1292
aatp1293
Rp1294
(dp1295
g12
Vnsubj
p1296
sbag0
(g1
g2
(lp1297
(lp1298
S"word: 's, index: 6"
p1299
aatp1300
Rp1301
(dp1302
g12
Vcop
p1303
sbatp1304
Rp1305
(dp1306
g12
S'word: nice, index: 7'
p1307
sbatp1308
Rp1309
(dp1310
g12
S'id: 11'
p1311
sbag0
(g1
g2
(lp1312
g0
(g1
g2
(lp1313
g0
(g1
g2
(lp1314
(lp1315
S'word: they, index: 6'
p1316
aatp1317
Rp1318
(dp1319
g12
Vnsubj
p1320
sbag0
(g1
g2
(lp1321
g0
(g1
g2
(lp1322
g0
(g1
g2
(lp1323
(lp1324
S'word: that, index: 8'
p1325
aatp1326
Rp1327
(dp1328
g12
Vnsubj
p1329
sbatp1330
Rp1331
(dp1332
g12
S"word: 's, index: 9"
p1333
sbatp1334
Rp1335
(dp1336
g12
Vadvcl
p1337
sbag0
(g1
g2
(lp1338
(lp1339
S'word: I, index: 11'
p1340
aatp1341
Rp1342
(dp1343
g12
Vnsubj
p1344
sbag0
(g1
g2
(lp1345
g0
(g1
g2
(lp1346
g0
(g1
g2
(lp1347
(lp1348
S'word: that, index: 13'
p1349
aatp1350
Rp1351
(dp1352
g12
Vnsubj
p1353
sbag0
(g1
g2
(lp1354
(lp1355
S"word: 's, index: 14"
p1356
aatp1357
Rp1358
(dp1359
g12
Vcop
p1360
sbag0
(g1
g2
(lp1361
(lp1362
S'word: pretty, index: 15'
p1363
aatp1364
Rp1365
(dp1366
g12
Vadvmod
p1367
sbag0
(g1
g2
(lp1368
g0
(g1
g2
(lp1369
g0
(g1
g2
(lp1370
(lp1371
S'word: there, index: 18'
p1372
aatp1373
Rp1374
(dp1375
g12
Vpobj
p1376
sbatp1377
Rp1378
(dp1379
g12
S'word: over, index: 17'
p1380
sbatp1381
Rp1382
(dp1383
g12
Vprep
p1384
sbatp1385
Rp1386
(dp1387
g12
S'word: good, index: 16'
p1388
sbatp1389
Rp1390
(dp1391
g12
Vccomp
p1392
sbag0
(g1
g2
(lp1393
g0
(g1
g2
(lp1394
g0
(g1
g2
(lp1395
g0
(g1
g2
(lp1396
g0
(g1
g2
(lp1397
(lp1398
S'word: they, index: 3'
p1399
aatp1400
Rp1401
(dp1402
g12
Vnsubj
p1403
sbatp1404
Rp1405
(dp1406
g12
S'word: have, index: 4'
p1407
sbatp1408
Rp1409
(dp1410
g12
Vccomp
p1411
sbag0
(g1
g2
(lp1412
(lp1413
S'word: I, index: 1'
p1414
aatp1415
Rp1416
(dp1417
g12
Vnsubj
p1418
sbatp1419
Rp1420
(dp1421
g12
S'word: guess, index: 2'
p1422
sbatp1423
Rp1424
(dp1425
g12
Vccomp
p1426
sbatp1427
Rp1428
(dp1429
g12
S'word: think, index: 12'
p1430
sbatp1431
Rp1432
(dp1433
g12
S'id: 12'
p1434
sbag0
(g1
g2
(lp1435
g0
(g1
g2
(lp1436
g0
(g1
g2
(lp1437
g0
(g1
g2
(lp1438
g0
(g1
g2
(lp1439
(lp1440
S'word: each, index: 3'
p1441
aatp1442
Rp1443
(dp1444
g12
Vdet
p1445
sbatp1446
Rp1447
(dp1448
g12
S'word: other, index: 4'
p1449
sbatp1450
Rp1451
(dp1452
g12
Vprep
p1453
sbatp1454
Rp1455
(dp1456
g12
S'word: Working, index: 1'
p1457
sbatp1458
Rp1459
(dp1460
g12
S'id: 13'
p1461
sbag0
(g1
g2
(lp1462
g0
(g1
g2
(lp1463
g0
(g1
g2
(lp1464
g0
(g1
g2
(lp1465
g0
(g1
g2
(lp1466
(lp1467
S'word: That, index: 1'
p1468
aatp1469
Rp1470
(dp1471
g12
Vdet
p1472
sbatp1473
Rp1474
(dp1475
g12
S'word: person, index: 2'
p1476
sbatp1477
Rp1478
(dp1479
g12
Vnsubj
p1480
sbag0
(g1
g2
(lp1481
g0
(g1
g2
(lp1482
g0
(g1
g2
(lp1483
(lp1484
S'word: that, index: 4'
p1485
aatp1486
Rp1487
(dp1488
g12
Vmark
p1489
sbag0
(g1
g2
(lp1490
(lp1491
S'word: he, index: 5'
p1492
aatp1493
Rp1494
(dp1495
g12
Vnsubj
p1496
sbag0
(g1
g2
(lp1497
(lp1498
S'word: back, index: 7'
p1499
aatp1500
Rp1501
(dp1502
g12
Vadvmod
p1503
sbatp1504
Rp1505
(dp1506
g12
S'word: knows, index: 6'
p1507
sbatp1508
Rp1509
(dp1510
g12
Vccomp
p1511
sbatp1512
Rp1513
(dp1514
g12
S'word: feels, index: 3'
p1515
sbatp1516
Rp1517
(dp1518
g12
S'id: 14'
p1519
sbatp1520
Rp1521
(dp1522
g12
S'sentences'
p1523
sb.