ccopy_reg
_reconstructor
p0
(cnltk.tree
Tree
p1
c__builtin__
list
p2
(lp3
g0
(g1
g2
(lp4
g0
(g1
g2
(lp5
g0
(g1
g2
(lp6
(lp7
S'word: Here, index: 1'
p8
aatp9
Rp10
(dp11
S'_label'
p12
Vadvmod
p13
sbag0
(g1
g2
(lp14
(lp15
S'word: we, index: 2'
p16
aatp17
Rp18
(dp19
g12
Vnsubj
p20
sbag0
(g1
g2
(lp21
g0
(g1
g2
(lp22
g0
(g1
g2
(lp23
(lp24
S'word: the, index: 5'
p25
aatp26
Rp27
(dp28
g12
Vdet
p29
sbatp30
Rp31
(dp32
g12
S'word: zoo, index: 6'
p33
sbatp34
Rp35
(dp36
g12
Vprep
p37
sbatp38
Rp39
(dp40
g12
S'word: are, index: 3'
p41
sbatp42
Rp43
(dp44
g12
S'id: 0'
p45
sbag0
(g1
g2
(lp46
g0
(g1
g2
(lp47
g0
(g1
g2
(lp48
g0
(g1
g2
(lp49
g0
(g1
g2
(lp50
(lp51
S'word: the, index: 5'
p52
aatp53
Rp54
(dp55
g12
Vdet
p56
sbatp57
Rp58
(dp59
g12
S'word: carnival, index: 6'
p60
sbatp61
Rp62
(dp63
g12
Vprep
p64
sbag0
(g1
g2
(lp65
(lp66
S'word: me, index: 2'
p67
aatp68
Rp69
(dp70
g12
Vdobj
p71
sbatp72
Rp73
(dp74
g12
S'word: Excuse, index: 1'
p75
sbatp76
Rp77
(dp78
g12
S'id: 1'
p79
sbag0
(g1
g2
(lp80
g0
(g1
g2
(lp81
g0
(g1
g2
(lp82
g0
(g1
g2
(lp83
g0
(g1
g2
(lp84
g0
(g1
g2
(lp85
g0
(g1
g2
(lp86
(lp87
S'word: the, index: 7'
p88
aatp89
Rp90
(dp91
g12
Vdet
p92
sbag0
(g1
g2
(lp93
(lp94
S'word: tightrope, index: 8'
p95
aatp96
Rp97
(dp98
g12
Vnn
p99
sbatp100
Rp101
(dp102
g12
S'word: walker, index: 9'
p103
sbatp104
Rp105
(dp106
g12
Vpobj
p107
sbatp108
Rp109
(dp110
g12
S'word: as, index: 6'
p111
sbatp112
Rp113
(dp114
g12
Vpobj
p115
sbag0
(g1
g2
(lp116
g0
(g1
g2
(lp117
g0
(g1
g2
(lp118
g0
(g1
g2
(lp119
g0
(g1
g2
(lp120
(lp121
S'word: merry, index: 22'
p122
aatp123
Rp124
(dp125
g12
Vamod
p126
sbag0
(g1
g2
(lp127
(lp128
S'word: go, index: 23'
p129
aatp130
Rp131
(dp132
g12
Vnn
p133
sbag0
(g1
g2
(lp134
(lp135
S'word: a, index: 21'
p136
aatp137
Rp138
(dp139
g12
Vdet
p140
sbatp141
Rp142
(dp143
g12
S'word: round, index: 24'
p144
sbatp145
Rp146
(dp147
g12
Vprep
p148
sbag0
(g1
g2
(lp149
(lp150
S'word: the, index: 11'
p151
aatp152
Rp153
(dp154
g12
Vdet
p155
sbag0
(g1
g2
(lp156
g0
(g1
g2
(lp157
g0
(g1
g2
(lp158
g142
atp159
Rp160
(dp161
g12
Vconj
p162
sbag0
(g1
g2
(lp163
(lp164
S'word: the, index: 14'
p165
aatp166
Rp167
(dp168
g12
Vdet
p169
sbag0
(g1
g2
(lp170
g0
(g1
g2
(lp171
g0
(g1
g2
(lp172
(lp173
S'word: the, index: 17'
p174
aatp175
Rp176
(dp177
g12
Vdet
p178
sbatp179
Rp180
(dp181
g12
S'word: spectators, index: 18'
p182
sbatp183
Rp184
(dp185
g12
Vconj
p186
sbatp187
Rp188
(dp189
g12
S'word: horse, index: 15'
p190
sbatp191
Rp192
(dp193
g12
Vprep
p194
sbag0
(g1
g2
(lp195
g180
atp196
Rp197
(dp198
g12
Vprep
p199
sbatp200
Rp201
(dp202
g12
S'word: lady, index: 12'
p203
sbatp204
Rp205
(dp206
g12
Vpobj
p207
sbag0
(g1
g2
(lp208
g0
(g1
g2
(lp209
g0
(g1
g2
(lp210
(lp211
S'word: the, index: 27'
p212
aatp213
Rp214
(dp215
g12
Vdet
p216
sbag0
(g1
g2
(lp217
(lp218
S'word: tamer, index: 29'
p219
aatp220
Rp221
(dp222
g12
Vdep
p223
sbatp224
Rp225
(dp226
g12
S'word: lion, index: 28'
p227
sbatp228
Rp229
(dp230
g12
Vpobj
p231
sbag0
(g1
g2
(lp232
g0
(g1
g2
(lp233
g0
(g1
g2
(lp234
g109
atp235
Rp236
(dp237
g12
Vconj
p238
sbag0
(g1
g2
(lp239
g201
atp240
Rp241
(dp242
g12
Vconj
p243
sbag0
(g1
g2
(lp244
g225
atp245
Rp246
(dp247
g12
Vconj
p248
sbag0
(g1
g2
(lp249
g0
(g1
g2
(lp250
g0
(g1
g2
(lp251
(lp252
S'word: the, index: 3'
p253
aatp254
Rp255
(dp256
g12
Vdet
p257
sbatp258
Rp259
(dp260
g12
S'word: clown, index: 4'
p261
sbatp262
Rp263
(dp264
g12
Vdep
p265
sbatp266
Rp267
(dp268
g12
S'word: bozo, index: 2'
p269
sbatp270
Rp271
(dp272
g12
Vpobj
p273
sbatp274
Rp275
(dp276
g12
S'word: As, index: 1'
p277
sbatp278
Rp279
(dp280
g12
S'id: 2'
p281
sbag0
(g1
g2
(lp282
g0
(g1
g2
(lp283
g0
(g1
g2
(lp284
g0
(g1
g2
(lp285
g0
(g1
g2
(lp286
g0
(g1
g2
(lp287
g0
(g1
g2
(lp288
(lp289
S'word: the, index: 11'
p290
aatp291
Rp292
(dp293
g12
Vdet
p294
sbag0
(g1
g2
(lp295
(lp296
S'word: little, index: 12'
p297
aatp298
Rp299
(dp300
g12
Vamod
p301
sbatp302
Rp303
(dp304
g12
S'word: boy, index: 13'
p305
sbatp306
Rp307
(dp308
g12
Vnsubj
p309
sbag0
(g1
g2
(lp310
(lp311
S'word: is, index: 14'
p312
aatp313
Rp314
(dp315
g12
Vaux
p316
sbag0
(g1
g2
(lp317
(lp318
S'word: something, index: 16'
p319
aatp320
Rp321
(dp322
g12
Vdobj
p323
sbatp324
Rp325
(dp326
g12
S'word: pushing, index: 15'
p327
sbatp328
Rp329
(dp330
g12
Vconj
p331
sbag0
(g1
g2
(lp332
g0
(g1
g2
(lp333
g0
(g1
g2
(lp334
(lp335
S'word: the, index: 3'
p336
aatp337
Rp338
(dp339
g12
Vdet
p340
sbag0
(g1
g2
(lp341
(lp342
S'word: little, index: 4'
p343
aatp344
Rp345
(dp346
g12
Vamod
p347
sbatp348
Rp349
(dp350
g12
S'word: girl, index: 5'
p351
sbatp352
Rp353
(dp354
g12
Vnsubj
p355
sbag0
(g1
g2
(lp356
(lp357
S'word: is, index: 6'
p358
aatp359
Rp360
(dp361
g12
Vaux
p362
sbag0
(g1
g2
(lp363
(lp364
S'word: bozo, index: 8'
p365
aatp366
Rp367
(dp368
g12
Vdobj
p369
sbatp370
Rp371
(dp372
g12
S'word: watching, index: 7'
p373
sbatp374
Rp375
(dp376
g12
S'id: 3'
p377
sbag0
(g1
g2
(lp378
g0
(g1
g2
(lp379
g0
(g1
g2
(lp380
g0
(g1
g2
(lp381
g0
(g1
g2
(lp382
(lp383
S'word: me, index: 3'
p384
aatp385
Rp386
(dp387
g12
Vprep
p388
sbag0
(g1
g2
(lp389
(lp390
S'word: everybody, index: 5'
p391
aatp392
Rp393
(dp394
g12
Vprep
p395
sbatp396
Rp397
(dp398
g12
S'word: Looks, index: 1'
p399
sbatp400
Rp401
(dp402
g12
Vcsubj
p403
sbag0
(g1
g2
(lp404
(lp405
S'word: is, index: 6'
p406
aatp407
Rp408
(dp409
g12
Vaux
p410
sbag0
(g1
g2
(lp411
g0
(g1
g2
(lp412
g0
(g1
g2
(lp413
(lp414
S'word: a, index: 8'
p415
aatp416
Rp417
(dp418
g12
Vdet
p419
sbag0
(g1
g2
(lp420
(lp421
S'word: good, index: 9'
p422
aatp423
Rp424
(dp425
g12
Vamod
p426
sbatp427
Rp428
(dp429
g12
S'word: time, index: 10'
p430
sbatp431
Rp432
(dp433
g12
Vdobj
p434
sbatp435
Rp436
(dp437
g12
S'word: having, index: 7'
p438
sbatp439
Rp440
(dp441
g12
S'id: 4'
p442
sbag0
(g1
g2
(lp443
g0
(g1
g2
(lp444
g0
(g1
g2
(lp445
g0
(g1
g2
(lp446
g0
(g1
g2
(lp447
g0
(g1
g2
(lp448
g0
(g1
g2
(lp449
(lp450
S'word: Bozo, index: 1'
p451
aatp452
Rp453
(dp454
g12
Vnn
p455
sbatp456
Rp457
(dp458
g12
S'word: Bozo, index: 3'
p459
sbatp460
Rp461
(dp462
g12
Vnsubj
p463
sbag0
(g1
g2
(lp464
(lp465
S'word: is, index: 4'
p466
aatp467
Rp468
(dp469
g12
Vaux
p470
sbag0
(g1
g2
(lp471
(lp472
S'word: something, index: 7'
p473
aatp474
Rp475
(dp476
g12
Vprep
p477
sbatp478
Rp479
(dp480
g12
S'word: flipping, index: 5'
p481
sbatp482
Rp483
(dp484
g12
Vccomp
p485
sbag0
(g1
g2
(lp486
(lp487
S'word: I, index: 9'
p488
aatp489
Rp490
(dp491
g12
Vnsubj
p492
sbag0
(g1
g2
(lp493
g0
(g1
g2
(lp494
g0
(g1
g2
(lp495
g0
(g1
g2
(lp496
g0
(g1
g2
(lp497
g0
(g1
g2
(lp498
g0
(g1
g2
(lp499
(lp500
S'word: me, index: 18'
p501
aatp502
Rp503
(dp504
g12
Vprep
p505
sbag0
(g1
g2
(lp506
g0
(g1
g2
(lp507
g0
(g1
g2
(lp508
(lp509
S'word: like, index: 19'
p510
aatp511
Rp512
(dp513
g12
Vmark
p514
sbag0
(g1
g2
(lp515
(lp516
S'word: maybe, index: 20'
p517
aatp518
Rp519
(dp520
g12
Vadvmod
p521
sbag0
(g1
g2
(lp522
(lp523
S'word: he, index: 21'
p524
aatp525
Rp526
(dp527
g12
Vnsubj
p528
sbag0
(g1
g2
(lp529
(lp530
S"word: 's, index: 22"
p531
aatp532
Rp533
(dp534
g12
Vaux
p535
sbag0
(g1
g2
(lp536
g0
(g1
g2
(lp537
g0
(g1
g2
(lp538
(lp539
S'word: them, index: 24'
p540
aatp541
Rp542
(dp543
g12
Vnsubj
p544
sbag0
(g1
g2
(lp545
(lp546
S'word: some, index: 25'
p547
aatp548
Rp549
(dp550
g12
Vdet
p551
sbag0
(g1
g2
(lp552
(lp553
S'word: pepper, index: 26'
p554
aatp555
Rp556
(dp557
g12
Vnn
p558
sbatp559
Rp560
(dp561
g12
S'word: mints, index: 27'
p562
sbatp563
Rp564
(dp565
g12
Vxcomp
p566
sbatp567
Rp568
(dp569
g12
S'word: throwing, index: 23'
p570
sbatp571
Rp572
(dp573
g12
Vadvcl
p574
sbatp575
Rp576
(dp577
g12
S'word: looks, index: 16'
p578
sbatp579
Rp580
(dp581
g12
Vccomp
p582
sbag0
(g1
g2
(lp583
(lp584
S'word: what, index: 12'
p585
aatp586
Rp587
(dp588
g12
Vdobj
p589
sbag0
(g1
g2
(lp590
(lp591
S'word: that, index: 13'
p592
aatp593
Rp594
(dp595
g12
Vnsubj
p596
sbatp597
Rp598
(dp599
g12
S'word: is, index: 14'
p600
sbatp601
Rp602
(dp603
g12
Vccomp
p604
sbatp605
Rp606
(dp607
g12
S'word: tell, index: 11'
p608
sbatp609
Rp610
(dp611
g12
Vxcomp
p612
sbatp613
Rp614
(dp615
g12
S'word: cant, index: 10'
p616
sbatp617
Rp618
(dp619
g12
S'id: 5'
p620
sbag0
(g1
g2
(lp621
g0
(g1
g2
(lp622
g0
(g1
g2
(lp623
g0
(g1
g2
(lp624
g0
(g1
g2
(lp625
(lp626
S'word: the, index: 2'
p627
aatp628
Rp629
(dp630
g12
Vdet
p631
sbag0
(g1
g2
(lp632
(lp633
S'word: little, index: 3'
p634
aatp635
Rp636
(dp637
g12
Vamod
p638
sbatp639
Rp640
(dp641
g12
S'word: girl, index: 4'
p642
sbatp643
Rp644
(dp645
g12
Vnpadvmod
p646
sbag0
(g1
g2
(lp647
g0
(g1
g2
(lp648
g0
(g1
g2
(lp649
g0
(g1
g2
(lp650
g0
(g1
g2
(lp651
(lp652
S'word: the, index: 6'
p653
aatp654
Rp655
(dp656
g12
Vdet
p657
sbatp658
Rp659
(dp660
g12
S'word: mother, index: 7'
p661
sbatp662
Rp663
(dp664
g12
Vposs
p665
sbatp666
Rp667
(dp668
g12
S'word: arms, index: 9'
p669
sbatp670
Rp671
(dp672
g12
Vprep
p673
sbag0
(g1
g2
(lp674
(lp675
S'word: she, index: 11'
p676
aatp677
Rp678
(dp679
g12
Vnsubj
p680
sbag0
(g1
g2
(lp681
(lp682
S'word: is, index: 12'
p683
aatp684
Rp685
(dp686
g12
Vaux
p687
sbag0
(g1
g2
(lp688
g0
(g1
g2
(lp689
g0
(g1
g2
(lp690
(lp691
S'word: to, index: 14'
p692
aatp693
Rp694
(dp695
g12
Vaux
p696
sbag0
(g1
g2
(lp697
g0
(g1
g2
(lp698
g0
(g1
g2
(lp699
(lp700
S'word: some, index: 16'
p701
aatp702
Rp703
(dp704
g12
Vnsubj
p705
sbatp706
Rp707
(dp708
g12
S'word: herself, index: 17'
p709
sbatp710
Rp711
(dp712
g12
Vxcomp
p713
sbatp714
Rp715
(dp716
g12
S'word: get, index: 15'
p717
sbatp718
Rp719
(dp720
g12
Vxcomp
p721
sbag0
(g1
g2
(lp722
(lp723
S'word: And, index: 1'
p724
aatp725
Rp726
(dp727
g12
Vcc
p728
sbatp729
Rp730
(dp731
g12
S'word: waiting, index: 13'
p732
sbatp733
Rp734
(dp735
g12
S'id: 6'
p736
sbag0
(g1
g2
(lp737
g0
(g1
g2
(lp738
g0
(g1
g2
(lp739
g0
(g1
g2
(lp740
g0
(g1
g2
(lp741
(lp742
S'word: just, index: 5'
p743
aatp744
Rp745
(dp746
g12
Vadvmod
p747
sbag0
(g1
g2
(lp748
(lp749
S'word: a, index: 6'
p750
aatp751
Rp752
(dp753
g12
Vdet
p754
sbag0
(g1
g2
(lp755
(lp756
S'word: typical, index: 7'
p757
aatp758
Rp759
(dp760
g12
Vamod
p761
sbag0
(g1
g2
(lp762
(lp763
S'word: circus, index: 8'
p764
aatp765
Rp766
(dp767
g12
Vnn
p768
sbag0
(g1
g2
(lp769
(lp770
S'word: type, index: 9'
p771
aatp772
Rp773
(dp774
g12
Vnn
p775
sbag0
(g1
g2
(lp776
(lp777
S'word: setting, index: 12'
p778
aatp779
Rp780
(dp781
g12
Vappos
p782
sbatp783
Rp784
(dp785
g12
S'word: selling, index: 10'
p786
sbatp787
Rp788
(dp789
g12
Vprep
p790
sbag0
(g1
g2
(lp791
(lp792
S'word: me, index: 3'
p793
aatp794
Rp795
(dp796
g12
Vprep
p797
sbatp798
Rp799
(dp800
g12
S'word: Looks, index: 1'
p801
sbatp802
Rp803
(dp804
g12
S'id: 7'
p805
sbag0
(g1
g2
(lp806
g0
(g1
g2
(lp807
g0
(g1
g2
(lp808
(lp809
S'word: I, index: 1'
p810
aatp811
Rp812
(dp813
g12
Vnsubj
p814
sbag0
(g1
g2
(lp815
(lp816
S'word: ca, index: 2'
p817
aatp818
Rp819
(dp820
g12
Vaux
p821
sbag0
(g1
g2
(lp822
(lp823
S"word: n't, index: 3"
p824
aatp825
Rp826
(dp827
g12
Vneg
p828
sbag0
(g1
g2
(lp829
g0
(g1
g2
(lp830
g0
(g1
g2
(lp831
g0
(g1
g2
(lp832
g0
(g1
g2
(lp833
(lp834
S'word: the, index: 9'
p835
aatp836
Rp837
(dp838
g12
Vdet
p839
sbag0
(g1
g2
(lp840
(lp841
S'word: big, index: 10'
p842
aatp843
Rp844
(dp845
g12
Vamod
p846
sbag0
(g1
g2
(lp847
(lp848
S'word: not, index: 13'
p849
aatp850
Rp851
(dp852
g12
Vconj
p853
sbatp854
Rp855
(dp856
g12
S'word: top, index: 11'
p857
sbatp858
Rp859
(dp860
g12
Vprep
p861
sbag0
(g1
g2
(lp862
(lp863
S'word: not, index: 13'
p864
aatp865
Rp866
(dp867
g12
Vprep
p868
sbag0
(g1
g2
(lp869
(lp870
S'word: whether, index: 5'
p871
aatp872
Rp873
(dp874
g12
Vmark
p875
sbag0
(g1
g2
(lp876
(lp877
S'word: that, index: 6'
p878
aatp879
Rp880
(dp881
g12
Vnsubj
p882
sbatp883
Rp884
(dp885
g12
S"word: 's, index: 7"
p886
sbatp887
Rp888
(dp889
g12
Vccomp
p890
sbatp891
Rp892
(dp893
g12
S'word: tell, index: 4'
p894
sbatp895
Rp896
(dp897
g12
S'id: 8'
p898
sbag0
(g1
g2
(lp899
g0
(g1
g2
(lp900
g0
(g1
g2
(lp901
g0
(g1
g2
(lp902
g0
(g1
g2
(lp903
(lp904
S'word: the, index: 3'
p905
aatp906
Rp907
(dp908
g12
Vdet
p909
sbatp910
Rp911
(dp912
g12
S'word: lion, index: 4'
p913
sbatp914
Rp915
(dp916
g12
Vappos
p917
sbag0
(g1
g2
(lp918
g0
(g1
g2
(lp919
g0
(g1
g2
(lp920
g0
(g1
g2
(lp921
g0
(g1
g2
(lp922
g0
(g1
g2
(lp923
g0
(g1
g2
(lp924
(lp925
S'word: the, index: 14'
p926
aatp927
Rp928
(dp929
g12
Vdet
p930
sbatp931
Rp932
(dp933
g12
S'word: tamer, index: 15'
p934
sbatp935
Rp936
(dp937
g12
Vappos
p938
sbatp939
Rp940
(dp941
g12
S'word: the, index: 12'
p942
sbatp943
Rp944
(dp945
g12
Vprep
p946
sbag0
(g1
g2
(lp947
(lp948
S'word: he, index: 6'
p949
aatp950
Rp951
(dp952
g12
Vnsubj
p953
sbag0
(g1
g2
(lp954
(lp955
S"word: 's, index: 7"
p956
aatp957
Rp958
(dp959
g12
Vaux
p960
sbag0
(g1
g2
(lp961
g0
(g1
g2
(lp962
g0
(g1
g2
(lp963
(lp964
S'word: real, index: 9'
p965
aatp966
Rp967
(dp968
g12
Vadvmod
p969
sbatp970
Rp971
(dp972
g12
S'word: well, index: 10'
p973
sbatp974
Rp975
(dp976
g12
Vadvmod
p977
sbatp978
Rp979
(dp980
g12
S'word: performing, index: 8'
p981
sbatp982
Rp983
(dp984
g12
Vdep
p985
sbatp986
Rp987
(dp988
g12
S'word: The, index: 1'
p989
sbatp990
Rp991
(dp992
g12
S'id: 9'
p993
sbag0
(g1
g2
(lp994
g0
(g1
g2
(lp995
g0
(g1
g2
(lp996
(lp997
S'word: You, index: 1'
p998
aatp999
Rp1000
(dp1001
g12
Vdep
p1002
sbag0
(g1
g2
(lp1003
g0
(g1
g2
(lp1004
g0
(g1
g2
(lp1005
(lp1006
S'word: the, index: 4'
p1007
aatp1008
Rp1009
(dp1010
g12
Vdet
p1011
sbag0
(g1
g2
(lp1012
(lp1013
S'word: next, index: 5'
p1014
aatp1015
Rp1016
(dp1017
g12
Vamod
p1018
sbatp1019
Rp1020
(dp1021
g12
S'word: type, index: 6'
p1022
sbatp1023
Rp1024
(dp1025
g12
Vprep
p1026
sbatp1027
Rp1028
(dp1029
g12
S'word: ready, index: 2'
p1030
sbatp1031
Rp1032
(dp1033
g12
S'id: 10'
p1034
sbatp1035
Rp1036
(dp1037
g12
S'sentences'
p1038
sb.