ccopy_reg
_reconstructor
p0
(cnltk.tree
Tree
p1
c__builtin__
list
p2
(lp3
g0
(g1
g2
(lp4
g0
(g1
g2
(lp5
g0
(g1
g2
(lp6
Va gentleman
p7
atp8
Rp9
(dp10
S'_label'
p11
S'start: 3'
p12
sbatp13
Rp14
(dp15
g11
S'sent: 3'
p16
sbag0
(g1
g2
(lp17
g0
(g1
g2
(lp18
Vhis
p19
atp20
Rp21
(dp22
g11
S'start: 7'
p23
sbatp24
Rp25
(dp26
g11
S'sent: 3'
p27
sbatp28
Rp29
(dp30
g11
S'id: 4'
p31
sbag0
(g1
g2
(lp32
g0
(g1
g2
(lp33
g0
(g1
g2
(lp34
Vthe lion
p35
atp36
Rp37
(dp38
g11
S'start: 10'
p39
sbatp40
Rp41
(dp42
g11
S'sent: 4'
p43
sbag0
(g1
g2
(lp44
g0
(g1
g2
(lp45
Vit
p46
atp47
Rp48
(dp49
g11
S'start: 13'
p50
sbatp51
Rp52
(dp53
g11
S'sent: 4'
p54
sbag0
(g1
g2
(lp55
g0
(g1
g2
(lp56
Va loin
p57
atp58
Rp59
(dp60
g11
S'start: 15'
p61
sbatp62
Rp63
(dp64
g11
S'sent: 4'
p65
sbatp66
Rp67
(dp68
g11
S'id: 8'
p69
sbag0
(g1
g2
(lp70
g0
(g1
g2
(lp71
g0
(g1
g2
(lp72
Vthe children
p73
atp74
Rp75
(dp76
g11
S'start: 2'
p77
sbatp78
Rp79
(dp80
g11
S'sent: 5'
p81
sbag0
(g1
g2
(lp82
g0
(g1
g2
(lp83
Vthat
p84
atp85
Rp86
(dp87
g11
S'start: 9'
p88
sbatp89
Rp90
(dp91
g11
S'sent: 5'
p92
sbag0
(g1
g2
(lp93
g0
(g1
g2
(lp94
Vthey
p95
atp96
Rp97
(dp98
g11
S'start: 12'
p99
sbatp100
Rp101
(dp102
g11
S'sent: 5'
p103
sbatp104
Rp105
(dp106
g11
S'id: 11'
p107
sbag0
(g1
g2
(lp108
g0
(g1
g2
(lp109
g0
(g1
g2
(lp110
Vsome people in the background looking at the show
p111
atp112
Rp113
(dp114
g11
S'start: 5'
p115
sbatp116
Rp117
(dp118
g11
S'sent: 6'
p119
sbag0
(g1
g2
(lp120
g0
(g1
g2
(lp121
Vthey
p122
atp123
Rp124
(dp125
g11
S'start: 6'
p126
sbatp127
Rp128
(dp129
g11
S'sent: 8'
p130
sbag0
(g1
g2
(lp131
g0
(g1
g2
(lp132
Vthem
p133
atp134
Rp135
(dp136
g11
S'start: 8'
p137
sbatp138
Rp139
(dp140
g11
S'sent: 8'
p141
sbatp142
Rp143
(dp144
g11
S'id: 18'
p145
sbag0
(g1
g2
(lp146
g0
(g1
g2
(lp147
g0
(g1
g2
(lp148
Va man up on the top
p149
atp150
Rp151
(dp152
g11
S'start: 4'
p153
sbatp154
Rp155
(dp156
g11
S'sent: 7'
p157
sbag0
(g1
g2
(lp158
g0
(g1
g2
(lp159
Vhe
p160
atp161
Rp162
(dp163
g11
S'start: 1'
p164
sbatp165
Rp166
(dp167
g11
S'sent: 8'
p168
sbatp169
Rp170
(dp171
g11
S'id: 21'
p172
sbatp173
Rp174
(dp175
g11
S'coreferences'
p176
sb.