ccopy_reg
_reconstructor
p0
(cnltk.tree
Tree
p1
c__builtin__
list
p2
(lp3
g0
(g1
g2
(lp4
g0
(g1
g2
(lp5
g0
(g1
g2
(lp6
g0
(g1
g2
(lp7
g0
(g1
g2
(lp8
(lp9
S"word: 's, index: 2"
p10
aatp11
Rp12
(dp13
S'_label'
p14
Vnsubj
p15
sbag0
(g1
g2
(lp16
g0
(g1
g2
(lp17
g0
(g1
g2
(lp18
(lp19
S'word: this, index: 4'
p20
aatp21
Rp22
(dp23
g14
Vnsubj
p24
sbag0
(g1
g2
(lp25
(lp26
S'word: is, index: 5'
p27
aatp28
Rp29
(dp30
g14
Vcop
p31
sbag0
(g1
g2
(lp32
(lp33
S'word: a, index: 6'
p34
aatp35
Rp36
(dp37
g14
Vdet
p38
sbatp39
Rp40
(dp41
g14
S'word: circus, index: 7'
p42
sbatp43
Rp44
(dp45
g14
Vccomp
p46
sbatp47
Rp48
(dp49
g14
S'word: see, index: 3'
p50
sbatp51
Rp52
(dp53
g14
Vccomp
p54
sbatp55
Rp56
(dp57
g14
S'word: let, index: 1'
p58
sbatp59
Rp60
(dp61
g14
S'id: 0'
p62
sbag0
(g1
g2
(lp63
g0
(g1
g2
(lp64
g0
(g1
g2
(lp65
g0
(g1
g2
(lp66
g0
(g1
g2
(lp67
(lp68
S'word: a, index: 3'
p69
aatp70
Rp71
(dp72
g14
Vdet
p73
sbag0
(g1
g2
(lp74
g0
(g1
g2
(lp75
g0
(g1
g2
(lp76
(lp77
S'word: a, index: 6'
p78
aatp79
Rp80
(dp81
g14
Vdet
p82
sbag0
(g1
g2
(lp83
g0
(g1
g2
(lp84
g0
(g1
g2
(lp85
(lp86
S'word: a, index: 9'
p87
aatp88
Rp89
(dp90
g14
Vdet
p91
sbatp92
Rp93
(dp94
g14
S'word: lion, index: 10'
p95
sbatp96
Rp97
(dp98
g14
Vprep
p99
sbatp100
Rp101
(dp102
g14
S'word: cage, index: 7'
p103
sbatp104
Rp105
(dp106
g14
Vprep
p107
sbatp108
Rp109
(dp110
g14
S'word: man, index: 4'
p111
sbatp112
Rp113
(dp114
g14
Vnsubj
p115
sbag0
(g1
g2
(lp116
(lp117
S'word: There, index: 1'
p118
aatp119
Rp120
(dp121
g14
Vexpl
p122
sbatp123
Rp124
(dp125
g14
S'word: is, index: 2'
p126
sbatp127
Rp128
(dp129
g14
S'id: 1'
p130
sbag0
(g1
g2
(lp131
g0
(g1
g2
(lp132
g0
(g1
g2
(lp133
g0
(g1
g2
(lp134
g0
(g1
g2
(lp135
(lp136
S'word: a, index: 6'
p137
aatp138
Rp139
(dp140
g14
Vdet
p141
sbag0
(g1
g2
(lp142
(lp143
S'word: son, index: 10'
p144
aatp145
Rp146
(dp147
g14
Vconj
p148
sbatp149
Rp150
(dp151
g14
S'word: fa, index: 7'
p152
sbatp153
Rp154
(dp155
g14
Vnsubj
p156
sbag0
(g1
g2
(lp157
(lp158
S'word: There, index: 1'
p159
aatp160
Rp161
(dp162
g14
Vexpl
p163
sbag0
(g1
g2
(lp164
g0
(g1
g2
(lp165
g0
(g1
g2
(lp166
g150
atp167
Rp168
(dp169
g14
Vconj
p170
sbag0
(g1
g2
(lp171
(lp172
S'word: son, index: 10'
p173
aatp174
Rp175
(dp176
g14
Vconj
p177
sbag0
(g1
g2
(lp178
(lp179
S'word: a, index: 3'
p180
aatp181
Rp182
(dp183
g14
Vdet
p184
sbatp185
Rp186
(dp187
g14
S'word: boy, index: 4'
p188
sbatp189
Rp190
(dp191
g14
Vnsubj
p192
sbatp193
Rp194
(dp195
g14
S"word: 's, index: 2"
p196
sbatp197
Rp198
(dp199
g14
S'id: 2'
p200
sbag0
(g1
g2
(lp201
g0
(g1
g2
(lp202
g0
(g1
g2
(lp203
(lp204
S'word: There, index: 1'
p205
aatp206
Rp207
(dp208
g14
Vexpl
p209
sbag0
(g1
g2
(lp210
g0
(g1
g2
(lp211
g0
(g1
g2
(lp212
(lp213
S'word: a, index: 3'
p214
aatp215
Rp216
(dp217
g14
Vdet
p218
sbag0
(g1
g2
(lp219
g0
(g1
g2
(lp220
g0
(g1
g2
(lp221
(lp222
S'word: son, index: 8'
p223
aatp224
Rp225
(dp226
g14
Vappos
p227
sbatp228
Rp229
(dp230
g14
S'word: daughter, index: 6'
p231
sbatp232
Rp233
(dp234
g14
Vappos
p235
sbatp236
Rp237
(dp238
g14
S'word: woman, index: 4'
p239
sbatp240
Rp241
(dp242
g14
Vnsubj
p243
sbatp244
Rp245
(dp246
g14
S"word: 's, index: 2"
p247
sbatp248
Rp249
(dp250
g14
S'id: 3'
p251
sbag0
(g1
g2
(lp252
g0
(g1
g2
(lp253
g0
(g1
g2
(lp254
(lp255
S'word: There, index: 1'
p256
aatp257
Rp258
(dp259
g14
Vexpl
p260
sbag0
(g1
g2
(lp261
g0
(g1
g2
(lp262
g0
(g1
g2
(lp263
(lp264
S'word: a, index: 3'
p265
aatp266
Rp267
(dp268
g14
Vdet
p269
sbatp270
Rp271
(dp272
g14
S'word: clown, index: 4'
p273
sbatp274
Rp275
(dp276
g14
Vnsubj
p277
sbatp278
Rp279
(dp280
g14
S"word: 's, index: 2"
p281
sbatp282
Rp283
(dp284
g14
S'id: 4'
p285
sbag0
(g1
g2
(lp286
g0
(g1
g2
(lp287
g0
(g1
g2
(lp288
(lp289
S'word: There, index: 1'
p290
aatp291
Rp292
(dp293
g14
Vexpl
p294
sbag0
(g1
g2
(lp295
g0
(g1
g2
(lp296
g0
(g1
g2
(lp297
(lp298
S'word: a, index: 3'
p299
aatp300
Rp301
(dp302
g14
Vdet
p303
sbag0
(g1
g2
(lp304
g0
(g1
g2
(lp305
g0
(g1
g2
(lp306
(lp307
S'word: a, index: 6'
p308
aatp309
Rp310
(dp311
g14
Vdet
p312
sbatp313
Rp314
(dp315
g14
S'word: horse, index: 7'
p316
sbatp317
Rp318
(dp319
g14
Vprep
p320
sbatp321
Rp322
(dp323
g14
S'word: woman, index: 4'
p324
sbatp325
Rp326
(dp327
g14
Vnsubj
p328
sbatp329
Rp330
(dp331
g14
S"word: 's, index: 2"
p332
sbatp333
Rp334
(dp335
g14
S'id: 5'
p336
sbag0
(g1
g2
(lp337
g0
(g1
g2
(lp338
g0
(g1
g2
(lp339
(lp340
S'word: watching, index: 3'
p341
aatp342
Rp343
(dp344
g14
Vvmod
p345
sbag0
(g1
g2
(lp346
(lp347
S'word: Five, index: 1'
p348
aatp349
Rp350
(dp351
g14
Vnum
p352
sbatp353
Rp354
(dp355
g14
S'word: people, index: 2'
p356
sbatp357
Rp358
(dp359
g14
S'id: 6'
p360
sbag0
(g1
g2
(lp361
g0
(g1
g2
(lp362
g0
(g1
g2
(lp363
(lp364
S'word: There, index: 1'
p365
aatp366
Rp367
(dp368
g14
Vexpl
p369
sbag0
(g1
g2
(lp370
g0
(g1
g2
(lp371
g0
(g1
g2
(lp372
g0
(g1
g2
(lp373
g0
(g1
g2
(lp374
g0
(g1
g2
(lp375
g0
(g1
g2
(lp376
(lp377
S'word: the, index: 7'
p378
aatp379
Rp380
(dp381
g14
Vdet
p382
sbatp383
Rp384
(dp385
g14
S'word: wire, index: 8'
p386
sbatp387
Rp388
(dp389
g14
Vprep
p390
sbatp391
Rp392
(dp393
g14
S'word: walking, index: 5'
p394
sbatp395
Rp396
(dp397
g14
Vvmod
p398
sbag0
(g1
g2
(lp399
(lp400
S'word: a, index: 3'
p401
aatp402
Rp403
(dp404
g14
Vdet
p405
sbatp406
Rp407
(dp408
g14
S'word: man, index: 4'
p409
sbatp410
Rp411
(dp412
g14
Vnsubj
p413
sbatp414
Rp415
(dp416
g14
S"word: 's, index: 2"
p417
sbatp418
Rp419
(dp420
g14
S'id: 7'
p421
sbag0
(g1
g2
(lp422
g0
(g1
g2
(lp423
g0
(g1
g2
(lp424
g0
(g1
g2
(lp425
g0
(g1
g2
(lp426
(lp427
S"word: 's, index: 2"
p428
aatp429
Rp430
(dp431
g14
Vnsubj
p432
sbatp433
Rp434
(dp435
g14
S'word: see, index: 3'
p436
sbatp437
Rp438
(dp439
g14
Vccomp
p440
sbatp441
Rp442
(dp443
g14
S'word: Let, index: 1'
p444
sbatp445
Rp446
(dp447
g14
S'id: 8'
p448
sbag0
(g1
g2
(lp449
g0
(g1
g2
(lp450
g0
(g1
g2
(lp451
g0
(g1
g2
(lp452
g0
(g1
g2
(lp453
(lp454
S'word: The, index: 1'
p455
aatp456
Rp457
(dp458
g14
Vdet
p459
sbatp460
Rp461
(dp462
g14
S'word: girl, index: 2'
p463
sbatp464
Rp465
(dp466
g14
Vnsubj
p467
sbag0
(g1
g2
(lp468
(lp469
S'word: is, index: 3'
p470
aatp471
Rp472
(dp473
g14
Vaux
p474
sbatp475
Rp476
(dp477
g14
S'word: laughing, index: 4'
p478
sbatp479
Rp480
(dp481
g14
S'id: 9'
p482
sbag0
(g1
g2
(lp483
g0
(g1
g2
(lp484
g0
(g1
g2
(lp485
g0
(g1
g2
(lp486
g0
(g1
g2
(lp487
(lp488
S"word: 's, index: 2"
p489
aatp490
Rp491
(dp492
g14
Vpossessive
p493
sbatp494
Rp495
(dp496
g14
S'word: Woman, index: 1'
p497
sbatp498
Rp499
(dp500
g14
Vnsubj
p501
sbag0
(g1
g2
(lp502
g0
(g1
g2
(lp503
g0
(g1
g2
(lp504
(lp505
S'word: some, index: 4'
p506
aatp507
Rp508
(dp509
g14
Vdet
p510
sbag0
(g1
g2
(lp511
g0
(g1
g2
(lp512
g0
(g1
g2
(lp513
(lp514
S'word: sparkly, index: 7'
p515
aatp516
Rp517
(dp518
g14
Vamod
p519
sbatp520
Rp521
(dp522
g14
S'word: thing, index: 8'
p523
sbatp524
Rp525
(dp526
g14
Vprep
p527
sbatp528
Rp529
(dp530
g14
S'word: kind, index: 5'
p531
sbatp532
Rp533
(dp534
g14
Vdobj
p535
sbatp536
Rp537
(dp538
g14
S'word: wearing, index: 3'
p539
sbatp540
Rp541
(dp542
g14
S'id: 10'
p543
sbag0
(g1
g2
(lp544
g0
(g1
g2
(lp545
g0
(g1
g2
(lp546
(lp547
S'word: Clown, index: 1'
p548
aatp549
Rp550
(dp551
g14
Vposs
p552
sbag0
(g1
g2
(lp553
g0
(g1
g2
(lp554
g0
(g1
g2
(lp555
g0
(g1
g2
(lp556
g0
(g1
g2
(lp557
(lp558
S'word: guess, index: 5'
p559
aatp560
Rp561
(dp562
g14
Vnn
p563
sbatp564
Rp565
(dp566
g14
S'word: popcorn, index: 6'
p567
sbatp568
Rp569
(dp570
g14
Vdep
p571
sbatp572
Rp573
(dp574
g14
S'word: i, index: 4'
p575
sbatp576
Rp577
(dp578
g14
Vdep
p579
sbatp580
Rp581
(dp582
g14
S'word: spilling, index: 3'
p583
sbatp584
Rp585
(dp586
g14
S'id: 11'
p587
sbag0
(g1
g2
(lp588
g0
(g1
g2
(lp589
g0
(g1
g2
(lp590
g0
(g1
g2
(lp591
g0
(g1
g2
(lp592
(lp593
S'word: a, index: 4'
p594
aatp595
Rp596
(dp597
g14
Vdet
p598
sbatp599
Rp600
(dp601
g14
S'word: hat, index: 5'
p602
sbatp603
Rp604
(dp605
g14
Vdobj
p606
sbag0
(g1
g2
(lp607
(lp608
S'word: He, index: 1'
p609
aatp610
Rp611
(dp612
g14
Vnsubj
p613
sbag0
(g1
g2
(lp614
(lp615
S"word: 's, index: 2"
p616
aatp617
Rp618
(dp619
g14
Vaux
p620
sbatp621
Rp622
(dp623
g14
S'word: wearing, index: 3'
p624
sbatp625
Rp626
(dp627
g14
S'id: 12'
p628
sbag0
(g1
g2
(lp629
g0
(g1
g2
(lp630
g0
(g1
g2
(lp631
g0
(g1
g2
(lp632
g0
(g1
g2
(lp633
(lp634
S'word: a, index: 2'
p635
aatp636
Rp637
(dp638
g14
Vdet
p639
sbatp640
Rp641
(dp642
g14
S'word: tie, index: 3'
p643
sbatp644
Rp645
(dp646
g14
Vdobj
p647
sbatp648
Rp649
(dp650
g14
S'word: Wearing, index: 1'
p651
sbatp652
Rp653
(dp654
g14
S'id: 13'
p655
sbag0
(g1
g2
(lp656
g0
(g1
g2
(lp657
g0
(g1
g2
(lp658
g0
(g1
g2
(lp659
g0
(g1
g2
(lp660
(lp661
S'word: The, index: 1'
p662
aatp663
Rp664
(dp665
g14
Vdet
p666
sbatp667
Rp668
(dp669
g14
S'word: clown, index: 2'
p670
sbatp671
Rp672
(dp673
g14
Vnsubj
p674
sbag0
(g1
g2
(lp675
(lp676
S'word: is, index: 3'
p677
aatp678
Rp679
(dp680
g14
Vaux
p681
sbag0
(g1
g2
(lp682
g0
(g1
g2
(lp683
g0
(g1
g2
(lp684
(lp685
S'word: it, index: 6'
p686
aatp687
Rp688
(dp689
g14
Vnsubj
p690
sbag0
(g1
g2
(lp691
(lp692
S"word: 's, index: 7"
p693
aatp694
Rp695
(dp696
g14
Vcop
p697
sbag0
(g1
g2
(lp698
(lp699
S'word: back, index: 8'
p700
aatp701
Rp702
(dp703
g14
Vadvmod
p704
sbatp705
Rp706
(dp707
g14
S'word: legs, index: 9'
p708
sbatp709
Rp710
(dp711
g14
Vprepc
p712
sbatp713
Rp714
(dp715
g14
S'word: setting, index: 4'
p716
sbatp717
Rp718
(dp719
g14
S'id: 14'
p720
sbag0
(g1
g2
(lp721
g0
(g1
g2
(lp722
g0
(g1
g2
(lp723
(lp724
S'word: The, index: 1'
p725
aatp726
Rp727
(dp728
g14
Vdet
p729
sbag0
(g1
g2
(lp730
g0
(g1
g2
(lp731
g0
(g1
g2
(lp732
g0
(g1
g2
(lp733
g0
(g1
g2
(lp734
(lp735
S'word: a, index: 4'
p736
aatp737
Rp738
(dp739
g14
Vdet
p740
sbatp741
Rp742
(dp743
g14
S'word: hat, index: 5'
p744
sbatp745
Rp746
(dp747
g14
Vdobj
p748
sbatp749
Rp750
(dp751
g14
S'word: wearing, index: 3'
p752
sbatp753
Rp754
(dp755
g14
Vdep
p756
sbatp757
Rp758
(dp759
g14
S'word: man, index: 2'
p760
sbatp761
Rp762
(dp763
g14
S'id: 15'
p764
sbatp765
Rp766
(dp767
g14
S'sentences'
p768
sb.