ccopy_reg
_reconstructor
p0
(cnltk.tree
Tree
p1
c__builtin__
list
p2
(lp3
g0
(g1
g2
(lp4
g0
(g1
g2
(lp5
g0
(g1
g2
(lp6
g0
(g1
g2
(lp7
g0
(g1
g2
(lp8
VThe
p9
atp10
Rp11
(dp12
S'_label'
p13
VDT
p14
sbag0
(g1
g2
(lp15
Vgirl
p16
atp17
Rp18
(dp19
g13
VNN
p20
sbatp21
Rp22
(dp23
g13
VNP
p24
sbag0
(g1
g2
(lp25
g0
(g1
g2
(lp26
Vgetting
p27
atp28
Rp29
(dp30
g13
VVBG
p31
sbag0
(g1
g2
(lp32
g0
(g1
g2
(lp33
Vher
p34
atp35
Rp36
(dp37
g13
VPRP$
p38
sbag0
(g1
g2
(lp39
Vbrother
p40
atp41
Rp42
(dp43
g13
VNN
p44
sbatp45
Rp46
(dp47
g13
VNP
p48
sbag0
(g1
g2
(lp49
g0
(g1
g2
(lp50
Vout
p51
atp52
Rp53
(dp54
g13
VIN
p55
sbag0
(g1
g2
(lp56
g0
(g1
g2
(lp57
Vof
p58
atp59
Rp60
(dp61
g13
VIN
p62
sbag0
(g1
g2
(lp63
g0
(g1
g2
(lp64
Vthe
p65
atp66
Rp67
(dp68
g13
VDT
p69
sbag0
(g1
g2
(lp70
Vcookie
p71
atp72
Rp73
(dp74
g13
VNN
p75
sbag0
(g1
g2
(lp76
Vjar
p77
atp78
Rp79
(dp80
g13
VNN
p81
sbatp82
Rp83
(dp84
g13
VNP
p85
sbatp86
Rp87
(dp88
g13
VPP
p89
sbatp90
Rp91
(dp92
g13
VADVP
p93
sbag0
(g1
g2
(lp94
V,
p95
atp96
Rp97
(dp98
g13
V,
p99
sbag0
(g1
g2
(lp100
g0
(g1
g2
(lp101
g0
(g1
g2
(lp102
Vhe
p103
atp104
Rp105
(dp106
g13
VPRP
p107
sbatp108
Rp109
(dp110
g13
VNP
p111
sbag0
(g1
g2
(lp112
g0
(g1
g2
(lp113
Vget
p114
atp115
Rp116
(dp117
g13
VVB
p118
sbag0
(g1
g2
(lp119
g0
(g1
g2
(lp120
Vit
p121
atp122
Rp123
(dp124
g13
VPRP
p125
sbatp126
Rp127
(dp128
g13
VNP
p129
sbatp130
Rp131
(dp132
g13
VVP
p133
sbatp134
Rp135
(dp136
g13
VS
p137
sbatp138
Rp139
(dp140
g13
VVP
p141
sbatp142
Rp143
(dp144
g13
VS
p145
sbag0
(g1
g2
(lp146
V,
p147
atp148
Rp149
(dp150
g13
V,
p151
sbag0
(g1
g2
(lp152
Vand
p153
atp154
Rp155
(dp156
g13
VCC
p157
sbag0
(g1
g2
(lp158
g0
(g1
g2
(lp159
g0
(g1
g2
(lp160
g0
(g1
g2
(lp161
Vhe
p162
atp163
Rp164
(dp165
g13
VPRP
p166
sbatp167
Rp168
(dp169
g13
VNP
p170
sbag0
(g1
g2
(lp171
g0
(g1
g2
(lp172
Vreach
p173
atp174
Rp175
(dp176
g13
VVB
p177
sbag0
(g1
g2
(lp178
g0
(g1
g2
(lp179
Vfor
p180
atp181
Rp182
(dp183
g13
VIN
p184
sbag0
(g1
g2
(lp185
g0
(g1
g2
(lp186
Vit
p187
atp188
Rp189
(dp190
g13
VPRP
p191
sbatp192
Rp193
(dp194
g13
VNP
p195
sbatp196
Rp197
(dp198
g13
VPP
p199
sbatp200
Rp201
(dp202
g13
VVP
p203
sbatp204
Rp205
(dp206
g13
VS
p207
sbag0
(g1
g2
(lp208
V,
p209
atp210
Rp211
(dp212
g13
V,
p213
sbag0
(g1
g2
(lp214
Vand
p215
atp216
Rp217
(dp218
g13
VCC
p219
sbag0
(g1
g2
(lp220
g0
(g1
g2
(lp221
g0
(g1
g2
(lp222
Vhe
p223
atp224
Rp225
(dp226
g13
VPRP
p227
sbatp228
Rp229
(dp230
g13
VNP
p231
sbag0
(g1
g2
(lp232
g0
(g1
g2
(lp233
Vgon
p234
atp235
Rp236
(dp237
g13
VVBG
p238
sbag0
(g1
g2
(lp239
g0
(g1
g2
(lp240
g0
(g1
g2
(lp241
Vna
p242
atp243
Rp244
(dp245
g13
VTO
p246
sbag0
(g1
g2
(lp247
g0
(g1
g2
(lp248
Vfall
p249
atp250
Rp251
(dp252
g13
VVB
p253
sbag0
(g1
g2
(lp254
g0
(g1
g2
(lp255
Vdown
p256
atp257
Rp258
(dp259
g13
VRP
p260
sbatp261
Rp262
(dp263
g13
VPRT
p264
sbatp265
Rp266
(dp267
g13
VVP
p268
sbatp269
Rp270
(dp271
g13
VVP
p272
sbatp273
Rp274
(dp275
g13
VS
p276
sbatp277
Rp278
(dp279
g13
VVP
p280
sbatp281
Rp282
(dp283
g13
VS
p284
sbatp285
Rp286
(dp287
g13
VS
p288
sbag0
(g1
g2
(lp289
V.
p290
atp291
Rp292
(dp293
g13
V.
p294
sbatp295
Rp296
(dp297
g13
VS
p298
sbatp299
Rp300
(dp301
g13
S'id: 0'
p302
sbag0
(g1
g2
(lp303
g0
(g1
g2
(lp304
g0
(g1
g2
(lp305
g0
(g1
g2
(lp306
g0
(g1
g2
(lp307
VHer
p308
atp309
Rp310
(dp311
g13
VPRP$
p312
sbag0
(g1
g2
(lp313
Vmother
p314
atp315
Rp316
(dp317
g13
VNN
p318
sbatp319
Rp320
(dp321
g13
VNP
p322
sbag0
(g1
g2
(lp323
g0
(g1
g2
(lp324
g0
(g1
g2
(lp325
Vis
p326
atp327
Rp328
(dp329
g13
VVBZ
p330
sbag0
(g1
g2
(lp331
g0
(g1
g2
(lp332
Vwashing
p333
atp334
Rp335
(dp336
g13
VVBG
p337
sbag0
(g1
g2
(lp338
g0
(g1
g2
(lp339
Vher
p340
atp341
Rp342
(dp343
g13
VPRP$
p344
sbag0
(g1
g2
(lp345
Vdishes
p346
atp347
Rp348
(dp349
g13
VNNS
p350
sbatp351
Rp352
(dp353
g13
VNP
p354
sbatp355
Rp356
(dp357
g13
VVP
p358
sbatp359
Rp360
(dp361
g13
VVP
p362
sbag0
(g1
g2
(lp363
V,
p364
atp365
Rp366
(dp367
g13
V,
p368
sbag0
(g1
g2
(lp369
Vand
p370
atp371
Rp372
(dp373
g13
VCC
p374
sbag0
(g1
g2
(lp375
g0
(g1
g2
(lp376
g0
(g1
g2
(lp377
Vover
p378
atp379
Rp380
(dp381
g13
VIN
p382
sbatp383
Rp384
(dp385
g13
VADVP
p386
sbag0
(g1
g2
(lp387
Vrun
p388
atp389
Rp390
(dp391
g13
VVBP
p392
sbag0
(g1
g2
(lp393
g0
(g1
g2
(lp394
g0
(g1
g2
(lp395
Vthe
p396
atp397
Rp398
(dp399
g13
VDT
p400
sbag0
(g1
g2
(lp401
Vsink
p402
atp403
Rp404
(dp405
g13
VNN
p406
sbatp407
Rp408
(dp409
g13
VNP
p410
sbag0
(g1
g2
(lp411
V,
p412
atp413
Rp414
(dp415
g13
V,
p416
sbag0
(g1
g2
(lp417
g0
(g1
g2
(lp418
g0
(g1
g2
(lp419
Vfall
p420
atp421
Rp422
(dp423
g13
VNN
p424
sbatp425
Rp426
(dp427
g13
VNP
p428
sbag0
(g1
g2
(lp429
g0
(g1
g2
(lp430
Vto
p431
atp432
Rp433
(dp434
g13
VTO
p435
sbag0
(g1
g2
(lp436
g0
(g1
g2
(lp437
Vthe
p438
atp439
Rp440
(dp441
g13
VDT
p442
sbag0
(g1
g2
(lp443
Vground
p444
atp445
Rp446
(dp447
g13
VNN
p448
sbatp449
Rp450
(dp451
g13
VNP
p452
sbatp453
Rp454
(dp455
g13
VPP
p456
sbatp457
Rp458
(dp459
g13
VNP
p460
sbag0
(g1
g2
(lp461
V,
p462
atp463
Rp464
(dp465
g13
V,
p466
sbag0
(g1
g2
(lp467
Vand
p468
atp469
Rp470
(dp471
g13
VCC
p472
sbag0
(g1
g2
(lp473
g0
(g1
g2
(lp474
g0
(g1
g2
(lp475
Vthe
p476
atp477
Rp478
(dp479
g13
VDT
p480
sbag0
(g1
g2
(lp481
Vpots
p482
atp483
Rp484
(dp485
g13
VNNS
p486
sbag0
(g1
g2
(lp487
Vand
p488
atp489
Rp490
(dp491
g13
VCC
p492
sbag0
(g1
g2
(lp493
Vdishes
p494
atp495
Rp496
(dp497
g13
VNNS
p498
sbatp499
Rp500
(dp501
g13
VNP
p502
sbag0
(g1
g2
(lp503
g0
(g1
g2
(lp504
g0
(g1
g2
(lp505
Vall
p506
atp507
Rp508
(dp509
g13
VDT
p510
sbatp511
Rp512
(dp513
g13
VADVP
p514
sbag0
(g1
g2
(lp515
Vover
p516
atp517
Rp518
(dp519
g13
VIN
p520
sbag0
(g1
g2
(lp521
g0
(g1
g2
(lp522
Vthe
p523
atp524
Rp525
(dp526
g13
VDT
p527
sbag0
(g1
g2
(lp528
Vplace
p529
atp530
Rp531
(dp532
g13
VNN
p533
sbatp534
Rp535
(dp536
g13
VNP
p537
sbatp538
Rp539
(dp540
g13
VPP
p541
sbatp542
Rp543
(dp544
g13
VNP
p545
sbatp546
Rp547
(dp548
g13
VNP
p549
sbatp550
Rp551
(dp552
g13
VVP
p553
sbatp554
Rp555
(dp556
g13
VVP
p557
sbatp558
Rp559
(dp560
g13
VS
p561
sbag0
(g1
g2
(lp562
V,
p563
atp564
Rp565
(dp566
g13
V,
p567
sbag0
(g1
g2
(lp568
Vand
p569
atp570
Rp571
(dp572
g13
VCC
p573
sbag0
(g1
g2
(lp574
g0
(g1
g2
(lp575
g0
(g1
g2
(lp576
g0
(g1
g2
(lp577
Vwashing
p578
atp579
Rp580
(dp581
g13
VVBG
p582
sbag0
(g1
g2
(lp583
g0
(g1
g2
(lp584
Vthe
p585
atp586
Rp587
(dp588
g13
VDT
p589
sbatp590
Rp591
(dp592
g13
VNP
p593
sbatp594
Rp595
(dp596
g13
VVP
p597
sbatp598
Rp599
(dp600
g13
VS
p601
sbag0
(g1
g2
(lp602
V,
p603
atp604
Rp605
(dp606
g13
V,
p607
sbag0
(g1
g2
(lp608
g0
(g1
g2
(lp609
Vshe
p610
atp611
Rp612
(dp613
g13
VPRP
p614
sbatp615
Rp616
(dp617
g13
VNP
p618
sbag0
(g1
g2
(lp619
g0
(g1
g2
(lp620
Vrees
p621
atp622
Rp623
(dp624
g13
VVBZ
p625
sbatp626
Rp627
(dp628
g13
VVP
p629
sbatp630
Rp631
(dp632
g13
VS
p633
sbag0
(g1
g2
(lp634
V.
p635
atp636
Rp637
(dp638
g13
V.
p639
sbatp640
Rp641
(dp642
g13
VS
p643
sbatp644
Rp645
(dp646
g13
S'id: 1'
p647
sbag0
(g1
g2
(lp648
g0
(g1
g2
(lp649
g0
(g1
g2
(lp650
g0
(g1
g2
(lp651
g0
(g1
g2
(lp652
g0
(g1
g2
(lp653
VRise
p654
atp655
Rp656
(dp657
g13
VNN
p658
sbatp659
Rp660
(dp661
g13
VNP
p662
sbag0
(g1
g2
(lp663
g0
(g1
g2
(lp664
Vthe
p665
atp666
Rp667
(dp668
g13
VDT
p669
sbag0
(g1
g2
(lp670
Vdishes
p671
atp672
Rp673
(dp674
g13
VNNS
p675
sbatp676
Rp677
(dp678
g13
VNP
p679
sbatp680
Rp681
(dp682
g13
VNP
p683
sbag0
(g1
g2
(lp684
V,
p685
atp686
Rp687
(dp688
g13
V,
p689
sbag0
(g1
g2
(lp690
Vand
p691
atp692
Rp693
(dp694
g13
VCC
p695
sbag0
(g1
g2
(lp696
g0
(g1
g2
(lp697
g0
(g1
g2
(lp698
Vnotice
p699
atp700
Rp701
(dp702
g13
VNN
p703
sbatp704
Rp705
(dp706
g13
VNP
p707
sbag0
(g1
g2
(lp708
g0
(g1
g2
(lp709
Vthat
p710
atp711
Rp712
(dp713
g13
VIN
p714
sbag0
(g1
g2
(lp715
g0
(g1
g2
(lp716
g0
(g1
g2
(lp717
Vit
p718
atp719
Rp720
(dp721
g13
VPRP
p722
sbatp723
Rp724
(dp725
g13
VNP
p726
sbag0
(g1
g2
(lp727
g0
(g1
g2
(lp728
V's
p729
atp730
Rp731
(dp732
g13
VVBZ
p733
sbag0
(g1
g2
(lp734
g0
(g1
g2
(lp735
Vrunning
p736
atp737
Rp738
(dp739
g13
VVBG
p740
sbag0
(g1
g2
(lp741
g0
(g1
g2
(lp742
Vover
p743
atp744
Rp745
(dp746
g13
VRP
p747
sbatp748
Rp749
(dp750
g13
VPRT
p751
sbatp752
Rp753
(dp754
g13
VVP
p755
sbatp756
Rp757
(dp758
g13
VVP
p759
sbatp760
Rp761
(dp762
g13
VS
p763
sbatp764
Rp765
(dp766
g13
VSBAR
p767
sbatp768
Rp769
(dp770
g13
VNP
p771
sbatp772
Rp773
(dp774
g13
VNP
p775
sbag0
(g1
g2
(lp776
V.
p777
atp778
Rp779
(dp780
g13
V.
p781
sbatp782
Rp783
(dp784
g13
VNP
p785
sbatp786
Rp787
(dp788
g13
S'id: 2'
p789
sbag0
(g1
g2
(lp790
g0
(g1
g2
(lp791
g0
(g1
g2
(lp792
VAnd
p793
atp794
Rp795
(dp796
g13
VCC
p797
sbag0
(g1
g2
(lp798
g0
(g1
g2
(lp799
Vtrees
p800
atp801
Rp802
(dp803
g13
VNNS
p804
sbatp805
Rp806
(dp807
g13
VNP
p808
sbag0
(g1
g2
(lp809
V,
p810
atp811
Rp812
(dp813
g13
V,
p814
sbag0
(g1
g2
(lp815
g0
(g1
g2
(lp816
VI
p817
atp818
Rp819
(dp820
g13
VPRP
p821
sbatp822
Rp823
(dp824
g13
VNP
p825
sbag0
(g1
g2
(lp826
g0
(g1
g2
(lp827
Vsee
p828
atp829
Rp830
(dp831
g13
VVBP
p832
sbag0
(g1
g2
(lp833
g0
(g1
g2
(lp834
g0
(g1
g2
(lp835
Vthe
p836
atp837
Rp838
(dp839
g13
VDT
p840
sbag0
(g1
g2
(lp841
Vman
p842
atp843
Rp844
(dp845
g13
VNN
p846
sbatp847
Rp848
(dp849
g13
VNP
p850
sbag0
(g1
g2
(lp851
g0
(g1
g2
(lp852
Vtalking
p853
atp854
Rp855
(dp856
g13
VVBG
p857
sbag0
(g1
g2
(lp858
g0
(g1
g2
(lp859
Vabout
p860
atp861
Rp862
(dp863
g13
VRB
p864
sbatp865
Rp866
(dp867
g13
VADVP
p868
sbag0
(g1
g2
(lp869
V,
p870
atp871
Rp872
(dp873
g13
V,
p874
sbag0
(g1
g2
(lp875
g0
(g1
g2
(lp876
Von
p877
atp878
Rp879
(dp880
g13
VIN
p881
sbag0
(g1
g2
(lp882
g0
(g1
g2
(lp883
Vthe
p884
atp885
Rp886
(dp887
g13
VDT
p888
sbag0
(g1
g2
(lp889
Vtree
p890
atp891
Rp892
(dp893
g13
VNN
p894
sbatp895
Rp896
(dp897
g13
VNP
p898
sbatp899
Rp900
(dp901
g13
VPP
p902
sbatp903
Rp904
(dp905
g13
VVP
p906
sbatp907
Rp908
(dp909
g13
VNP
p910
sbatp911
Rp912
(dp913
g13
VVP
p914
sbag0
(g1
g2
(lp915
V.
p916
atp917
Rp918
(dp919
g13
V.
p920
sbatp921
Rp922
(dp923
g13
VS
p924
sbatp925
Rp926
(dp927
g13
S'id: 3'
p928
sbag0
(g1
g2
(lp929
g0
(g1
g2
(lp930
g0
(g1
g2
(lp931
VAnd
p932
atp933
Rp934
(dp935
g13
VCC
p936
sbag0
(g1
g2
(lp937
V,
p938
atp939
Rp940
(dp941
g13
V,
p942
sbag0
(g1
g2
(lp943
g0
(g1
g2
(lp944
Vand
p945
atp946
Rp947
(dp948
g13
VCC
p949
sbag0
(g1
g2
(lp950
g0
(g1
g2
(lp951
g0
(g1
g2
(lp952
g0
(g1
g2
(lp953
Vthe
p954
atp955
Rp956
(dp957
g13
VDT
p958
sbag0
(g1
g2
(lp959
Vlittle
p960
atp961
Rp962
(dp963
g13
VJJ
p964
sbag0
(g1
g2
(lp965
Vgirl
p966
atp967
Rp968
(dp969
g13
VNN
p970
sbatp971
Rp972
(dp973
g13
VNP
p974
sbag0
(g1
g2
(lp975
V,
p976
atp977
Rp978
(dp979
g13
V,
p980
sbag0
(g1
g2
(lp981
g0
(g1
g2
(lp982
Vlaughing
p983
atp984
Rp985
(dp986
g13
VVBG
p987
sbag0
(g1
g2
(lp988
g0
(g1
g2
(lp989
Vabout
p990
atp991
Rp992
(dp993
g13
VIN
p994
sbag0
(g1
g2
(lp995
g0
(g1
g2
(lp996
Vit
p997
atp998
Rp999
(dp1000
g13
VPRP
p1001
sbatp1002
Rp1003
(dp1004
g13
VNP
p1005
sbatp1006
Rp1007
(dp1008
g13
VPP
p1009
sbatp1010
Rp1011
(dp1012
g13
VVP
p1013
sbag0
(g1
g2
(lp1014
V,
p1015
atp1016
Rp1017
(dp1018
g13
V,
p1019
sbatp1020
Rp1021
(dp1022
g13
VNP
p1023
sbag0
(g1
g2
(lp1024
g0
(g1
g2
(lp1025
Vbecause
p1026
atp1027
Rp1028
(dp1029
g13
VIN
p1030
sbag0
(g1
g2
(lp1031
g0
(g1
g2
(lp1032
Vshe
p1033
atp1034
Rp1035
(dp1036
g13
VPRP
p1037
sbatp1038
Rp1039
(dp1040
g13
VNP
p1041
sbatp1042
Rp1043
(dp1044
g13
VPP
p1045
sbatp1046
Rp1047
(dp1048
g13
VS
p1049
sbatp1050
Rp1051
(dp1052
g13
VS
p1053
sbag0
(g1
g2
(lp1054
g0
(g1
g2
(lp1055
Vwant
p1056
atp1057
Rp1058
(dp1059
g13
VVBP
p1060
sbag0
(g1
g2
(lp1061
g0
(g1
g2
(lp1062
Va
p1063
atp1064
Rp1065
(dp1066
g13
VDT
p1067
sbag0
(g1
g2
(lp1068
Vcookie
p1069
atp1070
Rp1071
(dp1072
g13
VNN
p1073
sbatp1074
Rp1075
(dp1076
g13
VNP
p1077
sbatp1078
Rp1079
(dp1080
g13
VVP
p1081
sbag0
(g1
g2
(lp1082
V.
p1083
atp1084
Rp1085
(dp1086
g13
V.
p1087
sbatp1088
Rp1089
(dp1090
g13
VS
p1091
sbatp1092
Rp1093
(dp1094
g13
S'id: 4'
p1095
sbag0
(g1
g2
(lp1096
g0
(g1
g2
(lp1097
g0
(g1
g2
(lp1098
VAnd
p1099
atp1100
Rp1101
(dp1102
g13
VCC
p1103
sbag0
(g1
g2
(lp1104
g0
(g1
g2
(lp1105
g0
(g1
g2
(lp1106
Va
p1107
atp1108
Rp1109
(dp1110
g13
VDT
p1111
sbag0
(g1
g2
(lp1112
Vpotter
p1113
atp1114
Rp1115
(dp1116
g13
VNN
p1117
sbatp1118
Rp1119
(dp1120
g13
VNP
p1121
sbag0
(g1
g2
(lp1122
g0
(g1
g2
(lp1123
Von
p1124
atp1125
Rp1126
(dp1127
g13
VIN
p1128
sbag0
(g1
g2
(lp1129
g0
(g1
g2
(lp1130
g0
(g1
g2
(lp1131
Va
p1132
atp1133
Rp1134
(dp1135
g13
VDT
p1136
sbag0
(g1
g2
(lp1137
Vstih
p1138
atp1139
Rp1140
(dp1141
g13
VNN
p1142
sbatp1143
Rp1144
(dp1145
g13
VNP
p1146
sbag0
(g1
g2
(lp1147
V,
p1148
atp1149
Rp1150
(dp1151
g13
V,
p1152
sbag0
(g1
g2
(lp1153
Vand
p1154
atp1155
Rp1156
(dp1157
g13
VCC
p1158
sbag0
(g1
g2
(lp1159
g0
(g1
g2
(lp1160
g0
(g1
g2
(lp1161
g0
(g1
g2
(lp1162
Vthe
p1163
atp1164
Rp1165
(dp1166
g13
VDT
p1167
sbag0
(g1
g2
(lp1168
Vmother
p1169
atp1170
Rp1171
(dp1172
g13
VNN
p1173
sbag0
(g1
g2
(lp1174
Vsteppin
p1175
atp1176
Rp1177
(dp1178
g13
VNN
p1179
sbatp1180
Rp1181
(dp1182
g13
VNP
p1183
sbag0
(g1
g2
(lp1184
g0
(g1
g2
(lp1185
Vdown
p1186
atp1187
Rp1188
(dp1189
g13
VRB
p1190
sbatp1191
Rp1192
(dp1193
g13
VADVP
p1194
sbatp1195
Rp1196
(dp1197
g13
VNP
p1198
sbag0
(g1
g2
(lp1199
V,
p1200
atp1201
Rp1202
(dp1203
g13
V,
p1204
sbag0
(g1
g2
(lp1205
g0
(g1
g2
(lp1206
Va
p1207
atp1208
Rp1209
(dp1210
g13
VDT
p1211
sbag0
(g1
g2
(lp1212
Vporder
p1213
atp1214
Rp1215
(dp1216
g13
VNN
p1217
sbag0
(g1
g2
(lp1218
Vwater
p1219
atp1220
Rp1221
(dp1222
g13
VNN
p1223
sbatp1224
Rp1225
(dp1226
g13
VNP
p1227
sbatp1228
Rp1229
(dp1230
g13
VNP
p1231
sbatp1232
Rp1233
(dp1234
g13
VNP
p1235
sbatp1236
Rp1237
(dp1238
g13
VPP
p1239
sbatp1240
Rp1241
(dp1242
g13
VNP
p1243
sbag0
(g1
g2
(lp1244
V.
p1245
atp1246
Rp1247
(dp1248
g13
V.
p1249
sbatp1250
Rp1251
(dp1252
g13
VFRAG
p1253
sbatp1254
Rp1255
(dp1256
g13
S'id: 5'
p1257
sbag0
(g1
g2
(lp1258
g0
(g1
g2
(lp1259
g0
(g1
g2
(lp1260
VAnd
p1261
atp1262
Rp1263
(dp1264
g13
VCC
p1265
sbag0
(g1
g2
(lp1266
g0
(g1
g2
(lp1267
Vshe
p1268
atp1269
Rp1270
(dp1271
g13
VPRP
p1272
sbatp1273
Rp1274
(dp1275
g13
VNP
p1276
sbag0
(g1
g2
(lp1277
V,
p1278
atp1279
Rp1280
(dp1281
g13
V,
p1282
sbag0
(g1
g2
(lp1283
g0
(g1
g2
(lp1284
g0
(g1
g2
(lp1285
Vshe
p1286
atp1287
Rp1288
(dp1289
g13
VPRP
p1290
sbatp1291
Rp1292
(dp1293
g13
VNP
p1294
sbag0
(g1
g2
(lp1295
g0
(g1
g2
(lp1296
g0
(g1
g2
(lp1297
Vlooking
p1298
atp1299
Rp1300
(dp1301
g13
VVBG
p1302
sbag0
(g1
g2
(lp1303
g0
(g1
g2
(lp1304
Vout
p1305
atp1306
Rp1307
(dp1308
g13
VRP
p1309
sbatp1310
Rp1311
(dp1312
g13
VPRT
p1313
sbag0
(g1
g2
(lp1314
g0
(g1
g2
(lp1315
Vthe
p1316
atp1317
Rp1318
(dp1319
g13
VDT
p1320
sbag0
(g1
g2
(lp1321
Vwindow
p1322
atp1323
Rp1324
(dp1325
g13
VNN
p1326
sbatp1327
Rp1328
(dp1329
g13
VNP
p1330
sbatp1331
Rp1332
(dp1333
g13
VVP
p1334
sbatp1335
Rp1336
(dp1337
g13
VS
p1338
sbatp1339
Rp1340
(dp1341
g13
VS
p1342
sbag0
(g1
g2
(lp1343
V,
p1344
atp1345
Rp1346
(dp1347
g13
V,
p1348
sbag0
(g1
g2
(lp1349
g0
(g1
g2
(lp1350
Vher
p1351
atp1352
Rp1353
(dp1354
g13
VPRP$
p1355
sbag0
(g1
g2
(lp1356
Vmind
p1357
atp1358
Rp1359
(dp1360
g13
VNN
p1361
sbatp1362
Rp1363
(dp1364
g13
VNP
p1365
sbag0
(g1
g2
(lp1366
g0
(g1
g2
(lp1367
Vis
p1368
atp1369
Rp1370
(dp1371
g13
VVBZ
p1372
sbag0
(g1
g2
(lp1373
g0
(g1
g2
(lp1374
Vsomewhere
p1375
atp1376
Rp1377
(dp1378
g13
VRB
p1379
sbatp1380
Rp1381
(dp1382
g13
VADVP
p1383
sbag0
(g1
g2
(lp1384
g0
(g1
g2
(lp1385
Velse
p1386
atp1387
Rp1388
(dp1389
g13
VRB
p1390
sbatp1391
Rp1392
(dp1393
g13
VADJP
p1394
sbatp1395
Rp1396
(dp1397
g13
VVP
p1398
sbag0
(g1
g2
(lp1399
V.
p1400
atp1401
Rp1402
(dp1403
g13
V.
p1404
sbatp1405
Rp1406
(dp1407
g13
VS
p1408
sbatp1409
Rp1410
(dp1411
g13
S'id: 6'
p1412
sbag0
(g1
g2
(lp1413
g0
(g1
g2
(lp1414
g0
(g1
g2
(lp1415
g0
(g1
g2
(lp1416
VThe
p1417
atp1418
Rp1419
(dp1420
g13
VDT
p1421
sbag0
(g1
g2
(lp1422
Vwindows
p1423
atp1424
Rp1425
(dp1426
g13
VNNS
p1427
sbatp1428
Rp1429
(dp1430
g13
VNP
p1431
sbag0
(g1
g2
(lp1432
g0
(g1
g2
(lp1433
Vis
p1434
atp1435
Rp1436
(dp1437
g13
VVBZ
p1438
sbag0
(g1
g2
(lp1439
g0
(g1
g2
(lp1440
Vopen
p1441
atp1442
Rp1443
(dp1444
g13
VJJ
p1445
sbatp1446
Rp1447
(dp1448
g13
VADJP
p1449
sbatp1450
Rp1451
(dp1452
g13
VVP
p1453
sbag0
(g1
g2
(lp1454
V.
p1455
atp1456
Rp1457
(dp1458
g13
V.
p1459
sbatp1460
Rp1461
(dp1462
g13
VS
p1463
sbatp1464
Rp1465
(dp1466
g13
S'id: 7'
p1467
sbag0
(g1
g2
(lp1468
g0
(g1
g2
(lp1469
g0
(g1
g2
(lp1470
VAnd
p1471
atp1472
Rp1473
(dp1474
g13
VCC
p1475
sbag0
(g1
g2
(lp1476
V,
p1477
atp1478
Rp1479
(dp1480
g13
V,
p1481
sbag0
(g1
g2
(lp1482
g0
(g1
g2
(lp1483
Vnice
p1484
atp1485
Rp1486
(dp1487
g13
VJJ
p1488
sbag0
(g1
g2
(lp1489
Vhouse
p1490
atp1491
Rp1492
(dp1493
g13
VNN
p1494
sbatp1495
Rp1496
(dp1497
g13
VNP
p1498
sbag0
(g1
g2
(lp1499
V!
p1500
atp1501
Rp1502
(dp1503
g13
V.
p1504
sbatp1505
Rp1506
(dp1507
g13
VFRAG
p1508
sbatp1509
Rp1510
(dp1511
g13
S'id: 8'
p1512
sbatp1513
Rp1514
(dp1515
g13
S'sentences'
p1516
sb.