ccopy_reg
_reconstructor
p0
(cnltk.tree
Tree
p1
c__builtin__
list
p2
(lp3
g0
(g1
g2
(lp4
g0
(g1
g2
(lp5
g0
(g1
g2
(lp6
VI
p7
atp8
Rp9
(dp10
S'_label'
p11
S'start: 1'
p12
sbatp13
Rp14
(dp15
g11
S'sent: 1'
p16
sbag0
(g1
g2
(lp17
g0
(g1
g2
(lp18
VI
p19
atp20
Rp21
(dp22
g11
S'start: 1'
p23
sbatp24
Rp25
(dp26
g11
S'sent: 8'
p27
sbatp28
Rp29
(dp30
g11
S'id: 1'
p31
sbag0
(g1
g2
(lp32
g0
(g1
g2
(lp33
g0
(g1
g2
(lp34
VA wa pa pa
p35
atp36
Rp37
(dp38
g11
S'start: 1'
p39
sbatp40
Rp41
(dp42
g11
S'sent: 2'
p43
sbag0
(g1
g2
(lp44
g0
(g1
g2
(lp45
Va wa , flying his kite , with a dog with him
p46
atp47
Rp48
(dp49
g11
S'start: 6'
p50
sbatp51
Rp52
(dp53
g11
S'sent: 2'
p54
sbag0
(g1
g2
(lp55
g0
(g1
g2
(lp56
Va wa
p57
atp58
Rp59
(dp60
g11
S'start: 6'
p61
sbatp62
Rp63
(dp64
g11
S'sent: 2'
p65
sbatp66
Rp67
(dp68
g11
S'id: 4'
p69
sbag0
(g1
g2
(lp70
g0
(g1
g2
(lp71
g0
(g1
g2
(lp72
Vhis
p73
atp74
Rp75
(dp76
g11
S'start: 10'
p77
sbatp78
Rp79
(dp80
g11
S'sent: 2'
p81
sbag0
(g1
g2
(lp82
g0
(g1
g2
(lp83
Vhim
p84
atp85
Rp86
(dp87
g11
S'start: 17'
p88
sbatp89
Rp90
(dp91
g11
S'sent: 2'
p92
sbag0
(g1
g2
(lp93
g0
(g1
g2
(lp94
Vhim
p95
atp96
Rp97
(dp98
g11
S'start: 20'
p99
sbatp100
Rp101
(dp102
g11
S'sent: 2'
p103
sbatp104
Rp105
(dp106
g11
S'id: 8'
p107
sbag0
(g1
g2
(lp108
g0
(g1
g2
(lp109
g0
(g1
g2
(lp110
Vsomeone 's selling
p111
atp112
Rp113
(dp114
g11
S'start: 2'
p115
sbatp116
Rp117
(dp118
g11
S'sent: 5'
p119
sbag0
(g1
g2
(lp120
g0
(g1
g2
(lp121
Vit
p122
atp123
Rp124
(dp125
g11
S'start: 2'
p126
sbatp127
Rp128
(dp129
g11
S'sent: 6'
p130
sbatp131
Rp132
(dp133
g11
S'id: 20'
p134
sbag0
(g1
g2
(lp135
g0
(g1
g2
(lp136
g0
(g1
g2
(lp137
Vsomeone 's
p138
atp139
Rp140
(dp141
g11
S'start: 2'
p142
sbatp143
Rp144
(dp145
g11
S'sent: 5'
p146
sbag0
(g1
g2
(lp147
g0
(g1
g2
(lp148
Vhe
p149
atp150
Rp151
(dp152
g11
S'start: 3'
p153
sbatp154
Rp155
(dp156
g11
S'sent: 8'
p157
sbag0
(g1
g2
(lp158
g0
(g1
g2
(lp159
Vhis
p160
atp161
Rp162
(dp163
g11
S'start: 6'
p164
sbatp165
Rp166
(dp167
g11
S'sent: 8'
p168
sbag0
(g1
g2
(lp169
g0
(g1
g2
(lp170
Vhe
p171
atp172
Rp173
(dp174
g11
S'start: 10'
p175
sbatp176
Rp177
(dp178
g11
S'sent: 8'
p179
sbatp180
Rp181
(dp182
g11
S'id: 21'
p183
sbatp184
Rp185
(dp186
g11
S'coreferences'
p187
sb.