ccopy_reg
_reconstructor
p0
(cnltk.tree
Tree
p1
c__builtin__
list
p2
(lp3
g0
(g1
g2
(lp4
g0
(g1
g2
(lp5
g0
(g1
g2
(lp6
(lp7
S'word: oh, index: 1'
p8
aatp9
Rp10
(dp11
S'_label'
p12
Vdiscourse
p13
sbatp14
Rp15
(dp16
g12
S'word: kitchen, index: 2'
p17
sbatp18
Rp19
(dp20
g12
S'id: 0'
p21
sbag0
(g1
g2
(lp22
g0
(g1
g2
(lp23
g0
(g1
g2
(lp24
g0
(g1
g2
(lp25
g0
(g1
g2
(lp26
(lp27
S'word: people, index: 3'
p28
aatp29
Rp30
(dp31
g12
Vnsubj
p32
sbag0
(g1
g2
(lp33
g0
(g1
g2
(lp34
g0
(g1
g2
(lp35
(lp36
S'word: a, index: 6'
p37
aatp38
Rp39
(dp40
g12
Vdet
p41
sbag0
(g1
g2
(lp42
(lp43
S'word: cookie, index: 7'
p44
aatp45
Rp46
(dp47
g12
Vnn
p48
sbatp49
Rp50
(dp51
g12
S'word: jar, index: 8'
p52
sbatp53
Rp54
(dp55
g12
Vprep
p56
sbag0
(g1
g2
(lp57
g0
(g1
g2
(lp58
g0
(g1
g2
(lp59
(lp60
S'word: a, index: 11'
p61
aatp62
Rp63
(dp64
g12
Vdet
p65
sbag0
(g1
g2
(lp66
(lp67
S'word: jewel, index: 12'
p68
aatp69
Rp70
(dp71
g12
Vnn
p72
sbag0
(g1
g2
(lp73
(lp74
S'word: trippin, index: 15'
p75
aatp76
Rp77
(dp78
g12
Vprep
p79
sbatp80
Rp81
(dp82
g12
S'word: kind, index: 13'
p83
sbatp84
Rp85
(dp86
g12
Vprep
p87
sbag0
(g1
g2
(lp88
(lp89
S'word: over, index: 16'
p90
aatp91
Rp92
(dp93
g12
Vprep
p94
sbatp95
Rp96
(dp97
g12
S'word: getting, index: 4'
p98
sbatp99
Rp100
(dp101
g12
Vdep
p102
sbag0
(g1
g2
(lp103
g0
(g1
g2
(lp104
g0
(g1
g2
(lp105
g0
(g1
g2
(lp106
g0
(g1
g2
(lp107
(lp108
S'word: a, index: 19'
p109
aatp110
Rp111
(dp112
g12
Vdet
p113
sbatp114
Rp115
(dp116
g12
S'word: sink, index: 20'
p117
sbatp118
Rp119
(dp120
g12
Vnsubj
p121
sbag0
(g1
g2
(lp122
(lp123
S'word: is, index: 21'
p124
aatp125
Rp126
(dp127
g12
Vcop
p128
sbatp129
Rp130
(dp131
g12
S'word: over, index: 22'
p132
sbatp133
Rp134
(dp135
g12
Vconj
p136
sbag0
(g1
g2
(lp137
(lp138
S'word: I, index: 1'
p139
aatp140
Rp141
(dp142
g12
Vnsubj
p143
sbatp144
Rp145
(dp146
g12
S'word: see, index: 2'
p147
sbatp148
Rp149
(dp150
g12
S'id: 1'
p151
sbag0
(g1
g2
(lp152
g0
(g1
g2
(lp153
g0
(g1
g2
(lp154
g0
(g1
g2
(lp155
g0
(g1
g2
(lp156
g0
(g1
g2
(lp157
g0
(g1
g2
(lp158
(lp159
S'word: the, index: 12'
p160
aatp161
Rp162
(dp163
g12
Vdet
p164
sbatp165
Rp166
(dp167
g12
S'word: girl, index: 13'
p168
sbatp169
Rp170
(dp171
g12
Vnsubj
p172
sbag0
(g1
g2
(lp173
(lp174
S'word: is, index: 14'
p175
aatp176
Rp177
(dp178
g12
Vaux
p179
sbag0
(g1
g2
(lp180
g0
(g1
g2
(lp181
g0
(g1
g2
(lp182
(lp183
S'word: because, index: 16'
p184
aatp185
Rp186
(dp187
g12
Vmark
p188
sbag0
(g1
g2
(lp189
g0
(g1
g2
(lp190
g0
(g1
g2
(lp191
(lp192
S'word: her, index: 17'
p193
aatp194
Rp195
(dp196
g12
Vposs
p197
sbatp198
Rp199
(dp200
g12
S'word: brother, index: 18'
p201
sbatp202
Rp203
(dp204
g12
Vnsubj
p205
sbag0
(g1
g2
(lp206
(lp207
S'word: trouble, index: 21'
p208
aatp209
Rp210
(dp211
g12
Vprep
p212
sbatp213
Rp214
(dp215
g12
S'word: is, index: 19'
p216
sbatp217
Rp218
(dp219
g12
Vadvcl
p220
sbatp221
Rp222
(dp223
g12
S'word: giggling, index: 15'
p224
sbatp225
Rp226
(dp227
g12
Vconj
p228
sbag0
(g1
g2
(lp229
g0
(g1
g2
(lp230
g0
(g1
g2
(lp231
(lp232
S'word: That, index: 1'
p233
aatp234
Rp235
(dp236
g12
Vdet
p237
sbatp238
Rp239
(dp240
g12
S'word: lady, index: 2'
p241
sbatp242
Rp243
(dp244
g12
Vnsubj
p245
sbag0
(g1
g2
(lp246
g0
(g1
g2
(lp247
g0
(g1
g2
(lp248
g0
(g1
g2
(lp249
g0
(g1
g2
(lp250
(lp251
S'word: boy, index: 7'
p252
aatp253
Rp254
(dp255
g12
Vnn
p256
sbag0
(g1
g2
(lp257
(lp258
S'word: o, index: 8'
p259
aatp260
Rp261
(dp262
g12
Vnn
p263
sbatp264
Rp265
(dp266
g12
S'word: boy, index: 9'
p267
sbatp268
Rp269
(dp270
g12
Vappos
p271
sbatp272
Rp273
(dp274
g12
S'word: trouble, index: 5'
p275
sbatp276
Rp277
(dp278
g12
Vprep
p279
sbatp280
Rp281
(dp282
g12
S'word: is, index: 3'
p283
sbatp284
Rp285
(dp286
g12
S'id: 2'
p287
sbag0
(g1
g2
(lp288
g0
(g1
g2
(lp289
g0
(g1
g2
(lp290
(lp291
S'word: And, index: 1'
p292
aatp293
Rp294
(dp295
g12
Vcc
p296
sbag0
(g1
g2
(lp297
g0
(g1
g2
(lp298
g0
(g1
g2
(lp299
g0
(g1
g2
(lp300
g0
(g1
g2
(lp301
(lp302
S'word: the, index: 2'
p303
aatp304
Rp305
(dp306
g12
Vdet
p307
sbatp308
Rp309
(dp310
g12
S'word: lady, index: 3'
p311
sbatp312
Rp313
(dp314
g12
Vposs
p315
sbag0
(g1
g2
(lp316
g0
(g1
g2
(lp317
g0
(g1
g2
(lp318
g0
(g1
g2
(lp319
g0
(g1
g2
(lp320
g0
(g1
g2
(lp321
g0
(g1
g2
(lp322
(lp323
S'word: she, index: 12'
p324
aatp325
Rp326
(dp327
g12
Vnsubj
p328
sbag0
(g1
g2
(lp329
(lp330
S'word: better, index: 13'
p331
aatp332
Rp333
(dp334
g12
Vadvmod
p335
sbag0
(g1
g2
(lp336
(lp337
S'word: a, index: 15'
p338
aatp339
Rp340
(dp341
g12
Vdobj
p342
sbatp343
Rp344
(dp345
g12
S'word: get, index: 14'
p346
sbatp347
Rp348
(dp349
g12
Vrcmod
p350
sbatp351
Rp352
(dp353
g12
S'word: water, index: 10'
p354
sbatp355
Rp356
(dp357
g12
Vprep
p358
sbag0
(g1
g2
(lp359
(lp360
S'word: a, index: 7'
p361
aatp362
Rp363
(dp364
g12
Vdet
p365
sbatp366
Rp367
(dp368
g12
S'word: puddle, index: 8'
p369
sbatp370
Rp371
(dp372
g12
Vprep
p373
sbatp374
Rp375
(dp376
g12
S'word: walking, index: 5'
p377
sbatp378
Rp379
(dp380
g12
Vnsubj
p381
sbatp382
Rp383
(dp384
g12
S'word: mop, index: 16'
p385
sbatp386
Rp387
(dp388
g12
S'id: 3'
p389
sbag0
(g1
g2
(lp390
g0
(g1
g2
(lp391
g0
(g1
g2
(lp392
g0
(g1
g2
(lp393
g0
(g1
g2
(lp394
(lp395
S'word: they, index: 25'
p396
aatp397
Rp398
(dp399
g12
Vnsubj
p400
sbag0
(g1
g2
(lp401
(lp402
S"word: 're, index: 26"
p403
aatp404
Rp405
(dp406
g12
Vcop
p407
sbag0
(g1
g2
(lp408
(lp409
S'word: probably, index: 27'
p410
aatp411
Rp412
(dp413
g12
Vadvmod
p414
sbatp415
Rp416
(dp417
g12
S'word: clean, index: 28'
p418
sbatp419
Rp420
(dp421
g12
Vconj
p422
sbag0
(g1
g2
(lp423
g0
(g1
g2
(lp424
g0
(g1
g2
(lp425
(lp426
S'word: I, index: 13'
p427
aatp428
Rp429
(dp430
g12
Vnsubj
p431
sbag0
(g1
g2
(lp432
(lp433
S'word: do, index: 14'
p434
aatp435
Rp436
(dp437
g12
Vaux
p438
sbag0
(g1
g2
(lp439
(lp440
S"word: n't, index: 15"
p441
aatp442
Rp443
(dp444
g12
Vneg
p445
sbag0
(g1
g2
(lp446
g0
(g1
g2
(lp447
g0
(g1
g2
(lp448
(lp449
S'word: whether, index: 17'
p450
aatp451
Rp452
(dp453
g12
Vmark
p454
sbag0
(g1
g2
(lp455
(lp456
S'word: they, index: 18'
p457
aatp458
Rp459
(dp460
g12
Vnsubj
p461
sbag0
(g1
g2
(lp462
(lp463
S'word: are, index: 19'
p464
aatp465
Rp466
(dp467
g12
Vcop
p468
sbag0
(g1
g2
(lp469
g0
(g1
g2
(lp470
g0
(g1
g2
(lp471
(lp472
S'word: they, index: 18'
p473
aatp474
Rp475
(dp476
g12
Vnsubj
p477
sbatp478
Rp479
(dp480
g12
S'word: dirty, index: 22'
p481
sbatp482
Rp483
(dp484
g12
Vconj
p485
sbatp486
Rp487
(dp488
g12
S'word: clean, index: 20'
p489
sbatp490
Rp491
(dp492
g12
Vccomp
p493
sbag0
(g1
g2
(lp494
g479
atp495
Rp496
(dp497
g12
Vccomp
p498
sbatp499
Rp500
(dp501
g12
S'word: know, index: 16'
p502
sbatp503
Rp504
(dp505
g12
Vconj
p506
sbag0
(g1
g2
(lp507
(lp508
S'word: I, index: 4'
p509
aatp510
Rp511
(dp512
g12
Vconj
p513
sbag0
(g1
g2
(lp514
g0
(g1
g2
(lp515
g0
(g1
g2
(lp516
(lp517
S'word: some, index: 6'
p518
aatp519
Rp520
(dp521
g12
Vdet
p522
sbatp523
Rp524
(dp525
g12
S'word: dishes, index: 7'
p526
sbatp527
Rp528
(dp529
g12
Vdobj
p530
sbag0
(g1
g2
(lp531
g0
(g1
g2
(lp532
g0
(g1
g2
(lp533
(lp534
S'word: the, index: 9'
p535
aatp536
Rp537
(dp538
g12
Vdet
p539
sbatp540
Rp541
(dp542
g12
S'word: side, index: 10'
p543
sbatp544
Rp545
(dp546
g12
Vprep
p547
sbatp548
Rp549
(dp550
g12
S'word: see, index: 5'
p551
sbatp552
Rp553
(dp554
g12
S'id: 4'
p555
sbag0
(g1
g2
(lp556
g0
(g1
g2
(lp557
g0
(g1
g2
(lp558
(lp559
S'word: And, index: 1'
p560
aatp561
Rp562
(dp563
g12
Vcc
p564
sbag0
(g1
g2
(lp565
(lp566
S'word: I, index: 2'
p567
aatp568
Rp569
(dp570
g12
Vnsubj
p571
sbag0
(g1
g2
(lp572
g0
(g1
g2
(lp573
g0
(g1
g2
(lp574
g0
(g1
g2
(lp575
g0
(g1
g2
(lp576
(lp577
S'word: that, index: 7'
p578
aatp579
Rp580
(dp581
g12
Vnsubj
p582
sbag0
(g1
g2
(lp583
(lp584
S'word: not, index: 14'
p585
aatp586
Rp587
(dp588
g12
Vneg
p589
sbatp590
Rp591
(dp592
g12
S'word: bad, index: 15'
p593
sbatp594
Rp595
(dp596
g12
Vrcmod
p597
sbag0
(g1
g2
(lp598
(lp599
S'word: a, index: 4'
p600
aatp601
Rp602
(dp603
g12
Vdet
p604
sbag0
(g1
g2
(lp605
(lp606
S'word: kitchen, index: 5'
p607
aatp608
Rp609
(dp610
g12
Vnn
p611
sbag0
(g1
g2
(lp612
g0
(g1
g2
(lp613
g0
(g1
g2
(lp614
g591
atp615
Rp616
(dp617
g12
Vconj
p618
sbag0
(g1
g2
(lp619
(lp620
S'word: that, index: 7'
p621
aatp622
Rp623
(dp624
g12
Vnsubj
p625
sbag0
(g1
g2
(lp626
(lp627
S"word: 's, index: 8"
p628
aatp629
Rp630
(dp631
g12
Vcop
p632
sbag0
(g1
g2
(lp633
g0
(g1
g2
(lp634
g0
(g1
g2
(lp635
(lp636
S'word: a, index: 9'
p637
aatp638
Rp639
(dp640
g12
Vdet
p641
sbatp642
Rp643
(dp644
g12
S'word: little, index: 10'
p645
sbatp646
Rp647
(dp648
g12
Vnpadvmod
p649
sbatp650
Rp651
(dp652
g12
S'word: cluttered, index: 11'
p653
sbatp654
Rp655
(dp656
g12
Vrcmod
p657
sbatp658
Rp659
(dp660
g12
S'word: counter, index: 6'
p661
sbatp662
Rp663
(dp664
g12
Vdobj
p665
sbatp666
Rp667
(dp668
g12
S'word: see, index: 3'
p669
sbatp670
Rp671
(dp672
g12
S'id: 5'
p673
sbag0
(g1
g2
(lp674
g0
(g1
g2
(lp675
g0
(g1
g2
(lp676
g0
(g1
g2
(lp677
g0
(g1
g2
(lp678
g0
(g1
g2
(lp679
g0
(g1
g2
(lp680
(lp681
S'word: the, index: 2'
p682
aatp683
Rp684
(dp685
g12
Vdet
p686
sbatp687
Rp688
(dp689
g12
S'word: curtains, index: 3'
p690
sbatp691
Rp692
(dp693
g12
Vnsubj
p694
sbag0
(g1
g2
(lp695
(lp696
S'word: empty, index: 19'
p697
aatp698
Rp699
(dp700
g12
Vacomp
p701
sbatp702
Rp703
(dp704
g12
S'word: going, index: 18'
p705
sbatp706
Rp707
(dp708
g12
Vconj
p709
sbag0
(g1
g2
(lp710
g688
atp711
Rp712
(dp713
g12
Vnsubj
p714
sbag0
(g1
g2
(lp715
(lp716
S'word: are, index: 4'
p717
aatp718
Rp719
(dp720
g12
Vcop
p721
sbag0
(g1
g2
(lp722
g0
(g1
g2
(lp723
g0
(g1
g2
(lp724
g0
(g1
g2
(lp725
g0
(g1
g2
(lp726
(lp727
S'word: the, index: 8'
p728
aatp729
Rp730
(dp731
g12
Vdet
p732
sbag0
(g1
g2
(lp733
(lp734
S'word: cookie, index: 9'
p735
aatp736
Rp737
(dp738
g12
Vnn
p739
sbatp740
Rp741
(dp742
g12
S'word: jar, index: 10'
p743
sbatp744
Rp745
(dp746
g12
Vnsubj
p747
sbag0
(g1
g2
(lp748
(lp749
S'word: is, index: 11'
p750
aatp751
Rp752
(dp753
g12
Vcop
p754
sbag0
(g1
g2
(lp755
g0
(g1
g2
(lp756
g0
(g1
g2
(lp757
(lp758
S'word: but, index: 14'
p759
aatp760
Rp761
(dp762
g12
Vcc
p763
sbatp764
Rp765
(dp766
g12
S'word: not, index: 15'
p767
sbatp768
Rp769
(dp770
g12
Vdep
p771
sbatp772
Rp773
(dp774
g12
S'word: full, index: 12'
p775
sbatp776
Rp777
(dp778
g12
Vconj
p779
sbatp780
Rp781
(dp782
g12
S'word: nice, index: 5'
p783
sbatp784
Rp785
(dp786
g12
S'id: 6'
p787
sbag0
(g1
g2
(lp788
g0
(g1
g2
(lp789
g0
(g1
g2
(lp790
g0
(g1
g2
(lp791
g0
(g1
g2
(lp792
(lp793
S'word: like, index: 5'
p794
aatp795
Rp796
(dp797
g12
Vmark
p798
sbag0
(g1
g2
(lp799
(lp800
S'word: he, index: 6'
p801
aatp802
Rp803
(dp804
g12
Vnsubjpass
p805
sbag0
(g1
g2
(lp806
(lp807
S"word: 's, index: 7"
p808
aatp809
Rp810
(dp811
g12
Vauxpass
p812
sbag0
(g1
g2
(lp813
(lp814
S'word: already, index: 8'
p815
aatp816
Rp817
(dp818
g12
Vadvmod
p819
sbag0
(g1
g2
(lp820
g0
(g1
g2
(lp821
g0
(g1
g2
(lp822
(lp823
S'word: one, index: 10'
p824
aatp825
Rp826
(dp827
g12
Vnum
p828
sbag0
(g1
g2
(lp829
g0
(g1
g2
(lp830
g0
(g1
g2
(lp831
(lp832
S'word: too, index: 24'
p833
aatp834
Rp835
(dp836
g12
Vadvmod
p837
sbag0
(g1
g2
(lp838
g0
(g1
g2
(lp839
g0
(g1
g2
(lp840
g0
(g1
g2
(lp841
g0
(g1
g2
(lp842
(lp843
S'word: the, index: 22'
p844
aatp845
Rp846
(dp847
g12
Vdet
p848
sbatp849
Rp850
(dp851
g12
S'word: cookie, index: 23'
p852
sbatp853
Rp854
(dp855
g12
Vprep
p856
sbag0
(g1
g2
(lp857
g0
(g1
g2
(lp858
g0
(g1
g2
(lp859
g0
(g1
g2
(lp860
g0
(g1
g2
(lp861
(lp862
S'word: his, index: 17'
p863
aatp864
Rp865
(dp866
g12
Vposs
p867
sbag0
(g1
g2
(lp868
(lp869
S"word: 's, index: 19"
p870
aatp871
Rp872
(dp873
g12
Vpossessive
p874
sbatp875
Rp876
(dp877
g12
S'word: sister, index: 18'
p878
sbatp879
Rp880
(dp881
g12
Vappos
p882
sbatp883
Rp884
(dp885
g12
S'word: another, index: 15'
p886
sbatp887
Rp888
(dp889
g12
Vnsubj
p890
sbatp891
Rp892
(dp893
g12
S'word: reaching, index: 20'
p894
sbatp895
Rp896
(dp897
g12
Vprepc
p898
sbatp899
Rp900
(dp901
g12
S'word: heading, index: 13'
p902
sbatp903
Rp904
(dp905
g12
Vconj
p906
sbatp907
Rp908
(dp909
g12
S'word: cookie, index: 11'
p910
sbatp911
Rp912
(dp913
g12
Vdobj
p914
sbag0
(g1
g2
(lp915
g900
atp916
Rp917
(dp918
g12
Vdobj
p919
sbatp920
Rp921
(dp922
g12
S'word: got, index: 9'
p923
sbatp924
Rp925
(dp926
g12
Vadvcl
p927
sbag0
(g1
g2
(lp928
g0
(g1
g2
(lp929
g0
(g1
g2
(lp930
(lp931
S'word: it, index: 3'
p932
aatp933
Rp934
(dp935
g12
Vconj
p936
sbatp937
Rp938
(dp939
g12
S'word: ok, index: 1'
p940
sbatp941
Rp942
(dp943
g12
Vnsubj
p944
sbag0
(g1
g2
(lp945
(lp946
S'word: it, index: 3'
p947
aatp948
Rp949
(dp950
g12
Vnsubj
p951
sbatp952
Rp953
(dp954
g12
S'word: looks, index: 4'
p955
sbatp956
Rp957
(dp958
g12
S'id: 7'
p959
sbag0
(g1
g2
(lp960
g0
(g1
g2
(lp961
g0
(g1
g2
(lp962
g0
(g1
g2
(lp963
g0
(g1
g2
(lp964
(lp965
S'word: about, index: 2'
p966
aatp967
Rp968
(dp969
g12
Vadvmod
p970
sbatp971
Rp972
(dp973
g12
S'word: that, index: 3'
p974
sbatp975
Rp976
(dp977
g12
Vprep
p978
sbatp979
Rp980
(dp981
g12
S'word: How, index: 1'
p982
sbatp983
Rp984
(dp985
g12
S'id: 8'
p986
sbatp987
Rp988
(dp989
g12
S'sentences'
p990
sb.