ccopy_reg
_reconstructor
p0
(cnltk.tree
Tree
p1
c__builtin__
list
p2
(lp3
g0
(g1
g2
(lp4
g0
(g1
g2
(lp5
g0
(g1
g2
(lp6
(lp7
S'word: ok, index: 1'
p8
aatp9
Rp10
(dp11
S'_label'
p12
Vnsubj
p13
sbag0
(g1
g2
(lp14
g0
(g1
g2
(lp15
g0
(g1
g2
(lp16
(lp17
S"word: 's, index: 3"
p18
aatp19
Rp20
(dp21
g12
Vnsubj
p22
sbatp23
Rp24
(dp25
g12
S'word: see, index: 4'
p26
sbatp27
Rp28
(dp29
g12
Vccomp
p30
sbatp31
Rp32
(dp33
g12
S'word: let, index: 2'
p34
sbatp35
Rp36
(dp37
g12
S'id: 0'
p38
sbag0
(g1
g2
(lp39
g0
(g1
g2
(lp40
g0
(g1
g2
(lp41
g0
(g1
g2
(lp42
g0
(g1
g2
(lp43
(lp44
S'word: what, index: 3'
p45
aatp46
Rp47
(dp48
g12
Vdobj
p49
sbag0
(g1
g2
(lp50
(lp51
S'word: it, index: 4'
p52
aatp53
Rp54
(dp55
g12
Vnsubj
p56
sbag0
(g1
g2
(lp57
g0
(g1
g2
(lp58
g0
(g1
g2
(lp59
(lp60
S'word: but, index: 6'
p61
aatp62
Rp63
(dp64
g12
Vcc
p65
sbag0
(g1
g2
(lp66
(lp67
S'word: I, index: 7'
p68
aatp69
Rp70
(dp71
g12
Vnsubj
p72
sbag0
(g1
g2
(lp73
(lp74
S'word: ca, index: 8'
p75
aatp76
Rp77
(dp78
g12
Vaux
p79
sbag0
(g1
g2
(lp80
(lp81
S"word: n't, index: 9"
p82
aatp83
Rp84
(dp85
g12
Vneg
p86
sbatp87
Rp88
(dp89
g12
S'word: say, index: 10'
p90
sbatp91
Rp92
(dp93
g12
Vccomp
p94
sbatp95
Rp96
(dp97
g12
S'word: is, index: 5'
p98
sbatp99
Rp100
(dp101
g12
Vccomp
p102
sbag0
(g1
g2
(lp103
(lp104
S'word: I, index: 1'
p105
aatp106
Rp107
(dp108
g12
Vnsubj
p109
sbatp110
Rp111
(dp112
g12
S'word: know, index: 2'
p113
sbatp114
Rp115
(dp116
g12
S'id: 1'
p117
sbag0
(g1
g2
(lp118
g0
(g1
g2
(lp119
g0
(g1
g2
(lp120
g0
(g1
g2
(lp121
g0
(g1
g2
(lp122
g0
(g1
g2
(lp123
g0
(g1
g2
(lp124
(lp125
S'word: not, index: 8'
p126
aatp127
Rp128
(dp129
g12
Vneg
p130
sbag0
(g1
g2
(lp131
(lp132
S'word: a, index: 9'
p133
aatp134
Rp135
(dp136
g12
Vdet
p137
sbatp138
Rp139
(dp140
g12
S'word: horse, index: 10'
p141
sbatp142
Rp143
(dp144
g12
Vappos
p145
sbatp146
Rp147
(dp148
g12
S'word: horse, index: 6'
p149
sbatp150
Rp151
(dp152
g12
Vdobj
p153
sbag0
(g1
g2
(lp154
(lp155
S'word: Horse, index: 1'
p156
aatp157
Rp158
(dp159
g12
Vnsubj
p160
sbag0
(g1
g2
(lp161
(lp162
S'word: I, index: 3'
p163
aatp164
Rp165
(dp166
g12
Vnsubj
p167
sbag0
(g1
g2
(lp168
(lp169
S"word: 'm, index: 4"
p170
aatp171
Rp172
(dp173
g12
Vaux
p174
sbatp175
Rp176
(dp177
g12
S'word: saying, index: 5'
p178
sbatp179
Rp180
(dp181
g12
S'id: 2'
p182
sbag0
(g1
g2
(lp183
g0
(g1
g2
(lp184
g0
(g1
g2
(lp185
g0
(g1
g2
(lp186
g0
(g1
g2
(lp187
g0
(g1
g2
(lp188
g0
(g1
g2
(lp189
(lp190
S'word: it, index: 27'
p191
aatp192
Rp193
(dp194
g12
Vdobj
p195
sbatp196
Rp197
(dp198
g12
S'word: say, index: 26'
p199
sbatp200
Rp201
(dp202
g12
Vxcomp
p203
sbag0
(g1
g2
(lp204
(lp205
S'word: I, index: 24'
p206
aatp207
Rp208
(dp209
g12
Vnsubj
p210
sbatp211
Rp212
(dp213
g12
S'word: cant, index: 25'
p214
sbatp215
Rp216
(dp217
g12
Vconj
p218
sbag0
(g1
g2
(lp219
g0
(g1
g2
(lp220
g0
(g1
g2
(lp221
(lp222
S'word: the, index: 9'
p223
aatp224
Rp225
(dp226
g12
Vdet
p227
sbag0
(g1
g2
(lp228
g0
(g1
g2
(lp229
g0
(g1
g2
(lp230
(lp231
S'word: who, index: 11'
p232
aatp233
Rp234
(dp235
g12
Vnsubj
p236
sbag0
(g1
g2
(lp237
(lp238
S'word: is, index: 12'
p239
aatp240
Rp241
(dp242
g12
Vaux
p243
sbag0
(g1
g2
(lp244
(lp245
S'word: scratch, index: 15'
p246
aatp247
Rp248
(dp249
g12
Vprep
p250
sbatp251
Rp252
(dp253
g12
S'word: trying, index: 13'
p254
sbatp255
Rp256
(dp257
g12
Vrcmod
p258
sbatp259
Rp260
(dp261
g12
S'word: man, index: 10'
p262
sbatp263
Rp264
(dp265
g12
Vdobj
p266
sbag0
(g1
g2
(lp267
g0
(g1
g2
(lp268
g0
(g1
g2
(lp269
(lp270
S'word: Well, index: 1'
p271
aatp272
Rp273
(dp274
g12
Vadvmod
p275
sbag0
(g1
g2
(lp276
g0
(g1
g2
(lp277
g0
(g1
g2
(lp278
(lp279
S"word: 's, index: 3"
p280
aatp281
Rp282
(dp283
g12
Vnsubj
p284
sbatp285
Rp286
(dp287
g12
S'word: see, index: 4'
p288
sbatp289
Rp290
(dp291
g12
Vccomp
p292
sbatp293
Rp294
(dp295
g12
S'word: let, index: 2'
p296
sbatp297
Rp298
(dp299
g12
Vccomp
p300
sbag0
(g1
g2
(lp301
g0
(g1
g2
(lp302
g0
(g1
g2
(lp303
(lp304
S'word: i, index: 17'
p305
aatp306
Rp307
(dp308
g12
Vnsubj
p309
sbag0
(g1
g2
(lp310
g0
(g1
g2
(lp311
g0
(g1
g2
(lp312
(lp313
S'word: what, index: 19'
p314
aatp315
Rp316
(dp317
g12
Vdobj
p318
sbag0
(g1
g2
(lp319
(lp320
S'word: it, index: 20'
p321
aatp322
Rp323
(dp324
g12
Vnsubj
p325
sbatp326
Rp327
(dp328
g12
S'word: is, index: 21'
p329
sbatp330
Rp331
(dp332
g12
Vccomp
p333
sbatp334
Rp335
(dp336
g12
S'word: know, index: 18'
p337
sbatp338
Rp339
(dp340
g12
Vdep
p341
sbag0
(g1
g2
(lp342
g0
(g1
g2
(lp343
g0
(g1
g2
(lp344
(lp345
S'word: the, index: 6'
p346
aatp347
Rp348
(dp349
g12
Vdet
p350
sbatp351
Rp352
(dp353
g12
S'word: man, index: 7'
p354
sbatp355
Rp356
(dp357
g12
Vnsubj
p358
sbatp359
Rp360
(dp361
g12
S'word: has, index: 8'
p362
sbatp363
Rp364
(dp365
g12
S'id: 3'
p366
sbag0
(g1
g2
(lp367
g0
(g1
g2
(lp368
g0
(g1
g2
(lp369
(lp370
S'word: Other, index: 1'
p371
aatp372
Rp373
(dp374
g12
Vdep
p375
sbag0
(g1
g2
(lp376
(lp377
S'word: guy, index: 2'
p378
aatp379
Rp380
(dp381
g12
Vdep
p382
sbag0
(g1
g2
(lp383
(lp384
S'word: who, index: 3'
p385
aatp386
Rp387
(dp388
g12
Vdep
p389
sbag0
(g1
g2
(lp390
(lp391
S"word: 's, index: 4"
p392
aatp393
Rp394
(dp395
g12
Vdep
p396
sbag0
(g1
g2
(lp397
(lp398
S'word: wearing, index: 5'
p399
aatp400
Rp401
(dp402
g12
Vdep
p403
sbag0
(g1
g2
(lp404
(lp405
S'word: all, index: 6'
p406
aatp407
Rp408
(dp409
g12
Vdep
p410
sbag0
(g1
g2
(lp411
(lp412
S'word: the, index: 7'
p413
aatp414
Rp415
(dp416
g12
Vdep
p417
sbag0
(g1
g2
(lp418
(lp419
S'word: paint, index: 8'
p420
aatp421
Rp422
(dp423
g12
Vdep
p424
sbag0
(g1
g2
(lp425
(lp426
S'word: on, index: 9'
p427
aatp428
Rp429
(dp430
g12
Vdep
p431
sbag0
(g1
g2
(lp432
(lp433
S'word: his, index: 10'
p434
aatp435
Rp436
(dp437
g12
Vdep
p438
sbag0
(g1
g2
(lp439
(lp440
S'word: face, index: 11'
p441
aatp442
Rp443
(dp444
g12
Vdep
p445
sbag0
(g1
g2
(lp446
(lp447
S'word: and, index: 13'
p448
aatp449
Rp450
(dp451
g12
Vcc
p452
sbag0
(g1
g2
(lp453
(lp454
S'word: the, index: 14'
p455
aatp456
Rp457
(dp458
g12
Vdep
p459
sbag0
(g1
g2
(lp460
(lp461
S'word: big, index: 15'
p462
aatp463
Rp464
(dp465
g12
Vdep
p466
sbag0
(g1
g2
(lp467
(lp468
S'word: fancy, index: 16'
p469
aatp470
Rp471
(dp472
g12
Vdep
p473
sbag0
(g1
g2
(lp474
(lp475
S'word: hair, index: 17'
p476
aatp477
Rp478
(dp479
g12
Vdep
p480
sbag0
(g1
g2
(lp481
(lp482
S'word: and, index: 19'
p483
aatp484
Rp485
(dp486
g12
Vcc
p487
sbag0
(g1
g2
(lp488
(lp489
S'word: all, index: 20'
p490
aatp491
Rp492
(dp493
g12
Vdep
p494
sbag0
(g1
g2
(lp495
(lp496
S'word: he, index: 22'
p497
aatp498
Rp499
(dp500
g12
Vdep
p501
sbag0
(g1
g2
(lp502
(lp503
S"word: 's, index: 23"
p504
aatp505
Rp506
(dp507
g12
Vdep
p508
sbag0
(g1
g2
(lp509
(lp510
S'word: got, index: 24'
p511
aatp512
Rp513
(dp514
g12
Vdep
p515
sbag0
(g1
g2
(lp516
(lp517
S'word: water, index: 25'
p518
aatp519
Rp520
(dp521
g12
Vdep
p522
sbag0
(g1
g2
(lp523
(lp524
S'word: and, index: 27'
p525
aatp526
Rp527
(dp528
g12
Vcc
p529
sbag0
(g1
g2
(lp530
(lp531
S'word: he, index: 28'
p532
aatp533
Rp534
(dp535
g12
Vdep
p536
sbag0
(g1
g2
(lp537
(lp538
S"word: 's, index: 29"
p539
aatp540
Rp541
(dp542
g12
Vdep
p543
sbag0
(g1
g2
(lp544
(lp545
S'word: trying, index: 30'
p546
aatp547
Rp548
(dp549
g12
Vdep
p550
sbag0
(g1
g2
(lp551
(lp552
S'word: to, index: 31'
p553
aatp554
Rp555
(dp556
g12
Vdep
p557
sbag0
(g1
g2
(lp558
(lp559
S'word: put, index: 32'
p560
aatp561
Rp562
(dp563
g12
Vdep
p564
sbag0
(g1
g2
(lp565
(lp566
S'word: the, index: 33'
p567
aatp568
Rp569
(dp570
g12
Vdep
p571
sbag0
(g1
g2
(lp572
(lp573
S'word: water, index: 34'
p574
aatp575
Rp576
(dp577
g12
Vdep
p578
sbag0
(g1
g2
(lp579
(lp580
S'word: on, index: 35'
p581
aatp582
Rp583
(dp584
g12
Vdep
p585
sbag0
(g1
g2
(lp586
(lp587
S'word: to, index: 36'
p588
aatp589
Rp590
(dp591
g12
Vdep
p592
sbag0
(g1
g2
(lp593
(lp594
S'word: it, index: 38'
p595
aatp596
Rp597
(dp598
g12
Vdep
p599
sbag0
(g1
g2
(lp600
(lp601
S'word: looks, index: 39'
p602
aatp603
Rp604
(dp605
g12
Vdep
p606
sbag0
(g1
g2
(lp607
(lp608
S'word: like, index: 40'
p609
aatp610
Rp611
(dp612
g12
Vdep
p613
sbag0
(g1
g2
(lp614
(lp615
S'word: water, index: 41'
p616
aatp617
Rp618
(dp619
g12
Vdep
p620
sbag0
(g1
g2
(lp621
(lp622
S'word: but, index: 42'
p623
aatp624
Rp625
(dp626
g12
Vcc
p627
sbag0
(g1
g2
(lp628
(lp629
S'word: it, index: 43'
p630
aatp631
Rp632
(dp633
g12
Vdep
p634
sbag0
(g1
g2
(lp635
(lp636
S"word: 's, index: 44"
p637
aatp638
Rp639
(dp640
g12
Vdep
p641
sbag0
(g1
g2
(lp642
(lp643
S'word: not, index: 45'
p644
aatp645
Rp646
(dp647
g12
Vdep
p648
sbag0
(g1
g2
(lp649
(lp650
S'word: it, index: 47'
p651
aatp652
Rp653
(dp654
g12
Vdep
p655
sbag0
(g1
g2
(lp656
(lp657
S"word: 's, index: 48"
p658
aatp659
Rp660
(dp661
g12
Vdep
p662
sbag0
(g1
g2
(lp663
(lp664
S'word: something, index: 49'
p665
aatp666
Rp667
(dp668
g12
Vdep
p669
sbag0
(g1
g2
(lp670
(lp671
S'word: else, index: 50'
p672
aatp673
Rp674
(dp675
g12
Vdep
p676
sbag0
(g1
g2
(lp677
(lp678
S'word: on, index: 52'
p679
aatp680
Rp681
(dp682
g12
Vdep
p683
sbag0
(g1
g2
(lp684
(lp685
S'word: to, index: 53'
p686
aatp687
Rp688
(dp689
g12
Vdep
p690
sbag0
(g1
g2
(lp691
(lp692
S'word: the, index: 54'
p693
aatp694
Rp695
(dp696
g12
Vdep
p697
sbag0
(g1
g2
(lp698
(lp699
S'word: boy, index: 55'
p700
aatp701
Rp702
(dp703
g12
Vdep
p704
sbag0
(g1
g2
(lp705
(lp706
S'word: and, index: 56'
p707
aatp708
Rp709
(dp710
g12
Vcc
p711
sbag0
(g1
g2
(lp712
(lp713
S'word: girl, index: 57'
p714
aatp715
Rp716
(dp717
g12
Vdep
p718
sbag0
(g1
g2
(lp719
(lp720
S'word: and, index: 59'
p721
aatp722
Rp723
(dp724
g12
Vcc
p725
sbag0
(g1
g2
(lp726
(lp727
S'word: the, index: 60'
p728
aatp729
Rp730
(dp731
g12
Vdep
p732
sbag0
(g1
g2
(lp733
(lp734
S'word: mother, index: 61'
p735
aatp736
Rp737
(dp738
g12
Vdep
p739
sbag0
(g1
g2
(lp740
(lp741
S'word: and, index: 63'
p742
aatp743
Rp744
(dp745
g12
Vcc
p746
sbag0
(g1
g2
(lp747
(lp748
S'word: the, index: 64'
p749
aatp750
Rp751
(dp752
g12
Vdep
p753
sbag0
(g1
g2
(lp754
(lp755
S'word: girl, index: 65'
p756
aatp757
Rp758
(dp759
g12
Vdep
p760
sbag0
(g1
g2
(lp761
(lp762
S'word: is, index: 66'
p763
aatp764
Rp765
(dp766
g12
Vdep
p767
sbag0
(g1
g2
(lp768
(lp769
S'word: turned, index: 67'
p770
aatp771
Rp772
(dp773
g12
Vdep
p774
sbag0
(g1
g2
(lp775
(lp776
S'word: around, index: 68'
p777
aatp778
Rp779
(dp780
g12
Vdep
p781
sbag0
(g1
g2
(lp782
(lp783
S'word: and, index: 70'
p784
aatp785
Rp786
(dp787
g12
Vcc
p788
sbag0
(g1
g2
(lp789
(lp790
S'word: twirling, index: 71'
p791
aatp792
Rp793
(dp794
g12
Vdep
p795
sbatp796
Rp797
(dp798
g12
S'word: around, index: 72'
p799
sbatp800
Rp801
(dp802
g12
S'id: 4'
p803
sbag0
(g1
g2
(lp804
g0
(g1
g2
(lp805
g0
(g1
g2
(lp806
(lp807
S'word: he, index: 21'
p808
aatp809
Rp810
(dp811
g12
Vnsubj
p812
sbag0
(g1
g2
(lp813
g0
(g1
g2
(lp814
g0
(g1
g2
(lp815
g0
(g1
g2
(lp816
g0
(g1
g2
(lp817
(lp818
S'word: A, index: 1'
p819
aatp820
Rp821
(dp822
g12
Vdet
p823
sbatp824
Rp825
(dp826
g12
S'word: man, index: 2'
p827
sbatp828
Rp829
(dp830
g12
Vnsubj
p831
sbag0
(g1
g2
(lp832
g0
(g1
g2
(lp833
g0
(g1
g2
(lp834
(lp835
S'word: I, index: 15'
p836
aatp837
Rp838
(dp839
g12
Vnsubj
p840
sbag0
(g1
g2
(lp841
(lp842
S'word: ca, index: 16'
p843
aatp844
Rp845
(dp846
g12
Vaux
p847
sbag0
(g1
g2
(lp848
(lp849
S"word: n't, index: 17"
p850
aatp851
Rp852
(dp853
g12
Vneg
p854
sbag0
(g1
g2
(lp855
(lp856
S'word: it, index: 19'
p857
aatp858
Rp859
(dp860
g12
Vdobj
p861
sbag0
(g1
g2
(lp862
(lp863
S'word: well, index: 14'
p864
aatp865
Rp866
(dp867
g12
Vadvmod
p868
sbatp869
Rp870
(dp871
g12
S'word: say, index: 18'
p872
sbatp873
Rp874
(dp875
g12
Vparataxis
p876
sbag0
(g1
g2
(lp877
g0
(g1
g2
(lp878
g0
(g1
g2
(lp879
(lp880
S'word: up, index: 3'
p881
aatp882
Rp883
(dp884
g12
Vadvmod
p885
sbatp886
Rp887
(dp888
g12
S'word: above, index: 4'
p889
sbatp890
Rp891
(dp892
g12
Vadvmod
p893
sbag0
(g1
g2
(lp894
(lp895
S'word: is, index: 5'
p896
aatp897
Rp898
(dp899
g12
Vcop
p900
sbag0
(g1
g2
(lp901
(lp902
S'word: up, index: 7'
p903
aatp904
Rp905
(dp906
g12
Vprt
p907
sbag0
(g1
g2
(lp908
g0
(g1
g2
(lp909
g0
(g1
g2
(lp910
(lp911
S'word: high, index: 9'
p912
aatp913
Rp914
(dp915
g12
Vadvmod
p916
sbatp917
Rp918
(dp919
g12
S'word: up, index: 10'
p920
sbatp921
Rp922
(dp923
g12
Vadvmod
p924
sbag0
(g1
g2
(lp925
(lp926
S'word: white, index: 12'
p927
aatp928
Rp929
(dp930
g12
Vacomp
p931
sbatp932
Rp933
(dp934
g12
S'word: climbing, index: 6'
p935
sbatp936
Rp937
(dp938
g12
Vccomp
p939
sbag0
(g1
g2
(lp940
(lp941
S"word: 's, index: 22"
p942
aatp943
Rp944
(dp945
g12
Vaux
p946
sbag0
(g1
g2
(lp947
g0
(g1
g2
(lp948
g0
(g1
g2
(lp949
(lp950
S'word: the, index: 25'
p951
aatp952
Rp953
(dp954
g12
Vdet
p955
sbatp956
Rp957
(dp958
g12
S'word: top, index: 26'
p959
sbatp960
Rp961
(dp962
g12
Vprep
p963
sbatp964
Rp965
(dp966
g12
S'word: walking, index: 23'
p967
sbatp968
Rp969
(dp970
g12
S'id: 5'
p971
sbag0
(g1
g2
(lp972
g0
(g1
g2
(lp973
g0
(g1
g2
(lp974
g0
(g1
g2
(lp975
g0
(g1
g2
(lp976
g0
(g1
g2
(lp977
g0
(g1
g2
(lp978
(lp979
S'word: the, index: 17'
p980
aatp981
Rp982
(dp983
g12
Vdet
p984
sbatp985
Rp986
(dp987
g12
S'word: horse, index: 18'
p988
sbatp989
Rp990
(dp991
g12
Vnsubj
p992
sbag0
(g1
g2
(lp993
(lp994
S'word: is, index: 19'
p995
aatp996
Rp997
(dp998
g12
Vaux
p999
sbag0
(g1
g2
(lp1000
(lp1001
S'word: just, index: 20'
p1002
aatp1003
Rp1004
(dp1005
g12
Vadvmod
p1006
sbag0
(g1
g2
(lp1007
(lp1008
S'word: around, index: 22'
p1009
aatp1010
Rp1011
(dp1012
g12
Vadvmod
p1013
sbatp1014
Rp1015
(dp1016
g12
S'word: walking, index: 21'
p1017
sbatp1018
Rp1019
(dp1020
g12
Vconj
p1021
sbag0
(g1
g2
(lp1022
g0
(g1
g2
(lp1023
g0
(g1
g2
(lp1024
(lp1025
S'word: the, index: 3'
p1026
aatp1027
Rp1028
(dp1029
g12
Vdet
p1030
sbag0
(g1
g2
(lp1031
(lp1032
S'word: very, index: 4'
p1033
aatp1034
Rp1035
(dp1036
g12
Vadvmod
p1037
sbag0
(g1
g2
(lp1038
(lp1039
S'word: far, index: 5'
p1040
aatp1041
Rp1042
(dp1043
g12
Vadvmod
p1044
sbatp1045
Rp1046
(dp1047
g12
S'word: right, index: 6'
p1048
sbatp1049
Rp1050
(dp1051
g12
Vprep
p1052
sbag0
(g1
g2
(lp1053
(lp1054
S'word: i, index: 7'
p1055
aatp1056
Rp1057
(dp1058
g12
Vnsubj
p1059
sbag0
(g1
g2
(lp1060
g0
(g1
g2
(lp1061
g0
(g1
g2
(lp1062
g0
(g1
g2
(lp1063
g0
(g1
g2
(lp1064
(lp1065
S'word: the, index: 9'
p1066
aatp1067
Rp1068
(dp1069
g12
Vdet
p1070
sbag0
(g1
g2
(lp1071
(lp1072
S"word: 's, index: 11"
p1073
aatp1074
Rp1075
(dp1076
g12
Vpossessive
p1077
sbatp1078
Rp1079
(dp1080
g12
S'word: lady, index: 10'
p1081
sbatp1082
Rp1083
(dp1084
g12
Vnsubj
p1085
sbag0
(g1
g2
(lp1086
g0
(g1
g2
(lp1087
g0
(g1
g2
(lp1088
(lp1089
S'word: the, index: 13'
p1090
aatp1091
Rp1092
(dp1093
g12
Vdet
p1094
sbatp1095
Rp1096
(dp1097
g12
S'word: horse, index: 14'
p1098
sbatp1099
Rp1100
(dp1101
g12
Vdobj
p1102
sbatp1103
Rp1104
(dp1105
g12
S'word: riding, index: 12'
p1106
sbatp1107
Rp1108
(dp1109
g12
Vdep
p1110
sbatp1111
Rp1112
(dp1113
g12
S'word: see, index: 8'
p1114
sbatp1115
Rp1116
(dp1117
g12
S'id: 6'
p1118
sbag0
(g1
g2
(lp1119
g0
(g1
g2
(lp1120
g0
(g1
g2
(lp1121
g0
(g1
g2
(lp1122
g0
(g1
g2
(lp1123
(lp1124
S'word: just, index: 21'
p1125
aatp1126
Rp1127
(dp1128
g12
Vadvmod
p1129
sbag0
(g1
g2
(lp1130
(lp1131
S'word: there, index: 23'
p1132
aatp1133
Rp1134
(dp1135
g12
Vadvmod
p1136
sbag0
(g1
g2
(lp1137
(lp1138
S'word: she, index: 19'
p1139
aatp1140
Rp1141
(dp1142
g12
Vnsubj
p1143
sbag0
(g1
g2
(lp1144
(lp1145
S"word: 's, index: 20"
p1146
aatp1147
Rp1148
(dp1149
g12
Vaux
p1150
sbatp1151
Rp1152
(dp1153
g12
S'word: sitting, index: 22'
p1154
sbatp1155
Rp1156
(dp1157
g12
Vconj
p1158
sbag0
(g1
g2
(lp1159
g0
(g1
g2
(lp1160
g0
(g1
g2
(lp1161
(lp1162
S'word: to, index: 6'
p1163
aatp1164
Rp1165
(dp1166
g12
Vaux
p1167
sbag0
(g1
g2
(lp1168
(lp1169
S'word: up, index: 8'
p1170
aatp1171
Rp1172
(dp1173
g12
Vprt
p1174
sbag0
(g1
g2
(lp1175
g0
(g1
g2
(lp1176
g0
(g1
g2
(lp1177
(lp1178
S'word: her, index: 10'
p1179
aatp1180
Rp1181
(dp1182
g12
Vposs
p1183
sbatp1184
Rp1185
(dp1186
g12
S'word: toes, index: 11'
p1187
sbatp1188
Rp1189
(dp1190
g12
Vprep
p1191
sbatp1192
Rp1193
(dp1194
g12
S'word: go, index: 7'
p1195
sbatp1196
Rp1197
(dp1198
g12
Vxcomp
p1199
sbag0
(g1
g2
(lp1200
g0
(g1
g2
(lp1201
g0
(g1
g2
(lp1202
g1152
atp1203
Rp1204
(dp1205
g12
Vconj
p1206
sbag0
(g1
g2
(lp1207
(lp1208
S'word: she, index: 14'
p1209
aatp1210
Rp1211
(dp1212
g12
Vnsubj
p1213
sbag0
(g1
g2
(lp1214
(lp1215
S'word: just, index: 16'
p1216
aatp1217
Rp1218
(dp1219
g12
Vadvmod
p1220
sbatp1221
Rp1222
(dp1223
g12
S"word: 's, index: 15"
p1224
sbatp1225
Rp1226
(dp1227
g12
Vconj
p1228
sbag0
(g1
g2
(lp1229
(lp1230
S'word: she, index: 2'
p1231
aatp1232
Rp1233
(dp1234
g12
Vnsubj
p1235
sbag0
(g1
g2
(lp1236
(lp1237
S"word: 's, index: 3"
p1238
aatp1239
Rp1240
(dp1241
g12
Vaux
p1242
sbag0
(g1
g2
(lp1243
(lp1244
S'word: getting, index: 4'
p1245
aatp1246
Rp1247
(dp1248
g12
Vdep
p1249
sbatp1250
Rp1251
(dp1252
g12
S'word: ready, index: 5'
p1253
sbatp1254
Rp1255
(dp1256
g12
S'id: 7'
p1257
sbag0
(g1
g2
(lp1258
g0
(g1
g2
(lp1259
g0
(g1
g2
(lp1260
g0
(g1
g2
(lp1261
g0
(g1
g2
(lp1262
(lp1263
S"word: 's, index: 2"
p1264
aatp1265
Rp1266
(dp1267
g12
Vnsubj
p1268
sbatp1269
Rp1270
(dp1271
g12
S'word: see, index: 3'
p1272
sbatp1273
Rp1274
(dp1275
g12
Vccomp
p1276
sbatp1277
Rp1278
(dp1279
g12
S'word: Let, index: 1'
p1280
sbatp1281
Rp1282
(dp1283
g12
S'id: 8'
p1284
sbag0
(g1
g2
(lp1285
g0
(g1
g2
(lp1286
g0
(g1
g2
(lp1287
g0
(g1
g2
(lp1288
g0
(g1
g2
(lp1289
(lp1290
S'word: I, index: 11'
p1291
aatp1292
Rp1293
(dp1294
g12
Vnsubj
p1295
sbag0
(g1
g2
(lp1296
g0
(g1
g2
(lp1297
g0
(g1
g2
(lp1298
g0
(g1
g2
(lp1299
g0
(g1
g2
(lp1300
(lp1301
S'word: their, index: 14'
p1302
aatp1303
Rp1304
(dp1305
g12
Vposs
p1306
sbatp1307
Rp1308
(dp1309
g12
S'word: names, index: 15'
p1310
sbatp1311
Rp1312
(dp1313
g12
Vdobj
p1314
sbatp1315
Rp1316
(dp1317
g12
S'word: say, index: 13'
p1318
sbatp1319
Rp1320
(dp1321
g12
Vxcomp
p1322
sbatp1323
Rp1324
(dp1325
g12
S'word: cant, index: 12'
p1326
sbatp1327
Rp1328
(dp1329
g12
Vconj
p1330
sbag0
(g1
g2
(lp1331
g0
(g1
g2
(lp1332
g0
(g1
g2
(lp1333
(lp1334
S'word: me, index: 2'
p1335
aatp1336
Rp1337
(dp1338
g12
Vdobj
p1339
sbatp1340
Rp1341
(dp1342
g12
S'word: Pardon, index: 1'
p1343
sbatp1344
Rp1345
(dp1346
g12
Vccomp
p1347
sbag0
(g1
g2
(lp1348
(lp1349
S'word: I, index: 4'
p1350
aatp1351
Rp1352
(dp1353
g12
Vnsubj
p1354
sbag0
(g1
g2
(lp1355
g0
(g1
g2
(lp1356
g0
(g1
g2
(lp1357
(lp1358
S'word: what, index: 6'
p1359
aatp1360
Rp1361
(dp1362
g12
Vdobj
p1363
sbag0
(g1
g2
(lp1364
(lp1365
S'word: it, index: 7'
p1366
aatp1367
Rp1368
(dp1369
g12
Vnsubj
p1370
sbatp1371
Rp1372
(dp1373
g12
S'word: is, index: 8'
p1374
sbatp1375
Rp1376
(dp1377
g12
Vccomp
p1378
sbatp1379
Rp1380
(dp1381
g12
S'word: know, index: 5'
p1382
sbatp1383
Rp1384
(dp1385
g12
S'id: 9'
p1386
sbag0
(g1
g2
(lp1387
g0
(g1
g2
(lp1388
g0
(g1
g2
(lp1389
g0
(g1
g2
(lp1390
g0
(g1
g2
(lp1391
g0
(g1
g2
(lp1392
g0
(g1
g2
(lp1393
(lp1394
S'word: Only, index: 1'
p1395
aatp1396
Rp1397
(dp1398
g12
Vadvmod
p1399
sbag0
(g1
g2
(lp1400
g0
(g1
g2
(lp1401
g0
(g1
g2
(lp1402
(lp1403
S'word: i, index: 3'
p1404
aatp1405
Rp1406
(dp1407
g12
Vnsubj
p1408
sbag0
(g1
g2
(lp1409
(lp1410
S'word: really, index: 4'
p1411
aatp1412
Rp1413
(dp1414
g12
Vadvmod
p1415
sbatp1416
Rp1417
(dp1418
g12
S'word: say, index: 5'
p1419
sbatp1420
Rp1421
(dp1422
g12
Vrcmod
p1423
sbatp1424
Rp1425
(dp1426
g12
S'word: thing, index: 2'
p1427
sbatp1428
Rp1429
(dp1430
g12
Vnsubj
p1431
sbag0
(g1
g2
(lp1432
(lp1433
S'word: is, index: 6'
p1434
aatp1435
Rp1436
(dp1437
g12
Vcop
p1438
sbag0
(g1
g2
(lp1439
(lp1440
S'word: the, index: 7'
p1441
aatp1442
Rp1443
(dp1444
g12
Vdet
p1445
sbatp1446
Rp1447
(dp1448
g12
S'word: horse, index: 8'
p1449
sbatp1450
Rp1451
(dp1452
g12
Vccomp
p1453
sbag0
(g1
g2
(lp1454
(lp1455
S'word: I, index: 10'
p1456
aatp1457
Rp1458
(dp1459
g12
Vnsubj
p1460
sbag0
(g1
g2
(lp1461
g0
(g1
g2
(lp1462
g0
(g1
g2
(lp1463
(lp1464
S'word: horse, index: 13'
p1465
aatp1466
Rp1467
(dp1468
g12
Vdobj
p1469
sbatp1470
Rp1471
(dp1472
g12
S'word: say, index: 12'
p1473
sbatp1474
Rp1475
(dp1476
g12
Vxcomp
p1477
sbatp1478
Rp1479
(dp1480
g12
S'word: cant, index: 11'
p1481
sbatp1482
Rp1483
(dp1484
g12
S'id: 10'
p1485
sbatp1486
Rp1487
(dp1488
g12
S'sentences'
p1489
sb.