ccopy_reg
_reconstructor
p0
(cnltk.tree
Tree
p1
c__builtin__
list
p2
(lp3
g0
(g1
g2
(lp4
g0
(g1
g2
(lp5
g0
(g1
g2
(lp6
g0
(g1
g2
(lp7
g0
(g1
g2
(lp8
(lp9
S'word: the, index: 1'
p10
aatp11
Rp12
(dp13
S'_label'
p14
Vdet
p15
sbag0
(g1
g2
(lp16
(lp17
S'word: jar, index: 2'
p18
aatp19
Rp20
(dp21
g14
Vnn
p22
sbag0
(g1
g2
(lp23
(lp24
S'word: and, index: 5'
p25
aatp26
Rp27
(dp28
g14
Vadvmod
p29
sbatp30
Rp31
(dp32
g14
S'word: toter, index: 3'
p33
sbatp34
Rp35
(dp36
g14
Vnsubj
p37
sbag0
(g1
g2
(lp38
(lp39
S'word: down, index: 7'
p40
aatp41
Rp42
(dp43
g14
Vprt
p44
sbatp45
Rp46
(dp47
g14
S'word: fall, index: 6'
p48
sbatp49
Rp50
(dp51
g14
S'id: 0'
p52
sbag0
(g1
g2
(lp53
g0
(g1
g2
(lp54
g0
(g1
g2
(lp55
g0
(g1
g2
(lp56
g0
(g1
g2
(lp57
(lp58
S'word: cheaning, index: 3'
p59
aatp60
Rp61
(dp62
g14
Vamod
p63
sbag0
(g1
g2
(lp64
(lp65
S'word: the, index: 2'
p66
aatp67
Rp68
(dp69
g14
Vdet
p70
sbatp71
Rp72
(dp73
g14
S'word: lady, index: 4'
p74
sbatp75
Rp76
(dp77
g14
Vnsubj
p78
sbag0
(g1
g2
(lp79
(lp80
S'word: here, index: 5'
p81
aatp82
Rp83
(dp84
g14
Vadvmod
p85
sbag0
(g1
g2
(lp86
(lp87
S'word: down, index: 7'
p88
aatp89
Rp90
(dp91
g14
Vadvmod
p92
sbag0
(g1
g2
(lp93
(lp94
S'word: And, index: 1'
p95
aatp96
Rp97
(dp98
g14
Vcc
p99
sbatp100
Rp101
(dp102
g14
S'word: pull, index: 6'
p103
sbatp104
Rp105
(dp106
g14
S'id: 1'
p107
sbag0
(g1
g2
(lp108
g0
(g1
g2
(lp109
g0
(g1
g2
(lp110
(lp111
S'word: glass, index: 8'
p112
aatp113
Rp114
(dp115
g14
Vconj
p116
sbag0
(g1
g2
(lp117
g0
(g1
g2
(lp118
g0
(g1
g2
(lp119
(lp120
S'word: and, index: 4'
p121
aatp122
Rp123
(dp124
g14
Vcc
p125
sbatp126
Rp127
(dp128
g14
S'word: glass, index: 5'
p129
sbatp130
Rp131
(dp132
g14
Vconj
p133
sbatp134
Rp135
(dp136
g14
S'word: glass, index: 2'
p137
sbatp138
Rp139
(dp140
g14
S'id: 2'
p141
sbag0
(g1
g2
(lp142
g0
(g1
g2
(lp143
g0
(g1
g2
(lp144
g0
(g1
g2
(lp145
g0
(g1
g2
(lp146
(lp147
S'word: there, index: 12'
p148
aatp149
Rp150
(dp151
g14
Vdep
p152
sbatp153
Rp154
(dp155
g14
S'word: right, index: 11'
p156
sbatp157
Rp158
(dp159
g14
Vprep
p160
sbag0
(g1
g2
(lp161
g0
(g1
g2
(lp162
g0
(g1
g2
(lp163
g0
(g1
g2
(lp164
g0
(g1
g2
(lp165
(lp166
S'word: there, index: 9'
p167
aatp168
Rp169
(dp170
g14
Vdep
p171
sbag0
(g1
g2
(lp172
(lp173
S'word: right, index: 4'
p174
aatp175
Rp176
(dp177
g14
Vadvmod
p178
sbag0
(g1
g2
(lp179
(lp180
S'word: right, index: 8'
p181
aatp182
Rp183
(dp184
g14
Vconj
p185
sbatp186
Rp187
(dp188
g14
S'word: there, index: 5'
p189
sbatp190
Rp191
(dp192
g14
Vdep
p193
sbag0
(g1
g2
(lp194
(lp195
S'word: right, index: 8'
p196
aatp197
Rp198
(dp199
g14
Vdep
p200
sbatp201
Rp202
(dp203
g14
S'word: there, index: 2'
p204
sbatp205
Rp206
(dp207
g14
Vpobj
p208
sbatp209
Rp210
(dp211
g14
S'word: Right, index: 1'
p212
sbatp213
Rp214
(dp215
g14
S'id: 3'
p216
sbag0
(g1
g2
(lp217
g0
(g1
g2
(lp218
g0
(g1
g2
(lp219
(lp220
S'word: And, index: 1'
p221
aatp222
Rp223
(dp224
g14
Vcc
p225
sbag0
(g1
g2
(lp226
(lp227
S'word: right, index: 2'
p228
aatp229
Rp230
(dp231
g14
Vadvmod
p232
sbag0
(g1
g2
(lp233
g0
(g1
g2
(lp234
g0
(g1
g2
(lp235
(lp236
S'word: right, index: 5'
p237
aatp238
Rp239
(dp240
g14
Vadvmod
p241
sbatp242
Rp243
(dp244
g14
S'word: there, index: 6'
p245
sbatp246
Rp247
(dp248
g14
Vappos
p249
sbatp250
Rp251
(dp252
g14
S'word: there, index: 3'
p253
sbatp254
Rp255
(dp256
g14
S'id: 4'
p257
sbag0
(g1
g2
(lp258
g0
(g1
g2
(lp259
g0
(g1
g2
(lp260
(lp261
S'word: And, index: 1'
p262
aatp263
Rp264
(dp265
g14
Vnsubj
p266
sbag0
(g1
g2
(lp267
(lp268
S'word: circles, index: 5'
p269
aatp270
Rp271
(dp272
g14
Vconj
p273
sbatp274
Rp275
(dp276
g14
S'word: trees, index: 2'
p277
sbatp278
Rp279
(dp280
g14
S'id: 5'
p281
sbag0
(g1
g2
(lp282
g0
(g1
g2
(lp283
g0
(g1
g2
(lp284
(lp285
S'word: it, index: 2'
p286
aatp287
Rp288
(dp289
g14
Vnsubj
p290
sbag0
(g1
g2
(lp291
(lp292
S"word: 's, index: 3"
p293
aatp294
Rp295
(dp296
g14
Vcop
p297
sbag0
(g1
g2
(lp298
(lp299
S'word: a, index: 4'
p300
aatp301
Rp302
(dp303
g14
Vdet
p304
sbag0
(g1
g2
(lp305
(lp306
S'word: Here, index: 1'
p307
aatp308
Rp309
(dp310
g14
Vadvmod
p311
sbatp312
Rp313
(dp314
g14
S'word: woman, index: 5'
p315
sbatp316
Rp317
(dp318
g14
S'id: 6'
p319
sbag0
(g1
g2
(lp320
g0
(g1
g2
(lp321
g0
(g1
g2
(lp322
g0
(g1
g2
(lp323
g0
(g1
g2
(lp324
(lp325
S'word: and, index: 5'
p326
aatp327
Rp328
(dp329
g14
Vcc
p330
sbatp331
Rp332
(dp333
g14
S'word: tow, index: 6'
p334
sbatp335
Rp336
(dp337
g14
Vappos
p338
sbag0
(g1
g2
(lp339
(lp340
S'word: And, index: 1'
p341
aatp342
Rp343
(dp344
g14
Vcc
p345
sbag0
(g1
g2
(lp346
(lp347
S'word: a, index: 2'
p348
aatp349
Rp350
(dp351
g14
Vdet
p352
sbatp353
Rp354
(dp355
g14
S'word: circle, index: 3'
p356
sbatp357
Rp358
(dp359
g14
S'id: 7'
p360
sbag0
(g1
g2
(lp361
g0
(g1
g2
(lp362
g0
(g1
g2
(lp363
(lp364
S'word: And, index: 1'
p365
aatp366
Rp367
(dp368
g14
Vcc
p369
sbag0
(g1
g2
(lp370
(lp371
S'word: right, index: 2'
p372
aatp373
Rp374
(dp375
g14
Vadvmod
p376
sbag0
(g1
g2
(lp377
g0
(g1
g2
(lp378
g0
(g1
g2
(lp379
(lp380
S'word: right, index: 5'
p381
aatp382
Rp383
(dp384
g14
Vadvmod
p385
sbatp386
Rp387
(dp388
g14
S'word: there, index: 6'
p389
sbatp390
Rp391
(dp392
g14
Vappos
p393
sbatp394
Rp395
(dp396
g14
S'word: there, index: 3'
p397
sbatp398
Rp399
(dp400
g14
S'id: 8'
p401
sbag0
(g1
g2
(lp402
g0
(g1
g2
(lp403
g0
(g1
g2
(lp404
(lp405
S'word: And, index: 1'
p406
aatp407
Rp408
(dp409
g14
Vcc
p410
sbag0
(g1
g2
(lp411
(lp412
S'word: right, index: 2'
p413
aatp414
Rp415
(dp416
g14
Vadvmod
p417
sbatp418
Rp419
(dp420
g14
S'word: there, index: 3'
p421
sbatp422
Rp423
(dp424
g14
S'id: 9'
p425
sbag0
(g1
g2
(lp426
g0
(g1
g2
(lp427
g0
(g1
g2
(lp428
(lp429
S'word: right, index: 2'
p430
aatp431
Rp432
(dp433
g14
Vadvmod
p434
sbag0
(g1
g2
(lp435
(lp436
S'word: right, index: 6'
p437
aatp438
Rp439
(dp440
g14
Vconj
p441
sbag0
(g1
g2
(lp442
(lp443
S'word: there, index: 7'
p444
aatp445
Rp446
(dp447
g14
Vdep
p448
sbag0
(g1
g2
(lp449
g0
(g1
g2
(lp450
g0
(g1
g2
(lp451
g0
(g1
g2
(lp452
g0
(g1
g2
(lp453
(lp454
S'word: right, index: 10'
p455
aatp456
Rp457
(dp458
g14
Vadvmod
p459
sbatp460
Rp461
(dp462
g14
S'word: there, index: 11'
p463
sbatp464
Rp465
(dp466
g14
Vpobj
p467
sbatp468
Rp469
(dp470
g14
S'word: and, index: 9'
p471
sbatp472
Rp473
(dp474
g14
Vprep
p475
sbatp476
Rp477
(dp478
g14
S'word: there, index: 3'
p479
sbatp480
Rp481
(dp482
g14
S'id: 10'
p483
sbag0
(g1
g2
(lp484
g0
(g1
g2
(lp485
g0
(g1
g2
(lp486
(lp487
S'word: That, index: 1'
p488
aatp489
Rp490
(dp491
g14
Vnsubj
p492
sbag0
(g1
g2
(lp493
(lp494
S"word: 's, index: 2"
p495
aatp496
Rp497
(dp498
g14
Vcop
p499
sbatp500
Rp501
(dp502
g14
S'word: all, index: 3'
p503
sbatp504
Rp505
(dp506
g14
S'id: 11'
p507
sbag0
(g1
g2
(lp508
g0
(g1
g2
(lp509
g0
(g1
g2
(lp510
g0
(g1
g2
(lp511
g0
(g1
g2
(lp512
(lp513
S'word: and, index: 4'
p514
aatp515
Rp516
(dp517
g14
Vadvmod
p518
sbatp519
Rp520
(dp521
g14
S'word: there, index: 2'
p522
sbatp523
Rp524
(dp525
g14
Vdep
p526
sbatp527
Rp528
(dp529
g14
S'word: Apron, index: 1'
p530
sbatp531
Rp532
(dp533
g14
S'id: 12'
p534
sbag0
(g1
g2
(lp535
g0
(g1
g2
(lp536
g0
(g1
g2
(lp537
(lp538
S'word: I, index: 1'
p539
aatp540
Rp541
(dp542
g14
Vnsubj
p543
sbag0
(g1
g2
(lp544
(lp545
S'word: ca, index: 2'
p546
aatp547
Rp548
(dp549
g14
Vaux
p550
sbag0
(g1
g2
(lp551
(lp552
S"word: n't, index: 3"
p553
aatp554
Rp555
(dp556
g14
Vneg
p557
sbag0
(g1
g2
(lp558
(lp559
S'word: either, index: 5'
p560
aatp561
Rp562
(dp563
g14
Vadvmod
p564
sbatp565
Rp566
(dp567
g14
S'word: talk, index: 4'
p568
sbatp569
Rp570
(dp571
g14
S'id: 13'
p572
sbag0
(g1
g2
(lp573
g0
(g1
g2
(lp574
g0
(g1
g2
(lp575
g0
(g1
g2
(lp576
g0
(g1
g2
(lp577
(lp578
S'word: here, index: 11'
p579
aatp580
Rp581
(dp582
g14
Vpobj
p583
sbag0
(g1
g2
(lp584
(lp585
S'word: here, index: 9'
p586
aatp587
Rp588
(dp589
g14
Vadvmod
p590
sbatp591
Rp592
(dp593
g14
S'word: to, index: 10'
p594
sbatp595
Rp596
(dp597
g14
Vprep
p598
sbag0
(g1
g2
(lp599
(lp600
S'word: And, index: 1'
p601
aatp602
Rp603
(dp604
g14
Vnsubj
p605
sbag0
(g1
g2
(lp606
(lp607
S'word: and, index: 3'
p608
aatp609
Rp610
(dp611
g14
Vcc
p612
sbag0
(g1
g2
(lp613
g0
(g1
g2
(lp614
g0
(g1
g2
(lp615
g592
atp616
Rp617
(dp618
g14
Vconj
p619
sbag0
(g1
g2
(lp620
(lp621
S'word: here, index: 6'
p622
aatp623
Rp624
(dp625
g14
Vpobj
p626
sbatp627
Rp628
(dp629
g14
S'word: to, index: 5'
p630
sbatp631
Rp632
(dp633
g14
Vprep
p634
sbatp635
Rp636
(dp637
g14
S'word: here, index: 4'
p638
sbatp639
Rp640
(dp641
g14
S'id: 14'
p642
sbatp643
Rp644
(dp645
g14
S'sentences'
p646
sb.