ccopy_reg
_reconstructor
p0
(cnltk.tree
Tree
p1
c__builtin__
list
p2
(lp3
g0
(g1
g2
(lp4
g0
(g1
g2
(lp5
g0
(g1
g2
(lp6
g0
(g1
g2
(lp7
g0
(g1
g2
(lp8
(lp9
S'word: a, index: 3'
p10
aatp11
Rp12
(dp13
S'_label'
p14
Vdet
p15
sbatp16
Rp17
(dp18
g14
S'word: book, index: 4'
p19
sbatp20
Rp21
(dp22
g14
Vprep
p23
sbatp24
Rp25
(dp26
g14
S'word: picture, index: 1'
p27
sbatp28
Rp29
(dp30
g14
S'id: 0'
p31
sbag0
(g1
g2
(lp32
g0
(g1
g2
(lp33
g0
(g1
g2
(lp34
(lp35
S'word: it, index: 4'
p36
aatp37
Rp38
(dp39
g14
Vnsubj
p40
sbag0
(g1
g2
(lp41
g0
(g1
g2
(lp42
g0
(g1
g2
(lp43
(lp44
S'word: a, index: 6'
p45
aatp46
Rp47
(dp48
g14
Vdet
p49
sbatp50
Rp51
(dp52
g14
S'word: chair, index: 7'
p53
sbatp54
Rp55
(dp56
g14
Vdep
p57
sbag0
(g1
g2
(lp58
(lp59
S'word: And, index: 1'
p60
aatp61
Rp62
(dp63
g14
Vcc
p64
sbag0
(g1
g2
(lp65
g0
(g1
g2
(lp66
g0
(g1
g2
(lp67
(lp68
S'word: there, index: 3'
p69
aatp70
Rp71
(dp72
g14
Vpobj
p73
sbatp74
Rp75
(dp76
g14
S'word: right, index: 2'
p77
sbatp78
Rp79
(dp80
g14
Vprep
p81
sbatp82
Rp83
(dp84
g14
S"word: 's, index: 5"
p85
sbatp86
Rp87
(dp88
g14
S'id: 1'
p89
sbag0
(g1
g2
(lp90
g0
(g1
g2
(lp91
g0
(g1
g2
(lp92
g0
(g1
g2
(lp93
g0
(g1
g2
(lp94
g0
(g1
g2
(lp95
g0
(g1
g2
(lp96
(lp97
S'word: right, index: 8'
p98
aatp99
Rp100
(dp101
g14
Vadvmod
p102
sbatp103
Rp104
(dp105
g14
S'word: there, index: 9'
p106
sbatp107
Rp108
(dp109
g14
Vadvmod
p110
sbag0
(g1
g2
(lp111
g0
(g1
g2
(lp112
g0
(g1
g2
(lp113
(lp114
S'word: and, index: 6'
p115
aatp116
Rp117
(dp118
g14
Vadvmod
p119
sbatp120
Rp121
(dp122
g14
S'word: there, index: 4'
p123
sbatp124
Rp125
(dp126
g14
Vnsubj
p127
sbatp128
Rp129
(dp130
g14
S'word: sciss, index: 7'
p131
sbatp132
Rp133
(dp134
g14
Vrcmod
p135
sbag0
(g1
g2
(lp136
(lp137
S'word: And, index: 1'
p138
aatp139
Rp140
(dp141
g14
Vcc
p142
sbag0
(g1
g2
(lp143
(lp144
S'word: story/sciss, index: 2'
p145
aatp146
Rp147
(dp148
g14
Vamod
p149
sbatp150
Rp151
(dp152
g14
S'word: right, index: 3'
p153
sbatp154
Rp155
(dp156
g14
S'id: 2'
p157
sbag0
(g1
g2
(lp158
g0
(g1
g2
(lp159
g0
(g1
g2
(lp160
(lp161
S'word: And, index: 1'
p162
aatp163
Rp164
(dp165
g14
Vcc
p166
sbag0
(g1
g2
(lp167
(lp168
S'word: this, index: 2'
p169
aatp170
Rp171
(dp172
g14
Vnsubj
p173
sbag0
(g1
g2
(lp174
(lp175
S'word: is, index: 3'
p176
aatp177
Rp178
(dp179
g14
Vcop
p180
sbatp181
Rp182
(dp183
g14
S'word: wine, index: 4'
p184
sbatp185
Rp186
(dp187
g14
S'id: 3'
p188
sbag0
(g1
g2
(lp189
g0
(g1
g2
(lp190
g0
(g1
g2
(lp191
(lp192
S'word: And, index: 1'
p193
aatp194
Rp195
(dp196
g14
Vnsubj
p197
sbatp198
Rp199
(dp200
g14
S'word: a-m-b-m, index: 2'
p201
sbatp202
Rp203
(dp204
g14
S'id: 4'
p205
sbag0
(g1
g2
(lp206
g0
(g1
g2
(lp207
g0
(g1
g2
(lp208
(lp209
S'word: And, index: 1'
p210
aatp211
Rp212
(dp213
g14
Vnsubj
p214
sbag0
(g1
g2
(lp215
(lp216
S'word: sandals, index: 5'
p217
aatp218
Rp219
(dp220
g14
Vconj
p221
sbatp222
Rp223
(dp224
g14
S'word: sandals, index: 2'
p225
sbatp226
Rp227
(dp228
g14
S'id: 5'
p229
sbag0
(g1
g2
(lp230
g0
(g1
g2
(lp231
g0
(g1
g2
(lp232
(lp233
S'word: And, index: 1'
p234
aatp235
Rp236
(dp237
g14
Vnsubj
p238
sbatp239
Rp240
(dp241
g14
S'word: tree, index: 2'
p242
sbatp243
Rp244
(dp245
g14
S'id: 6'
p246
sbag0
(g1
g2
(lp247
g0
(g1
g2
(lp248
g0
(g1
g2
(lp249
(lp250
S'word: And, index: 1'
p251
aatp252
Rp253
(dp254
g14
Vcc
p255
sbatp256
Rp257
(dp258
g14
S'word: here, index: 2'
p259
sbatp260
Rp261
(dp262
g14
S'id: 7'
p263
sbag0
(g1
g2
(lp264
g0
(g1
g2
(lp265
g0
(g1
g2
(lp266
(lp267
S'word: And, index: 1'
p268
aatp269
Rp270
(dp271
g14
Vnsubj
p272
sbatp273
Rp274
(dp275
g14
S'word: pool/pole, index: 2'
p276
sbatp277
Rp278
(dp279
g14
S'id: 8'
p280
sbag0
(g1
g2
(lp281
g0
(g1
g2
(lp282
g0
(g1
g2
(lp283
(lp284
S'word: And, index: 1'
p285
aatp286
Rp287
(dp288
g14
Vcc
p289
sbag0
(g1
g2
(lp290
g0
(g1
g2
(lp291
g0
(g1
g2
(lp292
(lp293
S'word: right, index: 3'
p294
aatp295
Rp296
(dp297
g14
Vadvmod
p298
sbatp299
Rp300
(dp301
g14
S'word: there, index: 4'
p302
sbatp303
Rp304
(dp305
g14
Vadvmod
p306
sbag0
(g1
g2
(lp307
g0
(g1
g2
(lp308
g0
(g1
g2
(lp309
g0
(g1
g2
(lp310
g0
(g1
g2
(lp311
(lp312
S'word: right, index: 7'
p313
aatp314
Rp315
(dp316
g14
Vadvmod
p317
sbatp318
Rp319
(dp320
g14
S'word: there, index: 8'
p321
sbatp322
Rp323
(dp324
g14
Vadvmod
p325
sbatp326
Rp327
(dp328
g14
S'word: tur, index: 6'
p329
sbatp330
Rp331
(dp332
g14
Vdobj
p333
sbatp334
Rp335
(dp336
g14
S'word: chur, index: 2'
p337
sbatp338
Rp339
(dp340
g14
S'id: 9'
p341
sbag0
(g1
g2
(lp342
g0
(g1
g2
(lp343
g0
(g1
g2
(lp344
(lp345
S'word: And, index: 1'
p346
aatp347
Rp348
(dp349
g14
Vcc
p350
sbag0
(g1
g2
(lp351
g0
(g1
g2
(lp352
g0
(g1
g2
(lp353
(lp354
S'word: and, index: 4'
p355
aatp356
Rp357
(dp358
g14
Vcc
p359
sbatp360
Rp361
(dp362
g14
S'word: law, index: 5'
p363
sbatp364
Rp365
(dp366
g14
Vappos
p367
sbatp368
Rp369
(dp370
g14
S'word: kite, index: 2'
p371
sbatp372
Rp373
(dp374
g14
S'id: 10'
p375
sbag0
(g1
g2
(lp376
g0
(g1
g2
(lp377
g0
(g1
g2
(lp378
(lp379
S'word: And, index: 1'
p380
aatp381
Rp382
(dp383
g14
Vcc
p384
sbag0
(g1
g2
(lp385
(lp386
S'word: a, index: 2'
p387
aatp388
Rp389
(dp390
g14
Vdet
p391
sbatp392
Rp393
(dp394
g14
S'word: running, index: 3'
p395
sbatp396
Rp397
(dp398
g14
S'id: 11'
p399
sbag0
(g1
g2
(lp400
g0
(g1
g2
(lp401
g0
(g1
g2
(lp402
(lp403
S'word: And, index: 1'
p404
aatp405
Rp406
(dp407
g14
Vcc
p408
sbag0
(g1
g2
(lp409
(lp410
S'word: right, index: 2'
p411
aatp412
Rp413
(dp414
g14
Vadvmod
p415
sbatp416
Rp417
(dp418
g14
S'word: there, index: 3'
p419
sbatp420
Rp421
(dp422
g14
S'id: 12'
p423
sbag0
(g1
g2
(lp424
g0
(g1
g2
(lp425
g0
(g1
g2
(lp426
(lp427
S'word: And, index: 1'
p428
aatp429
Rp430
(dp431
g14
Vcc
p432
sbag0
(g1
g2
(lp433
g0
(g1
g2
(lp434
g0
(g1
g2
(lp435
(lp436
S'word: here, index: 10'
p437
aatp438
Rp439
(dp440
g14
Vpobj
p441
sbag0
(g1
g2
(lp442
g0
(g1
g2
(lp443
g0
(g1
g2
(lp444
(lp445
S'word: here, index: 7'
p446
aatp447
Rp448
(dp449
g14
Vadvmod
p450
sbag0
(g1
g2
(lp451
(lp452
S'word: here, index: 10'
p453
aatp454
Rp455
(dp456
g14
Vconj
p457
sbatp458
Rp459
(dp460
g14
S'word: here, index: 5'
p461
sbatp462
Rp463
(dp464
g14
Vpobj
p465
sbatp466
Rp467
(dp468
g14
S'word: of, index: 4'
p469
sbatp470
Rp471
(dp472
g14
Vdep
p473
sbatp474
Rp475
(dp476
g14
S'word: stories, index: 3'
p477
sbatp478
Rp479
(dp480
g14
S'id: 13'
p481
sbag0
(g1
g2
(lp482
g0
(g1
g2
(lp483
g0
(g1
g2
(lp484
(lp485
S'word: And, index: 1'
p486
aatp487
Rp488
(dp489
g14
Vcc
p490
sbag0
(g1
g2
(lp491
g0
(g1
g2
(lp492
g0
(g1
g2
(lp493
g0
(g1
g2
(lp494
g0
(g1
g2
(lp495
g0
(g1
g2
(lp496
g0
(g1
g2
(lp497
(lp498
S'word: playing, index: 8'
p499
aatp500
Rp501
(dp502
g14
Vvmod
p503
sbatp504
Rp505
(dp506
g14
S'word: kids, index: 7'
p507
sbatp508
Rp509
(dp510
g14
Vpobj
p511
sbatp512
Rp513
(dp514
g14
S'word: of, index: 6'
p515
sbatp516
Rp517
(dp518
g14
Vconj
p519
sbatp520
Rp521
(dp522
g14
S'word: of, index: 3'
p523
sbatp524
Rp525
(dp526
g14
Vprep
p527
sbag0
(g1
g2
(lp528
g513
atp529
Rp530
(dp531
g14
Vprep
p532
sbatp533
Rp534
(dp535
g14
S'word: pictures, index: 2'
p536
sbatp537
Rp538
(dp539
g14
S'id: 14'
p540
sbag0
(g1
g2
(lp541
g0
(g1
g2
(lp542
g0
(g1
g2
(lp543
(lp544
S'word: I, index: 1'
p545
aatp546
Rp547
(dp548
g14
Vnsubj
p549
sbag0
(g1
g2
(lp550
(lp551
S'word: do, index: 2'
p552
aatp553
Rp554
(dp555
g14
Vaux
p556
sbag0
(g1
g2
(lp557
(lp558
S"word: n't, index: 3"
p559
aatp560
Rp561
(dp562
g14
Vneg
p563
sbag0
(g1
g2
(lp564
g0
(g1
g2
(lp565
g0
(g1
g2
(lp566
(lp567
S'word: to, index: 5'
p568
aatp569
Rp570
(dp571
g14
Vaux
p572
sbatp573
Rp574
(dp575
g14
S'word: talk, index: 6'
p576
sbatp577
Rp578
(dp579
g14
Vvmod
p580
sbatp581
Rp582
(dp583
g14
S'word: how, index: 4'
p584
sbatp585
Rp586
(dp587
g14
S'id: 15'
p588
sbag0
(g1
g2
(lp589
g0
(g1
g2
(lp590
g0
(g1
g2
(lp591
(lp592
S'word: I, index: 1'
p593
aatp594
Rp595
(dp596
g14
Vnsubj
p597
sbag0
(g1
g2
(lp598
(lp599
S'word: then, index: 5'
p600
aatp601
Rp602
(dp603
g14
Vconj
p604
sbag0
(g1
g2
(lp605
g0
(g1
g2
(lp606
g0
(g1
g2
(lp607
(lp608
S'word: wavy, index: 10'
p609
aatp610
Rp611
(dp612
g14
Vdep
p613
sbatp614
Rp615
(dp616
g14
S'word: scissor, index: 11'
p617
sbatp618
Rp619
(dp620
g14
Vconj
p621
sbatp622
Rp623
(dp624
g14
S'word: know, index: 2'
p625
sbatp626
Rp627
(dp628
g14
S'id: 16'
p629
sbag0
(g1
g2
(lp630
tp631
Rp632
(dp633
g14
S'id: 17'
p634
sbatp635
Rp636
(dp637
g14
S'sentences'
p638
sb.