ccopy_reg
_reconstructor
p0
(cnltk.tree
Tree
p1
c__builtin__
list
p2
(lp3
g0
(g1
g2
(lp4
g0
(g1
g2
(lp5
g0
(g1
g2
(lp6
VIt
p7
atp8
Rp9
(dp10
S'_label'
p11
S'start: 1'
p12
sbatp13
Rp14
(dp15
g11
S'sent: 1'
p16
sbag0
(g1
g2
(lp17
g0
(g1
g2
(lp18
Va puna day at the circus
p19
atp20
Rp21
(dp22
g11
S'start: 3'
p23
sbatp24
Rp25
(dp26
g11
S'sent: 1'
p27
sbatp28
Rp29
(dp30
g11
S'id: 1'
p31
sbag0
(g1
g2
(lp32
g0
(g1
g2
(lp33
g0
(g1
g2
(lp34
Vthe circus
p35
atp36
Rp37
(dp38
g11
S'start: 7'
p39
sbatp40
Rp41
(dp42
g11
S'sent: 1'
p43
sbag0
(g1
g2
(lp44
g0
(g1
g2
(lp45
Vthe circus
p46
atp47
Rp48
(dp49
g11
S'start: 17'
p50
sbatp51
Rp52
(dp53
g11
S'sent: 10'
p54
sbatp55
Rp56
(dp57
g11
S'id: 3'
p58
sbag0
(g1
g2
(lp59
g0
(g1
g2
(lp60
g0
(g1
g2
(lp61
VThe brother
p62
atp63
Rp64
(dp65
g11
S'start: 1'
p66
sbatp67
Rp68
(dp69
g11
S'sent: 2'
p70
sbag0
(g1
g2
(lp71
g0
(g1
g2
(lp72
Vhis , his sister some
p73
atp74
Rp75
(dp76
g11
S'start: 55'
p77
sbatp78
Rp79
(dp80
g11
S'sent: 2'
p81
sbag0
(g1
g2
(lp82
g0
(g1
g2
(lp83
Vhis
p84
atp85
Rp86
(dp87
g11
S'start: 55'
p88
sbatp89
Rp90
(dp91
g11
S'sent: 2'
p92
sbag0
(g1
g2
(lp93
g0
(g1
g2
(lp94
Vhis
p95
atp96
Rp97
(dp98
g11
S'start: 57'
p99
sbatp100
Rp101
(dp102
g11
S'sent: 2'
p103
sbag0
(g1
g2
(lp104
g0
(g1
g2
(lp105
Vthe brother
p106
atp107
Rp108
(dp109
g11
S'start: 13'
p110
sbatp111
Rp112
(dp113
g11
S'sent: 3'
p114
sbatp115
Rp116
(dp117
g11
S'id: 4'
p118
sbag0
(g1
g2
(lp119
g0
(g1
g2
(lp120
g0
(g1
g2
(lp121
Vthe little sister for a ride
p122
atp123
Rp124
(dp125
g11
S'start: 5'
p126
sbatp127
Rp128
(dp129
g11
S'sent: 2'
p130
sbag0
(g1
g2
(lp131
g0
(g1
g2
(lp132
Vthe little sister
p133
atp134
Rp135
(dp136
g11
S'start: 29'
p137
sbatp138
Rp139
(dp140
g11
S'sent: 2'
p141
sbag0
(g1
g2
(lp142
g0
(g1
g2
(lp143
Vshe
p144
atp145
Rp146
(dp147
g11
S'start: 40'
p148
sbatp149
Rp150
(dp151
g11
S'sent: 2'
p152
sbag0
(g1
g2
(lp153
g0
(g1
g2
(lp154
Vhis sister some
p155
atp156
Rp157
(dp158
g11
S'start: 57'
p159
sbatp160
Rp161
(dp162
g11
S'sent: 2'
p163
sbatp164
Rp165
(dp166
g11
S'id: 5'
p167
sbag0
(g1
g2
(lp168
g0
(g1
g2
(lp169
g0
(g1
g2
(lp170
Vthe clown
p171
atp172
Rp173
(dp174
g11
S'start: 13'
p175
sbatp176
Rp177
(dp178
g11
S'sent: 2'
p179
sbag0
(g1
g2
(lp180
g0
(g1
g2
(lp181
Vhe
p182
atp183
Rp184
(dp185
g11
S'start: 25'
p186
sbatp187
Rp188
(dp189
g11
S'sent: 2'
p190
sbatp191
Rp192
(dp193
g11
S'id: 7'
p194
sbag0
(g1
g2
(lp195
g0
(g1
g2
(lp196
g0
(g1
g2
(lp197
Vthe little boy
p198
atp199
Rp200
(dp201
g11
S'start: 20'
p202
sbatp203
Rp204
(dp205
g11
S'sent: 2'
p206
sbag0
(g1
g2
(lp207
g0
(g1
g2
(lp208
Vthe little boy
p209
atp210
Rp211
(dp212
g11
S'start: 8'
p213
sbatp214
Rp215
(dp216
g11
S'sent: 3'
p217
sbatp218
Rp219
(dp220
g11
S'id: 8'
p221
sbag0
(g1
g2
(lp222
g0
(g1
g2
(lp223
g0
(g1
g2
(lp224
Vthe mama 's hand
p225
atp226
Rp227
(dp228
g11
S'start: 34'
p229
sbatp230
Rp231
(dp232
g11
S'sent: 2'
p233
sbag0
(g1
g2
(lp234
g0
(g1
g2
(lp235
Vhis hand
p236
atp237
Rp238
(dp239
g11
S'start: 6'
p240
sbatp241
Rp242
(dp243
g11
S'sent: 5'
p244
sbatp245
Rp246
(dp247
g11
S'id: 11'
p248
sbag0
(g1
g2
(lp249
g0
(g1
g2
(lp250
g0
(g1
g2
(lp251
Vthe mama 's
p252
atp253
Rp254
(dp255
g11
S'start: 34'
p256
sbatp257
Rp258
(dp259
g11
S'sent: 2'
p260
sbag0
(g1
g2
(lp261
g0
(g1
g2
(lp262
Vthe mama
p263
atp264
Rp265
(dp266
g11
S'start: 2'
p267
sbatp268
Rp269
(dp270
g11
S'sent: 11'
p271
sbag0
(g1
g2
(lp272
g0
(g1
g2
(lp273
Vher
p274
atp275
Rp276
(dp277
g11
S'start: 9'
p278
sbatp279
Rp280
(dp281
g11
S'sent: 11'
p282
sbag0
(g1
g2
(lp283
g0
(g1
g2
(lp284
Vshe
p285
atp286
Rp287
(dp288
g11
S'start: 17'
p289
sbatp290
Rp291
(dp292
g11
S'sent: 11'
p293
sbag0
(g1
g2
(lp294
g0
(g1
g2
(lp295
Vshe
p296
atp297
Rp298
(dp299
g11
S'start: 22'
p300
sbatp301
Rp302
(dp303
g11
S'sent: 11'
p304
sbag0
(g1
g2
(lp305
g0
(g1
g2
(lp306
Vshe
p307
atp308
Rp309
(dp310
g11
S'start: 25'
p311
sbatp312
Rp313
(dp314
g11
S'sent: 11'
p315
sbag0
(g1
g2
(lp316
g0
(g1
g2
(lp317
Vshe
p318
atp319
Rp320
(dp321
g11
S'start: 6'
p322
sbatp323
Rp324
(dp325
g11
S'sent: 12'
p326
sbag0
(g1
g2
(lp327
g0
(g1
g2
(lp328
Vshe
p329
atp330
Rp331
(dp332
g11
S'start: 9'
p333
sbatp334
Rp335
(dp336
g11
S'sent: 12'
p337
sbatp338
Rp339
(dp340
g11
S'id: 12'
p341
sbag0
(g1
g2
(lp342
g0
(g1
g2
(lp343
g0
(g1
g2
(lp344
Vhere with the little boy
p345
atp346
Rp347
(dp348
g11
S'start: 6'
p349
sbatp350
Rp351
(dp352
g11
S'sent: 3'
p353
sbag0
(g1
g2
(lp354
g0
(g1
g2
(lp355
Vshe
p356
atp357
Rp358
(dp359
g11
S'start: 16'
p360
sbatp361
Rp362
(dp363
g11
S'sent: 3'
p364
sbatp365
Rp366
(dp367
g11
S'id: 22'
p368
sbag0
(g1
g2
(lp369
g0
(g1
g2
(lp370
g0
(g1
g2
(lp371
Vthe circus clown
p372
atp373
Rp374
(dp375
g11
S'start: 2'
p376
sbatp377
Rp378
(dp379
g11
S'sent: 4'
p380
sbag0
(g1
g2
(lp381
g0
(g1
g2
(lp382
Vhe
p383
atp384
Rp385
(dp386
g11
S'start: 14'
p387
sbatp388
Rp389
(dp390
g11
S'sent: 4'
p391
sbag0
(g1
g2
(lp392
g0
(g1
g2
(lp393
Vhe
p394
atp395
Rp396
(dp397
g11
S'start: 21'
p398
sbatp399
Rp400
(dp401
g11
S'sent: 4'
p402
sbag0
(g1
g2
(lp403
g0
(g1
g2
(lp404
Vhis
p405
atp406
Rp407
(dp408
g11
S'start: 6'
p409
sbatp410
Rp411
(dp412
g11
S'sent: 5'
p413
sbag0
(g1
g2
(lp414
g0
(g1
g2
(lp415
Vhim
p416
atp417
Rp418
(dp419
g11
S'start: 21'
p420
sbatp421
Rp422
(dp423
g11
S'sent: 5'
p424
sbatp425
Rp426
(dp427
g11
S'id: 28'
p428
sbag0
(g1
g2
(lp429
g0
(g1
g2
(lp430
g0
(g1
g2
(lp431
VI
p432
atp433
Rp434
(dp435
g11
S'start: 9'
p436
sbatp437
Rp438
(dp439
g11
S'sent: 4'
p440
sbag0
(g1
g2
(lp441
g0
(g1
g2
(lp442
VI
p443
atp444
Rp445
(dp446
g11
S'start: 2'
p447
sbatp448
Rp449
(dp450
g11
S'sent: 14'
p451
sbatp452
Rp453
(dp454
g11
S'id: 29'
p455
sbag0
(g1
g2
(lp456
g0
(g1
g2
(lp457
g0
(g1
g2
(lp458
Vjust a joker
p459
atp460
Rp461
(dp462
g11
S'start: 2'
p463
sbatp464
Rp465
(dp466
g11
S'sent: 6'
p467
sbag0
(g1
g2
(lp468
g0
(g1
g2
(lp469
Vhe
p470
atp471
Rp472
(dp473
g11
S'start: 10'
p474
sbatp475
Rp476
(dp477
g11
S'sent: 6'
p478
sbatp479
Rp480
(dp481
g11
S'id: 39'
p482
sbag0
(g1
g2
(lp483
g0
(g1
g2
(lp484
g0
(g1
g2
(lp485
Vtwo
p486
atp487
Rp488
(dp489
g11
S'start: 8'
p490
sbatp491
Rp492
(dp493
g11
S'sent: 7'
p494
sbag0
(g1
g2
(lp495
g0
(g1
g2
(lp496
Vtwo
p497
atp498
Rp499
(dp500
g11
S'start: 16'
p501
sbatp502
Rp503
(dp504
g11
S'sent: 7'
p505
sbag0
(g1
g2
(lp506
g0
(g1
g2
(lp507
Vtwo
p508
atp509
Rp510
(dp511
g11
S'start: 10'
p512
sbatp513
Rp514
(dp515
g11
S'sent: 9'
p516
sbag0
(g1
g2
(lp517
g0
(g1
g2
(lp518
Vtwo
p519
atp520
Rp521
(dp522
g11
S'start: 21'
p523
sbatp524
Rp525
(dp526
g11
S'sent: 12'
p527
sbatp528
Rp529
(dp530
g11
S'id: 44'
p531
sbag0
(g1
g2
(lp532
g0
(g1
g2
(lp533
g0
(g1
g2
(lp534
Vfour
p535
atp536
Rp537
(dp538
g11
S'start: 12'
p539
sbatp540
Rp541
(dp542
g11
S'sent: 7'
p543
sbag0
(g1
g2
(lp544
g0
(g1
g2
(lp545
Vfour
p546
atp547
Rp548
(dp549
g11
S'start: 14'
p550
sbatp551
Rp552
(dp553
g11
S'sent: 7'
p554
sbag0
(g1
g2
(lp555
g0
(g1
g2
(lp556
Vfour
p557
atp558
Rp559
(dp560
g11
S'start: 10'
p561
sbatp562
Rp563
(dp564
g11
S'sent: 13'
p565
sbatp566
Rp567
(dp568
g11
S'id: 45'
p569
sbag0
(g1
g2
(lp570
g0
(g1
g2
(lp571
g0
(g1
g2
(lp572
VEverybody 's sitting there
p573
atp574
Rp575
(dp576
g11
S'start: 1'
p577
sbatp578
Rp579
(dp580
g11
S'sent: 7'
p581
sbag0
(g1
g2
(lp582
g0
(g1
g2
(lp583
Vhim
p584
atp585
Rp586
(dp587
g11
S'start: 24'
p588
sbatp589
Rp590
(dp591
g11
S'sent: 7'
p592
sbag0
(g1
g2
(lp593
g0
(g1
g2
(lp594
Vhim
p595
atp596
Rp597
(dp598
g11
S'start: 27'
p599
sbatp600
Rp601
(dp602
g11
S'sent: 7'
p603
sbag0
(g1
g2
(lp604
g0
(g1
g2
(lp605
Vhis
p606
atp607
Rp608
(dp609
g11
S'start: 3'
p610
sbatp611
Rp612
(dp613
g11
S'sent: 9'
p614
sbatp615
Rp616
(dp617
g11
S'id: 50'
p618
sbag0
(g1
g2
(lp619
g0
(g1
g2
(lp620
g0
(g1
g2
(lp621
Vthe mother 's
p622
atp623
Rp624
(dp625
g11
S'start: 5'
p626
sbatp627
Rp628
(dp629
g11
S'sent: 10'
p630
sbag0
(g1
g2
(lp631
g0
(g1
g2
(lp632
Vshe
p633
atp634
Rp635
(dp636
g11
S'start: 10'
p637
sbatp638
Rp639
(dp640
g11
S'sent: 10'
p641
sbatp642
Rp643
(dp644
g11
S'id: 70'
p645
sbag0
(g1
g2
(lp646
g0
(g1
g2
(lp647
g0
(g1
g2
(lp648
Vthat oldest little girl she is , she 's not too tired cause
p649
atp650
Rp651
(dp652
g11
S'start: 2'
p653
sbatp654
Rp655
(dp656
g11
S'sent: 12'
p657
sbag0
(g1
g2
(lp658
g0
(g1
g2
(lp659
Vshe
p660
atp661
Rp662
(dp663
g11
S'start: 15'
p664
sbatp665
Rp666
(dp667
g11
S'sent: 12'
p668
sbag0
(g1
g2
(lp669
g0
(g1
g2
(lp670
Vher
p671
atp672
Rp673
(dp674
g11
S'start: 20'
p675
sbatp676
Rp677
(dp678
g11
S'sent: 12'
p679
sbag0
(g1
g2
(lp680
g0
(g1
g2
(lp681
VHer
p682
atp683
Rp684
(dp685
g11
S'start: 1'
p686
sbatp687
Rp688
(dp689
g11
S'sent: 13'
p690
sbatp691
Rp692
(dp693
g11
S'id: 80'
p694
sbag0
(g1
g2
(lp695
g0
(g1
g2
(lp696
g0
(g1
g2
(lp697
VHer hair
p698
atp699
Rp700
(dp701
g11
S'start: 1'
p702
sbatp703
Rp704
(dp705
g11
S'sent: 13'
p706
sbag0
(g1
g2
(lp707
g0
(g1
g2
(lp708
Vher hair
p709
atp710
Rp711
(dp712
g11
S'start: 10'
p713
sbatp714
Rp715
(dp716
g11
S'sent: 14'
p717
sbatp718
Rp719
(dp720
g11
S'id: 88'
p721
sbag0
(g1
g2
(lp722
g0
(g1
g2
(lp723
g0
(g1
g2
(lp724
Vthe baby
p725
atp726
Rp727
(dp728
g11
S'start: 4'
p729
sbatp730
Rp731
(dp732
g11
S'sent: 14'
p733
sbag0
(g1
g2
(lp734
g0
(g1
g2
(lp735
Vher
p736
atp737
Rp738
(dp739
g11
S'start: 10'
p740
sbatp741
Rp742
(dp743
g11
S'sent: 14'
p744
sbatp745
Rp746
(dp747
g11
S'id: 95'
p748
sbatp749
Rp750
(dp751
g11
S'coreferences'
p752
sb.