ccopy_reg
_reconstructor
p0
(cnltk.tree
Tree
p1
c__builtin__
list
p2
(lp3
g0
(g1
g2
(lp4
g0
(g1
g2
(lp5
g0
(g1
g2
(lp6
(lp7
S'word: I, index: 1'
p8
aatp9
Rp10
(dp11
S'_label'
p12
Vnsubj
p13
sbag0
(g1
g2
(lp14
g0
(g1
g2
(lp15
g0
(g1
g2
(lp16
(lp17
S'word: a, index: 3'
p18
aatp19
Rp20
(dp21
g12
Vdet
p22
sbatp23
Rp24
(dp25
g12
S'word: circus, index: 4'
p26
sbatp27
Rp28
(dp29
g12
Vdobj
p30
sbatp31
Rp32
(dp33
g12
S'word: think, index: 2'
p34
sbatp35
Rp36
(dp37
g12
S'id: 0'
p38
sbag0
(g1
g2
(lp39
g0
(g1
g2
(lp40
g0
(g1
g2
(lp41
g0
(g1
g2
(lp42
g0
(g1
g2
(lp43
(lp44
S'word: nice, index: 3'
p45
aatp46
Rp47
(dp48
g12
Vamod
p49
sbag0
(g1
g2
(lp50
(lp51
S'word: lions, index: 6'
p52
aatp53
Rp54
(dp55
g12
Vappos
p56
sbatp57
Rp58
(dp59
g12
S'word: tables, index: 4'
p60
sbatp61
Rp62
(dp63
g12
Vappos
p64
sbatp65
Rp66
(dp67
g12
S'word: Clowns, index: 1'
p68
sbatp69
Rp70
(dp71
g12
S'id: 1'
p72
sbag0
(g1
g2
(lp73
g0
(g1
g2
(lp74
g0
(g1
g2
(lp75
(lp76
S'word: it, index: 7'
p77
aatp78
Rp79
(dp80
g12
Vdobj
p81
sbag0
(g1
g2
(lp82
(lp83
S'word: What, index: 1'
p84
aatp85
Rp86
(dp87
g12
Vdobj
p88
sbag0
(g1
g2
(lp89
(lp90
S'word: a, index: 2'
p91
aatp92
Rp93
(dp94
g12
Vnsubj
p95
sbag0
(g1
g2
(lp96
(lp97
S'word: what, index: 4'
p98
aatp99
Rp100
(dp101
g12
Vdep
p102
sbag0
(g1
g2
(lp103
(lp104
S'word: you, index: 5'
p105
aatp106
Rp107
(dp108
g12
Vnsubj
p109
sbatp110
Rp111
(dp112
g12
S'word: call, index: 6'
p113
sbatp114
Rp115
(dp116
g12
S'id: 2'
p117
sbatp118
Rp119
(dp120
g12
S'sentences'
p121
sb.