ccopy_reg
_reconstructor
p0
(cnltk.tree
Tree
p1
c__builtin__
list
p2
(lp3
g0
(g1
g2
(lp4
g0
(g1
g2
(lp5
g0
(g1
g2
(lp6
g0
(g1
g2
(lp7
g0
(g1
g2
(lp8
g0
(g1
g2
(lp9
g0
(g1
g2
(lp10
(lp11
S'word: ready, index: 3'
p12
aatp13
Rp14
(dp15
S'_label'
p16
Vamod
p17
sbatp18
Rp19
(dp20
g16
S'word: ready, index: 5'
p21
sbatp22
Rp23
(dp24
g16
Vamod
p25
sbatp26
Rp27
(dp28
g16
S'word: ok, index: 1'
p29
sbatp30
Rp31
(dp32
g16
Vnsubj
p33
sbag0
(g1
g2
(lp34
(lp35
S'word: are, index: 7'
p36
aatp37
Rp38
(dp39
g16
Vcop
p40
sbag0
(g1
g2
(lp41
(lp42
S'word: you, index: 8'
p43
aatp44
Rp45
(dp46
g16
Vnpadvmod
p47
sbatp48
Rp49
(dp50
g16
S'word: ready, index: 9'
p51
sbatp52
Rp53
(dp54
g16
S'id: 0'
p55
sbatp56
Rp57
(dp58
g16
S'sentences'
p59
sb.