ccopy_reg
_reconstructor
p0
(cnltk.tree
Tree
p1
c__builtin__
list
p2
(lp3
g0
(g1
g2
(lp4
tp5
Rp6
(dp7
S'_label'
p8
S'id: 0'
p9
sbag0
(g1
g2
(lp10
g0
(g1
g2
(lp11
g0
(g1
g2
(lp12
(lp13
S'word: flowing, index: 20'
p14
aatp15
Rp16
(dp17
g8
Vprep
p18
sbag0
(g1
g2
(lp19
g0
(g1
g2
(lp20
g0
(g1
g2
(lp21
g0
(g1
g2
(lp22
g0
(g1
g2
(lp23
g0
(g1
g2
(lp24
g0
(g1
g2
(lp25
(lp26
S"word: 's, index: 6"
p27
aatp28
Rp29
(dp30
g8
Vpossessive
p31
sbatp32
Rp33
(dp34
g8
S'word: mother, index: 5'
p35
sbatp36
Rp37
(dp38
g8
Vappos
p39
sbag0
(g1
g2
(lp40
(lp41
S'word: the, index: 2'
p42
aatp43
Rp44
(dp45
g8
Vdet
p46
sbatp47
Rp48
(dp49
g8
S'word: kitchen, index: 3'
p50
sbatp51
Rp52
(dp53
g8
Vnsubj
p54
sbag0
(g1
g2
(lp55
g0
(g1
g2
(lp56
g0
(g1
g2
(lp57
g0
(g1
g2
(lp58
g0
(g1
g2
(lp59
g0
(g1
g2
(lp60
g0
(g1
g2
(lp61
(lp62
S'word: the, index: 11'
p63
aatp64
Rp65
(dp66
g8
Vdet
p67
sbatp68
Rp69
(dp70
g8
S'word: dishes, index: 12'
p71
sbatp72
Rp73
(dp74
g8
Vdobj
p75
sbatp76
Rp77
(dp78
g8
S'word: washing, index: 10'
p79
sbatp80
Rp81
(dp82
g8
Vvmod
p83
sbag0
(g1
g2
(lp84
(lp85
S'word: course, index: 15'
p86
aatp87
Rp88
(dp89
g8
Vprep
p90
sbatp91
Rp92
(dp93
g8
S'word: the, index: 8'
p94
sbatp95
Rp96
(dp97
g8
Vdobj
p98
sbatp99
Rp100
(dp101
g8
S'word: washing, index: 7'
p102
sbatp103
Rp104
(dp105
g8
Vprepc
p106
sbag0
(g1
g2
(lp107
g0
(g1
g2
(lp108
g0
(g1
g2
(lp109
(lp110
S'word: the, index: 16'
p111
aatp112
Rp113
(dp114
g8
Vdet
p115
sbatp116
Rp117
(dp118
g8
S'word: sink, index: 17'
p119
sbatp120
Rp121
(dp122
g8
Vnsubj
p123
sbatp124
Rp125
(dp126
g8
S'word: is, index: 18'
p127
sbatp128
Rp129
(dp130
g8
S'id: 1'
p131
sbag0
(g1
g2
(lp132
g0
(g1
g2
(lp133
g0
(g1
g2
(lp134
g0
(g1
g2
(lp135
g0
(g1
g2
(lp136
g0
(g1
g2
(lp137
g0
(g1
g2
(lp138
(lp139
S'word: the, index: 8'
p140
aatp141
Rp142
(dp143
g8
Vdet
p144
sbag0
(g1
g2
(lp145
(lp146
S'word: cookie, index: 9'
p147
aatp148
Rp149
(dp150
g8
Vnn
p151
sbatp152
Rp153
(dp154
g8
S'word: jar, index: 10'
p155
sbatp156
Rp157
(dp158
g8
Vdobj
p159
sbag0
(g1
g2
(lp160
g0
(g1
g2
(lp161
g0
(g1
g2
(lp162
(lp163
S'word: the, index: 12'
p164
aatp165
Rp166
(dp167
g8
Vdet
p168
sbag0
(g1
g2
(lp169
(lp170
S'word: top, index: 13'
p171
aatp172
Rp173
(dp174
g8
Vamod
p175
sbatp176
Rp177
(dp178
g8
S'word: cabinet, index: 14'
p179
sbatp180
Rp181
(dp182
g8
Vprep
p183
sbatp184
Rp185
(dp186
g8
S'word: raving, index: 7'
p187
sbatp188
Rp189
(dp190
g8
Vvmod
p191
sbag0
(g1
g2
(lp192
g0
(g1
g2
(lp193
g0
(g1
g2
(lp194
(lp195
S'word: the, index: 1'
p196
aatp197
Rp198
(dp199
g8
Vdet
p200
sbatp201
Rp202
(dp203
g8
S'word: kids, index: 2'
p204
sbatp205
Rp206
(dp207
g8
Vnsubj
p208
sbag0
(g1
g2
(lp209
(lp210
S'word: are, index: 3'
p211
aatp212
Rp213
(dp214
g8
Vaux
p215
sbag0
(g1
g2
(lp216
(lp217
S'word: rave, index: 5'
p218
aatp219
Rp220
(dp221
g8
Vccomp
p222
sbatp223
Rp224
(dp225
g8
S'word: getting, index: 4'
p226
sbatp227
Rp228
(dp229
g8
S'id: 2'
p230
sbag0
(g1
g2
(lp231
g0
(g1
g2
(lp232
g0
(g1
g2
(lp233
(lp234
S'word: her, index: 1'
p235
aatp236
Rp237
(dp238
g8
Vposs
p239
sbag0
(g1
g2
(lp240
(lp241
S"word: 's, index: 3"
p242
aatp243
Rp244
(dp245
g8
Vpossessive
p246
sbag0
(g1
g2
(lp247
(lp248
S'word: about, index: 4'
p249
aatp250
Rp251
(dp252
g8
Vprep
p253
sbag0
(g1
g2
(lp254
g0
(g1
g2
(lp255
g0
(g1
g2
(lp256
g0
(g1
g2
(lp257
g0
(g1
g2
(lp258
(lp259
S'word: the, index: 8'
p260
aatp261
Rp262
(dp263
g8
Vdet
p264
sbatp265
Rp266
(dp267
g8
S'word: stool, index: 9'
p268
sbatp269
Rp270
(dp271
g8
Vprep
p272
sbag0
(g1
g2
(lp273
(lp274
S'word: to, index: 5'
p275
aatp276
Rp277
(dp278
g8
Vaux
p279
sbatp280
Rp281
(dp282
g8
S'word: fall, index: 6'
p283
sbatp284
Rp285
(dp286
g8
Vvmod
p287
sbatp288
Rp289
(dp290
g8
S'word: son, index: 2'
p291
sbatp292
Rp293
(dp294
g8
S'id: 3'
p295
sbag0
(g1
g2
(lp296
g0
(g1
g2
(lp297
g0
(g1
g2
(lp298
(lp299
S'word: that, index: 1'
p300
aatp301
Rp302
(dp303
g8
Vnsubj
p304
sbag0
(g1
g2
(lp305
g0
(g1
g2
(lp306
g0
(g1
g2
(lp307
g0
(g1
g2
(lp308
g0
(g1
g2
(lp309
(lp310
S'word: that, index: 6'
p311
aatp312
Rp313
(dp314
g8
Vdet
p315
sbatp316
Rp317
(dp318
g8
S'word: one, index: 7'
p319
sbatp320
Rp321
(dp322
g8
Vprep
p323
sbatp324
Rp325
(dp326
g8
S'word: it, index: 4'
p327
sbatp328
Rp329
(dp330
g8
Vprep
p331
sbatp332
Rp333
(dp334
g8
S"word: 's, index: 2"
p335
sbatp336
Rp337
(dp338
g8
S'id: 4'
p339
sbag0
(g1
g2
(lp340
g0
(g1
g2
(lp341
g0
(g1
g2
(lp342
(lp343
S'word: there, index: 1'
p344
aatp345
Rp346
(dp347
g8
Vexpl
p348
sbag0
(g1
g2
(lp349
g0
(g1
g2
(lp350
g0
(g1
g2
(lp351
(lp352
S'word: two, index: 3'
p353
aatp354
Rp355
(dp356
g8
Vnum
p357
sbag0
(g1
g2
(lp358
g0
(g1
g2
(lp359
g0
(g1
g2
(lp360
(lp361
S'word: a, index: 6'
p362
aatp363
Rp364
(dp365
g8
Vdet
p366
sbag0
(g1
g2
(lp367
g0
(g1
g2
(lp368
g0
(g1
g2
(lp369
(lp370
S'word: the, index: 9'
p371
aatp372
Rp373
(dp374
g8
Vdet
p375
sbag0
(g1
g2
(lp376
g0
(g1
g2
(lp377
g0
(g1
g2
(lp378
(lp379
S'word: the, index: 12'
p380
aatp381
Rp382
(dp383
g8
Vdet
p384
sbatp385
Rp386
(dp387
g8
S'word: counter, index: 13'
p388
sbatp389
Rp390
(dp391
g8
Vappos
p392
sbatp393
Rp394
(dp395
g8
S'word: counter, index: 10'
p396
sbatp397
Rp398
(dp399
g8
Vprep
p400
sbatp401
Rp402
(dp403
g8
S'word: plate, index: 7'
p404
sbatp405
Rp406
(dp407
g8
Vappos
p408
sbatp409
Rp410
(dp411
g8
S'word: cups, index: 4'
p412
sbatp413
Rp414
(dp415
g8
Vnsubj
p416
sbatp417
Rp418
(dp419
g8
S"word: 's, index: 2"
p420
sbatp421
Rp422
(dp423
g8
S'id: 5'
p424
sbag0
(g1
g2
(lp425
g0
(g1
g2
(lp426
g0
(g1
g2
(lp427
g0
(g1
g2
(lp428
g0
(g1
g2
(lp429
(lp430
S'word: bushes, index: 18'
p431
aatp432
Rp433
(dp434
g8
Vconj
p435
sbag0
(g1
g2
(lp436
(lp437
S'word: the, index: 3'
p438
aatp439
Rp440
(dp441
g8
Vdet
p442
sbag0
(g1
g2
(lp443
g0
(g1
g2
(lp444
g0
(g1
g2
(lp445
(lp446
S'word: the, index: 6'
p447
aatp448
Rp449
(dp450
g8
Vdet
p451
sbatp452
Rp453
(dp454
g8
S'word: trees, index: 7'
p455
sbatp456
Rp457
(dp458
g8
Vconj
p459
sbag0
(g1
g2
(lp460
g0
(g1
g2
(lp461
g0
(g1
g2
(lp462
(lp463
S'word: bushes, index: 18'
p464
aatp465
Rp466
(dp467
g8
Vconj
p468
sbag0
(g1
g2
(lp469
(lp470
S'word: outside, index: 19'
p471
aatp472
Rp473
(dp474
g8
Vadvmod
p475
sbag0
(g1
g2
(lp476
(lp477
S'word: the, index: 10'
p478
aatp479
Rp480
(dp481
g8
Vdet
p482
sbag0
(g1
g2
(lp483
(lp484
S'word: the, index: 15'
p485
aatp486
Rp487
(dp488
g8
Vprep
p489
sbatp490
Rp491
(dp492
g8
S'word: bushes, index: 11'
p493
sbatp494
Rp495
(dp496
g8
Vconj
p497
sbatp498
Rp499
(dp500
g8
S'word: flowers, index: 4'
p501
sbatp502
Rp503
(dp504
g8
Vdobj
p505
sbag0
(g1
g2
(lp506
g453
atp507
Rp508
(dp509
g8
Vdobj
p510
sbag0
(g1
g2
(lp511
g491
atp512
Rp513
(dp514
g8
Vdobj
p515
sbag0
(g1
g2
(lp516
(lp517
S'word: I, index: 1'
p518
aatp519
Rp520
(dp521
g8
Vnsubj
p522
sbatp523
Rp524
(dp525
g8
S'word: see, index: 2'
p526
sbatp527
Rp528
(dp529
g8
S'id: 6'
p530
sbag0
(g1
g2
(lp531
g0
(g1
g2
(lp532
g0
(g1
g2
(lp533
(lp534
S'word: there, index: 6'
p535
aatp536
Rp537
(dp538
g8
Vprep
p539
sbag0
(g1
g2
(lp540
g0
(g1
g2
(lp541
g0
(g1
g2
(lp542
(lp543
S'word: the, index: 8'
p544
aatp545
Rp546
(dp547
g8
Vdet
p548
sbatp549
Rp550
(dp551
g8
S'word: sidewalk, index: 9'
p552
sbatp553
Rp554
(dp555
g8
Vprep
p556
sbag0
(g1
g2
(lp557
(lp558
S'word: fact, index: 2'
p559
aatp560
Rp561
(dp562
g8
Vprep
p563
sbatp564
Rp565
(dp566
g8
S'word: garage, index: 4'
p567
sbatp568
Rp569
(dp570
g8
S'id: 7'
p571
sbag0
(g1
g2
(lp572
g0
(g1
g2
(lp573
g0
(g1
g2
(lp574
g0
(g1
g2
(lp575
g0
(g1
g2
(lp576
(lp577
S"word: 's, index: 2"
p578
aatp579
Rp580
(dp581
g8
Vnsubj
p582
sbag0
(g1
g2
(lp583
g0
(g1
g2
(lp584
g0
(g1
g2
(lp585
(lp586
S'word: a, index: 4'
p587
aatp588
Rp589
(dp590
g8
Vdet
p591
sbatp592
Rp593
(dp594
g8
S'word: dress, index: 5'
p595
sbatp596
Rp597
(dp598
g8
Vdobj
p599
sbatp600
Rp601
(dp602
g8
S'word: wearing, index: 3'
p603
sbatp604
Rp605
(dp606
g8
Vdep
p607
sbatp608
Rp609
(dp610
g8
S'word: mom, index: 1'
p611
sbatp612
Rp613
(dp614
g8
S'id: 8'
p615
sbag0
(g1
g2
(lp616
g0
(g1
g2
(lp617
g0
(g1
g2
(lp618
(lp619
S'word: what, index: 1'
p620
aatp621
Rp622
(dp623
g8
Vdobj
p624
sbag0
(g1
g2
(lp625
(lp626
S'word: am, index: 2'
p627
aatp628
Rp629
(dp630
g8
Vaux
p631
sbag0
(g1
g2
(lp632
(lp633
S'word: I, index: 3'
p634
aatp635
Rp636
(dp637
g8
Vnsubj
p638
sbag0
(g1
g2
(lp639
(lp640
S'word: here, index: 5'
p641
aatp642
Rp643
(dp644
g8
Vadvmod
p645
sbatp646
Rp647
(dp648
g8
S'word: missing, index: 4'
p649
sbatp650
Rp651
(dp652
g8
S'id: 9'
p653
sbatp654
Rp655
(dp656
g8
S'sentences'
p657
sb.