ccopy_reg
_reconstructor
p0
(cnltk.tree
Tree
p1
c__builtin__
list
p2
(lp3
g0
(g1
g2
(lp4
g0
(g1
g2
(lp5
g0
(g1
g2
(lp6
g0
(g1
g2
(lp7
g0
(g1
g2
(lp8
Vthe
p9
atp10
Rp11
(dp12
S'_label'
p13
VDT
p14
sbag0
(g1
g2
(lp15
Vmother
p16
atp17
Rp18
(dp19
g13
VNN
p20
sbatp21
Rp22
(dp23
g13
VNP
p24
sbag0
(g1
g2
(lp25
g0
(g1
g2
(lp26
Vis
p27
atp28
Rp29
(dp30
g13
VVBZ
p31
sbag0
(g1
g2
(lp32
g0
(g1
g2
(lp33
Vwashing
p34
atp35
Rp36
(dp37
g13
VVBG
p38
sbag0
(g1
g2
(lp39
g0
(g1
g2
(lp40
Vdishes
p41
atp42
Rp43
(dp44
g13
VNNS
p45
sbatp46
Rp47
(dp48
g13
VNP
p49
sbatp50
Rp51
(dp52
g13
VVP
p53
sbatp54
Rp55
(dp56
g13
VVP
p57
sbatp58
Rp59
(dp60
g13
VS
p61
sbag0
(g1
g2
(lp62
g0
(g1
g2
(lp63
V,
p64
atp65
Rp66
(dp67
g13
V,
p68
sbag0
(g1
g2
(lp69
g0
(g1
g2
(lp70
g0
(g1
g2
(lp71
Vthe
p72
atp73
Rp74
(dp75
g13
VDT
p76
sbag0
(g1
g2
(lp77
Vchildren
p78
atp79
Rp80
(dp81
g13
VNNS
p82
sbatp83
Rp84
(dp85
g13
VNP
p86
sbag0
(g1
g2
(lp87
g0
(g1
g2
(lp88
Vare
p89
atp90
Rp91
(dp92
g13
VVBP
p93
sbag0
(g1
g2
(lp94
g0
(g1
g2
(lp95
Vin
p96
atp97
Rp98
(dp99
g13
VIN
p100
sbag0
(g1
g2
(lp101
g0
(g1
g2
(lp102
g0
(g1
g2
(lp103
Vthe
p104
atp105
Rp106
(dp107
g13
VDT
p108
sbag0
(g1
g2
(lp109
Vcabinet
p110
atp111
Rp112
(dp113
g13
VNN
p114
sbatp115
Rp116
(dp117
g13
VNP
p118
sbag0
(g1
g2
(lp119
g0
(g1
g2
(lp120
Vgetting
p121
atp122
Rp123
(dp124
g13
VVBG
p125
sbag0
(g1
g2
(lp126
g0
(g1
g2
(lp127
Vcookies
p128
atp129
Rp130
(dp131
g13
VNNS
p132
sbatp133
Rp134
(dp135
g13
VNP
p136
sbatp137
Rp138
(dp139
g13
VVP
p140
sbatp141
Rp142
(dp143
g13
VNP
p144
sbatp145
Rp146
(dp147
g13
VPP
p148
sbatp149
Rp150
(dp151
g13
VVP
p152
sbatp153
Rp154
(dp155
g13
VS
p156
sbag0
(g1
g2
(lp157
V,
p158
atp159
Rp160
(dp161
g13
V,
p162
sbatp163
Rp164
(dp165
g13
VPRN
p166
sbag0
(g1
g2
(lp167
Vand
p168
atp169
Rp170
(dp171
g13
VCC
p172
sbag0
(g1
g2
(lp173
g0
(g1
g2
(lp174
g0
(g1
g2
(lp175
g0
(g1
g2
(lp176
Vhe
p177
atp178
Rp179
(dp180
g13
VPRP
p181
sbatp182
Rp183
(dp184
g13
VNP
p185
sbag0
(g1
g2
(lp186
g0
(g1
g2
(lp187
Vdid
p188
atp189
Rp190
(dp191
g13
VVBD
p192
sbag0
(g1
g2
(lp193
Vn't
p194
atp195
Rp196
(dp197
g13
VRB
p198
sbag0
(g1
g2
(lp199
g0
(g1
g2
(lp200
Vrealize
p201
atp202
Rp203
(dp204
g13
VVB
p205
sbag0
(g1
g2
(lp206
g0
(g1
g2
(lp207
g0
(g1
g2
(lp208
g0
(g1
g2
(lp209
Vhe
p210
atp211
Rp212
(dp213
g13
VPRP
p214
sbatp215
Rp216
(dp217
g13
VNP
p218
sbag0
(g1
g2
(lp219
g0
(g1
g2
(lp220
V's
p221
atp222
Rp223
(dp224
g13
VVBZ
p225
sbag0
(g1
g2
(lp226
g0
(g1
g2
(lp227
Von
p228
atp229
Rp230
(dp231
g13
VIN
p232
sbag0
(g1
g2
(lp233
g0
(g1
g2
(lp234
Vthe
p235
atp236
Rp237
(dp238
g13
VDT
p239
sbag0
(g1
g2
(lp240
Vstool
p241
atp242
Rp243
(dp244
g13
VNN
p245
sbatp246
Rp247
(dp248
g13
VNP
p249
sbatp250
Rp251
(dp252
g13
VPP
p253
sbag0
(g1
g2
(lp254
g0
(g1
g2
(lp255
Vimproperly
p256
atp257
Rp258
(dp259
g13
VRB
p260
sbatp261
Rp262
(dp263
g13
VADVP
p264
sbatp265
Rp266
(dp267
g13
VVP
p268
sbatp269
Rp270
(dp271
g13
VS
p272
sbatp273
Rp274
(dp275
g13
VSBAR
p276
sbatp277
Rp278
(dp279
g13
VVP
p280
sbatp281
Rp282
(dp283
g13
VVP
p284
sbatp285
Rp286
(dp287
g13
VS
p288
sbag0
(g1
g2
(lp289
V,
p290
atp291
Rp292
(dp293
g13
V,
p294
sbag0
(g1
g2
(lp295
Vand
p296
atp297
Rp298
(dp299
g13
VCC
p300
sbag0
(g1
g2
(lp301
g0
(g1
g2
(lp302
g0
(g1
g2
(lp303
Vthe
p304
atp305
Rp306
(dp307
g13
VDT
p308
sbag0
(g1
g2
(lp309
Vstool
p310
atp311
Rp312
(dp313
g13
VNN
p314
sbatp315
Rp316
(dp317
g13
VNP
p318
sbag0
(g1
g2
(lp319
g0
(g1
g2
(lp320
Vis
p321
atp322
Rp323
(dp324
g13
VVBZ
p325
sbag0
(g1
g2
(lp326
g0
(g1
g2
(lp327
Vabout
p328
atp329
Rp330
(dp331
g13
VIN
p332
sbag0
(g1
g2
(lp333
g0
(g1
g2
(lp334
g0
(g1
g2
(lp335
Vto
p336
atp337
Rp338
(dp339
g13
VTO
p340
sbag0
(g1
g2
(lp341
g0
(g1
g2
(lp342
Vfall
p343
atp344
Rp345
(dp346
g13
VVB
p347
sbag0
(g1
g2
(lp348
g0
(g1
g2
(lp349
Vover
p350
atp351
Rp352
(dp353
g13
VRP
p354
sbatp355
Rp356
(dp357
g13
VPRT
p358
sbatp359
Rp360
(dp361
g13
VVP
p362
sbatp363
Rp364
(dp365
g13
VVP
p366
sbatp367
Rp368
(dp369
g13
VS
p370
sbatp371
Rp372
(dp373
g13
VVP
p374
sbatp375
Rp376
(dp377
g13
VVP
p378
sbatp379
Rp380
(dp381
g13
VS
p382
sbatp383
Rp384
(dp385
g13
VS
p386
sbag0
(g1
g2
(lp387
V.
p388
atp389
Rp390
(dp391
g13
V.
p392
sbatp393
Rp394
(dp395
g13
VS
p396
sbatp397
Rp398
(dp399
g13
S'id: 0'
p400
sbag0
(g1
g2
(lp401
g0
(g1
g2
(lp402
g0
(g1
g2
(lp403
VAnd
p404
atp405
Rp406
(dp407
g13
VCC
p408
sbag0
(g1
g2
(lp409
g0
(g1
g2
(lp410
Vthe
p411
atp412
Rp413
(dp414
g13
VDT
p415
sbag0
(g1
g2
(lp416
Vmother
p417
atp418
Rp419
(dp420
g13
VNN
p421
sbatp422
Rp423
(dp424
g13
VNP
p425
sbag0
(g1
g2
(lp426
g0
(g1
g2
(lp427
Vis
p428
atp429
Rp430
(dp431
g13
VVBZ
p432
sbag0
(g1
g2
(lp433
g0
(g1
g2
(lp434
Vmaking
p435
atp436
Rp437
(dp438
g13
VVBG
p439
sbag0
(g1
g2
(lp440
g0
(g1
g2
(lp441
Va
p442
atp443
Rp444
(dp445
g13
VDT
p446
sbag0
(g1
g2
(lp447
Vbig
p448
atp449
Rp450
(dp451
g13
VJJ
p452
sbag0
(g1
g2
(lp453
Vmess
p454
atp455
Rp456
(dp457
g13
VNN
p458
sbatp459
Rp460
(dp461
g13
VNP
p462
sbag0
(g1
g2
(lp463
g0
(g1
g2
(lp464
Vwith
p465
atp466
Rp467
(dp468
g13
VIN
p469
sbag0
(g1
g2
(lp470
g0
(g1
g2
(lp471
g0
(g1
g2
(lp472
Vall
p473
atp474
Rp475
(dp476
g13
VPDT
p477
sbag0
(g1
g2
(lp478
Vthe
p479
atp480
Rp481
(dp482
g13
VDT
p483
sbag0
(g1
g2
(lp484
Vwater
p485
atp486
Rp487
(dp488
g13
VNN
p489
sbatp490
Rp491
(dp492
g13
VNP
p493
sbag0
(g1
g2
(lp494
g0
(g1
g2
(lp495
Vgoing
p496
atp497
Rp498
(dp499
g13
VVBG
p500
sbag0
(g1
g2
(lp501
g0
(g1
g2
(lp502
Von
p503
atp504
Rp505
(dp506
g13
VIN
p507
sbag0
(g1
g2
(lp508
g0
(g1
g2
(lp509
Vthe
p510
atp511
Rp512
(dp513
g13
VDT
p514
sbag0
(g1
g2
(lp515
Vfloor
p516
atp517
Rp518
(dp519
g13
VNN
p520
sbatp521
Rp522
(dp523
g13
VNP
p524
sbatp525
Rp526
(dp527
g13
VPP
p528
sbatp529
Rp530
(dp531
g13
VVP
p532
sbatp533
Rp534
(dp535
g13
VNP
p536
sbatp537
Rp538
(dp539
g13
VPP
p540
sbatp541
Rp542
(dp543
g13
VVP
p544
sbatp545
Rp546
(dp547
g13
VVP
p548
sbag0
(g1
g2
(lp549
V.
p550
atp551
Rp552
(dp553
g13
V.
p554
sbatp555
Rp556
(dp557
g13
VS
p558
sbatp559
Rp560
(dp561
g13
S'id: 1'
p562
sbag0
(g1
g2
(lp563
g0
(g1
g2
(lp564
g0
(g1
g2
(lp565
g0
(g1
g2
(lp566
g0
(g1
g2
(lp567
VThey
p568
atp569
Rp570
(dp571
g13
VPRP
p572
sbatp573
Rp574
(dp575
g13
VNP
p576
sbag0
(g1
g2
(lp577
g0
(g1
g2
(lp578
Vhave
p579
atp580
Rp581
(dp582
g13
VVBP
p583
sbag0
(g1
g2
(lp584
g0
(g1
g2
(lp585
Van
p586
atp587
Rp588
(dp589
g13
VDT
p590
sbag0
(g1
g2
(lp591
Vinteresting
p592
atp593
Rp594
(dp595
g13
VJJ
p596
sbag0
(g1
g2
(lp597
Vfamily
p598
atp599
Rp600
(dp601
g13
VNN
p602
sbatp603
Rp604
(dp605
g13
VNP
p606
sbatp607
Rp608
(dp609
g13
VVP
p610
sbatp611
Rp612
(dp613
g13
VS
p614
sbag0
(g1
g2
(lp615
g0
(g1
g2
(lp616
V,
p617
atp618
Rp619
(dp620
g13
V,
p621
sbag0
(g1
g2
(lp622
g0
(g1
g2
(lp623
g0
(g1
g2
(lp624
Vthey
p625
atp626
Rp627
(dp628
g13
VPRP
p629
sbatp630
Rp631
(dp632
g13
VNP
p633
sbag0
(g1
g2
(lp634
g0
(g1
g2
(lp635
V're
p636
atp637
Rp638
(dp639
g13
VVBP
p640
sbag0
(g1
g2
(lp641
g0
(g1
g2
(lp642
Vvery
p643
atp644
Rp645
(dp646
g13
VRB
p647
sbag0
(g1
g2
(lp648
Vmessy
p649
atp650
Rp651
(dp652
g13
VJJ
p653
sbatp654
Rp655
(dp656
g13
VADJP
p657
sbatp658
Rp659
(dp660
g13
VVP
p661
sbatp662
Rp663
(dp664
g13
VS
p665
sbag0
(g1
g2
(lp666
V,
p667
atp668
Rp669
(dp670
g13
V,
p671
sbatp672
Rp673
(dp674
g13
VPRN
p675
sbag0
(g1
g2
(lp676
Vand
p677
atp678
Rp679
(dp680
g13
VCC
p681
sbag0
(g1
g2
(lp682
g0
(g1
g2
(lp683
Vobviously
p684
atp685
Rp686
(dp687
g13
VRB
p688
sbatp689
Rp690
(dp691
g13
VADVP
p692
sbag0
(g1
g2
(lp693
g0
(g1
g2
(lp694
g0
(g1
g2
(lp695
Vthey
p696
atp697
Rp698
(dp699
g13
VPRP
p700
sbatp701
Rp702
(dp703
g13
VNP
p704
sbag0
(g1
g2
(lp705
g0
(g1
g2
(lp706
Vdo
p707
atp708
Rp709
(dp710
g13
VVBP
p711
sbag0
(g1
g2
(lp712
Vn't
p713
atp714
Rp715
(dp716
g13
VRB
p717
sbag0
(g1
g2
(lp718
g0
(g1
g2
(lp719
Vknow
p720
atp721
Rp722
(dp723
g13
VVB
p724
sbag0
(g1
g2
(lp725
g0
(g1
g2
(lp726
Vit
p727
atp728
Rp729
(dp730
g13
VPRP
p731
sbatp732
Rp733
(dp734
g13
VNP
p735
sbatp736
Rp737
(dp738
g13
VVP
p739
sbatp740
Rp741
(dp742
g13
VVP
p743
sbatp744
Rp745
(dp746
g13
VS
p747
sbag0
(g1
g2
(lp748
V.
p749
atp750
Rp751
(dp752
g13
V.
p753
sbatp754
Rp755
(dp756
g13
VS
p757
sbatp758
Rp759
(dp760
g13
S'id: 2'
p761
sbag0
(g1
g2
(lp762
g0
(g1
g2
(lp763
g0
(g1
g2
(lp764
VAnd
p765
atp766
Rp767
(dp768
g13
VCC
p769
sbag0
(g1
g2
(lp770
g0
(g1
g2
(lp771
Vwhat
p772
atp773
Rp774
(dp775
g13
VWP
p776
sbatp777
Rp778
(dp779
g13
VNP
p780
sbag0
(g1
g2
(lp781
g0
(g1
g2
(lp782
V's
p783
atp784
Rp785
(dp786
g13
VVBZ
p787
sbag0
(g1
g2
(lp788
g0
(g1
g2
(lp789
Vthat
p790
atp791
Rp792
(dp793
g13
VIN
p794
sbatp795
Rp796
(dp797
g13
VADJP
p798
sbatp799
Rp800
(dp801
g13
VVP
p802
sbatp803
Rp804
(dp805
g13
VS
p806
sbatp807
Rp808
(dp809
g13
S'id: 3'
p810
sbatp811
Rp812
(dp813
g13
S'sentences'
p814
sb.