ccopy_reg
_reconstructor
p0
(cnltk.tree
Tree
p1
c__builtin__
list
p2
(lp3
g0
(g1
g2
(lp4
g0
(g1
g2
(lp5
g0
(g1
g2
(lp6
Vone
p7
atp8
Rp9
(dp10
S'_label'
p11
S'start: 4'
p12
sbatp13
Rp14
(dp15
g11
S'sent: 1'
p16
sbag0
(g1
g2
(lp17
g0
(g1
g2
(lp18
Vthis one
p19
atp20
Rp21
(dp22
g11
S'start: 4'
p23
sbatp24
Rp25
(dp26
g11
S'sent: 8'
p27
sbatp28
Rp29
(dp30
g11
S'id: 1'
p31
sbag0
(g1
g2
(lp32
g0
(g1
g2
(lp33
g0
(g1
g2
(lp34
VI
p35
atp36
Rp37
(dp38
g11
S'start: 1'
p39
sbatp40
Rp41
(dp42
g11
S'sent: 1'
p43
sbag0
(g1
g2
(lp44
g0
(g1
g2
(lp45
VI
p46
atp47
Rp48
(dp49
g11
S'start: 34'
p50
sbatp51
Rp52
(dp53
g11
S'sent: 3'
p54
sbag0
(g1
g2
(lp55
g0
(g1
g2
(lp56
VI
p57
atp58
Rp59
(dp60
g11
S'start: 1'
p61
sbatp62
Rp63
(dp64
g11
S'sent: 7'
p65
sbag0
(g1
g2
(lp66
g0
(g1
g2
(lp67
VI
p68
atp69
Rp70
(dp71
g11
S'start: 2'
p72
sbatp73
Rp74
(dp75
g11
S'sent: 13'
p76
sbag0
(g1
g2
(lp77
g0
(g1
g2
(lp78
VI
p79
atp80
Rp81
(dp82
g11
S'start: 1'
p83
sbatp84
Rp85
(dp86
g11
S'sent: 14'
p87
sbag0
(g1
g2
(lp88
g0
(g1
g2
(lp89
VI
p90
atp91
Rp92
(dp93
g11
S'start: 12'
p94
sbatp95
Rp96
(dp97
g11
S'sent: 14'
p98
sbatp99
Rp100
(dp101
g11
S'id: 2'
p102
sbag0
(g1
g2
(lp103
g0
(g1
g2
(lp104
g0
(g1
g2
(lp105
Vthis
p106
atp107
Rp108
(dp109
g11
S'start: 3'
p110
sbatp111
Rp112
(dp113
g11
S'sent: 1'
p114
sbag0
(g1
g2
(lp115
g0
(g1
g2
(lp116
Vthey
p117
atp118
Rp119
(dp120
g11
S'start: 5'
p121
sbatp122
Rp123
(dp124
g11
S'sent: 2'
p125
sbag0
(g1
g2
(lp126
g0
(g1
g2
(lp127
VThey
p128
atp129
Rp130
(dp131
g11
S'start: 1'
p132
sbatp133
Rp134
(dp135
g11
S'sent: 3'
p136
sbag0
(g1
g2
(lp137
g0
(g1
g2
(lp138
Vthey
p139
atp140
Rp141
(dp142
g11
S'start: 5'
p143
sbatp144
Rp145
(dp146
g11
S'sent: 3'
p147
sbag0
(g1
g2
(lp148
g0
(g1
g2
(lp149
Vthey
p150
atp151
Rp152
(dp153
g11
S'start: 12'
p154
sbatp155
Rp156
(dp157
g11
S'sent: 3'
p158
sbag0
(g1
g2
(lp159
g0
(g1
g2
(lp160
Vthey
p161
atp162
Rp163
(dp164
g11
S'start: 27'
p165
sbatp166
Rp167
(dp168
g11
S'sent: 5'
p169
sbatp170
Rp171
(dp172
g11
S'id: 3'
p173
sbag0
(g1
g2
(lp174
g0
(g1
g2
(lp175
g0
(g1
g2
(lp176
VMaine
p177
atp178
Rp179
(dp180
g11
S'start: 9'
p181
sbatp182
Rp183
(dp184
g11
S'sent: 3'
p185
sbag0
(g1
g2
(lp186
g0
(g1
g2
(lp187
VMaine
p188
atp189
Rp190
(dp191
g11
S'start: 33'
p192
sbatp193
Rp194
(dp195
g11
S'sent: 3'
p196
sbag0
(g1
g2
(lp197
g0
(g1
g2
(lp198
VMaine
p199
atp200
Rp201
(dp202
g11
S'start: 7'
p203
sbatp204
Rp205
(dp206
g11
S'sent: 14'
p207
sbag0
(g1
g2
(lp208
g0
(g1
g2
(lp209
Vthat
p210
atp211
Rp212
(dp213
g11
S'start: 9'
p214
sbatp215
Rp216
(dp217
g11
S'sent: 14'
p218
sbatp219
Rp220
(dp221
g11
S'id: 7'
p222
sbag0
(g1
g2
(lp223
g0
(g1
g2
(lp224
g0
(g1
g2
(lp225
Vthe trees
p226
atp227
Rp228
(dp229
g11
S'start: 18'
p230
sbatp231
Rp232
(dp233
g11
S'sent: 3'
p234
sbag0
(g1
g2
(lp235
g0
(g1
g2
(lp236
Vthe trees
p237
atp238
Rp239
(dp240
g11
S'start: 3'
p241
sbatp242
Rp243
(dp244
g11
S'sent: 7'
p245
sbag0
(g1
g2
(lp246
g0
(g1
g2
(lp247
Vtrees
p248
atp249
Rp250
(dp251
g11
S'start: 39'
p252
sbatp253
Rp254
(dp255
g11
S'sent: 15'
p256
sbatp257
Rp258
(dp259
g11
S'id: 16'
p260
sbag0
(g1
g2
(lp261
g0
(g1
g2
(lp262
g0
(g1
g2
(lp263
Vthe sailboat
p264
atp265
Rp266
(dp267
g11
S'start: 26'
p268
sbatp269
Rp270
(dp271
g11
S'sent: 3'
p272
sbag0
(g1
g2
(lp273
g0
(g1
g2
(lp274
Vthat
p275
atp276
Rp277
(dp278
g11
S'start: 2'
p279
sbatp280
Rp281
(dp282
g11
S'sent: 9'
p283
sbag0
(g1
g2
(lp284
g0
(g1
g2
(lp285
Va sailboat
p286
atp287
Rp288
(dp289
g11
S'start: 4'
p290
sbatp291
Rp292
(dp293
g11
S'sent: 9'
p294
sbatp295
Rp296
(dp297
g11
S'id: 19'
p298
sbag0
(g1
g2
(lp299
g0
(g1
g2
(lp300
g0
(g1
g2
(lp301
Vthe lake in Maine
p302
atp303
Rp304
(dp305
g11
S'start: 30'
p306
sbatp307
Rp308
(dp309
g11
S'sent: 3'
p310
sbag0
(g1
g2
(lp311
g0
(g1
g2
(lp312
Vthis lake
p313
atp314
Rp315
(dp316
g11
S'start: 7'
p317
sbatp318
Rp319
(dp320
g11
S'sent: 4'
p321
sbag0
(g1
g2
(lp322
g0
(g1
g2
(lp323
Vthis lake
p324
atp325
Rp326
(dp327
g11
S'start: 14'
p328
sbatp329
Rp330
(dp331
g11
S'sent: 4'
p332
sbatp333
Rp334
(dp335
g11
S'id: 20'
p336
sbag0
(g1
g2
(lp337
g0
(g1
g2
(lp338
g0
(g1
g2
(lp339
Vyour dog
p340
atp341
Rp342
(dp343
g11
S'start: 4'
p344
sbatp345
Rp346
(dp347
g11
S'sent: 4'
p348
sbag0
(g1
g2
(lp349
g0
(g1
g2
(lp350
Vthe dog
p351
atp352
Rp353
(dp354
g11
S'start: 19'
p355
sbatp356
Rp357
(dp358
g11
S'sent: 15'
p359
sbatp360
Rp361
(dp362
g11
S'id: 26'
p363
sbag0
(g1
g2
(lp364
g0
(g1
g2
(lp365
g0
(g1
g2
(lp366
VYou
p367
atp368
Rp369
(dp370
g11
S'start: 1'
p371
sbatp372
Rp373
(dp374
g11
S'sent: 5'
p375
sbag0
(g1
g2
(lp376
g0
(g1
g2
(lp377
Vthe good mother
p378
atp379
Rp380
(dp381
g11
S'start: 4'
p382
sbatp383
Rp384
(dp385
g11
S'sent: 5'
p386
sbatp387
Rp388
(dp389
g11
S'id: 31'
p390
sbag0
(g1
g2
(lp391
g0
(g1
g2
(lp392
g0
(g1
g2
(lp393
Vthe husband
p394
atp395
Rp396
(dp397
g11
S'start: 17'
p398
sbatp399
Rp400
(dp401
g11
S'sent: 5'
p402
sbag0
(g1
g2
(lp403
g0
(g1
g2
(lp404
Vhis
p405
atp406
Rp407
(dp408
g11
S'start: 23'
p409
sbatp410
Rp411
(dp412
g11
S'sent: 5'
p413
sbatp414
Rp415
(dp416
g11
S'id: 35'
p417
sbag0
(g1
g2
(lp418
g0
(g1
g2
(lp419
g0
(g1
g2
(lp420
Va kite
p421
atp422
Rp423
(dp424
g11
S'start: 6'
p425
sbatp426
Rp427
(dp428
g11
S'sent: 11'
p429
sbag0
(g1
g2
(lp430
g0
(g1
g2
(lp431
Va kite
p432
atp433
Rp434
(dp435
g11
S'start: 13'
p436
sbatp437
Rp438
(dp439
g11
S'sent: 11'
p440
sbag0
(g1
g2
(lp441
g0
(g1
g2
(lp442
Vthe kite
p443
atp444
Rp445
(dp446
g11
S'start: 22'
p447
sbatp448
Rp449
(dp450
g11
S'sent: 15'
p451
sbag0
(g1
g2
(lp452
g0
(g1
g2
(lp453
Vthe kite
p454
atp455
Rp456
(dp457
g11
S'start: 12'
p458
sbatp459
Rp460
(dp461
g11
S'sent: 16'
p462
sbatp463
Rp464
(dp465
g11
S'id: 52'
p466
sbag0
(g1
g2
(lp467
g0
(g1
g2
(lp468
g0
(g1
g2
(lp469
Vbooks
p470
atp471
Rp472
(dp473
g11
S'start: 16'
p474
sbatp475
Rp476
(dp477
g11
S'sent: 13'
p478
sbag0
(g1
g2
(lp479
g0
(g1
g2
(lp480
Vbooks
p481
atp482
Rp483
(dp484
g11
S'start: 18'
p485
sbatp486
Rp487
(dp488
g11
S'sent: 13'
p489
sbatp490
Rp491
(dp492
g11
S'id: 60'
p493
sbag0
(g1
g2
(lp494
g0
(g1
g2
(lp495
g0
(g1
g2
(lp496
Vyour sand castle
p497
atp498
Rp499
(dp500
g11
S'start: 5'
p501
sbatp502
Rp503
(dp504
g11
S'sent: 15'
p505
sbag0
(g1
g2
(lp506
g0
(g1
g2
(lp507
Vit
p508
atp509
Rp510
(dp511
g11
S'start: 16'
p512
sbatp513
Rp514
(dp515
g11
S'sent: 15'
p516
sbatp517
Rp518
(dp519
g11
S'id: 67'
p520
sbag0
(g1
g2
(lp521
g0
(g1
g2
(lp522
g0
(g1
g2
(lp523
Vthe tree
p524
atp525
Rp526
(dp527
g11
S'start: 31'
p528
sbatp529
Rp530
(dp531
g11
S'sent: 15'
p532
sbag0
(g1
g2
(lp533
g0
(g1
g2
(lp534
Vthe tree
p535
atp536
Rp537
(dp538
g11
S'start: 8'
p539
sbatp540
Rp541
(dp542
g11
S'sent: 16'
p543
sbag0
(g1
g2
(lp544
g0
(g1
g2
(lp545
Vthe tree
p546
atp547
Rp548
(dp549
g11
S'start: 20'
p550
sbatp551
Rp552
(dp553
g11
S'sent: 17'
p554
sbag0
(g1
g2
(lp555
g0
(g1
g2
(lp556
Vthat
p557
atp558
Rp559
(dp560
g11
S'start: 23'
p561
sbatp562
Rp563
(dp564
g11
S'sent: 17'
p565
sbatp566
Rp567
(dp568
g11
S'id: 75'
p569
sbag0
(g1
g2
(lp570
g0
(g1
g2
(lp571
g0
(g1
g2
(lp572
Vthe dad
p573
atp574
Rp575
(dp576
g11
S'start: 3'
p577
sbatp578
Rp579
(dp580
g11
S'sent: 16'
p581
sbag0
(g1
g2
(lp582
g0
(g1
g2
(lp583
Vhe
p584
atp585
Rp586
(dp587
g11
S'start: 16'
p588
sbatp589
Rp590
(dp591
g11
S'sent: 17'
p592
sbatp593
Rp594
(dp595
g11
S'id: 78'
p596
sbag0
(g1
g2
(lp597
g0
(g1
g2
(lp598
g0
(g1
g2
(lp599
VWhite wine
p600
atp601
Rp602
(dp603
g11
S'start: 1'
p604
sbatp605
Rp606
(dp607
g11
S'sent: 19'
p608
sbag0
(g1
g2
(lp609
g0
(g1
g2
(lp610
Vthe best
p611
atp612
Rp613
(dp614
g11
S'start: 4'
p615
sbatp616
Rp617
(dp618
g11
S'sent: 19'
p619
sbatp620
Rp621
(dp622
g11
S'id: 85'
p623
sbag0
(g1
g2
(lp624
g0
(g1
g2
(lp625
g0
(g1
g2
(lp626
VMight
p627
atp628
Rp629
(dp630
g11
S'start: 1'
p631
sbatp632
Rp633
(dp634
g11
S'sent: 20'
p635
sbag0
(g1
g2
(lp636
g0
(g1
g2
(lp637
Vits
p638
atp639
Rp640
(dp641
g11
S'start: 5'
p642
sbatp643
Rp644
(dp645
g11
S'sent: 20'
p646
sbag0
(g1
g2
(lp647
g0
(g1
g2
(lp648
Vit
p649
atp650
Rp651
(dp652
g11
S'start: 10'
p653
sbatp654
Rp655
(dp656
g11
S'sent: 20'
p657
sbatp658
Rp659
(dp660
g11
S'id: 87'
p661
sbatp662
Rp663
(dp664
g11
S'coreferences'
p665
sb.