ccopy_reg
_reconstructor
p0
(cnltk.tree
Tree
p1
c__builtin__
list
p2
(lp3
g0
(g1
g2
(lp4
g0
(g1
g2
(lp5
g0
(g1
g2
(lp6
g0
(g1
g2
(lp7
g0
(g1
g2
(lp8
(lp9
S'word: the, index: 1'
p10
aatp11
Rp12
(dp13
S'_label'
p14
Vdet
p15
sbatp16
Rp17
(dp18
g14
S'word: clown, index: 2'
p19
sbatp20
Rp21
(dp22
g14
Vposs
p23
sbag0
(g1
g2
(lp24
(lp25
S'word: spreading, index: 4'
p26
aatp27
Rp28
(dp29
g14
Vnn
p30
sbag0
(g1
g2
(lp31
g0
(g1
g2
(lp32
g0
(g1
g2
(lp33
(lp34
S'word: all, index: 6'
p35
aatp36
Rp37
(dp38
g14
Vdep
p39
sbatp40
Rp41
(dp42
g14
S'word: over, index: 7'
p43
sbatp44
Rp45
(dp46
g14
Vadvmod
p47
sbag0
(g1
g2
(lp48
(lp49
S'word: over, index: 9'
p50
aatp51
Rp52
(dp53
g14
Vprep
p54
sbag0
(g1
g2
(lp55
g0
(g1
g2
(lp56
g0
(g1
g2
(lp57
(lp58
S'word: the, index: 12'
p59
aatp60
Rp61
(dp62
g14
Vdet
p63
sbatp64
Rp65
(dp66
g14
S'word: kids, index: 13'
p67
sbatp68
Rp69
(dp70
g14
Vprep
p71
sbatp72
Rp73
(dp74
g14
S'word: confetti, index: 5'
p75
sbatp76
Rp77
(dp78
g14
S'id: 0'
p79
sbag0
(g1
g2
(lp80
g0
(g1
g2
(lp81
g0
(g1
g2
(lp82
g0
(g1
g2
(lp83
g0
(g1
g2
(lp84
(lp85
S'word: the, index: 2'
p86
aatp87
Rp88
(dp89
g14
Vdet
p90
sbatp91
Rp92
(dp93
g14
S'word: kids, index: 3'
p94
sbatp95
Rp96
(dp97
g14
Vnsubj
p98
sbag0
(g1
g2
(lp99
(lp100
S'word: are, index: 4'
p101
aatp102
Rp103
(dp104
g14
Vcop
p105
sbag0
(g1
g2
(lp106
(lp107
S'word: it, index: 7'
p108
aatp109
Rp110
(dp111
g14
Vprep
p112
sbag0
(g1
g2
(lp113
g0
(g1
g2
(lp114
g0
(g1
g2
(lp115
g0
(g1
g2
(lp116
g0
(g1
g2
(lp117
(lp118
S'word: the, index: 10'
p119
aatp120
Rp121
(dp122
g14
Vdet
p123
sbatp124
Rp125
(dp126
g14
S'word: clowns, index: 11'
p127
sbatp128
Rp129
(dp130
g14
Vnsubjpass
p131
sbag0
(g1
g2
(lp132
(lp133
S'word: are, index: 12'
p134
aatp135
Rp136
(dp137
g14
Vauxpass
p138
sbag0
(g1
g2
(lp139
g0
(g1
g2
(lp140
g0
(g1
g2
(lp141
(lp142
S'word: like, index: 15'
p143
aatp144
Rp145
(dp146
g14
Vpcomp
p147
sbatp148
Rp149
(dp150
g14
S'word: in, index: 14'
p151
sbatp152
Rp153
(dp154
g14
Vprep
p155
sbag0
(g1
g2
(lp156
(lp157
S'word: brosts, index: 18'
p158
aatp159
Rp160
(dp161
g14
Vprep
p162
sbatp163
Rp164
(dp165
g14
S'word: dressed, index: 13'
p166
sbatp167
Rp168
(dp169
g14
Vconj
p170
sbatp171
Rp172
(dp173
g14
S'word: happy, index: 5'
p174
sbatp175
Rp176
(dp177
g14
S'id: 1'
p178
sbag0
(g1
g2
(lp179
g0
(g1
g2
(lp180
g0
(g1
g2
(lp181
g0
(g1
g2
(lp182
g0
(g1
g2
(lp183
(lp184
S'word: they, index: 23'
p185
aatp186
Rp187
(dp188
g14
Vnsubj
p189
sbag0
(g1
g2
(lp190
(lp191
S"word: 've, index: 24"
p192
aatp193
Rp194
(dp195
g14
Vaux
p196
sbag0
(g1
g2
(lp197
(lp198
S'word: makeup, index: 26'
p199
aatp200
Rp201
(dp202
g14
Vdobj
p203
sbag0
(g1
g2
(lp204
g0
(g1
g2
(lp205
g0
(g1
g2
(lp206
g0
(g1
g2
(lp207
g0
(g1
g2
(lp208
(lp209
S'word: and, index: 29'
p210
aatp211
Rp212
(dp213
g14
Vcc
p214
sbag0
(g1
g2
(lp215
g0
(g1
g2
(lp216
g0
(g1
g2
(lp217
(lp218
S'word: the, index: 32'
p219
aatp220
Rp221
(dp222
g14
Vdet
p223
sbatp224
Rp225
(dp226
g14
S'word: nose, index: 33'
p227
sbatp228
Rp229
(dp230
g14
Vappos
p231
sbatp232
Rp233
(dp234
g14
S'word: the, index: 30'
p235
sbatp236
Rp237
(dp238
g14
Vdep
p239
sbatp240
Rp241
(dp242
g14
S'word: on, index: 27'
p243
sbatp244
Rp245
(dp246
g14
Vprep
p247
sbag0
(g1
g2
(lp248
(lp249
S'word: on, index: 34'
p250
aatp251
Rp252
(dp253
g14
Vprep
p254
sbatp255
Rp256
(dp257
g14
S'word: got, index: 25'
p258
sbatp259
Rp260
(dp261
g14
Vconj
p262
sbag0
(g1
g2
(lp263
g0
(g1
g2
(lp264
g0
(g1
g2
(lp265
g0
(g1
g2
(lp266
g0
(g1
g2
(lp267
(lp268
S'word: their, index: 12'
p269
aatp270
Rp271
(dp272
g14
Vposs
p273
sbag0
(g1
g2
(lp274
g0
(g1
g2
(lp275
g0
(g1
g2
(lp276
g0
(g1
g2
(lp277
g0
(g1
g2
(lp278
(lp279
S'word: the, index: 17'
p280
aatp281
Rp282
(dp283
g14
Vdet
p284
sbatp285
Rp286
(dp287
g14
S'word: head, index: 18'
p288
sbatp289
Rp290
(dp291
g14
Vprep
p292
sbatp293
Rp294
(dp295
g14
S'word: hats, index: 15'
p296
sbatp297
Rp298
(dp299
g14
Vappos
p300
sbatp301
Rp302
(dp303
g14
S'word: head, index: 13'
p304
sbatp305
Rp306
(dp307
g14
Vprep
p308
sbatp309
Rp310
(dp311
g14
S'word: hats, index: 10'
p312
sbatp313
Rp314
(dp315
g14
Vdobj
p316
sbag0
(g1
g2
(lp317
(lp318
S'word: they, index: 2'
p319
aatp320
Rp321
(dp322
g14
Vnsubj
p323
sbag0
(g1
g2
(lp324
g0
(g1
g2
(lp325
g0
(g1
g2
(lp326
g0
(g1
g2
(lp327
g0
(g1
g2
(lp328
(lp329
S'word: their, index: 6'
p330
aatp331
Rp332
(dp333
g14
Vposs
p334
sbatp335
Rp336
(dp337
g14
S'word: hands, index: 7'
p338
sbatp339
Rp340
(dp341
g14
Vprep
p342
sbag0
(g1
g2
(lp343
g310
atp344
Rp345
(dp346
g14
Vconj
p347
sbatp348
Rp349
(dp350
g14
S'word: gloves, index: 4'
p351
sbatp352
Rp353
(dp354
g14
Vdobj
p355
sbatp356
Rp357
(dp358
g14
S'word: have, index: 3'
p359
sbatp360
Rp361
(dp362
g14
S'id: 2'
p363
sbag0
(g1
g2
(lp364
tp365
Rp366
(dp367
g14
S'id: 3'
p368
sbag0
(g1
g2
(lp369
g0
(g1
g2
(lp370
g0
(g1
g2
(lp371
g0
(g1
g2
(lp372
g0
(g1
g2
(lp373
g0
(g1
g2
(lp374
g0
(g1
g2
(lp375
(lp376
S'word: and, index: 9'
p377
aatp378
Rp379
(dp380
g14
Vcc
p381
sbag0
(g1
g2
(lp382
(lp383
S'word: he, index: 10'
p384
aatp385
Rp386
(dp387
g14
Vnsubj
p388
sbag0
(g1
g2
(lp389
(lp390
S"word: 's, index: 11"
p391
aatp392
Rp393
(dp394
g14
Vcop
p395
sbatp396
Rp397
(dp398
g14
S'word: a, index: 12'
p399
sbatp400
Rp401
(dp402
g14
Vparataxis
p403
sbag0
(g1
g2
(lp404
(lp405
S'word: he, index: 14'
p406
aatp407
Rp408
(dp409
g14
Vnsubj
p410
sbag0
(g1
g2
(lp411
(lp412
S"word: 's, index: 15"
p413
aatp414
Rp415
(dp416
g14
Vcop
p417
sbag0
(g1
g2
(lp418
g0
(g1
g2
(lp419
g0
(g1
g2
(lp420
(lp421
S'word: the, index: 2'
p422
aatp423
Rp424
(dp425
g14
Vdet
p426
sbag0
(g1
g2
(lp427
g0
(g1
g2
(lp428
g0
(g1
g2
(lp429
(lp430
S'word: a, index: 6'
p431
aatp432
Rp433
(dp434
g14
Vdet
p435
sbatp436
Rp437
(dp438
g14
S'word: cage, index: 7'
p439
sbatp440
Rp441
(dp442
g14
Vprep
p443
sbatp444
Rp445
(dp446
g14
S'word: lion, index: 3'
p447
sbatp448
Rp449
(dp450
g14
Vprep
p451
sbatp452
Rp453
(dp454
g14
S'word: a, index: 16'
p455
sbatp456
Rp457
(dp458
g14
Vccomp
p459
sbag0
(g1
g2
(lp460
(lp461
S'word: he, index: 18'
p462
aatp463
Rp464
(dp465
g14
Vnsubj
p466
sbatp467
Rp468
(dp469
g14
S"word: 's, index: 19"
p470
sbatp471
Rp472
(dp473
g14
S'id: 4'
p474
sbag0
(g1
g2
(lp475
g0
(g1
g2
(lp476
g0
(g1
g2
(lp477
(lp478
S'word: There, index: 1'
p479
aatp480
Rp481
(dp482
g14
Vadvmod
p483
sbag0
(g1
g2
(lp484
(lp485
S'word: there, index: 3'
p486
aatp487
Rp488
(dp489
g14
Vadvmod
p490
sbag0
(g1
g2
(lp491
g0
(g1
g2
(lp492
g0
(g1
g2
(lp493
(lp494
S'word: they, index: 24'
p495
aatp496
Rp497
(dp498
g14
Vnsubj
p499
sbag0
(g1
g2
(lp500
(lp501
S'word: leotards, index: 27'
p502
aatp503
Rp504
(dp505
g14
Vprep
p506
sbatp507
Rp508
(dp509
g14
S'word: walk, index: 25'
p510
sbatp511
Rp512
(dp513
g14
Vconj
p514
sbag0
(g1
g2
(lp515
g0
(g1
g2
(lp516
g0
(g1
g2
(lp517
g0
(g1
g2
(lp518
g0
(g1
g2
(lp519
(lp520
S'word: the, index: 17'
p521
aatp522
Rp523
(dp524
g14
Vdep
p525
sbag0
(g1
g2
(lp526
(lp527
S'word: the, index: 14'
p528
aatp529
Rp530
(dp531
g14
Vdet
p532
sbatp533
Rp534
(dp535
g14
S'word: on, index: 16'
p536
sbatp537
Rp538
(dp539
g14
Vpobj
p540
sbag0
(g1
g2
(lp541
g0
(g1
g2
(lp542
g0
(g1
g2
(lp543
(lp544
S'word: where, index: 19'
p545
aatp546
Rp547
(dp548
g14
Vadvmod
p549
sbag0
(g1
g2
(lp550
(lp551
S'word: they, index: 20'
p552
aatp553
Rp554
(dp555
g14
Vnsubj
p556
sbatp557
Rp558
(dp559
g14
S'word: walk, index: 21'
p560
sbatp561
Rp562
(dp563
g14
Vdep
p564
sbag0
(g1
g2
(lp565
g0
(g1
g2
(lp566
g0
(g1
g2
(lp567
g0
(g1
g2
(lp568
g0
(g1
g2
(lp569
(lp570
S'word: no, index: 8'
p571
aatp572
Rp573
(dp574
g14
Vneg
p575
sbag0
(g1
g2
(lp576
g0
(g1
g2
(lp577
g0
(g1
g2
(lp578
(lp579
S'word: poles, index: 12'
p580
aatp581
Rp582
(dp583
g14
Vdep
p584
sbatp585
Rp586
(dp587
g14
S'word: there, index: 11'
p588
sbatp589
Rp590
(dp591
g14
Vappos
p592
sbatp593
Rp594
(dp595
g14
S'word: there, index: 9'
p596
sbatp597
Rp598
(dp599
g14
Vappos
p600
sbatp601
Rp602
(dp603
g14
S'word: duckling, index: 6'
p604
sbatp605
Rp606
(dp607
g14
Vnpadvmod
p608
sbatp609
Rp610
(dp611
g14
S'word: on, index: 13'
p612
sbatp613
Rp614
(dp615
g14
Vdep
p616
sbatp617
Rp618
(dp619
g14
S'word: there, index: 5'
p620
sbatp621
Rp622
(dp623
g14
S'id: 5'
p624
sbag0
(g1
g2
(lp625
g0
(g1
g2
(lp626
g0
(g1
g2
(lp627
g0
(g1
g2
(lp628
g0
(g1
g2
(lp629
(lp630
S'word: their, index: 2'
p631
aatp632
Rp633
(dp634
g14
Vposs
p635
sbatp636
Rp637
(dp638
g14
S'word: horses, index: 3'
p639
sbatp640
Rp641
(dp642
g14
Vnsubj
p643
sbag0
(g1
g2
(lp644
g0
(g1
g2
(lp645
g0
(g1
g2
(lp646
(lp647
S'word: to, index: 6'
p648
aatp649
Rp650
(dp651
g14
Vpcomp
p652
sbatp653
Rp654
(dp655
g14
S'word: in, index: 5'
p656
sbatp657
Rp658
(dp659
g14
Vprep
p660
sbag0
(g1
g2
(lp661
g0
(g1
g2
(lp662
g0
(g1
g2
(lp663
(lp664
S'word: their, index: 9'
p665
aatp666
Rp667
(dp668
g14
Vnsubj
p669
sbag0
(g1
g2
(lp670
g0
(g1
g2
(lp671
g0
(g1
g2
(lp672
g0
(g1
g2
(lp673
g0
(g1
g2
(lp674
(lp675
S'word: ballet, index: 16'
p676
aatp677
Rp678
(dp679
g14
Vprep
p680
sbatp681
Rp682
(dp683
g14
S'word: leotards, index: 14'
p684
sbatp685
Rp686
(dp687
g14
Vappos
p688
sbatp689
Rp690
(dp691
g14
S'word: leotard, index: 12'
p692
sbatp693
Rp694
(dp695
g14
Vprep
p696
sbatp697
Rp698
(dp699
g14
S'word: dressed, index: 10'
p700
sbatp701
Rp702
(dp703
g14
Vconj
p704
sbatp705
Rp706
(dp707
g14
S'word: are, index: 4'
p708
sbatp709
Rp710
(dp711
g14
S'id: 6'
p712
sbag0
(g1
g2
(lp713
tp714
Rp715
(dp716
g14
S'id: 7'
p717
sbag0
(g1
g2
(lp718
g0
(g1
g2
(lp719
g0
(g1
g2
(lp720
(lp721
S'word: He, index: 1'
p722
aatp723
Rp724
(dp725
g14
Vnsubjpass
p726
sbag0
(g1
g2
(lp727
g0
(g1
g2
(lp728
g0
(g1
g2
(lp729
g0
(g1
g2
(lp730
g0
(g1
g2
(lp731
g0
(g1
g2
(lp732
g0
(g1
g2
(lp733
g0
(g1
g2
(lp734
g0
(g1
g2
(lp735
(lp736
S'word: a, index: 12'
p737
aatp738
Rp739
(dp740
g14
Vdet
p741
sbatp742
Rp743
(dp744
g14
S'word: coat, index: 13'
p745
sbatp746
Rp747
(dp748
g14
Vconj
p749
sbatp750
Rp751
(dp752
g14
S'word: pants, index: 9'
p753
sbatp754
Rp755
(dp756
g14
Vpobj
p757
sbag0
(g1
g2
(lp758
g743
atp759
Rp760
(dp761
g14
Vpobj
p762
sbatp763
Rp764
(dp765
g14
S'word: long, index: 8'
p766
sbatp767
Rp768
(dp769
g14
Vadvmod
p770
sbag0
(g1
g2
(lp771
(lp772
S'word: no, index: 15'
p773
aatp774
Rp775
(dp776
g14
Vneg
p777
sbag0
(g1
g2
(lp778
(lp779
S'word: a, index: 16'
p780
aatp781
Rp782
(dp783
g14
Vdet
p784
sbag0
(g1
g2
(lp785
(lp786
S'word: the, index: 19'
p787
aatp788
Rp789
(dp790
g14
Vprep
p791
sbatp792
Rp793
(dp794
g14
S'word: coat, index: 17'
p795
sbatp796
Rp797
(dp798
g14
Vconj
p799
sbag0
(g1
g2
(lp800
(lp801
S"word: 's, index: 2"
p802
aatp803
Rp804
(dp805
g14
Vauxpass
p806
sbag0
(g1
g2
(lp807
(lp808
S'word: pants, index: 5'
p809
aatp810
Rp811
(dp812
g14
Vprep
p813
sbatp814
Rp815
(dp816
g14
S'word: got, index: 3'
p817
sbatp818
Rp819
(dp820
g14
S'id: 8'
p821
sbatp822
Rp823
(dp824
g14
S'sentences'
p825
sb.