ccopy_reg
_reconstructor
p0
(cnltk.tree
Tree
p1
c__builtin__
list
p2
(lp3
g0
(g1
g2
(lp4
tp5
Rp6
(dp7
S'_label'
p8
S'id: 0'
p9
sbag0
(g1
g2
(lp10
g0
(g1
g2
(lp11
g0
(g1
g2
(lp12
g0
(g1
g2
(lp13
g0
(g1
g2
(lp14
(lp15
S'word: this, index: 4'
p16
aatp17
Rp18
(dp19
g8
Vdet
p20
sbatp21
Rp22
(dp23
g8
S'word: one, index: 5'
p24
sbatp25
Rp26
(dp27
g8
Vdobj
p28
sbag0
(g1
g2
(lp29
(lp30
S'word: I, index: 1'
p31
aatp32
Rp33
(dp34
g8
Vnsubj
p35
sbag0
(g1
g2
(lp36
(lp37
S"word: 've, index: 2"
p38
aatp39
Rp40
(dp41
g8
Vaux
p42
sbatp43
Rp44
(dp45
g8
S'word: done, index: 3'
p46
sbatp47
Rp48
(dp49
g8
S'id: 1'
p50
sbag0
(g1
g2
(lp51
g0
(g1
g2
(lp52
g0
(g1
g2
(lp53
g0
(g1
g2
(lp54
g0
(g1
g2
(lp55
(lp56
S'word: a, index: 6'
p57
aatp58
Rp59
(dp60
g8
Vdet
p61
sbag0
(g1
g2
(lp62
g0
(g1
g2
(lp63
g0
(g1
g2
(lp64
g0
(g1
g2
(lp65
g0
(g1
g2
(lp66
(lp67
S'word: the, index: 10'
p68
aatp69
Rp70
(dp71
g8
Vdet
p72
sbatp73
Rp74
(dp75
g8
S'word: beach, index: 11'
p76
sbatp77
Rp78
(dp79
g8
Vprep
p80
sbatp81
Rp82
(dp83
g8
S'word: sitting, index: 8'
p84
sbatp85
Rp86
(dp87
g8
Vvmod
p88
sbatp89
Rp90
(dp91
g8
S'word: girl, index: 7'
p92
sbatp93
Rp94
(dp95
g8
Vnsubj
p96
sbag0
(g1
g2
(lp97
(lp98
S'word: There, index: 1'
p99
aatp100
Rp101
(dp102
g8
Vexpl
p103
sbag0
(g1
g2
(lp104
g0
(g1
g2
(lp105
g0
(g1
g2
(lp106
g90
atp107
Rp108
(dp109
g8
Vconj
p110
sbag0
(g1
g2
(lp111
(lp112
S'word: a, index: 3'
p113
aatp114
Rp115
(dp116
g8
Vdet
p117
sbatp118
Rp119
(dp120
g8
S'word: boy, index: 4'
p121
sbatp122
Rp123
(dp124
g8
Vnsubj
p125
sbatp126
Rp127
(dp128
g8
S"word: 's, index: 2"
p129
sbatp130
Rp131
(dp132
g8
S'id: 2'
p133
sbag0
(g1
g2
(lp134
g0
(g1
g2
(lp135
g0
(g1
g2
(lp136
g0
(g1
g2
(lp137
g0
(g1
g2
(lp138
(lp139
S'word: she, index: 10'
p140
aatp141
Rp142
(dp143
g8
Vnsubj
p144
sbag0
(g1
g2
(lp145
(lp146
S"word: 's, index: 11"
p147
aatp148
Rp149
(dp150
g8
Vaux
p151
sbag0
(g1
g2
(lp152
(lp153
S'word: coke, index: 13'
p154
aatp155
Rp156
(dp157
g8
Vdobj
p158
sbag0
(g1
g2
(lp159
g0
(g1
g2
(lp160
g0
(g1
g2
(lp161
(lp162
S'word: a, index: 16'
p163
aatp164
Rp165
(dp166
g8
Vdet
p167
sbatp168
Rp169
(dp170
g8
S'word: glass, index: 17'
p171
sbatp172
Rp173
(dp174
g8
Vprep
p175
sbag0
(g1
g2
(lp176
g0
(g1
g2
(lp177
g0
(g1
g2
(lp178
(lp179
S'word: she, index: 20'
p180
aatp181
Rp182
(dp183
g8
Vnsubj
p184
sbag0
(g1
g2
(lp185
g0
(g1
g2
(lp186
g0
(g1
g2
(lp187
(lp188
S'word: a, index: 22'
p189
aatp190
Rp191
(dp192
g8
Vdet
p193
sbatp194
Rp195
(dp196
g8
S'word: radio, index: 23'
p197
sbatp198
Rp199
(dp200
g8
Vdobj
p201
sbatp202
Rp203
(dp204
g8
S'word: has, index: 21'
p205
sbatp206
Rp207
(dp208
g8
Vconj
p209
sbatp210
Rp211
(dp212
g8
S'word: pouring, index: 12'
p213
sbatp214
Rp215
(dp216
g8
Vconj
p217
sbag0
(g1
g2
(lp218
(lp219
S'word: there, index: 2'
p220
aatp221
Rp222
(dp223
g8
Vexpl
p224
sbag0
(g1
g2
(lp225
g0
(g1
g2
(lp226
g0
(g1
g2
(lp227
g0
(g1
g2
(lp228
g0
(g1
g2
(lp229
(lp230
S'word: the, index: 6'
p231
aatp232
Rp233
(dp234
g8
Vdet
p235
sbatp236
Rp237
(dp238
g8
S'word: shoes, index: 7'
p239
sbatp240
Rp241
(dp242
g8
Vprep
p243
sbatp244
Rp245
(dp246
g8
S'word: sandals, index: 4'
p247
sbatp248
Rp249
(dp250
g8
Vnsubj
p251
sbag0
(g1
g2
(lp252
g203
atp253
Rp254
(dp255
g8
Vconj
p256
sbatp257
Rp258
(dp259
g8
S"word: 's, index: 3"
p260
sbatp261
Rp262
(dp263
g8
S'id: 3'
p264
sbag0
(g1
g2
(lp265
g0
(g1
g2
(lp266
g0
(g1
g2
(lp267
(lp268
S'word: There, index: 1'
p269
aatp270
Rp271
(dp272
g8
Vexpl
p273
sbag0
(g1
g2
(lp274
g0
(g1
g2
(lp275
g0
(g1
g2
(lp276
(lp277
S'word: a, index: 3'
p278
aatp279
Rp280
(dp281
g8
Vdet
p282
sbag0
(g1
g2
(lp283
g0
(g1
g2
(lp284
g0
(g1
g2
(lp285
g0
(g1
g2
(lp286
g0
(g1
g2
(lp287
(lp288
S'word: a, index: 6'
p289
aatp290
Rp291
(dp292
g8
Vdet
p293
sbatp294
Rp295
(dp296
g8
S'word: kite, index: 7'
p297
sbatp298
Rp299
(dp300
g8
Vdobj
p301
sbatp302
Rp303
(dp304
g8
S'word: holding, index: 5'
p305
sbatp306
Rp307
(dp308
g8
Vvmod
p309
sbatp310
Rp311
(dp312
g8
S'word: boy, index: 4'
p313
sbatp314
Rp315
(dp316
g8
Vnsubj
p317
sbag0
(g1
g2
(lp318
g0
(g1
g2
(lp319
g0
(g1
g2
(lp320
g0
(g1
g2
(lp321
g0
(g1
g2
(lp322
(lp323
S'word: a, index: 12'
p324
aatp325
Rp326
(dp327
g8
Vdet
p328
sbag0
(g1
g2
(lp329
(lp330
S'word: him, index: 15'
p331
aatp332
Rp333
(dp334
g8
Vprep
p335
sbatp336
Rp337
(dp338
g8
S'word: dog, index: 13'
p339
sbatp340
Rp341
(dp342
g8
Vdobj
p343
sbag0
(g1
g2
(lp344
(lp345
S'word: he, index: 10'
p346
aatp347
Rp348
(dp349
g8
Vnsubj
p350
sbatp351
Rp352
(dp353
g8
S'word: has, index: 11'
p354
sbatp355
Rp356
(dp357
g8
Vconj
p358
sbatp359
Rp360
(dp361
g8
S"word: 's, index: 2"
p362
sbatp363
Rp364
(dp365
g8
S'id: 4'
p366
sbag0
(g1
g2
(lp367
g0
(g1
g2
(lp368
g0
(g1
g2
(lp369
g0
(g1
g2
(lp370
g0
(g1
g2
(lp371
(lp372
S'word: big, index: 15'
p373
aatp374
Rp375
(dp376
g8
Vamod
p377
sbag0
(g1
g2
(lp378
g0
(g1
g2
(lp379
g0
(g1
g2
(lp380
(lp381
S'word: a, index: 19'
p382
aatp383
Rp384
(dp385
g8
Vdet
p386
sbatp387
Rp388
(dp389
g8
S'word: flag, index: 20'
p390
sbatp391
Rp392
(dp393
g8
Vconj
p394
sbag0
(g1
g2
(lp395
(lp396
S'word: a, index: 14'
p397
aatp398
Rp399
(dp400
g8
Vdet
p401
sbatp402
Rp403
(dp404
g8
S'word: tree, index: 16'
p405
sbatp406
Rp407
(dp408
g8
Vnsubj
p409
sbag0
(g1
g2
(lp410
(lp411
S'word: And, index: 1'
p412
aatp413
Rp414
(dp415
g8
Vcc
p416
sbag0
(g1
g2
(lp417
(lp418
S'word: there, index: 2'
p419
aatp420
Rp421
(dp422
g8
Vexpl
p423
sbag0
(g1
g2
(lp424
g0
(g1
g2
(lp425
g0
(g1
g2
(lp426
g403
atp427
Rp428
(dp429
g8
Vconj
p430
sbag0
(g1
g2
(lp431
(lp432
S'word: a, index: 4'
p433
aatp434
Rp435
(dp436
g8
Vdet
p437
sbag0
(g1
g2
(lp438
g388
atp439
Rp440
(dp441
g8
Vconj
p442
sbag0
(g1
g2
(lp443
g0
(g1
g2
(lp444
g0
(g1
g2
(lp445
(lp446
S'word: a, index: 7'
p447
aatp448
Rp449
(dp450
g8
Vdet
p451
sbag0
(g1
g2
(lp452
g0
(g1
g2
(lp453
g0
(g1
g2
(lp454
(lp455
S'word: the, index: 10'
p456
aatp457
Rp458
(dp459
g8
Vdet
p460
sbatp461
Rp462
(dp463
g8
S'word: front, index: 11'
p464
sbatp465
Rp466
(dp467
g8
Vprep
p468
sbatp469
Rp470
(dp471
g8
S'word: car, index: 8'
p472
sbatp473
Rp474
(dp475
g8
Vprep
p476
sbatp477
Rp478
(dp479
g8
S'word: house, index: 5'
p480
sbatp481
Rp482
(dp483
g8
Vnsubj
p484
sbatp485
Rp486
(dp487
g8
S"word: 's, index: 3"
p488
sbatp489
Rp490
(dp491
g8
S'id: 5'
p492
sbag0
(g1
g2
(lp493
g0
(g1
g2
(lp494
g0
(g1
g2
(lp495
(lp496
S'word: there, index: 2'
p497
aatp498
Rp499
(dp500
g8
Vexpl
p501
sbag0
(g1
g2
(lp502
g0
(g1
g2
(lp503
g0
(g1
g2
(lp504
(lp505
S'word: a, index: 4'
p506
aatp507
Rp508
(dp509
g8
Vdet
p510
sbag0
(g1
g2
(lp511
g0
(g1
g2
(lp512
g0
(g1
g2
(lp513
g0
(g1
g2
(lp514
g0
(g1
g2
(lp515
(lp516
S'word: a, index: 7'
p517
aatp518
Rp519
(dp520
g8
Vdet
p521
sbatp522
Rp523
(dp524
g8
S'word: flag, index: 8'
p525
sbatp526
Rp527
(dp528
g8
Vdobj
p529
sbatp530
Rp531
(dp532
g8
S'word: holding, index: 6'
p533
sbatp534
Rp535
(dp536
g8
Vvmod
p537
sbatp538
Rp539
(dp540
g8
S'word: boy, index: 5'
p541
sbatp542
Rp543
(dp544
g8
Vnsubj
p545
sbag0
(g1
g2
(lp546
g0
(g1
g2
(lp547
g0
(g1
g2
(lp548
(lp549
S'word: he, index: 11'
p550
aatp551
Rp552
(dp553
g8
Vnsubj
p554
sbag0
(g1
g2
(lp555
g0
(g1
g2
(lp556
g0
(g1
g2
(lp557
g0
(g1
g2
(lp558
g0
(g1
g2
(lp559
(lp560
S'word: him, index: 19'
p561
aatp562
Rp563
(dp564
g8
Vprep
p565
sbag0
(g1
g2
(lp566
(lp567
S'word: a, index: 15'
p568
aatp569
Rp570
(dp571
g8
Vdet
p572
sbag0
(g1
g2
(lp573
(lp574
S'word: little, index: 16'
p575
aatp576
Rp577
(dp578
g8
Vamod
p579
sbatp580
Rp581
(dp582
g8
S'word: puppy, index: 17'
p583
sbatp584
Rp585
(dp586
g8
Vdobj
p587
sbatp588
Rp589
(dp590
g8
S'word: has, index: 14'
p591
sbatp592
Rp593
(dp594
g8
Vccomp
p595
sbatp596
Rp597
(dp598
g8
S"word: 's, index: 12"
p599
sbatp600
Rp601
(dp602
g8
Vconj
p603
sbatp604
Rp605
(dp606
g8
S"word: 's, index: 3"
p607
sbatp608
Rp609
(dp610
g8
S'id: 6'
p611
sbag0
(g1
g2
(lp612
g0
(g1
g2
(lp613
g0
(g1
g2
(lp614
g0
(g1
g2
(lp615
g0
(g1
g2
(lp616
g0
(g1
g2
(lp617
g0
(g1
g2
(lp618
(lp619
S'word: the, index: 7'
p620
aatp621
Rp622
(dp623
g8
Vdet
p624
sbag0
(g1
g2
(lp625
g0
(g1
g2
(lp626
g0
(g1
g2
(lp627
(lp628
S'word: who, index: 9'
p629
aatp630
Rp631
(dp632
g8
Vnsubj
p633
sbag0
(g1
g2
(lp634
(lp635
S'word: is, index: 10'
p636
aatp637
Rp638
(dp639
g8
Vaux
p640
sbag0
(g1
g2
(lp641
g0
(g1
g2
(lp642
g0
(g1
g2
(lp643
(lp644
S'word: a, index: 12'
p645
aatp646
Rp647
(dp648
g8
Vdet
p649
sbatp650
Rp651
(dp652
g8
S'word: fish, index: 13'
p653
sbatp654
Rp655
(dp656
g8
Vdobj
p657
sbatp658
Rp659
(dp660
g8
S'word: catching, index: 11'
p661
sbatp662
Rp663
(dp664
g8
Vrcmod
p665
sbatp666
Rp667
(dp668
g8
S'word: river, index: 8'
p669
sbatp670
Rp671
(dp672
g8
Vprep
p673
sbag0
(g1
g2
(lp674
(lp675
S'word: a, index: 4'
p676
aatp677
Rp678
(dp679
g8
Vdet
p680
sbatp681
Rp682
(dp683
g8
S'word: man, index: 5'
p684
sbatp685
Rp686
(dp687
g8
Vnsubj
p688
sbag0
(g1
g2
(lp689
(lp690
S'word: And, index: 1'
p691
aatp692
Rp693
(dp694
g8
Vcc
p695
sbag0
(g1
g2
(lp696
(lp697
S'word: there, index: 2'
p698
aatp699
Rp700
(dp701
g8
Vexpl
p702
sbatp703
Rp704
(dp705
g8
S"word: 's, index: 3"
p706
sbatp707
Rp708
(dp709
g8
S'id: 7'
p710
sbag0
(g1
g2
(lp711
g0
(g1
g2
(lp712
g0
(g1
g2
(lp713
(lp714
S'word: There, index: 1'
p715
aatp716
Rp717
(dp718
g8
Vexpl
p719
sbag0
(g1
g2
(lp720
g0
(g1
g2
(lp721
g0
(g1
g2
(lp722
(lp723
S'word: a, index: 3'
p724
aatp725
Rp726
(dp727
g8
Vdet
p728
sbag0
(g1
g2
(lp729
(lp730
S'word: little, index: 4'
p731
aatp732
Rp733
(dp734
g8
Vamod
p735
sbag0
(g1
g2
(lp736
g0
(g1
g2
(lp737
g0
(g1
g2
(lp738
g0
(g1
g2
(lp739
g0
(g1
g2
(lp740
(lp741
S'word: the, index: 8'
p742
aatp743
Rp744
(dp745
g8
Vdet
p746
sbag0
(g1
g2
(lp747
g0
(g1
g2
(lp748
g0
(g1
g2
(lp749
g0
(g1
g2
(lp750
g0
(g1
g2
(lp751
(lp752
S'word: the, index: 13'
p753
aatp754
Rp755
(dp756
g8
Vdet
p757
sbatp758
Rp759
(dp760
g8
S'word: sand, index: 14'
p761
sbatp762
Rp763
(dp764
g8
Vprep
p765
sbatp766
Rp767
(dp768
g8
S'word: the, index: 11'
p769
sbatp770
Rp771
(dp772
g8
Vprep
p773
sbatp774
Rp775
(dp776
g8
S'word: sandbar, index: 9'
p777
sbatp778
Rp779
(dp780
g8
Vprep
p781
sbatp782
Rp783
(dp784
g8
S'word: playing, index: 6'
p785
sbatp786
Rp787
(dp788
g8
Vvmod
p789
sbatp790
Rp791
(dp792
g8
S'word: girl, index: 5'
p793
sbatp794
Rp795
(dp796
g8
Vnsubj
p797
sbatp798
Rp799
(dp800
g8
S"word: 's, index: 2"
p801
sbatp802
Rp803
(dp804
g8
S'id: 8'
p805
sbag0
(g1
g2
(lp806
g0
(g1
g2
(lp807
g0
(g1
g2
(lp808
(lp809
S'word: And, index: 1'
p810
aatp811
Rp812
(dp813
g8
Vcc
p814
sbag0
(g1
g2
(lp815
(lp816
S'word: a, index: 2'
p817
aatp818
Rp819
(dp820
g8
Vdet
p821
sbag0
(g1
g2
(lp822
g0
(g1
g2
(lp823
g0
(g1
g2
(lp824
(lp825
S'word: the, index: 5'
p826
aatp827
Rp828
(dp829
g8
Vdet
p830
sbag0
(g1
g2
(lp831
g0
(g1
g2
(lp832
g0
(g1
g2
(lp833
(lp834
S'word: four, index: 7'
p835
aatp836
Rp837
(dp838
g8
Vnumber
p839
sbatp840
Rp841
(dp842
g8
S'word: seventy, index: 8'
p843
sbatp844
Rp845
(dp846
g8
Vnum
p847
sbatp848
Rp849
(dp850
g8
S'word: number, index: 6'
p851
sbatp852
Rp853
(dp854
g8
Vprep
p855
sbag0
(g1
g2
(lp856
(lp857
S'word: it, index: 10'
p858
aatp859
Rp860
(dp861
g8
Vprep
p862
sbatp863
Rp864
(dp865
g8
S'word: boat, index: 3'
p866
sbatp867
Rp868
(dp869
g8
S'id: 9'
p870
sbag0
(g1
g2
(lp871
g0
(g1
g2
(lp872
g0
(g1
g2
(lp873
(lp874
S'word: And, index: 1'
p875
aatp876
Rp877
(dp878
g8
Vcc
p879
sbag0
(g1
g2
(lp880
(lp881
S'word: a, index: 2'
p882
aatp883
Rp884
(dp885
g8
Vdet
p886
sbag0
(g1
g2
(lp887
g0
(g1
g2
(lp888
g0
(g1
g2
(lp889
g0
(g1
g2
(lp890
g0
(g1
g2
(lp891
(lp892
S'word: one, index: 8'
p893
aatp894
Rp895
(dp896
g8
Vnum
p897
sbag0
(g1
g2
(lp898
(lp899
S'word: big, index: 9'
p900
aatp901
Rp902
(dp903
g8
Vamod
p904
sbag0
(g1
g2
(lp905
g0
(g1
g2
(lp906
g0
(g1
g2
(lp907
g0
(g1
g2
(lp908
g0
(g1
g2
(lp909
g0
(g1
g2
(lp910
g0
(g1
g2
(lp911
(lp912
S'word: the, index: 13'
p913
aatp914
Rp915
(dp916
g8
Vdet
p917
sbatp918
Rp919
(dp920
g8
S'word: yard, index: 14'
p921
sbatp922
Rp923
(dp924
g8
Vpobj
p925
sbatp926
Rp927
(dp928
g8
S'word: in, index: 12'
p929
sbatp930
Rp931
(dp932
g8
Vpcomp
p933
sbatp934
Rp935
(dp936
g8
S'word: in, index: 11'
p937
sbatp938
Rp939
(dp940
g8
Vprep
p941
sbatp942
Rp943
(dp944
g8
S'word: tree, index: 10'
p945
sbatp946
Rp947
(dp948
g8
Vconj
p949
sbatp950
Rp951
(dp952
g8
S'word: trees, index: 5'
p953
sbatp954
Rp955
(dp956
g8
Vprep
p957
sbag0
(g1
g2
(lp958
g943
atp959
Rp960
(dp961
g8
Vprep
p962
sbatp963
Rp964
(dp965
g8
S'word: lot, index: 3'
p966
sbatp967
Rp968
(dp969
g8
S'id: 10'
p970
sbatp971
Rp972
(dp973
g8
S'sentences'
p974
sb.