ccopy_reg
_reconstructor
p0
(cnltk.tree
Tree
p1
c__builtin__
list
p2
(lp3
g0
(g1
g2
(lp4
g0
(g1
g2
(lp5
g0
(g1
g2
(lp6
Vok
p7
atp8
Rp9
(dp10
S'_label'
p11
VNN
p12
sbag0
(g1
g2
(lp13
V.
p14
atp15
Rp16
(dp17
g11
V.
p18
sbatp19
Rp20
(dp21
g11
VNP
p22
sbatp23
Rp24
(dp25
g11
S'id: 0'
p26
sbag0
(g1
g2
(lp27
g0
(g1
g2
(lp28
g0
(g1
g2
(lp29
g0
(g1
g2
(lp30
VThis
p31
atp32
Rp33
(dp34
g11
VDT
p35
sbatp36
Rp37
(dp38
g11
VNP
p39
sbag0
(g1
g2
(lp40
g0
(g1
g2
(lp41
Vis
p42
atp43
Rp44
(dp45
g11
VVBZ
p46
sbag0
(g1
g2
(lp47
g0
(g1
g2
(lp48
g0
(g1
g2
(lp49
Va
p50
atp51
Rp52
(dp53
g11
VDT
p54
sbag0
(g1
g2
(lp55
Vs-u-r
p56
atp57
Rp58
(dp59
g11
VJJ
p60
sbag0
(g1
g2
(lp61
Vcircus
p62
atp63
Rp64
(dp65
g11
VNN
p66
sbatp67
Rp68
(dp69
g11
VNP
p70
sbag0
(g1
g2
(lp71
V,
p72
atp73
Rp74
(dp75
g11
V,
p76
sbag0
(g1
g2
(lp77
g0
(g1
g2
(lp78
Vcircus
p79
atp80
Rp81
(dp82
g11
VNN
p83
sbatp84
Rp85
(dp86
g11
VNP
p87
sbatp88
Rp89
(dp90
g11
VNP
p91
sbatp92
Rp93
(dp94
g11
VVP
p95
sbag0
(g1
g2
(lp96
V.
p97
atp98
Rp99
(dp100
g11
V.
p101
sbatp102
Rp103
(dp104
g11
VS
p105
sbatp106
Rp107
(dp108
g11
S'id: 1'
p109
sbag0
(g1
g2
(lp110
g0
(g1
g2
(lp111
g0
(g1
g2
(lp112
g0
(g1
g2
(lp113
VThere
p114
atp115
Rp116
(dp117
g11
VEX
p118
sbatp119
Rp120
(dp121
g11
VNP
p122
sbag0
(g1
g2
(lp123
g0
(g1
g2
(lp124
Vis
p125
atp126
Rp127
(dp128
g11
VVBZ
p129
sbag0
(g1
g2
(lp130
V,
p131
atp132
Rp133
(dp134
g11
V,
p135
sbag0
(g1
g2
(lp136
g0
(g1
g2
(lp137
Vthat
p138
atp139
Rp140
(dp141
g11
VIN
p142
sbag0
(g1
g2
(lp143
g0
(g1
g2
(lp144
g0
(g1
g2
(lp145
Vthere
p146
atp147
Rp148
(dp149
g11
VEX
p150
sbatp151
Rp152
(dp153
g11
VNP
p154
sbag0
(g1
g2
(lp155
g0
(g1
g2
(lp156
Vis
p157
atp158
Rp159
(dp160
g11
VVBZ
p161
sbag0
(g1
g2
(lp162
g0
(g1
g2
(lp163
g0
(g1
g2
(lp164
Vclown
p165
atp166
Rp167
(dp168
g11
VNN
p169
sbatp170
Rp171
(dp172
g11
VNP
p173
sbag0
(g1
g2
(lp174
V,
p175
atp176
Rp177
(dp178
g11
V,
p179
sbag0
(g1
g2
(lp180
g0
(g1
g2
(lp181
g0
(g1
g2
(lp182
Vclown
p183
atp184
Rp185
(dp186
g11
VNN
p187
sbatp188
Rp189
(dp190
g11
VNP
p191
sbag0
(g1
g2
(lp192
V,
p193
atp194
Rp195
(dp196
g11
V,
p197
sbag0
(g1
g2
(lp198
g0
(g1
g2
(lp199
Vclown
p200
atp201
Rp202
(dp203
g11
VNN
p204
sbatp205
Rp206
(dp207
g11
VNP
p208
sbatp209
Rp210
(dp211
g11
VNP
p212
sbatp213
Rp214
(dp215
g11
VNP
p216
sbatp217
Rp218
(dp219
g11
VVP
p220
sbatp221
Rp222
(dp223
g11
VS
p224
sbatp225
Rp226
(dp227
g11
VSBAR
p228
sbatp229
Rp230
(dp231
g11
VVP
p232
sbag0
(g1
g2
(lp233
V.
p234
atp235
Rp236
(dp237
g11
V.
p238
sbatp239
Rp240
(dp241
g11
VS
p242
sbatp243
Rp244
(dp245
g11
S'id: 2'
p246
sbag0
(g1
g2
(lp247
g0
(g1
g2
(lp248
g0
(g1
g2
(lp249
g0
(g1
g2
(lp250
g0
(g1
g2
(lp251
VThere
p252
atp253
Rp254
(dp255
g11
VEX
p256
sbatp257
Rp258
(dp259
g11
VNP
p260
sbag0
(g1
g2
(lp261
g0
(g1
g2
(lp262
V's
p263
atp264
Rp265
(dp266
g11
VVBZ
p267
sbag0
(g1
g2
(lp268
g0
(g1
g2
(lp269
Va
p270
atp271
Rp272
(dp273
g11
VDT
p274
sbag0
(g1
g2
(lp275
Vlittle
p276
atp277
Rp278
(dp279
g11
VJJ
p280
sbag0
(g1
g2
(lp281
Vgirl
p282
atp283
Rp284
(dp285
g11
VNN
p286
sbatp287
Rp288
(dp289
g11
VNP
p290
sbatp291
Rp292
(dp293
g11
VVP
p294
sbatp295
Rp296
(dp297
g11
VS
p298
sbag0
(g1
g2
(lp299
V,
p300
atp301
Rp302
(dp303
g11
V,
p304
sbag0
(g1
g2
(lp305
g0
(g1
g2
(lp306
g0
(g1
g2
(lp307
Vthere
p308
atp309
Rp310
(dp311
g11
VEX
p312
sbatp313
Rp314
(dp315
g11
VNP
p316
sbag0
(g1
g2
(lp317
g0
(g1
g2
(lp318
V's
p319
atp320
Rp321
(dp322
g11
VVBZ
p323
sbag0
(g1
g2
(lp324
g0
(g1
g2
(lp325
Va
p326
atp327
Rp328
(dp329
g11
VDT
p330
sbag0
(g1
g2
(lp331
Vdad
p332
atp333
Rp334
(dp335
g11
VNN
p336
sbatp337
Rp338
(dp339
g11
VNP
p340
sbatp341
Rp342
(dp343
g11
VVP
p344
sbatp345
Rp346
(dp347
g11
VS
p348
sbag0
(g1
g2
(lp349
V,
p350
atp351
Rp352
(dp353
g11
V,
p354
sbag0
(g1
g2
(lp355
g0
(g1
g2
(lp356
g0
(g1
g2
(lp357
Vthere
p358
atp359
Rp360
(dp361
g11
VEX
p362
sbatp363
Rp364
(dp365
g11
VNP
p366
sbag0
(g1
g2
(lp367
g0
(g1
g2
(lp368
V's
p369
atp370
Rp371
(dp372
g11
VVBZ
p373
sbag0
(g1
g2
(lp374
g0
(g1
g2
(lp375
Va
p376
atp377
Rp378
(dp379
g11
VDT
p380
sbag0
(g1
g2
(lp381
Vboy
p382
atp383
Rp384
(dp385
g11
VNN
p386
sbatp387
Rp388
(dp389
g11
VNP
p390
sbatp391
Rp392
(dp393
g11
VVP
p394
sbatp395
Rp396
(dp397
g11
VS
p398
sbag0
(g1
g2
(lp399
V,
p400
atp401
Rp402
(dp403
g11
V,
p404
sbag0
(g1
g2
(lp405
g0
(g1
g2
(lp406
g0
(g1
g2
(lp407
Vthere
p408
atp409
Rp410
(dp411
g11
VEX
p412
sbatp413
Rp414
(dp415
g11
VNP
p416
sbag0
(g1
g2
(lp417
g0
(g1
g2
(lp418
V's
p419
atp420
Rp421
(dp422
g11
VVBZ
p423
sbag0
(g1
g2
(lp424
g0
(g1
g2
(lp425
Vanother
p426
atp427
Rp428
(dp429
g11
VDT
p430
sbag0
(g1
g2
(lp431
Vlittle
p432
atp433
Rp434
(dp435
g11
VJJ
p436
sbag0
(g1
g2
(lp437
Vgirl
p438
atp439
Rp440
(dp441
g11
VNN
p442
sbatp443
Rp444
(dp445
g11
VNP
p446
sbatp447
Rp448
(dp449
g11
VVP
p450
sbatp451
Rp452
(dp453
g11
VS
p454
sbag0
(g1
g2
(lp455
V,
p456
atp457
Rp458
(dp459
g11
V,
p460
sbag0
(g1
g2
(lp461
Vand
p462
atp463
Rp464
(dp465
g11
VCC
p466
sbag0
(g1
g2
(lp467
g0
(g1
g2
(lp468
g0
(g1
g2
(lp469
Vthere
p470
atp471
Rp472
(dp473
g11
VEX
p474
sbatp475
Rp476
(dp477
g11
VNP
p478
sbag0
(g1
g2
(lp479
g0
(g1
g2
(lp480
V's
p481
atp482
Rp483
(dp484
g11
VVBZ
p485
sbag0
(g1
g2
(lp486
g0
(g1
g2
(lp487
g0
(g1
g2
(lp488
Va
p489
atp490
Rp491
(dp492
g11
VDT
p493
sbag0
(g1
g2
(lp494
Vmom
p495
atp496
Rp497
(dp498
g11
VNN
p499
sbatp500
Rp501
(dp502
g11
VNP
p503
sbag0
(g1
g2
(lp504
Vup
p505
atp506
Rp507
(dp508
g11
VIN
p509
sbatp510
Rp511
(dp512
g11
VADVP
p513
sbag0
(g1
g2
(lp514
g0
(g1
g2
(lp515
Vthere
p516
atp517
Rp518
(dp519
g11
VRB
p520
sbatp521
Rp522
(dp523
g11
VADVP
p524
sbag0
(g1
g2
(lp525
V,
p526
atp527
Rp528
(dp529
g11
V,
p530
sbag0
(g1
g2
(lp531
g0
(g1
g2
(lp532
g0
(g1
g2
(lp533
Vthat
p534
atp535
Rp536
(dp537
g11
VDT
p538
sbatp539
Rp540
(dp541
g11
VWHNP
p542
sbag0
(g1
g2
(lp543
g0
(g1
g2
(lp544
g0
(g1
g2
(lp545
V's
p546
atp547
Rp548
(dp549
g11
VVBZ
p550
sbag0
(g1
g2
(lp551
g0
(g1
g2
(lp552
Va
p553
atp554
Rp555
(dp556
g11
VDT
p557
sbag0
(g1
g2
(lp558
Vmom
p559
atp560
Rp561
(dp562
g11
VNN
p563
sbatp564
Rp565
(dp566
g11
VNP
p567
sbatp568
Rp569
(dp570
g11
VVP
p571
sbatp572
Rp573
(dp574
g11
VS
p575
sbatp576
Rp577
(dp578
g11
VSBAR
p579
sbatp580
Rp581
(dp582
g11
VVP
p583
sbatp584
Rp585
(dp586
g11
VS
p587
sbag0
(g1
g2
(lp588
V.
p589
atp590
Rp591
(dp592
g11
V.
p593
sbatp594
Rp595
(dp596
g11
VS
p597
sbatp598
Rp599
(dp600
g11
S'id: 3'
p601
sbag0
(g1
g2
(lp602
g0
(g1
g2
(lp603
g0
(g1
g2
(lp604
g0
(g1
g2
(lp605
VAnd
p606
atp607
Rp608
(dp609
g11
VCC
p610
sbag0
(g1
g2
(lp611
g0
(g1
g2
(lp612
Vnow
p613
atp614
Rp615
(dp616
g11
VRB
p617
sbatp618
Rp619
(dp620
g11
VADVP
p621
sbag0
(g1
g2
(lp622
g0
(g1
g2
(lp623
Vthere
p624
atp625
Rp626
(dp627
g11
VEX
p628
sbatp629
Rp630
(dp631
g11
VNP
p632
sbag0
(g1
g2
(lp633
g0
(g1
g2
(lp634
V's
p635
atp636
Rp637
(dp638
g11
VVBZ
p639
sbag0
(g1
g2
(lp640
g0
(g1
g2
(lp641
Va
p642
atp643
Rp644
(dp645
g11
VDT
p646
sbag0
(g1
g2
(lp647
Vhorse
p648
atp649
Rp650
(dp651
g11
VNN
p652
sbatp653
Rp654
(dp655
g11
VNP
p656
sbatp657
Rp658
(dp659
g11
VVP
p660
sbatp661
Rp662
(dp663
g11
VS
p664
sbag0
(g1
g2
(lp665
V,
p666
atp667
Rp668
(dp669
g11
V,
p670
sbag0
(g1
g2
(lp671
Vand
p672
atp673
Rp674
(dp675
g11
VCC
p676
sbag0
(g1
g2
(lp677
g0
(g1
g2
(lp678
g0
(g1
g2
(lp679
Vthat
p680
atp681
Rp682
(dp683
g11
VDT
p684
sbatp685
Rp686
(dp687
g11
VNP
p688
sbag0
(g1
g2
(lp689
g0
(g1
g2
(lp690
V's
p691
atp692
Rp693
(dp694
g11
VVBZ
p695
sbag0
(g1
g2
(lp696
g0
(g1
g2
(lp697
g0
(g1
g2
(lp698
Va
p699
atp700
Rp701
(dp702
g11
VDT
p703
sbag0
(g1
g2
(lp704
Vwoman
p705
atp706
Rp707
(dp708
g11
VNN
p709
sbatp710
Rp711
(dp712
g11
VNP
p713
sbag0
(g1
g2
(lp714
g0
(g1
g2
(lp715
Vup
p716
atp717
Rp718
(dp719
g11
VIN
p720
sbag0
(g1
g2
(lp721
g0
(g1
g2
(lp722
g0
(g1
g2
(lp723
Vthere
p724
atp725
Rp726
(dp727
g11
VEX
p728
sbatp729
Rp730
(dp731
g11
VNP
p732
sbag0
(g1
g2
(lp733
g0
(g1
g2
(lp734
Vrunning
p735
atp736
Rp737
(dp738
g11
VVBG
p739
sbag0
(g1
g2
(lp740
g0
(g1
g2
(lp741
Vin
p742
atp743
Rp744
(dp745
g11
VIN
p746
sbag0
(g1
g2
(lp747
g0
(g1
g2
(lp748
g0
(g1
g2
(lp749
Vthe
p750
atp751
Rp752
(dp753
g11
VDT
p754
sbag0
(g1
g2
(lp755
Vhouse
p756
atp757
Rp758
(dp759
g11
VNN
p760
sbatp761
Rp762
(dp763
g11
VNP
p764
sbag0
(g1
g2
(lp765
V,
p766
atp767
Rp768
(dp769
g11
V,
p770
sbag0
(g1
g2
(lp771
g0
(g1
g2
(lp772
Vhorse
p773
atp774
Rp775
(dp776
g11
VNN
p777
sbatp778
Rp779
(dp780
g11
VNP
p781
sbatp782
Rp783
(dp784
g11
VNP
p785
sbatp786
Rp787
(dp788
g11
VPP
p789
sbatp790
Rp791
(dp792
g11
VVP
p793
sbatp794
Rp795
(dp796
g11
VS
p797
sbatp798
Rp799
(dp800
g11
VPP
p801
sbatp802
Rp803
(dp804
g11
VNP
p805
sbatp806
Rp807
(dp808
g11
VVP
p809
sbatp810
Rp811
(dp812
g11
VS
p813
sbag0
(g1
g2
(lp814
V.
p815
atp816
Rp817
(dp818
g11
V.
p819
sbatp820
Rp821
(dp822
g11
VS
p823
sbatp824
Rp825
(dp826
g11
S'id: 4'
p827
sbag0
(g1
g2
(lp828
g0
(g1
g2
(lp829
g0
(g1
g2
(lp830
VAnd
p831
atp832
Rp833
(dp834
g11
VCC
p835
sbag0
(g1
g2
(lp836
g0
(g1
g2
(lp837
g0
(g1
g2
(lp838
g0
(g1
g2
(lp839
Vthere
p840
atp841
Rp842
(dp843
g11
VEX
p844
sbatp845
Rp846
(dp847
g11
VNP
p848
sbag0
(g1
g2
(lp849
g0
(g1
g2
(lp850
Voben
p851
atp852
Rp853
(dp854
g11
VNNS
p855
sbatp856
Rp857
(dp858
g11
VNP
p859
sbatp860
Rp861
(dp862
g11
VNP
p863
sbag0
(g1
g2
(lp864
V,
p865
atp866
Rp867
(dp868
g11
V,
p869
sbag0
(g1
g2
(lp870
g0
(g1
g2
(lp871
Vthey
p872
atp873
Rp874
(dp875
g11
VPRP
p876
sbatp877
Rp878
(dp879
g11
VNP
p880
sbatp881
Rp882
(dp883
g11
VNP
p884
sbag0
(g1
g2
(lp885
g0
(g1
g2
(lp886
Vgo
p887
atp888
Rp889
(dp890
g11
VVBP
p891
sbag0
(g1
g2
(lp892
g0
(g1
g2
(lp893
Vinto
p894
atp895
Rp896
(dp897
g11
VIN
p898
sbag0
(g1
g2
(lp899
g0
(g1
g2
(lp900
Vthe
p901
atp902
Rp903
(dp904
g11
VDT
p905
sbag0
(g1
g2
(lp906
Vabute
p907
atp908
Rp909
(dp910
g11
VNN
p911
sbatp912
Rp913
(dp914
g11
VNP
p915
sbatp916
Rp917
(dp918
g11
VPP
p919
sbatp920
Rp921
(dp922
g11
VVP
p923
sbag0
(g1
g2
(lp924
V.
p925
atp926
Rp927
(dp928
g11
V.
p929
sbatp930
Rp931
(dp932
g11
VS
p933
sbatp934
Rp935
(dp936
g11
S'id: 5'
p937
sbag0
(g1
g2
(lp938
g0
(g1
g2
(lp939
g0
(g1
g2
(lp940
VAnd
p941
atp942
Rp943
(dp944
g11
VCC
p945
sbag0
(g1
g2
(lp946
g0
(g1
g2
(lp947
Vthis
p948
atp949
Rp950
(dp951
g11
VDT
p952
sbag0
(g1
g2
(lp953
Vguy
p954
atp955
Rp956
(dp957
g11
VNN
p958
sbag0
(g1
g2
(lp959
g0
(g1
g2
(lp960
g0
(g1
g2
(lp961
g0
(g1
g2
(lp962
Vhe
p963
atp964
Rp965
(dp966
g11
VPRP
p967
sbatp968
Rp969
(dp970
g11
VNP
p971
sbag0
(g1
g2
(lp972
g0
(g1
g2
(lp973
Vjust
p974
atp975
Rp976
(dp977
g11
VRB
p978
sbatp979
Rp980
(dp981
g11
VADVP
p982
sbag0
(g1
g2
(lp983
V,
p984
atp985
Rp986
(dp987
g11
V,
p988
sbag0
(g1
g2
(lp989
g0
(g1
g2
(lp990
Vthat
p991
atp992
Rp993
(dp994
g11
VDT
p995
sbatp996
Rp997
(dp998
g11
VNP
p999
sbag0
(g1
g2
(lp1000
g0
(g1
g2
(lp1001
V's
p1002
atp1003
Rp1004
(dp1005
g11
VVBZ
p1006
sbag0
(g1
g2
(lp1007
g0
(g1
g2
(lp1008
Va
p1009
atp1010
Rp1011
(dp1012
g11
VDT
p1013
sbag0
(g1
g2
(lp1014
g0
(g1
g2
(lp1015
V,
p1016
atp1017
Rp1018
(dp1019
g11
V,
p1020
sbag0
(g1
g2
(lp1021
g0
(g1
g2
(lp1022
Vcow
p1023
atp1024
Rp1025
(dp1026
g11
VNN
p1027
sbatp1028
Rp1029
(dp1030
g11
VNP
p1031
sbag0
(g1
g2
(lp1032
V,
p1033
atp1034
Rp1035
(dp1036
g11
V,
p1037
sbatp1038
Rp1039
(dp1040
g11
VPRN
p1041
sbag0
(g1
g2
(lp1042
Vclown
p1043
atp1044
Rp1045
(dp1046
g11
VNN
p1047
sbatp1048
Rp1049
(dp1050
g11
VNP
p1051
sbatp1052
Rp1053
(dp1054
g11
VVP
p1055
sbatp1056
Rp1057
(dp1058
g11
VS
p1059
sbatp1060
Rp1061
(dp1062
g11
VSBAR
p1063
sbatp1064
Rp1065
(dp1066
g11
VNP
p1067
sbag0
(g1
g2
(lp1068
V.
p1069
atp1070
Rp1071
(dp1072
g11
V.
p1073
sbatp1074
Rp1075
(dp1076
g11
VFRAG
p1077
sbatp1078
Rp1079
(dp1080
g11
S'id: 6'
p1081
sbag0
(g1
g2
(lp1082
g0
(g1
g2
(lp1083
g0
(g1
g2
(lp1084
g0
(g1
g2
(lp1085
VHe
p1086
atp1087
Rp1088
(dp1089
g11
VPRP
p1090
sbatp1091
Rp1092
(dp1093
g11
VNP
p1094
sbag0
(g1
g2
(lp1095
g0
(g1
g2
(lp1096
V's
p1097
atp1098
Rp1099
(dp1100
g11
VVBZ
p1101
sbag0
(g1
g2
(lp1102
g0
(g1
g2
(lp1103
Vthrowing
p1104
atp1105
Rp1106
(dp1107
g11
VVBG
p1108
sbag0
(g1
g2
(lp1109
g0
(g1
g2
(lp1110
Vthe
p1111
atp1112
Rp1113
(dp1114
g11
VDT
p1115
sbag0
(g1
g2
(lp1116
Vstuff
p1117
atp1118
Rp1119
(dp1120
g11
VNN
p1121
sbatp1122
Rp1123
(dp1124
g11
VNP
p1125
sbag0
(g1
g2
(lp1126
g0
(g1
g2
(lp1127
Vinto
p1128
atp1129
Rp1130
(dp1131
g11
VIN
p1132
sbag0
(g1
g2
(lp1133
g0
(g1
g2
(lp1134
Vthe
p1135
atp1136
Rp1137
(dp1138
g11
VDT
p1139
sbag0
(g1
g2
(lp1140
Vboys
p1141
atp1142
Rp1143
(dp1144
g11
VNNS
p1145
sbatp1146
Rp1147
(dp1148
g11
VNP
p1149
sbatp1150
Rp1151
(dp1152
g11
VPP
p1153
sbatp1154
Rp1155
(dp1156
g11
VVP
p1157
sbatp1158
Rp1159
(dp1160
g11
VVP
p1161
sbag0
(g1
g2
(lp1162
V.
p1163
atp1164
Rp1165
(dp1166
g11
V.
p1167
sbatp1168
Rp1169
(dp1170
g11
VS
p1171
sbatp1172
Rp1173
(dp1174
g11
S'id: 7'
p1175
sbag0
(g1
g2
(lp1176
g0
(g1
g2
(lp1177
g0
(g1
g2
(lp1178
g0
(g1
g2
(lp1179
VAnd
p1180
atp1181
Rp1182
(dp1183
g11
VCC
p1184
sbag0
(g1
g2
(lp1185
g0
(g1
g2
(lp1186
Vnow
p1187
atp1188
Rp1189
(dp1190
g11
VRB
p1191
sbatp1192
Rp1193
(dp1194
g11
VADVP
p1195
sbag0
(g1
g2
(lp1196
g0
(g1
g2
(lp1197
Vthere
p1198
atp1199
Rp1200
(dp1201
g11
VEX
p1202
sbatp1203
Rp1204
(dp1205
g11
VNP
p1206
sbag0
(g1
g2
(lp1207
g0
(g1
g2
(lp1208
V's
p1209
atp1210
Rp1211
(dp1212
g11
VVBZ
p1213
sbag0
(g1
g2
(lp1214
g0
(g1
g2
(lp1215
g0
(g1
g2
(lp1216
Va
p1217
atp1218
Rp1219
(dp1220
g11
VDT
p1221
sbag0
(g1
g2
(lp1222
Vlin
p1223
atp1224
Rp1225
(dp1226
g11
VNN
p1227
sbatp1228
Rp1229
(dp1230
g11
VNP
p1231
sbag0
(g1
g2
(lp1232
V,
p1233
atp1234
Rp1235
(dp1236
g11
V,
p1237
sbag0
(g1
g2
(lp1238
g0
(g1
g2
(lp1239
Vlion
p1240
atp1241
Rp1242
(dp1243
g11
VNN
p1244
sbatp1245
Rp1246
(dp1247
g11
VNP
p1248
sbatp1249
Rp1250
(dp1251
g11
VNP
p1252
sbatp1253
Rp1254
(dp1255
g11
VVP
p1256
sbatp1257
Rp1258
(dp1259
g11
VS
p1260
sbag0
(g1
g2
(lp1261
V,
p1262
atp1263
Rp1264
(dp1265
g11
V,
p1266
sbag0
(g1
g2
(lp1267
g0
(g1
g2
(lp1268
Vit
p1269
atp1270
Rp1271
(dp1272
g11
VPRP
p1273
sbatp1274
Rp1275
(dp1276
g11
VNP
p1277
sbag0
(g1
g2
(lp1278
g0
(g1
g2
(lp1279
V's
p1280
atp1281
Rp1282
(dp1283
g11
VVBZ
p1284
sbag0
(g1
g2
(lp1285
g0
(g1
g2
(lp1286
Vlion
p1287
atp1288
Rp1289
(dp1290
g11
VNN
p1291
sbatp1292
Rp1293
(dp1294
g11
VNP
p1295
sbatp1296
Rp1297
(dp1298
g11
VVP
p1299
sbag0
(g1
g2
(lp1300
V.
p1301
atp1302
Rp1303
(dp1304
g11
V.
p1305
sbatp1306
Rp1307
(dp1308
g11
VS
p1309
sbatp1310
Rp1311
(dp1312
g11
S'id: 8'
p1313
sbag0
(g1
g2
(lp1314
g0
(g1
g2
(lp1315
g0
(g1
g2
(lp1316
VAnd
p1317
atp1318
Rp1319
(dp1320
g11
VCC
p1321
sbag0
(g1
g2
(lp1322
g0
(g1
g2
(lp1323
Vthat
p1324
atp1325
Rp1326
(dp1327
g11
VDT
p1328
sbatp1329
Rp1330
(dp1331
g11
VNP
p1332
sbag0
(g1
g2
(lp1333
g0
(g1
g2
(lp1334
V's
p1335
atp1336
Rp1337
(dp1338
g11
VVBZ
p1339
sbag0
(g1
g2
(lp1340
g0
(g1
g2
(lp1341
g0
(g1
g2
(lp1342
Va
p1343
atp1344
Rp1345
(dp1346
g11
VDT
p1347
sbag0
(g1
g2
(lp1348
Vman
p1349
atp1350
Rp1351
(dp1352
g11
VNN
p1353
sbatp1354
Rp1355
(dp1356
g11
VNP
p1357
sbag0
(g1
g2
(lp1358
Vand
p1359
atp1360
Rp1361
(dp1362
g11
VCC
p1363
sbag0
(g1
g2
(lp1364
V,
p1365
atp1366
Rp1367
(dp1368
g11
V,
p1369
sbag0
(g1
g2
(lp1370
Vand
p1371
atp1372
Rp1373
(dp1374
g11
VCC
p1375
sbag0
(g1
g2
(lp1376
g0
(g1
g2
(lp1377
g0
(g1
g2
(lp1378
Vthat
p1379
atp1380
Rp1381
(dp1382
g11
VDT
p1383
sbatp1384
Rp1385
(dp1386
g11
VWHNP
p1387
sbag0
(g1
g2
(lp1388
g0
(g1
g2
(lp1389
g0
(g1
g2
(lp1390
V's
p1391
atp1392
Rp1393
(dp1394
g11
VVBZ
p1395
sbag0
(g1
g2
(lp1396
g0
(g1
g2
(lp1397
Vin
p1398
atp1399
Rp1400
(dp1401
g11
VIN
p1402
sbag0
(g1
g2
(lp1403
g0
(g1
g2
(lp1404
Vhis
p1405
atp1406
Rp1407
(dp1408
g11
VPRP$
p1409
sbag0
(g1
g2
(lp1410
Vhouse
p1411
atp1412
Rp1413
(dp1414
g11
VNN
p1415
sbatp1416
Rp1417
(dp1418
g11
VNP
p1419
sbatp1420
Rp1421
(dp1422
g11
VPP
p1423
sbatp1424
Rp1425
(dp1426
g11
VVP
p1427
sbatp1428
Rp1429
(dp1430
g11
VS
p1431
sbatp1432
Rp1433
(dp1434
g11
VSBAR
p1435
sbatp1436
Rp1437
(dp1438
g11
VNP
p1439
sbatp1440
Rp1441
(dp1442
g11
VVP
p1443
sbag0
(g1
g2
(lp1444
V.
p1445
atp1446
Rp1447
(dp1448
g11
V.
p1449
sbatp1450
Rp1451
(dp1452
g11
VS
p1453
sbatp1454
Rp1455
(dp1456
g11
S'id: 9'
p1457
sbag0
(g1
g2
(lp1458
g0
(g1
g2
(lp1459
g0
(g1
g2
(lp1460
VAnd
p1461
atp1462
Rp1463
(dp1464
g11
VCC
p1465
sbag0
(g1
g2
(lp1466
g0
(g1
g2
(lp1467
g0
(g1
g2
(lp1468
Vhe
p1469
atp1470
Rp1471
(dp1472
g11
VPRP
p1473
sbatp1474
Rp1475
(dp1476
g11
VNP
p1477
sbag0
(g1
g2
(lp1478
g0
(g1
g2
(lp1479
V's
p1480
atp1481
Rp1482
(dp1483
g11
VVBZ
p1484
sbag0
(g1
g2
(lp1485
g0
(g1
g2
(lp1486
Vin
p1487
atp1488
Rp1489
(dp1490
g11
VIN
p1491
sbag0
(g1
g2
(lp1492
g0
(g1
g2
(lp1493
Vthe
p1494
atp1495
Rp1496
(dp1497
g11
VDT
p1498
sbag0
(g1
g2
(lp1499
Vlion
p1500
atp1501
Rp1502
(dp1503
g11
VNN
p1504
sbatp1505
Rp1506
(dp1507
g11
VNP
p1508
sbatp1509
Rp1510
(dp1511
g11
VPP
p1512
sbatp1513
Rp1514
(dp1515
g11
VVP
p1516
sbatp1517
Rp1518
(dp1519
g11
VS
p1520
sbag0
(g1
g2
(lp1521
V,
p1522
atp1523
Rp1524
(dp1525
g11
V,
p1526
sbag0
(g1
g2
(lp1527
Vand
p1528
atp1529
Rp1530
(dp1531
g11
VCC
p1532
sbag0
(g1
g2
(lp1533
g0
(g1
g2
(lp1534
g0
(g1
g2
(lp1535
Vthat
p1536
atp1537
Rp1538
(dp1539
g11
VDT
p1540
sbatp1541
Rp1542
(dp1543
g11
VNP
p1544
sbag0
(g1
g2
(lp1545
g0
(g1
g2
(lp1546
V's
p1547
atp1548
Rp1549
(dp1550
g11
VVBZ
p1551
sbag0
(g1
g2
(lp1552
g0
(g1
g2
(lp1553
Va
p1554
atp1555
Rp1556
(dp1557
g11
VDT
p1558
sbag0
(g1
g2
(lp1559
Vbig
p1560
atp1561
Rp1562
(dp1563
g11
VJJ
p1564
sbag0
(g1
g2
(lp1565
Vlown
p1566
atp1567
Rp1568
(dp1569
g11
VNN
p1570
sbatp1571
Rp1572
(dp1573
g11
VNP
p1574
sbatp1575
Rp1576
(dp1577
g11
VVP
p1578
sbatp1579
Rp1580
(dp1581
g11
VS
p1582
sbag0
(g1
g2
(lp1583
V.
p1584
atp1585
Rp1586
(dp1587
g11
V.
p1588
sbatp1589
Rp1590
(dp1591
g11
VS
p1592
sbatp1593
Rp1594
(dp1595
g11
S'id: 10'
p1596
sbag0
(g1
g2
(lp1597
g0
(g1
g2
(lp1598
g0
(g1
g2
(lp1599
g0
(g1
g2
(lp1600
VHe
p1601
atp1602
Rp1603
(dp1604
g11
VPRP
p1605
sbatp1606
Rp1607
(dp1608
g11
VNP
p1609
sbag0
(g1
g2
(lp1610
g0
(g1
g2
(lp1611
V's
p1612
atp1613
Rp1614
(dp1615
g11
VVBZ
p1616
sbag0
(g1
g2
(lp1617
g0
(g1
g2
(lp1618
Vgot
p1619
atp1620
Rp1621
(dp1622
g11
VVBD
p1623
sbag0
(g1
g2
(lp1624
g0
(g1
g2
(lp1625
g0
(g1
g2
(lp1626
Vthe
p1627
atp1628
Rp1629
(dp1630
g11
VDT
p1631
sbag0
(g1
g2
(lp1632
Vlown
p1633
atp1634
Rp1635
(dp1636
g11
VNN
p1637
sbatp1638
Rp1639
(dp1640
g11
VNP
p1641
sbag0
(g1
g2
(lp1642
V,
p1643
atp1644
Rp1645
(dp1646
g11
V,
p1647
sbag0
(g1
g2
(lp1648
g0
(g1
g2
(lp1649
Vlion
p1650
atp1651
Rp1652
(dp1653
g11
VNN
p1654
sbatp1655
Rp1656
(dp1657
g11
VNP
p1658
sbag0
(g1
g2
(lp1659
Vand
p1660
atp1661
Rp1662
(dp1663
g11
VCC
p1664
sbag0
(g1
g2
(lp1665
g0
(g1
g2
(lp1666
Vthe
p1667
atp1668
Rp1669
(dp1670
g11
VDT
p1671
sbag0
(g1
g2
(lp1672
Vpair
p1673
atp1674
Rp1675
(dp1676
g11
VNN
p1677
sbag0
(g1
g2
(lp1678
V,
p1679
atp1680
Rp1681
(dp1682
g11
V,
p1683
sbag0
(g1
g2
(lp1684
Vp-a-i
p1685
atp1686
Rp1687
(dp1688
g11
VNN
p1689
sbag0
(g1
g2
(lp1690
V,
p1691
atp1692
Rp1693
(dp1694
g11
V,
p1695
sbag0
(g1
g2
(lp1696
Vpair
p1697
atp1698
Rp1699
(dp1700
g11
VNN
p1701
sbatp1702
Rp1703
(dp1704
g11
VNP
p1705
sbatp1706
Rp1707
(dp1708
g11
VNP
p1709
sbatp1710
Rp1711
(dp1712
g11
VVP
p1713
sbatp1714
Rp1715
(dp1716
g11
VVP
p1717
sbag0
(g1
g2
(lp1718
V.
p1719
atp1720
Rp1721
(dp1722
g11
V.
p1723
sbatp1724
Rp1725
(dp1726
g11
VS
p1727
sbatp1728
Rp1729
(dp1730
g11
S'id: 11'
p1731
sbag0
(g1
g2
(lp1732
g0
(g1
g2
(lp1733
g0
(g1
g2
(lp1734
g0
(g1
g2
(lp1735
g0
(g1
g2
(lp1736
VThat
p1737
atp1738
Rp1739
(dp1740
g11
VDT
p1741
sbatp1742
Rp1743
(dp1744
g11
VNP
p1745
sbag0
(g1
g2
(lp1746
g0
(g1
g2
(lp1747
V's
p1748
atp1749
Rp1750
(dp1751
g11
VVBZ
p1752
sbag0
(g1
g2
(lp1753
g0
(g1
g2
(lp1754
Va
p1755
atp1756
Rp1757
(dp1758
g11
VDT
p1759
sbag0
(g1
g2
(lp1760
Vman
p1761
atp1762
Rp1763
(dp1764
g11
VNN
p1765
sbatp1766
Rp1767
(dp1768
g11
VNP
p1769
sbatp1770
Rp1771
(dp1772
g11
VVP
p1773
sbatp1774
Rp1775
(dp1776
g11
VS
p1777
sbag0
(g1
g2
(lp1778
V,
p1779
atp1780
Rp1781
(dp1782
g11
V,
p1783
sbag0
(g1
g2
(lp1784
Vand
p1785
atp1786
Rp1787
(dp1788
g11
VCC
p1789
sbag0
(g1
g2
(lp1790
g0
(g1
g2
(lp1791
g0
(g1
g2
(lp1792
Vthese
p1793
atp1794
Rp1795
(dp1796
g11
VDT
p1797
sbatp1798
Rp1799
(dp1800
g11
VNP
p1801
sbag0
(g1
g2
(lp1802
g0
(g1
g2
(lp1803
Vare
p1804
atp1805
Rp1806
(dp1807
g11
VVBP
p1808
sbag0
(g1
g2
(lp1809
g0
(g1
g2
(lp1810
Vthe
p1811
atp1812
Rp1813
(dp1814
g11
VDT
p1815
sbag0
(g1
g2
(lp1816
Vbars
p1817
atp1818
Rp1819
(dp1820
g11
VNNS
p1821
sbatp1822
Rp1823
(dp1824
g11
VNP
p1825
sbatp1826
Rp1827
(dp1828
g11
VVP
p1829
sbatp1830
Rp1831
(dp1832
g11
VS
p1833
sbag0
(g1
g2
(lp1834
V.
p1835
atp1836
Rp1837
(dp1838
g11
V.
p1839
sbatp1840
Rp1841
(dp1842
g11
VS
p1843
sbatp1844
Rp1845
(dp1846
g11
S'id: 12'
p1847
sbag0
(g1
g2
(lp1848
g0
(g1
g2
(lp1849
g0
(g1
g2
(lp1850
VAnd
p1851
atp1852
Rp1853
(dp1854
g11
VCC
p1855
sbag0
(g1
g2
(lp1856
V,
p1857
atp1858
Rp1859
(dp1860
g11
V,
p1861
sbag0
(g1
g2
(lp1862
g0
(g1
g2
(lp1863
g0
(g1
g2
(lp1864
Vand
p1865
atp1866
Rp1867
(dp1868
g11
VCC
p1869
sbag0
(g1
g2
(lp1870
g0
(g1
g2
(lp1871
g0
(g1
g2
(lp1872
g0
(g1
g2
(lp1873
g0
(g1
g2
(lp1874
Vhere
p1875
atp1876
Rp1877
(dp1878
g11
VRB
p1879
sbatp1880
Rp1881
(dp1882
g11
VNP
p1883
sbag0
(g1
g2
(lp1884
V's
p1885
atp1886
Rp1887
(dp1888
g11
VPOS
p1889
sbatp1890
Rp1891
(dp1892
g11
VNP
p1893
sbag0
(g1
g2
(lp1894
Vman
p1895
atp1896
Rp1897
(dp1898
g11
VNN
p1899
sbatp1900
Rp1901
(dp1902
g11
VNP
p1903
sbag0
(g1
g2
(lp1904
V,
p1905
atp1906
Rp1907
(dp1908
g11
V,
p1909
sbag0
(g1
g2
(lp1910
g0
(g1
g2
(lp1911
Vwoman
p1912
atp1913
Rp1914
(dp1915
g11
VNN
p1916
sbatp1917
Rp1918
(dp1919
g11
VNP
p1920
sbatp1921
Rp1922
(dp1923
g11
VNP
p1924
sbatp1925
Rp1926
(dp1927
g11
VNP
p1928
sbag0
(g1
g2
(lp1929
g0
(g1
g2
(lp1930
Vwatching
p1931
atp1932
Rp1933
(dp1934
g11
VVBG
p1935
sbag0
(g1
g2
(lp1936
g0
(g1
g2
(lp1937
Vthe
p1938
atp1939
Rp1940
(dp1941
g11
VDT
p1942
sbag0
(g1
g2
(lp1943
g0
(g1
g2
(lp1944
V,
p1945
atp1946
Rp1947
(dp1948
g11
V,
p1949
sbag0
(g1
g2
(lp1950
g0
(g1
g2
(lp1951
Vup
p1952
atp1953
Rp1954
(dp1955
g11
VRB
p1956
sbatp1957
Rp1958
(dp1959
g11
VADVP
p1960
sbag0
(g1
g2
(lp1961
g0
(g1
g2
(lp1962
Vin
p1963
atp1964
Rp1965
(dp1966
g11
VIN
p1967
sbag0
(g1
g2
(lp1968
g0
(g1
g2
(lp1969
Vthe
p1970
atp1971
Rp1972
(dp1973
g11
VDT
p1974
sbag0
(g1
g2
(lp1975
Vwater
p1976
atp1977
Rp1978
(dp1979
g11
VNN
p1980
sbatp1981
Rp1982
(dp1983
g11
VNP
p1984
sbatp1985
Rp1986
(dp1987
g11
VPP
p1988
sbatp1989
Rp1990
(dp1991
g11
VPRN
p1992
sbatp1993
Rp1994
(dp1995
g11
VNP
p1996
sbatp1997
Rp1998
(dp1999
g11
VVP
p2000
sbatp2001
Rp2002
(dp2003
g11
VS
p2004
sbag0
(g1
g2
(lp2005
V.
p2006
atp2007
Rp2008
(dp2009
g11
V.
p2010
sbatp2011
Rp2012
(dp2013
g11
VS
p2014
sbatp2015
Rp2016
(dp2017
g11
S'id: 13'
p2018
sbag0
(g1
g2
(lp2019
g0
(g1
g2
(lp2020
g0
(g1
g2
(lp2021
VAnd
p2022
atp2023
Rp2024
(dp2025
g11
VCC
p2026
sbag0
(g1
g2
(lp2027
g0
(g1
g2
(lp2028
Vthat
p2029
atp2030
Rp2031
(dp2032
g11
VDT
p2033
sbatp2034
Rp2035
(dp2036
g11
VNP
p2037
sbag0
(g1
g2
(lp2038
g0
(g1
g2
(lp2039
V's
p2040
atp2041
Rp2042
(dp2043
g11
VVBZ
p2044
sbag0
(g1
g2
(lp2045
g0
(g1
g2
(lp2046
Va
p2047
atp2048
Rp2049
(dp2050
g11
VDT
p2051
sbag0
(g1
g2
(lp2052
Vman
p2053
atp2054
Rp2055
(dp2056
g11
VNN
p2057
sbatp2058
Rp2059
(dp2060
g11
VNP
p2061
sbatp2062
Rp2063
(dp2064
g11
VVP
p2065
sbag0
(g1
g2
(lp2066
V.
p2067
atp2068
Rp2069
(dp2070
g11
V.
p2071
sbatp2072
Rp2073
(dp2074
g11
VS
p2075
sbatp2076
Rp2077
(dp2078
g11
S'id: 14'
p2079
sbag0
(g1
g2
(lp2080
g0
(g1
g2
(lp2081
g0
(g1
g2
(lp2082
VAnd
p2083
atp2084
Rp2085
(dp2086
g11
VCC
p2087
sbag0
(g1
g2
(lp2088
g0
(g1
g2
(lp2089
Vthat
p2090
atp2091
Rp2092
(dp2093
g11
VDT
p2094
sbatp2095
Rp2096
(dp2097
g11
VNP
p2098
sbag0
(g1
g2
(lp2099
g0
(g1
g2
(lp2100
V's
p2101
atp2102
Rp2103
(dp2104
g11
VVBZ
p2105
sbag0
(g1
g2
(lp2106
g0
(g1
g2
(lp2107
Vthe
p2108
atp2109
Rp2110
(dp2111
g11
VDT
p2112
sbag0
(g1
g2
(lp2113
Vsmall
p2114
atp2115
Rp2116
(dp2117
g11
VJJ
p2118
sbatp2119
Rp2120
(dp2121
g11
VNP
p2122
sbag0
(g1
g2
(lp2123
V,
p2124
atp2125
Rp2126
(dp2127
g11
V,
p2128
sbag0
(g1
g2
(lp2129
g0
(g1
g2
(lp2130
Vthat
p2131
atp2132
Rp2133
(dp2134
g11
VIN
p2135
sbatp2136
Rp2137
(dp2138
g11
VADVP
p2139
sbatp2140
Rp2141
(dp2142
g11
VVP
p2143
sbag0
(g1
g2
(lp2144
V.
p2145
atp2146
Rp2147
(dp2148
g11
V.
p2149
sbatp2150
Rp2151
(dp2152
g11
VS
p2153
sbatp2154
Rp2155
(dp2156
g11
S'id: 15'
p2157
sbag0
(g1
g2
(lp2158
g0
(g1
g2
(lp2159
g0
(g1
g2
(lp2160
VAnd
p2161
atp2162
Rp2163
(dp2164
g11
VCC
p2165
sbag0
(g1
g2
(lp2166
g0
(g1
g2
(lp2167
g0
(g1
g2
(lp2168
VI
p2169
atp2170
Rp2171
(dp2172
g11
VPRP
p2173
sbatp2174
Rp2175
(dp2176
g11
VNP
p2177
sbag0
(g1
g2
(lp2178
V,
p2179
atp2180
Rp2181
(dp2182
g11
V,
p2183
sbag0
(g1
g2
(lp2184
Vand
p2185
atp2186
Rp2187
(dp2188
g11
VCC
p2189
sbag0
(g1
g2
(lp2190
g0
(g1
g2
(lp2191
Vthat
p2192
atp2193
Rp2194
(dp2195
g11
VDT
p2196
sbatp2197
Rp2198
(dp2199
g11
VNP
p2200
sbatp2201
Rp2202
(dp2203
g11
VNP
p2204
sbag0
(g1
g2
(lp2205
g0
(g1
g2
(lp2206
V's
p2207
atp2208
Rp2209
(dp2210
g11
VVBZ
p2211
sbag0
(g1
g2
(lp2212
g0
(g1
g2
(lp2213
Va
p2214
atp2215
Rp2216
(dp2217
g11
VDT
p2218
sbag0
(g1
g2
(lp2219
Vman
p2220
atp2221
Rp2222
(dp2223
g11
VNN
p2224
sbatp2225
Rp2226
(dp2227
g11
VNP
p2228
sbatp2229
Rp2230
(dp2231
g11
VVP
p2232
sbag0
(g1
g2
(lp2233
V.
p2234
atp2235
Rp2236
(dp2237
g11
V.
p2238
sbatp2239
Rp2240
(dp2241
g11
VS
p2242
sbatp2243
Rp2244
(dp2245
g11
S'id: 16'
p2246
sbag0
(g1
g2
(lp2247
g0
(g1
g2
(lp2248
g0
(g1
g2
(lp2249
VAnd
p2250
atp2251
Rp2252
(dp2253
g11
VCC
p2254
sbag0
(g1
g2
(lp2255
g0
(g1
g2
(lp2256
Vthat
p2257
atp2258
Rp2259
(dp2260
g11
VDT
p2261
sbatp2262
Rp2263
(dp2264
g11
VNP
p2265
sbag0
(g1
g2
(lp2266
g0
(g1
g2
(lp2267
V's
p2268
atp2269
Rp2270
(dp2271
g11
VVBZ
p2272
sbag0
(g1
g2
(lp2273
V,
p2274
atp2275
Rp2276
(dp2277
g11
V,
p2278
sbag0
(g1
g2
(lp2279
g0
(g1
g2
(lp2280
g0
(g1
g2
(lp2281
g0
(g1
g2
(lp2282
VI
p2283
atp2284
Rp2285
(dp2286
g11
VPRP
p2287
sbatp2288
Rp2289
(dp2290
g11
VNP
p2291
sbag0
(g1
g2
(lp2292
g0
(g1
g2
(lp2293
g0
(g1
g2
(lp2294
Vcant
p2295
atp2296
Rp2297
(dp2298
g11
VVBP
p2299
sbag0
(g1
g2
(lp2300
g0
(g1
g2
(lp2301
Vgive
p2302
atp2303
Rp2304
(dp2305
g11
VVB
p2306
sbag0
(g1
g2
(lp2307
g0
(g1
g2
(lp2308
Vhim
p2309
atp2310
Rp2311
(dp2312
g11
VPRP
p2313
sbatp2314
Rp2315
(dp2316
g11
VNP
p2317
sbag0
(g1
g2
(lp2318
g0
(g1
g2
(lp2319
g0
(g1
g2
(lp2320
Vwhat
p2321
atp2322
Rp2323
(dp2324
g11
VWP
p2325
sbatp2326
Rp2327
(dp2328
g11
VWHNP
p2329
sbag0
(g1
g2
(lp2330
g0
(g1
g2
(lp2331
g0
(g1
g2
(lp2332
g0
(g1
g2
(lp2333
Vthe
p2334
atp2335
Rp2336
(dp2337
g11
VDT
p2338
sbag0
(g1
g2
(lp2339
Vname
p2340
atp2341
Rp2342
(dp2343
g11
VNN
p2344
sbatp2345
Rp2346
(dp2347
g11
VNP
p2348
sbag0
(g1
g2
(lp2349
g0
(g1
g2
(lp2350
g0
(g1
g2
(lp2351
g0
(g1
g2
(lp2352
Vhe
p2353
atp2354
Rp2355
(dp2356
g11
VPRP
p2357
sbatp2358
Rp2359
(dp2360
g11
VNP
p2361
sbag0
(g1
g2
(lp2362
g0
(g1
g2
(lp2363
V's
p2364
atp2365
Rp2366
(dp2367
g11
VVBZ
p2368
sbag0
(g1
g2
(lp2369
g0
(g1
g2
(lp2370
Vsupposed
p2371
atp2372
Rp2373
(dp2374
g11
VVBN
p2375
sbag0
(g1
g2
(lp2376
V,
p2377
atp2378
Rp2379
(dp2380
g11
V,
p2381
sbag0
(g1
g2
(lp2382
g0
(g1
g2
(lp2383
Vi
p2384
atp2385
Rp2386
(dp2387
g11
VFW
p2388
sbag0
(g1
g2
(lp2389
Vcant
p2390
atp2391
Rp2392
(dp2393
g11
VFW
p2394
sbatp2395
Rp2396
(dp2397
g11
VNP
p2398
sbatp2399
Rp2400
(dp2401
g11
VVP
p2402
sbatp2403
Rp2404
(dp2405
g11
VVP
p2406
sbatp2407
Rp2408
(dp2409
g11
VS
p2410
sbatp2411
Rp2412
(dp2413
g11
VSBAR
p2414
sbatp2415
Rp2416
(dp2417
g11
VNP
p2418
sbag0
(g1
g2
(lp2419
g0
(g1
g2
(lp2420
Vremember
p2421
atp2422
Rp2423
(dp2424
g11
VVBP
p2425
sbatp2426
Rp2427
(dp2428
g11
VVP
p2429
sbatp2430
Rp2431
(dp2432
g11
VS
p2433
sbatp2434
Rp2435
(dp2436
g11
VSBAR
p2437
sbatp2438
Rp2439
(dp2440
g11
VVP
p2441
sbatp2442
Rp2443
(dp2444
g11
VVP
p2445
sbag0
(g1
g2
(lp2446
V,
p2447
atp2448
Rp2449
(dp2450
g11
V,
p2451
sbag0
(g1
g2
(lp2452
Vbut
p2453
atp2454
Rp2455
(dp2456
g11
VCC
p2457
sbag0
(g1
g2
(lp2458
g0
(g1
g2
(lp2459
Vyeah
p2460
atp2461
Rp2462
(dp2463
g11
VVBP
p2464
sbag0
(g1
g2
(lp2465
g0
(g1
g2
(lp2466
g0
(g1
g2
(lp2467
g0
(g1
g2
(lp2468
Vthat
p2469
atp2470
Rp2471
(dp2472
g11
VDT
p2473
sbatp2474
Rp2475
(dp2476
g11
VNP
p2477
sbag0
(g1
g2
(lp2478
g0
(g1
g2
(lp2479
V's
p2480
atp2481
Rp2482
(dp2483
g11
VVBZ
p2484
sbag0
(g1
g2
(lp2485
g0
(g1
g2
(lp2486
Vpretty
p2487
atp2488
Rp2489
(dp2490
g11
VRB
p2491
sbag0
(g1
g2
(lp2492
Vnice
p2493
atp2494
Rp2495
(dp2496
g11
VJJ
p2497
sbatp2498
Rp2499
(dp2500
g11
VADJP
p2501
sbatp2502
Rp2503
(dp2504
g11
VVP
p2505
sbatp2506
Rp2507
(dp2508
g11
VS
p2509
sbatp2510
Rp2511
(dp2512
g11
VSBAR
p2513
sbatp2514
Rp2515
(dp2516
g11
VVP
p2517
sbatp2518
Rp2519
(dp2520
g11
VVP
p2521
sbatp2522
Rp2523
(dp2524
g11
VS
p2525
sbatp2526
Rp2527
(dp2528
g11
VSBAR
p2529
sbatp2530
Rp2531
(dp2532
g11
VVP
p2533
sbag0
(g1
g2
(lp2534
V.
p2535
atp2536
Rp2537
(dp2538
g11
V.
p2539
sbatp2540
Rp2541
(dp2542
g11
VS
p2543
sbatp2544
Rp2545
(dp2546
g11
S'id: 17'
p2547
sbag0
(g1
g2
(lp2548
g0
(g1
g2
(lp2549
g0
(g1
g2
(lp2550
g0
(g1
g2
(lp2551
g0
(g1
g2
(lp2552
VAnd
p2553
atp2554
Rp2555
(dp2556
g11
VCC
p2557
sbag0
(g1
g2
(lp2558
V,
p2559
atp2560
Rp2561
(dp2562
g11
V,
p2563
sbag0
(g1
g2
(lp2564
Vbut
p2565
atp2566
Rp2567
(dp2568
g11
VCC
p2569
sbag0
(g1
g2
(lp2570
g0
(g1
g2
(lp2571
Vhe
p2572
atp2573
Rp2574
(dp2575
g11
VPRP
p2576
sbatp2577
Rp2578
(dp2579
g11
VNP
p2580
sbag0
(g1
g2
(lp2581
g0
(g1
g2
(lp2582
V's
p2583
atp2584
Rp2585
(dp2586
g11
VVBZ
p2587
sbatp2588
Rp2589
(dp2590
g11
VVP
p2591
sbatp2592
Rp2593
(dp2594
g11
VS
p2595
sbag0
(g1
g2
(lp2596
V,
p2597
atp2598
Rp2599
(dp2600
g11
V,
p2601
sbag0
(g1
g2
(lp2602
g0
(g1
g2
(lp2603
Vthat
p2604
atp2605
Rp2606
(dp2607
g11
VDT
p2608
sbatp2609
Rp2610
(dp2611
g11
VNP
p2612
sbag0
(g1
g2
(lp2613
g0
(g1
g2
(lp2614
V's
p2615
atp2616
Rp2617
(dp2618
g11
VVBZ
p2619
sbag0
(g1
g2
(lp2620
V,
p2621
atp2622
Rp2623
(dp2624
g11
V,
p2625
sbag0
(g1
g2
(lp2626
g0
(g1
g2
(lp2627
g0
(g1
g2
(lp2628
g0
(g1
g2
(lp2629
Vthat
p2630
atp2631
Rp2632
(dp2633
g11
VDT
p2634
sbatp2635
Rp2636
(dp2637
g11
VNP
p2638
sbag0
(g1
g2
(lp2639
g0
(g1
g2
(lp2640
V's
p2641
atp2642
Rp2643
(dp2644
g11
VVBZ
p2645
sbag0
(g1
g2
(lp2646
g0
(g1
g2
(lp2647
Vin
p2648
atp2649
Rp2650
(dp2651
g11
VIN
p2652
sbatp2653
Rp2654
(dp2655
g11
VPP
p2656
sbatp2657
Rp2658
(dp2659
g11
VVP
p2660
sbatp2661
Rp2662
(dp2663
g11
VS
p2664
sbatp2665
Rp2666
(dp2667
g11
VSBAR
p2668
sbatp2669
Rp2670
(dp2671
g11
VVP
p2672
sbatp2673
Rp2674
(dp2675
g11
VS
p2676
sbatp2677
Rp2678
(dp2679
g11
VNP
p2680
sbatp2681
Rp2682
(dp2683
g11
S'id: 18'
p2684
sbatp2685
Rp2686
(dp2687
g11
S'sentences'
p2688
sb.