ccopy_reg
_reconstructor
p0
(cnltk.tree
Tree
p1
c__builtin__
list
p2
(lp3
g0
(g1
g2
(lp4
g0
(g1
g2
(lp5
g0
(g1
g2
(lp6
Vcookie jar
p7
atp8
Rp9
(dp10
S'_label'
p11
S'start: 3'
p12
sbatp13
Rp14
(dp15
g11
S'sent: 3'
p16
sbag0
(g1
g2
(lp17
g0
(g1
g2
(lp18
Vcookie jar
p19
atp20
Rp21
(dp22
g11
S'start: 9'
p23
sbatp24
Rp25
(dp26
g11
S'sent: 7'
p27
sbatp28
Rp29
(dp30
g11
S'id: 6'
p31
sbag0
(g1
g2
(lp32
g0
(g1
g2
(lp33
g0
(g1
g2
(lp34
VHolding , and scanning
p35
atp36
Rp37
(dp38
g11
S'start: 1'
p39
sbatp40
Rp41
(dp42
g11
S'sent: 6'
p43
sbag0
(g1
g2
(lp44
g0
(g1
g2
(lp45
Vclothes , down , and water
p46
atp47
Rp48
(dp49
g11
S'start: 11'
p50
sbatp51
Rp52
(dp53
g11
S'sent: 6'
p54
sbag0
(g1
g2
(lp55
g0
(g1
g2
(lp56
Vclothes , down
p57
atp58
Rp59
(dp60
g11
S'start: 11'
p61
sbatp62
Rp63
(dp64
g11
S'sent: 6'
p65
sbag0
(g1
g2
(lp66
g0
(g1
g2
(lp67
Vclothes
p68
atp69
Rp70
(dp71
g11
S'start: 11'
p72
sbatp73
Rp74
(dp75
g11
S'sent: 6'
p76
sbatp77
Rp78
(dp79
g11
S'id: 11'
p80
sbatp81
Rp82
(dp83
g11
S'coreferences'
p84
sb.