ccopy_reg
_reconstructor
p0
(cnltk.tree
Tree
p1
c__builtin__
list
p2
(lp3
g0
(g1
g2
(lp4
g0
(g1
g2
(lp5
g0
(g1
g2
(lp6
Vok
p7
atp8
Rp9
(dp10
S'_label'
p11
VNN
p12
sbag0
(g1
g2
(lp13
V.
p14
atp15
Rp16
(dp17
g11
V.
p18
sbatp19
Rp20
(dp21
g11
VNP
p22
sbatp23
Rp24
(dp25
g11
S'id: 0'
p26
sbag0
(g1
g2
(lp27
g0
(g1
g2
(lp28
g0
(g1
g2
(lp29
g0
(g1
g2
(lp30
VThis
p31
atp32
Rp33
(dp34
g11
VDT
p35
sbatp36
Rp37
(dp38
g11
VNP
p39
sbag0
(g1
g2
(lp40
g0
(g1
g2
(lp41
Vis
p42
atp43
Rp44
(dp45
g11
VVBZ
p46
sbag0
(g1
g2
(lp47
g0
(g1
g2
(lp48
Vthe
p49
atp50
Rp51
(dp52
g11
VDT
p53
sbag0
(g1
g2
(lp54
Vcircus
p55
atp56
Rp57
(dp58
g11
VNN
p59
sbatp60
Rp61
(dp62
g11
VNP
p63
sbatp64
Rp65
(dp66
g11
VVP
p67
sbag0
(g1
g2
(lp68
V.
p69
atp70
Rp71
(dp72
g11
V.
p73
sbatp74
Rp75
(dp76
g11
VS
p77
sbatp78
Rp79
(dp80
g11
S'id: 1'
p81
sbag0
(g1
g2
(lp82
g0
(g1
g2
(lp83
g0
(g1
g2
(lp84
g0
(g1
g2
(lp85
g0
(g1
g2
(lp86
g0
(g1
g2
(lp87
g0
(g1
g2
(lp88
VFirst
p89
atp90
Rp91
(dp92
g11
VNNP
p93
sbatp94
Rp95
(dp96
g11
VNP
p97
sbag0
(g1
g2
(lp98
g0
(g1
g2
(lp99
Vof
p100
atp101
Rp102
(dp103
g11
VIN
p104
sbag0
(g1
g2
(lp105
g0
(g1
g2
(lp106
Vall
p107
atp108
Rp109
(dp110
g11
VDT
p111
sbatp112
Rp113
(dp114
g11
VNP
p115
sbatp116
Rp117
(dp118
g11
VPP
p119
sbatp120
Rp121
(dp122
g11
VNP-TMP
p123
sbag0
(g1
g2
(lp124
g0
(g1
g2
(lp125
Vyou
p126
atp127
Rp128
(dp129
g11
VPRP
p130
sbatp131
Rp132
(dp133
g11
VNP
p134
sbag0
(g1
g2
(lp135
g0
(g1
g2
(lp136
Vhave
p137
atp138
Rp139
(dp140
g11
VVBP
p141
sbag0
(g1
g2
(lp142
g0
(g1
g2
(lp143
Va
p144
atp145
Rp146
(dp147
g11
VDT
p148
sbag0
(g1
g2
(lp149
Vblack
p150
atp151
Rp152
(dp153
g11
VJJ
p154
sbag0
(g1
g2
(lp155
Vmale
p156
atp157
Rp158
(dp159
g11
VNN
p160
sbatp161
Rp162
(dp163
g11
VNP
p164
sbatp165
Rp166
(dp167
g11
VVP
p168
sbatp169
Rp170
(dp171
g11
VS
p172
sbag0
(g1
g2
(lp173
V,
p174
atp175
Rp176
(dp177
g11
V,
p178
sbag0
(g1
g2
(lp179
Vand
p180
atp181
Rp182
(dp183
g11
VCC
p184
sbag0
(g1
g2
(lp185
g0
(g1
g2
(lp186
g0
(g1
g2
(lp187
Vhis
p188
atp189
Rp190
(dp191
g11
VPRP$
p192
sbag0
(g1
g2
(lp193
Vdaughter
p194
atp195
Rp196
(dp197
g11
VNN
p198
sbatp199
Rp200
(dp201
g11
VNP
p202
sbag0
(g1
g2
(lp203
g0
(g1
g2
(lp204
Vlooking
p205
atp206
Rp207
(dp208
g11
VVBG
p209
sbag0
(g1
g2
(lp210
g0
(g1
g2
(lp211
Vat
p212
atp213
Rp214
(dp215
g11
VIN
p216
sbag0
(g1
g2
(lp217
g0
(g1
g2
(lp218
Vthe
p219
atp220
Rp221
(dp222
g11
VDT
p223
sbag0
(g1
g2
(lp224
Vclown
p225
atp226
Rp227
(dp228
g11
VNN
p229
sbatp230
Rp231
(dp232
g11
VNP
p233
sbatp234
Rp235
(dp236
g11
VPP
p237
sbatp238
Rp239
(dp240
g11
VVP
p241
sbatp242
Rp243
(dp244
g11
VS
p245
sbatp246
Rp247
(dp248
g11
VS
p249
sbag0
(g1
g2
(lp250
V,
p251
atp252
Rp253
(dp254
g11
V,
p255
sbag0
(g1
g2
(lp256
g0
(g1
g2
(lp257
Vshe
p258
atp259
Rp260
(dp261
g11
VPRP
p262
sbatp263
Rp264
(dp265
g11
VNP
p266
sbag0
(g1
g2
(lp267
g0
(g1
g2
(lp268
Vis
p269
atp270
Rp271
(dp272
g11
VVBZ
p273
sbag0
(g1
g2
(lp274
g0
(g1
g2
(lp275
Vpointing
p276
atp277
Rp278
(dp279
g11
VVBG
p280
sbag0
(g1
g2
(lp281
g0
(g1
g2
(lp282
Vat
p283
atp284
Rp285
(dp286
g11
VIN
p287
sbag0
(g1
g2
(lp288
g0
(g1
g2
(lp289
Vthe
p290
atp291
Rp292
(dp293
g11
VDT
p294
sbag0
(g1
g2
(lp295
Vclown
p296
atp297
Rp298
(dp299
g11
VNN
p300
sbatp301
Rp302
(dp303
g11
VNP
p304
sbatp305
Rp306
(dp307
g11
VPP
p308
sbatp309
Rp310
(dp311
g11
VVP
p312
sbatp313
Rp314
(dp315
g11
VVP
p316
sbag0
(g1
g2
(lp317
V.
p318
atp319
Rp320
(dp321
g11
V.
p322
sbatp323
Rp324
(dp325
g11
VS
p326
sbatp327
Rp328
(dp329
g11
S'id: 2'
p330
sbag0
(g1
g2
(lp331
g0
(g1
g2
(lp332
g0
(g1
g2
(lp333
g0
(g1
g2
(lp334
VInside
p335
atp336
Rp337
(dp338
g11
VIN
p339
sbag0
(g1
g2
(lp340
g0
(g1
g2
(lp341
Vthe
p342
atp343
Rp344
(dp345
g11
VDT
p346
sbag0
(g1
g2
(lp347
Vcage
p348
atp349
Rp350
(dp351
g11
VNN
p352
sbatp353
Rp354
(dp355
g11
VNP
p356
sbatp357
Rp358
(dp359
g11
VPP
p360
sbag0
(g1
g2
(lp361
V,
p362
atp363
Rp364
(dp365
g11
V,
p366
sbag0
(g1
g2
(lp367
g0
(g1
g2
(lp368
g0
(g1
g2
(lp369
Vthere
p370
atp371
Rp372
(dp373
g11
VEX
p374
sbatp375
Rp376
(dp377
g11
VNP
p378
sbag0
(g1
g2
(lp379
g0
(g1
g2
(lp380
V's
p381
atp382
Rp383
(dp384
g11
VVBZ
p385
sbag0
(g1
g2
(lp386
g0
(g1
g2
(lp387
g0
(g1
g2
(lp388
Vthe
p389
atp390
Rp391
(dp392
g11
VDT
p393
sbatp394
Rp395
(dp396
g11
VNP
p397
sbag0
(g1
g2
(lp398
V,
p399
atp400
Rp401
(dp402
g11
V,
p403
sbag0
(g1
g2
(lp404
g0
(g1
g2
(lp405
Va
p406
atp407
Rp408
(dp409
g11
VDT
p410
sbag0
(g1
g2
(lp411
Vlion
p412
atp413
Rp414
(dp415
g11
VNN
p416
sbag0
(g1
g2
(lp417
Vtrainer
p418
atp419
Rp420
(dp421
g11
VNN
p422
sbatp423
Rp424
(dp425
g11
VNP
p426
sbag0
(g1
g2
(lp427
V,
p428
atp429
Rp430
(dp431
g11
V,
p432
sbag0
(g1
g2
(lp433
Vand
p434
atp435
Rp436
(dp437
g11
VCC
p438
sbag0
(g1
g2
(lp439
g0
(g1
g2
(lp440
Vthe
p441
atp442
Rp443
(dp444
g11
VDT
p445
sbag0
(g1
g2
(lp446
Vlion
p447
atp448
Rp449
(dp450
g11
VNN
p451
sbatp452
Rp453
(dp454
g11
VNP
p455
sbatp456
Rp457
(dp458
g11
VNP
p459
sbatp460
Rp461
(dp462
g11
VVP
p463
sbatp464
Rp465
(dp466
g11
VS
p467
sbag0
(g1
g2
(lp468
V,
p469
atp470
Rp471
(dp472
g11
V,
p473
sbag0
(g1
g2
(lp474
Vand
p475
atp476
Rp477
(dp478
g11
VCC
p479
sbag0
(g1
g2
(lp480
g0
(g1
g2
(lp481
g0
(g1
g2
(lp482
Vthe
p483
atp484
Rp485
(dp486
g11
VDT
p487
sbag0
(g1
g2
(lp488
Vlion
p489
atp490
Rp491
(dp492
g11
VNN
p493
sbatp494
Rp495
(dp496
g11
VNP
p497
sbag0
(g1
g2
(lp498
g0
(g1
g2
(lp499
Vis
p500
atp501
Rp502
(dp503
g11
VVBZ
p504
sbag0
(g1
g2
(lp505
g0
(g1
g2
(lp506
Vsitting
p507
atp508
Rp509
(dp510
g11
VVBG
p511
sbag0
(g1
g2
(lp512
g0
(g1
g2
(lp513
Von
p514
atp515
Rp516
(dp517
g11
VIN
p518
sbag0
(g1
g2
(lp519
g0
(g1
g2
(lp520
g0
(g1
g2
(lp521
Vtop
p522
atp523
Rp524
(dp525
g11
VNN
p526
sbatp527
Rp528
(dp529
g11
VNP
p530
sbag0
(g1
g2
(lp531
g0
(g1
g2
(lp532
Vof
p533
atp534
Rp535
(dp536
g11
VIN
p537
sbag0
(g1
g2
(lp538
g0
(g1
g2
(lp539
Va
p540
atp541
Rp542
(dp543
g11
VDT
p544
sbag0
(g1
g2
(lp545
Vbox
p546
atp547
Rp548
(dp549
g11
VNN
p550
sbatp551
Rp552
(dp553
g11
VNP
p554
sbatp555
Rp556
(dp557
g11
VPP
p558
sbatp559
Rp560
(dp561
g11
VNP
p562
sbatp563
Rp564
(dp565
g11
VPP
p566
sbatp567
Rp568
(dp569
g11
VVP
p570
sbatp571
Rp572
(dp573
g11
VVP
p574
sbatp575
Rp576
(dp577
g11
VS
p578
sbag0
(g1
g2
(lp579
V.
p580
atp581
Rp582
(dp583
g11
V.
p584
sbatp585
Rp586
(dp587
g11
VS
p588
sbatp589
Rp590
(dp591
g11
S'id: 3'
p592
sbag0
(g1
g2
(lp593
g0
(g1
g2
(lp594
g0
(g1
g2
(lp595
g0
(g1
g2
(lp596
VThe
p597
atp598
Rp599
(dp600
g11
VDT
p601
sbag0
(g1
g2
(lp602
Vclown
p603
atp604
Rp605
(dp606
g11
VNN
p607
sbatp608
Rp609
(dp610
g11
VNP
p611
sbag0
(g1
g2
(lp612
g0
(g1
g2
(lp613
Vis
p614
atp615
Rp616
(dp617
g11
VVBZ
p618
sbag0
(g1
g2
(lp619
V,
p620
atp621
Rp622
(dp623
g11
V,
p624
sbag0
(g1
g2
(lp625
g0
(g1
g2
(lp626
g0
(g1
g2
(lp627
Vlook
p628
atp629
Rp630
(dp631
g11
VVB
p632
sbag0
(g1
g2
(lp633
g0
(g1
g2
(lp634
Vlike
p635
atp636
Rp637
(dp638
g11
VIN
p639
sbag0
(g1
g2
(lp640
g0
(g1
g2
(lp641
g0
(g1
g2
(lp642
Vthrowing
p643
atp644
Rp645
(dp646
g11
VVBG
p647
sbag0
(g1
g2
(lp648
g0
(g1
g2
(lp649
Vpopcorn
p650
atp651
Rp652
(dp653
g11
VNN
p654
sbag0
(g1
g2
(lp655
Vor
p656
atp657
Rp658
(dp659
g11
VCC
p660
sbag0
(g1
g2
(lp661
Vpotato
p662
atp663
Rp664
(dp665
g11
VNN
p666
sbag0
(g1
g2
(lp667
Vchip
p668
atp669
Rp670
(dp671
g11
VNN
p672
sbatp673
Rp674
(dp675
g11
VNP
p676
sbag0
(g1
g2
(lp677
g0
(g1
g2
(lp678
Vat
p679
atp680
Rp681
(dp682
g11
VIN
p683
sbag0
(g1
g2
(lp684
g0
(g1
g2
(lp685
Vthe
p686
atp687
Rp688
(dp689
g11
VDT
p690
sbag0
(g1
g2
(lp691
Vchildren
p692
atp693
Rp694
(dp695
g11
VNNS
p696
sbatp697
Rp698
(dp699
g11
VNP
p700
sbatp701
Rp702
(dp703
g11
VPP
p704
sbatp705
Rp706
(dp707
g11
VVP
p708
sbatp709
Rp710
(dp711
g11
VS
p712
sbatp713
Rp714
(dp715
g11
VPP
p716
sbatp717
Rp718
(dp719
g11
VVP
p720
sbatp721
Rp722
(dp723
g11
VFRAG
p724
sbatp725
Rp726
(dp727
g11
VVP
p728
sbag0
(g1
g2
(lp729
V.
p730
atp731
Rp732
(dp733
g11
V.
p734
sbatp735
Rp736
(dp737
g11
VS
p738
sbatp739
Rp740
(dp741
g11
S'id: 4'
p742
sbag0
(g1
g2
(lp743
g0
(g1
g2
(lp744
g0
(g1
g2
(lp745
g0
(g1
g2
(lp746
VOn
p747
atp748
Rp749
(dp750
g11
VIN
p751
sbag0
(g1
g2
(lp752
g0
(g1
g2
(lp753
Vthe
p754
atp755
Rp756
(dp757
g11
VDT
p758
sbag0
(g1
g2
(lp759
Vright
p760
atp761
Rp762
(dp763
g11
VNN
p764
sbatp765
Rp766
(dp767
g11
VNP
p768
sbatp769
Rp770
(dp771
g11
VPP
p772
sbag0
(g1
g2
(lp773
V,
p774
atp775
Rp776
(dp777
g11
V,
p778
sbag0
(g1
g2
(lp779
g0
(g1
g2
(lp780
Vlook
p781
atp782
Rp783
(dp784
g11
VVB
p785
sbag0
(g1
g2
(lp786
g0
(g1
g2
(lp787
Vlike
p788
atp789
Rp790
(dp791
g11
VIN
p792
sbag0
(g1
g2
(lp793
g0
(g1
g2
(lp794
g0
(g1
g2
(lp795
Va
p796
atp797
Rp798
(dp799
g11
VDT
p800
sbag0
(g1
g2
(lp801
Vmother
p802
atp803
Rp804
(dp805
g11
VNN
p806
sbatp807
Rp808
(dp809
g11
VNP
p810
sbag0
(g1
g2
(lp811
V,
p812
atp813
Rp814
(dp815
g11
V,
p816
sbag0
(g1
g2
(lp817
g0
(g1
g2
(lp818
Va
p819
atp820
Rp821
(dp822
g11
VDT
p823
sbag0
(g1
g2
(lp824
Vdaughter
p825
atp826
Rp827
(dp828
g11
VNN
p829
sbatp830
Rp831
(dp832
g11
VNP
p833
sbag0
(g1
g2
(lp834
V,
p835
atp836
Rp837
(dp838
g11
V,
p839
sbag0
(g1
g2
(lp840
Vand
p841
atp842
Rp843
(dp844
g11
VCC
p845
sbag0
(g1
g2
(lp846
g0
(g1
g2
(lp847
Vher
p848
atp849
Rp850
(dp851
g11
VPRP$
p852
sbag0
(g1
g2
(lp853
Vson
p854
atp855
Rp856
(dp857
g11
VNN
p858
sbatp859
Rp860
(dp861
g11
VNP
p862
sbatp863
Rp864
(dp865
g11
VNP
p866
sbatp867
Rp868
(dp869
g11
VPP
p870
sbatp871
Rp872
(dp873
g11
VVP
p874
sbag0
(g1
g2
(lp875
V.
p876
atp877
Rp878
(dp879
g11
V.
p880
sbatp881
Rp882
(dp883
g11
VS
p884
sbatp885
Rp886
(dp887
g11
S'id: 5'
p888
sbag0
(g1
g2
(lp889
g0
(g1
g2
(lp890
g0
(g1
g2
(lp891
g0
(g1
g2
(lp892
VThe
p893
atp894
Rp895
(dp896
g11
VDT
p897
sbag0
(g1
g2
(lp898
Vcloud
p899
atp900
Rp901
(dp902
g11
VNN
p903
sbatp904
Rp905
(dp906
g11
VNP
p907
sbag0
(g1
g2
(lp908
g0
(g1
g2
(lp909
Vhas
p910
atp911
Rp912
(dp913
g11
VVBZ
p914
sbag0
(g1
g2
(lp915
g0
(g1
g2
(lp916
g0
(g1
g2
(lp917
Va
p918
atp919
Rp920
(dp921
g11
VDT
p922
sbag0
(g1
g2
(lp923
Vhat
p924
atp925
Rp926
(dp927
g11
VNN
p928
sbatp929
Rp930
(dp931
g11
VNP
p932
sbag0
(g1
g2
(lp933
g0
(g1
g2
(lp934
Von
p935
atp936
Rp937
(dp938
g11
VIN
p939
sbag0
(g1
g2
(lp940
g0
(g1
g2
(lp941
Vhis
p942
atp943
Rp944
(dp945
g11
VPRP$
p946
sbag0
(g1
g2
(lp947
Vhead
p948
atp949
Rp950
(dp951
g11
VNN
p952
sbatp953
Rp954
(dp955
g11
VNP
p956
sbatp957
Rp958
(dp959
g11
VPP
p960
sbatp961
Rp962
(dp963
g11
VNP
p964
sbatp965
Rp966
(dp967
g11
VVP
p968
sbag0
(g1
g2
(lp969
V.
p970
atp971
Rp972
(dp973
g11
V.
p974
sbatp975
Rp976
(dp977
g11
VS
p978
sbatp979
Rp980
(dp981
g11
S'id: 6'
p982
sbag0
(g1
g2
(lp983
g0
(g1
g2
(lp984
g0
(g1
g2
(lp985
g0
(g1
g2
(lp986
VOn
p987
atp988
Rp989
(dp990
g11
VIN
p991
sbag0
(g1
g2
(lp992
g0
(g1
g2
(lp993
Vtop
p994
atp995
Rp996
(dp997
g11
VJJ
p998
sbatp999
Rp1000
(dp1001
g11
VNP
p1002
sbatp1003
Rp1004
(dp1005
g11
VPP
p1006
sbag0
(g1
g2
(lp1007
g0
(g1
g2
(lp1008
Vthere
p1009
atp1010
Rp1011
(dp1012
g11
VEX
p1013
sbatp1014
Rp1015
(dp1016
g11
VNP
p1017
sbag0
(g1
g2
(lp1018
g0
(g1
g2
(lp1019
V's
p1020
atp1021
Rp1022
(dp1023
g11
VVBZ
p1024
sbag0
(g1
g2
(lp1025
g0
(g1
g2
(lp1026
g0
(g1
g2
(lp1027
Va
p1028
atp1029
Rp1030
(dp1031
g11
VDT
p1032
sbag0
(g1
g2
(lp1033
Vman
p1034
atp1035
Rp1036
(dp1037
g11
VNN
p1038
sbatp1039
Rp1040
(dp1041
g11
VNP
p1042
sbag0
(g1
g2
(lp1043
g0
(g1
g2
(lp1044
Vwalking
p1045
atp1046
Rp1047
(dp1048
g11
VVBG
p1049
sbag0
(g1
g2
(lp1050
g0
(g1
g2
(lp1051
Von
p1052
atp1053
Rp1054
(dp1055
g11
VIN
p1056
sbag0
(g1
g2
(lp1057
g0
(g1
g2
(lp1058
Va
p1059
atp1060
Rp1061
(dp1062
g11
VDT
p1063
sbag0
(g1
g2
(lp1064
Vtightrope
p1065
atp1066
Rp1067
(dp1068
g11
VNN
p1069
sbatp1070
Rp1071
(dp1072
g11
VNP
p1073
sbatp1074
Rp1075
(dp1076
g11
VPP
p1077
sbatp1078
Rp1079
(dp1080
g11
VVP
p1081
sbatp1082
Rp1083
(dp1084
g11
VNP
p1085
sbatp1086
Rp1087
(dp1088
g11
VVP
p1089
sbag0
(g1
g2
(lp1090
V.
p1091
atp1092
Rp1093
(dp1094
g11
V.
p1095
sbatp1096
Rp1097
(dp1098
g11
VS
p1099
sbatp1100
Rp1101
(dp1102
g11
S'id: 7'
p1103
sbag0
(g1
g2
(lp1104
g0
(g1
g2
(lp1105
g0
(g1
g2
(lp1106
g0
(g1
g2
(lp1107
VAnd
p1108
atp1109
Rp1110
(dp1111
g11
VCC
p1112
sbag0
(g1
g2
(lp1113
g0
(g1
g2
(lp1114
Vthere
p1115
atp1116
Rp1117
(dp1118
g11
VEX
p1119
sbatp1120
Rp1121
(dp1122
g11
VNP
p1123
sbag0
(g1
g2
(lp1124
g0
(g1
g2
(lp1125
V's
p1126
atp1127
Rp1128
(dp1129
g11
VVBZ
p1130
sbag0
(g1
g2
(lp1131
g0
(g1
g2
(lp1132
g0
(g1
g2
(lp1133
Va
p1134
atp1135
Rp1136
(dp1137
g11
VDT
p1138
sbag0
(g1
g2
(lp1139
Vlady
p1140
atp1141
Rp1142
(dp1143
g11
VNN
p1144
sbatp1145
Rp1146
(dp1147
g11
VNP
p1148
sbag0
(g1
g2
(lp1149
g0
(g1
g2
(lp1150
Vat
p1151
atp1152
Rp1153
(dp1154
g11
VIN
p1155
sbag0
(g1
g2
(lp1156
g0
(g1
g2
(lp1157
g0
(g1
g2
(lp1158
Vthe
p1159
atp1160
Rp1161
(dp1162
g11
VDT
p1163
sbag0
(g1
g2
(lp1164
Vnext
p1165
atp1166
Rp1167
(dp1168
g11
VJJ
p1169
sbag0
(g1
g2
(lp1170
Vrings
p1171
atp1172
Rp1173
(dp1174
g11
VNNS
p1175
sbatp1176
Rp1177
(dp1178
g11
VNP
p1179
sbag0
(g1
g2
(lp1180
g0
(g1
g2
(lp1181
g0
(g1
g2
(lp1182
Vwho
p1183
atp1184
Rp1185
(dp1186
g11
VWP
p1187
sbatp1188
Rp1189
(dp1190
g11
VWHNP
p1191
sbag0
(g1
g2
(lp1192
g0
(g1
g2
(lp1193
g0
(g1
g2
(lp1194
V's
p1195
atp1196
Rp1197
(dp1198
g11
VVBZ
p1199
sbag0
(g1
g2
(lp1200
g0
(g1
g2
(lp1201
Vriding
p1202
atp1203
Rp1204
(dp1205
g11
VVBG
p1206
sbag0
(g1
g2
(lp1207
g0
(g1
g2
(lp1208
Va
p1209
atp1210
Rp1211
(dp1212
g11
VDT
p1213
sbag0
(g1
g2
(lp1214
Vhorse
p1215
atp1216
Rp1217
(dp1218
g11
VNN
p1219
sbatp1220
Rp1221
(dp1222
g11
VNP
p1223
sbatp1224
Rp1225
(dp1226
g11
VVP
p1227
sbatp1228
Rp1229
(dp1230
g11
VVP
p1231
sbatp1232
Rp1233
(dp1234
g11
VS
p1235
sbatp1236
Rp1237
(dp1238
g11
VSBAR
p1239
sbatp1240
Rp1241
(dp1242
g11
VNP
p1243
sbatp1244
Rp1245
(dp1246
g11
VPP
p1247
sbatp1248
Rp1249
(dp1250
g11
VNP
p1251
sbatp1252
Rp1253
(dp1254
g11
VVP
p1255
sbatp1256
Rp1257
(dp1258
g11
VS
p1259
sbag0
(g1
g2
(lp1260
V,
p1261
atp1262
Rp1263
(dp1264
g11
V,
p1265
sbag0
(g1
g2
(lp1266
g0
(g1
g2
(lp1267
Vher
p1268
atp1269
Rp1270
(dp1271
g11
VPRP$
p1272
sbag0
(g1
g2
(lp1273
Vhand
p1274
atp1275
Rp1276
(dp1277
g11
VNN
p1278
sbatp1279
Rp1280
(dp1281
g11
VNP
p1282
sbag0
(g1
g2
(lp1283
g0
(g1
g2
(lp1284
Vis
p1285
atp1286
Rp1287
(dp1288
g11
VVBZ
p1289
sbag0
(g1
g2
(lp1290
g0
(g1
g2
(lp1291
Vstretched
p1292
atp1293
Rp1294
(dp1295
g11
VVBN
p1296
sbag0
(g1
g2
(lp1297
g0
(g1
g2
(lp1298
Vout
p1299
atp1300
Rp1301
(dp1302
g11
VIN
p1303
sbag0
(g1
g2
(lp1304
g0
(g1
g2
(lp1305
g0
(g1
g2
(lp1306
Vwhere
p1307
atp1308
Rp1309
(dp1310
g11
VWRB
p1311
sbatp1312
Rp1313
(dp1314
g11
VWHADVP
p1315
sbag0
(g1
g2
(lp1316
g0
(g1
g2
(lp1317
g0
(g1
g2
(lp1318
Vshe
p1319
atp1320
Rp1321
(dp1322
g11
VPRP
p1323
sbatp1324
Rp1325
(dp1326
g11
VNP
p1327
sbag0
(g1
g2
(lp1328
g0
(g1
g2
(lp1329
V's
p1330
atp1331
Rp1332
(dp1333
g11
VVBZ
p1334
sbag0
(g1
g2
(lp1335
g0
(g1
g2
(lp1336
Vkeeping
p1337
atp1338
Rp1339
(dp1340
g11
VVBG
p1341
sbag0
(g1
g2
(lp1342
g0
(g1
g2
(lp1343
Vher
p1344
atp1345
Rp1346
(dp1347
g11
VPRP$
p1348
sbag0
(g1
g2
(lp1349
Vbalance
p1350
atp1351
Rp1352
(dp1353
g11
VNN
p1354
sbatp1355
Rp1356
(dp1357
g11
VNP
p1358
sbatp1359
Rp1360
(dp1361
g11
VVP
p1362
sbatp1363
Rp1364
(dp1365
g11
VVP
p1366
sbatp1367
Rp1368
(dp1369
g11
VS
p1370
sbatp1371
Rp1372
(dp1373
g11
VSBAR
p1374
sbatp1375
Rp1376
(dp1377
g11
VPP
p1378
sbatp1379
Rp1380
(dp1381
g11
VVP
p1382
sbatp1383
Rp1384
(dp1385
g11
VVP
p1386
sbag0
(g1
g2
(lp1387
V.
p1388
atp1389
Rp1390
(dp1391
g11
V.
p1392
sbatp1393
Rp1394
(dp1395
g11
VS
p1396
sbatp1397
Rp1398
(dp1399
g11
S'id: 8'
p1400
sbag0
(g1
g2
(lp1401
g0
(g1
g2
(lp1402
g0
(g1
g2
(lp1403
g0
(g1
g2
(lp1404
VThere
p1405
atp1406
Rp1407
(dp1408
g11
VEX
p1409
sbatp1410
Rp1411
(dp1412
g11
VNP
p1413
sbag0
(g1
g2
(lp1414
g0
(g1
g2
(lp1415
Vare
p1416
atp1417
Rp1418
(dp1419
g11
VVBP
p1420
sbag0
(g1
g2
(lp1421
g0
(g1
g2
(lp1422
g0
(g1
g2
(lp1423
Vone
p1424
atp1425
Rp1426
(dp1427
g11
VCD
p1428
sbag0
(g1
g2
(lp1429
V,
p1430
atp1431
Rp1432
(dp1433
g11
V,
p1434
sbag0
(g1
g2
(lp1435
Vtwo
p1436
atp1437
Rp1438
(dp1439
g11
VCD
p1440
sbag0
(g1
g2
(lp1441
V,
p1442
atp1443
Rp1444
(dp1445
g11
V,
p1446
sbag0
(g1
g2
(lp1447
Vthree
p1448
atp1449
Rp1450
(dp1451
g11
VCD
p1452
sbag0
(g1
g2
(lp1453
V,
p1454
atp1455
Rp1456
(dp1457
g11
V,
p1458
sbag0
(g1
g2
(lp1459
Vfour
p1460
atp1461
Rp1462
(dp1463
g11
VCD
p1464
sbag0
(g1
g2
(lp1465
V,
p1466
atp1467
Rp1468
(dp1469
g11
V,
p1470
sbag0
(g1
g2
(lp1471
Vfive
p1472
atp1473
Rp1474
(dp1475
g11
VCD
p1476
sbag0
(g1
g2
(lp1477
V,
p1478
atp1479
Rp1480
(dp1481
g11
V,
p1482
sbag0
(g1
g2
(lp1483
Vmaybe
p1484
atp1485
Rp1486
(dp1487
g11
VRB
p1488
sbag0
(g1
g2
(lp1489
Vsix
p1490
atp1491
Rp1492
(dp1493
g11
VCD
p1494
sbag0
(g1
g2
(lp1495
Vpeople
p1496
atp1497
Rp1498
(dp1499
g11
VNNS
p1500
sbatp1501
Rp1502
(dp1503
g11
VNP
p1504
sbag0
(g1
g2
(lp1505
g0
(g1
g2
(lp1506
Vwatching
p1507
atp1508
Rp1509
(dp1510
g11
VVBG
p1511
sbag0
(g1
g2
(lp1512
g0
(g1
g2
(lp1513
Vher
p1514
atp1515
Rp1516
(dp1517
g11
VPRP$
p1518
sbatp1519
Rp1520
(dp1521
g11
VNP
p1522
sbag0
(g1
g2
(lp1523
g0
(g1
g2
(lp1524
Von
p1525
atp1526
Rp1527
(dp1528
g11
VIN
p1529
sbag0
(g1
g2
(lp1530
g0
(g1
g2
(lp1531
Vthe
p1532
atp1533
Rp1534
(dp1535
g11
VDT
p1536
sbag0
(g1
g2
(lp1537
g0
(g1
g2
(lp1538
V,
p1539
atp1540
Rp1541
(dp1542
g11
V,
p1543
sbag0
(g1
g2
(lp1544
Von
p1545
atp1546
Rp1547
(dp1548
g11
VIN
p1549
sbag0
(g1
g2
(lp1550
Vthe
p1551
atp1552
Rp1553
(dp1554
g11
VDT
p1555
sbag0
(g1
g2
(lp1556
V,
p1557
atp1558
Rp1559
(dp1560
g11
V,
p1561
sbatp1562
Rp1563
(dp1564
g11
VPRN
p1565
sbatp1566
Rp1567
(dp1568
g11
VNP
p1569
sbatp1570
Rp1571
(dp1572
g11
VPP
p1573
sbag0
(g1
g2
(lp1574
g0
(g1
g2
(lp1575
Von
p1576
atp1577
Rp1578
(dp1579
g11
VIN
p1580
sbag0
(g1
g2
(lp1581
g0
(g1
g2
(lp1582
Vthe
p1583
atp1584
Rp1585
(dp1586
g11
VDT
p1587
sbag0
(g1
g2
(lp1588
Vhorse
p1589
atp1590
Rp1591
(dp1592
g11
VNN
p1593
sbatp1594
Rp1595
(dp1596
g11
VNP
p1597
sbatp1598
Rp1599
(dp1600
g11
VPP
p1601
sbatp1602
Rp1603
(dp1604
g11
VVP
p1605
sbatp1606
Rp1607
(dp1608
g11
VNP
p1609
sbatp1610
Rp1611
(dp1612
g11
VVP
p1613
sbag0
(g1
g2
(lp1614
V.
p1615
atp1616
Rp1617
(dp1618
g11
V.
p1619
sbatp1620
Rp1621
(dp1622
g11
VS
p1623
sbatp1624
Rp1625
(dp1626
g11
S'id: 9'
p1627
sbag0
(g1
g2
(lp1628
g0
(g1
g2
(lp1629
g0
(g1
g2
(lp1630
g0
(g1
g2
(lp1631
g0
(g1
g2
(lp1632
VThe
p1633
atp1634
Rp1635
(dp1636
g11
VDT
p1637
sbag0
(g1
g2
(lp1638
Vclown
p1639
atp1640
Rp1641
(dp1642
g11
VNN
p1643
sbatp1644
Rp1645
(dp1646
g11
VNP
p1647
sbag0
(g1
g2
(lp1648
g0
(g1
g2
(lp1649
Vhas
p1650
atp1651
Rp1652
(dp1653
g11
VVBZ
p1654
sbag0
(g1
g2
(lp1655
g0
(g1
g2
(lp1656
Va
p1657
atp1658
Rp1659
(dp1660
g11
VDT
p1661
sbag0
(g1
g2
(lp1662
Vrib
p1663
atp1664
Rp1665
(dp1666
g11
VNN
p1667
sbatp1668
Rp1669
(dp1670
g11
VNP
p1671
sbatp1672
Rp1673
(dp1674
g11
VVP
p1675
sbatp1676
Rp1677
(dp1678
g11
VS
p1679
sbag0
(g1
g2
(lp1680
V,
p1681
atp1682
Rp1683
(dp1684
g11
V,
p1685
sbag0
(g1
g2
(lp1686
g0
(g1
g2
(lp1687
Vthe
p1688
atp1689
Rp1690
(dp1691
g11
VDT
p1692
sbag0
(g1
g2
(lp1693
Vclown
p1694
atp1695
Rp1696
(dp1697
g11
VNN
p1698
sbatp1699
Rp1700
(dp1701
g11
VNP
p1702
sbag0
(g1
g2
(lp1703
g0
(g1
g2
(lp1704
Vhas
p1705
atp1706
Rp1707
(dp1708
g11
VVBZ
p1709
sbag0
(g1
g2
(lp1710
g0
(g1
g2
(lp1711
g0
(g1
g2
(lp1712
Va
p1713
atp1714
Rp1715
(dp1716
g11
VDT
p1717
sbag0
(g1
g2
(lp1718
Vflower
p1719
atp1720
Rp1721
(dp1722
g11
VNN
p1723
sbatp1724
Rp1725
(dp1726
g11
VNP
p1727
sbag0
(g1
g2
(lp1728
g0
(g1
g2
(lp1729
Vin
p1730
atp1731
Rp1732
(dp1733
g11
VIN
p1734
sbag0
(g1
g2
(lp1735
g0
(g1
g2
(lp1736
Vhis
p1737
atp1738
Rp1739
(dp1740
g11
VPRP$
p1741
sbag0
(g1
g2
(lp1742
Vhat
p1743
atp1744
Rp1745
(dp1746
g11
VNN
p1747
sbatp1748
Rp1749
(dp1750
g11
VNP
p1751
sbatp1752
Rp1753
(dp1754
g11
VPP
p1755
sbatp1756
Rp1757
(dp1758
g11
VNP
p1759
sbatp1760
Rp1761
(dp1762
g11
VVP
p1763
sbag0
(g1
g2
(lp1764
V.
p1765
atp1766
Rp1767
(dp1768
g11
V.
p1769
sbatp1770
Rp1771
(dp1772
g11
VS
p1773
sbatp1774
Rp1775
(dp1776
g11
S'id: 10'
p1777
sbag0
(g1
g2
(lp1778
g0
(g1
g2
(lp1779
g0
(g1
g2
(lp1780
g0
(g1
g2
(lp1781
g0
(g1
g2
(lp1782
VThe
p1783
atp1784
Rp1785
(dp1786
g11
VDT
p1787
sbag0
(g1
g2
(lp1788
g0
(g1
g2
(lp1789
Vlittle
p1790
atp1791
Rp1792
(dp1793
g11
VJJ
p1794
sbag0
(g1
g2
(lp1795
Vgirl
p1796
atp1797
Rp1798
(dp1799
g11
VNN
p1800
sbag0
(g1
g2
(lp1801
V's
p1802
atp1803
Rp1804
(dp1805
g11
VPOS
p1806
sbatp1807
Rp1808
(dp1809
g11
VNP
p1810
sbatp1811
Rp1812
(dp1813
g11
VNP
p1814
sbag0
(g1
g2
(lp1815
g0
(g1
g2
(lp1816
Vpointing
p1817
atp1818
Rp1819
(dp1820
g11
VVBG
p1821
sbag0
(g1
g2
(lp1822
g0
(g1
g2
(lp1823
Vat
p1824
atp1825
Rp1826
(dp1827
g11
VIN
p1828
sbag0
(g1
g2
(lp1829
g0
(g1
g2
(lp1830
g0
(g1
g2
(lp1831
g0
(g1
g2
(lp1832
Vthe
p1833
atp1834
Rp1835
(dp1836
g11
VDT
p1837
sbag0
(g1
g2
(lp1838
Vclown
p1839
atp1840
Rp1841
(dp1842
g11
VNN
p1843
sbatp1844
Rp1845
(dp1846
g11
VNP
p1847
sbag0
(g1
g2
(lp1848
V,
p1849
atp1850
Rp1851
(dp1852
g11
V,
p1853
sbag0
(g1
g2
(lp1854
g0
(g1
g2
(lp1855
Vthe
p1856
atp1857
Rp1858
(dp1859
g11
VDT
p1860
sbag0
(g1
g2
(lp1861
Vblack
p1862
atp1863
Rp1864
(dp1865
g11
VJJ
p1866
sbag0
(g1
g2
(lp1867
Vgirl
p1868
atp1869
Rp1870
(dp1871
g11
VNN
p1872
sbag0
(g1
g2
(lp1873
V's
p1874
atp1875
Rp1876
(dp1877
g11
VPOS
p1878
sbatp1879
Rp1880
(dp1881
g11
VNP
p1882
sbatp1883
Rp1884
(dp1885
g11
VNP
p1886
sbag0
(g1
g2
(lp1887
g0
(g1
g2
(lp1888
Vpointing
p1889
atp1890
Rp1891
(dp1892
g11
VVBG
p1893
sbag0
(g1
g2
(lp1894
g0
(g1
g2
(lp1895
Vat
p1896
atp1897
Rp1898
(dp1899
g11
VIN
p1900
sbag0
(g1
g2
(lp1901
g0
(g1
g2
(lp1902
Vthe
p1903
atp1904
Rp1905
(dp1906
g11
VDT
p1907
sbag0
(g1
g2
(lp1908
Vclown
p1909
atp1910
Rp1911
(dp1912
g11
VNN
p1913
sbatp1914
Rp1915
(dp1916
g11
VNP
p1917
sbatp1918
Rp1919
(dp1920
g11
VPP
p1921
sbatp1922
Rp1923
(dp1924
g11
VVP
p1925
sbatp1926
Rp1927
(dp1928
g11
VS
p1929
sbatp1930
Rp1931
(dp1932
g11
VPP
p1933
sbatp1934
Rp1935
(dp1936
g11
VVP
p1937
sbatp1938
Rp1939
(dp1940
g11
VNP
p1941
sbag0
(g1
g2
(lp1942
V,
p1943
atp1944
Rp1945
(dp1946
g11
V,
p1947
sbag0
(g1
g2
(lp1948
g0
(g1
g2
(lp1949
Vshe
p1950
atp1951
Rp1952
(dp1953
g11
VPRP
p1954
sbatp1955
Rp1956
(dp1957
g11
VNP
p1958
sbag0
(g1
g2
(lp1959
g0
(g1
g2
(lp1960
Vhas
p1961
atp1962
Rp1963
(dp1964
g11
VVBZ
p1965
sbag0
(g1
g2
(lp1966
g0
(g1
g2
(lp1967
g0
(g1
g2
(lp1968
Vbows
p1969
atp1970
Rp1971
(dp1972
g11
VNNS
p1973
sbatp1974
Rp1975
(dp1976
g11
VNP
p1977
sbag0
(g1
g2
(lp1978
g0
(g1
g2
(lp1979
Vin
p1980
atp1981
Rp1982
(dp1983
g11
VIN
p1984
sbag0
(g1
g2
(lp1985
g0
(g1
g2
(lp1986
Vher
p1987
atp1988
Rp1989
(dp1990
g11
VPRP$
p1991
sbag0
(g1
g2
(lp1992
Vhair
p1993
atp1994
Rp1995
(dp1996
g11
VNN
p1997
sbatp1998
Rp1999
(dp2000
g11
VNP
p2001
sbatp2002
Rp2003
(dp2004
g11
VPP
p2005
sbatp2006
Rp2007
(dp2008
g11
VNP
p2009
sbatp2010
Rp2011
(dp2012
g11
VVP
p2013
sbag0
(g1
g2
(lp2014
V.
p2015
atp2016
Rp2017
(dp2018
g11
V.
p2019
sbatp2020
Rp2021
(dp2022
g11
VS
p2023
sbatp2024
Rp2025
(dp2026
g11
S'id: 11'
p2027
sbag0
(g1
g2
(lp2028
g0
(g1
g2
(lp2029
g0
(g1
g2
(lp2030
g0
(g1
g2
(lp2031
g0
(g1
g2
(lp2032
VThe
p2033
atp2034
Rp2035
(dp2036
g11
VDT
p2037
sbag0
(g1
g2
(lp2038
Vlittle
p2039
atp2040
Rp2041
(dp2042
g11
VJJ
p2043
sbag0
(g1
g2
(lp2044
Vboy
p2045
atp2046
Rp2047
(dp2048
g11
VNN
p2049
sbatp2050
Rp2051
(dp2052
g11
VNP
p2053
sbag0
(g1
g2
(lp2054
g0
(g1
g2
(lp2055
g0
(g1
g2
(lp2056
Vwho
p2057
atp2058
Rp2059
(dp2060
g11
VWP
p2061
sbatp2062
Rp2063
(dp2064
g11
VWHNP
p2065
sbag0
(g1
g2
(lp2066
g0
(g1
g2
(lp2067
g0
(g1
g2
(lp2068
V's
p2069
atp2070
Rp2071
(dp2072
g11
VVBZ
p2073
sbag0
(g1
g2
(lp2074
g0
(g1
g2
(lp2075
g0
(g1
g2
(lp2076
Vtrying
p2077
atp2078
Rp2079
(dp2080
g11
VVBG
p2081
sbag0
(g1
g2
(lp2082
g0
(g1
g2
(lp2083
g0
(g1
g2
(lp2084
Vto
p2085
atp2086
Rp2087
(dp2088
g11
VTO
p2089
sbag0
(g1
g2
(lp2090
g0
(g1
g2
(lp2091
Vlook
p2092
atp2093
Rp2094
(dp2095
g11
VVB
p2096
sbag0
(g1
g2
(lp2097
g0
(g1
g2
(lp2098
Vlike
p2099
atp2100
Rp2101
(dp2102
g11
VIN
p2103
sbatp2104
Rp2105
(dp2106
g11
VPP
p2107
sbatp2108
Rp2109
(dp2110
g11
VVP
p2111
sbatp2112
Rp2113
(dp2114
g11
VVP
p2115
sbatp2116
Rp2117
(dp2118
g11
VS
p2119
sbatp2120
Rp2121
(dp2122
g11
VVP
p2123
sbag0
(g1
g2
(lp2124
V,
p2125
atp2126
Rp2127
(dp2128
g11
V,
p2129
sbag0
(g1
g2
(lp2130
g0
(g1
g2
(lp2131
Vtrying
p2132
atp2133
Rp2134
(dp2135
g11
VVBG
p2136
sbag0
(g1
g2
(lp2137
g0
(g1
g2
(lp2138
g0
(g1
g2
(lp2139
Vto
p2140
atp2141
Rp2142
(dp2143
g11
VTO
p2144
sbag0
(g1
g2
(lp2145
g0
(g1
g2
(lp2146
Vcatch
p2147
atp2148
Rp2149
(dp2150
g11
VVB
p2151
sbag0
(g1
g2
(lp2152
g0
(g1
g2
(lp2153
Vthe
p2154
atp2155
Rp2156
(dp2157
g11
VDT
p2158
sbag0
(g1
g2
(lp2159
Vpopcorn
p2160
atp2161
Rp2162
(dp2163
g11
VNN
p2164
sbatp2165
Rp2166
(dp2167
g11
VNP
p2168
sbag0
(g1
g2
(lp2169
g0
(g1
g2
(lp2170
Vfrom
p2171
atp2172
Rp2173
(dp2174
g11
VIN
p2175
sbag0
(g1
g2
(lp2176
g0
(g1
g2
(lp2177
Vthe
p2178
atp2179
Rp2180
(dp2181
g11
VDT
p2182
sbag0
(g1
g2
(lp2183
Vclown
p2184
atp2185
Rp2186
(dp2187
g11
VNN
p2188
sbatp2189
Rp2190
(dp2191
g11
VNP
p2192
sbatp2193
Rp2194
(dp2195
g11
VPP
p2196
sbatp2197
Rp2198
(dp2199
g11
VVP
p2200
sbatp2201
Rp2202
(dp2203
g11
VVP
p2204
sbatp2205
Rp2206
(dp2207
g11
VS
p2208
sbatp2209
Rp2210
(dp2211
g11
VVP
p2212
sbatp2213
Rp2214
(dp2215
g11
VVP
p2216
sbatp2217
Rp2218
(dp2219
g11
VVP
p2220
sbatp2221
Rp2222
(dp2223
g11
VS
p2224
sbatp2225
Rp2226
(dp2227
g11
VSBAR
p2228
sbatp2229
Rp2230
(dp2231
g11
VNP
p2232
sbag0
(g1
g2
(lp2233
g0
(g1
g2
(lp2234
Vis
p2235
atp2236
Rp2237
(dp2238
g11
VVBZ
p2239
sbag0
(g1
g2
(lp2240
g0
(g1
g2
(lp2241
Vthrowing
p2242
atp2243
Rp2244
(dp2245
g11
VVBG
p2246
sbag0
(g1
g2
(lp2247
g0
(g1
g2
(lp2248
Vat
p2249
atp2250
Rp2251
(dp2252
g11
VIN
p2253
sbag0
(g1
g2
(lp2254
g0
(g1
g2
(lp2255
Vthem
p2256
atp2257
Rp2258
(dp2259
g11
VPRP
p2260
sbatp2261
Rp2262
(dp2263
g11
VNP
p2264
sbatp2265
Rp2266
(dp2267
g11
VPP
p2268
sbatp2269
Rp2270
(dp2271
g11
VVP
p2272
sbatp2273
Rp2274
(dp2275
g11
VVP
p2276
sbag0
(g1
g2
(lp2277
V.
p2278
atp2279
Rp2280
(dp2281
g11
V.
p2282
sbatp2283
Rp2284
(dp2285
g11
VS
p2286
sbatp2287
Rp2288
(dp2289
g11
S'id: 12'
p2290
sbag0
(g1
g2
(lp2291
g0
(g1
g2
(lp2292
g0
(g1
g2
(lp2293
g0
(g1
g2
(lp2294
g0
(g1
g2
(lp2295
VThe
p2296
atp2297
Rp2298
(dp2299
g11
VDT
p2300
sbag0
(g1
g2
(lp2301
Vclown
p2302
atp2303
Rp2304
(dp2305
g11
VNN
p2306
sbag0
(g1
g2
(lp2307
Vtie
p2308
atp2309
Rp2310
(dp2311
g11
VNN
p2312
sbatp2313
Rp2314
(dp2315
g11
VNP
p2316
sbag0
(g1
g2
(lp2317
g0
(g1
g2
(lp2318
Vhas
p2319
atp2320
Rp2321
(dp2322
g11
VVBZ
p2323
sbag0
(g1
g2
(lp2324
g0
(g1
g2
(lp2325
g0
(g1
g2
(lp2326
Vflowers
p2327
atp2328
Rp2329
(dp2330
g11
VNNS
p2331
sbatp2332
Rp2333
(dp2334
g11
VNP
p2335
sbag0
(g1
g2
(lp2336
g0
(g1
g2
(lp2337
Von
p2338
atp2339
Rp2340
(dp2341
g11
VIN
p2342
sbag0
(g1
g2
(lp2343
g0
(g1
g2
(lp2344
Vit
p2345
atp2346
Rp2347
(dp2348
g11
VPRP
p2349
sbatp2350
Rp2351
(dp2352
g11
VNP
p2353
sbatp2354
Rp2355
(dp2356
g11
VPP
p2357
sbatp2358
Rp2359
(dp2360
g11
VNP
p2361
sbatp2362
Rp2363
(dp2364
g11
VVP
p2365
sbatp2366
Rp2367
(dp2368
g11
VS
p2369
sbag0
(g1
g2
(lp2370
V,
p2371
atp2372
Rp2373
(dp2374
g11
V,
p2375
sbag0
(g1
g2
(lp2376
g0
(g1
g2
(lp2377
Vhe
p2378
atp2379
Rp2380
(dp2381
g11
VPRP
p2382
sbatp2383
Rp2384
(dp2385
g11
VNP
p2386
sbag0
(g1
g2
(lp2387
g0
(g1
g2
(lp2388
Vhas
p2389
atp2390
Rp2391
(dp2392
g11
VVBZ
p2393
sbag0
(g1
g2
(lp2394
g0
(g1
g2
(lp2395
Vstriped
p2396
atp2397
Rp2398
(dp2399
g11
VJJ
p2400
sbag0
(g1
g2
(lp2401
Vpants
p2402
atp2403
Rp2404
(dp2405
g11
VNNS
p2406
sbatp2407
Rp2408
(dp2409
g11
VNP
p2410
sbatp2411
Rp2412
(dp2413
g11
VVP
p2414
sbag0
(g1
g2
(lp2415
V.
p2416
atp2417
Rp2418
(dp2419
g11
V.
p2420
sbatp2421
Rp2422
(dp2423
g11
VS
p2424
sbatp2425
Rp2426
(dp2427
g11
S'id: 13'
p2428
sbag0
(g1
g2
(lp2429
g0
(g1
g2
(lp2430
g0
(g1
g2
(lp2431
g0
(g1
g2
(lp2432
g0
(g1
g2
(lp2433
VThe
p2434
atp2435
Rp2436
(dp2437
g11
VDT
p2438
sbag0
(g1
g2
(lp2439
Vlady
p2440
atp2441
Rp2442
(dp2443
g11
VNN
p2444
sbatp2445
Rp2446
(dp2447
g11
VNP
p2448
sbag0
(g1
g2
(lp2449
g0
(g1
g2
(lp2450
g0
(g1
g2
(lp2451
g0
(g1
g2
(lp2452
Von
p2453
atp2454
Rp2455
(dp2456
g11
VIN
p2457
sbag0
(g1
g2
(lp2458
g0
(g1
g2
(lp2459
Vthe
p2460
atp2461
Rp2462
(dp2463
g11
VDT
p2464
sbag0
(g1
g2
(lp2465
Vleh/right
p2466
atp2467
Rp2468
(dp2469
g11
VNN
p2470
sbatp2471
Rp2472
(dp2473
g11
VNP
p2474
sbatp2475
Rp2476
(dp2477
g11
VPP
p2478
sbag0
(g1
g2
(lp2479
V,
p2480
atp2481
Rp2482
(dp2483
g11
V,
p2484
sbag0
(g1
g2
(lp2485
g0
(g1
g2
(lp2486
Vshe
p2487
atp2488
Rp2489
(dp2490
g11
VPRP
p2491
sbatp2492
Rp2493
(dp2494
g11
VNP
p2495
sbag0
(g1
g2
(lp2496
g0
(g1
g2
(lp2497
Vhas
p2498
atp2499
Rp2500
(dp2501
g11
VVBZ
p2502
sbag0
(g1
g2
(lp2503
g0
(g1
g2
(lp2504
Va
p2505
atp2506
Rp2507
(dp2508
g11
VDT
p2509
sbag0
(g1
g2
(lp2510
Vdress
p2511
atp2512
Rp2513
(dp2514
g11
VNN
p2515
sbag0
(g1
g2
(lp2516
Vor
p2517
atp2518
Rp2519
(dp2520
g11
VCC
p2521
sbag0
(g1
g2
(lp2522
Vshirt
p2523
atp2524
Rp2525
(dp2526
g11
VNN
p2527
sbatp2528
Rp2529
(dp2530
g11
VNP
p2531
sbag0
(g1
g2
(lp2532
g0
(g1
g2
(lp2533
Von
p2534
atp2535
Rp2536
(dp2537
g11
VIN
p2538
sbatp2539
Rp2540
(dp2541
g11
VPP
p2542
sbatp2543
Rp2544
(dp2545
g11
VVP
p2546
sbatp2547
Rp2548
(dp2549
g11
VS
p2550
sbatp2551
Rp2552
(dp2553
g11
VSBAR
p2554
sbatp2555
Rp2556
(dp2557
g11
VNP-TMP
p2558
sbag0
(g1
g2
(lp2559
V,
p2560
atp2561
Rp2562
(dp2563
g11
V,
p2564
sbag0
(g1
g2
(lp2565
g0
(g1
g2
(lp2566
Vlook
p2567
atp2568
Rp2569
(dp2570
g11
VVB
p2571
sbag0
(g1
g2
(lp2572
g0
(g1
g2
(lp2573
Vlike
p2574
atp2575
Rp2576
(dp2577
g11
VIN
p2578
sbag0
(g1
g2
(lp2579
g0
(g1
g2
(lp2580
g0
(g1
g2
(lp2581
Vbirds
p2582
atp2583
Rp2584
(dp2585
g11
VNNS
p2586
sbatp2587
Rp2588
(dp2589
g11
VNP
p2590
sbag0
(g1
g2
(lp2591
g0
(g1
g2
(lp2592
Vflying
p2593
atp2594
Rp2595
(dp2596
g11
VVBG
p2597
sbag0
(g1
g2
(lp2598
g0
(g1
g2
(lp2599
Von
p2600
atp2601
Rp2602
(dp2603
g11
VIN
p2604
sbag0
(g1
g2
(lp2605
g0
(g1
g2
(lp2606
Vit
p2607
atp2608
Rp2609
(dp2610
g11
VPRP
p2611
sbatp2612
Rp2613
(dp2614
g11
VNP
p2615
sbatp2616
Rp2617
(dp2618
g11
VPP
p2619
sbatp2620
Rp2621
(dp2622
g11
VVP
p2623
sbatp2624
Rp2625
(dp2626
g11
VNP
p2627
sbatp2628
Rp2629
(dp2630
g11
VPP
p2631
sbatp2632
Rp2633
(dp2634
g11
VVP
p2635
sbag0
(g1
g2
(lp2636
V.
p2637
atp2638
Rp2639
(dp2640
g11
V.
p2641
sbatp2642
Rp2643
(dp2644
g11
VS
p2645
sbatp2646
Rp2647
(dp2648
g11
S'id: 14'
p2649
sbag0
(g1
g2
(lp2650
g0
(g1
g2
(lp2651
g0
(g1
g2
(lp2652
g0
(g1
g2
(lp2653
g0
(g1
g2
(lp2654
VThe
p2655
atp2656
Rp2657
(dp2658
g11
VDT
p2659
sbag0
(g1
g2
(lp2660
Vlady
p2661
atp2662
Rp2663
(dp2664
g11
VNN
p2665
sbatp2666
Rp2667
(dp2668
g11
VNP
p2669
sbag0
(g1
g2
(lp2670
g0
(g1
g2
(lp2671
Vriding
p2672
atp2673
Rp2674
(dp2675
g11
VVBG
p2676
sbag0
(g1
g2
(lp2677
g0
(g1
g2
(lp2678
Vthe
p2679
atp2680
Rp2681
(dp2682
g11
VDT
p2683
sbag0
(g1
g2
(lp2684
Vhorse
p2685
atp2686
Rp2687
(dp2688
g11
VNN
p2689
sbatp2690
Rp2691
(dp2692
g11
VNP
p2693
sbatp2694
Rp2695
(dp2696
g11
VVP
p2697
sbatp2698
Rp2699
(dp2700
g11
VNP
p2701
sbag0
(g1
g2
(lp2702
g0
(g1
g2
(lp2703
Vhas
p2704
atp2705
Rp2706
(dp2707
g11
VVBZ
p2708
sbag0
(g1
g2
(lp2709
g0
(g1
g2
(lp2710
Va
p2711
atp2712
Rp2713
(dp2714
g11
VDT
p2715
sbag0
(g1
g2
(lp2716
Vtutu
p2717
atp2718
Rp2719
(dp2720
g11
VNN
p2721
sbatp2722
Rp2723
(dp2724
g11
VNP
p2725
sbag0
(g1
g2
(lp2726
g0
(g1
g2
(lp2727
Von
p2728
atp2729
Rp2730
(dp2731
g11
VIN
p2732
sbatp2733
Rp2734
(dp2735
g11
VPP
p2736
sbatp2737
Rp2738
(dp2739
g11
VVP
p2740
sbag0
(g1
g2
(lp2741
V.
p2742
atp2743
Rp2744
(dp2745
g11
V.
p2746
sbatp2747
Rp2748
(dp2749
g11
VS
p2750
sbatp2751
Rp2752
(dp2753
g11
S'id: 15'
p2754
sbag0
(g1
g2
(lp2755
g0
(g1
g2
(lp2756
g0
(g1
g2
(lp2757
g0
(g1
g2
(lp2758
g0
(g1
g2
(lp2759
g0
(g1
g2
(lp2760
VThe
p2761
atp2762
Rp2763
(dp2764
g11
VDT
p2765
sbag0
(g1
g2
(lp2766
Vman
p2767
atp2768
Rp2769
(dp2770
g11
VNN
p2771
sbatp2772
Rp2773
(dp2774
g11
VNP
p2775
sbag0
(g1
g2
(lp2776
g0
(g1
g2
(lp2777
Vin
p2778
atp2779
Rp2780
(dp2781
g11
VIN
p2782
sbag0
(g1
g2
(lp2783
g0
(g1
g2
(lp2784
Vthe
p2785
atp2786
Rp2787
(dp2788
g11
VDT
p2789
sbag0
(g1
g2
(lp2790
Vlion
p2791
atp2792
Rp2793
(dp2794
g11
VNN
p2795
sbag0
(g1
g2
(lp2796
Vcage
p2797
atp2798
Rp2799
(dp2800
g11
VNN
p2801
sbatp2802
Rp2803
(dp2804
g11
VNP
p2805
sbatp2806
Rp2807
(dp2808
g11
VPP
p2809
sbatp2810
Rp2811
(dp2812
g11
VNP
p2813
sbag0
(g1
g2
(lp2814
g0
(g1
g2
(lp2815
Vis
p2816
atp2817
Rp2818
(dp2819
g11
VVBZ
p2820
sbag0
(g1
g2
(lp2821
g0
(g1
g2
(lp2822
Vwearing
p2823
atp2824
Rp2825
(dp2826
g11
VVBG
p2827
sbag0
(g1
g2
(lp2828
g0
(g1
g2
(lp2829
g0
(g1
g2
(lp2830
Va
p2831
atp2832
Rp2833
(dp2834
g11
VDT
p2835
sbag0
(g1
g2
(lp2836
Vtop
p2837
atp2838
Rp2839
(dp2840
g11
VJJ
p2841
sbag0
(g1
g2
(lp2842
Vhat
p2843
atp2844
Rp2845
(dp2846
g11
VNN
p2847
sbatp2848
Rp2849
(dp2850
g11
VNP
p2851
sbag0
(g1
g2
(lp2852
V,
p2853
atp2854
Rp2855
(dp2856
g11
V,
p2857
sbag0
(g1
g2
(lp2858
Vand
p2859
atp2860
Rp2861
(dp2862
g11
VCC
p2863
sbag0
(g1
g2
(lp2864
g0
(g1
g2
(lp2865
Va
p2866
atp2867
Rp2868
(dp2869
g11
VDT
p2870
sbag0
(g1
g2
(lp2871
Vtuxedo
p2872
atp2873
Rp2874
(dp2875
g11
VNN
p2876
sbag0
(g1
g2
(lp2877
Vcoat
p2878
atp2879
Rp2880
(dp2881
g11
VNN
p2882
sbatp2883
Rp2884
(dp2885
g11
VNP
p2886
sbatp2887
Rp2888
(dp2889
g11
VNP
p2890
sbatp2891
Rp2892
(dp2893
g11
VVP
p2894
sbatp2895
Rp2896
(dp2897
g11
VVP
p2898
sbatp2899
Rp2900
(dp2901
g11
VS
p2902
sbag0
(g1
g2
(lp2903
V,
p2904
atp2905
Rp2906
(dp2907
g11
V,
p2908
sbag0
(g1
g2
(lp2909
g0
(g1
g2
(lp2910
VI
p2911
atp2912
Rp2913
(dp2914
g11
VPRP
p2915
sbatp2916
Rp2917
(dp2918
g11
VNP
p2919
sbag0
(g1
g2
(lp2920
g0
(g1
g2
(lp2921
Vdo
p2922
atp2923
Rp2924
(dp2925
g11
VVBP
p2926
sbag0
(g1
g2
(lp2927
Vn't
p2928
atp2929
Rp2930
(dp2931
g11
VRB
p2932
sbag0
(g1
g2
(lp2933
g0
(g1
g2
(lp2934
Vknow
p2935
atp2936
Rp2937
(dp2938
g11
VVB
p2939
sbag0
(g1
g2
(lp2940
g0
(g1
g2
(lp2941
Vwhat
p2942
atp2943
Rp2944
(dp2945
g11
VWP
p2946
sbatp2947
Rp2948
(dp2949
g11
VNP
p2950
sbag0
(g1
g2
(lp2951
g0
(g1
g2
(lp2952
g0
(g1
g2
(lp2953
Vkinda
p2954
atp2955
Rp2956
(dp2957
g11
VNN
p2958
sbag0
(g1
g2
(lp2959
Vcoat
p2960
atp2961
Rp2962
(dp2963
g11
VNN
p2964
sbatp2965
Rp2966
(dp2967
g11
VNP
p2968
sbag0
(g1
g2
(lp2969
g0
(g1
g2
(lp2970
g0
(g1
g2
(lp2971
g0
(g1
g2
(lp2972
Vit
p2973
atp2974
Rp2975
(dp2976
g11
VPRP
p2977
sbatp2978
Rp2979
(dp2980
g11
VNP
p2981
sbag0
(g1
g2
(lp2982
g0
(g1
g2
(lp2983
V's
p2984
atp2985
Rp2986
(dp2987
g11
VVBZ
p2988
sbag0
(g1
g2
(lp2989
g0
(g1
g2
(lp2990
Vcalled
p2991
atp2992
Rp2993
(dp2994
g11
VVBN
p2995
sbatp2996
Rp2997
(dp2998
g11
VVP
p2999
sbatp3000
Rp3001
(dp3002
g11
VVP
p3003
sbatp3004
Rp3005
(dp3006
g11
VS
p3007
sbatp3008
Rp3009
(dp3010
g11
VSBAR
p3011
sbatp3012
Rp3013
(dp3014
g11
VNP-TMP
p3015
sbatp3016
Rp3017
(dp3018
g11
VVP
p3019
sbatp3020
Rp3021
(dp3022
g11
VVP
p3023
sbag0
(g1
g2
(lp3024
V.
p3025
atp3026
Rp3027
(dp3028
g11
V.
p3029
sbatp3030
Rp3031
(dp3032
g11
VS
p3033
sbatp3034
Rp3035
(dp3036
g11
S'id: 16'
p3037
sbag0
(g1
g2
(lp3038
g0
(g1
g2
(lp3039
g0
(g1
g2
(lp3040
g0
(g1
g2
(lp3041
g0
(g1
g2
(lp3042
VThe
p3043
atp3044
Rp3045
(dp3046
g11
VDT
p3047
sbag0
(g1
g2
(lp3048
Vlion
p3049
atp3050
Rp3051
(dp3052
g11
VNN
p3053
sbatp3054
Rp3055
(dp3056
g11
VNP
p3057
sbag0
(g1
g2
(lp3058
g0
(g1
g2
(lp3059
Vis
p3060
atp3061
Rp3062
(dp3063
g11
VVBZ
p3064
sbag0
(g1
g2
(lp3065
g0
(g1
g2
(lp3066
Von
p3067
atp3068
Rp3069
(dp3070
g11
VIN
p3071
sbag0
(g1
g2
(lp3072
g0
(g1
g2
(lp3073
Vhis
p3074
atp3075
Rp3076
(dp3077
g11
VPRP$
p3078
sbag0
(g1
g2
(lp3079
Vback
p3080
atp3081
Rp3082
(dp3083
g11
VJJ
p3084
sbag0
(g1
g2
(lp3085
Vlegs
p3086
atp3087
Rp3088
(dp3089
g11
VNNS
p3090
sbatp3091
Rp3092
(dp3093
g11
VNP
p3094
sbatp3095
Rp3096
(dp3097
g11
VPP
p3098
sbatp3099
Rp3100
(dp3101
g11
VVP
p3102
sbatp3103
Rp3104
(dp3105
g11
VS
p3106
sbag0
(g1
g2
(lp3107
V,
p3108
atp3109
Rp3110
(dp3111
g11
V,
p3112
sbag0
(g1
g2
(lp3113
Vand
p3114
atp3115
Rp3116
(dp3117
g11
VCC
p3118
sbag0
(g1
g2
(lp3119
g0
(g1
g2
(lp3120
g0
(g1
g2
(lp3121
g0
(g1
g2
(lp3122
Vhe
p3123
atp3124
Rp3125
(dp3126
g11
VPRP
p3127
sbatp3128
Rp3129
(dp3130
g11
VNP
p3131
sbag0
(g1
g2
(lp3132
g0
(g1
g2
(lp3133
V's
p3134
atp3135
Rp3136
(dp3137
g11
VVBZ
p3138
sbag0
(g1
g2
(lp3139
V,
p3140
atp3141
Rp3142
(dp3143
g11
V,
p3144
sbag0
(g1
g2
(lp3145
g0
(g1
g2
(lp3146
g0
(g1
g2
(lp3147
g0
(g1
g2
(lp3148
Vhe
p3149
atp3150
Rp3151
(dp3152
g11
VPRP
p3153
sbatp3154
Rp3155
(dp3156
g11
VNP
p3157
sbag0
(g1
g2
(lp3158
g0
(g1
g2
(lp3159
V's
p3160
atp3161
Rp3162
(dp3163
g11
VVBZ
p3164
sbag0
(g1
g2
(lp3165
g0
(g1
g2
(lp3166
Vdoing
p3167
atp3168
Rp3169
(dp3170
g11
VVBG
p3171
sbag0
(g1
g2
(lp3172
g0
(g1
g2
(lp3173
g0
(g1
g2
(lp3174
Vwhat
p3175
atp3176
Rp3177
(dp3178
g11
VWP
p3179
sbatp3180
Rp3181
(dp3182
g11
VWHNP
p3183
sbag0
(g1
g2
(lp3184
g0
(g1
g2
(lp3185
g0
(g1
g2
(lp3186
Vthe
p3187
atp3188
Rp3189
(dp3190
g11
VDT
p3191
sbag0
(g1
g2
(lp3192
Vlion
p3193
atp3194
Rp3195
(dp3196
g11
VNN
p3197
sbag0
(g1
g2
(lp3198
Vtamer
p3199
atp3200
Rp3201
(dp3202
g11
VJJR
p3203
sbatp3204
Rp3205
(dp3206
g11
VNP
p3207
sbag0
(g1
g2
(lp3208
g0
(g1
g2
(lp3209
Vis
p3210
atp3211
Rp3212
(dp3213
g11
VVBZ
p3214
sbag0
(g1
g2
(lp3215
g0
(g1
g2
(lp3216
Vtelling
p3217
atp3218
Rp3219
(dp3220
g11
VVBG
p3221
sbag0
(g1
g2
(lp3222
g0
(g1
g2
(lp3223
g0
(g1
g2
(lp3224
Vhim
p3225
atp3226
Rp3227
(dp3228
g11
VPRP
p3229
sbatp3230
Rp3231
(dp3232
g11
VNP
p3233
sbag0
(g1
g2
(lp3234
g0
(g1
g2
(lp3235
Vto
p3236
atp3237
Rp3238
(dp3239
g11
VTO
p3240
sbag0
(g1
g2
(lp3241
g0
(g1
g2
(lp3242
g0
(g1
g2
(lp3243
Vdo
p3244
atp3245
Rp3246
(dp3247
g11
VVB
p3248
sbatp3249
Rp3250
(dp3251
g11
VVP
p3252
sbag0
(g1
g2
(lp3253
V:
p3254
atp3255
Rp3256
(dp3257
g11
V:
p3258
sbag0
(g1
g2
(lp3259
g0
(g1
g2
(lp3260
Vrise
p3261
atp3262
Rp3263
(dp3264
g11
VVB
p3265
sbag0
(g1
g2
(lp3266
g0
(g1
g2
(lp3267
Vup
p3268
atp3269
Rp3270
(dp3271
g11
VRP
p3272
sbatp3273
Rp3274
(dp3275
g11
VPRT
p3276
sbatp3277
Rp3278
(dp3279
g11
VVP
p3280
sbatp3281
Rp3282
(dp3283
g11
VVP
p3284
sbatp3285
Rp3286
(dp3287
g11
VVP
p3288
sbatp3289
Rp3290
(dp3291
g11
VS
p3292
sbatp3293
Rp3294
(dp3295
g11
VVP
p3296
sbatp3297
Rp3298
(dp3299
g11
VVP
p3300
sbatp3301
Rp3302
(dp3303
g11
VS
p3304
sbatp3305
Rp3306
(dp3307
g11
VSBAR
p3308
sbatp3309
Rp3310
(dp3311
g11
VVP
p3312
sbatp3313
Rp3314
(dp3315
g11
VVP
p3316
sbatp3317
Rp3318
(dp3319
g11
VS
p3320
sbatp3321
Rp3322
(dp3323
g11
VSBAR
p3324
sbatp3325
Rp3326
(dp3327
g11
VVP
p3328
sbatp3329
Rp3330
(dp3331
g11
VS
p3332
sbag0
(g1
g2
(lp3333
V,
p3334
atp3335
Rp3336
(dp3337
g11
V,
p3338
sbag0
(g1
g2
(lp3339
Vand
p3340
atp3341
Rp3342
(dp3343
g11
VCC
p3344
sbag0
(g1
g2
(lp3345
g0
(g1
g2
(lp3346
g0
(g1
g2
(lp3347
Vhe
p3348
atp3349
Rp3350
(dp3351
g11
VPRP
p3352
sbatp3353
Rp3354
(dp3355
g11
VNP
p3356
sbag0
(g1
g2
(lp3357
g0
(g1
g2
(lp3358
V's
p3359
atp3360
Rp3361
(dp3362
g11
VVBZ
p3363
sbag0
(g1
g2
(lp3364
g0
(g1
g2
(lp3365
Vrising
p3366
atp3367
Rp3368
(dp3369
g11
VVBG
p3370
sbag0
(g1
g2
(lp3371
g0
(g1
g2
(lp3372
Vup
p3373
atp3374
Rp3375
(dp3376
g11
VRP
p3377
sbatp3378
Rp3379
(dp3380
g11
VPRT
p3381
sbatp3382
Rp3383
(dp3384
g11
VVP
p3385
sbatp3386
Rp3387
(dp3388
g11
VVP
p3389
sbatp3390
Rp3391
(dp3392
g11
VS
p3393
sbatp3394
Rp3395
(dp3396
g11
VS
p3397
sbag0
(g1
g2
(lp3398
V.
p3399
atp3400
Rp3401
(dp3402
g11
V.
p3403
sbatp3404
Rp3405
(dp3406
g11
VS
p3407
sbatp3408
Rp3409
(dp3410
g11
S'id: 17'
p3411
sbag0
(g1
g2
(lp3412
g0
(g1
g2
(lp3413
g0
(g1
g2
(lp3414
g0
(g1
g2
(lp3415
VLook
p3416
atp3417
Rp3418
(dp3419
g11
VVB
p3420
sbag0
(g1
g2
(lp3421
g0
(g1
g2
(lp3422
Vlike
p3423
atp3424
Rp3425
(dp3426
g11
VIN
p3427
sbatp3428
Rp3429
(dp3430
g11
VPP
p3431
sbatp3432
Rp3433
(dp3434
g11
VVP
p3435
sbatp3436
Rp3437
(dp3438
g11
VS
p3439
sbatp3440
Rp3441
(dp3442
g11
S'id: 18'
p3443
sbatp3444
Rp3445
(dp3446
g11
S'sentences'
p3447
sb.