ccopy_reg
_reconstructor
p0
(cnltk.tree
Tree
p1
c__builtin__
list
p2
(lp3
g0
(g1
g2
(lp4
g0
(g1
g2
(lp5
g0
(g1
g2
(lp6
Va man on a tightrope
p7
atp8
Rp9
(dp10
S'_label'
p11
S'start: 3'
p12
sbatp13
Rp14
(dp15
g11
S'sent: 1'
p16
sbag0
(g1
g2
(lp17
g0
(g1
g2
(lp18
Vthe man
p19
atp20
Rp21
(dp22
g11
S'start: 3'
p23
sbatp24
Rp25
(dp26
g11
S'sent: 11'
p27
sbatp28
Rp29
(dp30
g11
S'id: 1'
p31
sbag0
(g1
g2
(lp32
g0
(g1
g2
(lp33
g0
(g1
g2
(lp34
Va clown throwing something on the kids
p35
atp36
Rp37
(dp38
g11
S'start: 3'
p39
sbatp40
Rp41
(dp42
g11
S'sent: 3'
p43
sbag0
(g1
g2
(lp44
g0
(g1
g2
(lp45
Vthe clown
p46
atp47
Rp48
(dp49
g11
S'start: 12'
p50
sbatp51
Rp52
(dp53
g11
S'sent: 4'
p54
sbatp55
Rp56
(dp57
g11
S'id: 4'
p58
sbag0
(g1
g2
(lp59
g0
(g1
g2
(lp60
g0
(g1
g2
(lp61
Vthe kids
p62
atp63
Rp64
(dp65
g11
S'start: 8'
p66
sbatp67
Rp68
(dp69
g11
S'sent: 3'
p70
sbag0
(g1
g2
(lp71
g0
(g1
g2
(lp72
Vthey
p73
atp74
Rp75
(dp76
g11
S'start: 8'
p77
sbatp78
Rp79
(dp80
g11
S'sent: 4'
p81
sbatp82
Rp83
(dp84
g11
S'id: 5'
p85
sbag0
(g1
g2
(lp86
g0
(g1
g2
(lp87
g0
(g1
g2
(lp88
Vtwo
p89
atp90
Rp91
(dp92
g11
S'start: 20'
p93
sbatp94
Rp95
(dp96
g11
S'sent: 5'
p97
sbag0
(g1
g2
(lp98
g0
(g1
g2
(lp99
Vtwo
p100
atp101
Rp102
(dp103
g11
S'start: 3'
p104
sbatp105
Rp106
(dp107
g11
S'sent: 7'
p108
sbag0
(g1
g2
(lp109
g0
(g1
g2
(lp110
Vtwo
p111
atp112
Rp113
(dp114
g11
S'start: 9'
p115
sbatp116
Rp117
(dp118
g11
S'sent: 7'
p119
sbag0
(g1
g2
(lp120
g0
(g1
g2
(lp121
Vtwo
p122
atp123
Rp124
(dp125
g11
S'start: 9'
p126
sbatp127
Rp128
(dp129
g11
S'sent: 8'
p130
sbag0
(g1
g2
(lp131
g0
(g1
g2
(lp132
Vtwo
p133
atp134
Rp135
(dp136
g11
S'start: 14'
p137
sbatp138
Rp139
(dp140
g11
S'sent: 8'
p141
sbatp142
Rp143
(dp144
g11
S'id: 11'
p145
sbag0
(g1
g2
(lp146
g0
(g1
g2
(lp147
g0
(g1
g2
(lp148
Va lady on the horse
p149
atp150
Rp151
(dp152
g11
S'start: 3'
p153
sbatp154
Rp155
(dp156
g11
S'sent: 5'
p157
sbag0
(g1
g2
(lp158
g0
(g1
g2
(lp159
VShe
p160
atp161
Rp162
(dp163
g11
S'start: 1'
p164
sbatp165
Rp166
(dp167
g11
S'sent: 6'
p168
sbag0
(g1
g2
(lp169
g0
(g1
g2
(lp170
Vshe
p171
atp172
Rp173
(dp174
g11
S'start: 11'
p175
sbatp176
Rp177
(dp178
g11
S'sent: 6'
p179
sbag0
(g1
g2
(lp180
g0
(g1
g2
(lp181
Vher
p182
atp183
Rp184
(dp185
g11
S'start: 27'
p186
sbatp187
Rp188
(dp189
g11
S'sent: 7'
p190
sbatp191
Rp192
(dp193
g11
S'id: 12'
p194
sbag0
(g1
g2
(lp195
g0
(g1
g2
(lp196
g0
(g1
g2
(lp197
Vthe horse
p198
atp199
Rp200
(dp201
g11
S'start: 6'
p202
sbatp203
Rp204
(dp205
g11
S'sent: 5'
p206
sbag0
(g1
g2
(lp207
g0
(g1
g2
(lp208
Vthe horse
p209
atp210
Rp211
(dp212
g11
S'start: 4'
p213
sbatp214
Rp215
(dp216
g11
S'sent: 6'
p217
sbag0
(g1
g2
(lp218
g0
(g1
g2
(lp219
Vthe horse
p220
atp221
Rp222
(dp223
g11
S'start: 15'
p224
sbatp225
Rp226
(dp227
g11
S'sent: 6'
p228
sbatp229
Rp230
(dp231
g11
S'id: 13'
p232
sbag0
(g1
g2
(lp233
g0
(g1
g2
(lp234
g0
(g1
g2
(lp235
VOne
p236
atp237
Rp238
(dp239
g11
S'start: 1'
p240
sbatp241
Rp242
(dp243
g11
S'sent: 7'
p244
sbag0
(g1
g2
(lp245
g0
(g1
g2
(lp246
Vthree
p247
atp248
Rp249
(dp250
g11
S'start: 5'
p251
sbatp252
Rp253
(dp254
g11
S'sent: 7'
p255
sbag0
(g1
g2
(lp256
g0
(g1
g2
(lp257
Vthree
p258
atp259
Rp260
(dp261
g11
S'start: 11'
p262
sbatp263
Rp264
(dp265
g11
S'sent: 7'
p266
sbag0
(g1
g2
(lp267
g0
(g1
g2
(lp268
Vthere five
p269
atp270
Rp271
(dp272
g11
S'start: 17'
p273
sbatp274
Rp275
(dp276
g11
S'sent: 7'
p277
sbag0
(g1
g2
(lp278
g0
(g1
g2
(lp279
Vthree
p280
atp281
Rp282
(dp283
g11
S'start: 11'
p284
sbatp285
Rp286
(dp287
g11
S'sent: 8'
p288
sbatp289
Rp290
(dp291
g11
S'id: 24'
p292
sbag0
(g1
g2
(lp293
g0
(g1
g2
(lp294
g0
(g1
g2
(lp295
Vfive
p296
atp297
Rp298
(dp299
g11
S'start: 15'
p300
sbatp301
Rp302
(dp303
g11
S'sent: 7'
p304
sbag0
(g1
g2
(lp305
g0
(g1
g2
(lp306
Vfive
p307
atp308
Rp309
(dp310
g11
S'start: 18'
p311
sbatp312
Rp313
(dp314
g11
S'sent: 7'
p315
sbatp316
Rp317
(dp318
g11
S'id: 31'
p319
sbag0
(g1
g2
(lp320
g0
(g1
g2
(lp321
g0
(g1
g2
(lp322
Vone
p323
atp324
Rp325
(dp326
g11
S'start: 7'
p327
sbatp328
Rp329
(dp330
g11
S'sent: 8'
p331
sbag0
(g1
g2
(lp332
g0
(g1
g2
(lp333
VThat
p334
atp335
Rp336
(dp337
g11
S'start: 1'
p338
sbatp339
Rp340
(dp341
g11
S'sent: 9'
p342
sbag0
(g1
g2
(lp343
g0
(g1
g2
(lp344
Vit
p345
atp346
Rp347
(dp348
g11
S'start: 3'
p349
sbatp350
Rp351
(dp352
g11
S'sent: 9'
p353
sbatp354
Rp355
(dp356
g11
S'id: 39'
p357
sbag0
(g1
g2
(lp358
g0
(g1
g2
(lp359
g0
(g1
g2
(lp360
Vhis paws
p361
atp362
Rp363
(dp364
g11
S'start: 23'
p365
sbatp366
Rp367
(dp368
g11
S'sent: 8'
p369
sbag0
(g1
g2
(lp370
g0
(g1
g2
(lp371
Vhis back paws sitting up straight
p372
atp373
Rp374
(dp375
g11
S'start: 26'
p376
sbatp377
Rp378
(dp379
g11
S'sent: 8'
p380
sbatp381
Rp382
(dp383
g11
S'id: 48'
p384
sbag0
(g1
g2
(lp385
g0
(g1
g2
(lp386
g0
(g1
g2
(lp387
Vhis
p388
atp389
Rp390
(dp391
g11
S'start: 23'
p392
sbatp393
Rp394
(dp395
g11
S'sent: 8'
p396
sbag0
(g1
g2
(lp397
g0
(g1
g2
(lp398
Vhis
p399
atp400
Rp401
(dp402
g11
S'start: 26'
p403
sbatp404
Rp405
(dp406
g11
S'sent: 8'
p407
sbatp408
Rp409
(dp410
g11
S'id: 49'
p411
sbag0
(g1
g2
(lp412
g0
(g1
g2
(lp413
g0
(g1
g2
(lp414
VNo that
p415
atp416
Rp417
(dp418
g11
S'start: 1'
p419
sbatp420
Rp421
(dp422
g11
S'sent: 10'
p423
sbag0
(g1
g2
(lp424
g0
(g1
g2
(lp425
Vit
p426
atp427
Rp428
(dp429
g11
S'start: 4'
p430
sbatp431
Rp432
(dp433
g11
S'sent: 10'
p434
sbatp435
Rp436
(dp437
g11
S'id: 54'
p438
sbatp439
Rp440
(dp441
g11
S'coreferences'
p442
sb.