ccopy_reg
_reconstructor
p0
(cnltk.tree
Tree
p1
c__builtin__
list
p2
(lp3
g0
(g1
g2
(lp4
g0
(g1
g2
(lp5
g0
(g1
g2
(lp6
g0
(g1
g2
(lp7
VThere
p8
atp9
Rp10
(dp11
S'_label'
p12
VEX
p13
sbatp14
Rp15
(dp16
g12
VNP
p17
sbag0
(g1
g2
(lp18
g0
(g1
g2
(lp19
V's
p20
atp21
Rp22
(dp23
g12
VVBZ
p24
sbag0
(g1
g2
(lp25
g0
(g1
g2
(lp26
g0
(g1
g2
(lp27
Va
p28
atp29
Rp30
(dp31
g12
VDT
p32
sbag0
(g1
g2
(lp33
Vsailboat
p34
atp35
Rp36
(dp37
g12
VNN
p38
sbatp39
Rp40
(dp41
g12
VNP
p42
sbag0
(g1
g2
(lp43
V,
p44
atp45
Rp46
(dp47
g12
V,
p48
sbag0
(g1
g2
(lp49
g0
(g1
g2
(lp50
g0
(g1
g2
(lp51
Vin
p52
atp53
Rp54
(dp55
g12
VIN
p56
sbag0
(g1
g2
(lp57
g0
(g1
g2
(lp58
Vthe
p59
atp60
Rp61
(dp62
g12
VDT
p63
sbag0
(g1
g2
(lp64
Vfar
p65
atp66
Rp67
(dp68
g12
VJJ
p69
sbag0
(g1
g2
(lp70
Vbackground
p71
atp72
Rp73
(dp74
g12
VNN
p75
sbatp76
Rp77
(dp78
g12
VNP
p79
sbatp80
Rp81
(dp82
g12
VPP
p83
sbag0
(g1
g2
(lp84
V,
p85
atp86
Rp87
(dp88
g12
V,
p89
sbag0
(g1
g2
(lp90
Vbut
p91
atp92
Rp93
(dp94
g12
VCC
p95
sbag0
(g1
g2
(lp96
Vnot
p97
atp98
Rp99
(dp100
g12
VRB
p101
sbag0
(g1
g2
(lp102
Vas
p103
atp104
Rp105
(dp106
g12
VRB
p107
sbag0
(g1
g2
(lp108
g0
(g1
g2
(lp109
Vfar
p110
atp111
Rp112
(dp113
g12
VRB
p114
sbag0
(g1
g2
(lp115
Vback
p116
atp117
Rp118
(dp119
g12
VRB
p120
sbatp121
Rp122
(dp123
g12
VADVP
p124
sbag0
(g1
g2
(lp125
g0
(g1
g2
(lp126
Vas
p127
atp128
Rp129
(dp130
g12
VIN
p131
sbag0
(g1
g2
(lp132
g0
(g1
g2
(lp133
Vthe
p134
atp135
Rp136
(dp137
g12
VDT
p138
sbag0
(g1
g2
(lp139
Vbushes
p140
atp141
Rp142
(dp143
g12
VNNS
p144
sbag0
(g1
g2
(lp145
Vor
p146
atp147
Rp148
(dp149
g12
VCC
p150
sbag0
(g1
g2
(lp151
Vtrees
p152
atp153
Rp154
(dp155
g12
VNNS
p156
sbatp157
Rp158
(dp159
g12
VNP
p160
sbatp161
Rp162
(dp163
g12
VPP
p164
sbatp165
Rp166
(dp167
g12
VPP
p168
sbatp169
Rp170
(dp171
g12
VNP
p172
sbatp173
Rp174
(dp175
g12
VVP
p176
sbag0
(g1
g2
(lp177
V.
p178
atp179
Rp180
(dp181
g12
V.
p182
sbatp183
Rp184
(dp185
g12
VS
p186
sbatp187
Rp188
(dp189
g12
S'id: 0'
p190
sbag0
(g1
g2
(lp191
g0
(g1
g2
(lp192
g0
(g1
g2
(lp193
g0
(g1
g2
(lp194
g0
(g1
g2
(lp195
g0
(g1
g2
(lp196
VComing
p197
atp198
Rp199
(dp200
g12
VVBG
p201
sbag0
(g1
g2
(lp202
g0
(g1
g2
(lp203
Vtowards
p204
atp205
Rp206
(dp207
g12
VIN
p208
sbag0
(g1
g2
(lp209
g0
(g1
g2
(lp210
Vus
p211
atp212
Rp213
(dp214
g12
VPRP
p215
sbatp216
Rp217
(dp218
g12
VNP
p219
sbatp220
Rp221
(dp222
g12
VPP
p223
sbatp224
Rp225
(dp226
g12
VVP
p227
sbatp228
Rp229
(dp230
g12
VS
p231
sbag0
(g1
g2
(lp232
g0
(g1
g2
(lp233
Vis
p234
atp235
Rp236
(dp237
g12
VVBZ
p238
sbag0
(g1
g2
(lp239
g0
(g1
g2
(lp240
g0
(g1
g2
(lp241
Vthe
p242
atp243
Rp244
(dp245
g12
VDT
p246
sbag0
(g1
g2
(lp247
g0
(g1
g2
(lp248
g0
(g1
g2
(lp249
Vbushes
p250
atp251
Rp252
(dp253
g12
VNNS
p254
sbatp255
Rp256
(dp257
g12
VNX
p258
sbag0
(g1
g2
(lp259
Vand
p260
atp261
Rp262
(dp263
g12
VCC
p264
sbag0
(g1
g2
(lp265
g0
(g1
g2
(lp266
g0
(g1
g2
(lp267
g0
(g1
g2
(lp268
Vtrees
p269
atp270
Rp271
(dp272
g12
VNNS
p273
sbatp274
Rp275
(dp276
g12
VNP
p277
sbag0
(g1
g2
(lp278
g0
(g1
g2
(lp279
Von
p280
atp281
Rp282
(dp283
g12
VIN
p284
sbag0
(g1
g2
(lp285
g0
(g1
g2
(lp286
Vthe
p287
atp288
Rp289
(dp290
g12
VDT
p291
sbag0
(g1
g2
(lp292
Vleft
p293
atp294
Rp295
(dp296
g12
VJJ
p297
sbag0
(g1
g2
(lp298
Vside
p299
atp300
Rp301
(dp302
g12
VNN
p303
sbatp304
Rp305
(dp306
g12
VNP
p307
sbatp308
Rp309
(dp310
g12
VPP
p311
sbatp312
Rp313
(dp314
g12
VNX
p315
sbag0
(g1
g2
(lp316
g0
(g1
g2
(lp317
V,
p318
atp319
Rp320
(dp321
g12
V,
p322
sbag0
(g1
g2
(lp323
g0
(g1
g2
(lp324
Varound
p325
atp326
Rp327
(dp328
g12
VIN
p329
sbag0
(g1
g2
(lp330
g0
(g1
g2
(lp331
Vthe
p332
atp333
Rp334
(dp335
g12
VDT
p336
sbag0
(g1
g2
(lp337
Vhouse
p338
atp339
Rp340
(dp341
g12
VNN
p342
sbatp343
Rp344
(dp345
g12
VNP
p346
sbatp347
Rp348
(dp349
g12
VPP
p350
sbag0
(g1
g2
(lp351
V,
p352
atp353
Rp354
(dp355
g12
V,
p356
sbatp357
Rp358
(dp359
g12
VPRN
p360
sbatp361
Rp362
(dp363
g12
VNX
p364
sbatp365
Rp366
(dp367
g12
VNX
p368
sbatp369
Rp370
(dp371
g12
VNP
p372
sbag0
(g1
g2
(lp373
g0
(g1
g2
(lp374
Vwith
p375
atp376
Rp377
(dp378
g12
VIN
p379
sbag0
(g1
g2
(lp380
g0
(g1
g2
(lp381
g0
(g1
g2
(lp382
Vthe
p383
atp384
Rp385
(dp386
g12
VDT
p387
sbag0
(g1
g2
(lp388
Vcar
p389
atp390
Rp391
(dp392
g12
VNN
p393
sbatp394
Rp395
(dp396
g12
VNP
p397
sbag0
(g1
g2
(lp398
g0
(g1
g2
(lp399
Vin
p400
atp401
Rp402
(dp403
g12
VIN
p404
sbag0
(g1
g2
(lp405
g0
(g1
g2
(lp406
g0
(g1
g2
(lp407
Vthe
p408
atp409
Rp410
(dp411
g12
VDT
p412
sbag0
(g1
g2
(lp413
Vdriveway
p414
atp415
Rp416
(dp417
g12
VNN
p418
sbatp419
Rp420
(dp421
g12
VNP
p422
sbag0
(g1
g2
(lp423
V,
p424
atp425
Rp426
(dp427
g12
V,
p428
sbag0
(g1
g2
(lp429
g0
(g1
g2
(lp430
Va
p431
atp432
Rp433
(dp434
g12
VDT
p435
sbag0
(g1
g2
(lp436
Vflagpole
p437
atp438
Rp439
(dp440
g12
VNN
p441
sbatp442
Rp443
(dp444
g12
VNP
p445
sbatp446
Rp447
(dp448
g12
VNP
p449
sbatp450
Rp451
(dp452
g12
VPP
p453
sbatp454
Rp455
(dp456
g12
VNP
p457
sbatp458
Rp459
(dp460
g12
VPP
p461
sbatp462
Rp463
(dp464
g12
VNP
p465
sbatp466
Rp467
(dp468
g12
VVP
p469
sbatp470
Rp471
(dp472
g12
VS
p473
sbag0
(g1
g2
(lp474
V,
p475
atp476
Rp477
(dp478
g12
V,
p479
sbag0
(g1
g2
(lp480
Vand
p481
atp482
Rp483
(dp484
g12
VCC
p485
sbag0
(g1
g2
(lp486
g0
(g1
g2
(lp487
g0
(g1
g2
(lp488
Vthere
p489
atp490
Rp491
(dp492
g12
VEX
p493
sbatp494
Rp495
(dp496
g12
VNP
p497
sbag0
(g1
g2
(lp498
g0
(g1
g2
(lp499
V's
p500
atp501
Rp502
(dp503
g12
VVBZ
p504
sbag0
(g1
g2
(lp505
g0
(g1
g2
(lp506
g0
(g1
g2
(lp507
g0
(g1
g2
(lp508
Va
p509
atp510
Rp511
(dp512
g12
VDT
p513
sbag0
(g1
g2
(lp514
Vboy
p515
atp516
Rp517
(dp518
g12
VNN
p519
sbatp520
Rp521
(dp522
g12
VNP
p523
sbag0
(g1
g2
(lp524
g0
(g1
g2
(lp525
Vflying
p526
atp527
Rp528
(dp529
g12
VVBG
p530
sbag0
(g1
g2
(lp531
g0
(g1
g2
(lp532
Va
p533
atp534
Rp535
(dp536
g12
VDT
p537
sbag0
(g1
g2
(lp538
Vkite
p539
atp540
Rp541
(dp542
g12
VNN
p543
sbatp544
Rp545
(dp546
g12
VNP
p547
sbatp548
Rp549
(dp550
g12
VVP
p551
sbatp552
Rp553
(dp554
g12
VNP
p555
sbag0
(g1
g2
(lp556
V,
p557
atp558
Rp559
(dp560
g12
V,
p561
sbag0
(g1
g2
(lp562
Vand
p563
atp564
Rp565
(dp566
g12
VCC
p567
sbag0
(g1
g2
(lp568
g0
(g1
g2
(lp569
g0
(g1
g2
(lp570
Va
p571
atp572
Rp573
(dp574
g12
VDT
p575
sbag0
(g1
g2
(lp576
Vdog
p577
atp578
Rp579
(dp580
g12
VNN
p581
sbatp582
Rp583
(dp584
g12
VNP
p585
sbag0
(g1
g2
(lp586
g0
(g1
g2
(lp587
Vchasing
p588
atp589
Rp590
(dp591
g12
VVBG
p592
sbag0
(g1
g2
(lp593
g0
(g1
g2
(lp594
Vhim
p595
atp596
Rp597
(dp598
g12
VPRP
p599
sbatp600
Rp601
(dp602
g12
VNP
p603
sbatp604
Rp605
(dp606
g12
VVP
p607
sbatp608
Rp609
(dp610
g12
VNP
p611
sbatp612
Rp613
(dp614
g12
VNP
p615
sbatp616
Rp617
(dp618
g12
VVP
p619
sbatp620
Rp621
(dp622
g12
VS
p623
sbag0
(g1
g2
(lp624
V.
p625
atp626
Rp627
(dp628
g12
V.
p629
sbatp630
Rp631
(dp632
g12
VS
p633
sbatp634
Rp635
(dp636
g12
S'id: 1'
p637
sbag0
(g1
g2
(lp638
g0
(g1
g2
(lp639
g0
(g1
g2
(lp640
Vbut
p641
atp642
Rp643
(dp644
g12
VCC
p645
sbag0
(g1
g2
(lp646
g0
(g1
g2
(lp647
Vbefore
p648
atp649
Rp650
(dp651
g12
VIN
p652
sbag0
(g1
g2
(lp653
g0
(g1
g2
(lp654
g0
(g1
g2
(lp655
Vyou
p656
atp657
Rp658
(dp659
g12
VPRP
p660
sbatp661
Rp662
(dp663
g12
VNP
p664
sbag0
(g1
g2
(lp665
g0
(g1
g2
(lp666
Vget
p667
atp668
Rp669
(dp670
g12
VVBP
p671
sbag0
(g1
g2
(lp672
g0
(g1
g2
(lp673
Vto
p674
atp675
Rp676
(dp677
g12
VTO
p678
sbag0
(g1
g2
(lp679
g0
(g1
g2
(lp680
Vhim
p681
atp682
Rp683
(dp684
g12
VPRP
p685
sbatp686
Rp687
(dp688
g12
VNP
p689
sbatp690
Rp691
(dp692
g12
VPP
p693
sbatp694
Rp695
(dp696
g12
VVP
p697
sbatp698
Rp699
(dp700
g12
VS
p701
sbatp702
Rp703
(dp704
g12
VSBAR
p705
sbag0
(g1
g2
(lp706
g0
(g1
g2
(lp707
V,
p708
atp709
Rp710
(dp711
g12
V,
p712
sbag0
(g1
g2
(lp713
g0
(g1
g2
(lp714
g0
(g1
g2
(lp715
Vthere
p716
atp717
Rp718
(dp719
g12
VEX
p720
sbatp721
Rp722
(dp723
g12
VNP
p724
sbag0
(g1
g2
(lp725
g0
(g1
g2
(lp726
V's
p727
atp728
Rp729
(dp730
g12
VVBZ
p731
sbag0
(g1
g2
(lp732
g0
(g1
g2
(lp733
Va
p734
atp735
Rp736
(dp737
g12
VDT
p738
sbag0
(g1
g2
(lp739
Vman
p740
atp741
Rp742
(dp743
g12
VNN
p744
sbag0
(g1
g2
(lp745
Vfishing
p746
atp747
Rp748
(dp749
g12
VNN
p750
sbatp751
Rp752
(dp753
g12
VNP
p754
sbatp755
Rp756
(dp757
g12
VVP
p758
sbatp759
Rp760
(dp761
g12
VS
p762
sbag0
(g1
g2
(lp763
V,
p764
atp765
Rp766
(dp767
g12
V,
p768
sbatp769
Rp770
(dp771
g12
VPRN
p772
sbag0
(g1
g2
(lp773
g0
(g1
g2
(lp774
g0
(g1
g2
(lp775
Vthere
p776
atp777
Rp778
(dp779
g12
VEX
p780
sbatp781
Rp782
(dp783
g12
VNP
p784
sbag0
(g1
g2
(lp785
g0
(g1
g2
(lp786
V's
p787
atp788
Rp789
(dp790
g12
VVBZ
p791
sbag0
(g1
g2
(lp792
g0
(g1
g2
(lp793
g0
(g1
g2
(lp794
Va
p795
atp796
Rp797
(dp798
g12
VDT
p799
sbag0
(g1
g2
(lp800
Vfish
p801
atp802
Rp803
(dp804
g12
VNN
p805
sbatp806
Rp807
(dp808
g12
VNP
p809
sbag0
(g1
g2
(lp810
g0
(g1
g2
(lp811
Von
p812
atp813
Rp814
(dp815
g12
VIN
p816
sbag0
(g1
g2
(lp817
g0
(g1
g2
(lp818
Vthe
p819
atp820
Rp821
(dp822
g12
VDT
p823
sbag0
(g1
g2
(lp824
Vline
p825
atp826
Rp827
(dp828
g12
VNN
p829
sbatp830
Rp831
(dp832
g12
VNP
p833
sbatp834
Rp835
(dp836
g12
VPP
p837
sbatp838
Rp839
(dp840
g12
VNP
p841
sbatp842
Rp843
(dp844
g12
VVP
p845
sbatp846
Rp847
(dp848
g12
VS
p849
sbag0
(g1
g2
(lp850
V,
p851
atp852
Rp853
(dp854
g12
V,
p855
sbag0
(g1
g2
(lp856
Vand
p857
atp858
Rp859
(dp860
g12
VCC
p861
sbag0
(g1
g2
(lp862
g0
(g1
g2
(lp863
g0
(g1
g2
(lp864
Vhe
p865
atp866
Rp867
(dp868
g12
VPRP
p869
sbatp870
Rp871
(dp872
g12
VNP
p873
sbag0
(g1
g2
(lp874
g0
(g1
g2
(lp875
V's
p876
atp877
Rp878
(dp879
g12
VVBZ
p880
sbag0
(g1
g2
(lp881
g0
(g1
g2
(lp882
Vstanding
p883
atp884
Rp885
(dp886
g12
VVBG
p887
sbag0
(g1
g2
(lp888
g0
(g1
g2
(lp889
Von
p890
atp891
Rp892
(dp893
g12
VIN
p894
sbag0
(g1
g2
(lp895
g0
(g1
g2
(lp896
Vthe
p897
atp898
Rp899
(dp900
g12
VDT
p901
sbag0
(g1
g2
(lp902
Vpier
p903
atp904
Rp905
(dp906
g12
VNN
p907
sbatp908
Rp909
(dp910
g12
VNP
p911
sbatp912
Rp913
(dp914
g12
VPP
p915
sbatp916
Rp917
(dp918
g12
VVP
p919
sbatp920
Rp921
(dp922
g12
VVP
p923
sbatp924
Rp925
(dp926
g12
VS
p927
sbag0
(g1
g2
(lp928
V.
p929
atp930
Rp931
(dp932
g12
V.
p933
sbatp934
Rp935
(dp936
g12
VS
p937
sbatp938
Rp939
(dp940
g12
S'id: 2'
p941
sbag0
(g1
g2
(lp942
g0
(g1
g2
(lp943
g0
(g1
g2
(lp944
g0
(g1
g2
(lp945
Vand
p946
atp947
Rp948
(dp949
g12
VCC
p950
sbag0
(g1
g2
(lp951
g0
(g1
g2
(lp952
Vthere
p953
atp954
Rp955
(dp956
g12
VEX
p957
sbatp958
Rp959
(dp960
g12
VNP
p961
sbag0
(g1
g2
(lp962
g0
(g1
g2
(lp963
V's
p964
atp965
Rp966
(dp967
g12
VVBZ
p968
sbag0
(g1
g2
(lp969
g0
(g1
g2
(lp970
Va
p971
atp972
Rp973
(dp974
g12
VDT
p975
sbag0
(g1
g2
(lp976
Vlittle
p977
atp978
Rp979
(dp980
g12
VJJ
p981
sbag0
(g1
g2
(lp982
Vgirl
p983
atp984
Rp985
(dp986
g12
VNN
p987
sbatp988
Rp989
(dp990
g12
VNP
p991
sbag0
(g1
g2
(lp992
V,
p993
atp994
Rp995
(dp996
g12
V,
p997
sbag0
(g1
g2
(lp998
g0
(g1
g2
(lp999
g0
(g1
g2
(lp1000
Vbuilding
p1001
atp1002
Rp1003
(dp1004
g12
VVBG
p1005
sbag0
(g1
g2
(lp1006
g0
(g1
g2
(lp1007
Va
p1008
atp1009
Rp1010
(dp1011
g12
VDT
p1012
sbag0
(g1
g2
(lp1013
Vsand
p1014
atp1015
Rp1016
(dp1017
g12
VNN
p1018
sbag0
(g1
g2
(lp1019
Vcastle
p1020
atp1021
Rp1022
(dp1023
g12
VNN
p1024
sbatp1025
Rp1026
(dp1027
g12
VNP
p1028
sbatp1029
Rp1030
(dp1031
g12
VVP
p1032
sbatp1033
Rp1034
(dp1035
g12
VS
p1036
sbatp1037
Rp1038
(dp1039
g12
VVP
p1040
sbatp1041
Rp1042
(dp1043
g12
VS
p1044
sbag0
(g1
g2
(lp1045
V,
p1046
atp1047
Rp1048
(dp1049
g12
V,
p1050
sbag0
(g1
g2
(lp1051
g0
(g1
g2
(lp1052
Vshe
p1053
atp1054
Rp1055
(dp1056
g12
VPRP
p1057
sbatp1058
Rp1059
(dp1060
g12
VNP
p1061
sbag0
(g1
g2
(lp1062
g0
(g1
g2
(lp1063
Vhas
p1064
atp1065
Rp1066
(dp1067
g12
VVBZ
p1068
sbag0
(g1
g2
(lp1069
g0
(g1
g2
(lp1070
g0
(g1
g2
(lp1071
Va
p1072
atp1073
Rp1074
(dp1075
g12
VDT
p1076
sbag0
(g1
g2
(lp1077
Vshovel
p1078
atp1079
Rp1080
(dp1081
g12
VNN
p1082
sbatp1083
Rp1084
(dp1085
g12
VNP
p1086
sbag0
(g1
g2
(lp1087
Vand
p1088
atp1089
Rp1090
(dp1091
g12
VCC
p1092
sbag0
(g1
g2
(lp1093
g0
(g1
g2
(lp1094
g0
(g1
g2
(lp1095
Va
p1096
atp1097
Rp1098
(dp1099
g12
VDT
p1100
sbag0
(g1
g2
(lp1101
Vpail
p1102
atp1103
Rp1104
(dp1105
g12
VNN
p1106
sbatp1107
Rp1108
(dp1109
g12
VNP
p1110
sbag0
(g1
g2
(lp1111
g0
(g1
g2
(lp1112
Vwith
p1113
atp1114
Rp1115
(dp1116
g12
VIN
p1117
sbag0
(g1
g2
(lp1118
g0
(g1
g2
(lp1119
Vher
p1120
atp1121
Rp1122
(dp1123
g12
VPRP
p1124
sbatp1125
Rp1126
(dp1127
g12
VNP
p1128
sbatp1129
Rp1130
(dp1131
g12
VPP
p1132
sbatp1133
Rp1134
(dp1135
g12
VNP
p1136
sbatp1137
Rp1138
(dp1139
g12
VNP
p1140
sbatp1141
Rp1142
(dp1143
g12
VVP
p1144
sbag0
(g1
g2
(lp1145
V.
p1146
atp1147
Rp1148
(dp1149
g12
V.
p1150
sbatp1151
Rp1152
(dp1153
g12
VS
p1154
sbatp1155
Rp1156
(dp1157
g12
S'id: 3'
p1158
sbag0
(g1
g2
(lp1159
g0
(g1
g2
(lp1160
g0
(g1
g2
(lp1161
Vand
p1162
atp1163
Rp1164
(dp1165
g12
VCC
p1166
sbag0
(g1
g2
(lp1167
g0
(g1
g2
(lp1168
Vthere
p1169
atp1170
Rp1171
(dp1172
g12
VEX
p1173
sbatp1174
Rp1175
(dp1176
g12
VNP
p1177
sbag0
(g1
g2
(lp1178
g0
(g1
g2
(lp1179
V's
p1180
atp1181
Rp1182
(dp1183
g12
VVBZ
p1184
sbag0
(g1
g2
(lp1185
g0
(g1
g2
(lp1186
g0
(g1
g2
(lp1187
Va
p1188
atp1189
Rp1190
(dp1191
g12
VDT
p1192
sbag0
(g1
g2
(lp1193
Vold
p1194
atp1195
Rp1196
(dp1197
g12
VJJ
p1198
sbag0
(g1
g2
(lp1199
Vlady
p1200
atp1201
Rp1202
(dp1203
g12
VNN
p1204
sbatp1205
Rp1206
(dp1207
g12
VNP
p1208
sbag0
(g1
g2
(lp1209
g0
(g1
g2
(lp1210
Vin
p1211
atp1212
Rp1213
(dp1214
g12
VIN
p1215
sbag0
(g1
g2
(lp1216
g0
(g1
g2
(lp1217
Vthe
p1218
atp1219
Rp1220
(dp1221
g12
VDT
p1222
sbag0
(g1
g2
(lp1223
Vwine
p1224
atp1225
Rp1226
(dp1227
g12
VNN
p1228
sbag0
(g1
g2
(lp1229
Vhole
p1230
atp1231
Rp1232
(dp1233
g12
VNN
p1234
sbatp1235
Rp1236
(dp1237
g12
VNP
p1238
sbatp1239
Rp1240
(dp1241
g12
VPP
p1242
sbatp1243
Rp1244
(dp1245
g12
VNP
p1246
sbag0
(g1
g2
(lp1247
g0
(g1
g2
(lp1248
Vagain
p1249
atp1250
Rp1251
(dp1252
g12
VRB
p1253
sbatp1254
Rp1255
(dp1256
g12
VADVP
p1257
sbag0
(g1
g2
(lp1258
V,
p1259
atp1260
Rp1261
(dp1262
g12
V,
p1263
sbag0
(g1
g2
(lp1264
g0
(g1
g2
(lp1265
g0
(g1
g2
(lp1266
Vpouring
p1267
atp1268
Rp1269
(dp1270
g12
VVBG
p1271
sbag0
(g1
g2
(lp1272
g0
(g1
g2
(lp1273
Vthat
p1274
atp1275
Rp1276
(dp1277
g12
VIN
p1278
sbag0
(g1
g2
(lp1279
g0
(g1
g2
(lp1280
Vwine
p1281
atp1282
Rp1283
(dp1284
g12
VNN
p1285
sbatp1286
Rp1287
(dp1288
g12
VNP
p1289
sbatp1290
Rp1291
(dp1292
g12
VPP
p1293
sbatp1294
Rp1295
(dp1296
g12
VVP
p1297
sbatp1298
Rp1299
(dp1300
g12
VS
p1301
sbatp1302
Rp1303
(dp1304
g12
VVP
p1305
sbag0
(g1
g2
(lp1306
V.
p1307
atp1308
Rp1309
(dp1310
g12
V.
p1311
sbatp1312
Rp1313
(dp1314
g12
VS
p1315
sbatp1316
Rp1317
(dp1318
g12
S'id: 4'
p1319
sbag0
(g1
g2
(lp1320
g0
(g1
g2
(lp1321
g0
(g1
g2
(lp1322
VAnd
p1323
atp1324
Rp1325
(dp1326
g12
VCC
p1327
sbag0
(g1
g2
(lp1328
g0
(g1
g2
(lp1329
g0
(g1
g2
(lp1330
Vhaving
p1331
atp1332
Rp1333
(dp1334
g12
VVBG
p1335
sbag0
(g1
g2
(lp1336
g0
(g1
g2
(lp1337
Va
p1338
atp1339
Rp1340
(dp1341
g12
VDT
p1342
sbag0
(g1
g2
(lp1343
Vpicnic
p1344
atp1345
Rp1346
(dp1347
g12
VNN
p1348
sbatp1349
Rp1350
(dp1351
g12
VNP
p1352
sbag0
(g1
g2
(lp1353
g0
(g1
g2
(lp1354
Vwith
p1355
atp1356
Rp1357
(dp1358
g12
VIN
p1359
sbag0
(g1
g2
(lp1360
g0
(g1
g2
(lp1361
Vher
p1362
atp1363
Rp1364
(dp1365
g12
VPRP$
p1366
sbag0
(g1
g2
(lp1367
Vhusband
p1368
atp1369
Rp1370
(dp1371
g12
VNN
p1372
sbatp1373
Rp1374
(dp1375
g12
VNP
p1376
sbatp1377
Rp1378
(dp1379
g12
VPP
p1380
sbatp1381
Rp1382
(dp1383
g12
VVP
p1384
sbatp1385
Rp1386
(dp1387
g12
VS
p1388
sbag0
(g1
g2
(lp1389
V,
p1390
atp1391
Rp1392
(dp1393
g12
V,
p1394
sbag0
(g1
g2
(lp1395
Vor
p1396
atp1397
Rp1398
(dp1399
g12
VCC
p1400
sbag0
(g1
g2
(lp1401
g0
(g1
g2
(lp1402
Vwell
p1403
atp1404
Rp1405
(dp1406
g12
VRB
p1407
sbatp1408
Rp1409
(dp1410
g12
VADVP
p1411
sbag0
(g1
g2
(lp1412
g0
(g1
g2
(lp1413
g0
(g1
g2
(lp1414
Vhaving
p1415
atp1416
Rp1417
(dp1418
g12
VVBG
p1419
sbag0
(g1
g2
(lp1420
g0
(g1
g2
(lp1421
Va
p1422
atp1423
Rp1424
(dp1425
g12
VDT
p1426
sbag0
(g1
g2
(lp1427
Vpicnic
p1428
atp1429
Rp1430
(dp1431
g12
VNN
p1432
sbatp1433
Rp1434
(dp1435
g12
VNP
p1436
sbag0
(g1
g2
(lp1437
g0
(g1
g2
(lp1438
Vwith
p1439
atp1440
Rp1441
(dp1442
g12
VIN
p1443
sbag0
(g1
g2
(lp1444
g0
(g1
g2
(lp1445
g0
(g1
g2
(lp1446
Vsome
p1447
atp1448
Rp1449
(dp1450
g12
VDT
p1451
sbag0
(g1
g2
(lp1452
Vguy
p1453
atp1454
Rp1455
(dp1456
g12
VNN
p1457
sbatp1458
Rp1459
(dp1460
g12
VNP
p1461
sbag0
(g1
g2
(lp1462
g0
(g1
g2
(lp1463
g0
(g1
g2
(lp1464
Vwho
p1465
atp1466
Rp1467
(dp1468
g12
VWP
p1469
sbatp1470
Rp1471
(dp1472
g12
VWHNP
p1473
sbag0
(g1
g2
(lp1474
g0
(g1
g2
(lp1475
g0
(g1
g2
(lp1476
V's
p1477
atp1478
Rp1479
(dp1480
g12
VVBZ
p1481
sbag0
(g1
g2
(lp1482
g0
(g1
g2
(lp1483
Vreading
p1484
atp1485
Rp1486
(dp1487
g12
VVBG
p1488
sbag0
(g1
g2
(lp1489
g0
(g1
g2
(lp1490
Va
p1491
atp1492
Rp1493
(dp1494
g12
VDT
p1495
sbag0
(g1
g2
(lp1496
Vbook
p1497
atp1498
Rp1499
(dp1500
g12
VNN
p1501
sbatp1502
Rp1503
(dp1504
g12
VNP
p1505
sbatp1506
Rp1507
(dp1508
g12
VVP
p1509
sbatp1510
Rp1511
(dp1512
g12
VVP
p1513
sbatp1514
Rp1515
(dp1516
g12
VS
p1517
sbatp1518
Rp1519
(dp1520
g12
VSBAR
p1521
sbatp1522
Rp1523
(dp1524
g12
VNP
p1525
sbatp1526
Rp1527
(dp1528
g12
VPP
p1529
sbatp1530
Rp1531
(dp1532
g12
VVP
p1533
sbatp1534
Rp1535
(dp1536
g12
VS
p1537
sbag0
(g1
g2
(lp1538
V.
p1539
atp1540
Rp1541
(dp1542
g12
V.
p1543
sbatp1544
Rp1545
(dp1546
g12
VS
p1547
sbatp1548
Rp1549
(dp1550
g12
S'id: 5'
p1551
sbag0
(g1
g2
(lp1552
g0
(g1
g2
(lp1553
g0
(g1
g2
(lp1554
g0
(g1
g2
(lp1555
VSitting
p1556
atp1557
Rp1558
(dp1559
g12
VVBG
p1560
sbag0
(g1
g2
(lp1561
g0
(g1
g2
(lp1562
Von
p1563
atp1564
Rp1565
(dp1566
g12
VIN
p1567
sbag0
(g1
g2
(lp1568
g0
(g1
g2
(lp1569
g0
(g1
g2
(lp1570
Va
p1571
atp1572
Rp1573
(dp1574
g12
VDT
p1575
sbag0
(g1
g2
(lp1576
Vblanket
p1577
atp1578
Rp1579
(dp1580
g12
VNN
p1581
sbatp1582
Rp1583
(dp1584
g12
VNP
p1585
sbag0
(g1
g2
(lp1586
g0
(g1
g2
(lp1587
Vwith
p1588
atp1589
Rp1590
(dp1591
g12
VIN
p1592
sbag0
(g1
g2
(lp1593
g0
(g1
g2
(lp1594
Va
p1595
atp1596
Rp1597
(dp1598
g12
VDT
p1599
sbag0
(g1
g2
(lp1600
Vpicnic
p1601
atp1602
Rp1603
(dp1604
g12
VNN
p1605
sbag0
(g1
g2
(lp1606
Vblanket
p1607
atp1608
Rp1609
(dp1610
g12
VNN
p1611
sbatp1612
Rp1613
(dp1614
g12
VNP
p1615
sbatp1616
Rp1617
(dp1618
g12
VPP
p1619
sbatp1620
Rp1621
(dp1622
g12
VNP
p1623
sbatp1624
Rp1625
(dp1626
g12
VPP
p1627
sbatp1628
Rp1629
(dp1630
g12
VVP
p1631
sbag0
(g1
g2
(lp1632
V.
p1633
atp1634
Rp1635
(dp1636
g12
V.
p1637
sbatp1638
Rp1639
(dp1640
g12
VS
p1641
sbatp1642
Rp1643
(dp1644
g12
S'id: 6'
p1645
sbag0
(g1
g2
(lp1646
g0
(g1
g2
(lp1647
g0
(g1
g2
(lp1648
g0
(g1
g2
(lp1649
VAnd
p1650
atp1651
Rp1652
(dp1653
g12
VCC
p1654
sbag0
(g1
g2
(lp1655
g0
(g1
g2
(lp1656
g0
(g1
g2
(lp1657
Vthe
p1658
atp1659
Rp1660
(dp1661
g12
VDT
p1662
sbag0
(g1
g2
(lp1663
Vradio
p1664
atp1665
Rp1666
(dp1667
g12
VNN
p1668
sbatp1669
Rp1670
(dp1671
g12
VNP
p1672
sbag0
(g1
g2
(lp1673
V,
p1674
atp1675
Rp1676
(dp1677
g12
V,
p1678
sbag0
(g1
g2
(lp1679
Vand
p1680
atp1681
Rp1682
(dp1683
g12
VCC
p1684
sbag0
(g1
g2
(lp1685
g0
(g1
g2
(lp1686
Vthe
p1687
atp1688
Rp1689
(dp1690
g12
VDT
p1691
sbag0
(g1
g2
(lp1692
Vshoes
p1693
atp1694
Rp1695
(dp1696
g12
VNNS
p1697
sbatp1698
Rp1699
(dp1700
g12
VNP
p1701
sbatp1702
Rp1703
(dp1704
g12
VNP
p1705
sbag0
(g1
g2
(lp1706
g0
(g1
g2
(lp1707
Voff
p1708
atp1709
Rp1710
(dp1711
g12
VRP
p1712
sbatp1713
Rp1714
(dp1715
g12
VADVP
p1716
sbag0
(g1
g2
(lp1717
V,
p1718
atp1719
Rp1720
(dp1721
g12
V,
p1722
sbag0
(g1
g2
(lp1723
g0
(g1
g2
(lp1724
Vand
p1725
atp1726
Rp1727
(dp1728
g12
VCC
p1729
sbag0
(g1
g2
(lp1730
g0
(g1
g2
(lp1731
Vdid
p1732
atp1733
Rp1734
(dp1735
g12
VVBD
p1736
sbag0
(g1
g2
(lp1737
g0
(g1
g2
(lp1738
g0
(g1
g2
(lp1739
VI
p1740
atp1741
Rp1742
(dp1743
g12
VPRP
p1744
sbatp1745
Rp1746
(dp1747
g12
VNP
p1748
sbag0
(g1
g2
(lp1749
g0
(g1
g2
(lp1750
Vmention
p1751
atp1752
Rp1753
(dp1754
g12
VVB
p1755
sbag0
(g1
g2
(lp1756
g0
(g1
g2
(lp1757
Vthe
p1758
atp1759
Rp1760
(dp1761
g12
VDT
p1762
sbag0
(g1
g2
(lp1763
Vdog
p1764
atp1765
Rp1766
(dp1767
g12
VNN
p1768
sbatp1769
Rp1770
(dp1771
g12
VNP
p1772
sbatp1773
Rp1774
(dp1775
g12
VVP
p1776
sbatp1777
Rp1778
(dp1779
g12
VS
p1780
sbatp1781
Rp1782
(dp1783
g12
VVP
p1784
sbatp1785
Rp1786
(dp1787
g12
VVP
p1788
sbatp1789
Rp1790
(dp1791
g12
VS
p1792
sbag0
(g1
g2
(lp1793
g0
(g1
g2
(lp1794
Vis
p1795
atp1796
Rp1797
(dp1798
g12
VVBZ
p1799
sbag0
(g1
g2
(lp1800
g0
(g1
g2
(lp1801
Vchasing
p1802
atp1803
Rp1804
(dp1805
g12
VVBG
p1806
sbatp1807
Rp1808
(dp1809
g12
VVP
p1810
sbatp1811
Rp1812
(dp1813
g12
VVP
p1814
sbag0
(g1
g2
(lp1815
g0
(g1
g2
(lp1816
Vthe
p1817
atp1818
Rp1819
(dp1820
g12
VDT
p1821
sbag0
(g1
g2
(lp1822
Vboy
p1823
atp1824
Rp1825
(dp1826
g12
VNN
p1827
sbatp1828
Rp1829
(dp1830
g12
VNP
p1831
sbatp1832
Rp1833
(dp1834
g12
VSINV
p1835
sbatp1836
Rp1837
(dp1838
g12
S'id: 7'
p1839
sbatp1840
Rp1841
(dp1842
g12
S'sentences'
p1843
sb.