ccopy_reg
_reconstructor
p0
(cnltk.tree
Tree
p1
c__builtin__
list
p2
(lp3
g0
(g1
g2
(lp4
g0
(g1
g2
(lp5
g0
(g1
g2
(lp6
VThis in the water
p7
atp8
Rp9
(dp10
S'_label'
p11
S'start: 1'
p12
sbatp13
Rp14
(dp15
g11
S'sent: 1'
p16
sbag0
(g1
g2
(lp17
g0
(g1
g2
(lp18
Va whole bunch of people here doing
p19
atp20
Rp21
(dp22
g11
S'start: 7'
p23
sbatp24
Rp25
(dp26
g11
S'sent: 1'
p27
sbag0
(g1
g2
(lp28
g0
(g1
g2
(lp29
Vit
p30
atp31
Rp32
(dp33
g11
S'start: 28'
p34
sbatp35
Rp36
(dp37
g11
S'sent: 1'
p38
sbag0
(g1
g2
(lp39
g0
(g1
g2
(lp40
Vthis
p41
atp42
Rp43
(dp44
g11
S'start: 16'
p45
sbatp46
Rp47
(dp48
g11
S'sent: 4'
p49
sbag0
(g1
g2
(lp50
g0
(g1
g2
(lp51
Vthis
p52
atp53
Rp54
(dp55
g11
S'start: 19'
p56
sbatp57
Rp58
(dp59
g11
S'sent: 4'
p60
sbatp61
Rp62
(dp63
g11
S'id: 2'
p64
sbag0
(g1
g2
(lp65
g0
(g1
g2
(lp66
g0
(g1
g2
(lp67
VI
p68
atp69
Rp70
(dp71
g11
S'start: 15'
p72
sbatp73
Rp74
(dp75
g11
S'sent: 1'
p76
sbag0
(g1
g2
(lp77
g0
(g1
g2
(lp78
VI
p79
atp80
Rp81
(dp82
g11
S'start: 8'
p83
sbatp84
Rp85
(dp86
g11
S'sent: 8'
p87
sbag0
(g1
g2
(lp88
g0
(g1
g2
(lp89
VI
p90
atp91
Rp92
(dp93
g11
S'start: 12'
p94
sbatp95
Rp96
(dp97
g11
S'sent: 13'
p98
sbag0
(g1
g2
(lp99
g0
(g1
g2
(lp100
VI
p101
atp102
Rp103
(dp104
g11
S'start: 10'
p105
sbatp106
Rp107
(dp108
g11
S'sent: 15'
p109
sbatp110
Rp111
(dp112
g11
S'id: 5'
p113
sbag0
(g1
g2
(lp114
g0
(g1
g2
(lp115
g0
(g1
g2
(lp116
Vfour seventy
p117
atp118
Rp119
(dp120
g11
S'start: 7'
p121
sbatp122
Rp123
(dp124
g11
S'sent: 2'
p125
sbag0
(g1
g2
(lp126
g0
(g1
g2
(lp127
Vit
p128
atp129
Rp130
(dp131
g11
S'start: 17'
p132
sbatp133
Rp134
(dp135
g11
S'sent: 2'
p136
sbag0
(g1
g2
(lp137
g0
(g1
g2
(lp138
Va special time
p139
atp140
Rp141
(dp142
g11
S'start: 19'
p143
sbatp144
Rp145
(dp146
g11
S'sent: 2'
p147
sbag0
(g1
g2
(lp148
g0
(g1
g2
(lp149
Vfour seventy
p150
atp151
Rp152
(dp153
g11
S'start: 3'
p154
sbatp155
Rp156
(dp157
g11
S'sent: 12'
p158
sbatp159
Rp160
(dp161
g11
S'id: 8'
p162
sbag0
(g1
g2
(lp163
g0
(g1
g2
(lp164
g0
(g1
g2
(lp165
Va boat
p166
atp167
Rp168
(dp169
g11
S'start: 9'
p170
sbatp171
Rp172
(dp173
g11
S'sent: 2'
p174
sbag0
(g1
g2
(lp175
g0
(g1
g2
(lp176
Va boat
p177
atp178
Rp179
(dp180
g11
S'start: 4'
p181
sbatp182
Rp183
(dp184
g11
S'sent: 19'
p185
sbag0
(g1
g2
(lp186
g0
(g1
g2
(lp187
VThe boat
p188
atp189
Rp190
(dp191
g11
S'start: 1'
p192
sbatp193
Rp194
(dp195
g11
S'sent: 20'
p196
sbatp197
Rp198
(dp199
g11
S'id: 11'
p200
sbag0
(g1
g2
(lp201
g0
(g1
g2
(lp202
g0
(g1
g2
(lp203
Vthe night
p204
atp205
Rp206
(dp207
g11
S'start: 11'
p208
sbatp209
Rp210
(dp211
g11
S'sent: 4'
p212
sbag0
(g1
g2
(lp213
g0
(g1
g2
(lp214
Vthe night
p215
atp216
Rp217
(dp218
g11
S'start: 4'
p219
sbatp220
Rp221
(dp222
g11
S'sent: 11'
p223
sbatp224
Rp225
(dp226
g11
S'id: 20'
p227
sbag0
(g1
g2
(lp228
g0
(g1
g2
(lp229
g0
(g1
g2
(lp230
VGuy 's
p231
atp232
Rp233
(dp234
g11
S'start: 1'
p235
sbatp236
Rp237
(dp238
g11
S'sent: 5'
p239
sbag0
(g1
g2
(lp240
g0
(g1
g2
(lp241
Vhis
p242
atp243
Rp244
(dp245
g11
S'start: 10'
p246
sbatp247
Rp248
(dp249
g11
S'sent: 6'
p250
sbag0
(g1
g2
(lp251
g0
(g1
g2
(lp252
Vhe
p253
atp254
Rp255
(dp256
g11
S'start: 18'
p257
sbatp258
Rp259
(dp260
g11
S'sent: 6'
p261
sbag0
(g1
g2
(lp262
g0
(g1
g2
(lp263
Vhe
p264
atp265
Rp266
(dp267
g11
S'start: 27'
p268
sbatp269
Rp270
(dp271
g11
S'sent: 6'
p272
sbatp273
Rp274
(dp275
g11
S'id: 25'
p276
sbag0
(g1
g2
(lp277
g0
(g1
g2
(lp278
g0
(g1
g2
(lp279
Vthere , who lives there , who does anything
p280
atp281
Rp282
(dp283
g11
S'start: 29'
p284
sbatp285
Rp286
(dp287
g11
S'sent: 6'
p288
sbag0
(g1
g2
(lp289
g0
(g1
g2
(lp290
Vthey
p291
atp292
Rp293
(dp294
g11
S'start: 39'
p295
sbatp296
Rp297
(dp298
g11
S'sent: 6'
p299
sbatp300
Rp301
(dp302
g11
S'id: 36'
p303
sbag0
(g1
g2
(lp304
g0
(g1
g2
(lp305
g0
(g1
g2
(lp306
VSo here 's happening .
p307
atp308
Rp309
(dp310
g11
S'start: 1'
p311
sbatp312
Rp313
(dp314
g11
S'sent: 7'
p315
sbag0
(g1
g2
(lp316
g0
(g1
g2
(lp317
VThey
p318
atp319
Rp320
(dp321
g11
S'start: 1'
p322
sbatp323
Rp324
(dp325
g11
S'sent: 9'
p326
sbatp327
Rp328
(dp329
g11
S'id: 39'
p330
sbag0
(g1
g2
(lp331
g0
(g1
g2
(lp332
g0
(g1
g2
(lp333
Va little clause
p334
atp335
Rp336
(dp337
g11
S'start: 3'
p338
sbatp339
Rp340
(dp341
g11
S'sent: 8'
p342
sbag0
(g1
g2
(lp343
g0
(g1
g2
(lp344
Vit
p345
atp346
Rp347
(dp348
g11
S'start: 13'
p349
sbatp350
Rp351
(dp352
g11
S'sent: 8'
p353
sbatp354
Rp355
(dp356
g11
S'id: 42'
p357
sbag0
(g1
g2
(lp358
g0
(g1
g2
(lp359
g0
(g1
g2
(lp360
VHere 's
p361
atp362
Rp363
(dp364
g11
S'start: 1'
p365
sbatp366
Rp367
(dp368
g11
S'sent: 12'
p369
sbag0
(g1
g2
(lp370
g0
(g1
g2
(lp371
VHere
p372
atp373
Rp374
(dp375
g11
S'start: 1'
p376
sbatp377
Rp378
(dp379
g11
S'sent: 16'
p380
sbag0
(g1
g2
(lp381
g0
(g1
g2
(lp382
Va ladio playing nothing
p383
atp384
Rp385
(dp386
g11
S'start: 3'
p387
sbatp388
Rp389
(dp390
g11
S'sent: 16'
p391
sbag0
(g1
g2
(lp392
g0
(g1
g2
(lp393
VHere 's
p394
atp395
Rp396
(dp397
g11
S'start: 1'
p398
sbatp399
Rp400
(dp401
g11
S'sent: 18'
p402
sbag0
(g1
g2
(lp403
g0
(g1
g2
(lp404
VHere
p405
atp406
Rp407
(dp408
g11
S'start: 1'
p409
sbatp410
Rp411
(dp412
g11
S'sent: 19'
p413
sbatp414
Rp415
(dp416
g11
S'id: 54'
p417
sbag0
(g1
g2
(lp418
g0
(g1
g2
(lp419
g0
(g1
g2
(lp420
Va
p421
atp422
Rp423
(dp424
g11
S'start: 6'
p425
sbatp426
Rp427
(dp428
g11
S'sent: 12'
p429
sbag0
(g1
g2
(lp430
g0
(g1
g2
(lp431
Vhe
p432
atp433
Rp434
(dp435
g11
S'start: 17'
p436
sbatp437
Rp438
(dp439
g11
S'sent: 13'
p440
sbag0
(g1
g2
(lp441
g0
(g1
g2
(lp442
VHe
p443
atp444
Rp445
(dp446
g11
S'start: 1'
p447
sbatp448
Rp449
(dp450
g11
S'sent: 14'
p451
sbag0
(g1
g2
(lp452
g0
(g1
g2
(lp453
VHe
p454
atp455
Rp456
(dp457
g11
S'start: 1'
p458
sbatp459
Rp460
(dp461
g11
S'sent: 15'
p462
sbag0
(g1
g2
(lp463
g0
(g1
g2
(lp464
VHe
p465
atp466
Rp467
(dp468
g11
S'start: 1'
p469
sbatp470
Rp471
(dp472
g11
S'sent: 17'
p473
sbag0
(g1
g2
(lp474
g0
(g1
g2
(lp475
Vhe
p476
atp477
Rp478
(dp479
g11
S'start: 9'
p480
sbatp481
Rp482
(dp483
g11
S'sent: 17'
p484
sbag0
(g1
g2
(lp485
g0
(g1
g2
(lp486
Vhimself
p487
atp488
Rp489
(dp490
g11
S'start: 11'
p491
sbatp492
Rp493
(dp494
g11
S'sent: 17'
p495
sbag0
(g1
g2
(lp496
g0
(g1
g2
(lp497
Va
p498
atp499
Rp500
(dp501
g11
S'start: 6'
p502
sbatp503
Rp504
(dp505
g11
S'sent: 18'
p506
sbatp507
Rp508
(dp509
g11
S'id: 55'
p510
sbag0
(g1
g2
(lp511
g0
(g1
g2
(lp512
g0
(g1
g2
(lp513
Va lady just doing , making a des
p514
atp515
Rp516
(dp517
g11
S'start: 3'
p518
sbatp519
Rp520
(dp521
g11
S'sent: 13'
p522
sbag0
(g1
g2
(lp523
g0
(g1
g2
(lp524
Vshe
p525
atp526
Rp527
(dp528
g11
S'start: 7'
p529
sbatp530
Rp531
(dp532
g11
S'sent: 15'
p533
sbatp534
Rp535
(dp536
g11
S'id: 58'
p537
sbatp538
Rp539
(dp540
g11
S'coreferences'
p541
sb.