ccopy_reg
_reconstructor
p0
(cnltk.tree
Tree
p1
c__builtin__
list
p2
(lp3
g0
(g1
g2
(lp4
g0
(g1
g2
(lp5
g0
(g1
g2
(lp6
g0
(g1
g2
(lp7
VDog
p8
atp9
Rp10
(dp11
S'_label'
p12
VNN
p13
sbag0
(g1
g2
(lp14
Vcat
p15
atp16
Rp17
(dp18
g12
VNN
p19
sbatp20
Rp21
(dp22
g12
VNP
p23
sbag0
(g1
g2
(lp24
V,
p25
atp26
Rp27
(dp28
g12
V,
p29
sbag0
(g1
g2
(lp30
g0
(g1
g2
(lp31
Vno
p32
atp33
Rp34
(dp35
g12
VDT
p36
sbatp37
Rp38
(dp39
g12
VNP
p40
sbag0
(g1
g2
(lp41
V.
p42
atp43
Rp44
(dp45
g12
V.
p46
sbatp47
Rp48
(dp49
g12
VNP
p50
sbatp51
Rp52
(dp53
g12
S'id: 0'
p54
sbag0
(g1
g2
(lp55
g0
(g1
g2
(lp56
g0
(g1
g2
(lp57
g0
(g1
g2
(lp58
VIon
p59
atp60
Rp61
(dp62
g12
VNN
p63
sbatp64
Rp65
(dp66
g12
VNP
p67
sbag0
(g1
g2
(lp68
V,
p69
atp70
Rp71
(dp72
g12
V,
p73
sbag0
(g1
g2
(lp74
g0
(g1
g2
(lp75
g0
(g1
g2
(lp76
Vion
p77
atp78
Rp79
(dp80
g12
VNN
p81
sbatp82
Rp83
(dp84
g12
VNP
p85
sbag0
(g1
g2
(lp86
V,
p87
atp88
Rp89
(dp90
g12
V,
p91
sbag0
(g1
g2
(lp92
g0
(g1
g2
(lp93
Va
p94
atp95
Rp96
(dp97
g12
VDT
p98
sbag0
(g1
g2
(lp99
Vdog
p100
atp101
Rp102
(dp103
g12
VNN
p104
sbatp105
Rp106
(dp107
g12
VNP
p108
sbatp109
Rp110
(dp111
g12
VNP
p112
sbag0
(g1
g2
(lp113
V.
p114
atp115
Rp116
(dp117
g12
V.
p118
sbatp119
Rp120
(dp121
g12
VNP
p122
sbatp123
Rp124
(dp125
g12
S'id: 1'
p126
sbag0
(g1
g2
(lp127
g0
(g1
g2
(lp128
g0
(g1
g2
(lp129
g0
(g1
g2
(lp130
g0
(g1
g2
(lp131
VHorse
p132
atp133
Rp134
(dp135
g12
VNN
p136
sbatp137
Rp138
(dp139
g12
VNP
p140
sbag0
(g1
g2
(lp141
V,
p142
atp143
Rp144
(dp145
g12
V,
p146
sbag0
(g1
g2
(lp147
g0
(g1
g2
(lp148
Vcan-cant
p149
atp150
Rp151
(dp152
g12
VNN
p153
sbatp154
Rp155
(dp156
g12
VNP
p157
sbag0
(g1
g2
(lp158
V,
p159
atp160
Rp161
(dp162
g12
V,
p163
sbatp164
Rp165
(dp166
g12
VNP
p167
sbag0
(g1
g2
(lp168
g0
(g1
g2
(lp169
Voh
p170
atp171
Rp172
(dp173
g12
VUH
p174
sbag0
(g1
g2
(lp175
g0
(g1
g2
(lp176
Vman
p177
atp178
Rp179
(dp180
g12
VUH
p181
sbatp182
Rp183
(dp184
g12
VINTJ
p185
sbatp186
Rp187
(dp188
g12
VVP
p189
sbag0
(g1
g2
(lp190
V.
p191
atp192
Rp193
(dp194
g12
V.
p195
sbatp196
Rp197
(dp198
g12
VS
p199
sbatp200
Rp201
(dp202
g12
S'id: 2'
p203
sbag0
(g1
g2
(lp204
g0
(g1
g2
(lp205
g0
(g1
g2
(lp206
g0
(g1
g2
(lp207
VGah
p208
atp209
Rp210
(dp211
g12
VNNP
p212
sbatp213
Rp214
(dp215
g12
VNP
p216
sbag0
(g1
g2
(lp217
g0
(g1
g2
(lp218
Vdang
p219
atp220
Rp221
(dp222
g12
VVBZ
p223
sbag0
(g1
g2
(lp224
g0
(g1
g2
(lp225
Vit
p226
atp227
Rp228
(dp229
g12
VPRP
p230
sbatp231
Rp232
(dp233
g12
VNP
p234
sbatp235
Rp236
(dp237
g12
VVP
p238
sbag0
(g1
g2
(lp239
V.
p240
atp241
Rp242
(dp243
g12
V.
p244
sbatp245
Rp246
(dp247
g12
VS
p248
sbatp249
Rp250
(dp251
g12
S'id: 3'
p252
sbag0
(g1
g2
(lp253
g0
(g1
g2
(lp254
g0
(g1
g2
(lp255
g0
(g1
g2
(lp256
VDear
p257
atp258
Rp259
(dp260
g12
VNNP
p261
sbatp262
Rp263
(dp264
g12
VNP
p265
sbag0
(g1
g2
(lp266
V.
p267
atp268
Rp269
(dp270
g12
V.
p271
sbatp272
Rp273
(dp274
g12
VFRAG
p275
sbatp276
Rp277
(dp278
g12
S'id: 4'
p279
sbag0
(g1
g2
(lp280
g0
(g1
g2
(lp281
g0
(g1
g2
(lp282
g0
(g1
g2
(lp283
VA
p284
atp285
Rp286
(dp287
g12
VDT
p288
sbag0
(g1
g2
(lp289
Vcat
p290
atp291
Rp292
(dp293
g12
VNN
p294
sbatp295
Rp296
(dp297
g12
VNP
p298
sbag0
(g1
g2
(lp299
V,
p300
atp301
Rp302
(dp303
g12
V,
p304
sbag0
(g1
g2
(lp305
g0
(g1
g2
(lp306
Vno
p307
atp308
Rp309
(dp310
g12
VDT
p311
sbatp312
Rp313
(dp314
g12
VNP
p315
sbag0
(g1
g2
(lp316
V.
p317
atp318
Rp319
(dp320
g12
V.
p321
sbatp322
Rp323
(dp324
g12
VNP
p325
sbatp326
Rp327
(dp328
g12
S'id: 5'
p329
sbag0
(g1
g2
(lp330
g0
(g1
g2
(lp331
g0
(g1
g2
(lp332
g0
(g1
g2
(lp333
g0
(g1
g2
(lp334
VA
p335
atp336
Rp337
(dp338
g12
VDT
p339
sbag0
(g1
g2
(lp340
g0
(g1
g2
(lp341
V,
p342
atp343
Rp344
(dp345
g12
V,
p346
sbag0
(g1
g2
(lp347
g0
(g1
g2
(lp348
Vboy
p349
atp350
Rp351
(dp352
g12
VNN
p353
sbatp354
Rp355
(dp356
g12
VNP
p357
sbag0
(g1
g2
(lp358
V,
p359
atp360
Rp361
(dp362
g12
V,
p363
sbatp364
Rp365
(dp366
g12
VPRN
p367
sbag0
(g1
g2
(lp368
Vlittle
p369
atp370
Rp371
(dp372
g12
VJJ
p373
sbag0
(g1
g2
(lp374
Vbaby
p375
atp376
Rp377
(dp378
g12
VNN
p379
sbatp380
Rp381
(dp382
g12
VNP
p383
sbag0
(g1
g2
(lp384
V,
p385
atp386
Rp387
(dp388
g12
V,
p389
sbag0
(g1
g2
(lp390
g0
(g1
g2
(lp391
Vtwo
p392
atp393
Rp394
(dp395
g12
VCD
p396
sbag0
(g1
g2
(lp397
Vbabies
p398
atp399
Rp400
(dp401
g12
VNNS
p402
sbatp403
Rp404
(dp405
g12
VNP
p406
sbatp407
Rp408
(dp409
g12
VNP
p410
sbag0
(g1
g2
(lp411
V.
p412
atp413
Rp414
(dp415
g12
V.
p416
sbatp417
Rp418
(dp419
g12
VNP
p420
sbatp421
Rp422
(dp423
g12
S'id: 6'
p424
sbag0
(g1
g2
(lp425
g0
(g1
g2
(lp426
g0
(g1
g2
(lp427
g0
(g1
g2
(lp428
VHorse
p429
atp430
Rp431
(dp432
g12
VNN
p433
sbatp434
Rp435
(dp436
g12
VNP
p437
sbag0
(g1
g2
(lp438
g0
(g1
g2
(lp439
Vwalking
p440
atp441
Rp442
(dp443
g12
VNN
p444
sbatp445
Rp446
(dp447
g12
VNP
p448
sbag0
(g1
g2
(lp449
V.
p450
atp451
Rp452
(dp453
g12
V.
p454
sbatp455
Rp456
(dp457
g12
VNP
p458
sbatp459
Rp460
(dp461
g12
S'id: 7'
p462
sbag0
(g1
g2
(lp463
g0
(g1
g2
(lp464
g0
(g1
g2
(lp465
g0
(g1
g2
(lp466
VBoy
p467
atp468
Rp469
(dp470
g12
VNN
p471
sbatp472
Rp473
(dp474
g12
VNP
p475
sbag0
(g1
g2
(lp476
g0
(g1
g2
(lp477
Vup
p478
atp479
Rp480
(dp481
g12
VRB
p482
sbatp483
Rp484
(dp485
g12
VADVP
p486
sbag0
(g1
g2
(lp487
V.
p488
atp489
Rp490
(dp491
g12
V.
p492
sbatp493
Rp494
(dp495
g12
VFRAG
p496
sbatp497
Rp498
(dp499
g12
S'id: 8'
p500
sbatp501
Rp502
(dp503
g12
S'sentences'
p504
sb.