ccopy_reg
_reconstructor
p0
(cnltk.tree
Tree
p1
c__builtin__
list
p2
(lp3
g0
(g1
g2
(lp4
tp5
Rp6
(dp7
S'_label'
p8
S'id: 0'
p9
sbag0
(g1
g2
(lp10
g0
(g1
g2
(lp11
g0
(g1
g2
(lp12
g0
(g1
g2
(lp13
g0
(g1
g2
(lp14
(lp15
S'word: the, index: 4'
p16
aatp17
Rp18
(dp19
g8
Vdet
p20
sbatp21
Rp22
(dp23
g8
S'word: time, index: 5'
p24
sbatp25
Rp26
(dp27
g8
Vprep
p28
sbag0
(g1
g2
(lp29
(lp30
S'word: is, index: 1'
p31
aatp32
Rp33
(dp34
g8
Vaux
p35
sbatp36
Rp37
(dp38
g8
S'word: do, index: 2'
p39
sbatp40
Rp41
(dp42
g8
S'id: 1'
p43
sbag0
(g1
g2
(lp44
tp45
Rp46
(dp47
g8
S'id: 2'
p48
sbag0
(g1
g2
(lp49
g0
(g1
g2
(lp50
g0
(g1
g2
(lp51
(lp52
S'word: the, index: 1'
p53
aatp54
Rp55
(dp56
g8
Vdet
p57
sbag0
(g1
g2
(lp58
g0
(g1
g2
(lp59
g0
(g1
g2
(lp60
(lp61
S'word: her, index: 4'
p62
aatp63
Rp64
(dp65
g8
Vposs
p66
sbatp67
Rp68
(dp69
g8
S'word: daughter, index: 5'
p70
sbatp71
Rp72
(dp73
g8
Vconj
p74
sbag0
(g1
g2
(lp75
g0
(g1
g2
(lp76
g0
(g1
g2
(lp77
(lp78
S'word: boutcorn, index: 10'
p79
aatp80
Rp81
(dp82
g8
Vappos
p83
sbag0
(g1
g2
(lp84
(lp85
S'word: popcorn, index: 12'
p86
aatp87
Rp88
(dp89
g8
Vappos
p90
sbag0
(g1
g2
(lp91
(lp92
S'word: rasor, index: 14'
p93
aatp94
Rp95
(dp96
g8
Vappos
p97
sbag0
(g1
g2
(lp98
(lp99
S'word: a, index: 7'
p100
aatp101
Rp102
(dp103
g8
Vdet
p104
sbatp105
Rp106
(dp107
g8
S'word: klow, index: 8'
p108
sbatp109
Rp110
(dp111
g8
Vappos
p112
sbatp113
Rp114
(dp115
g8
S'word: man, index: 2'
p116
sbatp117
Rp118
(dp119
g8
S'id: 3'
p120
sbag0
(g1
g2
(lp121
g0
(g1
g2
(lp122
g0
(g1
g2
(lp123
(lp124
S'word: the, index: 1'
p125
aatp126
Rp127
(dp128
g8
Vdet
p129
sbag0
(g1
g2
(lp130
(lp131
S'word: and, index: 4'
p132
aatp133
Rp134
(dp135
g8
Vcc
p136
sbag0
(g1
g2
(lp137
g0
(g1
g2
(lp138
g0
(g1
g2
(lp139
(lp140
S'word: he, index: 5'
p141
aatp142
Rp143
(dp144
g8
Vnsubj
p145
sbag0
(g1
g2
(lp146
(lp147
S'word: stop, index: 7'
p148
aatp149
Rp150
(dp151
g8
Vxcomp
p152
sbatp153
Rp154
(dp155
g8
S'word: says, index: 6'
p156
sbatp157
Rp158
(dp159
g8
Vdep
p160
sbatp161
Rp162
(dp163
g8
S'word: guy, index: 2'
p164
sbatp165
Rp166
(dp167
g8
S'id: 4'
p168
sbag0
(g1
g2
(lp169
g0
(g1
g2
(lp170
g0
(g1
g2
(lp171
(lp172
S'word: and, index: 1'
p173
aatp174
Rp175
(dp176
g8
Vcc
p177
sbag0
(g1
g2
(lp178
g0
(g1
g2
(lp179
g0
(g1
g2
(lp180
(lp181
S'word: the, index: 2'
p182
aatp183
Rp184
(dp185
g8
Vdet
p186
sbag0
(g1
g2
(lp187
(lp188
S'word: little, index: 3'
p189
aatp190
Rp191
(dp192
g8
Vamod
p193
sbatp194
Rp195
(dp196
g8
S'word: girl, index: 4'
p197
sbatp198
Rp199
(dp200
g8
Vnsubj
p201
sbag0
(g1
g2
(lp202
(lp203
S'word: is, index: 5'
p204
aatp205
Rp206
(dp207
g8
Vaux
p208
sbag0
(g1
g2
(lp209
g0
(g1
g2
(lp210
g0
(g1
g2
(lp211
(lp212
S'word: his, index: 8'
p213
aatp214
Rp215
(dp216
g8
Vposs
p217
sbag0
(g1
g2
(lp218
(lp219
S'word: mother, index: 9'
p220
aatp221
Rp222
(dp223
g8
Vnn
p224
sbatp225
Rp226
(dp227
g8
S'word: lasing, index: 10'
p228
sbatp229
Rp230
(dp231
g8
Vdep
p232
sbatp233
Rp234
(dp235
g8
S'word: laughing, index: 6'
p236
sbatp237
Rp238
(dp239
g8
S'id: 5'
p240
sbag0
(g1
g2
(lp241
g0
(g1
g2
(lp242
g0
(g1
g2
(lp243
g0
(g1
g2
(lp244
g0
(g1
g2
(lp245
(lp246
S'word: the, index: 2'
p247
aatp248
Rp249
(dp250
g8
Vdet
p251
sbatp252
Rp253
(dp254
g8
S'word: tightrope, index: 3'
p255
sbatp256
Rp257
(dp258
g8
Vnsubj
p259
sbag0
(g1
g2
(lp260
(lp261
S'word: is, index: 4'
p262
aatp263
Rp264
(dp265
g8
Vaux
p266
sbag0
(g1
g2
(lp267
g0
(g1
g2
(lp268
g0
(g1
g2
(lp269
(lp270
S'word: her, index: 6'
p271
aatp272
Rp273
(dp274
g8
Vposs
p275
sbatp276
Rp277
(dp278
g8
S'word: job, index: 7'
p279
sbatp280
Rp281
(dp282
g8
Vdobj
p283
sbag0
(g1
g2
(lp284
(lp285
S'word: and, index: 1'
p286
aatp287
Rp288
(dp289
g8
Vcc
p290
sbatp291
Rp292
(dp293
g8
S'word: doing, index: 5'
p294
sbatp295
Rp296
(dp297
g8
S'id: 6'
p298
sbag0
(g1
g2
(lp299
g0
(g1
g2
(lp300
g0
(g1
g2
(lp301
g0
(g1
g2
(lp302
g0
(g1
g2
(lp303
(lp304
S'word: the, index: 5'
p305
aatp306
Rp307
(dp308
g8
Vdet
p309
sbatp310
Rp311
(dp312
g8
S'word: horse, index: 6'
p313
sbatp314
Rp315
(dp316
g8
Vnsubj
p317
sbag0
(g1
g2
(lp318
(lp319
S'word: what, index: 9'
p320
aatp321
Rp322
(dp323
g8
Vnsubj
p324
sbag0
(g1
g2
(lp325
(lp326
S"word: 's, index: 10"
p327
aatp328
Rp329
(dp330
g8
Vcop
p331
sbag0
(g1
g2
(lp332
(lp333
S'word: her, index: 11'
p334
aatp335
Rp336
(dp337
g8
Vposs
p338
sbag0
(g1
g2
(lp339
(lp340
S'word: rider, index: 14'
p341
aatp342
Rp343
(dp344
g8
Vappos
p345
sbag0
(g1
g2
(lp346
g0
(g1
g2
(lp347
g0
(g1
g2
(lp348
g0
(g1
g2
(lp349
g0
(g1
g2
(lp350
(lp351
S'word: around, index: 18'
p352
aatp353
Rp354
(dp355
g8
Vadvmod
p356
sbatp357
Rp358
(dp359
g8
S'word: looking, index: 17'
p360
sbatp361
Rp362
(dp363
g8
Vvmod
p364
sbatp365
Rp366
(dp367
g8
S'word: she, index: 16'
p368
sbatp369
Rp370
(dp371
g8
Vappos
p372
sbag0
(g1
g2
(lp373
(lp374
S'word: and, index: 1'
p375
aatp376
Rp377
(dp378
g8
Vcc
p379
sbag0
(g1
g2
(lp380
g0
(g1
g2
(lp381
g0
(g1
g2
(lp382
g311
atp383
Rp384
(dp385
g8
Vconj
p386
sbag0
(g1
g2
(lp387
(lp388
S'word: what, index: 9'
p389
aatp390
Rp391
(dp392
g8
Vconj
p393
sbag0
(g1
g2
(lp394
(lp395
S'word: the, index: 2'
p396
aatp397
Rp398
(dp399
g8
Vdet
p400
sbatp401
Rp402
(dp403
g8
S'word: horses, index: 3'
p404
sbatp405
Rp406
(dp407
g8
Vnsubj
p408
sbatp409
Rp410
(dp411
g8
S'word: name, index: 12'
p412
sbatp413
Rp414
(dp415
g8
S'id: 7'
p416
sbag0
(g1
g2
(lp417
g0
(g1
g2
(lp418
g0
(g1
g2
(lp419
(lp420
S'word: and, index: 1'
p421
aatp422
Rp423
(dp424
g8
Vcc
p425
sbag0
(g1
g2
(lp426
(lp427
S'word: all, index: 3'
p428
aatp429
Rp430
(dp431
g8
Vdep
p432
sbag0
(g1
g2
(lp433
g0
(g1
g2
(lp434
g0
(g1
g2
(lp435
g0
(g1
g2
(lp436
g0
(g1
g2
(lp437
(lp438
S'word: the, index: 8'
p439
aatp440
Rp441
(dp442
g8
Vdet
p443
sbag0
(g1
g2
(lp444
(lp445
S'word: big, index: 9'
p446
aatp447
Rp448
(dp449
g8
Vamod
p450
sbatp451
Rp452
(dp453
g8
S'word: part, index: 10'
p454
sbatp455
Rp456
(dp457
g8
Vappos
p458
sbag0
(g1
g2
(lp459
(lp460
S'word: the, index: 5'
p461
aatp462
Rp463
(dp464
g8
Vdet
p465
sbatp466
Rp467
(dp468
g8
S'word: circus, index: 6'
p469
sbatp470
Rp471
(dp472
g8
Vprep
p473
sbatp474
Rp475
(dp476
g8
S'word: people, index: 2'
p477
sbatp478
Rp479
(dp480
g8
S'id: 8'
p481
sbag0
(g1
g2
(lp482
g0
(g1
g2
(lp483
g0
(g1
g2
(lp484
(lp485
S'word: he, index: 11'
p486
aatp487
Rp488
(dp489
g8
Vnsubj
p490
sbag0
(g1
g2
(lp491
g0
(g1
g2
(lp492
g0
(g1
g2
(lp493
(lp494
S'word: his, index: 13'
p495
aatp496
Rp497
(dp498
g8
Vposs
p499
sbatp500
Rp501
(dp502
g8
S'word: arm, index: 14'
p503
sbatp504
Rp505
(dp506
g8
Vdobj
p507
sbag0
(g1
g2
(lp508
g0
(g1
g2
(lp509
g0
(g1
g2
(lp510
(lp511
S'word: he, index: 11'
p512
aatp513
Rp514
(dp515
g8
Vconj
p516
sbag0
(g1
g2
(lp517
(lp518
S'word: a, index: 2'
p519
aatp520
Rp521
(dp522
g8
Vdet
p523
sbag0
(g1
g2
(lp524
g0
(g1
g2
(lp525
g0
(g1
g2
(lp526
(lp527
S'word: the, index: 6'
p528
aatp529
Rp530
(dp531
g8
Vdet
p532
sbatp533
Rp534
(dp535
g8
S'word: trainer, index: 7'
p536
sbatp537
Rp538
(dp539
g8
Vconj
p540
sbag0
(g1
g2
(lp541
(lp542
S'word: he, index: 9'
p543
aatp544
Rp545
(dp546
g8
Vconj
p547
sbatp548
Rp549
(dp550
g8
S'word: linon, index: 3'
p551
sbatp552
Rp553
(dp554
g8
Vnsubj
p555
sbag0
(g1
g2
(lp556
g0
(g1
g2
(lp557
g0
(g1
g2
(lp558
g0
(g1
g2
(lp559
g0
(g1
g2
(lp560
(lp561
S'word: the, index: 17'
p562
aatp563
Rp564
(dp565
g8
Vdet
p566
sbag0
(g1
g2
(lp567
(lp568
S'word: lidon, index: 18'
p569
aatp570
Rp571
(dp572
g8
Vnn
p573
sbatp574
Rp575
(dp576
g8
S'word: answer, index: 19'
p577
sbatp578
Rp579
(dp580
g8
Vdep
p581
sbatp582
Rp583
(dp584
g8
S'word: that, index: 20'
p585
sbatp586
Rp587
(dp588
g8
Vconj
p589
sbag0
(g1
g2
(lp590
g534
atp591
Rp592
(dp593
g8
Vnsubj
p594
sbag0
(g1
g2
(lp595
(lp596
S'word: he, index: 9'
p597
aatp598
Rp599
(dp600
g8
Vnsubj
p601
sbatp602
Rp603
(dp604
g8
S'word: lift, index: 12'
p605
sbatp606
Rp607
(dp608
g8
S'id: 9'
p609
sbag0
(g1
g2
(lp610
g0
(g1
g2
(lp611
g0
(g1
g2
(lp612
(lp613
S'word: and, index: 1'
p614
aatp615
Rp616
(dp617
g8
Vcc
p618
sbatp619
Rp620
(dp621
g8
S'word: and, index: 3'
p622
sbatp623
Rp624
(dp625
g8
S'id: 10'
p626
sbag0
(g1
g2
(lp627
g0
(g1
g2
(lp628
g0
(g1
g2
(lp629
(lp630
S'word: The, index: 1'
p631
aatp632
Rp633
(dp634
g8
Vdet
p635
sbag0
(g1
g2
(lp636
(lp637
S'word: little, index: 2'
p638
aatp639
Rp640
(dp641
g8
Vamod
p642
sbag0
(g1
g2
(lp643
(lp644
S'word: no, index: 5'
p645
aatp646
Rp647
(dp648
g8
Vconj
p649
sbag0
(g1
g2
(lp650
g0
(g1
g2
(lp651
g0
(g1
g2
(lp652
(lp653
S'word: the, index: 7'
p654
aatp655
Rp656
(dp657
g8
Vdet
p658
sbatp659
Rp660
(dp661
g8
S'word: man, index: 8'
p662
sbatp663
Rp664
(dp665
g8
Vconj
p666
sbag0
(g1
g2
(lp667
g0
(g1
g2
(lp668
g0
(g1
g2
(lp669
(lp670
S'word: his, index: 10'
p671
aatp672
Rp673
(dp674
g8
Vposs
p675
sbatp676
Rp677
(dp678
g8
S'word: daughter, index: 11'
p679
sbatp680
Rp681
(dp682
g8
Vconj
p683
sbag0
(g1
g2
(lp684
g0
(g1
g2
(lp685
g0
(g1
g2
(lp686
g0
(g1
g2
(lp687
g0
(g1
g2
(lp688
(lp689
S'word: the, index: 14'
p690
aatp691
Rp692
(dp693
g8
Vdet
p694
sbag0
(g1
g2
(lp695
(lp696
S'word: circus, index: 15'
p697
aatp698
Rp699
(dp700
g8
Vnn
p701
sbatp702
Rp703
(dp704
g8
S'word: tightrope, index: 16'
p705
sbatp706
Rp707
(dp708
g8
Vprep
p709
sbatp710
Rp711
(dp712
g8
S'word: looking, index: 12'
p713
sbatp714
Rp715
(dp716
g8
Vvmod
p717
sbatp718
Rp719
(dp720
g8
S'word: boy, index: 3'
p721
sbatp722
Rp723
(dp724
g8
S'id: 11'
p725
sbag0
(g1
g2
(lp726
g0
(g1
g2
(lp727
g0
(g1
g2
(lp728
g0
(g1
g2
(lp729
g0
(g1
g2
(lp730
(lp731
S'word: the, index: 4'
p732
aatp733
Rp734
(dp735
g8
Vdet
p736
sbatp737
Rp738
(dp739
g8
S'word: clown, index: 5'
p740
sbatp741
Rp742
(dp743
g8
Vappos
p744
sbag0
(g1
g2
(lp745
(lp746
S'word: and, index: 1'
p747
aatp748
Rp749
(dp750
g8
Vcc
p751
sbatp752
Rp753
(dp754
g8
S'word: the, index: 2'
p755
sbatp756
Rp757
(dp758
g8
S'id: 12'
p759
sbatp760
Rp761
(dp762
g8
S'sentences'
p763
sb.