ccopy_reg
_reconstructor
p0
(cnltk.tree
Tree
p1
c__builtin__
list
p2
(lp3
g0
(g1
g2
(lp4
tp5
Rp6
(dp7
S'_label'
p8
S'id: 0'
p9
sbag0
(g1
g2
(lp10
tp11
Rp12
(dp13
g8
S'id: 1'
p14
sbag0
(g1
g2
(lp15
tp16
Rp17
(dp18
g8
S'id: 2'
p19
sbag0
(g1
g2
(lp20
g0
(g1
g2
(lp21
g0
(g1
g2
(lp22
g0
(g1
g2
(lp23
g0
(g1
g2
(lp24
(lp25
S'word: there, index: 3'
p26
aatp27
Rp28
(dp29
g8
Vpobj
p30
sbatp31
Rp32
(dp33
g8
S'word: by, index: 2'
p34
sbatp35
Rp36
(dp37
g8
Vpcomp
p38
sbatp39
Rp40
(dp41
g8
S'word: Over, index: 1'
p42
sbatp43
Rp44
(dp45
g8
S'id: 3'
p46
sbag0
(g1
g2
(lp47
tp48
Rp49
(dp50
g8
S'id: 4'
p51
sbag0
(g1
g2
(lp52
g0
(g1
g2
(lp53
g0
(g1
g2
(lp54
(lp55
S'word: no, index: 2'
p56
aatp57
Rp58
(dp59
g8
Vdep
p60
sbatp61
Rp62
(dp63
g8
S'word: Art, index: 1'
p64
sbatp65
Rp66
(dp67
g8
S'id: 5'
p68
sbag0
(g1
g2
(lp69
tp70
Rp71
(dp72
g8
S'id: 6'
p73
sbag0
(g1
g2
(lp74
tp75
Rp76
(dp77
g8
S'id: 7'
p78
sbag0
(g1
g2
(lp79
g0
(g1
g2
(lp80
g0
(g1
g2
(lp81
(lp82
S'word: Right, index: 1'
p83
aatp84
Rp85
(dp86
g8
Vadvmod
p87
sbatp88
Rp89
(dp90
g8
S'word: there, index: 2'
p91
sbatp92
Rp93
(dp94
g8
S'id: 8'
p95
sbag0
(g1
g2
(lp96
g0
(g1
g2
(lp97
g0
(g1
g2
(lp98
g0
(g1
g2
(lp99
g0
(g1
g2
(lp100
(lp101
S'word: a, index: 2'
p102
aatp103
Rp104
(dp105
g8
Vdet
p106
sbatp107
Rp108
(dp109
g8
S'word: yeah, index: 3'
p110
sbatp111
Rp112
(dp113
g8
Vpobj
p114
sbatp115
Rp116
(dp117
g8
S'word: Like, index: 1'
p118
sbatp119
Rp120
(dp121
g8
S'id: 9'
p122
sbag0
(g1
g2
(lp123
g0
(g1
g2
(lp124
g0
(g1
g2
(lp125
(lp126
S'word: That, index: 1'
p127
aatp128
Rp129
(dp130
g8
Vdet
p131
sbag0
(g1
g2
(lp132
(lp133
S'word: book, index: 4'
p134
aatp135
Rp136
(dp137
g8
Vappos
p138
sbatp139
Rp140
(dp141
g8
S'word: book, index: 2'
p142
sbatp143
Rp144
(dp145
g8
S'id: 10'
p146
sbag0
(g1
g2
(lp147
tp148
Rp149
(dp150
g8
S'id: 11'
p151
sbag0
(g1
g2
(lp152
tp153
Rp154
(dp155
g8
S'id: 12'
p156
sbag0
(g1
g2
(lp157
g0
(g1
g2
(lp158
g0
(g1
g2
(lp159
(lp160
S'word: no, index: 2'
p161
aatp162
Rp163
(dp164
g8
Vdep
p165
sbatp166
Rp167
(dp168
g8
S'word: Art, index: 1'
p169
sbatp170
Rp171
(dp172
g8
S'id: 13'
p173
sbag0
(g1
g2
(lp174
tp175
Rp176
(dp177
g8
S'id: 14'
p178
sbatp179
Rp180
(dp181
g8
S'sentences'
p182
sb.