ccopy_reg
_reconstructor
p0
(cnltk.tree
Tree
p1
c__builtin__
list
p2
(lp3
g0
(g1
g2
(lp4
g0
(g1
g2
(lp5
g0
(g1
g2
(lp6
g0
(g1
g2
(lp7
g0
(g1
g2
(lp8
VOh
p9
atp10
Rp11
(dp12
S'_label'
p13
VUH
p14
sbatp15
Rp16
(dp17
g13
VINTJ
p18
sbag0
(g1
g2
(lp19
g0
(g1
g2
(lp20
Vthis
p21
atp22
Rp23
(dp24
g13
VDT
p25
sbatp26
Rp27
(dp28
g13
VNP
p29
sbag0
(g1
g2
(lp30
g0
(g1
g2
(lp31
Vlooks
p32
atp33
Rp34
(dp35
g13
VVBZ
p36
sbag0
(g1
g2
(lp37
g0
(g1
g2
(lp38
Vlike
p39
atp40
Rp41
(dp42
g13
VIN
p43
sbag0
(g1
g2
(lp44
V,
p45
atp46
Rp47
(dp48
g13
V,
p49
sbag0
(g1
g2
(lp50
g0
(g1
g2
(lp51
g0
(g1
g2
(lp52
Vthis
p53
atp54
Rp55
(dp56
g13
VDT
p57
sbatp58
Rp59
(dp60
g13
VNP
p61
sbag0
(g1
g2
(lp62
g0
(g1
g2
(lp63
Vis
p64
atp65
Rp66
(dp67
g13
VVBZ
p68
sbag0
(g1
g2
(lp69
Vnot
p70
atp71
Rp72
(dp73
g13
VRB
p74
sbag0
(g1
g2
(lp75
g0
(g1
g2
(lp76
Va
p77
atp78
Rp79
(dp80
g13
VDT
p81
sbag0
(g1
g2
(lp82
Vbeach
p83
atp84
Rp85
(dp86
g13
VNN
p87
sbag0
(g1
g2
(lp88
Vhouse
p89
atp90
Rp91
(dp92
g13
VNN
p93
sbatp94
Rp95
(dp96
g13
VNP
p97
sbatp98
Rp99
(dp100
g13
VVP
p101
sbatp102
Rp103
(dp104
g13
VS
p105
sbatp106
Rp107
(dp108
g13
VSBAR
p109
sbatp110
Rp111
(dp112
g13
VVP
p113
sbatp114
Rp115
(dp116
g13
VS
p117
sbag0
(g1
g2
(lp118
V,
p119
atp120
Rp121
(dp122
g13
V,
p123
sbag0
(g1
g2
(lp124
Vbut
p125
atp126
Rp127
(dp128
g13
VCC
p129
sbag0
(g1
g2
(lp130
g0
(g1
g2
(lp131
g0
(g1
g2
(lp132
Vthis
p133
atp134
Rp135
(dp136
g13
VDT
p137
sbatp138
Rp139
(dp140
g13
VNP
p141
sbag0
(g1
g2
(lp142
g0
(g1
g2
(lp143
Vis
p144
atp145
Rp146
(dp147
g13
VVBZ
p148
sbag0
(g1
g2
(lp149
g0
(g1
g2
(lp150
g0
(g1
g2
(lp151
Va
p152
atp153
Rp154
(dp155
g13
VDT
p156
sbag0
(g1
g2
(lp157
Vlake
p158
atp159
Rp160
(dp161
g13
VNN
p162
sbag0
(g1
g2
(lp163
Vhouse
p164
atp165
Rp166
(dp167
g13
VNN
p168
sbatp169
Rp170
(dp171
g13
VNP
p172
sbag0
(g1
g2
(lp173
g0
(g1
g2
(lp174
g0
(g1
g2
(lp175
g0
(g1
g2
(lp176
Vit
p177
atp178
Rp179
(dp180
g13
VPRP
p181
sbatp182
Rp183
(dp184
g13
VNP
p185
sbag0
(g1
g2
(lp186
g0
(g1
g2
(lp187
Vlooks
p188
atp189
Rp190
(dp191
g13
VVBZ
p192
sbag0
(g1
g2
(lp193
g0
(g1
g2
(lp194
Vlike
p195
atp196
Rp197
(dp198
g13
VIN
p199
sbatp200
Rp201
(dp202
g13
VPP
p203
sbatp204
Rp205
(dp206
g13
VVP
p207
sbatp208
Rp209
(dp210
g13
VS
p211
sbatp212
Rp213
(dp214
g13
VSBAR
p215
sbatp216
Rp217
(dp218
g13
VNP
p219
sbatp220
Rp221
(dp222
g13
VVP
p223
sbatp224
Rp225
(dp226
g13
VS
p227
sbag0
(g1
g2
(lp228
V.
p229
atp230
Rp231
(dp232
g13
V.
p233
sbatp234
Rp235
(dp236
g13
VS
p237
sbatp238
Rp239
(dp240
g13
S'id: 0'
p241
sbag0
(g1
g2
(lp242
g0
(g1
g2
(lp243
g0
(g1
g2
(lp244
VAnd
p245
atp246
Rp247
(dp248
g13
VCC
p249
sbag0
(g1
g2
(lp250
g0
(g1
g2
(lp251
Vit
p252
atp253
Rp254
(dp255
g13
VPRP
p256
sbatp257
Rp258
(dp259
g13
VNP
p260
sbag0
(g1
g2
(lp261
g0
(g1
g2
(lp262
V's
p263
atp264
Rp265
(dp266
g13
VVBZ
p267
sbag0
(g1
g2
(lp268
g0
(g1
g2
(lp269
Vin
p270
atp271
Rp272
(dp273
g13
VIN
p274
sbag0
(g1
g2
(lp275
g0
(g1
g2
(lp276
Vthe
p277
atp278
Rp279
(dp280
g13
VDT
p281
sbag0
(g1
g2
(lp282
Vsummertime
p283
atp284
Rp285
(dp286
g13
VNN
p287
sbatp288
Rp289
(dp290
g13
VNP
p291
sbatp292
Rp293
(dp294
g13
VPP
p295
sbag0
(g1
g2
(lp296
V,
p297
atp298
Rp299
(dp300
g13
V,
p301
sbag0
(g1
g2
(lp302
g0
(g1
g2
(lp303
Veven
p304
atp305
Rp306
(dp307
g13
VRB
p308
sbag0
(g1
g2
(lp309
Vthough
p310
atp311
Rp312
(dp313
g13
VIN
p314
sbag0
(g1
g2
(lp315
g0
(g1
g2
(lp316
g0
(g1
g2
(lp317
Vit
p318
atp319
Rp320
(dp321
g13
VPRP
p322
sbatp323
Rp324
(dp325
g13
VNP
p326
sbag0
(g1
g2
(lp327
g0
(g1
g2
(lp328
V's
p329
atp330
Rp331
(dp332
g13
VVBZ
p333
sbag0
(g1
g2
(lp334
g0
(g1
g2
(lp335
g0
(g1
g2
(lp336
g0
(g1
g2
(lp337
g0
(g1
g2
(lp338
g0
(g1
g2
(lp339
Va
p340
atp341
Rp342
(dp343
g13
VDT
p344
sbag0
(g1
g2
(lp345
Vlittle
p346
atp347
Rp348
(dp349
g13
VJJ
p350
sbatp351
Rp352
(dp353
g13
VNP
p354
sbag0
(g1
g2
(lp355
Vearly
p356
atp357
Rp358
(dp359
g13
VJJ
p360
sbatp361
Rp362
(dp363
g13
VADJP
p364
sbag0
(g1
g2
(lp365
V,
p366
atp367
Rp368
(dp369
g13
V,
p370
sbag0
(g1
g2
(lp371
Vor
p372
atp373
Rp374
(dp375
g13
VCC
p376
sbag0
(g1
g2
(lp377
g0
(g1
g2
(lp378
Vprobably
p379
atp380
Rp381
(dp382
g13
VRB
p383
sbag0
(g1
g2
(lp384
Vtoo
p385
atp386
Rp387
(dp388
g13
VRB
p389
sbag0
(g1
g2
(lp390
Vlitle/ob
p391
atp392
Rp393
(dp394
g13
VJJ
p395
sbatp396
Rp397
(dp398
g13
VADJP
p399
sbatp400
Rp401
(dp402
g13
VADJP
p403
sbag0
(g1
g2
(lp404
Vlittle
p405
atp406
Rp407
(dp408
g13
VJJ
p409
sbag0
(g1
g2
(lp410
Vbit
p411
atp412
Rp413
(dp414
g13
VNN
p415
sbatp416
Rp417
(dp418
g13
VNP
p419
sbag0
(g1
g2
(lp420
g0
(g1
g2
(lp421
Vlate
p422
atp423
Rp424
(dp425
g13
VJJ
p426
sbag0
(g1
g2
(lp427
g0
(g1
g2
(lp428
Vin
p429
atp430
Rp431
(dp432
g13
VIN
p433
sbag0
(g1
g2
(lp434
g0
(g1
g2
(lp435
Vthe
p436
atp437
Rp438
(dp439
g13
VDT
p440
sbag0
(g1
g2
(lp441
Vspring
p442
atp443
Rp444
(dp445
g13
VNN
p446
sbatp447
Rp448
(dp449
g13
VNP
p450
sbatp451
Rp452
(dp453
g13
VPP
p454
sbatp455
Rp456
(dp457
g13
VADJP
p458
sbatp459
Rp460
(dp461
g13
VNP
p462
sbag0
(g1
g2
(lp463
g0
(g1
g2
(lp464
Vfor
p465
atp466
Rp467
(dp468
g13
VIN
p469
sbag0
(g1
g2
(lp470
g0
(g1
g2
(lp471
g0
(g1
g2
(lp472
Vhim
p473
atp474
Rp475
(dp476
g13
VPRP
p477
sbatp478
Rp479
(dp480
g13
VNP
p481
sbag0
(g1
g2
(lp482
g0
(g1
g2
(lp483
Vto
p484
atp485
Rp486
(dp487
g13
VTO
p488
sbag0
(g1
g2
(lp489
g0
(g1
g2
(lp490
Vbe
p491
atp492
Rp493
(dp494
g13
VVB
p495
sbag0
(g1
g2
(lp496
g0
(g1
g2
(lp497
Vflying
p498
atp499
Rp500
(dp501
g13
VVBG
p502
sbag0
(g1
g2
(lp503
g0
(g1
g2
(lp504
Va
p505
atp506
Rp507
(dp508
g13
VDT
p509
sbag0
(g1
g2
(lp510
Vkite
p511
atp512
Rp513
(dp514
g13
VNN
p515
sbatp516
Rp517
(dp518
g13
VNP
p519
sbatp520
Rp521
(dp522
g13
VVP
p523
sbatp524
Rp525
(dp526
g13
VVP
p527
sbatp528
Rp529
(dp530
g13
VVP
p531
sbatp532
Rp533
(dp534
g13
VS
p535
sbatp536
Rp537
(dp538
g13
VSBAR
p539
sbag0
(g1
g2
(lp540
V,
p541
atp542
Rp543
(dp544
g13
V,
p545
sbag0
(g1
g2
(lp546
g0
(g1
g2
(lp547
Veven
p548
atp549
Rp550
(dp551
g13
VRB
p552
sbag0
(g1
g2
(lp553
Vthough
p554
atp555
Rp556
(dp557
g13
VIN
p558
sbag0
(g1
g2
(lp559
g0
(g1
g2
(lp560
g0
(g1
g2
(lp561
Vit
p562
atp563
Rp564
(dp565
g13
VPRP
p566
sbatp567
Rp568
(dp569
g13
VNP
p570
sbag0
(g1
g2
(lp571
g0
(g1
g2
(lp572
g0
(g1
g2
(lp573
Vhas
p574
atp575
Rp576
(dp577
g13
VVBZ
p578
sbag0
(g1
g2
(lp579
g0
(g1
g2
(lp580
g0
(g1
g2
(lp581
Va
p582
atp583
Rp584
(dp585
g13
VDT
p586
sbag0
(g1
g2
(lp587
Vtail
p588
atp589
Rp590
(dp591
g13
VNN
p592
sbatp593
Rp594
(dp595
g13
VNP
p596
sbag0
(g1
g2
(lp597
g0
(g1
g2
(lp598
Von
p599
atp600
Rp601
(dp602
g13
VIN
p603
sbag0
(g1
g2
(lp604
g0
(g1
g2
(lp605
Vit
p606
atp607
Rp608
(dp609
g13
VPRP
p610
sbatp611
Rp612
(dp613
g13
VNP
p614
sbatp615
Rp616
(dp617
g13
VPP
p618
sbatp619
Rp620
(dp621
g13
VNP
p622
sbatp623
Rp624
(dp625
g13
VVP
p626
sbag0
(g1
g2
(lp627
V,
p628
atp629
Rp630
(dp631
g13
V,
p632
sbag0
(g1
g2
(lp633
Vand
p634
atp635
Rp636
(dp637
g13
VCC
p638
sbag0
(g1
g2
(lp639
g0
(g1
g2
(lp640
g0
(g1
g2
(lp641
Valso
p642
atp643
Rp644
(dp645
g13
VRB
p646
sbatp647
Rp648
(dp649
g13
VADVP
p650
sbag0
(g1
g2
(lp651
Vhas
p652
atp653
Rp654
(dp655
g13
VVBZ
p656
sbag0
(g1
g2
(lp657
g0
(g1
g2
(lp658
g0
(g1
g2
(lp659
Va
p660
atp661
Rp662
(dp663
g13
VDT
p664
sbag0
(g1
g2
(lp665
Vcord
p666
atp667
Rp668
(dp669
g13
VNN
p670
sbatp671
Rp672
(dp673
g13
VNP
p674
sbag0
(g1
g2
(lp675
g0
(g1
g2
(lp676
g0
(g1
g2
(lp677
g0
(g1
g2
(lp678
Vwrapped
p679
atp680
Rp681
(dp682
g13
VVBD
p683
sbag0
(g1
g2
(lp684
g0
(g1
g2
(lp685
Varound
p686
atp687
Rp688
(dp689
g13
VRB
p690
sbatp691
Rp692
(dp693
g13
VADVP
p694
sbag0
(g1
g2
(lp695
g0
(g1
g2
(lp696
Vso
p697
atp698
Rp699
(dp700
g13
VRB
p701
sbag0
(g1
g2
(lp702
Vthat
p703
atp704
Rp705
(dp706
g13
VIN
p707
sbag0
(g1
g2
(lp708
g0
(g1
g2
(lp709
g0
(g1
g2
(lp710
Vhe
p711
atp712
Rp713
(dp714
g13
VPRP
p715
sbatp716
Rp717
(dp718
g13
VNP
p719
sbag0
(g1
g2
(lp720
g0
(g1
g2
(lp721
Vcan
p722
atp723
Rp724
(dp725
g13
VMD
p726
sbag0
(g1
g2
(lp727
g0
(g1
g2
(lp728
Vguide
p729
atp730
Rp731
(dp732
g13
VVB
p733
sbag0
(g1
g2
(lp734
Vand
p735
atp736
Rp737
(dp738
g13
VCC
p739
sbag0
(g1
g2
(lp740
Vkeep
p741
atp742
Rp743
(dp744
g13
VVB
p745
sbag0
(g1
g2
(lp746
g0
(g1
g2
(lp747
g0
(g1
g2
(lp748
Vthe
p749
atp750
Rp751
(dp752
g13
VDT
p753
sbatp754
Rp755
(dp756
g13
VNP
p757
sbag0
(g1
g2
(lp758
V,
p759
atp760
Rp761
(dp762
g13
V,
p763
sbag0
(g1
g2
(lp764
g0
(g1
g2
(lp765
g0
(g1
g2
(lp766
Vthe
p767
atp768
Rp769
(dp770
g13
VDT
p771
sbag0
(g1
g2
(lp772
Vkite
p773
atp774
Rp775
(dp776
g13
VNN
p777
sbatp778
Rp779
(dp780
g13
VNP
p781
sbag0
(g1
g2
(lp782
g0
(g1
g2
(lp783
Vfrom
p784
atp785
Rp786
(dp787
g13
VIN
p788
sbag0
(g1
g2
(lp789
g0
(g1
g2
(lp790
g0
(g1
g2
(lp791
Vgoing
p792
atp793
Rp794
(dp795
g13
VVBG
p796
sbag0
(g1
g2
(lp797
g0
(g1
g2
(lp798
Vinto
p799
atp800
Rp801
(dp802
g13
VIN
p803
sbag0
(g1
g2
(lp804
g0
(g1
g2
(lp805
Vthe
p806
atp807
Rp808
(dp809
g13
VDT
p810
sbag0
(g1
g2
(lp811
Vsky
p812
atp813
Rp814
(dp815
g13
VNN
p816
sbatp817
Rp818
(dp819
g13
VNP
p820
sbatp821
Rp822
(dp823
g13
VPP
p824
sbatp825
Rp826
(dp827
g13
VVP
p828
sbatp829
Rp830
(dp831
g13
VS
p832
sbatp833
Rp834
(dp835
g13
VPP
p836
sbatp837
Rp838
(dp839
g13
VNP
p840
sbatp841
Rp842
(dp843
g13
VNP
p844
sbatp845
Rp846
(dp847
g13
VVP
p848
sbatp849
Rp850
(dp851
g13
VVP
p852
sbatp853
Rp854
(dp855
g13
VS
p856
sbatp857
Rp858
(dp859
g13
VSBAR
p860
sbatp861
Rp862
(dp863
g13
VVP
p864
sbatp865
Rp866
(dp867
g13
VS
p868
sbatp869
Rp870
(dp871
g13
VSBAR
p872
sbatp873
Rp874
(dp875
g13
VNP
p876
sbatp877
Rp878
(dp879
g13
VVP
p880
sbatp881
Rp882
(dp883
g13
VVP
p884
sbatp885
Rp886
(dp887
g13
VS
p888
sbatp889
Rp890
(dp891
g13
VSBAR
p892
sbatp893
Rp894
(dp895
g13
VVP
p896
sbatp897
Rp898
(dp899
g13
VS
p900
sbatp901
Rp902
(dp903
g13
VSBAR
p904
sbatp905
Rp906
(dp907
g13
VVP
p908
sbag0
(g1
g2
(lp909
V.
p910
atp911
Rp912
(dp913
g13
V.
p914
sbatp915
Rp916
(dp917
g13
VS
p918
sbatp919
Rp920
(dp921
g13
S'id: 1'
p922
sbag0
(g1
g2
(lp923
g0
(g1
g2
(lp924
g0
(g1
g2
(lp925
g0
(g1
g2
(lp926
g0
(g1
g2
(lp927
g0
(g1
g2
(lp928
VThere
p929
atp930
Rp931
(dp932
g13
VEX
p933
sbatp934
Rp935
(dp936
g13
VNP
p937
sbag0
(g1
g2
(lp938
g0
(g1
g2
(lp939
V's
p940
atp941
Rp942
(dp943
g13
VVBZ
p944
sbag0
(g1
g2
(lp945
g0
(g1
g2
(lp946
g0
(g1
g2
(lp947
Vthe
p948
atp949
Rp950
(dp951
g13
VDT
p952
sbag0
(g1
g2
(lp953
Vwater
p954
atp955
Rp956
(dp957
g13
VNN
p958
sbatp959
Rp960
(dp961
g13
VNP
p962
sbag0
(g1
g2
(lp963
g0
(g1
g2
(lp964
Von
p965
atp966
Rp967
(dp968
g13
VIN
p969
sbag0
(g1
g2
(lp970
g0
(g1
g2
(lp971
Vthe
p972
atp973
Rp974
(dp975
g13
VDT
p976
sbag0
(g1
g2
(lp977
Vlake
p978
atp979
Rp980
(dp981
g13
VNN
p982
sbatp983
Rp984
(dp985
g13
VNP
p986
sbatp987
Rp988
(dp989
g13
VPP
p990
sbatp991
Rp992
(dp993
g13
VNP
p994
sbatp995
Rp996
(dp997
g13
VVP
p998
sbatp999
Rp1000
(dp1001
g13
VS
p1002
sbag0
(g1
g2
(lp1003
V,
p1004
atp1005
Rp1006
(dp1007
g13
V,
p1008
sbag0
(g1
g2
(lp1009
Vand
p1010
atp1011
Rp1012
(dp1013
g13
VCC
p1014
sbag0
(g1
g2
(lp1015
g0
(g1
g2
(lp1016
g0
(g1
g2
(lp1017
g0
(g1
g2
(lp1018
Vthere
p1019
atp1020
Rp1021
(dp1022
g13
VEX
p1023
sbatp1024
Rp1025
(dp1026
g13
VNP
p1027
sbag0
(g1
g2
(lp1028
g0
(g1
g2
(lp1029
V's
p1030
atp1031
Rp1032
(dp1033
g13
VVBZ
p1034
sbag0
(g1
g2
(lp1035
g0
(g1
g2
(lp1036
Va
p1037
atp1038
Rp1039
(dp1040
g13
VDT
p1041
sbag0
(g1
g2
(lp1042
Vsailboat
p1043
atp1044
Rp1045
(dp1046
g13
VNN
p1047
sbatp1048
Rp1049
(dp1050
g13
VNP
p1051
sbatp1052
Rp1053
(dp1054
g13
VVP
p1055
sbatp1056
Rp1057
(dp1058
g13
VS
p1059
sbag0
(g1
g2
(lp1060
V,
p1061
atp1062
Rp1063
(dp1064
g13
V,
p1065
sbag0
(g1
g2
(lp1066
Vand
p1067
atp1068
Rp1069
(dp1070
g13
VCC
p1071
sbag0
(g1
g2
(lp1072
g0
(g1
g2
(lp1073
g0
(g1
g2
(lp1074
Vthere
p1075
atp1076
Rp1077
(dp1078
g13
VEX
p1079
sbatp1080
Rp1081
(dp1082
g13
VNP
p1083
sbag0
(g1
g2
(lp1084
g0
(g1
g2
(lp1085
V's
p1086
atp1087
Rp1088
(dp1089
g13
VVBZ
p1090
sbag0
(g1
g2
(lp1091
g0
(g1
g2
(lp1092
g0
(g1
g2
(lp1093
Va
p1094
atp1095
Rp1096
(dp1097
g13
VDT
p1098
sbag0
(g1
g2
(lp1099
Vspecial
p1100
atp1101
Rp1102
(dp1103
g13
VJJ
p1104
sbag0
(g1
g2
(lp1105
Vnumber
p1106
atp1107
Rp1108
(dp1109
g13
VNN
p1110
sbatp1111
Rp1112
(dp1113
g13
VNP
p1114
sbag0
(g1
g2
(lp1115
g0
(g1
g2
(lp1116
Von
p1117
atp1118
Rp1119
(dp1120
g13
VIN
p1121
sbag0
(g1
g2
(lp1122
g0
(g1
g2
(lp1123
Vthere
p1124
atp1125
Rp1126
(dp1127
g13
VEX
p1128
sbatp1129
Rp1130
(dp1131
g13
VNP
p1132
sbatp1133
Rp1134
(dp1135
g13
VPP
p1136
sbag0
(g1
g2
(lp1137
g0
(g1
g2
(lp1138
Vfor
p1139
atp1140
Rp1141
(dp1142
g13
VIN
p1143
sbag0
(g1
g2
(lp1144
g0
(g1
g2
(lp1145
g0
(g1
g2
(lp1146
Vthe
p1147
atp1148
Rp1149
(dp1150
g13
VDT
p1151
sbag0
(g1
g2
(lp1152
Vnumber
p1153
atp1154
Rp1155
(dp1156
g13
VNN
p1157
sbatp1158
Rp1159
(dp1160
g13
VNP
p1161
sbag0
(g1
g2
(lp1162
g0
(g1
g2
(lp1163
g0
(g1
g2
(lp1164
g0
(g1
g2
(lp1165
Vfour
p1166
atp1167
Rp1168
(dp1169
g13
VCD
p1170
sbag0
(g1
g2
(lp1171
Vseven
p1172
atp1173
Rp1174
(dp1175
g13
VCD
p1176
sbatp1177
Rp1178
(dp1179
g13
VQP
p1180
sbatp1181
Rp1182
(dp1183
g13
VNP
p1184
sbag0
(g1
g2
(lp1185
g0
(g1
g2
(lp1186
Vzero
p1187
atp1188
Rp1189
(dp1190
g13
VCD
p1191
sbatp1192
Rp1193
(dp1194
g13
VNP
p1195
sbatp1196
Rp1197
(dp1198
g13
VNP
p1199
sbatp1200
Rp1201
(dp1202
g13
VNP
p1203
sbatp1204
Rp1205
(dp1206
g13
VPP
p1207
sbatp1208
Rp1209
(dp1210
g13
VNP
p1211
sbatp1212
Rp1213
(dp1214
g13
VVP
p1215
sbatp1216
Rp1217
(dp1218
g13
VS
p1219
sbatp1220
Rp1221
(dp1222
g13
VS
p1223
sbatp1224
Rp1225
(dp1226
g13
VS
p1227
sbag0
(g1
g2
(lp1228
g0
(g1
g2
(lp1229
V,
p1230
atp1231
Rp1232
(dp1233
g13
V,
p1234
sbag0
(g1
g2
(lp1235
g0
(g1
g2
(lp1236
g0
(g1
g2
(lp1237
VI
p1238
atp1239
Rp1240
(dp1241
g13
VPRP
p1242
sbatp1243
Rp1244
(dp1245
g13
VNP
p1246
sbag0
(g1
g2
(lp1247
g0
(g1
g2
(lp1248
Vdo
p1249
atp1250
Rp1251
(dp1252
g13
VVBP
p1253
sbag0
(g1
g2
(lp1254
Vn't
p1255
atp1256
Rp1257
(dp1258
g13
VRB
p1259
sbag0
(g1
g2
(lp1260
g0
(g1
g2
(lp1261
Vknow
p1262
atp1263
Rp1264
(dp1265
g13
VVB
p1266
sbag0
(g1
g2
(lp1267
g0
(g1
g2
(lp1268
g0
(g1
g2
(lp1269
Vwhat
p1270
atp1271
Rp1272
(dp1273
g13
VWP
p1274
sbatp1275
Rp1276
(dp1277
g13
VWHNP
p1278
sbag0
(g1
g2
(lp1279
g0
(g1
g2
(lp1280
g0
(g1
g2
(lp1281
Vit
p1282
atp1283
Rp1284
(dp1285
g13
VPRP
p1286
sbatp1287
Rp1288
(dp1289
g13
VNP
p1290
sbag0
(g1
g2
(lp1291
g0
(g1
g2
(lp1292
V's
p1293
atp1294
Rp1295
(dp1296
g13
VVBZ
p1297
sbag0
(g1
g2
(lp1298
g0
(g1
g2
(lp1299
Vfor
p1300
atp1301
Rp1302
(dp1303
g13
VIN
p1304
sbatp1305
Rp1306
(dp1307
g13
VPP
p1308
sbatp1309
Rp1310
(dp1311
g13
VVP
p1312
sbatp1313
Rp1314
(dp1315
g13
VS
p1316
sbatp1317
Rp1318
(dp1319
g13
VSBAR
p1320
sbatp1321
Rp1322
(dp1323
g13
VVP
p1324
sbatp1325
Rp1326
(dp1327
g13
VVP
p1328
sbatp1329
Rp1330
(dp1331
g13
VS
p1332
sbag0
(g1
g2
(lp1333
V,
p1334
atp1335
Rp1336
(dp1337
g13
V,
p1338
sbatp1339
Rp1340
(dp1341
g13
VPRN
p1342
sbag0
(g1
g2
(lp1343
Vbut
p1344
atp1345
Rp1346
(dp1347
g13
VCC
p1348
sbag0
(g1
g2
(lp1349
g0
(g1
g2
(lp1350
g0
(g1
g2
(lp1351
Vit
p1352
atp1353
Rp1354
(dp1355
g13
VPRP
p1356
sbatp1357
Rp1358
(dp1359
g13
VNP
p1360
sbag0
(g1
g2
(lp1361
g0
(g1
g2
(lp1362
V's
p1363
atp1364
Rp1365
(dp1366
g13
VVBZ
p1367
sbag0
(g1
g2
(lp1368
g0
(g1
g2
(lp1369
Vfor
p1370
atp1371
Rp1372
(dp1373
g13
VIN
p1374
sbatp1375
Rp1376
(dp1377
g13
VPP
p1378
sbatp1379
Rp1380
(dp1381
g13
VVP
p1382
sbatp1383
Rp1384
(dp1385
g13
VS
p1386
sbag0
(g1
g2
(lp1387
V.
p1388
atp1389
Rp1390
(dp1391
g13
V.
p1392
sbatp1393
Rp1394
(dp1395
g13
VS
p1396
sbatp1397
Rp1398
(dp1399
g13
S'id: 2'
p1400
sbag0
(g1
g2
(lp1401
g0
(g1
g2
(lp1402
g0
(g1
g2
(lp1403
g0
(g1
g2
(lp1404
g0
(g1
g2
(lp1405
VThat
p1406
atp1407
Rp1408
(dp1409
g13
VDT
p1410
sbatp1411
Rp1412
(dp1413
g13
VNP
p1414
sbag0
(g1
g2
(lp1415
g0
(g1
g2
(lp1416
V's
p1417
atp1418
Rp1419
(dp1420
g13
VVBZ
p1421
sbag0
(g1
g2
(lp1422
g0
(g1
g2
(lp1423
g0
(g1
g2
(lp1424
Va
p1425
atp1426
Rp1427
(dp1428
g13
VDT
p1429
sbag0
(g1
g2
(lp1430
Vguy
p1431
atp1432
Rp1433
(dp1434
g13
VNN
p1435
sbatp1436
Rp1437
(dp1438
g13
VNP
p1439
sbag0
(g1
g2
(lp1440
V,
p1441
atp1442
Rp1443
(dp1444
g13
V,
p1445
sbag0
(g1
g2
(lp1446
g0
(g1
g2
(lp1447
g0
(g1
g2
(lp1448
Vthat
p1449
atp1450
Rp1451
(dp1452
g13
VDT
p1453
sbatp1454
Rp1455
(dp1456
g13
VWHNP
p1457
sbag0
(g1
g2
(lp1458
g0
(g1
g2
(lp1459
g0
(g1
g2
(lp1460
V's
p1461
atp1462
Rp1463
(dp1464
g13
VVBZ
p1465
sbag0
(g1
g2
(lp1466
g0
(g1
g2
(lp1467
Vthere
p1468
atp1469
Rp1470
(dp1471
g13
VEX
p1472
sbatp1473
Rp1474
(dp1475
g13
VNP
p1476
sbag0
(g1
g2
(lp1477
g0
(g1
g2
(lp1478
Von
p1479
atp1480
Rp1481
(dp1482
g13
VIN
p1483
sbag0
(g1
g2
(lp1484
g0
(g1
g2
(lp1485
Vthe
p1486
atp1487
Rp1488
(dp1489
g13
VDT
p1490
sbag0
(g1
g2
(lp1491
g0
(g1
g2
(lp1492
g0
(g1
g2
(lp1493
Vdock
p1494
atp1495
Rp1496
(dp1497
g13
VNN
p1498
sbatp1499
Rp1500
(dp1501
g13
VNX
p1502
sbag0
(g1
g2
(lp1503
Vand
p1504
atp1505
Rp1506
(dp1507
g13
VCC
p1508
sbatp1509
Rp1510
(dp1511
g13
VNX
p1512
sbatp1513
Rp1514
(dp1515
g13
VNP
p1516
sbatp1517
Rp1518
(dp1519
g13
VPP
p1520
sbatp1521
Rp1522
(dp1523
g13
VVP
p1524
sbatp1525
Rp1526
(dp1527
g13
VS
p1528
sbatp1529
Rp1530
(dp1531
g13
VSBAR
p1532
sbatp1533
Rp1534
(dp1535
g13
VNP
p1536
sbatp1537
Rp1538
(dp1539
g13
VVP
p1540
sbatp1541
Rp1542
(dp1543
g13
VS
p1544
sbag0
(g1
g2
(lp1545
V,
p1546
atp1547
Rp1548
(dp1549
g13
V,
p1550
sbag0
(g1
g2
(lp1551
Vand
p1552
atp1553
Rp1554
(dp1555
g13
VCC
p1556
sbag0
(g1
g2
(lp1557
g0
(g1
g2
(lp1558
g0
(g1
g2
(lp1559
g0
(g1
g2
(lp1560
Vit
p1561
atp1562
Rp1563
(dp1564
g13
VPRP
p1565
sbatp1566
Rp1567
(dp1568
g13
VNP
p1569
sbag0
(g1
g2
(lp1570
g0
(g1
g2
(lp1571
V's
p1572
atp1573
Rp1574
(dp1575
g13
VVBZ
p1576
sbag0
(g1
g2
(lp1577
g0
(g1
g2
(lp1578
Vextending
p1579
atp1580
Rp1581
(dp1582
g13
VVBG
p1583
sbag0
(g1
g2
(lp1584
g0
(g1
g2
(lp1585
Vinto
p1586
atp1587
Rp1588
(dp1589
g13
VIN
p1590
sbag0
(g1
g2
(lp1591
g0
(g1
g2
(lp1592
Vthe
p1593
atp1594
Rp1595
(dp1596
g13
VDT
p1597
sbag0
(g1
g2
(lp1598
Vwater
p1599
atp1600
Rp1601
(dp1602
g13
VNN
p1603
sbatp1604
Rp1605
(dp1606
g13
VNP
p1607
sbatp1608
Rp1609
(dp1610
g13
VPP
p1611
sbatp1612
Rp1613
(dp1614
g13
VVP
p1615
sbatp1616
Rp1617
(dp1618
g13
VVP
p1619
sbatp1620
Rp1621
(dp1622
g13
VS
p1623
sbag0
(g1
g2
(lp1624
V,
p1625
atp1626
Rp1627
(dp1628
g13
V,
p1629
sbag0
(g1
g2
(lp1630
Vand
p1631
atp1632
Rp1633
(dp1634
g13
VCC
p1635
sbag0
(g1
g2
(lp1636
g0
(g1
g2
(lp1637
g0
(g1
g2
(lp1638
g0
(g1
g2
(lp1639
Vhe
p1640
atp1641
Rp1642
(dp1643
g13
VPRP
p1644
sbatp1645
Rp1646
(dp1647
g13
VNP
p1648
sbag0
(g1
g2
(lp1649
g0
(g1
g2
(lp1650
V's
p1651
atp1652
Rp1653
(dp1654
g13
VVBZ
p1655
sbag0
(g1
g2
(lp1656
g0
(g1
g2
(lp1657
Vgot
p1658
atp1659
Rp1660
(dp1661
g13
VVBD
p1662
sbag0
(g1
g2
(lp1663
g0
(g1
g2
(lp1664
Va
p1665
atp1666
Rp1667
(dp1668
g13
VDT
p1669
sbag0
(g1
g2
(lp1670
Vfishing
p1671
atp1672
Rp1673
(dp1674
g13
VNN
p1675
sbag0
(g1
g2
(lp1676
Vpole
p1677
atp1678
Rp1679
(dp1680
g13
VNN
p1681
sbatp1682
Rp1683
(dp1684
g13
VNP
p1685
sbatp1686
Rp1687
(dp1688
g13
VVP
p1689
sbatp1690
Rp1691
(dp1692
g13
VVP
p1693
sbatp1694
Rp1695
(dp1696
g13
VS
p1697
sbag0
(g1
g2
(lp1698
V,
p1699
atp1700
Rp1701
(dp1702
g13
V,
p1703
sbag0
(g1
g2
(lp1704
Vand
p1705
atp1706
Rp1707
(dp1708
g13
VCC
p1709
sbag0
(g1
g2
(lp1710
g0
(g1
g2
(lp1711
g0
(g1
g2
(lp1712
g0
(g1
g2
(lp1713
Vhe
p1714
atp1715
Rp1716
(dp1717
g13
VPRP
p1718
sbatp1719
Rp1720
(dp1721
g13
VNP
p1722
sbag0
(g1
g2
(lp1723
g0
(g1
g2
(lp1724
V's
p1725
atp1726
Rp1727
(dp1728
g13
VVBZ
p1729
sbag0
(g1
g2
(lp1730
g0
(g1
g2
(lp1731
Vpulling
p1732
atp1733
Rp1734
(dp1735
g13
VVBG
p1736
sbag0
(g1
g2
(lp1737
g0
(g1
g2
(lp1738
g0
(g1
g2
(lp1739
Va
p1740
atp1741
Rp1742
(dp1743
g13
VDT
p1744
sbag0
(g1
g2
(lp1745
Vfish
p1746
atp1747
Rp1748
(dp1749
g13
VNN
p1750
sbatp1751
Rp1752
(dp1753
g13
VNP
p1754
sbag0
(g1
g2
(lp1755
Vout
p1756
atp1757
Rp1758
(dp1759
g13
VIN
p1760
sbatp1761
Rp1762
(dp1763
g13
VADVP
p1764
sbag0
(g1
g2
(lp1765
g0
(g1
g2
(lp1766
Vof
p1767
atp1768
Rp1769
(dp1770
g13
VIN
p1771
sbag0
(g1
g2
(lp1772
g0
(g1
g2
(lp1773
Vthe
p1774
atp1775
Rp1776
(dp1777
g13
VDT
p1778
sbag0
(g1
g2
(lp1779
Vlake
p1780
atp1781
Rp1782
(dp1783
g13
VNN
p1784
sbatp1785
Rp1786
(dp1787
g13
VNP
p1788
sbatp1789
Rp1790
(dp1791
g13
VPP
p1792
sbatp1793
Rp1794
(dp1795
g13
VVP
p1796
sbatp1797
Rp1798
(dp1799
g13
VVP
p1800
sbatp1801
Rp1802
(dp1803
g13
VS
p1804
sbag0
(g1
g2
(lp1805
V,
p1806
atp1807
Rp1808
(dp1809
g13
V,
p1810
sbag0
(g1
g2
(lp1811
Vand
p1812
atp1813
Rp1814
(dp1815
g13
VCC
p1816
sbag0
(g1
g2
(lp1817
g0
(g1
g2
(lp1818
g0
(g1
g2
(lp1819
Vit
p1820
atp1821
Rp1822
(dp1823
g13
VPRP
p1824
sbatp1825
Rp1826
(dp1827
g13
VNP
p1828
sbag0
(g1
g2
(lp1829
g0
(g1
g2
(lp1830
V's
p1831
atp1832
Rp1833
(dp1834
g13
VVBZ
p1835
sbag0
(g1
g2
(lp1836
g0
(g1
g2
(lp1837
Vsplashing
p1838
atp1839
Rp1840
(dp1841
g13
VVBG
p1842
sbag0
(g1
g2
(lp1843
g0
(g1
g2
(lp1844
Vas
p1845
atp1846
Rp1847
(dp1848
g13
VIN
p1849
sbag0
(g1
g2
(lp1850
g0
(g1
g2
(lp1851
g0
(g1
g2
(lp1852
Vthe
p1853
atp1854
Rp1855
(dp1856
g13
VDT
p1857
sbag0
(g1
g2
(lp1858
Vfish
p1859
atp1860
Rp1861
(dp1862
g13
VNN
p1863
sbatp1864
Rp1865
(dp1866
g13
VNP
p1867
sbag0
(g1
g2
(lp1868
g0
(g1
g2
(lp1869
Vis
p1870
atp1871
Rp1872
(dp1873
g13
VVBZ
p1874
sbag0
(g1
g2
(lp1875
g0
(g1
g2
(lp1876
Vmessing
p1877
atp1878
Rp1879
(dp1880
g13
VVBG
p1881
sbag0
(g1
g2
(lp1882
g0
(g1
g2
(lp1883
Varound
p1884
atp1885
Rp1886
(dp1887
g13
VIN
p1888
sbag0
(g1
g2
(lp1889
g0
(g1
g2
(lp1890
Vthere
p1891
atp1892
Rp1893
(dp1894
g13
VEX
p1895
sbatp1896
Rp1897
(dp1898
g13
VNP
p1899
sbatp1900
Rp1901
(dp1902
g13
VPP
p1903
sbatp1904
Rp1905
(dp1906
g13
VVP
p1907
sbatp1908
Rp1909
(dp1910
g13
VVP
p1911
sbatp1912
Rp1913
(dp1914
g13
VS
p1915
sbatp1916
Rp1917
(dp1918
g13
VSBAR
p1919
sbatp1920
Rp1921
(dp1922
g13
VVP
p1923
sbatp1924
Rp1925
(dp1926
g13
VVP
p1927
sbatp1928
Rp1929
(dp1930
g13
VS
p1931
sbatp1932
Rp1933
(dp1934
g13
VS
p1935
sbatp1936
Rp1937
(dp1938
g13
VS
p1939
sbatp1940
Rp1941
(dp1942
g13
VS
p1943
sbag0
(g1
g2
(lp1944
V.
p1945
atp1946
Rp1947
(dp1948
g13
V.
p1949
sbatp1950
Rp1951
(dp1952
g13
VS
p1953
sbatp1954
Rp1955
(dp1956
g13
S'id: 3'
p1957
sbag0
(g1
g2
(lp1958
g0
(g1
g2
(lp1959
g0
(g1
g2
(lp1960
g0
(g1
g2
(lp1961
VI
p1962
atp1963
Rp1964
(dp1965
g13
VPRP
p1966
sbatp1967
Rp1968
(dp1969
g13
VNP
p1970
sbag0
(g1
g2
(lp1971
g0
(g1
g2
(lp1972
Vsee
p1973
atp1974
Rp1975
(dp1976
g13
VVBP
p1977
sbag0
(g1
g2
(lp1978
g0
(g1
g2
(lp1979
g0
(g1
g2
(lp1980
g0
(g1
g2
(lp1981
Vthe
p1982
atp1983
Rp1984
(dp1985
g13
VDT
p1986
sbag0
(g1
g2
(lp1987
Vpretty
p1988
atp1989
Rp1990
(dp1991
g13
VJJ
p1992
sbag0
(g1
g2
(lp1993
Vleaves
p1994
atp1995
Rp1996
(dp1997
g13
VNNS
p1998
sbatp1999
Rp2000
(dp2001
g13
VNP
p2002
sbag0
(g1
g2
(lp2003
g0
(g1
g2
(lp2004
Von
p2005
atp2006
Rp2007
(dp2008
g13
VIN
p2009
sbag0
(g1
g2
(lp2010
g0
(g1
g2
(lp2011
Vthe
p2012
atp2013
Rp2014
(dp2015
g13
VDT
p2016
sbag0
(g1
g2
(lp2017
g0
(g1
g2
(lp2018
V,
p2019
atp2020
Rp2021
(dp2022
g13
V,
p2023
sbag0
(g1
g2
(lp2024
Von
p2025
atp2026
Rp2027
(dp2028
g13
VIN
p2029
sbag0
(g1
g2
(lp2030
Vthe
p2031
atp2032
Rp2033
(dp2034
g13
VDT
p2035
sbag0
(g1
g2
(lp2036
V,
p2037
atp2038
Rp2039
(dp2040
g13
V,
p2041
sbatp2042
Rp2043
(dp2044
g13
VPRN
p2045
sbatp2046
Rp2047
(dp2048
g13
VNP
p2049
sbatp2050
Rp2051
(dp2052
g13
VPP
p2053
sbag0
(g1
g2
(lp2054
g0
(g1
g2
(lp2055
Von
p2056
atp2057
Rp2058
(dp2059
g13
VIN
p2060
sbag0
(g1
g2
(lp2061
g0
(g1
g2
(lp2062
g0
(g1
g2
(lp2063
g0
(g1
g2
(lp2064
Vthe
p2065
atp2066
Rp2067
(dp2068
g13
VDT
p2069
sbag0
(g1
g2
(lp2070
Vbig
p2071
atp2072
Rp2073
(dp2074
g13
VJJ
p2075
sbag0
(g1
g2
(lp2076
Vtree
p2077
atp2078
Rp2079
(dp2080
g13
VNN
p2081
sbatp2082
Rp2083
(dp2084
g13
VNP
p2085
sbag0
(g1
g2
(lp2086
g0
(g1
g2
(lp2087
Vout
p2088
atp2089
Rp2090
(dp2091
g13
VIN
p2092
sbag0
(g1
g2
(lp2093
g0
(g1
g2
(lp2094
Vthere
p2095
atp2096
Rp2097
(dp2098
g13
VRB
p2099
sbatp2100
Rp2101
(dp2102
g13
VNP
p2103
sbatp2104
Rp2105
(dp2106
g13
VPP
p2107
sbatp2108
Rp2109
(dp2110
g13
VNP
p2111
sbag0
(g1
g2
(lp2112
V,
p2113
atp2114
Rp2115
(dp2116
g13
V,
p2117
sbag0
(g1
g2
(lp2118
Vand
p2119
atp2120
Rp2121
(dp2122
g13
VCC
p2123
sbag0
(g1
g2
(lp2124
g0
(g1
g2
(lp2125
g0
(g1
g2
(lp2126
Vnice
p2127
atp2128
Rp2129
(dp2130
g13
VJJ
p2131
sbag0
(g1
g2
(lp2132
Vbushes
p2133
atp2134
Rp2135
(dp2136
g13
VNNS
p2137
sbatp2138
Rp2139
(dp2140
g13
VNP
p2141
sbag0
(g1
g2
(lp2142
Vand
p2143
atp2144
Rp2145
(dp2146
g13
VCC
p2147
sbag0
(g1
g2
(lp2148
g0
(g1
g2
(lp2149
Veverything
p2150
atp2151
Rp2152
(dp2153
g13
VNN
p2154
sbatp2155
Rp2156
(dp2157
g13
VNP
p2158
sbatp2159
Rp2160
(dp2161
g13
VNP
p2162
sbatp2163
Rp2164
(dp2165
g13
VNP
p2166
sbatp2167
Rp2168
(dp2169
g13
VPP
p2170
sbatp2171
Rp2172
(dp2173
g13
VNP
p2174
sbag0
(g1
g2
(lp2175
V,
p2176
atp2177
Rp2178
(dp2179
g13
V,
p2180
sbag0
(g1
g2
(lp2181
g0
(g1
g2
(lp2182
Va
p2183
atp2184
Rp2185
(dp2186
g13
VDT
p2187
sbag0
(g1
g2
(lp2188
g0
(g1
g2
(lp2189
Vnice
p2190
atp2191
Rp2192
(dp2193
g13
VJJ
p2194
sbag0
(g1
g2
(lp2195
Vclean
p2196
atp2197
Rp2198
(dp2199
g13
VJJ
p2200
sbatp2201
Rp2202
(dp2203
g13
VADJP
p2204
sbag0
(g1
g2
(lp2205
Vcut
p2206
atp2207
Rp2208
(dp2209
g13
VNN
p2210
sbag0
(g1
g2
(lp2211
Vhouse
p2212
atp2213
Rp2214
(dp2215
g13
VNN
p2216
sbatp2217
Rp2218
(dp2219
g13
VNP
p2220
sbag0
(g1
g2
(lp2221
V,
p2222
atp2223
Rp2224
(dp2225
g13
V,
p2226
sbag0
(g1
g2
(lp2227
Vand
p2228
atp2229
Rp2230
(dp2231
g13
VCC
p2232
sbag0
(g1
g2
(lp2233
g0
(g1
g2
(lp2234
g0
(g1
g2
(lp2235
Va
p2236
atp2237
Rp2238
(dp2239
g13
VDT
p2240
sbag0
(g1
g2
(lp2241
Vnice
p2242
atp2243
Rp2244
(dp2245
g13
VJJ
p2246
sbag0
(g1
g2
(lp2247
Vcar
p2248
atp2249
Rp2250
(dp2251
g13
VNN
p2252
sbatp2253
Rp2254
(dp2255
g13
VNP
p2256
sbag0
(g1
g2
(lp2257
g0
(g1
g2
(lp2258
Vparked
p2259
atp2260
Rp2261
(dp2262
g13
VVBN
p2263
sbag0
(g1
g2
(lp2264
g0
(g1
g2
(lp2265
Vin
p2266
atp2267
Rp2268
(dp2269
g13
VIN
p2270
sbag0
(g1
g2
(lp2271
g0
(g1
g2
(lp2272
Vthe
p2273
atp2274
Rp2275
(dp2276
g13
VDT
p2277
sbag0
(g1
g2
(lp2278
Vgarage
p2279
atp2280
Rp2281
(dp2282
g13
VNN
p2283
sbatp2284
Rp2285
(dp2286
g13
VNP
p2287
sbatp2288
Rp2289
(dp2290
g13
VPP
p2291
sbatp2292
Rp2293
(dp2294
g13
VVP
p2295
sbatp2296
Rp2297
(dp2298
g13
VNP
p2299
sbatp2300
Rp2301
(dp2302
g13
VNP
p2303
sbag0
(g1
g2
(lp2304
V,
p2305
atp2306
Rp2307
(dp2308
g13
V,
p2309
sbag0
(g1
g2
(lp2310
g0
(g1
g2
(lp2311
Valthough
p2312
atp2313
Rp2314
(dp2315
g13
VIN
p2316
sbag0
(g1
g2
(lp2317
g0
(g1
g2
(lp2318
g0
(g1
g2
(lp2319
Vit
p2320
atp2321
Rp2322
(dp2323
g13
VPRP
p2324
sbatp2325
Rp2326
(dp2327
g13
VNP
p2328
sbag0
(g1
g2
(lp2329
g0
(g1
g2
(lp2330
V's
p2331
atp2332
Rp2333
(dp2334
g13
VVBZ
p2335
sbag0
(g1
g2
(lp2336
g0
(g1
g2
(lp2337
Vonly
p2338
atp2339
Rp2340
(dp2341
g13
VRB
p2342
sbatp2343
Rp2344
(dp2345
g13
VADVP
p2346
sbag0
(g1
g2
(lp2347
g0
(g1
g2
(lp2348
Va
p2349
atp2350
Rp2351
(dp2352
g13
VDT
p2353
sbag0
(g1
g2
(lp2354
Vsingle
p2355
atp2356
Rp2357
(dp2358
g13
VJJ
p2359
sbag0
(g1
g2
(lp2360
Vcar
p2361
atp2362
Rp2363
(dp2364
g13
VNN
p2365
sbag0
(g1
g2
(lp2366
Vgarage
p2367
atp2368
Rp2369
(dp2370
g13
VNN
p2371
sbatp2372
Rp2373
(dp2374
g13
VNP
p2375
sbatp2376
Rp2377
(dp2378
g13
VVP
p2379
sbatp2380
Rp2381
(dp2382
g13
VS
p2383
sbatp2384
Rp2385
(dp2386
g13
VSBAR
p2387
sbatp2388
Rp2389
(dp2390
g13
VVP
p2391
sbag0
(g1
g2
(lp2392
V.
p2393
atp2394
Rp2395
(dp2396
g13
V.
p2397
sbatp2398
Rp2399
(dp2400
g13
VS
p2401
sbatp2402
Rp2403
(dp2404
g13
S'id: 4'
p2405
sbag0
(g1
g2
(lp2406
g0
(g1
g2
(lp2407
g0
(g1
g2
(lp2408
g0
(g1
g2
(lp2409
g0
(g1
g2
(lp2410
VI
p2411
atp2412
Rp2413
(dp2414
g13
VPRP
p2415
sbatp2416
Rp2417
(dp2418
g13
VNP
p2419
sbag0
(g1
g2
(lp2420
g0
(g1
g2
(lp2421
Vdo
p2422
atp2423
Rp2424
(dp2425
g13
VVBP
p2426
sbag0
(g1
g2
(lp2427
Vn't
p2428
atp2429
Rp2430
(dp2431
g13
VRB
p2432
sbag0
(g1
g2
(lp2433
g0
(g1
g2
(lp2434
Vknow
p2435
atp2436
Rp2437
(dp2438
g13
VVB
p2439
sbag0
(g1
g2
(lp2440
g0
(g1
g2
(lp2441
g0
(g1
g2
(lp2442
Vwhat
p2443
atp2444
Rp2445
(dp2446
g13
VWP
p2447
sbatp2448
Rp2449
(dp2450
g13
VWHNP
p2451
sbag0
(g1
g2
(lp2452
g0
(g1
g2
(lp2453
g0
(g1
g2
(lp2454
g0
(g1
g2
(lp2455
g0
(g1
g2
(lp2456
Vthat
p2457
atp2458
Rp2459
(dp2460
g13
VIN
p2461
sbag0
(g1
g2
(lp2462
V,
p2463
atp2464
Rp2465
(dp2466
g13
V,
p2467
sbag0
(g1
g2
(lp2468
g0
(g1
g2
(lp2469
g0
(g1
g2
(lp2470
Vthat
p2471
atp2472
Rp2473
(dp2474
g13
VDT
p2475
sbatp2476
Rp2477
(dp2478
g13
VNP
p2479
sbag0
(g1
g2
(lp2480
g0
(g1
g2
(lp2481
V's
p2482
atp2483
Rp2484
(dp2485
g13
VVBZ
p2486
sbag0
(g1
g2
(lp2487
g0
(g1
g2
(lp2488
g0
(g1
g2
(lp2489
Va
p2490
atp2491
Rp2492
(dp2493
g13
VDT
p2494
sbag0
(g1
g2
(lp2495
Vflag
p2496
atp2497
Rp2498
(dp2499
g13
VNN
p2500
sbatp2501
Rp2502
(dp2503
g13
VNP
p2504
sbag0
(g1
g2
(lp2505
g0
(g1
g2
(lp2506
g0
(g1
g2
(lp2507
g0
(g1
g2
(lp2508
Vit
p2509
atp2510
Rp2511
(dp2512
g13
VPRP
p2513
sbatp2514
Rp2515
(dp2516
g13
VNP
p2517
sbag0
(g1
g2
(lp2518
g0
(g1
g2
(lp2519
Vmight
p2520
atp2521
Rp2522
(dp2523
g13
VMD
p2524
sbatp2525
Rp2526
(dp2527
g13
VVP
p2528
sbatp2529
Rp2530
(dp2531
g13
VS
p2532
sbatp2533
Rp2534
(dp2535
g13
VSBAR
p2536
sbatp2537
Rp2538
(dp2539
g13
VNP
p2540
sbatp2541
Rp2542
(dp2543
g13
VVP
p2544
sbatp2545
Rp2546
(dp2547
g13
VS
p2548
sbatp2549
Rp2550
(dp2551
g13
VSBAR
p2552
sbag0
(g1
g2
(lp2553
V,
p2554
atp2555
Rp2556
(dp2557
g13
V,
p2558
sbag0
(g1
g2
(lp2559
Vmight
p2560
atp2561
Rp2562
(dp2563
g13
VMD
p2564
sbag0
(g1
g2
(lp2565
g0
(g1
g2
(lp2566
Vbe
p2567
atp2568
Rp2569
(dp2570
g13
VVB
p2571
sbag0
(g1
g2
(lp2572
g0
(g1
g2
(lp2573
Vsomething
p2574
atp2575
Rp2576
(dp2577
g13
VNN
p2578
sbag0
(g1
g2
(lp2579
Vspecial
p2580
atp2581
Rp2582
(dp2583
g13
VJJ
p2584
sbatp2585
Rp2586
(dp2587
g13
VNP
p2588
sbag0
(g1
g2
(lp2589
g0
(g1
g2
(lp2590
Vthat
p2591
atp2592
Rp2593
(dp2594
g13
VIN
p2595
sbatp2596
Rp2597
(dp2598
g13
VADVP
p2599
sbatp2600
Rp2601
(dp2602
g13
VVP
p2603
sbatp2604
Rp2605
(dp2606
g13
VVP
p2607
sbag0
(g1
g2
(lp2608
V,
p2609
atp2610
Rp2611
(dp2612
g13
V,
p2613
sbag0
(g1
g2
(lp2614
g0
(g1
g2
(lp2615
Vthat
p2616
atp2617
Rp2618
(dp2619
g13
VIN
p2620
sbag0
(g1
g2
(lp2621
g0
(g1
g2
(lp2622
g0
(g1
g2
(lp2623
Vthey
p2624
atp2625
Rp2626
(dp2627
g13
VPRP
p2628
sbatp2629
Rp2630
(dp2631
g13
VNP
p2632
sbag0
(g1
g2
(lp2633
g0
(g1
g2
(lp2634
Vcall
p2635
atp2636
Rp2637
(dp2638
g13
VVBP
p2639
sbatp2640
Rp2641
(dp2642
g13
VVP
p2643
sbatp2644
Rp2645
(dp2646
g13
VS
p2647
sbatp2648
Rp2649
(dp2650
g13
VSBAR
p2651
sbatp2652
Rp2653
(dp2654
g13
VVP
p2655
sbatp2656
Rp2657
(dp2658
g13
VS
p2659
sbatp2660
Rp2661
(dp2662
g13
VSBAR
p2663
sbatp2664
Rp2665
(dp2666
g13
VVP
p2667
sbatp2668
Rp2669
(dp2670
g13
VVP
p2671
sbatp2672
Rp2673
(dp2674
g13
VS
p2675
sbag0
(g1
g2
(lp2676
V,
p2677
atp2678
Rp2679
(dp2680
g13
V,
p2681
sbag0
(g1
g2
(lp2682
Vor
p2683
atp2684
Rp2685
(dp2686
g13
VCC
p2687
sbag0
(g1
g2
(lp2688
g0
(g1
g2
(lp2689
g0
(g1
g2
(lp2690
Vit
p2691
atp2692
Rp2693
(dp2694
g13
VPRP
p2695
sbatp2696
Rp2697
(dp2698
g13
VNP
p2699
sbag0
(g1
g2
(lp2700
g0
(g1
g2
(lp2701
V's
p2702
atp2703
Rp2704
(dp2705
g13
VVBZ
p2706
sbag0
(g1
g2
(lp2707
g0
(g1
g2
(lp2708
Vfor
p2709
atp2710
Rp2711
(dp2712
g13
VIN
p2713
sbag0
(g1
g2
(lp2714
g0
(g1
g2
(lp2715
g0
(g1
g2
(lp2716
Vwhere
p2717
atp2718
Rp2719
(dp2720
g13
VWRB
p2721
sbatp2722
Rp2723
(dp2724
g13
VWHADVP
p2725
sbag0
(g1
g2
(lp2726
g0
(g1
g2
(lp2727
g0
(g1
g2
(lp2728
Vthey
p2729
atp2730
Rp2731
(dp2732
g13
VPRP
p2733
sbatp2734
Rp2735
(dp2736
g13
VNP
p2737
sbag0
(g1
g2
(lp2738
g0
(g1
g2
(lp2739
Vlive
p2740
atp2741
Rp2742
(dp2743
g13
VVBP
p2744
sbatp2745
Rp2746
(dp2747
g13
VVP
p2748
sbatp2749
Rp2750
(dp2751
g13
VS
p2752
sbatp2753
Rp2754
(dp2755
g13
VSBAR
p2756
sbatp2757
Rp2758
(dp2759
g13
VPP
p2760
sbatp2761
Rp2762
(dp2763
g13
VVP
p2764
sbatp2765
Rp2766
(dp2767
g13
VS
p2768
sbag0
(g1
g2
(lp2769
V.
p2770
atp2771
Rp2772
(dp2773
g13
V.
p2774
sbatp2775
Rp2776
(dp2777
g13
VS
p2778
sbatp2779
Rp2780
(dp2781
g13
S'id: 5'
p2782
sbag0
(g1
g2
(lp2783
g0
(g1
g2
(lp2784
g0
(g1
g2
(lp2785
g0
(g1
g2
(lp2786
g0
(g1
g2
(lp2787
VIt
p2788
atp2789
Rp2790
(dp2791
g13
VPRP
p2792
sbatp2793
Rp2794
(dp2795
g13
VNP
p2796
sbag0
(g1
g2
(lp2797
g0
(g1
g2
(lp2798
Vlooks
p2799
atp2800
Rp2801
(dp2802
g13
VVBZ
p2803
sbag0
(g1
g2
(lp2804
g0
(g1
g2
(lp2805
Vlike
p2806
atp2807
Rp2808
(dp2809
g13
VIN
p2810
sbag0
(g1
g2
(lp2811
g0
(g1
g2
(lp2812
g0
(g1
g2
(lp2813
Vmommy
p2814
atp2815
Rp2816
(dp2817
g13
VNN
p2818
sbag0
(g1
g2
(lp2819
Vand
p2820
atp2821
Rp2822
(dp2823
g13
VCC
p2824
sbag0
(g1
g2
(lp2825
Vdaddy
p2826
atp2827
Rp2828
(dp2829
g13
VNN
p2830
sbatp2831
Rp2832
(dp2833
g13
VNP
p2834
sbag0
(g1
g2
(lp2835
g0
(g1
g2
(lp2836
Vare
p2837
atp2838
Rp2839
(dp2840
g13
VVBP
p2841
sbag0
(g1
g2
(lp2842
g0
(g1
g2
(lp2843
Vsitting
p2844
atp2845
Rp2846
(dp2847
g13
VVBG
p2848
sbag0
(g1
g2
(lp2849
g0
(g1
g2
(lp2850
Vthere
p2851
atp2852
Rp2853
(dp2854
g13
VRB
p2855
sbatp2856
Rp2857
(dp2858
g13
VADVP
p2859
sbag0
(g1
g2
(lp2860
g0
(g1
g2
(lp2861
g0
(g1
g2
(lp2862
Vdoing
p2863
atp2864
Rp2865
(dp2866
g13
VVBG
p2867
sbag0
(g1
g2
(lp2868
g0
(g1
g2
(lp2869
Va
p2870
atp2871
Rp2872
(dp2873
g13
VDT
p2874
sbag0
(g1
g2
(lp2875
Vtuh
p2876
atp2877
Rp2878
(dp2879
g13
VNN
p2880
sbag0
(g1
g2
(lp2881
Vpicnic
p2882
atp2883
Rp2884
(dp2885
g13
VNN
p2886
sbatp2887
Rp2888
(dp2889
g13
VNP
p2890
sbatp2891
Rp2892
(dp2893
g13
VVP
p2894
sbatp2895
Rp2896
(dp2897
g13
VS
p2898
sbatp2899
Rp2900
(dp2901
g13
VVP
p2902
sbatp2903
Rp2904
(dp2905
g13
VVP
p2906
sbatp2907
Rp2908
(dp2909
g13
VS
p2910
sbatp2911
Rp2912
(dp2913
g13
VSBAR
p2914
sbatp2915
Rp2916
(dp2917
g13
VVP
p2918
sbatp2919
Rp2920
(dp2921
g13
VS
p2922
sbag0
(g1
g2
(lp2923
V,
p2924
atp2925
Rp2926
(dp2927
g13
V,
p2928
sbag0
(g1
g2
(lp2929
g0
(g1
g2
(lp2930
g0
(g1
g2
(lp2931
Vthey
p2932
atp2933
Rp2934
(dp2935
g13
VPRP
p2936
sbatp2937
Rp2938
(dp2939
g13
VNP
p2940
sbag0
(g1
g2
(lp2941
g0
(g1
g2
(lp2942
Vboth
p2943
atp2944
Rp2945
(dp2946
g13
VDT
p2947
sbatp2948
Rp2949
(dp2950
g13
VADVP
p2951
sbag0
(g1
g2
(lp2952
g0
(g1
g2
(lp2953
Vhave
p2954
atp2955
Rp2956
(dp2957
g13
VVBP
p2958
sbag0
(g1
g2
(lp2959
g0
(g1
g2
(lp2960
Vtheir
p2961
atp2962
Rp2963
(dp2964
g13
VPRP$
p2965
sbag0
(g1
g2
(lp2966
Vsandals
p2967
atp2968
Rp2969
(dp2970
g13
VNNS
p2971
sbatp2972
Rp2973
(dp2974
g13
VNP
p2975
sbag0
(g1
g2
(lp2976
g0
(g1
g2
(lp2977
Von
p2978
atp2979
Rp2980
(dp2981
g13
VIN
p2982
sbatp2983
Rp2984
(dp2985
g13
VPP
p2986
sbatp2987
Rp2988
(dp2989
g13
VVP
p2990
sbatp2991
Rp2992
(dp2993
g13
VS
p2994
sbag0
(g1
g2
(lp2995
V,
p2996
atp2997
Rp2998
(dp2999
g13
V,
p3000
sbag0
(g1
g2
(lp3001
Vand
p3002
atp3003
Rp3004
(dp3005
g13
VCC
p3006
sbag0
(g1
g2
(lp3007
g0
(g1
g2
(lp3008
g0
(g1
g2
(lp3009
Vthere
p3010
atp3011
Rp3012
(dp3013
g13
VEX
p3014
sbatp3015
Rp3016
(dp3017
g13
VNP
p3018
sbag0
(g1
g2
(lp3019
g0
(g1
g2
(lp3020
V's
p3021
atp3022
Rp3023
(dp3024
g13
VVBZ
p3025
sbag0
(g1
g2
(lp3026
g0
(g1
g2
(lp3027
g0
(g1
g2
(lp3028
Va
p3029
atp3030
Rp3031
(dp3032
g13
VDT
p3033
sbag0
(g1
g2
(lp3034
Vtransistor
p3035
atp3036
Rp3037
(dp3038
g13
VNN
p3039
sbag0
(g1
g2
(lp3040
Vtype
p3041
atp3042
Rp3043
(dp3044
g13
VNN
p3045
sbag0
(g1
g2
(lp3046
Vradio
p3047
atp3048
Rp3049
(dp3050
g13
VNN
p3051
sbatp3052
Rp3053
(dp3054
g13
VNP
p3055
sbag0
(g1
g2
(lp3056
V,
p3057
atp3058
Rp3059
(dp3060
g13
V,
p3061
sbag0
(g1
g2
(lp3062
Vor
p3063
atp3064
Rp3065
(dp3066
g13
VCC
p3067
sbag0
(g1
g2
(lp3068
g0
(g1
g2
(lp3069
g0
(g1
g2
(lp3070
Va
p3071
atp3072
Rp3073
(dp3074
g13
VDT
p3075
sbag0
(g1
g2
(lp3076
Vboom
p3077
atp3078
Rp3079
(dp3080
g13
VNN
p3081
sbag0
(g1
g2
(lp3082
Vbox
p3083
atp3084
Rp3085
(dp3086
g13
VNN
p3087
sbatp3088
Rp3089
(dp3090
g13
VNP
p3091
sbag0
(g1
g2
(lp3092
g0
(g1
g2
(lp3093
g0
(g1
g2
(lp3094
g0
(g1
g2
(lp3095
VI
p3096
atp3097
Rp3098
(dp3099
g13
VPRP
p3100
sbatp3101
Rp3102
(dp3103
g13
VNP
p3104
sbag0
(g1
g2
(lp3105
g0
(g1
g2
(lp3106
Vguess
p3107
atp3108
Rp3109
(dp3110
g13
VVBP
p3111
sbag0
(g1
g2
(lp3112
g0
(g1
g2
(lp3113
g0
(g1
g2
(lp3114
Vthey
p3115
atp3116
Rp3117
(dp3118
g13
VPRP
p3119
sbatp3120
Rp3121
(dp3122
g13
VNP
p3123
sbag0
(g1
g2
(lp3124
g0
(g1
g2
(lp3125
Vcall
p3126
atp3127
Rp3128
(dp3129
g13
VVB
p3130
sbag0
(g1
g2
(lp3131
g0
(g1
g2
(lp3132
Vit
p3133
atp3134
Rp3135
(dp3136
g13
VPRP
p3137
sbatp3138
Rp3139
(dp3140
g13
VNP
p3141
sbatp3142
Rp3143
(dp3144
g13
VVP
p3145
sbatp3146
Rp3147
(dp3148
g13
VS
p3149
sbatp3150
Rp3151
(dp3152
g13
VVP
p3153
sbatp3154
Rp3155
(dp3156
g13
VS
p3157
sbatp3158
Rp3159
(dp3160
g13
VSBAR
p3161
sbatp3162
Rp3163
(dp3164
g13
VNP
p3165
sbatp3166
Rp3167
(dp3168
g13
VNP
p3169
sbatp3170
Rp3171
(dp3172
g13
VVP
p3173
sbatp3174
Rp3175
(dp3176
g13
VS
p3177
sbag0
(g1
g2
(lp3178
V.
p3179
atp3180
Rp3181
(dp3182
g13
V.
p3183
sbatp3184
Rp3185
(dp3186
g13
VS
p3187
sbatp3188
Rp3189
(dp3190
g13
S'id: 6'
p3191
sbag0
(g1
g2
(lp3192
g0
(g1
g2
(lp3193
g0
(g1
g2
(lp3194
VAnd
p3195
atp3196
Rp3197
(dp3198
g13
VCC
p3199
sbag0
(g1
g2
(lp3200
g0
(g1
g2
(lp3201
VI
p3202
atp3203
Rp3204
(dp3205
g13
VPRP
p3206
sbatp3207
Rp3208
(dp3209
g13
VNP
p3210
sbag0
(g1
g2
(lp3211
g0
(g1
g2
(lp3212
Vdo
p3213
atp3214
Rp3215
(dp3216
g13
VVBP
p3217
sbag0
(g1
g2
(lp3218
Vn't
p3219
atp3220
Rp3221
(dp3222
g13
VRB
p3223
sbag0
(g1
g2
(lp3224
g0
(g1
g2
(lp3225
Vknow
p3226
atp3227
Rp3228
(dp3229
g13
VVB
p3230
sbag0
(g1
g2
(lp3231
g0
(g1
g2
(lp3232
Vif
p3233
atp3234
Rp3235
(dp3236
g13
VIN
p3237
sbag0
(g1
g2
(lp3238
g0
(g1
g2
(lp3239
g0
(g1
g2
(lp3240
Vthat
p3241
atp3242
Rp3243
(dp3244
g13
VDT
p3245
sbatp3246
Rp3247
(dp3248
g13
VNP
p3249
sbag0
(g1
g2
(lp3250
g0
(g1
g2
(lp3251
V's
p3252
atp3253
Rp3254
(dp3255
g13
VVBZ
p3256
sbag0
(g1
g2
(lp3257
g0
(g1
g2
(lp3258
g0
(g1
g2
(lp3259
Vginger
p3260
atp3261
Rp3262
(dp3263
g13
VNN
p3264
sbag0
(g1
g2
(lp3265
Vale
p3266
atp3267
Rp3268
(dp3269
g13
VNN
p3270
sbag0
(g1
g2
(lp3271
Vor
p3272
atp3273
Rp3274
(dp3275
g13
VCC
p3276
sbag0
(g1
g2
(lp3277
Vbeer
p3278
atp3279
Rp3280
(dp3281
g13
VNN
p3282
sbatp3283
Rp3284
(dp3285
g13
VNP
p3286
sbag0
(g1
g2
(lp3287
V,
p3288
atp3289
Rp3290
(dp3291
g13
V,
p3292
sbag0
(g1
g2
(lp3293
Vprobably
p3294
atp3295
Rp3296
(dp3297
g13
VRB
p3298
sbag0
(g1
g2
(lp3299
g0
(g1
g2
(lp3300
Vbeer
p3301
atp3302
Rp3303
(dp3304
g13
VNN
p3305
sbatp3306
Rp3307
(dp3308
g13
VNP
p3309
sbatp3310
Rp3311
(dp3312
g13
VNP
p3313
sbatp3314
Rp3315
(dp3316
g13
VVP
p3317
sbatp3318
Rp3319
(dp3320
g13
VS
p3321
sbatp3322
Rp3323
(dp3324
g13
VSBAR
p3325
sbatp3326
Rp3327
(dp3328
g13
VVP
p3329
sbatp3330
Rp3331
(dp3332
g13
VVP
p3333
sbag0
(g1
g2
(lp3334
V.
p3335
atp3336
Rp3337
(dp3338
g13
V.
p3339
sbatp3340
Rp3341
(dp3342
g13
VS
p3343
sbatp3344
Rp3345
(dp3346
g13
S'id: 7'
p3347
sbag0
(g1
g2
(lp3348
g0
(g1
g2
(lp3349
g0
(g1
g2
(lp3350
VAnd
p3351
atp3352
Rp3353
(dp3354
g13
VCC
p3355
sbag0
(g1
g2
(lp3356
g0
(g1
g2
(lp3357
g0
(g1
g2
(lp3358
Vtheir
p3359
atp3360
Rp3361
(dp3362
g13
VPRP$
p3363
sbatp3364
Rp3365
(dp3366
g13
VNP
p3367
sbag0
(g1
g2
(lp3368
g0
(g1
g2
(lp3369
g0
(g1
g2
(lp3370
V,
p3371
atp3372
Rp3373
(dp3374
g13
V,
p3375
sbag0
(g1
g2
(lp3376
g0
(g1
g2
(lp3377
Vgot
p3378
atp3379
Rp3380
(dp3381
g13
VVBD
p3382
sbag0
(g1
g2
(lp3383
g0
(g1
g2
(lp3384
Vtheir
p3385
atp3386
Rp3387
(dp3388
g13
VPRP$
p3389
sbag0
(g1
g2
(lp3390
Vleisure
p3391
atp3392
Rp3393
(dp3394
g13
VNN
p3395
sbag0
(g1
g2
(lp3396
Vclothes
p3397
atp3398
Rp3399
(dp3400
g13
VNNS
p3401
sbatp3402
Rp3403
(dp3404
g13
VNP
p3405
sbag0
(g1
g2
(lp3406
g0
(g1
g2
(lp3407
Von
p3408
atp3409
Rp3410
(dp3411
g13
VIN
p3412
sbatp3413
Rp3414
(dp3415
g13
VPP
p3416
sbatp3417
Rp3418
(dp3419
g13
VVP
p3420
sbatp3421
Rp3422
(dp3423
g13
VS
p3424
sbatp3425
Rp3426
(dp3427
g13
VSBAR
p3428
sbatp3429
Rp3430
(dp3431
g13
VNP
p3432
sbag0
(g1
g2
(lp3433
V.
p3434
atp3435
Rp3436
(dp3437
g13
V.
p3438
sbatp3439
Rp3440
(dp3441
g13
VFRAG
p3442
sbatp3443
Rp3444
(dp3445
g13
S'id: 8'
p3446
sbag0
(g1
g2
(lp3447
g0
(g1
g2
(lp3448
g0
(g1
g2
(lp3449
g0
(g1
g2
(lp3450
VHe
p3451
atp3452
Rp3453
(dp3454
g13
VPRP
p3455
sbatp3456
Rp3457
(dp3458
g13
VNP
p3459
sbag0
(g1
g2
(lp3460
g0
(g1
g2
(lp3461
V's
p3462
atp3463
Rp3464
(dp3465
g13
VVBZ
p3466
sbag0
(g1
g2
(lp3467
g0
(g1
g2
(lp3468
Vreading
p3469
atp3470
Rp3471
(dp3472
g13
VVBG
p3473
sbag0
(g1
g2
(lp3474
g0
(g1
g2
(lp3475
Va
p3476
atp3477
Rp3478
(dp3479
g13
VDT
p3480
sbag0
(g1
g2
(lp3481
Vbook
p3482
atp3483
Rp3484
(dp3485
g13
VNN
p3486
sbatp3487
Rp3488
(dp3489
g13
VNP
p3490
sbatp3491
Rp3492
(dp3493
g13
VVP
p3494
sbatp3495
Rp3496
(dp3497
g13
VVP
p3498
sbag0
(g1
g2
(lp3499
V.
p3500
atp3501
Rp3502
(dp3503
g13
V.
p3504
sbatp3505
Rp3506
(dp3507
g13
VS
p3508
sbatp3509
Rp3510
(dp3511
g13
S'id: 9'
p3512
sbag0
(g1
g2
(lp3513
g0
(g1
g2
(lp3514
g0
(g1
g2
(lp3515
g0
(g1
g2
(lp3516
g0
(g1
g2
(lp3517
VThat
p3518
atp3519
Rp3520
(dp3521
g13
VDT
p3522
sbatp3523
Rp3524
(dp3525
g13
VNP
p3526
sbag0
(g1
g2
(lp3527
g0
(g1
g2
(lp3528
V's
p3529
atp3530
Rp3531
(dp3532
g13
VVBZ
p3533
sbag0
(g1
g2
(lp3534
g0
(g1
g2
(lp3535
Vthe
p3536
atp3537
Rp3538
(dp3539
g13
VDT
p3540
sbag0
(g1
g2
(lp3541
Vpicnic
p3542
atp3543
Rp3544
(dp3545
g13
VNN
p3546
sbag0
(g1
g2
(lp3547
Vbasket
p3548
atp3549
Rp3550
(dp3551
g13
VNN
p3552
sbatp3553
Rp3554
(dp3555
g13
VNP
p3556
sbatp3557
Rp3558
(dp3559
g13
VVP
p3560
sbatp3561
Rp3562
(dp3563
g13
VS
p3564
sbag0
(g1
g2
(lp3565
V,
p3566
atp3567
Rp3568
(dp3569
g13
V,
p3570
sbag0
(g1
g2
(lp3571
Vand
p3572
atp3573
Rp3574
(dp3575
g13
VCC
p3576
sbag0
(g1
g2
(lp3577
g0
(g1
g2
(lp3578
g0
(g1
g2
(lp3579
Vit
p3580
atp3581
Rp3582
(dp3583
g13
VPRP
p3584
sbatp3585
Rp3586
(dp3587
g13
VNP
p3588
sbag0
(g1
g2
(lp3589
g0
(g1
g2
(lp3590
V's
p3591
atp3592
Rp3593
(dp3594
g13
VVBZ
p3595
sbag0
(g1
g2
(lp3596
g0
(g1
g2
(lp3597
Vfull
p3598
atp3599
Rp3600
(dp3601
g13
VJJ
p3602
sbag0
(g1
g2
(lp3603
g0
(g1
g2
(lp3604
Vof
p3605
atp3606
Rp3607
(dp3608
g13
VIN
p3609
sbag0
(g1
g2
(lp3610
g0
(g1
g2
(lp3611
g0
(g1
g2
(lp3612
Vsandwiches
p3613
atp3614
Rp3615
(dp3616
g13
VNNS
p3617
sbatp3618
Rp3619
(dp3620
g13
VNP
p3621
sbag0
(g1
g2
(lp3622
Vand
p3623
atp3624
Rp3625
(dp3626
g13
VCC
p3627
sbag0
(g1
g2
(lp3628
g0
(g1
g2
(lp3629
Vhot
p3630
atp3631
Rp3632
(dp3633
g13
VJJ
p3634
sbag0
(g1
g2
(lp3635
Vdogs
p3636
atp3637
Rp3638
(dp3639
g13
VNNS
p3640
sbag0
(g1
g2
(lp3641
Vand
p3642
atp3643
Rp3644
(dp3645
g13
VCC
p3646
sbag0
(g1
g2
(lp3647
Vhamburgers
p3648
atp3649
Rp3650
(dp3651
g13
VNNS
p3652
sbatp3653
Rp3654
(dp3655
g13
VNP
p3656
sbatp3657
Rp3658
(dp3659
g13
VNP
p3660
sbatp3661
Rp3662
(dp3663
g13
VPP
p3664
sbatp3665
Rp3666
(dp3667
g13
VADJP
p3668
sbatp3669
Rp3670
(dp3671
g13
VVP
p3672
sbatp3673
Rp3674
(dp3675
g13
VS
p3676
sbag0
(g1
g2
(lp3677
V.
p3678
atp3679
Rp3680
(dp3681
g13
V.
p3682
sbatp3683
Rp3684
(dp3685
g13
VS
p3686
sbatp3687
Rp3688
(dp3689
g13
S'id: 10'
p3690
sbag0
(g1
g2
(lp3691
g0
(g1
g2
(lp3692
g0
(g1
g2
(lp3693
g0
(g1
g2
(lp3694
VI
p3695
atp3696
Rp3697
(dp3698
g13
VPRP
p3699
sbatp3700
Rp3701
(dp3702
g13
VNP
p3703
sbag0
(g1
g2
(lp3704
g0
(g1
g2
(lp3705
Vmean
p3706
atp3707
Rp3708
(dp3709
g13
VVBP
p3710
sbag0
(g1
g2
(lp3711
g0
(g1
g2
(lp3712
g0
(g1
g2
(lp3713
g0
(g1
g2
(lp3714
VI
p3715
atp3716
Rp3717
(dp3718
g13
VPRP
p3719
sbatp3720
Rp3721
(dp3722
g13
VNP
p3723
sbag0
(g1
g2
(lp3724
g0
(g1
g2
(lp3725
V've
p3726
atp3727
Rp3728
(dp3729
g13
VVBP
p3730
sbag0
(g1
g2
(lp3731
g0
(g1
g2
(lp3732
Vnever
p3733
atp3734
Rp3735
(dp3736
g13
VRB
p3737
sbatp3738
Rp3739
(dp3740
g13
VADVP
p3741
sbag0
(g1
g2
(lp3742
g0
(g1
g2
(lp3743
Vseen
p3744
atp3745
Rp3746
(dp3747
g13
VVBN
p3748
sbag0
(g1
g2
(lp3749
g0
(g1
g2
(lp3750
Vso
p3751
atp3752
Rp3753
(dp3754
g13
VRB
p3755
sbag0
(g1
g2
(lp3756
Vmany
p3757
atp3758
Rp3759
(dp3760
g13
VJJ
p3761
sbatp3762
Rp3763
(dp3764
g13
VADJP
p3765
sbag0
(g1
g2
(lp3766
g0
(g1
g2
(lp3767
Vin
p3768
atp3769
Rp3770
(dp3771
g13
VIN
p3772
sbag0
(g1
g2
(lp3773
g0
(g1
g2
(lp3774
Vmy
p3775
atp3776
Rp3777
(dp3778
g13
VPRP$
p3779
sbag0
(g1
g2
(lp3780
Vlife
p3781
atp3782
Rp3783
(dp3784
g13
VNN
p3785
sbatp3786
Rp3787
(dp3788
g13
VNP
p3789
sbatp3790
Rp3791
(dp3792
g13
VPP
p3793
sbatp3794
Rp3795
(dp3796
g13
VVP
p3797
sbatp3798
Rp3799
(dp3800
g13
VVP
p3801
sbatp3802
Rp3803
(dp3804
g13
VS
p3805
sbatp3806
Rp3807
(dp3808
g13
VSBAR
p3809
sbatp3810
Rp3811
(dp3812
g13
VVP
p3813
sbag0
(g1
g2
(lp3814
V.
p3815
atp3816
Rp3817
(dp3818
g13
V.
p3819
sbatp3820
Rp3821
(dp3822
g13
VS
p3823
sbatp3824
Rp3825
(dp3826
g13
S'id: 11'
p3827
sbag0
(g1
g2
(lp3828
g0
(g1
g2
(lp3829
g0
(g1
g2
(lp3830
g0
(g1
g2
(lp3831
VAnd
p3832
atp3833
Rp3834
(dp3835
g13
VCC
p3836
sbag0
(g1
g2
(lp3837
g0
(g1
g2
(lp3838
Vthere
p3839
atp3840
Rp3841
(dp3842
g13
VEX
p3843
sbatp3844
Rp3845
(dp3846
g13
VNP
p3847
sbag0
(g1
g2
(lp3848
g0
(g1
g2
(lp3849
V's
p3850
atp3851
Rp3852
(dp3853
g13
VVBZ
p3854
sbag0
(g1
g2
(lp3855
g0
(g1
g2
(lp3856
Vthe
p3857
atp3858
Rp3859
(dp3860
g13
VDT
p3861
sbag0
(g1
g2
(lp3862
Vdoggie
p3863
atp3864
Rp3865
(dp3866
g13
VNN
p3867
sbatp3868
Rp3869
(dp3870
g13
VNP
p3871
sbatp3872
Rp3873
(dp3874
g13
VVP
p3875
sbatp3876
Rp3877
(dp3878
g13
VS
p3879
sbag0
(g1
g2
(lp3880
V,
p3881
atp3882
Rp3883
(dp3884
g13
V,
p3885
sbag0
(g1
g2
(lp3886
Vand
p3887
atp3888
Rp3889
(dp3890
g13
VCC
p3891
sbag0
(g1
g2
(lp3892
g0
(g1
g2
(lp3893
g0
(g1
g2
(lp3894
Vhis
p3895
atp3896
Rp3897
(dp3898
g13
VPRP$
p3899
sbag0
(g1
g2
(lp3900
Vname
p3901
atp3902
Rp3903
(dp3904
g13
VNN
p3905
sbatp3906
Rp3907
(dp3908
g13
VNP
p3909
sbag0
(g1
g2
(lp3910
g0
(g1
g2
(lp3911
Vis
p3912
atp3913
Rp3914
(dp3915
g13
VVBZ
p3916
sbag0
(g1
g2
(lp3917
g0
(g1
g2
(lp3918
Vobviously
p3919
atp3920
Rp3921
(dp3922
g13
VRB
p3923
sbatp3924
Rp3925
(dp3926
g13
VADVP
p3927
sbag0
(g1
g2
(lp3928
g0
(g1
g2
(lp3929
VBowzer
p3930
atp3931
Rp3932
(dp3933
g13
VNNP
p3934
sbatp3935
Rp3936
(dp3937
g13
VNP
p3938
sbatp3939
Rp3940
(dp3941
g13
VVP
p3942
sbatp3943
Rp3944
(dp3945
g13
VS
p3946
sbag0
(g1
g2
(lp3947
V,
p3948
atp3949
Rp3950
(dp3951
g13
V,
p3952
sbag0
(g1
g2
(lp3953
Vand
p3954
atp3955
Rp3956
(dp3957
g13
VCC
p3958
sbag0
(g1
g2
(lp3959
g0
(g1
g2
(lp3960
g0
(g1
g2
(lp3961
Vhe
p3962
atp3963
Rp3964
(dp3965
g13
VPRP
p3966
sbatp3967
Rp3968
(dp3969
g13
VNP
p3970
sbag0
(g1
g2
(lp3971
g0
(g1
g2
(lp3972
V's
p3973
atp3974
Rp3975
(dp3976
g13
VVBZ
p3977
sbag0
(g1
g2
(lp3978
g0
(g1
g2
(lp3979
g0
(g1
g2
(lp3980
g0
(g1
g2
(lp3981
g0
(g1
g2
(lp3982
Vgot
p3983
atp3984
Rp3985
(dp3986
g13
VVBD
p3987
sbag0
(g1
g2
(lp3988
g0
(g1
g2
(lp3989
Vhis
p3990
atp3991
Rp3992
(dp3993
g13
VPRP$
p3994
sbag0
(g1
g2
(lp3995
Vtag
p3996
atp3997
Rp3998
(dp3999
g13
VNN
p4000
sbatp4001
Rp4002
(dp4003
g13
VNP
p4004
sbag0
(g1
g2
(lp4005
g0
(g1
g2
(lp4006
Von
p4007
atp4008
Rp4009
(dp4010
g13
VIN
p4011
sbatp4012
Rp4013
(dp4014
g13
VPP
p4015
sbatp4016
Rp4017
(dp4018
g13
VVP
p4019
sbatp4020
Rp4021
(dp4022
g13
VS
p4023
sbatp4024
Rp4025
(dp4026
g13
VSBAR
p4027
sbag0
(g1
g2
(lp4028
V,
p4029
atp4030
Rp4031
(dp4032
g13
V,
p4033
sbag0
(g1
g2
(lp4034
g0
(g1
g2
(lp4035
g0
(g1
g2
(lp4036
Vwhich
p4037
atp4038
Rp4039
(dp4040
g13
VWDT
p4041
sbatp4042
Rp4043
(dp4044
g13
VWHNP
p4045
sbag0
(g1
g2
(lp4046
g0
(g1
g2
(lp4047
g0
(g1
g2
(lp4048
Vmeans
p4049
atp4050
Rp4051
(dp4052
g13
VVBZ
p4053
sbag0
(g1
g2
(lp4054
g0
(g1
g2
(lp4055
g0
(g1
g2
(lp4056
g0
(g1
g2
(lp4057
Vhe
p4058
atp4059
Rp4060
(dp4061
g13
VPRP
p4062
sbatp4063
Rp4064
(dp4065
g13
VNP
p4066
sbag0
(g1
g2
(lp4067
g0
(g1
g2
(lp4068
V's
p4069
atp4070
Rp4071
(dp4072
g13
VVBZ
p4073
sbag0
(g1
g2
(lp4074
V,
p4075
atp4076
Rp4077
(dp4078
g13
V,
p4079
sbag0
(g1
g2
(lp4080
g0
(g1
g2
(lp4081
g0
(g1
g2
(lp4082
g0
(g1
g2
(lp4083
Vhe
p4084
atp4085
Rp4086
(dp4087
g13
VPRP
p4088
sbatp4089
Rp4090
(dp4091
g13
VNP
p4092
sbag0
(g1
g2
(lp4093
g0
(g1
g2
(lp4094
V's
p4095
atp4096
Rp4097
(dp4098
g13
VVBZ
p4099
sbag0
(g1
g2
(lp4100
g0
(g1
g2
(lp4101
Vin
p4102
atp4103
Rp4104
(dp4105
g13
VIN
p4106
sbag0
(g1
g2
(lp4107
g0
(g1
g2
(lp4108
Vgood
p4109
atp4110
Rp4111
(dp4112
g13
VJJ
p4113
sbag0
(g1
g2
(lp4114
Vshape
p4115
atp4116
Rp4117
(dp4118
g13
VNN
p4119
sbatp4120
Rp4121
(dp4122
g13
VNP
p4123
sbatp4124
Rp4125
(dp4126
g13
VPP
p4127
sbag0
(g1
g2
(lp4128
g0
(g1
g2
(lp4129
Vso
p4130
atp4131
Rp4132
(dp4133
g13
VRB
p4134
sbatp4135
Rp4136
(dp4137
g13
VADVP
p4138
sbatp4139
Rp4140
(dp4141
g13
VVP
p4142
sbatp4143
Rp4144
(dp4145
g13
VS
p4146
sbatp4147
Rp4148
(dp4149
g13
VSBAR
p4150
sbatp4151
Rp4152
(dp4153
g13
VVP
p4154
sbatp4155
Rp4156
(dp4157
g13
VS
p4158
sbatp4159
Rp4160
(dp4161
g13
VSBAR
p4162
sbatp4163
Rp4164
(dp4165
g13
VVP
p4166
sbatp4167
Rp4168
(dp4169
g13
VS
p4170
sbatp4171
Rp4172
(dp4173
g13
VSBAR
p4174
sbatp4175
Rp4176
(dp4177
g13
VSBAR
p4178
sbatp4179
Rp4180
(dp4181
g13
VVP
p4182
sbatp4183
Rp4184
(dp4185
g13
VS
p4186
sbatp4187
Rp4188
(dp4189
g13
VS
p4190
sbatp4191
Rp4192
(dp4193
g13
S'id: 12'
p4194
sbatp4195
Rp4196
(dp4197
g13
S'sentences'
p4198
sb.