ccopy_reg
_reconstructor
p0
(cnltk.tree
Tree
p1
c__builtin__
list
p2
(lp3
g0
(g1
g2
(lp4
g0
(g1
g2
(lp5
g0
(g1
g2
(lp6
g0
(g1
g2
(lp7
g0
(g1
g2
(lp8
(lp9
S'word: like, index: 2'
p10
aatp11
Rp12
(dp13
S'_label'
p14
Vmark
p15
sbag0
(g1
g2
(lp16
(lp17
S'word: there, index: 3'
p18
aatp19
Rp20
(dp21
g14
Vexpl
p22
sbag0
(g1
g2
(lp23
g0
(g1
g2
(lp24
g0
(g1
g2
(lp25
(lp26
S'word: a, index: 5'
p27
aatp28
Rp29
(dp30
g14
Vdet
p31
sbatp32
Rp33
(dp34
g14
S'word: parade, index: 6'
p35
sbatp36
Rp37
(dp38
g14
Vnsubj
p39
sbatp40
Rp41
(dp42
g14
S"word: 's, index: 4"
p43
sbatp44
Rp45
(dp46
g14
Vadvcl
p47
sbatp48
Rp49
(dp50
g14
S'word: look, index: 1'
p51
sbatp52
Rp53
(dp54
g14
S'id: 0'
p55
sbag0
(g1
g2
(lp56
g0
(g1
g2
(lp57
g0
(g1
g2
(lp58
g0
(g1
g2
(lp59
g0
(g1
g2
(lp60
(lp61
S'word: a, index: 3'
p62
aatp63
Rp64
(dp65
g14
Vdet
p66
sbatp67
Rp68
(dp69
g14
S'word: clown, index: 4'
p70
sbatp71
Rp72
(dp73
g14
Vnsubj
p74
sbag0
(g1
g2
(lp75
(lp76
S'word: There, index: 1'
p77
aatp78
Rp79
(dp80
g14
Vexpl
p81
sbatp82
Rp83
(dp84
g14
S"word: 's, index: 2"
p85
sbatp86
Rp87
(dp88
g14
S'id: 1'
p89
sbag0
(g1
g2
(lp90
g0
(g1
g2
(lp91
g0
(g1
g2
(lp92
g0
(g1
g2
(lp93
g0
(g1
g2
(lp94
g0
(g1
g2
(lp95
g0
(g1
g2
(lp96
g0
(g1
g2
(lp97
g0
(g1
g2
(lp98
(lp99
S'word: a, index: 7'
p100
aatp101
Rp102
(dp103
g14
Vdet
p104
sbag0
(g1
g2
(lp105
g0
(g1
g2
(lp106
g0
(g1
g2
(lp107
(lp108
S'word: there, index: 10'
p109
aatp110
Rp111
(dp112
g14
Vadvmod
p113
sbatp114
Rp115
(dp116
g14
S'word: down, index: 9'
p117
sbatp118
Rp119
(dp120
g14
Vrcmod
p121
sbatp122
Rp123
(dp124
g14
S'word: boy, index: 8'
p125
sbatp126
Rp127
(dp128
g14
Vappos
p129
sbag0
(g1
g2
(lp130
(lp131
S'word: a, index: 4'
p132
aatp133
Rp134
(dp135
g14
Vdet
p136
sbatp137
Rp138
(dp139
g14
S'word: girl, index: 5'
p140
sbatp141
Rp142
(dp143
g14
Vpobj
p144
sbatp145
Rp146
(dp147
g14
S'word: and, index: 3'
p148
sbatp149
Rp150
(dp151
g14
Vprep
p152
sbatp153
Rp154
(dp155
g14
S'word: Yes, index: 1'
p156
sbatp157
Rp158
(dp159
g14
S'id: 2'
p160
sbag0
(g1
g2
(lp161
g0
(g1
g2
(lp162
g0
(g1
g2
(lp163
(lp164
S'word: There, index: 1'
p165
aatp166
Rp167
(dp168
g14
Vexpl
p169
sbag0
(g1
g2
(lp170
g0
(g1
g2
(lp171
g0
(g1
g2
(lp172
g0
(g1
g2
(lp173
g0
(g1
g2
(lp174
(lp175
S'word: a, index: 5'
p176
aatp177
Rp178
(dp179
g14
Vdet
p180
sbag0
(g1
g2
(lp181
g0
(g1
g2
(lp182
g0
(g1
g2
(lp183
g0
(g1
g2
(lp184
g0
(g1
g2
(lp185
(lp186
S'word: the, index: 9'
p187
aatp188
Rp189
(dp190
g14
Vdet
p191
sbag0
(g1
g2
(lp192
(lp193
S'word: somebody, index: 12'
p194
aatp195
Rp196
(dp197
g14
Vappos
p198
sbatp199
Rp200
(dp201
g14
S'word: outside, index: 10'
p202
sbatp203
Rp204
(dp205
g14
Vprep
p206
sbag0
(g1
g2
(lp207
g0
(g1
g2
(lp208
g0
(g1
g2
(lp209
g0
(g1
g2
(lp210
g0
(g1
g2
(lp211
g0
(g1
g2
(lp212
g0
(g1
g2
(lp213
(lp214
S'word: tight, index: 16'
p215
aatp216
Rp217
(dp218
g14
Vamod
p219
sbatp220
Rp221
(dp222
g14
S'word: rope, index: 17'
p223
sbatp224
Rp225
(dp226
g14
Vprep
p227
sbatp228
Rp229
(dp230
g14
S'word: walking, index: 14'
p231
sbatp232
Rp233
(dp234
g14
Vxcomp
p235
sbatp236
Rp237
(dp238
g14
S'word: be, index: 13'
p239
sbatp240
Rp241
(dp242
g14
Vccomp
p243
sbatp244
Rp245
(dp246
g14
S'word: sitting, index: 7'
p247
sbatp248
Rp249
(dp250
g14
Vvmod
p251
sbatp252
Rp253
(dp254
g14
S'word: parade, index: 6'
p255
sbatp256
Rp257
(dp258
g14
Vprep
p259
sbatp260
Rp261
(dp262
g14
S'word: people, index: 3'
p263
sbatp264
Rp265
(dp266
g14
Vnsubj
p267
sbatp268
Rp269
(dp270
g14
S"word: 's, index: 2"
p271
sbatp272
Rp273
(dp274
g14
S'id: 3'
p275
sbag0
(g1
g2
(lp276
g0
(g1
g2
(lp277
g0
(g1
g2
(lp278
(lp279
S'word: There, index: 1'
p280
aatp281
Rp282
(dp283
g14
Vexpl
p284
sbag0
(g1
g2
(lp285
g0
(g1
g2
(lp286
g0
(g1
g2
(lp287
(lp288
S'word: a, index: 3'
p289
aatp290
Rp291
(dp292
g14
Vdet
p293
sbag0
(g1
g2
(lp294
(lp295
S'word: female, index: 4'
p296
aatp297
Rp298
(dp299
g14
Vamod
p300
sbatp301
Rp302
(dp303
g14
S'word: clown, index: 5'
p304
sbatp305
Rp306
(dp307
g14
Vnsubj
p308
sbatp309
Rp310
(dp311
g14
S"word: 's, index: 2"
p312
sbatp313
Rp314
(dp315
g14
S'id: 4'
p316
sbag0
(g1
g2
(lp317
g0
(g1
g2
(lp318
g0
(g1
g2
(lp319
(lp320
S'word: There, index: 1'
p321
aatp322
Rp323
(dp324
g14
Vexpl
p325
sbag0
(g1
g2
(lp326
g0
(g1
g2
(lp327
g0
(g1
g2
(lp328
(lp329
S'word: a, index: 3'
p330
aatp331
Rp332
(dp333
g14
Vdet
p334
sbatp335
Rp336
(dp337
g14
S'word: clown, index: 4'
p338
sbatp339
Rp340
(dp341
g14
Vnsubj
p342
sbatp343
Rp344
(dp345
g14
S"word: 's, index: 2"
p346
sbatp347
Rp348
(dp349
g14
S'id: 5'
p350
sbag0
(g1
g2
(lp351
g0
(g1
g2
(lp352
g0
(g1
g2
(lp353
(lp354
S'word: might, index: 2'
p355
aatp356
Rp357
(dp358
g14
Vaux
p359
sbag0
(g1
g2
(lp360
(lp361
S'word: be, index: 3'
p362
aatp363
Rp364
(dp365
g14
Vaux
p366
sbag0
(g1
g2
(lp367
g0
(g1
g2
(lp368
g0
(g1
g2
(lp369
(lp370
S'word: the, index: 6'
p371
aatp372
Rp373
(dp374
g14
Vdet
p375
sbatp376
Rp377
(dp378
g14
S'word: park, index: 7'
p379
sbatp380
Rp381
(dp382
g14
Vprep
p383
sbag0
(g1
g2
(lp384
(lp385
S'word: Somebody, index: 1'
p386
aatp387
Rp388
(dp389
g14
Vnsubj
p390
sbatp391
Rp392
(dp393
g14
S'word: walking, index: 4'
p394
sbatp395
Rp396
(dp397
g14
S'id: 6'
p398
sbag0
(g1
g2
(lp399
g0
(g1
g2
(lp400
g0
(g1
g2
(lp401
(lp402
S'word: There, index: 1'
p403
aatp404
Rp405
(dp406
g14
Vexpl
p407
sbag0
(g1
g2
(lp408
g0
(g1
g2
(lp409
g0
(g1
g2
(lp410
g0
(g1
g2
(lp411
g0
(g1
g2
(lp412
g0
(g1
g2
(lp413
g0
(g1
g2
(lp414
(lp415
S'word: drum, index: 8'
p416
aatp417
Rp418
(dp419
g14
Vrcmod
p420
sbatp421
Rp422
(dp423
g14
S'word: the, index: 7'
p424
sbatp425
Rp426
(dp427
g14
Vprep
p428
sbatp429
Rp430
(dp431
g14
S'word: sitting, index: 5'
p432
sbatp433
Rp434
(dp435
g14
Vvmod
p436
sbag0
(g1
g2
(lp437
(lp438
S'word: some, index: 3'
p439
aatp440
Rp441
(dp442
g14
Vdet
p443
sbatp444
Rp445
(dp446
g14
S'word: people, index: 4'
p447
sbatp448
Rp449
(dp450
g14
Vnsubj
p451
sbatp452
Rp453
(dp454
g14
S"word: 's, index: 2"
p455
sbatp456
Rp457
(dp458
g14
S'id: 7'
p459
sbag0
(g1
g2
(lp460
g0
(g1
g2
(lp461
g0
(g1
g2
(lp462
(lp463
S'word: There, index: 1'
p464
aatp465
Rp466
(dp467
g14
Vexpl
p468
sbag0
(g1
g2
(lp469
g0
(g1
g2
(lp470
g0
(g1
g2
(lp471
(lp472
S'word: another, index: 3'
p473
aatp474
Rp475
(dp476
g14
Vdet
p477
sbatp478
Rp479
(dp480
g14
S'word: clown, index: 4'
p481
sbatp482
Rp483
(dp484
g14
Vnsubj
p485
sbatp486
Rp487
(dp488
g14
S"word: 's, index: 2"
p489
sbatp490
Rp491
(dp492
g14
S'id: 8'
p493
sbag0
(g1
g2
(lp494
g0
(g1
g2
(lp495
g0
(g1
g2
(lp496
(lp497
S'word: There, index: 1'
p498
aatp499
Rp500
(dp501
g14
Vexpl
p502
sbag0
(g1
g2
(lp503
g0
(g1
g2
(lp504
g0
(g1
g2
(lp505
(lp506
S'word: a, index: 3'
p507
aatp508
Rp509
(dp510
g14
Vdet
p511
sbag0
(g1
g2
(lp512
g0
(g1
g2
(lp513
g0
(g1
g2
(lp514
(lp515
S'word: her, index: 6'
p516
aatp517
Rp518
(dp519
g14
Vposs
p520
sbatp521
Rp522
(dp523
g14
S'word: neck, index: 7'
p524
sbatp525
Rp526
(dp527
g14
Vprep
p528
sbatp529
Rp530
(dp531
g14
S'word: naybuluh, index: 4'
p532
sbatp533
Rp534
(dp535
g14
Vnsubj
p536
sbatp537
Rp538
(dp539
g14
S"word: 's, index: 2"
p540
sbatp541
Rp542
(dp543
g14
S'id: 9'
p544
sbag0
(g1
g2
(lp545
g0
(g1
g2
(lp546
g0
(g1
g2
(lp547
(lp548
S'word: There, index: 1'
p549
aatp550
Rp551
(dp552
g14
Vexpl
p553
sbag0
(g1
g2
(lp554
g0
(g1
g2
(lp555
g0
(g1
g2
(lp556
(lp557
S'word: a, index: 3'
p558
aatp559
Rp560
(dp561
g14
Vdet
p562
sbag0
(g1
g2
(lp563
g0
(g1
g2
(lp564
g0
(g1
g2
(lp565
g0
(g1
g2
(lp566
g0
(g1
g2
(lp567
(lp568
S'word: his, index: 6'
p569
aatp570
Rp571
(dp572
g14
Vposs
p573
sbatp574
Rp575
(dp576
g14
S'word: hand, index: 7'
p577
sbatp578
Rp579
(dp580
g14
Vdobj
p581
sbatp582
Rp583
(dp584
g14
S'word: clapping, index: 5'
p585
sbatp586
Rp587
(dp588
g14
Vvmod
p589
sbatp590
Rp591
(dp592
g14
S'word: boy, index: 4'
p593
sbatp594
Rp595
(dp596
g14
Vnsubj
p597
sbatp598
Rp599
(dp600
g14
S"word: 's, index: 2"
p601
sbatp602
Rp603
(dp604
g14
S'id: 10'
p605
sbag0
(g1
g2
(lp606
g0
(g1
g2
(lp607
g0
(g1
g2
(lp608
(lp609
S'word: There, index: 1'
p610
aatp611
Rp612
(dp613
g14
Vexpl
p614
sbag0
(g1
g2
(lp615
g0
(g1
g2
(lp616
g0
(g1
g2
(lp617
g0
(g1
g2
(lp618
g0
(g1
g2
(lp619
(lp620
S'word: the, index: 5'
p621
aatp622
Rp623
(dp624
g14
Vdet
p625
sbatp626
Rp627
(dp628
g14
S'word: drums, index: 6'
p629
sbatp630
Rp631
(dp632
g14
Vprep
p633
sbatp634
Rp635
(dp636
g14
S'word: stars, index: 3'
p637
sbatp638
Rp639
(dp640
g14
Vnsubj
p641
sbatp642
Rp643
(dp644
g14
S"word: 's, index: 2"
p645
sbatp646
Rp647
(dp648
g14
S'id: 11'
p649
sbag0
(g1
g2
(lp650
g0
(g1
g2
(lp651
g0
(g1
g2
(lp652
g0
(g1
g2
(lp653
g0
(g1
g2
(lp654
(lp655
S'word: another, index: 3'
p656
aatp657
Rp658
(dp659
g14
Vdet
p660
sbatp661
Rp662
(dp663
g14
S'word: clown, index: 4'
p664
sbatp665
Rp666
(dp667
g14
Vnsubj
p668
sbag0
(g1
g2
(lp669
(lp670
S'word: There, index: 1'
p671
aatp672
Rp673
(dp674
g14
Vexpl
p675
sbatp676
Rp677
(dp678
g14
S"word: 's, index: 2"
p679
sbatp680
Rp681
(dp682
g14
S'id: 12'
p683
sbag0
(g1
g2
(lp684
g0
(g1
g2
(lp685
g0
(g1
g2
(lp686
(lp687
S'word: And, index: 1'
p688
aatp689
Rp690
(dp691
g14
Vcc
p692
sbag0
(g1
g2
(lp693
g0
(g1
g2
(lp694
g0
(g1
g2
(lp695
g0
(g1
g2
(lp696
g0
(g1
g2
(lp697
(lp698
S'word: a, index: 2'
p699
aatp700
Rp701
(dp702
g14
Vdet
p703
sbatp704
Rp705
(dp706
g14
S'word: boy, index: 3'
p707
sbatp708
Rp709
(dp710
g14
Vnpadvmod
p711
sbatp712
Rp713
(dp714
g14
S'word: down, index: 4'
p715
sbatp716
Rp717
(dp718
g14
Vadvmod
p719
sbag0
(g1
g2
(lp720
(lp721
S'word: there, index: 5'
p722
aatp723
Rp724
(dp725
g14
Vexpl
p726
sbatp727
Rp728
(dp729
g14
S'word: smiling, index: 6'
p730
sbatp731
Rp732
(dp733
g14
S'id: 13'
p734
sbag0
(g1
g2
(lp735
g0
(g1
g2
(lp736
g0
(g1
g2
(lp737
(lp738
S'word: There, index: 1'
p739
aatp740
Rp741
(dp742
g14
Vexpl
p743
sbag0
(g1
g2
(lp744
g0
(g1
g2
(lp745
g0
(g1
g2
(lp746
(lp747
S'word: a, index: 3'
p748
aatp749
Rp750
(dp751
g14
Vnsubj
p752
sbag0
(g1
g2
(lp753
g0
(g1
g2
(lp754
g0
(g1
g2
(lp755
(lp756
S'word: it, index: 8'
p757
aatp758
Rp759
(dp760
g14
Vprep
p761
sbatp762
Rp763
(dp764
g14
S'word: stars, index: 6'
p765
sbatp766
Rp767
(dp768
g14
Vprep
p769
sbatp770
Rp771
(dp772
g14
S'word: drum, index: 4'
p773
sbatp774
Rp775
(dp776
g14
Vccomp
p777
sbatp778
Rp779
(dp780
g14
S"word: 's, index: 2"
p781
sbatp782
Rp783
(dp784
g14
S'id: 14'
p785
sbag0
(g1
g2
(lp786
g0
(g1
g2
(lp787
g0
(g1
g2
(lp788
g0
(g1
g2
(lp789
g0
(g1
g2
(lp790
(lp791
S'word: is, index: 15'
p792
aatp793
Rp794
(dp795
g14
Vaux
p796
sbag0
(g1
g2
(lp797
g0
(g1
g2
(lp798
g0
(g1
g2
(lp799
(lp800
S'word: the, index: 17'
p801
aatp802
Rp803
(dp804
g14
Vdet
p805
sbag0
(g1
g2
(lp806
(lp807
S'word: tight, index: 18'
p808
aatp809
Rp810
(dp811
g14
Vamod
p812
sbatp813
Rp814
(dp815
g14
S'word: rope, index: 19'
p816
sbatp817
Rp818
(dp819
g14
Vdobj
p820
sbag0
(g1
g2
(lp821
g0
(g1
g2
(lp822
g0
(g1
g2
(lp823
(lp824
S'word: top, index: 14'
p825
aatp826
Rp827
(dp828
g14
Vprep
p829
sbatp830
Rp831
(dp832
g14
S'word: somebody, index: 12'
p833
sbatp834
Rp835
(dp836
g14
Vnsubj
p837
sbatp838
Rp839
(dp840
g14
S'word: walking, index: 16'
p841
sbatp842
Rp843
(dp844
g14
Vconj
p845
sbag0
(g1
g2
(lp846
(lp847
S'word: There, index: 1'
p848
aatp849
Rp850
(dp851
g14
Vexpl
p852
sbag0
(g1
g2
(lp853
g0
(g1
g2
(lp854
g0
(g1
g2
(lp855
g0
(g1
g2
(lp856
g0
(g1
g2
(lp857
(lp858
S'word: a, index: 3'
p859
aatp860
Rp861
(dp862
g14
Vdet
p863
sbatp864
Rp865
(dp866
g14
S'word: clown, index: 4'
p867
sbatp868
Rp869
(dp870
g14
Vnpadvmod
p871
sbatp872
Rp873
(dp874
g14
S'word: down, index: 5'
p875
sbatp876
Rp877
(dp878
g14
Vadvmod
p879
sbag0
(g1
g2
(lp880
(lp881
S'word: here, index: 6'
p882
aatp883
Rp884
(dp885
g14
Vadvmod
p886
sbag0
(g1
g2
(lp887
g0
(g1
g2
(lp888
g0
(g1
g2
(lp889
(lp890
S'word: the, index: 8'
p891
aatp892
Rp893
(dp894
g14
Vdet
p895
sbatp896
Rp897
(dp898
g14
S'word: corner, index: 9'
p899
sbatp900
Rp901
(dp902
g14
Vprep
p903
sbatp904
Rp905
(dp906
g14
S"word: 's, index: 2"
p907
sbatp908
Rp909
(dp910
g14
S'id: 15'
p911
sbag0
(g1
g2
(lp912
g0
(g1
g2
(lp913
g0
(g1
g2
(lp914
g0
(g1
g2
(lp915
g0
(g1
g2
(lp916
g0
(g1
g2
(lp917
g0
(g1
g2
(lp918
(lp919
S'word: the, index: 3'
p920
aatp921
Rp922
(dp923
g14
Vnsubj
p924
sbag0
(g1
g2
(lp925
(lp926
S'word: watching, index: 5'
p927
aatp928
Rp929
(dp930
g14
Vxcomp
p931
sbatp932
Rp933
(dp934
g14
S'word: drum, index: 4'
p935
sbatp936
Rp937
(dp938
g14
Vccomp
p939
sbatp940
Rp941
(dp942
g14
S'word: playing, index: 2'
p943
sbatp944
Rp945
(dp946
g14
Vvmod
p947
sbatp948
Rp949
(dp950
g14
S'word: Man, index: 1'
p951
sbatp952
Rp953
(dp954
g14
S'id: 16'
p955
sbag0
(g1
g2
(lp956
g0
(g1
g2
(lp957
g0
(g1
g2
(lp958
g0
(g1
g2
(lp959
g0
(g1
g2
(lp960
(lp961
S'word: a, index: 3'
p962
aatp963
Rp964
(dp965
g14
Vdet
p966
sbag0
(g1
g2
(lp967
g0
(g1
g2
(lp968
g0
(g1
g2
(lp969
(lp970
S'word: a, index: 6'
p971
aatp972
Rp973
(dp974
g14
Vdet
p975
sbatp976
Rp977
(dp978
g14
S'word: clown, index: 7'
p979
sbatp980
Rp981
(dp982
g14
Vconj
p983
sbatp984
Rp985
(dp986
g14
S'word: lion, index: 4'
p987
sbatp988
Rp989
(dp990
g14
Vnsubj
p991
sbag0
(g1
g2
(lp992
g977
atp993
Rp994
(dp995
g14
Vnsubj
p996
sbag0
(g1
g2
(lp997
(lp998
S'word: There, index: 1'
p999
aatp1000
Rp1001
(dp1002
g14
Vexpl
p1003
sbatp1004
Rp1005
(dp1006
g14
S"word: 's, index: 2"
p1007
sbatp1008
Rp1009
(dp1010
g14
S'id: 17'
p1011
sbag0
(g1
g2
(lp1012
g0
(g1
g2
(lp1013
g0
(g1
g2
(lp1014
g0
(g1
g2
(lp1015
g0
(g1
g2
(lp1016
g0
(g1
g2
(lp1017
g0
(g1
g2
(lp1018
(lp1019
S'word: the, index: 4'
p1020
aatp1021
Rp1022
(dp1023
g14
Vdet
p1024
sbatp1025
Rp1026
(dp1027
g14
S'word: lion, index: 5'
p1028
sbatp1029
Rp1030
(dp1031
g14
Vprep
p1032
sbatp1033
Rp1034
(dp1035
g14
S'word: pointing, index: 2'
p1036
sbatp1037
Rp1038
(dp1039
g14
Vvmod
p1040
sbatp1041
Rp1042
(dp1043
g14
S'word: Somebody, index: 1'
p1044
sbatp1045
Rp1046
(dp1047
g14
S'id: 18'
p1048
sbag0
(g1
g2
(lp1049
g0
(g1
g2
(lp1050
g0
(g1
g2
(lp1051
g0
(g1
g2
(lp1052
g0
(g1
g2
(lp1053
(lp1054
S'word: a, index: 8'
p1055
aatp1056
Rp1057
(dp1058
g14
Vdet
p1059
sbatp1060
Rp1061
(dp1062
g14
S'word: lion, index: 9'
p1063
sbatp1064
Rp1065
(dp1066
g14
Vnsubj
p1067
sbag0
(g1
g2
(lp1068
(lp1069
S'word: tricks, index: 11'
p1070
aatp1071
Rp1072
(dp1073
g14
Vdobj
p1074
sbag0
(g1
g2
(lp1075
g0
(g1
g2
(lp1076
g0
(g1
g2
(lp1077
g1061
atp1078
Rp1079
(dp1080
g14
Vconj
p1081
sbag0
(g1
g2
(lp1082
(lp1083
S'word: a, index: 5'
p1084
aatp1085
Rp1086
(dp1087
g14
Vconj
p1088
sbatp1089
Rp1090
(dp1091
g14
S'word: a, index: 2'
p1092
sbatp1093
Rp1094
(dp1095
g14
Vnsubj
p1096
sbag0
(g1
g2
(lp1097
(lp1098
S'word: a, index: 5'
p1099
aatp1100
Rp1101
(dp1102
g14
Vnsubj
p1103
sbatp1104
Rp1105
(dp1106
g14
S'word: doing, index: 10'
p1107
sbatp1108
Rp1109
(dp1110
g14
S'id: 19'
p1111
sbatp1112
Rp1113
(dp1114
g14
S'sentences'
p1115
sb.