ccopy_reg
_reconstructor
p0
(cnltk.tree
Tree
p1
c__builtin__
list
p2
(lp3
g0
(g1
g2
(lp4
g0
(g1
g2
(lp5
g0
(g1
g2
(lp6
(lp7
S'word: the, index: 1'
p8
aatp9
Rp10
(dp11
S'_label'
p12
Vdet
p13
sbag0
(g1
g2
(lp14
(lp15
S"word: 's, index: 3"
p16
aatp17
Rp18
(dp19
g12
Vpossessive
p20
sbag0
(g1
g2
(lp21
g0
(g1
g2
(lp22
g0
(g1
g2
(lp23
(lp24
S'word: cookies, index: 5'
p25
aatp26
Rp27
(dp28
g12
Vdobj
p29
sbag0
(g1
g2
(lp30
g0
(g1
g2
(lp31
g0
(g1
g2
(lp32
(lp33
S'word: the, index: 8'
p34
aatp35
Rp36
(dp37
g12
Vdet
p38
sbag0
(g1
g2
(lp39
(lp40
S'word: cookie, index: 9'
p41
aatp42
Rp43
(dp44
g12
Vnn
p45
sbatp46
Rp47
(dp48
g12
S'word: jar, index: 10'
p49
sbatp50
Rp51
(dp52
g12
Vprep
p53
sbatp54
Rp55
(dp56
g12
S'word: getting, index: 4'
p57
sbatp58
Rp59
(dp60
g12
Vvmod
p61
sbatp62
Rp63
(dp64
g12
S'word: boy, index: 2'
p65
sbatp66
Rp67
(dp68
g12
S'id: 0'
p69
sbag0
(g1
g2
(lp70
g0
(g1
g2
(lp71
g0
(g1
g2
(lp72
(lp73
S'word: is, index: 3'
p74
aatp75
Rp76
(dp77
g12
Vaux
p78
sbag0
(g1
g2
(lp79
g0
(g1
g2
(lp80
g0
(g1
g2
(lp81
(lp82
S'word: a, index: 6'
p83
aatp84
Rp85
(dp86
g12
Vdet
p87
sbatp88
Rp89
(dp90
g12
S'word: cookie, index: 7'
p91
sbatp92
Rp93
(dp94
g12
Vprep
p95
sbag0
(g1
g2
(lp96
g0
(g1
g2
(lp97
g0
(g1
g2
(lp98
(lp99
S'word: The, index: 1'
p100
aatp101
Rp102
(dp103
g12
Vdet
p104
sbatp105
Rp106
(dp107
g12
S'word: sister, index: 2'
p108
sbatp109
Rp110
(dp111
g12
Vnsubj
p112
sbatp113
Rp114
(dp115
g12
S'word: afking, index: 4'
p116
sbatp117
Rp118
(dp119
g12
S'id: 1'
p120
sbag0
(g1
g2
(lp121
g0
(g1
g2
(lp122
g0
(g1
g2
(lp123
g0
(g1
g2
(lp124
g0
(g1
g2
(lp125
(lp126
S'word: The, index: 1'
p127
aatp128
Rp129
(dp130
g12
Vdet
p131
sbatp132
Rp133
(dp134
g12
S'word: mother, index: 2'
p135
sbatp136
Rp137
(dp138
g12
Vnsubj
p139
sbag0
(g1
g2
(lp140
(lp141
S'word: is, index: 3'
p142
aatp143
Rp144
(dp145
g12
Vaux
p146
sbag0
(g1
g2
(lp147
g0
(g1
g2
(lp148
g0
(g1
g2
(lp149
(lp150
S'word: dishes, index: 7'
p151
aatp152
Rp153
(dp154
g12
Vappos
p155
sbatp156
Rp157
(dp158
g12
S'word: dish, index: 5'
p159
sbatp160
Rp161
(dp162
g12
Vdobj
p163
sbatp164
Rp165
(dp166
g12
S'word: washing, index: 4'
p167
sbatp168
Rp169
(dp170
g12
S'id: 2'
p171
sbag0
(g1
g2
(lp172
g0
(g1
g2
(lp173
g0
(g1
g2
(lp174
g0
(g1
g2
(lp175
g0
(g1
g2
(lp176
(lp177
S'word: The, index: 1'
p178
aatp179
Rp180
(dp181
g12
Vdet
p182
sbatp183
Rp184
(dp185
g12
S'word: sink, index: 2'
p186
sbatp187
Rp188
(dp189
g12
Vnsubj
p190
sbag0
(g1
g2
(lp191
(lp192
S'word: is, index: 3'
p193
aatp194
Rp195
(dp196
g12
Vaux
p197
sbatp198
Rp199
(dp200
g12
S'word: overflowing, index: 4'
p201
sbatp202
Rp203
(dp204
g12
S'id: 3'
p205
sbag0
(g1
g2
(lp206
g0
(g1
g2
(lp207
g0
(g1
g2
(lp208
g0
(g1
g2
(lp209
g0
(g1
g2
(lp210
(lp211
S'word: the, index: 11'
p212
aatp213
Rp214
(dp215
g12
Vdet
p216
sbatp217
Rp218
(dp219
g12
S'word: dad, index: 12'
p220
sbatp221
Rp222
(dp223
g12
Vprep
p224
sbag0
(g1
g2
(lp225
(lp226
S'word: There, index: 1'
p227
aatp228
Rp229
(dp230
g12
Vadvmod
p231
sbag0
(g1
g2
(lp232
g0
(g1
g2
(lp233
g0
(g1
g2
(lp234
(lp235
S'word: the, index: 3'
p236
aatp237
Rp238
(dp239
g12
Vdet
p240
sbatp241
Rp242
(dp243
g12
S'word: family, index: 4'
p244
sbatp245
Rp246
(dp247
g12
Vnsubj
p248
sbag0
(g1
g2
(lp249
g0
(g1
g2
(lp250
g0
(g1
g2
(lp251
g218
atp252
Rp253
(dp254
g12
Vconj
p255
sbag0
(g1
g2
(lp256
(lp257
S'word: the, index: 7'
p258
aatp259
Rp260
(dp261
g12
Vdet
p262
sbatp263
Rp264
(dp265
g12
S'word: kitchen, index: 8'
p266
sbatp267
Rp268
(dp269
g12
Vprep
p270
sbatp271
Rp272
(dp273
g12
S'word: is, index: 5'
p274
sbatp275
Rp276
(dp277
g12
S'id: 4'
p278
sbag0
(g1
g2
(lp279
g0
(g1
g2
(lp280
g0
(g1
g2
(lp281
(lp282
S'word: It, index: 1'
p283
aatp284
Rp285
(dp286
g12
Vnsubj
p287
sbag0
(g1
g2
(lp288
(lp289
S'word: it, index: 3'
p290
aatp291
Rp292
(dp293
g12
Vnsubj
p294
sbag0
(g1
g2
(lp295
g0
(g1
g2
(lp296
g0
(g1
g2
(lp297
(lp298
S'word: to, index: 5'
p299
aatp300
Rp301
(dp302
g12
Vaux
p303
sbag0
(g1
g2
(lp304
(lp305
S'word: be, index: 6'
p306
aatp307
Rp308
(dp309
g12
Vcop
p310
sbag0
(g1
g2
(lp311
(lp312
S'word: a, index: 7'
p313
aatp314
Rp315
(dp316
g12
Vdet
p317
sbag0
(g1
g2
(lp318
(lp319
S'word: beautiful, index: 8'
p320
aatp321
Rp322
(dp323
g12
Vamod
p324
sbag0
(g1
g2
(lp325
(lp326
S'word: outside, index: 10'
p327
aatp328
Rp329
(dp330
g12
Vadvmod
p331
sbatp332
Rp333
(dp334
g12
S'word: day, index: 9'
p335
sbatp336
Rp337
(dp338
g12
Vxcomp
p339
sbatp340
Rp341
(dp342
g12
S'word: seems, index: 4'
p343
sbatp344
Rp345
(dp346
g12
S'id: 5'
p347
sbag0
(g1
g2
(lp348
g0
(g1
g2
(lp349
g0
(g1
g2
(lp350
g0
(g1
g2
(lp351
g0
(g1
g2
(lp352
g0
(g1
g2
(lp353
g0
(g1
g2
(lp354
(lp355
S'word: the, index: 5'
p356
aatp357
Rp358
(dp359
g12
Vdet
p360
sbatp361
Rp362
(dp363
g12
S'word: counter, index: 6'
p364
sbatp365
Rp366
(dp367
g12
Vprep
p368
sbatp369
Rp370
(dp371
g12
S'word: dishes, index: 3'
p372
sbatp373
Rp374
(dp375
g12
Vnsubj
p376
sbag0
(g1
g2
(lp377
(lp378
S'word: There, index: 1'
p379
aatp380
Rp381
(dp382
g12
Vexpl
p383
sbatp384
Rp385
(dp386
g12
S"word: 's, index: 2"
p387
sbatp388
Rp389
(dp390
g12
S'id: 6'
p391
sbag0
(g1
g2
(lp392
g0
(g1
g2
(lp393
g0
(g1
g2
(lp394
g0
(g1
g2
(lp395
g0
(g1
g2
(lp396
(lp397
S'word: is, index: 8'
p398
aatp399
Rp400
(dp401
g12
Vcop
p402
sbatp403
Rp404
(dp405
g12
S'word: tr, index: 9'
p406
sbatp407
Rp408
(dp409
g12
Vdep
p410
sbag0
(g1
g2
(lp411
g0
(g1
g2
(lp412
g0
(g1
g2
(lp413
(lp414
S'word: almost, index: 11'
p415
aatp416
Rp417
(dp418
g12
Vadvmod
p419
sbag0
(g1
g2
(lp420
g0
(g1
g2
(lp421
g0
(g1
g2
(lp422
(lp423
S'word: na, index: 13'
p424
aatp425
Rp426
(dp427
g12
Vaux
p428
sbag0
(g1
g2
(lp429
(lp430
S'word: off, index: 15'
p431
aatp432
Rp433
(dp434
g12
Vprt
p435
sbag0
(g1
g2
(lp436
(lp437
S'word: ladder, index: 16'
p438
aatp439
Rp440
(dp441
g12
Vdobj
p442
sbatp443
Rp444
(dp445
g12
S'word: fall, index: 14'
p446
sbatp447
Rp448
(dp449
g12
Vxcomp
p450
sbatp451
Rp452
(dp453
g12
S'word: gon, index: 12'
p454
sbatp455
Rp456
(dp457
g12
Vccomp
p458
sbag0
(g1
g2
(lp459
g0
(g1
g2
(lp460
g0
(g1
g2
(lp461
(lp462
S'word: The, index: 1'
p463
aatp464
Rp465
(dp466
g12
Vdet
p467
sbag0
(g1
g2
(lp468
(lp469
S'word: Sam, index: 4'
p470
aatp471
Rp472
(dp473
g12
Vappos
p474
sbatp475
Rp476
(dp477
g12
S'word: boy, index: 2'
p478
sbatp479
Rp480
(dp481
g12
Vnsubj
p482
sbatp483
Rp484
(dp485
g12
S'word: is, index: 6'
p486
sbatp487
Rp488
(dp489
g12
S'id: 7'
p490
sbag0
(g1
g2
(lp491
g0
(g1
g2
(lp492
g0
(g1
g2
(lp493
g0
(g1
g2
(lp494
g0
(g1
g2
(lp495
(lp496
S'word: The, index: 1'
p497
aatp498
Rp499
(dp500
g12
Vdet
p501
sbatp502
Rp503
(dp504
g12
S'word: mother, index: 2'
p505
sbatp506
Rp507
(dp508
g12
Vnsubj
p509
sbag0
(g1
g2
(lp510
(lp511
S'word: is, index: 3'
p512
aatp513
Rp514
(dp515
g12
Vaux
p516
sbag0
(g1
g2
(lp517
g0
(g1
g2
(lp518
g0
(g1
g2
(lp519
(lp520
S'word: the, index: 5'
p521
aatp522
Rp523
(dp524
g12
Vdet
p525
sbag0
(g1
g2
(lp526
(lp527
S'word: plate, index: 6'
p528
aatp529
Rp530
(dp531
g12
Vnn
p532
sbatp533
Rp534
(dp535
g12
S'word: dry-al, index: 7'
p536
sbatp537
Rp538
(dp539
g12
Vdobj
p540
sbatp541
Rp542
(dp543
g12
S'word: wiping, index: 4'
p544
sbatp545
Rp546
(dp547
g12
S'id: 8'
p548
sbag0
(g1
g2
(lp549
g0
(g1
g2
(lp550
g0
(g1
g2
(lp551
(lp552
S'word: she, index: 13'
p553
aatp554
Rp555
(dp556
g12
Vnsubj
p557
sbag0
(g1
g2
(lp558
(lp559
S'word: may, index: 14'
p560
aatp561
Rp562
(dp563
g12
Vaux
p564
sbag0
(g1
g2
(lp565
(lp566
S'word: down, index: 16'
p567
aatp568
Rp569
(dp570
g12
Vprt
p571
sbag0
(g1
g2
(lp572
g0
(g1
g2
(lp573
g0
(g1
g2
(lp574
(lp575
S'word: She, index: 1'
p576
aatp577
Rp578
(dp579
g12
Vnsubj
p580
sbag0
(g1
g2
(lp581
g0
(g1
g2
(lp582
g0
(g1
g2
(lp583
(lp584
S'word: be, index: 3'
p585
aatp586
Rp587
(dp588
g12
Vcop
p589
sbag0
(g1
g2
(lp590
g0
(g1
g2
(lp591
g0
(g1
g2
(lp592
(lp593
S'word: because, index: 5'
p594
aatp595
Rp596
(dp597
g12
Vmark
p598
sbag0
(g1
g2
(lp599
(lp600
S'word: there, index: 6'
p601
aatp602
Rp603
(dp604
g12
Vexpl
p605
sbag0
(g1
g2
(lp606
g0
(g1
g2
(lp607
g0
(g1
g2
(lp608
g0
(g1
g2
(lp609
g0
(g1
g2
(lp610
(lp611
S'word: the, index: 10'
p612
aatp613
Rp614
(dp615
g12
Vdet
p616
sbatp617
Rp618
(dp619
g12
S'word: floor, index: 11'
p620
sbatp621
Rp622
(dp623
g12
Vprep
p624
sbatp625
Rp626
(dp627
g12
S'word: water, index: 8'
p628
sbatp629
Rp630
(dp631
g12
Vnsubj
p632
sbatp633
Rp634
(dp635
g12
S'word: is, index: 7'
p636
sbatp637
Rp638
(dp639
g12
Vadvcl
p640
sbatp641
Rp642
(dp643
g12
S'word: careful, index: 4'
p644
sbatp645
Rp646
(dp647
g12
Vxcomp
p648
sbatp649
Rp650
(dp651
g12
S'word: needs, index: 2'
p652
sbatp653
Rp654
(dp655
g12
Vccomp
p656
sbatp657
Rp658
(dp659
g12
S'word: slip, index: 15'
p660
sbatp661
Rp662
(dp663
g12
S'id: 9'
p664
sbag0
(g1
g2
(lp665
g0
(g1
g2
(lp666
g0
(g1
g2
(lp667
(lp668
S'word: They, index: 1'
p669
aatp670
Rp671
(dp672
g12
Vnsubj
p673
sbag0
(g1
g2
(lp674
(lp675
S'word: are, index: 2'
p676
aatp677
Rp678
(dp679
g12
Vaux
p680
sbag0
(g1
g2
(lp681
(lp682
S'word: all, index: 3'
p683
aatp684
Rp685
(dp686
g12
Vadvmod
p687
sbag0
(g1
g2
(lp688
(lp689
S'word: shoes, index: 5'
p690
aatp691
Rp692
(dp693
g12
Vdobj
p694
sbatp695
Rp696
(dp697
g12
S'word: wearing, index: 4'
p698
sbatp699
Rp700
(dp701
g12
S'id: 10'
p702
sbag0
(g1
g2
(lp703
g0
(g1
g2
(lp704
g0
(g1
g2
(lp705
(lp706
S'word: Is, index: 1'
p707
aatp708
Rp709
(dp710
g12
Vcsubj
p711
sbag0
(g1
g2
(lp712
(lp713
S'word: must, index: 2'
p714
aatp715
Rp716
(dp717
g12
Vaux
p718
sbag0
(g1
g2
(lp719
g0
(g1
g2
(lp720
g0
(g1
g2
(lp721
(lp722
S'word: be, index: 17'
p723
aatp724
Rp725
(dp726
g12
Vcop
p727
sbag0
(g1
g2
(lp728
(lp729
S'word: springtime, index: 20'
p730
aatp731
Rp732
(dp733
g12
Vconj
p734
sbag0
(g1
g2
(lp735
(lp736
S'word: summertime, index: 22'
p737
aatp738
Rp739
(dp740
g12
Vconj
p741
sbag0
(g1
g2
(lp742
g0
(g1
g2
(lp743
g0
(g1
g2
(lp744
g0
(g1
g2
(lp745
g0
(g1
g2
(lp746
(lp747
S'word: a, index: 33'
p748
aatp749
Rp750
(dp751
g12
Vdet
p752
sbag0
(g1
g2
(lp753
(lp754
S'word: shorts, index: 36'
p755
aatp756
Rp757
(dp758
g12
Vconj
p759
sbatp760
Rp761
(dp762
g12
S'word: sundress, index: 34'
p763
sbatp764
Rp765
(dp766
g12
Vdobj
p767
sbag0
(g1
g2
(lp768
(lp769
S'word: because, index: 23'
p770
aatp771
Rp772
(dp773
g12
Vmark
p774
sbag0
(g1
g2
(lp775
(lp776
S'word: they, index: 24'
p777
aatp778
Rp779
(dp780
g12
Vnsubj
p781
sbag0
(g1
g2
(lp782
(lp783
S'word: are, index: 25'
p784
aatp785
Rp786
(dp787
g12
Vaux
p788
sbag0
(g1
g2
(lp789
g0
(g1
g2
(lp790
g0
(g1
g2
(lp791
g761
atp792
Rp793
(dp794
g12
Vconj
p795
sbag0
(g1
g2
(lp796
(lp797
S'word: shorts, index: 36'
p798
aatp799
Rp800
(dp801
g12
Vconj
p802
sbag0
(g1
g2
(lp803
(lp804
S'word: short, index: 27'
p805
aatp806
Rp807
(dp808
g12
Vamod
p809
sbag0
(g1
g2
(lp810
g0
(g1
g2
(lp811
g0
(g1
g2
(lp812
(lp813
S'word: a, index: 30'
p814
aatp815
Rp816
(dp817
g12
Vdet
p818
sbatp819
Rp820
(dp821
g12
S'word: skirt, index: 31'
p822
sbatp823
Rp824
(dp825
g12
Vconj
p826
sbatp827
Rp828
(dp829
g12
S'word: sleeves, index: 28'
p830
sbatp831
Rp832
(dp833
g12
Vdobj
p834
sbag0
(g1
g2
(lp835
g820
atp836
Rp837
(dp838
g12
Vdobj
p839
sbatp840
Rp841
(dp842
g12
S'word: wearing, index: 26'
p843
sbatp844
Rp845
(dp846
g12
Vadvcl
p847
sbag0
(g1
g2
(lp848
(lp849
S'word: it, index: 15'
p850
aatp851
Rp852
(dp853
g12
Vnsubj
p854
sbag0
(g1
g2
(lp855
(lp856
S'word: must, index: 16'
p857
aatp858
Rp859
(dp860
g12
Vaux
p861
sbatp862
Rp863
(dp864
g12
S'word: string, index: 18'
p865
sbatp866
Rp867
(dp868
g12
Vparataxis
p869
sbag0
(g1
g2
(lp870
(lp871
S'word: be, index: 3'
p872
aatp873
Rp874
(dp875
g12
Vcop
p876
sbag0
(g1
g2
(lp877
(lp878
S'word: springtime, index: 20'
p879
aatp880
Rp881
(dp882
g12
Vparataxis
p883
sbag0
(g1
g2
(lp884
(lp885
S'word: summertime, index: 22'
p886
aatp887
Rp888
(dp889
g12
Vparataxis
p890
sbag0
(g1
g2
(lp891
g0
(g1
g2
(lp892
g0
(g1
g2
(lp893
(lp894
S'word: Is, index: 1'
p895
aatp896
Rp897
(dp898
g12
Vcsubj
p899
sbag0
(g1
g2
(lp900
(lp901
S'word: time, index: 8'
p902
aatp903
Rp904
(dp905
g12
Vdobj
p906
sbatp907
Rp908
(dp909
g12
S'word: fall, index: 7'
p910
sbatp911
Rp912
(dp913
g12
Vconj
p914
sbag0
(g1
g2
(lp915
g0
(g1
g2
(lp916
g0
(g1
g2
(lp917
(lp918
S'word: because, index: 10'
p919
aatp920
Rp921
(dp922
g12
Vtmod
p923
sbag0
(g1
g2
(lp924
(lp925
S'word: I, index: 12'
p926
aatp927
Rp928
(dp929
g12
Vnsubj
p930
sbatp931
Rp932
(dp933
g12
S'word: know, index: 13'
p934
sbatp935
Rp936
(dp937
g12
Vparataxis
p938
sbatp939
Rp940
(dp941
g12
S'word: summertime, index: 4'
p942
sbatp943
Rp944
(dp945
g12
S'id: 11'
p946
sbag0
(g1
g2
(lp947
g0
(g1
g2
(lp948
g0
(g1
g2
(lp949
(lp950
S'word: open, index: 6'
p951
aatp952
Rp953
(dp954
g12
Vacomp
p955
sbag0
(g1
g2
(lp956
(lp957
S'word: There, index: 1'
p958
aatp959
Rp960
(dp961
g12
Vexpl
p962
sbag0
(g1
g2
(lp963
g0
(g1
g2
(lp964
g0
(g1
g2
(lp965
g0
(g1
g2
(lp966
g0
(g1
g2
(lp967
(lp968
S'word: one, index: 4'
p969
aatp970
Rp971
(dp972
g12
Vnum
p973
sbatp974
Rp975
(dp976
g12
S'word: cabinet, index: 5'
p977
sbatp978
Rp979
(dp980
g12
Vpobj
p981
sbatp982
Rp983
(dp984
g12
S'word: only, index: 3'
p985
sbatp986
Rp987
(dp988
g12
Vadvmod
p989
sbatp990
Rp991
(dp992
g12
S'word: is, index: 2'
p993
sbatp994
Rp995
(dp996
g12
S'id: 12'
p997
sbag0
(g1
g2
(lp998
g0
(g1
g2
(lp999
g0
(g1
g2
(lp1000
(lp1001
S'word: There, index: 1'
p1002
aatp1003
Rp1004
(dp1005
g12
Vexpl
p1006
sbag0
(g1
g2
(lp1007
g0
(g1
g2
(lp1008
g0
(g1
g2
(lp1009
g0
(g1
g2
(lp1010
g0
(g1
g2
(lp1011
(lp1012
S'word: the, index: 5'
p1013
aatp1014
Rp1015
(dp1016
g12
Vdet
p1017
sbatp1018
Rp1019
(dp1020
g12
S'word: window, index: 6'
p1021
sbatp1022
Rp1023
(dp1024
g12
Vprep
p1025
sbatp1026
Rp1027
(dp1028
g12
S'word: grass, index: 3'
p1029
sbatp1030
Rp1031
(dp1032
g12
Vnsubj
p1033
sbatp1034
Rp1035
(dp1036
g12
S"word: 's, index: 2"
p1037
sbatp1038
Rp1039
(dp1040
g12
S'id: 13'
p1041
sbag0
(g1
g2
(lp1042
g0
(g1
g2
(lp1043
g0
(g1
g2
(lp1044
g0
(g1
g2
(lp1045
g0
(g1
g2
(lp1046
(lp1047
S'word: The, index: 1'
p1048
aatp1049
Rp1050
(dp1051
g12
Vdet
p1052
sbatp1053
Rp1054
(dp1055
g12
S'word: window, index: 2'
p1056
sbatp1057
Rp1058
(dp1059
g12
Vnsubjpass
p1060
sbag0
(g1
g2
(lp1061
(lp1062
S'word: is, index: 3'
p1063
aatp1064
Rp1065
(dp1066
g12
Vauxpass
p1067
sbag0
(g1
g2
(lp1068
(lp1069
S'word: halfway, index: 4'
p1070
aatp1071
Rp1072
(dp1073
g12
Vadvmod
p1074
sbag0
(g1
g2
(lp1075
g0
(g1
g2
(lp1076
g0
(g1
g2
(lp1077
g0
(g1
g2
(lp1078
g0
(g1
g2
(lp1079
(lp1080
S'word: to, index: 12'
p1081
aatp1082
Rp1083
(dp1084
g12
Vprepc
p1085
sbatp1086
Rp1087
(dp1088
g12
S'word: open, index: 10'
p1089
sbatp1090
Rp1091
(dp1092
g12
Vdep
p1093
sbag0
(g1
g2
(lp1094
(lp1095
S'word: all, index: 7'
p1096
aatp1097
Rp1098
(dp1099
g12
Vpredet
p1100
sbag0
(g1
g2
(lp1101
(lp1102
S'word: the, index: 8'
p1103
aatp1104
Rp1105
(dp1106
g12
Vdet
p1107
sbatp1108
Rp1109
(dp1110
g12
S'word: way, index: 9'
p1111
sbatp1112
Rp1113
(dp1114
g12
Vdobj
p1115
sbatp1116
Rp1117
(dp1118
g12
S'word: opened, index: 5'
p1119
sbatp1120
Rp1121
(dp1122
g12
S'id: 14'
p1123
sbatp1124
Rp1125
(dp1126
g12
S'sentences'
p1127
sb.