ccopy_reg
_reconstructor
p0
(cnltk.tree
Tree
p1
c__builtin__
list
p2
(lp3
g0
(g1
g2
(lp4
g0
(g1
g2
(lp5
g0
(g1
g2
(lp6
g0
(g1
g2
(lp7
VI
p8
atp9
Rp10
(dp11
S'_label'
p12
VPRP
p13
sbatp14
Rp15
(dp16
g12
VNP
p17
sbag0
(g1
g2
(lp18
g0
(g1
g2
(lp19
V've
p20
atp21
Rp22
(dp23
g12
VVBP
p24
sbag0
(g1
g2
(lp25
g0
(g1
g2
(lp26
Vseen
p27
atp28
Rp29
(dp30
g12
VVBN
p31
sbag0
(g1
g2
(lp32
g0
(g1
g2
(lp33
Vthis
p34
atp35
Rp36
(dp37
g12
VDT
p38
sbag0
(g1
g2
(lp39
Vone
p40
atp41
Rp42
(dp43
g12
VCD
p44
sbatp45
Rp46
(dp47
g12
VNP
p48
sbatp49
Rp50
(dp51
g12
VVP
p52
sbatp53
Rp54
(dp55
g12
VVP
p56
sbag0
(g1
g2
(lp57
V.
p58
atp59
Rp60
(dp61
g12
V.
p62
sbatp63
Rp64
(dp65
g12
VS
p66
sbatp67
Rp68
(dp69
g12
S'id: 0'
p70
sbag0
(g1
g2
(lp71
g0
(g1
g2
(lp72
g0
(g1
g2
(lp73
g0
(g1
g2
(lp74
VProbably
p75
atp76
Rp77
(dp78
g12
VRB
p79
sbatp80
Rp81
(dp82
g12
VADVP
p83
sbag0
(g1
g2
(lp84
g0
(g1
g2
(lp85
g0
(g1
g2
(lp86
Vone
p87
atp88
Rp89
(dp90
g12
VCD
p91
sbatp92
Rp93
(dp94
g12
VNP
p95
sbag0
(g1
g2
(lp96
V,
p97
atp98
Rp99
(dp100
g12
V,
p101
sbag0
(g1
g2
(lp102
g0
(g1
g2
(lp103
Vtwo
p104
atp105
Rp106
(dp107
g12
VCD
p108
sbatp109
Rp110
(dp111
g12
VNP
p112
sbag0
(g1
g2
(lp113
V,
p114
atp115
Rp116
(dp117
g12
V,
p118
sbag0
(g1
g2
(lp119
g0
(g1
g2
(lp120
g0
(g1
g2
(lp121
Vthree
p122
atp123
Rp124
(dp125
g12
VCD
p126
sbatp127
Rp128
(dp129
g12
VNP
p130
sbag0
(g1
g2
(lp131
V,
p132
atp133
Rp134
(dp135
g12
V,
p136
sbag0
(g1
g2
(lp137
g0
(g1
g2
(lp138
Vfour
p139
atp140
Rp141
(dp142
g12
VCD
p143
sbatp144
Rp145
(dp146
g12
VNP
p147
sbag0
(g1
g2
(lp148
V,
p149
atp150
Rp151
(dp152
g12
V,
p153
sbag0
(g1
g2
(lp154
g0
(g1
g2
(lp155
Vfive
p156
atp157
Rp158
(dp159
g12
VCD
p160
sbatp161
Rp162
(dp163
g12
VNP
p164
sbatp165
Rp166
(dp167
g12
VNP
p168
sbatp169
Rp170
(dp171
g12
VNP
p172
sbag0
(g1
g2
(lp173
V.
p174
atp175
Rp176
(dp177
g12
V.
p178
sbatp179
Rp180
(dp181
g12
VFRAG
p182
sbatp183
Rp184
(dp185
g12
S'id: 1'
p186
sbag0
(g1
g2
(lp187
g0
(g1
g2
(lp188
g0
(g1
g2
(lp189
VReady
p190
atp191
Rp192
(dp193
g12
VJJ
p194
sbatp195
Rp196
(dp197
g12
VADJP
p198
sbatp199
Rp200
(dp201
g12
S'id: 2'
p202
sbatp203
Rp204
(dp205
g12
S'sentences'
p206
sb.