ccopy_reg
_reconstructor
p0
(cnltk.tree
Tree
p1
c__builtin__
list
p2
(lp3
g0
(g1
g2
(lp4
g0
(g1
g2
(lp5
g0
(g1
g2
(lp6
g0
(g1
g2
(lp7
VThere
p8
atp9
Rp10
(dp11
S'_label'
p12
VEX
p13
sbatp14
Rp15
(dp16
g12
VNP
p17
sbag0
(g1
g2
(lp18
g0
(g1
g2
(lp19
Vare
p20
atp21
Rp22
(dp23
g12
VVBP
p24
sbag0
(g1
g2
(lp25
g0
(g1
g2
(lp26
g0
(g1
g2
(lp27
Vthree
p28
atp29
Rp30
(dp31
g12
VCD
p32
sbag0
(g1
g2
(lp33
Vpeople
p34
atp35
Rp36
(dp37
g12
VNNS
p38
sbatp39
Rp40
(dp41
g12
VNP
p42
sbag0
(g1
g2
(lp43
Vand
p44
atp45
Rp46
(dp47
g12
VCC
p48
sbag0
(g1
g2
(lp49
g0
(g1
g2
(lp50
g0
(g1
g2
(lp51
Va
p52
atp53
Rp54
(dp55
g12
VDT
p56
sbag0
(g1
g2
(lp57
Vsignature
p58
atp59
Rp60
(dp61
g12
VNN
p62
sbatp63
Rp64
(dp65
g12
VNP
p66
sbag0
(g1
g2
(lp67
V,
p68
atp69
Rp70
(dp71
g12
V,
p72
sbag0
(g1
g2
(lp73
g0
(g1
g2
(lp74
Vsiture
p75
atp76
Rp77
(dp78
g12
VNN
p79
sbatp80
Rp81
(dp82
g12
VNP
p83
sbatp84
Rp85
(dp86
g12
VNP
p87
sbatp88
Rp89
(dp90
g12
VNP
p91
sbatp92
Rp93
(dp94
g12
VVP
p95
sbag0
(g1
g2
(lp96
V.
p97
atp98
Rp99
(dp100
g12
V.
p101
sbatp102
Rp103
(dp104
g12
VS
p105
sbatp106
Rp107
(dp108
g12
S'id: 0'
p109
sbag0
(g1
g2
(lp110
g0
(g1
g2
(lp111
g0
(g1
g2
(lp112
g0
(g1
g2
(lp113
VThe
p114
atp115
Rp116
(dp117
g12
VDT
p118
sbag0
(g1
g2
(lp119
Vwoman
p120
atp121
Rp122
(dp123
g12
VNN
p124
sbatp125
Rp126
(dp127
g12
VNP
p128
sbag0
(g1
g2
(lp129
g0
(g1
g2
(lp130
Vis
p131
atp132
Rp133
(dp134
g12
VVBZ
p135
sbag0
(g1
g2
(lp136
g0
(g1
g2
(lp137
Vknocking
p138
atp139
Rp140
(dp141
g12
VVBG
p142
sbag0
(g1
g2
(lp143
g0
(g1
g2
(lp144
g0
(g1
g2
(lp145
Vthe
p146
atp147
Rp148
(dp149
g12
VDT
p150
sbag0
(g1
g2
(lp151
Vwater
p152
atp153
Rp154
(dp155
g12
VNN
p156
sbatp157
Rp158
(dp159
g12
VNP
p160
sbag0
(g1
g2
(lp161
Vdown
p162
atp163
Rp164
(dp165
g12
VRB
p166
sbatp167
Rp168
(dp169
g12
VADVP
p170
sbatp171
Rp172
(dp173
g12
VVP
p174
sbatp175
Rp176
(dp177
g12
VVP
p178
sbag0
(g1
g2
(lp179
V.
p180
atp181
Rp182
(dp183
g12
V.
p184
sbatp185
Rp186
(dp187
g12
VS
p188
sbatp189
Rp190
(dp191
g12
S'id: 1'
p192
sbag0
(g1
g2
(lp193
g0
(g1
g2
(lp194
g0
(g1
g2
(lp195
g0
(g1
g2
(lp196
g0
(g1
g2
(lp197
VThe
p198
atp199
Rp200
(dp201
g12
VDT
p202
sbag0
(g1
g2
(lp203
Vbowl
p204
atp205
Rp206
(dp207
g12
VNN
p208
sbatp209
Rp210
(dp211
g12
VNP
p212
sbag0
(g1
g2
(lp213
g0
(g1
g2
(lp214
Vis
p215
atp216
Rp217
(dp218
g12
VVBZ
p219
sbag0
(g1
g2
(lp220
g0
(g1
g2
(lp221
Vtaking
p222
atp223
Rp224
(dp225
g12
VVBG
p226
sbag0
(g1
g2
(lp227
g0
(g1
g2
(lp228
Vcart
p229
atp230
Rp231
(dp232
g12
VNN
p233
sbatp234
Rp235
(dp236
g12
VNP
p237
sbag0
(g1
g2
(lp238
g0
(g1
g2
(lp239
Voff
p240
atp241
Rp242
(dp243
g12
VIN
p244
sbatp245
Rp246
(dp247
g12
VPRT
p248
sbatp249
Rp250
(dp251
g12
VVP
p252
sbatp253
Rp254
(dp255
g12
VVP
p256
sbatp257
Rp258
(dp259
g12
VS
p260
sbag0
(g1
g2
(lp261
g0
(g1
g2
(lp262
Vhe
p263
atp264
Rp265
(dp266
g12
VPRP
p267
sbatp268
Rp269
(dp270
g12
VNP
p271
sbag0
(g1
g2
(lp272
g0
(g1
g2
(lp273
V's
p274
atp275
Rp276
(dp277
g12
VVBZ
p278
sbag0
(g1
g2
(lp279
g0
(g1
g2
(lp280
Vgon
p281
atp282
Rp283
(dp284
g12
VVBG
p285
sbag0
(g1
g2
(lp286
g0
(g1
g2
(lp287
g0
(g1
g2
(lp288
Vna
p289
atp290
Rp291
(dp292
g12
VTO
p293
sbag0
(g1
g2
(lp294
g0
(g1
g2
(lp295
g0
(g1
g2
(lp296
Vfall
p297
atp298
Rp299
(dp300
g12
VVB
p301
sbatp302
Rp303
(dp304
g12
VVP
p305
sbag0
(g1
g2
(lp306
V,
p307
atp308
Rp309
(dp310
g12
V,
p311
sbag0
(g1
g2
(lp312
g0
(g1
g2
(lp313
Vhurt
p314
atp315
Rp316
(dp317
g12
VVB
p318
sbag0
(g1
g2
(lp319
g0
(g1
g2
(lp320
Vhimself
p321
atp322
Rp323
(dp324
g12
VPRP
p325
sbatp326
Rp327
(dp328
g12
VNP
p329
sbatp330
Rp331
(dp332
g12
VVP
p333
sbatp334
Rp335
(dp336
g12
VVP
p337
sbatp338
Rp339
(dp340
g12
VVP
p341
sbatp342
Rp343
(dp344
g12
VS
p345
sbatp346
Rp347
(dp348
g12
VVP
p349
sbatp350
Rp351
(dp352
g12
VVP
p353
sbag0
(g1
g2
(lp354
V.
p355
atp356
Rp357
(dp358
g12
V.
p359
sbatp360
Rp361
(dp362
g12
VS
p363
sbatp364
Rp365
(dp366
g12
S'id: 2'
p367
sbag0
(g1
g2
(lp368
g0
(g1
g2
(lp369
g0
(g1
g2
(lp370
g0
(g1
g2
(lp371
VThe
p372
atp373
Rp374
(dp375
g12
VDT
p376
sbag0
(g1
g2
(lp377
Vsister
p378
atp379
Rp380
(dp381
g12
VNN
p382
sbag0
(g1
g2
(lp383
Vlaughing
p384
atp385
Rp386
(dp387
g12
VNN
p388
sbatp389
Rp390
(dp391
g12
VNP
p392
sbag0
(g1
g2
(lp393
V,
p394
atp395
Rp396
(dp397
g12
V,
p398
sbag0
(g1
g2
(lp399
Vbut
p400
atp401
Rp402
(dp403
g12
VCC
p404
sbag0
(g1
g2
(lp405
g0
(g1
g2
(lp406
g0
(g1
g2
(lp407
Vshe
p408
atp409
Rp410
(dp411
g12
VPRP
p412
sbatp413
Rp414
(dp415
g12
VNP
p416
sbag0
(g1
g2
(lp417
g0
(g1
g2
(lp418
Vwants
p419
atp420
Rp421
(dp422
g12
VVBZ
p423
sbag0
(g1
g2
(lp424
g0
(g1
g2
(lp425
Vcooks
p426
atp427
Rp428
(dp429
g12
VNNS
p430
sbatp431
Rp432
(dp433
g12
VNP
p434
sbatp435
Rp436
(dp437
g12
VVP
p438
sbatp439
Rp440
(dp441
g12
VS
p442
sbag0
(g1
g2
(lp443
V.
p444
atp445
Rp446
(dp447
g12
V.
p448
sbatp449
Rp450
(dp451
g12
VFRAG
p452
sbatp453
Rp454
(dp455
g12
S'id: 3'
p456
sbag0
(g1
g2
(lp457
g0
(g1
g2
(lp458
g0
(g1
g2
(lp459
VSo
p460
atp461
Rp462
(dp463
g12
VIN
p464
sbag0
(g1
g2
(lp465
g0
(g1
g2
(lp466
g0
(g1
g2
(lp467
Vthe
p468
atp469
Rp470
(dp471
g12
VDT
p472
sbag0
(g1
g2
(lp473
Vwoman
p474
atp475
Rp476
(dp477
g12
VNN
p478
sbatp479
Rp480
(dp481
g12
VNP
p482
sbag0
(g1
g2
(lp483
g0
(g1
g2
(lp484
Vis
p485
atp486
Rp487
(dp488
g12
VVBZ
p489
sbag0
(g1
g2
(lp490
g0
(g1
g2
(lp491
Vpulling
p492
atp493
Rp494
(dp495
g12
VVBG
p496
sbag0
(g1
g2
(lp497
g0
(g1
g2
(lp498
Vwater
p499
atp500
Rp501
(dp502
g12
VNN
p503
sbatp504
Rp505
(dp506
g12
VNP
p507
sbag0
(g1
g2
(lp508
g0
(g1
g2
(lp509
Von
p510
atp511
Rp512
(dp513
g12
VIN
p514
sbag0
(g1
g2
(lp515
g0
(g1
g2
(lp516
Vthe
p517
atp518
Rp519
(dp520
g12
VDT
p521
sbag0
(g1
g2
(lp522
Vwater
p523
atp524
Rp525
(dp526
g12
VNN
p527
sbatp528
Rp529
(dp530
g12
VNP
p531
sbatp532
Rp533
(dp534
g12
VPP
p535
sbatp536
Rp537
(dp538
g12
VVP
p539
sbatp540
Rp541
(dp542
g12
VVP
p543
sbatp544
Rp545
(dp546
g12
VS
p547
sbag0
(g1
g2
(lp548
V,
p549
atp550
Rp551
(dp552
g12
V,
p553
sbag0
(g1
g2
(lp554
g0
(g1
g2
(lp555
g0
(g1
g2
(lp556
Vshe
p557
atp558
Rp559
(dp560
g12
VPRP
p561
sbatp562
Rp563
(dp564
g12
VNP
p565
sbag0
(g1
g2
(lp566
g0
(g1
g2
(lp567
V's
p568
atp569
Rp570
(dp571
g12
VVBZ
p572
sbag0
(g1
g2
(lp573
g0
(g1
g2
(lp574
Vsitting
p575
atp576
Rp577
(dp578
g12
VVBG
p579
sbag0
(g1
g2
(lp580
g0
(g1
g2
(lp581
Vthere
p582
atp583
Rp584
(dp585
g12
VRB
p586
sbatp587
Rp588
(dp589
g12
VADVP
p590
sbag0
(g1
g2
(lp591
g0
(g1
g2
(lp592
Vnot
p593
atp594
Rp595
(dp596
g12
VRB
p597
sbag0
(g1
g2
(lp598
g0
(g1
g2
(lp599
Vcare
p600
atp601
Rp602
(dp603
g12
VVB
p604
sbatp605
Rp606
(dp607
g12
VVP
p608
sbatp609
Rp610
(dp611
g12
VS
p612
sbag0
(g1
g2
(lp613
g0
(g1
g2
(lp614
g0
(g1
g2
(lp615
Vwhat
p616
atp617
Rp618
(dp619
g12
VWP
p620
sbatp621
Rp622
(dp623
g12
VWHNP
p624
sbag0
(g1
g2
(lp625
g0
(g1
g2
(lp626
g0
(g1
g2
(lp627
V's
p628
atp629
Rp630
(dp631
g12
VVBZ
p632
sbag0
(g1
g2
(lp633
g0
(g1
g2
(lp634
Vhappening
p635
atp636
Rp637
(dp638
g12
VVBG
p639
sbatp640
Rp641
(dp642
g12
VVP
p643
sbatp644
Rp645
(dp646
g12
VVP
p647
sbatp648
Rp649
(dp650
g12
VS
p651
sbatp652
Rp653
(dp654
g12
VSBAR
p655
sbatp656
Rp657
(dp658
g12
VVP
p659
sbatp660
Rp661
(dp662
g12
VVP
p663
sbatp664
Rp665
(dp666
g12
VS
p667
sbag0
(g1
g2
(lp668
V,
p669
atp670
Rp671
(dp672
g12
V,
p673
sbag0
(g1
g2
(lp674
g0
(g1
g2
(lp675
g0
(g1
g2
(lp676
g0
(g1
g2
(lp677
Vdoes
p678
atp679
Rp680
(dp681
g12
VVBZ
p682
sbag0
(g1
g2
(lp683
g0
(g1
g2
(lp684
Vnothing
p685
atp686
Rp687
(dp688
g12
VNN
p689
sbatp690
Rp691
(dp692
g12
VNP
p693
sbatp694
Rp695
(dp696
g12
VVP
p697
sbatp698
Rp699
(dp700
g12
VS
p701
sbatp702
Rp703
(dp704
g12
VSBAR
p705
sbag0
(g1
g2
(lp706
V.
p707
atp708
Rp709
(dp710
g12
V.
p711
sbatp712
Rp713
(dp714
g12
VS
p715
sbatp716
Rp717
(dp718
g12
S'id: 4'
p719
sbag0
(g1
g2
(lp720
g0
(g1
g2
(lp721
g0
(g1
g2
(lp722
g0
(g1
g2
(lp723
g0
(g1
g2
(lp724
VThe
p725
atp726
Rp727
(dp728
g12
VDT
p729
sbag0
(g1
g2
(lp730
Vkid
p731
atp732
Rp733
(dp734
g12
VNN
p735
sbag0
(g1
g2
(lp736
V's
p737
atp738
Rp739
(dp740
g12
VPOS
p741
sbatp742
Rp743
(dp744
g12
VNP
p745
sbag0
(g1
g2
(lp746
g0
(g1
g2
(lp747
Vfalling
p748
atp749
Rp750
(dp751
g12
VVBG
p752
sbatp753
Rp754
(dp755
g12
VVP
p756
sbatp757
Rp758
(dp759
g12
VS
p760
sbag0
(g1
g2
(lp761
g0
(g1
g2
(lp762
V,
p763
atp764
Rp765
(dp766
g12
V,
p767
sbag0
(g1
g2
(lp768
g0
(g1
g2
(lp769
g0
(g1
g2
(lp770
Vhe
p771
atp772
Rp773
(dp774
g12
VPRP
p775
sbatp776
Rp777
(dp778
g12
VNP
p779
sbag0
(g1
g2
(lp780
g0
(g1
g2
(lp781
Vcould
p782
atp783
Rp784
(dp785
g12
VMD
p786
sbag0
(g1
g2
(lp787
g0
(g1
g2
(lp788
Vhurt
p789
atp790
Rp791
(dp792
g12
VVB
p793
sbag0
(g1
g2
(lp794
g0
(g1
g2
(lp795
Vhimself
p796
atp797
Rp798
(dp799
g12
VPRP
p800
sbatp801
Rp802
(dp803
g12
VNP
p804
sbatp805
Rp806
(dp807
g12
VVP
p808
sbatp809
Rp810
(dp811
g12
VVP
p812
sbatp813
Rp814
(dp815
g12
VS
p816
sbag0
(g1
g2
(lp817
V,
p818
atp819
Rp820
(dp821
g12
V,
p822
sbatp823
Rp824
(dp825
g12
VPRN
p826
sbag0
(g1
g2
(lp827
Vand
p828
atp829
Rp830
(dp831
g12
VCC
p832
sbag0
(g1
g2
(lp833
g0
(g1
g2
(lp834
g0
(g1
g2
(lp835
g0
(g1
g2
(lp836
Vthe
p837
atp838
Rp839
(dp840
g12
VDT
p841
sbag0
(g1
g2
(lp842
Vsister
p843
atp844
Rp845
(dp846
g12
VNN
p847
sbatp848
Rp849
(dp850
g12
VNP
p851
sbag0
(g1
g2
(lp852
g0
(g1
g2
(lp853
Vhe
p854
atp855
Rp856
(dp857
g12
VPRP
p858
sbatp859
Rp860
(dp861
g12
VNP
p862
sbatp863
Rp864
(dp865
g12
VNP
p866
sbag0
(g1
g2
(lp867
g0
(g1
g2
(lp868
Vwant
p869
atp870
Rp871
(dp872
g12
VVBP
p873
sbag0
(g1
g2
(lp874
g0
(g1
g2
(lp875
Vmore
p876
atp877
Rp878
(dp879
g12
VRBR
p880
sbatp881
Rp882
(dp883
g12
VADVP
p884
sbatp885
Rp886
(dp887
g12
VVP
p888
sbatp889
Rp890
(dp891
g12
VS
p892
sbag0
(g1
g2
(lp893
V.
p894
atp895
Rp896
(dp897
g12
V.
p898
sbatp899
Rp900
(dp901
g12
VS
p902
sbatp903
Rp904
(dp905
g12
S'id: 5'
p906
sbag0
(g1
g2
(lp907
g0
(g1
g2
(lp908
g0
(g1
g2
(lp909
VSo
p910
atp911
Rp912
(dp913
g12
VRB
p914
sbag0
(g1
g2
(lp915
g0
(g1
g2
(lp916
g0
(g1
g2
(lp917
g0
(g1
g2
(lp918
Vthere
p919
atp920
Rp921
(dp922
g12
VEX
p923
sbatp924
Rp925
(dp926
g12
VNP
p927
sbag0
(g1
g2
(lp928
g0
(g1
g2
(lp929
V's
p930
atp931
Rp932
(dp933
g12
VVBZ
p934
sbag0
(g1
g2
(lp935
g0
(g1
g2
(lp936
Vwater
p937
atp938
Rp939
(dp940
g12
VNN
p941
sbatp942
Rp943
(dp944
g12
VNP
p945
sbag0
(g1
g2
(lp946
g0
(g1
g2
(lp947
Vhere
p948
atp949
Rp950
(dp951
g12
VRB
p952
sbatp953
Rp954
(dp955
g12
VADVP
p956
sbatp957
Rp958
(dp959
g12
VVP
p960
sbatp961
Rp962
(dp963
g12
VS
p964
sbag0
(g1
g2
(lp965
V,
p966
atp967
Rp968
(dp969
g12
V,
p970
sbatp971
Rp972
(dp973
g12
VPRN
p974
sbag0
(g1
g2
(lp975
g0
(g1
g2
(lp976
Vfall
p977
atp978
Rp979
(dp980
g12
VVB
p981
sbag0
(g1
g2
(lp982
g0
(g1
g2
(lp983
Vdown
p984
atp985
Rp986
(dp987
g12
VRB
p988
sbatp989
Rp990
(dp991
g12
VADVP
p992
sbag0
(g1
g2
(lp993
V,
p994
atp995
Rp996
(dp997
g12
V,
p998
sbag0
(g1
g2
(lp999
g0
(g1
g2
(lp1000
g0
(g1
g2
(lp1001
g0
(g1
g2
(lp1002
g0
(g1
g2
(lp1003
Vhe
p1004
atp1005
Rp1006
(dp1007
g12
VPRP
p1008
sbatp1009
Rp1010
(dp1011
g12
VNP
p1012
sbag0
(g1
g2
(lp1013
g0
(g1
g2
(lp1014
Vfall
p1015
atp1016
Rp1017
(dp1018
g12
VVB
p1019
sbag0
(g1
g2
(lp1020
g0
(g1
g2
(lp1021
Vdown
p1022
atp1023
Rp1024
(dp1025
g12
VRP
p1026
sbatp1027
Rp1028
(dp1029
g12
VPRT
p1030
sbag0
(g1
g2
(lp1031
g0
(g1
g2
(lp1032
g0
(g1
g2
(lp1033
Vhurt
p1034
atp1035
Rp1036
(dp1037
g12
VNN
p1038
sbag0
(g1
g2
(lp1039
g0
(g1
g2
(lp1040
g0
(g1
g2
(lp1041
g0
(g1
g2
(lp1042
Vhimself
p1043
atp1044
Rp1045
(dp1046
g12
VPRP
p1047
sbatp1048
Rp1049
(dp1050
g12
VNP
p1051
sbag0
(g1
g2
(lp1052
g0
(g1
g2
(lp1053
V,
p1054
atp1055
Rp1056
(dp1057
g12
V,
p1058
sbag0
(g1
g2
(lp1059
g0
(g1
g2
(lp1060
g0
(g1
g2
(lp1061
Vhe
p1062
atp1063
Rp1064
(dp1065
g12
VPRP
p1066
sbatp1067
Rp1068
(dp1069
g12
VNP
p1070
sbag0
(g1
g2
(lp1071
g0
(g1
g2
(lp1072
g0
(g1
g2
(lp1073
Vjust
p1074
atp1075
Rp1076
(dp1077
g12
VRB
p1078
sbatp1079
Rp1080
(dp1081
g12
VADVP
p1082
sbag0
(g1
g2
(lp1083
Vwant
p1084
atp1085
Rp1086
(dp1087
g12
VVBP
p1088
sbag0
(g1
g2
(lp1089
g0
(g1
g2
(lp1090
Vthe
p1091
atp1092
Rp1093
(dp1094
g12
VDT
p1095
sbag0
(g1
g2
(lp1096
Vcooker
p1097
atp1098
Rp1099
(dp1100
g12
VNN
p1101
sbatp1102
Rp1103
(dp1104
g12
VNP
p1105
sbatp1106
Rp1107
(dp1108
g12
VVP
p1109
sbatp1110
Rp1111
(dp1112
g12
VS
p1113
sbag0
(g1
g2
(lp1114
V,
p1115
atp1116
Rp1117
(dp1118
g12
V,
p1119
sbatp1120
Rp1121
(dp1122
g12
VPRN
p1123
sbag0
(g1
g2
(lp1124
g0
(g1
g2
(lp1125
Vthat
p1126
atp1127
Rp1128
(dp1129
g12
VDT
p1130
sbatp1131
Rp1132
(dp1133
g12
VNP
p1134
sbag0
(g1
g2
(lp1135
g0
(g1
g2
(lp1136
V's
p1137
atp1138
Rp1139
(dp1140
g12
VVBZ
p1141
sbag0
(g1
g2
(lp1142
g0
(g1
g2
(lp1143
Vit
p1144
atp1145
Rp1146
(dp1147
g12
VPRP
p1148
sbatp1149
Rp1150
(dp1151
g12
VNP
p1152
sbatp1153
Rp1154
(dp1155
g12
VVP
p1156
sbatp1157
Rp1158
(dp1159
g12
VS
p1160
sbatp1161
Rp1162
(dp1163
g12
VSBAR
p1164
sbatp1165
Rp1166
(dp1167
g12
VVP
p1168
sbatp1169
Rp1170
(dp1171
g12
VS
p1172
sbatp1173
Rp1174
(dp1175
g12
VVP
p1176
sbatp1177
Rp1178
(dp1179
g12
VS
p1180
sbatp1181
Rp1182
(dp1183
g12
VSBAR
p1184
sbag0
(g1
g2
(lp1185
V,
p1186
atp1187
Rp1188
(dp1189
g12
V,
p1190
sbag0
(g1
g2
(lp1191
VAnd
p1192
atp1193
Rp1194
(dp1195
g12
VCC
p1196
sbag0
(g1
g2
(lp1197
g0
(g1
g2
(lp1198
g0
(g1
g2
(lp1199
Vthen
p1200
atp1201
Rp1202
(dp1203
g12
VRB
p1204
sbatp1205
Rp1206
(dp1207
g12
VADVP
p1208
sbag0
(g1
g2
(lp1209
Vthat
p1210
atp1211
Rp1212
(dp1213
g12
VIN
p1214
sbag0
(g1
g2
(lp1215
g0
(g1
g2
(lp1216
g0
(g1
g2
(lp1217
g0
(g1
g2
(lp1218
Vkid
p1219
atp1220
Rp1221
(dp1222
g12
VNN
p1223
sbatp1224
Rp1225
(dp1226
g12
VNP
p1227
sbag0
(g1
g2
(lp1228
g0
(g1
g2
(lp1229
V,
p1230
atp1231
Rp1232
(dp1233
g12
V,
p1234
sbag0
(g1
g2
(lp1235
g0
(g1
g2
(lp1236
Vand
p1237
atp1238
Rp1239
(dp1240
g12
VCC
p1241
sbag0
(g1
g2
(lp1242
g0
(g1
g2
(lp1243
Vshe
p1244
atp1245
Rp1246
(dp1247
g12
VPRP
p1248
sbatp1249
Rp1250
(dp1251
g12
VNP
p1252
sbag0
(g1
g2
(lp1253
g0
(g1
g2
(lp1254
V's
p1255
atp1256
Rp1257
(dp1258
g12
VVBZ
p1259
sbag0
(g1
g2
(lp1260
g0
(g1
g2
(lp1261
Voutside
p1262
atp1263
Rp1264
(dp1265
g12
VIN
p1266
sbag0
(g1
g2
(lp1267
Vthe
p1268
atp1269
Rp1270
(dp1271
g12
VDT
p1272
sbatp1273
Rp1274
(dp1275
g12
VADVP
p1276
sbag0
(g1
g2
(lp1277
g0
(g1
g2
(lp1278
Vlooking
p1279
atp1280
Rp1281
(dp1282
g12
VVBG
p1283
sbag0
(g1
g2
(lp1284
g0
(g1
g2
(lp1285
Varound
p1286
atp1287
Rp1288
(dp1289
g12
VRB
p1290
sbatp1291
Rp1292
(dp1293
g12
VADVP
p1294
sbag0
(g1
g2
(lp1295
V,
p1296
atp1297
Rp1298
(dp1299
g12
V,
p1300
sbag0
(g1
g2
(lp1301
g0
(g1
g2
(lp1302
g0
(g1
g2
(lp1303
Vnice
p1304
atp1305
Rp1306
(dp1307
g12
VJJ
p1308
sbatp1309
Rp1310
(dp1311
g12
VADJP
p1312
sbag0
(g1
g2
(lp1313
g0
(g1
g2
(lp1314
Vout
p1315
atp1316
Rp1317
(dp1318
g12
VIN
p1319
sbag0
(g1
g2
(lp1320
g0
(g1
g2
(lp1321
Vthere
p1322
atp1323
Rp1324
(dp1325
g12
VRB
p1326
sbatp1327
Rp1328
(dp1329
g12
VADVP
p1330
sbatp1331
Rp1332
(dp1333
g12
VADJP
p1334
sbatp1335
Rp1336
(dp1337
g12
VFRAG
p1338
sbatp1339
Rp1340
(dp1341
g12
VVP
p1342
sbatp1343
Rp1344
(dp1345
g12
VVP
p1346
sbatp1347
Rp1348
(dp1349
g12
VS
p1350
sbag0
(g1
g2
(lp1351
V,
p1352
atp1353
Rp1354
(dp1355
g12
V,
p1356
sbatp1357
Rp1358
(dp1359
g12
VPRN
p1360
sbatp1361
Rp1362
(dp1363
g12
VNP
p1364
sbag0
(g1
g2
(lp1365
g0
(g1
g2
(lp1366
Vmake
p1367
atp1368
Rp1369
(dp1370
g12
VVBP
p1371
sbag0
(g1
g2
(lp1372
g0
(g1
g2
(lp1373
g0
(g1
g2
(lp1374
Va
p1375
atp1376
Rp1377
(dp1378
g12
VDT
p1379
sbag0
(g1
g2
(lp1380
Vmess
p1381
atp1382
Rp1383
(dp1384
g12
VNN
p1385
sbatp1386
Rp1387
(dp1388
g12
VNP
p1389
sbag0
(g1
g2
(lp1390
g0
(g1
g2
(lp1391
Vof
p1392
atp1393
Rp1394
(dp1395
g12
VIN
p1396
sbag0
(g1
g2
(lp1397
g0
(g1
g2
(lp1398
g0
(g1
g2
(lp1399
Veverything
p1400
atp1401
Rp1402
(dp1403
g12
VNN
p1404
sbatp1405
Rp1406
(dp1407
g12
VNP
p1408
sbag0
(g1
g2
(lp1409
V,
p1410
atp1411
Rp1412
(dp1413
g12
V,
p1414
sbag0
(g1
g2
(lp1415
g0
(g1
g2
(lp1416
Vmess
p1417
atp1418
Rp1419
(dp1420
g12
VNN
p1421
sbatp1422
Rp1423
(dp1424
g12
VNP
p1425
sbatp1426
Rp1427
(dp1428
g12
VNP
p1429
sbatp1430
Rp1431
(dp1432
g12
VPP
p1433
sbatp1434
Rp1435
(dp1436
g12
VNP
p1437
sbag0
(g1
g2
(lp1438
g0
(g1
g2
(lp1439
Vup
p1440
atp1441
Rp1442
(dp1443
g12
VIN
p1444
sbag0
(g1
g2
(lp1445
g0
(g1
g2
(lp1446
Vthe
p1447
atp1448
Rp1449
(dp1450
g12
VDT
p1451
sbag0
(g1
g2
(lp1452
Vplaces
p1453
atp1454
Rp1455
(dp1456
g12
VNNS
p1457
sbatp1458
Rp1459
(dp1460
g12
VNP
p1461
sbatp1462
Rp1463
(dp1464
g12
VPP
p1465
sbatp1466
Rp1467
(dp1468
g12
VVP
p1469
sbatp1470
Rp1471
(dp1472
g12
VS
p1473
sbatp1474
Rp1475
(dp1476
g12
VSBAR
p1477
sbatp1478
Rp1479
(dp1480
g12
VSBAR
p1481
sbatp1482
Rp1483
(dp1484
g12
VVP
p1485
sbag0
(g1
g2
(lp1486
V.
p1487
atp1488
Rp1489
(dp1490
g12
V.
p1491
sbatp1492
Rp1493
(dp1494
g12
VS
p1495
sbatp1496
Rp1497
(dp1498
g12
S'id: 6'
p1499
sbag0
(g1
g2
(lp1500
g0
(g1
g2
(lp1501
g0
(g1
g2
(lp1502
g0
(g1
g2
(lp1503
VHe
p1504
atp1505
Rp1506
(dp1507
g12
VPRP
p1508
sbatp1509
Rp1510
(dp1511
g12
VNP
p1512
sbag0
(g1
g2
(lp1513
g0
(g1
g2
(lp1514
g0
(g1
g2
(lp1515
V's
p1516
atp1517
Rp1518
(dp1519
g12
VVBZ
p1520
sbag0
(g1
g2
(lp1521
g0
(g1
g2
(lp1522
Vfooling
p1523
atp1524
Rp1525
(dp1526
g12
VVBG
p1527
sbag0
(g1
g2
(lp1528
g0
(g1
g2
(lp1529
Vthe
p1530
atp1531
Rp1532
(dp1533
g12
VDT
p1534
sbag0
(g1
g2
(lp1535
Vants
p1536
atp1537
Rp1538
(dp1539
g12
VNNS
p1540
sbatp1541
Rp1542
(dp1543
g12
VNP
p1544
sbatp1545
Rp1546
(dp1547
g12
VVP
p1548
sbatp1549
Rp1550
(dp1551
g12
VVP
p1552
sbag0
(g1
g2
(lp1553
Vand
p1554
atp1555
Rp1556
(dp1557
g12
VCC
p1558
sbag0
(g1
g2
(lp1559
g0
(g1
g2
(lp1560
g0
(g1
g2
(lp1561
Vthen
p1562
atp1563
Rp1564
(dp1565
g12
VRB
p1566
sbatp1567
Rp1568
(dp1569
g12
VADVP
p1570
sbag0
(g1
g2
(lp1571
Vhurt
p1572
atp1573
Rp1574
(dp1575
g12
VVBD
p1576
sbag0
(g1
g2
(lp1577
g0
(g1
g2
(lp1578
Vhimself
p1579
atp1580
Rp1581
(dp1582
g12
VPRP
p1583
sbatp1584
Rp1585
(dp1586
g12
VNP
p1587
sbatp1588
Rp1589
(dp1590
g12
VVP
p1591
sbatp1592
Rp1593
(dp1594
g12
VVP
p1595
sbag0
(g1
g2
(lp1596
V.
p1597
atp1598
Rp1599
(dp1600
g12
V.
p1601
sbatp1602
Rp1603
(dp1604
g12
VS
p1605
sbatp1606
Rp1607
(dp1608
g12
S'id: 7'
p1609
sbag0
(g1
g2
(lp1610
g0
(g1
g2
(lp1611
g0
(g1
g2
(lp1612
g0
(g1
g2
(lp1613
VHe
p1614
atp1615
Rp1616
(dp1617
g12
VPRP
p1618
sbatp1619
Rp1620
(dp1621
g12
VNP
p1622
sbag0
(g1
g2
(lp1623
g0
(g1
g2
(lp1624
V's
p1625
atp1626
Rp1627
(dp1628
g12
VVBZ
p1629
sbag0
(g1
g2
(lp1630
g0
(g1
g2
(lp1631
Vgot
p1632
atp1633
Rp1634
(dp1635
g12
VVBN
p1636
sbag0
(g1
g2
(lp1637
g0
(g1
g2
(lp1638
g0
(g1
g2
(lp1639
Vthing
p1640
atp1641
Rp1642
(dp1643
g12
VNN
p1644
sbatp1645
Rp1646
(dp1647
g12
VNP
p1648
sbag0
(g1
g2
(lp1649
V,
p1650
atp1651
Rp1652
(dp1653
g12
V,
p1654
sbag0
(g1
g2
(lp1655
g0
(g1
g2
(lp1656
Vfall
p1657
atp1658
Rp1659
(dp1660
g12
VVB
p1661
sbag0
(g1
g2
(lp1662
g0
(g1
g2
(lp1663
Vdown
p1664
atp1665
Rp1666
(dp1667
g12
VRB
p1668
sbatp1669
Rp1670
(dp1671
g12
VADVP
p1672
sbag0
(g1
g2
(lp1673
g0
(g1
g2
(lp1674
V,
p1675
atp1676
Rp1677
(dp1678
g12
V,
p1679
sbag0
(g1
g2
(lp1680
g0
(g1
g2
(lp1681
g0
(g1
g2
(lp1682
Vhe
p1683
atp1684
Rp1685
(dp1686
g12
VPRP
p1687
sbatp1688
Rp1689
(dp1690
g12
VNP
p1691
sbag0
(g1
g2
(lp1692
g0
(g1
g2
(lp1693
Vtried
p1694
atp1695
Rp1696
(dp1697
g12
VVBD
p1698
sbag0
(g1
g2
(lp1699
g0
(g1
g2
(lp1700
Vthat
p1701
atp1702
Rp1703
(dp1704
g12
VIN
p1705
sbag0
(g1
g2
(lp1706
g0
(g1
g2
(lp1707
Vkid
p1708
atp1709
Rp1710
(dp1711
g12
VNN
p1712
sbag0
(g1
g2
(lp1713
V's
p1714
atp1715
Rp1716
(dp1717
g12
VPOS
p1718
sbatp1719
Rp1720
(dp1721
g12
VNP
p1722
sbatp1723
Rp1724
(dp1725
g12
VPP
p1726
sbatp1727
Rp1728
(dp1729
g12
VVP
p1730
sbatp1731
Rp1732
(dp1733
g12
VS
p1734
sbag0
(g1
g2
(lp1735
V,
p1736
atp1737
Rp1738
(dp1739
g12
V,
p1740
sbatp1741
Rp1742
(dp1743
g12
VPRN
p1744
sbag0
(g1
g2
(lp1745
g0
(g1
g2
(lp1746
Vthat
p1747
atp1748
Rp1749
(dp1750
g12
VIN
p1751
sbag0
(g1
g2
(lp1752
g0
(g1
g2
(lp1753
g0
(g1
g2
(lp1754
Vto
p1755
atp1756
Rp1757
(dp1758
g12
VTO
p1759
sbag0
(g1
g2
(lp1760
g0
(g1
g2
(lp1761
g0
(g1
g2
(lp1762
Vthat
p1763
atp1764
Rp1765
(dp1766
g12
VDT
p1767
sbag0
(g1
g2
(lp1768
Vyoung
p1769
atp1770
Rp1771
(dp1772
g12
VJJ
p1773
sbag0
(g1
g2
(lp1774
Vboy
p1775
atp1776
Rp1777
(dp1778
g12
VNN
p1779
sbatp1780
Rp1781
(dp1782
g12
VNP
p1783
sbag0
(g1
g2
(lp1784
V,
p1785
atp1786
Rp1787
(dp1788
g12
V,
p1789
sbag0
(g1
g2
(lp1790
g0
(g1
g2
(lp1791
g0
(g1
g2
(lp1792
Vgirl
p1793
atp1794
Rp1795
(dp1796
g12
VNN
p1797
sbatp1798
Rp1799
(dp1800
g12
VNP
p1801
sbag0
(g1
g2
(lp1802
V,
p1803
atp1804
Rp1805
(dp1806
g12
V,
p1807
sbag0
(g1
g2
(lp1808
g0
(g1
g2
(lp1809
Vthe
p1810
atp1811
Rp1812
(dp1813
g12
VDT
p1814
sbag0
(g1
g2
(lp1815
Vkid
p1816
atp1817
Rp1818
(dp1819
g12
VNN
p1820
sbatp1821
Rp1822
(dp1823
g12
VNP
p1824
sbatp1825
Rp1826
(dp1827
g12
VNP
p1828
sbatp1829
Rp1830
(dp1831
g12
VNP
p1832
sbatp1833
Rp1834
(dp1835
g12
VPP
p1836
sbag0
(g1
g2
(lp1837
V,
p1838
atp1839
Rp1840
(dp1841
g12
V,
p1842
sbag0
(g1
g2
(lp1843
g0
(g1
g2
(lp1844
g0
(g1
g2
(lp1845
Vthat
p1846
atp1847
Rp1848
(dp1849
g12
VWDT
p1850
sbatp1851
Rp1852
(dp1853
g12
VWHNP
p1854
sbag0
(g1
g2
(lp1855
g0
(g1
g2
(lp1856
g0
(g1
g2
(lp1857
Vsister
p1858
atp1859
Rp1860
(dp1861
g12
VNN
p1862
sbatp1863
Rp1864
(dp1865
g12
VNP
p1866
sbatp1867
Rp1868
(dp1869
g12
VFRAG
p1870
sbatp1871
Rp1872
(dp1873
g12
VSBAR
p1874
sbag0
(g1
g2
(lp1875
V,
p1876
atp1877
Rp1878
(dp1879
g12
V,
p1880
sbag0
(g1
g2
(lp1881
g0
(g1
g2
(lp1882
Vhe
p1883
atp1884
Rp1885
(dp1886
g12
VPRP
p1887
sbatp1888
Rp1889
(dp1890
g12
VNP
p1891
sbag0
(g1
g2
(lp1892
g0
(g1
g2
(lp1893
Vwants
p1894
atp1895
Rp1896
(dp1897
g12
VVBZ
p1898
sbag0
(g1
g2
(lp1899
g0
(g1
g2
(lp1900
Vthe
p1901
atp1902
Rp1903
(dp1904
g12
VDT
p1905
sbag0
(g1
g2
(lp1906
Vcook
p1907
atp1908
Rp1909
(dp1910
g12
VNN
p1911
sbatp1912
Rp1913
(dp1914
g12
VNP
p1915
sbag0
(g1
g2
(lp1916
g0
(g1
g2
(lp1917
Vfrom
p1918
atp1919
Rp1920
(dp1921
g12
VIN
p1922
sbag0
(g1
g2
(lp1923
g0
(g1
g2
(lp1924
Vher
p1925
atp1926
Rp1927
(dp1928
g12
VPRP
p1929
sbatp1930
Rp1931
(dp1932
g12
VNP
p1933
sbatp1934
Rp1935
(dp1936
g12
VPP
p1937
sbatp1938
Rp1939
(dp1940
g12
VVP
p1941
sbatp1942
Rp1943
(dp1944
g12
VS
p1945
sbatp1946
Rp1947
(dp1948
g12
VSBAR
p1949
sbatp1950
Rp1951
(dp1952
g12
VVP
p1953
sbag0
(g1
g2
(lp1954
V,
p1955
atp1956
Rp1957
(dp1958
g12
V,
p1959
sbag0
(g1
g2
(lp1960
g0
(g1
g2
(lp1961
g0
(g1
g2
(lp1962
Vthat
p1963
atp1964
Rp1965
(dp1966
g12
VDT
p1967
sbatp1968
Rp1969
(dp1970
g12
VWHNP
p1971
sbag0
(g1
g2
(lp1972
g0
(g1
g2
(lp1973
g0
(g1
g2
(lp1974
V's
p1975
atp1976
Rp1977
(dp1978
g12
VVBZ
p1979
sbag0
(g1
g2
(lp1980
g0
(g1
g2
(lp1981
g0
(g1
g2
(lp1982
Vwhat
p1983
atp1984
Rp1985
(dp1986
g12
VWP
p1987
sbatp1988
Rp1989
(dp1990
g12
VWHNP
p1991
sbag0
(g1
g2
(lp1992
g0
(g1
g2
(lp1993
g0
(g1
g2
(lp1994
Vhe
p1995
atp1996
Rp1997
(dp1998
g12
VPRP
p1999
sbatp2000
Rp2001
(dp2002
g12
VNP
p2003
sbag0
(g1
g2
(lp2004
g0
(g1
g2
(lp2005
Vwants
p2006
atp2007
Rp2008
(dp2009
g12
VVBZ
p2010
sbatp2011
Rp2012
(dp2013
g12
VVP
p2014
sbatp2015
Rp2016
(dp2017
g12
VS
p2018
sbatp2019
Rp2020
(dp2021
g12
VSBAR
p2022
sbatp2023
Rp2024
(dp2025
g12
VVP
p2026
sbatp2027
Rp2028
(dp2029
g12
VS
p2030
sbatp2031
Rp2032
(dp2033
g12
VSBAR
p2034
sbatp2035
Rp2036
(dp2037
g12
VNP
p2038
sbatp2039
Rp2040
(dp2041
g12
VVP
p2042
sbatp2043
Rp2044
(dp2045
g12
VVP
p2046
sbag0
(g1
g2
(lp2047
V.
p2048
atp2049
Rp2050
(dp2051
g12
V.
p2052
sbatp2053
Rp2054
(dp2055
g12
VS
p2056
sbatp2057
Rp2058
(dp2059
g12
S'id: 8'
p2060
sbag0
(g1
g2
(lp2061
g0
(g1
g2
(lp2062
g0
(g1
g2
(lp2063
g0
(g1
g2
(lp2064
VNot
p2065
atp2066
Rp2067
(dp2068
g12
VRB
p2069
sbag0
(g1
g2
(lp2070
Vmuch
p2071
atp2072
Rp2073
(dp2074
g12
VJJ
p2075
sbatp2076
Rp2077
(dp2078
g12
VNP
p2079
sbag0
(g1
g2
(lp2080
g0
(g1
g2
(lp2081
Vgoing
p2082
atp2083
Rp2084
(dp2085
g12
VVBG
p2086
sbag0
(g1
g2
(lp2087
g0
(g1
g2
(lp2088
Vout
p2089
atp2090
Rp2091
(dp2092
g12
VRB
p2093
sbatp2094
Rp2095
(dp2096
g12
VADVP
p2097
sbag0
(g1
g2
(lp2098
V,
p2099
atp2100
Rp2101
(dp2102
g12
V,
p2103
sbag0
(g1
g2
(lp2104
g0
(g1
g2
(lp2105
Voutside
p2106
atp2107
Rp2108
(dp2109
g12
VIN
p2110
sbag0
(g1
g2
(lp2111
g0
(g1
g2
(lp2112
Vthe
p2113
atp2114
Rp2115
(dp2116
g12
VDT
p2117
sbag0
(g1
g2
(lp2118
Vhouse
p2119
atp2120
Rp2121
(dp2122
g12
VNN
p2123
sbag0
(g1
g2
(lp2124
Vside
p2125
atp2126
Rp2127
(dp2128
g12
VNN
p2129
sbatp2130
Rp2131
(dp2132
g12
VNP
p2133
sbatp2134
Rp2135
(dp2136
g12
VPP
p2137
sbatp2138
Rp2139
(dp2140
g12
VVP
p2141
sbag0
(g1
g2
(lp2142
V.
p2143
atp2144
Rp2145
(dp2146
g12
V.
p2147
sbatp2148
Rp2149
(dp2150
g12
VNP
p2151
sbatp2152
Rp2153
(dp2154
g12
S'id: 9'
p2155
sbag0
(g1
g2
(lp2156
g0
(g1
g2
(lp2157
g0
(g1
g2
(lp2158
g0
(g1
g2
(lp2159
g0
(g1
g2
(lp2160
VThings
p2161
atp2162
Rp2163
(dp2164
g12
VNNS
p2165
sbatp2166
Rp2167
(dp2168
g12
VNP
p2169
sbag0
(g1
g2
(lp2170
g0
(g1
g2
(lp2171
Vfall
p2172
atp2173
Rp2174
(dp2175
g12
VVBP
p2176
sbag0
(g1
g2
(lp2177
g0
(g1
g2
(lp2178
Vdown
p2179
atp2180
Rp2181
(dp2182
g12
VRB
p2183
sbatp2184
Rp2185
(dp2186
g12
VADVP
p2187
sbatp2188
Rp2189
(dp2190
g12
VVP
p2191
sbatp2192
Rp2193
(dp2194
g12
VS
p2195
sbag0
(g1
g2
(lp2196
V,
p2197
atp2198
Rp2199
(dp2200
g12
V,
p2201
sbag0
(g1
g2
(lp2202
g0
(g1
g2
(lp2203
Vshe
p2204
atp2205
Rp2206
(dp2207
g12
VPRP
p2208
sbatp2209
Rp2210
(dp2211
g12
VNP
p2212
sbag0
(g1
g2
(lp2213
g0
(g1
g2
(lp2214
Vfalls
p2215
atp2216
Rp2217
(dp2218
g12
VVBZ
p2219
sbag0
(g1
g2
(lp2220
g0
(g1
g2
(lp2221
Vdown
p2222
atp2223
Rp2224
(dp2225
g12
VRB
p2226
sbatp2227
Rp2228
(dp2229
g12
VADVP
p2230
sbag0
(g1
g2
(lp2231
V,
p2232
atp2233
Rp2234
(dp2235
g12
V,
p2236
sbag0
(g1
g2
(lp2237
g0
(g1
g2
(lp2238
g0
(g1
g2
(lp2239
Vwater
p2240
atp2241
Rp2242
(dp2243
g12
VNN
p2244
sbatp2245
Rp2246
(dp2247
g12
VNP
p2248
sbatp2249
Rp2250
(dp2251
g12
VS
p2252
sbag0
(g1
g2
(lp2253
V,
p2254
atp2255
Rp2256
(dp2257
g12
V,
p2258
sbag0
(g1
g2
(lp2259
g0
(g1
g2
(lp2260
g0
(g1
g2
(lp2261
Vshe
p2262
atp2263
Rp2264
(dp2265
g12
VPRP
p2266
sbatp2267
Rp2268
(dp2269
g12
VNP
p2270
sbag0
(g1
g2
(lp2271
g0
(g1
g2
(lp2272
g0
(g1
g2
(lp2273
Vstill
p2274
atp2275
Rp2276
(dp2277
g12
VRB
p2278
sbatp2279
Rp2280
(dp2281
g12
VADVP
p2282
sbag0
(g1
g2
(lp2283
Vcleaning
p2284
atp2285
Rp2286
(dp2287
g12
VVBG
p2288
sbag0
(g1
g2
(lp2289
g0
(g1
g2
(lp2290
Vthis
p2291
atp2292
Rp2293
(dp2294
g12
VDT
p2295
sbatp2296
Rp2297
(dp2298
g12
VNP
p2299
sbatp2300
Rp2301
(dp2302
g12
VVP
p2303
sbatp2304
Rp2305
(dp2306
g12
VS
p2307
sbatp2308
Rp2309
(dp2310
g12
VVP
p2311
sbag0
(g1
g2
(lp2312
V.
p2313
atp2314
Rp2315
(dp2316
g12
V.
p2317
sbatp2318
Rp2319
(dp2320
g12
VS
p2321
sbatp2322
Rp2323
(dp2324
g12
S'id: 10'
p2325
sbag0
(g1
g2
(lp2326
g0
(g1
g2
(lp2327
g0
(g1
g2
(lp2328
g0
(g1
g2
(lp2329
g0
(g1
g2
(lp2330
VThis
p2331
atp2332
Rp2333
(dp2334
g12
VDT
p2335
sbatp2336
Rp2337
(dp2338
g12
VNP
p2339
sbag0
(g1
g2
(lp2340
g0
(g1
g2
(lp2341
Vknocking
p2342
atp2343
Rp2344
(dp2345
g12
VVBG
p2346
sbag0
(g1
g2
(lp2347
g0
(g1
g2
(lp2348
Vdown
p2349
atp2350
Rp2351
(dp2352
g12
VRP
p2353
sbatp2354
Rp2355
(dp2356
g12
VPRT
p2357
sbag0
(g1
g2
(lp2358
g0
(g1
g2
(lp2359
Vthis
p2360
atp2361
Rp2362
(dp2363
g12
VDT
p2364
sbag0
(g1
g2
(lp2365
Vthing
p2366
atp2367
Rp2368
(dp2369
g12
VNN
p2370
sbatp2371
Rp2372
(dp2373
g12
VNP
p2374
sbatp2375
Rp2376
(dp2377
g12
VVP
p2378
sbatp2379
Rp2380
(dp2381
g12
VS
p2382
sbag0
(g1
g2
(lp2383
V,
p2384
atp2385
Rp2386
(dp2387
g12
V,
p2388
sbag0
(g1
g2
(lp2389
g0
(g1
g2
(lp2390
Vgot
p2391
atp2392
Rp2393
(dp2394
g12
VVBD
p2395
sbag0
(g1
g2
(lp2396
g0
(g1
g2
(lp2397
Vhis
p2398
atp2399
Rp2400
(dp2401
g12
VPRP$
p2402
sbag0
(g1
g2
(lp2403
Vhand
p2404
atp2405
Rp2406
(dp2407
g12
VNN
p2408
sbatp2409
Rp2410
(dp2411
g12
VNP
p2412
sbag0
(g1
g2
(lp2413
g0
(g1
g2
(lp2414
g0
(g1
g2
(lp2415
g0
(g1
g2
(lp2416
Vthat
p2417
atp2418
Rp2419
(dp2420
g12
VDT
p2421
sbatp2422
Rp2423
(dp2424
g12
VNP
p2425
sbag0
(g1
g2
(lp2426
g0
(g1
g2
(lp2427
V's
p2428
atp2429
Rp2430
(dp2431
g12
VVBZ
p2432
sbag0
(g1
g2
(lp2433
g0
(g1
g2
(lp2434
Vgon
p2435
atp2436
Rp2437
(dp2438
g12
VVBG
p2439
sbag0
(g1
g2
(lp2440
g0
(g1
g2
(lp2441
g0
(g1
g2
(lp2442
Vna
p2443
atp2444
Rp2445
(dp2446
g12
VTO
p2447
sbag0
(g1
g2
(lp2448
g0
(g1
g2
(lp2449
Vfall
p2450
atp2451
Rp2452
(dp2453
g12
VVB
p2454
sbag0
(g1
g2
(lp2455
g0
(g1
g2
(lp2456
Vby
p2457
atp2458
Rp2459
(dp2460
g12
VIN
p2461
sbag0
(g1
g2
(lp2462
g0
(g1
g2
(lp2463
Vthe
p2464
atp2465
Rp2466
(dp2467
g12
VDT
p2468
sbag0
(g1
g2
(lp2469
Vfall
p2470
atp2471
Rp2472
(dp2473
g12
VNN
p2474
sbatp2475
Rp2476
(dp2477
g12
VNP
p2478
sbatp2479
Rp2480
(dp2481
g12
VPP
p2482
sbatp2483
Rp2484
(dp2485
g12
VVP
p2486
sbatp2487
Rp2488
(dp2489
g12
VVP
p2490
sbatp2491
Rp2492
(dp2493
g12
VS
p2494
sbatp2495
Rp2496
(dp2497
g12
VVP
p2498
sbatp2499
Rp2500
(dp2501
g12
VVP
p2502
sbatp2503
Rp2504
(dp2505
g12
VS
p2506
sbatp2507
Rp2508
(dp2509
g12
VSBAR
p2510
sbatp2511
Rp2512
(dp2513
g12
VVP
p2514
sbag0
(g1
g2
(lp2515
g0
(g1
g2
(lp2516
Vitself
p2517
atp2518
Rp2519
(dp2520
g12
VPRP
p2521
sbatp2522
Rp2523
(dp2524
g12
VNP
p2525
sbag0
(g1
g2
(lp2526
V.
p2527
atp2528
Rp2529
(dp2530
g12
V.
p2531
sbatp2532
Rp2533
(dp2534
g12
VSINV
p2535
sbatp2536
Rp2537
(dp2538
g12
S'id: 11'
p2539
sbag0
(g1
g2
(lp2540
g0
(g1
g2
(lp2541
g0
(g1
g2
(lp2542
g0
(g1
g2
(lp2543
g0
(g1
g2
(lp2544
VShe
p2545
atp2546
Rp2547
(dp2548
g12
VPRP
p2549
sbatp2550
Rp2551
(dp2552
g12
VNP
p2553
sbag0
(g1
g2
(lp2554
g0
(g1
g2
(lp2555
V's
p2556
atp2557
Rp2558
(dp2559
g12
VVBZ
p2560
sbag0
(g1
g2
(lp2561
g0
(g1
g2
(lp2562
Vgon
p2563
atp2564
Rp2565
(dp2566
g12
VVBG
p2567
sbag0
(g1
g2
(lp2568
g0
(g1
g2
(lp2569
g0
(g1
g2
(lp2570
Vna
p2571
atp2572
Rp2573
(dp2574
g12
VTO
p2575
sbag0
(g1
g2
(lp2576
g0
(g1
g2
(lp2577
Vget
p2578
atp2579
Rp2580
(dp2581
g12
VVB
p2582
sbag0
(g1
g2
(lp2583
g0
(g1
g2
(lp2584
Vthe
p2585
atp2586
Rp2587
(dp2588
g12
VDT
p2589
sbag0
(g1
g2
(lp2590
Vcookie
p2591
atp2592
Rp2593
(dp2594
g12
VNN
p2595
sbatp2596
Rp2597
(dp2598
g12
VNP
p2599
sbatp2600
Rp2601
(dp2602
g12
VVP
p2603
sbatp2604
Rp2605
(dp2606
g12
VVP
p2607
sbatp2608
Rp2609
(dp2610
g12
VS
p2611
sbatp2612
Rp2613
(dp2614
g12
VVP
p2615
sbatp2616
Rp2617
(dp2618
g12
VVP
p2619
sbatp2620
Rp2621
(dp2622
g12
VS
p2623
sbag0
(g1
g2
(lp2624
V,
p2625
atp2626
Rp2627
(dp2628
g12
V,
p2629
sbag0
(g1
g2
(lp2630
Vand
p2631
atp2632
Rp2633
(dp2634
g12
VCC
p2635
sbag0
(g1
g2
(lp2636
g0
(g1
g2
(lp2637
g0
(g1
g2
(lp2638
Vno
p2639
atp2640
Rp2641
(dp2642
g12
VDT
p2643
sbag0
(g1
g2
(lp2644
Vone
p2645
atp2646
Rp2647
(dp2648
g12
VNN
p2649
sbatp2650
Rp2651
(dp2652
g12
VNP
p2653
sbag0
(g1
g2
(lp2654
g0
(g1
g2
(lp2655
Vseems
p2656
atp2657
Rp2658
(dp2659
g12
VVBZ
p2660
sbag0
(g1
g2
(lp2661
g0
(g1
g2
(lp2662
g0
(g1
g2
(lp2663
Vto
p2664
atp2665
Rp2666
(dp2667
g12
VTO
p2668
sbag0
(g1
g2
(lp2669
g0
(g1
g2
(lp2670
Vcare
p2671
atp2672
Rp2673
(dp2674
g12
VVB
p2675
sbag0
(g1
g2
(lp2676
g0
(g1
g2
(lp2677
Vabout
p2678
atp2679
Rp2680
(dp2681
g12
VIN
p2682
sbag0
(g1
g2
(lp2683
g0
(g1
g2
(lp2684
Vit
p2685
atp2686
Rp2687
(dp2688
g12
VPRP
p2689
sbatp2690
Rp2691
(dp2692
g12
VNP
p2693
sbatp2694
Rp2695
(dp2696
g12
VPP
p2697
sbatp2698
Rp2699
(dp2700
g12
VVP
p2701
sbatp2702
Rp2703
(dp2704
g12
VVP
p2705
sbatp2706
Rp2707
(dp2708
g12
VS
p2709
sbatp2710
Rp2711
(dp2712
g12
VVP
p2713
sbatp2714
Rp2715
(dp2716
g12
VS
p2717
sbag0
(g1
g2
(lp2718
V.
p2719
atp2720
Rp2721
(dp2722
g12
V.
p2723
sbatp2724
Rp2725
(dp2726
g12
VS
p2727
sbatp2728
Rp2729
(dp2730
g12
S'id: 12'
p2731
sbag0
(g1
g2
(lp2732
g0
(g1
g2
(lp2733
g0
(g1
g2
(lp2734
g0
(g1
g2
(lp2735
VDone
p2736
atp2737
Rp2738
(dp2739
g12
VVBN
p2740
sbatp2741
Rp2742
(dp2743
g12
VVP
p2744
sbag0
(g1
g2
(lp2745
V.
p2746
atp2747
Rp2748
(dp2749
g12
V.
p2750
sbatp2751
Rp2752
(dp2753
g12
VS
p2754
sbatp2755
Rp2756
(dp2757
g12
S'id: 13'
p2758
sbag0
(g1
g2
(lp2759
g0
(g1
g2
(lp2760
g0
(g1
g2
(lp2761
g0
(g1
g2
(lp2762
VIs
p2763
atp2764
Rp2765
(dp2766
g12
VVBZ
p2767
sbag0
(g1
g2
(lp2768
g0
(g1
g2
(lp2769
Vthat
p2770
atp2771
Rp2772
(dp2773
g12
VIN
p2774
sbatp2775
Rp2776
(dp2777
g12
VADJP
p2778
sbatp2779
Rp2780
(dp2781
g12
VVP
p2782
sbag0
(g1
g2
(lp2783
g0
(g1
g2
(lp2784
Vit
p2785
atp2786
Rp2787
(dp2788
g12
VPRP
p2789
sbatp2790
Rp2791
(dp2792
g12
VNP
p2793
sbatp2794
Rp2795
(dp2796
g12
VSINV
p2797
sbatp2798
Rp2799
(dp2800
g12
S'id: 14'
p2801
sbatp2802
Rp2803
(dp2804
g12
S'sentences'
p2805
sb.