ccopy_reg
_reconstructor
p0
(cnltk.tree
Tree
p1
c__builtin__
list
p2
(lp3
g0
(g1
g2
(lp4
g0
(g1
g2
(lp5
g0
(g1
g2
(lp6
g0
(g1
g2
(lp7
VI
p8
atp9
Rp10
(dp11
S'_label'
p12
VPRP
p13
sbatp14
Rp15
(dp16
g12
VNP
p17
sbag0
(g1
g2
(lp18
g0
(g1
g2
(lp19
Vknow
p20
atp21
Rp22
(dp23
g12
VVBP
p24
sbag0
(g1
g2
(lp25
g0
(g1
g2
(lp26
Vthat
p27
atp28
Rp29
(dp30
g12
VIN
p31
sbatp32
Rp33
(dp34
g12
VADVP
p35
sbatp36
Rp37
(dp38
g12
VVP
p39
sbag0
(g1
g2
(lp40
V.
p41
atp42
Rp43
(dp44
g12
V.
p45
sbatp46
Rp47
(dp48
g12
VS
p49
sbatp50
Rp51
(dp52
g12
S'id: 0'
p53
sbag0
(g1
g2
(lp54
g0
(g1
g2
(lp55
g0
(g1
g2
(lp56
g0
(g1
g2
(lp57
g0
(g1
g2
(lp58
VRe
p59
atp60
Rp61
(dp62
g12
VNNP
p63
sbatp64
Rp65
(dp66
g12
VNP
p67
sbag0
(g1
g2
(lp68
V,
p69
atp70
Rp71
(dp72
g12
V,
p73
sbag0
(g1
g2
(lp74
g0
(g1
g2
(lp75
Vout
p76
atp77
Rp78
(dp79
g12
VRB
p80
sbatp81
Rp82
(dp83
g12
VADVP
p84
sbatp85
Rp86
(dp87
g12
VNP
p88
sbag0
(g1
g2
(lp89
V,
p90
atp91
Rp92
(dp93
g12
V,
p94
sbag0
(g1
g2
(lp95
g0
(g1
g2
(lp96
g0
(g1
g2
(lp97
Vdar
p98
atp99
Rp100
(dp101
g12
VJJ
p102
sbag0
(g1
g2
(lp103
Vleg
p104
atp105
Rp106
(dp107
g12
VNN
p108
sbatp109
Rp110
(dp111
g12
VNP
p112
sbag0
(g1
g2
(lp113
g0
(g1
g2
(lp114
Von
p115
atp116
Rp117
(dp118
g12
VIN
p119
sbatp120
Rp121
(dp122
g12
VPP
p123
sbatp124
Rp125
(dp126
g12
VNP
p127
sbag0
(g1
g2
(lp128
V.
p129
atp130
Rp131
(dp132
g12
V.
p133
sbatp134
Rp135
(dp136
g12
VNP
p137
sbatp138
Rp139
(dp140
g12
S'id: 1'
p141
sbag0
(g1
g2
(lp142
g0
(g1
g2
(lp143
g0
(g1
g2
(lp144
VWater
p145
atp146
Rp147
(dp148
g12
VNN
p149
sbag0
(g1
g2
(lp150
V.
p151
atp152
Rp153
(dp154
g12
V.
p155
sbatp156
Rp157
(dp158
g12
VNP
p159
sbatp160
Rp161
(dp162
g12
S'id: 2'
p163
sbag0
(g1
g2
(lp164
g0
(g1
g2
(lp165
g0
(g1
g2
(lp166
g0
(g1
g2
(lp167
g0
(g1
g2
(lp168
VJa
p169
atp170
Rp171
(dp172
g12
VNN
p173
sbatp174
Rp175
(dp176
g12
VNP
p177
sbag0
(g1
g2
(lp178
g0
(g1
g2
(lp179
Vdied
p180
atp181
Rp182
(dp183
g12
VVBD
p184
sbatp185
Rp186
(dp187
g12
VVP
p188
sbatp189
Rp190
(dp191
g12
VS
p192
sbag0
(g1
g2
(lp193
V,
p194
atp195
Rp196
(dp197
g12
V,
p198
sbag0
(g1
g2
(lp199
g0
(g1
g2
(lp200
Vja
p201
atp202
Rp203
(dp204
g12
VNN
p205
sbatp206
Rp207
(dp208
g12
VNP
p209
sbag0
(g1
g2
(lp210
g0
(g1
g2
(lp211
Vdied
p212
atp213
Rp214
(dp215
g12
VVBD
p216
sbatp217
Rp218
(dp219
g12
VVP
p220
sbag0
(g1
g2
(lp221
V.
p222
atp223
Rp224
(dp225
g12
V.
p226
sbatp227
Rp228
(dp229
g12
VS
p230
sbatp231
Rp232
(dp233
g12
S'id: 3'
p234
sbag0
(g1
g2
(lp235
g0
(g1
g2
(lp236
g0
(g1
g2
(lp237
VRope
p238
atp239
Rp240
(dp241
g12
VNN
p242
sbag0
(g1
g2
(lp243
V.
p244
atp245
Rp246
(dp247
g12
V.
p248
sbatp249
Rp250
(dp251
g12
VNP
p252
sbatp253
Rp254
(dp255
g12
S'id: 4'
p256
sbag0
(g1
g2
(lp257
g0
(g1
g2
(lp258
g0
(g1
g2
(lp259
VDence
p260
atp261
Rp262
(dp263
g12
VNN
p264
sbag0
(g1
g2
(lp265
V.
p266
atp267
Rp268
(dp269
g12
V.
p270
sbatp271
Rp272
(dp273
g12
VNP
p274
sbatp275
Rp276
(dp277
g12
S'id: 5'
p278
sbag0
(g1
g2
(lp279
g0
(g1
g2
(lp280
g0
(g1
g2
(lp281
VWater
p282
atp283
Rp284
(dp285
g12
VNN
p286
sbag0
(g1
g2
(lp287
V.
p288
atp289
Rp290
(dp291
g12
V.
p292
sbatp293
Rp294
(dp295
g12
VNP
p296
sbatp297
Rp298
(dp299
g12
S'id: 6'
p300
sbag0
(g1
g2
(lp301
g0
(g1
g2
(lp302
g0
(g1
g2
(lp303
VWell
p304
atp305
Rp306
(dp307
g12
VUH
p308
sbag0
(g1
g2
(lp309
V.
p310
atp311
Rp312
(dp313
g12
V.
p314
sbatp315
Rp316
(dp317
g12
VINTJ
p318
sbatp319
Rp320
(dp321
g12
S'id: 7'
p322
sbag0
(g1
g2
(lp323
g0
(g1
g2
(lp324
g0
(g1
g2
(lp325
g0
(g1
g2
(lp326
VTight
p327
atp328
Rp329
(dp330
g12
VJJ
p331
sbatp332
Rp333
(dp334
g12
VNP
p335
sbag0
(g1
g2
(lp336
V,
p337
atp338
Rp339
(dp340
g12
V,
p341
sbag0
(g1
g2
(lp342
g0
(g1
g2
(lp343
Vdo
p344
atp345
Rp346
(dp347
g12
VVBP
p348
sbag0
(g1
g2
(lp349
g0
(g1
g2
(lp350
Vah
p351
atp352
Rp353
(dp354
g12
VRB
p355
sbatp356
Rp357
(dp358
g12
VADVP
p359
sbag0
(g1
g2
(lp360
g0
(g1
g2
(lp361
Vdum
p362
atp363
Rp364
(dp365
g12
VNN
p366
sbatp367
Rp368
(dp369
g12
VNP
p370
sbatp371
Rp372
(dp373
g12
VVP
p374
sbag0
(g1
g2
(lp375
V.
p376
atp377
Rp378
(dp379
g12
V.
p380
sbatp381
Rp382
(dp383
g12
VS
p384
sbatp385
Rp386
(dp387
g12
S'id: 8'
p388
sbag0
(g1
g2
(lp389
g0
(g1
g2
(lp390
g0
(g1
g2
(lp391
VHey
p392
atp393
Rp394
(dp395
g12
VUH
p396
sbag0
(g1
g2
(lp397
V.
p398
atp399
Rp400
(dp401
g12
V.
p402
sbatp403
Rp404
(dp405
g12
VINTJ
p406
sbatp407
Rp408
(dp409
g12
S'id: 9'
p410
sbag0
(g1
g2
(lp411
g0
(g1
g2
(lp412
g0
(g1
g2
(lp413
g0
(g1
g2
(lp414
Vand
p415
atp416
Rp417
(dp418
g12
VCC
p419
sbag0
(g1
g2
(lp420
g0
(g1
g2
(lp421
Vwater
p422
atp423
Rp424
(dp425
g12
VNN
p426
sbatp427
Rp428
(dp429
g12
VNP
p430
sbatp431
Rp432
(dp433
g12
VPP
p434
sbag0
(g1
g2
(lp435
V.
p436
atp437
Rp438
(dp439
g12
V.
p440
sbatp441
Rp442
(dp443
g12
VFRAG
p444
sbatp445
Rp446
(dp447
g12
S'id: 10'
p448
sbag0
(g1
g2
(lp449
g0
(g1
g2
(lp450
g0
(g1
g2
(lp451
g0
(g1
g2
(lp452
VWith
p453
atp454
Rp455
(dp456
g12
VIN
p457
sbag0
(g1
g2
(lp458
g0
(g1
g2
(lp459
Vthe
p460
atp461
Rp462
(dp463
g12
VDT
p464
sbag0
(g1
g2
(lp465
Vdog
p466
atp467
Rp468
(dp469
g12
VNN
p470
sbatp471
Rp472
(dp473
g12
VNP
p474
sbatp475
Rp476
(dp477
g12
VPP
p478
sbag0
(g1
g2
(lp479
V.
p480
atp481
Rp482
(dp483
g12
V.
p484
sbatp485
Rp486
(dp487
g12
VFRAG
p488
sbatp489
Rp490
(dp491
g12
S'id: 11'
p492
sbag0
(g1
g2
(lp493
g0
(g1
g2
(lp494
g0
(g1
g2
(lp495
g0
(g1
g2
(lp496
VWine
p497
atp498
Rp499
(dp500
g12
VNN
p501
sbatp502
Rp503
(dp504
g12
VNP
p505
sbag0
(g1
g2
(lp506
V,
p507
atp508
Rp509
(dp510
g12
V,
p511
sbag0
(g1
g2
(lp512
g0
(g1
g2
(lp513
g0
(g1
g2
(lp514
Vnen
p515
atp516
Rp517
(dp518
g12
VNN
p519
sbatp520
Rp521
(dp522
g12
VNP
p523
sbag0
(g1
g2
(lp524
V,
p525
atp526
Rp527
(dp528
g12
V,
p529
sbag0
(g1
g2
(lp530
g0
(g1
g2
(lp531
Vread
p532
atp533
Rp534
(dp535
g12
VNN
p536
sbatp537
Rp538
(dp539
g12
VNP
p540
sbatp541
Rp542
(dp543
g12
VNP
p544
sbag0
(g1
g2
(lp545
V.
p546
atp547
Rp548
(dp549
g12
V.
p550
sbatp551
Rp552
(dp553
g12
VNP
p554
sbatp555
Rp556
(dp557
g12
S'id: 12'
p558
sbatp559
Rp560
(dp561
g12
S'sentences'
p562
sb.