ccopy_reg
_reconstructor
p0
(cnltk.tree
Tree
p1
c__builtin__
list
p2
(lp3
g0
(g1
g2
(lp4
g0
(g1
g2
(lp5
g0
(g1
g2
(lp6
g0
(g1
g2
(lp7
Vcat
p8
atp9
Rp10
(dp11
S'_label'
p12
VNN
p13
sbag0
(g1
g2
(lp14
Vk
p15
atp16
Rp17
(dp18
g12
VNN
p19
sbag0
(g1
g2
(lp20
Vk
p21
atp22
Rp23
(dp24
g12
VNN
p25
sbatp26
Rp27
(dp28
g12
VNP
p29
sbag0
(g1
g2
(lp30
g0
(g1
g2
(lp31
g0
(g1
g2
(lp32
Vk
p33
atp34
Rp35
(dp36
g12
VNN
p37
sbag0
(g1
g2
(lp38
Vk
p39
atp40
Rp41
(dp42
g12
VNN
p43
sbag0
(g1
g2
(lp44
Vko
p45
atp46
Rp47
(dp48
g12
VNN
p49
sbatp50
Rp51
(dp52
g12
VNP
p53
sbag0
(g1
g2
(lp54
g0
(g1
g2
(lp55
g0
(g1
g2
(lp56
Vko
p57
atp58
Rp59
(dp60
g12
VNN
p61
sbag0
(g1
g2
(lp62
Vko
p63
atp64
Rp65
(dp66
g12
VNN
p67
sbag0
(g1
g2
(lp68
Vcookie
p69
atp70
Rp71
(dp72
g12
VNN
p73
sbag0
(g1
g2
(lp74
Vtan
p75
atp76
Rp77
(dp78
g12
VNN
p79
sbag0
(g1
g2
(lp80
Vcouner
p81
atp82
Rp83
(dp84
g12
VNN
p85
sbatp86
Rp87
(dp88
g12
VNP
p89
sbag0
(g1
g2
(lp90
g0
(g1
g2
(lp91
g0
(g1
g2
(lp92
Vcouner
p93
atp94
Rp95
(dp96
g12
VNN
p97
sbatp98
Rp99
(dp100
g12
VNP
p101
sbag0
(g1
g2
(lp102
Vcounter
p103
atp104
Rp105
(dp106
g12
VRB
p107
sbatp108
Rp109
(dp110
g12
VADVP
p111
sbatp112
Rp113
(dp114
g12
VNP-TMP
p115
sbatp116
Rp117
(dp118
g12
VNP
p119
sbag0
(g1
g2
(lp120
g0
(g1
g2
(lp121
g0
(g1
g2
(lp122
Va.
p123
atp124
Rp125
(dp126
g12
VFW
p127
sbag0
(g1
g2
(lp128
Vla
p129
atp130
Rp131
(dp132
g12
VFW
p133
sbag0
(g1
g2
(lp134
Vl
p135
atp136
Rp137
(dp138
g12
VNN
p139
sbatp140
Rp141
(dp142
g12
VNP
p143
sbag0
(g1
g2
(lp144
g0
(g1
g2
(lp145
Vl
p146
atp147
Rp148
(dp149
g12
VNN
p150
sbatp151
Rp152
(dp153
g12
VNP-TMP
p154
sbatp155
Rp156
(dp157
g12
VNP
p158
sbag0
(g1
g2
(lp159
g0
(g1
g2
(lp160
g0
(g1
g2
(lp161
Vla
p162
atp163
Rp164
(dp165
g12
VNNP
p166
sbag0
(g1
g2
(lp167
Vla
p168
atp169
Rp170
(dp171
g12
VNNP
p172
sbag0
(g1
g2
(lp173
Vla
p174
atp175
Rp176
(dp177
g12
VNNP
p178
sbatp179
Rp180
(dp181
g12
VNP
p182
sbag0
(g1
g2
(lp183
g0
(g1
g2
(lp184
Vriven
p185
atp186
Rp187
(dp188
g12
VJJ
p189
sbag0
(g1
g2
(lp190
Vraladen
p191
atp192
Rp193
(dp194
g12
VNN
p195
sbag0
(g1
g2
(lp196
Vravern
p197
atp198
Rp199
(dp200
g12
VNN
p201
sbatp202
Rp203
(dp204
g12
VNP
p205
sbatp206
Rp207
(dp208
g12
VNP
p209
sbag0
(g1
g2
(lp210
V.
p211
atp212
Rp213
(dp214
g12
V.
p215
sbatp216
Rp217
(dp218
g12
VNP
p219
sbatp220
Rp221
(dp222
g12
S'id: 0'
p223
sbag0
(g1
g2
(lp224
g0
(g1
g2
(lp225
g0
(g1
g2
(lp226
g0
(g1
g2
(lp227
Vwoarse
p228
atp229
Rp230
(dp231
g12
VJJ
p232
sbag0
(g1
g2
(lp233
Vhorse
p234
atp235
Rp236
(dp237
g12
VNN
p238
sbatp239
Rp240
(dp241
g12
VNP
p242
sbag0
(g1
g2
(lp243
g0
(g1
g2
(lp244
Vhorse
p245
atp246
Rp247
(dp248
g12
VNN
p249
sbag0
(g1
g2
(lp250
Vhorse
p251
atp252
Rp253
(dp254
g12
VNN
p255
sbatp256
Rp257
(dp258
g12
VNP
p259
sbag0
(g1
g2
(lp260
V.
p261
atp262
Rp263
(dp264
g12
V.
p265
sbatp266
Rp267
(dp268
g12
VNP
p269
sbatp270
Rp271
(dp272
g12
S'id: 1'
p273
sbag0
(g1
g2
(lp274
g0
(g1
g2
(lp275
g0
(g1
g2
(lp276
g0
(g1
g2
(lp277
g0
(g1
g2
(lp278
Vand
p279
atp280
Rp281
(dp282
g12
VCC
p283
sbag0
(g1
g2
(lp284
g0
(g1
g2
(lp285
g0
(g1
g2
(lp286
Vtilren
p287
atp288
Rp289
(dp290
g12
VJJ
p291
sbag0
(g1
g2
(lp292
Vtilren
p293
atp294
Rp295
(dp296
g12
VNN
p297
sbag0
(g1
g2
(lp298
Vt
p299
atp300
Rp301
(dp302
g12
VNN
p303
sbag0
(g1
g2
(lp304
Vt
p305
atp306
Rp307
(dp308
g12
VNN
p309
sbag0
(g1
g2
(lp310
Vtrilen
p311
atp312
Rp313
(dp314
g12
VNN
p315
sbatp316
Rp317
(dp318
g12
VNP
p319
sbag0
(g1
g2
(lp320
V,
p321
atp322
Rp323
(dp324
g12
V,
p325
sbag0
(g1
g2
(lp326
g0
(g1
g2
(lp327
Vmum
p328
atp329
Rp330
(dp331
g12
VNN
p332
sbag0
(g1
g2
(lp333
Vmum
p334
atp335
Rp336
(dp337
g12
VNN
p338
sbatp339
Rp340
(dp341
g12
VNP
p342
sbag0
(g1
g2
(lp343
V,
p344
atp345
Rp346
(dp347
g12
V,
p348
sbag0
(g1
g2
(lp349
Vand
p350
atp351
Rp352
(dp353
g12
VCC
p354
sbag0
(g1
g2
(lp355
g0
(g1
g2
(lp356
g0
(g1
g2
(lp357
Vdad
p358
atp359
Rp360
(dp361
g12
VNN
p362
sbatp363
Rp364
(dp365
g12
VNP
p366
sbag0
(g1
g2
(lp367
V,
p368
atp369
Rp370
(dp371
g12
V,
p372
sbag0
(g1
g2
(lp373
Vand
p374
atp375
Rp376
(dp377
g12
VCC
p378
sbag0
(g1
g2
(lp379
g0
(g1
g2
(lp380
g0
(g1
g2
(lp381
Vand
p382
atp383
Rp384
(dp385
g12
VCC
p386
sbag0
(g1
g2
(lp387
Vtwo
p388
atp389
Rp390
(dp391
g12
VCD
p392
sbatp393
Rp394
(dp395
g12
VQP
p396
sbatp397
Rp398
(dp399
g12
VNP
p400
sbag0
(g1
g2
(lp401
g0
(g1
g2
(lp402
Vthe
p403
atp404
Rp405
(dp406
g12
VDT
p407
sbatp408
Rp409
(dp410
g12
VX
p411
sbatp412
Rp413
(dp414
g12
VNP
p415
sbatp416
Rp417
(dp418
g12
VNP
p419
sbatp420
Rp421
(dp422
g12
VNP
p423
sbatp424
Rp425
(dp426
g12
VVP
p427
sbag0
(g1
g2
(lp428
V.
p429
atp430
Rp431
(dp432
g12
V.
p433
sbatp434
Rp435
(dp436
g12
VS
p437
sbatp438
Rp439
(dp440
g12
S'id: 2'
p441
sbag0
(g1
g2
(lp442
g0
(g1
g2
(lp443
g0
(g1
g2
(lp444
g0
(g1
g2
(lp445
Vit
p446
atp447
Rp448
(dp449
g12
VPRP
p450
sbatp451
Rp452
(dp453
g12
VNP
p454
sbag0
(g1
g2
(lp455
g0
(g1
g2
(lp456
Vgone
p457
atp458
Rp459
(dp460
g12
VVBD
p461
sbag0
(g1
g2
(lp462
g0
(g1
g2
(lp463
Vand
p464
atp465
Rp466
(dp467
g12
VCC
p468
sbatp469
Rp470
(dp471
g12
VADVP
p472
sbatp473
Rp474
(dp475
g12
VVP
p476
sbag0
(g1
g2
(lp477
V.
p478
atp479
Rp480
(dp481
g12
V.
p482
sbatp483
Rp484
(dp485
g12
VS
p486
sbatp487
Rp488
(dp489
g12
S'id: 3'
p490
sbag0
(g1
g2
(lp491
g0
(g1
g2
(lp492
g0
(g1
g2
(lp493
g0
(g1
g2
(lp494
Vand
p495
atp496
Rp497
(dp498
g12
VCC
p499
sbag0
(g1
g2
(lp500
g0
(g1
g2
(lp501
g0
(g1
g2
(lp502
Vw
p503
atp504
Rp505
(dp506
g12
VNN
p507
sbag0
(g1
g2
(lp508
Vw
p509
atp510
Rp511
(dp512
g12
VNN
p513
sbag0
(g1
g2
(lp514
Vw
p515
atp516
Rp517
(dp518
g12
VNN
p519
sbag0
(g1
g2
(lp520
Vw
p521
atp522
Rp523
(dp524
g12
VNN
p525
sbag0
(g1
g2
(lp526
Vw
p527
atp528
Rp529
(dp530
g12
VNN
p531
sbatp532
Rp533
(dp534
g12
VNP
p535
sbag0
(g1
g2
(lp536
g0
(g1
g2
(lp537
Vwalk
p538
atp539
Rp540
(dp541
g12
VNN
p542
sbag0
(g1
g2
(lp543
g0
(g1
g2
(lp544
Vwa
p545
atp546
Rp547
(dp548
g12
VNN
p549
sbag0
(g1
g2
(lp550
Vwa
p551
atp552
Rp553
(dp554
g12
VNN
p555
sbatp556
Rp557
(dp558
g12
VNP
p559
sbatp560
Rp561
(dp562
g12
VVP
p563
sbatp564
Rp565
(dp566
g12
VNP
p567
sbatp568
Rp569
(dp570
g12
VNP
p571
sbag0
(g1
g2
(lp572
g0
(g1
g2
(lp573
Vwalk
p574
atp575
Rp576
(dp577
g12
VNN
p578
sbatp579
Rp580
(dp581
g12
VVP
p582
sbag0
(g1
g2
(lp583
V.
p584
atp585
Rp586
(dp587
g12
V.
p588
sbatp589
Rp590
(dp591
g12
VS
p592
sbatp593
Rp594
(dp595
g12
S'id: 4'
p596
sbag0
(g1
g2
(lp597
g0
(g1
g2
(lp598
g0
(g1
g2
(lp599
g0
(g1
g2
(lp600
g0
(g1
g2
(lp601
g0
(g1
g2
(lp602
g0
(g1
g2
(lp603
Vdan
p604
atp605
Rp606
(dp607
g12
VJJ
p608
sbag0
(g1
g2
(lp609
Vma
p610
atp611
Rp612
(dp613
g12
VNN
p614
sbag0
(g1
g2
(lp615
Vman
p616
atp617
Rp618
(dp619
g12
VNN
p620
sbatp621
Rp622
(dp623
g12
VNP
p624
sbag0
(g1
g2
(lp625
g0
(g1
g2
(lp626
Va
p627
atp628
Rp629
(dp630
g12
VDT
p631
sbag0
(g1
g2
(lp632
Vman
p633
atp634
Rp635
(dp636
g12
VNN
p637
sbatp638
Rp639
(dp640
g12
VNP
p641
sbatp642
Rp643
(dp644
g12
VNP
p645
sbag0
(g1
g2
(lp646
Vand
p647
atp648
Rp649
(dp650
g12
VCC
p651
sbag0
(g1
g2
(lp652
g0
(g1
g2
(lp653
g0
(g1
g2
(lp654
g0
(g1
g2
(lp655
Va
p656
atp657
Rp658
(dp659
g12
VDT
p660
sbag0
(g1
g2
(lp661
Vway
p662
atp663
Rp664
(dp665
g12
VNN
p666
sbag0
(g1
g2
(lp667
Vwa
p668
atp669
Rp670
(dp671
g12
VNN
p672
sbag0
(g1
g2
(lp673
Vk
p674
atp675
Rp676
(dp677
g12
VNN
p678
sbag0
(g1
g2
(lp679
Vcane
p680
atp681
Rp682
(dp683
g12
VNN
p684
sbatp685
Rp686
(dp687
g12
VNP
p688
sbag0
(g1
g2
(lp689
g0
(g1
g2
(lp690
Va
p691
atp692
Rp693
(dp694
g12
VDT
p695
sbag0
(g1
g2
(lp696
Vk
p697
atp698
Rp699
(dp700
g12
VNN
p701
sbag0
(g1
g2
(lp702
Vcane
p703
atp704
Rp705
(dp706
g12
VNN
p707
sbag0
(g1
g2
(lp708
Vwalking
p709
atp710
Rp711
(dp712
g12
VNN
p713
sbatp714
Rp715
(dp716
g12
VNP
p717
sbatp718
Rp719
(dp720
g12
VNP
p721
sbag0
(g1
g2
(lp722
V,
p723
atp724
Rp725
(dp726
g12
V,
p727
sbag0
(g1
g2
(lp728
Vand
p729
atp730
Rp731
(dp732
g12
VCC
p733
sbag0
(g1
g2
(lp734
g0
(g1
g2
(lp735
g0
(g1
g2
(lp736
Va
p737
atp738
Rp739
(dp740
g12
VDT
p741
sbag0
(g1
g2
(lp742
Va
p743
atp744
Rp745
(dp746
g12
VDT
p747
sbag0
(g1
g2
(lp748
Vg
p749
atp750
Rp751
(dp752
g12
VNN
p753
sbatp754
Rp755
(dp756
g12
VNP
p757
sbag0
(g1
g2
(lp758
g0
(g1
g2
(lp759
Vgirl
p760
atp761
Rp762
(dp763
g12
VNN
p764
sbag0
(g1
g2
(lp765
Vgirl
p766
atp767
Rp768
(dp769
g12
VNN
p770
sbatp771
Rp772
(dp773
g12
VNP
p774
sbatp775
Rp776
(dp777
g12
VNP
p778
sbatp779
Rp780
(dp781
g12
VNP
p782
sbatp783
Rp784
(dp785
g12
VNP
p786
sbag0
(g1
g2
(lp787
g0
(g1
g2
(lp788
Vgirl
p789
atp790
Rp791
(dp792
g12
VNN
p793
sbag0
(g1
g2
(lp794
Vgirl
p795
atp796
Rp797
(dp798
g12
VNN
p799
sbatp800
Rp801
(dp802
g12
VNP
p803
sbag0
(g1
g2
(lp804
g0
(g1
g2
(lp805
g0
(g1
g2
(lp806
Vthe
p807
atp808
Rp809
(dp810
g12
VDT
p811
sbag0
(g1
g2
(lp812
Va
p813
atp814
Rp815
(dp816
g12
VDT
p817
sbatp818
Rp819
(dp820
g12
VNP
p821
sbag0
(g1
g2
(lp822
V,
p823
atp824
Rp825
(dp826
g12
V,
p827
sbag0
(g1
g2
(lp828
g0
(g1
g2
(lp829
Vthe
p830
atp831
Rp832
(dp833
g12
VDT
p834
sbag0
(g1
g2
(lp835
Va
p836
atp837
Rp838
(dp839
g12
VDT
p840
sbatp841
Rp842
(dp843
g12
VNP
p844
sbag0
(g1
g2
(lp845
V,
p846
atp847
Rp848
(dp849
g12
V,
p850
sbag0
(g1
g2
(lp851
g0
(g1
g2
(lp852
Vthe
p853
atp854
Rp855
(dp856
g12
VDT
p857
sbag0
(g1
g2
(lp858
Va
p859
atp860
Rp861
(dp862
g12
VDT
p863
sbatp864
Rp865
(dp866
g12
VNP
p867
sbatp868
Rp869
(dp870
g12
VNP
p871
sbatp872
Rp873
(dp874
g12
VX
p875
sbag0
(g1
g2
(lp876
V,
p877
atp878
Rp879
(dp880
g12
V,
p881
sbag0
(g1
g2
(lp882
g0
(g1
g2
(lp883
Vthe
p884
atp885
Rp886
(dp887
g12
VDT
p888
sbatp889
Rp890
(dp891
g12
VX
p892
sbag0
(g1
g2
(lp893
g0
(g1
g2
(lp894
g0
(g1
g2
(lp895
Va
p896
atp897
Rp898
(dp899
g12
VDT
p900
sbag0
(g1
g2
(lp901
Vgos
p902
atp903
Rp904
(dp905
g12
VNN
p906
sbatp907
Rp908
(dp909
g12
VNP
p910
sbag0
(g1
g2
(lp911
g0
(g1
g2
(lp912
Vgone
p913
atp914
Rp915
(dp916
g12
VVBN
p917
sbag0
(g1
g2
(lp918
g0
(g1
g2
(lp919
g0
(g1
g2
(lp920
g0
(g1
g2
(lp921
Vit
p922
atp923
Rp924
(dp925
g12
VPRP
p926
sbatp927
Rp928
(dp929
g12
VNP
p930
sbag0
(g1
g2
(lp931
g0
(g1
g2
(lp932
V's
p933
atp934
Rp935
(dp936
g12
VVBZ
p937
sbag0
(g1
g2
(lp938
g0
(g1
g2
(lp939
Vgone
p940
atp941
Rp942
(dp943
g12
VVBN
p944
sbag0
(g1
g2
(lp945
g0
(g1
g2
(lp946
Vgirl
p947
atp948
Rp949
(dp950
g12
VNN
p951
sbag0
(g1
g2
(lp952
Vgirl
p953
atp954
Rp955
(dp956
g12
VNN
p957
sbatp958
Rp959
(dp960
g12
VNP
p961
sbatp962
Rp963
(dp964
g12
VVP
p965
sbatp966
Rp967
(dp968
g12
VVP
p969
sbatp970
Rp971
(dp972
g12
VS
p973
sbatp974
Rp975
(dp976
g12
VSBAR
p977
sbatp978
Rp979
(dp980
g12
VVP
p981
sbatp982
Rp983
(dp984
g12
VNP
p985
sbag0
(g1
g2
(lp986
V.
p987
atp988
Rp989
(dp990
g12
V.
p991
sbatp992
Rp993
(dp994
g12
VX
p995
sbatp996
Rp997
(dp998
g12
S'id: 5'
p999
sbag0
(g1
g2
(lp1000
g0
(g1
g2
(lp1001
g0
(g1
g2
(lp1002
g0
(g1
g2
(lp1003
Vand
p1004
atp1005
Rp1006
(dp1007
g12
VCC
p1008
sbag0
(g1
g2
(lp1009
g0
(g1
g2
(lp1010
g0
(g1
g2
(lp1011
g0
(g1
g2
(lp1012
Vthe
p1013
atp1014
Rp1015
(dp1016
g12
VDT
p1017
sbatp1018
Rp1019
(dp1020
g12
VNP
p1021
sbag0
(g1
g2
(lp1022
V,
p1023
atp1024
Rp1025
(dp1026
g12
V,
p1027
sbag0
(g1
g2
(lp1028
g0
(g1
g2
(lp1029
Vthe
p1030
atp1031
Rp1032
(dp1033
g12
VDT
p1034
sbatp1035
Rp1036
(dp1037
g12
VX
p1038
sbatp1039
Rp1040
(dp1041
g12
VNP
p1042
sbag0
(g1
g2
(lp1043
g0
(g1
g2
(lp1044
Vgone
p1045
atp1046
Rp1047
(dp1048
g12
VVBN
p1049
sbatp1050
Rp1051
(dp1052
g12
VVP
p1053
sbatp1054
Rp1055
(dp1056
g12
VS
p1057
sbatp1058
Rp1059
(dp1060
g12
VS
p1061
sbag0
(g1
g2
(lp1062
V,
p1063
atp1064
Rp1065
(dp1066
g12
V,
p1067
sbag0
(g1
g2
(lp1068
g0
(g1
g2
(lp1069
Vit
p1070
atp1071
Rp1072
(dp1073
g12
VPRP
p1074
sbatp1075
Rp1076
(dp1077
g12
VNP
p1078
sbag0
(g1
g2
(lp1079
g0
(g1
g2
(lp1080
V's
p1081
atp1082
Rp1083
(dp1084
g12
VVBZ
p1085
sbag0
(g1
g2
(lp1086
g0
(g1
g2
(lp1087
Vgone
p1088
atp1089
Rp1090
(dp1091
g12
VVBN
p1092
sbatp1093
Rp1094
(dp1095
g12
VVP
p1096
sbatp1097
Rp1098
(dp1099
g12
VVP
p1100
sbag0
(g1
g2
(lp1101
V.
p1102
atp1103
Rp1104
(dp1105
g12
V.
p1106
sbatp1107
Rp1108
(dp1109
g12
VS
p1110
sbatp1111
Rp1112
(dp1113
g12
S'id: 6'
p1114
sbag0
(g1
g2
(lp1115
g0
(g1
g2
(lp1116
g0
(g1
g2
(lp1117
g0
(g1
g2
(lp1118
g0
(g1
g2
(lp1119
Vwhat
p1120
atp1121
Rp1122
(dp1123
g12
VWP
p1124
sbatp1125
Rp1126
(dp1127
g12
VWHNP
p1128
sbag0
(g1
g2
(lp1129
g0
(g1
g2
(lp1130
g0
(g1
g2
(lp1131
V's
p1132
atp1133
Rp1134
(dp1135
g12
VVBZ
p1136
sbag0
(g1
g2
(lp1137
g0
(g1
g2
(lp1138
Vit
p1139
atp1140
Rp1141
(dp1142
g12
VPRP
p1143
sbatp1144
Rp1145
(dp1146
g12
VNP
p1147
sbatp1148
Rp1149
(dp1150
g12
VVP
p1151
sbatp1152
Rp1153
(dp1154
g12
VS
p1155
sbatp1156
Rp1157
(dp1158
g12
VSBAR
p1159
sbag0
(g1
g2
(lp1160
V,
p1161
atp1162
Rp1163
(dp1164
g12
V,
p1165
sbag0
(g1
g2
(lp1166
g0
(g1
g2
(lp1167
Vwhat
p1168
atp1169
Rp1170
(dp1171
g12
VWP
p1172
sbatp1173
Rp1174
(dp1175
g12
VWHNP
p1176
sbag0
(g1
g2
(lp1177
g0
(g1
g2
(lp1178
V's
p1179
atp1180
Rp1181
(dp1182
g12
VVBZ
p1183
sbag0
(g1
g2
(lp1184
g0
(g1
g2
(lp1185
Vit
p1186
atp1187
Rp1188
(dp1189
g12
VPRP
p1190
sbatp1191
Rp1192
(dp1193
g12
VNP
p1194
sbag0
(g1
g2
(lp1195
g0
(g1
g2
(lp1196
Vcalled
p1197
atp1198
Rp1199
(dp1200
g12
VVBN
p1201
sbatp1202
Rp1203
(dp1204
g12
VVP
p1205
sbatp1206
Rp1207
(dp1208
g12
VSQ
p1209
sbatp1210
Rp1211
(dp1212
g12
VSBARQ
p1213
sbatp1214
Rp1215
(dp1216
g12
S'id: 7'
p1217
sbatp1218
Rp1219
(dp1220
g12
S'sentences'
p1221
sb.