ccopy_reg
_reconstructor
p0
(cnltk.tree
Tree
p1
c__builtin__
list
p2
(lp3
g0
(g1
g2
(lp4
g0
(g1
g2
(lp5
g0
(g1
g2
(lp6
Vnice tables
p7
atp8
Rp9
(dp10
S'_label'
p11
S'start: 3'
p12
sbatp13
Rp14
(dp15
g11
S'sent: 2'
p16
sbag0
(g1
g2
(lp17
g0
(g1
g2
(lp18
Vlions
p19
atp20
Rp21
(dp22
g11
S'start: 6'
p23
sbatp24
Rp25
(dp26
g11
S'sent: 2'
p27
sbatp28
Rp29
(dp30
g11
S'id: 6'
p31
sbag0
(g1
g2
(lp32
g0
(g1
g2
(lp33
g0
(g1
g2
(lp34
Va
p35
atp36
Rp37
(dp38
g11
S'start: 2'
p39
sbatp40
Rp41
(dp42
g11
S'sent: 3'
p43
sbag0
(g1
g2
(lp44
g0
(g1
g2
(lp45
Vit
p46
atp47
Rp48
(dp49
g11
S'start: 7'
p50
sbatp51
Rp52
(dp53
g11
S'sent: 3'
p54
sbatp55
Rp56
(dp57
g11
S'id: 8'
p58
sbatp59
Rp60
(dp61
g11
S'coreferences'
p62
sb.