ccopy_reg
_reconstructor
p0
(cnltk.tree
Tree
p1
c__builtin__
list
p2
(lp3
g0
(g1
g2
(lp4
g0
(g1
g2
(lp5
g0
(g1
g2
(lp6
g0
(g1
g2
(lp7
VHere
p8
atp9
Rp10
(dp11
S'_label'
p12
VRB
p13
sbatp14
Rp15
(dp16
g12
VADVP
p17
sbag0
(g1
g2
(lp18
g0
(g1
g2
(lp19
Vwe
p20
atp21
Rp22
(dp23
g12
VPRP
p24
sbatp25
Rp26
(dp27
g12
VNP
p28
sbag0
(g1
g2
(lp29
g0
(g1
g2
(lp30
Vare
p31
atp32
Rp33
(dp34
g12
VVBP
p35
sbatp36
Rp37
(dp38
g12
VVP
p39
sbag0
(g1
g2
(lp40
V.
p41
atp42
Rp43
(dp44
g12
V.
p45
sbatp46
Rp47
(dp48
g12
VS
p49
sbatp50
Rp51
(dp52
g12
S'id: 0'
p53
sbag0
(g1
g2
(lp54
g0
(g1
g2
(lp55
g0
(g1
g2
(lp56
VSo
p57
atp58
Rp59
(dp60
g12
VRB
p61
sbag0
(g1
g2
(lp62
g0
(g1
g2
(lp63
g0
(g1
g2
(lp64
Veverybody
p65
atp66
Rp67
(dp68
g12
VNN
p69
sbatp70
Rp71
(dp72
g12
VNP
p73
sbag0
(g1
g2
(lp74
g0
(g1
g2
(lp75
Vhas
p76
atp77
Rp78
(dp79
g12
VVBZ
p80
sbatp81
Rp82
(dp83
g12
VVP
p84
sbatp85
Rp86
(dp87
g12
VS
p88
sbag0
(g1
g2
(lp89
g0
(g1
g2
(lp90
V,
p91
atp92
Rp93
(dp94
g12
V,
p95
sbag0
(g1
g2
(lp96
g0
(g1
g2
(lp97
g0
(g1
g2
(lp98
Va
p99
atp100
Rp101
(dp102
g12
VDT
p103
sbag0
(g1
g2
(lp104
VG-I-S-10-I-S
p105
atp106
Rp107
(dp108
g12
VNN
p109
sbatp110
Rp111
(dp112
g12
VNP
p113
sbag0
(g1
g2
(lp114
V,
p115
atp116
Rp117
(dp118
g12
V,
p119
sbag0
(g1
g2
(lp120
g0
(g1
g2
(lp121
Vthey
p122
atp123
Rp124
(dp125
g12
VPRP
p126
sbatp127
Rp128
(dp129
g12
VNP
p130
sbag0
(g1
g2
(lp131
g0
(g1
g2
(lp132
V're
p133
atp134
Rp135
(dp136
g12
VVBP
p137
sbag0
(g1
g2
(lp138
g0
(g1
g2
(lp139
Vall
p140
atp141
Rp142
(dp143
g12
VDT
p144
sbag0
(g1
g2
(lp145
Vhere
p146
atp147
Rp148
(dp149
g12
VRB
p150
sbatp151
Rp152
(dp153
g12
VADVP
p154
sbatp155
Rp156
(dp157
g12
VVP
p158
sbatp159
Rp160
(dp161
g12
VS
p162
sbag0
(g1
g2
(lp163
V,
p164
atp165
Rp166
(dp167
g12
V,
p168
sbatp169
Rp170
(dp171
g12
VPRN
p172
sbag0
(g1
g2
(lp173
Vand
p174
atp175
Rp176
(dp177
g12
VCC
p178
sbag0
(g1
g2
(lp179
g0
(g1
g2
(lp180
Vthen
p181
atp182
Rp183
(dp184
g12
VRB
p185
sbatp186
Rp187
(dp188
g12
VADVP
p189
sbag0
(g1
g2
(lp190
g0
(g1
g2
(lp191
g0
(g1
g2
(lp192
g0
(g1
g2
(lp193
Vthey
p194
atp195
Rp196
(dp197
g12
VPRP
p198
sbatp199
Rp200
(dp201
g12
VNP
p202
sbag0
(g1
g2
(lp203
g0
(g1
g2
(lp204
Vhave
p205
atp206
Rp207
(dp208
g12
VVBP
p209
sbag0
(g1
g2
(lp210
g0
(g1
g2
(lp211
Vthe
p212
atp213
Rp214
(dp215
g12
VDT
p216
sbag0
(g1
g2
(lp217
Vperson
p218
atp219
Rp220
(dp221
g12
VNN
p222
sbatp223
Rp224
(dp225
g12
VNP
p226
sbatp227
Rp228
(dp229
g12
VVP
p230
sbatp231
Rp232
(dp233
g12
VS
p234
sbag0
(g1
g2
(lp235
V,
p236
atp237
Rp238
(dp239
g12
V,
p240
sbag0
(g1
g2
(lp241
g0
(g1
g2
(lp242
Vyou
p243
atp244
Rp245
(dp246
g12
VPRP
p247
sbatp248
Rp249
(dp250
g12
VNP
p251
sbag0
(g1
g2
(lp252
g0
(g1
g2
(lp253
Vknow
p254
atp255
Rp256
(dp257
g12
VVBP
p258
sbag0
(g1
g2
(lp259
V,
p260
atp261
Rp262
(dp263
g12
V,
p264
sbag0
(g1
g2
(lp265
g0
(g1
g2
(lp266
Vthe
p267
atp268
Rp269
(dp270
g12
VDT
p271
sbag0
(g1
g2
(lp272
Vfriend
p273
atp274
Rp275
(dp276
g12
VNN
p277
sbatp278
Rp279
(dp280
g12
VNP
p281
sbag0
(g1
g2
(lp282
g0
(g1
g2
(lp283
Vhere
p284
atp285
Rp286
(dp287
g12
VRB
p288
sbatp289
Rp290
(dp291
g12
VADVP
p292
sbatp293
Rp294
(dp295
g12
VVP
p296
sbatp297
Rp298
(dp299
g12
VS
p300
sbag0
(g1
g2
(lp301
V.
p302
atp303
Rp304
(dp305
g12
V.
p306
sbatp307
Rp308
(dp309
g12
VS
p310
sbatp311
Rp312
(dp313
g12
S'id: 1'
p314
sbag0
(g1
g2
(lp315
g0
(g1
g2
(lp316
g0
(g1
g2
(lp317
g0
(g1
g2
(lp318
VEverybody
p319
atp320
Rp321
(dp322
g12
VNN
p323
sbatp324
Rp325
(dp326
g12
VNP
p327
sbag0
(g1
g2
(lp328
g0
(g1
g2
(lp329
Vwants
p330
atp331
Rp332
(dp333
g12
VVBZ
p334
sbag0
(g1
g2
(lp335
g0
(g1
g2
(lp336
Vto
p337
atp338
Rp339
(dp340
g12
VTO
p341
sbatp342
Rp343
(dp344
g12
VPP
p345
sbag0
(g1
g2
(lp346
V,
p347
atp348
Rp349
(dp350
g12
V,
p351
sbag0
(g1
g2
(lp352
g0
(g1
g2
(lp353
Vmaybe
p354
atp355
Rp356
(dp357
g12
VRB
p358
sbatp359
Rp360
(dp361
g12
VADVP
p362
sbag0
(g1
g2
(lp363
g0
(g1
g2
(lp364
Vnot
p365
atp366
Rp367
(dp368
g12
VRB
p369
sbag0
(g1
g2
(lp370
g0
(g1
g2
(lp371
Vright
p372
atp373
Rp374
(dp375
g12
VRB
p376
sbag0
(g1
g2
(lp377
g0
(g1
g2
(lp378
Vnow
p379
atp380
Rp381
(dp382
g12
VRB
p383
sbatp384
Rp385
(dp386
g12
VADVP
p387
sbatp388
Rp389
(dp390
g12
VPP
p391
sbag0
(g1
g2
(lp392
V,
p393
atp394
Rp395
(dp396
g12
V,
p397
sbag0
(g1
g2
(lp398
Vbut
p399
atp400
Rp401
(dp402
g12
VCC
p403
sbag0
(g1
g2
(lp404
g0
(g1
g2
(lp405
g0
(g1
g2
(lp406
g0
(g1
g2
(lp407
Vthe
p408
atp409
Rp410
(dp411
g12
VDT
p412
sbag0
(g1
g2
(lp413
VB-I-N-T
p414
atp415
Rp416
(dp417
g12
VNN
p418
sbatp419
Rp420
(dp421
g12
VNP
p422
sbag0
(g1
g2
(lp423
g0
(g1
g2
(lp424
Vwith
p425
atp426
Rp427
(dp428
g12
VIN
p429
sbag0
(g1
g2
(lp430
g0
(g1
g2
(lp431
Veverybody
p432
atp433
Rp434
(dp435
g12
VNN
p436
sbatp437
Rp438
(dp439
g12
VNP
p440
sbatp441
Rp442
(dp443
g12
VPP
p444
sbatp445
Rp446
(dp447
g12
VNP
p448
sbatp449
Rp450
(dp451
g12
VPP
p452
sbatp453
Rp454
(dp455
g12
VPP
p456
sbatp457
Rp458
(dp459
g12
VVP
p460
sbag0
(g1
g2
(lp461
V.
p462
atp463
Rp464
(dp465
g12
V.
p466
sbatp467
Rp468
(dp469
g12
VS
p470
sbatp471
Rp472
(dp473
g12
S'id: 2'
p474
sbag0
(g1
g2
(lp475
g0
(g1
g2
(lp476
g0
(g1
g2
(lp477
g0
(g1
g2
(lp478
g0
(g1
g2
(lp479
VThis
p480
atp481
Rp482
(dp483
g12
VDT
p484
sbag0
(g1
g2
(lp485
Varea
p486
atp487
Rp488
(dp489
g12
VNN
p490
sbatp491
Rp492
(dp493
g12
VNP
p494
sbag0
(g1
g2
(lp495
g0
(g1
g2
(lp496
Vis
p497
atp498
Rp499
(dp500
g12
VVBZ
p501
sbag0
(g1
g2
(lp502
g0
(g1
g2
(lp503
Vworking
p504
atp505
Rp506
(dp507
g12
VVBG
p508
sbag0
(g1
g2
(lp509
g0
(g1
g2
(lp510
Vthemself
p511
atp512
Rp513
(dp514
g12
VRB
p515
sbatp516
Rp517
(dp518
g12
VADVP
p519
sbag0
(g1
g2
(lp520
g0
(g1
g2
(lp521
g0
(g1
g2
(lp522
Vto
p523
atp524
Rp525
(dp526
g12
VTO
p527
sbag0
(g1
g2
(lp528
g0
(g1
g2
(lp529
Vhave
p530
atp531
Rp532
(dp533
g12
VVB
p534
sbag0
(g1
g2
(lp535
g0
(g1
g2
(lp536
Va
p537
atp538
Rp539
(dp540
g12
VDT
p541
sbag0
(g1
g2
(lp542
Vgood
p543
atp544
Rp545
(dp546
g12
VJJ
p547
sbag0
(g1
g2
(lp548
Vday
p549
atp550
Rp551
(dp552
g12
VNN
p553
sbatp554
Rp555
(dp556
g12
VNP
p557
sbatp558
Rp559
(dp560
g12
VVP
p561
sbatp562
Rp563
(dp564
g12
VVP
p565
sbatp566
Rp567
(dp568
g12
VS
p569
sbatp570
Rp571
(dp572
g12
VVP
p573
sbatp574
Rp575
(dp576
g12
VVP
p577
sbatp578
Rp579
(dp580
g12
VS
p581
sbag0
(g1
g2
(lp582
V,
p583
atp584
Rp585
(dp586
g12
V,
p587
sbag0
(g1
g2
(lp588
g0
(g1
g2
(lp589
g0
(g1
g2
(lp590
Vthey
p591
atp592
Rp593
(dp594
g12
VPRP
p595
sbatp596
Rp597
(dp598
g12
VNP
p599
sbag0
(g1
g2
(lp600
g0
(g1
g2
(lp601
V,
p602
atp603
Rp604
(dp605
g12
V,
p606
sbag0
(g1
g2
(lp607
g0
(g1
g2
(lp608
g0
(g1
g2
(lp609
Vyou
p610
atp611
Rp612
(dp613
g12
VPRP
p614
sbatp615
Rp616
(dp617
g12
VNP
p618
sbag0
(g1
g2
(lp619
g0
(g1
g2
(lp620
Vknow
p621
atp622
Rp623
(dp624
g12
VVBP
p625
sbatp626
Rp627
(dp628
g12
VVP
p629
sbatp630
Rp631
(dp632
g12
VS
p633
sbag0
(g1
g2
(lp634
V,
p635
atp636
Rp637
(dp638
g12
V,
p639
sbatp640
Rp641
(dp642
g12
VPRN
p643
sbag0
(g1
g2
(lp644
g0
(g1
g2
(lp645
Vhe
p646
atp647
Rp648
(dp649
g12
VPRP
p650
sbatp651
Rp652
(dp653
g12
VNP
p654
sbag0
(g1
g2
(lp655
g0
(g1
g2
(lp656
Vhas
p657
atp658
Rp659
(dp660
g12
VVBZ
p661
sbag0
(g1
g2
(lp662
g0
(g1
g2
(lp663
g0
(g1
g2
(lp664
Vone
p665
atp666
Rp667
(dp668
g12
VCD
p669
sbatp670
Rp671
(dp672
g12
VNP
p673
sbag0
(g1
g2
(lp674
g0
(g1
g2
(lp675
Vof
p676
atp677
Rp678
(dp679
g12
VIN
p680
sbag0
(g1
g2
(lp681
g0
(g1
g2
(lp682
Vthese
p683
atp684
Rp685
(dp686
g12
VDT
p687
sbatp688
Rp689
(dp690
g12
VNP
p691
sbatp692
Rp693
(dp694
g12
VPP
p695
sbatp696
Rp697
(dp698
g12
VNP
p699
sbag0
(g1
g2
(lp700
g0
(g1
g2
(lp701
Vthere
p702
atp703
Rp704
(dp705
g12
VRB
p706
sbatp707
Rp708
(dp709
g12
VADVP
p710
sbatp711
Rp712
(dp713
g12
VVP
p714
sbatp715
Rp716
(dp717
g12
VS
p718
sbag0
(g1
g2
(lp719
V,
p720
atp721
Rp722
(dp723
g12
V,
p724
sbag0
(g1
g2
(lp725
Vbut
p726
atp727
Rp728
(dp729
g12
VCC
p730
sbag0
(g1
g2
(lp731
g0
(g1
g2
(lp732
g0
(g1
g2
(lp733
Vhe
p734
atp735
Rp736
(dp737
g12
VPRP
p738
sbatp739
Rp740
(dp741
g12
VNP
p742
sbag0
(g1
g2
(lp743
g0
(g1
g2
(lp744
V's
p745
atp746
Rp747
(dp748
g12
VVBZ
p749
sbag0
(g1
g2
(lp750
g0
(g1
g2
(lp751
Vworking
p752
atp753
Rp754
(dp755
g12
VVBG
p756
sbag0
(g1
g2
(lp757
g0
(g1
g2
(lp758
Vwith
p759
atp760
Rp761
(dp762
g12
VIN
p763
sbag0
(g1
g2
(lp764
g0
(g1
g2
(lp765
Vhim
p766
atp767
Rp768
(dp769
g12
VPRP
p770
sbatp771
Rp772
(dp773
g12
VNP
p774
sbatp775
Rp776
(dp777
g12
VPP
p778
sbatp779
Rp780
(dp781
g12
VVP
p782
sbatp783
Rp784
(dp785
g12
VVP
p786
sbatp787
Rp788
(dp789
g12
VS
p790
sbag0
(g1
g2
(lp791
V.
p792
atp793
Rp794
(dp795
g12
V.
p796
sbatp797
Rp798
(dp799
g12
VS
p800
sbatp801
Rp802
(dp803
g12
S'id: 3'
p804
sbag0
(g1
g2
(lp805
g0
(g1
g2
(lp806
g0
(g1
g2
(lp807
g0
(g1
g2
(lp808
g0
(g1
g2
(lp809
g0
(g1
g2
(lp810
VI
p811
atp812
Rp813
(dp814
g12
VPRP
p815
sbatp816
Rp817
(dp818
g12
VNP
p819
sbag0
(g1
g2
(lp820
g0
(g1
g2
(lp821
Vdo
p822
atp823
Rp824
(dp825
g12
VVBP
p826
sbag0
(g1
g2
(lp827
Vn't
p828
atp829
Rp830
(dp831
g12
VRB
p832
sbag0
(g1
g2
(lp833
g0
(g1
g2
(lp834
Vlike
p835
atp836
Rp837
(dp838
g12
VVB
p839
sbag0
(g1
g2
(lp840
g0
(g1
g2
(lp841
Vthis
p842
atp843
Rp844
(dp845
g12
VDT
p846
sbag0
(g1
g2
(lp847
Vmuch
p848
atp849
Rp850
(dp851
g12
VJJ
p852
sbatp853
Rp854
(dp855
g12
VNP
p856
sbatp857
Rp858
(dp859
g12
VVP
p860
sbatp861
Rp862
(dp863
g12
VVP
p864
sbatp865
Rp866
(dp867
g12
VS
p868
sbag0
(g1
g2
(lp869
V,
p870
atp871
Rp872
(dp873
g12
V,
p874
sbag0
(g1
g2
(lp875
g0
(g1
g2
(lp876
g0
(g1
g2
(lp877
Vthey
p878
atp879
Rp880
(dp881
g12
VPRP
p882
sbatp883
Rp884
(dp885
g12
VNP
p886
sbag0
(g1
g2
(lp887
g0
(g1
g2
(lp888
Vhave
p889
atp890
Rp891
(dp892
g12
VVBP
p893
sbag0
(g1
g2
(lp894
g0
(g1
g2
(lp895
Va
p896
atp897
Rp898
(dp899
g12
VDT
p900
sbag0
(g1
g2
(lp901
Vperson
p902
atp903
Rp904
(dp905
g12
VNN
p906
sbatp907
Rp908
(dp909
g12
VNP
p910
sbatp911
Rp912
(dp913
g12
VVP
p914
sbatp915
Rp916
(dp917
g12
VS
p918
sbag0
(g1
g2
(lp919
V,
p920
atp921
Rp922
(dp923
g12
V,
p924
sbag0
(g1
g2
(lp925
g0
(g1
g2
(lp926
g0
(g1
g2
(lp927
Vyou
p928
atp929
Rp930
(dp931
g12
VPRP
p932
sbatp933
Rp934
(dp935
g12
VNP
p936
sbag0
(g1
g2
(lp937
g0
(g1
g2
(lp938
Vknow
p939
atp940
Rp941
(dp942
g12
VVBP
p943
sbatp944
Rp945
(dp946
g12
VVP
p947
sbatp948
Rp949
(dp950
g12
VS
p951
sbag0
(g1
g2
(lp952
V,
p953
atp954
Rp955
(dp956
g12
V,
p957
sbag0
(g1
g2
(lp958
g0
(g1
g2
(lp959
g0
(g1
g2
(lp960
g0
(g1
g2
(lp961
Vopening
p962
atp963
Rp964
(dp965
g12
VVBG
p966
sbag0
(g1
g2
(lp967
g0
(g1
g2
(lp968
Veverything
p969
atp970
Rp971
(dp972
g12
VNN
p973
sbatp974
Rp975
(dp976
g12
VNP
p977
sbatp978
Rp979
(dp980
g12
VVP
p981
sbatp982
Rp983
(dp984
g12
VS
p985
sbag0
(g1
g2
(lp986
V,
p987
atp988
Rp989
(dp990
g12
V,
p991
sbag0
(g1
g2
(lp992
g0
(g1
g2
(lp993
Vyou
p994
atp995
Rp996
(dp997
g12
VPRP
p998
sbatp999
Rp1000
(dp1001
g12
VNP
p1002
sbag0
(g1
g2
(lp1003
g0
(g1
g2
(lp1004
Vknow
p1005
atp1006
Rp1007
(dp1008
g12
VVBP
p1009
sbatp1010
Rp1011
(dp1012
g12
VVP
p1013
sbatp1014
Rp1015
(dp1016
g12
VS
p1017
sbatp1018
Rp1019
(dp1020
g12
VS
p1021
sbag0
(g1
g2
(lp1022
V,
p1023
atp1024
Rp1025
(dp1026
g12
V,
p1027
sbag0
(g1
g2
(lp1028
g0
(g1
g2
(lp1029
g0
(g1
g2
(lp1030
Vterrible
p1031
atp1032
Rp1033
(dp1034
g12
VJJ
p1035
sbatp1036
Rp1037
(dp1038
g12
VADJP
p1039
sbatp1040
Rp1041
(dp1042
g12
VFRAG
p1043
sbag0
(g1
g2
(lp1044
V.
p1045
atp1046
Rp1047
(dp1048
g12
V.
p1049
sbatp1050
Rp1051
(dp1052
g12
VS
p1053
sbatp1054
Rp1055
(dp1056
g12
S'id: 4'
p1057
sbag0
(g1
g2
(lp1058
g0
(g1
g2
(lp1059
g0
(g1
g2
(lp1060
VBut
p1061
atp1062
Rp1063
(dp1064
g12
VCC
p1065
sbag0
(g1
g2
(lp1066
g0
(g1
g2
(lp1067
g0
(g1
g2
(lp1068
Vhis
p1069
atp1070
Rp1071
(dp1072
g12
VPRP$
p1073
sbatp1074
Rp1075
(dp1076
g12
VNP
p1077
sbag0
(g1
g2
(lp1078
g0
(g1
g2
(lp1079
V,
p1080
atp1081
Rp1082
(dp1083
g12
V,
p1084
sbag0
(g1
g2
(lp1085
g0
(g1
g2
(lp1086
Vfriend
p1087
atp1088
Rp1089
(dp1090
g12
VNN
p1091
sbatp1092
Rp1093
(dp1094
g12
VNP
p1095
sbag0
(g1
g2
(lp1096
g0
(g1
g2
(lp1097
Vis
p1098
atp1099
Rp1100
(dp1101
g12
VVBZ
p1102
sbatp1103
Rp1104
(dp1105
g12
VVP
p1106
sbag0
(g1
g2
(lp1107
V,
p1108
atp1109
Rp1110
(dp1111
g12
V,
p1112
sbatp1113
Rp1114
(dp1115
g12
VPRN
p1116
sbag0
(g1
g2
(lp1117
g0
(g1
g2
(lp1118
Vis
p1119
atp1120
Rp1121
(dp1122
g12
VVBZ
p1123
sbag0
(g1
g2
(lp1124
g0
(g1
g2
(lp1125
g0
(g1
g2
(lp1126
Vbeing
p1127
atp1128
Rp1129
(dp1130
g12
VVBG
p1131
sbag0
(g1
g2
(lp1132
g0
(g1
g2
(lp1133
Voutdoors
p1134
atp1135
Rp1136
(dp1137
g12
VRB
p1138
sbatp1139
Rp1140
(dp1141
g12
VADVP
p1142
sbatp1143
Rp1144
(dp1145
g12
VVP
p1146
sbatp1147
Rp1148
(dp1149
g12
VS
p1150
sbatp1151
Rp1152
(dp1153
g12
VVP
p1154
sbatp1155
Rp1156
(dp1157
g12
VS
p1158
sbag0
(g1
g2
(lp1159
V,
p1160
atp1161
Rp1162
(dp1163
g12
V,
p1164
sbag0
(g1
g2
(lp1165
Vand
p1166
atp1167
Rp1168
(dp1169
g12
VCC
p1170
sbag0
(g1
g2
(lp1171
g0
(g1
g2
(lp1172
g0
(g1
g2
(lp1173
Vyou
p1174
atp1175
Rp1176
(dp1177
g12
VPRP
p1178
sbatp1179
Rp1180
(dp1181
g12
VNP
p1182
sbag0
(g1
g2
(lp1183
g0
(g1
g2
(lp1184
Vknow
p1185
atp1186
Rp1187
(dp1188
g12
VVBP
p1189
sbag0
(g1
g2
(lp1190
V,
p1191
atp1192
Rp1193
(dp1194
g12
V,
p1195
sbag0
(g1
g2
(lp1196
g0
(g1
g2
(lp1197
g0
(g1
g2
(lp1198
Veven
p1199
atp1200
Rp1201
(dp1202
g12
VRB
p1203
sbag0
(g1
g2
(lp1204
Vthough
p1205
atp1206
Rp1207
(dp1208
g12
VIN
p1209
sbag0
(g1
g2
(lp1210
g0
(g1
g2
(lp1211
g0
(g1
g2
(lp1212
Vit
p1213
atp1214
Rp1215
(dp1216
g12
VPRP
p1217
sbatp1218
Rp1219
(dp1220
g12
VNP
p1221
sbag0
(g1
g2
(lp1222
g0
(g1
g2
(lp1223
V's
p1224
atp1225
Rp1226
(dp1227
g12
VVBZ
p1228
sbag0
(g1
g2
(lp1229
g0
(g1
g2
(lp1230
Vvery
p1231
atp1232
Rp1233
(dp1234
g12
VRB
p1235
sbag0
(g1
g2
(lp1236
Vnice
p1237
atp1238
Rp1239
(dp1240
g12
VJJ
p1241
sbatp1242
Rp1243
(dp1244
g12
VADJP
p1245
sbatp1246
Rp1247
(dp1248
g12
VVP
p1249
sbatp1250
Rp1251
(dp1252
g12
VS
p1253
sbatp1254
Rp1255
(dp1256
g12
VSBAR
p1257
sbag0
(g1
g2
(lp1258
V,
p1259
atp1260
Rp1261
(dp1262
g12
V,
p1263
sbag0
(g1
g2
(lp1264
g0
(g1
g2
(lp1265
Vit
p1266
atp1267
Rp1268
(dp1269
g12
VPRP
p1270
sbatp1271
Rp1272
(dp1273
g12
VNP
p1274
sbag0
(g1
g2
(lp1275
g0
(g1
g2
(lp1276
V's
p1277
atp1278
Rp1279
(dp1280
g12
VVBZ
p1281
sbag0
(g1
g2
(lp1282
V,
p1283
atp1284
Rp1285
(dp1286
g12
V,
p1287
sbag0
(g1
g2
(lp1288
g0
(g1
g2
(lp1289
g0
(g1
g2
(lp1290
g0
(g1
g2
(lp1291
Vit
p1292
atp1293
Rp1294
(dp1295
g12
VPRP
p1296
sbatp1297
Rp1298
(dp1299
g12
VNP
p1300
sbag0
(g1
g2
(lp1301
g0
(g1
g2
(lp1302
V's
p1303
atp1304
Rp1305
(dp1306
g12
VVBZ
p1307
sbag0
(g1
g2
(lp1308
g0
(g1
g2
(lp1309
VW-I-N-D-Y
p1310
atp1311
Rp1312
(dp1313
g12
VNN
p1314
sbatp1315
Rp1316
(dp1317
g12
VNP
p1318
sbatp1319
Rp1320
(dp1321
g12
VVP
p1322
sbatp1323
Rp1324
(dp1325
g12
VS
p1326
sbatp1327
Rp1328
(dp1329
g12
VSBAR
p1330
sbatp1331
Rp1332
(dp1333
g12
VVP
p1334
sbatp1335
Rp1336
(dp1337
g12
VS
p1338
sbatp1339
Rp1340
(dp1341
g12
VVP
p1342
sbatp1343
Rp1344
(dp1345
g12
VS
p1346
sbag0
(g1
g2
(lp1347
V.
p1348
atp1349
Rp1350
(dp1351
g12
V.
p1352
sbatp1353
Rp1354
(dp1355
g12
VS
p1356
sbatp1357
Rp1358
(dp1359
g12
S'id: 5'
p1360
sbag0
(g1
g2
(lp1361
g0
(g1
g2
(lp1362
g0
(g1
g2
(lp1363
g0
(g1
g2
(lp1364
g0
(g1
g2
(lp1365
VYou
p1366
atp1367
Rp1368
(dp1369
g12
VPRP
p1370
sbatp1371
Rp1372
(dp1373
g12
VNP
p1374
sbag0
(g1
g2
(lp1375
g0
(g1
g2
(lp1376
Vknow
p1377
atp1378
Rp1379
(dp1380
g12
VVBP
p1381
sbatp1382
Rp1383
(dp1384
g12
VVP
p1385
sbatp1386
Rp1387
(dp1388
g12
VS
p1389
sbag0
(g1
g2
(lp1390
g0
(g1
g2
(lp1391
V,
p1392
atp1393
Rp1394
(dp1395
g12
V,
p1396
sbag0
(g1
g2
(lp1397
g0
(g1
g2
(lp1398
g0
(g1
g2
(lp1399
Vthey
p1400
atp1401
Rp1402
(dp1403
g12
VPRP
p1404
sbatp1405
Rp1406
(dp1407
g12
VNP
p1408
sbag0
(g1
g2
(lp1409
g0
(g1
g2
(lp1410
Vget
p1411
atp1412
Rp1413
(dp1414
g12
VVBP
p1415
sbag0
(g1
g2
(lp1416
g0
(g1
g2
(lp1417
Vway
p1418
atp1419
Rp1420
(dp1421
g12
VNN
p1422
sbag0
(g1
g2
(lp1423
Vup
p1424
atp1425
Rp1426
(dp1427
g12
VIN
p1428
sbatp1429
Rp1430
(dp1431
g12
VADVP
p1432
sbag0
(g1
g2
(lp1433
g0
(g1
g2
(lp1434
Vthere
p1435
atp1436
Rp1437
(dp1438
g12
VRB
p1439
sbatp1440
Rp1441
(dp1442
g12
VADVP
p1443
sbatp1444
Rp1445
(dp1446
g12
VVP
p1447
sbatp1448
Rp1449
(dp1450
g12
VS
p1451
sbag0
(g1
g2
(lp1452
V,
p1453
atp1454
Rp1455
(dp1456
g12
V,
p1457
sbatp1458
Rp1459
(dp1460
g12
VPRN
p1461
sbag0
(g1
g2
(lp1462
Vand
p1463
atp1464
Rp1465
(dp1466
g12
VCC
p1467
sbag0
(g1
g2
(lp1468
g0
(g1
g2
(lp1469
g0
(g1
g2
(lp1470
g0
(g1
g2
(lp1471
Vthey
p1472
atp1473
Rp1474
(dp1475
g12
VPRP
p1476
sbatp1477
Rp1478
(dp1479
g12
VNP
p1480
sbag0
(g1
g2
(lp1481
g0
(g1
g2
(lp1482
Vactually
p1483
atp1484
Rp1485
(dp1486
g12
VRB
p1487
sbatp1488
Rp1489
(dp1490
g12
VADVP
p1491
sbag0
(g1
g2
(lp1492
g0
(g1
g2
(lp1493
Vhave
p1494
atp1495
Rp1496
(dp1497
g12
VVBP
p1498
sbag0
(g1
g2
(lp1499
g0
(g1
g2
(lp1500
g0
(g1
g2
(lp1501
Vhere
p1502
atp1503
Rp1504
(dp1505
g12
VRB
p1506
sbatp1507
Rp1508
(dp1509
g12
VNP
p1510
sbag0
(g1
g2
(lp1511
V,
p1512
atp1513
Rp1514
(dp1515
g12
V,
p1516
sbag0
(g1
g2
(lp1517
g0
(g1
g2
(lp1518
g0
(g1
g2
(lp1519
Vanother
p1520
atp1521
Rp1522
(dp1523
g12
VDT
p1524
sbag0
(g1
g2
(lp1525
Vone
p1526
atp1527
Rp1528
(dp1529
g12
VCD
p1530
sbatp1531
Rp1532
(dp1533
g12
VNP
p1534
sbag0
(g1
g2
(lp1535
g0
(g1
g2
(lp1536
Vin
p1537
atp1538
Rp1539
(dp1540
g12
VIN
p1541
sbag0
(g1
g2
(lp1542
g0
(g1
g2
(lp1543
Vthe
p1544
atp1545
Rp1546
(dp1547
g12
VDT
p1548
sbag0
(g1
g2
(lp1549
Vsame
p1550
atp1551
Rp1552
(dp1553
g12
VJJ
p1554
sbag0
(g1
g2
(lp1555
Varea
p1556
atp1557
Rp1558
(dp1559
g12
VNN
p1560
sbatp1561
Rp1562
(dp1563
g12
VNP
p1564
sbatp1565
Rp1566
(dp1567
g12
VPP
p1568
sbatp1569
Rp1570
(dp1571
g12
VNP
p1572
sbatp1573
Rp1574
(dp1575
g12
VNP
p1576
sbatp1577
Rp1578
(dp1579
g12
VVP
p1580
sbatp1581
Rp1582
(dp1583
g12
VS
p1584
sbag0
(g1
g2
(lp1585
V,
p1586
atp1587
Rp1588
(dp1589
g12
V,
p1590
sbag0
(g1
g2
(lp1591
Vbut
p1592
atp1593
Rp1594
(dp1595
g12
VCC
p1596
sbag0
(g1
g2
(lp1597
g0
(g1
g2
(lp1598
g0
(g1
g2
(lp1599
Vit
p1600
atp1601
Rp1602
(dp1603
g12
VPRP
p1604
sbatp1605
Rp1606
(dp1607
g12
VNP
p1608
sbag0
(g1
g2
(lp1609
g0
(g1
g2
(lp1610
V's
p1611
atp1612
Rp1613
(dp1614
g12
VVBZ
p1615
sbag0
(g1
g2
(lp1616
g0
(g1
g2
(lp1617
Vvery
p1618
atp1619
Rp1620
(dp1621
g12
VRB
p1622
sbag0
(g1
g2
(lp1623
Vnice
p1624
atp1625
Rp1626
(dp1627
g12
VJJ
p1628
sbatp1629
Rp1630
(dp1631
g12
VADJP
p1632
sbatp1633
Rp1634
(dp1635
g12
VVP
p1636
sbatp1637
Rp1638
(dp1639
g12
VS
p1640
sbatp1641
Rp1642
(dp1643
g12
VS
p1644
sbag0
(g1
g2
(lp1645
V.
p1646
atp1647
Rp1648
(dp1649
g12
V.
p1650
sbatp1651
Rp1652
(dp1653
g12
VS
p1654
sbatp1655
Rp1656
(dp1657
g12
S'id: 6'
p1658
sbag0
(g1
g2
(lp1659
g0
(g1
g2
(lp1660
g0
(g1
g2
(lp1661
g0
(g1
g2
(lp1662
g0
(g1
g2
(lp1663
VThis
p1664
atp1665
Rp1666
(dp1667
g12
VDT
p1668
sbag0
(g1
g2
(lp1669
Vgentlemen
p1670
atp1671
Rp1672
(dp1673
g12
VNNS
p1674
sbatp1675
Rp1676
(dp1677
g12
VNP
p1678
sbag0
(g1
g2
(lp1679
g0
(g1
g2
(lp1680
Vhere
p1681
atp1682
Rp1683
(dp1684
g12
VRB
p1685
sbatp1686
Rp1687
(dp1688
g12
VADVP
p1689
sbag0
(g1
g2
(lp1690
g0
(g1
g2
(lp1691
Vsays
p1692
atp1693
Rp1694
(dp1695
g12
VVBZ
p1696
sbag0
(g1
g2
(lp1697
g0
(g1
g2
(lp1698
Vthat
p1699
atp1700
Rp1701
(dp1702
g12
VIN
p1703
sbag0
(g1
g2
(lp1704
V,
p1705
atp1706
Rp1707
(dp1708
g12
V,
p1709
sbag0
(g1
g2
(lp1710
g0
(g1
g2
(lp1711
g0
(g1
g2
(lp1712
Vyou
p1713
atp1714
Rp1715
(dp1716
g12
VPRP
p1717
sbatp1718
Rp1719
(dp1720
g12
VNP
p1721
sbag0
(g1
g2
(lp1722
g0
(g1
g2
(lp1723
Vknow
p1724
atp1725
Rp1726
(dp1727
g12
VVBP
p1728
sbatp1729
Rp1730
(dp1731
g12
VVP
p1732
sbatp1733
Rp1734
(dp1735
g12
VS
p1736
sbatp1737
Rp1738
(dp1739
g12
VSBAR
p1740
sbatp1741
Rp1742
(dp1743
g12
VVP
p1744
sbatp1745
Rp1746
(dp1747
g12
VS
p1748
sbag0
(g1
g2
(lp1749
V,
p1750
atp1751
Rp1752
(dp1753
g12
V,
p1754
sbag0
(g1
g2
(lp1755
g0
(g1
g2
(lp1756
Vhe
p1757
atp1758
Rp1759
(dp1760
g12
VPRP
p1761
sbatp1762
Rp1763
(dp1764
g12
VNP
p1765
sbag0
(g1
g2
(lp1766
g0
(g1
g2
(lp1767
Vhas
p1768
atp1769
Rp1770
(dp1771
g12
VVBZ
p1772
sbag0
(g1
g2
(lp1773
g0
(g1
g2
(lp1774
g0
(g1
g2
(lp1775
Va
p1776
atp1777
Rp1778
(dp1779
g12
VDT
p1780
sbatp1781
Rp1782
(dp1783
g12
VNP
p1784
sbag0
(g1
g2
(lp1785
V,
p1786
atp1787
Rp1788
(dp1789
g12
V,
p1790
sbag0
(g1
g2
(lp1791
g0
(g1
g2
(lp1792
g0
(g1
g2
(lp1793
Va
p1794
atp1795
Rp1796
(dp1797
g12
VDT
p1798
sbag0
(g1
g2
(lp1799
Vworking
p1800
atp1801
Rp1802
(dp1803
g12
VVBG
p1804
sbatp1805
Rp1806
(dp1807
g12
VNP
p1808
sbag0
(g1
g2
(lp1809
g0
(g1
g2
(lp1810
Vwith
p1811
atp1812
Rp1813
(dp1814
g12
VIN
p1815
sbag0
(g1
g2
(lp1816
g0
(g1
g2
(lp1817
Veach
p1818
atp1819
Rp1820
(dp1821
g12
VDT
p1822
sbag0
(g1
g2
(lp1823
Vother
p1824
atp1825
Rp1826
(dp1827
g12
VJJ
p1828
sbatp1829
Rp1830
(dp1831
g12
VNP
p1832
sbatp1833
Rp1834
(dp1835
g12
VPP
p1836
sbatp1837
Rp1838
(dp1839
g12
VNP
p1840
sbatp1841
Rp1842
(dp1843
g12
VNP
p1844
sbatp1845
Rp1846
(dp1847
g12
VVP
p1848
sbag0
(g1
g2
(lp1849
V.
p1850
atp1851
Rp1852
(dp1853
g12
V.
p1854
sbatp1855
Rp1856
(dp1857
g12
VS
p1858
sbatp1859
Rp1860
(dp1861
g12
S'id: 7'
p1862
sbag0
(g1
g2
(lp1863
g0
(g1
g2
(lp1864
g0
(g1
g2
(lp1865
VAnd
p1866
atp1867
Rp1868
(dp1869
g12
VCC
p1870
sbag0
(g1
g2
(lp1871
g0
(g1
g2
(lp1872
V,
p1873
atp1874
Rp1875
(dp1876
g12
V,
p1877
sbag0
(g1
g2
(lp1878
Vand
p1879
atp1880
Rp1881
(dp1882
g12
VCC
p1883
sbag0
(g1
g2
(lp1884
g0
(g1
g2
(lp1885
g0
(g1
g2
(lp1886
Vhe
p1887
atp1888
Rp1889
(dp1890
g12
VPRP
p1891
sbatp1892
Rp1893
(dp1894
g12
VNP
p1895
sbag0
(g1
g2
(lp1896
g0
(g1
g2
(lp1897
V's
p1898
atp1899
Rp1900
(dp1901
g12
VVBZ
p1902
sbag0
(g1
g2
(lp1903
g0
(g1
g2
(lp1904
Vgot
p1905
atp1906
Rp1907
(dp1908
g12
VVBD
p1909
sbag0
(g1
g2
(lp1910
g0
(g1
g2
(lp1911
Vone
p1912
atp1913
Rp1914
(dp1915
g12
VCD
p1916
sbatp1917
Rp1918
(dp1919
g12
VNP
p1920
sbatp1921
Rp1922
(dp1923
g12
VVP
p1924
sbatp1925
Rp1926
(dp1927
g12
VVP
p1928
sbatp1929
Rp1930
(dp1931
g12
VS
p1932
sbag0
(g1
g2
(lp1933
V,
p1934
atp1935
Rp1936
(dp1937
g12
V,
p1938
sbatp1939
Rp1940
(dp1941
g12
VPRN
p1942
sbag0
(g1
g2
(lp1943
g0
(g1
g2
(lp1944
Vhe
p1945
atp1946
Rp1947
(dp1948
g12
VPRP
p1949
sbatp1950
Rp1951
(dp1952
g12
VNP
p1953
sbag0
(g1
g2
(lp1954
g0
(g1
g2
(lp1955
V's
p1956
atp1957
Rp1958
(dp1959
g12
VVBZ
p1960
sbag0
(g1
g2
(lp1961
V,
p1962
atp1963
Rp1964
(dp1965
g12
V,
p1966
sbag0
(g1
g2
(lp1967
g0
(g1
g2
(lp1968
g0
(g1
g2
(lp1969
g0
(g1
g2
(lp1970
Vhe
p1971
atp1972
Rp1973
(dp1974
g12
VPRP
p1975
sbatp1976
Rp1977
(dp1978
g12
VNP
p1979
sbag0
(g1
g2
(lp1980
g0
(g1
g2
(lp1981
V's
p1982
atp1983
Rp1984
(dp1985
g12
VVBZ
p1986
sbag0
(g1
g2
(lp1987
g0
(g1
g2
(lp1988
Vup
p1989
atp1990
Rp1991
(dp1992
g12
VRB
p1993
sbag0
(g1
g2
(lp1994
g0
(g1
g2
(lp1995
g0
(g1
g2
(lp1996
Vto
p1997
atp1998
Rp1999
(dp2000
g12
VTO
p2001
sbag0
(g1
g2
(lp2002
g0
(g1
g2
(lp2003
Vbring
p2004
atp2005
Rp2006
(dp2007
g12
VVB
p2008
sbag0
(g1
g2
(lp2009
g0
(g1
g2
(lp2010
Vit
p2011
atp2012
Rp2013
(dp2014
g12
VPRP
p2015
sbatp2016
Rp2017
(dp2018
g12
VNP
p2019
sbag0
(g1
g2
(lp2020
g0
(g1
g2
(lp2021
Vhome
p2022
atp2023
Rp2024
(dp2025
g12
VNN
p2026
sbatp2027
Rp2028
(dp2029
g12
VADVP
p2030
sbatp2031
Rp2032
(dp2033
g12
VVP
p2034
sbatp2035
Rp2036
(dp2037
g12
VVP
p2038
sbatp2039
Rp2040
(dp2041
g12
VS
p2042
sbatp2043
Rp2044
(dp2045
g12
VADVP
p2046
sbatp2047
Rp2048
(dp2049
g12
VVP
p2050
sbatp2051
Rp2052
(dp2053
g12
VS
p2054
sbatp2055
Rp2056
(dp2057
g12
VSBAR
p2058
sbatp2059
Rp2060
(dp2061
g12
VVP
p2062
sbag0
(g1
g2
(lp2063
V.
p2064
atp2065
Rp2066
(dp2067
g12
V.
p2068
sbatp2069
Rp2070
(dp2071
g12
VS
p2072
sbatp2073
Rp2074
(dp2075
g12
S'id: 8'
p2076
sbag0
(g1
g2
(lp2077
g0
(g1
g2
(lp2078
g0
(g1
g2
(lp2079
VAnd
p2080
atp2081
Rp2082
(dp2083
g12
VCC
p2084
sbag0
(g1
g2
(lp2085
V,
p2086
atp2087
Rp2088
(dp2089
g12
V,
p2090
sbag0
(g1
g2
(lp2091
g0
(g1
g2
(lp2092
Vso
p2093
atp2094
Rp2095
(dp2096
g12
VIN
p2097
sbag0
(g1
g2
(lp2098
g0
(g1
g2
(lp2099
Vit
p2100
atp2101
Rp2102
(dp2103
g12
VPRP
p2104
sbatp2105
Rp2106
(dp2107
g12
VNP
p2108
sbag0
(g1
g2
(lp2109
g0
(g1
g2
(lp2110
V's
p2111
atp2112
Rp2113
(dp2114
g12
VVBZ
p2115
sbag0
(g1
g2
(lp2116
g0
(g1
g2
(lp2117
g0
(g1
g2
(lp2118
Vvery
p2119
atp2120
Rp2121
(dp2122
g12
VRB
p2123
sbag0
(g1
g2
(lp2124
Vnice
p2125
atp2126
Rp2127
(dp2128
g12
VJJ
p2129
sbatp2130
Rp2131
(dp2132
g12
VADJP
p2133
sbag0
(g1
g2
(lp2134
g0
(g1
g2
(lp2135
Vthere
p2136
atp2137
Rp2138
(dp2139
g12
VEX
p2140
sbatp2141
Rp2142
(dp2143
g12
VNP
p2144
sbatp2145
Rp2146
(dp2147
g12
VS
p2148
sbatp2149
Rp2150
(dp2151
g12
VVP
p2152
sbatp2153
Rp2154
(dp2155
g12
VS
p2156
sbag0
(g1
g2
(lp2157
V.
p2158
atp2159
Rp2160
(dp2161
g12
V.
p2162
sbatp2163
Rp2164
(dp2165
g12
VS
p2166
sbatp2167
Rp2168
(dp2169
g12
S'id: 9'
p2170
sbag0
(g1
g2
(lp2171
g0
(g1
g2
(lp2172
g0
(g1
g2
(lp2173
g0
(g1
g2
(lp2174
VSo
p2175
atp2176
Rp2177
(dp2178
g12
VRB
p2179
sbatp2180
Rp2181
(dp2182
g12
VADVP
p2183
sbag0
(g1
g2
(lp2184
V,
p2185
atp2186
Rp2187
(dp2188
g12
V,
p2189
sbag0
(g1
g2
(lp2190
g0
(g1
g2
(lp2191
Vso
p2192
atp2193
Rp2194
(dp2195
g12
VRB
p2196
sbatp2197
Rp2198
(dp2199
g12
VADVP
p2200
sbag0
(g1
g2
(lp2201
V,
p2202
atp2203
Rp2204
(dp2205
g12
V,
p2206
sbag0
(g1
g2
(lp2207
g0
(g1
g2
(lp2208
Vthey
p2209
atp2210
Rp2211
(dp2212
g12
VPRP
p2213
sbatp2214
Rp2215
(dp2216
g12
VNP
p2217
sbag0
(g1
g2
(lp2218
V,
p2219
atp2220
Rp2221
(dp2222
g12
V,
p2223
sbag0
(g1
g2
(lp2224
g0
(g1
g2
(lp2225
Vthey
p2226
atp2227
Rp2228
(dp2229
g12
VPRP
p2230
sbatp2231
Rp2232
(dp2233
g12
VNP
p2234
sbag0
(g1
g2
(lp2235
g0
(g1
g2
(lp2236
Vhave
p2237
atp2238
Rp2239
(dp2240
g12
VVBP
p2241
sbag0
(g1
g2
(lp2242
g0
(g1
g2
(lp2243
Va
p2244
atp2245
Rp2246
(dp2247
g12
VDT
p2248
sbag0
(g1
g2
(lp2249
Vgood
p2250
atp2251
Rp2252
(dp2253
g12
VJJ
p2254
sbag0
(g1
g2
(lp2255
Vday
p2256
atp2257
Rp2258
(dp2259
g12
VNN
p2260
sbatp2261
Rp2262
(dp2263
g12
VNP
p2264
sbag0
(g1
g2
(lp2265
g0
(g1
g2
(lp2266
Vthere
p2267
atp2268
Rp2269
(dp2270
g12
VRB
p2271
sbatp2272
Rp2273
(dp2274
g12
VNP-TMP
p2275
sbatp2276
Rp2277
(dp2278
g12
VVP
p2279
sbag0
(g1
g2
(lp2280
V.
p2281
atp2282
Rp2283
(dp2284
g12
V.
p2285
sbatp2286
Rp2287
(dp2288
g12
VS
p2289
sbatp2290
Rp2291
(dp2292
g12
S'id: 10'
p2293
sbag0
(g1
g2
(lp2294
g0
(g1
g2
(lp2295
g0
(g1
g2
(lp2296
g0
(g1
g2
(lp2297
VSo
p2298
atp2299
Rp2300
(dp2301
g12
VRB
p2302
sbatp2303
Rp2304
(dp2305
g12
VADVP
p2306
sbag0
(g1
g2
(lp2307
V,
p2308
atp2309
Rp2310
(dp2311
g12
V,
p2312
sbag0
(g1
g2
(lp2313
g0
(g1
g2
(lp2314
Vso
p2315
atp2316
Rp2317
(dp2318
g12
VRB
p2319
sbatp2320
Rp2321
(dp2322
g12
VADVP
p2323
sbag0
(g1
g2
(lp2324
V,
p2325
atp2326
Rp2327
(dp2328
g12
V,
p2329
sbag0
(g1
g2
(lp2330
g0
(g1
g2
(lp2331
Vit
p2332
atp2333
Rp2334
(dp2335
g12
VPRP
p2336
sbatp2337
Rp2338
(dp2339
g12
VNP
p2340
sbag0
(g1
g2
(lp2341
g0
(g1
g2
(lp2342
V's
p2343
atp2344
Rp2345
(dp2346
g12
VVBZ
p2347
sbag0
(g1
g2
(lp2348
g0
(g1
g2
(lp2349
Vnice
p2350
atp2351
Rp2352
(dp2353
g12
VJJ
p2354
sbatp2355
Rp2356
(dp2357
g12
VADJP
p2358
sbatp2359
Rp2360
(dp2361
g12
VVP
p2362
sbag0
(g1
g2
(lp2363
V.
p2364
atp2365
Rp2366
(dp2367
g12
V.
p2368
sbatp2369
Rp2370
(dp2371
g12
VS
p2372
sbatp2373
Rp2374
(dp2375
g12
S'id: 11'
p2376
sbag0
(g1
g2
(lp2377
g0
(g1
g2
(lp2378
g0
(g1
g2
(lp2379
g0
(g1
g2
(lp2380
g0
(g1
g2
(lp2381
VI
p2382
atp2383
Rp2384
(dp2385
g12
VPRP
p2386
sbatp2387
Rp2388
(dp2389
g12
VNP
p2390
sbag0
(g1
g2
(lp2391
g0
(g1
g2
(lp2392
Vguess
p2393
atp2394
Rp2395
(dp2396
g12
VVBP
p2397
sbag0
(g1
g2
(lp2398
g0
(g1
g2
(lp2399
g0
(g1
g2
(lp2400
g0
(g1
g2
(lp2401
Vthey
p2402
atp2403
Rp2404
(dp2405
g12
VPRP
p2406
sbatp2407
Rp2408
(dp2409
g12
VNP
p2410
sbag0
(g1
g2
(lp2411
g0
(g1
g2
(lp2412
Vhave
p2413
atp2414
Rp2415
(dp2416
g12
VVBP
p2417
sbatp2418
Rp2419
(dp2420
g12
VVP
p2421
sbatp2422
Rp2423
(dp2424
g12
VS
p2425
sbatp2426
Rp2427
(dp2428
g12
VSBAR
p2429
sbatp2430
Rp2431
(dp2432
g12
VVP
p2433
sbatp2434
Rp2435
(dp2436
g12
VS
p2437
sbag0
(g1
g2
(lp2438
V,
p2439
atp2440
Rp2441
(dp2442
g12
V,
p2443
sbag0
(g1
g2
(lp2444
g0
(g1
g2
(lp2445
Vthey
p2446
atp2447
Rp2448
(dp2449
g12
VPRP
p2450
sbatp2451
Rp2452
(dp2453
g12
VNP
p2454
sbag0
(g1
g2
(lp2455
V,
p2456
atp2457
Rp2458
(dp2459
g12
V,
p2460
sbag0
(g1
g2
(lp2461
g0
(g1
g2
(lp2462
g0
(g1
g2
(lp2463
Vthat
p2464
atp2465
Rp2466
(dp2467
g12
VDT
p2468
sbatp2469
Rp2470
(dp2471
g12
VWHNP
p2472
sbag0
(g1
g2
(lp2473
g0
(g1
g2
(lp2474
g0
(g1
g2
(lp2475
V's
p2476
atp2477
Rp2478
(dp2479
g12
VVBZ
p2480
sbatp2481
Rp2482
(dp2483
g12
VVP
p2484
sbatp2485
Rp2486
(dp2487
g12
VS
p2488
sbatp2489
Rp2490
(dp2491
g12
VSBAR
p2492
sbag0
(g1
g2
(lp2493
V,
p2494
atp2495
Rp2496
(dp2497
g12
V,
p2498
sbag0
(g1
g2
(lp2499
g0
(g1
g2
(lp2500
VI
p2501
atp2502
Rp2503
(dp2504
g12
VPRP
p2505
sbatp2506
Rp2507
(dp2508
g12
VNP
p2509
sbag0
(g1
g2
(lp2510
g0
(g1
g2
(lp2511
Vthink
p2512
atp2513
Rp2514
(dp2515
g12
VVBP
p2516
sbag0
(g1
g2
(lp2517
g0
(g1
g2
(lp2518
g0
(g1
g2
(lp2519
g0
(g1
g2
(lp2520
Vthat
p2521
atp2522
Rp2523
(dp2524
g12
VDT
p2525
sbatp2526
Rp2527
(dp2528
g12
VNP
p2529
sbag0
(g1
g2
(lp2530
g0
(g1
g2
(lp2531
V's
p2532
atp2533
Rp2534
(dp2535
g12
VVBZ
p2536
sbag0
(g1
g2
(lp2537
g0
(g1
g2
(lp2538
Vpretty
p2539
atp2540
Rp2541
(dp2542
g12
VRB
p2543
sbag0
(g1
g2
(lp2544
Vgood
p2545
atp2546
Rp2547
(dp2548
g12
VJJ
p2549
sbag0
(g1
g2
(lp2550
g0
(g1
g2
(lp2551
Vover
p2552
atp2553
Rp2554
(dp2555
g12
VIN
p2556
sbag0
(g1
g2
(lp2557
g0
(g1
g2
(lp2558
Vthere
p2559
atp2560
Rp2561
(dp2562
g12
VRB
p2563
sbatp2564
Rp2565
(dp2566
g12
VNP
p2567
sbatp2568
Rp2569
(dp2570
g12
VPP
p2571
sbatp2572
Rp2573
(dp2574
g12
VADJP
p2575
sbatp2576
Rp2577
(dp2578
g12
VVP
p2579
sbatp2580
Rp2581
(dp2582
g12
VS
p2583
sbatp2584
Rp2585
(dp2586
g12
VSBAR
p2587
sbatp2588
Rp2589
(dp2590
g12
VVP
p2591
sbag0
(g1
g2
(lp2592
V.
p2593
atp2594
Rp2595
(dp2596
g12
V.
p2597
sbatp2598
Rp2599
(dp2600
g12
VS
p2601
sbatp2602
Rp2603
(dp2604
g12
S'id: 12'
p2605
sbag0
(g1
g2
(lp2606
g0
(g1
g2
(lp2607
g0
(g1
g2
(lp2608
g0
(g1
g2
(lp2609
VWorking
p2610
atp2611
Rp2612
(dp2613
g12
VVBG
p2614
sbag0
(g1
g2
(lp2615
g0
(g1
g2
(lp2616
Vfor
p2617
atp2618
Rp2619
(dp2620
g12
VIN
p2621
sbag0
(g1
g2
(lp2622
g0
(g1
g2
(lp2623
Veach
p2624
atp2625
Rp2626
(dp2627
g12
VDT
p2628
sbag0
(g1
g2
(lp2629
Vother
p2630
atp2631
Rp2632
(dp2633
g12
VJJ
p2634
sbatp2635
Rp2636
(dp2637
g12
VNP
p2638
sbatp2639
Rp2640
(dp2641
g12
VPP
p2642
sbatp2643
Rp2644
(dp2645
g12
VVP
p2646
sbag0
(g1
g2
(lp2647
V.
p2648
atp2649
Rp2650
(dp2651
g12
V.
p2652
sbatp2653
Rp2654
(dp2655
g12
VS
p2656
sbatp2657
Rp2658
(dp2659
g12
S'id: 13'
p2660
sbag0
(g1
g2
(lp2661
g0
(g1
g2
(lp2662
g0
(g1
g2
(lp2663
g0
(g1
g2
(lp2664
VThat
p2665
atp2666
Rp2667
(dp2668
g12
VDT
p2669
sbag0
(g1
g2
(lp2670
Vperson
p2671
atp2672
Rp2673
(dp2674
g12
VNN
p2675
sbatp2676
Rp2677
(dp2678
g12
VNP
p2679
sbag0
(g1
g2
(lp2680
g0
(g1
g2
(lp2681
Vfeels
p2682
atp2683
Rp2684
(dp2685
g12
VVBZ
p2686
sbag0
(g1
g2
(lp2687
g0
(g1
g2
(lp2688
Vthat
p2689
atp2690
Rp2691
(dp2692
g12
VIN
p2693
sbag0
(g1
g2
(lp2694
g0
(g1
g2
(lp2695
g0
(g1
g2
(lp2696
Vhe
p2697
atp2698
Rp2699
(dp2700
g12
VPRP
p2701
sbatp2702
Rp2703
(dp2704
g12
VNP
p2705
sbag0
(g1
g2
(lp2706
g0
(g1
g2
(lp2707
Vknows
p2708
atp2709
Rp2710
(dp2711
g12
VVBZ
p2712
sbag0
(g1
g2
(lp2713
g0
(g1
g2
(lp2714
Vback
p2715
atp2716
Rp2717
(dp2718
g12
VRB
p2719
sbatp2720
Rp2721
(dp2722
g12
VADVP
p2723
sbatp2724
Rp2725
(dp2726
g12
VVP
p2727
sbatp2728
Rp2729
(dp2730
g12
VS
p2731
sbatp2732
Rp2733
(dp2734
g12
VSBAR
p2735
sbatp2736
Rp2737
(dp2738
g12
VVP
p2739
sbag0
(g1
g2
(lp2740
V.
p2741
atp2742
Rp2743
(dp2744
g12
V.
p2745
sbatp2746
Rp2747
(dp2748
g12
VS
p2749
sbatp2750
Rp2751
(dp2752
g12
S'id: 14'
p2753
sbatp2754
Rp2755
(dp2756
g12
S'sentences'
p2757
sb.