ccopy_reg
_reconstructor
p0
(cnltk.tree
Tree
p1
c__builtin__
list
p2
(lp3
g0
(g1
g2
(lp4
g0
(g1
g2
(lp5
g0
(g1
g2
(lp6
Vthe clown
p7
atp8
Rp9
(dp10
S'_label'
p11
S'start: 1'
p12
sbatp13
Rp14
(dp15
g11
S'sent: 1'
p16
sbag0
(g1
g2
(lp17
g0
(g1
g2
(lp18
VClown
p19
atp20
Rp21
(dp22
g11
S'start: 1'
p23
sbatp24
Rp25
(dp26
g11
S'sent: 3'
p27
sbag0
(g1
g2
(lp28
g0
(g1
g2
(lp29
VHe
p30
atp31
Rp32
(dp33
g11
S'start: 1'
p34
sbatp35
Rp36
(dp37
g11
S'sent: 4'
p38
sbag0
(g1
g2
(lp39
g0
(g1
g2
(lp40
Vhe
p41
atp42
Rp43
(dp44
g11
S'start: 6'
p45
sbatp46
Rp47
(dp48
g11
S'sent: 4'
p49
sbag0
(g1
g2
(lp50
g0
(g1
g2
(lp51
Vhis
p52
atp53
Rp54
(dp55
g11
S'start: 14'
p56
sbatp57
Rp58
(dp59
g11
S'sent: 4'
p60
sbag0
(g1
g2
(lp61
g0
(g1
g2
(lp62
Vhis
p63
atp64
Rp65
(dp66
g11
S'start: 18'
p67
sbatp68
Rp69
(dp70
g11
S'sent: 4'
p71
sbag0
(g1
g2
(lp72
g0
(g1
g2
(lp73
VHe
p74
atp75
Rp76
(dp77
g11
S'start: 1'
p78
sbatp79
Rp80
(dp81
g11
S'sent: 5'
p82
sbag0
(g1
g2
(lp83
g0
(g1
g2
(lp84
Vhe
p85
atp86
Rp87
(dp88
g11
S'start: 7'
p89
sbatp90
Rp91
(dp92
g11
S'sent: 5'
p93
sbag0
(g1
g2
(lp94
g0
(g1
g2
(lp95
Vhe
p96
atp97
Rp98
(dp99
g11
S'start: 12'
p100
sbatp101
Rp102
(dp103
g11
S'sent: 5'
p104
sbatp105
Rp106
(dp107
g11
S'id: 1'
p108
sbag0
(g1
g2
(lp109
g0
(g1
g2
(lp110
g0
(g1
g2
(lp111
Va lady 's
p112
atp113
Rp114
(dp115
g11
S'start: 7'
p116
sbatp117
Rp118
(dp119
g11
S'sent: 2'
p120
sbag0
(g1
g2
(lp121
g0
(g1
g2
(lp122
VThe lady
p123
atp124
Rp125
(dp126
g11
S'start: 1'
p127
sbatp128
Rp129
(dp130
g11
S'sent: 12'
p131
sbag0
(g1
g2
(lp132
g0
(g1
g2
(lp133
Vshe
p134
atp135
Rp136
(dp137
g11
S'start: 9'
p138
sbatp139
Rp140
(dp141
g11
S'sent: 12'
p142
sbag0
(g1
g2
(lp143
g0
(g1
g2
(lp144
Vher
p145
atp146
Rp147
(dp148
g11
S'start: 13'
p149
sbatp150
Rp151
(dp152
g11
S'sent: 12'
p153
sbag0
(g1
g2
(lp154
g0
(g1
g2
(lp155
Vher
p156
atp157
Rp158
(dp159
g11
S'start: 17'
p160
sbatp161
Rp162
(dp163
g11
S'sent: 12'
p164
sbag0
(g1
g2
(lp165
g0
(g1
g2
(lp166
Vher
p167
atp168
Rp169
(dp170
g11
S'start: 20'
p171
sbatp172
Rp173
(dp174
g11
S'sent: 13'
p175
sbag0
(g1
g2
(lp176
g0
(g1
g2
(lp177
Vthe lady
p178
atp179
Rp180
(dp181
g11
S'start: 7'
p182
sbatp183
Rp184
(dp185
g11
S'sent: 14'
p186
sbatp187
Rp188
(dp189
g11
S'id: 5'
p190
sbag0
(g1
g2
(lp191
g0
(g1
g2
(lp192
g0
(g1
g2
(lp193
Vhis hair
p194
atp195
Rp196
(dp197
g11
S'start: 14'
p198
sbatp199
Rp200
(dp201
g11
S'sent: 4'
p202
sbag0
(g1
g2
(lp203
g0
(g1
g2
(lp204
Vhis hair
p205
atp206
Rp207
(dp208
g11
S'start: 18'
p209
sbatp210
Rp211
(dp212
g11
S'sent: 4'
p213
sbatp214
Rp215
(dp216
g11
S'id: 12'
p217
sbag0
(g1
g2
(lp218
g0
(g1
g2
(lp219
g0
(g1
g2
(lp220
Va clown foot/filn
p221
atp222
Rp223
(dp224
g11
S'start: 3'
p225
sbatp226
Rp227
(dp228
g11
S'sent: 5'
p229
sbag0
(g1
g2
(lp230
g0
(g1
g2
(lp231
Vher
p232
atp233
Rp234
(dp235
g11
S'start: 16'
p236
sbatp237
Rp238
(dp239
g11
S'sent: 6'
p240
sbatp241
Rp242
(dp243
g11
S'id: 18'
p244
sbag0
(g1
g2
(lp245
g0
(g1
g2
(lp246
g0
(g1
g2
(lp247
VThe man 's
p248
atp249
Rp250
(dp251
g11
S'start: 1'
p252
sbatp253
Rp254
(dp255
g11
S'sent: 6'
p256
sbag0
(g1
g2
(lp257
g0
(g1
g2
(lp258
Vhe
p259
atp260
Rp261
(dp262
g11
S'start: 8'
p263
sbatp264
Rp265
(dp266
g11
S'sent: 7'
p267
sbag0
(g1
g2
(lp268
g0
(g1
g2
(lp269
VThe man
p270
atp271
Rp272
(dp273
g11
S'start: 1'
p274
sbatp275
Rp276
(dp277
g11
S'sent: 15'
p278
sbag0
(g1
g2
(lp279
g0
(g1
g2
(lp280
VHe
p281
atp282
Rp283
(dp284
g11
S'start: 1'
p285
sbatp286
Rp287
(dp288
g11
S'sent: 16'
p289
sbatp290
Rp291
(dp292
g11
S'id: 22'
p293
sbag0
(g1
g2
(lp294
g0
(g1
g2
(lp295
g0
(g1
g2
(lp296
Vthe lion
p297
atp298
Rp299
(dp300
g11
S'start: 6'
p301
sbatp302
Rp303
(dp304
g11
S'sent: 6'
p305
sbag0
(g1
g2
(lp306
g0
(g1
g2
(lp307
Vthe lion
p308
atp309
Rp310
(dp311
g11
S'start: 9'
p312
sbatp313
Rp314
(dp315
g11
S'sent: 6'
p316
sbag0
(g1
g2
(lp317
g0
(g1
g2
(lp318
VThe lion
p319
atp320
Rp321
(dp322
g11
S'start: 1'
p323
sbatp324
Rp325
(dp326
g11
S'sent: 8'
p327
sbag0
(g1
g2
(lp328
g0
(g1
g2
(lp329
Vthe lion
p330
atp331
Rp332
(dp333
g11
S'start: 12'
p334
sbatp335
Rp336
(dp337
g11
S'sent: 9'
p338
sbatp339
Rp340
(dp341
g11
S'id: 23'
p342
sbag0
(g1
g2
(lp343
g0
(g1
g2
(lp344
g0
(g1
g2
(lp345
Va
p346
atp347
Rp348
(dp349
g11
S'start: 6'
p350
sbatp351
Rp352
(dp353
g11
S'sent: 8'
p354
sbag0
(g1
g2
(lp355
g0
(g1
g2
(lp356
Va spotted holder
p357
atp358
Rp359
(dp360
g11
S'start: 8'
p361
sbatp362
Rp363
(dp364
g11
S'sent: 8'
p365
sbatp366
Rp367
(dp368
g11
S'id: 35'
p369
sbag0
(g1
g2
(lp370
g0
(g1
g2
(lp371
g0
(g1
g2
(lp372
Vfour
p373
atp374
Rp375
(dp376
g11
S'start: 16'
p377
sbatp378
Rp379
(dp380
g11
S'sent: 11'
p381
sbag0
(g1
g2
(lp382
g0
(g1
g2
(lp383
Vfour
p384
atp385
Rp386
(dp387
g11
S'start: 8'
p388
sbatp389
Rp390
(dp391
g11
S'sent: 13'
p392
sbatp393
Rp394
(dp395
g11
S'id: 45'
p396
sbag0
(g1
g2
(lp397
g0
(g1
g2
(lp398
g0
(g1
g2
(lp399
Vthe circle
p400
atp401
Rp402
(dp403
g11
S'start: 8'
p404
sbatp405
Rp406
(dp407
g11
S'sent: 11'
p408
sbag0
(g1
g2
(lp409
g0
(g1
g2
(lp410
Vthe circle
p411
atp412
Rp413
(dp414
g11
S'start: 11'
p415
sbatp416
Rp417
(dp418
g11
S'sent: 11'
p419
sbatp420
Rp421
(dp422
g11
S'id: 48'
p423
sbag0
(g1
g2
(lp424
g0
(g1
g2
(lp425
g0
(g1
g2
(lp426
Vthe horse
p427
atp428
Rp429
(dp430
g11
S'start: 5'
p431
sbatp432
Rp433
(dp434
g11
S'sent: 12'
p435
sbag0
(g1
g2
(lp436
g0
(g1
g2
(lp437
VThe horse
p438
atp439
Rp440
(dp441
g11
S'start: 1'
p442
sbatp443
Rp444
(dp445
g11
S'sent: 14'
p446
sbatp447
Rp448
(dp449
g11
S'id: 54'
p450
sbag0
(g1
g2
(lp451
g0
(g1
g2
(lp452
g0
(g1
g2
(lp453
Vfive
p454
atp455
Rp456
(dp457
g11
S'start: 10'
p458
sbatp459
Rp460
(dp461
g11
S'sent: 13'
p462
sbag0
(g1
g2
(lp463
g0
(g1
g2
(lp464
Vfive
p465
atp466
Rp467
(dp468
g11
S'start: 12'
p469
sbatp470
Rp471
(dp472
g11
S'sent: 13'
p473
sbag0
(g1
g2
(lp474
g0
(g1
g2
(lp475
Vfive
p476
atp477
Rp478
(dp479
g11
S'start: 14'
p480
sbatp481
Rp482
(dp483
g11
S'sent: 13'
p484
sbatp485
Rp486
(dp487
g11
S'id: 65'
p488
sbag0
(g1
g2
(lp489
g0
(g1
g2
(lp490
g0
(g1
g2
(lp491
Vone , two , three , four , five , five
p492
atp493
Rp494
(dp495
g11
S'start: 2'
p496
sbatp497
Rp498
(dp499
g11
S'sent: 13'
p500
sbag0
(g1
g2
(lp501
g0
(g1
g2
(lp502
Vfive stretchers
p503
atp504
Rp505
(dp506
g11
S'start: 14'
p507
sbatp508
Rp509
(dp510
g11
S'sent: 13'
p511
sbatp512
Rp513
(dp514
g11
S'id: 69'
p515
sbatp516
Rp517
(dp518
g11
S'coreferences'
p519
sb.