ccopy_reg
_reconstructor
p0
(cnltk.tree
Tree
p1
c__builtin__
list
p2
(lp3
g0
(g1
g2
(lp4
g0
(g1
g2
(lp5
g0
(g1
g2
(lp6
g0
(g1
g2
(lp7
Vo
p8
atp9
Rp10
(dp11
S'_label'
p12
VNN
p13
sbatp14
Rp15
(dp16
g12
VNP
p17
sbag0
(g1
g2
(lp18
g0
(g1
g2
(lp19
Vman
p20
atp21
Rp22
(dp23
g12
VNN
p24
sbatp25
Rp26
(dp27
g12
VNP
p28
sbag0
(g1
g2
(lp29
V.
p30
atp31
Rp32
(dp33
g12
V.
p34
sbatp35
Rp36
(dp37
g12
VNP
p38
sbatp39
Rp40
(dp41
g12
S'id: 0'
p42
sbag0
(g1
g2
(lp43
g0
(g1
g2
(lp44
g0
(g1
g2
(lp45
g0
(g1
g2
(lp46
VNo
p47
atp48
Rp49
(dp50
g12
VDT
p51
sbatp52
Rp53
(dp54
g12
VNP
p55
sbag0
(g1
g2
(lp56
V.
p57
atp58
Rp59
(dp60
g12
V.
p61
sbatp62
Rp63
(dp64
g12
VFRAG
p65
sbatp66
Rp67
(dp68
g12
S'id: 1'
p69
sbag0
(g1
g2
(lp70
g0
(g1
g2
(lp71
g0
(g1
g2
(lp72
g0
(g1
g2
(lp73
VA.
p74
atp75
Rp76
(dp77
g12
VNN
p78
sbatp79
Rp80
(dp81
g12
VNP
p82
sbag0
(g1
g2
(lp83
g0
(g1
g2
(lp84
VMan
p85
atp86
Rp87
(dp88
g12
VNNP
p89
sbatp90
Rp91
(dp92
g12
VNP
p93
sbag0
(g1
g2
(lp94
V.
p95
atp96
Rp97
(dp98
g12
V.
p99
sbatp100
Rp101
(dp102
g12
VNP
p103
sbatp104
Rp105
(dp106
g12
S'id: 2'
p107
sbag0
(g1
g2
(lp108
g0
(g1
g2
(lp109
g0
(g1
g2
(lp110
g0
(g1
g2
(lp111
VMan
p112
atp113
Rp114
(dp115
g12
VNN
p116
sbatp117
Rp118
(dp119
g12
VNP
p120
sbag0
(g1
g2
(lp121
V,
p122
atp123
Rp124
(dp125
g12
V,
p126
sbag0
(g1
g2
(lp127
g0
(g1
g2
(lp128
Vif
p129
atp130
Rp131
(dp132
g12
VIN
p133
sbag0
(g1
g2
(lp134
g0
(g1
g2
(lp135
g0
(g1
g2
(lp136
VI
p137
atp138
Rp139
(dp140
g12
VPRP
p141
sbatp142
Rp143
(dp144
g12
VNP
p145
sbag0
(g1
g2
(lp146
g0
(g1
g2
(lp147
Vcould
p148
atp149
Rp150
(dp151
g12
VMD
p152
sbag0
(g1
g2
(lp153
g0
(g1
g2
(lp154
Vonly
p155
atp156
Rp157
(dp158
g12
VRB
p159
sbatp160
Rp161
(dp162
g12
VADVP
p163
sbatp164
Rp165
(dp166
g12
VVP
p167
sbatp168
Rp169
(dp170
g12
VS
p171
sbatp172
Rp173
(dp174
g12
VSBAR
p175
sbag0
(g1
g2
(lp176
V.
p177
atp178
Rp179
(dp180
g12
V.
p181
sbatp182
Rp183
(dp184
g12
VFRAG
p185
sbatp186
Rp187
(dp188
g12
S'id: 3'
p189
sbag0
(g1
g2
(lp190
g0
(g1
g2
(lp191
g0
(g1
g2
(lp192
g0
(g1
g2
(lp193
VWords
p194
atp195
Rp196
(dp197
g12
VNNS
p198
sbatp199
Rp200
(dp201
g12
VNP
p202
sbag0
(g1
g2
(lp203
V,
p204
atp205
Rp206
(dp207
g12
V,
p208
sbag0
(g1
g2
(lp209
g0
(g1
g2
(lp210
Vwords
p211
atp212
Rp213
(dp214
g12
VNNS
p215
sbatp216
Rp217
(dp218
g12
VNP
p219
sbag0
(g1
g2
(lp220
V.
p221
atp222
Rp223
(dp224
g12
V.
p225
sbatp226
Rp227
(dp228
g12
VNP
p229
sbatp230
Rp231
(dp232
g12
S'id: 4'
p233
sbag0
(g1
g2
(lp234
g0
(g1
g2
(lp235
g0
(g1
g2
(lp236
g0
(g1
g2
(lp237
VMay
p238
atp239
Rp240
(dp241
g12
VNNP
p242
sbatp243
Rp244
(dp245
g12
VNP-TMP
p246
sbag0
(g1
g2
(lp247
Vand
p248
atp249
Rp250
(dp251
g12
VCC
p252
sbag0
(g1
g2
(lp253
g0
(g1
g2
(lp254
g0
(g1
g2
(lp255
Vthere
p256
atp257
Rp258
(dp259
g12
VRB
p260
sbatp261
Rp262
(dp263
g12
VADVP
p264
sbag0
(g1
g2
(lp265
V,
p266
atp267
Rp268
(dp269
g12
V,
p270
sbag0
(g1
g2
(lp271
g0
(g1
g2
(lp272
Vmaybe
p273
atp274
Rp275
(dp276
g12
VRB
p277
sbatp278
Rp279
(dp280
g12
VADVP
p281
sbag0
(g1
g2
(lp282
V.
p283
atp284
Rp285
(dp286
g12
V.
p287
sbatp288
Rp289
(dp290
g12
VADVP
p291
sbatp292
Rp293
(dp294
g12
VUCP
p295
sbatp296
Rp297
(dp298
g12
S'id: 5'
p299
sbag0
(g1
g2
(lp300
g0
(g1
g2
(lp301
g0
(g1
g2
(lp302
g0
(g1
g2
(lp303
VHard
p304
atp305
Rp306
(dp307
g12
VJJ
p308
sbatp309
Rp310
(dp311
g12
VADJP
p312
sbag0
(g1
g2
(lp313
V.
p314
atp315
Rp316
(dp317
g12
V.
p318
sbatp319
Rp320
(dp321
g12
VFRAG
p322
sbatp323
Rp324
(dp325
g12
S'id: 6'
p326
sbag0
(g1
g2
(lp327
g0
(g1
g2
(lp328
g0
(g1
g2
(lp329
g0
(g1
g2
(lp330
VMaybe
p331
atp332
Rp333
(dp334
g12
VRB
p335
sbatp336
Rp337
(dp338
g12
VADVP
p339
sbag0
(g1
g2
(lp340
V.
p341
atp342
Rp343
(dp344
g12
V.
p345
sbatp346
Rp347
(dp348
g12
VFRAG
p349
sbatp350
Rp351
(dp352
g12
S'id: 7'
p353
sbag0
(g1
g2
(lp354
g0
(g1
g2
(lp355
g0
(g1
g2
(lp356
g0
(g1
g2
(lp357
VHard
p358
atp359
Rp360
(dp361
g12
VJJ
p362
sbatp363
Rp364
(dp365
g12
VADJP
p366
sbag0
(g1
g2
(lp367
V.
p368
atp369
Rp370
(dp371
g12
V.
p372
sbatp373
Rp374
(dp375
g12
VFRAG
p376
sbatp377
Rp378
(dp379
g12
S'id: 8'
p380
sbag0
(g1
g2
(lp381
g0
(g1
g2
(lp382
g0
(g1
g2
(lp383
g0
(g1
g2
(lp384
VNo
p385
atp386
Rp387
(dp388
g12
VDT
p389
sbatp390
Rp391
(dp392
g12
VNP
p393
sbag0
(g1
g2
(lp394
V.
p395
atp396
Rp397
(dp398
g12
V.
p399
sbatp400
Rp401
(dp402
g12
VFRAG
p403
sbatp404
Rp405
(dp406
g12
S'id: 9'
p407
sbag0
(g1
g2
(lp408
g0
(g1
g2
(lp409
g0
(g1
g2
(lp410
VMan
p411
atp412
Rp413
(dp414
g12
VNN
p415
sbag0
(g1
g2
(lp416
V.
p417
atp418
Rp419
(dp420
g12
V.
p421
sbatp422
Rp423
(dp424
g12
VNP
p425
sbatp426
Rp427
(dp428
g12
S'id: 10'
p429
sbag0
(g1
g2
(lp430
g0
(g1
g2
(lp431
g0
(g1
g2
(lp432
g0
(g1
g2
(lp433
VHard
p434
atp435
Rp436
(dp437
g12
VJJ
p438
sbatp439
Rp440
(dp441
g12
VADJP
p442
sbag0
(g1
g2
(lp443
V.
p444
atp445
Rp446
(dp447
g12
V.
p448
sbatp449
Rp450
(dp451
g12
VFRAG
p452
sbatp453
Rp454
(dp455
g12
S'id: 11'
p456
sbag0
(g1
g2
(lp457
g0
(g1
g2
(lp458
g0
(g1
g2
(lp459
g0
(g1
g2
(lp460
VI
p461
atp462
Rp463
(dp464
g12
VPRP
p465
sbatp466
Rp467
(dp468
g12
VNP
p469
sbag0
(g1
g2
(lp470
g0
(g1
g2
(lp471
Vdont
p472
atp473
Rp474
(dp475
g12
VVBP
p476
sbag0
(g1
g2
(lp477
g0
(g1
g2
(lp478
Vknow
p479
atp480
Rp481
(dp482
g12
VVB
p483
sbatp484
Rp485
(dp486
g12
VVP
p487
sbatp488
Rp489
(dp490
g12
VVP
p491
sbag0
(g1
g2
(lp492
V.
p493
atp494
Rp495
(dp496
g12
V.
p497
sbatp498
Rp499
(dp500
g12
VS
p501
sbatp502
Rp503
(dp504
g12
S'id: 12'
p505
sbag0
(g1
g2
(lp506
g0
(g1
g2
(lp507
g0
(g1
g2
(lp508
g0
(g1
g2
(lp509
VBaby
p510
atp511
Rp512
(dp513
g12
VNNP
p514
sbatp515
Rp516
(dp517
g12
VNP
p518
sbag0
(g1
g2
(lp519
V.
p520
atp521
Rp522
(dp523
g12
V.
p524
sbatp525
Rp526
(dp527
g12
VFRAG
p528
sbatp529
Rp530
(dp531
g12
S'id: 13'
p532
sbag0
(g1
g2
(lp533
g0
(g1
g2
(lp534
g0
(g1
g2
(lp535
g0
(g1
g2
(lp536
VBaby
p537
atp538
Rp539
(dp540
g12
VNNP
p541
sbatp542
Rp543
(dp544
g12
VNP
p545
sbag0
(g1
g2
(lp546
V.
p547
atp548
Rp549
(dp550
g12
V.
p551
sbatp552
Rp553
(dp554
g12
VFRAG
p555
sbatp556
Rp557
(dp558
g12
S'id: 14'
p559
sbag0
(g1
g2
(lp560
g0
(g1
g2
(lp561
g0
(g1
g2
(lp562
g0
(g1
g2
(lp563
VI
p564
atp565
Rp566
(dp567
g12
VPRP
p568
sbatp569
Rp570
(dp571
g12
VNP
p572
sbag0
(g1
g2
(lp573
g0
(g1
g2
(lp574
Vdont
p575
atp576
Rp577
(dp578
g12
VVBP
p579
sbag0
(g1
g2
(lp580
g0
(g1
g2
(lp581
Vknow
p582
atp583
Rp584
(dp585
g12
VVB
p586
sbatp587
Rp588
(dp589
g12
VVP
p590
sbatp591
Rp592
(dp593
g12
VVP
p594
sbatp595
Rp596
(dp597
g12
VS
p598
sbatp599
Rp600
(dp601
g12
S'id: 15'
p602
sbatp603
Rp604
(dp605
g12
S'sentences'
p606
sb.