ccopy_reg
_reconstructor
p0
(cnltk.tree
Tree
p1
c__builtin__
list
p2
(lp3
g0
(g1
g2
(lp4
g0
(g1
g2
(lp5
g0
(g1
g2
(lp6
(lp7
S'word: Dog, index: 1'
p8
aatp9
Rp10
(dp11
S'_label'
p12
Vnn
p13
sbag0
(g1
g2
(lp14
(lp15
S'word: no, index: 4'
p16
aatp17
Rp18
(dp19
g12
Vappos
p20
sbatp21
Rp22
(dp23
g12
S'word: cat, index: 2'
p24
sbatp25
Rp26
(dp27
g12
S'id: 0'
p28
sbag0
(g1
g2
(lp29
g0
(g1
g2
(lp30
g0
(g1
g2
(lp31
g0
(g1
g2
(lp32
g0
(g1
g2
(lp33
g0
(g1
g2
(lp34
g0
(g1
g2
(lp35
(lp36
S'word: a, index: 5'
p37
aatp38
Rp39
(dp40
g12
Vdet
p41
sbatp42
Rp43
(dp44
g12
S'word: dog, index: 6'
p45
sbatp46
Rp47
(dp48
g12
Vappos
p49
sbatp50
Rp51
(dp52
g12
S'word: ion, index: 3'
p53
sbatp54
Rp55
(dp56
g12
Vappos
p57
sbatp58
Rp59
(dp60
g12
S'word: Ion, index: 1'
p61
sbatp62
Rp63
(dp64
g12
S'id: 1'
p65
sbag0
(g1
g2
(lp66
g0
(g1
g2
(lp67
g0
(g1
g2
(lp68
(lp69
S'word: man, index: 6'
p70
aatp71
Rp72
(dp73
g12
Vdiscourse
p74
sbag0
(g1
g2
(lp75
g0
(g1
g2
(lp76
g0
(g1
g2
(lp77
(lp78
S'word: can-cant, index: 3'
p79
aatp80
Rp81
(dp82
g12
Vappos
p83
sbatp84
Rp85
(dp86
g12
S'word: Horse, index: 1'
p87
sbatp88
Rp89
(dp90
g12
Vnsubj
p91
sbatp92
Rp93
(dp94
g12
S'word: oh, index: 5'
p95
sbatp96
Rp97
(dp98
g12
S'id: 2'
p99
sbag0
(g1
g2
(lp100
g0
(g1
g2
(lp101
g0
(g1
g2
(lp102
(lp103
S'word: Gah, index: 1'
p104
aatp105
Rp106
(dp107
g12
Vnsubj
p108
sbag0
(g1
g2
(lp109
(lp110
S'word: it, index: 3'
p111
aatp112
Rp113
(dp114
g12
Vdobj
p115
sbatp116
Rp117
(dp118
g12
S'word: dang, index: 2'
p119
sbatp120
Rp121
(dp122
g12
S'id: 3'
p123
sbag0
(g1
g2
(lp124
tp125
Rp126
(dp127
g12
S'id: 4'
p128
sbag0
(g1
g2
(lp129
g0
(g1
g2
(lp130
g0
(g1
g2
(lp131
(lp132
S'word: A, index: 1'
p133
aatp134
Rp135
(dp136
g12
Vdet
p137
sbag0
(g1
g2
(lp138
(lp139
S'word: no, index: 4'
p140
aatp141
Rp142
(dp143
g12
Vappos
p144
sbatp145
Rp146
(dp147
g12
S'word: cat, index: 2'
p148
sbatp149
Rp150
(dp151
g12
S'id: 5'
p152
sbag0
(g1
g2
(lp153
g0
(g1
g2
(lp154
g0
(g1
g2
(lp155
(lp156
S'word: boy, index: 3'
p157
aatp158
Rp159
(dp160
g12
Vdep
p161
sbag0
(g1
g2
(lp162
(lp163
S'word: little, index: 5'
p164
aatp165
Rp166
(dp167
g12
Vamod
p168
sbag0
(g1
g2
(lp169
g0
(g1
g2
(lp170
g0
(g1
g2
(lp171
(lp172
S'word: two, index: 8'
p173
aatp174
Rp175
(dp176
g12
Vnum
p177
sbatp178
Rp179
(dp180
g12
S'word: babies, index: 9'
p181
sbatp182
Rp183
(dp184
g12
Vappos
p185
sbag0
(g1
g2
(lp186
(lp187
S'word: A, index: 1'
p188
aatp189
Rp190
(dp191
g12
Vdet
p192
sbatp193
Rp194
(dp195
g12
S'word: baby, index: 6'
p196
sbatp197
Rp198
(dp199
g12
S'id: 6'
p200
sbag0
(g1
g2
(lp201
g0
(g1
g2
(lp202
g0
(g1
g2
(lp203
(lp204
S'word: walking, index: 2'
p205
aatp206
Rp207
(dp208
g12
Vdep
p209
sbatp210
Rp211
(dp212
g12
S'word: Horse, index: 1'
p213
sbatp214
Rp215
(dp216
g12
S'id: 7'
p217
sbag0
(g1
g2
(lp218
g0
(g1
g2
(lp219
g0
(g1
g2
(lp220
(lp221
S'word: up, index: 2'
p222
aatp223
Rp224
(dp225
g12
Vdep
p226
sbatp227
Rp228
(dp229
g12
S'word: Boy, index: 1'
p230
sbatp231
Rp232
(dp233
g12
S'id: 8'
p234
sbatp235
Rp236
(dp237
g12
S'sentences'
p238
sb.