ccopy_reg
_reconstructor
p0
(cnltk.tree
Tree
p1
c__builtin__
list
p2
(lp3
g0
(g1
g2
(lp4
g0
(g1
g2
(lp5
g0
(g1
g2
(lp6
g0
(g1
g2
(lp7
VI
p8
atp9
Rp10
(dp11
S'_label'
p12
VPRP
p13
sbatp14
Rp15
(dp16
g12
VNP
p17
sbag0
(g1
g2
(lp18
g0
(g1
g2
(lp19
Vsee
p20
atp21
Rp22
(dp23
g12
VVBP
p24
sbag0
(g1
g2
(lp25
g0
(g1
g2
(lp26
g0
(g1
g2
(lp27
Va
p28
atp29
Rp30
(dp31
g12
VDT
p32
sbatp33
Rp34
(dp35
g12
VNP
p36
sbag0
(g1
g2
(lp37
V,
p38
atp39
Rp40
(dp41
g12
V,
p42
sbag0
(g1
g2
(lp43
g0
(g1
g2
(lp44
g0
(g1
g2
(lp45
Va
p46
atp47
Rp48
(dp49
g12
VDT
p50
sbag0
(g1
g2
(lp51
Vguy
p52
atp53
Rp54
(dp55
g12
VNN
p56
sbatp57
Rp58
(dp59
g12
VNP
p60
sbag0
(g1
g2
(lp61
g0
(g1
g2
(lp62
Vwalking
p63
atp64
Rp65
(dp66
g12
VVBG
p67
sbag0
(g1
g2
(lp68
g0
(g1
g2
(lp69
Va
p70
atp71
Rp72
(dp73
g12
VDT
p74
sbag0
(g1
g2
(lp75
Vrope
p76
atp77
Rp78
(dp79
g12
VNN
p80
sbatp81
Rp82
(dp83
g12
VNP
p84
sbatp85
Rp86
(dp87
g12
VVP
p88
sbatp89
Rp90
(dp91
g12
VNP
p92
sbatp93
Rp94
(dp95
g12
VNP
p96
sbatp97
Rp98
(dp99
g12
VVP
p100
sbag0
(g1
g2
(lp101
V.
p102
atp103
Rp104
(dp105
g12
V.
p106
sbatp107
Rp108
(dp109
g12
VS
p110
sbatp111
Rp112
(dp113
g12
S'id: 0'
p114
sbag0
(g1
g2
(lp115
g0
(g1
g2
(lp116
g0
(g1
g2
(lp117
g0
(g1
g2
(lp118
VClen
p119
atp120
Rp121
(dp122
g12
VNNP
p123
sbatp124
Rp125
(dp126
g12
VNP
p127
sbag0
(g1
g2
(lp128
V.
p129
atp130
Rp131
(dp132
g12
V.
p133
sbatp134
Rp135
(dp136
g12
VFRAG
p137
sbatp138
Rp139
(dp140
g12
S'id: 1'
p141
sbag0
(g1
g2
(lp142
g0
(g1
g2
(lp143
g0
(g1
g2
(lp144
g0
(g1
g2
(lp145
VI
p146
atp147
Rp148
(dp149
g12
VPRP
p150
sbatp151
Rp152
(dp153
g12
VNP
p154
sbag0
(g1
g2
(lp155
g0
(g1
g2
(lp156
Vdo
p157
atp158
Rp159
(dp160
g12
VVBP
p161
sbag0
(g1
g2
(lp162
Vn't
p163
atp164
Rp165
(dp166
g12
VRB
p167
sbag0
(g1
g2
(lp168
g0
(g1
g2
(lp169
Vknow
p170
atp171
Rp172
(dp173
g12
VVB
p174
sbag0
(g1
g2
(lp175
g0
(g1
g2
(lp176
g0
(g1
g2
(lp177
Vif
p178
atp179
Rp180
(dp181
g12
VIN
p182
sbag0
(g1
g2
(lp183
g0
(g1
g2
(lp184
g0
(g1
g2
(lp185
Vhe
p186
atp187
Rp188
(dp189
g12
VPRP
p190
sbatp191
Rp192
(dp193
g12
VNP
p194
sbag0
(g1
g2
(lp195
g0
(g1
g2
(lp196
Vgot
p197
atp198
Rp199
(dp200
g12
VVBD
p201
sbag0
(g1
g2
(lp202
g0
(g1
g2
(lp203
g0
(g1
g2
(lp204
Vpopcorn
p205
atp206
Rp207
(dp208
g12
VNN
p209
sbatp210
Rp211
(dp212
g12
VNP
p213
sbag0
(g1
g2
(lp214
g0
(g1
g2
(lp215
Vthowing
p216
atp217
Rp218
(dp219
g12
VVBG
p220
sbag0
(g1
g2
(lp221
g0
(g1
g2
(lp222
Vit
p223
atp224
Rp225
(dp226
g12
VPRP
p227
sbatp228
Rp229
(dp230
g12
VNP
p231
sbag0
(g1
g2
(lp232
g0
(g1
g2
(lp233
Vout
p234
atp235
Rp236
(dp237
g12
VRP
p238
sbatp239
Rp240
(dp241
g12
VPRT
p242
sbatp243
Rp244
(dp245
g12
VVP
p246
sbatp247
Rp248
(dp249
g12
VNP
p250
sbatp251
Rp252
(dp253
g12
VVP
p254
sbatp255
Rp256
(dp257
g12
VS
p258
sbatp259
Rp260
(dp261
g12
VSBAR
p262
sbag0
(g1
g2
(lp263
V,
p264
atp265
Rp266
(dp267
g12
V,
p268
sbag0
(g1
g2
(lp269
Vor
p270
atp271
Rp272
(dp273
g12
VCC
p274
sbag0
(g1
g2
(lp275
g0
(g1
g2
(lp276
g0
(g1
g2
(lp277
Vwhat
p278
atp279
Rp280
(dp281
g12
VWP
p282
sbatp283
Rp284
(dp285
g12
VWHNP
p286
sbatp287
Rp288
(dp289
g12
VFRAG
p290
sbatp291
Rp292
(dp293
g12
VSBAR
p294
sbatp295
Rp296
(dp297
g12
VVP
p298
sbatp299
Rp300
(dp301
g12
VVP
p302
sbag0
(g1
g2
(lp303
V.
p304
atp305
Rp306
(dp307
g12
V.
p308
sbatp309
Rp310
(dp311
g12
VS
p312
sbatp313
Rp314
(dp315
g12
S'id: 2'
p316
sbag0
(g1
g2
(lp317
g0
(g1
g2
(lp318
g0
(g1
g2
(lp319
VAnd
p320
atp321
Rp322
(dp323
g12
VCC
p324
sbag0
(g1
g2
(lp325
g0
(g1
g2
(lp326
Vthe
p327
atp328
Rp329
(dp330
g12
VDT
p331
sbag0
(g1
g2
(lp332
Vlion
p333
atp334
Rp335
(dp336
g12
VNN
p337
sbag0
(g1
g2
(lp338
g0
(g1
g2
(lp339
g0
(g1
g2
(lp340
g0
(g1
g2
(lp341
Vbeing
p342
atp343
Rp344
(dp345
g12
VVBG
p346
sbag0
(g1
g2
(lp347
g0
(g1
g2
(lp348
Vtrained
p349
atp350
Rp351
(dp352
g12
VVBN
p353
sbatp354
Rp355
(dp356
g12
VVP
p357
sbatp358
Rp359
(dp360
g12
VVP
p361
sbatp362
Rp363
(dp364
g12
VS
p365
sbatp366
Rp367
(dp368
g12
VSBAR
p369
sbatp370
Rp371
(dp372
g12
VNP
p373
sbag0
(g1
g2
(lp374
V.
p375
atp376
Rp377
(dp378
g12
V.
p379
sbatp380
Rp381
(dp382
g12
VFRAG
p383
sbatp384
Rp385
(dp386
g12
S'id: 3'
p387
sbag0
(g1
g2
(lp388
g0
(g1
g2
(lp389
g0
(g1
g2
(lp390
g0
(g1
g2
(lp391
VI
p392
atp393
Rp394
(dp395
g12
VPRP
p396
sbatp397
Rp398
(dp399
g12
VNP
p400
sbag0
(g1
g2
(lp401
g0
(g1
g2
(lp402
Vsee
p403
atp404
Rp405
(dp406
g12
VVBP
p407
sbag0
(g1
g2
(lp408
g0
(g1
g2
(lp409
g0
(g1
g2
(lp410
Vfi
p411
atp412
Rp413
(dp414
g12
VNNS
p415
sbatp416
Rp417
(dp418
g12
VNP
p419
sbag0
(g1
g2
(lp420
V,
p421
atp422
Rp423
(dp424
g12
V,
p425
sbag0
(g1
g2
(lp426
g0
(g1
g2
(lp427
g0
(g1
g2
(lp428
Vfive
p429
atp430
Rp431
(dp432
g12
VCD
p433
sbag0
(g1
g2
(lp434
Vpeople
p435
atp436
Rp437
(dp438
g12
VNNS
p439
sbatp440
Rp441
(dp442
g12
VNP
p443
sbag0
(g1
g2
(lp444
g0
(g1
g2
(lp445
Vwatching
p446
atp447
Rp448
(dp449
g12
VVBG
p450
sbag0
(g1
g2
(lp451
g0
(g1
g2
(lp452
Vthe
p453
atp454
Rp455
(dp456
g12
VDT
p457
sbag0
(g1
g2
(lp458
Vclown
p459
atp460
Rp461
(dp462
g12
VNN
p463
sbatp464
Rp465
(dp466
g12
VNP
p467
sbatp468
Rp469
(dp470
g12
VVP
p471
sbatp472
Rp473
(dp474
g12
VNP
p475
sbatp476
Rp477
(dp478
g12
VNP
p479
sbatp480
Rp481
(dp482
g12
VVP
p483
sbag0
(g1
g2
(lp484
V.
p485
atp486
Rp487
(dp488
g12
V.
p489
sbatp490
Rp491
(dp492
g12
VS
p493
sbatp494
Rp495
(dp496
g12
S'id: 4'
p497
sbag0
(g1
g2
(lp498
g0
(g1
g2
(lp499
g0
(g1
g2
(lp500
g0
(g1
g2
(lp501
g0
(g1
g2
(lp502
g0
(g1
g2
(lp503
VFather
p504
atp505
Rp506
(dp507
g12
VNNP
p508
sbatp509
Rp510
(dp511
g12
VNP
p512
sbag0
(g1
g2
(lp513
Vand
p514
atp515
Rp516
(dp517
g12
VCC
p518
sbag0
(g1
g2
(lp519
g0
(g1
g2
(lp520
Va
p521
atp522
Rp523
(dp524
g12
VDT
p525
sbag0
(g1
g2
(lp526
Vdaughter
p527
atp528
Rp529
(dp530
g12
VNN
p531
sbag0
(g1
g2
(lp532
Vgether
p533
atp534
Rp535
(dp536
g12
VNN
p537
sbatp538
Rp539
(dp540
g12
VNP
p541
sbatp542
Rp543
(dp544
g12
VNP
p545
sbag0
(g1
g2
(lp546
V,
p547
atp548
Rp549
(dp550
g12
V,
p551
sbag0
(g1
g2
(lp552
Vand
p553
atp554
Rp555
(dp556
g12
VCC
p557
sbag0
(g1
g2
(lp558
g0
(g1
g2
(lp559
g0
(g1
g2
(lp560
Va
p561
atp562
Rp563
(dp564
g12
VDT
p565
sbag0
(g1
g2
(lp566
Vmother
p567
atp568
Rp569
(dp570
g12
VNN
p571
sbatp572
Rp573
(dp574
g12
VNP
p575
sbag0
(g1
g2
(lp576
Vand
p577
atp578
Rp579
(dp580
g12
VCC
p581
sbag0
(g1
g2
(lp582
g0
(g1
g2
(lp583
Vtwo
p584
atp585
Rp586
(dp587
g12
VCD
p588
sbag0
(g1
g2
(lp589
Vkids
p590
atp591
Rp592
(dp593
g12
VNNS
p594
sbatp595
Rp596
(dp597
g12
VNP
p598
sbatp599
Rp600
(dp601
g12
VNP
p602
sbatp603
Rp604
(dp605
g12
VNP
p606
sbag0
(g1
g2
(lp607
g0
(g1
g2
(lp608
Vtogether
p609
atp610
Rp611
(dp612
g12
VRB
p613
sbatp614
Rp615
(dp616
g12
VADJP
p617
sbag0
(g1
g2
(lp618
V.
p619
atp620
Rp621
(dp622
g12
V.
p623
sbatp624
Rp625
(dp626
g12
VNP
p627
sbatp628
Rp629
(dp630
g12
S'id: 5'
p631
sbag0
(g1
g2
(lp632
g0
(g1
g2
(lp633
g0
(g1
g2
(lp634
VAnd
p635
atp636
Rp637
(dp638
g12
VCC
p639
sbag0
(g1
g2
(lp640
g0
(g1
g2
(lp641
g0
(g1
g2
(lp642
Vtwo
p643
atp644
Rp645
(dp646
g12
VCD
p647
sbatp648
Rp649
(dp650
g12
VNP
p651
sbag0
(g1
g2
(lp652
V,
p653
atp654
Rp655
(dp656
g12
V,
p657
sbag0
(g1
g2
(lp658
g0
(g1
g2
(lp659
Vfour
p660
atp661
Rp662
(dp663
g12
VCD
p664
sbatp665
Rp666
(dp667
g12
VNP
p668
sbag0
(g1
g2
(lp669
V,
p670
atp671
Rp672
(dp673
g12
V,
p674
sbag0
(g1
g2
(lp675
g0
(g1
g2
(lp676
g0
(g1
g2
(lp677
Vfive
p678
atp679
Rp680
(dp681
g12
VCD
p682
sbag0
(g1
g2
(lp683
Vpeople
p684
atp685
Rp686
(dp687
g12
VNNS
p688
sbatp689
Rp690
(dp691
g12
VNP
p692
sbag0
(g1
g2
(lp693
g0
(g1
g2
(lp694
Vwatching
p695
atp696
Rp697
(dp698
g12
VVBG
p699
sbag0
(g1
g2
(lp700
g0
(g1
g2
(lp701
Vthe
p702
atp703
Rp704
(dp705
g12
VDT
p706
sbag0
(g1
g2
(lp707
Vpeople
p708
atp709
Rp710
(dp711
g12
VNNS
p712
sbatp713
Rp714
(dp715
g12
VNP
p716
sbag0
(g1
g2
(lp717
g0
(g1
g2
(lp718
g0
(g1
g2
(lp719
Vwalking
p720
atp721
Rp722
(dp723
g12
VVBG
p724
sbag0
(g1
g2
(lp725
g0
(g1
g2
(lp726
Vthe
p727
atp728
Rp729
(dp730
g12
VDT
p731
sbag0
(g1
g2
(lp732
Vrope
p733
atp734
Rp735
(dp736
g12
VNN
p737
sbatp738
Rp739
(dp740
g12
VNP
p741
sbatp742
Rp743
(dp744
g12
VVP
p745
sbatp746
Rp747
(dp748
g12
VS
p749
sbatp750
Rp751
(dp752
g12
VVP
p753
sbatp754
Rp755
(dp756
g12
VNP
p757
sbatp758
Rp759
(dp760
g12
VNP
p761
sbag0
(g1
g2
(lp762
V.
p763
atp764
Rp765
(dp766
g12
V.
p767
sbatp768
Rp769
(dp770
g12
VFRAG
p771
sbatp772
Rp773
(dp774
g12
S'id: 6'
p775
sbag0
(g1
g2
(lp776
g0
(g1
g2
(lp777
g0
(g1
g2
(lp778
g0
(g1
g2
(lp779
g0
(g1
g2
(lp780
VWoman
p781
atp782
Rp783
(dp784
g12
VNNP
p785
sbatp786
Rp787
(dp788
g12
VNP
p789
sbag0
(g1
g2
(lp790
g0
(g1
g2
(lp791
Von
p792
atp793
Rp794
(dp795
g12
VIN
p796
sbag0
(g1
g2
(lp797
g0
(g1
g2
(lp798
Vher
p799
atp800
Rp801
(dp802
g12
VPRP$
p803
sbag0
(g1
g2
(lp804
Vknees
p805
atp806
Rp807
(dp808
g12
VNNS
p809
sbatp810
Rp811
(dp812
g12
VNP
p813
sbatp814
Rp815
(dp816
g12
VPP
p817
sbatp818
Rp819
(dp820
g12
VNP
p821
sbag0
(g1
g2
(lp822
V,
p823
atp824
Rp825
(dp826
g12
V,
p827
sbag0
(g1
g2
(lp828
g0
(g1
g2
(lp829
Vriding
p830
atp831
Rp832
(dp833
g12
VVBG
p834
sbag0
(g1
g2
(lp835
g0
(g1
g2
(lp836
Von
p837
atp838
Rp839
(dp840
g12
VIN
p841
sbag0
(g1
g2
(lp842
g0
(g1
g2
(lp843
Va
p844
atp845
Rp846
(dp847
g12
VDT
p848
sbag0
(g1
g2
(lp849
Vhorse
p850
atp851
Rp852
(dp853
g12
VNN
p854
sbatp855
Rp856
(dp857
g12
VNP
p858
sbatp859
Rp860
(dp861
g12
VPP
p862
sbatp863
Rp864
(dp865
g12
VVP
p866
sbag0
(g1
g2
(lp867
V.
p868
atp869
Rp870
(dp871
g12
V.
p872
sbatp873
Rp874
(dp875
g12
VS
p876
sbatp877
Rp878
(dp879
g12
S'id: 7'
p880
sbatp881
Rp882
(dp883
g12
S'sentences'
p884
sb.