ccopy_reg
_reconstructor
p0
(cnltk.tree
Tree
p1
c__builtin__
list
p2
(lp3
g0
(g1
g2
(lp4
tp5
Rp6
(dp7
S'_label'
p8
S'id: 0'
p9
sbag0
(g1
g2
(lp10
g0
(g1
g2
(lp11
g0
(g1
g2
(lp12
(lp13
S'word: a, index: 3'
p14
aatp15
Rp16
(dp17
g8
Vdet
p18
sbag0
(g1
g2
(lp19
g0
(g1
g2
(lp20
g0
(g1
g2
(lp21
g0
(g1
g2
(lp22
g0
(g1
g2
(lp23
(lp24
S'word: like, index: 7'
p25
aatp26
Rp27
(dp28
g8
Vmark
p29
sbag0
(g1
g2
(lp30
(lp31
S'word: it, index: 8'
p32
aatp33
Rp34
(dp35
g8
Vnsubj
p36
sbag0
(g1
g2
(lp37
(lp38
S"word: 's, index: 9"
p39
aatp40
Rp41
(dp42
g8
Vcop
p43
sbag0
(g1
g2
(lp44
(lp45
S'word: a, index: 10'
p46
aatp47
Rp48
(dp49
g8
Vdet
p50
sbatp51
Rp52
(dp53
g8
S'word: lakeside, index: 11'
p54
sbatp55
Rp56
(dp57
g8
Vadvcl
p58
sbatp59
Rp60
(dp61
g8
S'word: looks, index: 6'
p62
sbatp63
Rp64
(dp65
g8
Vrcmod
p66
sbag0
(g1
g2
(lp67
(lp68
S'word: This, index: 1'
p69
aatp70
Rp71
(dp72
g8
Vnsubj
p73
sbag0
(g1
g2
(lp74
(lp75
S'word: is, index: 2'
p76
aatp77
Rp78
(dp79
g8
Vcop
p80
sbatp81
Rp82
(dp83
g8
S'word: picture, index: 4'
p84
sbatp85
Rp86
(dp87
g8
S'id: 1'
p88
sbag0
(g1
g2
(lp89
g0
(g1
g2
(lp90
g0
(g1
g2
(lp91
g0
(g1
g2
(lp92
g0
(g1
g2
(lp93
(lp94
S'word: two, index: 10'
p95
aatp96
Rp97
(dp98
g8
Vnum
p99
sbag0
(g1
g2
(lp100
(lp101
S'word: it, index: 13'
p102
aatp103
Rp104
(dp105
g8
Vprep
p106
sbatp107
Rp108
(dp109
g8
S'word: people, index: 11'
p110
sbatp111
Rp112
(dp113
g8
Vprep
p114
sbag0
(g1
g2
(lp115
(lp116
S'word: There, index: 1'
p117
aatp118
Rp119
(dp120
g8
Vexpl
p121
sbag0
(g1
g2
(lp122
g0
(g1
g2
(lp123
g0
(g1
g2
(lp124
(lp125
S'word: they, index: 15'
p126
aatp127
Rp128
(dp129
g8
Vnsubj
p130
sbag0
(g1
g2
(lp131
(lp132
S"word: 're, index: 16"
p133
aatp134
Rp135
(dp136
g8
Vaux
p137
sbag0
(g1
g2
(lp138
g0
(g1
g2
(lp139
g0
(g1
g2
(lp140
(lp141
S'word: shore, index: 22'
p142
aatp143
Rp144
(dp145
g8
Vprep
p146
sbag0
(g1
g2
(lp147
(lp148
S'word: the, index: 19'
p149
aatp150
Rp151
(dp152
g8
Vdet
p153
sbatp154
Rp155
(dp156
g8
S'word: people, index: 20'
p157
sbatp158
Rp159
(dp160
g8
Vprep
p161
sbatp162
Rp163
(dp164
g8
S'word: waving, index: 17'
p165
sbatp166
Rp167
(dp168
g8
Vconj
p169
sbag0
(g1
g2
(lp170
g0
(g1
g2
(lp171
g0
(g1
g2
(lp172
g0
(g1
g2
(lp173
g0
(g1
g2
(lp174
(lp175
S'word: the, index: 6'
p176
aatp177
Rp178
(dp179
g8
Vdet
p180
sbatp181
Rp182
(dp183
g8
S'word: lake, index: 7'
p184
sbatp185
Rp186
(dp187
g8
Vprep
p188
sbag0
(g1
g2
(lp189
(lp190
S'word: a, index: 3'
p191
aatp192
Rp193
(dp194
g8
Vdet
p195
sbatp196
Rp197
(dp198
g8
S'word: sailboat, index: 4'
p199
sbatp200
Rp201
(dp202
g8
Vnsubj
p203
sbatp204
Rp205
(dp206
g8
S'word: is, index: 2'
p207
sbatp208
Rp209
(dp210
g8
S'id: 2'
p211
sbag0
(g1
g2
(lp212
g0
(g1
g2
(lp213
g0
(g1
g2
(lp214
(lp215
S'word: There, index: 1'
p216
aatp217
Rp218
(dp219
g8
Vexpl
p220
sbag0
(g1
g2
(lp221
g0
(g1
g2
(lp222
g0
(g1
g2
(lp223
(lp224
S'word: a, index: 3'
p225
aatp226
Rp227
(dp228
g8
Vdet
p229
sbag0
(g1
g2
(lp230
g0
(g1
g2
(lp231
g0
(g1
g2
(lp232
(lp233
S'word: a, index: 6'
p234
aatp235
Rp236
(dp237
g8
Vdet
p238
sbatp239
Rp240
(dp241
g8
S'word: car, index: 7'
p242
sbatp243
Rp244
(dp245
g8
Vprep
p246
sbatp247
Rp248
(dp249
g8
S'word: house, index: 4'
p250
sbatp251
Rp252
(dp253
g8
Vnsubj
p254
sbag0
(g1
g2
(lp255
(lp256
S'word: there, index: 8'
p257
aatp258
Rp259
(dp260
g8
Vadvmod
p261
sbatp262
Rp263
(dp264
g8
S"word: 's, index: 2"
p265
sbatp266
Rp267
(dp268
g8
S'id: 3'
p269
sbag0
(g1
g2
(lp270
g0
(g1
g2
(lp271
g0
(g1
g2
(lp272
(lp273
S'word: he, index: 12'
p274
aatp275
Rp276
(dp277
g8
Vnsubj
p278
sbag0
(g1
g2
(lp279
(lp280
S'word: just, index: 13'
p281
aatp282
Rp283
(dp284
g8
Vadvmod
p285
sbag0
(g1
g2
(lp286
g0
(g1
g2
(lp287
g0
(g1
g2
(lp288
(lp289
S'word: a, index: 15'
p290
aatp291
Rp292
(dp293
g8
Vdet
p294
sbatp295
Rp296
(dp297
g8
S'word: fish, index: 16'
p298
sbatp299
Rp300
(dp301
g8
Vdobj
p302
sbag0
(g1
g2
(lp303
g0
(g1
g2
(lp304
g0
(g1
g2
(lp305
(lp306
S'word: And, index: 1'
p307
aatp308
Rp309
(dp310
g8
Vcc
p311
sbag0
(g1
g2
(lp312
(lp313
S'word: there, index: 2'
p314
aatp315
Rp316
(dp317
g8
Vexpl
p318
sbag0
(g1
g2
(lp319
g0
(g1
g2
(lp320
g0
(g1
g2
(lp321
(lp322
S'word: a, index: 4'
p323
aatp324
Rp325
(dp326
g8
Vdet
p327
sbag0
(g1
g2
(lp328
(lp329
S'word: out, index: 6'
p330
aatp331
Rp332
(dp333
g8
Vdep
p334
sbag0
(g1
g2
(lp335
g0
(g1
g2
(lp336
g0
(g1
g2
(lp337
(lp338
S'word: the, index: 8'
p339
aatp340
Rp341
(dp342
g8
Vdet
p343
sbag0
(g1
g2
(lp344
(lp345
S'word: pier, index: 9'
p346
aatp347
Rp348
(dp349
g8
Vnn
p350
sbatp351
Rp352
(dp353
g8
S'word: fishing, index: 10'
p354
sbatp355
Rp356
(dp357
g8
Vprep
p358
sbatp359
Rp360
(dp361
g8
S'word: man, index: 5'
p362
sbatp363
Rp364
(dp365
g8
Vnsubj
p366
sbatp367
Rp368
(dp369
g8
S"word: 's, index: 3"
p370
sbatp371
Rp372
(dp373
g8
Vccomp
p374
sbatp375
Rp376
(dp377
g8
S'word: caught, index: 14'
p378
sbatp379
Rp380
(dp381
g8
S'id: 4'
p382
sbag0
(g1
g2
(lp383
g0
(g1
g2
(lp384
g0
(g1
g2
(lp385
(lp386
S'word: He, index: 1'
p387
aatp388
Rp389
(dp390
g8
Vnsubj
p391
sbag0
(g1
g2
(lp392
g0
(g1
g2
(lp393
g0
(g1
g2
(lp394
(lp395
S'word: a, index: 4'
p396
aatp397
Rp398
(dp399
g8
Vdet
p400
sbatp401
Rp402
(dp403
g8
S'word: straw, index: 5'
p404
sbatp405
Rp406
(dp407
g8
Vprep
p408
sbag0
(g1
g2
(lp409
g0
(g1
g2
(lp410
g0
(g1
g2
(lp411
g0
(g1
g2
(lp412
g0
(g1
g2
(lp413
g0
(g1
g2
(lp414
g0
(g1
g2
(lp415
(lp416
S'word: the, index: 9'
p417
aatp418
Rp419
(dp420
g8
Vdet
p421
sbatp422
Rp423
(dp424
g8
S'word: sun, index: 10'
p425
sbatp426
Rp427
(dp428
g8
Vnpadvmod
p429
sbag0
(g1
g2
(lp430
g0
(g1
g2
(lp431
g0
(g1
g2
(lp432
(lp433
S'word: his, index: 13'
p434
aatp435
Rp436
(dp437
g8
Vposs
p438
sbatp439
Rp440
(dp441
g8
S'word: face, index: 14'
p442
sbatp443
Rp444
(dp445
g8
Vprep
p446
sbatp447
Rp448
(dp449
g8
S'word: keeping, index: 8'
p450
sbatp451
Rp452
(dp453
g8
Vvmod
p454
sbatp455
Rp456
(dp457
g8
S'word: hat, index: 6'
p458
sbatp459
Rp460
(dp461
g8
Vdobj
p462
sbatp463
Rp464
(dp465
g8
S'word: has, index: 2'
p466
sbatp467
Rp468
(dp469
g8
S'id: 5'
p470
sbag0
(g1
g2
(lp471
g0
(g1
g2
(lp472
g0
(g1
g2
(lp473
g0
(g1
g2
(lp474
g0
(g1
g2
(lp475
g0
(g1
g2
(lp476
g0
(g1
g2
(lp477
(lp478
S'word: a, index: 3'
p479
aatp480
Rp481
(dp482
g8
Vdet
p483
sbag0
(g1
g2
(lp484
(lp485
S'word: little, index: 4'
p486
aatp487
Rp488
(dp489
g8
Vamod
p490
sbag0
(g1
g2
(lp491
(lp492
S'word: girl, index: 5'
p493
aatp494
Rp495
(dp496
g8
Vnn
p497
sbag0
(g1
g2
(lp498
g0
(g1
g2
(lp499
g0
(g1
g2
(lp500
(lp501
S'word: the, index: 8'
p502
aatp503
Rp504
(dp505
g8
Vdet
p506
sbatp507
Rp508
(dp509
g8
S'word: sand, index: 9'
p510
sbatp511
Rp512
(dp513
g8
Vprep
p514
sbatp515
Rp516
(dp517
g8
S'word: playing, index: 6'
p518
sbatp519
Rp520
(dp521
g8
Vnsubj
p522
sbag0
(g1
g2
(lp523
(lp524
S'word: There, index: 1'
p525
aatp526
Rp527
(dp528
g8
Vexpl
p529
sbatp530
Rp531
(dp532
g8
S"word: 's, index: 2"
p533
sbatp534
Rp535
(dp536
g8
Vccomp
p537
sbag0
(g1
g2
(lp538
(lp539
S'word: she, index: 11'
p540
aatp541
Rp542
(dp543
g8
Vnsubjpass
p544
sbag0
(g1
g2
(lp545
(lp546
S"word: 's, index: 12"
p547
aatp548
Rp549
(dp550
g8
Vauxpass
p551
sbag0
(g1
g2
(lp552
g0
(g1
g2
(lp553
g0
(g1
g2
(lp554
(lp555
S'word: a, index: 14'
p556
aatp557
Rp558
(dp559
g8
Vdet
p560
sbag0
(g1
g2
(lp561
g0
(g1
g2
(lp562
g0
(g1
g2
(lp563
g0
(g1
g2
(lp564
g0
(g1
g2
(lp565
(lp566
S'word: like, index: 18'
p567
aatp568
Rp569
(dp570
g8
Vmark
p571
sbag0
(g1
g2
(lp572
(lp573
S'word: she, index: 19'
p574
aatp575
Rp576
(dp577
g8
Vnsubj
p578
sbag0
(g1
g2
(lp579
(lp580
S"word: 's, index: 20"
p581
aatp582
Rp583
(dp584
g8
Vaux
p585
sbag0
(g1
g2
(lp586
(lp587
S'word: really, index: 21'
p588
aatp589
Rp590
(dp591
g8
Vadvmod
p592
sbag0
(g1
g2
(lp593
(lp594
S'word: herself, index: 23'
p595
aatp596
Rp597
(dp598
g8
Vdobj
p599
sbatp600
Rp601
(dp602
g8
S'word: enjoying, index: 22'
p603
sbatp604
Rp605
(dp606
g8
Vadvcl
p607
sbatp608
Rp609
(dp610
g8
S'word: looks, index: 17'
p611
sbatp612
Rp613
(dp614
g8
Vrcmod
p615
sbatp616
Rp617
(dp618
g8
S'word: sandcastle, index: 15'
p619
sbatp620
Rp621
(dp622
g8
Vdobj
p623
sbatp624
Rp625
(dp626
g8
S'word: built, index: 13'
p627
sbatp628
Rp629
(dp630
g8
S'id: 6'
p631
sbag0
(g1
g2
(lp632
g0
(g1
g2
(lp633
g0
(g1
g2
(lp634
(lp635
S'word: she, index: 14'
p636
aatp637
Rp638
(dp639
g8
Vnsubj
p640
sbag0
(g1
g2
(lp641
(lp642
S"word: 's, index: 15"
p643
aatp644
Rp645
(dp646
g8
Vaux
p647
sbag0
(g1
g2
(lp648
g0
(g1
g2
(lp649
g0
(g1
g2
(lp650
g0
(g1
g2
(lp651
g0
(g1
g2
(lp652
(lp653
S'word: a, index: 6'
p654
aatp655
Rp656
(dp657
g8
Vdet
p658
sbatp659
Rp660
(dp661
g8
S'word: man, index: 7'
p662
sbatp663
Rp664
(dp665
g8
Vnsubj
p666
sbag0
(g1
g2
(lp667
g0
(g1
g2
(lp668
g0
(g1
g2
(lp669
g0
(g1
g2
(lp670
g0
(g1
g2
(lp671
(lp672
S'word: a, index: 10'
p673
aatp674
Rp675
(dp676
g8
Vdet
p677
sbag0
(g1
g2
(lp678
(lp679
S'word: picnic, index: 11'
p680
aatp681
Rp682
(dp683
g8
Vnn
p684
sbatp685
Rp686
(dp687
g8
S'word: lunch, index: 12'
p688
sbatp689
Rp690
(dp691
g8
Vdobj
p692
sbatp693
Rp694
(dp695
g8
S'word: having, index: 9'
p696
sbatp697
Rp698
(dp699
g8
Vvmod
p700
sbag0
(g1
g2
(lp701
(lp702
S'word: There, index: 1'
p703
aatp704
Rp705
(dp706
g8
Vexpl
p707
sbag0
(g1
g2
(lp708
g0
(g1
g2
(lp709
g0
(g1
g2
(lp710
g660
atp711
Rp712
(dp713
g8
Vconj
p714
sbag0
(g1
g2
(lp715
(lp716
S'word: a, index: 3'
p717
aatp718
Rp719
(dp720
g8
Vdet
p721
sbatp722
Rp723
(dp724
g8
S'word: lady, index: 4'
p725
sbatp726
Rp727
(dp728
g8
Vnsubj
p729
sbatp730
Rp731
(dp732
g8
S"word: 's, index: 2"
p733
sbatp734
Rp735
(dp736
g8
Vccomp
p737
sbag0
(g1
g2
(lp738
g0
(g1
g2
(lp739
g0
(g1
g2
(lp740
(lp741
S'word: them, index: 17'
p742
aatp743
Rp744
(dp745
g8
Vnsubj
p746
sbag0
(g1
g2
(lp747
g0
(g1
g2
(lp748
g0
(g1
g2
(lp749
g0
(g1
g2
(lp750
g0
(g1
g2
(lp751
(lp752
S'word: to, index: 20'
p753
aatp754
Rp755
(dp756
g8
Vaux
p757
sbatp758
Rp759
(dp760
g8
S'word: drink, index: 21'
p761
sbatp762
Rp763
(dp764
g8
Vxcomp
p765
sbatp766
Rp767
(dp768
g8
S'word: cold, index: 19'
p769
sbatp770
Rp771
(dp772
g8
Vamod
p773
sbatp774
Rp775
(dp776
g8
S'word: something, index: 18'
p777
sbatp778
Rp779
(dp780
g8
Vxcomp
p781
sbatp782
Rp783
(dp784
g8
S'word: pouring, index: 16'
p785
sbatp786
Rp787
(dp788
g8
S'id: 7'
p789
sbag0
(g1
g2
(lp790
g0
(g1
g2
(lp791
g0
(g1
g2
(lp792
(lp793
S'word: They, index: 1'
p794
aatp795
Rp796
(dp797
g8
Vnsubj
p798
sbag0
(g1
g2
(lp799
g0
(g1
g2
(lp800
g0
(g1
g2
(lp801
g0
(g1
g2
(lp802
g0
(g1
g2
(lp803
(lp804
S'word: music, index: 10'
p805
aatp806
Rp807
(dp808
g8
Vprep
p809
sbag0
(g1
g2
(lp810
(lp811
S'word: so, index: 5'
p812
aatp813
Rp814
(dp815
g8
Vmark
p816
sbag0
(g1
g2
(lp817
(lp818
S'word: they, index: 6'
p819
aatp820
Rp821
(dp822
g8
Vnsubj
p823
sbag0
(g1
g2
(lp824
(lp825
S'word: can, index: 7'
p826
aatp827
Rp828
(dp829
g8
Vaux
p830
sbatp831
Rp832
(dp833
g8
S'word: listen, index: 8'
p834
sbatp835
Rp836
(dp837
g8
Vrcmod
p838
sbag0
(g1
g2
(lp839
(lp840
S'word: a, index: 3'
p841
aatp842
Rp843
(dp844
g8
Vdet
p845
sbatp846
Rp847
(dp848
g8
S'word: radio, index: 4'
p849
sbatp850
Rp851
(dp852
g8
Vdobj
p853
sbatp854
Rp855
(dp856
g8
S'word: have, index: 2'
p857
sbatp858
Rp859
(dp860
g8
S'id: 8'
p861
sbag0
(g1
g2
(lp862
g0
(g1
g2
(lp863
g0
(g1
g2
(lp864
g0
(g1
g2
(lp865
g0
(g1
g2
(lp866
(lp867
S'word: The, index: 1'
p868
aatp869
Rp870
(dp871
g8
Vdet
p872
sbatp873
Rp874
(dp875
g8
S'word: man, index: 2'
p876
sbatp877
Rp878
(dp879
g8
Vnsubj
p880
sbag0
(g1
g2
(lp881
(lp882
S'word: is, index: 3'
p883
aatp884
Rp885
(dp886
g8
Vcop
p887
sbag0
(g1
g2
(lp888
(lp889
S'word: crah, index: 4'
p890
aatp891
Rp892
(dp893
g8
Vamod
p894
sbag0
(g1
g2
(lp895
(lp896
S'word: criss, index: 6'
p897
aatp898
Rp899
(dp900
g8
Vamod
p901
sbag0
(g1
g2
(lp902
(lp903
S'word: cross, index: 7'
p904
aatp905
Rp906
(dp907
g8
Vnn
p908
sbag0
(g1
g2
(lp909
g0
(g1
g2
(lp910
g0
(g1
g2
(lp911
g0
(g1
g2
(lp912
g0
(g1
g2
(lp913
(lp914
S'word: a, index: 11'
p915
aatp916
Rp917
(dp918
g8
Vdet
p919
sbatp920
Rp921
(dp922
g8
S'word: book, index: 12'
p923
sbatp924
Rp925
(dp926
g8
Vdobj
p927
sbatp928
Rp929
(dp930
g8
S'word: reading, index: 10'
p931
sbatp932
Rp933
(dp934
g8
Vvmod
p935
sbatp936
Rp937
(dp938
g8
S'word: applesauce, index: 8'
p939
sbatp940
Rp941
(dp942
g8
S'id: 9'
p943
sbag0
(g1
g2
(lp944
g0
(g1
g2
(lp945
g0
(g1
g2
(lp946
(lp947
S'word: There, index: 1'
p948
aatp949
Rp950
(dp951
g8
Vexpl
p952
sbag0
(g1
g2
(lp953
g0
(g1
g2
(lp954
g0
(g1
g2
(lp955
(lp956
S'word: a, index: 3'
p957
aatp958
Rp959
(dp960
g8
Vdet
p961
sbag0
(g1
g2
(lp962
(lp963
S'word: little, index: 4'
p964
aatp965
Rp966
(dp967
g8
Vamod
p968
sbag0
(g1
g2
(lp969
g0
(g1
g2
(lp970
g0
(g1
g2
(lp971
g0
(g1
g2
(lp972
g0
(g1
g2
(lp973
(lp974
S'word: really, index: 14'
p975
aatp976
Rp977
(dp978
g8
Vadvmod
p979
sbag0
(g1
g2
(lp980
g0
(g1
g2
(lp981
g0
(g1
g2
(lp982
(lp983
S'word: the, index: 16'
p984
aatp985
Rp986
(dp987
g8
Vdet
p988
sbatp989
Rp990
(dp991
g8
S'word: kite, index: 17'
p992
sbatp993
Rp994
(dp995
g8
Vdobj
p996
sbag0
(g1
g2
(lp997
(lp998
S'word: like, index: 11'
p999
aatp1000
Rp1001
(dp1002
g8
Vmark
p1003
sbag0
(g1
g2
(lp1004
(lp1005
S'word: he, index: 12'
p1006
aatp1007
Rp1008
(dp1009
g8
Vnsubj
p1010
sbag0
(g1
g2
(lp1011
(lp1012
S"word: 's, index: 13"
p1013
aatp1014
Rp1015
(dp1016
g8
Vaux
p1017
sbatp1018
Rp1019
(dp1020
g8
S'word: enjoying, index: 15'
p1021
sbatp1022
Rp1023
(dp1024
g8
Vadvcl
p1025
sbag0
(g1
g2
(lp1026
g0
(g1
g2
(lp1027
g0
(g1
g2
(lp1028
(lp1029
S'word: a, index: 7'
p1030
aatp1031
Rp1032
(dp1033
g8
Vdet
p1034
sbatp1035
Rp1036
(dp1037
g8
S'word: kite, index: 8'
p1038
sbatp1039
Rp1040
(dp1041
g8
Vdobj
p1042
sbag0
(g1
g2
(lp1043
(lp1044
S'word: looks, index: 10'
p1045
aatp1046
Rp1047
(dp1048
g8
Vdep
p1049
sbatp1050
Rp1051
(dp1052
g8
S'word: flying, index: 6'
p1053
sbatp1054
Rp1055
(dp1056
g8
Vdep
p1057
sbatp1058
Rp1059
(dp1060
g8
S'word: boy, index: 5'
p1061
sbatp1062
Rp1063
(dp1064
g8
Vnsubj
p1065
sbatp1066
Rp1067
(dp1068
g8
S'word: is, index: 2'
p1069
sbatp1070
Rp1071
(dp1072
g8
S'id: 10'
p1073
sbag0
(g1
g2
(lp1074
g0
(g1
g2
(lp1075
g0
(g1
g2
(lp1076
g0
(g1
g2
(lp1077
g0
(g1
g2
(lp1078
(lp1079
S'word: And, index: 1'
p1080
aatp1081
Rp1082
(dp1083
g8
Vcc
p1084
sbag0
(g1
g2
(lp1085
(lp1086
S'word: he, index: 2'
p1087
aatp1088
Rp1089
(dp1090
g8
Vnsubj
p1091
sbatp1092
Rp1093
(dp1094
g8
S'word: has, index: 3'
p1095
sbatp1096
Rp1097
(dp1098
g8
Vccomp
p1099
sbag0
(g1
g2
(lp1100
(lp1101
S'word: I, index: 5'
p1102
aatp1103
Rp1104
(dp1105
g8
Vnsubj
p1106
sbag0
(g1
g2
(lp1107
g0
(g1
g2
(lp1108
g0
(g1
g2
(lp1109
(lp1110
S'word: his, index: 8'
p1111
aatp1112
Rp1113
(dp1114
g8
Vposs
p1115
sbatp1116
Rp1117
(dp1118
g8
S'word: dog, index: 9'
p1119
sbatp1120
Rp1121
(dp1122
g8
Vdobj
p1123
sbag0
(g1
g2
(lp1124
(lp1125
S'word: him, index: 11'
p1126
aatp1127
Rp1128
(dp1129
g8
Vprep
p1130
sbatp1131
Rp1132
(dp1133
g8
S'word: guess, index: 6'
p1134
sbatp1135
Rp1136
(dp1137
g8
S'id: 11'
p1138
sbag0
(g1
g2
(lp1139
g0
(g1
g2
(lp1140
g0
(g1
g2
(lp1141
g0
(g1
g2
(lp1142
g0
(g1
g2
(lp1143
(lp1144
S'word: very, index: 3'
p1145
aatp1146
Rp1147
(dp1148
g8
Vadvmod
p1149
sbatp1150
Rp1151
(dp1152
g8
S'word: happy, index: 4'
p1153
sbatp1154
Rp1155
(dp1156
g8
Vacomp
p1157
sbag0
(g1
g2
(lp1158
g0
(g1
g2
(lp1159
g0
(g1
g2
(lp1160
g0
(g1
g2
(lp1161
g0
(g1
g2
(lp1162
(lp1163
S'word: the, index: 6'
p1164
aatp1165
Rp1166
(dp1167
g8
Vdet
p1168
sbag0
(g1
g2
(lp1169
(lp1170
S'word: little, index: 7'
p1171
aatp1172
Rp1173
(dp1174
g8
Vamod
p1175
sbatp1176
Rp1177
(dp1178
g8
S'word: boy, index: 8'
p1179
sbatp1180
Rp1181
(dp1182
g8
Vnsubj
p1183
sbag0
(g1
g2
(lp1184
g0
(g1
g2
(lp1185
g0
(g1
g2
(lp1186
(lp1187
S'word: very, index: 10'
p1188
aatp1189
Rp1190
(dp1191
g8
Vadvmod
p1192
sbatp1193
Rp1194
(dp1195
g8
S'word: happy, index: 11'
p1196
sbatp1197
Rp1198
(dp1199
g8
Vacomp
p1200
sbatp1201
Rp1202
(dp1203
g8
S'word: looks, index: 9'
p1204
sbatp1205
Rp1206
(dp1207
g8
Vparataxis
p1208
sbag0
(g1
g2
(lp1209
(lp1210
S'word: Dog, index: 1'
p1211
aatp1212
Rp1213
(dp1214
g8
Vnsubj
p1215
sbag0
(g1
g2
(lp1216
g0
(g1
g2
(lp1217
g0
(g1
g2
(lp1218
g0
(g1
g2
(lp1219
g0
(g1
g2
(lp1220
g0
(g1
g2
(lp1221
g0
(g1
g2
(lp1222
(lp1223
S'word: the, index: 15'
p1224
aatp1225
Rp1226
(dp1227
g8
Vdet
p1228
sbatp1229
Rp1230
(dp1231
g8
S'word: picture, index: 16'
p1232
sbatp1233
Rp1234
(dp1235
g8
Vprep
p1236
sbatp1237
Rp1238
(dp1239
g8
S'word: everybody, index: 13'
p1240
sbatp1241
Rp1242
(dp1243
g8
Vnsubj
p1244
sbag0
(g1
g2
(lp1245
g0
(g1
g2
(lp1246
g0
(g1
g2
(lp1247
(lp1248
S'word: really, index: 18'
p1249
aatp1250
Rp1251
(dp1252
g8
Vadvmod
p1253
sbatp1254
Rp1255
(dp1256
g8
S'word: happy, index: 19'
p1257
sbatp1258
Rp1259
(dp1260
g8
Vacomp
p1261
sbatp1262
Rp1263
(dp1264
g8
S'word: looks, index: 17'
p1265
sbatp1266
Rp1267
(dp1268
g8
Vparataxis
p1269
sbatp1270
Rp1271
(dp1272
g8
S'word: looks, index: 2'
p1273
sbatp1274
Rp1275
(dp1276
g8
S'id: 12'
p1277
sbag0
(g1
g2
(lp1278
g0
(g1
g2
(lp1279
g0
(g1
g2
(lp1280
g0
(g1
g2
(lp1281
g0
(g1
g2
(lp1282
g0
(g1
g2
(lp1283
g0
(g1
g2
(lp1284
(lp1285
S'word: like, index: 8'
p1286
aatp1287
Rp1288
(dp1289
g8
Vmark
p1290
sbag0
(g1
g2
(lp1291
(lp1292
S'word: it, index: 9'
p1293
aatp1294
Rp1295
(dp1296
g8
Vnsubj
p1297
sbag0
(g1
g2
(lp1298
(lp1299
S'word: would, index: 10'
p1300
aatp1301
Rp1302
(dp1303
g8
Vaux
p1304
sbag0
(g1
g2
(lp1305
(lp1306
S'word: be, index: 11'
p1307
aatp1308
Rp1309
(dp1310
g8
Vcop
p1311
sbag0
(g1
g2
(lp1312
(lp1313
S'word: a, index: 12'
p1314
aatp1315
Rp1316
(dp1317
g8
Vdet
p1318
sbag0
(g1
g2
(lp1319
g0
(g1
g2
(lp1320
g0
(g1
g2
(lp1321
(lp1322
S'word: really, index: 13'
p1323
aatp1324
Rp1325
(dp1326
g8
Vadvmod
p1327
sbatp1328
Rp1329
(dp1330
g8
S'word: nice, index: 14'
p1331
sbatp1332
Rp1333
(dp1334
g8
Vamod
p1335
sbag0
(g1
g2
(lp1336
(lp1337
S'word: summer, index: 15'
p1338
aatp1339
Rp1340
(dp1341
g8
Vnn
p1342
sbatp1343
Rp1344
(dp1345
g8
S'word: day, index: 16'
p1346
sbatp1347
Rp1348
(dp1349
g8
Vadvcl
p1350
sbatp1351
Rp1352
(dp1353
g8
S'word: looks, index: 7'
p1354
sbatp1355
Rp1356
(dp1357
g8
Vrcmod
p1358
sbag0
(g1
g2
(lp1359
(lp1360
S'word: It, index: 1'
p1361
aatp1362
Rp1363
(dp1364
g8
Vnsubj
p1365
sbag0
(g1
g2
(lp1366
(lp1367
S"word: 's, index: 2"
p1368
aatp1369
Rp1370
(dp1371
g8
Vcop
p1372
sbag0
(g1
g2
(lp1373
(lp1374
S'word: a, index: 3'
p1375
aatp1376
Rp1377
(dp1378
g8
Vdet
p1379
sbag0
(g1
g2
(lp1380
(lp1381
S'word: nice, index: 4'
p1382
aatp1383
Rp1384
(dp1385
g8
Vamod
p1386
sbatp1387
Rp1388
(dp1389
g8
S'word: driveway, index: 5'
p1390
sbatp1391
Rp1392
(dp1393
g8
S'id: 13'
p1394
sbag0
(g1
g2
(lp1395
g0
(g1
g2
(lp1396
g0
(g1
g2
(lp1397
(lp1398
S'word: There, index: 1'
p1399
aatp1400
Rp1401
(dp1402
g8
Vexpl
p1403
sbag0
(g1
g2
(lp1404
g0
(g1
g2
(lp1405
g0
(g1
g2
(lp1406
(lp1407
S'word: a, index: 3'
p1408
aatp1409
Rp1410
(dp1411
g8
Vdet
p1412
sbag0
(g1
g2
(lp1413
g0
(g1
g2
(lp1414
g0
(g1
g2
(lp1415
g0
(g1
g2
(lp1416
g0
(g1
g2
(lp1417
(lp1418
S'word: the, index: 7'
p1419
aatp1420
Rp1421
(dp1422
g8
Vdet
p1423
sbatp1424
Rp1425
(dp1426
g8
S'word: house, index: 8'
p1427
sbatp1428
Rp1429
(dp1430
g8
Vprep
p1431
sbatp1432
Rp1433
(dp1434
g8
S'word: flying, index: 5'
p1435
sbatp1436
Rp1437
(dp1438
g8
Vvmod
p1439
sbatp1440
Rp1441
(dp1442
g8
S'word: flag, index: 4'
p1443
sbatp1444
Rp1445
(dp1446
g8
Vnsubj
p1447
sbatp1448
Rp1449
(dp1450
g8
S"word: 's, index: 2"
p1451
sbatp1452
Rp1453
(dp1454
g8
S'id: 14'
p1455
sbag0
(g1
g2
(lp1456
g0
(g1
g2
(lp1457
g0
(g1
g2
(lp1458
(lp1459
S'word: Nice, index: 1'
p1460
aatp1461
Rp1462
(dp1463
g8
Vamod
p1464
sbag0
(g1
g2
(lp1465
(lp1466
S'word: shady, index: 2'
p1467
aatp1468
Rp1469
(dp1470
g8
Vamod
p1471
sbag0
(g1
g2
(lp1472
g0
(g1
g2
(lp1473
g0
(g1
g2
(lp1474
(lp1475
S'word: the, index: 5'
p1476
aatp1477
Rp1478
(dp1479
g8
Vdet
p1480
sbatp1481
Rp1482
(dp1483
g8
S'word: yard, index: 6'
p1484
sbatp1485
Rp1486
(dp1487
g8
Vprep
p1488
sbatp1489
Rp1490
(dp1491
g8
S'word: tree, index: 3'
p1492
sbatp1493
Rp1494
(dp1495
g8
S'id: 15'
p1496
sbag0
(g1
g2
(lp1497
g0
(g1
g2
(lp1498
g0
(g1
g2
(lp1499
(lp1500
S'word: And, index: 1'
p1501
aatp1502
Rp1503
(dp1504
g8
Vcc
p1505
sbag0
(g1
g2
(lp1506
g0
(g1
g2
(lp1507
g0
(g1
g2
(lp1508
(lp1509
S'word: the, index: 2'
p1510
aatp1511
Rp1512
(dp1513
g8
Vdet
p1514
sbatp1515
Rp1516
(dp1517
g8
S'word: man, index: 3'
p1518
sbatp1519
Rp1520
(dp1521
g8
Vnsubj
p1522
sbag0
(g1
g2
(lp1523
g0
(g1
g2
(lp1524
g0
(g1
g2
(lp1525
(lp1526
S'word: his, index: 5'
p1527
aatp1528
Rp1529
(dp1530
g8
Vposs
p1531
sbatp1532
Rp1533
(dp1534
g8
S'word: shoes, index: 6'
p1535
sbatp1536
Rp1537
(dp1538
g8
Vdobj
p1539
sbag0
(g1
g2
(lp1540
(lp1541
S'word: off, index: 7'
p1542
aatp1543
Rp1544
(dp1545
g8
Vprep
p1546
sbatp1547
Rp1548
(dp1549
g8
S'word: has, index: 4'
p1550
sbatp1551
Rp1552
(dp1553
g8
S'id: 16'
p1554
sbatp1555
Rp1556
(dp1557
g8
S'sentences'
p1558
sb.