ccopy_reg
_reconstructor
p0
(cnltk.tree
Tree
p1
c__builtin__
list
p2
(lp3
g0
(g1
g2
(lp4
g0
(g1
g2
(lp5
g0
(g1
g2
(lp6
g0
(g1
g2
(lp7
g0
(g1
g2
(lp8
(lp9
S'word: it, index: 2'
p10
aatp11
Rp12
(dp13
S'_label'
p14
Vdep
p15
sbatp16
Rp17
(dp18
g14
S'word: Gosh, index: 1'
p19
sbatp20
Rp21
(dp22
g14
Vnsubj
p23
sbag0
(g1
g2
(lp24
g0
(g1
g2
(lp25
g0
(g1
g2
(lp26
g0
(g1
g2
(lp27
g0
(g1
g2
(lp28
(lp29
S'word: same, index: 5'
p30
aatp31
Rp32
(dp33
g14
Vamod
p34
sbag0
(g1
g2
(lp35
g0
(g1
g2
(lp36
g0
(g1
g2
(lp37
(lp38
S'word: that, index: 7'
p39
aatp40
Rp41
(dp42
g14
Vmark
p43
sbag0
(g1
g2
(lp44
(lp45
S'word: we, index: 8'
p46
aatp47
Rp48
(dp49
g14
Vnsubj
p50
sbag0
(g1
g2
(lp51
(lp52
S'word: at, index: 10'
p53
aatp54
Rp55
(dp56
g14
Vprep
p57
sbatp58
Rp59
(dp60
g14
S'word: looked, index: 9'
p61
sbatp62
Rp63
(dp64
g14
Vdep
p65
sbatp66
Rp67
(dp68
g14
S'word: scene, index: 6'
p69
sbatp70
Rp71
(dp72
g14
Vdep
p73
sbatp74
Rp75
(dp76
g14
S'word: that, index: 4'
p77
sbatp78
Rp79
(dp80
g14
Vdep
p81
sbatp82
Rp83
(dp84
g14
S"word: 's, index: 3"
p85
sbatp86
Rp87
(dp88
g14
S'id: 0'
p89
sbag0
(g1
g2
(lp90
g0
(g1
g2
(lp91
g0
(g1
g2
(lp92
g0
(g1
g2
(lp93
g0
(g1
g2
(lp94
(lp95
S'word: the, index: 8'
p96
aatp97
Rp98
(dp99
g14
Vdet
p100
sbatp101
Rp102
(dp103
g14
S'word: beach, index: 9'
p104
sbatp105
Rp106
(dp107
g14
Vprep
p108
sbag0
(g1
g2
(lp109
g0
(g1
g2
(lp110
g0
(g1
g2
(lp111
(lp112
S'word: me, index: 3'
p113
aatp114
Rp115
(dp116
g14
Vprep
p117
sbag0
(g1
g2
(lp118
(lp119
S'word: everybody, index: 5'
p120
aatp121
Rp122
(dp123
g14
Vprep
p124
sbatp125
Rp126
(dp127
g14
S'word: Looks, index: 1'
p128
sbatp129
Rp130
(dp131
g14
Vcsubj
p132
sbatp133
Rp134
(dp135
g14
S'word: is, index: 6'
p136
sbatp137
Rp138
(dp139
g14
S'id: 1'
p140
sbag0
(g1
g2
(lp141
g0
(g1
g2
(lp142
g0
(g1
g2
(lp143
g0
(g1
g2
(lp144
g0
(g1
g2
(lp145
g0
(g1
g2
(lp146
g0
(g1
g2
(lp147
(lp148
S'word: the, index: 5'
p149
aatp150
Rp151
(dp152
g14
Vdet
p153
sbatp154
Rp155
(dp156
g14
S'word: house, index: 6'
p157
sbatp158
Rp159
(dp160
g14
Vnsubj
p161
sbag0
(g1
g2
(lp162
g0
(g1
g2
(lp163
g0
(g1
g2
(lp164
(lp165
S'word: the, index: 9'
p166
aatp167
Rp168
(dp169
g14
Vdet
p170
sbag0
(g1
g2
(lp171
(lp172
S'word: but, index: 12'
p173
aatp174
Rp175
(dp176
g14
Vadvmod
p177
sbatp178
Rp179
(dp180
g14
S'word: picture, index: 10'
p181
sbatp182
Rp183
(dp184
g14
Vprep
p185
sbag0
(g1
g2
(lp186
(lp187
S'word: why, index: 4'
p188
aatp189
Rp190
(dp191
g14
Vadvmod
p192
sbatp193
Rp194
(dp195
g14
S'word: is, index: 7'
p196
sbatp197
Rp198
(dp199
g14
Vccomp
p200
sbag0
(g1
g2
(lp201
(lp202
S'word: Do, index: 1'
p203
aatp204
Rp205
(dp206
g14
Vaux
p207
sbag0
(g1
g2
(lp208
(lp209
S"word: n't, index: 2"
p210
aatp211
Rp212
(dp213
g14
Vneg
p214
sbatp215
Rp216
(dp217
g14
S'word: understand, index: 3'
p218
sbatp219
Rp220
(dp221
g14
S'id: 2'
p222
sbag0
(g1
g2
(lp223
g0
(g1
g2
(lp224
g0
(g1
g2
(lp225
g0
(g1
g2
(lp226
g0
(g1
g2
(lp227
(lp228
S'word: The, index: 1'
p229
aatp230
Rp231
(dp232
g14
Vdet
p233
sbatp234
Rp235
(dp236
g14
S'word: son, index: 2'
p237
sbatp238
Rp239
(dp240
g14
Vnsubj
p241
sbag0
(g1
g2
(lp242
(lp243
S'word: is, index: 3'
p244
aatp245
Rp246
(dp247
g14
Vaux
p248
sbag0
(g1
g2
(lp249
g0
(g1
g2
(lp250
g0
(g1
g2
(lp251
(lp252
S'word: his, index: 6'
p253
aatp254
Rp255
(dp256
g14
Vposs
p257
sbatp258
Rp259
(dp260
g14
S'word: kite, index: 7'
p261
sbatp262
Rp263
(dp264
g14
Vprep
p265
sbag0
(g1
g2
(lp266
(lp267
S'word: again, index: 8'
p268
aatp269
Rp270
(dp271
g14
Vadvmod
p272
sbatp273
Rp274
(dp275
g14
S'word: playing, index: 4'
p276
sbatp277
Rp278
(dp279
g14
S'id: 3'
p280
sbag0
(g1
g2
(lp281
g0
(g1
g2
(lp282
g0
(g1
g2
(lp283
g0
(g1
g2
(lp284
g0
(g1
g2
(lp285
(lp286
S'word: The, index: 1'
p287
aatp288
Rp289
(dp290
g14
Vdet
p291
sbatp292
Rp293
(dp294
g14
S'word: dog, index: 2'
p295
sbatp296
Rp297
(dp298
g14
Vnsubj
p299
sbag0
(g1
g2
(lp300
(lp301
S'word: is, index: 3'
p302
aatp303
Rp304
(dp305
g14
Vaux
p306
sbag0
(g1
g2
(lp307
g0
(g1
g2
(lp308
g0
(g1
g2
(lp309
(lp310
S'word: the, index: 5'
p311
aatp312
Rp313
(dp314
g14
Vdet
p315
sbatp316
Rp317
(dp318
g14
S'word: son, index: 6'
p319
sbatp320
Rp321
(dp322
g14
Vdobj
p323
sbag0
(g1
g2
(lp324
g0
(g1
g2
(lp325
g0
(g1
g2
(lp326
g0
(g1
g2
(lp327
g0
(g1
g2
(lp328
(lp329
S'word: the, index: 30'
p330
aatp331
Rp332
(dp333
g14
Vdet
p334
sbag0
(g1
g2
(lp335
(lp336
S'word: radio, index: 31'
p337
aatp338
Rp339
(dp340
g14
Vnn
p341
sbatp342
Rp343
(dp344
g14
S'word: blasting, index: 32'
p345
sbatp346
Rp347
(dp348
g14
Vprep
p349
sbag0
(g1
g2
(lp350
g0
(g1
g2
(lp351
g0
(g1
g2
(lp352
(lp353
S'word: the, index: 21'
p354
aatp355
Rp356
(dp357
g14
Vdet
p358
sbatp359
Rp360
(dp361
g14
S'word: father, index: 22'
p362
sbatp363
Rp364
(dp365
g14
Vnsubj
p366
sbag0
(g1
g2
(lp367
(lp368
S'word: is, index: 23'
p369
aatp370
Rp371
(dp372
g14
Vaux
p373
sbag0
(g1
g2
(lp374
g0
(g1
g2
(lp375
g0
(g1
g2
(lp376
(lp377
S'word: his, index: 25'
p378
aatp379
Rp380
(dp381
g14
Vposs
p382
sbag0
(g1
g2
(lp383
(lp384
S'word: favorite, index: 26'
p385
aatp386
Rp387
(dp388
g14
Vamod
p389
sbatp390
Rp391
(dp392
g14
S'word: book, index: 27'
p393
sbatp394
Rp395
(dp396
g14
Vdobj
p397
sbatp398
Rp399
(dp400
g14
S'word: reading, index: 24'
p401
sbatp402
Rp403
(dp404
g14
Vconj
p405
sbag0
(g1
g2
(lp406
g0
(g1
g2
(lp407
g0
(g1
g2
(lp408
g0
(g1
g2
(lp409
g0
(g1
g2
(lp410
(lp411
S'word: she, index: 12'
p412
aatp413
Rp414
(dp415
g14
Vnsubj
p416
sbag0
(g1
g2
(lp417
(lp418
S"word: 's, index: 13"
p419
aatp420
Rp421
(dp422
g14
Vaux
p423
sbag0
(g1
g2
(lp424
g0
(g1
g2
(lp425
g0
(g1
g2
(lp426
(lp427
S'word: a, index: 15'
p428
aatp429
Rp430
(dp431
g14
Vdet
p432
sbag0
(g1
g2
(lp433
(lp434
S'word: wine, index: 18'
p435
aatp436
Rp437
(dp438
g14
Vprep
p439
sbatp440
Rp441
(dp442
g14
S'word: glass, index: 16'
p443
sbatp444
Rp445
(dp446
g14
Vdobj
p447
sbag0
(g1
g2
(lp448
(lp449
S'word: like, index: 11'
p450
aatp451
Rp452
(dp453
g14
Vmark
p454
sbatp455
Rp456
(dp457
g14
S'word: having, index: 14'
p458
sbatp459
Rp460
(dp461
g14
Vadvcl
p462
sbag0
(g1
g2
(lp463
g0
(g1
g2
(lp464
g0
(g1
g2
(lp465
(lp466
S'word: the, index: 8'
p467
aatp468
Rp469
(dp470
g14
Vdet
p471
sbatp472
Rp473
(dp474
g14
S'word: mother, index: 9'
p475
sbatp476
Rp477
(dp478
g14
Vnsubj
p479
sbatp480
Rp481
(dp482
g14
S'word: looks, index: 10'
p483
sbatp484
Rp485
(dp486
g14
Vdep
p487
sbatp488
Rp489
(dp490
g14
S'word: chasing, index: 4'
p491
sbatp492
Rp493
(dp494
g14
S'id: 4'
p495
sbag0
(g1
g2
(lp496
g0
(g1
g2
(lp497
g0
(g1
g2
(lp498
g0
(g1
g2
(lp499
g0
(g1
g2
(lp500
(lp501
S'word: The, index: 1'
p502
aatp503
Rp504
(dp505
g14
Vdet
p506
sbatp507
Rp508
(dp509
g14
S'word: sailboat, index: 2'
p510
sbatp511
Rp512
(dp513
g14
Vnsubj
p514
sbag0
(g1
g2
(lp515
g0
(g1
g2
(lp516
g0
(g1
g2
(lp517
g0
(g1
g2
(lp518
g0
(g1
g2
(lp519
(lp520
S'word: the, index: 6'
p521
aatp522
Rp523
(dp524
g14
Vdet
p525
sbag0
(g1
g2
(lp526
(lp527
S'word: high, index: 7'
p528
aatp529
Rp530
(dp531
g14
Vamod
p532
sbag0
(g1
g2
(lp533
g0
(g1
g2
(lp534
g0
(g1
g2
(lp535
g0
(g1
g2
(lp536
g0
(g1
g2
(lp537
(lp538
S'word: are, index: 16'
p539
aatp540
Rp541
(dp542
g14
Vaux
p543
sbag0
(g1
g2
(lp544
g0
(g1
g2
(lp545
g0
(g1
g2
(lp546
(lp547
S'word: a, index: 18'
p548
aatp549
Rp550
(dp551
g14
Vdet
p552
sbag0
(g1
g2
(lp553
(lp554
S'word: good, index: 19'
p555
aatp556
Rp557
(dp558
g14
Vamod
p559
sbatp560
Rp561
(dp562
g14
S'word: time, index: 20'
p563
sbatp564
Rp565
(dp566
g14
Vdobj
p567
sbag0
(g1
g2
(lp568
(lp569
S'word: like, index: 11'
p570
aatp571
Rp572
(dp573
g14
Vmark
p574
sbag0
(g1
g2
(lp575
g0
(g1
g2
(lp576
g0
(g1
g2
(lp577
(lp578
S'word: people, index: 15'
p579
aatp580
Rp581
(dp582
g14
Vprep
p583
sbag0
(g1
g2
(lp584
(lp585
S'word: a, index: 12'
p586
aatp587
Rp588
(dp589
g14
Vdet
p590
sbatp591
Rp592
(dp593
g14
S'word: couple, index: 13'
p594
sbatp595
Rp596
(dp597
g14
Vnsubj
p598
sbatp599
Rp600
(dp601
g14
S'word: having, index: 17'
p602
sbatp603
Rp604
(dp605
g14
Vadvcl
p606
sbatp607
Rp608
(dp609
g14
S'word: looks, index: 10'
p610
sbatp611
Rp612
(dp613
g14
Vdep
p614
sbatp615
Rp616
(dp617
g14
S'word: sea, index: 8'
p618
sbatp619
Rp620
(dp621
g14
Vprep
p622
sbag0
(g1
g2
(lp623
g0
(g1
g2
(lp624
g0
(g1
g2
(lp625
(lp626
S'word: the, index: 23'
p627
aatp628
Rp629
(dp630
g14
Vdet
p631
sbatp632
Rp633
(dp634
g14
S'word: sailboat, index: 24'
p635
sbatp636
Rp637
(dp638
g14
Vprep
p639
sbatp640
Rp641
(dp642
g14
S'word: out, index: 4'
p643
sbatp644
Rp645
(dp646
g14
Vadvmod
p647
sbatp648
Rp649
(dp650
g14
S'word: is, index: 3'
p651
sbatp652
Rp653
(dp654
g14
S'id: 5'
p655
sbag0
(g1
g2
(lp656
g0
(g1
g2
(lp657
g0
(g1
g2
(lp658
g0
(g1
g2
(lp659
g0
(g1
g2
(lp660
(lp661
S'word: the, index: 2'
p662
aatp663
Rp664
(dp665
g14
Vdet
p666
sbag0
(g1
g2
(lp667
(lp668
S'word: little, index: 3'
p669
aatp670
Rp671
(dp672
g14
Vamod
p673
sbatp674
Rp675
(dp676
g14
S'word: girl, index: 4'
p677
sbatp678
Rp679
(dp680
g14
Vnsubj
p681
sbag0
(g1
g2
(lp682
(lp683
S'word: is, index: 5'
p684
aatp685
Rp686
(dp687
g14
Vaux
p688
sbag0
(g1
g2
(lp689
g0
(g1
g2
(lp690
g0
(g1
g2
(lp691
(lp692
S'word: the, index: 8'
p693
aatp694
Rp695
(dp696
g14
Vdet
p697
sbatp698
Rp699
(dp700
g14
S'word: sandbox, index: 9'
p701
sbatp702
Rp703
(dp704
g14
Vprep
p705
sbag0
(g1
g2
(lp706
g0
(g1
g2
(lp707
g0
(g1
g2
(lp708
(lp709
S'word: the, index: 12'
p710
aatp711
Rp712
(dp713
g14
Vdet
p714
sbag0
(g1
g2
(lp715
(lp716
S'word: sand, index: 13'
p717
aatp718
Rp719
(dp720
g14
Vnn
p721
sbatp722
Rp723
(dp724
g14
S'word: dunes, index: 14'
p725
sbatp726
Rp727
(dp728
g14
Vprep
p729
sbag0
(g1
g2
(lp730
(lp731
S'word: And, index: 1'
p732
aatp733
Rp734
(dp735
g14
Vcc
p736
sbatp737
Rp738
(dp739
g14
S'word: playing, index: 6'
p740
sbatp741
Rp742
(dp743
g14
S'id: 6'
p744
sbag0
(g1
g2
(lp745
g0
(g1
g2
(lp746
g0
(g1
g2
(lp747
(lp748
S'word: fishing, index: 9'
p749
aatp750
Rp751
(dp752
g14
Vprep
p753
sbag0
(g1
g2
(lp754
g0
(g1
g2
(lp755
g0
(g1
g2
(lp756
(lp757
S'word: the, index: 12'
p758
aatp759
Rp760
(dp761
g14
Vdep
p762
sbatp763
Rp764
(dp765
g14
S'word: on, index: 11'
p766
sbatp767
Rp768
(dp769
g14
Vadvmod
p770
sbag0
(g1
g2
(lp771
g0
(g1
g2
(lp772
g0
(g1
g2
(lp773
(lp774
S'word: the, index: 15'
p775
aatp776
Rp777
(dp778
g14
Vdet
p779
sbatp780
Rp781
(dp782
g14
S'word: pier, index: 16'
p783
sbatp784
Rp785
(dp786
g14
Vprep
p787
sbag0
(g1
g2
(lp788
(lp789
S'word: And, index: 1'
p790
aatp791
Rp792
(dp793
g14
Vcc
p794
sbag0
(g1
g2
(lp795
g0
(g1
g2
(lp796
g0
(g1
g2
(lp797
g0
(g1
g2
(lp798
g0
(g1
g2
(lp799
(lp800
S'word: the, index: 5'
p801
aatp802
Rp803
(dp804
g14
Vdet
p805
sbatp806
Rp807
(dp808
g14
S'word: grandfather, index: 6'
p809
sbatp810
Rp811
(dp812
g14
Vappos
p813
sbag0
(g1
g2
(lp814
(lp815
S'word: the, index: 2'
p816
aatp817
Rp818
(dp819
g14
Vdet
p820
sbatp821
Rp822
(dp823
g14
S'word: father, index: 3'
p824
sbatp825
Rp826
(dp827
g14
Vnsubj
p828
sbatp829
Rp830
(dp831
g14
S'word: is, index: 7'
p832
sbatp833
Rp834
(dp835
g14
S'id: 7'
p836
sbag0
(g1
g2
(lp837
g0
(g1
g2
(lp838
g0
(g1
g2
(lp839
g0
(g1
g2
(lp840
g0
(g1
g2
(lp841
(lp842
S'word: to, index: 8'
p843
aatp844
Rp845
(dp846
g14
Vaux
p847
sbag0
(g1
g2
(lp848
g0
(g1
g2
(lp849
g0
(g1
g2
(lp850
(lp851
S'word: a, index: 10'
p852
aatp853
Rp854
(dp855
g14
Vdet
p856
sbag0
(g1
g2
(lp857
(lp858
S'word: picnic, index: 11'
p859
aatp860
Rp861
(dp862
g14
Vnn
p863
sbatp864
Rp865
(dp866
g14
S'word: lunch, index: 12'
p867
sbatp868
Rp869
(dp870
g14
Vdobj
p871
sbatp872
Rp873
(dp874
g14
S'word: enjoy, index: 9'
p875
sbatp876
Rp877
(dp878
g14
Vxcomp
p879
sbag0
(g1
g2
(lp880
g0
(g1
g2
(lp881
g0
(g1
g2
(lp882
g0
(g1
g2
(lp883
g0
(g1
g2
(lp884
g0
(g1
g2
(lp885
g0
(g1
g2
(lp886
(lp887
S'word: the, index: 26'
p888
aatp889
Rp890
(dp891
g14
Vdep
p892
sbatp893
Rp894
(dp895
g14
S'word: in, index: 25'
p896
sbatp897
Rp898
(dp899
g14
Vadvmod
p900
sbag0
(g1
g2
(lp901
g0
(g1
g2
(lp902
g0
(g1
g2
(lp903
(lp904
S'word: the, index: 29'
p905
aatp906
Rp907
(dp908
g14
Vdet
p909
sbatp910
Rp911
(dp912
g14
S'word: sand, index: 30'
p913
sbatp914
Rp915
(dp916
g14
Vprep
p917
sbag0
(g1
g2
(lp918
(lp919
S'word: so, index: 21'
p920
aatp921
Rp922
(dp923
g14
Vmark
p924
sbag0
(g1
g2
(lp925
(lp926
S'word: she, index: 22'
p927
aatp928
Rp929
(dp930
g14
Vnsubj
p931
sbag0
(g1
g2
(lp932
(lp933
S'word: can, index: 23'
p934
aatp935
Rp936
(dp937
g14
Vaux
p938
sbatp939
Rp940
(dp941
g14
S'word: walk, index: 24'
p942
sbatp943
Rp944
(dp945
g14
Vadvcl
p946
sbag0
(g1
g2
(lp947
(lp948
S'word: she, index: 15'
p949
aatp950
Rp951
(dp952
g14
Vnsubj
p953
sbag0
(g1
g2
(lp954
g0
(g1
g2
(lp955
g0
(g1
g2
(lp956
(lp957
S'word: a, index: 17'
p958
aatp959
Rp960
(dp961
g14
Vdet
p962
sbag0
(g1
g2
(lp963
(lp964
S'word: sandals, index: 20'
p965
aatp966
Rp967
(dp968
g14
Vprep
p969
sbatp970
Rp971
(dp972
g14
S'word: set, index: 18'
p973
sbatp974
Rp975
(dp976
g14
Vdobj
p977
sbatp978
Rp979
(dp980
g14
S'word: brought, index: 16'
p981
sbatp982
Rp983
(dp984
g14
Vconj
p985
sbag0
(g1
g2
(lp986
g0
(g1
g2
(lp987
g0
(g1
g2
(lp988
g0
(g1
g2
(lp989
g0
(g1
g2
(lp990
(lp991
S'word: the, index: 3'
p992
aatp993
Rp994
(dp995
g14
Vdet
p996
sbatp997
Rp998
(dp999
g14
S'word: couple, index: 4'
p1000
sbatp1001
Rp1002
(dp1003
g14
Vprep
p1004
sbatp1005
Rp1006
(dp1007
g14
S'word: Looks, index: 1'
p1008
sbatp1009
Rp1010
(dp1011
g14
Vcsubj
p1012
sbag0
(g1
g2
(lp1013
(lp1014
S'word: is, index: 5'
p1015
aatp1016
Rp1017
(dp1018
g14
Vaux
p1019
sbag0
(g1
g2
(lp1020
(lp1021
S'word: getting, index: 6'
p1022
aatp1023
Rp1024
(dp1025
g14
Vdep
p1026
sbatp1027
Rp1028
(dp1029
g14
S'word: ready, index: 7'
p1030
sbatp1031
Rp1032
(dp1033
g14
S'id: 8'
p1034
sbag0
(g1
g2
(lp1035
g0
(g1
g2
(lp1036
g0
(g1
g2
(lp1037
g0
(g1
g2
(lp1038
g0
(g1
g2
(lp1039
(lp1040
S'word: No, index: 1'
p1041
aatp1042
Rp1043
(dp1044
g14
Vdep
p1045
sbatp1046
Rp1047
(dp1048
g14
S'word: that, index: 2'
p1049
sbatp1050
Rp1051
(dp1052
g14
Vnsubj
p1053
sbag0
(g1
g2
(lp1054
(lp1055
S"word: 's, index: 3"
p1056
aatp1057
Rp1058
(dp1059
g14
Vcop
p1060
sbag0
(g1
g2
(lp1061
(lp1062
S'word: the, index: 4'
p1063
aatp1064
Rp1065
(dp1066
g14
Vdet
p1067
sbag0
(g1
g2
(lp1068
(lp1069
S"word: 's, index: 6"
p1070
aatp1071
Rp1072
(dp1073
g14
Vpossessive
p1074
sbag0
(g1
g2
(lp1075
(lp1076
S'word: now, index: 7'
p1077
aatp1078
Rp1079
(dp1080
g14
Vdep
p1081
sbatp1082
Rp1083
(dp1084
g14
S'word: father, index: 5'
p1085
sbatp1086
Rp1087
(dp1088
g14
S'id: 9'
p1089
sbag0
(g1
g2
(lp1090
g0
(g1
g2
(lp1091
g0
(g1
g2
(lp1092
(lp1093
S'word: He, index: 1'
p1094
aatp1095
Rp1096
(dp1097
g14
Vnsubj
p1098
sbag0
(g1
g2
(lp1099
g0
(g1
g2
(lp1100
g0
(g1
g2
(lp1101
(lp1102
S'word: the, index: 4'
p1103
aatp1104
Rp1105
(dp1106
g14
Vdet
p1107
sbag0
(g1
g2
(lp1108
(lp1109
S'word: mysterious, index: 5'
p1110
aatp1111
Rp1112
(dp1113
g14
Vamod
p1114
sbatp1115
Rp1116
(dp1117
g14
S'word: one, index: 6'
p1118
sbatp1119
Rp1120
(dp1121
g14
Vprep
p1122
sbatp1123
Rp1124
(dp1125
g14
S'word: looks, index: 2'
p1126
sbatp1127
Rp1128
(dp1129
g14
S'id: 10'
p1130
sbag0
(g1
g2
(lp1131
g0
(g1
g2
(lp1132
g0
(g1
g2
(lp1133
g0
(g1
g2
(lp1134
g0
(g1
g2
(lp1135
(lp1136
S'word: The, index: 1'
p1137
aatp1138
Rp1139
(dp1140
g14
Vdet
p1141
sbatp1142
Rp1143
(dp1144
g14
S'word: car, index: 2'
p1145
sbatp1146
Rp1147
(dp1148
g14
Vnsubj
p1149
sbag0
(g1
g2
(lp1150
(lp1151
S'word: still, index: 4'
p1152
aatp1153
Rp1154
(dp1155
g14
Vadvmod
p1156
sbag0
(g1
g2
(lp1157
g0
(g1
g2
(lp1158
g0
(g1
g2
(lp1159
(lp1160
S'word: the, index: 6'
p1161
aatp1162
Rp1163
(dp1164
g14
Vdet
p1165
sbatp1166
Rp1167
(dp1168
g14
S'word: driveway, index: 7'
p1169
sbatp1170
Rp1171
(dp1172
g14
Vprep
p1173
sbatp1174
Rp1175
(dp1176
g14
S'word: is, index: 3'
p1177
sbatp1178
Rp1179
(dp1180
g14
S'id: 11'
p1181
sbag0
(g1
g2
(lp1182
g0
(g1
g2
(lp1183
g0
(g1
g2
(lp1184
g0
(g1
g2
(lp1185
g0
(g1
g2
(lp1186
(lp1187
S'word: must, index: 4'
p1188
aatp1189
Rp1190
(dp1191
g14
Vaux
p1192
sbag0
(g1
g2
(lp1193
(lp1194
S'word: it, index: 7'
p1195
aatp1196
Rp1197
(dp1198
g14
Vprep
p1199
sbag0
(g1
g2
(lp1200
(lp1201
S'word: someone, index: 3'
p1202
aatp1203
Rp1204
(dp1205
g14
Vnsubj
p1206
sbatp1207
Rp1208
(dp1209
g14
S'word: live, index: 5'
p1210
sbatp1211
Rp1212
(dp1213
g14
Vccomp
p1214
sbag0
(g1
g2
(lp1215
(lp1216
S'word: I, index: 1'
p1217
aatp1218
Rp1219
(dp1220
g14
Vnsubj
p1221
sbatp1222
Rp1223
(dp1224
g14
S'word: suppose, index: 2'
p1225
sbatp1226
Rp1227
(dp1228
g14
S'id: 12'
p1229
sbag0
(g1
g2
(lp1230
g0
(g1
g2
(lp1231
g0
(g1
g2
(lp1232
g0
(g1
g2
(lp1233
g0
(g1
g2
(lp1234
(lp1235
S'word: full, index: 6'
p1236
aatp1237
Rp1238
(dp1239
g14
Vamod
p1240
sbatp1241
Rp1242
(dp1243
g14
S'word: mast, index: 7'
p1244
sbatp1245
Rp1246
(dp1247
g14
Vprep
p1248
sbag0
(g1
g2
(lp1249
g0
(g1
g2
(lp1250
g0
(g1
g2
(lp1251
(lp1252
S'word: The, index: 1'
p1253
aatp1254
Rp1255
(dp1256
g14
Vdet
p1257
sbatp1258
Rp1259
(dp1260
g14
S'word: flag, index: 2'
p1261
sbatp1262
Rp1263
(dp1264
g14
Vnsubj
p1265
sbag0
(g1
g2
(lp1266
(lp1267
S'word: is, index: 3'
p1268
aatp1269
Rp1270
(dp1271
g14
Vaux
p1272
sbatp1273
Rp1274
(dp1275
g14
S'word: flying, index: 4'
p1276
sbatp1277
Rp1278
(dp1279
g14
S'id: 13'
p1280
sbag0
(g1
g2
(lp1281
g0
(g1
g2
(lp1282
g0
(g1
g2
(lp1283
(lp1284
S'word: And, index: 1'
p1285
aatp1286
Rp1287
(dp1288
g14
Vcc
p1289
sbag0
(g1
g2
(lp1290
g0
(g1
g2
(lp1291
g0
(g1
g2
(lp1292
(lp1293
S'word: the, index: 2'
p1294
aatp1295
Rp1296
(dp1297
g14
Vdet
p1298
sbatp1299
Rp1300
(dp1301
g14
S'word: daughter, index: 3'
p1302
sbatp1303
Rp1304
(dp1305
g14
Vnsubj
p1306
sbag0
(g1
g2
(lp1307
g0
(g1
g2
(lp1308
g0
(g1
g2
(lp1309
(lp1310
S'word: is, index: 6'
p1311
aatp1312
Rp1313
(dp1314
g14
Vcop
p1315
sbag0
(g1
g2
(lp1316
g0
(g1
g2
(lp1317
g0
(g1
g2
(lp1318
g0
(g1
g2
(lp1319
g0
(g1
g2
(lp1320
(lp1321
S'word: sand, index: 10'
p1322
aatp1323
Rp1324
(dp1325
g14
Vnn
p1326
sbag0
(g1
g2
(lp1327
(lp1328
S'word: castle, index: 13'
p1329
aatp1330
Rp1331
(dp1332
g14
Vappos
p1333
sbag0
(g1
g2
(lp1334
(lp1335
S'word: a, index: 9'
p1336
aatp1337
Rp1338
(dp1339
g14
Vdet
p1340
sbatp1341
Rp1342
(dp1343
g14
S'word: dune, index: 11'
p1344
sbatp1345
Rp1346
(dp1347
g14
Vdobj
p1348
sbatp1349
Rp1350
(dp1351
g14
S'word: building, index: 8'
p1352
sbatp1353
Rp1354
(dp1355
g14
Vxcomp
p1356
sbatp1357
Rp1358
(dp1359
g14
S'word: busy, index: 7'
p1360
sbatp1361
Rp1362
(dp1363
g14
Vccomp
p1364
sbatp1365
Rp1366
(dp1367
g14
S'word: is, index: 4'
p1368
sbatp1369
Rp1370
(dp1371
g14
S'id: 14'
p1372
sbag0
(g1
g2
(lp1373
g0
(g1
g2
(lp1374
g0
(g1
g2
(lp1375
(lp1376
S'word: It, index: 1'
p1377
aatp1378
Rp1379
(dp1380
g14
Vnsubj
p1381
sbag0
(g1
g2
(lp1382
g0
(g1
g2
(lp1383
g0
(g1
g2
(lp1384
(lp1385
S'word: like, index: 3'
p1386
aatp1387
Rp1388
(dp1389
g14
Vmark
p1390
sbag0
(g1
g2
(lp1391
g0
(g1
g2
(lp1392
g0
(g1
g2
(lp1393
(lp1394
S'word: the, index: 4'
p1395
aatp1396
Rp1397
(dp1398
g14
Vdet
p1399
sbatp1400
Rp1401
(dp1402
g14
S'word: fish, index: 5'
p1403
sbatp1404
Rp1405
(dp1406
g14
Vnsubj
p1407
sbag0
(g1
g2
(lp1408
(lp1409
S'word: are, index: 6'
p1410
aatp1411
Rp1412
(dp1413
g14
Vaux
p1414
sbatp1415
Rp1416
(dp1417
g14
S'word: biting, index: 7'
p1418
sbatp1419
Rp1420
(dp1421
g14
Vadvcl
p1422
sbatp1423
Rp1424
(dp1425
g14
S'word: looks, index: 2'
p1426
sbatp1427
Rp1428
(dp1429
g14
S'id: 15'
p1430
sbag0
(g1
g2
(lp1431
g0
(g1
g2
(lp1432
g0
(g1
g2
(lp1433
(lp1434
S'word: I, index: 1'
p1435
aatp1436
Rp1437
(dp1438
g14
Vnsubj
p1439
sbag0
(g1
g2
(lp1440
g0
(g1
g2
(lp1441
g0
(g1
g2
(lp1442
(lp1443
S'word: I, index: 1'
p1444
aatp1445
Rp1446
(dp1447
g14
Vnsubj
p1448
sbag0
(g1
g2
(lp1449
g0
(g1
g2
(lp1450
g0
(g1
g2
(lp1451
(lp1452
S'word: like, index: 18'
p1453
aatp1454
Rp1455
(dp1456
g14
Vmark
p1457
sbag0
(g1
g2
(lp1458
(lp1459
S'word: she, index: 19'
p1460
aatp1461
Rp1462
(dp1463
g14
Vnsubj
p1464
sbatp1465
Rp1466
(dp1467
g14
S"word: 's, index: 20"
p1468
sbatp1469
Rp1470
(dp1471
g14
Vadvcl
p1472
sbatp1473
Rp1474
(dp1475
g14
S'word: looks, index: 17'
p1476
sbatp1477
Rp1478
(dp1479
g14
Vconj
p1480
sbag0
(g1
g2
(lp1481
(lp1482
S"word: 'm, index: 2"
p1483
aatp1484
Rp1485
(dp1486
g14
Vcop
p1487
sbag0
(g1
g2
(lp1488
(lp1489
S'word: not, index: 3'
p1490
aatp1491
Rp1492
(dp1493
g14
Vneg
p1494
sbag0
(g1
g2
(lp1495
g0
(g1
g2
(lp1496
g0
(g1
g2
(lp1497
(lp1498
S'word: who, index: 5'
p1499
aatp1500
Rp1501
(dp1502
g14
Vnsubj
p1503
sbag0
(g1
g2
(lp1504
(lp1505
S"word: 's, index: 6"
p1506
aatp1507
Rp1508
(dp1509
g14
Vaux
p1510
sbag0
(g1
g2
(lp1511
g0
(g1
g2
(lp1512
g0
(g1
g2
(lp1513
(lp1514
S'word: na, index: 8'
p1515
aatp1516
Rp1517
(dp1518
g14
Vaux
p1519
sbag0
(g1
g2
(lp1520
(lp1521
S'word: up, index: 10'
p1522
aatp1523
Rp1524
(dp1525
g14
Vprt
p1526
sbag0
(g1
g2
(lp1527
g0
(g1
g2
(lp1528
g0
(g1
g2
(lp1529
(lp1530
S'word: that, index: 11'
p1531
aatp1532
Rp1533
(dp1534
g14
Vdet
p1535
sbag0
(g1
g2
(lp1536
(lp1537
S'word: wine, index: 14'
p1538
aatp1539
Rp1540
(dp1541
g14
Vprep
p1542
sbatp1543
Rp1544
(dp1545
g14
S'word: glass, index: 12'
p1546
sbatp1547
Rp1548
(dp1549
g14
Vdobj
p1550
sbatp1551
Rp1552
(dp1553
g14
S'word: wind, index: 9'
p1554
sbatp1555
Rp1556
(dp1557
g14
Vxcomp
p1558
sbatp1559
Rp1560
(dp1561
g14
S'word: gon, index: 7'
p1562
sbatp1563
Rp1564
(dp1565
g14
Vccomp
p1566
sbatp1567
Rp1568
(dp1569
g14
S'word: sure, index: 4'
p1570
sbatp1571
Rp1572
(dp1573
g14
S'id: 16'
p1574
sbatp1575
Rp1576
(dp1577
g14
S'sentences'
p1578
sb.