ccopy_reg
_reconstructor
p0
(cnltk.tree
Tree
p1
c__builtin__
list
p2
(lp3
g0
(g1
g2
(lp4
g0
(g1
g2
(lp5
g0
(g1
g2
(lp6
(lp7
S'word: huh, index: 1'
p8
aatp9
Rp10
(dp11
S'_label'
p12
Vadvmod
p13
sbatp14
Rp15
(dp16
g12
S'word: ready, index: 2'
p17
sbatp18
Rp19
(dp20
g12
S'id: 0'
p21
sbatp22
Rp23
(dp24
g12
S'sentences'
p25
sb.