ccopy_reg
_reconstructor
p0
(cnltk.tree
Tree
p1
c__builtin__
list
p2
(lp3
g0
(g1
g2
(lp4
g0
(g1
g2
(lp5
g0
(g1
g2
(lp6
Vthat
p7
atp8
Rp9
(dp10
S'_label'
p11
S'start: 1'
p12
sbatp13
Rp14
(dp15
g11
S'sent: 1'
p16
sbag0
(g1
g2
(lp17
g0
(g1
g2
(lp18
Vthe mom , the , the , the son , and the , the girl
p19
atp20
Rp21
(dp22
g11
S'start: 3'
p23
sbatp24
Rp25
(dp26
g11
S'sent: 1'
p27
sbag0
(g1
g2
(lp28
g0
(g1
g2
(lp29
Vthey
p30
atp31
Rp32
(dp33
g11
S'start: 9'
p34
sbatp35
Rp36
(dp37
g11
S'sent: 2'
p38
sbatp39
Rp40
(dp41
g11
S'id: 1'
p42
sbag0
(g1
g2
(lp43
g0
(g1
g2
(lp44
g0
(g1
g2
(lp45
Vthe mom
p46
atp47
Rp48
(dp49
g11
S'start: 3'
p50
sbatp51
Rp52
(dp53
g11
S'sent: 1'
p54
sbag0
(g1
g2
(lp55
g0
(g1
g2
(lp56
VShe
p57
atp58
Rp59
(dp60
g11
S'start: 1'
p61
sbatp62
Rp63
(dp64
g11
S'sent: 3'
p65
sbag0
(g1
g2
(lp66
g0
(g1
g2
(lp67
Vhis mom
p68
atp69
Rp70
(dp71
g11
S'start: 8'
p72
sbatp73
Rp74
(dp75
g11
S'sent: 11'
p76
sbatp77
Rp78
(dp79
g11
S'id: 3'
p80
sbag0
(g1
g2
(lp81
g0
(g1
g2
(lp82
g0
(g1
g2
(lp83
Vthe
p84
atp85
Rp86
(dp87
g11
S'start: 6'
p88
sbatp89
Rp90
(dp91
g11
S'sent: 1'
p92
sbag0
(g1
g2
(lp93
g0
(g1
g2
(lp94
Vthe
p95
atp96
Rp97
(dp98
g11
S'start: 8'
p99
sbatp100
Rp101
(dp102
g11
S'sent: 1'
p103
sbag0
(g1
g2
(lp104
g0
(g1
g2
(lp105
Vthe , the girl
p106
atp107
Rp108
(dp109
g11
S'start: 14'
p110
sbatp111
Rp112
(dp113
g11
S'sent: 1'
p114
sbag0
(g1
g2
(lp115
g0
(g1
g2
(lp116
Vthe
p117
atp118
Rp119
(dp120
g11
S'start: 14'
p121
sbatp122
Rp123
(dp124
g11
S'sent: 1'
p125
sbatp126
Rp127
(dp128
g11
S'id: 4'
p129
sbag0
(g1
g2
(lp130
g0
(g1
g2
(lp131
g0
(g1
g2
(lp132
Vthe son
p133
atp134
Rp135
(dp136
g11
S'start: 10'
p137
sbatp138
Rp139
(dp140
g11
S'sent: 1'
p141
sbag0
(g1
g2
(lp142
g0
(g1
g2
(lp143
Vthe son
p144
atp145
Rp146
(dp147
g11
S'start: 6'
p148
sbatp149
Rp150
(dp151
g11
S'sent: 6'
p152
sbatp153
Rp154
(dp155
g11
S'id: 6'
p156
sbag0
(g1
g2
(lp157
g0
(g1
g2
(lp158
g0
(g1
g2
(lp159
Vthe cookie
p160
atp161
Rp162
(dp163
g11
S'start: 2'
p164
sbatp165
Rp166
(dp167
g11
S'sent: 2'
p168
sbag0
(g1
g2
(lp169
g0
(g1
g2
(lp170
Vthere the water
p171
atp172
Rp173
(dp174
g11
S'start: 5'
p175
sbatp176
Rp177
(dp178
g11
S'sent: 2'
p179
sbag0
(g1
g2
(lp180
g0
(g1
g2
(lp181
Vit
p182
atp183
Rp184
(dp185
g11
S'start: 12'
p186
sbatp187
Rp188
(dp189
g11
S'sent: 2'
p190
sbatp191
Rp192
(dp193
g11
S'id: 11'
p194
sbag0
(g1
g2
(lp195
g0
(g1
g2
(lp196
g0
(g1
g2
(lp197
Vthe water
p198
atp199
Rp200
(dp201
g11
S'start: 6'
p202
sbatp203
Rp204
(dp205
g11
S'sent: 2'
p206
sbag0
(g1
g2
(lp207
g0
(g1
g2
(lp208
Vthe water
p209
atp210
Rp211
(dp212
g11
S'start: 3'
p213
sbatp214
Rp215
(dp216
g11
S'sent: 5'
p217
sbag0
(g1
g2
(lp218
g0
(g1
g2
(lp219
Vthe water , outside
p220
atp221
Rp222
(dp223
g11
S'start: 5'
p224
sbatp225
Rp226
(dp227
g11
S'sent: 13'
p228
sbag0
(g1
g2
(lp229
g0
(g1
g2
(lp230
Vthe water
p231
atp232
Rp233
(dp234
g11
S'start: 5'
p235
sbatp236
Rp237
(dp238
g11
S'sent: 13'
p239
sbatp240
Rp241
(dp242
g11
S'id: 13'
p243
sbag0
(g1
g2
(lp244
g0
(g1
g2
(lp245
g0
(g1
g2
(lp246
Vwasher 's waste p-a-p-e pay
p247
atp248
Rp249
(dp250
g11
S'start: 5'
p251
sbatp252
Rp253
(dp254
g11
S'sent: 3'
p255
sbag0
(g1
g2
(lp256
g0
(g1
g2
(lp257
Vpaple , pay
p258
atp259
Rp260
(dp261
g11
S'start: 11'
p262
sbatp263
Rp264
(dp265
g11
S'sent: 3'
p266
sbatp267
Rp268
(dp269
g11
S'id: 18'
p270
sbag0
(g1
g2
(lp271
g0
(g1
g2
(lp272
g0
(g1
g2
(lp273
Vhere
p274
atp275
Rp276
(dp277
g11
S'start: 2'
p278
sbatp279
Rp280
(dp281
g11
S'sent: 6'
p282
sbag0
(g1
g2
(lp283
g0
(g1
g2
(lp284
Vhe
p285
atp286
Rp287
(dp288
g11
S'start: 2'
p289
sbatp290
Rp291
(dp292
g11
S'sent: 7'
p293
sbag0
(g1
g2
(lp294
g0
(g1
g2
(lp295
Vhis
p296
atp297
Rp298
(dp299
g11
S'start: 6'
p300
sbatp301
Rp302
(dp303
g11
S'sent: 7'
p304
sbag0
(g1
g2
(lp305
g0
(g1
g2
(lp306
Vhe
p307
atp308
Rp309
(dp310
g11
S'start: 12'
p311
sbatp312
Rp313
(dp314
g11
S'sent: 10'
p315
sbag0
(g1
g2
(lp316
g0
(g1
g2
(lp317
Vhis
p318
atp319
Rp320
(dp321
g11
S'start: 8'
p322
sbatp323
Rp324
(dp325
g11
S'sent: 11'
p326
sbag0
(g1
g2
(lp327
g0
(g1
g2
(lp328
Vhis
p329
atp330
Rp331
(dp332
g11
S'start: 11'
p333
sbatp334
Rp335
(dp336
g11
S'sent: 12'
p337
sbag0
(g1
g2
(lp338
g0
(g1
g2
(lp339
Vhis
p340
atp341
Rp342
(dp343
g11
S'start: 13'
p344
sbatp345
Rp346
(dp347
g11
S'sent: 12'
p348
sbatp349
Rp350
(dp351
g11
S'id: 25'
p352
sbag0
(g1
g2
(lp353
g0
(g1
g2
(lp354
g0
(g1
g2
(lp355
Vchurch , not a church
p356
atp357
Rp358
(dp359
g11
S'start: 11'
p360
sbatp361
Rp362
(dp363
g11
S'sent: 7'
p364
sbag0
(g1
g2
(lp365
g0
(g1
g2
(lp366
Vit
p367
atp368
Rp369
(dp370
g11
S'start: 17'
p371
sbatp372
Rp373
(dp374
g11
S'sent: 7'
p375
sbatp376
Rp377
(dp378
g11
S'id: 29'
p379
sbag0
(g1
g2
(lp380
g0
(g1
g2
(lp381
g0
(g1
g2
(lp382
Vshe
p383
atp384
Rp385
(dp386
g11
S'start: 27'
p387
sbatp388
Rp389
(dp390
g11
S'sent: 7'
p391
sbag0
(g1
g2
(lp392
g0
(g1
g2
(lp393
Vshe
p394
atp395
Rp396
(dp397
g11
S'start: 33'
p398
sbatp399
Rp400
(dp401
g11
S'sent: 7'
p402
sbag0
(g1
g2
(lp403
g0
(g1
g2
(lp404
Vher
p405
atp406
Rp407
(dp408
g11
S'start: 37'
p409
sbatp410
Rp411
(dp412
g11
S'sent: 7'
p413
sbag0
(g1
g2
(lp414
g0
(g1
g2
(lp415
Vshe
p416
atp417
Rp418
(dp419
g11
S'start: 6'
p420
sbatp421
Rp422
(dp423
g11
S'sent: 8'
p424
sbag0
(g1
g2
(lp425
g0
(g1
g2
(lp426
Vshe
p427
atp428
Rp429
(dp430
g11
S'start: 6'
p431
sbatp432
Rp433
(dp434
g11
S'sent: 10'
p435
sbag0
(g1
g2
(lp436
g0
(g1
g2
(lp437
Vher
p438
atp439
Rp440
(dp441
g11
S'start: 9'
p442
sbatp443
Rp444
(dp445
g11
S'sent: 10'
p446
sbatp447
Rp448
(dp449
g11
S'id: 34'
p450
sbag0
(g1
g2
(lp451
g0
(g1
g2
(lp452
g0
(g1
g2
(lp453
Vthey
p454
atp455
Rp456
(dp457
g11
S'start: 2'
p458
sbatp459
Rp460
(dp461
g11
S'sent: 8'
p462
sbag0
(g1
g2
(lp463
g0
(g1
g2
(lp464
Vthey taking their cookies , and thinking they
p465
atp466
Rp467
(dp468
g11
S'start: 7'
p469
sbatp470
Rp471
(dp472
g11
S'sent: 9'
p473
sbag0
(g1
g2
(lp474
g0
(g1
g2
(lp475
Vtheir
p476
atp477
Rp478
(dp479
g11
S'start: 9'
p480
sbatp481
Rp482
(dp483
g11
S'sent: 9'
p484
sbag0
(g1
g2
(lp485
g0
(g1
g2
(lp486
Vthey
p487
atp488
Rp489
(dp490
g11
S'start: 14'
p491
sbatp492
Rp493
(dp494
g11
S'sent: 9'
p495
sbag0
(g1
g2
(lp496
g0
(g1
g2
(lp497
VThey
p498
atp499
Rp500
(dp501
g11
S'start: 1'
p502
sbatp503
Rp504
(dp505
g11
S'sent: 11'
p506
sbag0
(g1
g2
(lp507
g0
(g1
g2
(lp508
Vthat
p509
atp510
Rp511
(dp512
g11
S'start: 6'
p513
sbatp514
Rp515
(dp516
g11
S'sent: 11'
p517
sbag0
(g1
g2
(lp518
g0
(g1
g2
(lp519
Vthat
p520
atp521
Rp522
(dp523
g11
S'start: 4'
p524
sbatp525
Rp526
(dp527
g11
S'sent: 12'
p528
sbag0
(g1
g2
(lp529
g0
(g1
g2
(lp530
Vthat
p531
atp532
Rp533
(dp534
g11
S'start: 8'
p535
sbatp536
Rp537
(dp538
g11
S'sent: 12'
p539
sbag0
(g1
g2
(lp540
g0
(g1
g2
(lp541
Vthat
p542
atp543
Rp544
(dp545
g11
S'start: 17'
p546
sbatp547
Rp548
(dp549
g11
S'sent: 12'
p550
sbatp551
Rp552
(dp553
g11
S'id: 39'
p554
sbag0
(g1
g2
(lp555
g0
(g1
g2
(lp556
g0
(g1
g2
(lp557
Vwhatever
p558
atp559
Rp560
(dp561
g11
S'start: 5'
p562
sbatp563
Rp564
(dp565
g11
S'sent: 8'
p566
sbag0
(g1
g2
(lp567
g0
(g1
g2
(lp568
Vit
p569
atp570
Rp571
(dp572
g11
S'start: 17'
p573
sbatp574
Rp575
(dp576
g11
S'sent: 10'
p577
sbag0
(g1
g2
(lp578
g0
(g1
g2
(lp579
Vthat
p580
atp581
Rp582
(dp583
g11
S'start: 28'
p584
sbatp585
Rp586
(dp587
g11
S'sent: 12'
p588
sbag0
(g1
g2
(lp589
g0
(g1
g2
(lp590
Vchi - not chicken , c-a-b-i , cabi , cable , table
p591
atp592
Rp593
(dp594
g11
S'start: 30'
p595
sbatp596
Rp597
(dp598
g11
S'sent: 12'
p599
sbag0
(g1
g2
(lp600
g0
(g1
g2
(lp601
Vchi - not chicken , c-a-b-i , cabi
p602
atp603
Rp604
(dp605
g11
S'start: 30'
p606
sbatp607
Rp608
(dp609
g11
S'sent: 12'
p610
sbag0
(g1
g2
(lp611
g0
(g1
g2
(lp612
Vcable , table
p613
atp614
Rp615
(dp616
g11
S'start: 39'
p617
sbatp618
Rp619
(dp620
g11
S'sent: 12'
p621
sbatp622
Rp623
(dp624
g11
S'id: 40'
p625
sbag0
(g1
g2
(lp626
g0
(g1
g2
(lp627
g0
(g1
g2
(lp628
Va tree
p629
atp630
Rp631
(dp632
g11
S'start: 3'
p633
sbatp634
Rp635
(dp636
g11
S'sent: 14'
p637
sbag0
(g1
g2
(lp638
g0
(g1
g2
(lp639
VThat
p640
atp641
Rp642
(dp643
g11
S'start: 1'
p644
sbatp645
Rp646
(dp647
g11
S'sent: 15'
p648
sbag0
(g1
g2
(lp649
g0
(g1
g2
(lp650
Vthe grass
p651
atp652
Rp653
(dp654
g11
S'start: 3'
p655
sbatp656
Rp657
(dp658
g11
S'sent: 15'
p659
sbag0
(g1
g2
(lp660
g0
(g1
g2
(lp661
VThat
p662
atp663
Rp664
(dp665
g11
S'start: 1'
p666
sbatp667
Rp668
(dp669
g11
S'sent: 16'
p670
sbag0
(g1
g2
(lp671
g0
(g1
g2
(lp672
Vpretty much everything
p673
atp674
Rp675
(dp676
g11
S'start: 3'
p677
sbatp678
Rp679
(dp680
g11
S'sent: 16'
p681
sbatp682
Rp683
(dp684
g11
S'id: 68'
p685
sbatp686
Rp687
(dp688
g11
S'coreferences'
p689
sb.