ccopy_reg
_reconstructor
p0
(cnltk.tree
Tree
p1
c__builtin__
list
p2
(lp3
g0
(g1
g2
(lp4
g0
(g1
g2
(lp5
g0
(g1
g2
(lp6
g0
(g1
g2
(lp7
g0
(g1
g2
(lp8
VMother
p9
atp10
Rp11
(dp12
S'_label'
p13
VNNP
p14
sbatp15
Rp16
(dp17
g13
VNP
p18
sbag0
(g1
g2
(lp19
g0
(g1
g2
(lp20
Vwashes
p21
atp22
Rp23
(dp24
g13
VVBZ
p25
sbag0
(g1
g2
(lp26
g0
(g1
g2
(lp27
Vdishes
p28
atp29
Rp30
(dp31
g13
VNNS
p32
sbatp33
Rp34
(dp35
g13
VNP
p36
sbatp37
Rp38
(dp39
g13
VVP
p40
sbatp41
Rp42
(dp43
g13
VS
p44
sbag0
(g1
g2
(lp45
V,
p46
atp47
Rp48
(dp49
g13
V,
p50
sbag0
(g1
g2
(lp51
g0
(g1
g2
(lp52
Vlets
p53
atp54
Rp55
(dp56
g13
VVBZ
p57
sbatp58
Rp59
(dp60
g13
VVP
p61
sbag0
(g1
g2
(lp62
g0
(g1
g2
(lp63
g0
(g1
g2
(lp64
Vthe
p65
atp66
Rp67
(dp68
g13
VDT
p69
sbag0
(g1
g2
(lp70
Vwater
p71
atp72
Rp73
(dp74
g13
VNN
p75
sbag0
(g1
g2
(lp76
Vdrip
p77
atp78
Rp79
(dp80
g13
VNN
p81
sbatp82
Rp83
(dp84
g13
VNP
p85
sbag0
(g1
g2
(lp86
V,
p87
atp88
Rp89
(dp90
g13
V,
p91
sbag0
(g1
g2
(lp92
g0
(g1
g2
(lp93
g0
(g1
g2
(lp94
Vdrip
p95
atp96
Rp97
(dp98
g13
VNN
p99
sbatp100
Rp101
(dp102
g13
VNP
p103
sbag0
(g1
g2
(lp104
g0
(g1
g2
(lp105
Von
p106
atp107
Rp108
(dp109
g13
VIN
p110
sbag0
(g1
g2
(lp111
g0
(g1
g2
(lp112
Vthe
p113
atp114
Rp115
(dp116
g13
VDT
p117
sbag0
(g1
g2
(lp118
Vfloor
p119
atp120
Rp121
(dp122
g13
VNN
p123
sbatp124
Rp125
(dp126
g13
VNP
p127
sbatp128
Rp129
(dp130
g13
VPP
p131
sbatp132
Rp133
(dp134
g13
VNP
p135
sbatp136
Rp137
(dp138
g13
VNP
p139
sbag0
(g1
g2
(lp140
V.
p141
atp142
Rp143
(dp144
g13
V.
p145
sbatp146
Rp147
(dp148
g13
VSINV
p149
sbatp150
Rp151
(dp152
g13
S'id: 0'
p153
sbag0
(g1
g2
(lp154
g0
(g1
g2
(lp155
g0
(g1
g2
(lp156
VAnd
p157
atp158
Rp159
(dp160
g13
VCC
p161
sbag0
(g1
g2
(lp162
g0
(g1
g2
(lp163
V,
p164
atp165
Rp166
(dp167
g13
V,
p168
sbag0
(g1
g2
(lp169
Vand
p170
atp171
Rp172
(dp173
g13
VCC
p174
sbag0
(g1
g2
(lp175
g0
(g1
g2
(lp176
g0
(g1
g2
(lp177
g0
(g1
g2
(lp178
Vthe
p179
atp180
Rp181
(dp182
g13
VDT
p183
sbag0
(g1
g2
(lp184
Vtwo
p185
atp186
Rp187
(dp188
g13
VCD
p189
sbag0
(g1
g2
(lp190
Vkids
p191
atp192
Rp193
(dp194
g13
VNNS
p195
sbatp196
Rp197
(dp198
g13
VNP
p199
sbag0
(g1
g2
(lp200
g0
(g1
g2
(lp201
Vare
p202
atp203
Rp204
(dp205
g13
VVBP
p206
sbag0
(g1
g2
(lp207
g0
(g1
g2
(lp208
Vgetting
p209
atp210
Rp211
(dp212
g13
VVBG
p213
sbag0
(g1
g2
(lp214
g0
(g1
g2
(lp215
Vin
p216
atp217
Rp218
(dp219
g13
VIN
p220
sbag0
(g1
g2
(lp221
g0
(g1
g2
(lp222
Vto
p223
atp224
Rp225
(dp226
g13
VTO
p227
sbag0
(g1
g2
(lp228
g0
(g1
g2
(lp229
Vthe
p230
atp231
Rp232
(dp233
g13
VDT
p234
sbag0
(g1
g2
(lp235
Vcookie
p236
atp237
Rp238
(dp239
g13
VNN
p240
sbag0
(g1
g2
(lp241
Vjar
p242
atp243
Rp244
(dp245
g13
VNN
p246
sbatp247
Rp248
(dp249
g13
VNP
p250
sbatp251
Rp252
(dp253
g13
VPP
p254
sbatp255
Rp256
(dp257
g13
VPP
p258
sbatp259
Rp260
(dp261
g13
VVP
p262
sbatp263
Rp264
(dp265
g13
VVP
p266
sbatp267
Rp268
(dp269
g13
VS
p270
sbag0
(g1
g2
(lp271
V,
p272
atp273
Rp274
(dp275
g13
V,
p276
sbag0
(g1
g2
(lp277
Vand
p278
atp279
Rp280
(dp281
g13
VCC
p282
sbag0
(g1
g2
(lp283
g0
(g1
g2
(lp284
g0
(g1
g2
(lp285
Vthey
p286
atp287
Rp288
(dp289
g13
VPRP
p290
sbatp291
Rp292
(dp293
g13
VNP
p294
sbag0
(g1
g2
(lp295
g0
(g1
g2
(lp296
V're
p297
atp298
Rp299
(dp300
g13
VVBP
p301
sbatp302
Rp303
(dp304
g13
VVP
p305
sbatp306
Rp307
(dp308
g13
VS
p309
sbatp310
Rp311
(dp312
g13
VS
p313
sbag0
(g1
g2
(lp314
V,
p315
atp316
Rp317
(dp318
g13
V,
p319
sbatp320
Rp321
(dp322
g13
VPRN
p323
sbag0
(g1
g2
(lp324
g0
(g1
g2
(lp325
g0
(g1
g2
(lp326
Vone
p327
atp328
Rp329
(dp330
g13
VCD
p331
sbatp332
Rp333
(dp334
g13
VNP
p335
sbag0
(g1
g2
(lp336
g0
(g1
g2
(lp337
Vof
p338
atp339
Rp340
(dp341
g13
VIN
p342
sbag0
(g1
g2
(lp343
g0
(g1
g2
(lp344
g0
(g1
g2
(lp345
Vthe
p346
atp347
Rp348
(dp349
g13
VDT
p350
sbag0
(g1
g2
(lp351
Vguy
p352
atp353
Rp354
(dp355
g13
VNN
p356
sbatp357
Rp358
(dp359
g13
VNP
p360
sbag0
(g1
g2
(lp361
g0
(g1
g2
(lp362
Von
p363
atp364
Rp365
(dp366
g13
VIN
p367
sbag0
(g1
g2
(lp368
g0
(g1
g2
(lp369
Vthe
p370
atp371
Rp372
(dp373
g13
VDT
p374
sbag0
(g1
g2
(lp375
Vstool
p376
atp377
Rp378
(dp379
g13
VNN
p380
sbatp381
Rp382
(dp383
g13
VNP
p384
sbatp385
Rp386
(dp387
g13
VPP
p388
sbatp389
Rp390
(dp391
g13
VNP
p392
sbatp393
Rp394
(dp395
g13
VPP
p396
sbatp397
Rp398
(dp399
g13
VNP
p400
sbag0
(g1
g2
(lp401
g0
(g1
g2
(lp402
Vis
p403
atp404
Rp405
(dp406
g13
VVBZ
p407
sbag0
(g1
g2
(lp408
g0
(g1
g2
(lp409
Vletting
p410
atp411
Rp412
(dp413
g13
VVBG
p414
sbag0
(g1
g2
(lp415
g0
(g1
g2
(lp416
g0
(g1
g2
(lp417
Vit
p418
atp419
Rp420
(dp421
g13
VPRP
p422
sbatp423
Rp424
(dp425
g13
VNP
p426
sbag0
(g1
g2
(lp427
g0
(g1
g2
(lp428
Vdrop
p429
atp430
Rp431
(dp432
g13
VVB
p433
sbag0
(g1
g2
(lp434
g0
(g1
g2
(lp435
Vover
p436
atp437
Rp438
(dp439
g13
VRP
p440
sbatp441
Rp442
(dp443
g13
VPRT
p444
sbatp445
Rp446
(dp447
g13
VVP
p448
sbatp449
Rp450
(dp451
g13
VS
p452
sbatp453
Rp454
(dp455
g13
VVP
p456
sbatp457
Rp458
(dp459
g13
VVP
p460
sbag0
(g1
g2
(lp461
V.
p462
atp463
Rp464
(dp465
g13
V.
p466
sbatp467
Rp468
(dp469
g13
VS
p470
sbatp471
Rp472
(dp473
g13
S'id: 1'
p474
sbag0
(g1
g2
(lp475
g0
(g1
g2
(lp476
g0
(g1
g2
(lp477
g0
(g1
g2
(lp478
VAnd
p479
atp480
Rp481
(dp482
g13
VCC
p483
sbag0
(g1
g2
(lp484
g0
(g1
g2
(lp485
Vthat
p486
atp487
Rp488
(dp489
g13
VDT
p490
sbatp491
Rp492
(dp493
g13
VNP
p494
sbag0
(g1
g2
(lp495
g0
(g1
g2
(lp496
V's
p497
atp498
Rp499
(dp500
g13
VVBZ
p501
sbag0
(g1
g2
(lp502
g0
(g1
g2
(lp503
Vit
p504
atp505
Rp506
(dp507
g13
VPRP
p508
sbatp509
Rp510
(dp511
g13
VNP
p512
sbatp513
Rp514
(dp515
g13
VVP
p516
sbatp517
Rp518
(dp519
g13
VS
p520
sbag0
(g1
g2
(lp521
V,
p522
atp523
Rp524
(dp525
g13
V,
p526
sbag0
(g1
g2
(lp527
g0
(g1
g2
(lp528
Vthat
p529
atp530
Rp531
(dp532
g13
VDT
p533
sbatp534
Rp535
(dp536
g13
VNP
p537
sbag0
(g1
g2
(lp538
g0
(g1
g2
(lp539
V's
p540
atp541
Rp542
(dp543
g13
VVBZ
p544
sbag0
(g1
g2
(lp545
g0
(g1
g2
(lp546
g0
(g1
g2
(lp547
g0
(g1
g2
(lp548
Vall
p549
atp550
Rp551
(dp552
g13
VDT
p553
sbag0
(g1
g2
(lp554
Vi
p555
atp556
Rp557
(dp558
g13
VFW
p559
sbatp560
Rp561
(dp562
g13
VNP
p563
sbag0
(g1
g2
(lp564
g0
(g1
g2
(lp565
Vcan
p566
atp567
Rp568
(dp569
g13
VMD
p570
sbag0
(g1
g2
(lp571
g0
(g1
g2
(lp572
Vsee
p573
atp574
Rp575
(dp576
g13
VVB
p577
sbatp578
Rp579
(dp580
g13
VVP
p581
sbatp582
Rp583
(dp584
g13
VVP
p585
sbatp586
Rp587
(dp588
g13
VS
p589
sbatp590
Rp591
(dp592
g13
VSBAR
p593
sbatp594
Rp595
(dp596
g13
VVP
p597
sbag0
(g1
g2
(lp598
V.
p599
atp600
Rp601
(dp602
g13
V.
p603
sbatp604
Rp605
(dp606
g13
VS
p607
sbatp608
Rp609
(dp610
g13
S'id: 2'
p611
sbag0
(g1
g2
(lp612
g0
(g1
g2
(lp613
g0
(g1
g2
(lp614
g0
(g1
g2
(lp615
g0
(g1
g2
(lp616
Vwell
p617
atp618
Rp619
(dp620
g13
VRB
p621
sbatp622
Rp623
(dp624
g13
VADVP
p625
sbag0
(g1
g2
(lp626
g0
(g1
g2
(lp627
Vlet
p628
atp629
Rp630
(dp631
g13
VVB
p632
sbag0
(g1
g2
(lp633
g0
(g1
g2
(lp634
g0
(g1
g2
(lp635
V's
p636
atp637
Rp638
(dp639
g13
VPOS
p640
sbatp641
Rp642
(dp643
g13
VNP
p644
sbag0
(g1
g2
(lp645
g0
(g1
g2
(lp646
Vsee
p647
atp648
Rp649
(dp650
g13
VVB
p651
sbatp652
Rp653
(dp654
g13
VVP
p655
sbatp656
Rp657
(dp658
g13
VS
p659
sbatp660
Rp661
(dp662
g13
VVP
p663
sbatp664
Rp665
(dp666
g13
VS
p667
sbag0
(g1
g2
(lp668
V,
p669
atp670
Rp671
(dp672
g13
V,
p673
sbag0
(g1
g2
(lp674
g0
(g1
g2
(lp675
Vthere
p676
atp677
Rp678
(dp679
g13
VEX
p680
sbatp681
Rp682
(dp683
g13
VNP
p684
sbag0
(g1
g2
(lp685
g0
(g1
g2
(lp686
Vare
p687
atp688
Rp689
(dp690
g13
VVBP
p691
sbag0
(g1
g2
(lp692
g0
(g1
g2
(lp693
g0
(g1
g2
(lp694
Vsome
p695
atp696
Rp697
(dp698
g13
VDT
p699
sbag0
(g1
g2
(lp700
Vdishes
p701
atp702
Rp703
(dp704
g13
VNNS
p705
sbatp706
Rp707
(dp708
g13
VNP
p709
sbag0
(g1
g2
(lp710
g0
(g1
g2
(lp711
Von
p712
atp713
Rp714
(dp715
g13
VIN
p716
sbag0
(g1
g2
(lp717
g0
(g1
g2
(lp718
g0
(g1
g2
(lp719
Vthe
p720
atp721
Rp722
(dp723
g13
VDT
p724
sbag0
(g1
g2
(lp725
Vcupboard
p726
atp727
Rp728
(dp729
g13
VNN
p730
sbatp731
Rp732
(dp733
g13
VNP
p734
sbag0
(g1
g2
(lp735
V,
p736
atp737
Rp738
(dp739
g13
V,
p740
sbag0
(g1
g2
(lp741
g0
(g1
g2
(lp742
g0
(g1
g2
(lp743
Vthat
p744
atp745
Rp746
(dp747
g13
VWDT
p748
sbatp749
Rp750
(dp751
g13
VWHNP
p752
sbag0
(g1
g2
(lp753
g0
(g1
g2
(lp754
g0
(g1
g2
(lp755
Vwould
p756
atp757
Rp758
(dp759
g13
VMD
p760
sbag0
(g1
g2
(lp761
g0
(g1
g2
(lp762
Vbe
p763
atp764
Rp765
(dp766
g13
VVB
p767
sbag0
(g1
g2
(lp768
g0
(g1
g2
(lp769
Vhelpful
p770
atp771
Rp772
(dp773
g13
VJJ
p774
sbatp775
Rp776
(dp777
g13
VADJP
p778
sbatp779
Rp780
(dp781
g13
VVP
p782
sbatp783
Rp784
(dp785
g13
VVP
p786
sbatp787
Rp788
(dp789
g13
VS
p790
sbatp791
Rp792
(dp793
g13
VSBAR
p794
sbatp795
Rp796
(dp797
g13
VNP
p798
sbatp799
Rp800
(dp801
g13
VPP
p802
sbatp803
Rp804
(dp805
g13
VNP
p806
sbatp807
Rp808
(dp809
g13
VVP
p810
sbag0
(g1
g2
(lp811
V.
p812
atp813
Rp814
(dp815
g13
V.
p816
sbatp817
Rp818
(dp819
g13
VS
p820
sbatp821
Rp822
(dp823
g13
S'id: 3'
p824
sbag0
(g1
g2
(lp825
g0
(g1
g2
(lp826
g0
(g1
g2
(lp827
VAnd
p828
atp829
Rp830
(dp831
g13
VCC
p832
sbag0
(g1
g2
(lp833
g0
(g1
g2
(lp834
Vyou
p835
atp836
Rp837
(dp838
g13
VPRP
p839
sbatp840
Rp841
(dp842
g13
VNP
p843
sbag0
(g1
g2
(lp844
g0
(g1
g2
(lp845
Vcan
p846
atp847
Rp848
(dp849
g13
VMD
p850
sbag0
(g1
g2
(lp851
g0
(g1
g2
(lp852
Vsee
p853
atp854
Rp855
(dp856
g13
VVB
p857
sbag0
(g1
g2
(lp858
g0
(g1
g2
(lp859
Va
p860
atp861
Rp862
(dp863
g13
VDT
p864
sbag0
(g1
g2
(lp865
Vscene
p866
atp867
Rp868
(dp869
g13
VNN
p870
sbatp871
Rp872
(dp873
g13
VNP
p874
sbag0
(g1
g2
(lp875
g0
(g1
g2
(lp876
Voutside
p877
atp878
Rp879
(dp880
g13
VIN
p881
sbatp882
Rp883
(dp884
g13
VADVP
p885
sbatp886
Rp887
(dp888
g13
VVP
p889
sbatp890
Rp891
(dp892
g13
VVP
p893
sbag0
(g1
g2
(lp894
V.
p895
atp896
Rp897
(dp898
g13
V.
p899
sbatp900
Rp901
(dp902
g13
VS
p903
sbatp904
Rp905
(dp906
g13
S'id: 4'
p907
sbag0
(g1
g2
(lp908
g0
(g1
g2
(lp909
g0
(g1
g2
(lp910
VAnd
p911
atp912
Rp913
(dp914
g13
VCC
p915
sbag0
(g1
g2
(lp916
g0
(g1
g2
(lp917
Vthere
p918
atp919
Rp920
(dp921
g13
VEX
p922
sbatp923
Rp924
(dp925
g13
VNP
p926
sbag0
(g1
g2
(lp927
g0
(g1
g2
(lp928
V's
p929
atp930
Rp931
(dp932
g13
VVBZ
p933
sbag0
(g1
g2
(lp934
g0
(g1
g2
(lp935
g0
(g1
g2
(lp936
Vcurtains
p937
atp938
Rp939
(dp940
g13
VNNS
p941
sbatp942
Rp943
(dp944
g13
VNP
p945
sbag0
(g1
g2
(lp946
g0
(g1
g2
(lp947
Von
p948
atp949
Rp950
(dp951
g13
VIN
p952
sbag0
(g1
g2
(lp953
g0
(g1
g2
(lp954
Vthe
p955
atp956
Rp957
(dp958
g13
VDT
p959
sbag0
(g1
g2
(lp960
Vwindow
p961
atp962
Rp963
(dp964
g13
VNN
p965
sbatp966
Rp967
(dp968
g13
VNP
p969
sbatp970
Rp971
(dp972
g13
VPP
p973
sbatp974
Rp975
(dp976
g13
VNP
p977
sbatp978
Rp979
(dp980
g13
VVP
p981
sbag0
(g1
g2
(lp982
V.
p983
atp984
Rp985
(dp986
g13
V.
p987
sbatp988
Rp989
(dp990
g13
VS
p991
sbatp992
Rp993
(dp994
g13
S'id: 5'
p995
sbag0
(g1
g2
(lp996
g0
(g1
g2
(lp997
g0
(g1
g2
(lp998
VAnd
p999
atp1000
Rp1001
(dp1002
g13
VCC
p1003
sbag0
(g1
g2
(lp1004
g0
(g1
g2
(lp1005
g0
(g1
g2
(lp1006
Vthere
p1007
atp1008
Rp1009
(dp1010
g13
VEX
p1011
sbatp1012
Rp1013
(dp1014
g13
VNP
p1015
sbag0
(g1
g2
(lp1016
g0
(g1
g2
(lp1017
V's
p1018
atp1019
Rp1020
(dp1021
g13
VVBZ
p1022
sbag0
(g1
g2
(lp1023
g0
(g1
g2
(lp1024
g0
(g1
g2
(lp1025
Vdrapes
p1026
atp1027
Rp1028
(dp1029
g13
VNNS
p1030
sbatp1031
Rp1032
(dp1033
g13
VNP
p1034
sbag0
(g1
g2
(lp1035
g0
(g1
g2
(lp1036
Von
p1037
atp1038
Rp1039
(dp1040
g13
VIN
p1041
sbag0
(g1
g2
(lp1042
g0
(g1
g2
(lp1043
Vthe
p1044
atp1045
Rp1046
(dp1047
g13
VDT
p1048
sbatp1049
Rp1050
(dp1051
g13
VNP
p1052
sbatp1053
Rp1054
(dp1055
g13
VPP
p1056
sbatp1057
Rp1058
(dp1059
g13
VNP
p1060
sbatp1061
Rp1062
(dp1063
g13
VVP
p1064
sbatp1065
Rp1066
(dp1067
g13
VS
p1068
sbag0
(g1
g2
(lp1069
V,
p1070
atp1071
Rp1072
(dp1073
g13
V,
p1074
sbag0
(g1
g2
(lp1075
g0
(g1
g2
(lp1076
g0
(g1
g2
(lp1077
VI
p1078
atp1079
Rp1080
(dp1081
g13
VPRP
p1082
sbatp1083
Rp1084
(dp1085
g13
VNP
p1086
sbag0
(g1
g2
(lp1087
g0
(g1
g2
(lp1088
Vmean
p1089
atp1090
Rp1091
(dp1092
g13
VVBP
p1093
sbatp1094
Rp1095
(dp1096
g13
VVP
p1097
sbatp1098
Rp1099
(dp1100
g13
VS
p1101
sbag0
(g1
g2
(lp1102
V,
p1103
atp1104
Rp1105
(dp1106
g13
V,
p1107
sbag0
(g1
g2
(lp1108
g0
(g1
g2
(lp1109
g0
(g1
g2
(lp1110
g0
(g1
g2
(lp1111
Vstuff
p1112
atp1113
Rp1114
(dp1115
g13
VVBP
p1116
sbag0
(g1
g2
(lp1117
g0
(g1
g2
(lp1118
Von
p1119
atp1120
Rp1121
(dp1122
g13
VIN
p1123
sbag0
(g1
g2
(lp1124
g0
(g1
g2
(lp1125
Vthe
p1126
atp1127
Rp1128
(dp1129
g13
VDT
p1130
sbag0
(g1
g2
(lp1131
Vflower
p1132
atp1133
Rp1134
(dp1135
g13
VNN
p1136
sbag0
(g1
g2
(lp1137
Vbeds
p1138
atp1139
Rp1140
(dp1141
g13
VNNS
p1142
sbatp1143
Rp1144
(dp1145
g13
VNP
p1146
sbatp1147
Rp1148
(dp1149
g13
VPP
p1150
sbatp1151
Rp1152
(dp1153
g13
VVP
p1154
sbatp1155
Rp1156
(dp1157
g13
VS
p1158
sbatp1159
Rp1160
(dp1161
g13
VSBAR
p1162
sbag0
(g1
g2
(lp1163
V.
p1164
atp1165
Rp1166
(dp1167
g13
V.
p1168
sbatp1169
Rp1170
(dp1171
g13
VS
p1172
sbatp1173
Rp1174
(dp1175
g13
S'id: 6'
p1176
sbag0
(g1
g2
(lp1177
g0
(g1
g2
(lp1178
g0
(g1
g2
(lp1179
g0
(g1
g2
(lp1180
VWhatever
p1181
atp1182
Rp1183
(dp1184
g13
VWDT
p1185
sbatp1186
Rp1187
(dp1188
g13
VNP
p1189
sbag0
(g1
g2
(lp1190
g0
(g1
g2
(lp1191
g0
(g1
g2
(lp1192
g0
(g1
g2
(lp1193
g0
(g1
g2
(lp1194
Vyou
p1195
atp1196
Rp1197
(dp1198
g13
VPRP
p1199
sbatp1200
Rp1201
(dp1202
g13
VNP
p1203
sbag0
(g1
g2
(lp1204
g0
(g1
g2
(lp1205
Vwant
p1206
atp1207
Rp1208
(dp1209
g13
VVBP
p1210
sbatp1211
Rp1212
(dp1213
g13
VVP
p1214
sbatp1215
Rp1216
(dp1217
g13
VS
p1218
sbag0
(g1
g2
(lp1219
V,
p1220
atp1221
Rp1222
(dp1223
g13
V,
p1224
sbag0
(g1
g2
(lp1225
Vbut
p1226
atp1227
Rp1228
(dp1229
g13
VCC
p1230
sbag0
(g1
g2
(lp1231
g0
(g1
g2
(lp1232
g0
(g1
g2
(lp1233
Vthere
p1234
atp1235
Rp1236
(dp1237
g13
VEX
p1238
sbatp1239
Rp1240
(dp1241
g13
VNP
p1242
sbag0
(g1
g2
(lp1243
g0
(g1
g2
(lp1244
V's
p1245
atp1246
Rp1247
(dp1248
g13
VVBZ
p1249
sbag0
(g1
g2
(lp1250
g0
(g1
g2
(lp1251
Vflowers
p1252
atp1253
Rp1254
(dp1255
g13
VNNS
p1256
sbatp1257
Rp1258
(dp1259
g13
VNP
p1260
sbatp1261
Rp1262
(dp1263
g13
VVP
p1264
sbatp1265
Rp1266
(dp1267
g13
VS
p1268
sbatp1269
Rp1270
(dp1271
g13
VS
p1272
sbag0
(g1
g2
(lp1273
V,
p1274
atp1275
Rp1276
(dp1277
g13
V,
p1278
sbatp1279
Rp1280
(dp1281
g13
VPRN
p1282
sbag0
(g1
g2
(lp1283
g0
(g1
g2
(lp1284
Vcan
p1285
atp1286
Rp1287
(dp1288
g13
VMD
p1289
sbag0
(g1
g2
(lp1290
g0
(g1
g2
(lp1291
Vbe
p1292
atp1293
Rp1294
(dp1295
g13
VVB
p1296
sbag0
(g1
g2
(lp1297
g0
(g1
g2
(lp1298
Vthere
p1299
atp1300
Rp1301
(dp1302
g13
VRB
p1303
sbatp1304
Rp1305
(dp1306
g13
VADVP
p1307
sbatp1308
Rp1309
(dp1310
g13
VVP
p1311
sbatp1312
Rp1313
(dp1314
g13
VVP
p1315
sbag0
(g1
g2
(lp1316
V.
p1317
atp1318
Rp1319
(dp1320
g13
V.
p1321
sbatp1322
Rp1323
(dp1324
g13
VS
p1325
sbatp1326
Rp1327
(dp1328
g13
S'id: 7'
p1329
sbag0
(g1
g2
(lp1330
g0
(g1
g2
(lp1331
g0
(g1
g2
(lp1332
g0
(g1
g2
(lp1333
VThere
p1334
atp1335
Rp1336
(dp1337
g13
VEX
p1338
sbatp1339
Rp1340
(dp1341
g13
VNP
p1342
sbag0
(g1
g2
(lp1343
g0
(g1
g2
(lp1344
V's
p1345
atp1346
Rp1347
(dp1348
g13
VVBZ
p1349
sbag0
(g1
g2
(lp1350
g0
(g1
g2
(lp1351
Vcupboards
p1352
atp1353
Rp1354
(dp1355
g13
VNNS
p1356
sbatp1357
Rp1358
(dp1359
g13
VNP
p1360
sbag0
(g1
g2
(lp1361
g0
(g1
g2
(lp1362
Vthere
p1363
atp1364
Rp1365
(dp1366
g13
VRB
p1367
sbag0
(g1
g2
(lp1368
g0
(g1
g2
(lp1369
Vwith
p1370
atp1371
Rp1372
(dp1373
g13
VIN
p1374
sbag0
(g1
g2
(lp1375
g0
(g1
g2
(lp1376
Vdoors
p1377
atp1378
Rp1379
(dp1380
g13
VNNS
p1381
sbatp1382
Rp1383
(dp1384
g13
VNP
p1385
sbatp1386
Rp1387
(dp1388
g13
VPP
p1389
sbatp1390
Rp1391
(dp1392
g13
VADVP
p1393
sbatp1394
Rp1395
(dp1396
g13
VVP
p1397
sbag0
(g1
g2
(lp1398
V.
p1399
atp1400
Rp1401
(dp1402
g13
V.
p1403
sbatp1404
Rp1405
(dp1406
g13
VS
p1407
sbatp1408
Rp1409
(dp1410
g13
S'id: 8'
p1411
sbag0
(g1
g2
(lp1412
g0
(g1
g2
(lp1413
g0
(g1
g2
(lp1414
VAnd
p1415
atp1416
Rp1417
(dp1418
g13
VCC
p1419
sbag0
(g1
g2
(lp1420
g0
(g1
g2
(lp1421
g0
(g1
g2
(lp1422
Vthe
p1423
atp1424
Rp1425
(dp1426
g13
VDT
p1427
sbag0
(g1
g2
(lp1428
Vlittle
p1429
atp1430
Rp1431
(dp1432
g13
VJJ
p1433
sbag0
(g1
g2
(lp1434
Vboy
p1435
atp1436
Rp1437
(dp1438
g13
VNN
p1439
sbatp1440
Rp1441
(dp1442
g13
VNP
p1443
sbag0
(g1
g2
(lp1444
g0
(g1
g2
(lp1445
Vhas
p1446
atp1447
Rp1448
(dp1449
g13
VVBZ
p1450
sbag0
(g1
g2
(lp1451
g0
(g1
g2
(lp1452
Vcookie
p1453
atp1454
Rp1455
(dp1456
g13
VNN
p1457
sbatp1458
Rp1459
(dp1460
g13
VNP
p1461
sbatp1462
Rp1463
(dp1464
g13
VVP
p1465
sbatp1466
Rp1467
(dp1468
g13
VS
p1469
sbag0
(g1
g2
(lp1470
V,
p1471
atp1472
Rp1473
(dp1474
g13
V,
p1475
sbag0
(g1
g2
(lp1476
Vand
p1477
atp1478
Rp1479
(dp1480
g13
VCC
p1481
sbag0
(g1
g2
(lp1482
g0
(g1
g2
(lp1483
g0
(g1
g2
(lp1484
Vhe
p1485
atp1486
Rp1487
(dp1488
g13
VPRP
p1489
sbatp1490
Rp1491
(dp1492
g13
VNP
p1493
sbag0
(g1
g2
(lp1494
g0
(g1
g2
(lp1495
V's
p1496
atp1497
Rp1498
(dp1499
g13
VVBZ
p1500
sbag0
(g1
g2
(lp1501
g0
(g1
g2
(lp1502
Vgiving
p1503
atp1504
Rp1505
(dp1506
g13
VVBG
p1507
sbag0
(g1
g2
(lp1508
g0
(g1
g2
(lp1509
Vit
p1510
atp1511
Rp1512
(dp1513
g13
VPRP
p1514
sbatp1515
Rp1516
(dp1517
g13
VNP
p1518
sbag0
(g1
g2
(lp1519
g0
(g1
g2
(lp1520
Vto
p1521
atp1522
Rp1523
(dp1524
g13
VTO
p1525
sbag0
(g1
g2
(lp1526
g0
(g1
g2
(lp1527
Vthe
p1528
atp1529
Rp1530
(dp1531
g13
VDT
p1532
sbag0
(g1
g2
(lp1533
Vsister
p1534
atp1535
Rp1536
(dp1537
g13
VNN
p1538
sbatp1539
Rp1540
(dp1541
g13
VNP
p1542
sbatp1543
Rp1544
(dp1545
g13
VPP
p1546
sbatp1547
Rp1548
(dp1549
g13
VVP
p1550
sbatp1551
Rp1552
(dp1553
g13
VVP
p1554
sbatp1555
Rp1556
(dp1557
g13
VS
p1558
sbag0
(g1
g2
(lp1559
V.
p1560
atp1561
Rp1562
(dp1563
g13
V.
p1564
sbatp1565
Rp1566
(dp1567
g13
VS
p1568
sbatp1569
Rp1570
(dp1571
g13
S'id: 9'
p1572
sbag0
(g1
g2
(lp1573
g0
(g1
g2
(lp1574
g0
(g1
g2
(lp1575
VAnd
p1576
atp1577
Rp1578
(dp1579
g13
VCC
p1580
sbag0
(g1
g2
(lp1581
g0
(g1
g2
(lp1582
Vlet
p1583
atp1584
Rp1585
(dp1586
g13
VVB
p1587
sbag0
(g1
g2
(lp1588
g0
(g1
g2
(lp1589
g0
(g1
g2
(lp1590
V's
p1591
atp1592
Rp1593
(dp1594
g13
VPOS
p1595
sbatp1596
Rp1597
(dp1598
g13
VNP
p1599
sbag0
(g1
g2
(lp1600
g0
(g1
g2
(lp1601
Vsee
p1602
atp1603
Rp1604
(dp1605
g13
VVB
p1606
sbag0
(g1
g2
(lp1607
g0
(g1
g2
(lp1608
g0
(g1
g2
(lp1609
Vwhat
p1610
atp1611
Rp1612
(dp1613
g13
VWP
p1614
sbatp1615
Rp1616
(dp1617
g13
VWHNP
p1618
sbag0
(g1
g2
(lp1619
g0
(g1
g2
(lp1620
g0
(g1
g2
(lp1621
Velse
p1622
atp1623
Rp1624
(dp1625
g13
VRB
p1626
sbag0
(g1
g2
(lp1627
Vshe
p1628
atp1629
Rp1630
(dp1631
g13
VPRP
p1632
sbatp1633
Rp1634
(dp1635
g13
VNP
p1636
sbag0
(g1
g2
(lp1637
g0
(g1
g2
(lp1638
Vhave
p1639
atp1640
Rp1641
(dp1642
g13
VVBP
p1643
sbag0
(g1
g2
(lp1644
g0
(g1
g2
(lp1645
g0
(g1
g2
(lp1646
Von
p1647
atp1648
Rp1649
(dp1650
g13
VIN
p1651
sbatp1652
Rp1653
(dp1654
g13
VPP
p1655
sbatp1656
Rp1657
(dp1658
g13
VVP
p1659
sbatp1660
Rp1661
(dp1662
g13
VVP
p1663
sbatp1664
Rp1665
(dp1666
g13
VS
p1667
sbatp1668
Rp1669
(dp1670
g13
VSBAR
p1671
sbatp1672
Rp1673
(dp1674
g13
VVP
p1675
sbatp1676
Rp1677
(dp1678
g13
VS
p1679
sbatp1680
Rp1681
(dp1682
g13
VVP
p1683
sbag0
(g1
g2
(lp1684
V.
p1685
atp1686
Rp1687
(dp1688
g13
V.
p1689
sbatp1690
Rp1691
(dp1692
g13
VS
p1693
sbatp1694
Rp1695
(dp1696
g13
S'id: 10'
p1697
sbag0
(g1
g2
(lp1698
g0
(g1
g2
(lp1699
g0
(g1
g2
(lp1700
g0
(g1
g2
(lp1701
VShe
p1702
atp1703
Rp1704
(dp1705
g13
VPRP
p1706
sbatp1707
Rp1708
(dp1709
g13
VNP
p1710
sbag0
(g1
g2
(lp1711
g0
(g1
g2
(lp1712
Vseems
p1713
atp1714
Rp1715
(dp1716
g13
VVBZ
p1717
sbag0
(g1
g2
(lp1718
g0
(g1
g2
(lp1719
Vhappy
p1720
atp1721
Rp1722
(dp1723
g13
VJJ
p1724
sbag0
(g1
g2
(lp1725
g0
(g1
g2
(lp1726
Vwith
p1727
atp1728
Rp1729
(dp1730
g13
VIN
p1731
sbag0
(g1
g2
(lp1732
g0
(g1
g2
(lp1733
g0
(g1
g2
(lp1734
Vwhat
p1735
atp1736
Rp1737
(dp1738
g13
VWP
p1739
sbatp1740
Rp1741
(dp1742
g13
VWHNP
p1743
sbag0
(g1
g2
(lp1744
g0
(g1
g2
(lp1745
g0
(g1
g2
(lp1746
Vshe
p1747
atp1748
Rp1749
(dp1750
g13
VPRP
p1751
sbatp1752
Rp1753
(dp1754
g13
VNP
p1755
sbag0
(g1
g2
(lp1756
g0
(g1
g2
(lp1757
Vis
p1758
atp1759
Rp1760
(dp1761
g13
VVBZ
p1762
sbag0
(g1
g2
(lp1763
g0
(g1
g2
(lp1764
Vdoing
p1765
atp1766
Rp1767
(dp1768
g13
VVBG
p1769
sbatp1770
Rp1771
(dp1772
g13
VVP
p1773
sbatp1774
Rp1775
(dp1776
g13
VVP
p1777
sbatp1778
Rp1779
(dp1780
g13
VS
p1781
sbatp1782
Rp1783
(dp1784
g13
VSBAR
p1785
sbatp1786
Rp1787
(dp1788
g13
VPP
p1789
sbatp1790
Rp1791
(dp1792
g13
VADJP
p1793
sbag0
(g1
g2
(lp1794
V,
p1795
atp1796
Rp1797
(dp1798
g13
V,
p1799
sbag0
(g1
g2
(lp1800
g0
(g1
g2
(lp1801
g0
(g1
g2
(lp1802
Vletting
p1803
atp1804
Rp1805
(dp1806
g13
VVBG
p1807
sbag0
(g1
g2
(lp1808
g0
(g1
g2
(lp1809
Vthe
p1810
atp1811
Rp1812
(dp1813
g13
VDT
p1814
sbag0
(g1
g2
(lp1815
Vwater
p1816
atp1817
Rp1818
(dp1819
g13
VNN
p1820
sbag0
(g1
g2
(lp1821
Vdrip
p1822
atp1823
Rp1824
(dp1825
g13
VNN
p1826
sbatp1827
Rp1828
(dp1829
g13
VNP
p1830
sbag0
(g1
g2
(lp1831
g0
(g1
g2
(lp1832
Von
p1833
atp1834
Rp1835
(dp1836
g13
VIN
p1837
sbag0
(g1
g2
(lp1838
g0
(g1
g2
(lp1839
Vthe
p1840
atp1841
Rp1842
(dp1843
g13
VDT
p1844
sbag0
(g1
g2
(lp1845
Vfloor
p1846
atp1847
Rp1848
(dp1849
g13
VNN
p1850
sbatp1851
Rp1852
(dp1853
g13
VNP
p1854
sbatp1855
Rp1856
(dp1857
g13
VPP
p1858
sbatp1859
Rp1860
(dp1861
g13
VVP
p1862
sbatp1863
Rp1864
(dp1865
g13
VS
p1866
sbatp1867
Rp1868
(dp1869
g13
VVP
p1870
sbag0
(g1
g2
(lp1871
V.
p1872
atp1873
Rp1874
(dp1875
g13
V.
p1876
sbatp1877
Rp1878
(dp1879
g13
VS
p1880
sbatp1881
Rp1882
(dp1883
g13
S'id: 11'
p1884
sbag0
(g1
g2
(lp1885
g0
(g1
g2
(lp1886
g0
(g1
g2
(lp1887
VAnd
p1888
atp1889
Rp1890
(dp1891
g13
VCC
p1892
sbag0
(g1
g2
(lp1893
V,
p1894
atp1895
Rp1896
(dp1897
g13
V,
p1898
sbag0
(g1
g2
(lp1899
g0
(g1
g2
(lp1900
Vand
p1901
atp1902
Rp1903
(dp1904
g13
VCC
p1905
sbag0
(g1
g2
(lp1906
g0
(g1
g2
(lp1907
Vshe
p1908
atp1909
Rp1910
(dp1911
g13
VPRP
p1912
sbatp1913
Rp1914
(dp1915
g13
VNP
p1916
sbag0
(g1
g2
(lp1917
g0
(g1
g2
(lp1918
V's
p1919
atp1920
Rp1921
(dp1922
g13
VVBZ
p1923
sbatp1924
Rp1925
(dp1926
g13
VVP
p1927
sbatp1928
Rp1929
(dp1930
g13
VS
p1931
sbag0
(g1
g2
(lp1932
V.
p1933
atp1934
Rp1935
(dp1936
g13
V.
p1937
sbatp1938
Rp1939
(dp1940
g13
VS
p1941
sbatp1942
Rp1943
(dp1944
g13
S'id: 12'
p1945
sbatp1946
Rp1947
(dp1948
g13
S'sentences'
p1949
sb.