ccopy_reg
_reconstructor
p0
(cnltk.tree
Tree
p1
c__builtin__
list
p2
(lp3
g0
(g1
g2
(lp4
tp5
Rp6
(dp7
S'_label'
p8
S'id: 0'
p9
sbag0
(g1
g2
(lp10
g0
(g1
g2
(lp11
g0
(g1
g2
(lp12
g0
(g1
g2
(lp13
g0
(g1
g2
(lp14
(lp15
S'word: no, index: 3'
p16
aatp17
Rp18
(dp19
g8
Vneg
p20
sbag0
(g1
g2
(lp21
(lp22
S'word: no, index: 4'
p23
aatp24
Rp25
(dp26
g8
Vneg
p27
sbatp28
Rp29
(dp30
g8
S'word: water, index: 5'
p31
sbatp32
Rp33
(dp34
g8
Vappos
p35
sbatp36
Rp37
(dp38
g8
S'word: Water, index: 1'
p39
sbatp40
Rp41
(dp42
g8
S'id: 1'
p43
sbag0
(g1
g2
(lp44
g0
(g1
g2
(lp45
g0
(g1
g2
(lp46
g0
(g1
g2
(lp47
g0
(g1
g2
(lp48
g0
(g1
g2
(lp49
g0
(g1
g2
(lp50
(lp51
S'word: no, index: 8'
p52
aatp53
Rp54
(dp55
g8
Vadvmod
p56
sbatp57
Rp58
(dp59
g8
S'word: o, index: 7'
p60
sbatp61
Rp62
(dp63
g8
Vdep
p64
sbatp65
Rp66
(dp67
g8
S'word: water, index: 6'
p68
sbatp69
Rp70
(dp71
g8
Vtmod
p72
sbag0
(g1
g2
(lp73
(lp74
S'word: water, index: 10'
p75
aatp76
Rp77
(dp78
g8
Vdobj
p79
sbag0
(g1
g2
(lp80
(lp81
S'word: I, index: 1'
p82
aatp83
Rp84
(dp85
g8
Vnsubj
p86
sbag0
(g1
g2
(lp87
(lp88
S'word: do, index: 2'
p89
aatp90
Rp91
(dp92
g8
Vaux
p93
sbag0
(g1
g2
(lp94
(lp95
S"word: n't, index: 3"
p96
aatp97
Rp98
(dp99
g8
Vneg
p100
sbatp101
Rp102
(dp103
g8
S'word: know, index: 4'
p104
sbatp105
Rp106
(dp107
g8
S'id: 2'
p108
sbag0
(g1
g2
(lp109
g0
(g1
g2
(lp110
g0
(g1
g2
(lp111
(lp112
S'word: Du, index: 1'
p113
aatp114
Rp115
(dp116
g8
Vnn
p117
sbatp118
Rp119
(dp120
g8
S'word: Darr, index: 2'
p121
sbatp122
Rp123
(dp124
g8
S'id: 3'
p125
sbag0
(g1
g2
(lp126
g0
(g1
g2
(lp127
g0
(g1
g2
(lp128
(lp129
S'word: I, index: 1'
p130
aatp131
Rp132
(dp133
g8
Vnsubj
p134
sbag0
(g1
g2
(lp135
(lp136
S'word: do, index: 2'
p137
aatp138
Rp139
(dp140
g8
Vaux
p141
sbag0
(g1
g2
(lp142
(lp143
S"word: n't, index: 3"
p144
aatp145
Rp146
(dp147
g8
Vneg
p148
sbatp149
Rp150
(dp151
g8
S'word: know, index: 4'
p152
sbatp153
Rp154
(dp155
g8
S'id: 4'
p156
sbag0
(g1
g2
(lp157
tp158
Rp159
(dp160
g8
S'id: 5'
p161
sbag0
(g1
g2
(lp162
g0
(g1
g2
(lp163
g0
(g1
g2
(lp164
g0
(g1
g2
(lp165
g0
(g1
g2
(lp166
(lp167
S'word: them, index: 5'
p168
aatp169
Rp170
(dp171
g8
Vprep
p172
sbatp173
Rp174
(dp175
g8
S'word: two, index: 3'
p176
sbatp177
Rp178
(dp179
g8
Vdobj
p180
sbatp181
Rp182
(dp183
g8
S'word: Leaves, index: 1'
p184
sbatp185
Rp186
(dp187
g8
S'id: 6'
p188
sbag0
(g1
g2
(lp189
g0
(g1
g2
(lp190
g0
(g1
g2
(lp191
(lp192
S'word: water, index: 2'
p193
aatp194
Rp195
(dp196
g8
Vdep
p197
sbatp198
Rp199
(dp200
g8
S'word: Tails, index: 1'
p201
sbatp202
Rp203
(dp204
g8
S'id: 7'
p205
sbag0
(g1
g2
(lp206
tp207
Rp208
(dp209
g8
S'id: 8'
p210
sbatp211
Rp212
(dp213
g8
S'sentences'
p214
sb.