ccopy_reg
_reconstructor
p0
(cnltk.tree
Tree
p1
c__builtin__
list
p2
(lp3
g0
(g1
g2
(lp4
g0
(g1
g2
(lp5
g0
(g1
g2
(lp6
g0
(g1
g2
(lp7
g0
(g1
g2
(lp8
(lp9
S'word: I, index: 1'
p10
aatp11
Rp12
(dp13
S'_label'
p14
Vnsubj
p15
sbag0
(g1
g2
(lp16
g0
(g1
g2
(lp17
g0
(g1
g2
(lp18
(lp19
S'word: a, index: 3'
p20
aatp21
Rp22
(dp23
g14
Vdet
p24
sbag0
(g1
g2
(lp25
(lp26
S'word: little, index: 4'
p27
aatp28
Rp29
(dp30
g14
Vamod
p31
sbag0
(g1
g2
(lp32
g0
(g1
g2
(lp33
g0
(g1
g2
(lp34
(lp35
S'word: who, index: 6'
p36
aatp37
Rp38
(dp39
g14
Vnsubj
p40
sbag0
(g1
g2
(lp41
(lp42
S"word: 's, index: 7"
p43
aatp44
Rp45
(dp46
g14
Vaux
p47
sbag0
(g1
g2
(lp48
(lp49
S'word: cookies, index: 10'
p50
aatp51
Rp52
(dp53
g14
Vprep
p54
sbag0
(g1
g2
(lp55
(lp56
S'word: apparently, index: 11'
p57
aatp58
Rp59
(dp60
g14
Vadvmod
p61
sbag0
(g1
g2
(lp62
g0
(g1
g2
(lp63
g0
(g1
g2
(lp64
g0
(g1
g2
(lp65
g0
(g1
g2
(lp66
(lp67
S'word: who, index: 17'
p68
aatp69
Rp70
(dp71
g14
Vnsubj
p72
sbag0
(g1
g2
(lp73
g0
(g1
g2
(lp74
g0
(g1
g2
(lp75
(lp76
S'word: the, index: 20'
p77
aatp78
Rp79
(dp80
g14
Vdet
p81
sbag0
(g1
g2
(lp82
g0
(g1
g2
(lp83
g0
(g1
g2
(lp84
g0
(g1
g2
(lp85
g0
(g1
g2
(lp86
(lp87
S'word: to, index: 23'
p88
aatp89
Rp90
(dp91
g14
Vaux
p92
sbatp93
Rp94
(dp95
g14
S'word: fall, index: 24'
p96
sbatp97
Rp98
(dp99
g14
Vxcomp
p100
sbatp101
Rp102
(dp103
g14
S'word: about, index: 22'
p104
sbatp105
Rp106
(dp107
g14
Vdep
p108
sbatp109
Rp110
(dp111
g14
S'word: stool, index: 21'
p112
sbatp113
Rp114
(dp115
g14
Vprep
p116
sbatp117
Rp118
(dp119
g14
S'word: is, index: 18'
p120
sbatp121
Rp122
(dp123
g14
Vrcmod
p124
sbag0
(g1
g2
(lp125
(lp126
S'word: probably, index: 13'
p127
aatp128
Rp129
(dp130
g14
Vadvmod
p131
sbag0
(g1
g2
(lp132
(lp133
S'word: her, index: 14'
p134
aatp135
Rp136
(dp137
g14
Vposs
p138
sbatp139
Rp140
(dp141
g14
S'word: brother, index: 15'
p142
sbatp143
Rp144
(dp145
g14
Vprep
p146
sbatp147
Rp148
(dp149
g14
S'word: asking, index: 8'
p150
sbatp151
Rp152
(dp153
g14
Vrcmod
p154
sbatp155
Rp156
(dp157
g14
S'word: girl, index: 5'
p158
sbatp159
Rp160
(dp161
g14
Vdobj
p162
sbatp163
Rp164
(dp165
g14
S'word: see, index: 2'
p166
sbatp167
Rp168
(dp169
g14
Vccomp
p170
sbag0
(g1
g2
(lp171
(lp172
S'word: he, index: 26'
p173
aatp174
Rp175
(dp176
g14
Vnsubj
p177
sbag0
(g1
g2
(lp178
(lp179
S"word: 's, index: 27"
p180
aatp181
Rp182
(dp183
g14
Vaux
p184
sbag0
(g1
g2
(lp185
(lp186
S'word: cookies, index: 30'
p187
aatp188
Rp189
(dp190
g14
Vprep
p191
sbatp192
Rp193
(dp194
g14
S'word: reaching, index: 28'
p195
sbatp196
Rp197
(dp198
g14
S'id: 0'
p199
sbag0
(g1
g2
(lp200
g0
(g1
g2
(lp201
g0
(g1
g2
(lp202
g0
(g1
g2
(lp203
g0
(g1
g2
(lp204
g0
(g1
g2
(lp205
g0
(g1
g2
(lp206
(lp207
S'word: his, index: 5'
p208
aatp209
Rp210
(dp211
g14
Vposs
p212
sbatp213
Rp214
(dp215
g14
S'word: hand, index: 6'
p216
sbatp217
Rp218
(dp219
g14
Vprep
p220
sbag0
(g1
g2
(lp221
g0
(g1
g2
(lp222
g0
(g1
g2
(lp223
(lp224
S'word: probably, index: 8'
p225
aatp226
Rp227
(dp228
g14
Vadvmod
p229
sbag0
(g1
g2
(lp230
(lp231
S'word: himself, index: 11'
p232
aatp233
Rp234
(dp235
g14
Vprep
p236
sbatp237
Rp238
(dp239
g14
S'word: one, index: 9'
p240
sbatp241
Rp242
(dp243
g14
Vconj
p244
sbag0
(g1
g2
(lp245
g0
(g1
g2
(lp246
g0
(g1
g2
(lp247
(lp248
S'word: her, index: 16'
p249
aatp250
Rp251
(dp252
g14
Vprep
p253
sbatp254
Rp255
(dp256
g14
S'word: one, index: 14'
p257
sbatp258
Rp259
(dp260
g14
Vconj
p261
sbatp262
Rp263
(dp264
g14
S'word: one, index: 3'
p265
sbatp266
Rp267
(dp268
g14
Vdobj
p269
sbag0
(g1
g2
(lp270
g238
atp271
Rp272
(dp273
g14
Vdobj
p274
sbag0
(g1
g2
(lp275
g255
atp276
Rp277
(dp278
g14
Vdobj
p279
sbag0
(g1
g2
(lp280
(lp281
S'word: He, index: 1'
p282
aatp283
Rp284
(dp285
g14
Vnsubj
p286
sbatp287
Rp288
(dp289
g14
S'word: has, index: 2'
p290
sbatp291
Rp292
(dp293
g14
S'id: 1'
p294
sbag0
(g1
g2
(lp295
g0
(g1
g2
(lp296
g0
(g1
g2
(lp297
g0
(g1
g2
(lp298
g0
(g1
g2
(lp299
(lp300
S'word: The, index: 1'
p301
aatp302
Rp303
(dp304
g14
Vdet
p305
sbag0
(g1
g2
(lp306
(lp307
S'word: cabinet, index: 2'
p308
aatp309
Rp310
(dp311
g14
Vnn
p312
sbatp313
Rp314
(dp315
g14
S'word: door, index: 3'
p316
sbatp317
Rp318
(dp319
g14
Vnsubj
p320
sbag0
(g1
g2
(lp321
(lp322
S'word: is, index: 4'
p323
aatp324
Rp325
(dp326
g14
Vcop
p327
sbatp328
Rp329
(dp330
g14
S'word: open, index: 5'
p331
sbatp332
Rp333
(dp334
g14
S'id: 2'
p335
sbag0
(g1
g2
(lp336
g0
(g1
g2
(lp337
g0
(g1
g2
(lp338
g0
(g1
g2
(lp339
g0
(g1
g2
(lp340
g0
(g1
g2
(lp341
g0
(g1
g2
(lp342
(lp343
S'word: the, index: 9'
p344
aatp345
Rp346
(dp347
g14
Vdet
p348
sbatp349
Rp350
(dp351
g14
S'word: sink, index: 10'
p352
sbatp353
Rp354
(dp355
g14
Vnsubj
p356
sbag0
(g1
g2
(lp357
(lp358
S'word: is, index: 11'
p359
aatp360
Rp361
(dp362
g14
Vaux
p363
sbag0
(g1
g2
(lp364
(lp365
S'word: over, index: 13'
p366
aatp367
Rp368
(dp369
g14
Vprt
p370
sbag0
(g1
g2
(lp371
(lp372
S'word: while, index: 8'
p373
aatp374
Rp375
(dp376
g14
Vmark
p377
sbatp378
Rp379
(dp380
g14
S'word: running, index: 12'
p381
sbatp382
Rp383
(dp384
g14
Vadvcl
p385
sbag0
(g1
g2
(lp386
(lp387
S'word: it, index: 15'
p388
aatp389
Rp390
(dp391
g14
Vnsubjpass
p392
sbag0
(g1
g2
(lp393
(lp394
S'word: is, index: 16'
p395
aatp396
Rp397
(dp398
g14
Vauxpass
p399
sbag0
(g1
g2
(lp400
(lp401
S'word: obviously, index: 17'
p402
aatp403
Rp404
(dp405
g14
Vadvmod
p406
sbag0
(g1
g2
(lp407
(lp408
S'word: up, index: 19'
p409
aatp410
Rp411
(dp412
g14
Vprt
p413
sbag0
(g1
g2
(lp414
g0
(g1
g2
(lp415
g0
(g1
g2
(lp416
(lp417
S'word: While, index: 1'
p418
aatp419
Rp420
(dp421
g14
Vmark
p422
sbag0
(g1
g2
(lp423
(lp424
S'word: mother, index: 2'
p425
aatp426
Rp427
(dp428
g14
Vnsubj
p429
sbag0
(g1
g2
(lp430
(lp431
S'word: is, index: 3'
p432
aatp433
Rp434
(dp435
g14
Vaux
p436
sbag0
(g1
g2
(lp437
(lp438
S'word: diligently, index: 4'
p439
aatp440
Rp441
(dp442
g14
Vadvmod
p443
sbag0
(g1
g2
(lp444
(lp445
S'word: dishes, index: 6'
p446
aatp447
Rp448
(dp449
g14
Vdobj
p450
sbatp451
Rp452
(dp453
g14
S'word: drying, index: 5'
p454
sbatp455
Rp456
(dp457
g14
Vadvcl
p458
sbatp459
Rp460
(dp461
g14
S'word: plugged, index: 18'
p462
sbatp463
Rp464
(dp465
g14
S'id: 3'
p466
sbag0
(g1
g2
(lp467
g0
(g1
g2
(lp468
g0
(g1
g2
(lp469
g0
(g1
g2
(lp470
g0
(g1
g2
(lp471
(lp472
S'word: I, index: 12'
p473
aatp474
Rp475
(dp476
g14
Vnsubj
p477
sbag0
(g1
g2
(lp478
g0
(g1
g2
(lp479
g0
(g1
g2
(lp480
g0
(g1
g2
(lp481
g0
(g1
g2
(lp482
(lp483
S'word: why, index: 14'
p484
aatp485
Rp486
(dp487
g14
Vadvmod
p488
sbatp489
Rp490
(dp491
g14
S'word: not, index: 15'
p492
sbatp493
Rp494
(dp495
g14
Vadvmod
p496
sbag0
(g1
g2
(lp497
(lp498
S'word: she, index: 17'
p499
aatp500
Rp501
(dp502
g14
Vnsubj
p503
sbag0
(g1
g2
(lp504
(lp505
S'word: must, index: 18'
p506
aatp507
Rp508
(dp509
g14
Vaux
p510
sbag0
(g1
g2
(lp511
(lp512
S'word: have, index: 19'
p513
aatp514
Rp515
(dp516
g14
Vaux
p517
sbag0
(g1
g2
(lp518
(lp519
S'word: just, index: 20'
p520
aatp521
Rp522
(dp523
g14
Vadvmod
p524
sbag0
(g1
g2
(lp525
g0
(g1
g2
(lp526
g0
(g1
g2
(lp527
g0
(g1
g2
(lp528
g0
(g1
g2
(lp529
(lp530
S'word: her, index: 22'
p531
aatp532
Rp533
(dp534
g14
Vposs
p535
sbatp536
Rp537
(dp538
g14
S'word: children, index: 23'
p539
sbatp540
Rp541
(dp542
g14
Vnsubj
p543
sbag0
(g1
g2
(lp544
g0
(g1
g2
(lp545
g0
(g1
g2
(lp546
g0
(g1
g2
(lp547
g0
(g1
g2
(lp548
(lp549
S'word: only, index: 27'
p550
aatp551
Rp552
(dp553
g14
Vquantmod
p554
sbatp555
Rp556
(dp557
g14
S'word: two, index: 28'
p558
sbatp559
Rp560
(dp561
g14
Vnsubj
p562
sbag0
(g1
g2
(lp563
(lp564
S'word: there, index: 25'
p565
aatp566
Rp567
(dp568
g14
Vexpl
p569
sbatp570
Rp571
(dp572
g14
S"word: 's, index: 26"
p573
sbatp574
Rp575
(dp576
g14
Vccomp
p577
sbatp578
Rp579
(dp580
g14
S'word: cause, index: 24'
p581
sbatp582
Rp583
(dp584
g14
Vccomp
p585
sbatp586
Rp587
(dp588
g14
S'word: fed, index: 21'
p589
sbatp590
Rp591
(dp592
g14
Vccomp
p593
sbatp594
Rp595
(dp596
g14
S'word: wonder, index: 13'
p597
sbatp598
Rp599
(dp600
g14
Vparataxis
p601
sbag0
(g1
g2
(lp602
(lp603
S'word: And, index: 1'
p604
aatp605
Rp606
(dp607
g14
Vcc
p608
sbag0
(g1
g2
(lp609
(lp610
S'word: she, index: 2'
p611
aatp612
Rp613
(dp614
g14
Vnsubj
p615
sbag0
(g1
g2
(lp616
g0
(g1
g2
(lp617
g0
(g1
g2
(lp618
(lp619
S'word: two, index: 4'
p620
aatp621
Rp622
(dp623
g14
Vnum
p624
sbag0
(g1
g2
(lp625
(lp626
S'word: three, index: 9'
p627
aatp628
Rp629
(dp630
g14
Vconj
p631
sbatp632
Rp633
(dp634
g14
S'word: dishes, index: 5'
p635
sbatp636
Rp637
(dp638
g14
Vdobj
p639
sbag0
(g1
g2
(lp640
(lp641
S'word: three, index: 9'
p642
aatp643
Rp644
(dp645
g14
Vdobj
p646
sbag0
(g1
g2
(lp647
(lp648
S'word: so, index: 11'
p649
aatp650
Rp651
(dp652
g14
Vadvmod
p653
sbatp654
Rp655
(dp656
g14
S'word: has, index: 3'
p657
sbatp658
Rp659
(dp660
g14
S'id: 4'
p661
sbag0
(g1
g2
(lp662
g0
(g1
g2
(lp663
g0
(g1
g2
(lp664
(lp665
S'word: And, index: 1'
p666
aatp667
Rp668
(dp669
g14
Vcc
p670
sbag0
(g1
g2
(lp671
g0
(g1
g2
(lp672
g0
(g1
g2
(lp673
(lp674
S'word: as, index: 2'
p675
aatp676
Rp677
(dp678
g14
Vmark
p679
sbag0
(g1
g2
(lp680
(lp681
S'word: I, index: 3'
p682
aatp683
Rp684
(dp685
g14
Vnsubj
p686
sbag0
(g1
g2
(lp687
(lp688
S'word: outside, index: 5'
p689
aatp690
Rp691
(dp692
g14
Vadvmod
p693
sbatp694
Rp695
(dp696
g14
S'word: look, index: 4'
p697
sbatp698
Rp699
(dp700
g14
Vadvcl
p701
sbag0
(g1
g2
(lp702
(lp703
S'word: I, index: 7'
p704
aatp705
Rp706
(dp707
g14
Vnsubj
p708
sbag0
(g1
g2
(lp709
g0
(g1
g2
(lp710
g0
(g1
g2
(lp711
(lp712
S'word: a, index: 9'
p713
aatp714
Rp715
(dp716
g14
Vdet
p717
sbag0
(g1
g2
(lp718
(lp719
S'word: nice, index: 10'
p720
aatp721
Rp722
(dp723
g14
Vamod
p724
sbag0
(g1
g2
(lp725
g0
(g1
g2
(lp726
g0
(g1
g2
(lp727
g0
(g1
g2
(lp728
g0
(g1
g2
(lp729
(lp730
S'word: a, index: 16'
p731
aatp732
Rp733
(dp734
g14
Vdet
p735
sbag0
(g1
g2
(lp736
g0
(g1
g2
(lp737
g0
(g1
g2
(lp738
(lp739
S'word: the, index: 21'
p740
aatp741
Rp742
(dp743
g14
Vdet
p744
sbatp745
Rp746
(dp747
g14
S'word: home, index: 22'
p748
sbatp749
Rp750
(dp751
g14
Vconj
p752
sbatp753
Rp754
(dp755
g14
S'word: garage, index: 17'
p756
sbatp757
Rp758
(dp759
g14
Vprep
p760
sbag0
(g1
g2
(lp761
g746
atp762
Rp763
(dp764
g14
Vprep
p765
sbag0
(g1
g2
(lp766
g0
(g1
g2
(lp767
g0
(g1
g2
(lp768
(lp769
S'word: door, index: 24'
p770
aatp771
Rp772
(dp773
g14
Vdep
p774
sbatp775
Rp776
(dp777
g14
S'word: next, index: 23'
p778
sbatp779
Rp780
(dp781
g14
Vadvmod
p782
sbag0
(g1
g2
(lp783
(lp784
S'word: that, index: 12'
p785
aatp786
Rp787
(dp788
g14
Vnsubj
p789
sbag0
(g1
g2
(lp790
(lp791
S'word: obviously, index: 13'
p792
aatp793
Rp794
(dp795
g14
Vadvmod
p796
sbatp797
Rp798
(dp799
g14
S'word: leads, index: 14'
p800
sbatp801
Rp802
(dp803
g14
Vrcmod
p804
sbatp805
Rp806
(dp807
g14
S'word: path, index: 11'
p808
sbatp809
Rp810
(dp811
g14
Vdobj
p812
sbatp813
Rp814
(dp815
g14
S'word: see, index: 8'
p816
sbatp817
Rp818
(dp819
g14
S'id: 5'
p820
sbag0
(g1
g2
(lp821
g0
(g1
g2
(lp822
g0
(g1
g2
(lp823
(lp824
S'word: it, index: 2'
p825
aatp826
Rp827
(dp828
g14
Vnsubj
p829
sbag0
(g1
g2
(lp830
(lp831
S'word: must, index: 3'
p832
aatp833
Rp834
(dp835
g14
Vaux
p836
sbag0
(g1
g2
(lp837
(lp838
S'word: be, index: 4'
p839
aatp840
Rp841
(dp842
g14
Vcop
p843
sbag0
(g1
g2
(lp844
(lp845
S'word: spring, index: 5'
p846
aatp847
Rp848
(dp849
g14
Vnn
p850
sbag0
(g1
g2
(lp851
g0
(g1
g2
(lp852
g0
(g1
g2
(lp853
(lp854
S'word: because, index: 7'
p855
aatp856
Rp857
(dp858
g14
Vmark
p859
sbag0
(g1
g2
(lp860
(lp861
S'word: there, index: 8'
p862
aatp863
Rp864
(dp865
g14
Vexpl
p866
sbag0
(g1
g2
(lp867
g0
(g1
g2
(lp868
g0
(g1
g2
(lp869
(lp870
S'word: bushes, index: 12'
p871
aatp872
Rp873
(dp874
g14
Vconj
p875
sbatp876
Rp877
(dp878
g14
S'word: trees, index: 10'
p879
sbatp880
Rp881
(dp882
g14
Vnsubj
p883
sbag0
(g1
g2
(lp884
(lp885
S'word: bushes, index: 12'
p886
aatp887
Rp888
(dp889
g14
Vnsubj
p890
sbatp891
Rp892
(dp893
g14
S'word: are, index: 9'
p894
sbatp895
Rp896
(dp897
g14
Vadvcl
p898
sbag0
(g1
g2
(lp899
(lp900
S'word: And, index: 1'
p901
aatp902
Rp903
(dp904
g14
Vcc
p905
sbatp906
Rp907
(dp908
g14
S'word: time, index: 6'
p909
sbatp910
Rp911
(dp912
g14
S'id: 6'
p913
sbag0
(g1
g2
(lp914
g0
(g1
g2
(lp915
g0
(g1
g2
(lp916
g0
(g1
g2
(lp917
g0
(g1
g2
(lp918
(lp919
S'word: she, index: 22'
p920
aatp921
Rp922
(dp923
g14
Vnsubj
p924
sbag0
(g1
g2
(lp925
g0
(g1
g2
(lp926
g0
(g1
g2
(lp927
(lp928
S'word: to, index: 24'
p929
aatp930
Rp931
(dp932
g14
Vaux
p933
sbag0
(g1
g2
(lp934
(lp935
S'word: be, index: 25'
p936
aatp937
Rp938
(dp939
g14
Vcop
p940
sbag0
(g1
g2
(lp941
(lp942
S'word: it, index: 28'
p943
aatp944
Rp945
(dp946
g14
Vprep
p947
sbatp948
Rp949
(dp950
g14
S'word: oblivious, index: 26'
p951
sbatp952
Rp953
(dp954
g14
Vxcomp
p955
sbag0
(g1
g2
(lp956
g0
(g1
g2
(lp957
g0
(g1
g2
(lp958
g0
(g1
g2
(lp959
g0
(g1
g2
(lp960
(lp961
S'word: her, index: 39'
p962
aatp963
Rp964
(dp965
g14
Vposs
p966
sbatp967
Rp968
(dp969
g14
S'word: face, index: 40'
p970
sbatp971
Rp972
(dp973
g14
Vprep
p974
sbag0
(g1
g2
(lp975
(lp976
S'word: she, index: 31'
p977
aatp978
Rp979
(dp980
g14
Vnsubj
p981
sbag0
(g1
g2
(lp982
(lp983
S'word: is, index: 32'
p984
aatp985
Rp986
(dp987
g14
Vaux
p988
sbag0
(g1
g2
(lp989
g0
(g1
g2
(lp990
g0
(g1
g2
(lp991
(lp992
S'word: dismay, index: 37'
p993
aatp994
Rp995
(dp996
g14
Vprep
p997
sbag0
(g1
g2
(lp998
(lp999
S'word: a, index: 34'
p1000
aatp1001
Rp1002
(dp1003
g14
Vdet
p1004
sbatp1005
Rp1006
(dp1007
g14
S'word: bit, index: 35'
p1008
sbatp1009
Rp1010
(dp1011
g14
Vdobj
p1012
sbatp1013
Rp1014
(dp1015
g14
S'word: showing, index: 33'
p1016
sbatp1017
Rp1018
(dp1019
g14
Vconj
p1020
sbatp1021
Rp1022
(dp1023
g14
S'word: seems, index: 23'
p1024
sbatp1025
Rp1026
(dp1027
g14
Vrcmod
p1028
sbag0
(g1
g2
(lp1029
(lp1030
S'word: And, index: 1'
p1031
aatp1032
Rp1033
(dp1034
g14
Vcc
p1035
sbag0
(g1
g2
(lp1036
g0
(g1
g2
(lp1037
g0
(g1
g2
(lp1038
g0
(g1
g2
(lp1039
g0
(g1
g2
(lp1040
(lp1041
S'word: na, index: 5'
p1042
aatp1043
Rp1044
(dp1045
g14
Vaux
p1046
sbag0
(g1
g2
(lp1047
g0
(g1
g2
(lp1048
g0
(g1
g2
(lp1049
(lp1050
S'word: if, index: 7'
p1051
aatp1052
Rp1053
(dp1054
g14
Vmark
p1055
sbag0
(g1
g2
(lp1056
(lp1057
S'word: she, index: 8'
p1058
aatp1059
Rp1060
(dp1061
g14
Vnsubj
p1062
sbag0
(g1
g2
(lp1063
(lp1064
S"word: 's, index: 9"
p1065
aatp1066
Rp1067
(dp1068
g14
Vcop
p1069
sbag0
(g1
g2
(lp1070
(lp1071
S'word: not, index: 10'
p1072
aatp1073
Rp1074
(dp1075
g14
Vneg
p1076
sbag0
(g1
g2
(lp1077
g0
(g1
g2
(lp1078
g0
(g1
g2
(lp1079
(lp1080
S'word: because, index: 13'
p1081
aatp1082
Rp1083
(dp1084
g14
Vmark
p1085
sbag0
(g1
g2
(lp1086
g0
(g1
g2
(lp1087
g0
(g1
g2
(lp1088
(lp1089
S'word: the, index: 14'
p1090
aatp1091
Rp1092
(dp1093
g14
Vdet
p1094
sbatp1095
Rp1096
(dp1097
g14
S'word: water, index: 15'
p1098
sbatp1099
Rp1100
(dp1101
g14
Vnsubj
p1102
sbag0
(g1
g2
(lp1103
g0
(g1
g2
(lp1104
g0
(g1
g2
(lp1105
(lp1106
S'word: her, index: 18'
p1107
aatp1108
Rp1109
(dp1110
g14
Vposs
p1111
sbatp1112
Rp1113
(dp1114
g14
S'word: feet, index: 19'
p1115
sbatp1116
Rp1117
(dp1118
g14
Vprep
p1119
sbatp1120
Rp1121
(dp1122
g14
S'word: is, index: 16'
p1123
sbatp1124
Rp1125
(dp1126
g14
Vadvcl
p1127
sbatp1128
Rp1129
(dp1130
g14
S'word: careful, index: 11'
p1131
sbatp1132
Rp1133
(dp1134
g14
Vadvcl
p1135
sbatp1136
Rp1137
(dp1138
g14
S'word: slip, index: 6'
p1139
sbatp1140
Rp1141
(dp1142
g14
Vxcomp
p1143
sbag0
(g1
g2
(lp1144
g1022
atp1145
Rp1146
(dp1147
g14
Vconj
p1148
sbag0
(g1
g2
(lp1149
g1014
atp1150
Rp1151
(dp1152
g14
Vconj
p1153
sbag0
(g1
g2
(lp1154
(lp1155
S"word: 's, index: 3"
p1156
aatp1157
Rp1158
(dp1159
g14
Vnsubj
p1160
sbatp1161
Rp1162
(dp1163
g14
S'word: gon, index: 4'
p1164
sbatp1165
Rp1166
(dp1167
g14
Vrcmod
p1168
sbatp1169
Rp1170
(dp1171
g14
S'word: mother, index: 2'
p1172
sbatp1173
Rp1174
(dp1175
g14
S'id: 7'
p1176
sbag0
(g1
g2
(lp1177
g0
(g1
g2
(lp1178
g0
(g1
g2
(lp1179
g0
(g1
g2
(lp1180
g0
(g1
g2
(lp1181
(lp1182
S'word: she, index: 8'
p1183
aatp1184
Rp1185
(dp1186
g14
Vnsubj
p1187
sbag0
(g1
g2
(lp1188
(lp1189
S'word: is, index: 9'
p1190
aatp1191
Rp1192
(dp1193
g14
Vaux
p1194
sbag0
(g1
g2
(lp1195
(lp1196
S'word: also, index: 10'
p1197
aatp1198
Rp1199
(dp1200
g14
Vadvmod
p1201
sbag0
(g1
g2
(lp1202
(lp1203
S'word: seemingly, index: 11'
p1204
aatp1205
Rp1206
(dp1207
g14
Vadvmod
p1208
sbag0
(g1
g2
(lp1209
g0
(g1
g2
(lp1210
g0
(g1
g2
(lp1211
(lp1212
S'word: her, index: 13'
p1213
aatp1214
Rp1215
(dp1216
g14
Vposs
p1217
sbatp1218
Rp1219
(dp1220
g14
S'word: children, index: 14'
p1221
sbatp1222
Rp1223
(dp1224
g14
Vdobj
p1225
sbatp1226
Rp1227
(dp1228
g14
S'word: ignoring, index: 12'
p1229
sbatp1230
Rp1231
(dp1232
g14
Vconj
p1233
sbag0
(g1
g2
(lp1234
(lp1235
S'word: She, index: 1'
p1236
aatp1237
Rp1238
(dp1239
g14
Vnsubj
p1240
sbag0
(g1
g2
(lp1241
(lp1242
S"word: 's, index: 2"
p1243
aatp1244
Rp1245
(dp1246
g14
Vaux
p1247
sbag0
(g1
g2
(lp1248
(lp1249
S'word: certainly, index: 3'
p1250
aatp1251
Rp1252
(dp1253
g14
Vadvmod
p1254
sbag0
(g1
g2
(lp1255
(lp1256
S'word: not, index: 4'
p1257
aatp1258
Rp1259
(dp1260
g14
Vneg
p1261
sbatp1262
Rp1263
(dp1264
g14
S'word: smiling, index: 5'
p1265
sbatp1266
Rp1267
(dp1268
g14
S'id: 8'
p1269
sbag0
(g1
g2
(lp1270
g0
(g1
g2
(lp1271
g0
(g1
g2
(lp1272
g0
(g1
g2
(lp1273
g0
(g1
g2
(lp1274
(lp1275
S'word: be, index: 11'
p1276
aatp1277
Rp1278
(dp1279
g14
Vaux
p1280
sbag0
(g1
g2
(lp1281
(lp1282
S'word: shhh, index: 13'
p1283
aatp1284
Rp1285
(dp1286
g14
Vdobj
p1287
sbag0
(g1
g2
(lp1288
g0
(g1
g2
(lp1289
g0
(g1
g2
(lp1290
(lp1291
S'word: the, index: 15'
p1292
aatp1293
Rp1294
(dp1295
g14
Vdet
p1296
sbatp1297
Rp1298
(dp1299
g14
S'word: boy, index: 16'
p1300
sbatp1301
Rp1302
(dp1303
g14
Vprep
p1304
sbag0
(g1
g2
(lp1305
g0
(g1
g2
(lp1306
g0
(g1
g2
(lp1307
(lp1308
S'word: so, index: 17'
p1309
aatp1310
Rp1311
(dp1312
g14
Vmark
p1313
sbag0
(g1
g2
(lp1314
(lp1315
S'word: that, index: 18'
p1316
aatp1317
Rp1318
(dp1319
g14
Vmark
p1320
sbag0
(g1
g2
(lp1321
(lp1322
S'word: mom, index: 19'
p1323
aatp1324
Rp1325
(dp1326
g14
Vnsubj
p1327
sbag0
(g1
g2
(lp1328
(lp1329
S'word: does, index: 20'
p1330
aatp1331
Rp1332
(dp1333
g14
Vaux
p1334
sbag0
(g1
g2
(lp1335
(lp1336
S"word: n't, index: 21"
p1337
aatp1338
Rp1339
(dp1340
g14
Vneg
p1341
sbatp1342
Rp1343
(dp1344
g14
S'word: notice, index: 22'
p1345
sbatp1346
Rp1347
(dp1348
g14
Vadvcl
p1349
sbag0
(g1
g2
(lp1350
(lp1351
S'word: to, index: 10'
p1352
aatp1353
Rp1354
(dp1355
g14
Vaux
p1356
sbatp1357
Rp1358
(dp1359
g14
S'word: saying, index: 12'
p1360
sbatp1361
Rp1362
(dp1363
g14
Vxcomp
p1364
sbag0
(g1
g2
(lp1365
g0
(g1
g2
(lp1366
g0
(g1
g2
(lp1367
g0
(g1
g2
(lp1368
g0
(g1
g2
(lp1369
(lp1370
S'word: the, index: 5'
p1371
aatp1372
Rp1373
(dp1374
g14
Vdet
p1375
sbag0
(g1
g2
(lp1376
(lp1377
S'word: one, index: 6'
p1378
aatp1379
Rp1380
(dp1381
g14
Vnum
p1382
sbag0
(g1
g2
(lp1383
(lp1384
S'word: little, index: 7'
p1385
aatp1386
Rp1387
(dp1388
g14
Vamod
p1389
sbatp1390
Rp1391
(dp1392
g14
S'word: girl, index: 8'
p1393
sbatp1394
Rp1395
(dp1396
g14
Vconj
p1397
sbatp1398
Rp1399
(dp1400
g14
S'word: the, index: 2'
p1401
sbatp1402
Rp1403
(dp1404
g14
Vnsubj
p1405
sbag0
(g1
g2
(lp1406
g1391
atp1407
Rp1408
(dp1409
g14
Vnsubj
p1410
sbag0
(g1
g2
(lp1411
g0
(g1
g2
(lp1412
g0
(g1
g2
(lp1413
g0
(g1
g2
(lp1414
g0
(g1
g2
(lp1415
(lp1416
S'word: when, index: 27'
p1417
aatp1418
Rp1419
(dp1420
g14
Vadvmod
p1421
sbag0
(g1
g2
(lp1422
(lp1423
S'word: it, index: 28'
p1424
aatp1425
Rp1426
(dp1427
g14
Vnsubj
p1428
sbag0
(g1
g2
(lp1429
(lp1430
S'word: crash, index: 30'
p1431
aatp1432
Rp1433
(dp1434
g14
Vdobj
p1435
sbatp1436
Rp1437
(dp1438
g14
S'word: goes, index: 29'
p1439
sbatp1440
Rp1441
(dp1442
g14
Vadvcl
p1443
sbag0
(g1
g2
(lp1444
(lp1445
S'word: she, index: 25'
p1446
aatp1447
Rp1448
(dp1449
g14
Vnsubj
p1450
sbatp1451
Rp1452
(dp1453
g14
S'word: will, index: 26'
p1454
sbatp1455
Rp1456
(dp1457
g14
Vconj
p1458
sbatp1459
Rp1460
(dp1461
g14
S'word: seems, index: 9'
p1462
sbatp1463
Rp1464
(dp1465
g14
S'id: 9'
p1466
sbag0
(g1
g2
(lp1467
g0
(g1
g2
(lp1468
g0
(g1
g2
(lp1469
g0
(g1
g2
(lp1470
g0
(g1
g2
(lp1471
(lp1472
S'word: all, index: 2'
p1473
aatp1474
Rp1475
(dp1476
g14
Vpredet
p1477
sbag0
(g1
g2
(lp1478
(lp1479
S'word: the, index: 3'
p1480
aatp1481
Rp1482
(dp1483
g14
Vdet
p1484
sbag0
(g1
g2
(lp1485
g0
(g1
g2
(lp1486
g0
(g1
g2
(lp1487
(lp1488
S'word: cabinet, index: 5'
p1489
aatp1490
Rp1491
(dp1492
g14
Vnn
p1493
sbatp1494
Rp1495
(dp1496
g14
S'word: doors, index: 6'
p1497
sbatp1498
Rp1499
(dp1500
g14
Vdep
p1501
sbatp1502
Rp1503
(dp1504
g14
S'word: lower, index: 4'
p1505
sbatp1506
Rp1507
(dp1508
g14
Vnsubjpass
p1509
sbag0
(g1
g2
(lp1510
(lp1511
S'word: are, index: 7'
p1512
aatp1513
Rp1514
(dp1515
g14
Vauxpass
p1516
sbag0
(g1
g2
(lp1517
g0
(g1
g2
(lp1518
g0
(g1
g2
(lp1519
g0
(g1
g2
(lp1520
g0
(g1
g2
(lp1521
(lp1522
S'word: the, index: 14'
p1523
aatp1524
Rp1525
(dp1526
g14
Vdet
p1527
sbatp1528
Rp1529
(dp1530
g14
S'word: cookies, index: 15'
p1531
sbatp1532
Rp1533
(dp1534
g14
Vdobj
p1535
sbag0
(g1
g2
(lp1536
(lp1537
S'word: top, index: 17'
p1538
aatp1539
Rp1540
(dp1541
g14
Vprep
p1542
sbag0
(g1
g2
(lp1543
g0
(g1
g2
(lp1544
g0
(g1
g2
(lp1545
(lp1546
S'word: so, index: 18'
p1547
aatp1548
Rp1549
(dp1550
g14
Vmark
p1551
sbag0
(g1
g2
(lp1552
(lp1553
S'word: they, index: 19'
p1554
aatp1555
Rp1556
(dp1557
g14
Vnsubj
p1558
sbag0
(g1
g2
(lp1559
(lp1560
S'word: would, index: 20'
p1561
aatp1562
Rp1563
(dp1564
g14
Vaux
p1565
sbag0
(g1
g2
(lp1566
(lp1567
S"word: n't, index: 21"
p1568
aatp1569
Rp1570
(dp1571
g14
Vneg
p1572
sbag0
(g1
g2
(lp1573
(lp1574
S'word: them, index: 23'
p1575
aatp1576
Rp1577
(dp1578
g14
Vdobj
p1579
sbatp1580
Rp1581
(dp1582
g14
S'word: bother, index: 22'
p1583
sbatp1584
Rp1585
(dp1586
g14
Vadvcl
p1587
sbag0
(g1
g2
(lp1588
(lp1589
S'word: apparently, index: 11'
p1590
aatp1591
Rp1592
(dp1593
g14
Vadvmod
p1594
sbag0
(g1
g2
(lp1595
(lp1596
S'word: she, index: 12'
p1597
aatp1598
Rp1599
(dp1600
g14
Vnsubj
p1601
sbatp1602
Rp1603
(dp1604
g14
S'word: put, index: 13'
p1605
sbatp1606
Rp1607
(dp1608
g14
Vconj
p1609
sbatp1610
Rp1611
(dp1612
g14
S'word: closed, index: 8'
p1613
sbatp1614
Rp1615
(dp1616
g14
S'id: 10'
p1617
sbag0
(g1
g2
(lp1618
g0
(g1
g2
(lp1619
g0
(g1
g2
(lp1620
(lp1621
S'word: But, index: 1'
p1622
aatp1623
Rp1624
(dp1625
g14
Vcc
p1626
sbag0
(g1
g2
(lp1627
(lp1628
S'word: they, index: 2'
p1629
aatp1630
Rp1631
(dp1632
g14
Vnsubj
p1633
sbag0
(g1
g2
(lp1634
(lp1635
S'word: have, index: 3'
p1636
aatp1637
Rp1638
(dp1639
g14
Vaux
p1640
sbag0
(g1
g2
(lp1641
g0
(g1
g2
(lp1642
g0
(g1
g2
(lp1643
(lp1644
S'word: their, index: 5'
p1645
aatp1646
Rp1647
(dp1648
g14
Vposs
p1649
sbatp1650
Rp1651
(dp1652
g14
S'word: way, index: 6'
p1653
sbatp1654
Rp1655
(dp1656
g14
Vdobj
p1657
sbag0
(g1
g2
(lp1658
(lp1659
S'word: them, index: 8'
p1660
aatp1661
Rp1662
(dp1663
g14
Vprep
p1664
sbatp1665
Rp1666
(dp1667
g14
S'word: found, index: 4'
p1668
sbatp1669
Rp1670
(dp1671
g14
S'id: 11'
p1672
sbag0
(g1
g2
(lp1673
g0
(g1
g2
(lp1674
g0
(g1
g2
(lp1675
g0
(g1
g2
(lp1676
g0
(g1
g2
(lp1677
(lp1678
S'word: all, index: 5'
p1679
aatp1680
Rp1681
(dp1682
g14
Vdep
p1683
sbatp1684
Rp1685
(dp1686
g14
S'word: about, index: 4'
p1687
sbatp1688
Rp1689
(dp1690
g14
Vadvmod
p1691
sbag0
(g1
g2
(lp1692
g0
(g1
g2
(lp1693
g0
(g1
g2
(lp1694
(lp1695
S'word: I, index: 6'
p1696
aatp1697
Rp1698
(dp1699
g14
Vnsubj
p1700
sbag0
(g1
g2
(lp1701
(lp1702
S'word: can, index: 7'
p1703
aatp1704
Rp1705
(dp1706
g14
Vaux
p1707
sbatp1708
Rp1709
(dp1710
g14
S'word: see, index: 8'
p1711
sbatp1712
Rp1713
(dp1714
g14
Vccomp
p1715
sbag0
(g1
g2
(lp1716
(lp1717
S'word: And, index: 1'
p1718
aatp1719
Rp1720
(dp1721
g14
Vcc
p1722
sbag0
(g1
g2
(lp1723
(lp1724
S'word: that, index: 2'
p1725
aatp1726
Rp1727
(dp1728
g14
Vnsubj
p1729
sbatp1730
Rp1731
(dp1732
g14
S"word: 's, index: 3"
p1733
sbatp1734
Rp1735
(dp1736
g14
S'id: 12'
p1737
sbatp1738
Rp1739
(dp1740
g14
S'sentences'
p1741
sb.