ccopy_reg
_reconstructor
p0
(cnltk.tree
Tree
p1
c__builtin__
list
p2
(lp3
g0
(g1
g2
(lp4
g0
(g1
g2
(lp5
g0
(g1
g2
(lp6
(lp7
S'word: ok, index: 1'
p8
aatp9
Rp10
(dp11
S'_label'
p12
Vamod
p13
sbag0
(g1
g2
(lp14
(lp15
S'word: same, index: 2'
p16
aatp17
Rp18
(dp19
g12
Vamod
p20
sbatp21
Rp22
(dp23
g12
S'word: thing, index: 3'
p24
sbatp25
Rp26
(dp27
g12
S'id: 0'
p28
sbag0
(g1
g2
(lp29
g0
(g1
g2
(lp30
g0
(g1
g2
(lp31
(lp32
S'word: there, index: 3'
p33
aatp34
Rp35
(dp36
g12
Vexpl
p37
sbag0
(g1
g2
(lp38
(lp39
S"word: 's, index: 4"
p40
aatp41
Rp42
(dp43
g12
Vaux
p44
sbag0
(g1
g2
(lp45
g0
(g1
g2
(lp46
g0
(g1
g2
(lp47
g0
(g1
g2
(lp48
g0
(g1
g2
(lp49
(lp50
S'word: a, index: 5'
p51
aatp52
Rp53
(dp54
g12
Vdet
p55
sbatp56
Rp57
(dp58
g12
S'word: clown, index: 6'
p59
sbatp60
Rp61
(dp62
g12
Vnpadvmod
p63
sbatp64
Rp65
(dp66
g12
S'word: there, index: 7'
p67
sbatp68
Rp69
(dp70
g12
Vadvmod
p71
sbag0
(g1
g2
(lp72
(lp73
S'word: popcorn, index: 9'
p74
aatp75
Rp76
(dp77
g12
Vdobj
p78
sbag0
(g1
g2
(lp79
(lp80
S'word: out, index: 10'
p81
aatp82
Rp83
(dp84
g12
Vprt
p85
sbag0
(g1
g2
(lp86
g0
(g1
g2
(lp87
g0
(g1
g2
(lp88
(lp89
S'word: the, index: 12'
p90
aatp91
Rp92
(dp93
g12
Vdet
p94
sbatp95
Rp96
(dp97
g12
S'word: kids, index: 13'
p98
sbatp99
Rp100
(dp101
g12
Vprep
p102
sbag0
(g1
g2
(lp103
(lp104
S'word: Alright, index: 1'
p105
aatp106
Rp107
(dp108
g12
Vnsubj
p109
sbatp110
Rp111
(dp112
g12
S'word: throwing, index: 8'
p113
sbatp114
Rp115
(dp116
g12
S'id: 1'
p117
sbag0
(g1
g2
(lp118
g0
(g1
g2
(lp119
g0
(g1
g2
(lp120
g0
(g1
g2
(lp121
g0
(g1
g2
(lp122
(lp123
S'word: his, index: 7'
p124
aatp125
Rp126
(dp127
g12
Vposs
p128
sbatp129
Rp130
(dp131
g12
S'word: daughter, index: 8'
p132
sbatp133
Rp134
(dp135
g12
Vprep
p136
sbag0
(g1
g2
(lp137
(lp138
S'word: There, index: 1'
p139
aatp140
Rp141
(dp142
g12
Vexpl
p143
sbag0
(g1
g2
(lp144
g0
(g1
g2
(lp145
g0
(g1
g2
(lp146
g0
(g1
g2
(lp147
g0
(g1
g2
(lp148
(lp149
S'word: a, index: 3'
p150
aatp151
Rp152
(dp153
g12
Vdet
p154
sbatp155
Rp156
(dp157
g12
S'word: gentleman, index: 4'
p158
sbatp159
Rp160
(dp161
g12
Vnpadvmod
p162
sbatp163
Rp164
(dp165
g12
S'word: there, index: 5'
p166
sbatp167
Rp168
(dp169
g12
Vadvmod
p170
sbatp171
Rp172
(dp173
g12
S"word: 's, index: 2"
p174
sbatp175
Rp176
(dp177
g12
S'id: 2'
p178
sbag0
(g1
g2
(lp179
g0
(g1
g2
(lp180
g0
(g1
g2
(lp181
(lp182
S'word: it, index: 13'
p183
aatp184
Rp185
(dp186
g12
Vnsubj
p187
sbag0
(g1
g2
(lp188
g0
(g1
g2
(lp189
g0
(g1
g2
(lp190
(lp191
S'word: a, index: 15'
p192
aatp193
Rp194
(dp195
g12
Vdet
p196
sbatp197
Rp198
(dp199
g12
S'word: loin, index: 16'
p200
sbatp201
Rp202
(dp203
g12
Vdep
p204
sbag0
(g1
g2
(lp205
g0
(g1
g2
(lp206
g0
(g1
g2
(lp207
(lp208
S'word: And, index: 1'
p209
aatp210
Rp211
(dp212
g12
Vcc
p213
sbag0
(g1
g2
(lp214
(lp215
S'word: there, index: 2'
p216
aatp217
Rp218
(dp219
g12
Vexpl
p220
sbag0
(g1
g2
(lp221
g0
(g1
g2
(lp222
g0
(g1
g2
(lp223
(lp224
S'word: the, index: 4'
p225
aatp226
Rp227
(dp228
g12
Vdet
p229
sbatp230
Rp231
(dp232
g12
S'word: man, index: 5'
p233
sbatp234
Rp235
(dp236
g12
Vnsubj
p237
sbag0
(g1
g2
(lp238
g0
(g1
g2
(lp239
g0
(g1
g2
(lp240
g0
(g1
g2
(lp241
g0
(g1
g2
(lp242
(lp243
S'word: the, index: 10'
p244
aatp245
Rp246
(dp247
g12
Vdet
p248
sbatp249
Rp250
(dp251
g12
S'word: lion, index: 11'
p252
sbatp253
Rp254
(dp255
g12
Vprep
p256
sbag0
(g1
g2
(lp257
(lp258
S'word: something, index: 8'
p259
aatp260
Rp261
(dp262
g12
Vdobj
p263
sbatp264
Rp265
(dp266
g12
S'word: doing, index: 7'
p267
sbatp268
Rp269
(dp270
g12
Vvmod
p271
sbatp272
Rp273
(dp274
g12
S"word: 's, index: 3"
p275
sbatp276
Rp277
(dp278
g12
Vccomp
p279
sbatp280
Rp281
(dp282
g12
S'word: is, index: 14'
p283
sbatp284
Rp285
(dp286
g12
S'id: 3'
p287
sbag0
(g1
g2
(lp288
g0
(g1
g2
(lp289
g0
(g1
g2
(lp290
g0
(g1
g2
(lp291
g0
(g1
g2
(lp292
(lp293
S'word: they, index: 12'
p294
aatp295
Rp296
(dp297
g12
Vnsubj
p298
sbag0
(g1
g2
(lp299
(lp300
S'word: are, index: 13'
p301
aatp302
Rp303
(dp304
g12
Vaux
p305
sbag0
(g1
g2
(lp306
g0
(g1
g2
(lp307
g0
(g1
g2
(lp308
(lp309
S'word: the, index: 15'
p310
aatp311
Rp312
(dp313
g12
Vdet
p314
sbag0
(g1
g2
(lp315
g0
(g1
g2
(lp316
g0
(g1
g2
(lp317
g0
(g1
g2
(lp318
g0
(g1
g2
(lp319
(lp320
S'word: the, index: 19'
p321
aatp322
Rp323
(dp324
g12
Vdet
p325
sbag0
(g1
g2
(lp326
g0
(g1
g2
(lp327
g0
(g1
g2
(lp328
g0
(g1
g2
(lp329
g0
(g1
g2
(lp330
(lp331
S'word: outdoor, index: 28'
p332
aatp333
Rp334
(dp335
g12
Vamod
p336
sbag0
(g1
g2
(lp337
(lp338
S'word: little, index: 27'
p339
aatp340
Rp341
(dp342
g12
Vamod
p343
sbatp344
Rp345
(dp346
g12
S'word: wheel, index: 29'
p347
sbatp348
Rp349
(dp350
g12
Vappos
p351
sbag0
(g1
g2
(lp352
(lp353
S'word: the, index: 22'
p354
aatp355
Rp356
(dp357
g12
Vdet
p358
sbag0
(g1
g2
(lp359
(lp360
S'word: little, index: 23'
p361
aatp362
Rp363
(dp364
g12
Vamod
p365
sbag0
(g1
g2
(lp366
(lp367
S'word: outdoor, index: 24'
p368
aatp369
Rp370
(dp371
g12
Vamod
p372
sbatp373
Rp374
(dp375
g12
S'word: thing, index: 25'
p376
sbatp377
Rp378
(dp379
g12
Vprep
p380
sbatp381
Rp382
(dp383
g12
S'word: screen, index: 20'
p384
sbatp385
Rp386
(dp387
g12
Vprep
p388
sbatp389
Rp390
(dp391
g12
S'word: traipsing, index: 17'
p392
sbatp393
Rp394
(dp395
g12
Vvmod
p396
sbatp397
Rp398
(dp399
g12
S'word: lady, index: 16'
p400
sbatp401
Rp402
(dp403
g12
Vdobj
p404
sbatp405
Rp406
(dp407
g12
S'word: watching, index: 14'
p408
sbatp409
Rp410
(dp411
g12
Vconj
p412
sbag0
(g1
g2
(lp413
g0
(g1
g2
(lp414
g0
(g1
g2
(lp415
(lp416
S'word: the, index: 2'
p417
aatp418
Rp419
(dp420
g12
Vdet
p421
sbatp422
Rp423
(dp424
g12
S'word: children, index: 3'
p425
sbatp426
Rp427
(dp428
g12
Vnsubj
p429
sbag0
(g1
g2
(lp430
(lp431
S'word: are, index: 4'
p432
aatp433
Rp434
(dp435
g12
Vcop
p436
sbag0
(g1
g2
(lp437
g0
(g1
g2
(lp438
g0
(g1
g2
(lp439
(lp440
S'word: to, index: 6'
p441
aatp442
Rp443
(dp444
g12
Vaux
p445
sbag0
(g1
g2
(lp446
(lp447
S'word: that, index: 9'
p448
aatp449
Rp450
(dp451
g12
Vprep
p452
sbatp453
Rp454
(dp455
g12
S'word: go, index: 7'
p456
sbatp457
Rp458
(dp459
g12
Vxcomp
p460
sbatp461
Rp462
(dp463
g12
S'word: happy, index: 5'
p464
sbatp465
Rp466
(dp467
g12
S'id: 4'
p468
sbag0
(g1
g2
(lp469
g0
(g1
g2
(lp470
g0
(g1
g2
(lp471
(lp472
S'word: And, index: 1'
p473
aatp474
Rp475
(dp476
g12
Vcc
p477
sbag0
(g1
g2
(lp478
(lp479
S'word: then, index: 2'
p480
aatp481
Rp482
(dp483
g12
Vadvmod
p484
sbag0
(g1
g2
(lp485
(lp486
S'word: there, index: 3'
p487
aatp488
Rp489
(dp490
g12
Vexpl
p491
sbag0
(g1
g2
(lp492
g0
(g1
g2
(lp493
g0
(g1
g2
(lp494
(lp495
S'word: some, index: 5'
p496
aatp497
Rp498
(dp499
g12
Vdet
p500
sbag0
(g1
g2
(lp501
g0
(g1
g2
(lp502
g0
(g1
g2
(lp503
(lp504
S'word: the, index: 8'
p505
aatp506
Rp507
(dp508
g12
Vdet
p509
sbag0
(g1
g2
(lp510
g0
(g1
g2
(lp511
g0
(g1
g2
(lp512
g0
(g1
g2
(lp513
g0
(g1
g2
(lp514
(lp515
S'word: the, index: 12'
p516
aatp517
Rp518
(dp519
g12
Vdet
p520
sbatp521
Rp522
(dp523
g12
S'word: show, index: 13'
p524
sbatp525
Rp526
(dp527
g12
Vprep
p528
sbatp529
Rp530
(dp531
g12
S'word: looking, index: 10'
p532
sbatp533
Rp534
(dp535
g12
Vvmod
p536
sbatp537
Rp538
(dp539
g12
S'word: background, index: 9'
p540
sbatp541
Rp542
(dp543
g12
Vprep
p544
sbatp545
Rp546
(dp547
g12
S'word: people, index: 6'
p548
sbatp549
Rp550
(dp551
g12
Vnsubj
p552
sbatp553
Rp554
(dp555
g12
S"word: 's, index: 4"
p556
sbatp557
Rp558
(dp559
g12
S'id: 5'
p560
sbag0
(g1
g2
(lp561
g0
(g1
g2
(lp562
g0
(g1
g2
(lp563
(lp564
S'word: there, index: 2'
p565
aatp566
Rp567
(dp568
g12
Vexpl
p569
sbag0
(g1
g2
(lp570
g0
(g1
g2
(lp571
g0
(g1
g2
(lp572
(lp573
S'word: a, index: 4'
p574
aatp575
Rp576
(dp577
g12
Vdet
p578
sbag0
(g1
g2
(lp579
(lp580
S'word: up, index: 6'
p581
aatp582
Rp583
(dp584
g12
Vdep
p585
sbag0
(g1
g2
(lp586
g0
(g1
g2
(lp587
g0
(g1
g2
(lp588
(lp589
S'word: the, index: 8'
p590
aatp591
Rp592
(dp593
g12
Vdet
p594
sbatp595
Rp596
(dp597
g12
S'word: top, index: 9'
p598
sbatp599
Rp600
(dp601
g12
Vprep
p602
sbatp603
Rp604
(dp605
g12
S'word: man, index: 5'
p606
sbatp607
Rp608
(dp609
g12
Vnsubj
p610
sbag0
(g1
g2
(lp611
(lp612
S'word: And, index: 1'
p613
aatp614
Rp615
(dp616
g12
Vcc
p617
sbatp618
Rp619
(dp620
g12
S"word: 's, index: 3"
p621
sbatp622
Rp623
(dp624
g12
S'id: 6'
p625
sbag0
(g1
g2
(lp626
g0
(g1
g2
(lp627
g0
(g1
g2
(lp628
g0
(g1
g2
(lp629
g0
(g1
g2
(lp630
(lp631
S'word: do, index: 5'
p632
aatp633
Rp634
(dp635
g12
Vaux
p636
sbag0
(g1
g2
(lp637
(lp638
S'word: they, index: 6'
p639
aatp640
Rp641
(dp642
g12
Vnsubj
p643
sbag0
(g1
g2
(lp644
(lp645
S'word: them, index: 8'
p646
aatp647
Rp648
(dp649
g12
Vdobj
p650
sbag0
(g1
g2
(lp651
(lp652
S'word: what, index: 4'
p653
aatp654
Rp655
(dp656
g12
Vdep
p657
sbatp658
Rp659
(dp660
g12
S'word: call, index: 7'
p661
sbatp662
Rp663
(dp664
g12
Vccomp
p665
sbag0
(g1
g2
(lp666
(lp667
S'word: he, index: 1'
p668
aatp669
Rp670
(dp671
g12
Vnsubj
p672
sbatp673
Rp674
(dp675
g12
S"word: 's, index: 2"
p676
sbatp677
Rp678
(dp679
g12
S'id: 7'
p680
sbatp681
Rp682
(dp683
g12
S'sentences'
p684
sb.