ccopy_reg
_reconstructor
p0
(cnltk.tree
Tree
p1
c__builtin__
list
p2
(lp3
g0
(g1
g2
(lp4
g0
(g1
g2
(lp5
g0
(g1
g2
(lp6
g0
(g1
g2
(lp7
g0
(g1
g2
(lp8
Vthe
p9
atp10
Rp11
(dp12
S'_label'
p13
VDT
p14
sbag0
(g1
g2
(lp15
Vjar
p16
atp17
Rp18
(dp19
g13
VNN
p20
sbag0
(g1
g2
(lp21
Vtoter
p22
atp23
Rp24
(dp25
g13
VNN
p26
sbatp27
Rp28
(dp29
g13
VNP
p30
sbag0
(g1
g2
(lp31
V,
p32
atp33
Rp34
(dp35
g13
V,
p36
sbag0
(g1
g2
(lp37
g0
(g1
g2
(lp38
Vand
p39
atp40
Rp41
(dp42
g13
VCC
p43
sbatp44
Rp45
(dp46
g13
VADVP
p47
sbatp48
Rp49
(dp50
g13
VNP
p51
sbag0
(g1
g2
(lp52
g0
(g1
g2
(lp53
Vfall
p54
atp55
Rp56
(dp57
g13
VVB
p58
sbag0
(g1
g2
(lp59
g0
(g1
g2
(lp60
Vdown
p61
atp62
Rp63
(dp64
g13
VRP
p65
sbatp66
Rp67
(dp68
g13
VPRT
p69
sbatp70
Rp71
(dp72
g13
VVP
p73
sbag0
(g1
g2
(lp74
V.
p75
atp76
Rp77
(dp78
g13
V.
p79
sbatp80
Rp81
(dp82
g13
VS
p83
sbatp84
Rp85
(dp86
g13
S'id: 0'
p87
sbag0
(g1
g2
(lp88
g0
(g1
g2
(lp89
g0
(g1
g2
(lp90
VAnd
p91
atp92
Rp93
(dp94
g13
VCC
p95
sbag0
(g1
g2
(lp96
g0
(g1
g2
(lp97
Vthe
p98
atp99
Rp100
(dp101
g13
VDT
p102
sbag0
(g1
g2
(lp103
Vcheaning
p104
atp105
Rp106
(dp107
g13
VJJ
p108
sbag0
(g1
g2
(lp109
Vlady
p110
atp111
Rp112
(dp113
g13
VNN
p114
sbatp115
Rp116
(dp117
g13
VNP
p118
sbag0
(g1
g2
(lp119
g0
(g1
g2
(lp120
Vhere
p121
atp122
Rp123
(dp124
g13
VRB
p125
sbatp126
Rp127
(dp128
g13
VADVP
p129
sbag0
(g1
g2
(lp130
g0
(g1
g2
(lp131
Vpull
p132
atp133
Rp134
(dp135
g13
VVB
p136
sbag0
(g1
g2
(lp137
g0
(g1
g2
(lp138
Vdown
p139
atp140
Rp141
(dp142
g13
VRB
p143
sbatp144
Rp145
(dp146
g13
VADVP
p147
sbatp148
Rp149
(dp150
g13
VVP
p151
sbag0
(g1
g2
(lp152
V.
p153
atp154
Rp155
(dp156
g13
V.
p157
sbatp158
Rp159
(dp160
g13
VS
p161
sbatp162
Rp163
(dp164
g13
S'id: 1'
p165
sbag0
(g1
g2
(lp166
g0
(g1
g2
(lp167
g0
(g1
g2
(lp168
VAnd
p169
atp170
Rp171
(dp172
g13
VCC
p173
sbag0
(g1
g2
(lp174
g0
(g1
g2
(lp175
g0
(g1
g2
(lp176
Vglass
p177
atp178
Rp179
(dp180
g13
VNN
p181
sbatp182
Rp183
(dp184
g13
VNP
p185
sbag0
(g1
g2
(lp186
V,
p187
atp188
Rp189
(dp190
g13
V,
p191
sbag0
(g1
g2
(lp192
g0
(g1
g2
(lp193
Vand
p194
atp195
Rp196
(dp197
g13
VCC
p198
sbag0
(g1
g2
(lp199
Vglass
p200
atp201
Rp202
(dp203
g13
VNN
p204
sbatp205
Rp206
(dp207
g13
VNP
p208
sbag0
(g1
g2
(lp209
V,
p210
atp211
Rp212
(dp213
g13
V,
p214
sbag0
(g1
g2
(lp215
Vand
p216
atp217
Rp218
(dp219
g13
VCC
p220
sbag0
(g1
g2
(lp221
g0
(g1
g2
(lp222
Vglass
p223
atp224
Rp225
(dp226
g13
VNN
p227
sbatp228
Rp229
(dp230
g13
VNP
p231
sbatp232
Rp233
(dp234
g13
VNP
p235
sbag0
(g1
g2
(lp236
V.
p237
atp238
Rp239
(dp240
g13
V.
p241
sbatp242
Rp243
(dp244
g13
VFRAG
p245
sbatp246
Rp247
(dp248
g13
S'id: 2'
p249
sbag0
(g1
g2
(lp250
g0
(g1
g2
(lp251
g0
(g1
g2
(lp252
g0
(g1
g2
(lp253
g0
(g1
g2
(lp254
VRight
p255
atp256
Rp257
(dp258
g13
VRB
p259
sbag0
(g1
g2
(lp260
g0
(g1
g2
(lp261
g0
(g1
g2
(lp262
Vthere
p263
atp264
Rp265
(dp266
g13
VRB
p267
sbatp268
Rp269
(dp270
g13
VNP
p271
sbag0
(g1
g2
(lp272
g0
(g1
g2
(lp273
V,
p274
atp275
Rp276
(dp277
g13
V,
p278
sbag0
(g1
g2
(lp279
g0
(g1
g2
(lp280
g0
(g1
g2
(lp281
Vright
p282
atp283
Rp284
(dp285
g13
VRB
p286
sbag0
(g1
g2
(lp287
Vthere
p288
atp289
Rp290
(dp291
g13
VRB
p292
sbatp293
Rp294
(dp295
g13
VADVP
p296
sbag0
(g1
g2
(lp297
V,
p298
atp299
Rp300
(dp301
g13
V,
p302
sbag0
(g1
g2
(lp303
Vand
p304
atp305
Rp306
(dp307
g13
VCC
p308
sbag0
(g1
g2
(lp309
Vright
p310
atp311
Rp312
(dp313
g13
VRB
p314
sbag0
(g1
g2
(lp315
g0
(g1
g2
(lp316
Vthere
p317
atp318
Rp319
(dp320
g13
VRB
p321
sbatp322
Rp323
(dp324
g13
VADVP
p325
sbatp326
Rp327
(dp328
g13
VADVP
p329
sbag0
(g1
g2
(lp330
V,
p331
atp332
Rp333
(dp334
g13
V,
p335
sbatp336
Rp337
(dp338
g13
VPRN
p339
sbatp340
Rp341
(dp342
g13
VNP
p343
sbag0
(g1
g2
(lp344
g0
(g1
g2
(lp345
Vright
p346
atp347
Rp348
(dp349
g13
VRB
p350
sbag0
(g1
g2
(lp351
g0
(g1
g2
(lp352
Vthere
p353
atp354
Rp355
(dp356
g13
VRB
p357
sbatp358
Rp359
(dp360
g13
VADVP
p361
sbatp362
Rp363
(dp364
g13
VPP
p365
sbatp366
Rp367
(dp368
g13
VADVP
p369
sbatp370
Rp371
(dp372
g13
VVP
p373
sbag0
(g1
g2
(lp374
V.
p375
atp376
Rp377
(dp378
g13
V.
p379
sbatp380
Rp381
(dp382
g13
VS
p383
sbatp384
Rp385
(dp386
g13
S'id: 3'
p387
sbag0
(g1
g2
(lp388
g0
(g1
g2
(lp389
g0
(g1
g2
(lp390
VAnd
p391
atp392
Rp393
(dp394
g13
VCC
p395
sbag0
(g1
g2
(lp396
g0
(g1
g2
(lp397
g0
(g1
g2
(lp398
Vright
p399
atp400
Rp401
(dp402
g13
VRB
p403
sbag0
(g1
g2
(lp404
Vthere
p405
atp406
Rp407
(dp408
g13
VRB
p409
sbatp410
Rp411
(dp412
g13
VNP
p413
sbag0
(g1
g2
(lp414
V,
p415
atp416
Rp417
(dp418
g13
V,
p419
sbag0
(g1
g2
(lp420
g0
(g1
g2
(lp421
Vright
p422
atp423
Rp424
(dp425
g13
VRB
p426
sbag0
(g1
g2
(lp427
Vthere
p428
atp429
Rp430
(dp431
g13
VRB
p432
sbatp433
Rp434
(dp435
g13
VNP
p436
sbag0
(g1
g2
(lp437
V.
p438
atp439
Rp440
(dp441
g13
V.
p442
sbatp443
Rp444
(dp445
g13
VNP
p446
sbatp447
Rp448
(dp449
g13
VFRAG
p450
sbatp451
Rp452
(dp453
g13
S'id: 4'
p454
sbag0
(g1
g2
(lp455
g0
(g1
g2
(lp456
g0
(g1
g2
(lp457
g0
(g1
g2
(lp458
VAnd
p459
atp460
Rp461
(dp462
g13
VCC
p463
sbatp464
Rp465
(dp466
g13
VNP
p467
sbag0
(g1
g2
(lp468
g0
(g1
g2
(lp469
g0
(g1
g2
(lp470
g0
(g1
g2
(lp471
Vtrees
p472
atp473
Rp474
(dp475
g13
VNNS
p476
sbatp477
Rp478
(dp479
g13
VNP
p480
sbag0
(g1
g2
(lp481
V,
p482
atp483
Rp484
(dp485
g13
V,
p486
sbag0
(g1
g2
(lp487
Vand
p488
atp489
Rp490
(dp491
g13
VCC
p492
sbag0
(g1
g2
(lp493
g0
(g1
g2
(lp494
Vcircles
p495
atp496
Rp497
(dp498
g13
VNNS
p499
sbatp500
Rp501
(dp502
g13
VNP
p503
sbatp504
Rp505
(dp506
g13
VNP
p507
sbatp508
Rp509
(dp510
g13
VVP
p511
sbag0
(g1
g2
(lp512
V.
p513
atp514
Rp515
(dp516
g13
V.
p517
sbatp518
Rp519
(dp520
g13
VS
p521
sbatp522
Rp523
(dp524
g13
S'id: 5'
p525
sbag0
(g1
g2
(lp526
g0
(g1
g2
(lp527
g0
(g1
g2
(lp528
g0
(g1
g2
(lp529
VHere
p530
atp531
Rp532
(dp533
g13
VRB
p534
sbatp535
Rp536
(dp537
g13
VADVP
p538
sbag0
(g1
g2
(lp539
g0
(g1
g2
(lp540
Vit
p541
atp542
Rp543
(dp544
g13
VPRP
p545
sbatp546
Rp547
(dp548
g13
VNP
p549
sbag0
(g1
g2
(lp550
g0
(g1
g2
(lp551
V's
p552
atp553
Rp554
(dp555
g13
VVBZ
p556
sbag0
(g1
g2
(lp557
g0
(g1
g2
(lp558
Va
p559
atp560
Rp561
(dp562
g13
VDT
p563
sbag0
(g1
g2
(lp564
Vwoman
p565
atp566
Rp567
(dp568
g13
VNN
p569
sbatp570
Rp571
(dp572
g13
VNP
p573
sbatp574
Rp575
(dp576
g13
VVP
p577
sbag0
(g1
g2
(lp578
V.
p579
atp580
Rp581
(dp582
g13
V.
p583
sbatp584
Rp585
(dp586
g13
VS
p587
sbatp588
Rp589
(dp590
g13
S'id: 6'
p591
sbag0
(g1
g2
(lp592
g0
(g1
g2
(lp593
g0
(g1
g2
(lp594
VAnd
p595
atp596
Rp597
(dp598
g13
VCC
p599
sbag0
(g1
g2
(lp600
g0
(g1
g2
(lp601
g0
(g1
g2
(lp602
Va
p603
atp604
Rp605
(dp606
g13
VDT
p607
sbag0
(g1
g2
(lp608
Vcircle
p609
atp610
Rp611
(dp612
g13
VNN
p613
sbatp614
Rp615
(dp616
g13
VNP
p617
sbag0
(g1
g2
(lp618
V,
p619
atp620
Rp621
(dp622
g13
V,
p623
sbag0
(g1
g2
(lp624
g0
(g1
g2
(lp625
Vand
p626
atp627
Rp628
(dp629
g13
VCC
p630
sbag0
(g1
g2
(lp631
Vtow
p632
atp633
Rp634
(dp635
g13
VNN
p636
sbatp637
Rp638
(dp639
g13
VNP
p640
sbag0
(g1
g2
(lp641
V.
p642
atp643
Rp644
(dp645
g13
V.
p646
sbatp647
Rp648
(dp649
g13
VNP
p650
sbatp651
Rp652
(dp653
g13
VFRAG
p654
sbatp655
Rp656
(dp657
g13
S'id: 7'
p658
sbag0
(g1
g2
(lp659
g0
(g1
g2
(lp660
g0
(g1
g2
(lp661
VAnd
p662
atp663
Rp664
(dp665
g13
VCC
p666
sbag0
(g1
g2
(lp667
g0
(g1
g2
(lp668
g0
(g1
g2
(lp669
Vright
p670
atp671
Rp672
(dp673
g13
VRB
p674
sbag0
(g1
g2
(lp675
Vthere
p676
atp677
Rp678
(dp679
g13
VRB
p680
sbatp681
Rp682
(dp683
g13
VNP
p684
sbag0
(g1
g2
(lp685
V,
p686
atp687
Rp688
(dp689
g13
V,
p690
sbag0
(g1
g2
(lp691
g0
(g1
g2
(lp692
Vright
p693
atp694
Rp695
(dp696
g13
VRB
p697
sbag0
(g1
g2
(lp698
Vthere
p699
atp700
Rp701
(dp702
g13
VRB
p703
sbatp704
Rp705
(dp706
g13
VNP
p707
sbag0
(g1
g2
(lp708
V.
p709
atp710
Rp711
(dp712
g13
V.
p713
sbatp714
Rp715
(dp716
g13
VNP
p717
sbatp718
Rp719
(dp720
g13
VFRAG
p721
sbatp722
Rp723
(dp724
g13
S'id: 8'
p725
sbag0
(g1
g2
(lp726
g0
(g1
g2
(lp727
g0
(g1
g2
(lp728
VAnd
p729
atp730
Rp731
(dp732
g13
VCC
p733
sbag0
(g1
g2
(lp734
g0
(g1
g2
(lp735
Vright
p736
atp737
Rp738
(dp739
g13
VRB
p740
sbag0
(g1
g2
(lp741
Vthere
p742
atp743
Rp744
(dp745
g13
VRB
p746
sbatp747
Rp748
(dp749
g13
VADVP
p750
sbag0
(g1
g2
(lp751
V.
p752
atp753
Rp754
(dp755
g13
V.
p756
sbatp757
Rp758
(dp759
g13
VFRAG
p760
sbatp761
Rp762
(dp763
g13
S'id: 9'
p764
sbag0
(g1
g2
(lp765
g0
(g1
g2
(lp766
g0
(g1
g2
(lp767
VAnd
p768
atp769
Rp770
(dp771
g13
VCC
p772
sbag0
(g1
g2
(lp773
g0
(g1
g2
(lp774
g0
(g1
g2
(lp775
Vright
p776
atp777
Rp778
(dp779
g13
VRB
p780
sbag0
(g1
g2
(lp781
Vthere
p782
atp783
Rp784
(dp785
g13
VRB
p786
sbatp787
Rp788
(dp789
g13
VADVP
p790
sbag0
(g1
g2
(lp791
V,
p792
atp793
Rp794
(dp795
g13
V,
p796
sbag0
(g1
g2
(lp797
Vand
p798
atp799
Rp800
(dp801
g13
VCC
p802
sbag0
(g1
g2
(lp803
Vright
p804
atp805
Rp806
(dp807
g13
VRB
p808
sbag0
(g1
g2
(lp809
g0
(g1
g2
(lp810
Vthere
p811
atp812
Rp813
(dp814
g13
VRB
p815
sbatp816
Rp817
(dp818
g13
VADVP
p819
sbatp820
Rp821
(dp822
g13
VADVP
p823
sbag0
(g1
g2
(lp824
V,
p825
atp826
Rp827
(dp828
g13
V,
p829
sbag0
(g1
g2
(lp830
g0
(g1
g2
(lp831
Vand
p832
atp833
Rp834
(dp835
g13
VCC
p836
sbag0
(g1
g2
(lp837
g0
(g1
g2
(lp838
Vright
p839
atp840
Rp841
(dp842
g13
VRB
p843
sbag0
(g1
g2
(lp844
Vthere
p845
atp846
Rp847
(dp848
g13
VRB
p849
sbatp850
Rp851
(dp852
g13
VNP
p853
sbatp854
Rp855
(dp856
g13
VPP
p857
sbag0
(g1
g2
(lp858
V.
p859
atp860
Rp861
(dp862
g13
V.
p863
sbatp864
Rp865
(dp866
g13
VFRAG
p867
sbatp868
Rp869
(dp870
g13
S'id: 10'
p871
sbag0
(g1
g2
(lp872
g0
(g1
g2
(lp873
g0
(g1
g2
(lp874
g0
(g1
g2
(lp875
VThat
p876
atp877
Rp878
(dp879
g13
VDT
p880
sbatp881
Rp882
(dp883
g13
VNP
p884
sbag0
(g1
g2
(lp885
g0
(g1
g2
(lp886
V's
p887
atp888
Rp889
(dp890
g13
VVBZ
p891
sbag0
(g1
g2
(lp892
g0
(g1
g2
(lp893
Vall
p894
atp895
Rp896
(dp897
g13
VDT
p898
sbatp899
Rp900
(dp901
g13
VNP
p902
sbatp903
Rp904
(dp905
g13
VVP
p906
sbag0
(g1
g2
(lp907
V.
p908
atp909
Rp910
(dp911
g13
V.
p912
sbatp913
Rp914
(dp915
g13
VS
p916
sbatp917
Rp918
(dp919
g13
S'id: 11'
p920
sbag0
(g1
g2
(lp921
g0
(g1
g2
(lp922
g0
(g1
g2
(lp923
g0
(g1
g2
(lp924
VApron
p925
atp926
Rp927
(dp928
g13
VNN
p929
sbatp930
Rp931
(dp932
g13
VNP
p933
sbag0
(g1
g2
(lp934
g0
(g1
g2
(lp935
g0
(g1
g2
(lp936
Vthere
p937
atp938
Rp939
(dp940
g13
VRB
p941
sbatp942
Rp943
(dp944
g13
VNP
p945
sbag0
(g1
g2
(lp946
V,
p947
atp948
Rp949
(dp950
g13
V,
p951
sbag0
(g1
g2
(lp952
g0
(g1
g2
(lp953
Vand
p954
atp955
Rp956
(dp957
g13
VCC
p958
sbatp959
Rp960
(dp961
g13
VADVP
p962
sbatp963
Rp964
(dp965
g13
VNP
p966
sbag0
(g1
g2
(lp967
V.
p968
atp969
Rp970
(dp971
g13
V.
p972
sbatp973
Rp974
(dp975
g13
VNP
p976
sbatp977
Rp978
(dp979
g13
S'id: 12'
p980
sbag0
(g1
g2
(lp981
g0
(g1
g2
(lp982
g0
(g1
g2
(lp983
g0
(g1
g2
(lp984
VI
p985
atp986
Rp987
(dp988
g13
VPRP
p989
sbatp990
Rp991
(dp992
g13
VNP
p993
sbag0
(g1
g2
(lp994
g0
(g1
g2
(lp995
Vca
p996
atp997
Rp998
(dp999
g13
VMD
p1000
sbag0
(g1
g2
(lp1001
Vn't
p1002
atp1003
Rp1004
(dp1005
g13
VRB
p1006
sbag0
(g1
g2
(lp1007
g0
(g1
g2
(lp1008
Vtalk
p1009
atp1010
Rp1011
(dp1012
g13
VVB
p1013
sbag0
(g1
g2
(lp1014
g0
(g1
g2
(lp1015
Veither
p1016
atp1017
Rp1018
(dp1019
g13
VCC
p1020
sbatp1021
Rp1022
(dp1023
g13
VADVP
p1024
sbatp1025
Rp1026
(dp1027
g13
VVP
p1028
sbatp1029
Rp1030
(dp1031
g13
VVP
p1032
sbag0
(g1
g2
(lp1033
V.
p1034
atp1035
Rp1036
(dp1037
g13
V.
p1038
sbatp1039
Rp1040
(dp1041
g13
VS
p1042
sbatp1043
Rp1044
(dp1045
g13
S'id: 13'
p1046
sbag0
(g1
g2
(lp1047
g0
(g1
g2
(lp1048
g0
(g1
g2
(lp1049
g0
(g1
g2
(lp1050
VAnd
p1051
atp1052
Rp1053
(dp1054
g13
VCC
p1055
sbatp1056
Rp1057
(dp1058
g13
VNP
p1059
sbag0
(g1
g2
(lp1060
g0
(g1
g2
(lp1061
g0
(g1
g2
(lp1062
V,
p1063
atp1064
Rp1065
(dp1066
g13
V,
p1067
sbag0
(g1
g2
(lp1068
Vand
p1069
atp1070
Rp1071
(dp1072
g13
VCC
p1073
sbag0
(g1
g2
(lp1074
g0
(g1
g2
(lp1075
Vhere
p1076
atp1077
Rp1078
(dp1079
g13
VRB
p1080
sbatp1081
Rp1082
(dp1083
g13
VADVP
p1084
sbatp1085
Rp1086
(dp1087
g13
VPRN
p1088
sbag0
(g1
g2
(lp1089
g0
(g1
g2
(lp1090
g0
(g1
g2
(lp1091
Vto
p1092
atp1093
Rp1094
(dp1095
g13
VTO
p1096
sbag0
(g1
g2
(lp1097
g0
(g1
g2
(lp1098
Vhere
p1099
atp1100
Rp1101
(dp1102
g13
VRB
p1103
sbatp1104
Rp1105
(dp1106
g13
VNP
p1107
sbatp1108
Rp1109
(dp1110
g13
VPP
p1111
sbag0
(g1
g2
(lp1112
V,
p1113
atp1114
Rp1115
(dp1116
g13
V,
p1117
sbag0
(g1
g2
(lp1118
Vand
p1119
atp1120
Rp1121
(dp1122
g13
VCC
p1123
sbag0
(g1
g2
(lp1124
g0
(g1
g2
(lp1125
Vhere
p1126
atp1127
Rp1128
(dp1129
g13
VRB
p1130
sbatp1131
Rp1132
(dp1133
g13
VADVP
p1134
sbag0
(g1
g2
(lp1135
g0
(g1
g2
(lp1136
Vto
p1137
atp1138
Rp1139
(dp1140
g13
VTO
p1141
sbag0
(g1
g2
(lp1142
g0
(g1
g2
(lp1143
Vhere
p1144
atp1145
Rp1146
(dp1147
g13
VRB
p1148
sbatp1149
Rp1150
(dp1151
g13
VNP
p1152
sbatp1153
Rp1154
(dp1155
g13
VPP
p1156
sbatp1157
Rp1158
(dp1159
g13
VPP
p1160
sbatp1161
Rp1162
(dp1163
g13
VVP
p1164
sbag0
(g1
g2
(lp1165
V.
p1166
atp1167
Rp1168
(dp1169
g13
V.
p1170
sbatp1171
Rp1172
(dp1173
g13
VS
p1174
sbatp1175
Rp1176
(dp1177
g13
S'id: 14'
p1178
sbatp1179
Rp1180
(dp1181
g13
S'sentences'
p1182
sb.