ccopy_reg
_reconstructor
p0
(cnltk.tree
Tree
p1
c__builtin__
list
p2
(lp3
g0
(g1
g2
(lp4
g0
(g1
g2
(lp5
g0
(g1
g2
(lp6
g0
(g1
g2
(lp7
g0
(g1
g2
(lp8
(lp9
S'word: dishes, index: 3'
p10
aatp11
Rp12
(dp13
S'_label'
p14
Vdobj
p15
sbatp16
Rp17
(dp18
g14
S'word: wishing, index: 2'
p19
sbatp20
Rp21
(dp22
g14
Vvmod
p23
sbatp24
Rp25
(dp26
g14
S'word: Mama, index: 1'
p27
sbatp28
Rp29
(dp30
g14
S'id: 0'
p31
sbag0
(g1
g2
(lp32
g0
(g1
g2
(lp33
g0
(g1
g2
(lp34
g0
(g1
g2
(lp35
g0
(g1
g2
(lp36
g0
(g1
g2
(lp37
g0
(g1
g2
(lp38
(lp39
S'word: there, index: 5'
p40
aatp41
Rp42
(dp43
g14
Vexpl
p44
sbag0
(g1
g2
(lp45
g0
(g1
g2
(lp46
g0
(g1
g2
(lp47
(lp48
S'word: a, index: 7'
p49
aatp50
Rp51
(dp52
g14
Vdet
p53
sbag0
(g1
g2
(lp54
g0
(g1
g2
(lp55
g0
(g1
g2
(lp56
(lp57
S'word: a, index: 10'
p58
aatp59
Rp60
(dp61
g14
Vdet
p62
sbatp63
Rp64
(dp65
g14
S'word: bar, index: 11'
p66
sbatp67
Rp68
(dp69
g14
Vconj
p70
sbatp71
Rp72
(dp73
g14
S'word: kids, index: 8'
p74
sbatp75
Rp76
(dp77
g14
Vnsubj
p78
sbag0
(g1
g2
(lp79
g64
atp80
Rp81
(dp82
g14
Vnsubj
p83
sbatp84
Rp85
(dp86
g14
S"word: 's, index: 6"
p87
sbatp88
Rp89
(dp90
g14
Vdep
p91
sbag0
(g1
g2
(lp92
g0
(g1
g2
(lp93
g0
(g1
g2
(lp94
(lp95
S'word: a, index: 14'
p96
aatp97
Rp98
(dp99
g14
Vdet
p100
sbatp101
Rp102
(dp103
g14
S'word: girl, index: 15'
p104
sbatp105
Rp106
(dp107
g14
Vconj
p108
sbatp109
Rp110
(dp111
g14
S'word: a, index: 3'
p112
sbatp113
Rp114
(dp115
g14
Vnsubj
p116
sbag0
(g1
g2
(lp117
g102
atp118
Rp119
(dp120
g14
Vnsubj
p121
sbag0
(g1
g2
(lp122
(lp123
S'word: There, index: 1'
p124
aatp125
Rp126
(dp127
g14
Vexpl
p128
sbag0
(g1
g2
(lp129
g0
(g1
g2
(lp130
g0
(g1
g2
(lp131
g110
atp132
Rp133
(dp134
g14
Vnsubj
p135
sbag0
(g1
g2
(lp136
g0
(g1
g2
(lp137
g0
(g1
g2
(lp138
(lp139
S'word: to, index: 19'
p140
aatp141
Rp142
(dp143
g14
Vaux
p144
sbag0
(g1
g2
(lp145
g0
(g1
g2
(lp146
g0
(g1
g2
(lp147
(lp148
S'word: the, index: 21'
p149
aatp150
Rp151
(dp152
g14
Vdet
p153
sbatp154
Rp155
(dp156
g14
S'word: cookies, index: 22'
p157
sbatp158
Rp159
(dp160
g14
Vdobj
p161
sbatp162
Rp163
(dp164
g14
S'word: see, index: 20'
p165
sbatp166
Rp167
(dp168
g14
Vxcomp
p169
sbatp170
Rp171
(dp172
g14
S'word: trying, index: 18'
p173
sbatp174
Rp175
(dp176
g14
Vconj
p177
sbatp178
Rp179
(dp180
g14
S"word: 's, index: 2"
p181
sbatp182
Rp183
(dp184
g14
S'id: 1'
p185
sbag0
(g1
g2
(lp186
g0
(g1
g2
(lp187
g0
(g1
g2
(lp188
g0
(g1
g2
(lp189
g0
(g1
g2
(lp190
(lp191
S'word: the, index: 6'
p192
aatp193
Rp194
(dp195
g14
Vdet
p196
sbag0
(g1
g2
(lp197
g0
(g1
g2
(lp198
g0
(g1
g2
(lp199
(lp200
S'word: the, index: 9'
p201
aatp202
Rp203
(dp204
g14
Vdet
p205
sbag0
(g1
g2
(lp206
g0
(g1
g2
(lp207
g0
(g1
g2
(lp208
(lp209
S'word: flowing, index: 13'
p210
aatp211
Rp212
(dp213
g14
Vamod
p214
sbatp215
Rp216
(dp217
g14
S'word: water, index: 12'
p218
sbatp219
Rp220
(dp221
g14
Vappos
p222
sbag0
(g1
g2
(lp223
g0
(g1
g2
(lp224
g0
(g1
g2
(lp225
g0
(g1
g2
(lp226
g0
(g1
g2
(lp227
g0
(g1
g2
(lp228
g0
(g1
g2
(lp229
(lp230
S'word: the, index: 18'
p231
aatp232
Rp233
(dp234
g14
Vdet
p235
sbatp236
Rp237
(dp238
g14
S'word: floor, index: 19'
p239
sbatp240
Rp241
(dp242
g14
Vprep
p243
sbatp244
Rp245
(dp246
g14
S'word: flowing, index: 16'
p247
sbatp248
Rp249
(dp250
g14
Vvmod
p251
sbatp252
Rp253
(dp254
g14
S'word: water, index: 15'
p255
sbatp256
Rp257
(dp258
g14
Vappos
p259
sbatp260
Rp261
(dp262
g14
S'word: kitchen, index: 10'
p263
sbatp264
Rp265
(dp266
g14
Vprep
p267
sbatp268
Rp269
(dp270
g14
S'word: take, index: 7'
p271
sbatp272
Rp273
(dp274
g14
Vappos
p275
sbag0
(g1
g2
(lp276
(lp277
S'word: And, index: 1'
p278
aatp279
Rp280
(dp281
g14
Vcc
p282
sbag0
(g1
g2
(lp283
(lp284
S'word: the, index: 2'
p285
aatp286
Rp287
(dp288
g14
Vdet
p289
sbag0
(g1
g2
(lp290
(lp291
S'word: little, index: 3'
p292
aatp293
Rp294
(dp295
g14
Vamod
p296
sbatp297
Rp298
(dp299
g14
S'word: girl, index: 4'
p300
sbatp301
Rp302
(dp303
g14
S'id: 2'
p304
sbag0
(g1
g2
(lp305
g0
(g1
g2
(lp306
g0
(g1
g2
(lp307
(lp308
S'word: you, index: 1'
p309
aatp310
Rp311
(dp312
g14
Vnsubj
p313
sbag0
(g1
g2
(lp314
g0
(g1
g2
(lp315
g0
(g1
g2
(lp316
(lp317
S'word: a, index: 3'
p318
aatp319
Rp320
(dp321
g14
Vdet
p322
sbag0
(g1
g2
(lp323
g0
(g1
g2
(lp324
g0
(g1
g2
(lp325
(lp326
S'word: berry, index: 6'
p327
aatp328
Rp329
(dp330
g14
Vnn
p331
sbag0
(g1
g2
(lp332
(lp333
S'word: nice, index: 7'
p334
aatp335
Rp336
(dp337
g14
Vamod
p338
sbatp339
Rp340
(dp341
g14
S'word: kitchen, index: 8'
p342
sbatp343
Rp344
(dp345
g14
Vappos
p346
sbatp347
Rp348
(dp349
g14
S'word: beb, index: 4'
p350
sbatp351
Rp352
(dp353
g14
Vdobj
p354
sbatp355
Rp356
(dp357
g14
S'word: got, index: 2'
p358
sbatp359
Rp360
(dp361
g14
S'id: 3'
p362
sbag0
(g1
g2
(lp363
g0
(g1
g2
(lp364
g0
(g1
g2
(lp365
(lp366
S'word: cups, index: 12'
p367
aatp368
Rp369
(dp370
g14
Vdobj
p371
sbag0
(g1
g2
(lp372
(lp373
S'word: You, index: 1'
p374
aatp375
Rp376
(dp377
g14
Vnsubj
p378
sbag0
(g1
g2
(lp379
g0
(g1
g2
(lp380
g0
(g1
g2
(lp381
(lp382
S'word: cups, index: 12'
p383
aatp384
Rp385
(dp386
g14
Vconj
p387
sbag0
(g1
g2
(lp388
(lp389
S'word: some, index: 3'
p390
aatp391
Rp392
(dp393
g14
Vdet
p394
sbag0
(g1
g2
(lp395
(lp396
S'word: pots, index: 7'
p397
aatp398
Rp399
(dp400
g14
Vconj
p401
sbag0
(g1
g2
(lp402
(lp403
S'word: plates, index: 9'
p404
aatp405
Rp406
(dp407
g14
Vconj
p408
sbatp409
Rp410
(dp411
g14
S'word: plates, index: 4'
p412
sbatp413
Rp414
(dp415
g14
Vdobj
p416
sbag0
(g1
g2
(lp417
(lp418
S'word: pots, index: 7'
p419
aatp420
Rp421
(dp422
g14
Vdobj
p423
sbag0
(g1
g2
(lp424
(lp425
S'word: plates, index: 9'
p426
aatp427
Rp428
(dp429
g14
Vdobj
p430
sbatp431
Rp432
(dp433
g14
S'word: have, index: 2'
p434
sbatp435
Rp436
(dp437
g14
S'id: 4'
p438
sbag0
(g1
g2
(lp439
g0
(g1
g2
(lp440
g0
(g1
g2
(lp441
g0
(g1
g2
(lp442
g0
(g1
g2
(lp443
g0
(g1
g2
(lp444
g0
(g1
g2
(lp445
(lp446
S'word: what, index: 5'
p447
aatp448
Rp449
(dp450
g14
Vnsubj
p451
sbatp452
Rp453
(dp454
g14
S'word: is, index: 6'
p455
sbatp456
Rp457
(dp458
g14
Vrcmod
p459
sbatp460
Rp461
(dp462
g14
S'word: pa, index: 3'
p463
sbatp464
Rp465
(dp466
g14
Vappos
p467
sbatp468
Rp469
(dp470
g14
S'word: no, index: 1'
p471
sbatp472
Rp473
(dp474
g14
S'id: 5'
p475
sbatp476
Rp477
(dp478
g14
S'sentences'
p479
sb.