ccopy_reg
_reconstructor
p0
(cnltk.tree
Tree
p1
c__builtin__
list
p2
(lp3
g0
(g1
g2
(lp4
g0
(g1
g2
(lp5
g0
(g1
g2
(lp6
g0
(g1
g2
(lp7
Vwe
p8
atp9
Rp10
(dp11
S'_label'
p12
VPRP
p13
sbatp14
Rp15
(dp16
g12
VNP
p17
sbag0
(g1
g2
(lp18
g0
(g1
g2
(lp19
V're
p20
atp21
Rp22
(dp23
g12
VVBP
p24
sbag0
(g1
g2
(lp25
g0
(g1
g2
(lp26
Vat
p27
atp28
Rp29
(dp30
g12
VIN
p31
sbag0
(g1
g2
(lp32
g0
(g1
g2
(lp33
Vthe
p34
atp35
Rp36
(dp37
g12
VDT
p38
sbag0
(g1
g2
(lp39
Vcircus
p40
atp41
Rp42
(dp43
g12
VNN
p44
sbatp45
Rp46
(dp47
g12
VNP
p48
sbatp49
Rp50
(dp51
g12
VPP
p52
sbatp53
Rp54
(dp55
g12
VVP
p56
sbag0
(g1
g2
(lp57
V.
p58
atp59
Rp60
(dp61
g12
V.
p62
sbatp63
Rp64
(dp65
g12
VS
p66
sbatp67
Rp68
(dp69
g12
S'id: 0'
p70
sbag0
(g1
g2
(lp71
g0
(g1
g2
(lp72
g0
(g1
g2
(lp73
g0
(g1
g2
(lp74
VThere
p75
atp76
Rp77
(dp78
g12
VEX
p79
sbatp80
Rp81
(dp82
g12
VNP
p83
sbag0
(g1
g2
(lp84
g0
(g1
g2
(lp85
V's
p86
atp87
Rp88
(dp89
g12
VVBZ
p90
sbag0
(g1
g2
(lp91
g0
(g1
g2
(lp92
g0
(g1
g2
(lp93
Vone
p94
atp95
Rp96
(dp97
g12
VCD
p98
sbatp99
Rp100
(dp101
g12
VNP
p102
sbag0
(g1
g2
(lp103
V,
p104
atp105
Rp106
(dp107
g12
V,
p108
sbag0
(g1
g2
(lp109
g0
(g1
g2
(lp110
Vtwo
p111
atp112
Rp113
(dp114
g12
VCD
p115
sbatp116
Rp117
(dp118
g12
VNP
p119
sbag0
(g1
g2
(lp120
V,
p121
atp122
Rp123
(dp124
g12
V,
p125
sbag0
(g1
g2
(lp126
g0
(g1
g2
(lp127
Vthree
p128
atp129
Rp130
(dp131
g12
VCD
p132
sbatp133
Rp134
(dp135
g12
VNP
p136
sbag0
(g1
g2
(lp137
V,
p138
atp139
Rp140
(dp141
g12
V,
p142
sbag0
(g1
g2
(lp143
g0
(g1
g2
(lp144
Vfour
p145
atp146
Rp147
(dp148
g12
VCD
p149
sbatp150
Rp151
(dp152
g12
VNP
p153
sbag0
(g1
g2
(lp154
V,
p155
atp156
Rp157
(dp158
g12
V,
p159
sbag0
(g1
g2
(lp160
g0
(g1
g2
(lp161
Vfive
p162
atp163
Rp164
(dp165
g12
VCD
p166
sbag0
(g1
g2
(lp167
Vparticipants
p168
atp169
Rp170
(dp171
g12
VNNS
p172
sbatp173
Rp174
(dp175
g12
VNP
p176
sbag0
(g1
g2
(lp177
V,
p178
atp179
Rp180
(dp181
g12
V,
p182
sbag0
(g1
g2
(lp183
g0
(g1
g2
(lp184
g0
(g1
g2
(lp185
Vsix
p186
atp187
Rp188
(dp189
g12
VCD
p190
sbatp191
Rp192
(dp193
g12
VNP
p194
sbag0
(g1
g2
(lp195
g0
(g1
g2
(lp196
Vwith
p197
atp198
Rp199
(dp200
g12
VIN
p201
sbag0
(g1
g2
(lp202
g0
(g1
g2
(lp203
Vthe
p204
atp205
Rp206
(dp207
g12
VDT
p208
sbag0
(g1
g2
(lp209
Vhorse
p210
atp211
Rp212
(dp213
g12
VNN
p214
sbatp215
Rp216
(dp217
g12
VNP
p218
sbatp219
Rp220
(dp221
g12
VPP
p222
sbatp223
Rp224
(dp225
g12
VNP
p226
sbatp227
Rp228
(dp229
g12
VNP
p230
sbatp231
Rp232
(dp233
g12
VVP
p234
sbag0
(g1
g2
(lp235
V.
p236
atp237
Rp238
(dp239
g12
V.
p240
sbatp241
Rp242
(dp243
g12
VS
p244
sbatp245
Rp246
(dp247
g12
S'id: 1'
p248
sbag0
(g1
g2
(lp249
g0
(g1
g2
(lp250
g0
(g1
g2
(lp251
g0
(g1
g2
(lp252
VAnd
p253
atp254
Rp255
(dp256
g12
VCC
p257
sbag0
(g1
g2
(lp258
g0
(g1
g2
(lp259
Vthen
p260
atp261
Rp262
(dp263
g12
VRB
p264
sbatp265
Rp266
(dp267
g12
VADVP
p268
sbag0
(g1
g2
(lp269
g0
(g1
g2
(lp270
Vwe
p271
atp272
Rp273
(dp274
g12
VPRP
p275
sbatp276
Rp277
(dp278
g12
VNP
p279
sbag0
(g1
g2
(lp280
g0
(g1
g2
(lp281
Vhave
p282
atp283
Rp284
(dp285
g12
VVBP
p286
sbag0
(g1
g2
(lp287
g0
(g1
g2
(lp288
g0
(g1
g2
(lp289
g0
(g1
g2
(lp290
g0
(g1
g2
(lp291
Vone
p292
atp293
Rp294
(dp295
g12
VCD
p296
sbatp297
Rp298
(dp299
g12
VNP
p300
sbag0
(g1
g2
(lp301
V,
p302
atp303
Rp304
(dp305
g12
V,
p306
sbag0
(g1
g2
(lp307
g0
(g1
g2
(lp308
Vtwo
p309
atp310
Rp311
(dp312
g12
VCD
p313
sbatp314
Rp315
(dp316
g12
VNP
p317
sbag0
(g1
g2
(lp318
V,
p319
atp320
Rp321
(dp322
g12
V,
p323
sbag0
(g1
g2
(lp324
g0
(g1
g2
(lp325
Vthree
p326
atp327
Rp328
(dp329
g12
VCD
p330
sbag0
(g1
g2
(lp331
Vchildren
p332
atp333
Rp334
(dp335
g12
VNNS
p336
sbatp337
Rp338
(dp339
g12
VNP
p340
sbag0
(g1
g2
(lp341
V,
p342
atp343
Rp344
(dp345
g12
V,
p346
sbag0
(g1
g2
(lp347
Vand
p348
atp349
Rp350
(dp351
g12
VCC
p352
sbag0
(g1
g2
(lp353
g0
(g1
g2
(lp354
Vone
p355
atp356
Rp357
(dp358
g12
VCD
p359
sbatp360
Rp361
(dp362
g12
VNP
p363
sbag0
(g1
g2
(lp364
V,
p365
atp366
Rp367
(dp368
g12
V,
p369
sbag0
(g1
g2
(lp370
g0
(g1
g2
(lp371
g0
(g1
g2
(lp372
Vtwo
p373
atp374
Rp375
(dp376
g12
VCD
p377
sbag0
(g1
g2
(lp378
Vparents
p379
atp380
Rp381
(dp382
g12
VNNS
p383
sbatp384
Rp385
(dp386
g12
VNP
p387
sbag0
(g1
g2
(lp388
g0
(g1
g2
(lp389
V-
p390
atp391
Rp392
(dp393
g12
V:
p394
sbag0
(g1
g2
(lp395
g0
(g1
g2
(lp396
g0
(g1
g2
(lp397
Va
p398
atp399
Rp400
(dp401
g12
VDT
p402
sbag0
(g1
g2
(lp403
Vmother
p404
atp405
Rp406
(dp407
g12
VNN
p408
sbatp409
Rp410
(dp411
g12
VNP
p412
sbag0
(g1
g2
(lp413
Vand
p414
atp415
Rp416
(dp417
g12
VCC
p418
sbag0
(g1
g2
(lp419
g0
(g1
g2
(lp420
Va
p421
atp422
Rp423
(dp424
g12
VDT
p425
sbag0
(g1
g2
(lp426
Vfather
p427
atp428
Rp429
(dp430
g12
VNN
p431
sbatp432
Rp433
(dp434
g12
VNP
p435
sbatp436
Rp437
(dp438
g12
VNP
p439
sbag0
(g1
g2
(lp440
V-
p441
atp442
Rp443
(dp444
g12
V:
p445
sbatp446
Rp447
(dp448
g12
VPRN
p449
sbatp450
Rp451
(dp452
g12
VNP
p453
sbag0
(g1
g2
(lp454
Vand
p455
atp456
Rp457
(dp458
g12
VCC
p459
sbag0
(g1
g2
(lp460
g0
(g1
g2
(lp461
Vthen
p462
atp463
Rp464
(dp465
g12
VRB
p466
sbatp467
Rp468
(dp469
g12
VADVP
p470
sbag0
(g1
g2
(lp471
g0
(g1
g2
(lp472
Vthere
p473
atp474
Rp475
(dp476
g12
VEX
p477
sbatp478
Rp479
(dp480
g12
VNP
p481
sbatp482
Rp483
(dp484
g12
VNP
p485
sbag0
(g1
g2
(lp486
g0
(g1
g2
(lp487
Vall
p488
atp489
Rp490
(dp491
g12
VPDT
p492
sbag0
(g1
g2
(lp493
Vthe
p494
atp495
Rp496
(dp497
g12
VDT
p498
sbatp499
Rp500
(dp501
g12
VNP
p502
sbatp503
Rp504
(dp505
g12
VS
p506
sbag0
(g1
g2
(lp507
V,
p508
atp509
Rp510
(dp511
g12
V,
p512
sbag0
(g1
g2
(lp513
g0
(g1
g2
(lp514
g0
(g1
g2
(lp515
Vthere
p516
atp517
Rp518
(dp519
g12
VEX
p520
sbatp521
Rp522
(dp523
g12
VNP
p524
sbag0
(g1
g2
(lp525
g0
(g1
g2
(lp526
Vsome
p527
atp528
Rp529
(dp530
g12
VDT
p531
sbag0
(g1
g2
(lp532
Vspectators
p533
atp534
Rp535
(dp536
g12
VNNS
p537
sbatp538
Rp539
(dp540
g12
VNP
p541
sbatp542
Rp543
(dp544
g12
VS
p545
sbatp546
Rp547
(dp548
g12
VS
p549
sbatp550
Rp551
(dp552
g12
VVP
p553
sbatp554
Rp555
(dp556
g12
VS
p557
sbag0
(g1
g2
(lp558
V,
p559
atp560
Rp561
(dp562
g12
V,
p563
sbag0
(g1
g2
(lp564
Vand
p565
atp566
Rp567
(dp568
g12
VCC
p569
sbag0
(g1
g2
(lp570
g0
(g1
g2
(lp571
g0
(g1
g2
(lp572
Vlook
p573
atp574
Rp575
(dp576
g12
VVB
p577
sbag0
(g1
g2
(lp578
g0
(g1
g2
(lp579
Vlike
p580
atp581
Rp582
(dp583
g12
VIN
p584
sbag0
(g1
g2
(lp585
g0
(g1
g2
(lp586
g0
(g1
g2
(lp587
Vthere
p588
atp589
Rp590
(dp591
g12
VEX
p592
sbatp593
Rp594
(dp595
g12
VNP
p596
sbag0
(g1
g2
(lp597
g0
(g1
g2
(lp598
Vare
p599
atp600
Rp601
(dp602
g12
VVBP
p603
sbag0
(g1
g2
(lp604
g0
(g1
g2
(lp605
g0
(g1
g2
(lp606
Vfive
p607
atp608
Rp609
(dp610
g12
VCD
p611
sbatp612
Rp613
(dp614
g12
VNP
p615
sbag0
(g1
g2
(lp616
g0
(g1
g2
(lp617
Vof
p618
atp619
Rp620
(dp621
g12
VIN
p622
sbag0
(g1
g2
(lp623
g0
(g1
g2
(lp624
Vthose
p625
atp626
Rp627
(dp628
g12
VDT
p629
sbatp630
Rp631
(dp632
g12
VNP
p633
sbatp634
Rp635
(dp636
g12
VPP
p637
sbatp638
Rp639
(dp640
g12
VNP
p641
sbatp642
Rp643
(dp644
g12
VVP
p645
sbatp646
Rp647
(dp648
g12
VS
p649
sbatp650
Rp651
(dp652
g12
VSBAR
p653
sbatp654
Rp655
(dp656
g12
VVP
p657
sbatp658
Rp659
(dp660
g12
VS
p661
sbag0
(g1
g2
(lp662
V.
p663
atp664
Rp665
(dp666
g12
V.
p667
sbatp668
Rp669
(dp670
g12
VS
p671
sbatp672
Rp673
(dp674
g12
S'id: 2'
p675
sbag0
(g1
g2
(lp676
g0
(g1
g2
(lp677
g0
(g1
g2
(lp678
VAnd
p679
atp680
Rp681
(dp682
g12
VCC
p683
sbag0
(g1
g2
(lp684
g0
(g1
g2
(lp685
g0
(g1
g2
(lp686
Vthe
p687
atp688
Rp689
(dp690
g12
VDT
p691
sbag0
(g1
g2
(lp692
Vclown
p693
atp694
Rp695
(dp696
g12
VNN
p697
sbatp698
Rp699
(dp700
g12
VNP
p701
sbag0
(g1
g2
(lp702
g0
(g1
g2
(lp703
Vis
p704
atp705
Rp706
(dp707
g12
VVBZ
p708
sbag0
(g1
g2
(lp709
g0
(g1
g2
(lp710
Va
p711
atp712
Rp713
(dp714
g12
VDT
p715
sbag0
(g1
g2
(lp716
Vfunny
p717
atp718
Rp719
(dp720
g12
VJJ
p721
sbag0
(g1
g2
(lp722
Vguy
p723
atp724
Rp725
(dp726
g12
VNN
p727
sbatp728
Rp729
(dp730
g12
VNP
p731
sbag0
(g1
g2
(lp732
g0
(g1
g2
(lp733
V,
p734
atp735
Rp736
(dp737
g12
V,
p738
sbag0
(g1
g2
(lp739
g0
(g1
g2
(lp740
g0
(g1
g2
(lp741
Vhe
p742
atp743
Rp744
(dp745
g12
VPRP
p746
sbatp747
Rp748
(dp749
g12
VNP
p750
sbag0
(g1
g2
(lp751
g0
(g1
g2
(lp752
Vis
p753
atp754
Rp755
(dp756
g12
VVBZ
p757
sbag0
(g1
g2
(lp758
g0
(g1
g2
(lp759
Vthrowing
p760
atp761
Rp762
(dp763
g12
VVBG
p764
sbag0
(g1
g2
(lp765
g0
(g1
g2
(lp766
Vpopcorn
p767
atp768
Rp769
(dp770
g12
VNN
p771
sbatp772
Rp773
(dp774
g12
VNP
p775
sbag0
(g1
g2
(lp776
g0
(g1
g2
(lp777
Vat
p778
atp779
Rp780
(dp781
g12
VIN
p782
sbag0
(g1
g2
(lp783
g0
(g1
g2
(lp784
Vthe
p785
atp786
Rp787
(dp788
g12
VDT
p789
sbag0
(g1
g2
(lp790
Vchild
p791
atp792
Rp793
(dp794
g12
VNN
p795
sbatp796
Rp797
(dp798
g12
VNP
p799
sbatp800
Rp801
(dp802
g12
VPP
p803
sbatp804
Rp805
(dp806
g12
VVP
p807
sbatp808
Rp809
(dp810
g12
VVP
p811
sbatp812
Rp813
(dp814
g12
VS
p815
sbag0
(g1
g2
(lp816
V,
p817
atp818
Rp819
(dp820
g12
V,
p821
sbatp822
Rp823
(dp824
g12
VPRN
p825
sbag0
(g1
g2
(lp826
g0
(g1
g2
(lp827
Vat
p828
atp829
Rp830
(dp831
g12
VIN
p832
sbag0
(g1
g2
(lp833
g0
(g1
g2
(lp834
Vthe
p835
atp836
Rp837
(dp838
g12
VDT
p839
sbag0
(g1
g2
(lp840
Vlittle
p841
atp842
Rp843
(dp844
g12
VJJ
p845
sbag0
(g1
g2
(lp846
Vboy
p847
atp848
Rp849
(dp850
g12
VNN
p851
sbatp852
Rp853
(dp854
g12
VNP
p855
sbatp856
Rp857
(dp858
g12
VPP
p859
sbatp860
Rp861
(dp862
g12
VVP
p863
sbatp864
Rp865
(dp866
g12
VS
p867
sbag0
(g1
g2
(lp868
V,
p869
atp870
Rp871
(dp872
g12
V,
p873
sbag0
(g1
g2
(lp874
Vand
p875
atp876
Rp877
(dp878
g12
VCC
p879
sbag0
(g1
g2
(lp880
g0
(g1
g2
(lp881
g0
(g1
g2
(lp882
Vhe
p883
atp884
Rp885
(dp886
g12
VPRP
p887
sbatp888
Rp889
(dp890
g12
VNP
p891
sbag0
(g1
g2
(lp892
g0
(g1
g2
(lp893
V's
p894
atp895
Rp896
(dp897
g12
VVBZ
p898
sbag0
(g1
g2
(lp899
g0
(g1
g2
(lp900
Vexciting
p901
atp902
Rp903
(dp904
g12
VJJ
p905
sbag0
(g1
g2
(lp906
g0
(g1
g2
(lp907
Vthe
p908
atp909
Rp910
(dp911
g12
VDT
p912
sbag0
(g1
g2
(lp913
Vlittle
p914
atp915
Rp916
(dp917
g12
VJJ
p918
sbag0
(g1
g2
(lp919
Vgirl
p920
atp921
Rp922
(dp923
g12
VNN
p924
sbatp925
Rp926
(dp927
g12
VNP
p928
sbatp929
Rp930
(dp931
g12
VADJP
p932
sbatp933
Rp934
(dp935
g12
VVP
p936
sbatp937
Rp938
(dp939
g12
VS
p940
sbag0
(g1
g2
(lp941
V.
p942
atp943
Rp944
(dp945
g12
V.
p946
sbatp947
Rp948
(dp949
g12
VS
p950
sbatp951
Rp952
(dp953
g12
S'id: 3'
p954
sbag0
(g1
g2
(lp955
g0
(g1
g2
(lp956
g0
(g1
g2
(lp957
g0
(g1
g2
(lp958
g0
(g1
g2
(lp959
VI
p960
atp961
Rp962
(dp963
g12
VPRP
p964
sbatp965
Rp966
(dp967
g12
VNP
p968
sbag0
(g1
g2
(lp969
g0
(g1
g2
(lp970
Vdo
p971
atp972
Rp973
(dp974
g12
VVBP
p975
sbag0
(g1
g2
(lp976
Vn't
p977
atp978
Rp979
(dp980
g12
VRB
p981
sbag0
(g1
g2
(lp982
g0
(g1
g2
(lp983
Vthink
p984
atp985
Rp986
(dp987
g12
VVB
p988
sbag0
(g1
g2
(lp989
g0
(g1
g2
(lp990
g0
(g1
g2
(lp991
Vneither
p992
atp993
Rp994
(dp995
g12
VCC
p996
sbatp997
Rp998
(dp999
g12
VNP
p1000
sbatp1001
Rp1002
(dp1003
g12
VS
p1004
sbatp1005
Rp1006
(dp1007
g12
VVP
p1008
sbatp1009
Rp1010
(dp1011
g12
VVP
p1012
sbatp1013
Rp1014
(dp1015
g12
VS
p1016
sbag0
(g1
g2
(lp1017
V,
p1018
atp1019
Rp1020
(dp1021
g12
V,
p1022
sbag0
(g1
g2
(lp1023
Vnot
p1024
atp1025
Rp1026
(dp1027
g12
VRB
p1028
sbag0
(g1
g2
(lp1029
g0
(g1
g2
(lp1030
g0
(g1
g2
(lp1031
Vthey
p1032
atp1033
Rp1034
(dp1035
g12
VPRP
p1036
sbatp1037
Rp1038
(dp1039
g12
VNP
p1040
sbag0
(g1
g2
(lp1041
g0
(g1
g2
(lp1042
V're
p1043
atp1044
Rp1045
(dp1046
g12
VVBP
p1047
sbag0
(g1
g2
(lp1048
Vnot
p1049
atp1050
Rp1051
(dp1052
g12
VRB
p1053
sbag0
(g1
g2
(lp1054
g0
(g1
g2
(lp1055
Vtogether
p1056
atp1057
Rp1058
(dp1059
g12
VRB
p1060
sbatp1061
Rp1062
(dp1063
g12
VADJP
p1064
sbatp1065
Rp1066
(dp1067
g12
VVP
p1068
sbatp1069
Rp1070
(dp1071
g12
VS
p1072
sbag0
(g1
g2
(lp1073
V.
p1074
atp1075
Rp1076
(dp1077
g12
V.
p1078
sbatp1079
Rp1080
(dp1081
g12
VS
p1082
sbatp1083
Rp1084
(dp1085
g12
S'id: 4'
p1086
sbag0
(g1
g2
(lp1087
g0
(g1
g2
(lp1088
g0
(g1
g2
(lp1089
g0
(g1
g2
(lp1090
g0
(g1
g2
(lp1091
VI
p1092
atp1093
Rp1094
(dp1095
g12
VPRP
p1096
sbatp1097
Rp1098
(dp1099
g12
VNP
p1100
sbag0
(g1
g2
(lp1101
g0
(g1
g2
(lp1102
Vthink
p1103
atp1104
Rp1105
(dp1106
g12
VVBP
p1107
sbag0
(g1
g2
(lp1108
g0
(g1
g2
(lp1109
g0
(g1
g2
(lp1110
g0
(g1
g2
(lp1111
Vhe
p1112
atp1113
Rp1114
(dp1115
g12
VPRP
p1116
sbatp1117
Rp1118
(dp1119
g12
VNP
p1120
sbag0
(g1
g2
(lp1121
g0
(g1
g2
(lp1122
V's
p1123
atp1124
Rp1125
(dp1126
g12
VVBZ
p1127
sbag0
(g1
g2
(lp1128
g0
(g1
g2
(lp1129
Vblack
p1130
atp1131
Rp1132
(dp1133
g12
VJJ
p1134
sbatp1135
Rp1136
(dp1137
g12
VADJP
p1138
sbatp1139
Rp1140
(dp1141
g12
VVP
p1142
sbatp1143
Rp1144
(dp1145
g12
VS
p1146
sbatp1147
Rp1148
(dp1149
g12
VSBAR
p1150
sbatp1151
Rp1152
(dp1153
g12
VVP
p1154
sbatp1155
Rp1156
(dp1157
g12
VS
p1158
sbag0
(g1
g2
(lp1159
g0
(g1
g2
(lp1160
V,
p1161
atp1162
Rp1163
(dp1164
g12
V,
p1165
sbag0
(g1
g2
(lp1166
g0
(g1
g2
(lp1167
g0
(g1
g2
(lp1168
Vhe
p1169
atp1170
Rp1171
(dp1172
g12
VPRP
p1173
sbatp1174
Rp1175
(dp1176
g12
VNP
p1177
sbag0
(g1
g2
(lp1178
g0
(g1
g2
(lp1179
Vlooks
p1180
atp1181
Rp1182
(dp1183
g12
VVBZ
p1184
sbag0
(g1
g2
(lp1185
g0
(g1
g2
(lp1186
g0
(g1
g2
(lp1187
Vkind
p1188
atp1189
Rp1190
(dp1191
g12
VNN
p1192
sbatp1193
Rp1194
(dp1195
g12
VNP
p1196
sbag0
(g1
g2
(lp1197
g0
(g1
g2
(lp1198
Vof
p1199
atp1200
Rp1201
(dp1202
g12
VIN
p1203
sbag0
(g1
g2
(lp1204
g0
(g1
g2
(lp1205
Vbi-racial
p1206
atp1207
Rp1208
(dp1209
g12
VJJ
p1210
sbatp1211
Rp1212
(dp1213
g12
VNP
p1214
sbatp1215
Rp1216
(dp1217
g12
VPP
p1218
sbatp1219
Rp1220
(dp1221
g12
VNP
p1222
sbag0
(g1
g2
(lp1223
g0
(g1
g2
(lp1224
Vmaybe
p1225
atp1226
Rp1227
(dp1228
g12
VRB
p1229
sbatp1230
Rp1231
(dp1232
g12
VADVP
p1233
sbatp1234
Rp1235
(dp1236
g12
VVP
p1237
sbatp1238
Rp1239
(dp1240
g12
VS
p1241
sbag0
(g1
g2
(lp1242
V,
p1243
atp1244
Rp1245
(dp1246
g12
V,
p1247
sbatp1248
Rp1249
(dp1250
g12
VPRN
p1251
sbag0
(g1
g2
(lp1252
Vand
p1253
atp1254
Rp1255
(dp1256
g12
VCC
p1257
sbag0
(g1
g2
(lp1258
g0
(g1
g2
(lp1259
g0
(g1
g2
(lp1260
Vshe
p1261
atp1262
Rp1263
(dp1264
g12
VPRP
p1265
sbatp1266
Rp1267
(dp1268
g12
VNP
p1269
sbag0
(g1
g2
(lp1270
g0
(g1
g2
(lp1271
V's
p1272
atp1273
Rp1274
(dp1275
g12
VVBZ
p1276
sbag0
(g1
g2
(lp1277
g0
(g1
g2
(lp1278
Vwhite
p1279
atp1280
Rp1281
(dp1282
g12
VJJ
p1283
sbatp1284
Rp1285
(dp1286
g12
VADJP
p1287
sbatp1288
Rp1289
(dp1290
g12
VVP
p1291
sbatp1292
Rp1293
(dp1294
g12
VS
p1295
sbag0
(g1
g2
(lp1296
V.
p1297
atp1298
Rp1299
(dp1300
g12
V.
p1301
sbatp1302
Rp1303
(dp1304
g12
VS
p1305
sbatp1306
Rp1307
(dp1308
g12
S'id: 5'
p1309
sbag0
(g1
g2
(lp1310
g0
(g1
g2
(lp1311
g0
(g1
g2
(lp1312
VAnd
p1313
atp1314
Rp1315
(dp1316
g12
VCC
p1317
sbag0
(g1
g2
(lp1318
g0
(g1
g2
(lp1319
g0
(g1
g2
(lp1320
Vthey
p1321
atp1322
Rp1323
(dp1324
g12
VPRP
p1325
sbatp1326
Rp1327
(dp1328
g12
VNP
p1329
sbag0
(g1
g2
(lp1330
g0
(g1
g2
(lp1331
V're
p1332
atp1333
Rp1334
(dp1335
g12
VVBP
p1336
sbag0
(g1
g2
(lp1337
g0
(g1
g2
(lp1338
Vjust
p1339
atp1340
Rp1341
(dp1342
g12
VRB
p1343
sbatp1344
Rp1345
(dp1346
g12
VADVP
p1347
sbag0
(g1
g2
(lp1348
g0
(g1
g2
(lp1349
Vlooking
p1350
atp1351
Rp1352
(dp1353
g12
VVBG
p1354
sbatp1355
Rp1356
(dp1357
g12
VVP
p1358
sbatp1359
Rp1360
(dp1361
g12
VVP
p1362
sbatp1363
Rp1364
(dp1365
g12
VS
p1366
sbag0
(g1
g2
(lp1367
Vand
p1368
atp1369
Rp1370
(dp1371
g12
VCC
p1372
sbag0
(g1
g2
(lp1373
g0
(g1
g2
(lp1374
g0
(g1
g2
(lp1375
Vshe
p1376
atp1377
Rp1378
(dp1379
g12
VPRP
p1380
sbatp1381
Rp1382
(dp1383
g12
VNP
p1384
sbag0
(g1
g2
(lp1385
g0
(g1
g2
(lp1386
V's
p1387
atp1388
Rp1389
(dp1390
g12
VVBZ
p1391
sbag0
(g1
g2
(lp1392
g0
(g1
g2
(lp1393
Vpointing
p1394
atp1395
Rp1396
(dp1397
g12
VVBG
p1398
sbatp1399
Rp1400
(dp1401
g12
VVP
p1402
sbatp1403
Rp1404
(dp1405
g12
VVP
p1406
sbatp1407
Rp1408
(dp1409
g12
VS
p1410
sbag0
(g1
g2
(lp1411
V.
p1412
atp1413
Rp1414
(dp1415
g12
V.
p1416
sbatp1417
Rp1418
(dp1419
g12
VS
p1420
sbatp1421
Rp1422
(dp1423
g12
S'id: 6'
p1424
sbag0
(g1
g2
(lp1425
g0
(g1
g2
(lp1426
g0
(g1
g2
(lp1427
VAnd
p1428
atp1429
Rp1430
(dp1431
g12
VCC
p1432
sbag0
(g1
g2
(lp1433
g0
(g1
g2
(lp1434
g0
(g1
g2
(lp1435
g0
(g1
g2
(lp1436
Vthe
p1437
atp1438
Rp1439
(dp1440
g12
VDT
p1441
sbag0
(g1
g2
(lp1442
Vlady
p1443
atp1444
Rp1445
(dp1446
g12
VNN
p1447
sbatp1448
Rp1449
(dp1450
g12
VNP
p1451
sbag0
(g1
g2
(lp1452
g0
(g1
g2
(lp1453
Von
p1454
atp1455
Rp1456
(dp1457
g12
VIN
p1458
sbag0
(g1
g2
(lp1459
g0
(g1
g2
(lp1460
Vthe
p1461
atp1462
Rp1463
(dp1464
g12
VDT
p1465
sbag0
(g1
g2
(lp1466
Vhorse
p1467
atp1468
Rp1469
(dp1470
g12
VNN
p1471
sbatp1472
Rp1473
(dp1474
g12
VNP
p1475
sbatp1476
Rp1477
(dp1478
g12
VPP
p1479
sbatp1480
Rp1481
(dp1482
g12
VNP
p1483
sbag0
(g1
g2
(lp1484
g0
(g1
g2
(lp1485
Vis
p1486
atp1487
Rp1488
(dp1489
g12
VVBZ
p1490
sbag0
(g1
g2
(lp1491
g0
(g1
g2
(lp1492
Vinteresting
p1493
atp1494
Rp1495
(dp1496
g12
VJJ
p1497
sbatp1498
Rp1499
(dp1500
g12
VADJP
p1501
sbatp1502
Rp1503
(dp1504
g12
VVP
p1505
sbatp1506
Rp1507
(dp1508
g12
VS
p1509
sbag0
(g1
g2
(lp1510
g0
(g1
g2
(lp1511
V,
p1512
atp1513
Rp1514
(dp1515
g12
V,
p1516
sbag0
(g1
g2
(lp1517
g0
(g1
g2
(lp1518
g0
(g1
g2
(lp1519
Vshe
p1520
atp1521
Rp1522
(dp1523
g12
VPRP
p1524
sbatp1525
Rp1526
(dp1527
g12
VNP
p1528
sbag0
(g1
g2
(lp1529
V,
p1530
atp1531
Rp1532
(dp1533
g12
V,
p1534
sbag0
(g1
g2
(lp1535
g0
(g1
g2
(lp1536
Vshe
p1537
atp1538
Rp1539
(dp1540
g12
VPRP
p1541
sbatp1542
Rp1543
(dp1544
g12
VNP
p1545
sbag0
(g1
g2
(lp1546
g0
(g1
g2
(lp1547
Vlooks
p1548
atp1549
Rp1550
(dp1551
g12
VVBZ
p1552
sbag0
(g1
g2
(lp1553
g0
(g1
g2
(lp1554
Vlike
p1555
atp1556
Rp1557
(dp1558
g12
VIN
p1559
sbag0
(g1
g2
(lp1560
g0
(g1
g2
(lp1561
g0
(g1
g2
(lp1562
Vshe
p1563
atp1564
Rp1565
(dp1566
g12
VPRP
p1567
sbatp1568
Rp1569
(dp1570
g12
VNP
p1571
sbag0
(g1
g2
(lp1572
g0
(g1
g2
(lp1573
V's
p1574
atp1575
Rp1576
(dp1577
g12
VVBZ
p1578
sbag0
(g1
g2
(lp1579
g0
(g1
g2
(lp1580
Von
p1581
atp1582
Rp1583
(dp1584
g12
VIN
p1585
sbag0
(g1
g2
(lp1586
g0
(g1
g2
(lp1587
Vher
p1588
atp1589
Rp1590
(dp1591
g12
VPRP$
p1592
sbag0
(g1
g2
(lp1593
Vknees
p1594
atp1595
Rp1596
(dp1597
g12
VNNS
p1598
sbatp1599
Rp1600
(dp1601
g12
VNP
p1602
sbatp1603
Rp1604
(dp1605
g12
VPP
p1606
sbatp1607
Rp1608
(dp1609
g12
VVP
p1610
sbatp1611
Rp1612
(dp1613
g12
VS
p1614
sbatp1615
Rp1616
(dp1617
g12
VSBAR
p1618
sbatp1619
Rp1620
(dp1621
g12
VVP
p1622
sbatp1623
Rp1624
(dp1625
g12
VS
p1626
sbag0
(g1
g2
(lp1627
V,
p1628
atp1629
Rp1630
(dp1631
g12
V,
p1632
sbatp1633
Rp1634
(dp1635
g12
VPRN
p1636
sbag0
(g1
g2
(lp1637
Vand
p1638
atp1639
Rp1640
(dp1641
g12
VCC
p1642
sbag0
(g1
g2
(lp1643
g0
(g1
g2
(lp1644
g0
(g1
g2
(lp1645
Vshe
p1646
atp1647
Rp1648
(dp1649
g12
VPRP
p1650
sbatp1651
Rp1652
(dp1653
g12
VNP
p1654
sbag0
(g1
g2
(lp1655
g0
(g1
g2
(lp1656
Vlooks
p1657
atp1658
Rp1659
(dp1660
g12
VVBZ
p1661
sbag0
(g1
g2
(lp1662
g0
(g1
g2
(lp1663
Vlike
p1664
atp1665
Rp1666
(dp1667
g12
VIN
p1668
sbag0
(g1
g2
(lp1669
g0
(g1
g2
(lp1670
g0
(g1
g2
(lp1671
Vshe
p1672
atp1673
Rp1674
(dp1675
g12
VPRP
p1676
sbatp1677
Rp1678
(dp1679
g12
VNP
p1680
sbag0
(g1
g2
(lp1681
g0
(g1
g2
(lp1682
Vis
p1683
atp1684
Rp1685
(dp1686
g12
VVBZ
p1687
sbag0
(g1
g2
(lp1688
g0
(g1
g2
(lp1689
Vgoing
p1690
atp1691
Rp1692
(dp1693
g12
VVBG
p1694
sbag0
(g1
g2
(lp1695
g0
(g1
g2
(lp1696
g0
(g1
g2
(lp1697
Vto
p1698
atp1699
Rp1700
(dp1701
g12
VTO
p1702
sbag0
(g1
g2
(lp1703
g0
(g1
g2
(lp1704
Vstand
p1705
atp1706
Rp1707
(dp1708
g12
VVB
p1709
sbag0
(g1
g2
(lp1710
g0
(g1
g2
(lp1711
Vup
p1712
atp1713
Rp1714
(dp1715
g12
VRP
p1716
sbatp1717
Rp1718
(dp1719
g12
VPRT
p1720
sbatp1721
Rp1722
(dp1723
g12
VVP
p1724
sbatp1725
Rp1726
(dp1727
g12
VVP
p1728
sbatp1729
Rp1730
(dp1731
g12
VS
p1732
sbatp1733
Rp1734
(dp1735
g12
VVP
p1736
sbatp1737
Rp1738
(dp1739
g12
VVP
p1740
sbatp1741
Rp1742
(dp1743
g12
VS
p1744
sbatp1745
Rp1746
(dp1747
g12
VSBAR
p1748
sbatp1749
Rp1750
(dp1751
g12
VVP
p1752
sbatp1753
Rp1754
(dp1755
g12
VS
p1756
sbag0
(g1
g2
(lp1757
V.
p1758
atp1759
Rp1760
(dp1761
g12
V.
p1762
sbatp1763
Rp1764
(dp1765
g12
VS
p1766
sbatp1767
Rp1768
(dp1769
g12
S'id: 7'
p1770
sbag0
(g1
g2
(lp1771
g0
(g1
g2
(lp1772
g0
(g1
g2
(lp1773
g0
(g1
g2
(lp1774
VAnd
p1775
atp1776
Rp1777
(dp1778
g12
VCC
p1779
sbag0
(g1
g2
(lp1780
g0
(g1
g2
(lp1781
Vthen
p1782
atp1783
Rp1784
(dp1785
g12
VRB
p1786
sbag0
(g1
g2
(lp1787
g0
(g1
g2
(lp1788
Vthe
p1789
atp1790
Rp1791
(dp1792
g12
VDT
p1793
sbag0
(g1
g2
(lp1794
Vguy
p1795
atp1796
Rp1797
(dp1798
g12
VNN
p1799
sbatp1800
Rp1801
(dp1802
g12
VNP
p1803
sbag0
(g1
g2
(lp1804
g0
(g1
g2
(lp1805
Von
p1806
atp1807
Rp1808
(dp1809
g12
VIN
p1810
sbag0
(g1
g2
(lp1811
g0
(g1
g2
(lp1812
Vthe
p1813
atp1814
Rp1815
(dp1816
g12
VDT
p1817
sbag0
(g1
g2
(lp1818
Vtight-rope
p1819
atp1820
Rp1821
(dp1822
g12
VNN
p1823
sbatp1824
Rp1825
(dp1826
g12
VNP
p1827
sbatp1828
Rp1829
(dp1830
g12
VPP
p1831
sbatp1832
Rp1833
(dp1834
g12
VADVP
p1835
sbag0
(g1
g2
(lp1836
g0
(g1
g2
(lp1837
Vhe
p1838
atp1839
Rp1840
(dp1841
g12
VPRP
p1842
sbatp1843
Rp1844
(dp1845
g12
VNP
p1846
sbag0
(g1
g2
(lp1847
g0
(g1
g2
(lp1848
V's
p1849
atp1850
Rp1851
(dp1852
g12
VVBZ
p1853
sbag0
(g1
g2
(lp1854
g0
(g1
g2
(lp1855
Vjust
p1856
atp1857
Rp1858
(dp1859
g12
VRB
p1860
sbatp1861
Rp1862
(dp1863
g12
VADVP
p1864
sbatp1865
Rp1866
(dp1867
g12
VVP
p1868
sbatp1869
Rp1870
(dp1871
g12
VS
p1872
sbag0
(g1
g2
(lp1873
V,
p1874
atp1875
Rp1876
(dp1877
g12
V,
p1878
sbag0
(g1
g2
(lp1879
g0
(g1
g2
(lp1880
Vhe
p1881
atp1882
Rp1883
(dp1884
g12
VPRP
p1885
sbatp1886
Rp1887
(dp1888
g12
VNP
p1889
sbag0
(g1
g2
(lp1890
g0
(g1
g2
(lp1891
Vlooks
p1892
atp1893
Rp1894
(dp1895
g12
VVBZ
p1896
sbag0
(g1
g2
(lp1897
g0
(g1
g2
(lp1898
Vlike
p1899
atp1900
Rp1901
(dp1902
g12
VIN
p1903
sbag0
(g1
g2
(lp1904
g0
(g1
g2
(lp1905
g0
(g1
g2
(lp1906
Vhe
p1907
atp1908
Rp1909
(dp1910
g12
VPRP
p1911
sbatp1912
Rp1913
(dp1914
g12
VNP
p1915
sbag0
(g1
g2
(lp1916
g0
(g1
g2
(lp1917
V's
p1918
atp1919
Rp1920
(dp1921
g12
VVBZ
p1922
sbag0
(g1
g2
(lp1923
g0
(g1
g2
(lp1924
Vbeing
p1925
atp1926
Rp1927
(dp1928
g12
VVBG
p1929
sbag0
(g1
g2
(lp1930
g0
(g1
g2
(lp1931
Vvery
p1932
atp1933
Rp1934
(dp1935
g12
VRB
p1936
sbag0
(g1
g2
(lp1937
Vcareful
p1938
atp1939
Rp1940
(dp1941
g12
VJJ
p1942
sbatp1943
Rp1944
(dp1945
g12
VADJP
p1946
sbatp1947
Rp1948
(dp1949
g12
VVP
p1950
sbatp1951
Rp1952
(dp1953
g12
VVP
p1954
sbatp1955
Rp1956
(dp1957
g12
VS
p1958
sbatp1959
Rp1960
(dp1961
g12
VSBAR
p1962
sbatp1963
Rp1964
(dp1965
g12
VVP
p1966
sbag0
(g1
g2
(lp1967
V.
p1968
atp1969
Rp1970
(dp1971
g12
V.
p1972
sbatp1973
Rp1974
(dp1975
g12
VS
p1976
sbatp1977
Rp1978
(dp1979
g12
S'id: 8'
p1980
sbag0
(g1
g2
(lp1981
g0
(g1
g2
(lp1982
g0
(g1
g2
(lp1983
VAnd
p1984
atp1985
Rp1986
(dp1987
g12
VCC
p1988
sbag0
(g1
g2
(lp1989
g0
(g1
g2
(lp1990
Vthen
p1991
atp1992
Rp1993
(dp1994
g12
VRB
p1995
sbag0
(g1
g2
(lp1996
g0
(g1
g2
(lp1997
Vthe
p1998
atp1999
Rp2000
(dp2001
g12
VDT
p2002
sbag0
(g1
g2
(lp2003
Vguy
p2004
atp2005
Rp2006
(dp2007
g12
VNN
p2008
sbatp2009
Rp2010
(dp2011
g12
VNP
p2012
sbag0
(g1
g2
(lp2013
g0
(g1
g2
(lp2014
Vwith
p2015
atp2016
Rp2017
(dp2018
g12
VIN
p2019
sbag0
(g1
g2
(lp2020
g0
(g1
g2
(lp2021
Vthe
p2022
atp2023
Rp2024
(dp2025
g12
VDT
p2026
sbag0
(g1
g2
(lp2027
Vlion
p2028
atp2029
Rp2030
(dp2031
g12
VNN
p2032
sbatp2033
Rp2034
(dp2035
g12
VNP
p2036
sbatp2037
Rp2038
(dp2039
g12
VPP
p2040
sbatp2041
Rp2042
(dp2043
g12
VADVP
p2044
sbag0
(g1
g2
(lp2045
V,
p2046
atp2047
Rp2048
(dp2049
g12
V,
p2050
sbag0
(g1
g2
(lp2051
g0
(g1
g2
(lp2052
g0
(g1
g2
(lp2053
Vin
p2054
atp2055
Rp2056
(dp2057
g12
VIN
p2058
sbag0
(g1
g2
(lp2059
g0
(g1
g2
(lp2060
g0
(g1
g2
(lp2061
Vthe
p2062
atp2063
Rp2064
(dp2065
g12
VDT
p2066
sbag0
(g1
g2
(lp2067
Vlion
p2068
atp2069
Rp2070
(dp2071
g12
VNN
p2072
sbag0
(g1
g2
(lp2073
V's
p2074
atp2075
Rp2076
(dp2077
g12
VPOS
p2078
sbatp2079
Rp2080
(dp2081
g12
VNP
p2082
sbag0
(g1
g2
(lp2083
Vden
p2084
atp2085
Rp2086
(dp2087
g12
VNN
p2088
sbatp2089
Rp2090
(dp2091
g12
VNP
p2092
sbatp2093
Rp2094
(dp2095
g12
VPP
p2096
sbag0
(g1
g2
(lp2097
V,
p2098
atp2099
Rp2100
(dp2101
g12
V,
p2102
sbag0
(g1
g2
(lp2103
g0
(g1
g2
(lp2104
Vhe
p2105
atp2106
Rp2107
(dp2108
g12
VPRP
p2109
sbatp2110
Rp2111
(dp2112
g12
VNP
p2113
sbag0
(g1
g2
(lp2114
g0
(g1
g2
(lp2115
Vlooks
p2116
atp2117
Rp2118
(dp2119
g12
VVBZ
p2120
sbag0
(g1
g2
(lp2121
g0
(g1
g2
(lp2122
g0
(g1
g2
(lp2123
g0
(g1
g2
(lp2124
Vlike
p2125
atp2126
Rp2127
(dp2128
g12
VIN
p2129
sbag0
(g1
g2
(lp2130
g0
(g1
g2
(lp2131
Vhe
p2132
atp2133
Rp2134
(dp2135
g12
VPRP
p2136
sbatp2137
Rp2138
(dp2139
g12
VNP
p2140
sbatp2141
Rp2142
(dp2143
g12
VPP
p2144
sbag0
(g1
g2
(lp2145
g0
(g1
g2
(lp2146
Vhe
p2147
atp2148
Rp2149
(dp2150
g12
VPRP
p2151
sbatp2152
Rp2153
(dp2154
g12
VNP
p2155
sbag0
(g1
g2
(lp2156
g0
(g1
g2
(lp2157
V's
p2158
atp2159
Rp2160
(dp2161
g12
VVBZ
p2162
sbag0
(g1
g2
(lp2163
g0
(g1
g2
(lp2164
Vtrying
p2165
atp2166
Rp2167
(dp2168
g12
VVBG
p2169
sbag0
(g1
g2
(lp2170
g0
(g1
g2
(lp2171
g0
(g1
g2
(lp2172
Vto
p2173
atp2174
Rp2175
(dp2176
g12
VTO
p2177
sbag0
(g1
g2
(lp2178
g0
(g1
g2
(lp2179
Vtame
p2180
atp2181
Rp2182
(dp2183
g12
VJJ
p2184
sbag0
(g1
g2
(lp2185
g0
(g1
g2
(lp2186
Vhim
p2187
atp2188
Rp2189
(dp2190
g12
VPRP
p2191
sbatp2192
Rp2193
(dp2194
g12
VNP
p2195
sbatp2196
Rp2197
(dp2198
g12
VVP
p2199
sbatp2200
Rp2201
(dp2202
g12
VVP
p2203
sbatp2204
Rp2205
(dp2206
g12
VS
p2207
sbatp2208
Rp2209
(dp2210
g12
VVP
p2211
sbatp2212
Rp2213
(dp2214
g12
VVP
p2215
sbatp2216
Rp2217
(dp2218
g12
VS
p2219
sbatp2220
Rp2221
(dp2222
g12
VSBAR
p2223
sbatp2224
Rp2225
(dp2226
g12
VVP
p2227
sbatp2228
Rp2229
(dp2230
g12
VS
p2231
sbag0
(g1
g2
(lp2232
V,
p2233
atp2234
Rp2235
(dp2236
g12
V,
p2237
sbag0
(g1
g2
(lp2238
Vbut
p2239
atp2240
Rp2241
(dp2242
g12
VCC
p2243
sbag0
(g1
g2
(lp2244
g0
(g1
g2
(lp2245
g0
(g1
g2
(lp2246
VI
p2247
atp2248
Rp2249
(dp2250
g12
VPRP
p2251
sbatp2252
Rp2253
(dp2254
g12
VNP
p2255
sbag0
(g1
g2
(lp2256
g0
(g1
g2
(lp2257
V'm
p2258
atp2259
Rp2260
(dp2261
g12
VVBP
p2262
sbag0
(g1
g2
(lp2263
Vnot
p2264
atp2265
Rp2266
(dp2267
g12
VRB
p2268
sbag0
(g1
g2
(lp2269
g0
(g1
g2
(lp2270
Vquite
p2271
atp2272
Rp2273
(dp2274
g12
VRB
p2275
sbag0
(g1
g2
(lp2276
Vsure
p2277
atp2278
Rp2279
(dp2280
g12
VJJ
p2281
sbatp2282
Rp2283
(dp2284
g12
VADJP
p2285
sbag0
(g1
g2
(lp2286
g0
(g1
g2
(lp2287
g0
(g1
g2
(lp2288
Vwhy
p2289
atp2290
Rp2291
(dp2292
g12
VWRB
p2293
sbatp2294
Rp2295
(dp2296
g12
VWHADVP
p2297
sbag0
(g1
g2
(lp2298
g0
(g1
g2
(lp2299
g0
(g1
g2
(lp2300
Vhe
p2301
atp2302
Rp2303
(dp2304
g12
VPRP
p2305
sbatp2306
Rp2307
(dp2308
g12
VNP
p2309
sbag0
(g1
g2
(lp2310
g0
(g1
g2
(lp2311
Vdoes
p2312
atp2313
Rp2314
(dp2315
g12
VVBZ
p2316
sbag0
(g1
g2
(lp2317
Vn't
p2318
atp2319
Rp2320
(dp2321
g12
VRB
p2322
sbag0
(g1
g2
(lp2323
g0
(g1
g2
(lp2324
Vhave
p2325
atp2326
Rp2327
(dp2328
g12
VVB
p2329
sbag0
(g1
g2
(lp2330
g0
(g1
g2
(lp2331
g0
(g1
g2
(lp2332
Va
p2333
atp2334
Rp2335
(dp2336
g12
VDT
p2337
sbatp2338
Rp2339
(dp2340
g12
VNP
p2341
sbag0
(g1
g2
(lp2342
V,
p2343
atp2344
Rp2345
(dp2346
g12
V,
p2347
sbag0
(g1
g2
(lp2348
g0
(g1
g2
(lp2349
g0
(g1
g2
(lp2350
Vwhat
p2351
atp2352
Rp2353
(dp2354
g12
VWP
p2355
sbatp2356
Rp2357
(dp2358
g12
VWHNP
p2359
sbag0
(g1
g2
(lp2360
g0
(g1
g2
(lp2361
g0
(g1
g2
(lp2362
Vya
p2363
atp2364
Rp2365
(dp2366
g12
VPRP
p2367
sbatp2368
Rp2369
(dp2370
g12
VNP
p2371
sbag0
(g1
g2
(lp2372
g0
(g1
g2
(lp2373
Vcall
p2374
atp2375
Rp2376
(dp2377
g12
VVBP
p2378
sbag0
(g1
g2
(lp2379
g0
(g1
g2
(lp2380
Vthat
p2381
atp2382
Rp2383
(dp2384
g12
VIN
p2385
sbag0
(g1
g2
(lp2386
g0
(g1
g2
(lp2387
g0
(g1
g2
(lp2388
Vthing
p2389
atp2390
Rp2391
(dp2392
g12
VNN
p2393
sbatp2394
Rp2395
(dp2396
g12
VNP
p2397
sbag0
(g1
g2
(lp2398
V,
p2399
atp2400
Rp2401
(dp2402
g12
V,
p2403
sbag0
(g1
g2
(lp2404
g0
(g1
g2
(lp2405
Va
p2406
atp2407
Rp2408
(dp2409
g12
VDT
p2410
sbag0
(g1
g2
(lp2411
Vwhip
p2412
atp2413
Rp2414
(dp2415
g12
VNN
p2416
sbatp2417
Rp2418
(dp2419
g12
VNP
p2420
sbatp2421
Rp2422
(dp2423
g12
VNP
p2424
sbatp2425
Rp2426
(dp2427
g12
VPP
p2428
sbatp2429
Rp2430
(dp2431
g12
VVP
p2432
sbatp2433
Rp2434
(dp2435
g12
VS
p2436
sbatp2437
Rp2438
(dp2439
g12
VSBAR
p2440
sbatp2441
Rp2442
(dp2443
g12
VNP
p2444
sbatp2445
Rp2446
(dp2447
g12
VVP
p2448
sbatp2449
Rp2450
(dp2451
g12
VVP
p2452
sbatp2453
Rp2454
(dp2455
g12
VS
p2456
sbatp2457
Rp2458
(dp2459
g12
VSBAR
p2460
sbatp2461
Rp2462
(dp2463
g12
VVP
p2464
sbatp2465
Rp2466
(dp2467
g12
VS
p2468
sbag0
(g1
g2
(lp2469
V.
p2470
atp2471
Rp2472
(dp2473
g12
V.
p2474
sbatp2475
Rp2476
(dp2477
g12
VS
p2478
sbatp2479
Rp2480
(dp2481
g12
S'id: 9'
p2482
sbag0
(g1
g2
(lp2483
g0
(g1
g2
(lp2484
g0
(g1
g2
(lp2485
g0
(g1
g2
(lp2486
g0
(g1
g2
(lp2487
VHe
p2488
atp2489
Rp2490
(dp2491
g12
VPRP
p2492
sbatp2493
Rp2494
(dp2495
g12
VNP
p2496
sbag0
(g1
g2
(lp2497
g0
(g1
g2
(lp2498
Vdoes
p2499
atp2500
Rp2501
(dp2502
g12
VVBZ
p2503
sbag0
(g1
g2
(lp2504
Vn't
p2505
atp2506
Rp2507
(dp2508
g12
VRB
p2509
sbatp2510
Rp2511
(dp2512
g12
VVP
p2513
sbatp2514
Rp2515
(dp2516
g12
VS
p2517
sbag0
(g1
g2
(lp2518
g0
(g1
g2
(lp2519
V,
p2520
atp2521
Rp2522
(dp2523
g12
V,
p2524
sbag0
(g1
g2
(lp2525
g0
(g1
g2
(lp2526
g0
(g1
g2
(lp2527
Vhe
p2528
atp2529
Rp2530
(dp2531
g12
VPRP
p2532
sbatp2533
Rp2534
(dp2535
g12
VNP
p2536
sbag0
(g1
g2
(lp2537
g0
(g1
g2
(lp2538
Vdoes
p2539
atp2540
Rp2541
(dp2542
g12
VVBZ
p2543
sbag0
(g1
g2
(lp2544
Vn't
p2545
atp2546
Rp2547
(dp2548
g12
VRB
p2549
sbag0
(g1
g2
(lp2550
g0
(g1
g2
(lp2551
Vhave
p2552
atp2553
Rp2554
(dp2555
g12
VVB
p2556
sbag0
(g1
g2
(lp2557
g0
(g1
g2
(lp2558
g0
(g1
g2
(lp2559
Vanything
p2560
atp2561
Rp2562
(dp2563
g12
VNN
p2564
sbatp2565
Rp2566
(dp2567
g12
VNP
p2568
sbag0
(g1
g2
(lp2569
g0
(g1
g2
(lp2570
Vlike
p2571
atp2572
Rp2573
(dp2574
g12
VIN
p2575
sbag0
(g1
g2
(lp2576
g0
(g1
g2
(lp2577
Vthat
p2578
atp2579
Rp2580
(dp2581
g12
VDT
p2582
sbatp2583
Rp2584
(dp2585
g12
VNP
p2586
sbatp2587
Rp2588
(dp2589
g12
VPP
p2590
sbatp2591
Rp2592
(dp2593
g12
VNP
p2594
sbatp2595
Rp2596
(dp2597
g12
VVP
p2598
sbatp2599
Rp2600
(dp2601
g12
VVP
p2602
sbatp2603
Rp2604
(dp2605
g12
VS
p2606
sbag0
(g1
g2
(lp2607
V,
p2608
atp2609
Rp2610
(dp2611
g12
V,
p2612
sbatp2613
Rp2614
(dp2615
g12
VPRN
p2616
sbag0
(g1
g2
(lp2617
Vor
p2618
atp2619
Rp2620
(dp2621
g12
VCC
p2622
sbag0
(g1
g2
(lp2623
g0
(g1
g2
(lp2624
g0
(g1
g2
(lp2625
VI
p2626
atp2627
Rp2628
(dp2629
g12
VPRP
p2630
sbatp2631
Rp2632
(dp2633
g12
VNP
p2634
sbag0
(g1
g2
(lp2635
g0
(g1
g2
(lp2636
Vdo
p2637
atp2638
Rp2639
(dp2640
g12
VVBP
p2641
sbag0
(g1
g2
(lp2642
Vn't
p2643
atp2644
Rp2645
(dp2646
g12
VRB
p2647
sbag0
(g1
g2
(lp2648
g0
(g1
g2
(lp2649
Vsee
p2650
atp2651
Rp2652
(dp2653
g12
VVB
p2654
sbag0
(g1
g2
(lp2655
g0
(g1
g2
(lp2656
Vit
p2657
atp2658
Rp2659
(dp2660
g12
VPRP
p2661
sbatp2662
Rp2663
(dp2664
g12
VNP
p2665
sbatp2666
Rp2667
(dp2668
g12
VVP
p2669
sbatp2670
Rp2671
(dp2672
g12
VVP
p2673
sbatp2674
Rp2675
(dp2676
g12
VS
p2677
sbag0
(g1
g2
(lp2678
V.
p2679
atp2680
Rp2681
(dp2682
g12
V.
p2683
sbatp2684
Rp2685
(dp2686
g12
VS
p2687
sbatp2688
Rp2689
(dp2690
g12
S'id: 10'
p2691
sbag0
(g1
g2
(lp2692
g0
(g1
g2
(lp2693
g0
(g1
g2
(lp2694
g0
(g1
g2
(lp2695
VYeah
p2696
atp2697
Rp2698
(dp2699
g12
VUH
p2700
sbatp2701
Rp2702
(dp2703
g12
VINTJ
p2704
sbag0
(g1
g2
(lp2705
V,
p2706
atp2707
Rp2708
(dp2709
g12
V,
p2710
sbag0
(g1
g2
(lp2711
g0
(g1
g2
(lp2712
Vthat
p2713
atp2714
Rp2715
(dp2716
g12
VDT
p2717
sbatp2718
Rp2719
(dp2720
g12
VNP
p2721
sbag0
(g1
g2
(lp2722
g0
(g1
g2
(lp2723
V's
p2724
atp2725
Rp2726
(dp2727
g12
VVBZ
p2728
sbag0
(g1
g2
(lp2729
g0
(g1
g2
(lp2730
g0
(g1
g2
(lp2731
Vkind
p2732
atp2733
Rp2734
(dp2735
g12
VNN
p2736
sbag0
(g1
g2
(lp2737
Vof
p2738
atp2739
Rp2740
(dp2741
g12
VIN
p2742
sbatp2743
Rp2744
(dp2745
g12
VADVP
p2746
sbag0
(g1
g2
(lp2747
Vodd
p2748
atp2749
Rp2750
(dp2751
g12
VJJ
p2752
sbatp2753
Rp2754
(dp2755
g12
VADJP
p2756
sbag0
(g1
g2
(lp2757
g0
(g1
g2
(lp2758
Vthat
p2759
atp2760
Rp2761
(dp2762
g12
VIN
p2763
sbag0
(g1
g2
(lp2764
g0
(g1
g2
(lp2765
g0
(g1
g2
(lp2766
Vhe
p2767
atp2768
Rp2769
(dp2770
g12
VPRP
p2771
sbatp2772
Rp2773
(dp2774
g12
VNP
p2775
sbag0
(g1
g2
(lp2776
g0
(g1
g2
(lp2777
Vwould
p2778
atp2779
Rp2780
(dp2781
g12
VMD
p2782
sbag0
(g1
g2
(lp2783
g0
(g1
g2
(lp2784
g0
(g1
g2
(lp2785
Vdo
p2786
atp2787
Rp2788
(dp2789
g12
VVB
p2790
sbag0
(g1
g2
(lp2791
g0
(g1
g2
(lp2792
Vthat
p2793
atp2794
Rp2795
(dp2796
g12
VDT
p2797
sbatp2798
Rp2799
(dp2800
g12
VNP
p2801
sbatp2802
Rp2803
(dp2804
g12
VVP
p2805
sbag0
(g1
g2
(lp2806
Vand
p2807
atp2808
Rp2809
(dp2810
g12
VCC
p2811
sbag0
(g1
g2
(lp2812
g0
(g1
g2
(lp2813
Vjust
p2814
atp2815
Rp2816
(dp2817
g12
VRB
p2818
sbatp2819
Rp2820
(dp2821
g12
VADVP
p2822
sbag0
(g1
g2
(lp2823
g0
(g1
g2
(lp2824
Vwork
p2825
atp2826
Rp2827
(dp2828
g12
VVB
p2829
sbag0
(g1
g2
(lp2830
g0
(g1
g2
(lp2831
Vwith
p2832
atp2833
Rp2834
(dp2835
g12
VIN
p2836
sbag0
(g1
g2
(lp2837
g0
(g1
g2
(lp2838
g0
(g1
g2
(lp2839
Vhim
p2840
atp2841
Rp2842
(dp2843
g12
VPRP
p2844
sbatp2845
Rp2846
(dp2847
g12
VNP
p2848
sbag0
(g1
g2
(lp2849
g0
(g1
g2
(lp2850
Vthat
p2851
atp2852
Rp2853
(dp2854
g12
VDT
p2855
sbag0
(g1
g2
(lp2856
Vway
p2857
atp2858
Rp2859
(dp2860
g12
VNN
p2861
sbatp2862
Rp2863
(dp2864
g12
VNP
p2865
sbatp2866
Rp2867
(dp2868
g12
VNP
p2869
sbatp2870
Rp2871
(dp2872
g12
VPP
p2873
sbatp2874
Rp2875
(dp2876
g12
VVP
p2877
sbatp2878
Rp2879
(dp2880
g12
VVP
p2881
sbatp2882
Rp2883
(dp2884
g12
VVP
p2885
sbatp2886
Rp2887
(dp2888
g12
VS
p2889
sbatp2890
Rp2891
(dp2892
g12
VSBAR
p2893
sbatp2894
Rp2895
(dp2896
g12
VVP
p2897
sbag0
(g1
g2
(lp2898
V.
p2899
atp2900
Rp2901
(dp2902
g12
V.
p2903
sbatp2904
Rp2905
(dp2906
g12
VS
p2907
sbatp2908
Rp2909
(dp2910
g12
S'id: 11'
p2911
sbag0
(g1
g2
(lp2912
g0
(g1
g2
(lp2913
g0
(g1
g2
(lp2914
g0
(g1
g2
(lp2915
g0
(g1
g2
(lp2916
VYeah
p2917
atp2918
Rp2919
(dp2920
g12
VUH
p2921
sbatp2922
Rp2923
(dp2924
g12
VINTJ
p2925
sbag0
(g1
g2
(lp2926
g0
(g1
g2
(lp2927
Vand
p2928
atp2929
Rp2930
(dp2931
g12
VCC
p2932
sbatp2933
Rp2934
(dp2935
g12
VNP
p2936
sbag0
(g1
g2
(lp2937
g0
(g1
g2
(lp2938
g0
(g1
g2
(lp2939
g0
(g1
g2
(lp2940
g0
(g1
g2
(lp2941
g0
(g1
g2
(lp2942
Vthose
p2943
atp2944
Rp2945
(dp2946
g12
VDT
p2947
sbag0
(g1
g2
(lp2948
Vpeople
p2949
atp2950
Rp2951
(dp2952
g12
VNNS
p2953
sbatp2954
Rp2955
(dp2956
g12
VNP
p2957
sbag0
(g1
g2
(lp2958
g0
(g1
g2
(lp2959
g0
(g1
g2
(lp2960
g0
(g1
g2
(lp2961
Vare
p2962
atp2963
Rp2964
(dp2965
g12
VVBP
p2966
sbag0
(g1
g2
(lp2967
g0
(g1
g2
(lp2968
Vinteresting
p2969
atp2970
Rp2971
(dp2972
g12
VJJ
p2973
sbatp2974
Rp2975
(dp2976
g12
VADJP
p2977
sbatp2978
Rp2979
(dp2980
g12
VVP
p2981
sbatp2982
Rp2983
(dp2984
g12
VS
p2985
sbatp2986
Rp2987
(dp2988
g12
VSBAR
p2989
sbatp2990
Rp2991
(dp2992
g12
VNP
p2993
sbatp2994
Rp2995
(dp2996
g12
VS
p2997
sbag0
(g1
g2
(lp2998
V,
p2999
atp3000
Rp3001
(dp3002
g12
V,
p3003
sbag0
(g1
g2
(lp3004
g0
(g1
g2
(lp3005
g0
(g1
g2
(lp3006
Vthey
p3007
atp3008
Rp3009
(dp3010
g12
VPRP
p3011
sbatp3012
Rp3013
(dp3014
g12
VADVP
p3015
sbag0
(g1
g2
(lp3016
g0
(g1
g2
(lp3017
V're
p3018
atp3019
Rp3020
(dp3021
g12
VVBP
p3022
sbatp3023
Rp3024
(dp3025
g12
VVP
p3026
sbatp3027
Rp3028
(dp3029
g12
VVP
p3030
sbatp3031
Rp3032
(dp3033
g12
VVP
p3034
sbag0
(g1
g2
(lp3035
g0
(g1
g2
(lp3036
Vjust
p3037
atp3038
Rp3039
(dp3040
g12
VRB
p3041
sbag0
(g1
g2
(lp3042
g0
(g1
g2
(lp3043
g0
(g1
g2
(lp3044
Vsitting
p3045
atp3046
Rp3047
(dp3048
g12
VVBG
p3049
sbag0
(g1
g2
(lp3050
g0
(g1
g2
(lp3051
Vthere
p3052
atp3053
Rp3054
(dp3055
g12
VRB
p3056
sbatp3057
Rp3058
(dp3059
g12
VADVP
p3060
sbatp3061
Rp3062
(dp3063
g12
VVP
p3064
sbatp3065
Rp3066
(dp3067
g12
VS
p3068
sbatp3069
Rp3070
(dp3071
g12
VPP
p3072
sbatp3073
Rp3074
(dp3075
g12
VVP
p3076
sbatp3077
Rp3078
(dp3079
g12
VS
p3080
sbag0
(g1
g2
(lp3081
V.
p3082
atp3083
Rp3084
(dp3085
g12
V.
p3086
sbatp3087
Rp3088
(dp3089
g12
VS
p3090
sbatp3091
Rp3092
(dp3093
g12
S'id: 12'
p3094
sbag0
(g1
g2
(lp3095
g0
(g1
g2
(lp3096
g0
(g1
g2
(lp3097
g0
(g1
g2
(lp3098
VSo
p3099
atp3100
Rp3101
(dp3102
g12
VRB
p3103
sbag0
(g1
g2
(lp3104
Vthis
p3105
atp3106
Rp3107
(dp3108
g12
VDT
p3109
sbatp3110
Rp3111
(dp3112
g12
VNP
p3113
sbag0
(g1
g2
(lp3114
g0
(g1
g2
(lp3115
Vis
p3116
atp3117
Rp3118
(dp3119
g12
VVBZ
p3120
sbag0
(g1
g2
(lp3121
g0
(g1
g2
(lp3122
Van
p3123
atp3124
Rp3125
(dp3126
g12
VDT
p3127
sbag0
(g1
g2
(lp3128
Voutside
p3129
atp3130
Rp3131
(dp3132
g12
VJJ
p3133
sbag0
(g1
g2
(lp3134
Vcircus
p3135
atp3136
Rp3137
(dp3138
g12
VNN
p3139
sbatp3140
Rp3141
(dp3142
g12
VNP
p3143
sbatp3144
Rp3145
(dp3146
g12
VVP
p3147
sbatp3148
Rp3149
(dp3150
g12
VS
p3151
sbatp3152
Rp3153
(dp3154
g12
S'id: 13'
p3155
sbatp3156
Rp3157
(dp3158
g12
S'sentences'
p3159
sb.