ccopy_reg
_reconstructor
p0
(cnltk.tree
Tree
p1
c__builtin__
list
p2
(lp3
g0
(g1
g2
(lp4
g0
(g1
g2
(lp5
g0
(g1
g2
(lp6
(lp7
S'word: Circus, index: 1'
p8
aatp9
Rp10
(dp11
S'_label'
p12
Vnsubj
p13
sbag0
(g1
g2
(lp14
g0
(g1
g2
(lp15
g0
(g1
g2
(lp16
(lp17
S'word: the, index: 3'
p18
aatp19
Rp20
(dp21
g12
Vdet
p22
sbatp23
Rp24
(dp25
g12
S'word: fair, index: 4'
p26
sbatp27
Rp28
(dp29
g12
Vdobj
p30
sbatp31
Rp32
(dp33
g12
S'word: meets, index: 2'
p34
sbatp35
Rp36
(dp37
g12
S'id: 0'
p38
sbag0
(g1
g2
(lp39
g0
(g1
g2
(lp40
g0
(g1
g2
(lp41
(lp42
S'word: clowns, index: 3'
p43
aatp44
Rp45
(dp46
g12
Vdobj
p47
sbag0
(g1
g2
(lp48
(lp49
S'word: Everybody, index: 1'
p50
aatp51
Rp52
(dp53
g12
Vnsubj
p54
sbatp55
Rp56
(dp57
g12
S'word: hates, index: 2'
p58
sbatp59
Rp60
(dp61
g12
S'id: 1'
p62
sbag0
(g1
g2
(lp63
g0
(g1
g2
(lp64
g0
(g1
g2
(lp65
g0
(g1
g2
(lp66
g0
(g1
g2
(lp67
g0
(g1
g2
(lp68
g0
(g1
g2
(lp69
(lp70
S'word: making, index: 5'
p71
aatp72
Rp73
(dp74
g12
Vamod
p75
sbatp76
Rp77
(dp78
g12
S'word: lions, index: 6'
p79
sbatp80
Rp81
(dp82
g12
Vnsubj
p83
sbag0
(g1
g2
(lp84
g0
(g1
g2
(lp85
g0
(g1
g2
(lp86
(lp87
S'word: tricks, index: 8'
p88
aatp89
Rp90
(dp91
g12
Vnsubj
p92
sbag0
(g1
g2
(lp93
(lp94
S'word: is, index: 9'
p95
aatp96
Rp97
(dp98
g12
Vaux
p99
sbatp100
Rp101
(dp102
g12
S'word: torture, index: 10'
p103
sbatp104
Rp105
(dp106
g12
Vccomp
p107
sbag0
(g1
g2
(lp108
(lp109
S'word: that, index: 4'
p110
aatp111
Rp112
(dp113
g12
Vmark
p114
sbatp115
Rp116
(dp117
g12
S'word: do, index: 7'
p118
sbatp119
Rp120
(dp121
g12
Vccomp
p122
sbag0
(g1
g2
(lp123
(lp124
S'word: And, index: 1'
p125
aatp126
Rp127
(dp128
g12
Vcc
p129
sbag0
(g1
g2
(lp130
(lp131
S'word: I, index: 2'
p132
aatp133
Rp134
(dp135
g12
Vnsubj
p136
sbatp137
Rp138
(dp139
g12
S'word: think, index: 3'
p140
sbatp141
Rp142
(dp143
g12
S'id: 2'
p144
sbag0
(g1
g2
(lp145
g0
(g1
g2
(lp146
g0
(g1
g2
(lp147
g0
(g1
g2
(lp148
g0
(g1
g2
(lp149
g0
(g1
g2
(lp150
g0
(g1
g2
(lp151
(lp152
S'word: the, index: 10'
p153
aatp154
Rp155
(dp156
g12
Vdet
p157
sbag0
(g1
g2
(lp158
g0
(g1
g2
(lp159
g0
(g1
g2
(lp160
(lp161
S'word: that, index: 12'
p162
aatp163
Rp164
(dp165
g12
Vnsubj
p166
sbag0
(g1
g2
(lp167
(lp168
S'word: there, index: 15'
p169
aatp170
Rp171
(dp172
g12
Vprep
p173
sbag0
(g1
g2
(lp174
(lp175
S'word: him, index: 17'
p176
aatp177
Rp178
(dp179
g12
Vprep
p180
sbatp181
Rp182
(dp183
g12
S"word: 's, index: 13"
p184
sbatp185
Rp186
(dp187
g12
Vrcmod
p188
sbatp189
Rp190
(dp191
g12
S'word: dude, index: 11'
p192
sbatp193
Rp194
(dp195
g12
Vdobj
p196
sbag0
(g1
g2
(lp197
g0
(g1
g2
(lp198
g0
(g1
g2
(lp199
(lp200
S'word: the, index: 5'
p201
aatp202
Rp203
(dp204
g12
Vdet
p205
sbatp206
Rp207
(dp208
g12
S'word: lion, index: 6'
p209
sbatp210
Rp211
(dp212
g12
Vnsubj
p213
sbag0
(g1
g2
(lp214
(lp215
S'word: should, index: 7'
p216
aatp217
Rp218
(dp219
g12
Vaux
p220
sbag0
(g1
g2
(lp221
(lp222
S'word: definitely, index: 8'
p223
aatp224
Rp225
(dp226
g12
Vadvmod
p227
sbatp228
Rp229
(dp230
g12
S'word: eat, index: 9'
p231
sbatp232
Rp233
(dp234
g12
Vconj
p235
sbag0
(g1
g2
(lp236
(lp237
S'word: It, index: 1'
p238
aatp239
Rp240
(dp241
g12
Vnsubj
p242
sbag0
(g1
g2
(lp243
(lp244
S"word: 's, index: 2"
p245
aatp246
Rp247
(dp248
g12
Vcop
p249
sbatp250
Rp251
(dp252
g12
S'word: abusive, index: 3'
p253
sbatp254
Rp255
(dp256
g12
S'id: 3'
p257
sbag0
(g1
g2
(lp258
g0
(g1
g2
(lp259
g0
(g1
g2
(lp260
g0
(g1
g2
(lp261
g0
(g1
g2
(lp262
(lp263
S'word: also, index: 12'
p264
aatp265
Rp266
(dp267
g12
Vadvmod
p268
sbag0
(g1
g2
(lp269
g0
(g1
g2
(lp270
g0
(g1
g2
(lp271
(lp272
S'word: the, index: 14'
p273
aatp274
Rp275
(dp276
g12
Vdet
p277
sbatp278
Rp279
(dp280
g12
S'word: horse, index: 15'
p281
sbatp282
Rp283
(dp284
g12
Vdobj
p285
sbag0
(g1
g2
(lp286
(lp287
S'word: where, index: 8'
p288
aatp289
Rp290
(dp291
g12
Vadvmod
p292
sbag0
(g1
g2
(lp293
g0
(g1
g2
(lp294
g0
(g1
g2
(lp295
(lp296
S'word: the, index: 9'
p297
aatp298
Rp299
(dp300
g12
Vdet
p301
sbatp302
Rp303
(dp304
g12
S'word: lady, index: 10'
p305
sbatp306
Rp307
(dp308
g12
Vnsubj
p309
sbag0
(g1
g2
(lp310
(lp311
S'word: is, index: 11'
p312
aatp313
Rp314
(dp315
g12
Vaux
p316
sbatp317
Rp318
(dp319
g12
S'word: abusing, index: 13'
p320
sbatp321
Rp322
(dp323
g12
Vadvcl
p324
sbag0
(g1
g2
(lp325
(lp326
S'word: And, index: 1'
p327
aatp328
Rp329
(dp330
g12
Vcc
p331
sbag0
(g1
g2
(lp332
(lp333
S'word: then, index: 2'
p334
aatp335
Rp336
(dp337
g12
Vadvmod
p338
sbag0
(g1
g2
(lp339
(lp340
S'word: we, index: 3'
p341
aatp342
Rp343
(dp344
g12
Vnsubj
p345
sbag0
(g1
g2
(lp346
g0
(g1
g2
(lp347
g0
(g1
g2
(lp348
(lp349
S'word: the, index: 6'
p350
aatp351
Rp352
(dp353
g12
Vdet
p354
sbatp355
Rp356
(dp357
g12
S'word: circus, index: 7'
p358
sbatp359
Rp360
(dp361
g12
Vprep
p362
sbatp363
Rp364
(dp365
g12
S'word: go, index: 4'
p366
sbatp367
Rp368
(dp369
g12
S'id: 4'
p370
sbag0
(g1
g2
(lp371
g0
(g1
g2
(lp372
g0
(g1
g2
(lp373
(lp374
S'word: And, index: 1'
p375
aatp376
Rp377
(dp378
g12
Vcc
p379
sbag0
(g1
g2
(lp380
(lp381
S'word: there, index: 2'
p382
aatp383
Rp384
(dp385
g12
Vexpl
p386
sbag0
(g1
g2
(lp387
g0
(g1
g2
(lp388
g0
(g1
g2
(lp389
(lp390
S'word: a, index: 4'
p391
aatp392
Rp393
(dp394
g12
Vdet
p395
sbag0
(g1
g2
(lp396
(lp397
S'word: trapeze, index: 5'
p398
aatp399
Rp400
(dp401
g12
Vnn
p402
sbatp403
Rp404
(dp405
g12
S'word: guy, index: 6'
p406
sbatp407
Rp408
(dp409
g12
Vnsubj
p410
sbag0
(g1
g2
(lp411
g0
(g1
g2
(lp412
g0
(g1
g2
(lp413
g0
(g1
g2
(lp414
g0
(g1
g2
(lp415
(lp416
S'word: his, index: 9'
p417
aatp418
Rp419
(dp420
g12
Vposs
p421
sbatp422
Rp423
(dp424
g12
S'word: balance, index: 10'
p425
sbatp426
Rp427
(dp428
g12
Vdobj
p429
sbag0
(g1
g2
(lp430
g0
(g1
g2
(lp431
g0
(g1
g2
(lp432
(lp433
S'word: a, index: 12'
p434
aatp435
Rp436
(dp437
g12
Vdet
p438
sbatp439
Rp440
(dp441
g12
S'word: pole, index: 13'
p442
sbatp443
Rp444
(dp445
g12
Vprep
p446
sbatp447
Rp448
(dp449
g12
S'word: keeping, index: 8'
p450
sbatp451
Rp452
(dp453
g12
Vvmod
p454
sbatp455
Rp456
(dp457
g12
S"word: 's, index: 3"
p458
sbatp459
Rp460
(dp461
g12
S'id: 5'
p462
sbag0
(g1
g2
(lp463
g0
(g1
g2
(lp464
g0
(g1
g2
(lp465
g0
(g1
g2
(lp466
g0
(g1
g2
(lp467
(lp468
S'word: like, index: 3'
p469
aatp470
Rp471
(dp472
g12
Vmark
p473
sbag0
(g1
g2
(lp474
(lp475
S'word: there, index: 4'
p476
aatp477
Rp478
(dp479
g12
Vexpl
p480
sbag0
(g1
g2
(lp481
(lp482
S'word: might, index: 5'
p483
aatp484
Rp485
(dp486
g12
Vaux
p487
sbag0
(g1
g2
(lp488
(lp489
S'word: even, index: 6'
p490
aatp491
Rp492
(dp493
g12
Vadvmod
p494
sbag0
(g1
g2
(lp495
(lp496
S'word: be, index: 7'
p497
aatp498
Rp499
(dp500
g12
Vcop
p501
sbag0
(g1
g2
(lp502
(lp503
S'word: some, index: 8'
p504
aatp505
Rp506
(dp507
g12
Vdet
p508
sbatp509
Rp510
(dp511
g12
S'word: birds, index: 9'
p512
sbatp513
Rp514
(dp515
g12
Vadvcl
p516
sbag0
(g1
g2
(lp517
(lp518
S'word: so, index: 11'
p519
aatp520
Rp521
(dp522
g12
Vdep
p523
sbag0
(g1
g2
(lp524
g0
(g1
g2
(lp525
g0
(g1
g2
(lp526
(lp527
S'word: they, index: 12'
p528
aatp529
Rp530
(dp531
g12
Vnsubj
p532
sbag0
(g1
g2
(lp533
(lp534
S'word: possibly, index: 13'
p535
aatp536
Rp537
(dp538
g12
Vadvmod
p539
sbag0
(g1
g2
(lp540
(lp541
S'word: might, index: 14'
p542
aatp543
Rp544
(dp545
g12
Vaux
p546
sbag0
(g1
g2
(lp547
(lp548
S'word: outside, index: 16'
p549
aatp550
Rp551
(dp552
g12
Vadvmod
p553
sbatp554
Rp555
(dp556
g12
S'word: be, index: 15'
p557
sbatp558
Rp559
(dp560
g12
Vparataxis
p561
sbag0
(g1
g2
(lp562
(lp563
S'word: There, index: 1'
p564
aatp565
Rp566
(dp567
g12
Vexpl
p568
sbatp569
Rp570
(dp571
g12
S'word: looks, index: 2'
p572
sbatp573
Rp574
(dp575
g12
S'id: 6'
p576
sbag0
(g1
g2
(lp577
g0
(g1
g2
(lp578
g0
(g1
g2
(lp579
(lp580
S'word: And, index: 1'
p581
aatp582
Rp583
(dp584
g12
Vcc
p585
sbag0
(g1
g2
(lp586
g0
(g1
g2
(lp587
g0
(g1
g2
(lp588
g0
(g1
g2
(lp589
g0
(g1
g2
(lp590
(lp591
S'word: them, index: 21'
p592
aatp593
Rp594
(dp595
g12
Vdobj
p596
sbag0
(g1
g2
(lp597
(lp598
S'word: anywhere, index: 22'
p599
aatp600
Rp601
(dp602
g12
Vadvmod
p603
sbag0
(g1
g2
(lp604
(lp605
S'word: to, index: 19'
p606
aatp607
Rp608
(dp609
g12
Vaux
p610
sbatp611
Rp612
(dp613
g12
S'word: take, index: 20'
p614
sbatp615
Rp616
(dp617
g12
Vvmod
p618
sbatp619
Rp620
(dp621
g12
S'word: time, index: 18'
p622
sbatp623
Rp624
(dp625
g12
Vdobj
p626
sbag0
(g1
g2
(lp627
g0
(g1
g2
(lp628
g0
(g1
g2
(lp629
g0
(g1
g2
(lp630
g0
(g1
g2
(lp631
(lp632
S'word: their, index: 5'
p633
aatp634
Rp635
(dp636
g12
Vposs
p637
sbag0
(g1
g2
(lp638
(lp639
S'word: or, index: 8'
p640
aatp641
Rp642
(dp643
g12
Vcc
p644
sbag0
(g1
g2
(lp645
(lp646
S'word: probably, index: 9'
p647
aatp648
Rp649
(dp650
g12
Vadvmod
p651
sbag0
(g1
g2
(lp652
g0
(g1
g2
(lp653
g0
(g1
g2
(lp654
(lp655
S'word: their, index: 10'
p656
aatp657
Rp658
(dp659
g12
Vposs
p660
sbatp661
Rp662
(dp663
g12
S'word: grandmother, index: 11'
p664
sbatp665
Rp666
(dp667
g12
Vdep
p668
sbatp669
Rp670
(dp671
g12
S'word: mother, index: 6'
p672
sbatp673
Rp674
(dp675
g12
Vprep
p676
sbag0
(g1
g2
(lp677
g0
(g1
g2
(lp678
g0
(g1
g2
(lp679
(lp680
S'word: nobody, index: 14'
p681
aatp682
Rp683
(dp684
g12
Vposs
p685
sbatp686
Rp687
(dp688
g12
S'word: mother, index: 16'
p689
sbatp690
Rp691
(dp692
g12
Vprep
p693
sbag0
(g1
g2
(lp694
(lp695
S'word: the, index: 2'
p696
aatp697
Rp698
(dp699
g12
Vdet
p700
sbatp701
Rp702
(dp703
g12
S'word: children, index: 3'
p704
sbatp705
Rp706
(dp707
g12
Vnsubj
p708
sbatp709
Rp710
(dp711
g12
S'word: has, index: 17'
p712
sbatp713
Rp714
(dp715
g12
S'id: 7'
p716
sbag0
(g1
g2
(lp717
g0
(g1
g2
(lp718
g0
(g1
g2
(lp719
(lp720
S'word: maybe, index: 16'
p721
aatp722
Rp723
(dp724
g12
Vadvmod
p725
sbag0
(g1
g2
(lp726
(lp727
S'word: And, index: 1'
p728
aatp729
Rp730
(dp731
g12
Vcc
p732
sbag0
(g1
g2
(lp733
(lp734
S'word: then, index: 2'
p735
aatp736
Rp737
(dp738
g12
Vadvmod
p739
sbag0
(g1
g2
(lp740
(lp741
S'word: there, index: 3'
p742
aatp743
Rp744
(dp745
g12
Vexpl
p746
sbag0
(g1
g2
(lp747
g0
(g1
g2
(lp748
g0
(g1
g2
(lp749
g0
(g1
g2
(lp750
g0
(g1
g2
(lp751
(lp752
S'word: a, index: 9'
p753
aatp754
Rp755
(dp756
g12
Vdet
p757
sbag0
(g1
g2
(lp758
(lp759
S'word: black, index: 10'
p760
aatp761
Rp762
(dp763
g12
Vamod
p764
sbag0
(g1
g2
(lp765
g0
(g1
g2
(lp766
g0
(g1
g2
(lp767
(lp768
S'word: his, index: 13'
p769
aatp770
Rp771
(dp772
g12
Vposs
p773
sbatp774
Rp775
(dp776
g12
S'word: daughter, index: 14'
p777
sbatp778
Rp779
(dp780
g12
Vprep
p781
sbatp782
Rp783
(dp784
g12
S'word: man, index: 11'
p785
sbatp786
Rp787
(dp788
g12
Vappos
p789
sbag0
(g1
g2
(lp790
(lp791
S'word: possibly, index: 5'
p792
aatp793
Rp794
(dp795
g12
Vadvmod
p796
sbag0
(g1
g2
(lp797
(lp798
S'word: some, index: 6'
p799
aatp800
Rp801
(dp802
g12
Vdet
p803
sbatp804
Rp805
(dp806
g12
S'word: black, index: 7'
p807
sbatp808
Rp809
(dp810
g12
Vnsubj
p811
sbatp812
Rp813
(dp814
g12
S"word: 's, index: 4"
p815
sbatp816
Rp817
(dp818
g12
S'id: 8'
p819
sbag0
(g1
g2
(lp820
g0
(g1
g2
(lp821
g0
(g1
g2
(lp822
g0
(g1
g2
(lp823
g0
(g1
g2
(lp824
(lp825
S'word: the, index: 11'
p826
aatp827
Rp828
(dp829
g12
Vdet
p830
sbatp831
Rp832
(dp833
g12
S'word: horse, index: 12'
p834
sbatp835
Rp836
(dp837
g12
Vprep
p838
sbag0
(g1
g2
(lp839
(lp840
S'word: And, index: 1'
p841
aatp842
Rp843
(dp844
g12
Vcc
p845
sbag0
(g1
g2
(lp846
(lp847
S'word: then, index: 2'
p848
aatp849
Rp850
(dp851
g12
Vadvmod
p852
sbag0
(g1
g2
(lp853
(lp854
S'word: there, index: 3'
p855
aatp856
Rp857
(dp858
g12
Vexpl
p859
sbag0
(g1
g2
(lp860
g0
(g1
g2
(lp861
g0
(g1
g2
(lp862
(lp863
S'word: some, index: 5'
p864
aatp865
Rp866
(dp867
g12
Vdet
p868
sbag0
(g1
g2
(lp869
(lp870
S'word: shadow, index: 6'
p871
aatp872
Rp873
(dp874
g12
Vnn
p875
sbatp876
Rp877
(dp878
g12
S'word: people, index: 7'
p879
sbatp880
Rp881
(dp882
g12
Vnsubj
p883
sbag0
(g1
g2
(lp884
(lp885
S'word: there, index: 9'
p886
aatp887
Rp888
(dp889
g12
Vprep
p890
sbatp891
Rp892
(dp893
g12
S"word: 's, index: 4"
p894
sbatp895
Rp896
(dp897
g12
S'id: 9'
p898
sbag0
(g1
g2
(lp899
g0
(g1
g2
(lp900
g0
(g1
g2
(lp901
(lp902
S'word: It, index: 1'
p903
aatp904
Rp905
(dp906
g12
Vnsubj
p907
sbag0
(g1
g2
(lp908
(lp909
S"word: 's, index: 2"
p910
aatp911
Rp912
(dp913
g12
Vcop
p914
sbag0
(g1
g2
(lp915
(lp916
S'word: probably, index: 3'
p917
aatp918
Rp919
(dp920
g12
Vadvmod
p921
sbag0
(g1
g2
(lp922
(lp923
S'word: silhouette, index: 6'
p924
aatp925
Rp926
(dp927
g12
Vprep
p928
sbatp929
Rp930
(dp931
g12
S'word: there, index: 4'
p932
sbatp933
Rp934
(dp935
g12
S'id: 10'
p936
sbag0
(g1
g2
(lp937
g0
(g1
g2
(lp938
g0
(g1
g2
(lp939
g0
(g1
g2
(lp940
g0
(g1
g2
(lp941
(lp942
S'word: Horses, index: 1'
p943
aatp944
Rp945
(dp946
g12
Vnsubjpass
p947
sbag0
(g1
g2
(lp948
(lp949
S'word: should, index: 2'
p950
aatp951
Rp952
(dp953
g12
Vaux
p954
sbag0
(g1
g2
(lp955
(lp956
S'word: not, index: 3'
p957
aatp958
Rp959
(dp960
g12
Vneg
p961
sbag0
(g1
g2
(lp962
(lp963
S'word: be, index: 4'
p964
aatp965
Rp966
(dp967
g12
Vauxpass
p968
sbag0
(g1
g2
(lp969
g0
(g1
g2
(lp970
g0
(g1
g2
(lp971
(lp972
S'word: to, index: 6'
p973
aatp974
Rp975
(dp976
g12
Vaux
p977
sbag0
(g1
g2
(lp978
(lp979
S'word: around, index: 8'
p980
aatp981
Rp982
(dp983
g12
Vadvmod
p984
sbag0
(g1
g2
(lp985
(lp986
S'word: circles, index: 10'
p987
aatp988
Rp989
(dp990
g12
Vprep
p991
sbatp992
Rp993
(dp994
g12
S'word: run, index: 7'
p995
sbatp996
Rp997
(dp998
g12
Vxcomp
p999
sbatp1000
Rp1001
(dp1002
g12
S'word: made, index: 5'
p1003
sbatp1004
Rp1005
(dp1006
g12
Vccomp
p1007
sbag0
(g1
g2
(lp1008
(lp1009
S'word: momma, index: 12'
p1010
aatp1011
Rp1012
(dp1013
g12
Vnsubj
p1014
sbag0
(g1
g2
(lp1015
(lp1016
S'word: does, index: 13'
p1017
aatp1018
Rp1019
(dp1020
g12
Vaux
p1021
sbag0
(g1
g2
(lp1022
(lp1023
S"word: n't, index: 14"
p1024
aatp1025
Rp1026
(dp1027
g12
Vneg
p1028
sbag0
(g1
g2
(lp1029
(lp1030
S'word: that, index: 16'
p1031
aatp1032
Rp1033
(dp1034
g12
Vdobj
p1035
sbatp1036
Rp1037
(dp1038
g12
S'word: like, index: 15'
p1039
sbatp1040
Rp1041
(dp1042
g12
S'id: 11'
p1043
sbag0
(g1
g2
(lp1044
g0
(g1
g2
(lp1045
g0
(g1
g2
(lp1046
g0
(g1
g2
(lp1047
g0
(g1
g2
(lp1048
(lp1049
S'word: more, index: 7'
p1050
aatp1051
Rp1052
(dp1053
g12
Vnum
p1054
sbatp1055
Rp1056
(dp1057
g12
S'word: clothes, index: 8'
p1058
sbatp1059
Rp1060
(dp1061
g12
Vdobj
p1062
sbag0
(g1
g2
(lp1063
(lp1064
S'word: on, index: 9'
p1065
aatp1066
Rp1067
(dp1068
g12
Vprep
p1069
sbag0
(g1
g2
(lp1070
g0
(g1
g2
(lp1071
g0
(g1
g2
(lp1072
g0
(g1
g2
(lp1073
g0
(g1
g2
(lp1074
(lp1075
S'word: the, index: 4'
p1076
aatp1077
Rp1078
(dp1079
g12
Vdet
p1080
sbatp1081
Rp1082
(dp1083
g12
S'word: horse, index: 5'
p1084
sbatp1085
Rp1086
(dp1087
g12
Vprep
p1088
sbag0
(g1
g2
(lp1089
(lp1090
S'word: The, index: 1'
p1091
aatp1092
Rp1093
(dp1094
g12
Vdet
p1095
sbatp1096
Rp1097
(dp1098
g12
S'word: lady, index: 2'
p1099
sbatp1100
Rp1101
(dp1102
g12
Vnsubj
p1103
sbatp1104
Rp1105
(dp1106
g12
S'word: needs, index: 6'
p1107
sbatp1108
Rp1109
(dp1110
g12
S'id: 12'
p1111
sbag0
(g1
g2
(lp1112
g0
(g1
g2
(lp1113
g0
(g1
g2
(lp1114
g0
(g1
g2
(lp1115
g0
(g1
g2
(lp1116
(lp1117
S'word: there, index: 7'
p1118
aatp1119
Rp1120
(dp1121
g12
Vadvmod
p1122
sbag0
(g1
g2
(lp1123
(lp1124
S'word: should, index: 8'
p1125
aatp1126
Rp1127
(dp1128
g12
Vaux
p1129
sbag0
(g1
g2
(lp1130
(lp1131
S'word: outside, index: 10'
p1132
aatp1133
Rp1134
(dp1135
g12
Vadvmod
p1136
sbag0
(g1
g2
(lp1137
(lp1138
S'word: so, index: 6'
p1139
aatp1140
Rp1141
(dp1142
g12
Vadvmod
p1143
sbatp1144
Rp1145
(dp1146
g12
S'word: be, index: 9'
p1147
sbatp1148
Rp1149
(dp1150
g12
Vdep
p1151
sbag0
(g1
g2
(lp1152
(lp1153
S'word: There, index: 1'
p1154
aatp1155
Rp1156
(dp1157
g12
Vexpl
p1158
sbag0
(g1
g2
(lp1159
(lp1160
S'word: mountains, index: 3'
p1161
aatp1162
Rp1163
(dp1164
g12
Vnsubj
p1165
sbag0
(g1
g2
(lp1166
(lp1167
S'word: possibly, index: 4'
p1168
aatp1169
Rp1170
(dp1171
g12
Vadvmod
p1172
sbatp1173
Rp1174
(dp1175
g12
S"word: 's, index: 2"
p1176
sbatp1177
Rp1178
(dp1179
g12
S'id: 13'
p1180
sbag0
(g1
g2
(lp1181
g0
(g1
g2
(lp1182
g0
(g1
g2
(lp1183
g0
(g1
g2
(lp1184
g0
(g1
g2
(lp1185
(lp1186
S'word: the, index: 11'
p1187
aatp1188
Rp1189
(dp1190
g12
Vdet
p1191
sbatp1192
Rp1193
(dp1194
g12
S'word: children, index: 12'
p1195
sbatp1196
Rp1197
(dp1198
g12
Vprep
p1199
sbag0
(g1
g2
(lp1200
(lp1201
S'word: Oh, index: 1'
p1202
aatp1203
Rp1204
(dp1205
g12
Vdiscourse
p1206
sbag0
(g1
g2
(lp1207
g0
(g1
g2
(lp1208
g0
(g1
g2
(lp1209
(lp1210
S'word: the, index: 3'
p1211
aatp1212
Rp1213
(dp1214
g12
Vdet
p1215
sbatp1216
Rp1217
(dp1218
g12
S'word: clown, index: 4'
p1219
sbatp1220
Rp1221
(dp1222
g12
Vnsubj
p1223
sbag0
(g1
g2
(lp1224
(lp1225
S'word: is, index: 5'
p1226
aatp1227
Rp1228
(dp1229
g12
Vaux
p1230
sbag0
(g1
g2
(lp1231
g0
(g1
g2
(lp1232
g0
(g1
g2
(lp1233
(lp1234
S'word: probably, index: 7'
p1235
aatp1236
Rp1237
(dp1238
g12
Vadvmod
p1239
sbatp1240
Rp1241
(dp1242
g12
S'word: candy, index: 8'
p1243
sbatp1244
Rp1245
(dp1246
g12
Vdobj
p1247
sbatp1248
Rp1249
(dp1250
g12
S'word: throwing, index: 6'
p1251
sbatp1252
Rp1253
(dp1254
g12
S'id: 14'
p1255
sbag0
(g1
g2
(lp1256
g0
(g1
g2
(lp1257
g0
(g1
g2
(lp1258
g0
(g1
g2
(lp1259
g0
(g1
g2
(lp1260
(lp1261
S'word: The, index: 1'
p1262
aatp1263
Rp1264
(dp1265
g12
Vdet
p1266
sbag0
(g1
g2
(lp1267
(lp1268
S'word: little, index: 2'
p1269
aatp1270
Rp1271
(dp1272
g12
Vamod
p1273
sbatp1274
Rp1275
(dp1276
g12
S'word: girl, index: 3'
p1277
sbatp1278
Rp1279
(dp1280
g12
Vnsubj
p1281
sbag0
(g1
g2
(lp1282
(lp1283
S'word: is, index: 4'
p1284
aatp1285
Rp1286
(dp1287
g12
Vaux
p1288
sbag0
(g1
g2
(lp1289
g0
(g1
g2
(lp1290
g0
(g1
g2
(lp1291
(lp1292
S'word: the, index: 7'
p1293
aatp1294
Rp1295
(dp1296
g12
Vdet
p1297
sbag0
(g1
g2
(lp1298
g0
(g1
g2
(lp1299
g0
(g1
g2
(lp1300
g0
(g1
g2
(lp1301
g0
(g1
g2
(lp1302
(lp1303
S'word: who, index: 13'
p1304
aatp1305
Rp1306
(dp1307
g12
Vnsubj
p1308
sbag0
(g1
g2
(lp1309
(lp1310
S'word: is, index: 14'
p1311
aatp1312
Rp1313
(dp1314
g12
Vcop
p1315
sbag0
(g1
g2
(lp1316
(lp1317
S'word: a, index: 15'
p1318
aatp1319
Rp1320
(dp1321
g12
Vdet
p1322
sbag0
(g1
g2
(lp1323
g0
(g1
g2
(lp1324
g0
(g1
g2
(lp1325
(lp1326
S'word: my, index: 18'
p1327
aatp1328
Rp1329
(dp1330
g12
Vposs
p1331
sbatp1332
Rp1333
(dp1334
g12
S'word: opinion, index: 19'
p1335
sbatp1336
Rp1337
(dp1338
g12
Vprep
p1339
sbatp1340
Rp1341
(dp1342
g12
S'word: criminal, index: 16'
p1343
sbatp1344
Rp1345
(dp1346
g12
Vrcmod
p1347
sbag0
(g1
g2
(lp1348
(lp1349
S'word: the, index: 10'
p1350
aatp1351
Rp1352
(dp1353
g12
Vdet
p1354
sbatp1355
Rp1356
(dp1357
g12
S'word: horse, index: 11'
p1358
sbatp1359
Rp1360
(dp1361
g12
Vprep
p1362
sbatp1363
Rp1364
(dp1365
g12
S'word: lady, index: 8'
p1366
sbatp1367
Rp1368
(dp1369
g12
Vprep
p1370
sbatp1371
Rp1372
(dp1373
g12
S'word: pointing, index: 5'
p1374
sbatp1375
Rp1376
(dp1377
g12
S'id: 15'
p1378
sbag0
(g1
g2
(lp1379
g0
(g1
g2
(lp1380
g0
(g1
g2
(lp1381
g0
(g1
g2
(lp1382
g0
(g1
g2
(lp1383
(lp1384
S"word: 's, index: 2"
p1385
aatp1386
Rp1387
(dp1388
g12
Vnsubj
p1389
sbag0
(g1
g2
(lp1390
g0
(g1
g2
(lp1391
g0
(g1
g2
(lp1392
(lp1393
S'word: one, index: 4'
p1394
aatp1395
Rp1396
(dp1397
g12
Vnum
p1398
sbag0
(g1
g2
(lp1399
(lp1400
S'word: two, index: 6'
p1401
aatp1402
Rp1403
(dp1404
g12
Vnum
p1405
sbag0
(g1
g2
(lp1406
(lp1407
S'word: three, index: 8'
p1408
aatp1409
Rp1410
(dp1411
g12
Vnum
p1412
sbag0
(g1
g2
(lp1413
(lp1414
S'word: four, index: 10'
p1415
aatp1416
Rp1417
(dp1418
g12
Vnum
p1419
sbag0
(g1
g2
(lp1420
g0
(g1
g2
(lp1421
g0
(g1
g2
(lp1422
(lp1423
S'word: the, index: 13'
p1424
aatp1425
Rp1426
(dp1427
g12
Vdet
p1428
sbatp1429
Rp1430
(dp1431
g12
S'word: ring, index: 14'
p1432
sbatp1433
Rp1434
(dp1435
g12
Vprep
p1436
sbatp1437
Rp1438
(dp1439
g12
S'word: stars, index: 11'
p1440
sbatp1441
Rp1442
(dp1443
g12
Vdobj
p1444
sbatp1445
Rp1446
(dp1447
g12
S'word: see, index: 3'
p1448
sbatp1449
Rp1450
(dp1451
g12
Vccomp
p1452
sbatp1453
Rp1454
(dp1455
g12
S'word: Let, index: 1'
p1456
sbatp1457
Rp1458
(dp1459
g12
S'id: 16'
p1460
sbag0
(g1
g2
(lp1461
g0
(g1
g2
(lp1462
g0
(g1
g2
(lp1463
g0
(g1
g2
(lp1464
g0
(g1
g2
(lp1465
(lp1466
S'word: else, index: 4'
p1467
aatp1468
Rp1469
(dp1470
g12
Vamod
p1471
sbatp1472
Rp1473
(dp1474
g12
S'word: what, index: 3'
p1475
sbatp1476
Rp1477
(dp1478
g12
Vnsubj
p1479
sbag0
(g1
g2
(lp1480
(lp1481
S'word: I, index: 6'
p1482
aatp1483
Rp1484
(dp1485
g12
Vdobj
p1486
sbag0
(g1
g2
(lp1487
(lp1488
S'word: see, index: 7'
p1489
aatp1490
Rp1491
(dp1492
g12
Vdep
p1493
sbag0
(g1
g2
(lp1494
(lp1495
S'word: And, index: 1'
p1496
aatp1497
Rp1498
(dp1499
g12
Vcc
p1500
sbatp1501
Rp1502
(dp1503
g12
S'word: can, index: 5'
p1504
sbatp1505
Rp1506
(dp1507
g12
S'id: 17'
p1508
sbatp1509
Rp1510
(dp1511
g12
S'sentences'
p1512
sb.