ccopy_reg
_reconstructor
p0
(cnltk.tree
Tree
p1
c__builtin__
list
p2
(lp3
g0
(g1
g2
(lp4
g0
(g1
g2
(lp5
g0
(g1
g2
(lp6
g0
(g1
g2
(lp7
VGirl
p8
atp9
Rp10
(dp11
S'_label'
p12
VNNP
p13
sbatp14
Rp15
(dp16
g12
VNP
p17
sbag0
(g1
g2
(lp18
V,
p19
atp20
Rp21
(dp22
g12
V,
p23
sbag0
(g1
g2
(lp24
g0
(g1
g2
(lp25
Vboy
p26
atp27
Rp28
(dp29
g12
VNN
p30
sbatp31
Rp32
(dp33
g12
VNP
p34
sbag0
(g1
g2
(lp35
V.
p36
atp37
Rp38
(dp39
g12
V.
p40
sbatp41
Rp42
(dp43
g12
VNP
p44
sbatp45
Rp46
(dp47
g12
S'id: 0'
p48
sbag0
(g1
g2
(lp49
g0
(g1
g2
(lp50
g0
(g1
g2
(lp51
g0
(g1
g2
(lp52
VCandy
p53
atp54
Rp55
(dp56
g12
VNN
p57
sbatp58
Rp59
(dp60
g12
VNP
p61
sbag0
(g1
g2
(lp62
V,
p63
atp64
Rp65
(dp66
g12
V,
p67
sbag0
(g1
g2
(lp68
g0
(g1
g2
(lp69
Vno
p70
atp71
Rp72
(dp73
g12
VDT
p74
sbatp75
Rp76
(dp77
g12
VNP
p78
sbag0
(g1
g2
(lp79
V.
p80
atp81
Rp82
(dp83
g12
V.
p84
sbatp85
Rp86
(dp87
g12
VNP
p88
sbatp89
Rp90
(dp91
g12
S'id: 1'
p92
sbag0
(g1
g2
(lp93
g0
(g1
g2
(lp94
g0
(g1
g2
(lp95
g0
(g1
g2
(lp96
VA
p97
atp98
Rp99
(dp100
g12
VDT
p101
sbag0
(g1
g2
(lp102
Vcandy
p103
atp104
Rp105
(dp106
g12
VNN
p107
sbatp108
Rp109
(dp110
g12
VNP
p111
sbag0
(g1
g2
(lp112
V,
p113
atp114
Rp115
(dp116
g12
V,
p117
sbag0
(g1
g2
(lp118
g0
(g1
g2
(lp119
g0
(g1
g2
(lp120
Vcandy
p121
atp122
Rp123
(dp124
g12
VNN
p125
sbag0
(g1
g2
(lp126
Vjar
p127
atp128
Rp129
(dp130
g12
VNN
p131
sbatp132
Rp133
(dp134
g12
VNP
p135
sbag0
(g1
g2
(lp136
V,
p137
atp138
Rp139
(dp140
g12
V,
p141
sbag0
(g1
g2
(lp142
g0
(g1
g2
(lp143
Vjar
p144
atp145
Rp146
(dp147
g12
VNN
p148
sbatp149
Rp150
(dp151
g12
VNP
p152
sbatp153
Rp154
(dp155
g12
VNP
p156
sbag0
(g1
g2
(lp157
V.
p158
atp159
Rp160
(dp161
g12
V.
p162
sbatp163
Rp164
(dp165
g12
VNP
p166
sbatp167
Rp168
(dp169
g12
S'id: 2'
p170
sbag0
(g1
g2
(lp171
g0
(g1
g2
(lp172
g0
(g1
g2
(lp173
g0
(g1
g2
(lp174
VNo
p175
atp176
Rp177
(dp178
g12
VDT
p179
sbatp180
Rp181
(dp182
g12
VNP
p183
sbag0
(g1
g2
(lp184
V.
p185
atp186
Rp187
(dp188
g12
V.
p189
sbatp190
Rp191
(dp192
g12
VFRAG
p193
sbatp194
Rp195
(dp196
g12
S'id: 3'
p197
sbag0
(g1
g2
(lp198
g0
(g1
g2
(lp199
g0
(g1
g2
(lp200
g0
(g1
g2
(lp201
VI
p202
atp203
Rp204
(dp205
g12
VPRP
p206
sbatp207
Rp208
(dp209
g12
VNP
p210
sbag0
(g1
g2
(lp211
V,
p212
atp213
Rp214
(dp215
g12
V,
p216
sbag0
(g1
g2
(lp217
g0
(g1
g2
(lp218
g0
(g1
g2
(lp219
VI
p220
atp221
Rp222
(dp223
g12
VPRP
p224
sbag0
(g1
g2
(lp225
Vcandy
p226
atp227
Rp228
(dp229
g12
VNN
p230
sbatp231
Rp232
(dp233
g12
VNP
p234
sbag0
(g1
g2
(lp235
V,
p236
atp237
Rp238
(dp239
g12
V,
p240
sbag0
(g1
g2
(lp241
g0
(g1
g2
(lp242
VI
p243
atp244
Rp245
(dp246
g12
VPRP
p247
sbag0
(g1
g2
(lp248
Vcandy
p249
atp250
Rp251
(dp252
g12
VNN
p253
sbatp254
Rp255
(dp256
g12
VNP
p257
sbatp258
Rp259
(dp260
g12
VNP
p261
sbag0
(g1
g2
(lp262
V.
p263
atp264
Rp265
(dp266
g12
V.
p267
sbatp268
Rp269
(dp270
g12
VNP
p271
sbatp272
Rp273
(dp274
g12
S'id: 4'
p275
sbag0
(g1
g2
(lp276
g0
(g1
g2
(lp277
g0
(g1
g2
(lp278
g0
(g1
g2
(lp279
VMom
p280
atp281
Rp282
(dp283
g12
VNN
p284
sbatp285
Rp286
(dp287
g12
VNP
p288
sbag0
(g1
g2
(lp289
g0
(g1
g2
(lp290
Vmom
p291
atp292
Rp293
(dp294
g12
VNN
p295
sbatp296
Rp297
(dp298
g12
VNP
p299
sbag0
(g1
g2
(lp300
V.
p301
atp302
Rp303
(dp304
g12
V.
p305
sbatp306
Rp307
(dp308
g12
VNP
p309
sbatp310
Rp311
(dp312
g12
S'id: 5'
p313
sbag0
(g1
g2
(lp314
g0
(g1
g2
(lp315
g0
(g1
g2
(lp316
g0
(g1
g2
(lp317
VWater
p318
atp319
Rp320
(dp321
g12
VNN
p322
sbatp323
Rp324
(dp325
g12
VNP
p326
sbag0
(g1
g2
(lp327
V,
p328
atp329
Rp330
(dp331
g12
V,
p332
sbag0
(g1
g2
(lp333
g0
(g1
g2
(lp334
g0
(g1
g2
(lp335
Vwater
p336
atp337
Rp338
(dp339
g12
VNN
p340
sbag0
(g1
g2
(lp341
V,
p342
atp343
Rp344
(dp345
g12
V,
p346
sbag0
(g1
g2
(lp347
Vwater
p348
atp349
Rp350
(dp351
g12
VNN
p352
sbag0
(g1
g2
(lp353
V,
p354
atp355
Rp356
(dp357
g12
V,
p358
sbag0
(g1
g2
(lp359
Vwater
p360
atp361
Rp362
(dp363
g12
VNN
p364
sbag0
(g1
g2
(lp365
V,
p366
atp367
Rp368
(dp369
g12
V,
p370
sbatp371
Rp372
(dp373
g12
VNP
p374
sbag0
(g1
g2
(lp375
g0
(g1
g2
(lp376
g0
(g1
g2
(lp377
g0
(g1
g2
(lp378
g0
(g1
g2
(lp379
g0
(g1
g2
(lp380
Vyes
p381
atp382
Rp383
(dp384
g12
VUH
p385
sbatp386
Rp387
(dp388
g12
VINTJ
p389
sbag0
(g1
g2
(lp390
g0
(g1
g2
(lp391
Vwater
p392
atp393
Rp394
(dp395
g12
VNN
p396
sbatp397
Rp398
(dp399
g12
VNP
p400
sbatp401
Rp402
(dp403
g12
VNP
p404
sbatp405
Rp406
(dp407
g12
VVP
p408
sbatp409
Rp410
(dp411
g12
VS
p412
sbatp413
Rp414
(dp415
g12
VSBAR
p416
sbatp417
Rp418
(dp419
g12
VNP
p420
sbag0
(g1
g2
(lp421
V.
p422
atp423
Rp424
(dp425
g12
V.
p426
sbatp427
Rp428
(dp429
g12
VNP
p430
sbatp431
Rp432
(dp433
g12
S'id: 6'
p434
sbag0
(g1
g2
(lp435
g0
(g1
g2
(lp436
g0
(g1
g2
(lp437
g0
(g1
g2
(lp438
g0
(g1
g2
(lp439
VSoap
p440
atp441
Rp442
(dp443
g12
VNNP
p444
sbag0
(g1
g2
(lp445
Va
p446
atp447
Rp448
(dp449
g12
VDT
p450
sbatp451
Rp452
(dp453
g12
VNP
p454
sbag0
(g1
g2
(lp455
V,
p456
atp457
Rp458
(dp459
g12
V,
p460
sbag0
(g1
g2
(lp461
g0
(g1
g2
(lp462
Vno
p463
atp464
Rp465
(dp466
g12
VDT
p467
sbag0
(g1
g2
(lp468
Vsinks
p469
atp470
Rp471
(dp472
g12
VNNS
p473
sbatp474
Rp475
(dp476
g12
VNP
p477
sbag0
(g1
g2
(lp478
V,
p479
atp480
Rp481
(dp482
g12
V,
p483
sbatp484
Rp485
(dp486
g12
VNP
p487
sbag0
(g1
g2
(lp488
g0
(g1
g2
(lp489
Vsinks
p490
atp491
Rp492
(dp493
g12
VVBZ
p494
sbatp495
Rp496
(dp497
g12
VVP
p498
sbag0
(g1
g2
(lp499
V.
p500
atp501
Rp502
(dp503
g12
V.
p504
sbatp505
Rp506
(dp507
g12
VS
p508
sbatp509
Rp510
(dp511
g12
S'id: 7'
p512
sbag0
(g1
g2
(lp513
g0
(g1
g2
(lp514
g0
(g1
g2
(lp515
g0
(g1
g2
(lp516
VCandy
p517
atp518
Rp519
(dp520
g12
VNN
p521
sbatp522
Rp523
(dp524
g12
VNP
p525
sbag0
(g1
g2
(lp526
V,
p527
atp528
Rp529
(dp530
g12
V,
p531
sbag0
(g1
g2
(lp532
g0
(g1
g2
(lp533
Vno
p534
atp535
Rp536
(dp537
g12
VDT
p538
sbag0
(g1
g2
(lp539
Vshine
p540
atp541
Rp542
(dp543
g12
VNN
p544
sbatp545
Rp546
(dp547
g12
VNP
p548
sbag0
(g1
g2
(lp549
V.
p550
atp551
Rp552
(dp553
g12
V.
p554
sbatp555
Rp556
(dp557
g12
VNP
p558
sbatp559
Rp560
(dp561
g12
S'id: 8'
p562
sbag0
(g1
g2
(lp563
g0
(g1
g2
(lp564
g0
(g1
g2
(lp565
g0
(g1
g2
(lp566
VWhat
p567
atp568
Rp569
(dp570
g12
VWDT
p571
sbatp572
Rp573
(dp574
g12
VWHNP
p575
sbag0
(g1
g2
(lp576
V.
p577
atp578
Rp579
(dp580
g12
V.
p581
sbatp582
Rp583
(dp584
g12
VFRAG
p585
sbatp586
Rp587
(dp588
g12
S'id: 9'
p589
sbag0
(g1
g2
(lp590
g0
(g1
g2
(lp591
g0
(g1
g2
(lp592
g0
(g1
g2
(lp593
VWhat
p594
atp595
Rp596
(dp597
g12
VWDT
p598
sbatp599
Rp600
(dp601
g12
VWHNP
p602
sbag0
(g1
g2
(lp603
V.
p604
atp605
Rp606
(dp607
g12
V.
p608
sbatp609
Rp610
(dp611
g12
VFRAG
p612
sbatp613
Rp614
(dp615
g12
S'id: 10'
p616
sbag0
(g1
g2
(lp617
g0
(g1
g2
(lp618
g0
(g1
g2
(lp619
g0
(g1
g2
(lp620
VNo
p621
atp622
Rp623
(dp624
g12
VDT
p625
sbatp626
Rp627
(dp628
g12
VNP
p629
sbag0
(g1
g2
(lp630
V.
p631
atp632
Rp633
(dp634
g12
V.
p635
sbatp636
Rp637
(dp638
g12
VFRAG
p639
sbatp640
Rp641
(dp642
g12
S'id: 11'
p643
sbatp644
Rp645
(dp646
g12
S'sentences'
p647
sb.