ccopy_reg
_reconstructor
p0
(cnltk.tree
Tree
p1
c__builtin__
list
p2
(lp3
g0
(g1
g2
(lp4
g0
(g1
g2
(lp5
g0
(g1
g2
(lp6
g0
(g1
g2
(lp7
VI
p8
atp9
Rp10
(dp11
S'_label'
p12
VPRP
p13
sbatp14
Rp15
(dp16
g12
VNP
p17
sbag0
(g1
g2
(lp18
g0
(g1
g2
(lp19
Vsaw
p20
atp21
Rp22
(dp23
g12
VVBD
p24
sbag0
(g1
g2
(lp25
g0
(g1
g2
(lp26
Vthis
p27
atp28
Rp29
(dp30
g12
VDT
p31
sbatp32
Rp33
(dp34
g12
VNP
p35
sbag0
(g1
g2
(lp36
g0
(g1
g2
(lp37
Vone
p38
atp39
Rp40
(dp41
g12
VCD
p42
sbag0
(g1
g2
(lp43
Vyesterday
p44
atp45
Rp46
(dp47
g12
VNN
p48
sbatp49
Rp50
(dp51
g12
VNP-TMP
p52
sbatp53
Rp54
(dp55
g12
VVP
p56
sbag0
(g1
g2
(lp57
V.
p58
atp59
Rp60
(dp61
g12
V.
p62
sbatp63
Rp64
(dp65
g12
VS
p66
sbatp67
Rp68
(dp69
g12
S'id: 0'
p70
sbag0
(g1
g2
(lp71
g0
(g1
g2
(lp72
g0
(g1
g2
(lp73
g0
(g1
g2
(lp74
VNice
p75
atp76
Rp77
(dp78
g12
VJJ
p79
sbag0
(g1
g2
(lp80
Vfamily
p81
atp82
Rp83
(dp84
g12
VNN
p85
sbag0
(g1
g2
(lp86
Vvacation
p87
atp88
Rp89
(dp90
g12
VNN
p91
sbatp92
Rp93
(dp94
g12
VNP
p95
sbag0
(g1
g2
(lp96
V,
p97
atp98
Rp99
(dp100
g12
V,
p101
sbag0
(g1
g2
(lp102
g0
(g1
g2
(lp103
Vthey
p104
atp105
Rp106
(dp107
g12
VPRP
p108
sbatp109
Rp110
(dp111
g12
VNP
p112
sbag0
(g1
g2
(lp113
g0
(g1
g2
(lp114
V've
p115
atp116
Rp117
(dp118
g12
VVBP
p119
sbag0
(g1
g2
(lp120
g0
(g1
g2
(lp121
Vdriven
p122
atp123
Rp124
(dp125
g12
VVBN
p126
sbag0
(g1
g2
(lp127
g0
(g1
g2
(lp128
Vto
p129
atp130
Rp131
(dp132
g12
VTO
p133
sbag0
(g1
g2
(lp134
g0
(g1
g2
(lp135
Vthe
p136
atp137
Rp138
(dp139
g12
VDT
p140
sbag0
(g1
g2
(lp141
Vvacation
p142
atp143
Rp144
(dp145
g12
VNN
p146
sbatp147
Rp148
(dp149
g12
VNP
p150
sbatp151
Rp152
(dp153
g12
VPP
p154
sbatp155
Rp156
(dp157
g12
VVP
p158
sbatp159
Rp160
(dp161
g12
VVP
p162
sbag0
(g1
g2
(lp163
V.
p164
atp165
Rp166
(dp167
g12
V.
p168
sbatp169
Rp170
(dp171
g12
VS
p172
sbatp173
Rp174
(dp175
g12
S'id: 1'
p176
sbag0
(g1
g2
(lp177
g0
(g1
g2
(lp178
g0
(g1
g2
(lp179
g0
(g1
g2
(lp180
g0
(g1
g2
(lp181
VThey
p182
atp183
Rp184
(dp185
g12
VPRP
p186
sbatp187
Rp188
(dp189
g12
VNP
p190
sbag0
(g1
g2
(lp191
g0
(g1
g2
(lp192
V've
p193
atp194
Rp195
(dp196
g12
VVBP
p197
sbag0
(g1
g2
(lp198
g0
(g1
g2
(lp199
Vgot
p200
atp201
Rp202
(dp203
g12
VVBN
p204
sbag0
(g1
g2
(lp205
g0
(g1
g2
(lp206
V,
p207
atp208
Rp209
(dp210
g12
V,
p211
sbag0
(g1
g2
(lp212
g0
(g1
g2
(lp213
g0
(g1
g2
(lp214
Vthey
p215
atp216
Rp217
(dp218
g12
VPRP
p219
sbatp220
Rp221
(dp222
g12
VNP
p223
sbag0
(g1
g2
(lp224
g0
(g1
g2
(lp225
Vmust
p226
atp227
Rp228
(dp229
g12
VMD
p230
sbag0
(g1
g2
(lp231
g0
(g1
g2
(lp232
Vbe
p233
atp234
Rp235
(dp236
g12
VVB
p237
sbag0
(g1
g2
(lp238
g0
(g1
g2
(lp239
Vin
p240
atp241
Rp242
(dp243
g12
VIN
p244
sbag0
(g1
g2
(lp245
g0
(g1
g2
(lp246
VMaine
p247
atp248
Rp249
(dp250
g12
VNNP
p251
sbatp252
Rp253
(dp254
g12
VNP
p255
sbatp256
Rp257
(dp258
g12
VPP
p259
sbatp260
Rp261
(dp262
g12
VVP
p263
sbatp264
Rp265
(dp266
g12
VVP
p267
sbatp268
Rp269
(dp270
g12
VS
p271
sbag0
(g1
g2
(lp272
V,
p273
atp274
Rp275
(dp276
g12
V,
p277
sbatp278
Rp279
(dp280
g12
VPRN
p281
sbag0
(g1
g2
(lp282
g0
(g1
g2
(lp283
Vbecause
p284
atp285
Rp286
(dp287
g12
VIN
p288
sbag0
(g1
g2
(lp289
g0
(g1
g2
(lp290
g0
(g1
g2
(lp291
Vthey
p292
atp293
Rp294
(dp295
g12
VPRP
p296
sbatp297
Rp298
(dp299
g12
VNP
p300
sbag0
(g1
g2
(lp301
g0
(g1
g2
(lp302
Vgot
p303
atp304
Rp305
(dp306
g12
VVBD
p307
sbag0
(g1
g2
(lp308
g0
(g1
g2
(lp309
g0
(g1
g2
(lp310
g0
(g1
g2
(lp311
g0
(g1
g2
(lp312
Vthe
p313
atp314
Rp315
(dp316
g12
VDT
p317
sbag0
(g1
g2
(lp318
Vbeach
p319
atp320
Rp321
(dp322
g12
VNN
p323
sbatp324
Rp325
(dp326
g12
VNP
p327
sbag0
(g1
g2
(lp328
V,
p329
atp330
Rp331
(dp332
g12
V,
p333
sbag0
(g1
g2
(lp334
Vand
p335
atp336
Rp337
(dp338
g12
VCC
p339
sbag0
(g1
g2
(lp340
g0
(g1
g2
(lp341
Vthe
p342
atp343
Rp344
(dp345
g12
VDT
p346
sbag0
(g1
g2
(lp347
Vtrees
p348
atp349
Rp350
(dp351
g12
VNNS
p352
sbatp353
Rp354
(dp355
g12
VNP
p356
sbag0
(g1
g2
(lp357
V,
p358
atp359
Rp360
(dp361
g12
V,
p362
sbatp363
Rp364
(dp365
g12
VNP
p366
sbag0
(g1
g2
(lp367
Vand
p368
atp369
Rp370
(dp371
g12
VCC
p372
sbag0
(g1
g2
(lp373
g0
(g1
g2
(lp374
g0
(g1
g2
(lp375
Vthe
p376
atp377
Rp378
(dp379
g12
VDT
p380
sbag0
(g1
g2
(lp381
Vwater
p382
atp383
Rp384
(dp385
g12
VNN
p386
sbatp387
Rp388
(dp389
g12
VNP
p390
sbag0
(g1
g2
(lp391
V,
p392
atp393
Rp394
(dp395
g12
V,
p396
sbag0
(g1
g2
(lp397
Vand
p398
atp399
Rp400
(dp401
g12
VCC
p402
sbag0
(g1
g2
(lp403
g0
(g1
g2
(lp404
Vthe
p405
atp406
Rp407
(dp408
g12
VDT
p409
sbag0
(g1
g2
(lp410
Vsailboat
p411
atp412
Rp413
(dp414
g12
VNN
p415
sbatp416
Rp417
(dp418
g12
VNP
p419
sbag0
(g1
g2
(lp420
V,
p421
atp422
Rp423
(dp424
g12
V,
p425
sbatp426
Rp427
(dp428
g12
VNP
p429
sbatp430
Rp431
(dp432
g12
VNP
p433
sbag0
(g1
g2
(lp434
Vand
p435
atp436
Rp437
(dp438
g12
VCC
p439
sbag0
(g1
g2
(lp440
g0
(g1
g2
(lp441
g0
(g1
g2
(lp442
Vthe
p443
atp444
Rp445
(dp446
g12
VDT
p447
sbag0
(g1
g2
(lp448
Vlake
p449
atp450
Rp451
(dp452
g12
VNN
p453
sbatp454
Rp455
(dp456
g12
VNP
p457
sbag0
(g1
g2
(lp458
g0
(g1
g2
(lp459
Vin
p460
atp461
Rp462
(dp463
g12
VIN
p464
sbag0
(g1
g2
(lp465
g0
(g1
g2
(lp466
VMaine
p467
atp468
Rp469
(dp470
g12
VNNP
p471
sbatp472
Rp473
(dp474
g12
VNP
p475
sbatp476
Rp477
(dp478
g12
VPP
p479
sbatp480
Rp481
(dp482
g12
VNP
p483
sbatp484
Rp485
(dp486
g12
VNP
p487
sbatp488
Rp489
(dp490
g12
VVP
p491
sbatp492
Rp493
(dp494
g12
VS
p495
sbatp496
Rp497
(dp498
g12
VSBAR
p499
sbatp500
Rp501
(dp502
g12
VVP
p503
sbatp504
Rp505
(dp506
g12
VVP
p507
sbatp508
Rp509
(dp510
g12
VS
p511
sbag0
(g1
g2
(lp512
g0
(g1
g2
(lp513
VI
p514
atp515
Rp516
(dp517
g12
VPRP
p518
sbatp519
Rp520
(dp521
g12
VNP
p522
sbag0
(g1
g2
(lp523
g0
(g1
g2
(lp524
V'm
p525
atp526
Rp527
(dp528
g12
VVBP
p529
sbag0
(g1
g2
(lp530
g0
(g1
g2
(lp531
Vthinking
p532
atp533
Rp534
(dp535
g12
VVBG
p536
sbatp537
Rp538
(dp539
g12
VVP
p540
sbatp541
Rp542
(dp543
g12
VVP
p544
sbag0
(g1
g2
(lp545
V.
p546
atp547
Rp548
(dp549
g12
V.
p550
sbatp551
Rp552
(dp553
g12
VS
p554
sbatp555
Rp556
(dp557
g12
S'id: 2'
p558
sbag0
(g1
g2
(lp559
g0
(g1
g2
(lp560
g0
(g1
g2
(lp561
g0
(g1
g2
(lp562
g0
(g1
g2
(lp563
VYou
p564
atp565
Rp566
(dp567
g12
VPRP
p568
sbatp569
Rp570
(dp571
g12
VNP
p572
sbag0
(g1
g2
(lp573
g0
(g1
g2
(lp574
Vcan
p575
atp576
Rp577
(dp578
g12
VMD
p579
sbag0
(g1
g2
(lp580
g0
(g1
g2
(lp581
Vbring
p582
atp583
Rp584
(dp585
g12
VVB
p586
sbag0
(g1
g2
(lp587
g0
(g1
g2
(lp588
Vyour
p589
atp590
Rp591
(dp592
g12
VPRP$
p593
sbag0
(g1
g2
(lp594
Vdog
p595
atp596
Rp597
(dp598
g12
VNN
p599
sbatp600
Rp601
(dp602
g12
VNP
p603
sbag0
(g1
g2
(lp604
g0
(g1
g2
(lp605
Von
p606
atp607
Rp608
(dp609
g12
VIN
p610
sbag0
(g1
g2
(lp611
g0
(g1
g2
(lp612
Vthis
p613
atp614
Rp615
(dp616
g12
VDT
p617
sbag0
(g1
g2
(lp618
Vlake
p619
atp620
Rp621
(dp622
g12
VNN
p623
sbatp624
Rp625
(dp626
g12
VNP
p627
sbatp628
Rp629
(dp630
g12
VPP
p631
sbatp632
Rp633
(dp634
g12
VVP
p635
sbatp636
Rp637
(dp638
g12
VVP
p639
sbatp640
Rp641
(dp642
g12
VS
p643
sbag0
(g1
g2
(lp644
V,
p645
atp646
Rp647
(dp648
g12
V,
p649
sbag0
(g1
g2
(lp650
g0
(g1
g2
(lp651
Vyou
p652
atp653
Rp654
(dp655
g12
VPRP
p656
sbatp657
Rp658
(dp659
g12
VNP
p660
sbag0
(g1
g2
(lp661
g0
(g1
g2
(lp662
Vcan
p663
atp664
Rp665
(dp666
g12
VMD
p667
sbag0
(g1
g2
(lp668
Vfish
p669
atp670
Rp671
(dp672
g12
VRB
p673
sbatp674
Rp675
(dp676
g12
VVP
p677
sbag0
(g1
g2
(lp678
g0
(g1
g2
(lp679
Von
p680
atp681
Rp682
(dp683
g12
VIN
p684
sbag0
(g1
g2
(lp685
g0
(g1
g2
(lp686
Vthis
p687
atp688
Rp689
(dp690
g12
VDT
p691
sbag0
(g1
g2
(lp692
Vlake
p693
atp694
Rp695
(dp696
g12
VNN
p697
sbatp698
Rp699
(dp700
g12
VNP
p701
sbatp702
Rp703
(dp704
g12
VPP
p705
sbag0
(g1
g2
(lp706
V.
p707
atp708
Rp709
(dp710
g12
V.
p711
sbatp712
Rp713
(dp714
g12
VS
p715
sbatp716
Rp717
(dp718
g12
S'id: 3'
p719
sbag0
(g1
g2
(lp720
g0
(g1
g2
(lp721
g0
(g1
g2
(lp722
g0
(g1
g2
(lp723
VYou
p724
atp725
Rp726
(dp727
g12
VPRP
p728
sbatp729
Rp730
(dp731
g12
VNP
p732
sbag0
(g1
g2
(lp733
g0
(g1
g2
(lp734
Vcan
p735
atp736
Rp737
(dp738
g12
VMD
p739
sbag0
(g1
g2
(lp740
g0
(g1
g2
(lp741
Vbe
p742
atp743
Rp744
(dp745
g12
VVB
p746
sbag0
(g1
g2
(lp747
g0
(g1
g2
(lp748
Vthe
p749
atp750
Rp751
(dp752
g12
VDT
p753
sbag0
(g1
g2
(lp754
Vgood
p755
atp756
Rp757
(dp758
g12
VJJ
p759
sbag0
(g1
g2
(lp760
Vmother
p761
atp762
Rp763
(dp764
g12
VNN
p765
sbatp766
Rp767
(dp768
g12
VNP
p769
sbag0
(g1
g2
(lp770
g0
(g1
g2
(lp771
V,
p772
atp773
Rp774
(dp775
g12
V,
p776
sbag0
(g1
g2
(lp777
g0
(g1
g2
(lp778
g0
(g1
g2
(lp779
Vpack
p780
atp781
Rp782
(dp783
g12
VVBP
p784
sbag0
(g1
g2
(lp785
g0
(g1
g2
(lp786
Vthe
p787
atp788
Rp789
(dp790
g12
VDT
p791
sbag0
(g1
g2
(lp792
Vpicnic
p793
atp794
Rp795
(dp796
g12
VNN
p797
sbatp798
Rp799
(dp800
g12
VNP
p801
sbag0
(g1
g2
(lp802
g0
(g1
g2
(lp803
Vwith
p804
atp805
Rp806
(dp807
g12
VIN
p808
sbag0
(g1
g2
(lp809
g0
(g1
g2
(lp810
g0
(g1
g2
(lp811
Vlots
p812
atp813
Rp814
(dp815
g12
VNNS
p816
sbatp817
Rp818
(dp819
g12
VNP
p820
sbag0
(g1
g2
(lp821
g0
(g1
g2
(lp822
Vof
p823
atp824
Rp825
(dp826
g12
VIN
p827
sbag0
(g1
g2
(lp828
g0
(g1
g2
(lp829
Vwine
p830
atp831
Rp832
(dp833
g12
VNN
p834
sbatp835
Rp836
(dp837
g12
VNP
p838
sbatp839
Rp840
(dp841
g12
VPP
p842
sbatp843
Rp844
(dp845
g12
VNP
p846
sbatp847
Rp848
(dp849
g12
VPP
p850
sbag0
(g1
g2
(lp851
V,
p852
atp853
Rp854
(dp855
g12
V,
p856
sbag0
(g1
g2
(lp857
g0
(g1
g2
(lp858
Vwhile
p859
atp860
Rp861
(dp862
g12
VIN
p863
sbag0
(g1
g2
(lp864
g0
(g1
g2
(lp865
g0
(g1
g2
(lp866
Vthe
p867
atp868
Rp869
(dp870
g12
VDT
p871
sbag0
(g1
g2
(lp872
Vhusband
p873
atp874
Rp875
(dp876
g12
VNN
p877
sbatp878
Rp879
(dp880
g12
VNP
p881
sbag0
(g1
g2
(lp882
g0
(g1
g2
(lp883
g0
(g1
g2
(lp884
Vsits
p885
atp886
Rp887
(dp888
g12
VVBZ
p889
sbag0
(g1
g2
(lp890
g0
(g1
g2
(lp891
Vthere
p892
atp893
Rp894
(dp895
g12
VEX
p896
sbatp897
Rp898
(dp899
g12
VNP
p900
sbatp901
Rp902
(dp903
g12
VVP
p904
sbag0
(g1
g2
(lp905
Vand
p906
atp907
Rp908
(dp909
g12
VCC
p910
sbag0
(g1
g2
(lp911
g0
(g1
g2
(lp912
Vreads
p913
atp914
Rp915
(dp916
g12
VVBZ
p917
sbag0
(g1
g2
(lp918
g0
(g1
g2
(lp919
Vhis
p920
atp921
Rp922
(dp923
g12
VPRP$
p924
sbag0
(g1
g2
(lp925
Vbook
p926
atp927
Rp928
(dp929
g12
VNN
p930
sbatp931
Rp932
(dp933
g12
VNP
p934
sbatp935
Rp936
(dp937
g12
VVP
p938
sbatp939
Rp940
(dp941
g12
VVP
p942
sbatp943
Rp944
(dp945
g12
VS
p946
sbatp947
Rp948
(dp949
g12
VSBAR
p950
sbatp951
Rp952
(dp953
g12
VVP
p954
sbatp955
Rp956
(dp957
g12
VS
p958
sbag0
(g1
g2
(lp959
V,
p960
atp961
Rp962
(dp963
g12
V,
p964
sbatp965
Rp966
(dp967
g12
VPRN
p968
sbag0
(g1
g2
(lp969
g0
(g1
g2
(lp970
Vlike
p971
atp972
Rp973
(dp974
g12
VIN
p975
sbag0
(g1
g2
(lp976
g0
(g1
g2
(lp977
g0
(g1
g2
(lp978
Vthey
p979
atp980
Rp981
(dp982
g12
VPRP
p983
sbatp984
Rp985
(dp986
g12
VNP
p987
sbag0
(g1
g2
(lp988
g0
(g1
g2
(lp989
Vall
p990
atp991
Rp992
(dp993
g12
VDT
p994
sbatp995
Rp996
(dp997
g12
VADVP
p998
sbag0
(g1
g2
(lp999
g0
(g1
g2
(lp1000
Vdo
p1001
atp1002
Rp1003
(dp1004
g12
VVBP
p1005
sbatp1006
Rp1007
(dp1008
g12
VVP
p1009
sbatp1010
Rp1011
(dp1012
g12
VS
p1013
sbatp1014
Rp1015
(dp1016
g12
VSBAR
p1017
sbatp1018
Rp1019
(dp1020
g12
VVP
p1021
sbatp1022
Rp1023
(dp1024
g12
VVP
p1025
sbag0
(g1
g2
(lp1026
V.
p1027
atp1028
Rp1029
(dp1030
g12
V.
p1031
sbatp1032
Rp1033
(dp1034
g12
VS
p1035
sbatp1036
Rp1037
(dp1038
g12
S'id: 4'
p1039
sbag0
(g1
g2
(lp1040
g0
(g1
g2
(lp1041
g0
(g1
g2
(lp1042
VAnd
p1043
atp1044
Rp1045
(dp1046
g12
VCC
p1047
sbag0
(g1
g2
(lp1048
g0
(g1
g2
(lp1049
Vyou
p1050
atp1051
Rp1052
(dp1053
g12
VPRP
p1054
sbatp1055
Rp1056
(dp1057
g12
VNP
p1058
sbag0
(g1
g2
(lp1059
g0
(g1
g2
(lp1060
Vhave
p1061
atp1062
Rp1063
(dp1064
g12
VVBP
p1065
sbag0
(g1
g2
(lp1066
g0
(g1
g2
(lp1067
g0
(g1
g2
(lp1068
Va
p1069
atp1070
Rp1071
(dp1072
g12
VDT
p1073
sbag0
(g1
g2
(lp1074
Vflag
p1075
atp1076
Rp1077
(dp1078
g12
VNN
p1079
sbatp1080
Rp1081
(dp1082
g12
VNP
p1083
sbag0
(g1
g2
(lp1084
g0
(g1
g2
(lp1085
Von
p1086
atp1087
Rp1088
(dp1089
g12
VIN
p1090
sbag0
(g1
g2
(lp1091
g0
(g1
g2
(lp1092
Vthe
p1093
atp1094
Rp1095
(dp1096
g12
VDT
p1097
sbag0
(g1
g2
(lp1098
Vflagpole
p1099
atp1100
Rp1101
(dp1102
g12
VNN
p1103
sbatp1104
Rp1105
(dp1106
g12
VNP
p1107
sbatp1108
Rp1109
(dp1110
g12
VPP
p1111
sbatp1112
Rp1113
(dp1114
g12
VNP
p1115
sbatp1116
Rp1117
(dp1118
g12
VVP
p1119
sbag0
(g1
g2
(lp1120
V.
p1121
atp1122
Rp1123
(dp1124
g12
V.
p1125
sbatp1126
Rp1127
(dp1128
g12
VS
p1129
sbatp1130
Rp1131
(dp1132
g12
S'id: 5'
p1133
sbag0
(g1
g2
(lp1134
g0
(g1
g2
(lp1135
g0
(g1
g2
(lp1136
g0
(g1
g2
(lp1137
VI
p1138
atp1139
Rp1140
(dp1141
g12
VPRP
p1142
sbatp1143
Rp1144
(dp1145
g12
VNP
p1146
sbag0
(g1
g2
(lp1147
g0
(g1
g2
(lp1148
Vlike
p1149
atp1150
Rp1151
(dp1152
g12
VVBP
p1153
sbag0
(g1
g2
(lp1154
g0
(g1
g2
(lp1155
g0
(g1
g2
(lp1156
Vthe
p1157
atp1158
Rp1159
(dp1160
g12
VDT
p1161
sbag0
(g1
g2
(lp1162
Vtrees
p1163
atp1164
Rp1165
(dp1166
g12
VNNS
p1167
sbatp1168
Rp1169
(dp1170
g12
VNP
p1171
sbag0
(g1
g2
(lp1172
g0
(g1
g2
(lp1173
V,
p1174
atp1175
Rp1176
(dp1177
g12
V,
p1178
sbag0
(g1
g2
(lp1179
Vand
p1180
atp1181
Rp1182
(dp1183
g12
VCC
p1184
sbag0
(g1
g2
(lp1185
g0
(g1
g2
(lp1186
Vbushes
p1187
atp1188
Rp1189
(dp1190
g12
VNNS
p1191
sbatp1192
Rp1193
(dp1194
g12
VNX
p1195
sbag0
(g1
g2
(lp1196
V,
p1197
atp1198
Rp1199
(dp1200
g12
V,
p1201
sbatp1202
Rp1203
(dp1204
g12
VPRN
p1205
sbag0
(g1
g2
(lp1206
Vand
p1207
atp1208
Rp1209
(dp1210
g12
VCC
p1211
sbag0
(g1
g2
(lp1212
g0
(g1
g2
(lp1213
Vwater
p1214
atp1215
Rp1216
(dp1217
g12
VNN
p1218
sbatp1219
Rp1220
(dp1221
g12
VNP
p1222
sbatp1223
Rp1224
(dp1225
g12
VNP
p1226
sbatp1227
Rp1228
(dp1229
g12
VVP
p1230
sbag0
(g1
g2
(lp1231
V.
p1232
atp1233
Rp1234
(dp1235
g12
V.
p1236
sbatp1237
Rp1238
(dp1239
g12
VS
p1240
sbatp1241
Rp1242
(dp1243
g12
S'id: 6'
p1244
sbag0
(g1
g2
(lp1245
g0
(g1
g2
(lp1246
g0
(g1
g2
(lp1247
g0
(g1
g2
(lp1248
VNo
p1249
atp1250
Rp1251
(dp1252
g12
VDT
p1253
sbag0
(g1
g2
(lp1254
Vbirds
p1255
atp1256
Rp1257
(dp1258
g12
VNNS
p1259
sbatp1260
Rp1261
(dp1262
g12
VNP
p1263
sbag0
(g1
g2
(lp1264
g0
(g1
g2
(lp1265
Vin
p1266
atp1267
Rp1268
(dp1269
g12
VIN
p1270
sbag0
(g1
g2
(lp1271
g0
(g1
g2
(lp1272
Vthis
p1273
atp1274
Rp1275
(dp1276
g12
VDT
p1277
sbag0
(g1
g2
(lp1278
Vone
p1279
atp1280
Rp1281
(dp1282
g12
VCD
p1283
sbatp1284
Rp1285
(dp1286
g12
VNP
p1287
sbatp1288
Rp1289
(dp1290
g12
VPP
p1291
sbag0
(g1
g2
(lp1292
V.
p1293
atp1294
Rp1295
(dp1296
g12
V.
p1297
sbatp1298
Rp1299
(dp1300
g12
VNP
p1301
sbatp1302
Rp1303
(dp1304
g12
S'id: 7'
p1305
sbag0
(g1
g2
(lp1306
g0
(g1
g2
(lp1307
g0
(g1
g2
(lp1308
g0
(g1
g2
(lp1309
g0
(g1
g2
(lp1310
VYeah
p1311
atp1312
Rp1313
(dp1314
g12
VUH
p1315
sbatp1316
Rp1317
(dp1318
g12
VINTJ
p1319
sbag0
(g1
g2
(lp1320
g0
(g1
g2
(lp1321
Vthat
p1322
atp1323
Rp1324
(dp1325
g12
VDT
p1326
sbatp1327
Rp1328
(dp1329
g12
VNP
p1330
sbag0
(g1
g2
(lp1331
g0
(g1
g2
(lp1332
V's
p1333
atp1334
Rp1335
(dp1336
g12
VVBZ
p1337
sbag0
(g1
g2
(lp1338
g0
(g1
g2
(lp1339
Va
p1340
atp1341
Rp1342
(dp1343
g12
VDT
p1344
sbag0
(g1
g2
(lp1345
Vsailboat
p1346
atp1347
Rp1348
(dp1349
g12
VNN
p1350
sbatp1351
Rp1352
(dp1353
g12
VNP
p1354
sbatp1355
Rp1356
(dp1357
g12
VVP
p1358
sbatp1359
Rp1360
(dp1361
g12
VS
p1362
sbag0
(g1
g2
(lp1363
V.
p1364
atp1365
Rp1366
(dp1367
g12
V.
p1368
sbatp1369
Rp1370
(dp1371
g12
VS
p1372
sbatp1373
Rp1374
(dp1375
g12
S'id: 8'
p1376
sbag0
(g1
g2
(lp1377
g0
(g1
g2
(lp1378
g0
(g1
g2
(lp1379
VAnd
p1380
atp1381
Rp1382
(dp1383
g12
VCC
p1384
sbag0
(g1
g2
(lp1385
g0
(g1
g2
(lp1386
Vmake
p1387
atp1388
Rp1389
(dp1390
g12
VVB
p1391
sbag0
(g1
g2
(lp1392
g0
(g1
g2
(lp1393
Vsand
p1394
atp1395
Rp1396
(dp1397
g12
VNN
p1398
sbag0
(g1
g2
(lp1399
Vcastles
p1400
atp1401
Rp1402
(dp1403
g12
VNNS
p1404
sbatp1405
Rp1406
(dp1407
g12
VNP
p1408
sbatp1409
Rp1410
(dp1411
g12
VVP
p1412
sbag0
(g1
g2
(lp1413
V.
p1414
atp1415
Rp1416
(dp1417
g12
V.
p1418
sbatp1419
Rp1420
(dp1421
g12
VS
p1422
sbatp1423
Rp1424
(dp1425
g12
S'id: 9'
p1426
sbag0
(g1
g2
(lp1427
g0
(g1
g2
(lp1428
g0
(g1
g2
(lp1429
g0
(g1
g2
(lp1430
g0
(g1
g2
(lp1431
VSit
p1432
atp1433
Rp1434
(dp1435
g12
VVB
p1436
sbag0
(g1
g2
(lp1437
g0
(g1
g2
(lp1438
Von
p1439
atp1440
Rp1441
(dp1442
g12
VIN
p1443
sbag0
(g1
g2
(lp1444
g0
(g1
g2
(lp1445
g0
(g1
g2
(lp1446
Vblankets
p1447
atp1448
Rp1449
(dp1450
g12
VNNS
p1451
sbatp1452
Rp1453
(dp1454
g12
VNP
p1455
sbag0
(g1
g2
(lp1456
V,
p1457
atp1458
Rp1459
(dp1460
g12
V,
p1461
sbag0
(g1
g2
(lp1462
g0
(g1
g2
(lp1463
Vchase/fly
p1464
atp1465
Rp1466
(dp1467
g12
VRB
p1468
sbatp1469
Rp1470
(dp1471
g12
VADVP
p1472
sbag0
(g1
g2
(lp1473
g0
(g1
g2
(lp1474
Va
p1475
atp1476
Rp1477
(dp1478
g12
VDT
p1479
sbag0
(g1
g2
(lp1480
Vkite
p1481
atp1482
Rp1483
(dp1484
g12
VNN
p1485
sbatp1486
Rp1487
(dp1488
g12
VNP
p1489
sbatp1490
Rp1491
(dp1492
g12
VNP
p1493
sbatp1494
Rp1495
(dp1496
g12
VPP
p1497
sbatp1498
Rp1499
(dp1500
g12
VVP
p1501
sbag0
(g1
g2
(lp1502
V,
p1503
atp1504
Rp1505
(dp1506
g12
V,
p1507
sbag0
(g1
g2
(lp1508
g0
(g1
g2
(lp1509
Vchase
p1510
atp1511
Rp1512
(dp1513
g12
VVB
p1514
sbag0
(g1
g2
(lp1515
g0
(g1
g2
(lp1516
g0
(g1
g2
(lp1517
Vthe
p1518
atp1519
Rp1520
(dp1521
g12
VDT
p1522
sbag0
(g1
g2
(lp1523
Vkid
p1524
atp1525
Rp1526
(dp1527
g12
VNN
p1528
sbatp1529
Rp1530
(dp1531
g12
VNP
p1532
sbag0
(g1
g2
(lp1533
g0
(g1
g2
(lp1534
Vflying
p1535
atp1536
Rp1537
(dp1538
g12
VVBG
p1539
sbag0
(g1
g2
(lp1540
g0
(g1
g2
(lp1541
Va
p1542
atp1543
Rp1544
(dp1545
g12
VDT
p1546
sbag0
(g1
g2
(lp1547
Vkite
p1548
atp1549
Rp1550
(dp1551
g12
VNN
p1552
sbatp1553
Rp1554
(dp1555
g12
VNP
p1556
sbatp1557
Rp1558
(dp1559
g12
VVP
p1560
sbatp1561
Rp1562
(dp1563
g12
VNP
p1564
sbatp1565
Rp1566
(dp1567
g12
VVP
p1568
sbatp1569
Rp1570
(dp1571
g12
VVP
p1572
sbag0
(g1
g2
(lp1573
V.
p1574
atp1575
Rp1576
(dp1577
g12
V.
p1578
sbatp1579
Rp1580
(dp1581
g12
VS
p1582
sbatp1583
Rp1584
(dp1585
g12
S'id: 10'
p1586
sbag0
(g1
g2
(lp1587
g0
(g1
g2
(lp1588
g0
(g1
g2
(lp1589
g0
(g1
g2
(lp1590
VListen
p1591
atp1592
Rp1593
(dp1594
g12
VVB
p1595
sbag0
(g1
g2
(lp1596
g0
(g1
g2
(lp1597
Vto
p1598
atp1599
Rp1600
(dp1601
g12
VTO
p1602
sbag0
(g1
g2
(lp1603
g0
(g1
g2
(lp1604
Vsome
p1605
atp1606
Rp1607
(dp1608
g12
VDT
p1609
sbag0
(g1
g2
(lp1610
Vmusic
p1611
atp1612
Rp1613
(dp1614
g12
VNN
p1615
sbatp1616
Rp1617
(dp1618
g12
VNP
p1619
sbatp1620
Rp1621
(dp1622
g12
VPP
p1623
sbatp1624
Rp1625
(dp1626
g12
VVP
p1627
sbag0
(g1
g2
(lp1628
V.
p1629
atp1630
Rp1631
(dp1632
g12
V.
p1633
sbatp1634
Rp1635
(dp1636
g12
VS
p1637
sbatp1638
Rp1639
(dp1640
g12
S'id: 11'
p1641
sbag0
(g1
g2
(lp1642
g0
(g1
g2
(lp1643
g0
(g1
g2
(lp1644
g0
(g1
g2
(lp1645
g0
(g1
g2
(lp1646
VLike
p1647
atp1648
Rp1649
(dp1650
g12
VIN
p1651
sbag0
(g1
g2
(lp1652
g0
(g1
g2
(lp1653
g0
(g1
g2
(lp1654
VI
p1655
atp1656
Rp1657
(dp1658
g12
VPRP
p1659
sbatp1660
Rp1661
(dp1662
g12
VNP
p1663
sbag0
(g1
g2
(lp1664
g0
(g1
g2
(lp1665
Vsaid
p1666
atp1667
Rp1668
(dp1669
g12
VVBD
p1670
sbag0
(g1
g2
(lp1671
V,
p1672
atp1673
Rp1674
(dp1675
g12
V,
p1676
sbag0
(g1
g2
(lp1677
Vread
p1678
atp1679
Rp1680
(dp1681
g12
VVBD
p1682
sbag0
(g1
g2
(lp1683
g0
(g1
g2
(lp1684
Va
p1685
atp1686
Rp1687
(dp1688
g12
VDT
p1689
sbag0
(g1
g2
(lp1690
Vbook
p1691
atp1692
Rp1693
(dp1694
g12
VNN
p1695
sbatp1696
Rp1697
(dp1698
g12
VNP
p1699
sbatp1700
Rp1701
(dp1702
g12
VVP
p1703
sbatp1704
Rp1705
(dp1706
g12
VS
p1707
sbatp1708
Rp1709
(dp1710
g12
VPP
p1711
sbag0
(g1
g2
(lp1712
V,
p1713
atp1714
Rp1715
(dp1716
g12
V,
p1717
sbag0
(g1
g2
(lp1718
g0
(g1
g2
(lp1719
Vyou
p1720
atp1721
Rp1722
(dp1723
g12
VPRP
p1724
sbatp1725
Rp1726
(dp1727
g12
VNP
p1728
sbag0
(g1
g2
(lp1729
g0
(g1
g2
(lp1730
Vshould
p1731
atp1732
Rp1733
(dp1734
g12
VMD
p1735
sbag0
(g1
g2
(lp1736
g0
(g1
g2
(lp1737
Vread
p1738
atp1739
Rp1740
(dp1741
g12
VVB
p1742
sbag0
(g1
g2
(lp1743
g0
(g1
g2
(lp1744
g0
(g1
g2
(lp1745
Vlots
p1746
atp1747
Rp1748
(dp1749
g12
VNNS
p1750
sbag0
(g1
g2
(lp1751
Vand
p1752
atp1753
Rp1754
(dp1755
g12
VCC
p1756
sbag0
(g1
g2
(lp1757
Vlots
p1758
atp1759
Rp1760
(dp1761
g12
VNNS
p1762
sbatp1763
Rp1764
(dp1765
g12
VNP
p1766
sbag0
(g1
g2
(lp1767
g0
(g1
g2
(lp1768
Vof
p1769
atp1770
Rp1771
(dp1772
g12
VIN
p1773
sbag0
(g1
g2
(lp1774
g0
(g1
g2
(lp1775
Vbooks
p1776
atp1777
Rp1778
(dp1779
g12
VNNS
p1780
sbatp1781
Rp1782
(dp1783
g12
VNP
p1784
sbatp1785
Rp1786
(dp1787
g12
VPP
p1788
sbatp1789
Rp1790
(dp1791
g12
VNP
p1792
sbatp1793
Rp1794
(dp1795
g12
VVP
p1796
sbatp1797
Rp1798
(dp1799
g12
VVP
p1800
sbatp1801
Rp1802
(dp1803
g12
VS
p1804
sbag0
(g1
g2
(lp1805
V,
p1806
atp1807
Rp1808
(dp1809
g12
V,
p1810
sbag0
(g1
g2
(lp1811
g0
(g1
g2
(lp1812
Vbooks
p1813
atp1814
Rp1815
(dp1816
g12
VNNS
p1817
sbatp1818
Rp1819
(dp1820
g12
VNP
p1821
sbag0
(g1
g2
(lp1822
g0
(g1
g2
(lp1823
Vare
p1824
atp1825
Rp1826
(dp1827
g12
VVBP
p1828
sbag0
(g1
g2
(lp1829
g0
(g1
g2
(lp1830
Vgood
p1831
atp1832
Rp1833
(dp1834
g12
VJJ
p1835
sbatp1836
Rp1837
(dp1838
g12
VADJP
p1839
sbatp1840
Rp1841
(dp1842
g12
VVP
p1843
sbag0
(g1
g2
(lp1844
V.
p1845
atp1846
Rp1847
(dp1848
g12
V.
p1849
sbatp1850
Rp1851
(dp1852
g12
VS
p1853
sbatp1854
Rp1855
(dp1856
g12
S'id: 12'
p1857
sbag0
(g1
g2
(lp1858
g0
(g1
g2
(lp1859
g0
(g1
g2
(lp1860
g0
(g1
g2
(lp1861
g0
(g1
g2
(lp1862
VI
p1863
atp1864
Rp1865
(dp1866
g12
VPRP
p1867
sbatp1868
Rp1869
(dp1870
g12
VNP
p1871
sbag0
(g1
g2
(lp1872
g0
(g1
g2
(lp1873
Vstill
p1874
atp1875
Rp1876
(dp1877
g12
VRB
p1878
sbatp1879
Rp1880
(dp1881
g12
VADVP
p1882
sbag0
(g1
g2
(lp1883
g0
(g1
g2
(lp1884
Vthink
p1885
atp1886
Rp1887
(dp1888
g12
VVBP
p1889
sbag0
(g1
g2
(lp1890
g0
(g1
g2
(lp1891
g0
(g1
g2
(lp1892
g0
(g1
g2
(lp1893
Vthey
p1894
atp1895
Rp1896
(dp1897
g12
VPRP
p1898
sbatp1899
Rp1900
(dp1901
g12
VNP
p1902
sbag0
(g1
g2
(lp1903
g0
(g1
g2
(lp1904
V're
p1905
atp1906
Rp1907
(dp1908
g12
VVBP
p1909
sbag0
(g1
g2
(lp1910
g0
(g1
g2
(lp1911
Vin
p1912
atp1913
Rp1914
(dp1915
g12
VIN
p1916
sbag0
(g1
g2
(lp1917
g0
(g1
g2
(lp1918
VMaine
p1919
atp1920
Rp1921
(dp1922
g12
VNNP
p1923
sbatp1924
Rp1925
(dp1926
g12
VNP
p1927
sbatp1928
Rp1929
(dp1930
g12
VPP
p1931
sbatp1932
Rp1933
(dp1934
g12
VVP
p1935
sbatp1936
Rp1937
(dp1938
g12
VS
p1939
sbatp1940
Rp1941
(dp1942
g12
VSBAR
p1943
sbatp1944
Rp1945
(dp1946
g12
VVP
p1947
sbatp1948
Rp1949
(dp1950
g12
VS
p1951
sbag0
(g1
g2
(lp1952
V,
p1953
atp1954
Rp1955
(dp1956
g12
V,
p1957
sbag0
(g1
g2
(lp1958
g0
(g1
g2
(lp1959
Vthat
p1960
atp1961
Rp1962
(dp1963
g12
VDT
p1964
sbatp1965
Rp1966
(dp1967
g12
VNP
p1968
sbag0
(g1
g2
(lp1969
g0
(g1
g2
(lp1970
V's
p1971
atp1972
Rp1973
(dp1974
g12
VVBZ
p1975
sbag0
(g1
g2
(lp1976
g0
(g1
g2
(lp1977
g0
(g1
g2
(lp1978
Vwhere
p1979
atp1980
Rp1981
(dp1982
g12
VWRB
p1983
sbatp1984
Rp1985
(dp1986
g12
VWHADVP
p1987
sbag0
(g1
g2
(lp1988
g0
(g1
g2
(lp1989
g0
(g1
g2
(lp1990
VI
p1991
atp1992
Rp1993
(dp1994
g12
VPRP
p1995
sbatp1996
Rp1997
(dp1998
g12
VNP
p1999
sbag0
(g1
g2
(lp2000
g0
(g1
g2
(lp2001
V'd
p2002
atp2003
Rp2004
(dp2005
g12
VMD
p2006
sbag0
(g1
g2
(lp2007
g0
(g1
g2
(lp2008
Vchoose
p2009
atp2010
Rp2011
(dp2012
g12
VVB
p2013
sbag0
(g1
g2
(lp2014
g0
(g1
g2
(lp2015
g0
(g1
g2
(lp2016
Vto
p2017
atp2018
Rp2019
(dp2020
g12
VTO
p2021
sbag0
(g1
g2
(lp2022
g0
(g1
g2
(lp2023
Vgo
p2024
atp2025
Rp2026
(dp2027
g12
VVB
p2028
sbatp2029
Rp2030
(dp2031
g12
VVP
p2032
sbatp2033
Rp2034
(dp2035
g12
VVP
p2036
sbatp2037
Rp2038
(dp2039
g12
VS
p2040
sbatp2041
Rp2042
(dp2043
g12
VVP
p2044
sbatp2045
Rp2046
(dp2047
g12
VVP
p2048
sbatp2049
Rp2050
(dp2051
g12
VS
p2052
sbatp2053
Rp2054
(dp2055
g12
VSBAR
p2056
sbatp2057
Rp2058
(dp2059
g12
VVP
p2060
sbag0
(g1
g2
(lp2061
V.
p2062
atp2063
Rp2064
(dp2065
g12
V.
p2066
sbatp2067
Rp2068
(dp2069
g12
VS
p2070
sbatp2071
Rp2072
(dp2073
g12
S'id: 13'
p2074
sbag0
(g1
g2
(lp2075
g0
(g1
g2
(lp2076
g0
(g1
g2
(lp2077
g0
(g1
g2
(lp2078
VLittle
p2079
atp2080
Rp2081
(dp2082
g12
VJJ
p2083
sbag0
(g1
g2
(lp2084
Vgirl
p2085
atp2086
Rp2087
(dp2088
g12
VNN
p2089
sbatp2090
Rp2091
(dp2092
g12
VNP
p2093
sbag0
(g1
g2
(lp2094
V,
p2095
atp2096
Rp2097
(dp2098
g12
V,
p2099
sbag0
(g1
g2
(lp2100
g0
(g1
g2
(lp2101
g0
(g1
g2
(lp2102
Vbuild
p2103
atp2104
Rp2105
(dp2106
g12
VVB
p2107
sbag0
(g1
g2
(lp2108
g0
(g1
g2
(lp2109
Vyour
p2110
atp2111
Rp2112
(dp2113
g12
VPRP$
p2114
sbag0
(g1
g2
(lp2115
Vsand
p2116
atp2117
Rp2118
(dp2119
g12
VNN
p2120
sbag0
(g1
g2
(lp2121
Vcastle
p2122
atp2123
Rp2124
(dp2125
g12
VNN
p2126
sbatp2127
Rp2128
(dp2129
g12
VNP
p2130
sbatp2131
Rp2132
(dp2133
g12
VVP
p2134
sbatp2135
Rp2136
(dp2137
g12
VS
p2138
sbag0
(g1
g2
(lp2139
V,
p2140
atp2141
Rp2142
(dp2143
g12
V,
p2144
sbag0
(g1
g2
(lp2145
g0
(g1
g2
(lp2146
Vthen
p2147
atp2148
Rp2149
(dp2150
g12
VRB
p2151
sbatp2152
Rp2153
(dp2154
g12
VADVP
p2155
sbag0
(g1
g2
(lp2156
g0
(g1
g2
(lp2157
Vthe
p2158
atp2159
Rp2160
(dp2161
g12
VDT
p2162
sbag0
(g1
g2
(lp2163
Vlittle
p2164
atp2165
Rp2166
(dp2167
g12
VJJ
p2168
sbag0
(g1
g2
(lp2169
Vboy
p2170
atp2171
Rp2172
(dp2173
g12
VNN
p2174
sbatp2175
Rp2176
(dp2177
g12
VNP
p2178
sbag0
(g1
g2
(lp2179
g0
(g1
g2
(lp2180
Vwill
p2181
atp2182
Rp2183
(dp2184
g12
VMD
p2185
sbag0
(g1
g2
(lp2186
g0
(g1
g2
(lp2187
Vrun
p2188
atp2189
Rp2190
(dp2191
g12
VVB
p2192
sbag0
(g1
g2
(lp2193
g0
(g1
g2
(lp2194
Vthrough
p2195
atp2196
Rp2197
(dp2198
g12
VIN
p2199
sbag0
(g1
g2
(lp2200
g0
(g1
g2
(lp2201
Vit
p2202
atp2203
Rp2204
(dp2205
g12
VPRP
p2206
sbatp2207
Rp2208
(dp2209
g12
VNP
p2210
sbatp2211
Rp2212
(dp2213
g12
VPP
p2214
sbatp2215
Rp2216
(dp2217
g12
VVP
p2218
sbag0
(g1
g2
(lp2219
V,
p2220
atp2221
Rp2222
(dp2223
g12
V,
p2224
sbag0
(g1
g2
(lp2225
g0
(g1
g2
(lp2226
Vwith
p2227
atp2228
Rp2229
(dp2230
g12
VIN
p2231
sbag0
(g1
g2
(lp2232
g0
(g1
g2
(lp2233
g0
(g1
g2
(lp2234
Vthe
p2235
atp2236
Rp2237
(dp2238
g12
VDT
p2239
sbag0
(g1
g2
(lp2240
Vdog
p2241
atp2242
Rp2243
(dp2244
g12
VNN
p2245
sbatp2246
Rp2247
(dp2248
g12
VNP
p2249
sbag0
(g1
g2
(lp2250
Vand
p2251
atp2252
Rp2253
(dp2254
g12
VCC
p2255
sbag0
(g1
g2
(lp2256
g0
(g1
g2
(lp2257
g0
(g1
g2
(lp2258
Vthe
p2259
atp2260
Rp2261
(dp2262
g12
VDT
p2263
sbag0
(g1
g2
(lp2264
Vkite
p2265
atp2266
Rp2267
(dp2268
g12
VNN
p2269
sbatp2270
Rp2271
(dp2272
g12
VNP
p2273
sbag0
(g1
g2
(lp2274
V,
p2275
atp2276
Rp2277
(dp2278
g12
V,
p2279
sbag0
(g1
g2
(lp2280
g0
(g1
g2
(lp2281
g0
(g1
g2
(lp2282
Vwhich
p2283
atp2284
Rp2285
(dp2286
g12
VWDT
p2287
sbatp2288
Rp2289
(dp2290
g12
VWHNP
p2291
sbag0
(g1
g2
(lp2292
g0
(g1
g2
(lp2293
g0
(g1
g2
(lp2294
Vprobably
p2295
atp2296
Rp2297
(dp2298
g12
VRB
p2299
sbatp2300
Rp2301
(dp2302
g12
VADVP
p2303
sbag0
(g1
g2
(lp2304
g0
(g1
g2
(lp2305
Vmight
p2306
atp2307
Rp2308
(dp2309
g12
VMD
p2310
sbag0
(g1
g2
(lp2311
g0
(g1
g2
(lp2312
Vget
p2313
atp2314
Rp2315
(dp2316
g12
VVB
p2317
sbag0
(g1
g2
(lp2318
g0
(g1
g2
(lp2319
Vcaught
p2320
atp2321
Rp2322
(dp2323
g12
VVBN
p2324
sbag0
(g1
g2
(lp2325
g0
(g1
g2
(lp2326
Vin
p2327
atp2328
Rp2329
(dp2330
g12
VIN
p2331
sbag0
(g1
g2
(lp2332
g0
(g1
g2
(lp2333
Vthe
p2334
atp2335
Rp2336
(dp2337
g12
VDT
p2338
sbag0
(g1
g2
(lp2339
Vtree
p2340
atp2341
Rp2342
(dp2343
g12
VNN
p2344
sbatp2345
Rp2346
(dp2347
g12
VNP
p2348
sbatp2349
Rp2350
(dp2351
g12
VPP
p2352
sbatp2353
Rp2354
(dp2355
g12
VVP
p2356
sbatp2357
Rp2358
(dp2359
g12
VVP
p2360
sbatp2361
Rp2362
(dp2363
g12
VVP
p2364
sbatp2365
Rp2366
(dp2367
g12
VS
p2368
sbatp2369
Rp2370
(dp2371
g12
VSBAR
p2372
sbatp2373
Rp2374
(dp2375
g12
VNP
p2376
sbatp2377
Rp2378
(dp2379
g12
VNP
p2380
sbatp2381
Rp2382
(dp2383
g12
VPP
p2384
sbag0
(g1
g2
(lp2385
V,
p2386
atp2387
Rp2388
(dp2389
g12
V,
p2390
sbag0
(g1
g2
(lp2391
g0
(g1
g2
(lp2392
Vcause
p2393
atp2394
Rp2395
(dp2396
g12
VVB
p2397
sbag0
(g1
g2
(lp2398
g0
(g1
g2
(lp2399
g0
(g1
g2
(lp2400
Vkites
p2401
atp2402
Rp2403
(dp2404
g12
VNNS
p2405
sbatp2406
Rp2407
(dp2408
g12
VNP
p2409
sbag0
(g1
g2
(lp2410
g0
(g1
g2
(lp2411
Vget
p2412
atp2413
Rp2414
(dp2415
g12
VVB
p2416
sbag0
(g1
g2
(lp2417
g0
(g1
g2
(lp2418
Vcaught
p2419
atp2420
Rp2421
(dp2422
g12
VVBN
p2423
sbag0
(g1
g2
(lp2424
g0
(g1
g2
(lp2425
Vin
p2426
atp2427
Rp2428
(dp2429
g12
VIN
p2430
sbag0
(g1
g2
(lp2431
g0
(g1
g2
(lp2432
Vtrees
p2433
atp2434
Rp2435
(dp2436
g12
VNNS
p2437
sbatp2438
Rp2439
(dp2440
g12
VNP
p2441
sbatp2442
Rp2443
(dp2444
g12
VPP
p2445
sbatp2446
Rp2447
(dp2448
g12
VVP
p2449
sbatp2450
Rp2451
(dp2452
g12
VVP
p2453
sbatp2454
Rp2455
(dp2456
g12
VS
p2457
sbatp2458
Rp2459
(dp2460
g12
VVP
p2461
sbatp2462
Rp2463
(dp2464
g12
VVP
p2465
sbag0
(g1
g2
(lp2466
V.
p2467
atp2468
Rp2469
(dp2470
g12
V.
p2471
sbatp2472
Rp2473
(dp2474
g12
VS
p2475
sbatp2476
Rp2477
(dp2478
g12
S'id: 14'
p2479
sbag0
(g1
g2
(lp2480
g0
(g1
g2
(lp2481
g0
(g1
g2
(lp2482
VAnd
p2483
atp2484
Rp2485
(dp2486
g12
VCC
p2487
sbag0
(g1
g2
(lp2488
g0
(g1
g2
(lp2489
Vthen
p2490
atp2491
Rp2492
(dp2493
g12
VRB
p2494
sbatp2495
Rp2496
(dp2497
g12
VADVP
p2498
sbag0
(g1
g2
(lp2499
g0
(g1
g2
(lp2500
Vthe
p2501
atp2502
Rp2503
(dp2504
g12
VDT
p2505
sbag0
(g1
g2
(lp2506
Vdad
p2507
atp2508
Rp2509
(dp2510
g12
VNN
p2511
sbatp2512
Rp2513
(dp2514
g12
VNP
p2515
sbag0
(g1
g2
(lp2516
g0
(g1
g2
(lp2517
Vcan
p2518
atp2519
Rp2520
(dp2521
g12
VMD
p2522
sbag0
(g1
g2
(lp2523
g0
(g1
g2
(lp2524
g0
(g1
g2
(lp2525
Vclimb
p2526
atp2527
Rp2528
(dp2529
g12
VVB
p2530
sbag0
(g1
g2
(lp2531
g0
(g1
g2
(lp2532
Vup
p2533
atp2534
Rp2535
(dp2536
g12
VRP
p2537
sbatp2538
Rp2539
(dp2540
g12
VPRT
p2541
sbag0
(g1
g2
(lp2542
g0
(g1
g2
(lp2543
Vthe
p2544
atp2545
Rp2546
(dp2547
g12
VDT
p2548
sbag0
(g1
g2
(lp2549
Vtree
p2550
atp2551
Rp2552
(dp2553
g12
VNN
p2554
sbatp2555
Rp2556
(dp2557
g12
VNP
p2558
sbatp2559
Rp2560
(dp2561
g12
VVP
p2562
sbag0
(g1
g2
(lp2563
Vand
p2564
atp2565
Rp2566
(dp2567
g12
VCC
p2568
sbag0
(g1
g2
(lp2569
g0
(g1
g2
(lp2570
Vretrieve
p2571
atp2572
Rp2573
(dp2574
g12
VVB
p2575
sbag0
(g1
g2
(lp2576
g0
(g1
g2
(lp2577
Vthe
p2578
atp2579
Rp2580
(dp2581
g12
VDT
p2582
sbag0
(g1
g2
(lp2583
Vkite
p2584
atp2585
Rp2586
(dp2587
g12
VNN
p2588
sbatp2589
Rp2590
(dp2591
g12
VNP
p2592
sbatp2593
Rp2594
(dp2595
g12
VVP
p2596
sbatp2597
Rp2598
(dp2599
g12
VVP
p2600
sbatp2601
Rp2602
(dp2603
g12
VVP
p2604
sbag0
(g1
g2
(lp2605
V.
p2606
atp2607
Rp2608
(dp2609
g12
V.
p2610
sbatp2611
Rp2612
(dp2613
g12
VS
p2614
sbatp2615
Rp2616
(dp2617
g12
S'id: 15'
p2618
sbag0
(g1
g2
(lp2619
g0
(g1
g2
(lp2620
g0
(g1
g2
(lp2621
VAnd
p2622
atp2623
Rp2624
(dp2625
g12
VCC
p2626
sbag0
(g1
g2
(lp2627
g0
(g1
g2
(lp2628
Vdefinitely
p2629
atp2630
Rp2631
(dp2632
g12
VRB
p2633
sbatp2634
Rp2635
(dp2636
g12
VADVP
p2637
sbag0
(g1
g2
(lp2638
g0
(g1
g2
(lp2639
Vnot
p2640
atp2641
Rp2642
(dp2643
g12
VRB
p2644
sbag0
(g1
g2
(lp2645
g0
(g1
g2
(lp2646
g0
(g1
g2
(lp2647
g0
(g1
g2
(lp2648
Vfall
p2649
atp2650
Rp2651
(dp2652
g12
VVB
p2653
sbag0
(g1
g2
(lp2654
g0
(g1
g2
(lp2655
Vout
p2656
atp2657
Rp2658
(dp2659
g12
VRP
p2660
sbatp2661
Rp2662
(dp2663
g12
VPRT
p2664
sbatp2665
Rp2666
(dp2667
g12
VVP
p2668
sbatp2669
Rp2670
(dp2671
g12
VS
p2672
sbag0
(g1
g2
(lp2673
V,
p2674
atp2675
Rp2676
(dp2677
g12
V,
p2678
sbag0
(g1
g2
(lp2679
g0
(g1
g2
(lp2680
Vbecause
p2681
atp2682
Rp2683
(dp2684
g12
VIN
p2685
sbag0
(g1
g2
(lp2686
g0
(g1
g2
(lp2687
g0
(g1
g2
(lp2688
Vthen
p2689
atp2690
Rp2691
(dp2692
g12
VRB
p2693
sbatp2694
Rp2695
(dp2696
g12
VADVP
p2697
sbatp2698
Rp2699
(dp2700
g12
VFRAG
p2701
sbatp2702
Rp2703
(dp2704
g12
VSBAR
p2705
sbag0
(g1
g2
(lp2706
V,
p2707
atp2708
Rp2709
(dp2710
g12
V,
p2711
sbag0
(g1
g2
(lp2712
g0
(g1
g2
(lp2713
Vwe
p2714
atp2715
Rp2716
(dp2717
g12
VPRP
p2718
sbatp2719
Rp2720
(dp2721
g12
VNP
p2722
sbag0
(g1
g2
(lp2723
g0
(g1
g2
(lp2724
g0
(g1
g2
(lp2725
Vall
p2726
atp2727
Rp2728
(dp2729
g12
VDT
p2730
sbatp2731
Rp2732
(dp2733
g12
VADVP
p2734
sbag0
(g1
g2
(lp2735
Vknow
p2736
atp2737
Rp2738
(dp2739
g12
VVBP
p2740
sbag0
(g1
g2
(lp2741
g0
(g1
g2
(lp2742
g0
(g1
g2
(lp2743
Vwhat
p2744
atp2745
Rp2746
(dp2747
g12
VWP
p2748
sbatp2749
Rp2750
(dp2751
g12
VWHNP
p2752
sbag0
(g1
g2
(lp2753
g0
(g1
g2
(lp2754
g0
(g1
g2
(lp2755
Vhappens
p2756
atp2757
Rp2758
(dp2759
g12
VVBZ
p2760
sbag0
(g1
g2
(lp2761
g0
(g1
g2
(lp2762
g0
(g1
g2
(lp2763
Vwhen
p2764
atp2765
Rp2766
(dp2767
g12
VWRB
p2768
sbatp2769
Rp2770
(dp2771
g12
VWHADVP
p2772
sbag0
(g1
g2
(lp2773
g0
(g1
g2
(lp2774
g0
(g1
g2
(lp2775
Vhe
p2776
atp2777
Rp2778
(dp2779
g12
VPRP
p2780
sbatp2781
Rp2782
(dp2783
g12
VNP
p2784
sbag0
(g1
g2
(lp2785
g0
(g1
g2
(lp2786
Vfalls
p2787
atp2788
Rp2789
(dp2790
g12
VVBZ
p2791
sbag0
(g1
g2
(lp2792
g0
(g1
g2
(lp2793
Vout
p2794
atp2795
Rp2796
(dp2797
g12
VIN
p2798
sbatp2799
Rp2800
(dp2801
g12
VPRT
p2802
sbag0
(g1
g2
(lp2803
g0
(g1
g2
(lp2804
Vof
p2805
atp2806
Rp2807
(dp2808
g12
VIN
p2809
sbag0
(g1
g2
(lp2810
g0
(g1
g2
(lp2811
Vthe
p2812
atp2813
Rp2814
(dp2815
g12
VDT
p2816
sbag0
(g1
g2
(lp2817
Vtree
p2818
atp2819
Rp2820
(dp2821
g12
VNN
p2822
sbatp2823
Rp2824
(dp2825
g12
VNP
p2826
sbatp2827
Rp2828
(dp2829
g12
VPP
p2830
sbatp2831
Rp2832
(dp2833
g12
VVP
p2834
sbatp2835
Rp2836
(dp2837
g12
VS
p2838
sbatp2839
Rp2840
(dp2841
g12
VSBAR
p2842
sbatp2843
Rp2844
(dp2845
g12
VVP
p2846
sbatp2847
Rp2848
(dp2849
g12
VS
p2850
sbatp2851
Rp2852
(dp2853
g12
VSBAR
p2854
sbatp2855
Rp2856
(dp2857
g12
VVP
p2858
sbatp2859
Rp2860
(dp2861
g12
VS
p2862
sbatp2863
Rp2864
(dp2865
g12
VSBAR
p2866
sbag0
(g1
g2
(lp2867
V,
p2868
atp2869
Rp2870
(dp2871
g12
V,
p2872
sbag0
(g1
g2
(lp2873
g0
(g1
g2
(lp2874
Vthat
p2875
atp2876
Rp2877
(dp2878
g12
VDT
p2879
sbatp2880
Rp2881
(dp2882
g12
VNP
p2883
sbag0
(g1
g2
(lp2884
g0
(g1
g2
(lp2885
V's
p2886
atp2887
Rp2888
(dp2889
g12
VVBZ
p2890
sbag0
(g1
g2
(lp2891
g0
(g1
g2
(lp2892
Vbad
p2893
atp2894
Rp2895
(dp2896
g12
VJJ
p2897
sbatp2898
Rp2899
(dp2900
g12
VADJP
p2901
sbatp2902
Rp2903
(dp2904
g12
VVP
p2905
sbag0
(g1
g2
(lp2906
V.
p2907
atp2908
Rp2909
(dp2910
g12
V.
p2911
sbatp2912
Rp2913
(dp2914
g12
VS
p2915
sbatp2916
Rp2917
(dp2918
g12
S'id: 16'
p2919
sbag0
(g1
g2
(lp2920
g0
(g1
g2
(lp2921
g0
(g1
g2
(lp2922
g0
(g1
g2
(lp2923
VProbably
p2924
atp2925
Rp2926
(dp2927
g12
VRB
p2928
sbatp2929
Rp2930
(dp2931
g12
VADVP
p2932
sbag0
(g1
g2
(lp2933
g0
(g1
g2
(lp2934
Vwhite
p2935
atp2936
Rp2937
(dp2938
g12
VJJ
p2939
sbag0
(g1
g2
(lp2940
Vwine
p2941
atp2942
Rp2943
(dp2944
g12
VNN
p2945
sbatp2946
Rp2947
(dp2948
g12
VNP
p2949
sbag0
(g1
g2
(lp2950
V.
p2951
atp2952
Rp2953
(dp2954
g12
V.
p2955
sbatp2956
Rp2957
(dp2958
g12
VFRAG
p2959
sbatp2960
Rp2961
(dp2962
g12
S'id: 17'
p2963
sbag0
(g1
g2
(lp2964
g0
(g1
g2
(lp2965
g0
(g1
g2
(lp2966
g0
(g1
g2
(lp2967
VWhite
p2968
atp2969
Rp2970
(dp2971
g12
VNNP
p2972
sbag0
(g1
g2
(lp2973
Vwine
p2974
atp2975
Rp2976
(dp2977
g12
VNN
p2978
sbatp2979
Rp2980
(dp2981
g12
VNP
p2982
sbag0
(g1
g2
(lp2983
g0
(g1
g2
(lp2984
Vis
p2985
atp2986
Rp2987
(dp2988
g12
VVBZ
p2989
sbag0
(g1
g2
(lp2990
g0
(g1
g2
(lp2991
Vthe
p2992
atp2993
Rp2994
(dp2995
g12
VDT
p2996
sbag0
(g1
g2
(lp2997
Vbest
p2998
atp2999
Rp3000
(dp3001
g12
VJJS
p3002
sbatp3003
Rp3004
(dp3005
g12
VNP
p3006
sbatp3007
Rp3008
(dp3009
g12
VVP
p3010
sbag0
(g1
g2
(lp3011
V.
p3012
atp3013
Rp3014
(dp3015
g12
V.
p3016
sbatp3017
Rp3018
(dp3019
g12
VS
p3020
sbatp3021
Rp3022
(dp3023
g12
S'id: 18'
p3024
sbag0
(g1
g2
(lp3025
g0
(g1
g2
(lp3026
g0
(g1
g2
(lp3027
g0
(g1
g2
(lp3028
g0
(g1
g2
(lp3029
VMight
p3030
atp3031
Rp3032
(dp3033
g12
VNNP
p3034
sbatp3035
Rp3036
(dp3037
g12
VNP
p3038
sbag0
(g1
g2
(lp3039
g0
(g1
g2
(lp3040
g0
(g1
g2
(lp3041
Vbe
p3042
atp3043
Rp3044
(dp3045
g12
VVB
p3046
sbatp3047
Rp3048
(dp3049
g12
VVP
p3050
sbag0
(g1
g2
(lp3051
V,
p3052
atp3053
Rp3054
(dp3055
g12
V,
p3056
sbag0
(g1
g2
(lp3057
g0
(g1
g2
(lp3058
g0
(g1
g2
(lp3059
Vno
p3060
atp3061
Rp3062
(dp3063
g12
VDT
p3064
sbatp3065
Rp3066
(dp3067
g12
VNP
p3068
sbag0
(g1
g2
(lp3069
g0
(g1
g2
(lp3070
g0
(g1
g2
(lp3071
Vits
p3072
atp3073
Rp3074
(dp3075
g12
VPRP$
p3076
sbatp3077
Rp3078
(dp3079
g12
VNP
p3080
sbag0
(g1
g2
(lp3081
g0
(g1
g2
(lp3082
Vnot
p3083
atp3084
Rp3085
(dp3086
g12
VRB
p3087
sbag0
(g1
g2
(lp3088
g0
(g1
g2
(lp3089
Vchampagne
p3090
atp3091
Rp3092
(dp3093
g12
VNN
p3094
sbatp3095
Rp3096
(dp3097
g12
VNP
p3098
sbatp3099
Rp3100
(dp3101
g12
VPP
p3102
sbatp3103
Rp3104
(dp3105
g12
VVP
p3106
sbatp3107
Rp3108
(dp3109
g12
VNP
p3110
sbatp3111
Rp3112
(dp3113
g12
VVP
p3114
sbatp3115
Rp3116
(dp3117
g12
VS
p3118
sbag0
(g1
g2
(lp3119
V,
p3120
atp3121
Rp3122
(dp3123
g12
V,
p3124
sbag0
(g1
g2
(lp3125
Vbut
p3126
atp3127
Rp3128
(dp3129
g12
VCC
p3130
sbag0
(g1
g2
(lp3131
g0
(g1
g2
(lp3132
g0
(g1
g2
(lp3133
Vit
p3134
atp3135
Rp3136
(dp3137
g12
VPRP
p3138
sbatp3139
Rp3140
(dp3141
g12
VNP
p3142
sbag0
(g1
g2
(lp3143
g0
(g1
g2
(lp3144
Vcould
p3145
atp3146
Rp3147
(dp3148
g12
VMD
p3149
sbag0
(g1
g2
(lp3150
g0
(g1
g2
(lp3151
Vbe
p3152
atp3153
Rp3154
(dp3155
g12
VVB
p3156
sbag0
(g1
g2
(lp3157
g0
(g1
g2
(lp3158
Vchampagne
p3159
atp3160
Rp3161
(dp3162
g12
VNN
p3163
sbatp3164
Rp3165
(dp3166
g12
VNP
p3167
sbatp3168
Rp3169
(dp3170
g12
VVP
p3171
sbatp3172
Rp3173
(dp3174
g12
VVP
p3175
sbatp3176
Rp3177
(dp3178
g12
VS
p3179
sbag0
(g1
g2
(lp3180
V.
p3181
atp3182
Rp3183
(dp3184
g12
V.
p3185
sbatp3186
Rp3187
(dp3188
g12
VS
p3189
sbatp3190
Rp3191
(dp3192
g12
S'id: 19'
p3193
sbag0
(g1
g2
(lp3194
g0
(g1
g2
(lp3195
g0
(g1
g2
(lp3196
VAnd
p3197
atp3198
Rp3199
(dp3200
g12
VCC
p3201
sbag0
(g1
g2
(lp3202
g0
(g1
g2
(lp3203
Vthere
p3204
atp3205
Rp3206
(dp3207
g12
VEX
p3208
sbatp3209
Rp3210
(dp3211
g12
VNP
p3212
sbag0
(g1
g2
(lp3213
g0
(g1
g2
(lp3214
V's
p3215
atp3216
Rp3217
(dp3218
g12
VVBZ
p3219
sbag0
(g1
g2
(lp3220
g0
(g1
g2
(lp3221
Vprobably
p3222
atp3223
Rp3224
(dp3225
g12
VRB
p3226
sbatp3227
Rp3228
(dp3229
g12
VADVP
p3230
sbag0
(g1
g2
(lp3231
g0
(g1
g2
(lp3232
g0
(g1
g2
(lp3233
g0
(g1
g2
(lp3234
Vchicken
p3235
atp3236
Rp3237
(dp3238
g12
VNN
p3239
sbatp3240
Rp3241
(dp3242
g12
VNP
p3243
sbag0
(g1
g2
(lp3244
V,
p3245
atp3246
Rp3247
(dp3248
g12
V,
p3249
sbag0
(g1
g2
(lp3250
Vand
p3251
atp3252
Rp3253
(dp3254
g12
VCC
p3255
sbag0
(g1
g2
(lp3256
g0
(g1
g2
(lp3257
Vbiscuits
p3258
atp3259
Rp3260
(dp3261
g12
VNNS
p3262
sbatp3263
Rp3264
(dp3265
g12
VNP
p3266
sbatp3267
Rp3268
(dp3269
g12
VNP
p3270
sbag0
(g1
g2
(lp3271
V,
p3272
atp3273
Rp3274
(dp3275
g12
V,
p3276
sbag0
(g1
g2
(lp3277
Vand
p3278
atp3279
Rp3280
(dp3281
g12
VCC
p3282
sbag0
(g1
g2
(lp3283
g0
(g1
g2
(lp3284
g0
(g1
g2
(lp3285
Vpotato
p3286
atp3287
Rp3288
(dp3289
g12
VNN
p3290
sbag0
(g1
g2
(lp3291
Vsalad
p3292
atp3293
Rp3294
(dp3295
g12
VNN
p3296
sbatp3297
Rp3298
(dp3299
g12
VNP
p3300
sbag0
(g1
g2
(lp3301
g0
(g1
g2
(lp3302
Vinside
p3303
atp3304
Rp3305
(dp3306
g12
VIN
p3307
sbag0
(g1
g2
(lp3308
g0
(g1
g2
(lp3309
g0
(g1
g2
(lp3310
Vthe
p3311
atp3312
Rp3313
(dp3314
g12
VDT
p3315
sbag0
(g1
g2
(lp3316
Vbasket
p3317
atp3318
Rp3319
(dp3320
g12
VNN
p3321
sbatp3322
Rp3323
(dp3324
g12
VNP
p3325
sbag0
(g1
g2
(lp3326
g0
(g1
g2
(lp3327
Vwith
p3328
atp3329
Rp3330
(dp3331
g12
VIN
p3332
sbag0
(g1
g2
(lp3333
g0
(g1
g2
(lp3334
Vsome
p3335
atp3336
Rp3337
(dp3338
g12
VDT
p3339
sbag0
(g1
g2
(lp3340
Vplates
p3341
atp3342
Rp3343
(dp3344
g12
VNNS
p3345
sbatp3346
Rp3347
(dp3348
g12
VNP
p3349
sbatp3350
Rp3351
(dp3352
g12
VPP
p3353
sbatp3354
Rp3355
(dp3356
g12
VNP
p3357
sbatp3358
Rp3359
(dp3360
g12
VPP
p3361
sbatp3362
Rp3363
(dp3364
g12
VNP
p3365
sbatp3366
Rp3367
(dp3368
g12
VNP
p3369
sbatp3370
Rp3371
(dp3372
g12
VVP
p3373
sbag0
(g1
g2
(lp3374
V.
p3375
atp3376
Rp3377
(dp3378
g12
V.
p3379
sbatp3380
Rp3381
(dp3382
g12
VS
p3383
sbatp3384
Rp3385
(dp3386
g12
S'id: 20'
p3387
sbatp3388
Rp3389
(dp3390
g12
S'sentences'
p3391
sb.