ccopy_reg
_reconstructor
p0
(cnltk.tree
Tree
p1
c__builtin__
list
p2
(lp3
g0
(g1
g2
(lp4
g0
(g1
g2
(lp5
g0
(g1
g2
(lp6
g0
(g1
g2
(lp7
g0
(g1
g2
(lp8
Vok
p9
atp10
Rp11
(dp12
S'_label'
p13
VNN
p14
sbatp15
Rp16
(dp17
g13
VNP
p18
sbag0
(g1
g2
(lp19
V,
p20
atp21
Rp22
(dp23
g13
V,
p24
sbag0
(g1
g2
(lp25
g0
(g1
g2
(lp26
Vready
p27
atp28
Rp29
(dp30
g13
VJJ
p31
sbag0
(g1
g2
(lp32
V,
p33
atp34
Rp35
(dp36
g13
V,
p37
sbag0
(g1
g2
(lp38
Vready
p39
atp40
Rp41
(dp42
g13
VJJ
p43
sbatp44
Rp45
(dp46
g13
VADJP
p47
sbag0
(g1
g2
(lp48
V,
p49
atp50
Rp51
(dp52
g13
V,
p53
sbatp54
Rp55
(dp56
g13
VNP
p57
sbag0
(g1
g2
(lp58
g0
(g1
g2
(lp59
Vare
p60
atp61
Rp62
(dp63
g13
VVBP
p64
sbag0
(g1
g2
(lp65
g0
(g1
g2
(lp66
g0
(g1
g2
(lp67
Vyou
p68
atp69
Rp70
(dp71
g13
VPRP
p72
sbatp73
Rp74
(dp75
g13
VNP
p76
sbag0
(g1
g2
(lp77
Vready
p78
atp79
Rp80
(dp81
g13
VJJ
p82
sbatp83
Rp84
(dp85
g13
VADJP
p86
sbatp87
Rp88
(dp89
g13
VVP
p90
sbatp91
Rp92
(dp93
g13
VS
p94
sbatp95
Rp96
(dp97
g13
S'id: 0'
p98
sbatp99
Rp100
(dp101
g13
S'sentences'
p102
sb.