ccopy_reg
_reconstructor
p0
(cnltk.tree
Tree
p1
c__builtin__
list
p2
(lp3
g0
(g1
g2
(lp4
g0
(g1
g2
(lp5
g0
(g1
g2
(lp6
g0
(g1
g2
(lp7
VYea
p8
atp9
Rp10
(dp11
S'_label'
p12
VNNP
p13
sbatp14
Rp15
(dp16
g12
VNP
p17
sbag0
(g1
g2
(lp18
V.
p19
atp20
Rp21
(dp22
g12
V.
p23
sbatp24
Rp25
(dp26
g12
VFRAG
p27
sbatp28
Rp29
(dp30
g12
S'id: 0'
p31
sbag0
(g1
g2
(lp32
g0
(g1
g2
(lp33
g0
(g1
g2
(lp34
g0
(g1
g2
(lp35
Vokay
p36
atp37
Rp38
(dp39
g12
VJJ
p40
sbatp41
Rp42
(dp43
g12
VADJP
p44
sbag0
(g1
g2
(lp45
V.
p46
atp47
Rp48
(dp49
g12
V.
p50
sbatp51
Rp52
(dp53
g12
VFRAG
p54
sbatp55
Rp56
(dp57
g12
S'id: 1'
p58
sbag0
(g1
g2
(lp59
g0
(g1
g2
(lp60
g0
(g1
g2
(lp61
g0
(g1
g2
(lp62
g0
(g1
g2
(lp63
Vwife
p64
atp65
Rp66
(dp67
g12
VNN
p68
sbatp69
Rp70
(dp71
g12
VNP
p72
sbag0
(g1
g2
(lp73
g0
(g1
g2
(lp74
V,
p75
atp76
Rp77
(dp78
g12
V,
p79
sbag0
(g1
g2
(lp80
Vand
p81
atp82
Rp83
(dp84
g12
VCC
p85
sbag0
(g1
g2
(lp86
g0
(g1
g2
(lp87
g0
(g1
g2
(lp88
Vman
p89
atp90
Rp91
(dp92
g12
VNN
p93
sbatp94
Rp95
(dp96
g12
VNP
p97
sbag0
(g1
g2
(lp98
V,
p99
atp100
Rp101
(dp102
g12
V,
p103
sbag0
(g1
g2
(lp104
g0
(g1
g2
(lp105
Vshoes
p106
atp107
Rp108
(dp109
g12
VNNS
p110
sbatp111
Rp112
(dp113
g12
VNP
p114
sbatp115
Rp116
(dp117
g12
VNP
p118
sbag0
(g1
g2
(lp119
g0
(g1
g2
(lp120
Voff
p121
atp122
Rp123
(dp124
g12
VRB
p125
sbatp126
Rp127
(dp128
g12
VADVP
p129
sbag0
(g1
g2
(lp130
V,
p131
atp132
Rp133
(dp134
g12
V,
p135
sbatp136
Rp137
(dp138
g12
VPRN
p139
sbatp140
Rp141
(dp142
g12
VNP
p143
sbag0
(g1
g2
(lp144
g0
(g1
g2
(lp145
g0
(g1
g2
(lp146
g0
(g1
g2
(lp147
Vshoes
p148
atp149
Rp150
(dp151
g12
VNNS
p152
sbatp153
Rp154
(dp155
g12
VNP
p156
sbag0
(g1
g2
(lp157
V,
p158
atp159
Rp160
(dp161
g12
V,
p162
sbag0
(g1
g2
(lp163
Vand
p164
atp165
Rp166
(dp167
g12
VCC
p168
sbag0
(g1
g2
(lp169
g0
(g1
g2
(lp170
Vradio
p171
atp172
Rp173
(dp174
g12
VNN
p175
sbatp176
Rp177
(dp178
g12
VNP
p179
sbag0
(g1
g2
(lp180
V,
p181
atp182
Rp183
(dp184
g12
V,
p185
sbatp186
Rp187
(dp188
g12
VNP
p189
sbag0
(g1
g2
(lp190
Vand
p191
atp192
Rp193
(dp194
g12
VCC
p195
sbag0
(g1
g2
(lp196
g0
(g1
g2
(lp197
Vbottle
p198
atp199
Rp200
(dp201
g12
VNN
p202
sbatp203
Rp204
(dp205
g12
VNP
p206
sbatp207
Rp208
(dp209
g12
VNP
p210
sbag0
(g1
g2
(lp211
V.
p212
atp213
Rp214
(dp215
g12
V.
p216
sbatp217
Rp218
(dp219
g12
VNP
p220
sbatp221
Rp222
(dp223
g12
S'id: 2'
p224
sbag0
(g1
g2
(lp225
g0
(g1
g2
(lp226
g0
(g1
g2
(lp227
g0
(g1
g2
(lp228
g0
(g1
g2
(lp229
Vbottle
p230
atp231
Rp232
(dp233
g12
VNN
p234
sbag0
(g1
g2
(lp235
Vwine
p236
atp237
Rp238
(dp239
g12
VNN
p240
sbatp241
Rp242
(dp243
g12
VNP
p244
sbag0
(g1
g2
(lp245
V,
p246
atp247
Rp248
(dp249
g12
V,
p250
sbag0
(g1
g2
(lp251
g0
(g1
g2
(lp252
Vand
p253
atp254
Rp255
(dp256
g12
VCC
p257
sbatp258
Rp259
(dp260
g12
VADVP
p261
sbatp262
Rp263
(dp264
g12
VNP
p265
sbag0
(g1
g2
(lp266
V,
p267
atp268
Rp269
(dp270
g12
V,
p271
sbag0
(g1
g2
(lp272
g0
(g1
g2
(lp273
g0
(g1
g2
(lp274
Vdog
p275
atp276
Rp277
(dp278
g12
VNN
p279
sbatp280
Rp281
(dp282
g12
VNP
p283
sbag0
(g1
g2
(lp284
V,
p285
atp286
Rp287
(dp288
g12
V,
p289
sbag0
(g1
g2
(lp290
g0
(g1
g2
(lp291
Vcot
p292
atp293
Rp294
(dp295
g12
VNN
p296
sbatp297
Rp298
(dp299
g12
VNP
p300
sbatp301
Rp302
(dp303
g12
VNP
p304
sbag0
(g1
g2
(lp305
V.
p306
atp307
Rp308
(dp309
g12
V.
p310
sbatp311
Rp312
(dp313
g12
VNP
p314
sbatp315
Rp316
(dp317
g12
S'id: 3'
p318
sbag0
(g1
g2
(lp319
g0
(g1
g2
(lp320
g0
(g1
g2
(lp321
g0
(g1
g2
(lp322
g0
(g1
g2
(lp323
Vyouth
p324
atp325
Rp326
(dp327
g12
VNN
p328
sbatp329
Rp330
(dp331
g12
VNP
p332
sbag0
(g1
g2
(lp333
V,
p334
atp335
Rp336
(dp337
g12
V,
p338
sbag0
(g1
g2
(lp339
Vand
p340
atp341
Rp342
(dp343
g12
VCC
p344
sbag0
(g1
g2
(lp345
g0
(g1
g2
(lp346
Vdog
p347
atp348
Rp349
(dp350
g12
VNN
p351
sbag0
(g1
g2
(lp352
V,
p353
atp354
Rp355
(dp356
g12
V,
p357
sbag0
(g1
g2
(lp358
Vfly
p359
atp360
Rp361
(dp362
g12
VNN
p363
sbag0
(g1
g2
(lp364
V,
p365
atp366
Rp367
(dp368
g12
V,
p369
sbag0
(g1
g2
(lp370
Vand
p371
atp372
Rp373
(dp374
g12
VCC
p375
sbag0
(g1
g2
(lp376
Vkite
p377
atp378
Rp379
(dp380
g12
VNN
p381
sbatp382
Rp383
(dp384
g12
VNP
p385
sbatp386
Rp387
(dp388
g12
VNP
p389
sbag0
(g1
g2
(lp390
V.
p391
atp392
Rp393
(dp394
g12
V.
p395
sbatp396
Rp397
(dp398
g12
VNP
p399
sbatp400
Rp401
(dp402
g12
S'id: 4'
p403
sbag0
(g1
g2
(lp404
g0
(g1
g2
(lp405
g0
(g1
g2
(lp406
g0
(g1
g2
(lp407
g0
(g1
g2
(lp408
Vand
p409
atp410
Rp411
(dp412
g12
VCC
p413
sbag0
(g1
g2
(lp414
g0
(g1
g2
(lp415
g0
(g1
g2
(lp416
g0
(g1
g2
(lp417
Vsand
p418
atp419
Rp420
(dp421
g12
VNN
p422
sbag0
(g1
g2
(lp423
Vcastle
p424
atp425
Rp426
(dp427
g12
VNN
p428
sbatp429
Rp430
(dp431
g12
VNP
p432
sbag0
(g1
g2
(lp433
V,
p434
atp435
Rp436
(dp437
g12
V,
p438
sbag0
(g1
g2
(lp439
Vand
p440
atp441
Rp442
(dp443
g12
VCC
p444
sbag0
(g1
g2
(lp445
g0
(g1
g2
(lp446
Vgirl
p447
atp448
Rp449
(dp450
g12
VNN
p451
sbatp452
Rp453
(dp454
g12
VNP
p455
sbag0
(g1
g2
(lp456
V,
p457
atp458
Rp459
(dp460
g12
V,
p461
sbatp462
Rp463
(dp464
g12
VNP
p465
sbag0
(g1
g2
(lp466
Vand
p467
atp468
Rp469
(dp470
g12
VCC
p471
sbag0
(g1
g2
(lp472
g0
(g1
g2
(lp473
Vman
p474
atp475
Rp476
(dp477
g12
VNN
p478
sbatp479
Rp480
(dp481
g12
VNP
p482
sbatp483
Rp484
(dp485
g12
VNP
p486
sbatp487
Rp488
(dp489
g12
VNP
p490
sbatp491
Rp492
(dp493
g12
VVP
p494
sbag0
(g1
g2
(lp495
V.
p496
atp497
Rp498
(dp499
g12
V.
p500
sbatp501
Rp502
(dp503
g12
VS
p504
sbatp505
Rp506
(dp507
g12
S'id: 5'
p508
sbag0
(g1
g2
(lp509
g0
(g1
g2
(lp510
g0
(g1
g2
(lp511
g0
(g1
g2
(lp512
g0
(g1
g2
(lp513
Vswimming
p514
atp515
Rp516
(dp517
g12
VNN
p518
sbatp519
Rp520
(dp521
g12
VNP
p522
sbag0
(g1
g2
(lp523
V,
p524
atp525
Rp526
(dp527
g12
V,
p528
sbag0
(g1
g2
(lp529
g0
(g1
g2
(lp530
Vboat
p531
atp532
Rp533
(dp534
g12
VNN
p535
sbatp536
Rp537
(dp538
g12
VNP
p539
sbag0
(g1
g2
(lp540
V,
p541
atp542
Rp543
(dp544
g12
V,
p545
sbag0
(g1
g2
(lp546
g0
(g1
g2
(lp547
Vtwo
p548
atp549
Rp550
(dp551
g12
VCD
p552
sbag0
(g1
g2
(lp553
Vboats
p554
atp555
Rp556
(dp557
g12
VNNS
p558
sbatp559
Rp560
(dp561
g12
VNP
p562
sbag0
(g1
g2
(lp563
V,
p564
atp565
Rp566
(dp567
g12
V,
p568
sbag0
(g1
g2
(lp569
g0
(g1
g2
(lp570
Vtwo
p571
atp572
Rp573
(dp574
g12
VCD
p575
sbag0
(g1
g2
(lp576
Vman
p577
atp578
Rp579
(dp580
g12
VNN
p581
sbatp582
Rp583
(dp584
g12
VNP
p585
sbag0
(g1
g2
(lp586
V,
p587
atp588
Rp589
(dp590
g12
V,
p591
sbag0
(g1
g2
(lp592
g0
(g1
g2
(lp593
Vfour
p594
atp595
Rp596
(dp597
g12
VCD
p598
sbatp599
Rp600
(dp601
g12
VNP
p602
sbag0
(g1
g2
(lp603
V,
p604
atp605
Rp606
(dp607
g12
V,
p608
sbag0
(g1
g2
(lp609
g0
(g1
g2
(lp610
g0
(g1
g2
(lp611
Vfour
p612
atp613
Rp614
(dp615
g12
VCD
p616
sbatp617
Rp618
(dp619
g12
VNP
p620
sbag0
(g1
g2
(lp621
g0
(g1
g2
(lp622
Vhundred
p623
atp624
Rp625
(dp626
g12
VCD
p627
sbag0
(g1
g2
(lp628
Vseventy
p629
atp630
Rp631
(dp632
g12
VCD
p633
sbatp634
Rp635
(dp636
g12
VNP
p637
sbag0
(g1
g2
(lp638
V,
p639
atp640
Rp641
(dp642
g12
V,
p643
sbag0
(g1
g2
(lp644
g0
(g1
g2
(lp645
Vand
p646
atp647
Rp648
(dp649
g12
VCC
p650
sbatp651
Rp652
(dp653
g12
VADVP
p654
sbatp655
Rp656
(dp657
g12
VNP
p658
sbatp659
Rp660
(dp661
g12
VNP
p662
sbatp663
Rp664
(dp665
g12
VFRAG
p666
sbatp667
Rp668
(dp669
g12
S'id: 6'
p670
sbatp671
Rp672
(dp673
g12
S'sentences'
p674
sb.