ccopy_reg
_reconstructor
p0
(cnltk.tree
Tree
p1
c__builtin__
list
p2
(lp3
g0
(g1
g2
(lp4
g0
(g1
g2
(lp5
g0
(g1
g2
(lp6
g0
(g1
g2
(lp7
g0
(g1
g2
(lp8
(lp9
S'word: this, index: 2'
p10
aatp11
Rp12
(dp13
S'_label'
p14
Vdep
p15
sbatp16
Rp17
(dp18
g14
S'word: ok, index: 1'
p19
sbatp20
Rp21
(dp22
g14
Vnsubj
p23
sbag0
(g1
g2
(lp24
(lp25
S'word: is, index: 3'
p26
aatp27
Rp28
(dp29
g14
Vcop
p30
sbag0
(g1
g2
(lp31
(lp32
S'word: a, index: 4'
p33
aatp34
Rp35
(dp36
g14
Vdet
p37
sbag0
(g1
g2
(lp38
(lp39
S'word: circus, index: 5'
p40
aatp41
Rp42
(dp43
g14
Vnn
p44
sbag0
(g1
g2
(lp45
g0
(g1
g2
(lp46
g0
(g1
g2
(lp47
(lp48
S'word: there, index: 9'
p49
aatp50
Rp51
(dp52
g14
Vexpl
p53
sbag0
(g1
g2
(lp54
g0
(g1
g2
(lp55
g0
(g1
g2
(lp56
(lp57
S'word: a, index: 11'
p58
aatp59
Rp60
(dp61
g14
Vdet
p62
sbag0
(g1
g2
(lp63
g0
(g1
g2
(lp64
g0
(g1
g2
(lp65
g0
(g1
g2
(lp66
g0
(g1
g2
(lp67
(lp68
S'word: the, index: 14'
p69
aatp70
Rp71
(dp72
g14
Vdet
p73
sbag0
(g1
g2
(lp74
(lp75
S'word: tight, index: 15'
p76
aatp77
Rp78
(dp79
g14
Vamod
p80
sbatp81
Rp82
(dp83
g14
S'word: rope, index: 16'
p84
sbatp85
Rp86
(dp87
g14
Vdobj
p88
sbatp89
Rp90
(dp91
g14
S'word: walking, index: 13'
p92
sbatp93
Rp94
(dp95
g14
Vvmod
p96
sbatp97
Rp98
(dp99
g14
S'word: guy, index: 12'
p100
sbatp101
Rp102
(dp103
g14
Vnsubj
p104
sbatp105
Rp106
(dp107
g14
S'word: is, index: 10'
p108
sbatp109
Rp110
(dp111
g14
Vconj
p112
sbatp113
Rp114
(dp115
g14
S'word: picture, index: 6'
p116
sbatp117
Rp118
(dp119
g14
S'id: 0'
p120
sbag0
(g1
g2
(lp121
g0
(g1
g2
(lp122
g0
(g1
g2
(lp123
g0
(g1
g2
(lp124
g0
(g1
g2
(lp125
(lp126
S'word: the, index: 3'
p127
aatp128
Rp129
(dp130
g14
Vdet
p131
sbag0
(g1
g2
(lp132
(lp133
S'word: balance, index: 4'
p134
aatp135
Rp136
(dp137
g14
Vnn
p138
sbag0
(g1
g2
(lp139
(lp140
S'word: him, index: 7'
p141
aatp142
Rp143
(dp144
g14
Vprep
p145
sbatp146
Rp147
(dp148
g14
S'word: bar, index: 5'
p149
sbatp150
Rp151
(dp152
g14
Vdobj
p153
sbag0
(g1
g2
(lp154
(lp155
S'word: He, index: 1'
p156
aatp157
Rp158
(dp159
g14
Vnsubj
p160
sbatp161
Rp162
(dp163
g14
S'word: has, index: 2'
p164
sbatp165
Rp166
(dp167
g14
S'id: 1'
p168
sbag0
(g1
g2
(lp169
g0
(g1
g2
(lp170
g0
(g1
g2
(lp171
g0
(g1
g2
(lp172
g0
(g1
g2
(lp173
(lp174
S'word: six, index: 15'
p175
aatp176
Rp177
(dp178
g14
Vnum
p179
sbatp180
Rp181
(dp182
g14
S'word: people, index: 16'
p183
sbatp184
Rp185
(dp186
g14
Vnsubj
p187
sbag0
(g1
g2
(lp188
g0
(g1
g2
(lp189
g0
(g1
g2
(lp190
(lp191
S'word: There, index: 1'
p192
aatp193
Rp194
(dp195
g14
Vexpl
p196
sbag0
(g1
g2
(lp197
g0
(g1
g2
(lp198
g0
(g1
g2
(lp199
(lp200
S'word: two, index: 7'
p201
aatp202
Rp203
(dp204
g14
Vamod
p205
sbag0
(g1
g2
(lp206
(lp207
S'word: three, index: 9'
p208
aatp209
Rp210
(dp211
g14
Vamod
p212
sbag0
(g1
g2
(lp213
(lp214
S'word: four, index: 11'
p215
aatp216
Rp217
(dp218
g14
Vamod
p219
sbag0
(g1
g2
(lp220
(lp221
S'word: five, index: 13'
p222
aatp223
Rp224
(dp225
g14
Vamod
p226
sbag0
(g1
g2
(lp227
(lp228
S'word: one, index: 5'
p229
aatp230
Rp231
(dp232
g14
Vamod
p233
sbatp234
Rp235
(dp236
g14
S'word: people, index: 3'
p237
sbatp238
Rp239
(dp240
g14
Vnsubj
p241
sbatp242
Rp243
(dp244
g14
S'word: are, index: 2'
p245
sbatp246
Rp247
(dp248
g14
Vccomp
p249
sbag0
(g1
g2
(lp250
g0
(g1
g2
(lp251
g0
(g1
g2
(lp252
g0
(g1
g2
(lp253
g0
(g1
g2
(lp254
g0
(g1
g2
(lp255
g0
(g1
g2
(lp256
(lp257
S'word: him, index: 24'
p258
aatp259
Rp260
(dp261
g14
Vdobj
p262
sbatp263
Rp264
(dp265
g14
S'word: watching, index: 23'
p266
sbatp267
Rp268
(dp269
g14
Vvmod
p270
sbag0
(g1
g2
(lp271
(lp272
S'word: a, index: 21'
p273
aatp274
Rp275
(dp276
g14
Vdet
p277
sbatp278
Rp279
(dp280
g14
S'word: bench, index: 22'
p281
sbatp282
Rp283
(dp284
g14
Vprep
p285
sbatp286
Rp287
(dp288
g14
S'word: sitting, index: 19'
p289
sbatp290
Rp291
(dp292
g14
Vprepc
p293
sbatp294
Rp295
(dp296
g14
S'word: look, index: 17'
p297
sbatp298
Rp299
(dp300
g14
S'id: 2'
p301
sbag0
(g1
g2
(lp302
g0
(g1
g2
(lp303
g0
(g1
g2
(lp304
g0
(g1
g2
(lp305
g0
(g1
g2
(lp306
g0
(g1
g2
(lp307
g0
(g1
g2
(lp308
(lp309
S'word: a, index: 10'
p310
aatp311
Rp312
(dp313
g14
Vdet
p314
sbatp315
Rp316
(dp317
g14
S'word: lady, index: 11'
p318
sbatp319
Rp320
(dp321
g14
Vnsubj
p322
sbag0
(g1
g2
(lp323
(lp324
S'word: is, index: 12'
p325
aatp326
Rp327
(dp328
g14
Vaux
p329
sbag0
(g1
g2
(lp330
(lp331
S'word: bareback, index: 14'
p332
aatp333
Rp334
(dp335
g14
Vdobj
p336
sbag0
(g1
g2
(lp337
g0
(g1
g2
(lp338
g0
(g1
g2
(lp339
(lp340
S'word: the, index: 16'
p341
aatp342
Rp343
(dp344
g14
Vdet
p345
sbatp346
Rp347
(dp348
g14
S'word: horse, index: 17'
p349
sbatp350
Rp351
(dp352
g14
Vprep
p353
sbag0
(g1
g2
(lp354
g0
(g1
g2
(lp355
g0
(g1
g2
(lp356
g0
(g1
g2
(lp357
g0
(g1
g2
(lp358
(lp359
S'word: the, index: 25'
p360
aatp361
Rp362
(dp363
g14
Vdet
p364
sbag0
(g1
g2
(lp365
g0
(g1
g2
(lp366
g0
(g1
g2
(lp367
(lp368
S'word: the, index: 28'
p369
aatp370
Rp371
(dp372
g14
Vdet
p373
sbatp374
Rp375
(dp376
g14
S'word: ring, index: 29'
p377
sbatp378
Rp379
(dp380
g14
Vprep
p381
sbatp382
Rp383
(dp384
g14
S'word: circle, index: 26'
p385
sbatp386
Rp387
(dp388
g14
Vprep
p389
sbag0
(g1
g2
(lp390
(lp391
S'word: he, index: 20'
p392
aatp393
Rp394
(dp395
g14
Vnsubj
p396
sbag0
(g1
g2
(lp397
(lp398
S"word: 's, index: 21"
p399
aatp400
Rp401
(dp402
g14
Vaux
p403
sbag0
(g1
g2
(lp404
(lp405
S'word: around, index: 23'
p406
aatp407
Rp408
(dp409
g14
Vadvmod
p410
sbatp411
Rp412
(dp413
g14
S'word: going, index: 22'
p414
sbatp415
Rp416
(dp417
g14
Vconj
p418
sbatp419
Rp420
(dp421
g14
S'word: riding, index: 13'
p422
sbatp423
Rp424
(dp425
g14
Vconj
p426
sbag0
(g1
g2
(lp427
(lp428
S'word: There, index: 1'
p429
aatp430
Rp431
(dp432
g14
Vexpl
p433
sbag0
(g1
g2
(lp434
g0
(g1
g2
(lp435
g0
(g1
g2
(lp436
(lp437
S'word: a, index: 3'
p438
aatp439
Rp440
(dp441
g14
Vdet
p442
sbag0
(g1
g2
(lp443
g0
(g1
g2
(lp444
g0
(g1
g2
(lp445
(lp446
S'word: a, index: 6'
p447
aatp448
Rp449
(dp450
g14
Vdet
p451
sbatp452
Rp453
(dp454
g14
S'word: horse, index: 7'
p455
sbatp456
Rp457
(dp458
g14
Vprep
p459
sbatp460
Rp461
(dp462
g14
S'word: ring, index: 4'
p463
sbatp464
Rp465
(dp466
g14
Vnsubj
p467
sbag0
(g1
g2
(lp468
g412
atp469
Rp470
(dp471
g14
Vconj
p472
sbatp473
Rp474
(dp475
g14
S'word: is, index: 2'
p476
sbatp477
Rp478
(dp479
g14
S'id: 3'
p480
sbag0
(g1
g2
(lp481
g0
(g1
g2
(lp482
g0
(g1
g2
(lp483
g0
(g1
g2
(lp484
g0
(g1
g2
(lp485
g0
(g1
g2
(lp486
g0
(g1
g2
(lp487
(lp488
S'word: the, index: 11'
p489
aatp490
Rp491
(dp492
g14
Vdet
p493
sbatp494
Rp495
(dp496
g14
S'word: clown, index: 12'
p497
sbatp498
Rp499
(dp500
g14
Vnsubj
p501
sbag0
(g1
g2
(lp502
(lp503
S'word: is, index: 13'
p504
aatp505
Rp506
(dp507
g14
Vaux
p508
sbag0
(g1
g2
(lp509
g0
(g1
g2
(lp510
g0
(g1
g2
(lp511
(lp512
S'word: them, index: 17'
p513
aatp514
Rp515
(dp516
g14
Vprep
p517
sbag0
(g1
g2
(lp518
g0
(g1
g2
(lp519
g0
(g1
g2
(lp520
(lp521
S'word: that, index: 18'
p522
aatp523
Rp524
(dp525
g14
Vnsubj
p526
sbag0
(g1
g2
(lp527
g0
(g1
g2
(lp528
g0
(g1
g2
(lp529
(lp530
S'word: like, index: 20'
p531
aatp532
Rp533
(dp534
g14
Vmark
p535
sbag0
(g1
g2
(lp536
(lp537
S'word: it, index: 21'
p538
aatp539
Rp540
(dp541
g14
Vnsubj
p542
sbag0
(g1
g2
(lp543
(lp544
S'word: might, index: 22'
p545
aatp546
Rp547
(dp548
g14
Vaux
p549
sbag0
(g1
g2
(lp550
(lp551
S'word: be, index: 23'
p552
aatp553
Rp554
(dp555
g14
Vcop
p556
sbatp557
Rp558
(dp559
g14
S'word: paper, index: 24'
p560
sbatp561
Rp562
(dp563
g14
Vadvcl
p564
sbatp565
Rp566
(dp567
g14
S'word: looks, index: 19'
p568
sbatp569
Rp570
(dp571
g14
Vrcmod
p572
sbatp573
Rp574
(dp575
g14
S'word: something, index: 15'
p576
sbatp577
Rp578
(dp579
g14
Vdobj
p580
sbatp581
Rp582
(dp583
g14
S'word: throwing, index: 14'
p584
sbatp585
Rp586
(dp587
g14
Vconj
p588
sbag0
(g1
g2
(lp589
(lp590
S'word: there, index: 2'
p591
aatp592
Rp593
(dp594
g14
Vexpl
p595
sbag0
(g1
g2
(lp596
g0
(g1
g2
(lp597
g0
(g1
g2
(lp598
(lp599
S'word: some, index: 4'
p600
aatp601
Rp602
(dp603
g14
Vdet
p604
sbag0
(g1
g2
(lp605
g0
(g1
g2
(lp606
g0
(g1
g2
(lp607
g0
(g1
g2
(lp608
g0
(g1
g2
(lp609
(lp610
S'word: a, index: 7'
p611
aatp612
Rp613
(dp614
g14
Vdet
p615
sbatp616
Rp617
(dp618
g14
S'word: clown, index: 8'
p619
sbatp620
Rp621
(dp622
g14
Vdobj
p623
sbatp624
Rp625
(dp626
g14
S'word: watching, index: 6'
p627
sbatp628
Rp629
(dp630
g14
Vvmod
p631
sbatp632
Rp633
(dp634
g14
S'word: children, index: 5'
p635
sbatp636
Rp637
(dp638
g14
Vnsubj
p639
sbatp640
Rp641
(dp642
g14
S'word: are, index: 3'
p643
sbatp644
Rp645
(dp646
g14
S'id: 4'
p647
sbag0
(g1
g2
(lp648
g0
(g1
g2
(lp649
g0
(g1
g2
(lp650
g0
(g1
g2
(lp651
g0
(g1
g2
(lp652
(lp653
S'word: The, index: 1'
p654
aatp655
Rp656
(dp657
g14
Vdet
p658
sbag0
(g1
g2
(lp659
(lp660
S'word: little, index: 2'
p661
aatp662
Rp663
(dp664
g14
Vamod
p665
sbatp666
Rp667
(dp668
g14
S'word: girl, index: 3'
p669
sbatp670
Rp671
(dp672
g14
Vnsubj
p673
sbag0
(g1
g2
(lp674
(lp675
S'word: is, index: 4'
p676
aatp677
Rp678
(dp679
g14
Vaux
p680
sbag0
(g1
g2
(lp681
g0
(g1
g2
(lp682
g0
(g1
g2
(lp683
g0
(g1
g2
(lp684
g0
(g1
g2
(lp685
g0
(g1
g2
(lp686
g0
(g1
g2
(lp687
g0
(g1
g2
(lp688
g0
(g1
g2
(lp689
(lp690
S'word: it, index: 17'
p691
aatp692
Rp693
(dp694
g14
Vnsubj
p695
sbag0
(g1
g2
(lp696
(lp697
S"word: 's, index: 18"
p698
aatp699
Rp700
(dp701
g14
Vcop
p702
sbag0
(g1
g2
(lp703
(lp704
S'word: probably, index: 19'
p705
aatp706
Rp707
(dp708
g14
Vadvmod
p709
sbatp710
Rp711
(dp712
g14
S'word: water, index: 20'
p713
sbatp714
Rp715
(dp716
g14
Vccomp
p717
sbatp718
Rp719
(dp720
g14
S'word: thinking, index: 16'
p721
sbatp722
Rp723
(dp724
g14
Vdep
p725
sbatp726
Rp727
(dp728
g14
S'word: up, index: 15'
p729
sbatp730
Rp731
(dp732
g14
Vprep
p733
sbag0
(g1
g2
(lp734
g0
(g1
g2
(lp735
g0
(g1
g2
(lp736
(lp737
S'word: the, index: 8'
p738
aatp739
Rp740
(dp741
g14
Vdet
p742
sbag0
(g1
g2
(lp743
(lp744
S'word: little, index: 9'
p745
aatp746
Rp747
(dp748
g14
Vamod
p749
sbatp750
Rp751
(dp752
g14
S'word: boy, index: 10'
p753
sbatp754
Rp755
(dp756
g14
Vnsubj
p757
sbag0
(g1
g2
(lp758
(lp759
S'word: is, index: 11'
p760
aatp761
Rp762
(dp763
g14
Vaux
p764
sbag0
(g1
g2
(lp765
g0
(g1
g2
(lp766
g0
(g1
g2
(lp767
(lp768
S'word: his, index: 13'
p769
aatp770
Rp771
(dp772
g14
Vposs
p773
sbatp774
Rp775
(dp776
g14
S'word: hands, index: 14'
p777
sbatp778
Rp779
(dp780
g14
Vdobj
p781
sbatp782
Rp783
(dp784
g14
S'word: throwing, index: 12'
p785
sbatp786
Rp787
(dp788
g14
Vconj
p789
sbatp790
Rp791
(dp792
g14
S'word: smiling, index: 5'
p793
sbatp794
Rp795
(dp796
g14
S'id: 5'
p797
sbag0
(g1
g2
(lp798
g0
(g1
g2
(lp799
g0
(g1
g2
(lp800
g0
(g1
g2
(lp801
g0
(g1
g2
(lp802
g0
(g1
g2
(lp803
g0
(g1
g2
(lp804
(lp805
S'word: another, index: 5'
p806
aatp807
Rp808
(dp809
g14
Vdet
p810
sbatp811
Rp812
(dp813
g14
S'word: ring, index: 6'
p814
sbatp815
Rp816
(dp817
g14
Vappos
p818
sbatp819
Rp820
(dp821
g14
S'word: the, index: 3'
p822
sbatp823
Rp824
(dp825
g14
Vnsubj
p826
sbag0
(g1
g2
(lp827
(lp828
S'word: is, index: 7'
p829
aatp830
Rp831
(dp832
g14
Vcop
p833
sbag0
(g1
g2
(lp834
(lp835
S'word: the, index: 8'
p836
aatp837
Rp838
(dp839
g14
Vdet
p840
sbag0
(g1
g2
(lp841
g0
(g1
g2
(lp842
g0
(g1
g2
(lp843
g0
(g1
g2
(lp844
g0
(g1
g2
(lp845
(lp846
S'word: the, index: 11'
p847
aatp848
Rp849
(dp850
g14
Vdet
p851
sbag0
(g1
g2
(lp852
(lp853
S'word: taming, index: 13'
p854
aatp855
Rp856
(dp857
g14
Vvmod
p858
sbatp859
Rp860
(dp861
g14
S'word: lion, index: 12'
p862
sbatp863
Rp864
(dp865
g14
Vdobj
p866
sbatp867
Rp868
(dp869
g14
S'word: doing, index: 10'
p870
sbatp871
Rp872
(dp873
g14
Vvmod
p874
sbag0
(g1
g2
(lp875
(lp876
S'word: Inside, index: 1'
p877
aatp878
Rp879
(dp880
g14
Vprep
p881
sbag0
(g1
g2
(lp882
g0
(g1
g2
(lp883
g0
(g1
g2
(lp884
g0
(g1
g2
(lp885
g0
(g1
g2
(lp886
(lp887
S'word: the, index: 18'
p888
aatp889
Rp890
(dp891
g14
Vdet
p892
sbag0
(g1
g2
(lp893
g0
(g1
g2
(lp894
g0
(g1
g2
(lp895
(lp896
S'word: up, index: 21'
p897
aatp898
Rp899
(dp900
g14
Vprt
p901
sbag0
(g1
g2
(lp902
g0
(g1
g2
(lp903
g0
(g1
g2
(lp904
(lp905
S'word: possibly, index: 23'
p906
aatp907
Rp908
(dp909
g14
Vadvmod
p910
sbatp911
Rp912
(dp913
g14
S'word: waving, index: 24'
p914
sbatp915
Rp916
(dp917
g14
Vconj
p918
sbatp919
Rp920
(dp921
g14
S'word: sitting, index: 20'
p922
sbatp923
Rp924
(dp925
g14
Vdep
p926
sbag0
(g1
g2
(lp927
g912
atp928
Rp929
(dp930
g14
Vdep
p931
sbatp932
Rp933
(dp934
g14
S'word: lion, index: 19'
p935
sbatp936
Rp937
(dp938
g14
Vdobj
p939
sbag0
(g1
g2
(lp940
(lp941
S'word: he, index: 16'
p942
aatp943
Rp944
(dp945
g14
Vnsubj
p946
sbatp947
Rp948
(dp949
g14
S'word: has, index: 17'
p950
sbatp951
Rp952
(dp953
g14
Vconj
p954
sbatp955
Rp956
(dp957
g14
S'word: man, index: 9'
p958
sbatp959
Rp960
(dp961
g14
S'id: 6'
p962
sbag0
(g1
g2
(lp963
g0
(g1
g2
(lp964
g0
(g1
g2
(lp965
g0
(g1
g2
(lp966
g0
(g1
g2
(lp967
(lp968
S'word: little, index: 5'
p969
aatp970
Rp971
(dp972
g14
Vamod
p973
sbag0
(g1
g2
(lp974
g0
(g1
g2
(lp975
g0
(g1
g2
(lp976
(lp977
S'word: her, index: 8'
p978
aatp979
Rp980
(dp981
g14
Vposs
p982
sbag0
(g1
g2
(lp983
g0
(g1
g2
(lp984
g0
(g1
g2
(lp985
g0
(g1
g2
(lp986
g0
(g1
g2
(lp987
(lp988
S'word: at, index: 12'
p989
aatp990
Rp991
(dp992
g14
Vpcomp
p993
sbatp994
Rp995
(dp996
g14
S'word: on, index: 11'
p997
sbatp998
Rp999
(dp1000
g14
Vprep
p1001
sbatp1002
Rp1003
(dp1004
g14
S'word: looking, index: 10'
p1005
sbatp1006
Rp1007
(dp1008
g14
Vvmod
p1009
sbatp1010
Rp1011
(dp1012
g14
S'word: dad, index: 9'
p1013
sbatp1014
Rp1015
(dp1016
g14
Vconj
p1017
sbag0
(g1
g2
(lp1018
g0
(g1
g2
(lp1019
g0
(g1
g2
(lp1020
(lp1021
S'word: everything, index: 16'
p1022
aatp1023
Rp1024
(dp1025
g14
Vprep
p1026
sbatp1027
Rp1028
(dp1029
g14
S'word: looks, index: 14'
p1030
sbatp1031
Rp1032
(dp1033
g14
Vconj
p1034
sbag0
(g1
g2
(lp1035
(lp1036
S'word: a, index: 4'
p1037
aatp1038
Rp1039
(dp1040
g14
Vdet
p1041
sbatp1042
Rp1043
(dp1044
g14
S'word: girl, index: 6'
p1045
sbatp1046
Rp1047
(dp1048
g14
Vnsubj
p1049
sbag0
(g1
g2
(lp1050
g1011
atp1051
Rp1052
(dp1053
g14
Vnsubj
p1054
sbag0
(g1
g2
(lp1055
g1028
atp1056
Rp1057
(dp1058
g14
Vnsubj
p1059
sbag0
(g1
g2
(lp1060
(lp1061
S'word: And, index: 1'
p1062
aatp1063
Rp1064
(dp1065
g14
Vcc
p1066
sbag0
(g1
g2
(lp1067
(lp1068
S'word: there, index: 2'
p1069
aatp1070
Rp1071
(dp1072
g14
Vexpl
p1073
sbatp1074
Rp1075
(dp1076
g14
S"word: 's, index: 3"
p1077
sbatp1078
Rp1079
(dp1080
g14
S'id: 7'
p1081
sbag0
(g1
g2
(lp1082
g0
(g1
g2
(lp1083
g0
(g1
g2
(lp1084
(lp1085
S'word: And, index: 1'
p1086
aatp1087
Rp1088
(dp1089
g14
Vcc
p1090
sbag0
(g1
g2
(lp1091
g0
(g1
g2
(lp1092
g0
(g1
g2
(lp1093
(lp1094
S'word: the, index: 2'
p1095
aatp1096
Rp1097
(dp1098
g14
Vdet
p1099
sbag0
(g1
g2
(lp1100
(lp1101
S'word: whole, index: 3'
p1102
aatp1103
Rp1104
(dp1105
g14
Vamod
p1106
sbatp1107
Rp1108
(dp1109
g14
S'word: circus, index: 4'
p1110
sbatp1111
Rp1112
(dp1113
g14
Vnsubj
p1114
sbag0
(g1
g2
(lp1115
g0
(g1
g2
(lp1116
g0
(g1
g2
(lp1117
(lp1118
S'word: outside, index: 8'
p1119
aatp1120
Rp1121
(dp1122
g14
Vadvmod
p1123
sbag0
(g1
g2
(lp1124
g0
(g1
g2
(lp1125
g0
(g1
g2
(lp1126
g0
(g1
g2
(lp1127
g0
(g1
g2
(lp1128
(lp1129
S'word: a, index: 12'
p1130
aatp1131
Rp1132
(dp1133
g14
Vdet
p1134
sbatp1135
Rp1136
(dp1137
g14
S'word: tent, index: 13'
p1138
sbatp1139
Rp1140
(dp1141
g14
Vprep
p1142
sbatp1143
Rp1144
(dp1145
g14
S'word: not, index: 10'
p1146
sbatp1147
Rp1148
(dp1149
g14
Vneg
p1150
sbag0
(g1
g2
(lp1151
(lp1152
S'word: to, index: 6'
p1153
aatp1154
Rp1155
(dp1156
g14
Vaux
p1157
sbatp1158
Rp1159
(dp1160
g14
S'word: be, index: 7'
p1161
sbatp1162
Rp1163
(dp1164
g14
Vxcomp
p1165
sbatp1166
Rp1167
(dp1168
g14
S'word: seems, index: 5'
p1169
sbatp1170
Rp1171
(dp1172
g14
S'id: 8'
p1173
sbatp1174
Rp1175
(dp1176
g14
S'sentences'
p1177
sb.