ccopy_reg
_reconstructor
p0
(cnltk.tree
Tree
p1
c__builtin__
list
p2
(lp3
g0
(g1
g2
(lp4
g0
(g1
g2
(lp5
g0
(g1
g2
(lp6
(lp7
S'word: I, index: 1'
p8
aatp9
Rp10
(dp11
S'_label'
p12
Vnsubj
p13
sbag0
(g1
g2
(lp14
g0
(g1
g2
(lp15
g0
(g1
g2
(lp16
(lp17
S'word: a, index: 3'
p18
aatp19
Rp20
(dp21
g12
Vdet
p22
sbatp23
Rp24
(dp25
g12
S'word: picnic, index: 4'
p26
sbatp27
Rp28
(dp29
g12
Vdobj
p30
sbatp31
Rp32
(dp33
g12
S'word: see, index: 2'
p34
sbatp35
Rp36
(dp37
g12
S'id: 0'
p38
sbag0
(g1
g2
(lp39
g0
(g1
g2
(lp40
g0
(g1
g2
(lp41
(lp42
S'word: pa, index: 3'
p43
aatp44
Rp45
(dp46
g12
Vnn
p47
sbag0
(g1
g2
(lp48
(lp49
S'word: him, index: 20'
p50
aatp51
Rp52
(dp53
g12
Vprep
p54
sbag0
(g1
g2
(lp55
g0
(g1
g2
(lp56
g0
(g1
g2
(lp57
(lp58
S'word: a, index: 6'
p59
aatp60
Rp61
(dp62
g12
Vdet
p63
sbag0
(g1
g2
(lp64
g0
(g1
g2
(lp65
g0
(g1
g2
(lp66
g0
(g1
g2
(lp67
g0
(g1
g2
(lp68
(lp69
S'word: his, index: 10'
p70
aatp71
Rp72
(dp73
g12
Vposs
p74
sbatp75
Rp76
(dp77
g12
S'word: kite, index: 11'
p78
sbatp79
Rp80
(dp81
g12
Vdobj
p82
sbag0
(g1
g2
(lp83
g0
(g1
g2
(lp84
g0
(g1
g2
(lp85
(lp86
S'word: a, index: 14'
p87
aatp88
Rp89
(dp90
g12
Vdet
p91
sbag0
(g1
g2
(lp92
(lp93
S'word: him, index: 17'
p94
aatp95
Rp96
(dp97
g12
Vprep
p98
sbatp99
Rp100
(dp101
g12
S'word: dog, index: 15'
p102
sbatp103
Rp104
(dp105
g12
Vprep
p106
sbatp107
Rp108
(dp109
g12
S'word: flying, index: 9'
p110
sbatp111
Rp112
(dp113
g12
Vvmod
p114
sbatp115
Rp116
(dp117
g12
S'word: wa, index: 7'
p118
sbatp119
Rp120
(dp121
g12
Vappos
p122
sbag0
(g1
g2
(lp123
(lp124
S'word: A, index: 1'
p125
aatp126
Rp127
(dp128
g12
Vdet
p129
sbag0
(g1
g2
(lp130
(lp131
S'word: wa, index: 2'
p132
aatp133
Rp134
(dp135
g12
Vnn
p136
sbatp137
Rp138
(dp139
g12
S'word: pa, index: 4'
p140
sbatp141
Rp142
(dp143
g12
S'id: 1'
p144
sbag0
(g1
g2
(lp145
g0
(g1
g2
(lp146
g0
(g1
g2
(lp147
g0
(g1
g2
(lp148
g0
(g1
g2
(lp149
(lp150
S'word: A, index: 1'
p151
aatp152
Rp153
(dp154
g12
Vdet
p155
sbatp156
Rp157
(dp158
g12
S'word: man, index: 2'
p159
sbatp160
Rp161
(dp162
g12
Vposs
p163
sbatp164
Rp165
(dp166
g12
S'word: fishing, index: 4'
p167
sbatp168
Rp169
(dp170
g12
S'id: 2'
p171
sbag0
(g1
g2
(lp172
g0
(g1
g2
(lp173
g0
(g1
g2
(lp174
(lp175
S'word: And, index: 1'
p176
aatp177
Rp178
(dp179
g12
Vcc
p180
sbag0
(g1
g2
(lp181
(lp182
S'word: the, index: 2'
p183
aatp184
Rp185
(dp186
g12
Vdet
p187
sbag0
(g1
g2
(lp188
(lp189
S'word: little, index: 3'
p190
aatp191
Rp192
(dp193
g12
Vamod
p194
sbag0
(g1
g2
(lp195
g0
(g1
g2
(lp196
g0
(g1
g2
(lp197
g0
(g1
g2
(lp198
g0
(g1
g2
(lp199
g0
(g1
g2
(lp200
g0
(g1
g2
(lp201
(lp202
S'word: the, index: 10'
p203
aatp204
Rp205
(dp206
g12
Vdet
p207
sbatp208
Rp209
(dp210
g12
S'word: sand, index: 11'
p211
sbatp212
Rp213
(dp214
g12
Vpobj
p215
sbag0
(g1
g2
(lp216
(lp217
S'word: ca, index: 14'
p218
aatp219
Rp220
(dp221
g12
Vconj
p222
sbatp223
Rp224
(dp225
g12
S'word: in, index: 9'
p226
sbatp227
Rp228
(dp229
g12
Vprep
p230
sbag0
(g1
g2
(lp231
(lp232
S'word: ca, index: 14'
p233
aatp234
Rp235
(dp236
g12
Vprep
p237
sbag0
(g1
g2
(lp238
(lp239
S'word: castles, index: 16'
p240
aatp241
Rp242
(dp243
g12
Vappos
p244
sbag0
(g1
g2
(lp245
(lp246
S'word: the, index: 6'
p247
aatp248
Rp249
(dp250
g12
Vdet
p251
sbag0
(g1
g2
(lp252
(lp253
S'word: right, index: 7'
p254
aatp255
Rp256
(dp257
g12
Vamod
p258
sbatp259
Rp260
(dp261
g12
S'word: playing, index: 8'
p262
sbatp263
Rp264
(dp265
g12
Vprep
p266
sbatp267
Rp268
(dp269
g12
S'word: girl, index: 4'
p270
sbatp271
Rp272
(dp273
g12
S'id: 3'
p274
sbag0
(g1
g2
(lp275
g0
(g1
g2
(lp276
g0
(g1
g2
(lp277
(lp278
S'word: And, index: 1'
p279
aatp280
Rp281
(dp282
g12
Vnsubj
p283
sbag0
(g1
g2
(lp284
(lp285
S'word: someone, index: 2'
p286
aatp287
Rp288
(dp289
g12
Vposs
p290
sbatp291
Rp292
(dp293
g12
S'word: selling, index: 4'
p294
sbatp295
Rp296
(dp297
g12
S'id: 4'
p298
sbag0
(g1
g2
(lp299
g0
(g1
g2
(lp300
g0
(g1
g2
(lp301
g0
(g1
g2
(lp302
g0
(g1
g2
(lp303
(lp304
S'word: it, index: 2'
p305
aatp306
Rp307
(dp308
g12
Vnsubj
p309
sbag0
(g1
g2
(lp310
(lp311
S"word: 's, index: 3"
p312
aatp313
Rp314
(dp315
g12
Vcop
p316
sbag0
(g1
g2
(lp317
(lp318
S'word: all, index: 4'
p319
aatp320
Rp321
(dp322
g12
Vdet
p323
sbag0
(g1
g2
(lp324
(lp325
S'word: this, index: 7'
p326
aatp327
Rp328
(dp329
g12
Vprep
p330
sbatp331
Rp332
(dp333
g12
S'word: family, index: 5'
p334
sbatp335
Rp336
(dp337
g12
Vccomp
p338
sbatp339
Rp340
(dp341
g12
S'word: Guess, index: 1'
p342
sbatp343
Rp344
(dp345
g12
S'id: 5'
p346
sbag0
(g1
g2
(lp347
g0
(g1
g2
(lp348
g0
(g1
g2
(lp349
g0
(g1
g2
(lp350
g0
(g1
g2
(lp351
(lp352
S'word: the, index: 3'
p353
aatp354
Rp355
(dp356
g12
Vdet
p357
sbatp358
Rp359
(dp360
g12
S'word: radio, index: 4'
p361
sbatp362
Rp363
(dp364
g12
Vprep
p365
sbatp366
Rp367
(dp368
g12
S'word: Listen, index: 1'
p369
sbatp370
Rp371
(dp372
g12
S'id: 6'
p373
sbag0
(g1
g2
(lp374
g0
(g1
g2
(lp375
g0
(g1
g2
(lp376
g0
(g1
g2
(lp377
g0
(g1
g2
(lp378
g0
(g1
g2
(lp379
g0
(g1
g2
(lp380
(lp381
S'word: his, index: 6'
p382
aatp383
Rp384
(dp385
g12
Vposs
p386
sbatp387
Rp388
(dp389
g12
S'word: shoes, index: 7'
p390
sbatp391
Rp392
(dp393
g12
Vdobj
p394
sbag0
(g1
g2
(lp395
(lp396
S'word: off, index: 8'
p397
aatp398
Rp399
(dp400
g12
Vprt
p401
sbag0
(g1
g2
(lp402
g0
(g1
g2
(lp403
g0
(g1
g2
(lp404
(lp405
S'word: he, index: 10'
p406
aatp407
Rp408
(dp409
g12
Vnsubj
p410
sbag0
(g1
g2
(lp411
g0
(g1
g2
(lp412
g0
(g1
g2
(lp413
(lp414
S'word: sandals, index: 13'
p415
aatp416
Rp417
(dp418
g12
Vdobj
p419
sbatp420
Rp421
(dp422
g12
S'word: wearing, index: 12'
p423
sbatp424
Rp425
(dp426
g12
Vxcomp
p427
sbatp428
Rp429
(dp430
g12
S'word: gots, index: 11'
p431
sbatp432
Rp433
(dp434
g12
Vparataxis
p435
sbag0
(g1
g2
(lp436
(lp437
S'word: he, index: 3'
p438
aatp439
Rp440
(dp441
g12
Vnsubj
p442
sbag0
(g1
g2
(lp443
(lp444
S'word: has, index: 4'
p445
aatp446
Rp447
(dp448
g12
Vaux
p449
sbatp450
Rp451
(dp452
g12
S'word: got, index: 5'
p453
sbatp454
Rp455
(dp456
g12
Vdep
p457
sbag0
(g1
g2
(lp458
(lp459
S'word: I, index: 1'
p460
aatp461
Rp462
(dp463
g12
Vnsubj
p464
sbatp465
Rp466
(dp467
g12
S'word: see, index: 2'
p468
sbatp469
Rp470
(dp471
g12
S'id: 7'
p472
sbatp473
Rp474
(dp475
g12
S'sentences'
p476
sb.