ccopy_reg
_reconstructor
p0
(cnltk.tree
Tree
p1
c__builtin__
list
p2
(lp3
g0
(g1
g2
(lp4
g0
(g1
g2
(lp5
g0
(g1
g2
(lp6
g0
(g1
g2
(lp7
VMother
p8
atp9
Rp10
(dp11
S'_label'
p12
VNN
p13
sbatp14
Rp15
(dp16
g12
VNP
p17
sbag0
(g1
g2
(lp18
g0
(g1
g2
(lp19
Vis
p20
atp21
Rp22
(dp23
g12
VVBZ
p24
sbag0
(g1
g2
(lp25
g0
(g1
g2
(lp26
Vwashing
p27
atp28
Rp29
(dp30
g12
VVBG
p31
sbag0
(g1
g2
(lp32
V,
p33
atp34
Rp35
(dp36
g12
V,
p37
sbag0
(g1
g2
(lp38
g0
(g1
g2
(lp39
g0
(g1
g2
(lp40
Vwiping
p41
atp42
Rp43
(dp44
g12
VVBG
p45
sbag0
(g1
g2
(lp46
g0
(g1
g2
(lp47
g0
(g1
g2
(lp48
Vthe
p49
atp50
Rp51
(dp52
g12
VDT
p53
sbag0
(g1
g2
(lp54
Vbish
p55
atp56
Rp57
(dp58
g12
VNN
p59
sbatp60
Rp61
(dp62
g12
VNP
p63
sbag0
(g1
g2
(lp64
V,
p65
atp66
Rp67
(dp68
g12
V,
p69
sbag0
(g1
g2
(lp70
g0
(g1
g2
(lp71
Vthe
p72
atp73
Rp74
(dp75
g12
VDT
p76
sbag0
(g1
g2
(lp77
Vbishes
p78
atp79
Rp80
(dp81
g12
VNNS
p82
sbatp83
Rp84
(dp85
g12
VNP
p86
sbatp87
Rp88
(dp89
g12
VNP
p90
sbatp91
Rp92
(dp93
g12
VVP
p94
sbatp95
Rp96
(dp97
g12
VS
p98
sbatp99
Rp100
(dp101
g12
VVP
p102
sbatp103
Rp104
(dp105
g12
VVP
p106
sbag0
(g1
g2
(lp107
V.
p108
atp109
Rp110
(dp111
g12
V.
p112
sbatp113
Rp114
(dp115
g12
VS
p116
sbatp117
Rp118
(dp119
g12
S'id: 0'
p120
sbag0
(g1
g2
(lp121
g0
(g1
g2
(lp122
g0
(g1
g2
(lp123
g0
(g1
g2
(lp124
VWater
p125
atp126
Rp127
(dp128
g12
VNN
p129
sbatp130
Rp131
(dp132
g12
VNP
p133
sbag0
(g1
g2
(lp134
g0
(g1
g2
(lp135
Vis
p136
atp137
Rp138
(dp139
g12
VVBZ
p140
sbag0
(g1
g2
(lp141
g0
(g1
g2
(lp142
Vflowing
p143
atp144
Rp145
(dp146
g12
VVBG
p147
sbag0
(g1
g2
(lp148
g0
(g1
g2
(lp149
Vover
p150
atp151
Rp152
(dp153
g12
VIN
p154
sbag0
(g1
g2
(lp155
g0
(g1
g2
(lp156
g0
(g1
g2
(lp157
Vthe
p158
atp159
Rp160
(dp161
g12
VDT
p162
sbag0
(g1
g2
(lp163
Vkitch
p164
atp165
Rp166
(dp167
g12
VNN
p168
sbag0
(g1
g2
(lp169
Vbitchen
p170
atp171
Rp172
(dp173
g12
VNN
p174
sbatp175
Rp176
(dp177
g12
VNP
p178
sbag0
(g1
g2
(lp179
V,
p180
atp181
Rp182
(dp183
g12
V,
p184
sbag0
(g1
g2
(lp185
g0
(g1
g2
(lp186
Vkitchen
p187
atp188
Rp189
(dp190
g12
VNN
p191
sbatp192
Rp193
(dp194
g12
VNP
p195
sbag0
(g1
g2
(lp196
V,
p197
atp198
Rp199
(dp200
g12
V,
p201
sbatp202
Rp203
(dp204
g12
VNP
p205
sbatp206
Rp207
(dp208
g12
VPP
p209
sbag0
(g1
g2
(lp210
g0
(g1
g2
(lp211
Vonto
p212
atp213
Rp214
(dp215
g12
VIN
p216
sbag0
(g1
g2
(lp217
g0
(g1
g2
(lp218
Vthe
p219
atp220
Rp221
(dp222
g12
VDT
p223
sbag0
(g1
g2
(lp224
Vfloor
p225
atp226
Rp227
(dp228
g12
VNN
p229
sbatp230
Rp231
(dp232
g12
VNP
p233
sbatp234
Rp235
(dp236
g12
VPP
p237
sbatp238
Rp239
(dp240
g12
VVP
p241
sbatp242
Rp243
(dp244
g12
VVP
p245
sbag0
(g1
g2
(lp246
V.
p247
atp248
Rp249
(dp250
g12
V.
p251
sbatp252
Rp253
(dp254
g12
VS
p255
sbatp256
Rp257
(dp258
g12
S'id: 1'
p259
sbag0
(g1
g2
(lp260
g0
(g1
g2
(lp261
g0
(g1
g2
(lp262
g0
(g1
g2
(lp263
VWater
p264
atp265
Rp266
(dp267
g12
VNN
p268
sbatp269
Rp270
(dp271
g12
VNP
p272
sbag0
(g1
g2
(lp273
g0
(g1
g2
(lp274
Vis
p275
atp276
Rp277
(dp278
g12
VVBZ
p279
sbag0
(g1
g2
(lp280
g0
(g1
g2
(lp281
Vrunning
p282
atp283
Rp284
(dp285
g12
VVBG
p286
sbag0
(g1
g2
(lp287
g0
(g1
g2
(lp288
Veverywhere
p289
atp290
Rp291
(dp292
g12
VRB
p293
sbatp294
Rp295
(dp296
g12
VADVP
p297
sbatp298
Rp299
(dp300
g12
VVP
p301
sbatp302
Rp303
(dp304
g12
VVP
p305
sbag0
(g1
g2
(lp306
V.
p307
atp308
Rp309
(dp310
g12
V.
p311
sbatp312
Rp313
(dp314
g12
VS
p315
sbatp316
Rp317
(dp318
g12
S'id: 2'
p319
sbag0
(g1
g2
(lp320
g0
(g1
g2
(lp321
g0
(g1
g2
(lp322
VAnd
p323
atp324
Rp325
(dp326
g12
VCC
p327
sbag0
(g1
g2
(lp328
V,
p329
atp330
Rp331
(dp332
g12
V,
p333
sbag0
(g1
g2
(lp334
g0
(g1
g2
(lp335
g0
(g1
g2
(lp336
g0
(g1
g2
(lp337
g0
(g1
g2
(lp338
Vthe
p339
atp340
Rp341
(dp342
g12
VDT
p343
sbag0
(g1
g2
(lp344
Vlittle
p345
atp346
Rp347
(dp348
g12
VJJ
p349
sbag0
(g1
g2
(lp350
Vgirls
p351
atp352
Rp353
(dp354
g12
VNNS
p355
sbag0
(g1
g2
(lp356
Vand
p357
atp358
Rp359
(dp360
g12
VCC
p361
sbag0
(g1
g2
(lp362
Vboys
p363
atp364
Rp365
(dp366
g12
VNNS
p367
sbatp368
Rp369
(dp370
g12
VNP
p371
sbag0
(g1
g2
(lp372
V,
p373
atp374
Rp375
(dp376
g12
V,
p377
sbag0
(g1
g2
(lp378
g0
(g1
g2
(lp379
Vthe
p380
atp381
Rp382
(dp383
g12
VDT
p384
sbag0
(g1
g2
(lp385
Vboy
p386
atp387
Rp388
(dp389
g12
VNN
p390
sbatp391
Rp392
(dp393
g12
VNP
p394
sbatp395
Rp396
(dp397
g12
VNP
p398
sbag0
(g1
g2
(lp399
g0
(g1
g2
(lp400
Vis
p401
atp402
Rp403
(dp404
g12
VVBZ
p405
sbag0
(g1
g2
(lp406
g0
(g1
g2
(lp407
Vgetting
p408
atp409
Rp410
(dp411
g12
VVBG
p412
sbag0
(g1
g2
(lp413
g0
(g1
g2
(lp414
Vsome
p415
atp416
Rp417
(dp418
g12
VDT
p419
sbag0
(g1
g2
(lp420
Vcookies
p421
atp422
Rp423
(dp424
g12
VNNS
p425
sbatp426
Rp427
(dp428
g12
VNP
p429
sbag0
(g1
g2
(lp430
g0
(g1
g2
(lp431
Vfrom
p432
atp433
Rp434
(dp435
g12
VIN
p436
sbag0
(g1
g2
(lp437
g0
(g1
g2
(lp438
Vthe
p439
atp440
Rp441
(dp442
g12
VDT
p443
sbatp444
Rp445
(dp446
g12
VNP
p447
sbatp448
Rp449
(dp450
g12
VPP
p451
sbatp452
Rp453
(dp454
g12
VVP
p455
sbatp456
Rp457
(dp458
g12
VVP
p459
sbatp460
Rp461
(dp462
g12
VS
p463
sbag0
(g1
g2
(lp464
V,
p465
atp466
Rp467
(dp468
g12
V,
p469
sbag0
(g1
g2
(lp470
Vand
p471
atp472
Rp473
(dp474
g12
VCC
p475
sbag0
(g1
g2
(lp476
g0
(g1
g2
(lp477
g0
(g1
g2
(lp478
g0
(g1
g2
(lp479
Vthe
p480
atp481
Rp482
(dp483
g12
VDT
p484
sbag0
(g1
g2
(lp485
Vmother
p486
atp487
Rp488
(dp489
g12
VNN
p490
sbatp491
Rp492
(dp493
g12
VNP
p494
sbag0
(g1
g2
(lp495
g0
(g1
g2
(lp496
g0
(g1
g2
(lp497
Vate
p498
atp499
Rp500
(dp501
g12
VVBD
p502
sbatp503
Rp504
(dp505
g12
VVP
p506
sbag0
(g1
g2
(lp507
Vand
p508
atp509
Rp510
(dp511
g12
VCC
p512
sbag0
(g1
g2
(lp513
g0
(g1
g2
(lp514
g0
(g1
g2
(lp515
Vmother
p516
atp517
Rp518
(dp519
g12
VNN
p520
sbatp521
Rp522
(dp523
g12
VNP
p524
sbag0
(g1
g2
(lp525
g0
(g1
g2
(lp526
Vtoo
p527
atp528
Rp529
(dp530
g12
VRB
p531
sbatp532
Rp533
(dp534
g12
VADVP
p535
sbatp536
Rp537
(dp538
g12
VVP
p539
sbatp540
Rp541
(dp542
g12
VVP
p543
sbatp544
Rp545
(dp546
g12
VS
p547
sbag0
(g1
g2
(lp548
V,
p549
atp550
Rp551
(dp552
g12
V,
p553
sbag0
(g1
g2
(lp554
Vand
p555
atp556
Rp557
(dp558
g12
VCC
p559
sbag0
(g1
g2
(lp560
g0
(g1
g2
(lp561
g0
(g1
g2
(lp562
Vlittle
p563
atp564
Rp565
(dp566
g12
VJJ
p567
sbag0
(g1
g2
(lp568
Vboy
p569
atp570
Rp571
(dp572
g12
VNN
p573
sbatp574
Rp575
(dp576
g12
VNP
p577
sbag0
(g1
g2
(lp578
g0
(g1
g2
(lp579
Vis
p580
atp581
Rp582
(dp583
g12
VVBZ
p584
sbag0
(g1
g2
(lp585
g0
(g1
g2
(lp586
Vfalling
p587
atp588
Rp589
(dp590
g12
VVBG
p591
sbag0
(g1
g2
(lp592
V,
p593
atp594
Rp595
(dp596
g12
V,
p597
sbag0
(g1
g2
(lp598
g0
(g1
g2
(lp599
Vover
p600
atp601
Rp602
(dp603
g12
VIN
p604
sbag0
(g1
g2
(lp605
g0
(g1
g2
(lp606
Vthe
p607
atp608
Rp609
(dp610
g12
VDT
p611
sbag0
(g1
g2
(lp612
g0
(g1
g2
(lp613
Vthe
p614
atp615
Rp616
(dp617
g12
VDT
p618
sbag0
(g1
g2
(lp619
Vfid
p620
atp621
Rp622
(dp623
g12
VNN
p624
sbatp625
Rp626
(dp627
g12
VNP
p628
sbag0
(g1
g2
(lp629
V,
p630
atp631
Rp632
(dp633
g12
V,
p634
sbag0
(g1
g2
(lp635
g0
(g1
g2
(lp636
Vthe
p637
atp638
Rp639
(dp640
g12
VDT
p641
sbatp642
Rp643
(dp644
g12
VNP
p645
sbag0
(g1
g2
(lp646
V,
p647
atp648
Rp649
(dp650
g12
V,
p651
sbag0
(g1
g2
(lp652
g0
(g1
g2
(lp653
Vthe
p654
atp655
Rp656
(dp657
g12
VDT
p658
sbag0
(g1
g2
(lp659
Vcarl
p660
atp661
Rp662
(dp663
g12
VNN
p664
sbatp665
Rp666
(dp667
g12
VNP
p668
sbag0
(g1
g2
(lp669
V,
p670
atp671
Rp672
(dp673
g12
V,
p674
sbag0
(g1
g2
(lp675
g0
(g1
g2
(lp676
Vthe
p677
atp678
Rp679
(dp680
g12
VDT
p681
sbag0
(g1
g2
(lp682
Vchar
p683
atp684
Rp685
(dp686
g12
VNN
p687
sbatp688
Rp689
(dp690
g12
VNP
p691
sbag0
(g1
g2
(lp692
V,
p693
atp694
Rp695
(dp696
g12
V,
p697
sbag0
(g1
g2
(lp698
g0
(g1
g2
(lp699
g0
(g1
g2
(lp700
Vchair
p701
atp702
Rp703
(dp704
g12
VNN
p705
sbatp706
Rp707
(dp708
g12
VNP
p709
sbag0
(g1
g2
(lp710
V,
p711
atp712
Rp713
(dp714
g12
V,
p715
sbag0
(g1
g2
(lp716
g0
(g1
g2
(lp717
Vchair
p718
atp719
Rp720
(dp721
g12
VNN
p722
sbatp723
Rp724
(dp725
g12
VNP
p726
sbatp727
Rp728
(dp729
g12
VNP
p730
sbatp731
Rp732
(dp733
g12
VNP
p734
sbatp735
Rp736
(dp737
g12
VPP
p738
sbatp739
Rp740
(dp741
g12
VVP
p742
sbatp743
Rp744
(dp745
g12
VVP
p746
sbatp747
Rp748
(dp749
g12
VS
p750
sbatp751
Rp752
(dp753
g12
VS
p754
sbatp755
Rp756
(dp757
g12
VS
p758
sbag0
(g1
g2
(lp759
V.
p760
atp761
Rp762
(dp763
g12
V.
p764
sbatp765
Rp766
(dp767
g12
VS
p768
sbatp769
Rp770
(dp771
g12
S'id: 3'
p772
sbag0
(g1
g2
(lp773
g0
(g1
g2
(lp774
g0
(g1
g2
(lp775
VAnd
p776
atp777
Rp778
(dp779
g12
VCC
p780
sbag0
(g1
g2
(lp781
g0
(g1
g2
(lp782
Vthe
p783
atp784
Rp785
(dp786
g12
VDT
p787
sbag0
(g1
g2
(lp788
Vgrass
p789
atp790
Rp791
(dp792
g12
VNN
p793
sbatp794
Rp795
(dp796
g12
VNP
p797
sbag0
(g1
g2
(lp798
g0
(g1
g2
(lp799
Vis
p800
atp801
Rp802
(dp803
g12
VVBZ
p804
sbag0
(g1
g2
(lp805
g0
(g1
g2
(lp806
Vout
p807
atp808
Rp809
(dp810
g12
VRP
p811
sbatp812
Rp813
(dp814
g12
VADVP
p815
sbag0
(g1
g2
(lp816
g0
(g1
g2
(lp817
Vin
p818
atp819
Rp820
(dp821
g12
VIN
p822
sbag0
(g1
g2
(lp823
g0
(g1
g2
(lp824
g0
(g1
g2
(lp825
Vthe
p826
atp827
Rp828
(dp829
g12
VDT
p830
sbag0
(g1
g2
(lp831
Vpicture
p832
atp833
Rp834
(dp835
g12
VNN
p836
sbatp837
Rp838
(dp839
g12
VNP
p840
sbag0
(g1
g2
(lp841
V,
p842
atp843
Rp844
(dp845
g12
V,
p846
sbag0
(g1
g2
(lp847
g0
(g1
g2
(lp848
g0
(g1
g2
(lp849
Vkind
p850
atp851
Rp852
(dp853
g12
VNN
p854
sbatp855
Rp856
(dp857
g12
VNP
p858
sbag0
(g1
g2
(lp859
g0
(g1
g2
(lp860
Vof
p861
atp862
Rp863
(dp864
g12
VIN
p865
sbag0
(g1
g2
(lp866
g0
(g1
g2
(lp867
Von
p868
atp869
Rp870
(dp871
g12
VIN
p872
sbag0
(g1
g2
(lp873
g0
(g1
g2
(lp874
Vthe
p875
atp876
Rp877
(dp878
g12
VDT
p879
sbag0
(g1
g2
(lp880
Vfloor
p881
atp882
Rp883
(dp884
g12
VNN
p885
sbatp886
Rp887
(dp888
g12
VNP
p889
sbatp890
Rp891
(dp892
g12
VPP
p893
sbatp894
Rp895
(dp896
g12
VPP
p897
sbatp898
Rp899
(dp900
g12
VNP
p901
sbatp902
Rp903
(dp904
g12
VNP
p905
sbatp906
Rp907
(dp908
g12
VPP
p909
sbatp910
Rp911
(dp912
g12
VVP
p913
sbag0
(g1
g2
(lp914
V.
p915
atp916
Rp917
(dp918
g12
V.
p919
sbatp920
Rp921
(dp922
g12
VS
p923
sbatp924
Rp925
(dp926
g12
S'id: 4'
p927
sbag0
(g1
g2
(lp928
g0
(g1
g2
(lp929
g0
(g1
g2
(lp930
VAnd
p931
atp932
Rp933
(dp934
g12
VCC
p935
sbag0
(g1
g2
(lp936
V,
p937
atp938
Rp939
(dp940
g12
V,
p941
sbag0
(g1
g2
(lp942
g0
(g1
g2
(lp943
Vthere
p944
atp945
Rp946
(dp947
g12
VEX
p948
sbatp949
Rp950
(dp951
g12
VNP
p952
sbag0
(g1
g2
(lp953
g0
(g1
g2
(lp954
Vis
p955
atp956
Rp957
(dp958
g12
VVBZ
p959
sbag0
(g1
g2
(lp960
g0
(g1
g2
(lp961
g0
(g1
g2
(lp962
Vsome
p963
atp964
Rp965
(dp966
g12
VDT
p967
sbag0
(g1
g2
(lp968
Vdishes
p969
atp970
Rp971
(dp972
g12
VNNS
p973
sbatp974
Rp975
(dp976
g12
VNP
p977
sbag0
(g1
g2
(lp978
g0
(g1
g2
(lp979
Von
p980
atp981
Rp982
(dp983
g12
VIN
p984
sbag0
(g1
g2
(lp985
g0
(g1
g2
(lp986
g0
(g1
g2
(lp987
Vthe
p988
atp989
Rp990
(dp991
g12
VDT
p992
sbag0
(g1
g2
(lp993
Vline
p994
atp995
Rp996
(dp997
g12
VNN
p998
sbatp999
Rp1000
(dp1001
g12
VNP
p1002
sbag0
(g1
g2
(lp1003
g0
(g1
g2
(lp1004
Vup
p1005
atp1006
Rp1007
(dp1008
g12
VRP
p1009
sbag0
(g1
g2
(lp1010
g0
(g1
g2
(lp1011
Vplate
p1012
atp1013
Rp1014
(dp1015
g12
VNN
p1016
sbag0
(g1
g2
(lp1017
Vfloor
p1018
atp1019
Rp1020
(dp1021
g12
VNN
p1022
sbatp1023
Rp1024
(dp1025
g12
VNP
p1026
sbatp1027
Rp1028
(dp1029
g12
VPP
p1030
sbatp1031
Rp1032
(dp1033
g12
VNP
p1034
sbatp1035
Rp1036
(dp1037
g12
VPP
p1038
sbatp1039
Rp1040
(dp1041
g12
VNP
p1042
sbag0
(g1
g2
(lp1043
V,
p1044
atp1045
Rp1046
(dp1047
g12
V,
p1048
sbag0
(g1
g2
(lp1049
g0
(g1
g2
(lp1050
Vthat
p1051
atp1052
Rp1053
(dp1054
g12
VIN
p1055
sbag0
(g1
g2
(lp1056
g0
(g1
g2
(lp1057
g0
(g1
g2
(lp1058
Vyou
p1059
atp1060
Rp1061
(dp1062
g12
VPRP
p1063
sbatp1064
Rp1065
(dp1066
g12
VNP
p1067
sbag0
(g1
g2
(lp1068
g0
(g1
g2
(lp1069
Vcleaned
p1070
atp1071
Rp1072
(dp1073
g12
VVBD
p1074
sbag0
(g1
g2
(lp1075
V,
p1076
atp1077
Rp1078
(dp1079
g12
V,
p1080
sbag0
(g1
g2
(lp1081
g0
(g1
g2
(lp1082
Vthat
p1083
atp1084
Rp1085
(dp1086
g12
VIN
p1087
sbag0
(g1
g2
(lp1088
g0
(g1
g2
(lp1089
g0
(g1
g2
(lp1090
Vmother
p1091
atp1092
Rp1093
(dp1094
g12
VNN
p1095
sbatp1096
Rp1097
(dp1098
g12
VNP
p1099
sbag0
(g1
g2
(lp1100
g0
(g1
g2
(lp1101
Vhas
p1102
atp1103
Rp1104
(dp1105
g12
VVBZ
p1106
sbag0
(g1
g2
(lp1107
g0
(g1
g2
(lp1108
Vwashed
p1109
atp1110
Rp1111
(dp1112
g12
VVBN
p1113
sbag0
(g1
g2
(lp1114
g0
(g1
g2
(lp1115
Vout
p1116
atp1117
Rp1118
(dp1119
g12
VRP
p1120
sbatp1121
Rp1122
(dp1123
g12
VPRT
p1124
sbag0
(g1
g2
(lp1125
V,
p1126
atp1127
Rp1128
(dp1129
g12
V,
p1130
sbag0
(g1
g2
(lp1131
Vwashed
p1132
atp1133
Rp1134
(dp1135
g12
VVBN
p1136
sbag0
(g1
g2
(lp1137
Vand
p1138
atp1139
Rp1140
(dp1141
g12
VCC
p1142
sbag0
(g1
g2
(lp1143
Vwiped
p1144
atp1145
Rp1146
(dp1147
g12
VVBN
p1148
sbatp1149
Rp1150
(dp1151
g12
VVP
p1152
sbatp1153
Rp1154
(dp1155
g12
VVP
p1156
sbatp1157
Rp1158
(dp1159
g12
VS
p1160
sbatp1161
Rp1162
(dp1163
g12
VSBAR
p1164
sbatp1165
Rp1166
(dp1167
g12
VVP
p1168
sbatp1169
Rp1170
(dp1171
g12
VS
p1172
sbatp1173
Rp1174
(dp1175
g12
VSBAR
p1176
sbatp1177
Rp1178
(dp1179
g12
VVP
p1180
sbag0
(g1
g2
(lp1181
V.
p1182
atp1183
Rp1184
(dp1185
g12
V.
p1186
sbatp1187
Rp1188
(dp1189
g12
VS
p1190
sbatp1191
Rp1192
(dp1193
g12
S'id: 5'
p1194
sbag0
(g1
g2
(lp1195
g0
(g1
g2
(lp1196
g0
(g1
g2
(lp1197
VAnd
p1198
atp1199
Rp1200
(dp1201
g12
VCC
p1202
sbag0
(g1
g2
(lp1203
g0
(g1
g2
(lp1204
g0
(g1
g2
(lp1205
Vthe
p1206
atp1207
Rp1208
(dp1209
g12
VDT
p1210
sbag0
(g1
g2
(lp1211
Vwater
p1212
atp1213
Rp1214
(dp1215
g12
VNN
p1216
sbatp1217
Rp1218
(dp1219
g12
VNP
p1220
sbag0
(g1
g2
(lp1221
g0
(g1
g2
(lp1222
Vis
p1223
atp1224
Rp1225
(dp1226
g12
VVBZ
p1227
sbag0
(g1
g2
(lp1228
g0
(g1
g2
(lp1229
Vrunning
p1230
atp1231
Rp1232
(dp1233
g12
VVBG
p1234
sbag0
(g1
g2
(lp1235
g0
(g1
g2
(lp1236
Vover
p1237
atp1238
Rp1239
(dp1240
g12
VIN
p1241
sbag0
(g1
g2
(lp1242
g0
(g1
g2
(lp1243
Vthe
p1244
atp1245
Rp1246
(dp1247
g12
VDT
p1248
sbag0
(g1
g2
(lp1249
Vfloor
p1250
atp1251
Rp1252
(dp1253
g12
VNN
p1254
sbatp1255
Rp1256
(dp1257
g12
VNP
p1258
sbatp1259
Rp1260
(dp1261
g12
VPP
p1262
sbatp1263
Rp1264
(dp1265
g12
VVP
p1266
sbatp1267
Rp1268
(dp1269
g12
VVP
p1270
sbatp1271
Rp1272
(dp1273
g12
VS
p1274
sbag0
(g1
g2
(lp1275
V,
p1276
atp1277
Rp1278
(dp1279
g12
V,
p1280
sbag0
(g1
g2
(lp1281
Vand
p1282
atp1283
Rp1284
(dp1285
g12
VCC
p1286
sbag0
(g1
g2
(lp1287
g0
(g1
g2
(lp1288
g0
(g1
g2
(lp1289
Vthey
p1290
atp1291
Rp1292
(dp1293
g12
VPRP
p1294
sbatp1295
Rp1296
(dp1297
g12
VNP
p1298
sbag0
(g1
g2
(lp1299
g0
(g1
g2
(lp1300
Vwill
p1301
atp1302
Rp1303
(dp1304
g12
VMD
p1305
sbag0
(g1
g2
(lp1306
g0
(g1
g2
(lp1307
Vhave
p1308
atp1309
Rp1310
(dp1311
g12
VVB
p1312
sbag0
(g1
g2
(lp1313
g0
(g1
g2
(lp1314
g0
(g1
g2
(lp1315
Vto
p1316
atp1317
Rp1318
(dp1319
g12
VTO
p1320
sbag0
(g1
g2
(lp1321
g0
(g1
g2
(lp1322
Vget
p1323
atp1324
Rp1325
(dp1326
g12
VVB
p1327
sbag0
(g1
g2
(lp1328
g0
(g1
g2
(lp1329
Vthem
p1330
atp1331
Rp1332
(dp1333
g12
VPRP
p1334
sbatp1335
Rp1336
(dp1337
g12
VNP
p1338
sbag0
(g1
g2
(lp1339
g0
(g1
g2
(lp1340
Vup
p1341
atp1342
Rp1343
(dp1344
g12
VRP
p1345
sbatp1346
Rp1347
(dp1348
g12
VPRT
p1349
sbatp1350
Rp1351
(dp1352
g12
VVP
p1353
sbatp1354
Rp1355
(dp1356
g12
VVP
p1357
sbatp1358
Rp1359
(dp1360
g12
VS
p1361
sbatp1362
Rp1363
(dp1364
g12
VVP
p1365
sbatp1366
Rp1367
(dp1368
g12
VVP
p1369
sbatp1370
Rp1371
(dp1372
g12
VS
p1373
sbag0
(g1
g2
(lp1374
V.
p1375
atp1376
Rp1377
(dp1378
g12
V.
p1379
sbatp1380
Rp1381
(dp1382
g12
VS
p1383
sbatp1384
Rp1385
(dp1386
g12
S'id: 6'
p1387
sbag0
(g1
g2
(lp1388
g0
(g1
g2
(lp1389
g0
(g1
g2
(lp1390
g0
(g1
g2
(lp1391
VWell
p1392
atp1393
Rp1394
(dp1395
g12
VRB
p1396
sbatp1397
Rp1398
(dp1399
g12
VADVP
p1400
sbag0
(g1
g2
(lp1401
g0
(g1
g2
(lp1402
Vthe
p1403
atp1404
Rp1405
(dp1406
g12
VDT
p1407
sbag0
(g1
g2
(lp1408
Vgirl
p1409
atp1410
Rp1411
(dp1412
g12
VNN
p1413
sbatp1414
Rp1415
(dp1416
g12
VNP
p1417
sbag0
(g1
g2
(lp1418
g0
(g1
g2
(lp1419
Vhad
p1420
atp1421
Rp1422
(dp1423
g12
VVBD
p1424
sbag0
(g1
g2
(lp1425
Vn't
p1426
atp1427
Rp1428
(dp1429
g12
VRB
p1430
sbag0
(g1
g2
(lp1431
g0
(g1
g2
(lp1432
Vgot
p1433
atp1434
Rp1435
(dp1436
g12
VVBD
p1437
sbag0
(g1
g2
(lp1438
g0
(g1
g2
(lp1439
Vany
p1440
atp1441
Rp1442
(dp1443
g12
VDT
p1444
sbag0
(g1
g2
(lp1445
Vcookies
p1446
atp1447
Rp1448
(dp1449
g12
VNNS
p1450
sbatp1451
Rp1452
(dp1453
g12
VNP
p1454
sbag0
(g1
g2
(lp1455
g0
(g1
g2
(lp1456
Vyet
p1457
atp1458
Rp1459
(dp1460
g12
VRB
p1461
sbatp1462
Rp1463
(dp1464
g12
VADVP
p1465
sbag0
(g1
g2
(lp1466
g0
(g1
g2
(lp1467
V,
p1468
atp1469
Rp1470
(dp1471
g12
V,
p1472
sbag0
(g1
g2
(lp1473
g0
(g1
g2
(lp1474
Voff
p1475
atp1476
Rp1477
(dp1478
g12
VIN
p1479
sbag0
(g1
g2
(lp1480
g0
(g1
g2
(lp1481
Vof
p1482
atp1483
Rp1484
(dp1485
g12
VIN
p1486
sbatp1487
Rp1488
(dp1489
g12
VPP
p1490
sbatp1491
Rp1492
(dp1493
g12
VPP
p1494
sbag0
(g1
g2
(lp1495
V,
p1496
atp1497
Rp1498
(dp1499
g12
V,
p1500
sbatp1501
Rp1502
(dp1503
g12
VPRN
p1504
sbag0
(g1
g2
(lp1505
g0
(g1
g2
(lp1506
Vout
p1507
atp1508
Rp1509
(dp1510
g12
VIN
p1511
sbag0
(g1
g2
(lp1512
g0
(g1
g2
(lp1513
Vof
p1514
atp1515
Rp1516
(dp1517
g12
VIN
p1518
sbag0
(g1
g2
(lp1519
g0
(g1
g2
(lp1520
Vthe
p1521
atp1522
Rp1523
(dp1524
g12
VDT
p1525
sbag0
(g1
g2
(lp1526
Vjar
p1527
atp1528
Rp1529
(dp1530
g12
VNN
p1531
sbatp1532
Rp1533
(dp1534
g12
VNP
p1535
sbatp1536
Rp1537
(dp1538
g12
VPP
p1539
sbatp1540
Rp1541
(dp1542
g12
VPP
p1543
sbatp1544
Rp1545
(dp1546
g12
VVP
p1547
sbatp1548
Rp1549
(dp1550
g12
VVP
p1551
sbag0
(g1
g2
(lp1552
V.
p1553
atp1554
Rp1555
(dp1556
g12
V.
p1557
sbatp1558
Rp1559
(dp1560
g12
VS
p1561
sbatp1562
Rp1563
(dp1564
g12
S'id: 7'
p1565
sbag0
(g1
g2
(lp1566
g0
(g1
g2
(lp1567
g0
(g1
g2
(lp1568
g0
(g1
g2
(lp1569
VDo
p1570
atp1571
Rp1572
(dp1573
g12
VVBP
p1574
sbag0
(g1
g2
(lp1575
Vn't
p1576
atp1577
Rp1578
(dp1579
g12
VRB
p1580
sbag0
(g1
g2
(lp1581
g0
(g1
g2
(lp1582
Vknow
p1583
atp1584
Rp1585
(dp1586
g12
VVB
p1587
sbag0
(g1
g2
(lp1588
g0
(g1
g2
(lp1589
g0
(g1
g2
(lp1590
Vwhat
p1591
atp1592
Rp1593
(dp1594
g12
VWP
p1595
sbatp1596
Rp1597
(dp1598
g12
VWHNP
p1599
sbag0
(g1
g2
(lp1600
g0
(g1
g2
(lp1601
g0
(g1
g2
(lp1602
Vthis
p1603
atp1604
Rp1605
(dp1606
g12
VDT
p1607
sbatp1608
Rp1609
(dp1610
g12
VNP
p1611
sbag0
(g1
g2
(lp1612
g0
(g1
g2
(lp1613
Vis
p1614
atp1615
Rp1616
(dp1617
g12
VVBZ
p1618
sbatp1619
Rp1620
(dp1621
g12
VVP
p1622
sbatp1623
Rp1624
(dp1625
g12
VS
p1626
sbatp1627
Rp1628
(dp1629
g12
VSBAR
p1630
sbatp1631
Rp1632
(dp1633
g12
VVP
p1634
sbatp1635
Rp1636
(dp1637
g12
VVP
p1638
sbag0
(g1
g2
(lp1639
V.
p1640
atp1641
Rp1642
(dp1643
g12
V.
p1644
sbatp1645
Rp1646
(dp1647
g12
VS
p1648
sbatp1649
Rp1650
(dp1651
g12
S'id: 8'
p1652
sbag0
(g1
g2
(lp1653
g0
(g1
g2
(lp1654
g0
(g1
g2
(lp1655
g0
(g1
g2
(lp1656
g0
(g1
g2
(lp1657
VThe
p1658
atp1659
Rp1660
(dp1661
g12
VDT
p1662
sbag0
(g1
g2
(lp1663
Vwater
p1664
atp1665
Rp1666
(dp1667
g12
VNN
p1668
sbatp1669
Rp1670
(dp1671
g12
VNP
p1672
sbag0
(g1
g2
(lp1673
g0
(g1
g2
(lp1674
Vis
p1675
atp1676
Rp1677
(dp1678
g12
VVBZ
p1679
sbag0
(g1
g2
(lp1680
g0
(g1
g2
(lp1681
Vrunning
p1682
atp1683
Rp1684
(dp1685
g12
VVBG
p1686
sbatp1687
Rp1688
(dp1689
g12
VVP
p1690
sbatp1691
Rp1692
(dp1693
g12
VVP
p1694
sbatp1695
Rp1696
(dp1697
g12
VS
p1698
sbag0
(g1
g2
(lp1699
V,
p1700
atp1701
Rp1702
(dp1703
g12
V,
p1704
sbag0
(g1
g2
(lp1705
g0
(g1
g2
(lp1706
g0
(g1
g2
(lp1707
Vthe
p1708
atp1709
Rp1710
(dp1711
g12
VDT
p1712
sbag0
(g1
g2
(lp1713
Vwater
p1714
atp1715
Rp1716
(dp1717
g12
VNN
p1718
sbatp1719
Rp1720
(dp1721
g12
VNP
p1722
sbag0
(g1
g2
(lp1723
g0
(g1
g2
(lp1724
Vis
p1725
atp1726
Rp1727
(dp1728
g12
VVBZ
p1729
sbag0
(g1
g2
(lp1730
g0
(g1
g2
(lp1731
Vrunning
p1732
atp1733
Rp1734
(dp1735
g12
VVBG
p1736
sbatp1737
Rp1738
(dp1739
g12
VVP
p1740
sbatp1741
Rp1742
(dp1743
g12
VVP
p1744
sbatp1745
Rp1746
(dp1747
g12
VS
p1748
sbag0
(g1
g2
(lp1749
V,
p1750
atp1751
Rp1752
(dp1753
g12
V,
p1754
sbag0
(g1
g2
(lp1755
g0
(g1
g2
(lp1756
g0
(g1
g2
(lp1757
VI
p1758
atp1759
Rp1760
(dp1761
g12
VPRP
p1762
sbatp1763
Rp1764
(dp1765
g12
VNP
p1766
sbag0
(g1
g2
(lp1767
g0
(g1
g2
(lp1768
Vsee
p1769
atp1770
Rp1771
(dp1772
g12
VVBP
p1773
sbag0
(g1
g2
(lp1774
g0
(g1
g2
(lp1775
g0
(g1
g2
(lp1776
g0
(g1
g2
(lp1777
g0
(g1
g2
(lp1778
Vthe
p1779
atp1780
Rp1781
(dp1782
g12
VDT
p1783
sbag0
(g1
g2
(lp1784
Vmama
p1785
atp1786
Rp1787
(dp1788
g12
VNN
p1789
sbatp1790
Rp1791
(dp1792
g12
VNP
p1793
sbag0
(g1
g2
(lp1794
V,
p1795
atp1796
Rp1797
(dp1798
g12
V,
p1799
sbag0
(g1
g2
(lp1800
g0
(g1
g2
(lp1801
Vthe
p1802
atp1803
Rp1804
(dp1805
g12
VDT
p1806
sbag0
(g1
g2
(lp1807
Vmother
p1808
atp1809
Rp1810
(dp1811
g12
VNN
p1812
sbatp1813
Rp1814
(dp1815
g12
VNP
p1816
sbag0
(g1
g2
(lp1817
V,
p1818
atp1819
Rp1820
(dp1821
g12
V,
p1822
sbatp1823
Rp1824
(dp1825
g12
VNP
p1826
sbag0
(g1
g2
(lp1827
g0
(g1
g2
(lp1828
Vhad
p1829
atp1830
Rp1831
(dp1832
g12
VVBD
p1833
sbag0
(g1
g2
(lp1834
Vn't
p1835
atp1836
Rp1837
(dp1838
g12
VRB
p1839
sbag0
(g1
g2
(lp1840
g0
(g1
g2
(lp1841
Vcut
p1842
atp1843
Rp1844
(dp1845
g12
VVB
p1846
sbag0
(g1
g2
(lp1847
g0
(g1
g2
(lp1848
Vthe
p1849
atp1850
Rp1851
(dp1852
g12
VDT
p1853
sbag0
(g1
g2
(lp1854
Vwater
p1855
atp1856
Rp1857
(dp1858
g12
VNN
p1859
sbatp1860
Rp1861
(dp1862
g12
VNP
p1863
sbag0
(g1
g2
(lp1864
g0
(g1
g2
(lp1865
Voff
p1866
atp1867
Rp1868
(dp1869
g12
VRP
p1870
sbatp1871
Rp1872
(dp1873
g12
VPRT
p1874
sbatp1875
Rp1876
(dp1877
g12
VVP
p1878
sbatp1879
Rp1880
(dp1881
g12
VVP
p1882
sbatp1883
Rp1884
(dp1885
g12
VS
p1886
sbatp1887
Rp1888
(dp1889
g12
VSBAR
p1890
sbatp1891
Rp1892
(dp1893
g12
VVP
p1894
sbatp1895
Rp1896
(dp1897
g12
VS
p1898
sbag0
(g1
g2
(lp1899
V,
p1900
atp1901
Rp1902
(dp1903
g12
V,
p1904
sbag0
(g1
g2
(lp1905
Vand
p1906
atp1907
Rp1908
(dp1909
g12
VCC
p1910
sbag0
(g1
g2
(lp1911
g0
(g1
g2
(lp1912
g0
(g1
g2
(lp1913
Vit
p1914
atp1915
Rp1916
(dp1917
g12
VPRP
p1918
sbatp1919
Rp1920
(dp1921
g12
VNP
p1922
sbag0
(g1
g2
(lp1923
g0
(g1
g2
(lp1924
Vis
p1925
atp1926
Rp1927
(dp1928
g12
VVBZ
p1929
sbag0
(g1
g2
(lp1930
g0
(g1
g2
(lp1931
Vrunning
p1932
atp1933
Rp1934
(dp1935
g12
VVBG
p1936
sbag0
(g1
g2
(lp1937
g0
(g1
g2
(lp1938
Vonto
p1939
atp1940
Rp1941
(dp1942
g12
VIN
p1943
sbag0
(g1
g2
(lp1944
g0
(g1
g2
(lp1945
Vthe
p1946
atp1947
Rp1948
(dp1949
g12
VDT
p1950
sbag0
(g1
g2
(lp1951
Vfloor
p1952
atp1953
Rp1954
(dp1955
g12
VNN
p1956
sbatp1957
Rp1958
(dp1959
g12
VNP
p1960
sbatp1961
Rp1962
(dp1963
g12
VPP
p1964
sbatp1965
Rp1966
(dp1967
g12
VVP
p1968
sbatp1969
Rp1970
(dp1971
g12
VVP
p1972
sbatp1973
Rp1974
(dp1975
g12
VS
p1976
sbag0
(g1
g2
(lp1977
V.
p1978
atp1979
Rp1980
(dp1981
g12
V.
p1982
sbatp1983
Rp1984
(dp1985
g12
VS
p1986
sbatp1987
Rp1988
(dp1989
g12
S'id: 9'
p1990
sbatp1991
Rp1992
(dp1993
g12
S'sentences'
p1994
sb.