ccopy_reg
_reconstructor
p0
(cnltk.tree
Tree
p1
c__builtin__
list
p2
(lp3
g0
(g1
g2
(lp4
g0
(g1
g2
(lp5
g0
(g1
g2
(lp6
Vwow
p7
atp8
Rp9
(dp10
S'_label'
p11
VNN
p12
sbag0
(g1
g2
(lp13
V.
p14
atp15
Rp16
(dp17
g11
V.
p18
sbatp19
Rp20
(dp21
g11
VNP
p22
sbatp23
Rp24
(dp25
g11
S'id: 0'
p26
sbag0
(g1
g2
(lp27
g0
(g1
g2
(lp28
g0
(g1
g2
(lp29
g0
(g1
g2
(lp30
VThis
p31
atp32
Rp33
(dp34
g11
VDT
p35
sbatp36
Rp37
(dp38
g11
VNP
p39
sbag0
(g1
g2
(lp40
g0
(g1
g2
(lp41
Vis
p42
atp43
Rp44
(dp45
g11
VVBZ
p46
sbag0
(g1
g2
(lp47
g0
(g1
g2
(lp48
Va
p49
atp50
Rp51
(dp52
g11
VDT
p53
sbag0
(g1
g2
(lp54
Vcircus
p55
atp56
Rp57
(dp58
g11
VNN
p59
sbatp60
Rp61
(dp62
g11
VNP
p63
sbatp64
Rp65
(dp66
g11
VVP
p67
sbag0
(g1
g2
(lp68
V.
p69
atp70
Rp71
(dp72
g11
V.
p73
sbatp74
Rp75
(dp76
g11
VS
p77
sbatp78
Rp79
(dp80
g11
S'id: 1'
p81
sbag0
(g1
g2
(lp82
g0
(g1
g2
(lp83
g0
(g1
g2
(lp84
g0
(g1
g2
(lp85
VLet
p86
atp87
Rp88
(dp89
g11
VVB
p90
sbag0
(g1
g2
(lp91
g0
(g1
g2
(lp92
g0
(g1
g2
(lp93
V's
p94
atp95
Rp96
(dp97
g11
VPRP
p98
sbatp99
Rp100
(dp101
g11
VNP
p102
sbag0
(g1
g2
(lp103
g0
(g1
g2
(lp104
Vstart
p105
atp106
Rp107
(dp108
g11
VVB
p109
sbag0
(g1
g2
(lp110
g0
(g1
g2
(lp111
Vat
p112
atp113
Rp114
(dp115
g11
VIN
p116
sbag0
(g1
g2
(lp117
g0
(g1
g2
(lp118
Vthe
p119
atp120
Rp121
(dp122
g11
VDT
p123
sbag0
(g1
g2
(lp124
Vtop
p125
atp126
Rp127
(dp128
g11
VNN
p129
sbatp130
Rp131
(dp132
g11
VNP
p133
sbatp134
Rp135
(dp136
g11
VPP
p137
sbatp138
Rp139
(dp140
g11
VVP
p141
sbatp142
Rp143
(dp144
g11
VS
p145
sbatp146
Rp147
(dp148
g11
VVP
p149
sbag0
(g1
g2
(lp150
V.
p151
atp152
Rp153
(dp154
g11
V.
p155
sbatp156
Rp157
(dp158
g11
VS
p159
sbatp160
Rp161
(dp162
g11
S'id: 2'
p163
sbag0
(g1
g2
(lp164
g0
(g1
g2
(lp165
g0
(g1
g2
(lp166
g0
(g1
g2
(lp167
g0
(g1
g2
(lp168
VWe
p169
atp170
Rp171
(dp172
g11
VPRP
p173
sbatp174
Rp175
(dp176
g11
VNP
p177
sbag0
(g1
g2
(lp178
g0
(g1
g2
(lp179
V've
p180
atp181
Rp182
(dp183
g11
VVBP
p184
sbag0
(g1
g2
(lp185
g0
(g1
g2
(lp186
Vgot
p187
atp188
Rp189
(dp190
g11
VVBD
p191
sbag0
(g1
g2
(lp192
g0
(g1
g2
(lp193
Va
p194
atp195
Rp196
(dp197
g11
VDT
p198
sbag0
(g1
g2
(lp199
Vtight
p200
atp201
Rp202
(dp203
g11
VJJ
p204
sbag0
(g1
g2
(lp205
Vrope
p206
atp207
Rp208
(dp209
g11
VNN
p210
sbag0
(g1
g2
(lp211
Vwalker
p212
atp213
Rp214
(dp215
g11
VNN
p216
sbatp217
Rp218
(dp219
g11
VNP
p220
sbag0
(g1
g2
(lp221
V,
p222
atp223
Rp224
(dp225
g11
V,
p226
sbag0
(g1
g2
(lp227
g0
(g1
g2
(lp228
g0
(g1
g2
(lp229
g0
(g1
g2
(lp230
Vbalancing
p231
atp232
Rp233
(dp234
g11
VVBG
p235
sbag0
(g1
g2
(lp236
g0
(g1
g2
(lp237
Vwith
p238
atp239
Rp240
(dp241
g11
VIN
p242
sbag0
(g1
g2
(lp243
g0
(g1
g2
(lp244
Vhis
p245
atp246
Rp247
(dp248
g11
VPRP$
p249
sbag0
(g1
g2
(lp250
Vbeam
p251
atp252
Rp253
(dp254
g11
VNN
p255
sbatp256
Rp257
(dp258
g11
VNP
p259
sbatp260
Rp261
(dp262
g11
VPP
p263
sbatp264
Rp265
(dp266
g11
VVP
p267
sbag0
(g1
g2
(lp268
V,
p269
atp270
Rp271
(dp272
g11
V,
p273
sbag0
(g1
g2
(lp274
g0
(g1
g2
(lp275
Vstarting
p276
atp277
Rp278
(dp279
g11
VVBG
p280
sbag0
(g1
g2
(lp281
g0
(g1
g2
(lp282
g0
(g1
g2
(lp283
Vto
p284
atp285
Rp286
(dp287
g11
VTO
p288
sbag0
(g1
g2
(lp289
g0
(g1
g2
(lp290
Vput
p291
atp292
Rp293
(dp294
g11
VVB
p295
sbag0
(g1
g2
(lp296
g0
(g1
g2
(lp297
Vhis
p298
atp299
Rp300
(dp301
g11
VPRP$
p302
sbag0
(g1
g2
(lp303
Vleft
p304
atp305
Rp306
(dp307
g11
VJJ
p308
sbag0
(g1
g2
(lp309
Vfoot
p310
atp311
Rp312
(dp313
g11
VNN
p314
sbatp315
Rp316
(dp317
g11
VNP
p318
sbag0
(g1
g2
(lp319
g0
(g1
g2
(lp320
Vdown
p321
atp322
Rp323
(dp324
g11
VRB
p325
sbatp326
Rp327
(dp328
g11
VADVP
p329
sbatp330
Rp331
(dp332
g11
VVP
p333
sbatp334
Rp335
(dp336
g11
VVP
p337
sbatp338
Rp339
(dp340
g11
VS
p341
sbatp342
Rp343
(dp344
g11
VVP
p345
sbatp346
Rp347
(dp348
g11
VVP
p349
sbatp350
Rp351
(dp352
g11
VS
p353
sbatp354
Rp355
(dp356
g11
VVP
p357
sbatp358
Rp359
(dp360
g11
VVP
p361
sbatp362
Rp363
(dp364
g11
VS
p365
sbag0
(g1
g2
(lp366
V,
p367
atp368
Rp369
(dp370
g11
V,
p371
sbag0
(g1
g2
(lp372
g0
(g1
g2
(lp373
Vhe
p374
atp375
Rp376
(dp377
g11
VPRP
p378
sbatp379
Rp380
(dp381
g11
VNP
p382
sbag0
(g1
g2
(lp383
g0
(g1
g2
(lp384
Vlooks
p385
atp386
Rp387
(dp388
g11
VVBZ
p389
sbag0
(g1
g2
(lp390
g0
(g1
g2
(lp391
Vlike
p392
atp393
Rp394
(dp395
g11
VIN
p396
sbag0
(g1
g2
(lp397
g0
(g1
g2
(lp398
g0
(g1
g2
(lp399
Vhe
p400
atp401
Rp402
(dp403
g11
VPRP
p404
sbatp405
Rp406
(dp407
g11
VNP
p408
sbag0
(g1
g2
(lp409
g0
(g1
g2
(lp410
V's
p411
atp412
Rp413
(dp414
g11
VVBZ
p415
sbag0
(g1
g2
(lp416
g0
(g1
g2
(lp417
Vin
p418
atp419
Rp420
(dp421
g11
VIN
p422
sbag0
(g1
g2
(lp423
g0
(g1
g2
(lp424
Vcontrol
p425
atp426
Rp427
(dp428
g11
VNN
p429
sbatp430
Rp431
(dp432
g11
VNP
p433
sbatp434
Rp435
(dp436
g11
VPP
p437
sbatp438
Rp439
(dp440
g11
VVP
p441
sbatp442
Rp443
(dp444
g11
VS
p445
sbatp446
Rp447
(dp448
g11
VSBAR
p449
sbatp450
Rp451
(dp452
g11
VVP
p453
sbag0
(g1
g2
(lp454
V.
p455
atp456
Rp457
(dp458
g11
V.
p459
sbatp460
Rp461
(dp462
g11
VS
p463
sbatp464
Rp465
(dp466
g11
S'id: 3'
p467
sbag0
(g1
g2
(lp468
g0
(g1
g2
(lp469
g0
(g1
g2
(lp470
g0
(g1
g2
(lp471
g0
(g1
g2
(lp472
g0
(g1
g2
(lp473
VMoving
p474
atp475
Rp476
(dp477
g11
VVBG
p478
sbag0
(g1
g2
(lp479
g0
(g1
g2
(lp480
Vdown
p481
atp482
Rp483
(dp484
g11
VRP
p485
sbatp486
Rp487
(dp488
g11
VPRT
p489
sbag0
(g1
g2
(lp490
g0
(g1
g2
(lp491
Va
p492
atp493
Rp494
(dp495
g11
VDT
p496
sbag0
(g1
g2
(lp497
Vlittle
p498
atp499
Rp500
(dp501
g11
VJJ
p502
sbag0
(g1
g2
(lp503
Vbit
p504
atp505
Rp506
(dp507
g11
VNN
p508
sbatp509
Rp510
(dp511
g11
VNP
p512
sbatp513
Rp514
(dp515
g11
VVP
p516
sbatp517
Rp518
(dp519
g11
VS
p520
sbag0
(g1
g2
(lp521
V,
p522
atp523
Rp524
(dp525
g11
V,
p526
sbag0
(g1
g2
(lp527
g0
(g1
g2
(lp528
Vwe
p529
atp530
Rp531
(dp532
g11
VPRP
p533
sbatp534
Rp535
(dp536
g11
VNP
p537
sbag0
(g1
g2
(lp538
g0
(g1
g2
(lp539
V've
p540
atp541
Rp542
(dp543
g11
VVBP
p544
sbag0
(g1
g2
(lp545
g0
(g1
g2
(lp546
Vgot
p547
atp548
Rp549
(dp550
g11
VVBD
p551
sbag0
(g1
g2
(lp552
g0
(g1
g2
(lp553
Vthe
p554
atp555
Rp556
(dp557
g11
VDT
p558
sbag0
(g1
g2
(lp559
Vlion
p560
atp561
Rp562
(dp563
g11
VNN
p564
sbatp565
Rp566
(dp567
g11
VNP
p568
sbag0
(g1
g2
(lp569
g0
(g1
g2
(lp570
Vin
p571
atp572
Rp573
(dp574
g11
VIN
p575
sbag0
(g1
g2
(lp576
Va
p577
atp578
Rp579
(dp580
g11
VDT
p581
sbatp582
Rp583
(dp584
g11
VADVP
p585
sbatp586
Rp587
(dp588
g11
VVP
p589
sbatp590
Rp591
(dp592
g11
VVP
p593
sbatp594
Rp595
(dp596
g11
VS
p597
sbag0
(g1
g2
(lp598
V,
p599
atp600
Rp601
(dp602
g11
V,
p603
sbag0
(g1
g2
(lp604
g0
(g1
g2
(lp605
Vit
p606
atp607
Rp608
(dp609
g11
VPRP
p610
sbatp611
Rp612
(dp613
g11
VNP
p614
sbag0
(g1
g2
(lp615
g0
(g1
g2
(lp616
V's
p617
atp618
Rp619
(dp620
g11
VVBZ
p621
sbag0
(g1
g2
(lp622
g0
(g1
g2
(lp623
g0
(g1
g2
(lp624
Va
p625
atp626
Rp627
(dp628
g11
VDT
p629
sbag0
(g1
g2
(lp630
Vround
p631
atp632
Rp633
(dp634
g11
VJJ
p635
sbag0
(g1
g2
(lp636
Vcage
p637
atp638
Rp639
(dp640
g11
VNN
p641
sbatp642
Rp643
(dp644
g11
VNP
p645
sbag0
(g1
g2
(lp646
V,
p647
atp648
Rp649
(dp650
g11
V,
p651
sbag0
(g1
g2
(lp652
g0
(g1
g2
(lp653
Von
p654
atp655
Rp656
(dp657
g11
VIN
p658
sbag0
(g1
g2
(lp659
g0
(g1
g2
(lp660
g0
(g1
g2
(lp661
Va
p662
atp663
Rp664
(dp665
g11
VDT
p666
sbag0
(g1
g2
(lp667
Vlion
p668
atp669
Rp670
(dp671
g11
VNN
p672
sbatp673
Rp674
(dp675
g11
VNP
p676
sbag0
(g1
g2
(lp677
g0
(g1
g2
(lp678
Vsitting
p679
atp680
Rp681
(dp682
g11
VVBG
p683
sbag0
(g1
g2
(lp684
g0
(g1
g2
(lp685
Vup
p686
atp687
Rp688
(dp689
g11
VRP
p690
sbatp691
Rp692
(dp693
g11
VPRT
p694
sbag0
(g1
g2
(lp695
g0
(g1
g2
(lp696
Von
p697
atp698
Rp699
(dp700
g11
VIN
p701
sbag0
(g1
g2
(lp702
g0
(g1
g2
(lp703
Vhis
p704
atp705
Rp706
(dp707
g11
VPRP$
p708
sbag0
(g1
g2
(lp709
Vhind
p710
atp711
Rp712
(dp713
g11
VJJ
p714
sbag0
(g1
g2
(lp715
Vquarters
p716
atp717
Rp718
(dp719
g11
VNNS
p720
sbatp721
Rp722
(dp723
g11
VNP
p724
sbatp725
Rp726
(dp727
g11
VPP
p728
sbag0
(g1
g2
(lp729
V,
p730
atp731
Rp732
(dp733
g11
V,
p734
sbag0
(g1
g2
(lp735
g0
(g1
g2
(lp736
g0
(g1
g2
(lp737
Vraising
p738
atp739
Rp740
(dp741
g11
VVBG
p742
sbag0
(g1
g2
(lp743
g0
(g1
g2
(lp744
Vhis
p745
atp746
Rp747
(dp748
g11
VPRP$
p749
sbag0
(g1
g2
(lp750
Vleft
p751
atp752
Rp753
(dp754
g11
VJJ
p755
sbag0
(g1
g2
(lp756
Vpaw
p757
atp758
Rp759
(dp760
g11
VNN
p761
sbatp762
Rp763
(dp764
g11
VNP
p765
sbag0
(g1
g2
(lp766
g0
(g1
g2
(lp767
Vin
p768
atp769
Rp770
(dp771
g11
VIN
p772
sbag0
(g1
g2
(lp773
g0
(g1
g2
(lp774
Vresponse
p775
atp776
Rp777
(dp778
g11
VNN
p779
sbatp780
Rp781
(dp782
g11
VNP
p783
sbatp784
Rp785
(dp786
g11
VPP
p787
sbag0
(g1
g2
(lp788
g0
(g1
g2
(lp789
Vto
p790
atp791
Rp792
(dp793
g11
VTO
p794
sbag0
(g1
g2
(lp795
g0
(g1
g2
(lp796
Vhis
p797
atp798
Rp799
(dp800
g11
VPRP$
p801
sbag0
(g1
g2
(lp802
Vlion
p803
atp804
Rp805
(dp806
g11
VNN
p807
sbag0
(g1
g2
(lp808
Vtrainer
p809
atp810
Rp811
(dp812
g11
VNN
p813
sbatp814
Rp815
(dp816
g11
VNP
p817
sbatp818
Rp819
(dp820
g11
VPP
p821
sbatp822
Rp823
(dp824
g11
VVP
p825
sbatp826
Rp827
(dp828
g11
VS
p829
sbatp830
Rp831
(dp832
g11
VVP
p833
sbatp834
Rp835
(dp836
g11
VNP
p837
sbatp838
Rp839
(dp840
g11
VPP
p841
sbag0
(g1
g2
(lp842
V,
p843
atp844
Rp845
(dp846
g11
V,
p847
sbag0
(g1
g2
(lp848
g0
(g1
g2
(lp849
g0
(g1
g2
(lp850
Vwho
p851
atp852
Rp853
(dp854
g11
VWP
p855
sbatp856
Rp857
(dp858
g11
VWHNP
p859
sbag0
(g1
g2
(lp860
g0
(g1
g2
(lp861
g0
(g1
g2
(lp862
V's
p863
atp864
Rp865
(dp866
g11
VVBZ
p867
sbag0
(g1
g2
(lp868
g0
(g1
g2
(lp869
Vraising
p870
atp871
Rp872
(dp873
g11
VVBG
p874
sbag0
(g1
g2
(lp875
g0
(g1
g2
(lp876
g0
(g1
g2
(lp877
g0
(g1
g2
(lp878
Vhis
p879
atp880
Rp881
(dp882
g11
VPRP$
p883
sbag0
(g1
g2
(lp884
Vhand
p885
atp886
Rp887
(dp888
g11
VNN
p889
sbatp890
Rp891
(dp892
g11
VNP
p893
sbag0
(g1
g2
(lp894
V,
p895
atp896
Rp897
(dp898
g11
V,
p899
sbag0
(g1
g2
(lp900
g0
(g1
g2
(lp901
Vhis
p902
atp903
Rp904
(dp905
g11
VPRP$
p906
sbag0
(g1
g2
(lp907
Vright
p908
atp909
Rp910
(dp911
g11
VJJ
p912
sbag0
(g1
g2
(lp913
Vhand
p914
atp915
Rp916
(dp917
g11
VNN
p918
sbatp919
Rp920
(dp921
g11
VNP
p922
sbag0
(g1
g2
(lp923
V,
p924
atp925
Rp926
(dp927
g11
V,
p928
sbatp929
Rp930
(dp931
g11
VNP
p932
sbag0
(g1
g2
(lp933
g0
(g1
g2
(lp934
Vfor
p935
atp936
Rp937
(dp938
g11
VIN
p939
sbag0
(g1
g2
(lp940
g0
(g1
g2
(lp941
Vthe
p942
atp943
Rp944
(dp945
g11
VDT
p946
sbag0
(g1
g2
(lp947
Vlion
p948
atp949
Rp950
(dp951
g11
VNN
p952
sbatp953
Rp954
(dp955
g11
VNP
p956
sbatp957
Rp958
(dp959
g11
VPP
p960
sbatp961
Rp962
(dp963
g11
VNP
p964
sbag0
(g1
g2
(lp965
g0
(g1
g2
(lp966
g0
(g1
g2
(lp967
Vto
p968
atp969
Rp970
(dp971
g11
VTO
p972
sbag0
(g1
g2
(lp973
g0
(g1
g2
(lp974
Vraise
p975
atp976
Rp977
(dp978
g11
VVB
p979
sbag0
(g1
g2
(lp980
g0
(g1
g2
(lp981
Vhis
p982
atp983
Rp984
(dp985
g11
VPRP$
p986
sbag0
(g1
g2
(lp987
Vleft
p988
atp989
Rp990
(dp991
g11
VJJ
p992
sbag0
(g1
g2
(lp993
Vpaw
p994
atp995
Rp996
(dp997
g11
VNN
p998
sbatp999
Rp1000
(dp1001
g11
VNP
p1002
sbatp1003
Rp1004
(dp1005
g11
VVP
p1006
sbatp1007
Rp1008
(dp1009
g11
VVP
p1010
sbatp1011
Rp1012
(dp1013
g11
VS
p1014
sbatp1015
Rp1016
(dp1017
g11
VVP
p1018
sbatp1019
Rp1020
(dp1021
g11
VVP
p1022
sbatp1023
Rp1024
(dp1025
g11
VS
p1026
sbatp1027
Rp1028
(dp1029
g11
VSBAR
p1030
sbatp1031
Rp1032
(dp1033
g11
VNP
p1034
sbatp1035
Rp1036
(dp1037
g11
VVP
p1038
sbag0
(g1
g2
(lp1039
V.
p1040
atp1041
Rp1042
(dp1043
g11
V.
p1044
sbatp1045
Rp1046
(dp1047
g11
VS
p1048
sbatp1049
Rp1050
(dp1051
g11
S'id: 4'
p1052
sbag0
(g1
g2
(lp1053
g0
(g1
g2
(lp1054
g0
(g1
g2
(lp1055
VAnd
p1056
atp1057
Rp1058
(dp1059
g11
VCC
p1060
sbag0
(g1
g2
(lp1061
g0
(g1
g2
(lp1062
Vthe
p1063
atp1064
Rp1065
(dp1066
g11
VDT
p1067
sbag0
(g1
g2
(lp1068
Vlion
p1069
atp1070
Rp1071
(dp1072
g11
VNN
p1073
sbag0
(g1
g2
(lp1074
Vtrainer
p1075
atp1076
Rp1077
(dp1078
g11
VNN
p1079
sbatp1080
Rp1081
(dp1082
g11
VNP
p1083
sbag0
(g1
g2
(lp1084
g0
(g1
g2
(lp1085
Vhas
p1086
atp1087
Rp1088
(dp1089
g11
VVBZ
p1090
sbag0
(g1
g2
(lp1091
g0
(g1
g2
(lp1092
g0
(g1
g2
(lp1093
Va
p1094
atp1095
Rp1096
(dp1097
g11
VDT
p1098
sbag0
(g1
g2
(lp1099
Vnice
p1100
atp1101
Rp1102
(dp1103
g11
VJJ
p1104
sbag0
(g1
g2
(lp1105
Vlittle
p1106
atp1107
Rp1108
(dp1109
g11
VJJ
p1110
sbag0
(g1
g2
(lp1111
Vtop
p1112
atp1113
Rp1114
(dp1115
g11
VJJ
p1116
sbag0
(g1
g2
(lp1117
Vhat
p1118
atp1119
Rp1120
(dp1121
g11
VNN
p1122
sbatp1123
Rp1124
(dp1125
g11
VNP
p1126
sbag0
(g1
g2
(lp1127
g0
(g1
g2
(lp1128
Von
p1129
atp1130
Rp1131
(dp1132
g11
VIN
p1133
sbag0
(g1
g2
(lp1134
g0
(g1
g2
(lp1135
V,
p1136
atp1137
Rp1138
(dp1139
g11
V,
p1140
sbag0
(g1
g2
(lp1141
g0
(g1
g2
(lp1142
g0
(g1
g2
(lp1143
Vhe
p1144
atp1145
Rp1146
(dp1147
g11
VPRP
p1148
sbatp1149
Rp1150
(dp1151
g11
VNP
p1152
sbag0
(g1
g2
(lp1153
g0
(g1
g2
(lp1154
Vhas
p1155
atp1156
Rp1157
(dp1158
g11
VVBZ
p1159
sbag0
(g1
g2
(lp1160
g0
(g1
g2
(lp1161
g0
(g1
g2
(lp1162
Va
p1163
atp1164
Rp1165
(dp1166
g11
VDT
p1167
sbatp1168
Rp1169
(dp1170
g11
VNP
p1171
sbag0
(g1
g2
(lp1172
V,
p1173
atp1174
Rp1175
(dp1176
g11
V,
p1177
sbag0
(g1
g2
(lp1178
g0
(g1
g2
(lp1179
g0
(g1
g2
(lp1180
g0
(g1
g2
(lp1181
Vlooks
p1182
atp1183
Rp1184
(dp1185
g11
VVBZ
p1186
sbag0
(g1
g2
(lp1187
g0
(g1
g2
(lp1188
Vlike
p1189
atp1190
Rp1191
(dp1192
g11
VIN
p1193
sbag0
(g1
g2
(lp1194
g0
(g1
g2
(lp1195
Va
p1196
atp1197
Rp1198
(dp1199
g11
VDT
p1200
sbag0
(g1
g2
(lp1201
Vtweed
p1202
atp1203
Rp1204
(dp1205
g11
VNN
p1206
sbag0
(g1
g2
(lp1207
Vtux
p1208
atp1209
Rp1210
(dp1211
g11
VNN
p1212
sbatp1213
Rp1214
(dp1215
g11
VNP
p1216
sbatp1217
Rp1218
(dp1219
g11
VPP
p1220
sbatp1221
Rp1222
(dp1223
g11
VVP
p1224
sbatp1225
Rp1226
(dp1227
g11
VS
p1228
sbatp1229
Rp1230
(dp1231
g11
VSBAR
p1232
sbatp1233
Rp1234
(dp1235
g11
VNP
p1236
sbatp1237
Rp1238
(dp1239
g11
VVP
p1240
sbatp1241
Rp1242
(dp1243
g11
VS
p1244
sbag0
(g1
g2
(lp1245
V,
p1246
atp1247
Rp1248
(dp1249
g11
V,
p1250
sbatp1251
Rp1252
(dp1253
g11
VPRN
p1254
sbag0
(g1
g2
(lp1255
g0
(g1
g2
(lp1256
g0
(g1
g2
(lp1257
Vkind
p1258
atp1259
Rp1260
(dp1261
g11
VNN
p1262
sbatp1263
Rp1264
(dp1265
g11
VNP
p1266
sbag0
(g1
g2
(lp1267
g0
(g1
g2
(lp1268
Vof
p1269
atp1270
Rp1271
(dp1272
g11
VIN
p1273
sbag0
(g1
g2
(lp1274
g0
(g1
g2
(lp1275
Vweird
p1276
atp1277
Rp1278
(dp1279
g11
VJJ
p1280
sbag0
(g1
g2
(lp1281
V,
p1282
atp1283
Rp1284
(dp1285
g11
V,
p1286
sbag0
(g1
g2
(lp1287
Vcom
p1288
atp1289
Rp1290
(dp1291
g11
VNN
p1292
sbag0
(g1
g2
(lp1293
Vcomber
p1294
atp1295
Rp1296
(dp1297
g11
VNN
p1298
sbag0
(g1
g2
(lp1299
Vbun
p1300
atp1301
Rp1302
(dp1303
g11
VNN
p1304
sbag0
(g1
g2
(lp1305
V,
p1306
atp1307
Rp1308
(dp1309
g11
V,
p1310
sbag0
(g1
g2
(lp1311
Vdark
p1312
atp1313
Rp1314
(dp1315
g11
VJJ
p1316
sbag0
(g1
g2
(lp1317
Vpants
p1318
atp1319
Rp1320
(dp1321
g11
VNNS
p1322
sbatp1323
Rp1324
(dp1325
g11
VNP
p1326
sbatp1327
Rp1328
(dp1329
g11
VPP
p1330
sbatp1331
Rp1332
(dp1333
g11
VNP
p1334
sbatp1335
Rp1336
(dp1337
g11
VPP
p1338
sbatp1339
Rp1340
(dp1341
g11
VNP
p1342
sbatp1343
Rp1344
(dp1345
g11
VVP
p1346
sbag0
(g1
g2
(lp1347
V.
p1348
atp1349
Rp1350
(dp1351
g11
V.
p1352
sbatp1353
Rp1354
(dp1355
g11
VS
p1356
sbatp1357
Rp1358
(dp1359
g11
S'id: 5'
p1360
sbag0
(g1
g2
(lp1361
g0
(g1
g2
(lp1362
g0
(g1
g2
(lp1363
VAnd
p1364
atp1365
Rp1366
(dp1367
g11
VCC
p1368
sbag0
(g1
g2
(lp1369
g0
(g1
g2
(lp1370
g0
(g1
g2
(lp1371
g0
(g1
g2
(lp1372
Vthe
p1373
atp1374
Rp1375
(dp1376
g11
VDT
p1377
sbag0
(g1
g2
(lp1378
Vlion
p1379
atp1380
Rp1381
(dp1382
g11
VNN
p1383
sbatp1384
Rp1385
(dp1386
g11
VNP
p1387
sbag0
(g1
g2
(lp1388
g0
(g1
g2
(lp1389
g0
(g1
g2
(lp1390
g0
(g1
g2
(lp1391
V's
p1392
atp1393
Rp1394
(dp1395
g11
VPOS
p1396
sbatp1397
Rp1398
(dp1399
g11
VNP
p1400
sbatp1401
Rp1402
(dp1403
g11
VS
p1404
sbag0
(g1
g2
(lp1405
g0
(g1
g2
(lp1406
Vup
p1407
atp1408
Rp1409
(dp1410
g11
VRP
p1411
sbatp1412
Rp1413
(dp1414
g11
VPP
p1415
sbatp1416
Rp1417
(dp1418
g11
VVP
p1419
sbatp1420
Rp1421
(dp1422
g11
VNP
p1423
sbag0
(g1
g2
(lp1424
g0
(g1
g2
(lp1425
Von
p1426
atp1427
Rp1428
(dp1429
g11
VIN
p1430
sbag0
(g1
g2
(lp1431
g0
(g1
g2
(lp1432
Va
p1433
atp1434
Rp1435
(dp1436
g11
VDT
p1437
sbag0
(g1
g2
(lp1438
g0
(g1
g2
(lp1439
V,
p1440
atp1441
Rp1442
(dp1443
g11
V,
p1444
sbag0
(g1
g2
(lp1445
g0
(g1
g2
(lp1446
Vupside
p1447
atp1448
Rp1449
(dp1450
g11
VRB
p1451
sbag0
(g1
g2
(lp1452
Vdown
p1453
atp1454
Rp1455
(dp1456
g11
VIN
p1457
sbatp1458
Rp1459
(dp1460
g11
VADVP
p1461
sbag0
(g1
g2
(lp1462
g0
(g1
g2
(lp1463
g0
(g1
g2
(lp1464
Vtable
p1465
atp1466
Rp1467
(dp1468
g11
VNN
p1469
sbatp1470
Rp1471
(dp1472
g11
VNP
p1473
sbag0
(g1
g2
(lp1474
V,
p1475
atp1476
Rp1477
(dp1478
g11
V,
p1479
sbag0
(g1
g2
(lp1480
g0
(g1
g2
(lp1481
Vtub
p1482
atp1483
Rp1484
(dp1485
g11
VNN
p1486
sbatp1487
Rp1488
(dp1489
g11
VNP
p1490
sbatp1491
Rp1492
(dp1493
g11
VNP
p1494
sbatp1495
Rp1496
(dp1497
g11
VPRN
p1498
sbatp1499
Rp1500
(dp1501
g11
VNP
p1502
sbatp1503
Rp1504
(dp1505
g11
VPP
p1506
sbatp1507
Rp1508
(dp1509
g11
VNP
p1510
sbag0
(g1
g2
(lp1511
V.
p1512
atp1513
Rp1514
(dp1515
g11
V.
p1516
sbatp1517
Rp1518
(dp1519
g11
VFRAG
p1520
sbatp1521
Rp1522
(dp1523
g11
S'id: 6'
p1524
sbag0
(g1
g2
(lp1525
g0
(g1
g2
(lp1526
g0
(g1
g2
(lp1527
g0
(g1
g2
(lp1528
VBlack
p1529
atp1530
Rp1531
(dp1532
g11
VJJ
p1533
sbag0
(g1
g2
(lp1534
Vand
p1535
atp1536
Rp1537
(dp1538
g11
VCC
p1539
sbag0
(g1
g2
(lp1540
Vwhite
p1541
atp1542
Rp1543
(dp1544
g11
VJJ
p1545
sbag0
(g1
g2
(lp1546
Vstripes
p1547
atp1548
Rp1549
(dp1550
g11
VNNS
p1551
sbatp1552
Rp1553
(dp1554
g11
VNP
p1555
sbag0
(g1
g2
(lp1556
V,
p1557
atp1558
Rp1559
(dp1560
g11
V,
p1561
sbag0
(g1
g2
(lp1562
g0
(g1
g2
(lp1563
Vvery
p1564
atp1565
Rp1566
(dp1567
g11
VRB
p1568
sbag0
(g1
g2
(lp1569
Vwide
p1570
atp1571
Rp1572
(dp1573
g11
VJJ
p1574
sbag0
(g1
g2
(lp1575
Vstripes
p1576
atp1577
Rp1578
(dp1579
g11
VNNS
p1580
sbatp1581
Rp1582
(dp1583
g11
VNP
p1584
sbag0
(g1
g2
(lp1585
V.
p1586
atp1587
Rp1588
(dp1589
g11
V.
p1590
sbatp1591
Rp1592
(dp1593
g11
VNP
p1594
sbatp1595
Rp1596
(dp1597
g11
S'id: 7'
p1598
sbag0
(g1
g2
(lp1599
g0
(g1
g2
(lp1600
g0
(g1
g2
(lp1601
VAnd
p1602
atp1603
Rp1604
(dp1605
g11
VCC
p1606
sbag0
(g1
g2
(lp1607
g0
(g1
g2
(lp1608
g0
(g1
g2
(lp1609
Vwatching
p1610
atp1611
Rp1612
(dp1613
g11
VVBG
p1614
sbag0
(g1
g2
(lp1615
g0
(g1
g2
(lp1616
Vthe
p1617
atp1618
Rp1619
(dp1620
g11
VDT
p1621
sbag0
(g1
g2
(lp1622
Vlion
p1623
atp1624
Rp1625
(dp1626
g11
VNN
p1627
sbatp1628
Rp1629
(dp1630
g11
VNP
p1631
sbatp1632
Rp1633
(dp1634
g11
VVP
p1635
sbatp1636
Rp1637
(dp1638
g11
VS
p1639
sbag0
(g1
g2
(lp1640
V,
p1641
atp1642
Rp1643
(dp1644
g11
V,
p1645
sbag0
(g1
g2
(lp1646
g0
(g1
g2
(lp1647
VI
p1648
atp1649
Rp1650
(dp1651
g11
VPRP
p1652
sbatp1653
Rp1654
(dp1655
g11
VNP
p1656
sbag0
(g1
g2
(lp1657
g0
(g1
g2
(lp1658
Vthink
p1659
atp1660
Rp1661
(dp1662
g11
VVBP
p1663
sbag0
(g1
g2
(lp1664
g0
(g1
g2
(lp1665
g0
(g1
g2
(lp1666
g0
(g1
g2
(lp1667
Vis
p1668
atp1669
Rp1670
(dp1671
g11
VVBZ
p1672
sbag0
(g1
g2
(lp1673
g0
(g1
g2
(lp1674
Va
p1675
atp1676
Rp1677
(dp1678
g11
VDT
p1679
sbag0
(g1
g2
(lp1680
Vlittle
p1681
atp1682
Rp1683
(dp1684
g11
VJJ
p1685
sbag0
(g1
g2
(lp1686
Vgirl
p1687
atp1688
Rp1689
(dp1690
g11
VNN
p1691
sbatp1692
Rp1693
(dp1694
g11
VNP
p1695
sbag0
(g1
g2
(lp1696
V,
p1697
atp1698
Rp1699
(dp1700
g11
V,
p1701
sbag0
(g1
g2
(lp1702
g0
(g1
g2
(lp1703
Vunless
p1704
atp1705
Rp1706
(dp1707
g11
VIN
p1708
sbag0
(g1
g2
(lp1709
g0
(g1
g2
(lp1710
g0
(g1
g2
(lp1711
Vshe
p1712
atp1713
Rp1714
(dp1715
g11
VPRP
p1716
sbatp1717
Rp1718
(dp1719
g11
VNP
p1720
sbag0
(g1
g2
(lp1721
g0
(g1
g2
(lp1722
V's
p1723
atp1724
Rp1725
(dp1726
g11
VVBZ
p1727
sbag0
(g1
g2
(lp1728
g0
(g1
g2
(lp1729
Vlooking
p1730
atp1731
Rp1732
(dp1733
g11
VVBG
p1734
sbag0
(g1
g2
(lp1735
g0
(g1
g2
(lp1736
Vat
p1737
atp1738
Rp1739
(dp1740
g11
VIN
p1741
sbag0
(g1
g2
(lp1742
g0
(g1
g2
(lp1743
Vthe
p1744
atp1745
Rp1746
(dp1747
g11
VDT
p1748
sbag0
(g1
g2
(lp1749
Vclown
p1750
atp1751
Rp1752
(dp1753
g11
VNN
p1754
sbatp1755
Rp1756
(dp1757
g11
VNP
p1758
sbatp1759
Rp1760
(dp1761
g11
VPP
p1762
sbatp1763
Rp1764
(dp1765
g11
VVP
p1766
sbatp1767
Rp1768
(dp1769
g11
VVP
p1770
sbatp1771
Rp1772
(dp1773
g11
VS
p1774
sbatp1775
Rp1776
(dp1777
g11
VSBAR
p1778
sbatp1779
Rp1780
(dp1781
g11
VVP
p1782
sbatp1783
Rp1784
(dp1785
g11
VS
p1786
sbatp1787
Rp1788
(dp1789
g11
VSBAR
p1790
sbatp1791
Rp1792
(dp1793
g11
VVP
p1794
sbag0
(g1
g2
(lp1795
V.
p1796
atp1797
Rp1798
(dp1799
g11
V.
p1800
sbatp1801
Rp1802
(dp1803
g11
VS
p1804
sbatp1805
Rp1806
(dp1807
g11
S'id: 8'
p1808
sbag0
(g1
g2
(lp1809
g0
(g1
g2
(lp1810
g0
(g1
g2
(lp1811
g0
(g1
g2
(lp1812
VThere
p1813
atp1814
Rp1815
(dp1816
g11
VEX
p1817
sbatp1818
Rp1819
(dp1820
g11
VNP
p1821
sbag0
(g1
g2
(lp1822
g0
(g1
g2
(lp1823
V's
p1824
atp1825
Rp1826
(dp1827
g11
VVBZ
p1828
sbag0
(g1
g2
(lp1829
g0
(g1
g2
(lp1830
g0
(g1
g2
(lp1831
Va
p1832
atp1833
Rp1834
(dp1835
g11
VDT
p1836
sbag0
(g1
g2
(lp1837
Vman
p1838
atp1839
Rp1840
(dp1841
g11
VNN
p1842
sbatp1843
Rp1844
(dp1845
g11
VNP
p1846
sbag0
(g1
g2
(lp1847
g0
(g1
g2
(lp1848
Vin
p1849
atp1850
Rp1851
(dp1852
g11
VIN
p1853
sbag0
(g1
g2
(lp1854
g0
(g1
g2
(lp1855
g0
(g1
g2
(lp1856
Vthe
p1857
atp1858
Rp1859
(dp1860
g11
VDT
p1861
sbag0
(g1
g2
(lp1862
Vbottom
p1863
atp1864
Rp1865
(dp1866
g11
VJJ
p1867
sbag0
(g1
g2
(lp1868
Vright
p1869
atp1870
Rp1871
(dp1872
g11
VJJ
p1873
sbag0
(g1
g2
(lp1874
Vhand
p1875
atp1876
Rp1877
(dp1878
g11
VNN
p1879
sbatp1880
Rp1881
(dp1882
g11
VNP
p1883
sbag0
(g1
g2
(lp1884
V,
p1885
atp1886
Rp1887
(dp1888
g11
V,
p1889
sbag0
(g1
g2
(lp1890
g0
(g1
g2
(lp1891
Vbottom
p1892
atp1893
Rp1894
(dp1895
g11
VJJ
p1896
sbag0
(g1
g2
(lp1897
Vleft
p1898
atp1899
Rp1900
(dp1901
g11
VJJ
p1902
sbag0
(g1
g2
(lp1903
Vhand
p1904
atp1905
Rp1906
(dp1907
g11
VNN
p1908
sbag0
(g1
g2
(lp1909
Vcorner
p1910
atp1911
Rp1912
(dp1913
g11
VNN
p1914
sbatp1915
Rp1916
(dp1917
g11
VNP
p1918
sbag0
(g1
g2
(lp1919
V,
p1920
atp1921
Rp1922
(dp1923
g11
V,
p1924
sbag0
(g1
g2
(lp1925
g0
(g1
g2
(lp1926
g0
(g1
g2
(lp1927
Vwho
p1928
atp1929
Rp1930
(dp1931
g11
VWP
p1932
sbatp1933
Rp1934
(dp1935
g11
VWHNP
p1936
sbag0
(g1
g2
(lp1937
g0
(g1
g2
(lp1938
g0
(g1
g2
(lp1939
V's
p1940
atp1941
Rp1942
(dp1943
g11
VVBZ
p1944
sbag0
(g1
g2
(lp1945
g0
(g1
g2
(lp1946
Vlooking
p1947
atp1948
Rp1949
(dp1950
g11
VVBG
p1951
sbag0
(g1
g2
(lp1952
g0
(g1
g2
(lp1953
Vat
p1954
atp1955
Rp1956
(dp1957
g11
VIN
p1958
sbag0
(g1
g2
(lp1959
g0
(g1
g2
(lp1960
g0
(g1
g2
(lp1961
Vthe
p1962
atp1963
Rp1964
(dp1965
g11
VDT
p1966
sbag0
(g1
g2
(lp1967
Vclown
p1968
atp1969
Rp1970
(dp1971
g11
VNN
p1972
sbatp1973
Rp1974
(dp1975
g11
VNP
p1976
sbag0
(g1
g2
(lp1977
V,
p1978
atp1979
Rp1980
(dp1981
g11
V,
p1982
sbag0
(g1
g2
(lp1983
g0
(g1
g2
(lp1984
g0
(g1
g2
(lp1985
Vwho
p1986
atp1987
Rp1988
(dp1989
g11
VWP
p1990
sbatp1991
Rp1992
(dp1993
g11
VWHNP
p1994
sbag0
(g1
g2
(lp1995
g0
(g1
g2
(lp1996
g0
(g1
g2
(lp1997
V's
p1998
atp1999
Rp2000
(dp2001
g11
VVBZ
p2002
sbag0
(g1
g2
(lp2003
g0
(g1
g2
(lp2004
Vin
p2005
atp2006
Rp2007
(dp2008
g11
VIN
p2009
sbag0
(g1
g2
(lp2010
g0
(g1
g2
(lp2011
g0
(g1
g2
(lp2012
Vthe
p2013
atp2014
Rp2015
(dp2016
g11
VDT
p2017
sbag0
(g1
g2
(lp2018
Vmiddle
p2019
atp2020
Rp2021
(dp2022
g11
VNN
p2023
sbatp2024
Rp2025
(dp2026
g11
VNP
p2027
sbag0
(g1
g2
(lp2028
g0
(g1
g2
(lp2029
Vof
p2030
atp2031
Rp2032
(dp2033
g11
VIN
p2034
sbag0
(g1
g2
(lp2035
g0
(g1
g2
(lp2036
Vthe
p2037
atp2038
Rp2039
(dp2040
g11
VDT
p2041
sbag0
(g1
g2
(lp2042
Vpicture
p2043
atp2044
Rp2045
(dp2046
g11
VNN
p2047
sbatp2048
Rp2049
(dp2050
g11
VNP
p2051
sbatp2052
Rp2053
(dp2054
g11
VPP
p2055
sbatp2056
Rp2057
(dp2058
g11
VNP
p2059
sbatp2060
Rp2061
(dp2062
g11
VPP
p2063
sbatp2064
Rp2065
(dp2066
g11
VVP
p2067
sbatp2068
Rp2069
(dp2070
g11
VS
p2071
sbatp2072
Rp2073
(dp2074
g11
VSBAR
p2075
sbatp2076
Rp2077
(dp2078
g11
VNP
p2079
sbatp2080
Rp2081
(dp2082
g11
VPP
p2083
sbatp2084
Rp2085
(dp2086
g11
VVP
p2087
sbatp2088
Rp2089
(dp2090
g11
VVP
p2091
sbatp2092
Rp2093
(dp2094
g11
VS
p2095
sbatp2096
Rp2097
(dp2098
g11
VSBAR
p2099
sbatp2100
Rp2101
(dp2102
g11
VNP
p2103
sbatp2104
Rp2105
(dp2106
g11
VPP
p2107
sbatp2108
Rp2109
(dp2110
g11
VNP
p2111
sbatp2112
Rp2113
(dp2114
g11
VVP
p2115
sbag0
(g1
g2
(lp2116
V.
p2117
atp2118
Rp2119
(dp2120
g11
V.
p2121
sbatp2122
Rp2123
(dp2124
g11
VS
p2125
sbatp2126
Rp2127
(dp2128
g11
S'id: 9'
p2129
sbag0
(g1
g2
(lp2130
g0
(g1
g2
(lp2131
g0
(g1
g2
(lp2132
g0
(g1
g2
(lp2133
VAnd
p2134
atp2135
Rp2136
(dp2137
g11
VCC
p2138
sbag0
(g1
g2
(lp2139
g0
(g1
g2
(lp2140
Vthen
p2141
atp2142
Rp2143
(dp2144
g11
VRB
p2145
sbatp2146
Rp2147
(dp2148
g11
VADVP
p2149
sbag0
(g1
g2
(lp2150
g0
(g1
g2
(lp2151
Vthe
p2152
atp2153
Rp2154
(dp2155
g11
VDT
p2156
sbag0
(g1
g2
(lp2157
Vman
p2158
atp2159
Rp2160
(dp2161
g11
VNN
p2162
sbatp2163
Rp2164
(dp2165
g11
VNP
p2166
sbag0
(g1
g2
(lp2167
g0
(g1
g2
(lp2168
Vhas
p2169
atp2170
Rp2171
(dp2172
g11
VVBZ
p2173
sbag0
(g1
g2
(lp2174
g0
(g1
g2
(lp2175
g0
(g1
g2
(lp2176
Va
p2177
atp2178
Rp2179
(dp2180
g11
VDT
p2181
sbag0
(g1
g2
(lp2182
Vlittle
p2183
atp2184
Rp2185
(dp2186
g11
VJJ
p2187
sbag0
(g1
g2
(lp2188
Vgirl
p2189
atp2190
Rp2191
(dp2192
g11
VNN
p2193
sbatp2194
Rp2195
(dp2196
g11
VNP
p2197
sbag0
(g1
g2
(lp2198
g0
(g1
g2
(lp2199
Vwith
p2200
atp2201
Rp2202
(dp2203
g11
VIN
p2204
sbag0
(g1
g2
(lp2205
g0
(g1
g2
(lp2206
Vhim
p2207
atp2208
Rp2209
(dp2210
g11
VPRP
p2211
sbatp2212
Rp2213
(dp2214
g11
VNP
p2215
sbatp2216
Rp2217
(dp2218
g11
VPP
p2219
sbag0
(g1
g2
(lp2220
V,
p2221
atp2222
Rp2223
(dp2224
g11
V,
p2225
sbag0
(g1
g2
(lp2226
g0
(g1
g2
(lp2227
g0
(g1
g2
(lp2228
Vwho
p2229
atp2230
Rp2231
(dp2232
g11
VWP
p2233
sbatp2234
Rp2235
(dp2236
g11
VWHNP
p2237
sbag0
(g1
g2
(lp2238
g0
(g1
g2
(lp2239
g0
(g1
g2
(lp2240
g0
(g1
g2
(lp2241
Vhas
p2242
atp2243
Rp2244
(dp2245
g11
VVBZ
p2246
sbag0
(g1
g2
(lp2247
g0
(g1
g2
(lp2248
Vbraided
p2249
atp2250
Rp2251
(dp2252
g11
VVBN
p2253
sbag0
(g1
g2
(lp2254
g0
(g1
g2
(lp2255
Vpigtails
p2256
atp2257
Rp2258
(dp2259
g11
VNNS
p2260
sbatp2261
Rp2262
(dp2263
g11
VNP
p2264
sbag0
(g1
g2
(lp2265
V,
p2266
atp2267
Rp2268
(dp2269
g11
V,
p2270
sbag0
(g1
g2
(lp2271
g0
(g1
g2
(lp2272
Vwith
p2273
atp2274
Rp2275
(dp2276
g11
VIN
p2277
sbag0
(g1
g2
(lp2278
g0
(g1
g2
(lp2279
g0
(g1
g2
(lp2280
Vbows
p2281
atp2282
Rp2283
(dp2284
g11
VNNS
p2285
sbatp2286
Rp2287
(dp2288
g11
VNP
p2289
sbag0
(g1
g2
(lp2290
g0
(g1
g2
(lp2291
Vat
p2292
atp2293
Rp2294
(dp2295
g11
VIN
p2296
sbag0
(g1
g2
(lp2297
g0
(g1
g2
(lp2298
Vthe
p2299
atp2300
Rp2301
(dp2302
g11
VDT
p2303
sbag0
(g1
g2
(lp2304
Vtop
p2305
atp2306
Rp2307
(dp2308
g11
VNN
p2309
sbatp2310
Rp2311
(dp2312
g11
VNP
p2313
sbatp2314
Rp2315
(dp2316
g11
VPP
p2317
sbatp2318
Rp2319
(dp2320
g11
VNP
p2321
sbatp2322
Rp2323
(dp2324
g11
VPP
p2325
sbatp2326
Rp2327
(dp2328
g11
VVP
p2329
sbatp2330
Rp2331
(dp2332
g11
VVP
p2333
sbag0
(g1
g2
(lp2334
V,
p2335
atp2336
Rp2337
(dp2338
g11
V,
p2339
sbag0
(g1
g2
(lp2340
Vand
p2341
atp2342
Rp2343
(dp2344
g11
VCC
p2345
sbag0
(g1
g2
(lp2346
g0
(g1
g2
(lp2347
Vbows
p2348
atp2349
Rp2350
(dp2351
g11
VVBZ
p2352
sbag0
(g1
g2
(lp2353
g0
(g1
g2
(lp2354
Vat
p2355
atp2356
Rp2357
(dp2358
g11
VIN
p2359
sbag0
(g1
g2
(lp2360
g0
(g1
g2
(lp2361
Vthe
p2362
atp2363
Rp2364
(dp2365
g11
VDT
p2366
sbag0
(g1
g2
(lp2367
Vbottom
p2368
atp2369
Rp2370
(dp2371
g11
VNN
p2372
sbatp2373
Rp2374
(dp2375
g11
VNP
p2376
sbatp2377
Rp2378
(dp2379
g11
VPP
p2380
sbatp2381
Rp2382
(dp2383
g11
VVP
p2384
sbatp2385
Rp2386
(dp2387
g11
VVP
p2388
sbatp2389
Rp2390
(dp2391
g11
VS
p2392
sbatp2393
Rp2394
(dp2395
g11
VSBAR
p2396
sbag0
(g1
g2
(lp2397
V,
p2398
atp2399
Rp2400
(dp2401
g11
V,
p2402
sbag0
(g1
g2
(lp2403
Vand
p2404
atp2405
Rp2406
(dp2407
g11
VCC
p2408
sbag0
(g1
g2
(lp2409
g0
(g1
g2
(lp2410
Vprobably
p2411
atp2412
Rp2413
(dp2414
g11
VRB
p2415
sbatp2416
Rp2417
(dp2418
g11
VADVP
p2419
sbag0
(g1
g2
(lp2420
g0
(g1
g2
(lp2421
g0
(g1
g2
(lp2422
Va
p2423
atp2424
Rp2425
(dp2426
g11
VDT
p2427
sbag0
(g1
g2
(lp2428
Vlittle
p2429
atp2430
Rp2431
(dp2432
g11
VJJ
p2433
sbag0
(g1
g2
(lp2434
Vpinafore
p2435
atp2436
Rp2437
(dp2438
g11
VNN
p2439
sbag0
(g1
g2
(lp2440
Vcause
p2441
atp2442
Rp2443
(dp2444
g11
VNN
p2445
sbatp2446
Rp2447
(dp2448
g11
VNP
p2449
sbag0
(g1
g2
(lp2450
g0
(g1
g2
(lp2451
g0
(g1
g2
(lp2452
g0
(g1
g2
(lp2453
Vshe
p2454
atp2455
Rp2456
(dp2457
g11
VPRP
p2458
sbatp2459
Rp2460
(dp2461
g11
VNP
p2462
sbag0
(g1
g2
(lp2463
g0
(g1
g2
(lp2464
V's
p2465
atp2466
Rp2467
(dp2468
g11
VVBZ
p2469
sbag0
(g1
g2
(lp2470
g0
(g1
g2
(lp2471
Vgot
p2472
atp2473
Rp2474
(dp2475
g11
VVBD
p2476
sbag0
(g1
g2
(lp2477
g0
(g1
g2
(lp2478
Va
p2479
atp2480
Rp2481
(dp2482
g11
VDT
p2483
sbag0
(g1
g2
(lp2484
Vt-shirt
p2485
atp2486
Rp2487
(dp2488
g11
VNN
p2489
sbatp2490
Rp2491
(dp2492
g11
VNP
p2493
sbag0
(g1
g2
(lp2494
g0
(g1
g2
(lp2495
Von
p2496
atp2497
Rp2498
(dp2499
g11
VIN
p2500
sbag0
(g1
g2
(lp2501
g0
(g1
g2
(lp2502
Vwith
p2503
atp2504
Rp2505
(dp2506
g11
VIN
p2507
sbag0
(g1
g2
(lp2508
g0
(g1
g2
(lp2509
Va
p2510
atp2511
Rp2512
(dp2513
g11
VDT
p2514
sbag0
(g1
g2
(lp2515
Vcollar
p2516
atp2517
Rp2518
(dp2519
g11
VNN
p2520
sbatp2521
Rp2522
(dp2523
g11
VNP
p2524
sbatp2525
Rp2526
(dp2527
g11
VPP
p2528
sbatp2529
Rp2530
(dp2531
g11
VPP
p2532
sbatp2533
Rp2534
(dp2535
g11
VVP
p2536
sbatp2537
Rp2538
(dp2539
g11
VVP
p2540
sbatp2541
Rp2542
(dp2543
g11
VS
p2544
sbatp2545
Rp2546
(dp2547
g11
VSBAR
p2548
sbatp2549
Rp2550
(dp2551
g11
VNP
p2552
sbatp2553
Rp2554
(dp2555
g11
VNP
p2556
sbatp2557
Rp2558
(dp2559
g11
VVP
p2560
sbatp2561
Rp2562
(dp2563
g11
VS
p2564
sbag0
(g1
g2
(lp2565
V,
p2566
atp2567
Rp2568
(dp2569
g11
V,
p2570
sbag0
(g1
g2
(lp2571
Vand
p2572
atp2573
Rp2574
(dp2575
g11
VCC
p2576
sbag0
(g1
g2
(lp2577
g0
(g1
g2
(lp2578
g0
(g1
g2
(lp2579
Vshe
p2580
atp2581
Rp2582
(dp2583
g11
VPRP
p2584
sbatp2585
Rp2586
(dp2587
g11
VNP
p2588
sbag0
(g1
g2
(lp2589
g0
(g1
g2
(lp2590
V's
p2591
atp2592
Rp2593
(dp2594
g11
VVBZ
p2595
sbag0
(g1
g2
(lp2596
g0
(g1
g2
(lp2597
Vgot
p2598
atp2599
Rp2600
(dp2601
g11
VVBN
p2602
sbag0
(g1
g2
(lp2603
g0
(g1
g2
(lp2604
Vstripes
p2605
atp2606
Rp2607
(dp2608
g11
VNNS
p2609
sbatp2610
Rp2611
(dp2612
g11
VNP
p2613
sbag0
(g1
g2
(lp2614
g0
(g1
g2
(lp2615
Vacross
p2616
atp2617
Rp2618
(dp2619
g11
VIN
p2620
sbag0
(g1
g2
(lp2621
g0
(g1
g2
(lp2622
Vthe
p2623
atp2624
Rp2625
(dp2626
g11
VDT
p2627
sbag0
(g1
g2
(lp2628
Vback
p2629
atp2630
Rp2631
(dp2632
g11
VNN
p2633
sbatp2634
Rp2635
(dp2636
g11
VNP
p2637
sbatp2638
Rp2639
(dp2640
g11
VPP
p2641
sbatp2642
Rp2643
(dp2644
g11
VVP
p2645
sbatp2646
Rp2647
(dp2648
g11
VVP
p2649
sbatp2650
Rp2651
(dp2652
g11
VS
p2653
sbag0
(g1
g2
(lp2654
V.
p2655
atp2656
Rp2657
(dp2658
g11
V.
p2659
sbatp2660
Rp2661
(dp2662
g11
VS
p2663
sbatp2664
Rp2665
(dp2666
g11
S'id: 10'
p2667
sbag0
(g1
g2
(lp2668
g0
(g1
g2
(lp2669
g0
(g1
g2
(lp2670
VAnd
p2671
atp2672
Rp2673
(dp2674
g11
VCC
p2675
sbag0
(g1
g2
(lp2676
g0
(g1
g2
(lp2677
Vshe
p2678
atp2679
Rp2680
(dp2681
g11
VPRP
p2682
sbatp2683
Rp2684
(dp2685
g11
VNP
p2686
sbag0
(g1
g2
(lp2687
g0
(g1
g2
(lp2688
V's
p2689
atp2690
Rp2691
(dp2692
g11
VVBZ
p2693
sbag0
(g1
g2
(lp2694
g0
(g1
g2
(lp2695
Vpointing
p2696
atp2697
Rp2698
(dp2699
g11
VVBG
p2700
sbag0
(g1
g2
(lp2701
g0
(g1
g2
(lp2702
Vat
p2703
atp2704
Rp2705
(dp2706
g11
VIN
p2707
sbag0
(g1
g2
(lp2708
g0
(g1
g2
(lp2709
Veither
p2710
atp2711
Rp2712
(dp2713
g11
VCC
p2714
sbag0
(g1
g2
(lp2715
g0
(g1
g2
(lp2716
Vthe
p2717
atp2718
Rp2719
(dp2720
g11
VDT
p2721
sbag0
(g1
g2
(lp2722
Vlion
p2723
atp2724
Rp2725
(dp2726
g11
VNN
p2727
sbatp2728
Rp2729
(dp2730
g11
VNP
p2731
sbag0
(g1
g2
(lp2732
Vor
p2733
atp2734
Rp2735
(dp2736
g11
VCC
p2737
sbag0
(g1
g2
(lp2738
g0
(g1
g2
(lp2739
Vthe
p2740
atp2741
Rp2742
(dp2743
g11
VDT
p2744
sbag0
(g1
g2
(lp2745
Vclown
p2746
atp2747
Rp2748
(dp2749
g11
VNN
p2750
sbatp2751
Rp2752
(dp2753
g11
VNP
p2754
sbatp2755
Rp2756
(dp2757
g11
VNP
p2758
sbatp2759
Rp2760
(dp2761
g11
VPP
p2762
sbatp2763
Rp2764
(dp2765
g11
VVP
p2766
sbatp2767
Rp2768
(dp2769
g11
VVP
p2770
sbag0
(g1
g2
(lp2771
V.
p2772
atp2773
Rp2774
(dp2775
g11
V.
p2776
sbatp2777
Rp2778
(dp2779
g11
VS
p2780
sbatp2781
Rp2782
(dp2783
g11
S'id: 11'
p2784
sbag0
(g1
g2
(lp2785
g0
(g1
g2
(lp2786
g0
(g1
g2
(lp2787
VAnd
p2788
atp2789
Rp2790
(dp2791
g11
VCC
p2792
sbag0
(g1
g2
(lp2793
g0
(g1
g2
(lp2794
g0
(g1
g2
(lp2795
Vthe
p2796
atp2797
Rp2798
(dp2799
g11
VDT
p2800
sbag0
(g1
g2
(lp2801
Vclown
p2802
atp2803
Rp2804
(dp2805
g11
VNN
p2806
sbatp2807
Rp2808
(dp2809
g11
VNP
p2810
sbag0
(g1
g2
(lp2811
V,
p2812
atp2813
Rp2814
(dp2815
g11
V,
p2816
sbag0
(g1
g2
(lp2817
g0
(g1
g2
(lp2818
g0
(g1
g2
(lp2819
Vthe
p2820
atp2821
Rp2822
(dp2823
g11
VDT
p2824
sbag0
(g1
g2
(lp2825
Vlion
p2826
atp2827
Rp2828
(dp2829
g11
VNN
p2830
sbag0
(g1
g2
(lp2831
V's
p2832
atp2833
Rp2834
(dp2835
g11
VPOS
p2836
sbatp2837
Rp2838
(dp2839
g11
VNP
p2840
sbag0
(g1
g2
(lp2841
g0
(g1
g2
(lp2842
Vin
p2843
atp2844
Rp2845
(dp2846
g11
VIN
p2847
sbag0
(g1
g2
(lp2848
g0
(g1
g2
(lp2849
g0
(g1
g2
(lp2850
Vfront
p2851
atp2852
Rp2853
(dp2854
g11
VNN
p2855
sbatp2856
Rp2857
(dp2858
g11
VNP
p2859
sbag0
(g1
g2
(lp2860
g0
(g1
g2
(lp2861
Vof
p2862
atp2863
Rp2864
(dp2865
g11
VIN
p2866
sbag0
(g1
g2
(lp2867
g0
(g1
g2
(lp2868
g0
(g1
g2
(lp2869
Vher
p2870
atp2871
Rp2872
(dp2873
g11
VPRP
p2874
sbatp2875
Rp2876
(dp2877
g11
VNP
p2878
sbag0
(g1
g2
(lp2879
V,
p2880
atp2881
Rp2882
(dp2883
g11
V,
p2884
sbag0
(g1
g2
(lp2885
g0
(g1
g2
(lp2886
Vthe
p2887
atp2888
Rp2889
(dp2890
g11
VDT
p2891
sbag0
(g1
g2
(lp2892
Vclown
p2893
atp2894
Rp2895
(dp2896
g11
VNN
p2897
sbatp2898
Rp2899
(dp2900
g11
VNP
p2901
sbatp2902
Rp2903
(dp2904
g11
VNP
p2905
sbatp2906
Rp2907
(dp2908
g11
VPP
p2909
sbatp2910
Rp2911
(dp2912
g11
VNP
p2913
sbatp2914
Rp2915
(dp2916
g11
VPP
p2917
sbatp2918
Rp2919
(dp2920
g11
VNP
p2921
sbatp2922
Rp2923
(dp2924
g11
VNP
p2925
sbag0
(g1
g2
(lp2926
g0
(g1
g2
(lp2927
Vis
p2928
atp2929
Rp2930
(dp2931
g11
VVBZ
p2932
sbag0
(g1
g2
(lp2933
g0
(g1
g2
(lp2934
Vto
p2935
atp2936
Rp2937
(dp2938
g11
VTO
p2939
sbag0
(g1
g2
(lp2940
g0
(g1
g2
(lp2941
g0
(g1
g2
(lp2942
Vher
p2943
atp2944
Rp2945
(dp2946
g11
VPRP$
p2947
sbag0
(g1
g2
(lp2948
Vright
p2949
atp2950
Rp2951
(dp2952
g11
VNN
p2953
sbatp2954
Rp2955
(dp2956
g11
VNP
p2957
sbag0
(g1
g2
(lp2958
g0
(g1
g2
(lp2959
Va
p2960
atp2961
Rp2962
(dp2963
g11
VDT
p2964
sbag0
(g1
g2
(lp2965
Vlittle
p2966
atp2967
Rp2968
(dp2969
g11
VJJ
p2970
sbag0
(g1
g2
(lp2971
Vbit
p2972
atp2973
Rp2974
(dp2975
g11
VNN
p2976
sbatp2977
Rp2978
(dp2979
g11
VNP
p2980
sbatp2981
Rp2982
(dp2983
g11
VNP
p2984
sbatp2985
Rp2986
(dp2987
g11
VPP
p2988
sbatp2989
Rp2990
(dp2991
g11
VVP
p2992
sbag0
(g1
g2
(lp2993
V.
p2994
atp2995
Rp2996
(dp2997
g11
V.
p2998
sbatp2999
Rp3000
(dp3001
g11
VS
p3002
sbatp3003
Rp3004
(dp3005
g11
S'id: 12'
p3006
sbag0
(g1
g2
(lp3007
g0
(g1
g2
(lp3008
g0
(g1
g2
(lp3009
g0
(g1
g2
(lp3010
VThe
p3011
atp3012
Rp3013
(dp3014
g11
VDT
p3015
sbag0
(g1
g2
(lp3016
Vclown
p3017
atp3018
Rp3019
(dp3020
g11
VNN
p3021
sbatp3022
Rp3023
(dp3024
g11
VNP
p3025
sbag0
(g1
g2
(lp3026
g0
(g1
g2
(lp3027
Vhas
p3028
atp3029
Rp3030
(dp3031
g11
VVBZ
p3032
sbag0
(g1
g2
(lp3033
g0
(g1
g2
(lp3034
Von
p3035
atp3036
Rp3037
(dp3038
g11
VIN
p3039
sbag0
(g1
g2
(lp3040
g0
(g1
g2
(lp3041
g0
(g1
g2
(lp3042
Vstriped
p3043
atp3044
Rp3045
(dp3046
g11
VJJ
p3047
sbag0
(g1
g2
(lp3048
Vpants
p3049
atp3050
Rp3051
(dp3052
g11
VNNS
p3053
sbatp3054
Rp3055
(dp3056
g11
VNP
p3057
sbag0
(g1
g2
(lp3058
V,
p3059
atp3060
Rp3061
(dp3062
g11
V,
p3063
sbag0
(g1
g2
(lp3064
g0
(g1
g2
(lp3065
Vsuspender
p3066
atp3067
Rp3068
(dp3069
g11
VJJ
p3070
sbag0
(g1
g2
(lp3071
Vpants
p3072
atp3073
Rp3074
(dp3075
g11
VNNS
p3076
sbatp3077
Rp3078
(dp3079
g11
VNP
p3080
sbag0
(g1
g2
(lp3081
V,
p3082
atp3083
Rp3084
(dp3085
g11
V,
p3086
sbag0
(g1
g2
(lp3087
g0
(g1
g2
(lp3088
Vblack
p3089
atp3090
Rp3091
(dp3092
g11
VJJ
p3093
sbag0
(g1
g2
(lp3094
Vand
p3095
atp3096
Rp3097
(dp3098
g11
VCC
p3099
sbag0
(g1
g2
(lp3100
Vwhite
p3101
atp3102
Rp3103
(dp3104
g11
VJJ
p3105
sbatp3106
Rp3107
(dp3108
g11
VADJP
p3109
sbag0
(g1
g2
(lp3110
V,
p3111
atp3112
Rp3113
(dp3114
g11
V,
p3115
sbatp3116
Rp3117
(dp3118
g11
VNP
p3119
sbatp3120
Rp3121
(dp3122
g11
VPP
p3123
sbag0
(g1
g2
(lp3124
g0
(g1
g2
(lp3125
g0
(g1
g2
(lp3126
Vwide
p3127
atp3128
Rp3129
(dp3130
g11
VJJ
p3131
sbag0
(g1
g2
(lp3132
Vwhite
p3133
atp3134
Rp3135
(dp3136
g11
VJJ
p3137
sbag0
(g1
g2
(lp3138
Vstripes
p3139
atp3140
Rp3141
(dp3142
g11
VNNS
p3143
sbatp3144
Rp3145
(dp3146
g11
VNP
p3147
sbag0
(g1
g2
(lp3148
g0
(g1
g2
(lp3149
Vthen
p3150
atp3151
Rp3152
(dp3153
g11
VRB
p3154
sbag0
(g1
g2
(lp3155
Vblack
p3156
atp3157
Rp3158
(dp3159
g11
VJJ
p3160
sbatp3161
Rp3162
(dp3163
g11
VADJP
p3164
sbag0
(g1
g2
(lp3165
V,
p3166
atp3167
Rp3168
(dp3169
g11
V,
p3170
sbag0
(g1
g2
(lp3171
Vand
p3172
atp3173
Rp3174
(dp3175
g11
VCC
p3176
sbag0
(g1
g2
(lp3177
g0
(g1
g2
(lp3178
Va
p3179
atp3180
Rp3181
(dp3182
g11
VDT
p3183
sbag0
(g1
g2
(lp3184
Vflowered
p3185
atp3186
Rp3187
(dp3188
g11
VJJ
p3189
sbag0
(g1
g2
(lp3190
Vtie
p3191
atp3192
Rp3193
(dp3194
g11
VNN
p3195
sbatp3196
Rp3197
(dp3198
g11
VNP
p3199
sbatp3200
Rp3201
(dp3202
g11
VNP
p3203
sbatp3204
Rp3205
(dp3206
g11
VVP
p3207
sbag0
(g1
g2
(lp3208
V.
p3209
atp3210
Rp3211
(dp3212
g11
V.
p3213
sbatp3214
Rp3215
(dp3216
g11
VS
p3217
sbatp3218
Rp3219
(dp3220
g11
S'id: 13'
p3221
sbatp3222
Rp3223
(dp3224
g11
S'sentences'
p3225
sb.