ccopy_reg
_reconstructor
p0
(cnltk.tree
Tree
p1
c__builtin__
list
p2
(lp3
g0
(g1
g2
(lp4
g0
(g1
g2
(lp5
g0
(g1
g2
(lp6
Vok
p7
atp8
Rp9
(dp10
S'_label'
p11
VNN
p12
sbag0
(g1
g2
(lp13
V.
p14
atp15
Rp16
(dp17
g11
V.
p18
sbatp19
Rp20
(dp21
g11
VNP
p22
sbatp23
Rp24
(dp25
g11
S'id: 0'
p26
sbag0
(g1
g2
(lp27
g0
(g1
g2
(lp28
g0
(g1
g2
(lp29
g0
(g1
g2
(lp30
VIt
p31
atp32
Rp33
(dp34
g11
VPRP
p35
sbatp36
Rp37
(dp38
g11
VNP
p39
sbag0
(g1
g2
(lp40
g0
(g1
g2
(lp41
Va.
p42
atp43
Rp44
(dp45
g11
VVBD
p46
sbag0
(g1
g2
(lp47
g0
(g1
g2
(lp48
g0
(g1
g2
(lp49
g0
(g1
g2
(lp50
VCirtus
p51
atp52
Rp53
(dp54
g11
VNNP
p55
sbatp56
Rp57
(dp58
g11
VNP
p59
sbag0
(g1
g2
(lp60
g0
(g1
g2
(lp61
Vis
p62
atp63
Rp64
(dp65
g11
VVBZ
p66
sbag0
(g1
g2
(lp67
g0
(g1
g2
(lp68
Vhere
p69
atp70
Rp71
(dp72
g11
VRB
p73
sbatp74
Rp75
(dp76
g11
VADVP
p77
sbag0
(g1
g2
(lp78
g0
(g1
g2
(lp79
g0
(g1
g2
(lp80
g0
(g1
g2
(lp81
VI
p82
atp83
Rp84
(dp85
g11
VPRP
p86
sbatp87
Rp88
(dp89
g11
VNP
p90
sbag0
(g1
g2
(lp91
g0
(g1
g2
(lp92
Vgot
p93
atp94
Rp95
(dp96
g11
VVBD
p97
sbag0
(g1
g2
(lp98
g0
(g1
g2
(lp99
g0
(g1
g2
(lp100
Vwalking
p101
atp102
Rp103
(dp104
g11
VVBG
p105
sbag0
(g1
g2
(lp106
g0
(g1
g2
(lp107
Von
p108
atp109
Rp110
(dp111
g11
VIN
p112
sbag0
(g1
g2
(lp113
g0
(g1
g2
(lp114
Vthe
p115
atp116
Rp117
(dp118
g11
VDT
p119
sbag0
(g1
g2
(lp120
Vtight
p121
atp122
Rp123
(dp124
g11
VJJ
p125
sbag0
(g1
g2
(lp126
Vrope
p127
atp128
Rp129
(dp130
g11
VNN
p131
sbatp132
Rp133
(dp134
g11
VNP
p135
sbatp136
Rp137
(dp138
g11
VPP
p139
sbatp140
Rp141
(dp142
g11
VVP
p143
sbatp144
Rp145
(dp146
g11
VS
p147
sbatp148
Rp149
(dp150
g11
VVP
p151
sbatp152
Rp153
(dp154
g11
VS
p155
sbatp156
Rp157
(dp158
g11
VSBAR
p159
sbatp160
Rp161
(dp162
g11
VVP
p163
sbatp164
Rp165
(dp166
g11
VS
p167
sbatp168
Rp169
(dp170
g11
VSBAR
p171
sbatp172
Rp173
(dp174
g11
VVP
p175
sbag0
(g1
g2
(lp176
V.
p177
atp178
Rp179
(dp180
g11
V.
p181
sbatp182
Rp183
(dp184
g11
VS
p185
sbatp186
Rp187
(dp188
g11
S'id: 1'
p189
sbag0
(g1
g2
(lp190
g0
(g1
g2
(lp191
g0
(g1
g2
(lp192
g0
(g1
g2
(lp193
g0
(g1
g2
(lp194
VGirl
p195
atp196
Rp197
(dp198
g11
VNNP
p199
sbatp200
Rp201
(dp202
g11
VNP
p203
sbag0
(g1
g2
(lp204
g0
(g1
g2
(lp205
Vdie
p206
atp207
Rp208
(dp209
g11
VVB
p210
sbag0
(g1
g2
(lp211
g0
(g1
g2
(lp212
Vin
p213
atp214
Rp215
(dp216
g11
VIN
p217
sbag0
(g1
g2
(lp218
Va
p219
atp220
Rp221
(dp222
g11
VDT
p223
sbatp224
Rp225
(dp226
g11
VADVP
p227
sbag0
(g1
g2
(lp228
V,
p229
atp230
Rp231
(dp232
g11
V,
p233
sbag0
(g1
g2
(lp234
g0
(g1
g2
(lp235
Vin
p236
atp237
Rp238
(dp239
g11
VIN
p240
sbag0
(g1
g2
(lp241
g0
(g1
g2
(lp242
Va.
p243
atp244
Rp245
(dp246
g11
VNNP
p247
sbag0
(g1
g2
(lp248
VWay
p249
atp250
Rp251
(dp252
g11
VNNP
p253
sbatp254
Rp255
(dp256
g11
VNP
p257
sbatp258
Rp259
(dp260
g11
VPP
p261
sbatp262
Rp263
(dp264
g11
VVP
p265
sbatp266
Rp267
(dp268
g11
VS
p269
sbag0
(g1
g2
(lp270
Vbut
p271
atp272
Rp273
(dp274
g11
VCC
p275
sbag0
(g1
g2
(lp276
g0
(g1
g2
(lp277
g0
(g1
g2
(lp278
Vhere
p279
atp280
Rp281
(dp282
g11
VRB
p283
sbatp284
Rp285
(dp286
g11
VNP
p287
sbag0
(g1
g2
(lp288
g0
(g1
g2
(lp289
Vgot
p290
atp291
Rp292
(dp293
g11
VVBD
p294
sbag0
(g1
g2
(lp295
g0
(g1
g2
(lp296
g0
(g1
g2
(lp297
g0
(g1
g2
(lp298
Vlion
p299
atp300
Rp301
(dp302
g11
VNN
p303
sbatp304
Rp305
(dp306
g11
VNP
p307
sbag0
(g1
g2
(lp308
g0
(g1
g2
(lp309
Vis
p310
atp311
Rp312
(dp313
g11
VVBZ
p314
sbag0
(g1
g2
(lp315
g0
(g1
g2
(lp316
Va
p317
atp318
Rp319
(dp320
g11
VDT
p321
sbag0
(g1
g2
(lp322
Vsage
p323
atp324
Rp325
(dp326
g11
VNN
p327
sbatp328
Rp329
(dp330
g11
VNP
p331
sbatp332
Rp333
(dp334
g11
VVP
p335
sbatp336
Rp337
(dp338
g11
VS
p339
sbatp340
Rp341
(dp342
g11
VSBAR
p343
sbatp344
Rp345
(dp346
g11
VVP
p347
sbatp348
Rp349
(dp350
g11
VS
p351
sbag0
(g1
g2
(lp352
V.
p353
atp354
Rp355
(dp356
g11
V.
p357
sbatp358
Rp359
(dp360
g11
VS
p361
sbatp362
Rp363
(dp364
g11
S'id: 2'
p365
sbag0
(g1
g2
(lp366
g0
(g1
g2
(lp367
g0
(g1
g2
(lp368
g0
(g1
g2
(lp369
VInside
p370
atp371
Rp372
(dp373
g11
VIN
p374
sbag0
(g1
g2
(lp375
g0
(g1
g2
(lp376
Vsage
p377
atp378
Rp379
(dp380
g11
VNN
p381
sbatp382
Rp383
(dp384
g11
VNP
p385
sbatp386
Rp387
(dp388
g11
VPP
p389
sbag0
(g1
g2
(lp390
g0
(g1
g2
(lp391
Va
p392
atp393
Rp394
(dp395
g11
VDT
p396
sbag0
(g1
g2
(lp397
Vman
p398
atp399
Rp400
(dp401
g11
VNN
p402
sbag0
(g1
g2
(lp403
V.
p404
atp405
Rp406
(dp407
g11
V.
p408
sbatp409
Rp410
(dp411
g11
VNP
p412
sbatp413
Rp414
(dp415
g11
VFRAG
p416
sbatp417
Rp418
(dp419
g11
S'id: 3'
p420
sbag0
(g1
g2
(lp421
g0
(g1
g2
(lp422
g0
(g1
g2
(lp423
g0
(g1
g2
(lp424
VIs
p425
atp426
Rp427
(dp428
g11
VVBZ
p429
sbatp430
Rp431
(dp432
g11
VVP
p433
sbag0
(g1
g2
(lp434
V.
p435
atp436
Rp437
(dp438
g11
V.
p439
sbatp440
Rp441
(dp442
g11
VS
p443
sbatp444
Rp445
(dp446
g11
S'id: 4'
p447
sbag0
(g1
g2
(lp448
g0
(g1
g2
(lp449
g0
(g1
g2
(lp450
g0
(g1
g2
(lp451
g0
(g1
g2
(lp452
VGirl
p453
atp454
Rp455
(dp456
g11
VNNP
p457
sbag0
(g1
g2
(lp458
Vboy
p459
atp460
Rp461
(dp462
g11
VNN
p463
sbatp464
Rp465
(dp466
g11
VNP
p467
sbag0
(g1
g2
(lp468
V,
p469
atp470
Rp471
(dp472
g11
V,
p473
sbag0
(g1
g2
(lp474
g0
(g1
g2
(lp475
g0
(g1
g2
(lp476
Vgirl
p477
atp478
Rp479
(dp480
g11
VNN
p481
sbag0
(g1
g2
(lp482
Vboy
p483
atp484
Rp485
(dp486
g11
VNN
p487
sbatp488
Rp489
(dp490
g11
VNP
p491
sbag0
(g1
g2
(lp492
g0
(g1
g2
(lp493
Vhere
p494
atp495
Rp496
(dp497
g11
VRB
p498
sbatp499
Rp500
(dp501
g11
VADVP
p502
sbatp503
Rp504
(dp505
g11
VNP
p506
sbag0
(g1
g2
(lp507
V,
p508
atp509
Rp510
(dp511
g11
V,
p512
sbatp513
Rp514
(dp515
g11
VNP
p516
sbag0
(g1
g2
(lp517
g0
(g1
g2
(lp518
Vand
p519
atp520
Rp521
(dp522
g11
VCC
p523
sbatp524
Rp525
(dp526
g11
VADVP
p527
sbag0
(g1
g2
(lp528
g0
(g1
g2
(lp529
Vis
p530
atp531
Rp532
(dp533
g11
VVBZ
p534
sbag0
(g1
g2
(lp535
g0
(g1
g2
(lp536
g0
(g1
g2
(lp537
Vclown
p538
atp539
Rp540
(dp541
g11
VNN
p542
sbatp543
Rp544
(dp545
g11
VNP
p546
sbag0
(g1
g2
(lp547
g0
(g1
g2
(lp548
g0
(g1
g2
(lp549
g0
(g1
g2
(lp550
Vis
p551
atp552
Rp553
(dp554
g11
VVBZ
p555
sbag0
(g1
g2
(lp556
g0
(g1
g2
(lp557
Vshwaded
p558
atp559
Rp560
(dp561
g11
VVBN
p562
sbag0
(g1
g2
(lp563
g0
(g1
g2
(lp564
Von
p565
atp566
Rp567
(dp568
g11
VIN
p569
sbag0
(g1
g2
(lp570
g0
(g1
g2
(lp571
Vpaper
p572
atp573
Rp574
(dp575
g11
VNN
p576
sbag0
(g1
g2
(lp577
Vand
p578
atp579
Rp580
(dp581
g11
VCC
p582
sbag0
(g1
g2
(lp583
Vcown
p584
atp585
Rp586
(dp587
g11
VNN
p588
sbatp589
Rp590
(dp591
g11
VNP
p592
sbatp593
Rp594
(dp595
g11
VPP
p596
sbatp597
Rp598
(dp599
g11
VVP
p600
sbatp601
Rp602
(dp603
g11
VVP
p604
sbatp605
Rp606
(dp607
g11
VS
p608
sbatp609
Rp610
(dp611
g11
VSBAR
p612
sbatp613
Rp614
(dp615
g11
VNP
p616
sbatp617
Rp618
(dp619
g11
VVP
p620
sbag0
(g1
g2
(lp621
V.
p622
atp623
Rp624
(dp625
g11
V.
p626
sbatp627
Rp628
(dp629
g11
VS
p630
sbatp631
Rp632
(dp633
g11
S'id: 5'
p634
sbag0
(g1
g2
(lp635
g0
(g1
g2
(lp636
g0
(g1
g2
(lp637
g0
(g1
g2
(lp638
g0
(g1
g2
(lp639
g0
(g1
g2
(lp640
VLittle
p641
atp642
Rp643
(dp644
g11
VJJ
p645
sbag0
(g1
g2
(lp646
Vgirl
p647
atp648
Rp649
(dp650
g11
VNN
p651
sbatp652
Rp653
(dp654
g11
VNP
p655
sbag0
(g1
g2
(lp656
V,
p657
atp658
Rp659
(dp660
g11
V,
p661
sbag0
(g1
g2
(lp662
Vand
p663
atp664
Rp665
(dp666
g11
VCC
p667
sbag0
(g1
g2
(lp668
g0
(g1
g2
(lp669
Vboy
p670
atp671
Rp672
(dp673
g11
VNN
p674
sbatp675
Rp676
(dp677
g11
VNP
p678
sbag0
(g1
g2
(lp679
V,
p680
atp681
Rp682
(dp683
g11
V,
p684
sbatp685
Rp686
(dp687
g11
VNP
p688
sbag0
(g1
g2
(lp689
Vand
p690
atp691
Rp692
(dp693
g11
VCC
p694
sbag0
(g1
g2
(lp695
g0
(g1
g2
(lp696
Vmama
p697
atp698
Rp699
(dp700
g11
VNN
p701
sbatp702
Rp703
(dp704
g11
VNP
p705
sbatp706
Rp707
(dp708
g11
VNP
p709
sbag0
(g1
g2
(lp710
V.
p711
atp712
Rp713
(dp714
g11
V.
p715
sbatp716
Rp717
(dp718
g11
VNP
p719
sbatp720
Rp721
(dp722
g11
S'id: 6'
p723
sbag0
(g1
g2
(lp724
g0
(g1
g2
(lp725
g0
(g1
g2
(lp726
g0
(g1
g2
(lp727
VHere
p728
atp729
Rp730
(dp731
g11
VRB
p732
sbatp733
Rp734
(dp735
g11
VNP
p736
sbag0
(g1
g2
(lp737
g0
(g1
g2
(lp738
Vgot
p739
atp740
Rp741
(dp742
g11
VVBD
p743
sbag0
(g1
g2
(lp744
g0
(g1
g2
(lp745
Vhorse
p746
atp747
Rp748
(dp749
g11
VNN
p750
sbatp751
Rp752
(dp753
g11
VNP
p754
sbag0
(g1
g2
(lp755
g0
(g1
g2
(lp756
Vback
p757
atp758
Rp759
(dp760
g11
VRB
p761
sbatp762
Rp763
(dp764
g11
VADVP
p765
sbatp766
Rp767
(dp768
g11
VVP
p769
sbag0
(g1
g2
(lp770
V.
p771
atp772
Rp773
(dp774
g11
V.
p775
sbatp776
Rp777
(dp778
g11
VS
p779
sbatp780
Rp781
(dp782
g11
S'id: 7'
p783
sbatp784
Rp785
(dp786
g11
S'sentences'
p787
sb.