ccopy_reg
_reconstructor
p0
(cnltk.tree
Tree
p1
c__builtin__
list
p2
(lp3
g0
(g1
g2
(lp4
g0
(g1
g2
(lp5
g0
(g1
g2
(lp6
g0
(g1
g2
(lp7
Vlet
p8
atp9
Rp10
(dp11
S'_label'
p12
VVB
p13
sbag0
(g1
g2
(lp14
g0
(g1
g2
(lp15
g0
(g1
g2
(lp16
V's
p17
atp18
Rp19
(dp20
g12
VPOS
p21
sbatp22
Rp23
(dp24
g12
VNP
p25
sbag0
(g1
g2
(lp26
g0
(g1
g2
(lp27
Vsee
p28
atp29
Rp30
(dp31
g12
VVB
p32
sbag0
(g1
g2
(lp33
g0
(g1
g2
(lp34
g0
(g1
g2
(lp35
g0
(g1
g2
(lp36
Vthis
p37
atp38
Rp39
(dp40
g12
VDT
p41
sbatp42
Rp43
(dp44
g12
VNP
p45
sbag0
(g1
g2
(lp46
g0
(g1
g2
(lp47
Vis
p48
atp49
Rp50
(dp51
g12
VVBZ
p52
sbag0
(g1
g2
(lp53
g0
(g1
g2
(lp54
Va
p55
atp56
Rp57
(dp58
g12
VDT
p59
sbag0
(g1
g2
(lp60
Vcircus
p61
atp62
Rp63
(dp64
g12
VNN
p65
sbatp66
Rp67
(dp68
g12
VNP
p69
sbatp70
Rp71
(dp72
g12
VVP
p73
sbatp74
Rp75
(dp76
g12
VS
p77
sbatp78
Rp79
(dp80
g12
VSBAR
p81
sbatp82
Rp83
(dp84
g12
VVP
p85
sbatp86
Rp87
(dp88
g12
VS
p89
sbatp90
Rp91
(dp92
g12
VVP
p93
sbag0
(g1
g2
(lp94
V.
p95
atp96
Rp97
(dp98
g12
V.
p99
sbatp100
Rp101
(dp102
g12
VS
p103
sbatp104
Rp105
(dp106
g12
S'id: 0'
p107
sbag0
(g1
g2
(lp108
g0
(g1
g2
(lp109
g0
(g1
g2
(lp110
g0
(g1
g2
(lp111
VThere
p112
atp113
Rp114
(dp115
g12
VEX
p116
sbatp117
Rp118
(dp119
g12
VNP
p120
sbag0
(g1
g2
(lp121
g0
(g1
g2
(lp122
Vis
p123
atp124
Rp125
(dp126
g12
VVBZ
p127
sbag0
(g1
g2
(lp128
g0
(g1
g2
(lp129
g0
(g1
g2
(lp130
Va
p131
atp132
Rp133
(dp134
g12
VDT
p135
sbag0
(g1
g2
(lp136
Vman
p137
atp138
Rp139
(dp140
g12
VNN
p141
sbatp142
Rp143
(dp144
g12
VNP
p145
sbag0
(g1
g2
(lp146
g0
(g1
g2
(lp147
Vin
p148
atp149
Rp150
(dp151
g12
VIN
p152
sbag0
(g1
g2
(lp153
g0
(g1
g2
(lp154
g0
(g1
g2
(lp155
Va
p156
atp157
Rp158
(dp159
g12
VDT
p160
sbag0
(g1
g2
(lp161
Vcage
p162
atp163
Rp164
(dp165
g12
VNN
p166
sbatp167
Rp168
(dp169
g12
VNP
p170
sbag0
(g1
g2
(lp171
g0
(g1
g2
(lp172
Vwith
p173
atp174
Rp175
(dp176
g12
VIN
p177
sbag0
(g1
g2
(lp178
g0
(g1
g2
(lp179
Va
p180
atp181
Rp182
(dp183
g12
VDT
p184
sbag0
(g1
g2
(lp185
Vlion
p186
atp187
Rp188
(dp189
g12
VNN
p190
sbatp191
Rp192
(dp193
g12
VNP
p194
sbatp195
Rp196
(dp197
g12
VPP
p198
sbatp199
Rp200
(dp201
g12
VNP
p202
sbatp203
Rp204
(dp205
g12
VPP
p206
sbatp207
Rp208
(dp209
g12
VNP
p210
sbatp211
Rp212
(dp213
g12
VVP
p214
sbag0
(g1
g2
(lp215
V.
p216
atp217
Rp218
(dp219
g12
V.
p220
sbatp221
Rp222
(dp223
g12
VS
p224
sbatp225
Rp226
(dp227
g12
S'id: 1'
p228
sbag0
(g1
g2
(lp229
g0
(g1
g2
(lp230
g0
(g1
g2
(lp231
g0
(g1
g2
(lp232
VThere
p233
atp234
Rp235
(dp236
g12
VEX
p237
sbatp238
Rp239
(dp240
g12
VNP
p241
sbag0
(g1
g2
(lp242
g0
(g1
g2
(lp243
V's
p244
atp245
Rp246
(dp247
g12
VVBZ
p248
sbag0
(g1
g2
(lp249
g0
(g1
g2
(lp250
g0
(g1
g2
(lp251
Va
p252
atp253
Rp254
(dp255
g12
VDT
p256
sbag0
(g1
g2
(lp257
Vboy
p258
atp259
Rp260
(dp261
g12
VNN
p262
sbatp263
Rp264
(dp265
g12
VNP
p266
sbag0
(g1
g2
(lp267
Vand
p268
atp269
Rp270
(dp271
g12
VCC
p272
sbag0
(g1
g2
(lp273
g0
(g1
g2
(lp274
Va
p275
atp276
Rp277
(dp278
g12
VDT
p279
sbag0
(g1
g2
(lp280
Vfa
p281
atp282
Rp283
(dp284
g12
VNN
p285
sbag0
(g1
g2
(lp286
V,
p287
atp288
Rp289
(dp290
g12
V,
p291
sbag0
(g1
g2
(lp292
Vand
p293
atp294
Rp295
(dp296
g12
VCC
p297
sbag0
(g1
g2
(lp298
Vson
p299
atp300
Rp301
(dp302
g12
VNN
p303
sbatp304
Rp305
(dp306
g12
VNP
p307
sbatp308
Rp309
(dp310
g12
VNP
p311
sbatp312
Rp313
(dp314
g12
VVP
p315
sbag0
(g1
g2
(lp316
V.
p317
atp318
Rp319
(dp320
g12
V.
p321
sbatp322
Rp323
(dp324
g12
VS
p325
sbatp326
Rp327
(dp328
g12
S'id: 2'
p329
sbag0
(g1
g2
(lp330
g0
(g1
g2
(lp331
g0
(g1
g2
(lp332
g0
(g1
g2
(lp333
VThere
p334
atp335
Rp336
(dp337
g12
VEX
p338
sbatp339
Rp340
(dp341
g12
VNP
p342
sbag0
(g1
g2
(lp343
g0
(g1
g2
(lp344
V's
p345
atp346
Rp347
(dp348
g12
VVBZ
p349
sbag0
(g1
g2
(lp350
g0
(g1
g2
(lp351
g0
(g1
g2
(lp352
Va
p353
atp354
Rp355
(dp356
g12
VDT
p357
sbag0
(g1
g2
(lp358
Vwoman
p359
atp360
Rp361
(dp362
g12
VNN
p363
sbatp364
Rp365
(dp366
g12
VNP
p367
sbag0
(g1
g2
(lp368
V,
p369
atp370
Rp371
(dp372
g12
V,
p373
sbag0
(g1
g2
(lp374
g0
(g1
g2
(lp375
g0
(g1
g2
(lp376
Vdaughter
p377
atp378
Rp379
(dp380
g12
VNN
p381
sbatp382
Rp383
(dp384
g12
VNP
p385
sbag0
(g1
g2
(lp386
V,
p387
atp388
Rp389
(dp390
g12
V,
p391
sbag0
(g1
g2
(lp392
g0
(g1
g2
(lp393
Vson
p394
atp395
Rp396
(dp397
g12
VNN
p398
sbatp399
Rp400
(dp401
g12
VNP
p402
sbatp403
Rp404
(dp405
g12
VNP
p406
sbatp407
Rp408
(dp409
g12
VNP
p410
sbatp411
Rp412
(dp413
g12
VVP
p414
sbag0
(g1
g2
(lp415
V.
p416
atp417
Rp418
(dp419
g12
V.
p420
sbatp421
Rp422
(dp423
g12
VS
p424
sbatp425
Rp426
(dp427
g12
S'id: 3'
p428
sbag0
(g1
g2
(lp429
g0
(g1
g2
(lp430
g0
(g1
g2
(lp431
g0
(g1
g2
(lp432
VThere
p433
atp434
Rp435
(dp436
g12
VEX
p437
sbatp438
Rp439
(dp440
g12
VNP
p441
sbag0
(g1
g2
(lp442
g0
(g1
g2
(lp443
V's
p444
atp445
Rp446
(dp447
g12
VVBZ
p448
sbag0
(g1
g2
(lp449
g0
(g1
g2
(lp450
Va
p451
atp452
Rp453
(dp454
g12
VDT
p455
sbag0
(g1
g2
(lp456
Vclown
p457
atp458
Rp459
(dp460
g12
VNN
p461
sbatp462
Rp463
(dp464
g12
VNP
p465
sbatp466
Rp467
(dp468
g12
VVP
p469
sbag0
(g1
g2
(lp470
V.
p471
atp472
Rp473
(dp474
g12
V.
p475
sbatp476
Rp477
(dp478
g12
VS
p479
sbatp480
Rp481
(dp482
g12
S'id: 4'
p483
sbag0
(g1
g2
(lp484
g0
(g1
g2
(lp485
g0
(g1
g2
(lp486
g0
(g1
g2
(lp487
VThere
p488
atp489
Rp490
(dp491
g12
VEX
p492
sbatp493
Rp494
(dp495
g12
VNP
p496
sbag0
(g1
g2
(lp497
g0
(g1
g2
(lp498
V's
p499
atp500
Rp501
(dp502
g12
VVBZ
p503
sbag0
(g1
g2
(lp504
g0
(g1
g2
(lp505
g0
(g1
g2
(lp506
Va
p507
atp508
Rp509
(dp510
g12
VDT
p511
sbag0
(g1
g2
(lp512
Vwoman
p513
atp514
Rp515
(dp516
g12
VNN
p517
sbatp518
Rp519
(dp520
g12
VNP
p521
sbag0
(g1
g2
(lp522
g0
(g1
g2
(lp523
Von
p524
atp525
Rp526
(dp527
g12
VIN
p528
sbag0
(g1
g2
(lp529
g0
(g1
g2
(lp530
Va
p531
atp532
Rp533
(dp534
g12
VDT
p535
sbag0
(g1
g2
(lp536
Vhorse
p537
atp538
Rp539
(dp540
g12
VNN
p541
sbatp542
Rp543
(dp544
g12
VNP
p545
sbatp546
Rp547
(dp548
g12
VPP
p549
sbatp550
Rp551
(dp552
g12
VNP
p553
sbatp554
Rp555
(dp556
g12
VVP
p557
sbag0
(g1
g2
(lp558
V.
p559
atp560
Rp561
(dp562
g12
V.
p563
sbatp564
Rp565
(dp566
g12
VS
p567
sbatp568
Rp569
(dp570
g12
S'id: 5'
p571
sbag0
(g1
g2
(lp572
g0
(g1
g2
(lp573
g0
(g1
g2
(lp574
g0
(g1
g2
(lp575
VFive
p576
atp577
Rp578
(dp579
g12
VCD
p580
sbag0
(g1
g2
(lp581
Vpeople
p582
atp583
Rp584
(dp585
g12
VNNS
p586
sbatp587
Rp588
(dp589
g12
VNP
p590
sbag0
(g1
g2
(lp591
g0
(g1
g2
(lp592
Vwatching
p593
atp594
Rp595
(dp596
g12
VVBG
p597
sbatp598
Rp599
(dp600
g12
VVP
p601
sbag0
(g1
g2
(lp602
V.
p603
atp604
Rp605
(dp606
g12
V.
p607
sbatp608
Rp609
(dp610
g12
VNP
p611
sbatp612
Rp613
(dp614
g12
S'id: 6'
p615
sbag0
(g1
g2
(lp616
g0
(g1
g2
(lp617
g0
(g1
g2
(lp618
g0
(g1
g2
(lp619
VThere
p620
atp621
Rp622
(dp623
g12
VEX
p624
sbatp625
Rp626
(dp627
g12
VNP
p628
sbag0
(g1
g2
(lp629
g0
(g1
g2
(lp630
V's
p631
atp632
Rp633
(dp634
g12
VVBZ
p635
sbag0
(g1
g2
(lp636
g0
(g1
g2
(lp637
g0
(g1
g2
(lp638
Va
p639
atp640
Rp641
(dp642
g12
VDT
p643
sbag0
(g1
g2
(lp644
Vman
p645
atp646
Rp647
(dp648
g12
VNN
p649
sbatp650
Rp651
(dp652
g12
VNP
p653
sbag0
(g1
g2
(lp654
g0
(g1
g2
(lp655
Vwalking
p656
atp657
Rp658
(dp659
g12
VVBG
p660
sbag0
(g1
g2
(lp661
g0
(g1
g2
(lp662
Von
p663
atp664
Rp665
(dp666
g12
VIN
p667
sbag0
(g1
g2
(lp668
g0
(g1
g2
(lp669
Vthe
p670
atp671
Rp672
(dp673
g12
VDT
p674
sbag0
(g1
g2
(lp675
Vwire
p676
atp677
Rp678
(dp679
g12
VNN
p680
sbatp681
Rp682
(dp683
g12
VNP
p684
sbatp685
Rp686
(dp687
g12
VPP
p688
sbatp689
Rp690
(dp691
g12
VVP
p692
sbatp693
Rp694
(dp695
g12
VNP
p696
sbatp697
Rp698
(dp699
g12
VVP
p700
sbag0
(g1
g2
(lp701
V.
p702
atp703
Rp704
(dp705
g12
V.
p706
sbatp707
Rp708
(dp709
g12
VS
p710
sbatp711
Rp712
(dp713
g12
S'id: 7'
p714
sbag0
(g1
g2
(lp715
g0
(g1
g2
(lp716
g0
(g1
g2
(lp717
g0
(g1
g2
(lp718
VLet
p719
atp720
Rp721
(dp722
g12
VVB
p723
sbag0
(g1
g2
(lp724
g0
(g1
g2
(lp725
g0
(g1
g2
(lp726
V's
p727
atp728
Rp729
(dp730
g12
VPRP
p731
sbatp732
Rp733
(dp734
g12
VNP
p735
sbag0
(g1
g2
(lp736
g0
(g1
g2
(lp737
Vsee
p738
atp739
Rp740
(dp741
g12
VVB
p742
sbatp743
Rp744
(dp745
g12
VVP
p746
sbatp747
Rp748
(dp749
g12
VS
p750
sbatp751
Rp752
(dp753
g12
VVP
p754
sbag0
(g1
g2
(lp755
V.
p756
atp757
Rp758
(dp759
g12
V.
p760
sbatp761
Rp762
(dp763
g12
VS
p764
sbatp765
Rp766
(dp767
g12
S'id: 8'
p768
sbag0
(g1
g2
(lp769
g0
(g1
g2
(lp770
g0
(g1
g2
(lp771
g0
(g1
g2
(lp772
VThe
p773
atp774
Rp775
(dp776
g12
VDT
p777
sbag0
(g1
g2
(lp778
Vgirl
p779
atp780
Rp781
(dp782
g12
VNN
p783
sbatp784
Rp785
(dp786
g12
VNP
p787
sbag0
(g1
g2
(lp788
g0
(g1
g2
(lp789
Vis
p790
atp791
Rp792
(dp793
g12
VVBZ
p794
sbag0
(g1
g2
(lp795
g0
(g1
g2
(lp796
Vlaughing
p797
atp798
Rp799
(dp800
g12
VVBG
p801
sbatp802
Rp803
(dp804
g12
VVP
p805
sbatp806
Rp807
(dp808
g12
VVP
p809
sbag0
(g1
g2
(lp810
V.
p811
atp812
Rp813
(dp814
g12
V.
p815
sbatp816
Rp817
(dp818
g12
VS
p819
sbatp820
Rp821
(dp822
g12
S'id: 9'
p823
sbag0
(g1
g2
(lp824
g0
(g1
g2
(lp825
g0
(g1
g2
(lp826
g0
(g1
g2
(lp827
g0
(g1
g2
(lp828
VWoman
p829
atp830
Rp831
(dp832
g12
VNNP
p833
sbag0
(g1
g2
(lp834
V's
p835
atp836
Rp837
(dp838
g12
VPOS
p839
sbatp840
Rp841
(dp842
g12
VNP
p843
sbag0
(g1
g2
(lp844
g0
(g1
g2
(lp845
Vwearing
p846
atp847
Rp848
(dp849
g12
VVBG
p850
sbag0
(g1
g2
(lp851
g0
(g1
g2
(lp852
g0
(g1
g2
(lp853
Vsome
p854
atp855
Rp856
(dp857
g12
VDT
p858
sbag0
(g1
g2
(lp859
Vkind
p860
atp861
Rp862
(dp863
g12
VNN
p864
sbatp865
Rp866
(dp867
g12
VNP
p868
sbag0
(g1
g2
(lp869
g0
(g1
g2
(lp870
Vof
p871
atp872
Rp873
(dp874
g12
VIN
p875
sbag0
(g1
g2
(lp876
g0
(g1
g2
(lp877
Vsparkly
p878
atp879
Rp880
(dp881
g12
VJJ
p882
sbag0
(g1
g2
(lp883
Vthing
p884
atp885
Rp886
(dp887
g12
VNN
p888
sbatp889
Rp890
(dp891
g12
VNP
p892
sbatp893
Rp894
(dp895
g12
VPP
p896
sbatp897
Rp898
(dp899
g12
VNP
p900
sbatp901
Rp902
(dp903
g12
VVP
p904
sbatp905
Rp906
(dp907
g12
VS
p908
sbag0
(g1
g2
(lp909
V.
p910
atp911
Rp912
(dp913
g12
V.
p914
sbatp915
Rp916
(dp917
g12
VS
p918
sbatp919
Rp920
(dp921
g12
S'id: 10'
p922
sbag0
(g1
g2
(lp923
g0
(g1
g2
(lp924
g0
(g1
g2
(lp925
g0
(g1
g2
(lp926
g0
(g1
g2
(lp927
VClown
p928
atp929
Rp930
(dp931
g12
VNNP
p932
sbag0
(g1
g2
(lp933
V's
p934
atp935
Rp936
(dp937
g12
VPOS
p938
sbatp939
Rp940
(dp941
g12
VNP
p942
sbag0
(g1
g2
(lp943
Vspilling
p944
atp945
Rp946
(dp947
g12
VNN
p948
sbatp949
Rp950
(dp951
g12
VNP
p952
sbag0
(g1
g2
(lp953
g0
(g1
g2
(lp954
g0
(g1
g2
(lp955
Vi
p956
atp957
Rp958
(dp959
g12
VFW
p960
sbatp961
Rp962
(dp963
g12
VNP
p964
sbag0
(g1
g2
(lp965
g0
(g1
g2
(lp966
Vguess
p967
atp968
Rp969
(dp970
g12
VNN
p971
sbag0
(g1
g2
(lp972
Vpopcorn
p973
atp974
Rp975
(dp976
g12
VNN
p977
sbatp978
Rp979
(dp980
g12
VNP
p981
sbatp982
Rp983
(dp984
g12
VNP
p985
sbag0
(g1
g2
(lp986
V.
p987
atp988
Rp989
(dp990
g12
V.
p991
sbatp992
Rp993
(dp994
g12
VNP
p995
sbatp996
Rp997
(dp998
g12
S'id: 11'
p999
sbag0
(g1
g2
(lp1000
g0
(g1
g2
(lp1001
g0
(g1
g2
(lp1002
g0
(g1
g2
(lp1003
VHe
p1004
atp1005
Rp1006
(dp1007
g12
VPRP
p1008
sbatp1009
Rp1010
(dp1011
g12
VNP
p1012
sbag0
(g1
g2
(lp1013
g0
(g1
g2
(lp1014
V's
p1015
atp1016
Rp1017
(dp1018
g12
VVBZ
p1019
sbag0
(g1
g2
(lp1020
g0
(g1
g2
(lp1021
Vwearing
p1022
atp1023
Rp1024
(dp1025
g12
VVBG
p1026
sbag0
(g1
g2
(lp1027
g0
(g1
g2
(lp1028
Va
p1029
atp1030
Rp1031
(dp1032
g12
VDT
p1033
sbag0
(g1
g2
(lp1034
Vhat
p1035
atp1036
Rp1037
(dp1038
g12
VNN
p1039
sbatp1040
Rp1041
(dp1042
g12
VNP
p1043
sbatp1044
Rp1045
(dp1046
g12
VVP
p1047
sbatp1048
Rp1049
(dp1050
g12
VVP
p1051
sbag0
(g1
g2
(lp1052
V.
p1053
atp1054
Rp1055
(dp1056
g12
V.
p1057
sbatp1058
Rp1059
(dp1060
g12
VS
p1061
sbatp1062
Rp1063
(dp1064
g12
S'id: 12'
p1065
sbag0
(g1
g2
(lp1066
g0
(g1
g2
(lp1067
g0
(g1
g2
(lp1068
g0
(g1
g2
(lp1069
VWearing
p1070
atp1071
Rp1072
(dp1073
g12
VVBG
p1074
sbag0
(g1
g2
(lp1075
g0
(g1
g2
(lp1076
Va
p1077
atp1078
Rp1079
(dp1080
g12
VDT
p1081
sbag0
(g1
g2
(lp1082
Vtie
p1083
atp1084
Rp1085
(dp1086
g12
VNN
p1087
sbatp1088
Rp1089
(dp1090
g12
VNP
p1091
sbatp1092
Rp1093
(dp1094
g12
VVP
p1095
sbag0
(g1
g2
(lp1096
V.
p1097
atp1098
Rp1099
(dp1100
g12
V.
p1101
sbatp1102
Rp1103
(dp1104
g12
VS
p1105
sbatp1106
Rp1107
(dp1108
g12
S'id: 13'
p1109
sbag0
(g1
g2
(lp1110
g0
(g1
g2
(lp1111
g0
(g1
g2
(lp1112
g0
(g1
g2
(lp1113
VThe
p1114
atp1115
Rp1116
(dp1117
g12
VDT
p1118
sbag0
(g1
g2
(lp1119
Vclown
p1120
atp1121
Rp1122
(dp1123
g12
VNN
p1124
sbatp1125
Rp1126
(dp1127
g12
VNP
p1128
sbag0
(g1
g2
(lp1129
g0
(g1
g2
(lp1130
Vis
p1131
atp1132
Rp1133
(dp1134
g12
VVBZ
p1135
sbag0
(g1
g2
(lp1136
g0
(g1
g2
(lp1137
Vsetting
p1138
atp1139
Rp1140
(dp1141
g12
VVBG
p1142
sbag0
(g1
g2
(lp1143
g0
(g1
g2
(lp1144
Von
p1145
atp1146
Rp1147
(dp1148
g12
VIN
p1149
sbag0
(g1
g2
(lp1150
g0
(g1
g2
(lp1151
g0
(g1
g2
(lp1152
Vit
p1153
atp1154
Rp1155
(dp1156
g12
VPRP
p1157
sbatp1158
Rp1159
(dp1160
g12
VNP
p1161
sbag0
(g1
g2
(lp1162
g0
(g1
g2
(lp1163
V's
p1164
atp1165
Rp1166
(dp1167
g12
VVBZ
p1168
sbag0
(g1
g2
(lp1169
g0
(g1
g2
(lp1170
Vback
p1171
atp1172
Rp1173
(dp1174
g12
VRB
p1175
sbatp1176
Rp1177
(dp1178
g12
VADVP
p1179
sbag0
(g1
g2
(lp1180
g0
(g1
g2
(lp1181
Vlegs
p1182
atp1183
Rp1184
(dp1185
g12
VNNS
p1186
sbatp1187
Rp1188
(dp1189
g12
VNP
p1190
sbatp1191
Rp1192
(dp1193
g12
VVP
p1194
sbatp1195
Rp1196
(dp1197
g12
VS
p1198
sbatp1199
Rp1200
(dp1201
g12
VPP
p1202
sbatp1203
Rp1204
(dp1205
g12
VVP
p1206
sbatp1207
Rp1208
(dp1209
g12
VVP
p1210
sbag0
(g1
g2
(lp1211
V.
p1212
atp1213
Rp1214
(dp1215
g12
V.
p1216
sbatp1217
Rp1218
(dp1219
g12
VS
p1220
sbatp1221
Rp1222
(dp1223
g12
S'id: 14'
p1224
sbag0
(g1
g2
(lp1225
g0
(g1
g2
(lp1226
g0
(g1
g2
(lp1227
g0
(g1
g2
(lp1228
VThe
p1229
atp1230
Rp1231
(dp1232
g12
VDT
p1233
sbag0
(g1
g2
(lp1234
Vman
p1235
atp1236
Rp1237
(dp1238
g12
VNN
p1239
sbatp1240
Rp1241
(dp1242
g12
VNP
p1243
sbag0
(g1
g2
(lp1244
g0
(g1
g2
(lp1245
g0
(g1
g2
(lp1246
Vwearing
p1247
atp1248
Rp1249
(dp1250
g12
VVBG
p1251
sbag0
(g1
g2
(lp1252
g0
(g1
g2
(lp1253
Va
p1254
atp1255
Rp1256
(dp1257
g12
VDT
p1258
sbag0
(g1
g2
(lp1259
Vhat
p1260
atp1261
Rp1262
(dp1263
g12
VNN
p1264
sbatp1265
Rp1266
(dp1267
g12
VNP
p1268
sbatp1269
Rp1270
(dp1271
g12
VVP
p1272
sbatp1273
Rp1274
(dp1275
g12
VS
p1276
sbatp1277
Rp1278
(dp1279
g12
VFRAG
p1280
sbatp1281
Rp1282
(dp1283
g12
S'id: 15'
p1284
sbatp1285
Rp1286
(dp1287
g12
S'sentences'
p1288
sb.