ccopy_reg
_reconstructor
p0
(cnltk.tree
Tree
p1
c__builtin__
list
p2
(lp3
g0
(g1
g2
(lp4
g0
(g1
g2
(lp5
g0
(g1
g2
(lp6
(lp7
S'word: we, index: 1'
p8
aatp9
Rp10
(dp11
S'_label'
p12
Vnsubj
p13
sbag0
(g1
g2
(lp14
(lp15
S'word: one, index: 4'
p16
aatp17
Rp18
(dp19
g12
Vprep
p20
sbag0
(g1
g2
(lp21
g0
(g1
g2
(lp22
g0
(g1
g2
(lp23
g0
(g1
g2
(lp24
g0
(g1
g2
(lp25
(lp26
S'word: a, index: 5'
p27
aatp28
Rp29
(dp30
g12
Vdet
p31
sbatp32
Rp33
(dp34
g12
S'word: while, index: 6'
p35
sbatp36
Rp37
(dp38
g12
Vnpadvmod
p39
sbatp40
Rp41
(dp42
g12
S'word: ago, index: 7'
p43
sbatp44
Rp45
(dp46
g12
Vadvmod
p47
sbatp48
Rp49
(dp50
g12
S'word: had, index: 2'
p51
sbatp52
Rp53
(dp54
g12
S'id: 0'
p55
sbag0
(g1
g2
(lp56
g0
(g1
g2
(lp57
g0
(g1
g2
(lp58
g0
(g1
g2
(lp59
g0
(g1
g2
(lp60
g0
(g1
g2
(lp61
g0
(g1
g2
(lp62
(lp63
S'word: we, index: 4'
p64
aatp65
Rp66
(dp67
g12
Vnsubj
p68
sbag0
(g1
g2
(lp69
(lp70
S"word: 're, index: 5"
p71
aatp72
Rp73
(dp74
g12
Vaux
p75
sbag0
(g1
g2
(lp76
(lp77
S'word: back, index: 7'
p78
aatp79
Rp80
(dp81
g12
Vadvmod
p82
sbag0
(g1
g2
(lp83
g0
(g1
g2
(lp84
g0
(g1
g2
(lp85
(lp86
S'word: the, index: 9'
p87
aatp88
Rp89
(dp90
g12
Vdet
p91
sbatp92
Rp93
(dp94
g12
S'word: picnic, index: 10'
p95
sbatp96
Rp97
(dp98
g12
Vprep
p99
sbag0
(g1
g2
(lp100
(lp101
S'word: again, index: 11'
p102
aatp103
Rp104
(dp105
g12
Vadvmod
p106
sbatp107
Rp108
(dp109
g12
S'word: going, index: 6'
p110
sbatp111
Rp112
(dp113
g12
Vccomp
p114
sbag0
(g1
g2
(lp115
(lp116
S"word: 's, index: 2"
p117
aatp118
Rp119
(dp120
g12
Vnsubj
p121
sbatp122
Rp123
(dp124
g12
S'word: see, index: 3'
p125
sbatp126
Rp127
(dp128
g12
Vccomp
p129
sbatp130
Rp131
(dp132
g12
S'word: Let, index: 1'
p133
sbatp134
Rp135
(dp136
g12
S'id: 1'
p137
sbag0
(g1
g2
(lp138
g0
(g1
g2
(lp139
g0
(g1
g2
(lp140
g0
(g1
g2
(lp141
g0
(g1
g2
(lp142
(lp143
S'word: me, index: 16'
p144
aatp145
Rp146
(dp147
g12
Vprep
p148
sbatp149
Rp150
(dp151
g12
S'word: good, index: 14'
p152
sbatp153
Rp154
(dp155
g12
Vnsubj
p156
sbag0
(g1
g2
(lp157
g0
(g1
g2
(lp158
g0
(g1
g2
(lp159
g0
(g1
g2
(lp160
g0
(g1
g2
(lp161
g0
(g1
g2
(lp162
g0
(g1
g2
(lp163
(lp164
S'word: some, index: 10'
p165
aatp166
Rp167
(dp168
g12
Vdet
p169
sbatp170
Rp171
(dp172
g12
S'word: wine, index: 11'
p173
sbatp174
Rp175
(dp176
g12
Vdobj
p177
sbag0
(g1
g2
(lp178
g0
(g1
g2
(lp179
g0
(g1
g2
(lp180
g0
(g1
g2
(lp181
g0
(g1
g2
(lp182
(lp183
S"word: 's, index: 8"
p184
aatp185
Rp186
(dp187
g12
Vpossessive
p188
sbatp189
Rp190
(dp191
g12
S'word: mom, index: 7'
p192
sbatp193
Rp194
(dp195
g12
Vappos
p196
sbag0
(g1
g2
(lp197
(lp198
S'word: a, index: 4'
p199
aatp200
Rp201
(dp202
g12
Vdet
p203
sbatp204
Rp205
(dp206
g12
S'word: book, index: 5'
p207
sbatp208
Rp209
(dp210
g12
Vnsubj
p211
sbatp212
Rp213
(dp214
g12
S'word: drinking, index: 9'
p215
sbatp216
Rp217
(dp218
g12
Vvmod
p219
sbag0
(g1
g2
(lp220
g0
(g1
g2
(lp221
g0
(g1
g2
(lp222
(lp223
S"word: 's, index: 2"
p224
aatp225
Rp226
(dp227
g12
Vpossessive
p228
sbatp229
Rp230
(dp231
g12
S'word: Dad, index: 1'
p232
sbatp233
Rp234
(dp235
g12
Vnsubj
p236
sbatp237
Rp238
(dp239
g12
S'word: reading, index: 3'
p240
sbatp241
Rp242
(dp243
g12
Vdep
p244
sbatp245
Rp246
(dp247
g12
S'word: sounds, index: 13'
p248
sbatp249
Rp250
(dp251
g12
S'id: 2'
p252
sbag0
(g1
g2
(lp253
g0
(g1
g2
(lp254
g0
(g1
g2
(lp255
g0
(g1
g2
(lp256
g0
(g1
g2
(lp257
(lp258
S'word: the, index: 3'
p259
aatp260
Rp261
(dp262
g12
Vdet
p263
sbatp264
Rp265
(dp266
g12
S'word: radio, index: 4'
p267
sbatp268
Rp269
(dp270
g12
Vprep
p271
sbatp272
Rp273
(dp274
g12
S'word: Listen, index: 1'
p275
sbatp276
Rp277
(dp278
g12
S'id: 3'
p279
sbag0
(g1
g2
(lp280
g0
(g1
g2
(lp281
g0
(g1
g2
(lp282
g0
(g1
g2
(lp283
g0
(g1
g2
(lp284
(lp285
S'word: a, index: 2'
p286
aatp287
Rp288
(dp289
g12
Vdet
p290
sbag0
(g1
g2
(lp291
(lp292
S'word: pretty, index: 3'
p293
aatp294
Rp295
(dp296
g12
Vamod
p297
sbatp298
Rp299
(dp300
g12
S'word: day, index: 4'
p301
sbatp302
Rp303
(dp304
g12
Vpobj
p305
sbatp306
Rp307
(dp308
g12
S'word: On, index: 1'
p309
sbatp310
Rp311
(dp312
g12
S'id: 4'
p313
sbag0
(g1
g2
(lp314
g0
(g1
g2
(lp315
g0
(g1
g2
(lp316
g0
(g1
g2
(lp317
g0
(g1
g2
(lp318
(lp319
S'word: like, index: 2'
p320
aatp321
Rp322
(dp323
g12
Vmark
p324
sbag0
(g1
g2
(lp325
(lp326
S'word: they, index: 3'
p327
aatp328
Rp329
(dp330
g12
Vnsubj
p331
sbatp332
Rp333
(dp334
g12
S"word: 're, index: 4"
p335
sbatp336
Rp337
(dp338
g12
Vadvcl
p339
sbatp340
Rp341
(dp342
g12
S'word: Looks, index: 1'
p343
sbatp344
Rp345
(dp346
g12
S'id: 5'
p347
sbag0
(g1
g2
(lp348
g0
(g1
g2
(lp349
g0
(g1
g2
(lp350
g0
(g1
g2
(lp351
g0
(g1
g2
(lp352
g0
(g1
g2
(lp353
g0
(g1
g2
(lp354
(lp355
S'word: if, index: 3'
p356
aatp357
Rp358
(dp359
g12
Vmark
p360
sbag0
(g1
g2
(lp361
(lp362
S'word: that, index: 4'
p363
aatp364
Rp365
(dp366
g12
Vnsubj
p367
sbag0
(g1
g2
(lp368
(lp369
S"word: 's, index: 5"
p370
aatp371
Rp372
(dp373
g12
Vcop
p374
sbag0
(g1
g2
(lp375
(lp376
S'word: a, index: 6'
p377
aatp378
Rp379
(dp380
g12
Vdet
p381
sbag0
(g1
g2
(lp382
g0
(g1
g2
(lp383
g0
(g1
g2
(lp384
(lp385
S'word: their, index: 9'
p386
aatp387
Rp388
(dp389
g12
Vposs
p390
sbatp391
Rp392
(dp393
g12
S'word: house, index: 10'
p394
sbatp395
Rp396
(dp397
g12
Vconj
p398
sbatp399
Rp400
(dp401
g12
S'word: cabin, index: 7'
p402
sbatp403
Rp404
(dp405
g12
Vadvcl
p406
sbag0
(g1
g2
(lp407
g392
atp408
Rp409
(dp410
g12
Vadvcl
p411
sbag0
(g1
g2
(lp412
(lp413
S'word: must, index: 12'
p414
aatp415
Rp416
(dp417
g12
Vaux
p418
sbag0
(g1
g2
(lp419
(lp420
S'word: be, index: 13'
p421
aatp422
Rp423
(dp424
g12
Vcop
p425
sbatp426
Rp427
(dp428
g12
S'word: that, index: 14'
p429
sbatp430
Rp431
(dp432
g12
Vccomp
p433
sbag0
(g1
g2
(lp434
(lp435
S'word: Dont, index: 1'
p436
aatp437
Rp438
(dp439
g12
Vnsubj
p440
sbatp441
Rp442
(dp443
g12
S'word: know, index: 2'
p444
sbatp445
Rp446
(dp447
g12
S'id: 6'
p448
sbag0
(g1
g2
(lp449
g0
(g1
g2
(lp450
g0
(g1
g2
(lp451
g0
(g1
g2
(lp452
g0
(g1
g2
(lp453
(lp454
S'word: a, index: 2'
p455
aatp456
Rp457
(dp458
g12
Vdet
p459
sbatp460
Rp461
(dp462
g12
S'word: flag, index: 3'
p463
sbatp464
Rp465
(dp466
g12
Vdobj
p467
sbatp468
Rp469
(dp470
g12
S'word: Got, index: 1'
p471
sbatp472
Rp473
(dp474
g12
S'id: 7'
p475
sbag0
(g1
g2
(lp476
g0
(g1
g2
(lp477
g0
(g1
g2
(lp478
g0
(g1
g2
(lp479
g0
(g1
g2
(lp480
(lp481
S"word: 's, index: 2"
p482
aatp483
Rp484
(dp485
g12
Vnsubj
p486
sbag0
(g1
g2
(lp487
g0
(g1
g2
(lp488
g0
(g1
g2
(lp489
(lp490
S'word: a, index: 4'
p491
aatp492
Rp493
(dp494
g12
Vdet
p495
sbatp496
Rp497
(dp498
g12
S'word: kite, index: 5'
p499
sbatp500
Rp501
(dp502
g12
Vdobj
p503
sbatp504
Rp505
(dp506
g12
S'word: flying, index: 3'
p507
sbatp508
Rp509
(dp510
g12
Vdep
p511
sbatp512
Rp513
(dp514
g12
S'word: Boy, index: 1'
p515
sbatp516
Rp517
(dp518
g12
S'id: 8'
p519
sbag0
(g1
g2
(lp520
g0
(g1
g2
(lp521
g0
(g1
g2
(lp522
g0
(g1
g2
(lp523
g0
(g1
g2
(lp524
(lp525
S'word: the, index: 12'
p526
aatp527
Rp528
(dp529
g12
Vdet
p530
sbatp531
Rp532
(dp533
g12
S'word: boy, index: 13'
p534
sbatp535
Rp536
(dp537
g12
Vdobj
p538
sbag0
(g1
g2
(lp539
g0
(g1
g2
(lp540
g0
(g1
g2
(lp541
g0
(g1
g2
(lp542
g0
(g1
g2
(lp543
(lp544
S'word: The, index: 1'
p545
aatp546
Rp547
(dp548
g12
Vdet
p549
sbag0
(g1
g2
(lp550
(lp551
S"word: 's, index: 3"
p552
aatp553
Rp554
(dp555
g12
Vpossessive
p556
sbatp557
Rp558
(dp559
g12
S'word: dog, index: 2'
p560
sbatp561
Rp562
(dp563
g12
Vnsubj
p564
sbag0
(g1
g2
(lp565
g0
(g1
g2
(lp566
g0
(g1
g2
(lp567
(lp568
S'word: the, index: 5'
p569
aatp570
Rp571
(dp572
g12
Vdet
p573
sbatp574
Rp575
(dp576
g12
S'word: boy, index: 6'
p577
sbatp578
Rp579
(dp580
g12
Vdobj
p581
sbatp582
Rp583
(dp584
g12
S'word: changing, index: 4'
p585
sbatp586
Rp587
(dp588
g12
Vvmod
p589
sbag0
(g1
g2
(lp590
g0
(g1
g2
(lp591
g0
(g1
g2
(lp592
(lp593
S'word: the, index: 8'
p594
aatp595
Rp596
(dp597
g12
Vdet
p598
sbatp599
Rp600
(dp601
g12
S'word: dog, index: 9'
p602
sbatp603
Rp604
(dp605
g12
Vnsubj
p606
sbag0
(g1
g2
(lp607
(lp608
S'word: is, index: 10'
p609
aatp610
Rp611
(dp612
g12
Vaux
p613
sbatp614
Rp615
(dp616
g12
S'word: changing, index: 11'
p617
sbatp618
Rp619
(dp620
g12
S'id: 9'
p621
sbag0
(g1
g2
(lp622
g0
(g1
g2
(lp623
g0
(g1
g2
(lp624
g0
(g1
g2
(lp625
g0
(g1
g2
(lp626
g0
(g1
g2
(lp627
g0
(g1
g2
(lp628
(lp629
S"word: 's, index: 4"
p630
aatp631
Rp632
(dp633
g12
Vpossessive
p634
sbatp635
Rp636
(dp637
g12
S'word: grandpa, index: 3'
p638
sbatp639
Rp640
(dp641
g12
Vprep
p642
sbag0
(g1
g2
(lp643
(lp644
S'word: fishing, index: 6'
p645
aatp646
Rp647
(dp648
g12
Vprep
p649
sbatp650
Rp651
(dp652
g12
S'word: Looks, index: 1'
p653
sbatp654
Rp655
(dp656
g12
Vccomp
p657
sbag0
(g1
g2
(lp658
(lp659
S'word: him, index: 9'
p660
aatp661
Rp662
(dp663
g12
Vdobj
p664
sbag0
(g1
g2
(lp665
g0
(g1
g2
(lp666
g0
(g1
g2
(lp667
(lp668
S'word: a, index: 10'
p669
aatp670
Rp671
(dp672
g12
Vdet
p673
sbag0
(g1
g2
(lp674
(lp675
S'word: big, index: 11'
p676
aatp677
Rp678
(dp679
g12
Vamod
p680
sbatp681
Rp682
(dp683
g12
S'word: one, index: 12'
p684
sbatp685
Rp686
(dp687
g12
Vnsubj
p688
sbatp689
Rp690
(dp691
g12
S'word: got, index: 8'
p692
sbatp693
Rp694
(dp695
g12
S'id: 10'
p696
sbag0
(g1
g2
(lp697
g0
(g1
g2
(lp698
g0
(g1
g2
(lp699
(lp700
S'word: I, index: 1'
p701
aatp702
Rp703
(dp704
g12
Vnsubj
p705
sbag0
(g1
g2
(lp706
g0
(g1
g2
(lp707
g0
(g1
g2
(lp708
(lp709
S'word: that, index: 14'
p710
aatp711
Rp712
(dp713
g12
Vnsubj
p714
sbag0
(g1
g2
(lp715
(lp716
S"word: 's, index: 15"
p717
aatp718
Rp719
(dp720
g12
Vcop
p721
sbag0
(g1
g2
(lp722
(lp723
S'word: not, index: 16'
p724
aatp725
Rp726
(dp727
g12
Vneg
p728
sbatp729
Rp730
(dp731
g12
S'word: clouds, index: 17'
p732
sbatp733
Rp734
(dp735
g12
Vparataxis
p736
sbag0
(g1
g2
(lp737
g0
(g1
g2
(lp738
g0
(g1
g2
(lp739
(lp740
S'word: some, index: 3'
p741
aatp742
Rp743
(dp744
g12
Vdet
p745
sbatp746
Rp747
(dp748
g12
S'word: coulds, index: 4'
p749
sbatp750
Rp751
(dp752
g12
Vdobj
p753
sbag0
(g1
g2
(lp754
g0
(g1
g2
(lp755
g0
(g1
g2
(lp756
g0
(g1
g2
(lp757
g0
(g1
g2
(lp758
(lp759
S'word: the, index: 7'
p760
aatp761
Rp762
(dp763
g12
Vpobj
p764
sbatp765
Rp766
(dp767
g12
S'word: in, index: 6'
p768
sbatp769
Rp770
(dp771
g12
Vpcomp
p772
sbatp773
Rp774
(dp775
g12
S'word: over, index: 5'
p776
sbatp777
Rp778
(dp779
g12
Vprep
p780
sbag0
(g1
g2
(lp781
g0
(g1
g2
(lp782
g0
(g1
g2
(lp783
(lp784
S'word: that, index: 19'
p785
aatp786
Rp787
(dp788
g12
Vnsubj
p789
sbag0
(g1
g2
(lp790
(lp791
S"word: 's, index: 20"
p792
aatp793
Rp794
(dp795
g12
Vcop
p796
sbag0
(g1
g2
(lp797
g0
(g1
g2
(lp798
g0
(g1
g2
(lp799
(lp800
S'word: trees, index: 26'
p801
aatp802
Rp803
(dp804
g12
Vappos
p805
sbatp806
Rp807
(dp808
g12
S'word: woods, index: 24'
p809
sbatp810
Rp811
(dp812
g12
Vconj
p813
sbatp814
Rp815
(dp816
g12
S'word: tree, index: 21'
p817
sbatp818
Rp819
(dp820
g12
Vparataxis
p821
sbag0
(g1
g2
(lp822
g807
atp823
Rp824
(dp825
g12
Vparataxis
p826
sbag0
(g1
g2
(lp827
g0
(g1
g2
(lp828
g0
(g1
g2
(lp829
g0
(g1
g2
(lp830
g0
(g1
g2
(lp831
(lp832
S'word: no, index: 9'
p833
aatp834
Rp835
(dp836
g12
Vdep
p837
sbatp838
Rp839
(dp840
g12
S'word: that, index: 10'
p841
sbatp842
Rp843
(dp844
g12
Vnsubj
p845
sbag0
(g1
g2
(lp846
(lp847
S'word: not, index: 12'
p848
aatp849
Rp850
(dp851
g12
Vneg
p852
sbatp853
Rp854
(dp855
g12
S"word: 's, index: 11"
p856
sbatp857
Rp858
(dp859
g12
Vparataxis
p860
sbatp861
Rp862
(dp863
g12
S'word: see, index: 2'
p864
sbatp865
Rp866
(dp867
g12
S'id: 11'
p868
sbag0
(g1
g2
(lp869
g0
(g1
g2
(lp870
g0
(g1
g2
(lp871
(lp872
S'word: I, index: 1'
p873
aatp874
Rp875
(dp876
g12
Vnsubj
p877
sbag0
(g1
g2
(lp878
g0
(g1
g2
(lp879
g0
(g1
g2
(lp880
g0
(g1
g2
(lp881
g0
(g1
g2
(lp882
g0
(g1
g2
(lp883
g0
(g1
g2
(lp884
(lp885
S'word: four, index: 6'
p886
aatp887
Rp888
(dp889
g12
Vnum
p890
sbatp891
Rp892
(dp893
g12
S'word: seventy, index: 7'
p894
sbatp895
Rp896
(dp897
g12
Vdep
p898
sbatp899
Rp900
(dp901
g12
S'word: number, index: 5'
p902
sbatp903
Rp904
(dp905
g12
Vappos
p906
sbatp907
Rp908
(dp909
g12
S'word: sailboat, index: 3'
p910
sbatp911
Rp912
(dp913
g12
Vdobj
p914
sbatp915
Rp916
(dp917
g12
S'word: see, index: 2'
p918
sbatp919
Rp920
(dp921
g12
S'id: 12'
p922
sbag0
(g1
g2
(lp923
g0
(g1
g2
(lp924
g0
(g1
g2
(lp925
g0
(g1
g2
(lp926
g0
(g1
g2
(lp927
(lp928
S'word: Two, index: 1'
p929
aatp930
Rp931
(dp932
g12
Vnum
p933
sbag0
(g1
g2
(lp934
(lp935
S'word: they, index: 4'
p936
aatp937
Rp938
(dp939
g12
Vconj
p940
sbatp941
Rp942
(dp943
g12
S'word: guys, index: 2'
p944
sbatp945
Rp946
(dp947
g12
Vnsubj
p948
sbag0
(g1
g2
(lp949
(lp950
S'word: they, index: 4'
p951
aatp952
Rp953
(dp954
g12
Vnsubj
p955
sbag0
(g1
g2
(lp956
(lp957
S"word: 're, index: 5"
p958
aatp959
Rp960
(dp961
g12
Vaux
p962
sbatp963
Rp964
(dp965
g12
S'word: waving, index: 6'
p966
sbatp967
Rp968
(dp969
g12
S'id: 13'
p970
sbag0
(g1
g2
(lp971
g0
(g1
g2
(lp972
g0
(g1
g2
(lp973
g0
(g1
g2
(lp974
g0
(g1
g2
(lp975
g0
(g1
g2
(lp976
g0
(g1
g2
(lp977
(lp978
S'word: she, index: 13'
p979
aatp980
Rp981
(dp982
g12
Vprep
p983
sbag0
(g1
g2
(lp984
g0
(g1
g2
(lp985
g0
(g1
g2
(lp986
(lp987
S'word: Little, index: 1'
p988
aatp989
Rp990
(dp991
g12
Vamod
p992
sbatp993
Rp994
(dp995
g12
S'word: girl, index: 2'
p996
sbatp997
Rp998
(dp999
g12
Vposs
p1000
sbag0
(g1
g2
(lp1001
g0
(g1
g2
(lp1002
g0
(g1
g2
(lp1003
g0
(g1
g2
(lp1004
g0
(g1
g2
(lp1005
(lp1006
S'word: the, index: 9'
p1007
aatp1008
Rp1009
(dp1010
g12
Vdet
p1011
sbatp1012
Rp1013
(dp1014
g12
S'word: sand, index: 10'
p1015
sbatp1016
Rp1017
(dp1018
g12
Vprep
p1019
sbag0
(g1
g2
(lp1020
(lp1021
S'word: she, index: 13'
p1022
aatp1023
Rp1024
(dp1025
g12
Vconj
p1026
sbag0
(g1
g2
(lp1027
(lp1028
S'word: the, index: 6'
p1029
aatp1030
Rp1031
(dp1032
g12
Vdet
p1033
sbatp1034
Rp1035
(dp1036
g12
S'word: beach, index: 7'
p1037
sbatp1038
Rp1039
(dp1040
g12
Vprep
p1041
sbatp1042
Rp1043
(dp1044
g12
S'word: playing, index: 4'
p1045
sbatp1046
Rp1047
(dp1048
g12
Vnsubj
p1049
sbatp1050
Rp1051
(dp1052
g12
S"word: 's, index: 14"
p1053
sbatp1054
Rp1055
(dp1056
g12
Vdep
p1057
sbag0
(g1
g2
(lp1058
g0
(g1
g2
(lp1059
g0
(g1
g2
(lp1060
(lp1061
S'word: a, index: 16'
p1062
aatp1063
Rp1064
(dp1065
g12
Vdet
p1066
sbag0
(g1
g2
(lp1067
g0
(g1
g2
(lp1068
g0
(g1
g2
(lp1069
(lp1070
S'word: a, index: 20'
p1071
aatp1072
Rp1073
(dp1074
g12
Vdet
p1075
sbatp1076
Rp1077
(dp1078
g12
S'word: bucket, index: 21'
p1079
sbatp1080
Rp1081
(dp1082
g12
Vconj
p1083
sbatp1084
Rp1085
(dp1086
g12
S'word: shovel, index: 17'
p1087
sbatp1088
Rp1089
(dp1090
g12
Vdobj
p1091
sbag0
(g1
g2
(lp1092
g1077
atp1093
Rp1094
(dp1095
g12
Vdobj
p1096
sbag0
(g1
g2
(lp1097
g0
(g1
g2
(lp1098
g0
(g1
g2
(lp1099
(lp1100
S'word: yeah, index: 25'
p1101
aatp1102
Rp1103
(dp1104
g12
Vappos
p1105
sbatp1106
Rp1107
(dp1108
g12
S'word: bucket, index: 23'
p1109
sbatp1110
Rp1111
(dp1112
g12
Vnsubj
p1113
sbatp1114
Rp1115
(dp1116
g12
S'word: got, index: 15'
p1117
sbatp1118
Rp1119
(dp1120
g12
S'id: 14'
p1121
sbag0
(g1
g2
(lp1122
g0
(g1
g2
(lp1123
g0
(g1
g2
(lp1124
(lp1125
S'word: The, index: 1'
p1126
aatp1127
Rp1128
(dp1129
g12
Vdet
p1130
sbag0
(g1
g2
(lp1131
(lp1132
S"word: 's, index: 3"
p1133
aatp1134
Rp1135
(dp1136
g12
Vpossessive
p1137
sbag0
(g1
g2
(lp1138
g0
(g1
g2
(lp1139
g0
(g1
g2
(lp1140
g0
(g1
g2
(lp1141
g0
(g1
g2
(lp1142
(lp1143
S'word: tennis, index: 5'
p1144
aatp1145
Rp1146
(dp1147
g12
Vnn
p1148
sbatp1149
Rp1150
(dp1151
g12
S'word: shoes, index: 6'
p1152
sbatp1153
Rp1154
(dp1155
g12
Vdobj
p1156
sbatp1157
Rp1158
(dp1159
g12
S'word: wearing, index: 4'
p1160
sbatp1161
Rp1162
(dp1163
g12
Vvmod
p1164
sbatp1165
Rp1166
(dp1167
g12
S'word: boy, index: 2'
p1168
sbatp1169
Rp1170
(dp1171
g12
S'id: 15'
p1172
sbag0
(g1
g2
(lp1173
g0
(g1
g2
(lp1174
g0
(g1
g2
(lp1175
(lp1176
S'word: House, index: 1'
p1177
aatp1178
Rp1179
(dp1180
g12
Vnsubj
p1181
sbag0
(g1
g2
(lp1182
(lp1183
S'word: is, index: 2'
p1184
aatp1185
Rp1186
(dp1187
g12
Vcop
p1188
sbatp1189
Rp1190
(dp1191
g12
S'word: white, index: 3'
p1192
sbatp1193
Rp1194
(dp1195
g12
S'id: 16'
p1196
sbag0
(g1
g2
(lp1197
g0
(g1
g2
(lp1198
g0
(g1
g2
(lp1199
g0
(g1
g2
(lp1200
g0
(g1
g2
(lp1201
(lp1202
S'word: getting, index: 3'
p1203
aatp1204
Rp1205
(dp1206
g12
Vdep
p1207
sbag0
(g1
g2
(lp1208
g0
(g1
g2
(lp1209
g0
(g1
g2
(lp1210
(lp1211
S"word: 's, index: 2"
p1212
aatp1213
Rp1214
(dp1215
g12
Vpossessive
p1216
sbatp1217
Rp1218
(dp1219
g12
S'word: Dad, index: 1'
p1220
sbatp1221
Rp1222
(dp1223
g12
Vnsubj
p1224
sbatp1225
Rp1226
(dp1227
g12
S'word: old, index: 4'
p1228
sbatp1229
Rp1230
(dp1231
g12
Vvmod
p1232
sbag0
(g1
g2
(lp1233
(lp1234
S'word: he, index: 6'
p1235
aatp1236
Rp1237
(dp1238
g12
Vnsubjpass
p1239
sbag0
(g1
g2
(lp1240
(lp1241
S"word: 's, index: 7"
p1242
aatp1243
Rp1244
(dp1245
g12
Vauxpass
p1246
sbag0
(g1
g2
(lp1247
g0
(g1
g2
(lp1248
g0
(g1
g2
(lp1249
(lp1250
S'word: white, index: 9'
p1251
aatp1252
Rp1253
(dp1254
g12
Vamod
p1255
sbatp1256
Rp1257
(dp1258
g12
S'word: hair, index: 10'
p1259
sbatp1260
Rp1261
(dp1262
g12
Vdobj
p1263
sbag0
(g1
g2
(lp1264
(lp1265
S'word: too, index: 11'
p1266
aatp1267
Rp1268
(dp1269
g12
Vadvmod
p1270
sbatp1271
Rp1272
(dp1273
g12
S'word: got, index: 8'
p1274
sbatp1275
Rp1276
(dp1277
g12
S'id: 17'
p1278
sbag0
(g1
g2
(lp1279
g0
(g1
g2
(lp1280
g0
(g1
g2
(lp1281
(lp1282
S'word: I, index: 1'
p1283
aatp1284
Rp1285
(dp1286
g12
Vnsubj
p1287
sbag0
(g1
g2
(lp1288
(lp1289
S"word: 'm, index: 2"
p1290
aatp1291
Rp1292
(dp1293
g12
Vaux
p1294
sbag0
(g1
g2
(lp1295
(lp1296
S'word: fun, index: 4'
p1297
aatp1298
Rp1299
(dp1300
g12
Vdobj
p1301
sbatp1302
Rp1303
(dp1304
g12
S'word: having, index: 3'
p1305
sbatp1306
Rp1307
(dp1308
g12
S'id: 18'
p1309
sbag0
(g1
g2
(lp1310
g0
(g1
g2
(lp1311
g0
(g1
g2
(lp1312
(lp1313
S'word: He, index: 1'
p1314
aatp1315
Rp1316
(dp1317
g12
Vnsubj
p1318
sbag0
(g1
g2
(lp1319
g0
(g1
g2
(lp1320
g0
(g1
g2
(lp1321
(lp1322
S'word: his, index: 3'
p1323
aatp1324
Rp1325
(dp1326
g12
Vposs
p1327
sbatp1328
Rp1329
(dp1330
g12
S'word: sandals, index: 4'
p1331
sbatp1332
Rp1333
(dp1334
g12
Vdobj
p1335
sbag0
(g1
g2
(lp1336
g0
(g1
g2
(lp1337
g0
(g1
g2
(lp1338
(lp1339
S'word: his, index: 6'
p1340
aatp1341
Rp1342
(dp1343
g12
Vposs
p1344
sbatp1345
Rp1346
(dp1347
g12
S'word: hands, index: 7'
p1348
sbatp1349
Rp1350
(dp1351
g12
Vprep
p1352
sbatp1353
Rp1354
(dp1355
g12
S'word: took, index: 2'
p1356
sbatp1357
Rp1358
(dp1359
g12
S'id: 19'
p1360
sbag0
(g1
g2
(lp1361
g0
(g1
g2
(lp1362
g0
(g1
g2
(lp1363
g0
(g1
g2
(lp1364
g0
(g1
g2
(lp1365
(lp1366
S'word: a, index: 3'
p1367
aatp1368
Rp1369
(dp1370
g12
Vdet
p1371
sbatp1372
Rp1373
(dp1374
g12
S'word: blanket, index: 4'
p1375
sbatp1376
Rp1377
(dp1378
g12
Vprep
p1379
sbatp1380
Rp1381
(dp1382
g12
S'word: Sitting, index: 1'
p1383
sbatp1384
Rp1385
(dp1386
g12
S'id: 20'
p1387
sbag0
(g1
g2
(lp1388
g0
(g1
g2
(lp1389
g0
(g1
g2
(lp1390
(lp1391
S'word: basket, index: 2'
p1392
aatp1393
Rp1394
(dp1395
g12
Vdep
p1396
sbatp1397
Rp1398
(dp1399
g12
S'word: Picnic, index: 1'
p1400
sbatp1401
Rp1402
(dp1403
g12
S'id: 21'
p1404
sbag0
(g1
g2
(lp1405
g0
(g1
g2
(lp1406
g0
(g1
g2
(lp1407
g0
(g1
g2
(lp1408
g0
(g1
g2
(lp1409
(lp1410
S'word: just, index: 4'
p1411
aatp1412
Rp1413
(dp1414
g12
Vadvmod
p1415
sbatp1416
Rp1417
(dp1418
g12
S'word: wine, index: 5'
p1419
sbatp1420
Rp1421
(dp1422
g12
Vappos
p1423
sbag0
(g1
g2
(lp1424
(lp1425
S'word: No, index: 1'
p1426
aatp1427
Rp1428
(dp1429
g12
Vneg
p1430
sbatp1431
Rp1432
(dp1433
g12
S'word: food, index: 2'
p1434
sbatp1435
Rp1436
(dp1437
g12
S'id: 22'
p1438
sbatp1439
Rp1440
(dp1441
g12
S'sentences'
p1442
sb.