ccopy_reg
_reconstructor
p0
(cnltk.tree
Tree
p1
c__builtin__
list
p2
(lp3
g0
(g1
g2
(lp4
g0
(g1
g2
(lp5
g0
(g1
g2
(lp6
(lp7
S'word: o, index: 1'
p8
aatp9
Rp10
(dp11
S'_label'
p12
Vnn
p13
sbag0
(g1
g2
(lp14
(lp15
S'word: that, index: 4'
p16
aatp17
Rp18
(dp19
g12
Vprep
p20
sbag0
(g1
g2
(lp21
(lp22
S'word: again, index: 5'
p23
aatp24
Rp25
(dp26
g12
Vadvmod
p27
sbatp28
Rp29
(dp30
g12
S'word: look, index: 2'
p31
sbatp32
Rp33
(dp34
g12
S'id: 0'
p35
sbag0
(g1
g2
(lp36
tp37
Rp38
(dp39
g12
S'id: 1'
p40
sbag0
(g1
g2
(lp41
g0
(g1
g2
(lp42
g0
(g1
g2
(lp43
g0
(g1
g2
(lp44
g0
(g1
g2
(lp45
(lp46
S"word: 's, index: 2"
p47
aatp48
Rp49
(dp50
g12
Vnsubj
p51
sbag0
(g1
g2
(lp52
(lp53
S'word: here, index: 4'
p54
aatp55
Rp56
(dp57
g12
Vadvmod
p58
sbatp59
Rp60
(dp61
g12
S'word: see, index: 3'
p62
sbatp63
Rp64
(dp65
g12
Vccomp
p66
sbatp67
Rp68
(dp69
g12
S'word: let, index: 1'
p70
sbatp71
Rp72
(dp73
g12
S'id: 2'
p74
sbag0
(g1
g2
(lp75
g0
(g1
g2
(lp76
g0
(g1
g2
(lp77
(lp78
S'word: is, index: 11'
p79
aatp80
Rp81
(dp82
g12
Vaux
p83
sbag0
(g1
g2
(lp84
g0
(g1
g2
(lp85
g0
(g1
g2
(lp86
(lp87
S'word: a, index: 13'
p88
aatp89
Rp90
(dp91
g12
Vdet
p92
sbatp93
Rp94
(dp95
g12
S'word: book, index: 14'
p96
sbatp97
Rp98
(dp99
g12
Vdobj
p100
sbag0
(g1
g2
(lp101
(lp102
S'word: Ok, index: 1'
p103
aatp104
Rp105
(dp106
g12
Vnsubj
p107
sbag0
(g1
g2
(lp108
g0
(g1
g2
(lp109
g0
(g1
g2
(lp110
g0
(g1
g2
(lp111
g0
(g1
g2
(lp112
(lp113
S'word: the, index: 17'
p114
aatp115
Rp116
(dp117
g12
Vdet
p118
sbatp119
Rp120
(dp121
g12
S'word: girl, index: 18'
p122
sbatp123
Rp124
(dp125
g12
Vnsubj
p126
sbag0
(g1
g2
(lp127
(lp128
S'word: is, index: 19'
p129
aatp130
Rp131
(dp132
g12
Vaux
p133
sbag0
(g1
g2
(lp134
(lp135
S'word: wine, index: 21'
p136
aatp137
Rp138
(dp139
g12
Vdobj
p140
sbatp141
Rp142
(dp143
g12
S'word: pouring, index: 20'
p144
sbatp145
Rp146
(dp147
g12
Vconj
p148
sbag0
(g1
g2
(lp149
g0
(g1
g2
(lp150
g0
(g1
g2
(lp151
(lp152
S'word: i, index: 3'
p153
aatp154
Rp155
(dp156
g12
Vnsubj
p157
sbag0
(g1
g2
(lp158
(lp159
S'word: can, index: 4'
p160
aatp161
Rp162
(dp163
g12
Vaux
p164
sbag0
(g1
g2
(lp165
(lp166
S'word: back, index: 6'
p167
aatp168
Rp169
(dp170
g12
Vadvmod
p171
sbag0
(g1
g2
(lp172
g0
(g1
g2
(lp173
g0
(g1
g2
(lp174
g0
(g1
g2
(lp175
g0
(g1
g2
(lp176
(lp177
S'word: that, index: 9'
p178
aatp179
Rp180
(dp181
g12
Vdet
p182
sbatp183
Rp184
(dp185
g12
S'word: boy, index: 10'
p186
sbatp187
Rp188
(dp189
g12
Vdobj
p190
sbag0
(g1
g2
(lp191
(lp192
S'word: i, index: 3'
p193
aatp194
Rp195
(dp196
g12
Vnsubj
p197
sbatp198
Rp199
(dp200
g12
S'word: make, index: 8'
p201
sbatp202
Rp203
(dp204
g12
Vconj
p205
sbatp206
Rp207
(dp208
g12
S'word: go, index: 5'
p209
sbatp210
Rp211
(dp212
g12
Vparataxis
p213
sbag0
(g1
g2
(lp214
g199
atp215
Rp216
(dp217
g12
Vparataxis
p218
sbatp219
Rp220
(dp221
g12
S'word: reading, index: 12'
p222
sbatp223
Rp224
(dp225
g12
S'id: 3'
p226
sbag0
(g1
g2
(lp227
g0
(g1
g2
(lp228
g0
(g1
g2
(lp229
g0
(g1
g2
(lp230
g0
(g1
g2
(lp231
(lp232
S'word: he, index: 12'
p233
aatp234
Rp235
(dp236
g12
Vnsubj
p237
sbag0
(g1
g2
(lp238
g0
(g1
g2
(lp239
g0
(g1
g2
(lp240
(lp241
S'word: a, index: 14'
p242
aatp243
Rp244
(dp245
g12
Vdet
p246
sbag0
(g1
g2
(lp247
g0
(g1
g2
(lp248
g0
(g1
g2
(lp249
g0
(g1
g2
(lp250
g0
(g1
g2
(lp251
(lp252
S'word: a, index: 17'
p253
aatp254
Rp255
(dp256
g12
Vdet
p257
sbatp258
Rp259
(dp260
g12
S'word: phone, index: 18'
p261
sbatp262
Rp263
(dp264
g12
Vnpadvmod
p265
sbatp266
Rp267
(dp268
g12
S'word: there, index: 19'
p269
sbatp270
Rp271
(dp272
g12
Vadvmod
p273
sbag0
(g1
g2
(lp274
g0
(g1
g2
(lp275
g0
(g1
g2
(lp276
(lp277
S'word: a, index: 21'
p278
aatp279
Rp280
(dp281
g12
Vdet
p282
sbatp283
Rp284
(dp285
g12
S'word: telephone, index: 22'
p286
sbatp287
Rp288
(dp289
g12
Vappos
p290
sbag0
(g1
g2
(lp291
g0
(g1
g2
(lp292
g0
(g1
g2
(lp293
g0
(g1
g2
(lp294
g0
(g1
g2
(lp295
(lp296
S'word: a, index: 25'
p297
aatp298
Rp299
(dp300
g12
Vdet
p301
sbatp302
Rp303
(dp304
g12
S'word: telephone, index: 26'
p305
sbatp306
Rp307
(dp308
g12
Vdep
p309
sbatp310
Rp311
(dp312
g12
S'word: not, index: 24'
p313
sbatp314
Rp315
(dp316
g12
Vadvmod
p317
sbatp318
Rp319
(dp320
g12
S'word: wire, index: 15'
p321
sbatp322
Rp323
(dp324
g12
Vdobj
p325
sbag0
(g1
g2
(lp326
g0
(g1
g2
(lp327
g0
(g1
g2
(lp328
(lp329
S'word: I, index: 29'
p330
aatp331
Rp332
(dp333
g12
Vnsubj
p334
sbag0
(g1
g2
(lp335
(lp336
S'word: ca, index: 30'
p337
aatp338
Rp339
(dp340
g12
Vaux
p341
sbag0
(g1
g2
(lp342
(lp343
S"word: n't, index: 31"
p344
aatp345
Rp346
(dp347
g12
Vneg
p348
sbag0
(g1
g2
(lp349
(lp350
S'word: it, index: 34'
p351
aatp352
Rp353
(dp354
g12
Vprep
p355
sbatp356
Rp357
(dp358
g12
S'word: think, index: 32'
p359
sbatp360
Rp361
(dp362
g12
Vconj
p363
sbatp364
Rp365
(dp366
g12
S'word: has, index: 13'
p367
sbatp368
Rp369
(dp370
g12
Vconj
p371
sbag0
(g1
g2
(lp372
g357
atp373
Rp374
(dp375
g12
Vconj
p376
sbag0
(g1
g2
(lp377
(lp378
S'word: they, index: 2'
p379
aatp380
Rp381
(dp382
g12
Vnsubj
p383
sbag0
(g1
g2
(lp384
g0
(g1
g2
(lp385
g0
(g1
g2
(lp386
(lp387
S'word: he, index: 5'
p388
aatp389
Rp390
(dp391
g12
Vnsubj
p392
sbag0
(g1
g2
(lp393
g0
(g1
g2
(lp394
g0
(g1
g2
(lp395
(lp396
S'word: his, index: 7'
p397
aatp398
Rp399
(dp400
g12
Vposs
p401
sbatp402
Rp403
(dp404
g12
S'word: shoes, index: 8'
p405
sbatp406
Rp407
(dp408
g12
Vdobj
p409
sbag0
(g1
g2
(lp410
(lp411
S'word: off, index: 9'
p412
aatp413
Rp414
(dp415
g12
Vprep
p416
sbatp417
Rp418
(dp419
g12
S'word: has, index: 6'
p420
sbatp421
Rp422
(dp423
g12
Vdep
p424
sbatp425
Rp426
(dp427
g12
S'word: have, index: 3'
p428
sbatp429
Rp430
(dp431
g12
S'id: 4'
p432
sbag0
(g1
g2
(lp433
g0
(g1
g2
(lp434
g0
(g1
g2
(lp435
(lp436
S'word: It, index: 1'
p437
aatp438
Rp439
(dp440
g12
Vnsubj
p441
sbag0
(g1
g2
(lp442
(lp443
S"word: 's, index: 2"
p444
aatp445
Rp446
(dp447
g12
Vcop
p448
sbag0
(g1
g2
(lp449
g0
(g1
g2
(lp450
g0
(g1
g2
(lp451
(lp452
S'word: it, index: 5'
p453
aatp454
Rp455
(dp456
g12
Vnsubj
p457
sbag0
(g1
g2
(lp458
(lp459
S"word: 's, index: 6"
p460
aatp461
Rp462
(dp463
g12
Vcop
p464
sbatp465
Rp466
(dp467
g12
S'word: a, index: 7'
p468
sbatp469
Rp470
(dp471
g12
Vparataxis
p472
sbag0
(g1
g2
(lp473
g0
(g1
g2
(lp474
g0
(g1
g2
(lp475
(lp476
S'word: it, index: 9'
p477
aatp478
Rp479
(dp480
g12
Vnsubj
p481
sbag0
(g1
g2
(lp482
g0
(g1
g2
(lp483
g0
(g1
g2
(lp484
(lp485
S'word: ok, index: 13'
p486
aatp487
Rp488
(dp489
g12
Vappos
p490
sbatp491
Rp492
(dp493
g12
S'word: music, index: 11'
p494
sbatp495
Rp496
(dp497
g12
Vdobj
p498
sbatp499
Rp500
(dp501
g12
S'word: makes, index: 10'
p502
sbatp503
Rp504
(dp505
g12
Vparataxis
p506
sbatp507
Rp508
(dp509
g12
S'word: a, index: 3'
p510
sbatp511
Rp512
(dp513
g12
S'id: 5'
p514
sbag0
(g1
g2
(lp515
g0
(g1
g2
(lp516
g0
(g1
g2
(lp517
g0
(g1
g2
(lp518
g0
(g1
g2
(lp519
(lp520
S'word: the, index: 18'
p521
aatp522
Rp523
(dp524
g12
Vdet
p525
sbag0
(g1
g2
(lp526
(lp527
S'word: little, index: 19'
p528
aatp529
Rp530
(dp531
g12
Vamod
p532
sbag0
(g1
g2
(lp533
(lp534
S'word: little, index: 21'
p535
aatp536
Rp537
(dp538
g12
Vamod
p539
sbag0
(g1
g2
(lp540
(lp541
S'word: is, index: 17'
p542
aatp543
Rp544
(dp545
g12
Vcop
p546
sbatp547
Rp548
(dp549
g12
S'word: dog, index: 22'
p550
sbatp551
Rp552
(dp553
g12
Vdep
p554
sbag0
(g1
g2
(lp555
g0
(g1
g2
(lp556
g0
(g1
g2
(lp557
(lp558
S'word: a, index: 2'
p559
aatp560
Rp561
(dp562
g12
Vdet
p563
sbag0
(g1
g2
(lp564
(lp565
S'word: little, index: 3'
p566
aatp567
Rp568
(dp569
g12
Vamod
p570
sbag0
(g1
g2
(lp571
(lp572
S'word: little, index: 5'
p573
aatp574
Rp575
(dp576
g12
Vamod
p577
sbag0
(g1
g2
(lp578
(lp579
S'word: litte, index: 7'
p580
aatp581
Rp582
(dp583
g12
Vamod
p584
sbag0
(g1
g2
(lp585
g0
(g1
g2
(lp586
g0
(g1
g2
(lp587
(lp588
S'word: the, index: 10'
p589
aatp590
Rp591
(dp592
g12
Vdet
p593
sbag0
(g1
g2
(lp594
(lp595
S'word: little, index: 11'
p596
aatp597
Rp598
(dp599
g12
Vamod
p600
sbatp601
Rp602
(dp603
g12
S'word: fellow, index: 12'
p604
sbatp605
Rp606
(dp607
g12
Vappos
p608
sbatp609
Rp610
(dp611
g12
S'word: guy, index: 8'
p612
sbatp613
Rp614
(dp615
g12
Vnsubj
p616
sbag0
(g1
g2
(lp617
g0
(g1
g2
(lp618
g0
(g1
g2
(lp619
(lp620
S'word: the, index: 25'
p621
aatp622
Rp623
(dp624
g12
Vdet
p625
sbag0
(g1
g2
(lp626
g0
(g1
g2
(lp627
g0
(g1
g2
(lp628
(lp629
S'word: that, index: 27'
p630
aatp631
Rp632
(dp633
g12
Vnsubj
p634
sbag0
(g1
g2
(lp635
(lp636
S"word: 's, index: 28"
p637
aatp638
Rp639
(dp640
g12
Vaux
p641
sbag0
(g1
g2
(lp642
g0
(g1
g2
(lp643
g0
(g1
g2
(lp644
(lp645
S'word: the, index: 30'
p646
aatp647
Rp648
(dp649
g12
Vdet
p650
sbatp651
Rp652
(dp653
g12
S'word: flag, index: 31'
p654
sbatp655
Rp656
(dp657
g12
Vdobj
p658
sbatp659
Rp660
(dp661
g12
S'word: pulling, index: 29'
p662
sbatp663
Rp664
(dp665
g12
Vrcmod
p666
sbatp667
Rp668
(dp669
g12
S'word: fellow, index: 26'
p670
sbatp671
Rp672
(dp673
g12
Vprep
p674
sbag0
(g1
g2
(lp675
(lp676
S'word: is, index: 14'
p677
aatp678
Rp679
(dp680
g12
Vcop
p681
sbag0
(g1
g2
(lp682
(lp683
S'word: And, index: 1'
p684
aatp685
Rp686
(dp687
g12
Vcc
p688
sbatp689
Rp690
(dp691
g12
S'word: the, index: 15'
p692
sbatp693
Rp694
(dp695
g12
S'id: 6'
p696
sbag0
(g1
g2
(lp697
g0
(g1
g2
(lp698
g0
(g1
g2
(lp699
g0
(g1
g2
(lp700
g0
(g1
g2
(lp701
(lp702
S'word: he, index: 5'
p703
aatp704
Rp705
(dp706
g12
Vnsubj
p707
sbag0
(g1
g2
(lp708
(lp709
S'word: can, index: 6'
p710
aatp711
Rp712
(dp713
g12
Vaux
p714
sbag0
(g1
g2
(lp715
(lp716
S'word: too, index: 8'
p717
aatp718
Rp719
(dp720
g12
Vadvmod
p721
sbag0
(g1
g2
(lp722
g0
(g1
g2
(lp723
g0
(g1
g2
(lp724
g0
(g1
g2
(lp725
g0
(g1
g2
(lp726
(lp727
S'word: it, index: 11'
p728
aatp729
Rp730
(dp731
g12
Vnsubj
p732
sbatp733
Rp734
(dp735
g12
S'word: done, index: 12'
p736
sbatp737
Rp738
(dp739
g12
Vdep
p740
sbatp741
Rp742
(dp743
g12
S'word: getting, index: 10'
p744
sbatp745
Rp746
(dp747
g12
Vxcomp
p748
sbag0
(g1
g2
(lp749
(lp750
S'word: as, index: 4'
p751
aatp752
Rp753
(dp754
g12
Vmark
p755
sbatp756
Rp757
(dp758
g12
S'word: be, index: 7'
p759
sbatp760
Rp761
(dp762
g12
Vadvcl
p763
sbag0
(g1
g2
(lp764
(lp765
S'word: He, index: 1'
p766
aatp767
Rp768
(dp769
g12
Vnsubj
p770
sbag0
(g1
g2
(lp771
(lp772
S'word: is, index: 2'
p773
aatp774
Rp775
(dp776
g12
Vcop
p777
sbatp778
Rp779
(dp780
g12
S'word: happy, index: 3'
p781
sbatp782
Rp783
(dp784
g12
S'id: 7'
p785
sbag0
(g1
g2
(lp786
g0
(g1
g2
(lp787
g0
(g1
g2
(lp788
g0
(g1
g2
(lp789
g0
(g1
g2
(lp790
(lp791
S'word: he, index: 25'
p792
aatp793
Rp794
(dp795
g12
Vnsubjpass
p796
sbag0
(g1
g2
(lp797
(lp798
S"word: 's, index: 26"
p799
aatp800
Rp801
(dp802
g12
Vauxpass
p803
sbag0
(g1
g2
(lp804
(lp805
S'word: up, index: 28'
p806
aatp807
Rp808
(dp809
g12
Vprt
p810
sbag0
(g1
g2
(lp811
g0
(g1
g2
(lp812
g0
(g1
g2
(lp813
(lp814
S'word: a, index: 29'
p815
aatp816
Rp817
(dp818
g12
Vdet
p819
sbatp820
Rp821
(dp822
g12
S'word: fish, index: 30'
p823
sbatp824
Rp825
(dp826
g12
Vdobj
p827
sbatp828
Rp829
(dp830
g12
S'word: pulled, index: 27'
p831
sbatp832
Rp833
(dp834
g12
Vparataxis
p835
sbag0
(g1
g2
(lp836
(lp837
S'word: There, index: 1'
p838
aatp839
Rp840
(dp841
g12
Vexpl
p842
sbag0
(g1
g2
(lp843
g0
(g1
g2
(lp844
g0
(g1
g2
(lp845
(lp846
S'word: a, index: 3'
p847
aatp848
Rp849
(dp850
g12
Vdet
p851
sbag0
(g1
g2
(lp852
g0
(g1
g2
(lp853
g0
(g1
g2
(lp854
g0
(g1
g2
(lp855
g0
(g1
g2
(lp856
g0
(g1
g2
(lp857
g0
(g1
g2
(lp858
g0
(g1
g2
(lp859
g0
(g1
g2
(lp860
(lp861
S'word: he, index: 9'
p862
aatp863
Rp864
(dp865
g12
Vnsubj
p866
sbag0
(g1
g2
(lp867
g0
(g1
g2
(lp868
g0
(g1
g2
(lp869
g0
(g1
g2
(lp870
g0
(g1
g2
(lp871
(lp872
S'word: i, index: 13'
p873
aatp874
Rp875
(dp876
g12
Vdep
p877
sbatp878
Rp879
(dp880
g12
S'word: o, index: 12'
p881
sbatp882
Rp883
(dp884
g12
Vnsubj
p885
sbag0
(g1
g2
(lp886
g0
(g1
g2
(lp887
g0
(g1
g2
(lp888
(lp889
S'word: he, index: 15'
p890
aatp891
Rp892
(dp893
g12
Vnsubjpass
p894
sbag0
(g1
g2
(lp895
(lp896
S"word: 's, index: 16"
p897
aatp898
Rp899
(dp900
g12
Vauxpass
p901
sbatp902
Rp903
(dp904
g12
S'word: seen, index: 17'
p905
sbatp906
Rp907
(dp908
g12
Vccomp
p909
sbatp910
Rp911
(dp912
g12
S'word: guess, index: 14'
p913
sbatp914
Rp915
(dp916
g12
Vccomp
p917
sbatp918
Rp919
(dp920
g12
S"word: 's, index: 10"
p921
sbatp922
Rp923
(dp924
g12
Vrcmod
p925
sbatp926
Rp927
(dp928
g12
S'word: o, index: 8'
p929
sbatp930
Rp931
(dp932
g12
Vappos
p933
sbatp934
Rp935
(dp936
g12
S'word: there, index: 6'
p937
sbatp938
Rp939
(dp940
g12
Vpobj
p941
sbatp942
Rp943
(dp944
g12
S'word: out, index: 5'
p945
sbatp946
Rp947
(dp948
g12
Vprep
p949
sbatp950
Rp951
(dp952
g12
S'word: fellow, index: 4'
p953
sbatp954
Rp955
(dp956
g12
Vnsubj
p957
sbag0
(g1
g2
(lp958
g0
(g1
g2
(lp959
g0
(g1
g2
(lp960
(lp961
S'word: he, index: 19'
p962
aatp963
Rp964
(dp965
g12
Vnsubjpass
p966
sbag0
(g1
g2
(lp967
(lp968
S"word: 's, index: 20"
p969
aatp970
Rp971
(dp972
g12
Vauxpass
p973
sbag0
(g1
g2
(lp974
g0
(g1
g2
(lp975
g0
(g1
g2
(lp976
(lp977
S'word: a, index: 22'
p978
aatp979
Rp980
(dp981
g12
Vdet
p982
sbatp983
Rp984
(dp985
g12
S'word: fish, index: 23'
p986
sbatp987
Rp988
(dp989
g12
Vdobj
p990
sbatp991
Rp992
(dp993
g12
S'word: got, index: 21'
p994
sbatp995
Rp996
(dp997
g12
Vparataxis
p998
sbatp999
Rp1000
(dp1001
g12
S"word: 's, index: 2"
p1002
sbatp1003
Rp1004
(dp1005
g12
S'id: 8'
p1006
sbag0
(g1
g2
(lp1007
g0
(g1
g2
(lp1008
g0
(g1
g2
(lp1009
(lp1010
S'word: And, index: 1'
p1011
aatp1012
Rp1013
(dp1014
g12
Vcc
p1015
sbag0
(g1
g2
(lp1016
(lp1017
S'word: then, index: 2'
p1018
aatp1019
Rp1020
(dp1021
g12
Vadvmod
p1022
sbag0
(g1
g2
(lp1023
(lp1024
S'word: there, index: 3'
p1025
aatp1026
Rp1027
(dp1028
g12
Vexpl
p1029
sbag0
(g1
g2
(lp1030
g0
(g1
g2
(lp1031
g0
(g1
g2
(lp1032
(lp1033
S'word: the, index: 5'
p1034
aatp1035
Rp1036
(dp1037
g12
Vdet
p1038
sbatp1039
Rp1040
(dp1041
g12
S'word: flag, index: 6'
p1042
sbatp1043
Rp1044
(dp1045
g12
Vnsubj
p1046
sbatp1047
Rp1048
(dp1049
g12
S"word: 's, index: 4"
p1050
sbatp1051
Rp1052
(dp1053
g12
S'id: 9'
p1054
sbag0
(g1
g2
(lp1055
g0
(g1
g2
(lp1056
g0
(g1
g2
(lp1057
(lp1058
S'word: I, index: 1'
p1059
aatp1060
Rp1061
(dp1062
g12
Vnsubj
p1063
sbag0
(g1
g2
(lp1064
(lp1065
S'word: do, index: 2'
p1066
aatp1067
Rp1068
(dp1069
g12
Vaux
p1070
sbag0
(g1
g2
(lp1071
(lp1072
S"word: n't, index: 3"
p1073
aatp1074
Rp1075
(dp1076
g12
Vneg
p1077
sbag0
(g1
g2
(lp1078
g0
(g1
g2
(lp1079
g0
(g1
g2
(lp1080
(lp1081
S'word: the, index: 5'
p1082
aatp1083
Rp1084
(dp1085
g12
Vdet
p1086
sbatp1087
Rp1088
(dp1089
g12
S'word: flag, index: 6'
p1090
sbatp1091
Rp1092
(dp1093
g12
Vdobj
p1094
sbag0
(g1
g2
(lp1095
(lp1096
S'word: before, index: 7'
p1097
aatp1098
Rp1099
(dp1100
g12
Vadvmod
p1101
sbag0
(g1
g2
(lp1102
g0
(g1
g2
(lp1103
g0
(g1
g2
(lp1104
(lp1105
S'word: maybe, index: 9'
p1106
aatp1107
Rp1108
(dp1109
g12
Vadvmod
p1110
sbag0
(g1
g2
(lp1111
(lp1112
S'word: I, index: 10'
p1113
aatp1114
Rp1115
(dp1116
g12
Vnsubj
p1117
sbatp1118
Rp1119
(dp1120
g12
S'word: did, index: 11'
p1121
sbatp1122
Rp1123
(dp1124
g12
Vparataxis
p1125
sbatp1126
Rp1127
(dp1128
g12
S'word: remember, index: 4'
p1129
sbatp1130
Rp1131
(dp1132
g12
S'id: 10'
p1133
sbag0
(g1
g2
(lp1134
g0
(g1
g2
(lp1135
g0
(g1
g2
(lp1136
g0
(g1
g2
(lp1137
g0
(g1
g2
(lp1138
(lp1139
S'word: The, index: 1'
p1140
aatp1141
Rp1142
(dp1143
g12
Vdet
p1144
sbatp1145
Rp1146
(dp1147
g12
S'word: flag, index: 2'
p1148
sbatp1149
Rp1150
(dp1151
g12
Vnsubj
p1152
sbag0
(g1
g2
(lp1153
(lp1154
S'word: there, index: 4'
p1155
aatp1156
Rp1157
(dp1158
g12
Vadvmod
p1159
sbatp1160
Rp1161
(dp1162
g12
S'word: is, index: 3'
p1163
sbatp1164
Rp1165
(dp1166
g12
S'id: 11'
p1167
sbag0
(g1
g2
(lp1168
g0
(g1
g2
(lp1169
g0
(g1
g2
(lp1170
g0
(g1
g2
(lp1171
g0
(g1
g2
(lp1172
g0
(g1
g2
(lp1173
g0
(g1
g2
(lp1174
(lp1175
S'word: the, index: 6'
p1176
aatp1177
Rp1178
(dp1179
g12
Vdet
p1180
sbatp1181
Rp1182
(dp1183
g12
S'word: garage, index: 7'
p1184
sbatp1185
Rp1186
(dp1187
g12
Vprep
p1188
sbag0
(g1
g2
(lp1189
(lp1190
S'word: a, index: 3'
p1191
aatp1192
Rp1193
(dp1194
g12
Vdet
p1195
sbatp1196
Rp1197
(dp1198
g12
S'word: car, index: 4'
p1199
sbatp1200
Rp1201
(dp1202
g12
Vnsubj
p1203
sbag0
(g1
g2
(lp1204
(lp1205
S'word: There, index: 1'
p1206
aatp1207
Rp1208
(dp1209
g12
Vexpl
p1210
sbatp1211
Rp1212
(dp1213
g12
S"word: 's, index: 2"
p1214
sbatp1215
Rp1216
(dp1217
g12
S'id: 12'
p1218
sbag0
(g1
g2
(lp1219
g0
(g1
g2
(lp1220
g0
(g1
g2
(lp1221
g0
(g1
g2
(lp1222
g0
(g1
g2
(lp1223
(lp1224
S'word: cedar, index: 7'
p1225
aatp1226
Rp1227
(dp1228
g12
Vnn
p1229
sbag0
(g1
g2
(lp1230
g0
(g1
g2
(lp1231
g0
(g1
g2
(lp1232
(lp1233
S'word: some, index: 11'
p1234
aatp1235
Rp1236
(dp1237
g12
Vdet
p1238
sbag0
(g1
g2
(lp1239
(lp1240
S'word: tree, index: 14'
p1241
aatp1242
Rp1243
(dp1244
g12
Vprep
p1245
sbatp1246
Rp1247
(dp1248
g12
S'word: kind, index: 12'
p1249
sbatp1250
Rp1251
(dp1252
g12
Vconj
p1253
sbag0
(g1
g2
(lp1254
(lp1255
S'word: a, index: 6'
p1256
aatp1257
Rp1258
(dp1259
g12
Vdet
p1260
sbatp1261
Rp1262
(dp1263
g12
S'word: tree, index: 8'
p1264
sbatp1265
Rp1266
(dp1267
g12
Vnsubj
p1268
sbag0
(g1
g2
(lp1269
g1247
atp1270
Rp1271
(dp1272
g12
Vnsubj
p1273
sbag0
(g1
g2
(lp1274
(lp1275
S'word: And, index: 1'
p1276
aatp1277
Rp1278
(dp1279
g12
Vcc
p1280
sbag0
(g1
g2
(lp1281
(lp1282
S'word: the, index: 2'
p1283
aatp1284
Rp1285
(dp1286
g12
Vtmod
p1287
sbag0
(g1
g2
(lp1288
(lp1289
S'word: there, index: 4'
p1290
aatp1291
Rp1292
(dp1293
g12
Vexpl
p1294
sbatp1295
Rp1296
(dp1297
g12
S"word: 's, index: 5"
p1298
sbatp1299
Rp1300
(dp1301
g12
S'id: 13'
p1302
sbag0
(g1
g2
(lp1303
g0
(g1
g2
(lp1304
g0
(g1
g2
(lp1305
(lp1306
S'word: do, index: 10'
p1307
aatp1308
Rp1309
(dp1310
g12
Vaux
p1311
sbag0
(g1
g2
(lp1312
(lp1313
S"word: n't, index: 11"
p1314
aatp1315
Rp1316
(dp1317
g12
Vneg
p1318
sbag0
(g1
g2
(lp1319
g0
(g1
g2
(lp1320
g0
(g1
g2
(lp1321
(lp1322
S'word: I, index: 1'
p1323
aatp1324
Rp1325
(dp1326
g12
Vnsubj
p1327
sbag0
(g1
g2
(lp1328
g0
(g1
g2
(lp1329
g0
(g1
g2
(lp1330
(lp1331
S'word: it, index: 3'
p1332
aatp1333
Rp1334
(dp1335
g12
Vnsubj
p1336
sbag0
(g1
g2
(lp1337
(lp1338
S"word: 's, index: 4"
p1339
aatp1340
Rp1341
(dp1342
g12
Vcop
p1343
sbag0
(g1
g2
(lp1344
(lp1345
S'word: a, index: 5'
p1346
aatp1347
Rp1348
(dp1349
g12
Vdet
p1350
sbag0
(g1
g2
(lp1351
(lp1352
S'word: cedar, index: 6'
p1353
aatp1354
Rp1355
(dp1356
g12
Vnn
p1357
sbatp1358
Rp1359
(dp1360
g12
S'word: tree, index: 7'
p1361
sbatp1362
Rp1363
(dp1364
g12
Vccomp
p1365
sbatp1366
Rp1367
(dp1368
g12
S'word: think, index: 2'
p1369
sbatp1370
Rp1371
(dp1372
g12
Vccomp
p1373
sbag0
(g1
g2
(lp1374
(lp1375
S'word: I, index: 9'
p1376
aatp1377
Rp1378
(dp1379
g12
Vnsubj
p1380
sbatp1381
Rp1382
(dp1383
g12
S'word: know, index: 12'
p1384
sbatp1385
Rp1386
(dp1387
g12
S'id: 14'
p1388
sbag0
(g1
g2
(lp1389
g0
(g1
g2
(lp1390
g0
(g1
g2
(lp1391
(lp1392
S'word: And, index: 1'
p1393
aatp1394
Rp1395
(dp1396
g12
Vcc
p1397
sbag0
(g1
g2
(lp1398
(lp1399
S'word: then, index: 2'
p1400
aatp1401
Rp1402
(dp1403
g12
Vadvmod
p1404
sbag0
(g1
g2
(lp1405
(lp1406
S'word: it, index: 3'
p1407
aatp1408
Rp1409
(dp1410
g12
Vnsubj
p1411
sbag0
(g1
g2
(lp1412
g0
(g1
g2
(lp1413
g0
(g1
g2
(lp1414
g0
(g1
g2
(lp1415
g0
(g1
g2
(lp1416
(lp1417
S'word: the, index: 7'
p1418
aatp1419
Rp1420
(dp1421
g12
Vdet
p1422
sbatp1423
Rp1424
(dp1425
g12
S'word: house, index: 8'
p1426
sbatp1427
Rp1428
(dp1429
g12
Vprep
p1430
sbatp1431
Rp1432
(dp1433
g12
S'word: foliage, index: 5'
p1434
sbatp1435
Rp1436
(dp1437
g12
Vdobj
p1438
sbatp1439
Rp1440
(dp1441
g12
S'word: has, index: 4'
p1442
sbatp1443
Rp1444
(dp1445
g12
S'id: 15'
p1446
sbag0
(g1
g2
(lp1447
g0
(g1
g2
(lp1448
g0
(g1
g2
(lp1449
(lp1450
S'word: And, index: 1'
p1451
aatp1452
Rp1453
(dp1454
g12
Vcc
p1455
sbag0
(g1
g2
(lp1456
(lp1457
S'word: it, index: 2'
p1458
aatp1459
Rp1460
(dp1461
g12
Vnsubj
p1462
sbag0
(g1
g2
(lp1463
g0
(g1
g2
(lp1464
g0
(g1
g2
(lp1465
(lp1466
S'word: the, index: 4'
p1467
aatp1468
Rp1469
(dp1470
g12
Vdet
p1471
sbag0
(g1
g2
(lp1472
g0
(g1
g2
(lp1473
g0
(g1
g2
(lp1474
g0
(g1
g2
(lp1475
g0
(g1
g2
(lp1476
g0
(g1
g2
(lp1477
g0
(g1
g2
(lp1478
(lp1479
S'word: sand, index: 19'
p1480
aatp1481
Rp1482
(dp1483
g12
Vnn
p1484
sbatp1485
Rp1486
(dp1487
g12
S'word: castle, index: 20'
p1488
sbatp1489
Rp1490
(dp1491
g12
Vdobj
p1492
sbatp1493
Rp1494
(dp1495
g12
S'word: making, index: 18'
p1496
sbatp1497
Rp1498
(dp1499
g12
Vvmod
p1500
sbag0
(g1
g2
(lp1501
g0
(g1
g2
(lp1502
g0
(g1
g2
(lp1503
(lp1504
S'word: the, index: 10'
p1505
aatp1506
Rp1507
(dp1508
g12
Vdet
p1509
sbag0
(g1
g2
(lp1510
(lp1511
S'word: sand, index: 11'
p1512
aatp1513
Rp1514
(dp1515
g12
Vnn
p1516
sbatp1517
Rp1518
(dp1519
g12
S'word: bed, index: 12'
p1520
sbatp1521
Rp1522
(dp1523
g12
Vprep
p1524
sbag0
(g1
g2
(lp1525
g0
(g1
g2
(lp1526
g0
(g1
g2
(lp1527
g0
(g1
g2
(lp1528
g0
(g1
g2
(lp1529
(lp1530
S'word: the, index: 15'
p1531
aatp1532
Rp1533
(dp1534
g12
Vdet
p1535
sbatp1536
Rp1537
(dp1538
g12
S'word: sand, index: 16'
p1539
sbatp1540
Rp1541
(dp1542
g12
Vdobj
p1543
sbatp1544
Rp1545
(dp1546
g12
S'word: making, index: 14'
p1547
sbatp1548
Rp1549
(dp1550
g12
Vvmod
p1551
sbatp1552
Rp1553
(dp1554
g12
S'word: the, index: 7'
p1555
sbatp1556
Rp1557
(dp1558
g12
Vprep
p1559
sbatp1560
Rp1561
(dp1562
g12
S'word: girl, index: 5'
p1563
sbatp1564
Rp1565
(dp1566
g12
Vdobj
p1567
sbatp1568
Rp1569
(dp1570
g12
S'word: has, index: 3'
p1571
sbatp1572
Rp1573
(dp1574
g12
S'id: 16'
p1575
sbag0
(g1
g2
(lp1576
g0
(g1
g2
(lp1577
g0
(g1
g2
(lp1578
(lp1579
S'word: a, index: 3'
p1580
aatp1581
Rp1582
(dp1583
g12
Vdet
p1584
sbag0
(g1
g2
(lp1585
g0
(g1
g2
(lp1586
g0
(g1
g2
(lp1587
(lp1588
S'word: she, index: 5'
p1589
aatp1590
Rp1591
(dp1592
g12
Vnsubjpass
p1593
sbag0
(g1
g2
(lp1594
(lp1595
S"word: 's, index: 6"
p1596
aatp1597
Rp1598
(dp1599
g12
Vauxpass
p1600
sbag0
(g1
g2
(lp1601
(lp1602
S'word: there, index: 8'
p1603
aatp1604
Rp1605
(dp1606
g12
Vadvmod
p1607
sbatp1608
Rp1609
(dp1610
g12
S'word: got, index: 7'
p1611
sbatp1612
Rp1613
(dp1614
g12
Vrcmod
p1615
sbag0
(g1
g2
(lp1616
(lp1617
S'word: that, index: 1'
p1618
aatp1619
Rp1620
(dp1621
g12
Vnsubj
p1622
sbag0
(g1
g2
(lp1623
(lp1624
S"word: 's, index: 2"
p1625
aatp1626
Rp1627
(dp1628
g12
Vcop
p1629
sbatp1630
Rp1631
(dp1632
g12
S'word: castle, index: 4'
p1633
sbatp1634
Rp1635
(dp1636
g12
S'id: 17'
p1637
sbag0
(g1
g2
(lp1638
g0
(g1
g2
(lp1639
g0
(g1
g2
(lp1640
g0
(g1
g2
(lp1641
g0
(g1
g2
(lp1642
g0
(g1
g2
(lp1643
g0
(g1
g2
(lp1644
(lp1645
S'word: a, index: 8'
p1646
aatp1647
Rp1648
(dp1649
g12
Vdet
p1650
sbatp1651
Rp1652
(dp1653
g12
S'word: bowl, index: 9'
p1654
sbatp1655
Rp1656
(dp1657
g12
Vprep
p1658
sbag0
(g1
g2
(lp1659
(lp1660
S'word: a, index: 5'
p1661
aatp1662
Rp1663
(dp1664
g12
Vdet
p1665
sbatp1666
Rp1667
(dp1668
g12
S'word: stick, index: 6'
p1669
sbatp1670
Rp1671
(dp1672
g12
Vnsubj
p1673
sbag0
(g1
g2
(lp1674
(lp1675
S'word: there, index: 10'
p1676
aatp1677
Rp1678
(dp1679
g12
Vadvmod
p1680
sbag0
(g1
g2
(lp1681
(lp1682
S'word: And, index: 1'
p1683
aatp1684
Rp1685
(dp1686
g12
Vcc
p1687
sbag0
(g1
g2
(lp1688
(lp1689
S'word: then, index: 2'
p1690
aatp1691
Rp1692
(dp1693
g12
Vadvmod
p1694
sbag0
(g1
g2
(lp1695
(lp1696
S'word: there, index: 3'
p1697
aatp1698
Rp1699
(dp1700
g12
Vexpl
p1701
sbatp1702
Rp1703
(dp1704
g12
S"word: 's, index: 4"
p1705
sbatp1706
Rp1707
(dp1708
g12
S'id: 18'
p1709
sbag0
(g1
g2
(lp1710
g0
(g1
g2
(lp1711
g0
(g1
g2
(lp1712
g0
(g1
g2
(lp1713
g0
(g1
g2
(lp1714
(lp1715
S'word: two, index: 9'
p1716
aatp1717
Rp1718
(dp1719
g12
Vnum
p1720
sbatp1721
Rp1722
(dp1723
g12
S'word: people, index: 10'
p1724
sbatp1725
Rp1726
(dp1727
g12
Vappos
p1728
sbag0
(g1
g2
(lp1729
(lp1730
S'word: And, index: 1'
p1731
aatp1732
Rp1733
(dp1734
g12
Vcc
p1735
sbag0
(g1
g2
(lp1736
g0
(g1
g2
(lp1737
g0
(g1
g2
(lp1738
(lp1739
S'word: this, index: 3'
p1740
aatp1741
Rp1742
(dp1743
g12
Vdet
p1744
sbatp1745
Rp1746
(dp1747
g12
S'word: one, index: 4'
p1748
sbatp1749
Rp1750
(dp1751
g12
Vprep
p1752
sbag0
(g1
g2
(lp1753
(lp1754
S'word: is, index: 6'
p1755
aatp1756
Rp1757
(dp1758
g12
Vcop
p1759
sbatp1760
Rp1761
(dp1762
g12
S'word: two, index: 7'
p1763
sbatp1764
Rp1765
(dp1766
g12
S'id: 19'
p1767
sbatp1768
Rp1769
(dp1770
g12
S'sentences'
p1771
sb.