ccopy_reg
_reconstructor
p0
(cnltk.tree
Tree
p1
c__builtin__
list
p2
(lp3
g0
(g1
g2
(lp4
g0
(g1
g2
(lp5
g0
(g1
g2
(lp6
Vshoes
p7
atp8
Rp9
(dp10
S'_label'
p11
S'start: 6'
p12
sbatp13
Rp14
(dp15
g11
S'sent: 3'
p16
sbag0
(g1
g2
(lp17
g0
(g1
g2
(lp18
Vshoes
p19
atp20
Rp21
(dp22
g11
S'start: 9'
p23
sbatp24
Rp25
(dp26
g11
S'sent: 3'
p27
sbatp28
Rp29
(dp30
g11
S'id: 5'
p31
sbag0
(g1
g2
(lp32
g0
(g1
g2
(lp33
g0
(g1
g2
(lp34
Vtwo
p35
atp36
Rp37
(dp38
g11
S'start: 5'
p39
sbatp40
Rp41
(dp42
g11
S'sent: 7'
p43
sbag0
(g1
g2
(lp44
g0
(g1
g2
(lp45
Vtwo
p46
atp47
Rp48
(dp49
g11
S'start: 8'
p50
sbatp51
Rp52
(dp53
g11
S'sent: 7'
p54
sbatp55
Rp56
(dp57
g11
S'id: 20'
p58
sbag0
(g1
g2
(lp59
g0
(g1
g2
(lp60
g0
(g1
g2
(lp61
Vtwo boats
p62
atp63
Rp64
(dp65
g11
S'start: 5'
p66
sbatp67
Rp68
(dp69
g11
S'sent: 7'
p70
sbag0
(g1
g2
(lp71
g0
(g1
g2
(lp72
Vfour
p73
atp74
Rp75
(dp76
g11
S'start: 11'
p77
sbatp78
Rp79
(dp80
g11
S'sent: 7'
p81
sbag0
(g1
g2
(lp82
g0
(g1
g2
(lp83
Vfour hundred seventy , and
p84
atp85
Rp86
(dp87
g11
S'start: 13'
p88
sbatp89
Rp90
(dp91
g11
S'sent: 7'
p92
sbatp93
Rp94
(dp95
g11
S'id: 25'
p96
sbatp97
Rp98
(dp99
g11
S'coreferences'
p100
sb.