ccopy_reg
_reconstructor
p0
(cnltk.tree
Tree
p1
c__builtin__
list
p2
(lp3
g0
(g1
g2
(lp4
g0
(g1
g2
(lp5
g0
(g1
g2
(lp6
(lp7
S'word: All, index: 1'
p8
aatp9
Rp10
(dp11
S'_label'
p12
Vdet
p13
sbatp14
Rp15
(dp16
g12
S'word: right, index: 2'
p17
sbatp18
Rp19
(dp20
g12
S'id: 0'
p21
sbag0
(g1
g2
(lp22
g0
(g1
g2
(lp23
g0
(g1
g2
(lp24
g0
(g1
g2
(lp25
g0
(g1
g2
(lp26
(lp27
S'word: the, index: 4'
p28
aatp29
Rp30
(dp31
g12
Vdet
p32
sbatp33
Rp34
(dp35
g12
S'word: circus, index: 5'
p36
sbatp37
Rp38
(dp39
g12
Vprep
p40
sbag0
(g1
g2
(lp41
g0
(g1
g2
(lp42
g0
(g1
g2
(lp43
(lp44
S'word: there, index: 8'
p45
aatp46
Rp47
(dp48
g12
Vexpl
p49
sbag0
(g1
g2
(lp50
g0
(g1
g2
(lp51
g0
(g1
g2
(lp52
(lp53
S'word: a, index: 10'
p54
aatp55
Rp56
(dp57
g12
Vdet
p58
sbag0
(g1
g2
(lp59
g0
(g1
g2
(lp60
g0
(g1
g2
(lp61
(lp62
S'word: on, index: 13'
p63
aatp64
Rp65
(dp66
g12
Vprep
p67
sbatp68
Rp69
(dp70
g12
S'word: going, index: 12'
p71
sbatp72
Rp73
(dp74
g12
Vvmod
p75
sbatp76
Rp77
(dp78
g12
S'word: lot, index: 11'
p79
sbatp80
Rp81
(dp82
g12
Vnsubj
p83
sbatp84
Rp85
(dp86
g12
S'word: is, index: 9'
p87
sbatp88
Rp89
(dp90
g12
Vconj
p91
sbag0
(g1
g2
(lp92
(lp93
S'word: We, index: 1'
p94
aatp95
Rp96
(dp97
g12
Vnsubj
p98
sbatp99
Rp100
(dp101
g12
S'word: are, index: 2'
p102
sbatp103
Rp104
(dp105
g12
S'id: 1'
p106
sbag0
(g1
g2
(lp107
g0
(g1
g2
(lp108
g0
(g1
g2
(lp109
g0
(g1
g2
(lp110
g0
(g1
g2
(lp111
g0
(g1
g2
(lp112
g0
(g1
g2
(lp113
g0
(g1
g2
(lp114
g0
(g1
g2
(lp115
g0
(g1
g2
(lp116
g0
(g1
g2
(lp117
(lp118
S'word: the, index: 13'
p119
aatp120
Rp121
(dp122
g12
Vdet
p123
sbatp124
Rp125
(dp126
g12
S'word: lion, index: 14'
p127
sbatp128
Rp129
(dp130
g12
Vpobj
p131
sbatp132
Rp133
(dp134
g12
S'word: with, index: 12'
p135
sbatp136
Rp137
(dp138
g12
Vpcomp
p139
sbatp140
Rp141
(dp142
g12
S'word: in, index: 11'
p143
sbatp144
Rp145
(dp146
g12
Vprep
p147
sbatp148
Rp149
(dp150
g12
S'word: tails, index: 10'
p151
sbatp152
Rp153
(dp154
g12
Vnsubj
p155
sbag0
(g1
g2
(lp156
(lp157
S'word: There, index: 1'
p158
aatp159
Rp160
(dp161
g12
Vexpl
p162
sbag0
(g1
g2
(lp163
g0
(g1
g2
(lp164
g0
(g1
g2
(lp165
g0
(g1
g2
(lp166
g0
(g1
g2
(lp167
(lp168
S'word: a, index: 6'
p169
aatp170
Rp171
(dp172
g12
Vdet
p173
sbag0
(g1
g2
(lp174
(lp175
S'word: top, index: 7'
p176
aatp177
Rp178
(dp179
g12
Vamod
p180
sbatp181
Rp182
(dp183
g12
S'word: hat, index: 8'
p184
sbatp185
Rp186
(dp187
g12
Vprep
p188
sbag0
(g1
g2
(lp189
g149
atp190
Rp191
(dp192
g12
Vconj
p193
sbag0
(g1
g2
(lp194
(lp195
S'word: a, index: 3'
p196
aatp197
Rp198
(dp199
g12
Vdet
p200
sbatp201
Rp202
(dp203
g12
S'word: man, index: 4'
p204
sbatp205
Rp206
(dp207
g12
Vnsubj
p208
sbatp209
Rp210
(dp211
g12
S'word: is, index: 2'
p212
sbatp213
Rp214
(dp215
g12
S'id: 2'
p216
sbag0
(g1
g2
(lp217
g0
(g1
g2
(lp218
g0
(g1
g2
(lp219
(lp220
S'word: it, index: 28'
p221
aatp222
Rp223
(dp224
g12
Vnsubj
p225
sbag0
(g1
g2
(lp226
g0
(g1
g2
(lp227
g0
(g1
g2
(lp228
g0
(g1
g2
(lp229
g0
(g1
g2
(lp230
(lp231
S'word: to, index: 2'
p232
aatp233
Rp234
(dp235
g12
Vaux
p236
sbag0
(g1
g2
(lp237
(lp238
S'word: him, index: 4'
p239
aatp240
Rp241
(dp242
g12
Vdobj
p243
sbag0
(g1
g2
(lp244
g0
(g1
g2
(lp245
g0
(g1
g2
(lp246
(lp247
S'word: to, index: 5'
p248
aatp249
Rp250
(dp251
g12
Vaux
p252
sbag0
(g1
g2
(lp253
(lp254
S'word: tricks, index: 7'
p255
aatp256
Rp257
(dp258
g12
Vdobj
p259
sbatp260
Rp261
(dp262
g12
S'word: do, index: 6'
p263
sbatp264
Rp265
(dp266
g12
Vxcomp
p267
sbatp268
Rp269
(dp270
g12
S'word: get, index: 3'
p271
sbatp272
Rp273
(dp274
g12
Vxcomp
p275
sbatp276
Rp277
(dp278
g12
S'word: Trying, index: 1'
p279
sbatp280
Rp281
(dp282
g12
Vdep
p283
sbag0
(g1
g2
(lp284
g0
(g1
g2
(lp285
g0
(g1
g2
(lp286
(lp287
S'word: while, index: 9'
p288
aatp289
Rp290
(dp291
g12
Vmark
p292
sbag0
(g1
g2
(lp293
g0
(g1
g2
(lp294
g0
(g1
g2
(lp295
(lp296
S'word: a, index: 26'
p297
aatp298
Rp299
(dp300
g12
Vdet
p301
sbatp302
Rp303
(dp304
g12
S'word: net, index: 27'
p305
sbatp306
Rp307
(dp308
g12
Vprep
p309
sbag0
(g1
g2
(lp310
g0
(g1
g2
(lp311
g0
(g1
g2
(lp312
(lp313
S'word: the, index: 10'
p314
aatp315
Rp316
(dp317
g12
Vdet
p318
sbag0
(g1
g2
(lp319
(lp320
S'word: trapeze, index: 11'
p321
aatp322
Rp323
(dp324
g12
Vnn
p325
sbag0
(g1
g2
(lp326
g0
(g1
g2
(lp327
g0
(g1
g2
(lp328
(lp329
S'word: high, index: 15'
p330
aatp331
Rp332
(dp333
g12
Vamod
p334
sbag0
(g1
g2
(lp335
(lp336
S'word: wire, index: 16'
p337
aatp338
Rp339
(dp340
g12
Vnn
p341
sbatp342
Rp343
(dp344
g12
S'word: dude, index: 17'
p345
sbatp346
Rp347
(dp348
g12
Vconj
p349
sbatp350
Rp351
(dp352
g12
S'word: artist, index: 12'
p353
sbatp354
Rp355
(dp356
g12
Vnsubj
p357
sbag0
(g1
g2
(lp358
g343
atp359
Rp360
(dp361
g12
Vnsubj
p362
sbag0
(g1
g2
(lp363
(lp364
S'word: is, index: 19'
p365
aatp366
Rp367
(dp368
g12
Vaux
p369
sbag0
(g1
g2
(lp370
g0
(g1
g2
(lp371
g0
(g1
g2
(lp372
(lp373
S'word: the, index: 22'
p374
aatp375
Rp376
(dp377
g12
Vdet
p378
sbag0
(g1
g2
(lp379
(lp380
S'word: high, index: 23'
p381
aatp382
Rp383
(dp384
g12
Vamod
p385
sbatp386
Rp387
(dp388
g12
S'word: wire, index: 24'
p389
sbatp390
Rp391
(dp392
g12
Vprep
p393
sbatp394
Rp395
(dp396
g12
S'word: walking, index: 20'
p397
sbatp398
Rp399
(dp400
g12
Vadvcl
p401
sbatp402
Rp403
(dp404
g12
S'word: appears, index: 29'
p405
sbatp406
Rp407
(dp408
g12
S'id: 3'
p409
sbag0
(g1
g2
(lp410
g0
(g1
g2
(lp411
g0
(g1
g2
(lp412
(lp413
S'word: There, index: 1'
p414
aatp415
Rp416
(dp417
g12
Vexpl
p418
sbag0
(g1
g2
(lp419
g0
(g1
g2
(lp420
g0
(g1
g2
(lp421
(lp422
S'word: a, index: 3'
p423
aatp424
Rp425
(dp426
g12
Vdet
p427
sbag0
(g1
g2
(lp428
g0
(g1
g2
(lp429
g0
(g1
g2
(lp430
(lp431
S'word: a, index: 6'
p432
aatp433
Rp434
(dp435
g12
Vdet
p436
sbag0
(g1
g2
(lp437
g0
(g1
g2
(lp438
g0
(g1
g2
(lp439
g0
(g1
g2
(lp440
g0
(g1
g2
(lp441
(lp442
S'word: the, index: 17'
p443
aatp444
Rp445
(dp446
g12
Vdet
p447
sbag0
(g1
g2
(lp448
(lp449
S'word: little, index: 18'
p450
aatp451
Rp452
(dp453
g12
Vamod
p454
sbag0
(g1
g2
(lp455
(lp456
S'word: circular, index: 20'
p457
aatp458
Rp459
(dp460
g12
Vamod
p461
sbag0
(g1
g2
(lp462
g0
(g1
g2
(lp463
g0
(g1
g2
(lp464
(lp465
S'word: type, index: 23'
p466
aatp467
Rp468
(dp469
g12
Vnn
p470
sbag0
(g1
g2
(lp471
(lp472
S'word: play, index: 24'
p473
aatp474
Rp475
(dp476
g12
Vnn
p477
sbatp478
Rp479
(dp480
g12
S'word: thing, index: 25'
p481
sbatp482
Rp483
(dp484
g12
Vappos
p485
sbatp486
Rp487
(dp488
g12
S'word: arena, index: 21'
p489
sbatp490
Rp491
(dp492
g12
Vprep
p493
sbag0
(g1
g2
(lp494
g0
(g1
g2
(lp495
g0
(g1
g2
(lp496
g0
(g1
g2
(lp497
g0
(g1
g2
(lp498
(lp499
S'word: the, index: 14'
p500
aatp501
Rp502
(dp503
g12
Vprep
p504
sbag0
(g1
g2
(lp505
(lp506
S'word: a, index: 11'
p507
aatp508
Rp509
(dp510
g12
Vdet
p511
sbatp512
Rp513
(dp514
g12
S'word: horse, index: 12'
p515
sbatp516
Rp517
(dp518
g12
Vprep
p519
sbatp520
Rp521
(dp522
g12
S'word: tricks, index: 9'
p523
sbatp524
Rp525
(dp526
g12
Vdobj
p527
sbatp528
Rp529
(dp530
g12
S'word: doing, index: 8'
p531
sbatp532
Rp533
(dp534
g12
Vvmod
p535
sbatp536
Rp537
(dp538
g12
S'word: tutu, index: 7'
p539
sbatp540
Rp541
(dp542
g12
Vprep
p543
sbatp544
Rp545
(dp546
g12
S'word: lady, index: 4'
p547
sbatp548
Rp549
(dp550
g12
Vnsubj
p551
sbatp552
Rp553
(dp554
g12
S'word: is, index: 2'
p555
sbatp556
Rp557
(dp558
g12
S'id: 4'
p559
sbag0
(g1
g2
(lp560
g0
(g1
g2
(lp561
g0
(g1
g2
(lp562
g0
(g1
g2
(lp563
g0
(g1
g2
(lp564
(lp565
S'word: all, index: 4'
p566
aatp567
Rp568
(dp569
g12
Vpredet
p570
sbatp571
Rp572
(dp573
g12
S'word: this, index: 5'
p574
sbatp575
Rp576
(dp577
g12
Vprep
p578
sbag0
(g1
g2
(lp579
g0
(g1
g2
(lp580
g0
(g1
g2
(lp581
g0
(g1
g2
(lp582
g0
(g1
g2
(lp583
g0
(g1
g2
(lp584
g0
(g1
g2
(lp585
(lp586
S'word: nose, index: 21'
p587
aatp588
Rp589
(dp590
g12
Vappos
p591
sbatp592
Rp593
(dp594
g12
S'word: a, index: 19'
p595
sbatp596
Rp597
(dp598
g12
Vdobj
p599
sbag0
(g1
g2
(lp600
(lp601
S'word: who, index: 9'
p602
aatp603
Rp604
(dp605
g12
Vnsubj
p606
sbatp607
Rp608
(dp609
g12
S'word: has, index: 18'
p610
sbatp611
Rp612
(dp613
g12
Vccomp
p614
sbag0
(g1
g2
(lp615
(lp616
S'word: a, index: 7'
p617
aatp618
Rp619
(dp620
g12
Vdet
p621
sbag0
(g1
g2
(lp622
g0
(g1
g2
(lp623
g0
(g1
g2
(lp624
g608
atp625
Rp626
(dp627
g12
Vconj
p628
sbag0
(g1
g2
(lp629
(lp630
S'word: who, index: 9'
p631
aatp632
Rp633
(dp634
g12
Vnsubj
p635
sbag0
(g1
g2
(lp636
g0
(g1
g2
(lp637
g0
(g1
g2
(lp638
g0
(g1
g2
(lp639
g0
(g1
g2
(lp640
(lp641
S'word: his, index: 14'
p642
aatp643
Rp644
(dp645
g12
Vposs
p646
sbatp647
Rp648
(dp649
g12
S'word: hair, index: 15'
p650
sbatp651
Rp652
(dp653
g12
Vprep
p654
sbag0
(g1
g2
(lp655
(lp656
S'word: a, index: 11'
p657
aatp658
Rp659
(dp660
g12
Vdet
p661
sbatp662
Rp663
(dp664
g12
S'word: flower, index: 12'
p665
sbatp666
Rp667
(dp668
g12
Vdobj
p669
sbatp670
Rp671
(dp672
g12
S'word: has, index: 10'
p673
sbatp674
Rp675
(dp676
g12
Vccomp
p677
sbatp678
Rp679
(dp680
g12
S'word: clown, index: 8'
p681
sbatp682
Rp683
(dp684
g12
Vnsubj
p685
sbatp686
Rp687
(dp688
g12
S'word: is, index: 6'
p689
sbatp690
Rp691
(dp692
g12
S'id: 5'
p693
sbag0
(g1
g2
(lp694
g0
(g1
g2
(lp695
g0
(g1
g2
(lp696
(lp697
S"word: 'd, index: 2"
p698
aatp699
Rp700
(dp701
g12
Vaux
p702
sbag0
(g1
g2
(lp703
g0
(g1
g2
(lp704
g0
(g1
g2
(lp705
(lp706
S'word: it, index: 4'
p707
aatp708
Rp709
(dp710
g12
Vnsubj
p711
sbag0
(g1
g2
(lp712
(lp713
S"word: 's, index: 5"
p714
aatp715
Rp716
(dp717
g12
Vcop
p718
sbag0
(g1
g2
(lp719
(lp720
S'word: a, index: 6'
p721
aatp722
Rp723
(dp724
g12
Vdet
p725
sbag0
(g1
g2
(lp726
(lp727
S'word: red, index: 7'
p728
aatp729
Rp730
(dp731
g12
Vamod
p732
sbatp733
Rp734
(dp735
g12
S'word: nose, index: 8'
p736
sbatp737
Rp738
(dp739
g12
Vccomp
p740
sbag0
(g1
g2
(lp741
(lp742
S'word: I, index: 1'
p743
aatp744
Rp745
(dp746
g12
Vnsubj
p747
sbatp748
Rp749
(dp750
g12
S'word: say, index: 3'
p751
sbatp752
Rp753
(dp754
g12
S'id: 6'
p755
sbag0
(g1
g2
(lp756
g0
(g1
g2
(lp757
g0
(g1
g2
(lp758
g0
(g1
g2
(lp759
g0
(g1
g2
(lp760
(lp761
S'word: his, index: 5'
p762
aatp763
Rp764
(dp765
g12
Vposs
p766
sbatp767
Rp768
(dp769
g12
S'word: full, index: 6'
p770
sbatp771
Rp772
(dp773
g12
Vprep
p774
sbag0
(g1
g2
(lp775
g0
(g1
g2
(lp776
g0
(g1
g2
(lp777
(lp778
S'word: up, index: 8'
p779
aatp780
Rp781
(dp782
g12
Vprt
p783
sbatp784
Rp785
(dp786
g12
S'word: make, index: 7'
p787
sbatp788
Rp789
(dp790
g12
Vccomp
p791
sbag0
(g1
g2
(lp792
(lp793
S'word: And, index: 1'
p794
aatp795
Rp796
(dp797
g12
Vcc
p798
sbag0
(g1
g2
(lp799
(lp800
S'word: he, index: 2'
p801
aatp802
Rp803
(dp804
g12
Vnsubj
p805
sbatp806
Rp807
(dp808
g12
S"word: 's, index: 3"
p809
sbatp810
Rp811
(dp812
g12
S'id: 7'
p813
sbag0
(g1
g2
(lp814
g0
(g1
g2
(lp815
g0
(g1
g2
(lp816
g0
(g1
g2
(lp817
g0
(g1
g2
(lp818
(lp819
S'word: paper, index: 10'
p820
aatp821
Rp822
(dp823
g12
Vprep
p824
sbatp825
Rp826
(dp827
g12
S'word: pieces, index: 8'
p828
sbatp829
Rp830
(dp831
g12
Vdobj
p832
sbag0
(g1
g2
(lp833
g0
(g1
g2
(lp834
g0
(g1
g2
(lp835
(lp836
S'word: to, index: 11'
p837
aatp838
Rp839
(dp840
g12
Vaux
p841
sbag0
(g1
g2
(lp842
g0
(g1
g2
(lp843
g0
(g1
g2
(lp844
(lp845
S'word: it, index: 13'
p846
aatp847
Rp848
(dp849
g12
Vnsubj
p850
sbag0
(g1
g2
(lp851
g0
(g1
g2
(lp852
g0
(g1
g2
(lp853
(lp854
S'word: them, index: 15'
p855
aatp856
Rp857
(dp858
g12
Vnsubj
p859
sbag0
(g1
g2
(lp860
g0
(g1
g2
(lp861
g0
(g1
g2
(lp862
(lp863
S'word: that, index: 17'
p864
aatp865
Rp866
(dp867
g12
Vmark
p868
sbag0
(g1
g2
(lp869
(lp870
S'word: it, index: 18'
p871
aatp872
Rp873
(dp874
g12
Vnsubj
p875
sbag0
(g1
g2
(lp876
(lp877
S"word: 's, index: 19"
p878
aatp879
Rp880
(dp881
g12
Vcop
p882
sbatp883
Rp884
(dp885
g12
S'word: water, index: 20'
p886
sbatp887
Rp888
(dp889
g12
Vccomp
p890
sbatp891
Rp892
(dp893
g12
S'word: think, index: 16'
p894
sbatp895
Rp896
(dp897
g12
Vccomp
p898
sbatp899
Rp900
(dp901
g12
S'word: look, index: 14'
p902
sbatp903
Rp904
(dp905
g12
Vccomp
p906
sbatp907
Rp908
(dp909
g12
S'word: make, index: 12'
p910
sbatp911
Rp912
(dp913
g12
Vvmod
p914
sbag0
(g1
g2
(lp915
g0
(g1
g2
(lp916
g0
(g1
g2
(lp917
g826
atp918
Rp919
(dp920
g12
Vconj
p921
sbag0
(g1
g2
(lp922
g0
(g1
g2
(lp923
g0
(g1
g2
(lp924
(lp925
S'word: the, index: 4'
p926
aatp927
Rp928
(dp929
g12
Vdet
p930
sbatp931
Rp932
(dp933
g12
S'word: kids, index: 5'
p934
sbatp935
Rp936
(dp937
g12
Vprep
p938
sbatp939
Rp940
(dp941
g12
S'word: water, index: 2'
p942
sbatp943
Rp944
(dp945
g12
Vdobj
p946
sbatp947
Rp948
(dp949
g12
S'word: Throwing, index: 1'
p950
sbatp951
Rp952
(dp953
g12
S'id: 8'
p954
sbag0
(g1
g2
(lp955
g0
(g1
g2
(lp956
g0
(g1
g2
(lp957
(lp958
S'word: There, index: 1'
p959
aatp960
Rp961
(dp962
g12
Vexpl
p963
sbag0
(g1
g2
(lp964
g0
(g1
g2
(lp965
g0
(g1
g2
(lp966
(lp967
S'word: two, index: 16'
p968
aatp969
Rp970
(dp971
g12
Vnum
p972
sbatp973
Rp974
(dp975
g12
S'word: parents, index: 17'
p976
sbatp977
Rp978
(dp979
g12
Vnsubj
p980
sbag0
(g1
g2
(lp981
g0
(g1
g2
(lp982
g0
(g1
g2
(lp983
g974
atp984
Rp985
(dp986
g12
Vconj
p987
sbag0
(g1
g2
(lp988
(lp989
S'word: two, index: 5'
p990
aatp991
Rp992
(dp993
g12
Vconj
p994
sbag0
(g1
g2
(lp995
(lp996
S'word: three, index: 7'
p997
aatp998
Rp999
(dp1000
g12
Vconj
p1001
sbag0
(g1
g2
(lp1002
g0
(g1
g2
(lp1003
g0
(g1
g2
(lp1004
g0
(g1
g2
(lp1005
g0
(g1
g2
(lp1006
(lp1007
S'word: the, index: 12'
p1008
aatp1009
Rp1010
(dp1011
g12
Vdet
p1012
sbatp1013
Rp1014
(dp1015
g12
S'word: forefront, index: 13'
p1016
sbatp1017
Rp1018
(dp1019
g12
Vprep
p1020
sbag0
(g1
g2
(lp1021
(lp1022
S'word: three, index: 9'
p1023
aatp1024
Rp1025
(dp1026
g12
Vnum
p1027
sbatp1028
Rp1029
(dp1030
g12
S'word: kids, index: 10'
p1031
sbatp1032
Rp1033
(dp1034
g12
Vconj
p1035
sbatp1036
Rp1037
(dp1038
g12
S'word: one, index: 3'
p1039
sbatp1040
Rp1041
(dp1042
g12
Vnsubj
p1043
sbag0
(g1
g2
(lp1044
(lp1045
S'word: two, index: 5'
p1046
aatp1047
Rp1048
(dp1049
g12
Vnsubj
p1050
sbag0
(g1
g2
(lp1051
(lp1052
S'word: three, index: 7'
p1053
aatp1054
Rp1055
(dp1056
g12
Vnsubj
p1057
sbag0
(g1
g2
(lp1058
g1029
atp1059
Rp1060
(dp1061
g12
Vnsubj
p1062
sbatp1063
Rp1064
(dp1065
g12
S"word: 's, index: 2"
p1066
sbatp1067
Rp1068
(dp1069
g12
S'id: 9'
p1070
sbag0
(g1
g2
(lp1071
g0
(g1
g2
(lp1072
g0
(g1
g2
(lp1073
(lp1074
S'word: Then, index: 1'
p1075
aatp1076
Rp1077
(dp1078
g12
Vadvmod
p1079
sbag0
(g1
g2
(lp1080
(lp1081
S'word: there, index: 2'
p1082
aatp1083
Rp1084
(dp1085
g12
Vexpl
p1086
sbag0
(g1
g2
(lp1087
(lp1088
S'word: also, index: 4'
p1089
aatp1090
Rp1091
(dp1092
g12
Vadvmod
p1093
sbag0
(g1
g2
(lp1094
g0
(g1
g2
(lp1095
g0
(g1
g2
(lp1096
(lp1097
S'word: several, index: 5'
p1098
aatp1099
Rp1100
(dp1101
g12
Vamod
p1102
sbag0
(g1
g2
(lp1103
g0
(g1
g2
(lp1104
g0
(g1
g2
(lp1105
(lp1106
S'word: the, index: 8'
p1107
aatp1108
Rp1109
(dp1110
g12
Vdet
p1111
sbag0
(g1
g2
(lp1112
g0
(g1
g2
(lp1113
g0
(g1
g2
(lp1114
g0
(g1
g2
(lp1115
g0
(g1
g2
(lp1116
g0
(g1
g2
(lp1117
g0
(g1
g2
(lp1118
(lp1119
S'word: his, index: 15'
p1120
aatp1121
Rp1122
(dp1123
g12
Vposs
p1124
sbatp1125
Rp1126
(dp1127
g12
S'word: thing, index: 16'
p1128
sbatp1129
Rp1130
(dp1131
g12
Vdobj
p1132
sbag0
(g1
g2
(lp1133
g0
(g1
g2
(lp1134
g0
(g1
g2
(lp1135
(lp1136
S'word: the, index: 11'
p1137
aatp1138
Rp1139
(dp1140
g12
Vdet
p1141
sbag0
(g1
g2
(lp1142
(lp1143
S'word: highwire, index: 12'
p1144
aatp1145
Rp1146
(dp1147
g12
Vnn
p1148
sbatp1149
Rp1150
(dp1151
g12
S'word: guy, index: 13'
p1152
sbatp1153
Rp1154
(dp1155
g12
Vnsubj
p1156
sbatp1157
Rp1158
(dp1159
g12
S'word: do, index: 14'
p1160
sbatp1161
Rp1162
(dp1163
g12
Vccomp
p1164
sbatp1165
Rp1166
(dp1167
g12
S'word: watching, index: 10'
p1168
sbatp1169
Rp1170
(dp1171
g12
Vvmod
p1172
sbatp1173
Rp1174
(dp1175
g12
S'word: background, index: 9'
p1176
sbatp1177
Rp1178
(dp1179
g12
Vprep
p1180
sbatp1181
Rp1182
(dp1183
g12
S'word: people, index: 6'
p1184
sbatp1185
Rp1186
(dp1187
g12
Vnsubj
p1188
sbatp1189
Rp1190
(dp1191
g12
S"word: 's, index: 3"
p1192
sbatp1193
Rp1194
(dp1195
g12
S'id: 10'
p1196
sbag0
(g1
g2
(lp1197
g0
(g1
g2
(lp1198
g0
(g1
g2
(lp1199
(lp1200
S'word: The, index: 1'
p1201
aatp1202
Rp1203
(dp1204
g12
Vdet
p1205
sbag0
(g1
g2
(lp1206
g0
(g1
g2
(lp1207
g0
(g1
g2
(lp1208
(lp1209
S'word: the, index: 4'
p1210
aatp1211
Rp1212
(dp1213
g12
Vdet
p1214
sbatp1215
Rp1216
(dp1217
g12
S'word: front, index: 5'
p1218
sbatp1219
Rp1220
(dp1221
g12
Vprep
p1222
sbatp1223
Rp1224
(dp1225
g12
S'word: clown, index: 2'
p1226
sbatp1227
Rp1228
(dp1229
g12
S'id: 11'
p1230
sbatp1231
Rp1232
(dp1233
g12
S'sentences'
p1234
sb.