ccopy_reg
_reconstructor
p0
(cnltk.tree
Tree
p1
c__builtin__
list
p2
(lp3
g0
(g1
g2
(lp4
g0
(g1
g2
(lp5
g0
(g1
g2
(lp6
g0
(g1
g2
(lp7
g0
(g1
g2
(lp8
g0
(g1
g2
(lp9
g0
(g1
g2
(lp10
VThis
p11
atp12
Rp13
(dp14
S'_label'
p15
VDT
p16
sbatp17
Rp18
(dp19
g15
VNP
p20
sbag0
(g1
g2
(lp21
g0
(g1
g2
(lp22
Vin
p23
atp24
Rp25
(dp26
g15
VIN
p27
sbag0
(g1
g2
(lp28
g0
(g1
g2
(lp29
Vthe
p30
atp31
Rp32
(dp33
g15
VDT
p34
sbag0
(g1
g2
(lp35
Vwater
p36
atp37
Rp38
(dp39
g15
VNN
p40
sbatp41
Rp42
(dp43
g15
VNP
p44
sbatp45
Rp46
(dp47
g15
VPP
p48
sbatp49
Rp50
(dp51
g15
VNP
p52
sbag0
(g1
g2
(lp53
V,
p54
atp55
Rp56
(dp57
g15
V,
p58
sbag0
(g1
g2
(lp59
Vand
p60
atp61
Rp62
(dp63
g15
VCC
p64
sbag0
(g1
g2
(lp65
g0
(g1
g2
(lp66
g0
(g1
g2
(lp67
Va
p68
atp69
Rp70
(dp71
g15
VDT
p72
sbag0
(g1
g2
(lp73
Vwhole
p74
atp75
Rp76
(dp77
g15
VJJ
p78
sbag0
(g1
g2
(lp79
Vbunch
p80
atp81
Rp82
(dp83
g15
VNN
p84
sbatp85
Rp86
(dp87
g15
VNP
p88
sbag0
(g1
g2
(lp89
g0
(g1
g2
(lp90
Vof
p91
atp92
Rp93
(dp94
g15
VIN
p95
sbag0
(g1
g2
(lp96
g0
(g1
g2
(lp97
g0
(g1
g2
(lp98
Vpeople
p99
atp100
Rp101
(dp102
g15
VNNS
p103
sbatp104
Rp105
(dp106
g15
VNP
p107
sbag0
(g1
g2
(lp108
g0
(g1
g2
(lp109
g0
(g1
g2
(lp110
Vhere
p111
atp112
Rp113
(dp114
g15
VRB
p115
sbatp116
Rp117
(dp118
g15
VADVP
p119
sbag0
(g1
g2
(lp120
Vdoing
p121
atp122
Rp123
(dp124
g15
VVBG
p125
sbatp126
Rp127
(dp128
g15
VVP
p129
sbatp130
Rp131
(dp132
g15
VNP
p133
sbatp134
Rp135
(dp136
g15
VPP
p137
sbatp138
Rp139
(dp140
g15
VNP
p141
sbag0
(g1
g2
(lp142
V,
p143
atp144
Rp145
(dp146
g15
V,
p147
sbatp148
Rp149
(dp150
g15
VNP
p151
sbag0
(g1
g2
(lp152
g0
(g1
g2
(lp153
g0
(g1
g2
(lp154
g0
(g1
g2
(lp155
VI
p156
atp157
Rp158
(dp159
g15
VPRP
p160
sbatp161
Rp162
(dp163
g15
VNP
p164
sbag0
(g1
g2
(lp165
g0
(g1
g2
(lp166
Vhave
p167
atp168
Rp169
(dp170
g15
VVBP
p171
sbag0
(g1
g2
(lp172
g0
(g1
g2
(lp173
Vno
p174
atp175
Rp176
(dp177
g15
VDT
p178
sbag0
(g1
g2
(lp179
Videa
p180
atp181
Rp182
(dp183
g15
VNN
p184
sbatp185
Rp186
(dp187
g15
VNP
p188
sbatp189
Rp190
(dp191
g15
VVP
p192
sbatp193
Rp194
(dp195
g15
VS
p196
sbag0
(g1
g2
(lp197
V,
p198
atp199
Rp200
(dp201
g15
V,
p202
sbatp203
Rp204
(dp205
g15
VPRN
p206
sbag0
(g1
g2
(lp207
g0
(g1
g2
(lp208
Vdoes
p209
atp210
Rp211
(dp212
g15
VVBZ
p213
sbag0
(g1
g2
(lp214
Vn't
p215
atp216
Rp217
(dp218
g15
VRB
p219
sbag0
(g1
g2
(lp220
g0
(g1
g2
(lp221
Vmake
p222
atp223
Rp224
(dp225
g15
VVB
p226
sbag0
(g1
g2
(lp227
g0
(g1
g2
(lp228
Vany
p229
atp230
Rp231
(dp232
g15
VDT
p233
sbag0
(g1
g2
(lp234
Vsense
p235
atp236
Rp237
(dp238
g15
VNN
p239
sbatp240
Rp241
(dp242
g15
VNP
p243
sbatp244
Rp245
(dp246
g15
VVP
p247
sbatp248
Rp249
(dp250
g15
VVP
p251
sbatp252
Rp253
(dp254
g15
VS
p255
sbag0
(g1
g2
(lp256
V,
p257
atp258
Rp259
(dp260
g15
V,
p261
sbag0
(g1
g2
(lp262
Vbut
p263
atp264
Rp265
(dp266
g15
VCC
p267
sbag0
(g1
g2
(lp268
g0
(g1
g2
(lp269
g0
(g1
g2
(lp270
Vhere
p271
atp272
Rp273
(dp274
g15
VRB
p275
sbatp276
Rp277
(dp278
g15
VADVP
p279
sbag0
(g1
g2
(lp280
g0
(g1
g2
(lp281
Vit
p282
atp283
Rp284
(dp285
g15
VPRP
p286
sbatp287
Rp288
(dp289
g15
VNP
p290
sbag0
(g1
g2
(lp291
g0
(g1
g2
(lp292
Vis
p293
atp294
Rp295
(dp296
g15
VVBZ
p297
sbatp298
Rp299
(dp300
g15
VVP
p301
sbatp302
Rp303
(dp304
g15
VS
p305
sbag0
(g1
g2
(lp306
V.
p307
atp308
Rp309
(dp310
g15
V.
p311
sbatp312
Rp313
(dp314
g15
VS
p315
sbatp316
Rp317
(dp318
g15
S'id: 0'
p319
sbag0
(g1
g2
(lp320
g0
(g1
g2
(lp321
g0
(g1
g2
(lp322
g0
(g1
g2
(lp323
VThere
p324
atp325
Rp326
(dp327
g15
VEX
p328
sbatp329
Rp330
(dp331
g15
VNP
p332
sbag0
(g1
g2
(lp333
g0
(g1
g2
(lp334
V's
p335
atp336
Rp337
(dp338
g15
VVBZ
p339
sbag0
(g1
g2
(lp340
g0
(g1
g2
(lp341
g0
(g1
g2
(lp342
Va
p343
atp344
Rp345
(dp346
g15
VDT
p347
sbag0
(g1
g2
(lp348
Vperson
p349
atp350
Rp351
(dp352
g15
VNN
p353
sbatp354
Rp355
(dp356
g15
VNP
p357
sbag0
(g1
g2
(lp358
Vhere
p359
atp360
Rp361
(dp362
g15
VRB
p363
sbatp364
Rp365
(dp366
g15
VADVP
p367
sbag0
(g1
g2
(lp368
g0
(g1
g2
(lp369
Vtaking
p370
atp371
Rp372
(dp373
g15
VVBG
p374
sbag0
(g1
g2
(lp375
g0
(g1
g2
(lp376
Vfour
p377
atp378
Rp379
(dp380
g15
VCD
p381
sbag0
(g1
g2
(lp382
Vseventy
p383
atp384
Rp385
(dp386
g15
VCD
p387
sbatp388
Rp389
(dp390
g15
VNP
p391
sbag0
(g1
g2
(lp392
g0
(g1
g2
(lp393
g0
(g1
g2
(lp394
Va
p395
atp396
Rp397
(dp398
g15
VDT
p399
sbag0
(g1
g2
(lp400
Vboat
p401
atp402
Rp403
(dp404
g15
VNN
p405
sbatp406
Rp407
(dp408
g15
VNP
p409
sbag0
(g1
g2
(lp410
V,
p411
atp412
Rp413
(dp414
g15
V,
p415
sbag0
(g1
g2
(lp416
g0
(g1
g2
(lp417
g0
(g1
g2
(lp418
Vnice
p419
atp420
Rp421
(dp422
g15
VJJ
p423
sbag0
(g1
g2
(lp424
Vsailboat
p425
atp426
Rp427
(dp428
g15
VNN
p429
sbatp430
Rp431
(dp432
g15
VNP
p433
sbag0
(g1
g2
(lp434
V,
p435
atp436
Rp437
(dp438
g15
V,
p439
sbag0
(g1
g2
(lp440
g0
(g1
g2
(lp441
g0
(g1
g2
(lp442
Vthat
p443
atp444
Rp445
(dp446
g15
VWDT
p447
sbatp448
Rp449
(dp450
g15
VWHNP
p451
sbag0
(g1
g2
(lp452
g0
(g1
g2
(lp453
g0
(g1
g2
(lp454
Vmeans
p455
atp456
Rp457
(dp458
g15
VVBZ
p459
sbag0
(g1
g2
(lp460
g0
(g1
g2
(lp461
g0
(g1
g2
(lp462
g0
(g1
g2
(lp463
Vit
p464
atp465
Rp466
(dp467
g15
VPRP
p468
sbatp469
Rp470
(dp471
g15
VNP
p472
sbag0
(g1
g2
(lp473
g0
(g1
g2
(lp474
V's
p475
atp476
Rp477
(dp478
g15
VVBZ
p479
sbag0
(g1
g2
(lp480
g0
(g1
g2
(lp481
Va
p482
atp483
Rp484
(dp485
g15
VDT
p486
sbag0
(g1
g2
(lp487
Vspecial
p488
atp489
Rp490
(dp491
g15
VJJ
p492
sbag0
(g1
g2
(lp493
Vtime
p494
atp495
Rp496
(dp497
g15
VNN
p498
sbatp499
Rp500
(dp501
g15
VNP
p502
sbatp503
Rp504
(dp505
g15
VVP
p506
sbatp507
Rp508
(dp509
g15
VS
p510
sbatp511
Rp512
(dp513
g15
VSBAR
p514
sbatp515
Rp516
(dp517
g15
VVP
p518
sbatp519
Rp520
(dp521
g15
VS
p522
sbatp523
Rp524
(dp525
g15
VSBAR
p526
sbatp527
Rp528
(dp529
g15
VNP
p530
sbatp531
Rp532
(dp533
g15
VNP-TMP
p534
sbatp535
Rp536
(dp537
g15
VVP
p538
sbatp539
Rp540
(dp541
g15
VVP
p542
sbag0
(g1
g2
(lp543
V.
p544
atp545
Rp546
(dp547
g15
V.
p548
sbatp549
Rp550
(dp551
g15
VS
p552
sbatp553
Rp554
(dp555
g15
S'id: 1'
p556
sbag0
(g1
g2
(lp557
g0
(g1
g2
(lp558
g0
(g1
g2
(lp559
g0
(g1
g2
(lp560
g0
(g1
g2
(lp561
VThere
p562
atp563
Rp564
(dp565
g15
VEX
p566
sbatp567
Rp568
(dp569
g15
VNP
p570
sbag0
(g1
g2
(lp571
g0
(g1
g2
(lp572
V's
p573
atp574
Rp575
(dp576
g15
VVBZ
p577
sbag0
(g1
g2
(lp578
g0
(g1
g2
(lp579
g0
(g1
g2
(lp580
Va
p581
atp582
Rp583
(dp584
g15
VDT
p585
sbag0
(g1
g2
(lp586
Vman
p587
atp588
Rp589
(dp590
g15
VNN
p591
sbatp592
Rp593
(dp594
g15
VNP
p595
sbag0
(g1
g2
(lp596
g0
(g1
g2
(lp597
Vcatching
p598
atp599
Rp600
(dp601
g15
VVBG
p602
sbag0
(g1
g2
(lp603
g0
(g1
g2
(lp604
Va
p605
atp606
Rp607
(dp608
g15
VDT
p609
sbag0
(g1
g2
(lp610
Vbear
p611
atp612
Rp613
(dp614
g15
VNN
p615
sbatp616
Rp617
(dp618
g15
VNP
p619
sbag0
(g1
g2
(lp620
g0
(g1
g2
(lp621
Vthere
p622
atp623
Rp624
(dp625
g15
VRB
p626
sbatp627
Rp628
(dp629
g15
VADVP
p630
sbatp631
Rp632
(dp633
g15
VVP
p634
sbatp635
Rp636
(dp637
g15
VNP
p638
sbatp639
Rp640
(dp641
g15
VVP
p642
sbatp643
Rp644
(dp645
g15
VS
p646
sbag0
(g1
g2
(lp647
V,
p648
atp649
Rp650
(dp651
g15
V,
p652
sbag0
(g1
g2
(lp653
g0
(g1
g2
(lp654
Vgot
p655
atp656
Rp657
(dp658
g15
VVBD
p659
sbag0
(g1
g2
(lp660
g0
(g1
g2
(lp661
Va
p662
atp663
Rp664
(dp665
g15
VDT
p666
sbag0
(g1
g2
(lp667
Vbish
p668
atp669
Rp670
(dp671
g15
VNN
p672
sbatp673
Rp674
(dp675
g15
VNP
p676
sbatp677
Rp678
(dp679
g15
VVP
p680
sbag0
(g1
g2
(lp681
g0
(g1
g2
(lp682
Vthere
p683
atp684
Rp685
(dp686
g15
VRB
p687
sbatp688
Rp689
(dp690
g15
VNP
p691
sbag0
(g1
g2
(lp692
V.
p693
atp694
Rp695
(dp696
g15
V.
p697
sbatp698
Rp699
(dp700
g15
VSINV
p701
sbatp702
Rp703
(dp704
g15
S'id: 2'
p705
sbag0
(g1
g2
(lp706
g0
(g1
g2
(lp707
g0
(g1
g2
(lp708
g0
(g1
g2
(lp709
VThen
p710
atp711
Rp712
(dp713
g15
VRB
p714
sbatp715
Rp716
(dp717
g15
VADVP
p718
sbag0
(g1
g2
(lp719
g0
(g1
g2
(lp720
g0
(g1
g2
(lp721
g0
(g1
g2
(lp722
Vsome
p723
atp724
Rp725
(dp726
g15
VDT
p727
sbatp728
Rp729
(dp730
g15
VNP
p731
sbag0
(g1
g2
(lp732
V,
p733
atp734
Rp735
(dp736
g15
V,
p737
sbag0
(g1
g2
(lp738
g0
(g1
g2
(lp739
Vthis
p740
atp741
Rp742
(dp743
g15
VDT
p744
sbag0
(g1
g2
(lp745
Vkid
p746
atp747
Rp748
(dp749
g15
VNN
p750
sbatp751
Rp752
(dp753
g15
VNP
p754
sbag0
(g1
g2
(lp755
g0
(g1
g2
(lp756
Vis
p757
atp758
Rp759
(dp760
g15
VVBZ
p761
sbag0
(g1
g2
(lp762
g0
(g1
g2
(lp763
Vthrowing
p764
atp765
Rp766
(dp767
g15
VVBG
p768
sbag0
(g1
g2
(lp769
g0
(g1
g2
(lp770
Vup
p771
atp772
Rp773
(dp774
g15
VRP
p775
sbatp776
Rp777
(dp778
g15
VPRT
p779
sbag0
(g1
g2
(lp780
g0
(g1
g2
(lp781
Vthe
p782
atp783
Rp784
(dp785
g15
VDT
p786
sbag0
(g1
g2
(lp787
g0
(g1
g2
(lp788
V,
p789
atp790
Rp791
(dp792
g15
V,
p793
sbag0
(g1
g2
(lp794
g0
(g1
g2
(lp795
Vthe
p796
atp797
Rp798
(dp799
g15
VDT
p800
sbag0
(g1
g2
(lp801
Vnight
p802
atp803
Rp804
(dp805
g15
VNN
p806
sbatp807
Rp808
(dp809
g15
VNP
p810
sbag0
(g1
g2
(lp811
V,
p812
atp813
Rp814
(dp815
g15
V,
p816
sbatp817
Rp818
(dp819
g15
VPRN
p820
sbag0
(g1
g2
(lp821
Vkite
p822
atp823
Rp824
(dp825
g15
VNN
p826
sbatp827
Rp828
(dp829
g15
VNP
p830
sbatp831
Rp832
(dp833
g15
VVP
p834
sbatp835
Rp836
(dp837
g15
VVP
p838
sbatp839
Rp840
(dp841
g15
VS
p842
sbag0
(g1
g2
(lp843
V,
p844
atp845
Rp846
(dp847
g15
V,
p848
sbatp849
Rp850
(dp851
g15
VPRN
p852
sbag0
(g1
g2
(lp853
g0
(g1
g2
(lp854
Vthis
p855
atp856
Rp857
(dp858
g15
VDT
p859
sbatp860
Rp861
(dp862
g15
VNP
p863
sbag0
(g1
g2
(lp864
g0
(g1
g2
(lp865
Vis
p866
atp867
Rp868
(dp869
g15
VVBZ
p870
sbag0
(g1
g2
(lp871
g0
(g1
g2
(lp872
Vrunning
p873
atp874
Rp875
(dp876
g15
VVBG
p877
sbag0
(g1
g2
(lp878
g0
(g1
g2
(lp879
Vthis
p880
atp881
Rp882
(dp883
g15
VDT
p884
sbatp885
Rp886
(dp887
g15
VNP
p888
sbag0
(g1
g2
(lp889
g0
(g1
g2
(lp890
Vhere
p891
atp892
Rp893
(dp894
g15
VRB
p895
sbatp896
Rp897
(dp898
g15
VADVP
p899
sbatp900
Rp901
(dp902
g15
VVP
p903
sbatp904
Rp905
(dp906
g15
VVP
p907
sbag0
(g1
g2
(lp908
V.
p909
atp910
Rp911
(dp912
g15
V.
p913
sbatp914
Rp915
(dp916
g15
VS
p917
sbatp918
Rp919
(dp920
g15
S'id: 3'
p921
sbag0
(g1
g2
(lp922
g0
(g1
g2
(lp923
g0
(g1
g2
(lp924
g0
(g1
g2
(lp925
g0
(g1
g2
(lp926
g0
(g1
g2
(lp927
VGuy
p928
atp929
Rp930
(dp931
g15
VNNP
p932
sbag0
(g1
g2
(lp933
V's
p934
atp935
Rp936
(dp937
g15
VPOS
p938
sbatp939
Rp940
(dp941
g15
VNP
p942
sbag0
(g1
g2
(lp943
Vreading
p944
atp945
Rp946
(dp947
g15
VNN
p948
sbatp949
Rp950
(dp951
g15
VNP
p952
sbag0
(g1
g2
(lp953
V,
p954
atp955
Rp956
(dp957
g15
V,
p958
sbag0
(g1
g2
(lp959
Vand
p960
atp961
Rp962
(dp963
g15
VCC
p964
sbag0
(g1
g2
(lp965
g0
(g1
g2
(lp966
Va
p967
atp968
Rp969
(dp970
g15
VDT
p971
sbag0
(g1
g2
(lp972
g0
(g1
g2
(lp973
Vwoman
p974
atp975
Rp976
(dp977
g15
VNN
p978
sbag0
(g1
g2
(lp979
V's
p980
atp981
Rp982
(dp983
g15
VPOS
p984
sbatp985
Rp986
(dp987
g15
VNP
p988
sbatp989
Rp990
(dp991
g15
VNP
p992
sbatp993
Rp994
(dp995
g15
VNP
p996
sbag0
(g1
g2
(lp997
g0
(g1
g2
(lp998
Vhaving
p999
atp1000
Rp1001
(dp1002
g15
VVBG
p1003
sbag0
(g1
g2
(lp1004
g0
(g1
g2
(lp1005
Vthe
p1006
atp1007
Rp1008
(dp1009
g15
VDT
p1010
sbag0
(g1
g2
(lp1011
Vdrink
p1012
atp1013
Rp1014
(dp1015
g15
VNN
p1016
sbatp1017
Rp1018
(dp1019
g15
VNP
p1020
sbatp1021
Rp1022
(dp1023
g15
VVP
p1024
sbag0
(g1
g2
(lp1025
V.
p1026
atp1027
Rp1028
(dp1029
g15
V.
p1030
sbatp1031
Rp1032
(dp1033
g15
VNP
p1034
sbatp1035
Rp1036
(dp1037
g15
S'id: 4'
p1038
sbag0
(g1
g2
(lp1039
g0
(g1
g2
(lp1040
g0
(g1
g2
(lp1041
g0
(g1
g2
(lp1042
g0
(g1
g2
(lp1043
VThe
p1044
atp1045
Rp1046
(dp1047
g15
VDT
p1048
sbag0
(g1
g2
(lp1049
Vkids
p1050
atp1051
Rp1052
(dp1053
g15
VNNS
p1054
sbatp1055
Rp1056
(dp1057
g15
VNP
p1058
sbag0
(g1
g2
(lp1059
g0
(g1
g2
(lp1060
Vthrow
p1061
atp1062
Rp1063
(dp1064
g15
VVBP
p1065
sbag0
(g1
g2
(lp1066
g0
(g1
g2
(lp1067
Vthose
p1068
atp1069
Rp1070
(dp1071
g15
VDT
p1072
sbag0
(g1
g2
(lp1073
Vthings
p1074
atp1075
Rp1076
(dp1077
g15
VNNS
p1078
sbatp1079
Rp1080
(dp1081
g15
VNP
p1082
sbatp1083
Rp1084
(dp1085
g15
VVP
p1086
sbatp1087
Rp1088
(dp1089
g15
VS
p1090
sbag0
(g1
g2
(lp1091
V,
p1092
atp1093
Rp1094
(dp1095
g15
V,
p1096
sbag0
(g1
g2
(lp1097
Vand
p1098
atp1099
Rp1100
(dp1101
g15
VCC
p1102
sbag0
(g1
g2
(lp1103
g0
(g1
g2
(lp1104
g0
(g1
g2
(lp1105
Vthat
p1106
atp1107
Rp1108
(dp1109
g15
VIN
p1110
sbag0
(g1
g2
(lp1111
g0
(g1
g2
(lp1112
g0
(g1
g2
(lp1113
g0
(g1
g2
(lp1114
Vmaybe
p1115
atp1116
Rp1117
(dp1118
g15
VRB
p1119
sbatp1120
Rp1121
(dp1122
g15
VADVP
p1123
sbag0
(g1
g2
(lp1124
g0
(g1
g2
(lp1125
Vhis
p1126
atp1127
Rp1128
(dp1129
g15
VPRP$
p1130
sbag0
(g1
g2
(lp1131
Vhat
p1132
atp1133
Rp1134
(dp1135
g15
VNN
p1136
sbatp1137
Rp1138
(dp1139
g15
VNP
p1140
sbag0
(g1
g2
(lp1141
V,
p1142
atp1143
Rp1144
(dp1145
g15
V,
p1146
sbag0
(g1
g2
(lp1147
Vbut
p1148
atp1149
Rp1150
(dp1151
g15
VCC
p1152
sbag0
(g1
g2
(lp1153
g0
(g1
g2
(lp1154
Vyou
p1155
atp1156
Rp1157
(dp1158
g15
VPRP
p1159
sbatp1160
Rp1161
(dp1162
g15
VNP
p1163
sbag0
(g1
g2
(lp1164
g0
(g1
g2
(lp1165
Vdo
p1166
atp1167
Rp1168
(dp1169
g15
VVBP
p1170
sbag0
(g1
g2
(lp1171
Vn't
p1172
atp1173
Rp1174
(dp1175
g15
VRB
p1176
sbag0
(g1
g2
(lp1177
g0
(g1
g2
(lp1178
Vthink
p1179
atp1180
Rp1181
(dp1182
g15
VVB
p1183
sbag0
(g1
g2
(lp1184
g0
(g1
g2
(lp1185
g0
(g1
g2
(lp1186
g0
(g1
g2
(lp1187
Vhe
p1188
atp1189
Rp1190
(dp1191
g15
VPRP
p1192
sbatp1193
Rp1194
(dp1195
g15
VNP
p1196
sbag0
(g1
g2
(lp1197
g0
(g1
g2
(lp1198
Vlives
p1199
atp1200
Rp1201
(dp1202
g15
VVBZ
p1203
sbag0
(g1
g2
(lp1204
g0
(g1
g2
(lp1205
Vthere
p1206
atp1207
Rp1208
(dp1209
g15
VRB
p1210
sbatp1211
Rp1212
(dp1213
g15
VADVP
p1214
sbatp1215
Rp1216
(dp1217
g15
VVP
p1218
sbatp1219
Rp1220
(dp1221
g15
VS
p1222
sbatp1223
Rp1224
(dp1225
g15
VSBAR
p1226
sbatp1227
Rp1228
(dp1229
g15
VVP
p1230
sbatp1231
Rp1232
(dp1233
g15
VVP
p1234
sbatp1235
Rp1236
(dp1237
g15
VS
p1238
sbag0
(g1
g2
(lp1239
V,
p1240
atp1241
Rp1242
(dp1243
g15
V,
p1244
sbag0
(g1
g2
(lp1245
g0
(g1
g2
(lp1246
g0
(g1
g2
(lp1247
Vyou
p1248
atp1249
Rp1250
(dp1251
g15
VPRP
p1252
sbatp1253
Rp1254
(dp1255
g15
VNP
p1256
sbag0
(g1
g2
(lp1257
g0
(g1
g2
(lp1258
Vdo
p1259
atp1260
Rp1261
(dp1262
g15
VVBP
p1263
sbag0
(g1
g2
(lp1264
Vn't
p1265
atp1266
Rp1267
(dp1268
g15
VRB
p1269
sbag0
(g1
g2
(lp1270
g0
(g1
g2
(lp1271
Vknow
p1272
atp1273
Rp1274
(dp1275
g15
VVB
p1276
sbag0
(g1
g2
(lp1277
g0
(g1
g2
(lp1278
Vif
p1279
atp1280
Rp1281
(dp1282
g15
VIN
p1283
sbag0
(g1
g2
(lp1284
g0
(g1
g2
(lp1285
g0
(g1
g2
(lp1286
Vhe
p1287
atp1288
Rp1289
(dp1290
g15
VPRP
p1291
sbatp1292
Rp1293
(dp1294
g15
VNP
p1295
sbag0
(g1
g2
(lp1296
g0
(g1
g2
(lp1297
Vgoes
p1298
atp1299
Rp1300
(dp1301
g15
VVBZ
p1302
sbag0
(g1
g2
(lp1303
g0
(g1
g2
(lp1304
g0
(g1
g2
(lp1305
Vthere
p1306
atp1307
Rp1308
(dp1309
g15
VRB
p1310
sbatp1311
Rp1312
(dp1313
g15
VNP
p1314
sbag0
(g1
g2
(lp1315
V,
p1316
atp1317
Rp1318
(dp1319
g15
V,
p1320
sbag0
(g1
g2
(lp1321
g0
(g1
g2
(lp1322
g0
(g1
g2
(lp1323
Vwho
p1324
atp1325
Rp1326
(dp1327
g15
VWP
p1328
sbatp1329
Rp1330
(dp1331
g15
VWHNP
p1332
sbag0
(g1
g2
(lp1333
g0
(g1
g2
(lp1334
g0
(g1
g2
(lp1335
Vlives
p1336
atp1337
Rp1338
(dp1339
g15
VVBZ
p1340
sbag0
(g1
g2
(lp1341
g0
(g1
g2
(lp1342
g0
(g1
g2
(lp1343
Vthere
p1344
atp1345
Rp1346
(dp1347
g15
VRB
p1348
sbatp1349
Rp1350
(dp1351
g15
VNP
p1352
sbag0
(g1
g2
(lp1353
V,
p1354
atp1355
Rp1356
(dp1357
g15
V,
p1358
sbag0
(g1
g2
(lp1359
g0
(g1
g2
(lp1360
g0
(g1
g2
(lp1361
Vwho
p1362
atp1363
Rp1364
(dp1365
g15
VWP
p1366
sbatp1367
Rp1368
(dp1369
g15
VWHNP
p1370
sbag0
(g1
g2
(lp1371
g0
(g1
g2
(lp1372
g0
(g1
g2
(lp1373
Vdoes
p1374
atp1375
Rp1376
(dp1377
g15
VVBZ
p1378
sbag0
(g1
g2
(lp1379
g0
(g1
g2
(lp1380
Vanything
p1381
atp1382
Rp1383
(dp1384
g15
VNN
p1385
sbatp1386
Rp1387
(dp1388
g15
VNP
p1389
sbatp1390
Rp1391
(dp1392
g15
VVP
p1393
sbatp1394
Rp1395
(dp1396
g15
VS
p1397
sbatp1398
Rp1399
(dp1400
g15
VSBAR
p1401
sbatp1402
Rp1403
(dp1404
g15
VNP
p1405
sbatp1406
Rp1407
(dp1408
g15
VVP
p1409
sbatp1410
Rp1411
(dp1412
g15
VS
p1413
sbatp1414
Rp1415
(dp1416
g15
VSBAR
p1417
sbatp1418
Rp1419
(dp1420
g15
VNP
p1421
sbatp1422
Rp1423
(dp1424
g15
VVP
p1425
sbatp1426
Rp1427
(dp1428
g15
VS
p1429
sbatp1430
Rp1431
(dp1432
g15
VSBAR
p1433
sbatp1434
Rp1435
(dp1436
g15
VVP
p1437
sbatp1438
Rp1439
(dp1440
g15
VVP
p1441
sbatp1442
Rp1443
(dp1444
g15
VS
p1445
sbatp1446
Rp1447
(dp1448
g15
VS
p1449
sbatp1450
Rp1451
(dp1452
g15
VSBAR
p1453
sbag0
(g1
g2
(lp1454
V,
p1455
atp1456
Rp1457
(dp1458
g15
V,
p1459
sbag0
(g1
g2
(lp1460
g0
(g1
g2
(lp1461
Vthey
p1462
atp1463
Rp1464
(dp1465
g15
VPRP
p1466
sbatp1467
Rp1468
(dp1469
g15
VNP
p1470
sbag0
(g1
g2
(lp1471
g0
(g1
g2
(lp1472
V're
p1473
atp1474
Rp1475
(dp1476
g15
VVBP
p1477
sbag0
(g1
g2
(lp1478
g0
(g1
g2
(lp1479
Vdoing
p1480
atp1481
Rp1482
(dp1483
g15
VVBG
p1484
sbag0
(g1
g2
(lp1485
g0
(g1
g2
(lp1486
Vsomething
p1487
atp1488
Rp1489
(dp1490
g15
VNN
p1491
sbatp1492
Rp1493
(dp1494
g15
VNP
p1495
sbatp1496
Rp1497
(dp1498
g15
VVP
p1499
sbatp1500
Rp1501
(dp1502
g15
VVP
p1503
sbatp1504
Rp1505
(dp1506
g15
VS
p1507
sbag0
(g1
g2
(lp1508
V.
p1509
atp1510
Rp1511
(dp1512
g15
V.
p1513
sbatp1514
Rp1515
(dp1516
g15
VS
p1517
sbatp1518
Rp1519
(dp1520
g15
S'id: 5'
p1521
sbag0
(g1
g2
(lp1522
g0
(g1
g2
(lp1523
g0
(g1
g2
(lp1524
g0
(g1
g2
(lp1525
g0
(g1
g2
(lp1526
VSo
p1527
atp1528
Rp1529
(dp1530
g15
VRB
p1531
sbatp1532
Rp1533
(dp1534
g15
VNP
p1535
sbag0
(g1
g2
(lp1536
g0
(g1
g2
(lp1537
g0
(g1
g2
(lp1538
Vhere
p1539
atp1540
Rp1541
(dp1542
g15
VRB
p1543
sbatp1544
Rp1545
(dp1546
g15
VNP
p1547
sbag0
(g1
g2
(lp1548
V's
p1549
atp1550
Rp1551
(dp1552
g15
VPOS
p1553
sbag0
(g1
g2
(lp1554
Vhappening
p1555
atp1556
Rp1557
(dp1558
g15
VVBG
p1559
sbatp1560
Rp1561
(dp1562
g15
VNP
p1563
sbatp1564
Rp1565
(dp1566
g15
VNP
p1567
sbag0
(g1
g2
(lp1568
V.
p1569
atp1570
Rp1571
(dp1572
g15
V.
p1573
sbatp1574
Rp1575
(dp1576
g15
VNP
p1577
sbatp1578
Rp1579
(dp1580
g15
S'id: 6'
p1581
sbag0
(g1
g2
(lp1582
g0
(g1
g2
(lp1583
g0
(g1
g2
(lp1584
g0
(g1
g2
(lp1585
g0
(g1
g2
(lp1586
VYou
p1587
atp1588
Rp1589
(dp1590
g15
VPRP
p1591
sbatp1592
Rp1593
(dp1594
g15
VNP
p1595
sbag0
(g1
g2
(lp1596
g0
(g1
g2
(lp1597
Vgot
p1598
atp1599
Rp1600
(dp1601
g15
VVBD
p1602
sbag0
(g1
g2
(lp1603
g0
(g1
g2
(lp1604
Va
p1605
atp1606
Rp1607
(dp1608
g15
VDT
p1609
sbag0
(g1
g2
(lp1610
Vlittle
p1611
atp1612
Rp1613
(dp1614
g15
VJJ
p1615
sbag0
(g1
g2
(lp1616
Vclause
p1617
atp1618
Rp1619
(dp1620
g15
VNN
p1621
sbatp1622
Rp1623
(dp1624
g15
VNP
p1625
sbag0
(g1
g2
(lp1626
g0
(g1
g2
(lp1627
Vhere
p1628
atp1629
Rp1630
(dp1631
g15
VRB
p1632
sbatp1633
Rp1634
(dp1635
g15
VADVP
p1636
sbatp1637
Rp1638
(dp1639
g15
VVP
p1640
sbatp1641
Rp1642
(dp1643
g15
VS
p1644
sbag0
(g1
g2
(lp1645
V,
p1646
atp1647
Rp1648
(dp1649
g15
V,
p1650
sbag0
(g1
g2
(lp1651
g0
(g1
g2
(lp1652
VI
p1653
atp1654
Rp1655
(dp1656
g15
VPRP
p1657
sbatp1658
Rp1659
(dp1660
g15
VNP
p1661
sbag0
(g1
g2
(lp1662
g0
(g1
g2
(lp1663
Vhave
p1664
atp1665
Rp1666
(dp1667
g15
VVBP
p1668
sbag0
(g1
g2
(lp1669
g0
(g1
g2
(lp1670
Vno
p1671
atp1672
Rp1673
(dp1674
g15
VDT
p1675
sbag0
(g1
g2
(lp1676
Vappention
p1677
atp1678
Rp1679
(dp1680
g15
VNN
p1681
sbatp1682
Rp1683
(dp1684
g15
VNP
p1685
sbag0
(g1
g2
(lp1686
g0
(g1
g2
(lp1687
Vto
p1688
atp1689
Rp1690
(dp1691
g15
VTO
p1692
sbag0
(g1
g2
(lp1693
g0
(g1
g2
(lp1694
Vit
p1695
atp1696
Rp1697
(dp1698
g15
VPRP
p1699
sbatp1700
Rp1701
(dp1702
g15
VNP
p1703
sbatp1704
Rp1705
(dp1706
g15
VPP
p1707
sbatp1708
Rp1709
(dp1710
g15
VVP
p1711
sbag0
(g1
g2
(lp1712
V.
p1713
atp1714
Rp1715
(dp1716
g15
V.
p1717
sbatp1718
Rp1719
(dp1720
g15
VS
p1721
sbatp1722
Rp1723
(dp1724
g15
S'id: 7'
p1725
sbag0
(g1
g2
(lp1726
g0
(g1
g2
(lp1727
g0
(g1
g2
(lp1728
g0
(g1
g2
(lp1729
VThey
p1730
atp1731
Rp1732
(dp1733
g15
VPRP
p1734
sbatp1735
Rp1736
(dp1737
g15
VNP
p1738
sbag0
(g1
g2
(lp1739
g0
(g1
g2
(lp1740
Vgot
p1741
atp1742
Rp1743
(dp1744
g15
VVBD
p1745
sbag0
(g1
g2
(lp1746
g0
(g1
g2
(lp1747
Va
p1748
atp1749
Rp1750
(dp1751
g15
VDT
p1752
sbag0
(g1
g2
(lp1753
Vlittle
p1754
atp1755
Rp1756
(dp1757
g15
VJJ
p1758
sbag0
(g1
g2
(lp1759
Vpile
p1760
atp1761
Rp1762
(dp1763
g15
VNN
p1764
sbatp1765
Rp1766
(dp1767
g15
VNP
p1768
sbag0
(g1
g2
(lp1769
g0
(g1
g2
(lp1770
Vthere
p1771
atp1772
Rp1773
(dp1774
g15
VRB
p1775
sbatp1776
Rp1777
(dp1778
g15
VADVP
p1779
sbatp1780
Rp1781
(dp1782
g15
VVP
p1783
sbag0
(g1
g2
(lp1784
V.
p1785
atp1786
Rp1787
(dp1788
g15
V.
p1789
sbatp1790
Rp1791
(dp1792
g15
VS
p1793
sbatp1794
Rp1795
(dp1796
g15
S'id: 8'
p1797
sbag0
(g1
g2
(lp1798
g0
(g1
g2
(lp1799
g0
(g1
g2
(lp1800
g0
(g1
g2
(lp1801
VSomebody
p1802
atp1803
Rp1804
(dp1805
g15
VNN
p1806
sbatp1807
Rp1808
(dp1809
g15
VNP
p1810
sbag0
(g1
g2
(lp1811
g0
(g1
g2
(lp1812
Vcatching
p1813
atp1814
Rp1815
(dp1816
g15
VVBG
p1817
sbag0
(g1
g2
(lp1818
g0
(g1
g2
(lp1819
Vthe
p1820
atp1821
Rp1822
(dp1823
g15
VDT
p1824
sbag0
(g1
g2
(lp1825
Vdish
p1826
atp1827
Rp1828
(dp1829
g15
VNN
p1830
sbatp1831
Rp1832
(dp1833
g15
VNP
p1834
sbatp1835
Rp1836
(dp1837
g15
VVP
p1838
sbag0
(g1
g2
(lp1839
V.
p1840
atp1841
Rp1842
(dp1843
g15
V.
p1844
sbatp1845
Rp1846
(dp1847
g15
VNP
p1848
sbatp1849
Rp1850
(dp1851
g15
S'id: 9'
p1852
sbag0
(g1
g2
(lp1853
g0
(g1
g2
(lp1854
g0
(g1
g2
(lp1855
g0
(g1
g2
(lp1856
g0
(g1
g2
(lp1857
g0
(g1
g2
(lp1858
VHere
p1859
atp1860
Rp1861
(dp1862
g15
VRB
p1863
sbatp1864
Rp1865
(dp1866
g15
VNP
p1867
sbag0
(g1
g2
(lp1868
V's
p1869
atp1870
Rp1871
(dp1872
g15
VPOS
p1873
sbag0
(g1
g2
(lp1874
Vpulling
p1875
atp1876
Rp1877
(dp1878
g15
VVBG
p1879
sbatp1880
Rp1881
(dp1882
g15
VNP
p1883
sbag0
(g1
g2
(lp1884
g0
(g1
g2
(lp1885
g0
(g1
g2
(lp1886
Vthe
p1887
atp1888
Rp1889
(dp1890
g15
VDT
p1891
sbag0
(g1
g2
(lp1892
Vnight
p1893
atp1894
Rp1895
(dp1896
g15
VNN
p1897
sbatp1898
Rp1899
(dp1900
g15
VNP
p1901
sbatp1902
Rp1903
(dp1904
g15
VPRN
p1905
sbatp1906
Rp1907
(dp1908
g15
VNP
p1909
sbag0
(g1
g2
(lp1910
V.
p1911
atp1912
Rp1913
(dp1914
g15
V.
p1915
sbatp1916
Rp1917
(dp1918
g15
VNP
p1919
sbatp1920
Rp1921
(dp1922
g15
S'id: 10'
p1923
sbag0
(g1
g2
(lp1924
g0
(g1
g2
(lp1925
g0
(g1
g2
(lp1926
g0
(g1
g2
(lp1927
g0
(g1
g2
(lp1928
g0
(g1
g2
(lp1929
g0
(g1
g2
(lp1930
VHere
p1931
atp1932
Rp1933
(dp1934
g15
VRB
p1935
sbatp1936
Rp1937
(dp1938
g15
VNP
p1939
sbag0
(g1
g2
(lp1940
V's
p1941
atp1942
Rp1943
(dp1944
g15
VPOS
p1945
sbatp1946
Rp1947
(dp1948
g15
VNP
p1949
sbag0
(g1
g2
(lp1950
g0
(g1
g2
(lp1951
g0
(g1
g2
(lp1952
g0
(g1
g2
(lp1953
Vfour
p1954
atp1955
Rp1956
(dp1957
g15
VCD
p1958
sbag0
(g1
g2
(lp1959
Vseventy
p1960
atp1961
Rp1962
(dp1963
g15
VCD
p1964
sbatp1965
Rp1966
(dp1967
g15
VQP
p1968
sbatp1969
Rp1970
(dp1971
g15
VADJP
p1972
sbag0
(g1
g2
(lp1973
V,
p1974
atp1975
Rp1976
(dp1977
g15
V,
p1978
sbag0
(g1
g2
(lp1979
g0
(g1
g2
(lp1980
g0
(g1
g2
(lp1981
Va
p1982
atp1983
Rp1984
(dp1985
g15
VDT
p1986
sbatp1987
Rp1988
(dp1989
g15
VNP
p1990
sbag0
(g1
g2
(lp1991
Vspecial
p1992
atp1993
Rp1994
(dp1995
g15
VJJ
p1996
sbatp1997
Rp1998
(dp1999
g15
VADJP
p2000
sbatp2001
Rp2002
(dp2003
g15
VADJP
p2004
sbag0
(g1
g2
(lp2005
Vtype
p2006
atp2007
Rp2008
(dp2009
g15
VNN
p2010
sbatp2011
Rp2012
(dp2013
g15
VNP
p2014
sbag0
(g1
g2
(lp2015
g0
(g1
g2
(lp2016
Vof
p2017
atp2018
Rp2019
(dp2020
g15
VIN
p2021
sbag0
(g1
g2
(lp2022
g0
(g1
g2
(lp2023
Vsail
p2024
atp2025
Rp2026
(dp2027
g15
VNN
p2028
sbag0
(g1
g2
(lp2029
Vbus
p2030
atp2031
Rp2032
(dp2033
g15
VNN
p2034
sbatp2035
Rp2036
(dp2037
g15
VNP
p2038
sbatp2039
Rp2040
(dp2041
g15
VPP
p2042
sbatp2043
Rp2044
(dp2045
g15
VNP
p2046
sbag0
(g1
g2
(lp2047
V.
p2048
atp2049
Rp2050
(dp2051
g15
V.
p2052
sbatp2053
Rp2054
(dp2055
g15
VNP
p2056
sbatp2057
Rp2058
(dp2059
g15
S'id: 11'
p2060
sbag0
(g1
g2
(lp2061
g0
(g1
g2
(lp2062
g0
(g1
g2
(lp2063
g0
(g1
g2
(lp2064
g0
(g1
g2
(lp2065
VThis
p2066
atp2067
Rp2068
(dp2069
g15
VDT
p2070
sbatp2071
Rp2072
(dp2073
g15
VNP
p2074
sbag0
(g1
g2
(lp2075
g0
(g1
g2
(lp2076
Vis
p2077
atp2078
Rp2079
(dp2080
g15
VVBZ
p2081
sbag0
(g1
g2
(lp2082
g0
(g1
g2
(lp2083
g0
(g1
g2
(lp2084
Va
p2085
atp2086
Rp2087
(dp2088
g15
VDT
p2089
sbag0
(g1
g2
(lp2090
Vlady
p2091
atp2092
Rp2093
(dp2094
g15
VNN
p2095
sbatp2096
Rp2097
(dp2098
g15
VNP
p2099
sbag0
(g1
g2
(lp2100
g0
(g1
g2
(lp2101
g0
(g1
g2
(lp2102
Vjust
p2103
atp2104
Rp2105
(dp2106
g15
VRB
p2107
sbatp2108
Rp2109
(dp2110
g15
VADVP
p2111
sbag0
(g1
g2
(lp2112
g0
(g1
g2
(lp2113
Vdoing
p2114
atp2115
Rp2116
(dp2117
g15
VVBG
p2118
sbatp2119
Rp2120
(dp2121
g15
VVP
p2122
sbag0
(g1
g2
(lp2123
V,
p2124
atp2125
Rp2126
(dp2127
g15
V,
p2128
sbag0
(g1
g2
(lp2129
g0
(g1
g2
(lp2130
Vmaking
p2131
atp2132
Rp2133
(dp2134
g15
VVBG
p2135
sbag0
(g1
g2
(lp2136
g0
(g1
g2
(lp2137
g0
(g1
g2
(lp2138
Va
p2139
atp2140
Rp2141
(dp2142
g15
VDT
p2143
sbag0
(g1
g2
(lp2144
Vdes
p2145
atp2146
Rp2147
(dp2148
g15
VFW
p2149
sbatp2150
Rp2151
(dp2152
g15
VNP
p2153
sbatp2154
Rp2155
(dp2156
g15
VS
p2157
sbatp2158
Rp2159
(dp2160
g15
VVP
p2161
sbatp2162
Rp2163
(dp2164
g15
VVP
p2165
sbatp2166
Rp2167
(dp2168
g15
VNP
p2169
sbatp2170
Rp2171
(dp2172
g15
VVP
p2173
sbatp2174
Rp2175
(dp2176
g15
VS
p2177
sbag0
(g1
g2
(lp2178
V,
p2179
atp2180
Rp2181
(dp2182
g15
V,
p2183
sbag0
(g1
g2
(lp2184
g0
(g1
g2
(lp2185
VI
p2186
atp2187
Rp2188
(dp2189
g15
VPRP
p2190
sbatp2191
Rp2192
(dp2193
g15
VNP
p2194
sbag0
(g1
g2
(lp2195
g0
(g1
g2
(lp2196
Vdo
p2197
atp2198
Rp2199
(dp2200
g15
VVBP
p2201
sbag0
(g1
g2
(lp2202
Vn't
p2203
atp2204
Rp2205
(dp2206
g15
VRB
p2207
sbag0
(g1
g2
(lp2208
g0
(g1
g2
(lp2209
Vknow
p2210
atp2211
Rp2212
(dp2213
g15
VVB
p2214
sbag0
(g1
g2
(lp2215
g0
(g1
g2
(lp2216
g0
(g1
g2
(lp2217
Vwhy
p2218
atp2219
Rp2220
(dp2221
g15
VWRB
p2222
sbatp2223
Rp2224
(dp2225
g15
VWHADVP
p2226
sbag0
(g1
g2
(lp2227
g0
(g1
g2
(lp2228
g0
(g1
g2
(lp2229
Vhe
p2230
atp2231
Rp2232
(dp2233
g15
VPRP
p2234
sbatp2235
Rp2236
(dp2237
g15
VNP
p2238
sbag0
(g1
g2
(lp2239
g0
(g1
g2
(lp2240
V's
p2241
atp2242
Rp2243
(dp2244
g15
VVBZ
p2245
sbag0
(g1
g2
(lp2246
g0
(g1
g2
(lp2247
Vdoing
p2248
atp2249
Rp2250
(dp2251
g15
VVBG
p2252
sbatp2253
Rp2254
(dp2255
g15
VVP
p2256
sbatp2257
Rp2258
(dp2259
g15
VVP
p2260
sbatp2261
Rp2262
(dp2263
g15
VS
p2264
sbatp2265
Rp2266
(dp2267
g15
VSBAR
p2268
sbatp2269
Rp2270
(dp2271
g15
VVP
p2272
sbatp2273
Rp2274
(dp2275
g15
VVP
p2276
sbag0
(g1
g2
(lp2277
V.
p2278
atp2279
Rp2280
(dp2281
g15
V.
p2282
sbatp2283
Rp2284
(dp2285
g15
VS
p2286
sbatp2287
Rp2288
(dp2289
g15
S'id: 12'
p2290
sbag0
(g1
g2
(lp2291
g0
(g1
g2
(lp2292
g0
(g1
g2
(lp2293
g0
(g1
g2
(lp2294
VHe
p2295
atp2296
Rp2297
(dp2298
g15
VPRP
p2299
sbatp2300
Rp2301
(dp2302
g15
VNP
p2303
sbag0
(g1
g2
(lp2304
g0
(g1
g2
(lp2305
V's
p2306
atp2307
Rp2308
(dp2309
g15
VVBZ
p2310
sbag0
(g1
g2
(lp2311
g0
(g1
g2
(lp2312
Vpulling
p2313
atp2314
Rp2315
(dp2316
g15
VVBG
p2317
sbag0
(g1
g2
(lp2318
g0
(g1
g2
(lp2319
Vthere
p2320
atp2321
Rp2322
(dp2323
g15
VRB
p2324
sbatp2325
Rp2326
(dp2327
g15
VADVP
p2328
sbatp2329
Rp2330
(dp2331
g15
VVP
p2332
sbatp2333
Rp2334
(dp2335
g15
VVP
p2336
sbag0
(g1
g2
(lp2337
V.
p2338
atp2339
Rp2340
(dp2341
g15
V.
p2342
sbatp2343
Rp2344
(dp2345
g15
VS
p2346
sbatp2347
Rp2348
(dp2349
g15
S'id: 13'
p2350
sbag0
(g1
g2
(lp2351
g0
(g1
g2
(lp2352
g0
(g1
g2
(lp2353
g0
(g1
g2
(lp2354
g0
(g1
g2
(lp2355
g0
(g1
g2
(lp2356
VHe
p2357
atp2358
Rp2359
(dp2360
g15
VPRP
p2361
sbatp2362
Rp2363
(dp2364
g15
VNP
p2365
sbag0
(g1
g2
(lp2366
g0
(g1
g2
(lp2367
V's
p2368
atp2369
Rp2370
(dp2371
g15
VVBZ
p2372
sbag0
(g1
g2
(lp2373
g0
(g1
g2
(lp2374
Vjust
p2375
atp2376
Rp2377
(dp2378
g15
VRB
p2379
sbatp2380
Rp2381
(dp2382
g15
VADVP
p2383
sbag0
(g1
g2
(lp2384
g0
(g1
g2
(lp2385
Vsitting
p2386
atp2387
Rp2388
(dp2389
g15
VVBG
p2390
sbag0
(g1
g2
(lp2391
g0
(g1
g2
(lp2392
Vthere
p2393
atp2394
Rp2395
(dp2396
g15
VRB
p2397
sbatp2398
Rp2399
(dp2400
g15
VADVP
p2401
sbatp2402
Rp2403
(dp2404
g15
VVP
p2405
sbatp2406
Rp2407
(dp2408
g15
VVP
p2409
sbatp2410
Rp2411
(dp2412
g15
VS
p2413
sbag0
(g1
g2
(lp2414
V,
p2415
atp2416
Rp2417
(dp2418
g15
V,
p2419
sbag0
(g1
g2
(lp2420
g0
(g1
g2
(lp2421
g0
(g1
g2
(lp2422
Vshe
p2423
atp2424
Rp2425
(dp2426
g15
VPRP
p2427
sbatp2428
Rp2429
(dp2430
g15
VNP
p2431
sbag0
(g1
g2
(lp2432
g0
(g1
g2
(lp2433
Von
p2434
atp2435
Rp2436
(dp2437
g15
VIN
p2438
sbag0
(g1
g2
(lp2439
g0
(g1
g2
(lp2440
Vdrink
p2441
atp2442
Rp2443
(dp2444
g15
VNN
p2445
sbatp2446
Rp2447
(dp2448
g15
VNP
p2449
sbatp2450
Rp2451
(dp2452
g15
VPP
p2453
sbatp2454
Rp2455
(dp2456
g15
VS
p2457
sbatp2458
Rp2459
(dp2460
g15
VS
p2461
sbag0
(g1
g2
(lp2462
g0
(g1
g2
(lp2463
VI
p2464
atp2465
Rp2466
(dp2467
g15
VPRP
p2468
sbatp2469
Rp2470
(dp2471
g15
VNP
p2472
sbag0
(g1
g2
(lp2473
g0
(g1
g2
(lp2474
Vguess
p2475
atp2476
Rp2477
(dp2478
g15
VVBP
p2479
sbatp2480
Rp2481
(dp2482
g15
VVP
p2483
sbag0
(g1
g2
(lp2484
V.
p2485
atp2486
Rp2487
(dp2488
g15
V.
p2489
sbatp2490
Rp2491
(dp2492
g15
VS
p2493
sbatp2494
Rp2495
(dp2496
g15
S'id: 14'
p2497
sbag0
(g1
g2
(lp2498
g0
(g1
g2
(lp2499
g0
(g1
g2
(lp2500
g0
(g1
g2
(lp2501
VHere
p2502
atp2503
Rp2504
(dp2505
g15
VRB
p2506
sbatp2507
Rp2508
(dp2509
g15
VNP
p2510
sbag0
(g1
g2
(lp2511
g0
(g1
g2
(lp2512
V's
p2513
atp2514
Rp2515
(dp2516
g15
VVBZ
p2517
sbag0
(g1
g2
(lp2518
g0
(g1
g2
(lp2519
Va
p2520
atp2521
Rp2522
(dp2523
g15
VDT
p2524
sbag0
(g1
g2
(lp2525
Vladio
p2526
atp2527
Rp2528
(dp2529
g15
VJJ
p2530
sbag0
(g1
g2
(lp2531
Vplaying
p2532
atp2533
Rp2534
(dp2535
g15
VNN
p2536
sbag0
(g1
g2
(lp2537
Vnothing
p2538
atp2539
Rp2540
(dp2541
g15
VNN
p2542
sbatp2543
Rp2544
(dp2545
g15
VNP
p2546
sbatp2547
Rp2548
(dp2549
g15
VVP
p2550
sbag0
(g1
g2
(lp2551
V.
p2552
atp2553
Rp2554
(dp2555
g15
V.
p2556
sbatp2557
Rp2558
(dp2559
g15
VS
p2560
sbatp2561
Rp2562
(dp2563
g15
S'id: 15'
p2564
sbag0
(g1
g2
(lp2565
g0
(g1
g2
(lp2566
g0
(g1
g2
(lp2567
g0
(g1
g2
(lp2568
g0
(g1
g2
(lp2569
VHe
p2570
atp2571
Rp2572
(dp2573
g15
VPRP
p2574
sbatp2575
Rp2576
(dp2577
g15
VNP
p2578
sbag0
(g1
g2
(lp2579
g0
(g1
g2
(lp2580
V's
p2581
atp2582
Rp2583
(dp2584
g15
VVBZ
p2585
sbag0
(g1
g2
(lp2586
g0
(g1
g2
(lp2587
Vgot
p2588
atp2589
Rp2590
(dp2591
g15
VVBN
p2592
sbag0
(g1
g2
(lp2593
g0
(g1
g2
(lp2594
Vno
p2595
atp2596
Rp2597
(dp2598
g15
VDT
p2599
sbag0
(g1
g2
(lp2600
Vfeet
p2601
atp2602
Rp2603
(dp2604
g15
VNNS
p2605
sbatp2606
Rp2607
(dp2608
g15
VNP
p2609
sbag0
(g1
g2
(lp2610
g0
(g1
g2
(lp2611
Von
p2612
atp2613
Rp2614
(dp2615
g15
VIN
p2616
sbatp2617
Rp2618
(dp2619
g15
VPP
p2620
sbatp2621
Rp2622
(dp2623
g15
VVP
p2624
sbatp2625
Rp2626
(dp2627
g15
VVP
p2628
sbatp2629
Rp2630
(dp2631
g15
VS
p2632
sbag0
(g1
g2
(lp2633
V,
p2634
atp2635
Rp2636
(dp2637
g15
V,
p2638
sbag0
(g1
g2
(lp2639
Vso
p2640
atp2641
Rp2642
(dp2643
g15
VIN
p2644
sbag0
(g1
g2
(lp2645
g0
(g1
g2
(lp2646
g0
(g1
g2
(lp2647
Vhe
p2648
atp2649
Rp2650
(dp2651
g15
VPRP
p2652
sbatp2653
Rp2654
(dp2655
g15
VNP
p2656
sbag0
(g1
g2
(lp2657
g0
(g1
g2
(lp2658
Vhurt
p2659
atp2660
Rp2661
(dp2662
g15
VVBD
p2663
sbag0
(g1
g2
(lp2664
g0
(g1
g2
(lp2665
g0
(g1
g2
(lp2666
Vhimself
p2667
atp2668
Rp2669
(dp2670
g15
VPRP
p2671
sbatp2672
Rp2673
(dp2674
g15
VNP
p2675
sbag0
(g1
g2
(lp2676
g0
(g1
g2
(lp2677
Vthere
p2678
atp2679
Rp2680
(dp2681
g15
VEX
p2682
sbatp2683
Rp2684
(dp2685
g15
VNP
p2686
sbatp2687
Rp2688
(dp2689
g15
VS
p2690
sbatp2691
Rp2692
(dp2693
g15
VVP
p2694
sbatp2695
Rp2696
(dp2697
g15
VS
p2698
sbag0
(g1
g2
(lp2699
V.
p2700
atp2701
Rp2702
(dp2703
g15
V.
p2704
sbatp2705
Rp2706
(dp2707
g15
VS
p2708
sbatp2709
Rp2710
(dp2711
g15
S'id: 16'
p2712
sbag0
(g1
g2
(lp2713
g0
(g1
g2
(lp2714
g0
(g1
g2
(lp2715
g0
(g1
g2
(lp2716
g0
(g1
g2
(lp2717
g0
(g1
g2
(lp2718
VHere
p2719
atp2720
Rp2721
(dp2722
g15
VRB
p2723
sbatp2724
Rp2725
(dp2726
g15
VNP
p2727
sbag0
(g1
g2
(lp2728
V's
p2729
atp2730
Rp2731
(dp2732
g15
VPOS
p2733
sbatp2734
Rp2735
(dp2736
g15
VNP
p2737
sbag0
(g1
g2
(lp2738
g0
(g1
g2
(lp2739
Vanother
p2740
atp2741
Rp2742
(dp2743
g15
VDT
p2744
sbag0
(g1
g2
(lp2745
g0
(g1
g2
(lp2746
g0
(g1
g2
(lp2747
Vone
p2748
atp2749
Rp2750
(dp2751
g15
VCD
p2752
sbatp2753
Rp2754
(dp2755
g15
VNP-TMP
p2756
sbag0
(g1
g2
(lp2757
g0
(g1
g2
(lp2758
Vwithout
p2759
atp2760
Rp2761
(dp2762
g15
VIN
p2763
sbag0
(g1
g2
(lp2764
g0
(g1
g2
(lp2765
Va
p2766
atp2767
Rp2768
(dp2769
g15
VDT
p2770
sbatp2771
Rp2772
(dp2773
g15
VNP
p2774
sbatp2775
Rp2776
(dp2777
g15
VPP
p2778
sbatp2779
Rp2780
(dp2781
g15
VPRN
p2782
sbatp2783
Rp2784
(dp2785
g15
VADJP
p2786
sbag0
(g1
g2
(lp2787
Vfoot
p2788
atp2789
Rp2790
(dp2791
g15
VNN
p2792
sbatp2793
Rp2794
(dp2795
g15
VNP
p2796
sbag0
(g1
g2
(lp2797
g0
(g1
g2
(lp2798
Von
p2799
atp2800
Rp2801
(dp2802
g15
VIN
p2803
sbatp2804
Rp2805
(dp2806
g15
VADJP
p2807
sbag0
(g1
g2
(lp2808
V.
p2809
atp2810
Rp2811
(dp2812
g15
V.
p2813
sbatp2814
Rp2815
(dp2816
g15
VNP
p2817
sbatp2818
Rp2819
(dp2820
g15
S'id: 17'
p2821
sbag0
(g1
g2
(lp2822
g0
(g1
g2
(lp2823
g0
(g1
g2
(lp2824
g0
(g1
g2
(lp2825
VHere
p2826
atp2827
Rp2828
(dp2829
g15
VRB
p2830
sbatp2831
Rp2832
(dp2833
g15
VNP
p2834
sbag0
(g1
g2
(lp2835
g0
(g1
g2
(lp2836
V's
p2837
atp2838
Rp2839
(dp2840
g15
VVBZ
p2841
sbag0
(g1
g2
(lp2842
g0
(g1
g2
(lp2843
Von
p2844
atp2845
Rp2846
(dp2847
g15
VIN
p2848
sbag0
(g1
g2
(lp2849
g0
(g1
g2
(lp2850
Va
p2851
atp2852
Rp2853
(dp2854
g15
VDT
p2855
sbag0
(g1
g2
(lp2856
Vboat
p2857
atp2858
Rp2859
(dp2860
g15
VNN
p2861
sbatp2862
Rp2863
(dp2864
g15
VNP
p2865
sbatp2866
Rp2867
(dp2868
g15
VPP
p2869
sbatp2870
Rp2871
(dp2872
g15
VVP
p2873
sbag0
(g1
g2
(lp2874
V.
p2875
atp2876
Rp2877
(dp2878
g15
V.
p2879
sbatp2880
Rp2881
(dp2882
g15
VS
p2883
sbatp2884
Rp2885
(dp2886
g15
S'id: 18'
p2887
sbag0
(g1
g2
(lp2888
g0
(g1
g2
(lp2889
g0
(g1
g2
(lp2890
g0
(g1
g2
(lp2891
VThe
p2892
atp2893
Rp2894
(dp2895
g15
VDT
p2896
sbag0
(g1
g2
(lp2897
Vboat
p2898
atp2899
Rp2900
(dp2901
g15
VNN
p2902
sbatp2903
Rp2904
(dp2905
g15
VNP
p2906
sbag0
(g1
g2
(lp2907
g0
(g1
g2
(lp2908
g0
(g1
g2
(lp2909
Vends
p2910
atp2911
Rp2912
(dp2913
g15
VVBZ
p2914
sbag0
(g1
g2
(lp2915
g0
(g1
g2
(lp2916
Vthere
p2917
atp2918
Rp2919
(dp2920
g15
VRB
p2921
sbatp2922
Rp2923
(dp2924
g15
VADVP
p2925
sbatp2926
Rp2927
(dp2928
g15
VVP
p2929
sbag0
(g1
g2
(lp2930
V,
p2931
atp2932
Rp2933
(dp2934
g15
V,
p2935
sbag0
(g1
g2
(lp2936
Vand
p2937
atp2938
Rp2939
(dp2940
g15
VCC
p2941
sbag0
(g1
g2
(lp2942
g0
(g1
g2
(lp2943
Vends
p2944
atp2945
Rp2946
(dp2947
g15
VVBZ
p2948
sbag0
(g1
g2
(lp2949
g0
(g1
g2
(lp2950
Vthere
p2951
atp2952
Rp2953
(dp2954
g15
VRB
p2955
sbatp2956
Rp2957
(dp2958
g15
VADVP
p2959
sbatp2960
Rp2961
(dp2962
g15
VVP
p2963
sbatp2964
Rp2965
(dp2966
g15
VVP
p2967
sbag0
(g1
g2
(lp2968
V.
p2969
atp2970
Rp2971
(dp2972
g15
V.
p2973
sbatp2974
Rp2975
(dp2976
g15
VS
p2977
sbatp2978
Rp2979
(dp2980
g15
S'id: 19'
p2981
sbag0
(g1
g2
(lp2982
g0
(g1
g2
(lp2983
g0
(g1
g2
(lp2984
g0
(g1
g2
(lp2985
VWho
p2986
atp2987
Rp2988
(dp2989
g15
VWP
p2990
sbatp2991
Rp2992
(dp2993
g15
VWHNP
p2994
sbag0
(g1
g2
(lp2995
g0
(g1
g2
(lp2996
g0
(g1
g2
(lp2997
Vcould
p2998
atp2999
Rp3000
(dp3001
g15
VMD
p3002
sbag0
(g1
g2
(lp3003
g0
(g1
g2
(lp3004
Vhit
p3005
atp3006
Rp3007
(dp3008
g15
VVB
p3009
sbatp3010
Rp3011
(dp3012
g15
VVP
p3013
sbatp3014
Rp3015
(dp3016
g15
VVP
p3017
sbatp3018
Rp3019
(dp3020
g15
VSQ
p3021
sbatp3022
Rp3023
(dp3024
g15
VSBARQ
p3025
sbatp3026
Rp3027
(dp3028
g15
S'id: 20'
p3029
sbatp3030
Rp3031
(dp3032
g15
S'sentences'
p3033
sb.