ccopy_reg
_reconstructor
p0
(cnltk.tree
Tree
p1
c__builtin__
list
p2
(lp3
g0
(g1
g2
(lp4
g0
(g1
g2
(lp5
g0
(g1
g2
(lp6
VOk
p7
atp8
Rp9
(dp10
S'_label'
p11
VNN
p12
sbag0
(g1
g2
(lp13
V.
p14
atp15
Rp16
(dp17
g11
V.
p18
sbatp19
Rp20
(dp21
g11
VNP
p22
sbatp23
Rp24
(dp25
g11
S'id: 0'
p26
sbag0
(g1
g2
(lp27
g0
(g1
g2
(lp28
g0
(g1
g2
(lp29
g0
(g1
g2
(lp30
VClan
p31
atp32
Rp33
(dp34
g11
VNNP
p35
sbatp36
Rp37
(dp38
g11
VNP
p39
sbag0
(g1
g2
(lp40
V.
p41
atp42
Rp43
(dp44
g11
V.
p45
sbatp46
Rp47
(dp48
g11
VFRAG
p49
sbatp50
Rp51
(dp52
g11
S'id: 1'
p53
sbag0
(g1
g2
(lp54
g0
(g1
g2
(lp55
g0
(g1
g2
(lp56
g0
(g1
g2
(lp57
VOne
p58
atp59
Rp60
(dp61
g11
VCD
p62
sbag0
(g1
g2
(lp63
Vclan
p64
atp65
Rp66
(dp67
g11
VNN
p68
sbatp69
Rp70
(dp71
g11
VNP
p72
sbag0
(g1
g2
(lp73
g0
(g1
g2
(lp74
Vis
p75
atp76
Rp77
(dp78
g11
VVBZ
p79
sbatp80
Rp81
(dp82
g11
VVP
p83
sbag0
(g1
g2
(lp84
V.
p85
atp86
Rp87
(dp88
g11
V.
p89
sbatp90
Rp91
(dp92
g11
VS
p93
sbatp94
Rp95
(dp96
g11
S'id: 2'
p97
sbag0
(g1
g2
(lp98
g0
(g1
g2
(lp99
g0
(g1
g2
(lp100
g0
(g1
g2
(lp101
VOne
p102
atp103
Rp104
(dp105
g11
VCD
p106
sbatp107
Rp108
(dp109
g11
VNP
p110
sbag0
(g1
g2
(lp111
V.
p112
atp113
Rp114
(dp115
g11
V.
p116
sbatp117
Rp118
(dp119
g11
VFRAG
p120
sbatp121
Rp122
(dp123
g11
S'id: 3'
p124
sbag0
(g1
g2
(lp125
g0
(g1
g2
(lp126
g0
(g1
g2
(lp127
g0
(g1
g2
(lp128
VOne
p129
atp130
Rp131
(dp132
g11
VCD
p133
sbatp134
Rp135
(dp136
g11
VNP
p137
sbag0
(g1
g2
(lp138
g0
(g1
g2
(lp139
Vtiger
p140
atp141
Rp142
(dp143
g11
VNN
p144
sbatp145
Rp146
(dp147
g11
VNP
p148
sbag0
(g1
g2
(lp149
V.
p150
atp151
Rp152
(dp153
g11
V.
p154
sbatp155
Rp156
(dp157
g11
VNP
p158
sbatp159
Rp160
(dp161
g11
S'id: 4'
p162
sbag0
(g1
g2
(lp163
g0
(g1
g2
(lp164
g0
(g1
g2
(lp165
g0
(g1
g2
(lp166
VOne
p167
atp168
Rp169
(dp170
g11
VCD
p171
sbatp172
Rp173
(dp174
g11
VNP
p175
sbag0
(g1
g2
(lp176
V,
p177
atp178
Rp179
(dp180
g11
V,
p181
sbag0
(g1
g2
(lp182
g0
(g1
g2
(lp183
Vrope
p184
atp185
Rp186
(dp187
g11
VNN
p188
sbatp189
Rp190
(dp191
g11
VNP
p192
sbag0
(g1
g2
(lp193
V.
p194
atp195
Rp196
(dp197
g11
V.
p198
sbatp199
Rp200
(dp201
g11
VNP
p202
sbatp203
Rp204
(dp205
g11
S'id: 5'
p206
sbag0
(g1
g2
(lp207
g0
(g1
g2
(lp208
g0
(g1
g2
(lp209
g0
(g1
g2
(lp210
g0
(g1
g2
(lp211
VRope
p212
atp213
Rp214
(dp215
g11
VNN
p216
sbag0
(g1
g2
(lp217
Vswing
p218
atp219
Rp220
(dp221
g11
VNN
p222
sbatp223
Rp224
(dp225
g11
VNP
p226
sbag0
(g1
g2
(lp227
V,
p228
atp229
Rp230
(dp231
g11
V,
p232
sbag0
(g1
g2
(lp233
g0
(g1
g2
(lp234
Vrope
p235
atp236
Rp237
(dp238
g11
VNN
p239
sbatp240
Rp241
(dp242
g11
VNP
p243
sbatp244
Rp245
(dp246
g11
VNP
p247
sbag0
(g1
g2
(lp248
g0
(g1
g2
(lp249
Vis
p250
atp251
Rp252
(dp253
g11
VVBZ
p254
sbatp255
Rp256
(dp257
g11
VVP
p258
sbag0
(g1
g2
(lp259
V.
p260
atp261
Rp262
(dp263
g11
V.
p264
sbatp265
Rp266
(dp267
g11
VS
p268
sbatp269
Rp270
(dp271
g11
S'id: 6'
p272
sbag0
(g1
g2
(lp273
g0
(g1
g2
(lp274
g0
(g1
g2
(lp275
g0
(g1
g2
(lp276
VOne
p277
atp278
Rp279
(dp280
g11
VCD
p281
sbatp282
Rp283
(dp284
g11
VNP
p285
sbag0
(g1
g2
(lp286
g0
(g1
g2
(lp287
Vhorse
p288
atp289
Rp290
(dp291
g11
VNN
p292
sbatp293
Rp294
(dp295
g11
VNP
p296
sbag0
(g1
g2
(lp297
V.
p298
atp299
Rp300
(dp301
g11
V.
p302
sbatp303
Rp304
(dp305
g11
VNP
p306
sbatp307
Rp308
(dp309
g11
S'id: 7'
p310
sbag0
(g1
g2
(lp311
g0
(g1
g2
(lp312
g0
(g1
g2
(lp313
g0
(g1
g2
(lp314
VA
p315
atp316
Rp317
(dp318
g11
VDT
p319
sbag0
(g1
g2
(lp320
Vbaderina
p321
atp322
Rp323
(dp324
g11
VNN
p325
sbatp326
Rp327
(dp328
g11
VNP
p329
sbag0
(g1
g2
(lp330
V,
p331
atp332
Rp333
(dp334
g11
V,
p335
sbag0
(g1
g2
(lp336
g0
(g1
g2
(lp337
Vone
p338
atp339
Rp340
(dp341
g11
VCD
p342
sbag0
(g1
g2
(lp343
Vballerina
p344
atp345
Rp346
(dp347
g11
VNN
p348
sbatp349
Rp350
(dp351
g11
VNP
p352
sbag0
(g1
g2
(lp353
V.
p354
atp355
Rp356
(dp357
g11
V.
p358
sbatp359
Rp360
(dp361
g11
VNP
p362
sbatp363
Rp364
(dp365
g11
S'id: 8'
p366
sbag0
(g1
g2
(lp367
g0
(g1
g2
(lp368
g0
(g1
g2
(lp369
g0
(g1
g2
(lp370
VMany
p371
atp372
Rp373
(dp374
g11
VJJ
p375
sbag0
(g1
g2
(lp376
Vkids
p377
atp378
Rp379
(dp380
g11
VNNS
p381
sbatp382
Rp383
(dp384
g11
VNP
p385
sbag0
(g1
g2
(lp386
V.
p387
atp388
Rp389
(dp390
g11
V.
p391
sbatp392
Rp393
(dp394
g11
VFRAG
p395
sbatp396
Rp397
(dp398
g11
S'id: 9'
p399
sbag0
(g1
g2
(lp400
g0
(g1
g2
(lp401
g0
(g1
g2
(lp402
g0
(g1
g2
(lp403
VA
p404
atp405
Rp406
(dp407
g11
VDT
p408
sbag0
(g1
g2
(lp409
Vblack
p410
atp411
Rp412
(dp413
g11
VJJ
p414
sbag0
(g1
g2
(lp415
Vman
p416
atp417
Rp418
(dp419
g11
VNN
p420
sbatp421
Rp422
(dp423
g11
VNP
p424
sbag0
(g1
g2
(lp425
g0
(g1
g2
(lp426
Vwashing
p427
atp428
Rp429
(dp430
g11
VVBG
p431
sbag0
(g1
g2
(lp432
g0
(g1
g2
(lp433
g0
(g1
g2
(lp434
Vhis
p435
atp436
Rp437
(dp438
g11
VPRP$
p439
sbatp440
Rp441
(dp442
g11
VNP
p443
sbag0
(g1
g2
(lp444
V,
p445
atp446
Rp447
(dp448
g11
V,
p449
sbag0
(g1
g2
(lp450
g0
(g1
g2
(lp451
g0
(g1
g2
(lp452
Vcircus
p453
atp454
Rp455
(dp456
g11
VNN
p457
sbatp458
Rp459
(dp460
g11
VNP
p461
sbag0
(g1
g2
(lp462
V,
p463
atp464
Rp465
(dp466
g11
V,
p467
sbag0
(g1
g2
(lp468
g0
(g1
g2
(lp469
Vclan
p470
atp471
Rp472
(dp473
g11
VNN
p474
sbatp475
Rp476
(dp477
g11
VNP
p478
sbatp479
Rp480
(dp481
g11
VNP
p482
sbatp483
Rp484
(dp485
g11
VNP
p486
sbatp487
Rp488
(dp489
g11
VVP
p490
sbag0
(g1
g2
(lp491
V.
p492
atp493
Rp494
(dp495
g11
V.
p496
sbatp497
Rp498
(dp499
g11
VNP
p500
sbatp501
Rp502
(dp503
g11
S'id: 10'
p504
sbag0
(g1
g2
(lp505
g0
(g1
g2
(lp506
g0
(g1
g2
(lp507
g0
(g1
g2
(lp508
VSorry
p509
atp510
Rp511
(dp512
g11
VJJ
p513
sbatp514
Rp515
(dp516
g11
VADJP
p517
sbag0
(g1
g2
(lp518
V.
p519
atp520
Rp521
(dp522
g11
V.
p523
sbatp524
Rp525
(dp526
g11
VFRAG
p527
sbatp528
Rp529
(dp530
g11
S'id: 11'
p531
sbag0
(g1
g2
(lp532
g0
(g1
g2
(lp533
g0
(g1
g2
(lp534
g0
(g1
g2
(lp535
g0
(g1
g2
(lp536
VA
p537
atp538
Rp539
(dp540
g11
VDT
p541
sbag0
(g1
g2
(lp542
g0
(g1
g2
(lp543
g0
(g1
g2
(lp544
Vis
p545
atp546
Rp547
(dp548
g11
VVBZ
p549
sbatp550
Rp551
(dp552
g11
VNX
p553
sbag0
(g1
g2
(lp554
g0
(g1
g2
(lp555
g0
(g1
g2
(lp556
Vpale
p557
atp558
Rp559
(dp560
g11
VJJ
p561
sbatp562
Rp563
(dp564
g11
VPP
p565
sbag0
(g1
g2
(lp566
V,
p567
atp568
Rp569
(dp570
g11
V,
p571
sbatp572
Rp573
(dp574
g11
VPRN
p575
sbatp576
Rp577
(dp578
g11
VNX
p579
sbatp580
Rp581
(dp582
g11
VNP
p583
sbag0
(g1
g2
(lp584
g0
(g1
g2
(lp585
g0
(g1
g2
(lp586
Vpale
p587
atp588
Rp589
(dp590
g11
VJJ
p591
sbag0
(g1
g2
(lp592
Vclan
p593
atp594
Rp595
(dp596
g11
VNN
p597
sbag0
(g1
g2
(lp598
V,
p599
atp600
Rp601
(dp602
g11
V,
p603
sbag0
(g1
g2
(lp604
Vpale
p605
atp606
Rp607
(dp608
g11
VNN
p609
sbatp610
Rp611
(dp612
g11
VNP
p613
sbatp614
Rp615
(dp616
g11
VPRN
p617
sbatp618
Rp619
(dp620
g11
VNP
p621
sbag0
(g1
g2
(lp622
V.
p623
atp624
Rp625
(dp626
g11
V.
p627
sbatp628
Rp629
(dp630
g11
VNP
p631
sbatp632
Rp633
(dp634
g11
S'id: 12'
p635
sbag0
(g1
g2
(lp636
g0
(g1
g2
(lp637
g0
(g1
g2
(lp638
VBrass
p639
atp640
Rp641
(dp642
g11
VNN
p643
sbag0
(g1
g2
(lp644
Vtrees
p645
atp646
Rp647
(dp648
g11
VNNS
p649
sbag0
(g1
g2
(lp650
V.
p651
atp652
Rp653
(dp654
g11
V.
p655
sbatp656
Rp657
(dp658
g11
VNP
p659
sbatp660
Rp661
(dp662
g11
S'id: 13'
p663
sbag0
(g1
g2
(lp664
g0
(g1
g2
(lp665
g0
(g1
g2
(lp666
g0
(g1
g2
(lp667
VGrass
p668
atp669
Rp670
(dp671
g11
VNN
p672
sbatp673
Rp674
(dp675
g11
VNP
p676
sbag0
(g1
g2
(lp677
g0
(g1
g2
(lp678
Vis
p679
atp680
Rp681
(dp682
g11
VVBZ
p683
sbag0
(g1
g2
(lp684
g0
(g1
g2
(lp685
g0
(g1
g2
(lp686
Vwing
p687
atp688
Rp689
(dp690
g11
VNN
p691
sbatp692
Rp693
(dp694
g11
VNP
p695
sbag0
(g1
g2
(lp696
V,
p697
atp698
Rp699
(dp700
g11
V,
p701
sbag0
(g1
g2
(lp702
g0
(g1
g2
(lp703
Vring
p704
atp705
Rp706
(dp707
g11
VNN
p708
sbatp709
Rp710
(dp711
g11
VNP
p712
sbatp713
Rp714
(dp715
g11
VNP
p716
sbatp717
Rp718
(dp719
g11
VVP
p720
sbag0
(g1
g2
(lp721
V.
p722
atp723
Rp724
(dp725
g11
V.
p726
sbatp727
Rp728
(dp729
g11
VS
p730
sbatp731
Rp732
(dp733
g11
S'id: 14'
p734
sbag0
(g1
g2
(lp735
g0
(g1
g2
(lp736
g0
(g1
g2
(lp737
g0
(g1
g2
(lp738
VCenter
p739
atp740
Rp741
(dp742
g11
VNNP
p743
sbatp744
Rp745
(dp746
g11
VNP
p747
sbag0
(g1
g2
(lp748
g0
(g1
g2
(lp749
Vring
p750
atp751
Rp752
(dp753
g11
VNN
p754
sbatp755
Rp756
(dp757
g11
VNP
p758
sbag0
(g1
g2
(lp759
V.
p760
atp761
Rp762
(dp763
g11
V.
p764
sbatp765
Rp766
(dp767
g11
VNP
p768
sbatp769
Rp770
(dp771
g11
S'id: 15'
p772
sbag0
(g1
g2
(lp773
g0
(g1
g2
(lp774
g0
(g1
g2
(lp775
g0
(g1
g2
(lp776
VSorry
p777
atp778
Rp779
(dp780
g11
VJJ
p781
sbatp782
Rp783
(dp784
g11
VNP
p785
sbag0
(g1
g2
(lp786
g0
(g1
g2
(lp787
Vescapes
p788
atp789
Rp790
(dp791
g11
VVBZ
p792
sbag0
(g1
g2
(lp793
g0
(g1
g2
(lp794
Vme
p795
atp796
Rp797
(dp798
g11
VPRP
p799
sbatp800
Rp801
(dp802
g11
VNP
p803
sbatp804
Rp805
(dp806
g11
VVP
p807
sbag0
(g1
g2
(lp808
V.
p809
atp810
Rp811
(dp812
g11
V.
p813
sbatp814
Rp815
(dp816
g11
VS
p817
sbatp818
Rp819
(dp820
g11
S'id: 16'
p821
sbag0
(g1
g2
(lp822
g0
(g1
g2
(lp823
g0
(g1
g2
(lp824
g0
(g1
g2
(lp825
VIt
p826
atp827
Rp828
(dp829
g11
VPRP
p830
sbatp831
Rp832
(dp833
g11
VNP
p834
sbag0
(g1
g2
(lp835
g0
(g1
g2
(lp836
Vis
p837
atp838
Rp839
(dp840
g11
VVBZ
p841
sbag0
(g1
g2
(lp842
g0
(g1
g2
(lp843
g0
(g1
g2
(lp844
Vtwo
p845
atp846
Rp847
(dp848
g11
VCD
p849
sbatp850
Rp851
(dp852
g11
VNP
p853
sbag0
(g1
g2
(lp854
V,
p855
atp856
Rp857
(dp858
g11
V,
p859
sbag0
(g1
g2
(lp860
g0
(g1
g2
(lp861
g0
(g1
g2
(lp862
Vone
p863
atp864
Rp865
(dp866
g11
VCD
p867
sbag0
(g1
g2
(lp868
Vlady
p869
atp870
Rp871
(dp872
g11
VNN
p873
sbatp874
Rp875
(dp876
g11
VNP
p877
sbag0
(g1
g2
(lp878
V,
p879
atp880
Rp881
(dp882
g11
V,
p883
sbag0
(g1
g2
(lp884
g0
(g1
g2
(lp885
Vtwo
p886
atp887
Rp888
(dp889
g11
VCD
p890
sbag0
(g1
g2
(lp891
Vkids
p892
atp893
Rp894
(dp895
g11
VNNS
p896
sbatp897
Rp898
(dp899
g11
VNP
p900
sbatp901
Rp902
(dp903
g11
VNP
p904
sbatp905
Rp906
(dp907
g11
VNP
p908
sbatp909
Rp910
(dp911
g11
VVP
p912
sbag0
(g1
g2
(lp913
V.
p914
atp915
Rp916
(dp917
g11
V.
p918
sbatp919
Rp920
(dp921
g11
VS
p922
sbatp923
Rp924
(dp925
g11
S'id: 17'
p926
sbag0
(g1
g2
(lp927
g0
(g1
g2
(lp928
g0
(g1
g2
(lp929
g0
(g1
g2
(lp930
g0
(g1
g2
(lp931
VIs
p932
atp933
Rp934
(dp935
g11
VVBZ
p936
sbag0
(g1
g2
(lp937
g0
(g1
g2
(lp938
Vone
p939
atp940
Rp941
(dp942
g11
VCD
p943
sbatp944
Rp945
(dp946
g11
VNP
p947
sbatp948
Rp949
(dp950
g11
VVP
p951
sbatp952
Rp953
(dp954
g11
VS
p955
sbag0
(g1
g2
(lp956
V,
p957
atp958
Rp959
(dp960
g11
V,
p961
sbag0
(g1
g2
(lp962
g0
(g1
g2
(lp963
Vis
p964
atp965
Rp966
(dp967
g11
VVBZ
p968
sbatp969
Rp970
(dp971
g11
VVP
p972
sbag0
(g1
g2
(lp973
V.
p974
atp975
Rp976
(dp977
g11
V.
p978
sbatp979
Rp980
(dp981
g11
VS
p982
sbatp983
Rp984
(dp985
g11
S'id: 18'
p986
sbatp987
Rp988
(dp989
g11
S'sentences'
p990
sb.