ccopy_reg
_reconstructor
p0
(cnltk.tree
Tree
p1
c__builtin__
list
p2
(lp3
g0
(g1
g2
(lp4
g0
(g1
g2
(lp5
g0
(g1
g2
(lp6
g0
(g1
g2
(lp7
g0
(g1
g2
(lp8
g0
(g1
g2
(lp9
g0
(g1
g2
(lp10
(lp11
S'word: the, index: 3'
p12
aatp13
Rp14
(dp15
S'_label'
p16
Vdet
p17
sbatp18
Rp19
(dp20
g16
S'word: cown, index: 4'
p21
sbatp22
Rp23
(dp24
g16
Vprep
p25
sbatp26
Rp27
(dp28
g16
S'word: Look, index: 1'
p29
sbatp30
Rp31
(dp32
g16
Vccomp
p33
sbag0
(g1
g2
(lp34
g0
(g1
g2
(lp35
g0
(g1
g2
(lp36
(lp37
S'word: the, index: 6'
p38
aatp39
Rp40
(dp41
g16
Vdet
p42
sbatp43
Rp44
(dp45
g16
S'word: clown, index: 7'
p46
sbatp47
Rp48
(dp49
g16
Vnsubj
p50
sbag0
(g1
g2
(lp51
(lp52
S'word: paper, index: 9'
p53
aatp54
Rp55
(dp56
g16
Vdobj
p57
sbag0
(g1
g2
(lp58
g0
(g1
g2
(lp59
g0
(g1
g2
(lp60
g0
(g1
g2
(lp61
g0
(g1
g2
(lp62
(lp63
S'word: the, index: 18'
p64
aatp65
Rp66
(dp67
g16
Vdet
p68
sbatp69
Rp70
(dp71
g16
S'word: bucket, index: 19'
p72
sbatp73
Rp74
(dp75
g16
Vprep
p76
sbag0
(g1
g2
(lp77
(lp78
S'word: paper, index: 12'
p79
aatp80
Rp81
(dp82
g16
Vdobj
p83
sbag0
(g1
g2
(lp84
g0
(g1
g2
(lp85
g0
(g1
g2
(lp86
(lp87
S'word: the, index: 14'
p88
aatp89
Rp90
(dp91
g16
Vdet
p92
sbatp93
Rp94
(dp95
g16
S'word: box, index: 15'
p96
sbatp97
Rp98
(dp99
g16
Vprep
p100
sbatp101
Rp102
(dp103
g16
S'word: throwing, index: 11'
p104
sbatp105
Rp106
(dp107
g16
Vvmod
p108
sbatp109
Rp110
(dp111
g16
S'word: got, index: 8'
p112
sbatp113
Rp114
(dp115
g16
S'id: 0'
p116
sbag0
(g1
g2
(lp117
g0
(g1
g2
(lp118
g0
(g1
g2
(lp119
g0
(g1
g2
(lp120
g0
(g1
g2
(lp121
(lp122
S'word: man, index: 3'
p123
aatp124
Rp125
(dp126
g16
Vnn
p127
sbag0
(g1
g2
(lp128
g0
(g1
g2
(lp129
g0
(g1
g2
(lp130
(lp131
S'word: the, index: 5'
p132
aatp133
Rp134
(dp135
g16
Vdet
p136
sbatp137
Rp138
(dp139
g16
S'word: lion, index: 6'
p140
sbatp141
Rp142
(dp143
g16
Vdep
p144
sbatp145
Rp146
(dp147
g16
S'word: training, index: 4'
p148
sbatp149
Rp150
(dp151
g16
Vappos
p152
sbatp153
Rp154
(dp155
g16
S'word: Lion, index: 1'
p156
sbatp157
Rp158
(dp159
g16
S'id: 1'
p160
sbag0
(g1
g2
(lp161
g0
(g1
g2
(lp162
g0
(g1
g2
(lp163
g0
(g1
g2
(lp164
g0
(g1
g2
(lp165
(lp166
S'word: a, index: 7'
p167
aatp168
Rp169
(dp170
g16
Vdet
p171
sbatp172
Rp173
(dp174
g16
S'word: bench, index: 8'
p175
sbatp176
Rp177
(dp178
g16
Vprep
p179
sbag0
(g1
g2
(lp180
(lp181
S'word: There, index: 1'
p182
aatp183
Rp184
(dp185
g16
Vexpl
p186
sbag0
(g1
g2
(lp187
(lp188
S'word: what, index: 3'
p189
aatp190
Rp191
(dp192
g16
Vnsubj
p193
sbag0
(g1
g2
(lp194
g0
(g1
g2
(lp195
g0
(g1
g2
(lp196
(lp197
S'word: five, index: 4'
p198
aatp199
Rp200
(dp201
g16
Vnum
p202
sbatp203
Rp204
(dp205
g16
S'word: people, index: 5'
p206
sbatp207
Rp208
(dp209
g16
Vnpadvmod
p210
sbatp211
Rp212
(dp213
g16
S"word: 's, index: 2"
p214
sbatp215
Rp216
(dp217
g16
S'id: 2'
p218
sbatp219
Rp220
(dp221
g16
S'sentences'
p222
sb.