ccopy_reg
_reconstructor
p0
(cnltk.tree
Tree
p1
c__builtin__
list
p2
(lp3
g0
(g1
g2
(lp4
tp5
Rp6
(dp7
S'_label'
p8
S'id: 0'
p9
sbag0
(g1
g2
(lp10
g0
(g1
g2
(lp11
g0
(g1
g2
(lp12
(lp13
S'word: here, index: 3'
p14
aatp15
Rp16
(dp17
g8
Vdep
p18
sbatp19
Rp20
(dp21
g8
S'word: here, index: 1'
p22
sbatp23
Rp24
(dp25
g8
S'id: 1'
p26
sbag0
(g1
g2
(lp27
g0
(g1
g2
(lp28
g0
(g1
g2
(lp29
(lp30
S'word: this, index: 3'
p31
aatp32
Rp33
(dp34
g8
Vconj
p35
sbatp36
Rp37
(dp38
g8
S'word: this, index: 1'
p39
sbatp40
Rp41
(dp42
g8
S'id: 2'
p43
sbag0
(g1
g2
(lp44
g0
(g1
g2
(lp45
g0
(g1
g2
(lp46
(lp47
S'word: and, index: 1'
p48
aatp49
Rp50
(dp51
g8
Vcc
p52
sbag0
(g1
g2
(lp53
g0
(g1
g2
(lp54
g0
(g1
g2
(lp55
(lp56
S'word: here, index: 5'
p57
aatp58
Rp59
(dp60
g8
Vpobj
p61
sbatp62
Rp63
(dp64
g8
S'word: and, index: 4'
p65
sbatp66
Rp67
(dp68
g8
Vprep
p69
sbatp70
Rp71
(dp72
g8
S'word: here, index: 2'
p73
sbatp74
Rp75
(dp76
g8
S'id: 3'
p77
sbatp78
Rp79
(dp80
g8
S'sentences'
p81
sb.