ccopy_reg
_reconstructor
p0
(cnltk.tree
Tree
p1
c__builtin__
list
p2
(lp3
g0
(g1
g2
(lp4
g0
(g1
g2
(lp5
g0
(g1
g2
(lp6
(lp7
S'word: guy, index: 3'
p8
aatp9
Rp10
(dp11
S'_label'
p12
Vconj
p13
sbag0
(g1
g2
(lp14
(lp15
S'word: jar, index: 6'
p16
aatp17
Rp18
(dp19
g12
Vconj
p20
sbatp21
Rp22
(dp23
g12
S'word: Girl, index: 1'
p24
sbatp25
Rp26
(dp27
g12
S'id: 0'
p28
sbag0
(g1
g2
(lp29
g0
(g1
g2
(lp30
g0
(g1
g2
(lp31
(lp32
S'word: Jars, index: 2'
p33
aatp34
Rp35
(dp36
g12
Vappos
p37
sbatp38
Rp39
(dp40
g12
S'word: I., index: 1'
p41
sbatp42
Rp43
(dp44
g12
S'id: 1'
p45
sbag0
(g1
g2
(lp46
g0
(g1
g2
(lp47
g0
(g1
g2
(lp48
g0
(g1
g2
(lp49
g0
(g1
g2
(lp50
(lp51
S'word: cookie, index: 3'
p52
aatp53
Rp54
(dp55
g12
Vnn
p56
sbatp57
Rp58
(dp59
g12
S'word: jar, index: 4'
p60
sbatp61
Rp62
(dp63
g12
Vdep
p64
sbatp65
Rp66
(dp67
g12
S'word: Take, index: 1'
p68
sbatp69
Rp70
(dp71
g12
S'id: 2'
p72
sbag0
(g1
g2
(lp73
tp74
Rp75
(dp76
g12
S'id: 3'
p77
sbag0
(g1
g2
(lp78
tp79
Rp80
(dp81
g12
S'id: 4'
p82
sbag0
(g1
g2
(lp83
g0
(g1
g2
(lp84
g0
(g1
g2
(lp85
(lp86
S'word: water, index: 16'
p87
aatp88
Rp89
(dp90
g12
Vappos
p91
sbag0
(g1
g2
(lp92
(lp93
S'word: scanning, index: 4'
p94
aatp95
Rp96
(dp97
g12
Vconj
p98
sbag0
(g1
g2
(lp99
g0
(g1
g2
(lp100
g0
(g1
g2
(lp101
(lp102
S'word: water, index: 9'
p103
aatp104
Rp105
(dp106
g12
Vappos
p107
sbatp108
Rp109
(dp110
g12
S'word: woman, index: 7'
p111
sbatp112
Rp113
(dp114
g12
Vconj
p115
sbag0
(g1
g2
(lp116
g0
(g1
g2
(lp117
g0
(g1
g2
(lp118
(lp119
S'word: water, index: 16'
p120
aatp121
Rp122
(dp123
g12
Vconj
p124
sbag0
(g1
g2
(lp125
(lp126
S'word: down, index: 13'
p127
aatp128
Rp129
(dp130
g12
Vadvmod
p131
sbatp132
Rp133
(dp134
g12
S'word: clothes, index: 11'
p135
sbatp136
Rp137
(dp138
g12
Vappos
p139
sbatp140
Rp141
(dp142
g12
S'word: Holding, index: 1'
p143
sbatp144
Rp145
(dp146
g12
S'id: 5'
p147
sbag0
(g1
g2
(lp148
g0
(g1
g2
(lp149
g0
(g1
g2
(lp150
(lp151
S'word: down, index: 18'
p152
aatp153
Rp154
(dp155
g12
Vadvmod
p156
sbag0
(g1
g2
(lp157
g0
(g1
g2
(lp158
g0
(g1
g2
(lp159
(lp160
S'word: children, index: 6'
p161
aatp162
Rp163
(dp164
g12
Vconj
p165
sbag0
(g1
g2
(lp166
g0
(g1
g2
(lp167
g0
(g1
g2
(lp168
(lp169
S'word: cookie, index: 9'
p170
aatp171
Rp172
(dp173
g12
Vnn
p174
sbatp175
Rp176
(dp177
g12
S'word: jar, index: 10'
p178
sbatp179
Rp180
(dp181
g12
Vconj
p182
sbatp183
Rp184
(dp185
g12
S'word: woman, index: 3'
p186
sbatp187
Rp188
(dp189
g12
Vnsubj
p190
sbag0
(g1
g2
(lp191
(lp192
S'word: down, index: 20'
p193
aatp194
Rp195
(dp196
g12
Vadvmod
p197
sbag0
(g1
g2
(lp198
(lp199
S'word: children, index: 6'
p200
aatp201
Rp202
(dp203
g12
Vnsubj
p204
sbag0
(g1
g2
(lp205
g0
(g1
g2
(lp206
g0
(g1
g2
(lp207
(lp208
S'word: dishes, index: 24'
p209
aatp210
Rp211
(dp212
g12
Vdobj
p213
sbag0
(g1
g2
(lp214
g0
(g1
g2
(lp215
g0
(g1
g2
(lp216
(lp217
S'word: water, index: 26'
p218
aatp219
Rp220
(dp221
g12
Vnsubj
p222
sbag0
(g1
g2
(lp223
(lp224
S'word: down, index: 28'
p225
aatp226
Rp227
(dp228
g12
Vprt
p229
sbag0
(g1
g2
(lp230
(lp231
S'word: stream, index: 29'
p232
aatp233
Rp234
(dp235
g12
Vdobj
p236
sbatp237
Rp238
(dp239
g12
S'word: flowed, index: 27'
p240
sbatp241
Rp242
(dp243
g12
Vparataxis
p244
sbag0
(g1
g2
(lp245
(lp246
S'word: stream, index: 32'
p247
aatp248
Rp249
(dp250
g12
Vprep
p251
sbatp252
Rp253
(dp254
g12
S'word: wife, index: 23'
p255
sbatp256
Rp257
(dp258
g12
Vconj
p259
sbag0
(g1
g2
(lp260
g176
atp261
Rp262
(dp263
g12
Vnsubj
p264
sbag0
(g1
g2
(lp265
g0
(g1
g2
(lp266
g0
(g1
g2
(lp267
(lp268
S'word: down, index: 14'
p269
aatp270
Rp271
(dp272
g12
Vconj
p273
sbatp274
Rp275
(dp276
g12
S'word: out, index: 12'
p277
sbatp278
Rp279
(dp280
g12
Vadvmod
p281
sbag0
(g1
g2
(lp282
(lp283
S'word: down, index: 14'
p284
aatp285
Rp286
(dp287
g12
Vadvmod
p288
sbag0
(g1
g2
(lp289
(lp290
S'word: down, index: 16'
p291
aatp292
Rp293
(dp294
g12
Vadvmod
p295
sbag0
(g1
g2
(lp296
(lp297
S'word: Okay, index: 1'
p298
aatp299
Rp300
(dp301
g12
Vdiscourse
p302
sbatp303
Rp304
(dp305
g12
S'word: slipped, index: 11'
p306
sbatp307
Rp308
(dp309
g12
S'id: 6'
p310
sbag0
(g1
g2
(lp311
tp312
Rp313
(dp314
g12
S'id: 7'
p315
sbatp316
Rp317
(dp318
g12
S'sentences'
p319
sb.