ccopy_reg
_reconstructor
p0
(cnltk.tree
Tree
p1
c__builtin__
list
p2
(lp3
g0
(g1
g2
(lp4
g0
(g1
g2
(lp5
g0
(g1
g2
(lp6
g0
(g1
g2
(lp7
Vok
p8
atp9
Rp10
(dp11
S'_label'
p12
VNN
p13
sbatp14
Rp15
(dp16
g12
VNP
p17
sbag0
(g1
g2
(lp18
V,
p19
atp20
Rp21
(dp22
g12
V,
p23
sbag0
(g1
g2
(lp24
g0
(g1
g2
(lp25
g0
(g1
g2
(lp26
Vyoung
p27
atp28
Rp29
(dp30
g12
VJJ
p31
sbag0
(g1
g2
(lp32
Vboy
p33
atp34
Rp35
(dp36
g12
VNN
p37
sbatp38
Rp39
(dp40
g12
VNP
p41
sbag0
(g1
g2
(lp42
g0
(g1
g2
(lp43
Vin
p44
atp45
Rp46
(dp47
g12
VIN
p48
sbag0
(g1
g2
(lp49
g0
(g1
g2
(lp50
g0
(g1
g2
(lp51
Vthe
p52
atp53
Rp54
(dp55
g12
VDT
p56
sbag0
(g1
g2
(lp57
Vcookie
p58
atp59
Rp60
(dp61
g12
VNN
p62
sbag0
(g1
g2
(lp63
Vjar
p64
atp65
Rp66
(dp67
g12
VNN
p68
sbatp69
Rp70
(dp71
g12
VNP
p72
sbag0
(g1
g2
(lp73
V,
p74
atp75
Rp76
(dp77
g12
V,
p78
sbag0
(g1
g2
(lp79
g0
(g1
g2
(lp80
g0
(g1
g2
(lp81
Va
p82
atp83
Rp84
(dp85
g12
VDT
p86
sbag0
(g1
g2
(lp87
Vlittle
p88
atp89
Rp90
(dp91
g12
VJJ
p92
sbag0
(g1
g2
(lp93
Vgirl
p94
atp95
Rp96
(dp97
g12
VNN
p98
sbatp99
Rp100
(dp101
g12
VNP
p102
sbag0
(g1
g2
(lp103
g0
(g1
g2
(lp104
Vasking
p105
atp106
Rp107
(dp108
g12
VVBG
p109
sbag0
(g1
g2
(lp110
g0
(g1
g2
(lp111
Vfor
p112
atp113
Rp114
(dp115
g12
VIN
p116
sbag0
(g1
g2
(lp117
g0
(g1
g2
(lp118
Va
p119
atp120
Rp121
(dp122
g12
VDT
p123
sbag0
(g1
g2
(lp124
Vcookie
p125
atp126
Rp127
(dp128
g12
VNN
p129
sbatp130
Rp131
(dp132
g12
VNP
p133
sbatp134
Rp135
(dp136
g12
VPP
p137
sbatp138
Rp139
(dp140
g12
VVP
p141
sbatp142
Rp143
(dp144
g12
VNP
p145
sbatp146
Rp147
(dp148
g12
VNP
p149
sbatp150
Rp151
(dp152
g12
VPP
p153
sbatp154
Rp155
(dp156
g12
VNP
p157
sbag0
(g1
g2
(lp158
V.
p159
atp160
Rp161
(dp162
g12
V.
p163
sbatp164
Rp165
(dp166
g12
VNP
p167
sbatp168
Rp169
(dp170
g12
S'id: 0'
p171
sbag0
(g1
g2
(lp172
g0
(g1
g2
(lp173
g0
(g1
g2
(lp174
g0
(g1
g2
(lp175
g0
(g1
g2
(lp176
g0
(g1
g2
(lp177
VThe
p178
atp179
Rp180
(dp181
g12
VDT
p182
sbag0
(g1
g2
(lp183
Vmother
p184
atp185
Rp186
(dp187
g12
VNN
p188
sbag0
(g1
g2
(lp189
V's
p190
atp191
Rp192
(dp193
g12
VPOS
p194
sbatp195
Rp196
(dp197
g12
VNP
p198
sbag0
(g1
g2
(lp199
g0
(g1
g2
(lp200
Vat
p201
atp202
Rp203
(dp204
g12
VIN
p205
sbag0
(g1
g2
(lp206
Vthe
p207
atp208
Rp209
(dp210
g12
VDT
p211
sbatp212
Rp213
(dp214
g12
VQP
p215
sbatp216
Rp217
(dp218
g12
VNP
p219
sbag0
(g1
g2
(lp220
V,
p221
atp222
Rp223
(dp224
g12
V,
p225
sbag0
(g1
g2
(lp226
g0
(g1
g2
(lp227
Va
p228
atp229
Rp230
(dp231
g12
VDT
p232
sbag0
(g1
g2
(lp233
Vfemale
p234
atp235
Rp236
(dp237
g12
VNN
p238
sbag0
(g1
g2
(lp239
V's
p240
atp241
Rp242
(dp243
g12
VPOS
p244
sbatp245
Rp246
(dp247
g12
VNP
p248
sbatp249
Rp250
(dp251
g12
VNP
p252
sbag0
(g1
g2
(lp253
g0
(g1
g2
(lp254
g0
(g1
g2
(lp255
Vat
p256
atp257
Rp258
(dp259
g12
VIN
p260
sbag0
(g1
g2
(lp261
g0
(g1
g2
(lp262
g0
(g1
g2
(lp263
Vthe
p264
atp265
Rp266
(dp267
g12
VDT
p268
sbag0
(g1
g2
(lp269
Vsink
p270
atp271
Rp272
(dp273
g12
VNN
p274
sbatp275
Rp276
(dp277
g12
VNP
p278
sbag0
(g1
g2
(lp279
V,
p280
atp281
Rp282
(dp283
g12
V,
p284
sbag0
(g1
g2
(lp285
g0
(g1
g2
(lp286
g0
(g1
g2
(lp287
Vthe
p288
atp289
Rp290
(dp291
g12
VDT
p292
sbag0
(g1
g2
(lp293
Vsink
p294
atp295
Rp296
(dp297
g12
VNN
p298
sbag0
(g1
g2
(lp299
V's
p300
atp301
Rp302
(dp303
g12
VPOS
p304
sbatp305
Rp306
(dp307
g12
VNP
p308
sbag0
(g1
g2
(lp309
Voverflowing
p310
atp311
Rp312
(dp313
g12
VVBG
p314
sbatp315
Rp316
(dp317
g12
VNP
p318
sbatp319
Rp320
(dp321
g12
VNP
p322
sbatp323
Rp324
(dp325
g12
VPP
p326
sbag0
(g1
g2
(lp327
V,
p328
atp329
Rp330
(dp331
g12
V,
p332
sbag0
(g1
g2
(lp333
g0
(g1
g2
(lp334
Vshe
p335
atp336
Rp337
(dp338
g12
VPRP
p339
sbatp340
Rp341
(dp342
g12
VNP
p343
sbag0
(g1
g2
(lp344
g0
(g1
g2
(lp345
Vhas
p346
atp347
Rp348
(dp349
g12
VVBZ
p350
sbag0
(g1
g2
(lp351
g0
(g1
g2
(lp352
g0
(g1
g2
(lp353
Va
p354
atp355
Rp356
(dp357
g12
VDT
p358
sbag0
(g1
g2
(lp359
Vdishcloth
p360
atp361
Rp362
(dp363
g12
VNN
p364
sbatp365
Rp366
(dp367
g12
VNP
p368
sbag0
(g1
g2
(lp369
g0
(g1
g2
(lp370
Vin
p371
atp372
Rp373
(dp374
g12
VIN
p375
sbag0
(g1
g2
(lp376
g0
(g1
g2
(lp377
Vher
p378
atp379
Rp380
(dp381
g12
VPRP$
p382
sbag0
(g1
g2
(lp383
Vhand
p384
atp385
Rp386
(dp387
g12
VNN
p388
sbatp389
Rp390
(dp391
g12
VNP
p392
sbatp393
Rp394
(dp395
g12
VPP
p396
sbatp397
Rp398
(dp399
g12
VNP
p400
sbatp401
Rp402
(dp403
g12
VVP
p404
sbatp405
Rp406
(dp407
g12
VS
p408
sbag0
(g1
g2
(lp409
V,
p410
atp411
Rp412
(dp413
g12
V,
p414
sbag0
(g1
g2
(lp415
g0
(g1
g2
(lp416
g0
(g1
g2
(lp417
Vwrenching
p418
atp419
Rp420
(dp421
g12
VJJ
p422
sbatp423
Rp424
(dp425
g12
VNP
p426
sbag0
(g1
g2
(lp427
g0
(g1
g2
(lp428
Vtrying
p429
atp430
Rp431
(dp432
g12
VVBG
p433
sbag0
(g1
g2
(lp434
g0
(g1
g2
(lp435
Vphing
p436
atp437
Rp438
(dp439
g12
VNN
p440
sbatp441
Rp442
(dp443
g12
VNP
p444
sbatp445
Rp446
(dp447
g12
VVP
p448
sbatp449
Rp450
(dp451
g12
VS
p452
sbag0
(g1
g2
(lp453
V.
p454
atp455
Rp456
(dp457
g12
V.
p458
sbatp459
Rp460
(dp461
g12
VNP
p462
sbatp463
Rp464
(dp465
g12
S'id: 1'
p466
sbag0
(g1
g2
(lp467
g0
(g1
g2
(lp468
g0
(g1
g2
(lp469
g0
(g1
g2
(lp470
VThe
p471
atp472
Rp473
(dp474
g12
VDT
p475
sbag0
(g1
g2
(lp476
Vmother
p477
atp478
Rp479
(dp480
g12
VNN
p481
sbatp482
Rp483
(dp484
g12
VNP
p485
sbag0
(g1
g2
(lp486
g0
(g1
g2
(lp487
Vseem
p488
atp489
Rp490
(dp491
g12
VVBP
p492
sbag0
(g1
g2
(lp493
g0
(g1
g2
(lp494
g0
(g1
g2
(lp495
Vto
p496
atp497
Rp498
(dp499
g12
VTO
p500
sbag0
(g1
g2
(lp501
g0
(g1
g2
(lp502
Vhave
p503
atp504
Rp505
(dp506
g12
VVB
p507
sbag0
(g1
g2
(lp508
g0
(g1
g2
(lp509
Van
p510
atp511
Rp512
(dp513
g12
VDT
p514
sbag0
(g1
g2
(lp515
Vapron
p516
atp517
Rp518
(dp519
g12
VNN
p520
sbatp521
Rp522
(dp523
g12
VNP
p524
sbag0
(g1
g2
(lp525
g0
(g1
g2
(lp526
Von
p527
atp528
Rp529
(dp530
g12
VIN
p531
sbatp532
Rp533
(dp534
g12
VPP
p535
sbatp536
Rp537
(dp538
g12
VVP
p539
sbatp540
Rp541
(dp542
g12
VVP
p543
sbatp544
Rp545
(dp546
g12
VS
p547
sbatp548
Rp549
(dp550
g12
VVP
p551
sbag0
(g1
g2
(lp552
V.
p553
atp554
Rp555
(dp556
g12
V.
p557
sbatp558
Rp559
(dp560
g12
VS
p561
sbatp562
Rp563
(dp564
g12
S'id: 2'
p565
sbag0
(g1
g2
(lp566
g0
(g1
g2
(lp567
g0
(g1
g2
(lp568
g0
(g1
g2
(lp569
g0
(g1
g2
(lp570
VThe
p571
atp572
Rp573
(dp574
g12
VDT
p575
sbag0
(g1
g2
(lp576
Vlittle
p577
atp578
Rp579
(dp580
g12
VJJ
p581
sbag0
(g1
g2
(lp582
Vboy
p583
atp584
Rp585
(dp586
g12
VNN
p587
sbatp588
Rp589
(dp590
g12
VNP
p591
sbag0
(g1
g2
(lp592
g0
(g1
g2
(lp593
Vdressed
p594
atp595
Rp596
(dp597
g12
VVBN
p598
sbag0
(g1
g2
(lp599
g0
(g1
g2
(lp600
Vin
p601
atp602
Rp603
(dp604
g12
VIN
p605
sbag0
(g1
g2
(lp606
g0
(g1
g2
(lp607
Vshorts
p608
atp609
Rp610
(dp611
g12
VNNS
p612
sbatp613
Rp614
(dp615
g12
VNP
p616
sbatp617
Rp618
(dp619
g12
VPP
p620
sbag0
(g1
g2
(lp621
V,
p622
atp623
Rp624
(dp625
g12
V,
p626
sbag0
(g1
g2
(lp627
g0
(g1
g2
(lp628
Vwith
p629
atp630
Rp631
(dp632
g12
VIN
p633
sbag0
(g1
g2
(lp634
g0
(g1
g2
(lp635
Va
p636
atp637
Rp638
(dp639
g12
VDT
p640
sbag0
(g1
g2
(lp641
Vshir
p642
atp643
Rp644
(dp645
g12
VNN
p646
sbag0
(g1
g2
(lp647
Vshirt
p648
atp649
Rp650
(dp651
g12
VNN
p652
sbatp653
Rp654
(dp655
g12
VNP
p656
sbatp657
Rp658
(dp659
g12
VPP
p660
sbatp661
Rp662
(dp663
g12
VVP
p664
sbatp665
Rp666
(dp667
g12
VS
p668
sbag0
(g1
g2
(lp669
V,
p670
atp671
Rp672
(dp673
g12
V,
p674
sbag0
(g1
g2
(lp675
Vand
p676
atp677
Rp678
(dp679
g12
VCC
p680
sbag0
(g1
g2
(lp681
g0
(g1
g2
(lp682
g0
(g1
g2
(lp683
Vthe
p684
atp685
Rp686
(dp687
g12
VDT
p688
sbag0
(g1
g2
(lp689
Vlittle
p690
atp691
Rp692
(dp693
g12
VJJ
p694
sbag0
(g1
g2
(lp695
Vgirl
p696
atp697
Rp698
(dp699
g12
VNN
p700
sbatp701
Rp702
(dp703
g12
VNP
p704
sbag0
(g1
g2
(lp705
g0
(g1
g2
(lp706
Vis
p707
atp708
Rp709
(dp710
g12
VVBZ
p711
sbag0
(g1
g2
(lp712
g0
(g1
g2
(lp713
Vdressed
p714
atp715
Rp716
(dp717
g12
VVBN
p718
sbag0
(g1
g2
(lp719
g0
(g1
g2
(lp720
Vin
p721
atp722
Rp723
(dp724
g12
VIN
p725
sbag0
(g1
g2
(lp726
g0
(g1
g2
(lp727
Va
p728
atp729
Rp730
(dp731
g12
VDT
p732
sbag0
(g1
g2
(lp733
Vshoot
p734
atp735
Rp736
(dp737
g12
VNN
p738
sbag0
(g1
g2
(lp739
Vdress
p740
atp741
Rp742
(dp743
g12
VNN
p744
sbatp745
Rp746
(dp747
g12
VNP
p748
sbatp749
Rp750
(dp751
g12
VPP
p752
sbatp753
Rp754
(dp755
g12
VVP
p756
sbatp757
Rp758
(dp759
g12
VVP
p760
sbatp761
Rp762
(dp763
g12
VS
p764
sbag0
(g1
g2
(lp765
V.
p766
atp767
Rp768
(dp769
g12
V.
p770
sbatp771
Rp772
(dp773
g12
VS
p774
sbatp775
Rp776
(dp777
g12
S'id: 3'
p778
sbag0
(g1
g2
(lp779
g0
(g1
g2
(lp780
g0
(g1
g2
(lp781
g0
(g1
g2
(lp782
VThe
p783
atp784
Rp785
(dp786
g12
VDT
p787
sbag0
(g1
g2
(lp788
Vcookie
p789
atp790
Rp791
(dp792
g12
VNN
p793
sbag0
(g1
g2
(lp794
Vjar
p795
atp796
Rp797
(dp798
g12
VNN
p799
sbatp800
Rp801
(dp802
g12
VNP
p803
sbag0
(g1
g2
(lp804
g0
(g1
g2
(lp805
Vis
p806
atp807
Rp808
(dp809
g12
VVBZ
p810
sbag0
(g1
g2
(lp811
g0
(g1
g2
(lp812
Vfilled
p813
atp814
Rp815
(dp816
g12
VVBN
p817
sbag0
(g1
g2
(lp818
g0
(g1
g2
(lp819
Vwith
p820
atp821
Rp822
(dp823
g12
VIN
p824
sbag0
(g1
g2
(lp825
g0
(g1
g2
(lp826
Vcookies
p827
atp828
Rp829
(dp830
g12
VNNS
p831
sbatp832
Rp833
(dp834
g12
VNP
p835
sbatp836
Rp837
(dp838
g12
VPP
p839
sbag0
(g1
g2
(lp840
V,
p841
atp842
Rp843
(dp844
g12
V,
p845
sbag0
(g1
g2
(lp846
g0
(g1
g2
(lp847
Vwith
p848
atp849
Rp850
(dp851
g12
VIN
p852
sbag0
(g1
g2
(lp853
g0
(g1
g2
(lp854
g0
(g1
g2
(lp855
Vthe
p856
atp857
Rp858
(dp859
g12
VDT
p860
sbag0
(g1
g2
(lp861
Vtop
p862
atp863
Rp864
(dp865
g12
VNN
p866
sbatp867
Rp868
(dp869
g12
VNP
p870
sbag0
(g1
g2
(lp871
g0
(g1
g2
(lp872
Voff
p873
atp874
Rp875
(dp876
g12
VIN
p877
sbag0
(g1
g2
(lp878
g0
(g1
g2
(lp879
Vit
p880
atp881
Rp882
(dp883
g12
VPRP
p884
sbatp885
Rp886
(dp887
g12
VNP
p888
sbatp889
Rp890
(dp891
g12
VPP
p892
sbatp893
Rp894
(dp895
g12
VNP
p896
sbatp897
Rp898
(dp899
g12
VPP
p900
sbatp901
Rp902
(dp903
g12
VVP
p904
sbatp905
Rp906
(dp907
g12
VVP
p908
sbag0
(g1
g2
(lp909
V.
p910
atp911
Rp912
(dp913
g12
V.
p914
sbatp915
Rp916
(dp917
g12
VS
p918
sbatp919
Rp920
(dp921
g12
S'id: 4'
p922
sbag0
(g1
g2
(lp923
g0
(g1
g2
(lp924
g0
(g1
g2
(lp925
VAnd
p926
atp927
Rp928
(dp929
g12
VCC
p930
sbag0
(g1
g2
(lp931
g0
(g1
g2
(lp932
g0
(g1
g2
(lp933
g0
(g1
g2
(lp934
g0
(g1
g2
(lp935
Vthe
p936
atp937
Rp938
(dp939
g12
VDT
p940
sbag0
(g1
g2
(lp941
Vmother
p942
atp943
Rp944
(dp945
g12
VNN
p946
sbag0
(g1
g2
(lp947
V's
p948
atp949
Rp950
(dp951
g12
VPOS
p952
sbatp953
Rp954
(dp955
g12
VNP
p956
sbag0
(g1
g2
(lp957
Vstanding
p958
atp959
Rp960
(dp961
g12
VNN
p962
sbatp963
Rp964
(dp965
g12
VNP
p966
sbag0
(g1
g2
(lp967
Vat
p968
atp969
Rp970
(dp971
g12
VIN
p972
sbatp973
Rp974
(dp975
g12
VADVP
p976
sbag0
(g1
g2
(lp977
g0
(g1
g2
(lp978
Vover
p979
atp980
Rp981
(dp982
g12
VIN
p983
sbatp984
Rp985
(dp986
g12
VPP
p987
sbatp988
Rp989
(dp990
g12
VADVP
p991
sbag0
(g1
g2
(lp992
g0
(g1
g2
(lp993
Vthe
p994
atp995
Rp996
(dp997
g12
VDT
p998
sbag0
(g1
g2
(lp999
Vsink
p1000
atp1001
Rp1002
(dp1003
g12
VNN
p1004
sbag0
(g1
g2
(lp1005
g0
(g1
g2
(lp1006
g0
(g1
g2
(lp1007
Vwatching
p1008
atp1009
Rp1010
(dp1011
g12
VVBG
p1012
sbag0
(g1
g2
(lp1013
g0
(g1
g2
(lp1014
Vthe
p1015
atp1016
Rp1017
(dp1018
g12
VDT
p1019
sbag0
(g1
g2
(lp1020
Vwindow
p1021
atp1022
Rp1023
(dp1024
g12
VNN
p1025
sbatp1026
Rp1027
(dp1028
g12
VNP
p1029
sbag0
(g1
g2
(lp1030
g0
(g1
g2
(lp1031
Vwith
p1032
atp1033
Rp1034
(dp1035
g12
VIN
p1036
sbag0
(g1
g2
(lp1037
g0
(g1
g2
(lp1038
Vcurtains
p1039
atp1040
Rp1041
(dp1042
g12
VNNS
p1043
sbatp1044
Rp1045
(dp1046
g12
VNP
p1047
sbatp1048
Rp1049
(dp1050
g12
VPP
p1051
sbatp1052
Rp1053
(dp1054
g12
VVP
p1055
sbatp1056
Rp1057
(dp1058
g12
VS
p1059
sbatp1060
Rp1061
(dp1062
g12
VNP
p1063
sbag0
(g1
g2
(lp1064
V.
p1065
atp1066
Rp1067
(dp1068
g12
V.
p1069
sbatp1070
Rp1071
(dp1072
g12
VFRAG
p1073
sbatp1074
Rp1075
(dp1076
g12
S'id: 5'
p1077
sbag0
(g1
g2
(lp1078
g0
(g1
g2
(lp1079
g0
(g1
g2
(lp1080
VAnd
p1081
atp1082
Rp1083
(dp1084
g12
VCC
p1085
sbag0
(g1
g2
(lp1086
g0
(g1
g2
(lp1087
g0
(g1
g2
(lp1088
Vshowing
p1089
atp1090
Rp1091
(dp1092
g12
VVBG
p1093
sbag0
(g1
g2
(lp1094
g0
(g1
g2
(lp1095
Vthe
p1096
atp1097
Rp1098
(dp1099
g12
VDT
p1100
sbag0
(g1
g2
(lp1101
Vyard
p1102
atp1103
Rp1104
(dp1105
g12
VNN
p1106
sbatp1107
Rp1108
(dp1109
g12
VNP
p1110
sbatp1111
Rp1112
(dp1113
g12
VVP
p1114
sbatp1115
Rp1116
(dp1117
g12
VS
p1118
sbag0
(g1
g2
(lp1119
V,
p1120
atp1121
Rp1122
(dp1123
g12
V,
p1124
sbag0
(g1
g2
(lp1125
g0
(g1
g2
(lp1126
Vthe
p1127
atp1128
Rp1129
(dp1130
g12
VDT
p1131
sbag0
(g1
g2
(lp1132
Vsink
p1133
atp1134
Rp1135
(dp1136
g12
VNN
p1137
sbatp1138
Rp1139
(dp1140
g12
VNP
p1141
sbag0
(g1
g2
(lp1142
g0
(g1
g2
(lp1143
Vis
p1144
atp1145
Rp1146
(dp1147
g12
VVBZ
p1148
sbag0
(g1
g2
(lp1149
g0
(g1
g2
(lp1150
Vover
p1151
atp1152
Rp1153
(dp1154
g12
VIN
p1155
sbag0
(g1
g2
(lp1156
g0
(g1
g2
(lp1157
g0
(g1
g2
(lp1158
Vfilling
p1159
atp1160
Rp1161
(dp1162
g12
VVBG
p1163
sbag0
(g1
g2
(lp1164
g0
(g1
g2
(lp1165
Vwith
p1166
atp1167
Rp1168
(dp1169
g12
VIN
p1170
sbag0
(g1
g2
(lp1171
g0
(g1
g2
(lp1172
Vwater
p1173
atp1174
Rp1175
(dp1176
g12
VNN
p1177
sbatp1178
Rp1179
(dp1180
g12
VNP
p1181
sbatp1182
Rp1183
(dp1184
g12
VPP
p1185
sbatp1186
Rp1187
(dp1188
g12
VVP
p1189
sbatp1190
Rp1191
(dp1192
g12
VS
p1193
sbatp1194
Rp1195
(dp1196
g12
VPP
p1197
sbatp1198
Rp1199
(dp1200
g12
VVP
p1201
sbag0
(g1
g2
(lp1202
V.
p1203
atp1204
Rp1205
(dp1206
g12
V.
p1207
sbatp1208
Rp1209
(dp1210
g12
VS
p1211
sbatp1212
Rp1213
(dp1214
g12
S'id: 6'
p1215
sbag0
(g1
g2
(lp1216
g0
(g1
g2
(lp1217
g0
(g1
g2
(lp1218
g0
(g1
g2
(lp1219
VThere
p1220
atp1221
Rp1222
(dp1223
g12
VEX
p1224
sbatp1225
Rp1226
(dp1227
g12
VNP
p1228
sbag0
(g1
g2
(lp1229
g0
(g1
g2
(lp1230
V's
p1231
atp1232
Rp1233
(dp1234
g12
VVBZ
p1235
sbag0
(g1
g2
(lp1236
g0
(g1
g2
(lp1237
g0
(g1
g2
(lp1238
Vsome
p1239
atp1240
Rp1241
(dp1242
g12
VDT
p1243
sbag0
(g1
g2
(lp1244
Vdishes
p1245
atp1246
Rp1247
(dp1248
g12
VNNS
p1249
sbatp1250
Rp1251
(dp1252
g12
VNP
p1253
sbag0
(g1
g2
(lp1254
g0
(g1
g2
(lp1255
Von
p1256
atp1257
Rp1258
(dp1259
g12
VIN
p1260
sbag0
(g1
g2
(lp1261
g0
(g1
g2
(lp1262
Vthe
p1263
atp1264
Rp1265
(dp1266
g12
VDT
p1267
sbag0
(g1
g2
(lp1268
Vcounter
p1269
atp1270
Rp1271
(dp1272
g12
VNN
p1273
sbag0
(g1
g2
(lp1274
Vtop
p1275
atp1276
Rp1277
(dp1278
g12
VNN
p1279
sbatp1280
Rp1281
(dp1282
g12
VNP
p1283
sbatp1284
Rp1285
(dp1286
g12
VPP
p1287
sbatp1288
Rp1289
(dp1290
g12
VNP
p1291
sbatp1292
Rp1293
(dp1294
g12
VVP
p1295
sbag0
(g1
g2
(lp1296
V.
p1297
atp1298
Rp1299
(dp1300
g12
V.
p1301
sbatp1302
Rp1303
(dp1304
g12
VS
p1305
sbatp1306
Rp1307
(dp1308
g12
S'id: 7'
p1309
sbag0
(g1
g2
(lp1310
g0
(g1
g2
(lp1311
g0
(g1
g2
(lp1312
g0
(g1
g2
(lp1313
g0
(g1
g2
(lp1314
VThe
p1315
atp1316
Rp1317
(dp1318
g12
VDT
p1319
sbag0
(g1
g2
(lp1320
Vlittle
p1321
atp1322
Rp1323
(dp1324
g12
VJJ
p1325
sbag0
(g1
g2
(lp1326
Vboy
p1327
atp1328
Rp1329
(dp1330
g12
VNN
p1331
sbatp1332
Rp1333
(dp1334
g12
VNP
p1335
sbag0
(g1
g2
(lp1336
g0
(g1
g2
(lp1337
Vis
p1338
atp1339
Rp1340
(dp1341
g12
VVBZ
p1342
sbag0
(g1
g2
(lp1343
g0
(g1
g2
(lp1344
Vclimbing
p1345
atp1346
Rp1347
(dp1348
g12
VVBG
p1349
sbag0
(g1
g2
(lp1350
g0
(g1
g2
(lp1351
Vin
p1352
atp1353
Rp1354
(dp1355
g12
VRP
p1356
sbatp1357
Rp1358
(dp1359
g12
VPRT
p1360
sbatp1361
Rp1362
(dp1363
g12
VVP
p1364
sbag0
(g1
g2
(lp1365
V,
p1366
atp1367
Rp1368
(dp1369
g12
V,
p1370
sbag0
(g1
g2
(lp1371
g0
(g1
g2
(lp1372
Vup
p1373
atp1374
Rp1375
(dp1376
g12
VRB
p1377
sbag0
(g1
g2
(lp1378
Von
p1379
atp1380
Rp1381
(dp1382
g12
VIN
p1383
sbag0
(g1
g2
(lp1384
Va
p1385
atp1386
Rp1387
(dp1388
g12
VDT
p1389
sbatp1390
Rp1391
(dp1392
g12
VADVP
p1393
sbag0
(g1
g2
(lp1394
V,
p1395
atp1396
Rp1397
(dp1398
g12
V,
p1399
sbag0
(g1
g2
(lp1400
g0
(g1
g2
(lp1401
Va
p1402
atp1403
Rp1404
(dp1405
g12
VDT
p1406
sbag0
(g1
g2
(lp1407
Vstool
p1408
atp1409
Rp1410
(dp1411
g12
VNN
p1412
sbatp1413
Rp1414
(dp1415
g12
VNP
p1416
sbatp1417
Rp1418
(dp1419
g12
VVP
p1420
sbatp1421
Rp1422
(dp1423
g12
VS
p1424
sbag0
(g1
g2
(lp1425
V,
p1426
atp1427
Rp1428
(dp1429
g12
V,
p1430
sbag0
(g1
g2
(lp1431
Vand
p1432
atp1433
Rp1434
(dp1435
g12
VCC
p1436
sbag0
(g1
g2
(lp1437
g0
(g1
g2
(lp1438
g0
(g1
g2
(lp1439
Vit
p1440
atp1441
Rp1442
(dp1443
g12
VPRP
p1444
sbatp1445
Rp1446
(dp1447
g12
VNP
p1448
sbag0
(g1
g2
(lp1449
g0
(g1
g2
(lp1450
Vseem
p1451
atp1452
Rp1453
(dp1454
g12
VVBP
p1455
sbag0
(g1
g2
(lp1456
g0
(g1
g2
(lp1457
g0
(g1
g2
(lp1458
Vto
p1459
atp1460
Rp1461
(dp1462
g12
VTO
p1463
sbag0
(g1
g2
(lp1464
g0
(g1
g2
(lp1465
Vbe
p1466
atp1467
Rp1468
(dp1469
g12
VVB
p1470
sbag0
(g1
g2
(lp1471
g0
(g1
g2
(lp1472
Vfalling
p1473
atp1474
Rp1475
(dp1476
g12
VVBG
p1477
sbag0
(g1
g2
(lp1478
g0
(g1
g2
(lp1479
Vover
p1480
atp1481
Rp1482
(dp1483
g12
VIN
p1484
sbatp1485
Rp1486
(dp1487
g12
VPP
p1488
sbatp1489
Rp1490
(dp1491
g12
VVP
p1492
sbatp1493
Rp1494
(dp1495
g12
VVP
p1496
sbatp1497
Rp1498
(dp1499
g12
VVP
p1500
sbatp1501
Rp1502
(dp1503
g12
VS
p1504
sbatp1505
Rp1506
(dp1507
g12
VVP
p1508
sbatp1509
Rp1510
(dp1511
g12
VS
p1512
sbag0
(g1
g2
(lp1513
V.
p1514
atp1515
Rp1516
(dp1517
g12
V.
p1518
sbatp1519
Rp1520
(dp1521
g12
VS
p1522
sbatp1523
Rp1524
(dp1525
g12
S'id: 8'
p1526
sbag0
(g1
g2
(lp1527
g0
(g1
g2
(lp1528
g0
(g1
g2
(lp1529
VAnd
p1530
atp1531
Rp1532
(dp1533
g12
VCC
p1534
sbag0
(g1
g2
(lp1535
g0
(g1
g2
(lp1536
g0
(g1
g2
(lp1537
Vthe
p1538
atp1539
Rp1540
(dp1541
g12
VDT
p1542
sbag0
(g1
g2
(lp1543
Vlittle
p1544
atp1545
Rp1546
(dp1547
g12
VJJ
p1548
sbag0
(g1
g2
(lp1549
Vgirl
p1550
atp1551
Rp1552
(dp1553
g12
VNN
p1554
sbatp1555
Rp1556
(dp1557
g12
VNP
p1558
sbag0
(g1
g2
(lp1559
g0
(g1
g2
(lp1560
Vis
p1561
atp1562
Rp1563
(dp1564
g12
VVBZ
p1565
sbag0
(g1
g2
(lp1566
V,
p1567
atp1568
Rp1569
(dp1570
g12
V,
p1571
sbag0
(g1
g2
(lp1572
g0
(g1
g2
(lp1573
g0
(g1
g2
(lp1574
g0
(g1
g2
(lp1575
Vthe
p1576
atp1577
Rp1578
(dp1579
g12
VDT
p1580
sbag0
(g1
g2
(lp1581
Vdoors
p1582
atp1583
Rp1584
(dp1585
g12
VNNS
p1586
sbatp1587
Rp1588
(dp1589
g12
VNP
p1590
sbag0
(g1
g2
(lp1591
g0
(g1
g2
(lp1592
Vare
p1593
atp1594
Rp1595
(dp1596
g12
VVBP
p1597
sbag0
(g1
g2
(lp1598
g0
(g1
g2
(lp1599
Vopen
p1600
atp1601
Rp1602
(dp1603
g12
VJJ
p1604
sbag0
(g1
g2
(lp1605
g0
(g1
g2
(lp1606
Vto
p1607
atp1608
Rp1609
(dp1610
g12
VTO
p1611
sbag0
(g1
g2
(lp1612
g0
(g1
g2
(lp1613
Vthe
p1614
atp1615
Rp1616
(dp1617
g12
VDT
p1618
sbag0
(g1
g2
(lp1619
Vpantry
p1620
atp1621
Rp1622
(dp1623
g12
VNN
p1624
sbatp1625
Rp1626
(dp1627
g12
VNP
p1628
sbatp1629
Rp1630
(dp1631
g12
VPP
p1632
sbatp1633
Rp1634
(dp1635
g12
VADJP
p1636
sbatp1637
Rp1638
(dp1639
g12
VVP
p1640
sbatp1641
Rp1642
(dp1643
g12
VS
p1644
sbatp1645
Rp1646
(dp1647
g12
VSBAR
p1648
sbatp1649
Rp1650
(dp1651
g12
VVP
p1652
sbatp1653
Rp1654
(dp1655
g12
VS
p1656
sbag0
(g1
g2
(lp1657
V,
p1658
atp1659
Rp1660
(dp1661
g12
V,
p1662
sbag0
(g1
g2
(lp1663
Vand
p1664
atp1665
Rp1666
(dp1667
g12
VCC
p1668
sbag0
(g1
g2
(lp1669
g0
(g1
g2
(lp1670
g0
(g1
g2
(lp1671
Vthe
p1672
atp1673
Rp1674
(dp1675
g12
VDT
p1676
sbag0
(g1
g2
(lp1677
Vlittle
p1678
atp1679
Rp1680
(dp1681
g12
VJJ
p1682
sbag0
(g1
g2
(lp1683
Vgirl
p1684
atp1685
Rp1686
(dp1687
g12
VNN
p1688
sbatp1689
Rp1690
(dp1691
g12
VNP
p1692
sbag0
(g1
g2
(lp1693
g0
(g1
g2
(lp1694
Vseem
p1695
atp1696
Rp1697
(dp1698
g12
VVBP
p1699
sbag0
(g1
g2
(lp1700
g0
(g1
g2
(lp1701
g0
(g1
g2
(lp1702
Vto
p1703
atp1704
Rp1705
(dp1706
g12
VTO
p1707
sbag0
(g1
g2
(lp1708
g0
(g1
g2
(lp1709
Vbe
p1710
atp1711
Rp1712
(dp1713
g12
VVB
p1714
sbag0
(g1
g2
(lp1715
g0
(g1
g2
(lp1716
Vbegging
p1717
atp1718
Rp1719
(dp1720
g12
VVBG
p1721
sbag0
(g1
g2
(lp1722
g0
(g1
g2
(lp1723
Vfor
p1724
atp1725
Rp1726
(dp1727
g12
VIN
p1728
sbag0
(g1
g2
(lp1729
g0
(g1
g2
(lp1730
Va
p1731
atp1732
Rp1733
(dp1734
g12
VDT
p1735
sbag0
(g1
g2
(lp1736
Vcookie
p1737
atp1738
Rp1739
(dp1740
g12
VNN
p1741
sbatp1742
Rp1743
(dp1744
g12
VNP
p1745
sbatp1746
Rp1747
(dp1748
g12
VPP
p1749
sbatp1750
Rp1751
(dp1752
g12
VVP
p1753
sbatp1754
Rp1755
(dp1756
g12
VVP
p1757
sbatp1758
Rp1759
(dp1760
g12
VVP
p1761
sbatp1762
Rp1763
(dp1764
g12
VS
p1765
sbatp1766
Rp1767
(dp1768
g12
VVP
p1769
sbatp1770
Rp1771
(dp1772
g12
VS
p1773
sbag0
(g1
g2
(lp1774
V.
p1775
atp1776
Rp1777
(dp1778
g12
V.
p1779
sbatp1780
Rp1781
(dp1782
g12
VS
p1783
sbatp1784
Rp1785
(dp1786
g12
S'id: 9'
p1787
sbag0
(g1
g2
(lp1788
g0
(g1
g2
(lp1789
g0
(g1
g2
(lp1790
g0
(g1
g2
(lp1791
g0
(g1
g2
(lp1792
VThe
p1793
atp1794
Rp1795
(dp1796
g12
VDT
p1797
sbag0
(g1
g2
(lp1798
Vmother
p1799
atp1800
Rp1801
(dp1802
g12
VNN
p1803
sbatp1804
Rp1805
(dp1806
g12
VNP
p1807
sbag0
(g1
g2
(lp1808
V,
p1809
atp1810
Rp1811
(dp1812
g12
V,
p1813
sbag0
(g1
g2
(lp1814
g0
(g1
g2
(lp1815
Vwater
p1816
atp1817
Rp1818
(dp1819
g12
VNN
p1820
sbatp1821
Rp1822
(dp1823
g12
VNP
p1824
sbatp1825
Rp1826
(dp1827
g12
VNP
p1828
sbag0
(g1
g2
(lp1829
g0
(g1
g2
(lp1830
Vis
p1831
atp1832
Rp1833
(dp1834
g12
VVBZ
p1835
sbag0
(g1
g2
(lp1836
g0
(g1
g2
(lp1837
Vrunning
p1838
atp1839
Rp1840
(dp1841
g12
VVBG
p1842
sbag0
(g1
g2
(lp1843
g0
(g1
g2
(lp1844
g0
(g1
g2
(lp1845
Vall
p1846
atp1847
Rp1848
(dp1849
g12
VDT
p1850
sbatp1851
Rp1852
(dp1853
g12
VNP
p1854
sbag0
(g1
g2
(lp1855
g0
(g1
g2
(lp1856
Vover
p1857
atp1858
Rp1859
(dp1860
g12
VIN
p1861
sbag0
(g1
g2
(lp1862
g0
(g1
g2
(lp1863
Vher
p1864
atp1865
Rp1866
(dp1867
g12
VPRP$
p1868
sbag0
(g1
g2
(lp1869
Vshoes
p1870
atp1871
Rp1872
(dp1873
g12
VNNS
p1874
sbatp1875
Rp1876
(dp1877
g12
VNP
p1878
sbatp1879
Rp1880
(dp1881
g12
VPP
p1882
sbatp1883
Rp1884
(dp1885
g12
VNP
p1886
sbatp1887
Rp1888
(dp1889
g12
VVP
p1890
sbatp1891
Rp1892
(dp1893
g12
VVP
p1894
sbag0
(g1
g2
(lp1895
V.
p1896
atp1897
Rp1898
(dp1899
g12
V.
p1900
sbatp1901
Rp1902
(dp1903
g12
VS
p1904
sbatp1905
Rp1906
(dp1907
g12
S'id: 10'
p1908
sbag0
(g1
g2
(lp1909
g0
(g1
g2
(lp1910
g0
(g1
g2
(lp1911
g0
(g1
g2
(lp1912
g0
(g1
g2
(lp1913
VThey
p1914
atp1915
Rp1916
(dp1917
g12
VPRP
p1918
sbatp1919
Rp1920
(dp1921
g12
VNP
p1922
sbag0
(g1
g2
(lp1923
g0
(g1
g2
(lp1924
Vseem
p1925
atp1926
Rp1927
(dp1928
g12
VVBP
p1929
sbag0
(g1
g2
(lp1930
g0
(g1
g2
(lp1931
g0
(g1
g2
(lp1932
Vto
p1933
atp1934
Rp1935
(dp1936
g12
VTO
p1937
sbag0
(g1
g2
(lp1938
g0
(g1
g2
(lp1939
Vbe
p1940
atp1941
Rp1942
(dp1943
g12
VVB
p1944
sbag0
(g1
g2
(lp1945
g0
(g1
g2
(lp1946
Vin
p1947
atp1948
Rp1949
(dp1950
g12
VIN
p1951
sbag0
(g1
g2
(lp1952
g0
(g1
g2
(lp1953
Vthe
p1954
atp1955
Rp1956
(dp1957
g12
VDT
p1958
sbag0
(g1
g2
(lp1959
Vkitchen
p1960
atp1961
Rp1962
(dp1963
g12
VNN
p1964
sbatp1965
Rp1966
(dp1967
g12
VNP
p1968
sbatp1969
Rp1970
(dp1971
g12
VPP
p1972
sbag0
(g1
g2
(lp1973
V,
p1974
atp1975
Rp1976
(dp1977
g12
V,
p1978
sbag0
(g1
g2
(lp1979
g0
(g1
g2
(lp1980
g0
(g1
g2
(lp1981
Vdoing
p1982
atp1983
Rp1984
(dp1985
g12
VVBG
p1986
sbag0
(g1
g2
(lp1987
g0
(g1
g2
(lp1988
Vkitchen
p1989
atp1990
Rp1991
(dp1992
g12
VNN
p1993
sbag0
(g1
g2
(lp1994
Vwork
p1995
atp1996
Rp1997
(dp1998
g12
VNN
p1999
sbatp2000
Rp2001
(dp2002
g12
VNP
p2003
sbatp2004
Rp2005
(dp2006
g12
VVP
p2007
sbatp2008
Rp2009
(dp2010
g12
VS
p2011
sbatp2012
Rp2013
(dp2014
g12
VVP
p2015
sbatp2016
Rp2017
(dp2018
g12
VVP
p2019
sbatp2020
Rp2021
(dp2022
g12
VS
p2023
sbatp2024
Rp2025
(dp2026
g12
VVP
p2027
sbatp2028
Rp2029
(dp2030
g12
VS
p2031
sbag0
(g1
g2
(lp2032
V,
p2033
atp2034
Rp2035
(dp2036
g12
V,
p2037
sbag0
(g1
g2
(lp2038
Vand
p2039
atp2040
Rp2041
(dp2042
g12
VCC
p2043
sbag0
(g1
g2
(lp2044
g0
(g1
g2
(lp2045
g0
(g1
g2
(lp2046
Vthe
p2047
atp2048
Rp2049
(dp2050
g12
VDT
p2051
sbag0
(g1
g2
(lp2052
Vlittle
p2053
atp2054
Rp2055
(dp2056
g12
VJJ
p2057
sbag0
(g1
g2
(lp2058
Vboy
p2059
atp2060
Rp2061
(dp2062
g12
VNN
p2063
sbatp2064
Rp2065
(dp2066
g12
VNP
p2067
sbag0
(g1
g2
(lp2068
g0
(g1
g2
(lp2069
Vseem
p2070
atp2071
Rp2072
(dp2073
g12
VVBP
p2074
sbag0
(g1
g2
(lp2075
g0
(g1
g2
(lp2076
g0
(g1
g2
(lp2077
Vto
p2078
atp2079
Rp2080
(dp2081
g12
VTO
p2082
sbag0
(g1
g2
(lp2083
g0
(g1
g2
(lp2084
Vbe
p2085
atp2086
Rp2087
(dp2088
g12
VVB
p2089
sbag0
(g1
g2
(lp2090
g0
(g1
g2
(lp2091
Vfalling
p2092
atp2093
Rp2094
(dp2095
g12
VVBG
p2096
sbag0
(g1
g2
(lp2097
g0
(g1
g2
(lp2098
Vdown
p2099
atp2100
Rp2101
(dp2102
g12
VRB
p2103
sbatp2104
Rp2105
(dp2106
g12
VADVP
p2107
sbatp2108
Rp2109
(dp2110
g12
VVP
p2111
sbatp2112
Rp2113
(dp2114
g12
VVP
p2115
sbatp2116
Rp2117
(dp2118
g12
VVP
p2119
sbatp2120
Rp2121
(dp2122
g12
VS
p2123
sbatp2124
Rp2125
(dp2126
g12
VVP
p2127
sbatp2128
Rp2129
(dp2130
g12
VS
p2131
sbag0
(g1
g2
(lp2132
V.
p2133
atp2134
Rp2135
(dp2136
g12
V.
p2137
sbatp2138
Rp2139
(dp2140
g12
VS
p2141
sbatp2142
Rp2143
(dp2144
g12
S'id: 11'
p2145
sbag0
(g1
g2
(lp2146
g0
(g1
g2
(lp2147
g0
(g1
g2
(lp2148
g0
(g1
g2
(lp2149
VThat
p2150
atp2151
Rp2152
(dp2153
g12
VDT
p2154
sbag0
(g1
g2
(lp2155
Veverything
p2156
atp2157
Rp2158
(dp2159
g12
VNN
p2160
sbatp2161
Rp2162
(dp2163
g12
VNP
p2164
sbag0
(g1
g2
(lp2165
g0
(g1
g2
(lp2166
VI
p2167
atp2168
Rp2169
(dp2170
g12
VPRP
p2171
sbatp2172
Rp2173
(dp2174
g12
VNP
p2175
sbag0
(g1
g2
(lp2176
g0
(g1
g2
(lp2177
Vcan
p2178
atp2179
Rp2180
(dp2181
g12
VMD
p2182
sbag0
(g1
g2
(lp2183
g0
(g1
g2
(lp2184
Vsee
p2185
atp2186
Rp2187
(dp2188
g12
VVB
p2189
sbag0
(g1
g2
(lp2190
Vand
p2191
atp2192
Rp2193
(dp2194
g12
VCC
p2195
sbag0
(g1
g2
(lp2196
Vrecognize
p2197
atp2198
Rp2199
(dp2200
g12
VVB
p2201
sbatp2202
Rp2203
(dp2204
g12
VVP
p2205
sbatp2206
Rp2207
(dp2208
g12
VVP
p2209
sbag0
(g1
g2
(lp2210
V.
p2211
atp2212
Rp2213
(dp2214
g12
V.
p2215
sbatp2216
Rp2217
(dp2218
g12
VS
p2219
sbatp2220
Rp2221
(dp2222
g12
S'id: 12'
p2223
sbatp2224
Rp2225
(dp2226
g12
S'sentences'
p2227
sb.