ccopy_reg
_reconstructor
p0
(cnltk.tree
Tree
p1
c__builtin__
list
p2
(lp3
g0
(g1
g2
(lp4
g0
(g1
g2
(lp5
g0
(g1
g2
(lp6
g0
(g1
g2
(lp7
g0
(g1
g2
(lp8
g0
(g1
g2
(lp9
Vyes
p10
atp11
Rp12
(dp13
S'_label'
p14
VRB
p15
sbatp16
Rp17
(dp18
g14
VNP
p19
sbag0
(g1
g2
(lp20
V,
p21
atp22
Rp23
(dp24
g14
V,
p25
sbag0
(g1
g2
(lp26
g0
(g1
g2
(lp27
g0
(g1
g2
(lp28
Vhere
p29
atp30
Rp31
(dp32
g14
VRB
p33
sbatp34
Rp35
(dp36
g14
VNP
p37
sbag0
(g1
g2
(lp38
V,
p39
atp40
Rp41
(dp42
g14
V,
p43
sbag0
(g1
g2
(lp44
g0
(g1
g2
(lp45
Vhere
p46
atp47
Rp48
(dp49
g14
VRB
p50
sbatp51
Rp52
(dp53
g14
VADVP
p54
sbatp55
Rp56
(dp57
g14
VNP
p58
sbag0
(g1
g2
(lp59
V,
p60
atp61
Rp62
(dp63
g14
V,
p64
sbag0
(g1
g2
(lp65
Vand
p66
atp67
Rp68
(dp69
g14
VCC
p70
sbag0
(g1
g2
(lp71
g0
(g1
g2
(lp72
Vhere
p73
atp74
Rp75
(dp76
g14
VRB
p77
sbatp78
Rp79
(dp80
g14
VADVP
p81
sbatp82
Rp83
(dp84
g14
VNP
p85
sbag0
(g1
g2
(lp86
g0
(g1
g2
(lp87
V,
p88
atp89
Rp90
(dp91
g14
V,
p92
sbag0
(g1
g2
(lp93
Vand
p94
atp95
Rp96
(dp97
g14
VCC
p98
sbag0
(g1
g2
(lp99
g0
(g1
g2
(lp100
Vhere
p101
atp102
Rp103
(dp104
g14
VRB
p105
sbatp106
Rp107
(dp108
g14
VADVP
p109
sbatp110
Rp111
(dp112
g14
VPRN
p113
sbatp114
Rp115
(dp116
g14
VVP
p117
sbag0
(g1
g2
(lp118
V.
p119
atp120
Rp121
(dp122
g14
V.
p123
sbatp124
Rp125
(dp126
g14
VS
p127
sbatp128
Rp129
(dp130
g14
S'id: 0'
p131
sbag0
(g1
g2
(lp132
g0
(g1
g2
(lp133
g0
(g1
g2
(lp134
g0
(g1
g2
(lp135
Vthen
p136
atp137
Rp138
(dp139
g14
VRB
p140
sbag0
(g1
g2
(lp141
Vhere
p142
atp143
Rp144
(dp145
g14
VRB
p146
sbatp147
Rp148
(dp149
g14
VNP
p150
sbag0
(g1
g2
(lp151
V,
p152
atp153
Rp154
(dp155
g14
V,
p156
sbag0
(g1
g2
(lp157
g0
(g1
g2
(lp158
Vthere
p159
atp160
Rp161
(dp162
g14
VEX
p163
sbatp164
Rp165
(dp166
g14
VNP
p167
sbag0
(g1
g2
(lp168
V.
p169
atp170
Rp171
(dp172
g14
V.
p173
sbatp174
Rp175
(dp176
g14
VNP
p177
sbatp178
Rp179
(dp180
g14
S'id: 1'
p181
sbag0
(g1
g2
(lp182
g0
(g1
g2
(lp183
g0
(g1
g2
(lp184
g0
(g1
g2
(lp185
Vone
p186
atp187
Rp188
(dp189
g14
VCD
p190
sbatp191
Rp192
(dp193
g14
VNP-TMP
p194
sbag0
(g1
g2
(lp195
V,
p196
atp197
Rp198
(dp199
g14
V,
p200
sbag0
(g1
g2
(lp201
g0
(g1
g2
(lp202
Vtwo
p203
atp204
Rp205
(dp206
g14
VCD
p207
sbatp208
Rp209
(dp210
g14
VNP-TMP
p211
sbag0
(g1
g2
(lp212
V,
p213
atp214
Rp215
(dp216
g14
V,
p217
sbag0
(g1
g2
(lp218
g0
(g1
g2
(lp219
Vthree
p220
atp221
Rp222
(dp223
g14
VCD
p224
sbatp225
Rp226
(dp227
g14
VNP-TMP
p228
sbag0
(g1
g2
(lp229
V,
p230
atp231
Rp232
(dp233
g14
V,
p234
sbag0
(g1
g2
(lp235
g0
(g1
g2
(lp236
g0
(g1
g2
(lp237
Vfour
p238
atp239
Rp240
(dp241
g14
VCD
p242
sbatp243
Rp244
(dp245
g14
VNP
p246
sbag0
(g1
g2
(lp247
V,
p248
atp249
Rp250
(dp251
g14
V,
p252
sbag0
(g1
g2
(lp253
g0
(g1
g2
(lp254
Vfive
p255
atp256
Rp257
(dp258
g14
VCD
p259
sbatp260
Rp261
(dp262
g14
VNP
p263
sbag0
(g1
g2
(lp264
V,
p265
atp266
Rp267
(dp268
g14
V,
p269
sbag0
(g1
g2
(lp270
g0
(g1
g2
(lp271
Vfive
p272
atp273
Rp274
(dp275
g14
VCD
p276
sbag0
(g1
g2
(lp277
Vgol-golden
p278
atp279
Rp280
(dp281
g14
VJJ
p282
sbag0
(g1
g2
(lp283
Vrules
p284
atp285
Rp286
(dp287
g14
VNNS
p288
sbatp289
Rp290
(dp291
g14
VNP
p292
sbatp293
Rp294
(dp295
g14
VNP
p296
sbag0
(g1
g2
(lp297
V.
p298
atp299
Rp300
(dp301
g14
V.
p302
sbatp303
Rp304
(dp305
g14
VFRAG
p306
sbatp307
Rp308
(dp309
g14
S'id: 2'
p310
sbag0
(g1
g2
(lp311
g0
(g1
g2
(lp312
g0
(g1
g2
(lp313
g0
(g1
g2
(lp314
g0
(g1
g2
(lp315
g0
(g1
g2
(lp316
Vthen
p317
atp318
Rp319
(dp320
g14
VRB
p321
sbatp322
Rp323
(dp324
g14
VADVP
p325
sbag0
(g1
g2
(lp326
V,
p327
atp328
Rp329
(dp330
g14
V,
p331
sbag0
(g1
g2
(lp332
Vand
p333
atp334
Rp335
(dp336
g14
VCC
p337
sbag0
(g1
g2
(lp338
g0
(g1
g2
(lp339
Vthere
p340
atp341
Rp342
(dp343
g14
VRB
p344
sbatp345
Rp346
(dp347
g14
VADVP
p348
sbatp349
Rp350
(dp351
g14
VADVP
p352
sbatp353
Rp354
(dp355
g14
VVP
p356
sbag0
(g1
g2
(lp357
V.
p358
atp359
Rp360
(dp361
g14
V.
p362
sbatp363
Rp364
(dp365
g14
VS
p366
sbatp367
Rp368
(dp369
g14
S'id: 3'
p370
sbag0
(g1
g2
(lp371
g0
(g1
g2
(lp372
g0
(g1
g2
(lp373
g0
(g1
g2
(lp374
VI
p375
atp376
Rp377
(dp378
g14
VPRP
p379
sbatp380
Rp381
(dp382
g14
VNP
p383
sbag0
(g1
g2
(lp384
g0
(g1
g2
(lp385
Vdo
p386
atp387
Rp388
(dp389
g14
VVBP
p390
sbag0
(g1
g2
(lp391
Vn't
p392
atp393
Rp394
(dp395
g14
VRB
p396
sbag0
(g1
g2
(lp397
g0
(g1
g2
(lp398
Vknow
p399
atp400
Rp401
(dp402
g14
VVB
p403
sbatp404
Rp405
(dp406
g14
VVP
p407
sbatp408
Rp409
(dp410
g14
VVP
p411
sbag0
(g1
g2
(lp412
V.
p413
atp414
Rp415
(dp416
g14
V.
p417
sbatp418
Rp419
(dp420
g14
VS
p421
sbatp422
Rp423
(dp424
g14
S'id: 4'
p425
sbatp426
Rp427
(dp428
g14
S'sentences'
p429
sb.