ccopy_reg
_reconstructor
p0
(cnltk.tree
Tree
p1
c__builtin__
list
p2
(lp3
g0
(g1
g2
(lp4
g0
(g1
g2
(lp5
g0
(g1
g2
(lp6
g0
(g1
g2
(lp7
g0
(g1
g2
(lp8
(lp9
S'word: ok, index: 1'
p10
aatp11
Rp12
(dp13
S'_label'
p14
Vnsubj
p15
sbag0
(g1
g2
(lp16
g0
(g1
g2
(lp17
g0
(g1
g2
(lp18
(lp19
S'word: a, index: 3'
p20
aatp21
Rp22
(dp23
g14
Vdet
p24
sbag0
(g1
g2
(lp25
(lp26
S'word: high, index: 4'
p27
aatp28
Rp29
(dp30
g14
Vamod
p31
sbatp32
Rp33
(dp34
g14
S'word: wire, index: 5'
p35
sbatp36
Rp37
(dp38
g14
Vdobj
p39
sbatp40
Rp41
(dp42
g14
S'word: got, index: 2'
p43
sbatp44
Rp45
(dp46
g14
Vccomp
p47
sbag0
(g1
g2
(lp48
(lp49
S'word: you, index: 7'
p50
aatp51
Rp52
(dp53
g14
Vnsubj
p54
sbag0
(g1
g2
(lp55
g0
(g1
g2
(lp56
g0
(g1
g2
(lp57
(lp58
S'word: a, index: 9'
p59
aatp60
Rp61
(dp62
g14
Vdet
p63
sbag0
(g1
g2
(lp64
g0
(g1
g2
(lp65
g0
(g1
g2
(lp66
g0
(g1
g2
(lp67
g0
(g1
g2
(lp68
(lp69
S'word: the, index: 12'
p70
aatp71
Rp72
(dp73
g14
Vdet
p74
sbag0
(g1
g2
(lp75
g0
(g1
g2
(lp76
g0
(g1
g2
(lp77
g0
(g1
g2
(lp78
g0
(g1
g2
(lp79
g0
(g1
g2
(lp80
g0
(g1
g2
(lp81
(lp82
S'word: the, index: 18'
p83
aatp84
Rp85
(dp86
g14
Vdet
p87
sbatp88
Rp89
(dp90
g14
S'word: cage, index: 19'
p91
sbatp92
Rp93
(dp94
g14
Vprep
p95
sbatp96
Rp97
(dp98
g14
S'word: tricks, index: 16'
p99
sbatp100
Rp101
(dp102
g14
Vdobj
p103
sbag0
(g1
g2
(lp104
(lp105
S'word: to, index: 14'
p106
aatp107
Rp108
(dp109
g14
Vaux
p110
sbatp111
Rp112
(dp113
g14
S'word: do, index: 15'
p114
sbatp115
Rp116
(dp117
g14
Vvmod
p118
sbatp119
Rp120
(dp121
g14
S'word: lion, index: 13'
p122
sbatp123
Rp124
(dp125
g14
Vdobj
p126
sbatp127
Rp128
(dp129
g14
S'word: teaching, index: 11'
p130
sbatp131
Rp132
(dp133
g14
Vvmod
p134
sbatp135
Rp136
(dp137
g14
S'word: man, index: 10'
p138
sbatp139
Rp140
(dp141
g14
Vdobj
p142
sbatp143
Rp144
(dp145
g14
S'word: got, index: 8'
p146
sbatp147
Rp148
(dp149
g14
S'id: 0'
p150
sbag0
(g1
g2
(lp151
g0
(g1
g2
(lp152
g0
(g1
g2
(lp153
g0
(g1
g2
(lp154
g0
(g1
g2
(lp155
(lp156
S'word: a, index: 3'
p157
aatp158
Rp159
(dp160
g14
Vdet
p161
sbag0
(g1
g2
(lp162
(lp163
S'word: people, index: 6'
p164
aatp165
Rp166
(dp167
g14
Vprep
p168
sbatp169
Rp170
(dp171
g14
S'word: number, index: 4'
p172
sbatp173
Rp174
(dp175
g14
Vdobj
p176
sbag0
(g1
g2
(lp177
g0
(g1
g2
(lp178
g0
(g1
g2
(lp179
g0
(g1
g2
(lp180
g0
(g1
g2
(lp181
(lp182
S'word: up, index: 28'
p183
aatp184
Rp185
(dp186
g14
Vprt
p187
sbatp188
Rp189
(dp190
g14
S'word: standing, index: 27'
p191
sbatp192
Rp193
(dp194
g14
Vconj
p195
sbag0
(g1
g2
(lp196
g0
(g1
g2
(lp197
g0
(g1
g2
(lp198
(lp199
S'word: the, index: 10'
p200
aatp201
Rp202
(dp203
g14
Vdet
p204
sbag0
(g1
g2
(lp205
(lp206
S'word: different, index: 11'
p207
aatp208
Rp209
(dp210
g14
Vamod
p211
sbag0
(g1
g2
(lp212
g0
(g1
g2
(lp213
g0
(g1
g2
(lp214
g0
(g1
g2
(lp215
g0
(g1
g2
(lp216
g0
(g1
g2
(lp217
g0
(g1
g2
(lp218
(lp219
S'word: the, index: 18'
p220
aatp221
Rp222
(dp223
g14
Vdet
p224
sbatp225
Rp226
(dp227
g14
S'word: girl, index: 19'
p228
sbatp229
Rp230
(dp231
g14
Vnsubj
p232
sbag0
(g1
g2
(lp233
(lp234
S'word: is, index: 20'
p235
aatp236
Rp237
(dp238
g14
Vaux
p239
sbag0
(g1
g2
(lp240
g0
(g1
g2
(lp241
g0
(g1
g2
(lp242
(lp243
S'word: the, index: 23'
p244
aatp245
Rp246
(dp247
g14
Vdet
p248
sbatp249
Rp250
(dp251
g14
S'word: horse, index: 24'
p252
sbatp253
Rp254
(dp255
g14
Vprep
p256
sbag0
(g1
g2
(lp257
(lp258
S'word: where, index: 17'
p259
aatp260
Rp261
(dp262
g14
Vadvmod
p263
sbatp264
Rp265
(dp266
g14
S'word: riding, index: 21'
p267
sbatp268
Rp269
(dp270
g14
Vrcmod
p271
sbag0
(g1
g2
(lp272
(lp273
S'word: the, index: 14'
p274
aatp275
Rp276
(dp277
g14
Vdet
p278
sbatp279
Rp280
(dp281
g14
S'word: ring, index: 15'
p282
sbatp283
Rp284
(dp285
g14
Vprep
p286
sbatp287
Rp288
(dp289
g14
S'word: ones, index: 12'
p290
sbatp291
Rp292
(dp293
g14
Vprep
p294
sbag0
(g1
g2
(lp295
g0
(g1
g2
(lp296
g0
(g1
g2
(lp297
(lp298
S'word: down, index: 32'
p299
aatp300
Rp301
(dp302
g14
Vprt
p303
sbag0
(g1
g2
(lp304
g0
(g1
g2
(lp305
g0
(g1
g2
(lp306
(lp307
S'word: sort, index: 35'
p308
aatp309
Rp310
(dp311
g14
Vdep
p312
sbag0
(g1
g2
(lp313
(lp314
S'word: thing, index: 37'
p315
aatp316
Rp317
(dp318
g14
Vprep
p319
sbatp320
Rp321
(dp322
g14
S'word: that, index: 34'
p323
sbatp324
Rp325
(dp326
g14
Vadvmod
p327
sbatp328
Rp329
(dp330
g14
S'word: sitting, index: 31'
p331
sbatp332
Rp333
(dp334
g14
Vconj
p335
sbatp336
Rp337
(dp338
g14
S'word: looking, index: 8'
p339
sbatp340
Rp341
(dp342
g14
Vprepc
p343
sbag0
(g1
g2
(lp344
g189
atp345
Rp346
(dp347
g14
Vprepc
p348
sbag0
(g1
g2
(lp349
g329
atp350
Rp351
(dp352
g14
Vprepc
p353
sbag0
(g1
g2
(lp354
(lp355
S'word: You, index: 1'
p356
aatp357
Rp358
(dp359
g14
Vnsubj
p360
sbatp361
Rp362
(dp363
g14
S'word: got, index: 2'
p364
sbatp365
Rp366
(dp367
g14
S'id: 1'
p368
sbag0
(g1
g2
(lp369
g0
(g1
g2
(lp370
g0
(g1
g2
(lp371
g0
(g1
g2
(lp372
g0
(g1
g2
(lp373
(lp374
S'word: that, index: 6'
p375
aatp376
Rp377
(dp378
g14
Vnsubj
p379
sbag0
(g1
g2
(lp380
g0
(g1
g2
(lp381
g0
(g1
g2
(lp382
(lp383
S'word: his, index: 8'
p384
aatp385
Rp386
(dp387
g14
Vposs
p388
sbag0
(g1
g2
(lp389
(lp390
S'word: little, index: 9'
p391
aatp392
Rp393
(dp394
g14
Vamod
p395
sbag0
(g1
g2
(lp396
(lp397
S'word: things, index: 12'
p398
aatp399
Rp400
(dp401
g14
Vprep
p402
sbatp403
Rp404
(dp405
g14
S'word: jar, index: 10'
p406
sbatp407
Rp408
(dp409
g14
Vdobj
p410
sbag0
(g1
g2
(lp411
g0
(g1
g2
(lp412
g0
(g1
g2
(lp413
(lp414
S'word: a, index: 3'
p415
aatp416
Rp417
(dp418
g14
Vdet
p419
sbatp420
Rp421
(dp422
g14
S'word: clown, index: 4'
p423
sbatp424
Rp425
(dp426
g14
Vnsubj
p427
sbag0
(g1
g2
(lp428
(lp429
S'word: there, index: 5'
p430
aatp431
Rp432
(dp433
g14
Vexpl
p434
sbatp435
Rp436
(dp437
g14
S'word: has, index: 7'
p438
sbatp439
Rp440
(dp441
g14
Vxcomp
p442
sbag0
(g1
g2
(lp443
g0
(g1
g2
(lp444
g0
(g1
g2
(lp445
g0
(g1
g2
(lp446
g0
(g1
g2
(lp447
(lp448
S'word: whatever, index: 22'
p449
aatp450
Rp451
(dp452
g14
Vnsubj
p453
sbag0
(g1
g2
(lp454
(lp455
S'word: out, index: 25'
p456
aatp457
Rp458
(dp459
g14
Vprt
p460
sbatp461
Rp462
(dp463
g14
S'word: comes, index: 24'
p464
sbatp465
Rp466
(dp467
g14
Vdobj
p468
sbag0
(g1
g2
(lp469
(lp470
S'word: he, index: 15'
p471
aatp472
Rp473
(dp474
g14
Vnsubj
p475
sbag0
(g1
g2
(lp476
g0
(g1
g2
(lp477
g0
(g1
g2
(lp478
g462
atp479
Rp480
(dp481
g14
Vconj
p482
sbag0
(g1
g2
(lp483
(lp484
S'word: confetti, index: 19'
p485
aatp486
Rp487
(dp488
g14
Vconj
p489
sbatp490
Rp491
(dp492
g14
S'word: it, index: 17'
p493
sbatp494
Rp495
(dp496
g14
Vdobj
p497
sbag0
(g1
g2
(lp498
(lp499
S'word: confetti, index: 19'
p500
aatp501
Rp502
(dp503
g14
Vdobj
p504
sbatp505
Rp506
(dp507
g14
S'word: opens, index: 16'
p508
sbatp509
Rp510
(dp511
g14
Vconj
p512
sbag0
(g1
g2
(lp513
(lp514
S'word: You, index: 1'
p515
aatp516
Rp517
(dp518
g14
Vnsubj
p519
sbatp520
Rp521
(dp522
g14
S'word: got, index: 2'
p523
sbatp524
Rp525
(dp526
g14
S'id: 2'
p527
sbag0
(g1
g2
(lp528
g0
(g1
g2
(lp529
g0
(g1
g2
(lp530
g0
(g1
g2
(lp531
g0
(g1
g2
(lp532
(lp533
S'word: be, index: 10'
p534
aatp535
Rp536
(dp537
g14
Vcop
p538
sbag0
(g1
g2
(lp539
g0
(g1
g2
(lp540
g0
(g1
g2
(lp541
(lp542
S'word: the, index: 13'
p543
aatp544
Rp545
(dp546
g14
Vdet
p547
sbatp548
Rp549
(dp550
g14
S'word: circus, index: 14'
p551
sbatp552
Rp553
(dp554
g14
Vprep
p555
sbatp556
Rp557
(dp558
g14
S'word: happy, index: 11'
p559
sbatp560
Rp561
(dp562
g14
Vxcomp
p563
sbag0
(g1
g2
(lp564
(lp565
S'word: And, index: 1'
p566
aatp567
Rp568
(dp569
g14
Vcc
p570
sbag0
(g1
g2
(lp571
g0
(g1
g2
(lp572
g0
(g1
g2
(lp573
(lp574
S'word: all, index: 2'
p575
aatp576
Rp577
(dp578
g14
Vpredet
p579
sbag0
(g1
g2
(lp580
(lp581
S'word: the, index: 3'
p582
aatp583
Rp584
(dp585
g14
Vdet
p586
sbatp587
Rp588
(dp589
g14
S'word: kids, index: 4'
p590
sbatp591
Rp592
(dp593
g14
Vnsubj
p594
sbag0
(g1
g2
(lp595
(lp596
S'word: are, index: 5'
p597
aatp598
Rp599
(dp600
g14
Vaux
p601
sbag0
(g1
g2
(lp602
g0
(g1
g2
(lp603
g0
(g1
g2
(lp604
g557
atp605
Rp606
(dp607
g14
Vconj
p608
sbag0
(g1
g2
(lp609
(lp610
S'word: to, index: 7'
p611
aatp612
Rp613
(dp614
g14
Vaux
p615
sbatp616
Rp617
(dp618
g14
S'word: smile, index: 8'
p619
sbatp620
Rp621
(dp622
g14
Vxcomp
p623
sbatp624
Rp625
(dp626
g14
S'word: wanting, index: 6'
p627
sbatp628
Rp629
(dp630
g14
S'id: 3'
p631
sbag0
(g1
g2
(lp632
g0
(g1
g2
(lp633
g0
(g1
g2
(lp634
(lp635
S'word: they, index: 31'
p636
aatp637
Rp638
(dp639
g14
Vnsubj
p640
sbag0
(g1
g2
(lp641
(lp642
S"word: 've, index: 32"
p643
aatp644
Rp645
(dp646
g14
Vaux
p647
sbag0
(g1
g2
(lp648
(lp649
S'word: always, index: 33'
p650
aatp651
Rp652
(dp653
g14
Vadvmod
p654
sbag0
(g1
g2
(lp655
g0
(g1
g2
(lp656
g0
(g1
g2
(lp657
g0
(g1
g2
(lp658
g0
(g1
g2
(lp659
g0
(g1
g2
(lp660
g0
(g1
g2
(lp661
g0
(g1
g2
(lp662
g0
(g1
g2
(lp663
(lp664
S'word: the, index: 14'
p665
aatp666
Rp667
(dp668
g14
Vdet
p669
sbatp670
Rp671
(dp672
g14
S'word: lion, index: 15'
p673
sbatp674
Rp675
(dp676
g14
Vpobj
p677
sbatp678
Rp679
(dp680
g14
S'word: with, index: 13'
p681
sbatp682
Rp683
(dp684
g14
Vpcomp
p685
sbatp686
Rp687
(dp688
g14
S'word: inside, index: 12'
p689
sbatp690
Rp691
(dp692
g14
Vprep
p693
sbag0
(g1
g2
(lp694
(lp695
S'word: You, index: 1'
p696
aatp697
Rp698
(dp699
g14
Vnsubj
p700
sbag0
(g1
g2
(lp701
g0
(g1
g2
(lp702
g0
(g1
g2
(lp703
(lp704
S'word: the, index: 3'
p705
aatp706
Rp707
(dp708
g14
Vdet
p709
sbatp710
Rp711
(dp712
g14
S'word: guy, index: 4'
p713
sbatp714
Rp715
(dp716
g14
Vdobj
p717
sbag0
(g1
g2
(lp718
(lp719
S'word: here, index: 5'
p720
aatp721
Rp722
(dp723
g14
Vadvmod
p724
sbag0
(g1
g2
(lp725
g0
(g1
g2
(lp726
g0
(g1
g2
(lp727
(lp728
S'word: I, index: 18'
p729
aatp730
Rp731
(dp732
g14
Vnsubj
p733
sbag0
(g1
g2
(lp734
(lp735
S"word: 've, index: 19"
p736
aatp737
Rp738
(dp739
g14
Vaux
p740
sbag0
(g1
g2
(lp741
(lp742
S'word: never, index: 20'
p743
aatp744
Rp745
(dp746
g14
Vneg
p747
sbag0
(g1
g2
(lp748
g0
(g1
g2
(lp749
g0
(g1
g2
(lp750
g0
(g1
g2
(lp751
g0
(g1
g2
(lp752
(lp753
S'word: a, index: 22'
p754
aatp755
Rp756
(dp757
g14
Vdet
p758
sbatp759
Rp760
(dp761
g14
S'word: lion, index: 23'
p762
sbatp763
Rp764
(dp765
g14
Vnsubj
p766
sbag0
(g1
g2
(lp767
g0
(g1
g2
(lp768
g0
(g1
g2
(lp769
(lp770
S'word: that, index: 29'
p771
aatp772
Rp773
(dp774
g14
Vprep
p775
sbag0
(g1
g2
(lp776
(lp777
S'word: his, index: 26'
p778
aatp779
Rp780
(dp781
g14
Vposs
p782
sbatp783
Rp784
(dp785
g14
S'word: crouch, index: 27'
p786
sbatp787
Rp788
(dp789
g14
Vprep
p790
sbatp791
Rp792
(dp793
g14
S'word: sit, index: 24'
p794
sbatp795
Rp796
(dp797
g14
Vccomp
p798
sbatp799
Rp800
(dp801
g14
S'word: seen, index: 21'
p802
sbatp803
Rp804
(dp805
g14
Vconj
p806
sbag0
(g1
g2
(lp807
g0
(g1
g2
(lp808
g0
(g1
g2
(lp809
(lp810
S'word: his, index: 7'
p811
aatp812
Rp813
(dp814
g14
Vposs
p815
sbag0
(g1
g2
(lp816
g0
(g1
g2
(lp817
g0
(g1
g2
(lp818
(lp819
S'word: top, index: 10'
p820
aatp821
Rp822
(dp823
g14
Vamod
p824
sbatp825
Rp826
(dp827
g14
S'word: hat, index: 11'
p828
sbatp829
Rp830
(dp831
g14
Vconj
p832
sbatp833
Rp834
(dp835
g14
S'word: tools, index: 8'
p836
sbatp837
Rp838
(dp839
g14
Vprep
p840
sbag0
(g1
g2
(lp841
g826
atp842
Rp843
(dp844
g14
Vprep
p845
sbatp846
Rp847
(dp848
g14
S'word: got, index: 2'
p849
sbatp850
Rp851
(dp852
g14
Vccomp
p853
sbag0
(g1
g2
(lp854
g800
atp855
Rp856
(dp857
g14
Vccomp
p858
sbag0
(g1
g2
(lp859
g0
(g1
g2
(lp860
g0
(g1
g2
(lp861
(lp862
S'word: the, index: 35'
p863
aatp864
Rp865
(dp866
g14
Vdet
p867
sbag0
(g1
g2
(lp868
(lp869
S'word: four, index: 36'
p870
aatp871
Rp872
(dp873
g14
Vnum
p874
sbatp875
Rp876
(dp877
g14
S'word: feet, index: 37'
p878
sbatp879
Rp880
(dp881
g14
Vdobj
p882
sbatp883
Rp884
(dp885
g14
S'word: had, index: 34'
p886
sbatp887
Rp888
(dp889
g14
S'id: 4'
p890
sbag0
(g1
g2
(lp891
g0
(g1
g2
(lp892
g0
(g1
g2
(lp893
(lp894
S'word: I, index: 1'
p895
aatp896
Rp897
(dp898
g14
Vnsubj
p899
sbag0
(g1
g2
(lp900
(lp901
S"word: 've, index: 2"
p902
aatp903
Rp904
(dp905
g14
Vaux
p906
sbag0
(g1
g2
(lp907
(lp908
S'word: them, index: 4'
p909
aatp910
Rp911
(dp912
g14
Vdobj
p913
sbag0
(g1
g2
(lp914
g0
(g1
g2
(lp915
g0
(g1
g2
(lp916
(lp917
S'word: when, index: 5'
p918
aatp919
Rp920
(dp921
g14
Vadvmod
p922
sbag0
(g1
g2
(lp923
(lp924
S'word: they, index: 6'
p925
aatp926
Rp927
(dp928
g14
Vnsubj
p929
sbag0
(g1
g2
(lp930
(lp931
S'word: like, index: 8'
p932
aatp933
Rp934
(dp935
g14
Vprep
p936
sbag0
(g1
g2
(lp937
g0
(g1
g2
(lp938
g0
(g1
g2
(lp939
g0
(g1
g2
(lp940
g0
(g1
g2
(lp941
(lp942
S'word: defensive, index: 18'
p943
aatp944
Rp945
(dp946
g14
Vconj
p947
sbatp948
Rp949
(dp950
g14
S'word: attack, index: 16'
p951
sbatp952
Rp953
(dp954
g14
Vprep
p955
sbag0
(g1
g2
(lp956
(lp957
S'word: defensive, index: 18'
p958
aatp959
Rp960
(dp961
g14
Vprep
p962
sbag0
(g1
g2
(lp963
(lp964
S'word: that, index: 9'
p965
aatp966
Rp967
(dp968
g14
Vmark
p969
sbag0
(g1
g2
(lp970
(lp971
S'word: only, index: 10'
p972
aatp973
Rp974
(dp975
g14
Vadvmod
p976
sbag0
(g1
g2
(lp977
(lp978
S'word: if, index: 11'
p979
aatp980
Rp981
(dp982
g14
Vmark
p983
sbag0
(g1
g2
(lp984
(lp985
S'word: they, index: 12'
p986
aatp987
Rp988
(dp989
g14
Vnsubj
p990
sbag0
(g1
g2
(lp991
(lp992
S"word: 're, index: 13"
p993
aatp994
Rp995
(dp996
g14
Vaux
p997
sbatp998
Rp999
(dp1000
g14
S'word: looking, index: 14'
p1001
sbatp1002
Rp1003
(dp1004
g14
Vadvcl
p1005
sbatp1006
Rp1007
(dp1008
g14
S"word: 're, index: 7"
p1009
sbatp1010
Rp1011
(dp1012
g14
Vadvcl
p1013
sbatp1014
Rp1015
(dp1016
g14
S'word: seen, index: 3'
p1017
sbatp1018
Rp1019
(dp1020
g14
S'id: 5'
p1021
sbag0
(g1
g2
(lp1022
g0
(g1
g2
(lp1023
g0
(g1
g2
(lp1024
g0
(g1
g2
(lp1025
g0
(g1
g2
(lp1026
(lp1027
S'word: does, index: 2'
p1028
aatp1029
Rp1030
(dp1031
g14
Vaux
p1032
sbag0
(g1
g2
(lp1033
(lp1034
S'word: not, index: 3'
p1035
aatp1036
Rp1037
(dp1038
g14
Vneg
p1039
sbag0
(g1
g2
(lp1040
g0
(g1
g2
(lp1041
g0
(g1
g2
(lp1042
(lp1043
S'word: like, index: 5'
p1044
aatp1045
Rp1046
(dp1047
g14
Vmark
p1048
sbag0
(g1
g2
(lp1049
(lp1050
S'word: it, index: 6'
p1051
aatp1052
Rp1053
(dp1054
g14
Vnsubj
p1055
sbag0
(g1
g2
(lp1056
(lp1057
S'word: indoors, index: 8'
p1058
aatp1059
Rp1060
(dp1061
g14
Vadvmod
p1062
sbatp1063
Rp1064
(dp1065
g14
S"word: 's, index: 7"
p1066
sbatp1067
Rp1068
(dp1069
g14
Vadvcl
p1070
sbag0
(g1
g2
(lp1071
(lp1072
S'word: It, index: 1'
p1073
aatp1074
Rp1075
(dp1076
g14
Vnsubj
p1077
sbatp1078
Rp1079
(dp1080
g14
S'word: look, index: 4'
p1081
sbatp1082
Rp1083
(dp1084
g14
Vccomp
p1085
sbag0
(g1
g2
(lp1086
g0
(g1
g2
(lp1087
g0
(g1
g2
(lp1088
(lp1089
S'word: the, index: 19'
p1090
aatp1091
Rp1092
(dp1093
g14
Vdet
p1094
sbatp1095
Rp1096
(dp1097
g14
S'word: trees, index: 20'
p1098
sbatp1099
Rp1100
(dp1101
g14
Vprep
p1102
sbag0
(g1
g2
(lp1103
g0
(g1
g2
(lp1104
g0
(g1
g2
(lp1105
g0
(g1
g2
(lp1106
g0
(g1
g2
(lp1107
(lp1108
S'word: the, index: 25'
p1109
aatp1110
Rp1111
(dp1112
g14
Vdet
p1113
sbatp1114
Rp1115
(dp1116
g14
S'word: background, index: 26'
p1117
sbatp1118
Rp1119
(dp1120
g14
Vprep
p1121
sbatp1122
Rp1123
(dp1124
g14
S'word: everything, index: 23'
p1125
sbatp1126
Rp1127
(dp1128
g14
Vprep
p1129
sbag0
(g1
g2
(lp1130
(lp1131
S'word: it, index: 10'
p1132
aatp1133
Rp1134
(dp1135
g14
Vnsubj
p1136
sbag0
(g1
g2
(lp1137
(lp1138
S'word: outdoors, index: 12'
p1139
aatp1140
Rp1141
(dp1142
g14
Vadvmod
p1143
sbag0
(g1
g2
(lp1144
(lp1145
S'word: here, index: 13'
p1146
aatp1147
Rp1148
(dp1149
g14
Vadvmod
p1150
sbag0
(g1
g2
(lp1151
g0
(g1
g2
(lp1152
g0
(g1
g2
(lp1153
g1096
atp1154
Rp1155
(dp1156
g14
Vconj
p1157
sbag0
(g1
g2
(lp1158
g1123
atp1159
Rp1160
(dp1161
g14
Vconj
p1162
sbag0
(g1
g2
(lp1163
(lp1164
S'word: the, index: 15'
p1165
aatp1166
Rp1167
(dp1168
g14
Vdet
p1169
sbag0
(g1
g2
(lp1170
(lp1171
S'word: growing, index: 17'
p1172
aatp1173
Rp1174
(dp1175
g14
Vamod
p1176
sbatp1177
Rp1178
(dp1179
g14
S'word: grass, index: 16'
p1180
sbatp1181
Rp1182
(dp1183
g14
Vprep
p1184
sbatp1185
Rp1186
(dp1187
g14
S"word: 's, index: 11"
p1188
sbatp1189
Rp1190
(dp1191
g14
S'id: 6'
p1192
sbag0
(g1
g2
(lp1193
g0
(g1
g2
(lp1194
g0
(g1
g2
(lp1195
(lp1196
S'word: is, index: 7'
p1197
aatp1198
Rp1199
(dp1200
g14
Vcop
p1201
sbag0
(g1
g2
(lp1202
(lp1203
S'word: so, index: 10'
p1204
aatp1205
Rp1206
(dp1207
g14
Vdep
p1208
sbag0
(g1
g2
(lp1209
g0
(g1
g2
(lp1210
g0
(g1
g2
(lp1211
g0
(g1
g2
(lp1212
g0
(g1
g2
(lp1213
(lp1214
S'word: being, index: 21'
p1215
aatp1216
Rp1217
(dp1218
g14
Vauxpass
p1219
sbag0
(g1
g2
(lp1220
(lp1221
S'word: taught, index: 23'
p1222
aatp1223
Rp1224
(dp1225
g14
Vdep
p1226
sbatp1227
Rp1228
(dp1229
g14
S'word: pulled, index: 22'
p1230
sbatp1231
Rp1232
(dp1233
g14
Vprepc
p1234
sbag0
(g1
g2
(lp1235
(lp1236
S'word: it, index: 11'
p1237
aatp1238
Rp1239
(dp1240
g14
Vnsubjpass
p1241
sbag0
(g1
g2
(lp1242
(lp1243
S"word: 's, index: 12"
p1244
aatp1245
Rp1246
(dp1247
g14
Vauxpass
p1248
sbag0
(g1
g2
(lp1249
g0
(g1
g2
(lp1250
g0
(g1
g2
(lp1251
(lp1252
S'word: a, index: 14'
p1253
aatp1254
Rp1255
(dp1256
g14
Vdet
p1257
sbatp1258
Rp1259
(dp1260
g14
S'word: sag, index: 15'
p1261
sbatp1262
Rp1263
(dp1264
g14
Vdobj
p1265
sbag0
(g1
g2
(lp1266
(lp1267
S'word: it, index: 17'
p1268
aatp1269
Rp1270
(dp1271
g14
Vprep
p1272
sbag0
(g1
g2
(lp1273
(lp1274
S'word: rather, index: 19'
p1275
aatp1276
Rp1277
(dp1278
g14
Vdep
p1279
sbatp1280
Rp1281
(dp1282
g14
S'word: got, index: 13'
p1283
sbatp1284
Rp1285
(dp1286
g14
Vparataxis
p1287
sbag0
(g1
g2
(lp1288
g0
(g1
g2
(lp1289
g0
(g1
g2
(lp1290
g0
(g1
g2
(lp1291
g0
(g1
g2
(lp1292
(lp1293
S'word: are, index: 5'
p1294
aatp1295
Rp1296
(dp1297
g14
Vaux
p1298
sbag0
(g1
g2
(lp1299
(lp1300
S'word: that, index: 3'
p1301
aatp1302
Rp1303
(dp1304
g14
Vmark
p1305
sbag0
(g1
g2
(lp1306
(lp1307
S'word: they, index: 4'
p1308
aatp1309
Rp1310
(dp1311
g14
Vnsubj
p1312
sbatp1313
Rp1314
(dp1315
g14
S'word: doing, index: 6'
p1316
sbatp1317
Rp1318
(dp1319
g14
Vdep
p1320
sbag0
(g1
g2
(lp1321
(lp1322
S'word: The, index: 1'
p1323
aatp1324
Rp1325
(dp1326
g14
Vdet
p1327
sbatp1328
Rp1329
(dp1330
g14
S'word: rope, index: 2'
p1331
sbatp1332
Rp1333
(dp1334
g14
Vnsubj
p1335
sbatp1336
Rp1337
(dp1338
g14
S'word: loose, index: 8'
p1339
sbatp1340
Rp1341
(dp1342
g14
S'id: 7'
p1343
sbag0
(g1
g2
(lp1344
g0
(g1
g2
(lp1345
g0
(g1
g2
(lp1346
g0
(g1
g2
(lp1347
g0
(g1
g2
(lp1348
(lp1349
S'word: Little, index: 1'
p1350
aatp1351
Rp1352
(dp1353
g14
Vamod
p1354
sbatp1355
Rp1356
(dp1357
g14
S'word: girls, index: 2'
p1358
sbatp1359
Rp1360
(dp1361
g14
Vnsubj
p1362
sbag0
(g1
g2
(lp1363
g0
(g1
g2
(lp1364
g0
(g1
g2
(lp1365
g0
(g1
g2
(lp1366
g0
(g1
g2
(lp1367
(lp1368
S'word: her, index: 9'
p1369
aatp1370
Rp1371
(dp1372
g14
Vposs
p1373
sbatp1374
Rp1375
(dp1376
g14
S'word: hair, index: 10'
p1377
sbatp1378
Rp1379
(dp1380
g14
Vprep
p1381
sbag0
(g1
g2
(lp1382
(lp1383
S'word: ribbons, index: 6'
p1384
aatp1385
Rp1386
(dp1387
g14
Vappos
p1388
sbatp1389
Rp1390
(dp1391
g14
S'word: bows, index: 4'
p1392
sbatp1393
Rp1394
(dp1395
g14
Vdobj
p1396
sbatp1397
Rp1398
(dp1399
g14
S'word: got, index: 3'
p1400
sbatp1401
Rp1402
(dp1403
g14
S'id: 8'
p1404
sbag0
(g1
g2
(lp1405
g0
(g1
g2
(lp1406
g0
(g1
g2
(lp1407
g0
(g1
g2
(lp1408
g0
(g1
g2
(lp1409
(lp1410
S'word: here, index: 2'
p1411
aatp1412
Rp1413
(dp1414
g14
Vpobj
p1415
sbatp1416
Rp1417
(dp1418
g14
S'word: Over, index: 1'
p1419
sbatp1420
Rp1421
(dp1422
g14
Vprep
p1423
sbag0
(g1
g2
(lp1424
g0
(g1
g2
(lp1425
g0
(g1
g2
(lp1426
(lp1427
S'word: this, index: 3'
p1428
aatp1429
Rp1430
(dp1431
g14
Vdet
p1432
sbatp1433
Rp1434
(dp1435
g14
S'word: one, index: 4'
p1436
sbatp1437
Rp1438
(dp1439
g14
Vnsubj
p1440
sbag0
(g1
g2
(lp1441
g0
(g1
g2
(lp1442
g0
(g1
g2
(lp1443
g0
(g1
g2
(lp1444
g0
(g1
g2
(lp1445
(lp1446
S'word: little, index: 11'
p1447
aatp1448
Rp1449
(dp1450
g14
Vamod
p1451
sbag0
(g1
g2
(lp1452
(lp1453
S'word: a, index: 10'
p1454
aatp1455
Rp1456
(dp1457
g14
Vdet
p1458
sbatp1459
Rp1460
(dp1461
g14
S'word: bun, index: 12'
p1462
sbatp1463
Rp1464
(dp1465
g14
Vprep
p1466
sbag0
(g1
g2
(lp1467
g0
(g1
g2
(lp1468
g0
(g1
g2
(lp1469
g0
(g1
g2
(lp1470
g0
(g1
g2
(lp1471
(lp1472
S'word: the, index: 16'
p1473
aatp1474
Rp1475
(dp1476
g14
Vdet
p1477
sbatp1478
Rp1479
(dp1480
g14
S'word: backside, index: 17'
p1481
sbatp1482
Rp1483
(dp1484
g14
Vprep
p1485
sbag0
(g1
g2
(lp1486
(lp1487
S'word: there, index: 18'
p1488
aatp1489
Rp1490
(dp1491
g14
Vadvmod
p1492
sbatp1493
Rp1494
(dp1495
g14
S'word: back, index: 14'
p1496
sbatp1497
Rp1498
(dp1499
g14
Vadvmod
p1500
sbag0
(g1
g2
(lp1501
(lp1502
S'word: it, index: 6'
p1503
aatp1504
Rp1505
(dp1506
g14
Vnsubj
p1507
sbag0
(g1
g2
(lp1508
(lp1509
S'word: up, index: 8'
p1510
aatp1511
Rp1512
(dp1513
g14
Vprt
p1514
sbatp1515
Rp1516
(dp1517
g14
S'word: tied, index: 7'
p1518
sbatp1519
Rp1520
(dp1521
g14
Vccomp
p1522
sbatp1523
Rp1524
(dp1525
g14
S'word: has, index: 5'
p1526
sbatp1527
Rp1528
(dp1529
g14
S'id: 9'
p1530
sbag0
(g1
g2
(lp1531
g0
(g1
g2
(lp1532
g0
(g1
g2
(lp1533
g0
(g1
g2
(lp1534
g0
(g1
g2
(lp1535
(lp1536
S'word: Little, index: 1'
p1537
aatp1538
Rp1539
(dp1540
g14
Vamod
p1541
sbatp1542
Rp1543
(dp1544
g14
S'word: boy, index: 2'
p1545
sbatp1546
Rp1547
(dp1548
g14
Vnsubj
p1549
sbag0
(g1
g2
(lp1550
(lp1551
S'word: is, index: 3'
p1552
aatp1553
Rp1554
(dp1555
g14
Vaux
p1556
sbag0
(g1
g2
(lp1557
g0
(g1
g2
(lp1558
g0
(g1
g2
(lp1559
(lp1560
S'word: whatever, index: 18'
p1561
aatp1562
Rp1563
(dp1564
g14
Vdobj
p1565
sbag0
(g1
g2
(lp1566
(lp1567
S'word: that, index: 19'
p1568
aatp1569
Rp1570
(dp1571
g14
Vnsubj
p1572
sbag0
(g1
g2
(lp1573
(lp1574
S'word: out, index: 21'
p1575
aatp1576
Rp1577
(dp1578
g14
Vprt
p1579
sbatp1580
Rp1581
(dp1582
g14
S'word: comes, index: 20'
p1583
sbatp1584
Rp1585
(dp1586
g14
Vdep
p1587
sbag0
(g1
g2
(lp1588
g0
(g1
g2
(lp1589
g0
(g1
g2
(lp1590
(lp1591
S'word: to, index: 5'
p1592
aatp1593
Rp1594
(dp1595
g14
Vaux
p1596
sbag0
(g1
g2
(lp1597
(lp1598
S'word: himself, index: 7'
p1599
aatp1600
Rp1601
(dp1602
g14
Vdobj
p1603
sbag0
(g1
g2
(lp1604
(lp1605
S'word: the, index: 9'
p1606
aatp1607
Rp1608
(dp1609
g14
Vprep
p1610
sbatp1611
Rp1612
(dp1613
g14
S'word: defend, index: 6'
p1614
sbatp1615
Rp1616
(dp1617
g14
Vxcomp
p1618
sbag0
(g1
g2
(lp1619
g0
(g1
g2
(lp1620
g0
(g1
g2
(lp1621
g1581
atp1622
Rp1623
(dp1624
g14
Vconj
p1625
sbag0
(g1
g2
(lp1626
g0
(g1
g2
(lp1627
g0
(g1
g2
(lp1628
g0
(g1
g2
(lp1629
g0
(g1
g2
(lp1630
(lp1631
S'word: graffiti, index: 14'
p1632
aatp1633
Rp1634
(dp1635
g14
Vnn
p1636
sbatp1637
Rp1638
(dp1639
g14
S'word: stuff, index: 15'
p1640
sbatp1641
Rp1642
(dp1643
g14
Vappos
p1644
sbatp1645
Rp1646
(dp1647
g14
S'word: the, index: 12'
p1648
sbatp1649
Rp1650
(dp1651
g14
Vpobj
p1652
sbatp1653
Rp1654
(dp1655
g14
S'word: from, index: 11'
p1656
sbatp1657
Rp1658
(dp1659
g14
Vdep
p1660
sbatp1661
Rp1662
(dp1663
g14
S'word: trying, index: 4'
p1664
sbatp1665
Rp1666
(dp1667
g14
S'id: 10'
p1668
sbag0
(g1
g2
(lp1669
g0
(g1
g2
(lp1670
g0
(g1
g2
(lp1671
g0
(g1
g2
(lp1672
g0
(g1
g2
(lp1673
(lp1674
S'word: the, index: 2'
p1675
aatp1676
Rp1677
(dp1678
g14
Vdet
p1679
sbatp1680
Rp1681
(dp1682
g14
S'word: womans, index: 3'
p1683
sbatp1684
Rp1685
(dp1686
g14
Vnsubj
p1687
sbag0
(g1
g2
(lp1688
g0
(g1
g2
(lp1689
g0
(g1
g2
(lp1690
(lp1691
S'word: what, index: 5'
p1692
aatp1693
Rp1694
(dp1695
g14
Vnsubj
p1696
sbag0
(g1
g2
(lp1697
(lp1698
S'word: might, index: 6'
p1699
aatp1700
Rp1701
(dp1702
g14
Vaux
p1703
sbag0
(g1
g2
(lp1704
(lp1705
S'word: be, index: 7'
p1706
aatp1707
Rp1708
(dp1709
g14
Vcop
p1710
sbatp1711
Rp1712
(dp1713
g14
S'word: stars, index: 8'
p1714
sbatp1715
Rp1716
(dp1717
g14
Vccomp
p1718
sbag0
(g1
g2
(lp1719
g0
(g1
g2
(lp1720
g0
(g1
g2
(lp1721
g1681
atp1722
Rp1723
(dp1724
g14
Vnsubj
p1725
sbag0
(g1
g2
(lp1726
g0
(g1
g2
(lp1727
g0
(g1
g2
(lp1728
(lp1729
S'word: her, index: 12'
p1730
aatp1731
Rp1732
(dp1733
g14
Vposs
p1734
sbatp1735
Rp1736
(dp1737
g14
S'word: blouse, index: 13'
p1738
sbatp1739
Rp1740
(dp1741
g14
Vprep
p1742
sbatp1743
Rp1744
(dp1745
g14
S'word: leaves, index: 10'
p1746
sbatp1747
Rp1748
(dp1749
g14
Vconj
p1750
sbatp1751
Rp1752
(dp1753
g14
S'word: got, index: 4'
p1754
sbatp1755
Rp1756
(dp1757
g14
S'id: 11'
p1758
sbag0
(g1
g2
(lp1759
g0
(g1
g2
(lp1760
g0
(g1
g2
(lp1761
(lp1762
S'word: apparently, index: 6'
p1763
aatp1764
Rp1765
(dp1766
g14
Vadvmod
p1767
sbag0
(g1
g2
(lp1768
(lp1769
S'word: is, index: 7'
p1770
aatp1771
Rp1772
(dp1773
g14
Vaux
p1774
sbag0
(g1
g2
(lp1775
g0
(g1
g2
(lp1776
g0
(g1
g2
(lp1777
(lp1778
S'word: where, index: 22'
p1779
aatp1780
Rp1781
(dp1782
g14
Vadvmod
p1783
sbag0
(g1
g2
(lp1784
(lp1785
S'word: it, index: 23'
p1786
aatp1787
Rp1788
(dp1789
g14
Vnsubjpass
p1790
sbag0
(g1
g2
(lp1791
(lp1792
S'word: is, index: 24'
p1793
aatp1794
Rp1795
(dp1796
g14
Vauxpass
p1797
sbag0
(g1
g2
(lp1798
(lp1799
S'word: in, index: 26'
p1800
aatp1801
Rp1802
(dp1803
g14
Vprt
p1804
sbag0
(g1
g2
(lp1805
g0
(g1
g2
(lp1806
g0
(g1
g2
(lp1807
(lp1808
S'word: the, index: 28'
p1809
aatp1810
Rp1811
(dp1812
g14
Vdet
p1813
sbatp1814
Rp1815
(dp1816
g14
S'word: waist, index: 29'
p1817
sbatp1818
Rp1819
(dp1820
g14
Vprep
p1821
sbatp1822
Rp1823
(dp1824
g14
S'word: pulled, index: 25'
p1825
sbatp1826
Rp1827
(dp1828
g14
Vadvcl
p1829
sbag0
(g1
g2
(lp1830
g0
(g1
g2
(lp1831
g0
(g1
g2
(lp1832
(lp1833
S'word: something, index: 20'
p1834
aatp1835
Rp1836
(dp1837
g14
Vconj
p1838
sbag0
(g1
g2
(lp1839
(lp1840
S'word: a, index: 9'
p1841
aatp1842
Rp1843
(dp1844
g14
Vdet
p1845
sbag0
(g1
g2
(lp1846
g0
(g1
g2
(lp1847
g0
(g1
g2
(lp1848
(lp1849
S'word: something, index: 20'
p1850
aatp1851
Rp1852
(dp1853
g14
Vconj
p1854
sbag0
(g1
g2
(lp1855
(lp1856
S'word: a, index: 13'
p1857
aatp1858
Rp1859
(dp1860
g14
Vdet
p1861
sbag0
(g1
g2
(lp1862
g0
(g1
g2
(lp1863
g0
(g1
g2
(lp1864
(lp1865
S'word: athletic, index: 16'
p1866
aatp1867
Rp1868
(dp1869
g14
Vamod
p1870
sbatp1871
Rp1872
(dp1873
g14
S'word: shorts, index: 17'
p1874
sbatp1875
Rp1876
(dp1877
g14
Vprep
p1878
sbatp1879
Rp1880
(dp1881
g14
S'word: thing, index: 14'
p1882
sbatp1883
Rp1884
(dp1885
g14
Vconj
p1886
sbatp1887
Rp1888
(dp1889
g14
S'word: sweater, index: 10'
p1890
sbatp1891
Rp1892
(dp1893
g14
Vdobj
p1894
sbag0
(g1
g2
(lp1895
g1880
atp1896
Rp1897
(dp1898
g14
Vdobj
p1899
sbag0
(g1
g2
(lp1900
(lp1901
S'word: And, index: 1'
p1902
aatp1903
Rp1904
(dp1905
g14
Vcc
p1906
sbag0
(g1
g2
(lp1907
g0
(g1
g2
(lp1908
g0
(g1
g2
(lp1909
g0
(g1
g2
(lp1910
g0
(g1
g2
(lp1911
(lp1912
S'word: here, index: 5'
p1913
aatp1914
Rp1915
(dp1916
g14
Vpobj
p1917
sbatp1918
Rp1919
(dp1920
g14
S'word: over, index: 4'
p1921
sbatp1922
Rp1923
(dp1924
g14
Vprep
p1925
sbag0
(g1
g2
(lp1926
(lp1927
S'word: this, index: 2'
p1928
aatp1929
Rp1930
(dp1931
g14
Vdet
p1932
sbatp1933
Rp1934
(dp1935
g14
S'word: guy, index: 3'
p1936
sbatp1937
Rp1938
(dp1939
g14
Vnsubj
p1940
sbatp1941
Rp1942
(dp1943
g14
S'word: wearing, index: 8'
p1944
sbatp1945
Rp1946
(dp1947
g14
S'id: 12'
p1948
sbag0
(g1
g2
(lp1949
g0
(g1
g2
(lp1950
g0
(g1
g2
(lp1951
(lp1952
S'word: And, index: 1'
p1953
aatp1954
Rp1955
(dp1956
g14
Vcc
p1957
sbag0
(g1
g2
(lp1958
g0
(g1
g2
(lp1959
g0
(g1
g2
(lp1960
(lp1961
S'word: the, index: 2'
p1962
aatp1963
Rp1964
(dp1965
g14
Vdet
p1966
sbatp1967
Rp1968
(dp1969
g14
S'word: guys, index: 3'
p1970
sbatp1971
Rp1972
(dp1973
g14
Vnsubj
p1974
sbatp1975
Rp1976
(dp1977
g14
S'word: got, index: 4'
p1978
sbatp1979
Rp1980
(dp1981
g14
S'id: 13'
p1982
sbatp1983
Rp1984
(dp1985
g14
S'sentences'
p1986
sb.