ccopy_reg
_reconstructor
p0
(cnltk.tree
Tree
p1
c__builtin__
list
p2
(lp3
g0
(g1
g2
(lp4
g0
(g1
g2
(lp5
g0
(g1
g2
(lp6
(lp7
S'word: ok, index: 1'
p8
aatp9
Rp10
(dp11
S'_label'
p12
Vnsubj
p13
sbag0
(g1
g2
(lp14
(lp15
S'word: we, index: 2'
p16
aatp17
Rp18
(dp19
g12
Vnsubj
p20
sbag0
(g1
g2
(lp21
g0
(g1
g2
(lp22
g0
(g1
g2
(lp23
(lp24
S'word: the, index: 5'
p25
aatp26
Rp27
(dp28
g12
Vdet
p29
sbatp30
Rp31
(dp32
g12
S'word: lake, index: 6'
p33
sbatp34
Rp35
(dp36
g12
Vprep
p37
sbatp38
Rp39
(dp40
g12
S"word: 're, index: 3"
p41
sbatp42
Rp43
(dp44
g12
S'id: 0'
p45
sbag0
(g1
g2
(lp46
g0
(g1
g2
(lp47
g0
(g1
g2
(lp48
(lp49
S"word: 'll, index: 19"
p50
aatp51
Rp52
(dp53
g12
Vaux
p54
sbag0
(g1
g2
(lp55
g0
(g1
g2
(lp56
g0
(g1
g2
(lp57
g0
(g1
g2
(lp58
g0
(g1
g2
(lp59
(lp60
S'word: that, index: 22'
p61
aatp62
Rp63
(dp64
g12
Vdet
p65
sbatp66
Rp67
(dp68
g12
S'word: way, index: 23'
p69
sbatp70
Rp71
(dp72
g12
Vdep
p73
sbag0
(g1
g2
(lp74
g0
(g1
g2
(lp75
g0
(g1
g2
(lp76
g0
(g1
g2
(lp77
g0
(g1
g2
(lp78
(lp79
S'word: a, index: 27'
p80
aatp81
Rp82
(dp83
g12
Vdet
p84
sbatp85
Rp86
(dp87
g12
S'word: blanket, index: 28'
p88
sbatp89
Rp90
(dp91
g12
Vprep
p92
sbatp93
Rp94
(dp95
g12
S'word: sitting, index: 25'
p96
sbatp97
Rp98
(dp99
g12
Vvmod
p100
sbatp101
Rp102
(dp103
g12
S'word: it, index: 21'
p104
sbatp105
Rp106
(dp107
g12
Vdobj
p108
sbag0
(g1
g2
(lp109
g0
(g1
g2
(lp110
g0
(g1
g2
(lp111
(lp112
S'word: I, index: 5'
p113
aatp114
Rp115
(dp116
g12
Vnsubj
p117
sbag0
(g1
g2
(lp118
g0
(g1
g2
(lp119
g0
(g1
g2
(lp120
(lp121
S'word: a, index: 7'
p122
aatp123
Rp124
(dp125
g12
Vdet
p126
sbag0
(g1
g2
(lp127
g0
(g1
g2
(lp128
g0
(g1
g2
(lp129
(lp130
S'word: a, index: 11'
p131
aatp132
Rp133
(dp134
g12
Vdet
p135
sbatp136
Rp137
(dp138
g12
S'word: wife, index: 12'
p139
sbatp140
Rp141
(dp142
g12
Vconj
p143
sbag0
(g1
g2
(lp144
g0
(g1
g2
(lp145
g0
(g1
g2
(lp146
(lp147
S'word: a, index: 15'
p148
aatp149
Rp150
(dp151
g12
Vdet
p152
sbatp153
Rp154
(dp155
g12
S'word: couple, index: 16'
p156
sbatp157
Rp158
(dp159
g12
Vconj
p160
sbatp161
Rp162
(dp163
g12
S'word: husband, index: 8'
p164
sbatp165
Rp166
(dp167
g12
Vdobj
p168
sbag0
(g1
g2
(lp169
g137
atp170
Rp171
(dp172
g12
Vdobj
p173
sbag0
(g1
g2
(lp174
g154
atp175
Rp176
(dp177
g12
Vdobj
p178
sbatp179
Rp180
(dp181
g12
S'word: see, index: 6'
p182
sbatp183
Rp184
(dp185
g12
Vparataxis
p186
sbag0
(g1
g2
(lp187
g0
(g1
g2
(lp188
g0
(g1
g2
(lp189
(lp190
S'word: all, index: 3'
p191
aatp192
Rp193
(dp194
g12
Vprep
p195
sbatp196
Rp197
(dp198
g12
S'word: First, index: 1'
p199
sbatp200
Rp201
(dp202
g12
Vnsubj
p203
sbag0
(g1
g2
(lp204
(lp205
S'word: I, index: 18'
p206
aatp207
Rp208
(dp209
g12
Vnsubj
p210
sbatp211
Rp212
(dp213
g12
S'word: put, index: 20'
p214
sbatp215
Rp216
(dp217
g12
S'id: 1'
p218
sbag0
(g1
g2
(lp219
g0
(g1
g2
(lp220
g0
(g1
g2
(lp221
g0
(g1
g2
(lp222
g0
(g1
g2
(lp223
g0
(g1
g2
(lp224
g0
(g1
g2
(lp225
(lp226
S'word: a, index: 23'
p227
aatp228
Rp229
(dp230
g12
Vdet
p231
sbatp232
Rp233
(dp234
g12
S'word: book, index: 24'
p235
sbatp236
Rp237
(dp238
g12
Vdobj
p239
sbag0
(g1
g2
(lp240
(lp241
S'word: he, index: 20'
p242
aatp243
Rp244
(dp245
g12
Vnsubj
p246
sbag0
(g1
g2
(lp247
(lp248
S"word: 's, index: 21"
p249
aatp250
Rp251
(dp252
g12
Vaux
p253
sbatp254
Rp255
(dp256
g12
S'word: reading, index: 22'
p257
sbatp258
Rp259
(dp260
g12
Vconj
p261
sbag0
(g1
g2
(lp262
g0
(g1
g2
(lp263
g0
(g1
g2
(lp264
(lp265
S"word: 're, index: 6"
p266
aatp267
Rp268
(dp269
g12
Vaux
p270
sbag0
(g1
g2
(lp271
g0
(g1
g2
(lp272
g0
(g1
g2
(lp273
(lp274
S'word: a, index: 8'
p275
aatp276
Rp277
(dp278
g12
Vdet
p279
sbatp280
Rp281
(dp282
g12
S'word: picnic, index: 9'
p283
sbatp284
Rp285
(dp286
g12
Vdobj
p287
sbag0
(g1
g2
(lp288
(lp289
S'word: they, index: 5'
p290
aatp291
Rp292
(dp293
g12
Vnsubj
p294
sbatp295
Rp296
(dp297
g12
S'word: having, index: 7'
p298
sbatp299
Rp300
(dp301
g12
Vccomp
p302
sbag0
(g1
g2
(lp303
g0
(g1
g2
(lp304
g0
(g1
g2
(lp305
(lp306
S'word: she, index: 12'
p307
aatp308
Rp309
(dp310
g12
Vnsubj
p311
sbag0
(g1
g2
(lp312
(lp313
S"word: 's, index: 13"
p314
aatp315
Rp316
(dp317
g12
Vaux
p318
sbag0
(g1
g2
(lp319
g0
(g1
g2
(lp320
g0
(g1
g2
(lp321
g0
(g1
g2
(lp322
g0
(g1
g2
(lp323
(lp324
S'word: a, index: 17'
p325
aatp326
Rp327
(dp328
g12
Vdet
p329
sbatp330
Rp331
(dp332
g12
S'word: bottle, index: 18'
p333
sbatp334
Rp335
(dp336
g12
Vprep
p337
sbatp338
Rp339
(dp340
g12
S'word: wine, index: 15'
p341
sbatp342
Rp343
(dp344
g12
Vdobj
p345
sbatp346
Rp347
(dp348
g12
S'word: pouring, index: 14'
p349
sbatp350
Rp351
(dp352
g12
Vconj
p353
sbag0
(g1
g2
(lp354
(lp355
S'word: she, index: 2'
p356
aatp357
Rp358
(dp359
g12
Vnsubj
p360
sbatp361
Rp362
(dp363
g12
S"word: 's, index: 3"
p364
sbatp365
Rp366
(dp367
g12
S'id: 2'
p368
sbag0
(g1
g2
(lp369
g0
(g1
g2
(lp370
g0
(g1
g2
(lp371
g0
(g1
g2
(lp372
g0
(g1
g2
(lp373
g0
(g1
g2
(lp374
g0
(g1
g2
(lp375
(lp376
S'word: the, index: 13'
p377
aatp378
Rp379
(dp380
g12
Vdet
p381
sbatp382
Rp383
(dp384
g12
S'word: dog, index: 14'
p385
sbatp386
Rp387
(dp388
g12
Vnsubj
p389
sbag0
(g1
g2
(lp390
(lp391
S'word: is, index: 15'
p392
aatp393
Rp394
(dp395
g12
Vaux
p396
sbag0
(g1
g2
(lp397
(lp398
S'word: him, index: 18'
p399
aatp400
Rp401
(dp402
g12
Vprep
p403
sbatp404
Rp405
(dp406
g12
S'word: running, index: 16'
p407
sbatp408
Rp409
(dp410
g12
Vconj
p411
sbag0
(g1
g2
(lp412
g0
(g1
g2
(lp413
g0
(g1
g2
(lp414
(lp415
S'word: to, index: 2'
p416
aatp417
Rp418
(dp419
g12
Vprep
p420
sbatp421
Rp422
(dp423
g12
S'word: Next, index: 1'
p424
sbatp425
Rp426
(dp427
g12
Vadvmod
p428
sbag0
(g1
g2
(lp429
(lp430
S'word: them, index: 3'
p431
aatp432
Rp433
(dp434
g12
Vnsubj
p435
sbag0
(g1
g2
(lp436
(lp437
S'word: is, index: 4'
p438
aatp439
Rp440
(dp441
g12
Vcop
p442
sbag0
(g1
g2
(lp443
(lp444
S'word: a, index: 5'
p445
aatp446
Rp447
(dp448
g12
Vdet
p449
sbag0
(g1
g2
(lp450
(lp451
S'word: little, index: 6'
p452
aatp453
Rp454
(dp455
g12
Vamod
p456
sbag0
(g1
g2
(lp457
g0
(g1
g2
(lp458
g0
(g1
g2
(lp459
g0
(g1
g2
(lp460
g0
(g1
g2
(lp461
(lp462
S'word: a, index: 9'
p463
aatp464
Rp465
(dp466
g12
Vdet
p467
sbatp468
Rp469
(dp470
g12
S'word: kite, index: 10'
p471
sbatp472
Rp473
(dp474
g12
Vdobj
p475
sbatp476
Rp477
(dp478
g12
S'word: flying, index: 8'
p479
sbatp480
Rp481
(dp482
g12
Vvmod
p483
sbatp484
Rp485
(dp486
g12
S'word: boy, index: 7'
p487
sbatp488
Rp489
(dp490
g12
S'id: 3'
p491
sbag0
(g1
g2
(lp492
g0
(g1
g2
(lp493
g0
(g1
g2
(lp494
g0
(g1
g2
(lp495
g0
(g1
g2
(lp496
(lp497
S'word: a, index: 28'
p498
aatp499
Rp500
(dp501
g12
Vdet
p502
sbag0
(g1
g2
(lp503
g0
(g1
g2
(lp504
g0
(g1
g2
(lp505
(lp506
S'word: a, index: 31'
p507
aatp508
Rp509
(dp510
g12
Vdet
p511
sbag0
(g1
g2
(lp512
g0
(g1
g2
(lp513
g0
(g1
g2
(lp514
(lp515
S'word: which, index: 33'
p516
aatp517
Rp518
(dp519
g12
Vdobj
p520
sbag0
(g1
g2
(lp521
(lp522
S'word: she, index: 34'
p523
aatp524
Rp525
(dp526
g12
Vnsubj
p527
sbag0
(g1
g2
(lp528
g0
(g1
g2
(lp529
g0
(g1
g2
(lp530
(lp531
S'word: her, index: 36'
p532
aatp533
Rp534
(dp535
g12
Vposs
p536
sbatp537
Rp538
(dp539
g12
S'word: sand, index: 37'
p540
sbatp541
Rp542
(dp543
g12
Vdobj
p544
sbatp545
Rp546
(dp547
g12
S'word: gets, index: 35'
p548
sbatp549
Rp550
(dp551
g12
Vrcmod
p552
sbatp553
Rp554
(dp555
g12
S'word: pail, index: 32'
p556
sbatp557
Rp558
(dp559
g12
Vconj
p560
sbag0
(g1
g2
(lp561
g0
(g1
g2
(lp562
g0
(g1
g2
(lp563
(lp564
S'word: her, index: 26'
p565
aatp566
Rp567
(dp568
g12
Vprep
p569
sbatp570
Rp571
(dp572
g12
S'word: next, index: 24'
p573
sbatp574
Rp575
(dp576
g12
Vnsubj
p577
sbag0
(g1
g2
(lp578
(lp579
S'word: is, index: 27'
p580
aatp581
Rp582
(dp583
g12
Vcop
p584
sbatp585
Rp586
(dp587
g12
S'word: bucket, index: 29'
p588
sbatp589
Rp590
(dp591
g12
Vconj
p592
sbag0
(g1
g2
(lp593
(lp594
S'word: there, index: 14'
p595
aatp596
Rp597
(dp598
g12
Vexpl
p599
sbag0
(g1
g2
(lp600
g554
atp601
Rp602
(dp603
g12
Vconj
p604
sbag0
(g1
g2
(lp605
g0
(g1
g2
(lp606
g0
(g1
g2
(lp607
(lp608
S'word: a, index: 16'
p609
aatp610
Rp611
(dp612
g12
Vdet
p613
sbag0
(g1
g2
(lp614
(lp615
S'word: little, index: 17'
p616
aatp617
Rp618
(dp619
g12
Vamod
p620
sbag0
(g1
g2
(lp621
g0
(g1
g2
(lp622
g0
(g1
g2
(lp623
g0
(g1
g2
(lp624
g0
(g1
g2
(lp625
(lp626
S'word: a, index: 20'
p627
aatp628
Rp629
(dp630
g12
Vdet
p631
sbatp632
Rp633
(dp634
g12
S'word: sandcastle, index: 21'
p635
sbatp636
Rp637
(dp638
g12
Vdobj
p639
sbatp640
Rp641
(dp642
g12
S'word: making, index: 19'
p643
sbatp644
Rp645
(dp646
g12
Vvmod
p647
sbatp648
Rp649
(dp650
g12
S'word: girl, index: 18'
p651
sbatp652
Rp653
(dp654
g12
Vnsubj
p655
sbag0
(g1
g2
(lp656
g0
(g1
g2
(lp657
g0
(g1
g2
(lp658
g0
(g1
g2
(lp659
g0
(g1
g2
(lp660
(lp661
S'word: the, index: 11'
p662
aatp663
Rp664
(dp665
g12
Vdet
p666
sbatp667
Rp668
(dp669
g12
S'word: lakeshore, index: 12'
p670
sbatp671
Rp672
(dp673
g12
Vprep
p674
sbag0
(g1
g2
(lp675
(lp676
S'word: and, index: 3'
p677
aatp678
Rp679
(dp680
g12
Vcc
p681
sbag0
(g1
g2
(lp682
(lp683
S'word: further, index: 4'
p684
aatp685
Rp686
(dp687
g12
Vadvmod
p688
sbag0
(g1
g2
(lp689
g0
(g1
g2
(lp690
g0
(g1
g2
(lp691
g668
atp692
Rp693
(dp694
g12
Vconj
p695
sbag0
(g1
g2
(lp696
(lp697
S'word: the, index: 7'
p698
aatp699
Rp700
(dp701
g12
Vdet
p702
sbatp703
Rp704
(dp705
g12
S'word: beach, index: 8'
p706
sbatp707
Rp708
(dp709
g12
Vprep
p710
sbatp711
Rp712
(dp713
g12
S'word: down, index: 5'
p714
sbatp715
Rp716
(dp717
g12
Vdep
p718
sbatp719
Rp720
(dp721
g12
S"word: 's, index: 15"
p722
sbatp723
Rp724
(dp725
g12
S'id: 4'
p726
sbag0
(g1
g2
(lp727
g0
(g1
g2
(lp728
g0
(g1
g2
(lp729
(lp730
S'word: he, index: 15'
p731
aatp732
Rp733
(dp734
g12
Vnsubjpass
p735
sbag0
(g1
g2
(lp736
(lp737
S"word: 's, index: 16"
p738
aatp739
Rp740
(dp741
g12
Vauxpass
p742
sbag0
(g1
g2
(lp743
(lp744
S'word: Further, index: 1'
p745
aatp746
Rp747
(dp748
g12
Vadvmod
p749
sbag0
(g1
g2
(lp750
g0
(g1
g2
(lp751
g0
(g1
g2
(lp752
(lp753
S'word: a, index: 18'
p754
aatp755
Rp756
(dp757
g12
Vdet
p758
sbatp759
Rp760
(dp761
g12
S'word: fish, index: 19'
p762
sbatp763
Rp764
(dp765
g12
Vdobj
p766
sbag0
(g1
g2
(lp767
g0
(g1
g2
(lp768
g0
(g1
g2
(lp769
(lp770
S'word: the, index: 3'
p771
aatp772
Rp773
(dp774
g12
Vdet
p775
sbatp776
Rp777
(dp778
g12
S'word: lakeshore, index: 4'
p779
sbatp780
Rp781
(dp782
g12
Vprep
p783
sbag0
(g1
g2
(lp784
g0
(g1
g2
(lp785
g0
(g1
g2
(lp786
(lp787
S'word: there, index: 6'
p788
aatp789
Rp790
(dp791
g12
Vexpl
p792
sbag0
(g1
g2
(lp793
g0
(g1
g2
(lp794
g0
(g1
g2
(lp795
(lp796
S'word: a, index: 8'
p797
aatp798
Rp799
(dp800
g12
Vdet
p801
sbag0
(g1
g2
(lp802
(lp803
S'word: man, index: 9'
p804
aatp805
Rp806
(dp807
g12
Vnn
p808
sbag0
(g1
g2
(lp809
g0
(g1
g2
(lp810
g0
(g1
g2
(lp811
(lp812
S'word: a, index: 12'
p813
aatp814
Rp815
(dp816
g12
Vdet
p817
sbatp818
Rp819
(dp820
g12
S'word: dock, index: 13'
p821
sbatp822
Rp823
(dp824
g12
Vprep
p825
sbatp826
Rp827
(dp828
g12
S'word: fishing, index: 10'
p829
sbatp830
Rp831
(dp832
g12
Vnsubj
p833
sbatp834
Rp835
(dp836
g12
S"word: 's, index: 7"
p837
sbatp838
Rp839
(dp840
g12
Vparataxis
p841
sbatp842
Rp843
(dp844
g12
S'word: caught, index: 17'
p845
sbatp846
Rp847
(dp848
g12
S'id: 5'
p849
sbag0
(g1
g2
(lp850
g0
(g1
g2
(lp851
g0
(g1
g2
(lp852
g0
(g1
g2
(lp853
g0
(g1
g2
(lp854
(lp855
S'word: a, index: 3'
p856
aatp857
Rp858
(dp859
g12
Vdet
p860
sbag0
(g1
g2
(lp861
g0
(g1
g2
(lp862
g0
(g1
g2
(lp863
g0
(g1
g2
(lp864
g0
(g1
g2
(lp865
(lp866
S'word: a, index: 6'
p867
aatp868
Rp869
(dp870
g12
Vdet
p871
sbag0
(g1
g2
(lp872
g0
(g1
g2
(lp873
g0
(g1
g2
(lp874
(lp875
S'word: the, index: 9'
p876
aatp877
Rp878
(dp879
g12
Vdet
p880
sbatp881
Rp882
(dp883
g12
S'word: lake, index: 10'
p884
sbatp885
Rp886
(dp887
g12
Vprep
p888
sbatp889
Rp890
(dp891
g12
S'word: boat, index: 7'
p892
sbatp893
Rp894
(dp895
g12
Vdobj
p896
sbatp897
Rp898
(dp899
g12
S'word: sailing, index: 5'
p900
sbatp901
Rp902
(dp903
g12
Vvmod
p904
sbatp905
Rp906
(dp907
g12
S'word: person, index: 4'
p908
sbatp909
Rp910
(dp911
g12
Vnsubj
p912
sbag0
(g1
g2
(lp913
(lp914
S'word: There, index: 1'
p915
aatp916
Rp917
(dp918
g12
Vexpl
p919
sbatp920
Rp921
(dp922
g12
S"word: 's, index: 2"
p923
sbatp924
Rp925
(dp926
g12
S'id: 6'
p927
sbag0
(g1
g2
(lp928
g0
(g1
g2
(lp929
g0
(g1
g2
(lp930
(lp931
S'word: And, index: 1'
p932
aatp933
Rp934
(dp935
g12
Vcc
p936
sbag0
(g1
g2
(lp937
(lp938
S'word: there, index: 2'
p939
aatp940
Rp941
(dp942
g12
Vexpl
p943
sbag0
(g1
g2
(lp944
(lp945
S'word: trees, index: 4'
p946
aatp947
Rp948
(dp949
g12
Vnsubj
p950
sbatp951
Rp952
(dp953
g12
S"word: 's, index: 3"
p954
sbatp955
Rp956
(dp957
g12
S'id: 7'
p958
sbag0
(g1
g2
(lp959
g0
(g1
g2
(lp960
g0
(g1
g2
(lp961
(lp962
S'word: I, index: 1'
p963
aatp964
Rp965
(dp966
g12
Vnsubj
p967
sbag0
(g1
g2
(lp968
g0
(g1
g2
(lp969
g0
(g1
g2
(lp970
(lp971
S'word: this, index: 3'
p972
aatp973
Rp974
(dp975
g12
Vnsubj
p976
sbag0
(g1
g2
(lp977
(lp978
S'word: is, index: 4'
p979
aatp980
Rp981
(dp982
g12
Vcop
p983
sbag0
(g1
g2
(lp984
(lp985
S'word: resort, index: 5'
p986
aatp987
Rp988
(dp989
g12
Vnn
p990
sbatp991
Rp992
(dp993
g12
S'word: house, index: 6'
p994
sbatp995
Rp996
(dp997
g12
Vccomp
p998
sbatp999
Rp1000
(dp1001
g12
S'word: guess, index: 2'
p1002
sbatp1003
Rp1004
(dp1005
g12
S'id: 8'
p1006
sbag0
(g1
g2
(lp1007
g0
(g1
g2
(lp1008
g0
(g1
g2
(lp1009
(lp1010
S'word: There, index: 1'
p1011
aatp1012
Rp1013
(dp1014
g12
Vexpl
p1015
sbag0
(g1
g2
(lp1016
g0
(g1
g2
(lp1017
g0
(g1
g2
(lp1018
(lp1019
S'word: a, index: 3'
p1020
aatp1021
Rp1022
(dp1023
g12
Vdet
p1024
sbag0
(g1
g2
(lp1025
g0
(g1
g2
(lp1026
g0
(g1
g2
(lp1027
(lp1028
S'word: the, index: 6'
p1029
aatp1030
Rp1031
(dp1032
g12
Vdet
p1033
sbatp1034
Rp1035
(dp1036
g12
S'word: driveway, index: 7'
p1037
sbatp1038
Rp1039
(dp1040
g12
Vprep
p1041
sbatp1042
Rp1043
(dp1044
g12
S'word: car, index: 4'
p1045
sbatp1046
Rp1047
(dp1048
g12
Vnsubj
p1049
sbatp1050
Rp1051
(dp1052
g12
S"word: 's, index: 2"
p1053
sbatp1054
Rp1055
(dp1056
g12
S'id: 9'
p1057
sbag0
(g1
g2
(lp1058
g0
(g1
g2
(lp1059
g0
(g1
g2
(lp1060
(lp1061
S'word: It, index: 1'
p1062
aatp1063
Rp1064
(dp1065
g12
Vnsubj
p1066
sbag0
(g1
g2
(lp1067
(lp1068
S"word: 's, index: 2"
p1069
aatp1070
Rp1071
(dp1072
g12
Vcop
p1073
sbag0
(g1
g2
(lp1074
(lp1075
S'word: a, index: 3'
p1076
aatp1077
Rp1078
(dp1079
g12
Vdet
p1080
sbag0
(g1
g2
(lp1081
(lp1082
S'word: single, index: 4'
p1083
aatp1084
Rp1085
(dp1086
g12
Vamod
p1087
sbag0
(g1
g2
(lp1088
(lp1089
S'word: story, index: 5'
p1090
aatp1091
Rp1092
(dp1093
g12
Vnn
p1094
sbatp1095
Rp1096
(dp1097
g12
S'word: house, index: 6'
p1098
sbatp1099
Rp1100
(dp1101
g12
S'id: 10'
p1102
sbag0
(g1
g2
(lp1103
g0
(g1
g2
(lp1104
g0
(g1
g2
(lp1105
(lp1106
S'word: There, index: 1'
p1107
aatp1108
Rp1109
(dp1110
g12
Vexpl
p1111
sbag0
(g1
g2
(lp1112
g0
(g1
g2
(lp1113
g0
(g1
g2
(lp1114
g0
(g1
g2
(lp1115
g0
(g1
g2
(lp1116
g0
(g1
g2
(lp1117
g0
(g1
g2
(lp1118
g0
(g1
g2
(lp1119
g0
(g1
g2
(lp1120
(lp1121
S'word: a, index: 19'
p1122
aatp1123
Rp1124
(dp1125
g12
Vdet
p1126
sbatp1127
Rp1128
(dp1129
g12
S'word: kite, index: 20'
p1130
sbatp1131
Rp1132
(dp1133
g12
Vdobj
p1134
sbag0
(g1
g2
(lp1135
g0
(g1
g2
(lp1136
g0
(g1
g2
(lp1137
(lp1138
S"word: 's, index: 9"
p1139
aatp1140
Rp1141
(dp1142
g12
Vpossessive
p1143
sbag0
(g1
g2
(lp1144
g0
(g1
g2
(lp1145
g0
(g1
g2
(lp1146
(lp1147
S'word: the, index: 11'
p1148
aatp1149
Rp1150
(dp1151
g12
Vdet
p1152
sbag0
(g1
g2
(lp1153
g0
(g1
g2
(lp1154
g0
(g1
g2
(lp1155
(lp1156
S'word: single, index: 14'
p1157
aatp1158
Rp1159
(dp1160
g12
Vamod
p1161
sbag0
(g1
g2
(lp1162
(lp1163
S'word: story, index: 15'
p1164
aatp1165
Rp1166
(dp1167
g12
Vnn
p1168
sbatp1169
Rp1170
(dp1171
g12
S'word: house, index: 16'
p1172
sbatp1173
Rp1174
(dp1175
g12
Vappos
p1176
sbatp1177
Rp1178
(dp1179
g12
S'word: driveway, index: 12'
p1180
sbatp1181
Rp1182
(dp1183
g12
Vprep
p1184
sbatp1185
Rp1186
(dp1187
g12
S'word: car, index: 8'
p1188
sbatp1189
Rp1190
(dp1191
g12
Vnsubj
p1192
sbatp1193
Rp1194
(dp1195
g12
S'word: flying, index: 18'
p1196
sbatp1197
Rp1198
(dp1199
g12
Vdep
p1200
sbag0
(g1
g2
(lp1201
(lp1202
S"word: 's, index: 5"
p1203
aatp1204
Rp1205
(dp1206
g12
Vnsubj
p1207
sbatp1208
Rp1209
(dp1210
g12
S'word: see, index: 6'
p1211
sbatp1212
Rp1213
(dp1214
g12
Vccomp
p1215
sbatp1216
Rp1217
(dp1218
g12
S'word: Let, index: 4'
p1219
sbatp1220
Rp1221
(dp1222
g12
Vccomp
p1223
sbatp1224
Rp1225
(dp1226
g12
S"word: 's, index: 2"
p1227
sbatp1228
Rp1229
(dp1230
g12
S'id: 11'
p1231
sbag0
(g1
g2
(lp1232
g0
(g1
g2
(lp1233
g0
(g1
g2
(lp1234
g0
(g1
g2
(lp1235
g0
(g1
g2
(lp1236
g0
(g1
g2
(lp1237
g0
(g1
g2
(lp1238
g0
(g1
g2
(lp1239
g0
(g1
g2
(lp1240
(lp1241
S'word: the, index: 7'
p1242
aatp1243
Rp1244
(dp1245
g12
Vdet
p1246
sbatp1247
Rp1248
(dp1249
g12
S'word: yard, index: 8'
p1250
sbatp1251
Rp1252
(dp1253
g12
Vprep
p1254
sbatp1255
Rp1256
(dp1257
g12
S'word: flying, index: 5'
p1258
sbatp1259
Rp1260
(dp1261
g12
Vvmod
p1262
sbag0
(g1
g2
(lp1263
(lp1264
S'word: a, index: 3'
p1265
aatp1266
Rp1267
(dp1268
g12
Vdet
p1269
sbatp1270
Rp1271
(dp1272
g12
S'word: flag, index: 4'
p1273
sbatp1274
Rp1275
(dp1276
g12
Vnsubj
p1277
sbag0
(g1
g2
(lp1278
(lp1279
S'word: There, index: 1'
p1280
aatp1281
Rp1282
(dp1283
g12
Vexpl
p1284
sbatp1285
Rp1286
(dp1287
g12
S"word: 's, index: 2"
p1288
sbatp1289
Rp1290
(dp1291
g12
S'id: 12'
p1292
sbag0
(g1
g2
(lp1293
g0
(g1
g2
(lp1294
g0
(g1
g2
(lp1295
g0
(g1
g2
(lp1296
g0
(g1
g2
(lp1297
(lp1298
S'word: the, index: 8'
p1299
aatp1300
Rp1301
(dp1302
g12
Vdet
p1303
sbag0
(g1
g2
(lp1304
(lp1305
S'word: little, index: 9'
p1306
aatp1307
Rp1308
(dp1309
g12
Vamod
p1310
sbatp1311
Rp1312
(dp1313
g12
S'word: boy, index: 10'
p1314
sbatp1315
Rp1316
(dp1317
g12
Vnsubj
p1318
sbag0
(g1
g2
(lp1319
(lp1320
S'word: is, index: 11'
p1321
aatp1322
Rp1323
(dp1324
g12
Vaux
p1325
sbag0
(g1
g2
(lp1326
g0
(g1
g2
(lp1327
g0
(g1
g2
(lp1328
(lp1329
S'word: The, index: 1'
p1330
aatp1331
Rp1332
(dp1333
g12
Vdet
p1334
sbag0
(g1
g2
(lp1335
(lp1336
S'word: little, index: 2'
p1337
aatp1338
Rp1339
(dp1340
g12
Vamod
p1341
sbatp1342
Rp1343
(dp1344
g12
S'word: boy, index: 3'
p1345
sbatp1346
Rp1347
(dp1348
g12
Vnsubj
p1349
sbag0
(g1
g2
(lp1350
g0
(g1
g2
(lp1351
g0
(g1
g2
(lp1352
(lp1353
S'word: back, index: 6'
p1354
aatp1355
Rp1356
(dp1357
g12
Vadvmod
p1358
sbatp1359
Rp1360
(dp1361
g12
S'word: going, index: 5'
p1362
sbatp1363
Rp1364
(dp1365
g12
Vvmod
p1366
sbatp1367
Rp1368
(dp1369
g12
S'word: laughing, index: 12'
p1370
sbatp1371
Rp1372
(dp1373
g12
S'id: 13'
p1374
sbag0
(g1
g2
(lp1375
g0
(g1
g2
(lp1376
g0
(g1
g2
(lp1377
g0
(g1
g2
(lp1378
g0
(g1
g2
(lp1379
(lp1380
S'word: he, index: 12'
p1381
aatp1382
Rp1383
(dp1384
g12
Vnsubj
p1385
sbag0
(g1
g2
(lp1386
(lp1387
S"word: 's, index: 13"
p1388
aatp1389
Rp1390
(dp1391
g12
Vcop
p1392
sbatp1393
Rp1394
(dp1395
g12
S'word: happy, index: 14'
p1396
sbatp1397
Rp1398
(dp1399
g12
Vconj
p1400
sbag0
(g1
g2
(lp1401
g0
(g1
g2
(lp1402
g0
(g1
g2
(lp1403
(lp1404
S'word: The, index: 1'
p1405
aatp1406
Rp1407
(dp1408
g12
Vdet
p1409
sbatp1410
Rp1411
(dp1412
g12
S'word: dog, index: 2'
p1413
sbatp1414
Rp1415
(dp1416
g12
Vnsubj
p1417
sbag0
(g1
g2
(lp1418
g0
(g1
g2
(lp1419
g0
(g1
g2
(lp1420
(lp1421
S'word: his, index: 4'
p1422
aatp1423
Rp1424
(dp1425
g12
Vposs
p1426
sbag0
(g1
g2
(lp1427
g0
(g1
g2
(lp1428
g0
(g1
g2
(lp1429
(lp1430
S'word: out, index: 7'
p1431
aatp1432
Rp1433
(dp1434
g12
Vprt
p1435
sbag0
(g1
g2
(lp1436
(lp1437
S'word: running, index: 9'
p1438
aatp1439
Rp1440
(dp1441
g12
Vconj
p1442
sbatp1443
Rp1444
(dp1445
g12
S'word: sticking, index: 6'
p1446
sbatp1447
Rp1448
(dp1449
g12
Vdep
p1450
sbag0
(g1
g2
(lp1451
(lp1452
S'word: running, index: 9'
p1453
aatp1454
Rp1455
(dp1456
g12
Vdep
p1457
sbatp1458
Rp1459
(dp1460
g12
S'word: tongue, index: 5'
p1461
sbatp1462
Rp1463
(dp1464
g12
Vdobj
p1465
sbatp1466
Rp1467
(dp1468
g12
S'word: has, index: 3'
p1469
sbatp1470
Rp1471
(dp1472
g12
S'id: 14'
p1473
sbag0
(g1
g2
(lp1474
g0
(g1
g2
(lp1475
g0
(g1
g2
(lp1476
g0
(g1
g2
(lp1477
g0
(g1
g2
(lp1478
g0
(g1
g2
(lp1479
g0
(g1
g2
(lp1480
(lp1481
S'word: that, index: 14'
p1482
aatp1483
Rp1484
(dp1485
g12
Vnsubj
p1486
sbag0
(g1
g2
(lp1487
(lp1488
S"word: 's, index: 15"
p1489
aatp1490
Rp1491
(dp1492
g12
Vaux
p1493
sbag0
(g1
g2
(lp1494
g0
(g1
g2
(lp1495
g0
(g1
g2
(lp1496
(lp1497
S'word: the, index: 17'
p1498
aatp1499
Rp1500
(dp1501
g12
Vdet
p1502
sbatp1503
Rp1504
(dp1505
g12
S'word: wine, index: 18'
p1506
sbatp1507
Rp1508
(dp1509
g12
Vdobj
p1510
sbatp1511
Rp1512
(dp1513
g12
S'word: pouring, index: 16'
p1514
sbatp1515
Rp1516
(dp1517
g12
Vrcmod
p1518
sbag0
(g1
g2
(lp1519
(lp1520
S'word: even, index: 11'
p1521
aatp1522
Rp1523
(dp1524
g12
Vadvmod
p1525
sbag0
(g1
g2
(lp1526
(lp1527
S'word: the, index: 12'
p1528
aatp1529
Rp1530
(dp1531
g12
Vdet
p1532
sbatp1533
Rp1534
(dp1535
g12
S'word: lady, index: 13'
p1536
sbatp1537
Rp1538
(dp1539
g12
Vappos
p1540
sbag0
(g1
g2
(lp1541
(lp1542
S"word: 's, index: 2"
p1543
aatp1544
Rp1545
(dp1546
g12
Vpossessive
p1547
sbag0
(g1
g2
(lp1548
(lp1549
S'word: happy, index: 3'
p1550
aatp1551
Rp1552
(dp1553
g12
Vamod
p1554
sbag0
(g1
g2
(lp1555
g0
(g1
g2
(lp1556
g0
(g1
g2
(lp1557
g0
(g1
g2
(lp1558
g0
(g1
g2
(lp1559
(lp1560
S'word: the, index: 8'
p1561
aatp1562
Rp1563
(dp1564
g12
Vdet
p1565
sbatp1566
Rp1567
(dp1568
g12
S'word: picture, index: 9'
p1569
sbatp1570
Rp1571
(dp1572
g12
Vprep
p1573
sbatp1574
Rp1575
(dp1576
g12
S'word: the, index: 5'
p1577
sbatp1578
Rp1579
(dp1580
g12
Vprep
p1581
sbatp1582
Rp1583
(dp1584
g12
S'word: Everybody, index: 1'
p1585
sbatp1586
Rp1587
(dp1588
g12
S'id: 15'
p1589
sbag0
(g1
g2
(lp1590
g0
(g1
g2
(lp1591
g0
(g1
g2
(lp1592
g0
(g1
g2
(lp1593
g0
(g1
g2
(lp1594
(lp1595
S'word: She, index: 1'
p1596
aatp1597
Rp1598
(dp1599
g12
Vnsubj
p1600
sbag0
(g1
g2
(lp1601
(lp1602
S'word: has, index: 2'
p1603
aatp1604
Rp1605
(dp1606
g12
Vaux
p1607
sbag0
(g1
g2
(lp1608
g0
(g1
g2
(lp1609
g0
(g1
g2
(lp1610
g0
(g1
g2
(lp1611
g0
(g1
g2
(lp1612
(lp1613
S'word: a, index: 6'
p1614
aatp1615
Rp1616
(dp1617
g12
Vdet
p1618
sbag0
(g1
g2
(lp1619
(lp1620
S'word: tank, index: 7'
p1621
aatp1622
Rp1623
(dp1624
g12
Vnn
p1625
sbatp1626
Rp1627
(dp1628
g12
S'word: top, index: 8'
p1629
sbatp1630
Rp1631
(dp1632
g12
Vconj
p1633
sbatp1634
Rp1635
(dp1636
g12
S'word: shorts, index: 4'
p1637
sbatp1638
Rp1639
(dp1640
g12
Vpobj
p1641
sbag0
(g1
g2
(lp1642
g1627
atp1643
Rp1644
(dp1645
g12
Vpobj
p1646
sbatp1647
Rp1648
(dp1649
g12
S'word: on, index: 3'
p1650
sbatp1651
Rp1652
(dp1653
g12
Vccomp
p1654
sbag0
(g1
g2
(lp1655
(lp1656
S'word: he, index: 10'
p1657
aatp1658
Rp1659
(dp1660
g12
Vnsubj
p1661
sbag0
(g1
g2
(lp1662
(lp1663
S'word: has, index: 11'
p1664
aatp1665
Rp1666
(dp1667
g12
Vaux
p1668
sbag0
(g1
g2
(lp1669
g0
(g1
g2
(lp1670
g0
(g1
g2
(lp1671
(lp1672
S'word: shirt, index: 15'
p1673
aatp1674
Rp1675
(dp1676
g12
Vconj
p1677
sbatp1678
Rp1679
(dp1680
g12
S'word: shorts, index: 13'
p1681
sbatp1682
Rp1683
(dp1684
g12
Vpobj
p1685
sbag0
(g1
g2
(lp1686
(lp1687
S'word: shirt, index: 15'
p1688
aatp1689
Rp1690
(dp1691
g12
Vpobj
p1692
sbatp1693
Rp1694
(dp1695
g12
S'word: on, index: 12'
p1696
sbatp1697
Rp1698
(dp1699
g12
S'id: 16'
p1700
sbag0
(g1
g2
(lp1701
g0
(g1
g2
(lp1702
g0
(g1
g2
(lp1703
(lp1704
S'word: she, index: 7'
p1705
aatp1706
Rp1707
(dp1708
g12
Vnsubj
p1709
sbag0
(g1
g2
(lp1710
g0
(g1
g2
(lp1711
g0
(g1
g2
(lp1712
(lp1713
S'word: her, index: 9'
p1714
aatp1715
Rp1716
(dp1717
g12
Vposs
p1718
sbatp1719
Rp1720
(dp1721
g12
S'word: shoes, index: 10'
p1722
sbatp1723
Rp1724
(dp1725
g12
Vdobj
p1726
sbag0
(g1
g2
(lp1727
(lp1728
S'word: on, index: 11'
p1729
aatp1730
Rp1731
(dp1732
g12
Vprep
p1733
sbag0
(g1
g2
(lp1734
g0
(g1
g2
(lp1735
g0
(g1
g2
(lp1736
g0
(g1
g2
(lp1737
g0
(g1
g2
(lp1738
(lp1739
S'word: his, index: 3'
p1740
aatp1741
Rp1742
(dp1743
g12
Vposs
p1744
sbatp1745
Rp1746
(dp1747
g12
S'word: shoes, index: 4'
p1748
sbatp1749
Rp1750
(dp1751
g12
Vdobj
p1752
sbag0
(g1
g2
(lp1753
(lp1754
S'word: off, index: 5'
p1755
aatp1756
Rp1757
(dp1758
g12
Vprep
p1759
sbag0
(g1
g2
(lp1760
(lp1761
S'word: He, index: 1'
p1762
aatp1763
Rp1764
(dp1765
g12
Vnsubj
p1766
sbatp1767
Rp1768
(dp1769
g12
S'word: has, index: 2'
p1770
sbatp1771
Rp1772
(dp1773
g12
Vccomp
p1774
sbatp1775
Rp1776
(dp1777
g12
S'word: has, index: 8'
p1778
sbatp1779
Rp1780
(dp1781
g12
S'id: 17'
p1782
sbag0
(g1
g2
(lp1783
g0
(g1
g2
(lp1784
g0
(g1
g2
(lp1785
(lp1786
S'word: There, index: 1'
p1787
aatp1788
Rp1789
(dp1790
g12
Vexpl
p1791
sbag0
(g1
g2
(lp1792
g0
(g1
g2
(lp1793
g0
(g1
g2
(lp1794
(lp1795
S'word: a, index: 3'
p1796
aatp1797
Rp1798
(dp1799
g12
Vdet
p1800
sbatp1801
Rp1802
(dp1803
g12
S'word: radio, index: 4'
p1804
sbatp1805
Rp1806
(dp1807
g12
Vnsubj
p1808
sbatp1809
Rp1810
(dp1811
g12
S"word: 's, index: 2"
p1812
sbatp1813
Rp1814
(dp1815
g12
S'id: 18'
p1816
sbag0
(g1
g2
(lp1817
g0
(g1
g2
(lp1818
g0
(g1
g2
(lp1819
g0
(g1
g2
(lp1820
g0
(g1
g2
(lp1821
(lp1822
S'word: the, index: 9'
p1823
aatp1824
Rp1825
(dp1826
g12
Vdet
p1827
sbag0
(g1
g2
(lp1828
(lp1829
S'word: all, index: 8'
p1830
aatp1831
Rp1832
(dp1833
g12
Vpredet
p1834
sbatp1835
Rp1836
(dp1837
g12
S'word: way, index: 10'
p1838
sbatp1839
Rp1840
(dp1841
g12
Vdobj
p1842
sbag0
(g1
g2
(lp1843
(lp1844
S'word: around, index: 11'
p1845
aatp1846
Rp1847
(dp1848
g12
Vadvmod
p1849
sbag0
(g1
g2
(lp1850
g0
(g1
g2
(lp1851
g0
(g1
g2
(lp1852
g0
(g1
g2
(lp1853
g0
(g1
g2
(lp1854
(lp1855
S"word: 's, index: 2"
p1856
aatp1857
Rp1858
(dp1859
g12
Vnsubj
p1860
sbatp1861
Rp1862
(dp1863
g12
S'word: see, index: 3'
p1864
sbatp1865
Rp1866
(dp1867
g12
Vccomp
p1868
sbatp1869
Rp1870
(dp1871
g12
S'word: Let, index: 1'
p1872
sbatp1873
Rp1874
(dp1875
g12
Vccomp
p1876
sbag0
(g1
g2
(lp1877
g0
(g1
g2
(lp1878
g0
(g1
g2
(lp1879
(lp1880
S'word: the, index: 5'
p1881
aatp1882
Rp1883
(dp1884
g12
Vdet
p1885
sbatp1886
Rp1887
(dp1888
g12
S'word: lake, index: 6'
p1889
sbatp1890
Rp1891
(dp1892
g12
Vnsubj
p1893
sbatp1894
Rp1895
(dp1896
g12
S'word: goes, index: 7'
p1897
sbatp1898
Rp1899
(dp1900
g12
S'id: 19'
p1901
sbag0
(g1
g2
(lp1902
g0
(g1
g2
(lp1903
g0
(g1
g2
(lp1904
g0
(g1
g2
(lp1905
g0
(g1
g2
(lp1906
(lp1907
S'word: I, index: 2'
p1908
aatp1909
Rp1910
(dp1911
g12
Vdep
p1912
sbatp1913
Rp1914
(dp1915
g12
S'word: Abain, index: 1'
p1916
sbatp1917
Rp1918
(dp1919
g12
Vnsubj
p1920
sbag0
(g1
g2
(lp1921
g0
(g1
g2
(lp1922
g0
(g1
g2
(lp1923
(lp1924
S'word: shrubberies, index: 7'
p1925
aatp1926
Rp1927
(dp1928
g12
Vconj
p1929
sbatp1930
Rp1931
(dp1932
g12
S'word: trees, index: 4'
p1933
sbatp1934
Rp1935
(dp1936
g12
Vdobj
p1937
sbag0
(g1
g2
(lp1938
(lp1939
S'word: shrubberies, index: 7'
p1940
aatp1941
Rp1942
(dp1943
g12
Vdobj
p1944
sbatp1945
Rp1946
(dp1947
g12
S'word: see, index: 3'
p1948
sbatp1949
Rp1950
(dp1951
g12
S'id: 20'
p1952
sbag0
(g1
g2
(lp1953
g0
(g1
g2
(lp1954
g0
(g1
g2
(lp1955
(lp1956
S'word: And, index: 1'
p1957
aatp1958
Rp1959
(dp1960
g12
Vcc
p1961
sbag0
(g1
g2
(lp1962
g0
(g1
g2
(lp1963
g0
(g1
g2
(lp1964
(lp1965
S'word: the, index: 2'
p1966
aatp1967
Rp1968
(dp1969
g12
Vdet
p1970
sbatp1971
Rp1972
(dp1973
g12
S'word: waves, index: 3'
p1974
sbatp1975
Rp1976
(dp1977
g12
Vnsubj
p1978
sbag0
(g1
g2
(lp1979
(lp1980
S'word: is, index: 4'
p1981
aatp1982
Rp1983
(dp1984
g12
Vaux
p1985
sbag0
(g1
g2
(lp1986
(lp1987
S'word: up, index: 6'
p1988
aatp1989
Rp1990
(dp1991
g12
Vprt
p1992
sbag0
(g1
g2
(lp1993
g0
(g1
g2
(lp1994
g0
(g1
g2
(lp1995
(lp1996
S'word: the, index: 8'
p1997
aatp1998
Rp1999
(dp2000
g12
Vdet
p2001
sbatp2002
Rp2003
(dp2004
g12
S'word: shore, index: 9'
p2005
sbatp2006
Rp2007
(dp2008
g12
Vprep
p2009
sbatp2010
Rp2011
(dp2012
g12
S'word: rolling, index: 5'
p2013
sbatp2014
Rp2015
(dp2016
g12
S'id: 21'
p2017
sbag0
(g1
g2
(lp2018
g0
(g1
g2
(lp2019
g0
(g1
g2
(lp2020
(lp2021
S'word: I, index: 2'
p2022
aatp2023
Rp2024
(dp2025
g12
Vnsubj
p2026
sbag0
(g1
g2
(lp2027
(lp2028
S'word: do, index: 3'
p2029
aatp2030
Rp2031
(dp2032
g12
Vaux
p2033
sbag0
(g1
g2
(lp2034
(lp2035
S"word: n't, index: 4"
p2036
aatp2037
Rp2038
(dp2039
g12
Vneg
p2040
sbag0
(g1
g2
(lp2041
g0
(g1
g2
(lp2042
g0
(g1
g2
(lp2043
(lp2044
S'word: what, index: 6'
p2045
aatp2046
Rp2047
(dp2048
g12
Vnsubj
p2049
sbag0
(g1
g2
(lp2050
(lp2051
S'word: to, index: 7'
p2052
aatp2053
Rp2054
(dp2055
g12
Vaux
p2056
sbag0
(g1
g2
(lp2057
(lp2058
S'word: it, index: 10'
p2059
aatp2060
Rp2061
(dp2062
g12
Vprep
p2063
sbatp2064
Rp2065
(dp2066
g12
S'word: say, index: 8'
p2067
sbatp2068
Rp2069
(dp2070
g12
Vccomp
p2071
sbag0
(g1
g2
(lp2072
(lp2073
S'word: And, index: 1'
p2074
aatp2075
Rp2076
(dp2077
g12
Vcc
p2078
sbatp2079
Rp2080
(dp2081
g12
S'word: know, index: 5'
p2082
sbatp2083
Rp2084
(dp2085
g12
S'id: 22'
p2086
sbag0
(g1
g2
(lp2087
g0
(g1
g2
(lp2088
g0
(g1
g2
(lp2089
(lp2090
S'word: that, index: 13'
p2091
aatp2092
Rp2093
(dp2094
g12
Vnsubj
p2095
sbag0
(g1
g2
(lp2096
g0
(g1
g2
(lp2097
g0
(g1
g2
(lp2098
(lp2099
S'word: maybe, index: 17'
p2100
aatp2101
Rp2102
(dp2103
g12
Vadvmod
p2104
sbag0
(g1
g2
(lp2105
g0
(g1
g2
(lp2106
g0
(g1
g2
(lp2107
g0
(g1
g2
(lp2108
g0
(g1
g2
(lp2109
(lp2110
S'word: a, index: 21'
p2111
aatp2112
Rp2113
(dp2114
g12
Vdet
p2115
sbag0
(g1
g2
(lp2116
g0
(g1
g2
(lp2117
g0
(g1
g2
(lp2118
(lp2119
S'word: the, index: 24'
p2120
aatp2121
Rp2122
(dp2123
g12
Vdet
p2124
sbatp2125
Rp2126
(dp2127
g12
S'word: sky, index: 25'
p2128
sbatp2129
Rp2130
(dp2131
g12
Vprep
p2132
sbatp2133
Rp2134
(dp2135
g12
S'word: bird, index: 22'
p2136
sbatp2137
Rp2138
(dp2139
g12
Vappos
p2140
sbag0
(g1
g2
(lp2141
(lp2142
S'word: a, index: 18'
p2143
aatp2144
Rp2145
(dp2146
g12
Vdet
p2147
sbatp2148
Rp2149
(dp2150
g12
S'word: speck, index: 19'
p2151
sbatp2152
Rp2153
(dp2154
g12
Vdep
p2155
sbatp2156
Rp2157
(dp2158
g12
S'word: one, index: 15'
p2159
sbatp2160
Rp2161
(dp2162
g12
Vdep
p2163
sbag0
(g1
g2
(lp2164
g0
(g1
g2
(lp2165
g0
(g1
g2
(lp2166
g0
(g1
g2
(lp2167
g0
(g1
g2
(lp2168
(lp2169
S'word: no, index: 5'
p2170
aatp2171
Rp2172
(dp2173
g12
Vneg
p2174
sbatp2175
Rp2176
(dp2177
g12
S'word: birds, index: 6'
p2178
sbatp2179
Rp2180
(dp2181
g12
Vdobj
p2182
sbag0
(g1
g2
(lp2183
g0
(g1
g2
(lp2184
g0
(g1
g2
(lp2185
(lp2186
S'word: maybe, index: 8'
p2187
aatp2188
Rp2189
(dp2190
g12
Vadvmod
p2191
sbag0
(g1
g2
(lp2192
(lp2193
S'word: there, index: 9'
p2194
aatp2195
Rp2196
(dp2197
g12
Vexpl
p2198
sbag0
(g1
g2
(lp2199
(lp2200
S'word: one, index: 11'
p2201
aatp2202
Rp2203
(dp2204
g12
Vnsubj
p2205
sbatp2206
Rp2207
(dp2208
g12
S"word: 's, index: 10"
p2209
sbatp2210
Rp2211
(dp2212
g12
Vparataxis
p2213
sbag0
(g1
g2
(lp2214
(lp2215
S'word: I, index: 1'
p2216
aatp2217
Rp2218
(dp2219
g12
Vnsubj
p2220
sbag0
(g1
g2
(lp2221
(lp2222
S'word: do, index: 2'
p2223
aatp2224
Rp2225
(dp2226
g12
Vaux
p2227
sbag0
(g1
g2
(lp2228
(lp2229
S"word: n't, index: 3"
p2230
aatp2231
Rp2232
(dp2233
g12
Vneg
p2234
sbatp2235
Rp2236
(dp2237
g12
S'word: see, index: 4'
p2238
sbatp2239
Rp2240
(dp2241
g12
Vccomp
p2242
sbatp2243
Rp2244
(dp2245
g12
S"word: 's, index: 14"
p2246
sbatp2247
Rp2248
(dp2249
g12
S'id: 23'
p2250
sbatp2251
Rp2252
(dp2253
g12
S'sentences'
p2254
sb.