ccopy_reg
_reconstructor
p0
(cnltk.tree
Tree
p1
c__builtin__
list
p2
(lp3
g0
(g1
g2
(lp4
g0
(g1
g2
(lp5
g0
(g1
g2
(lp6
g0
(g1
g2
(lp7
g0
(g1
g2
(lp8
VI
p9
atp10
Rp11
(dp12
S'_label'
p13
VPRP
p14
sbatp15
Rp16
(dp17
g13
VNP
p18
sbag0
(g1
g2
(lp19
g0
(g1
g2
(lp20
V've
p21
atp22
Rp23
(dp24
g13
VVBP
p25
sbag0
(g1
g2
(lp26
g0
(g1
g2
(lp27
Vnever
p28
atp29
Rp30
(dp31
g13
VRB
p32
sbatp33
Rp34
(dp35
g13
VADVP
p36
sbag0
(g1
g2
(lp37
g0
(g1
g2
(lp38
Vseen
p39
atp40
Rp41
(dp42
g13
VVBN
p43
sbag0
(g1
g2
(lp44
g0
(g1
g2
(lp45
Vthat
p46
atp47
Rp48
(dp49
g13
VIN
p50
sbag0
(g1
g2
(lp51
g0
(g1
g2
(lp52
g0
(g1
g2
(lp53
Vpicture
p54
atp55
Rp56
(dp57
g13
VNN
p58
sbatp59
Rp60
(dp61
g13
VNP
p62
sbatp63
Rp64
(dp65
g13
VFRAG
p66
sbatp67
Rp68
(dp69
g13
VSBAR
p70
sbatp71
Rp72
(dp73
g13
VVP
p74
sbatp75
Rp76
(dp77
g13
VVP
p78
sbatp79
Rp80
(dp81
g13
VS
p82
sbag0
(g1
g2
(lp83
V,
p84
atp85
Rp86
(dp87
g13
V,
p88
sbag0
(g1
g2
(lp89
Vbut
p90
atp91
Rp92
(dp93
g13
VCC
p94
sbag0
(g1
g2
(lp95
g0
(g1
g2
(lp96
g0
(g1
g2
(lp97
Vthey
p98
atp99
Rp100
(dp101
g13
VPRP
p102
sbatp103
Rp104
(dp105
g13
VNP
p106
sbag0
(g1
g2
(lp107
g0
(g1
g2
(lp108
Vlook
p109
atp110
Rp111
(dp112
g13
VVBP
p113
sbag0
(g1
g2
(lp114
g0
(g1
g2
(lp115
Vlike
p116
atp117
Rp118
(dp119
g13
VIN
p120
sbag0
(g1
g2
(lp121
g0
(g1
g2
(lp122
g0
(g1
g2
(lp123
Vthey
p124
atp125
Rp126
(dp127
g13
VPRP
p128
sbatp129
Rp130
(dp131
g13
VNP
p132
sbag0
(g1
g2
(lp133
g0
(g1
g2
(lp134
Vare
p135
atp136
Rp137
(dp138
g13
VVBP
p139
sbag0
(g1
g2
(lp140
g0
(g1
g2
(lp141
Vat
p142
atp143
Rp144
(dp145
g13
VIN
p146
sbag0
(g1
g2
(lp147
g0
(g1
g2
(lp148
g0
(g1
g2
(lp149
Va
p150
atp151
Rp152
(dp153
g13
VDT
p154
sbag0
(g1
g2
(lp155
Vlake
p156
atp157
Rp158
(dp159
g13
VNN
p160
sbatp161
Rp162
(dp163
g13
VNP
p164
sbag0
(g1
g2
(lp165
V,
p166
atp167
Rp168
(dp169
g13
V,
p170
sbag0
(g1
g2
(lp171
Vor
p172
atp173
Rp174
(dp175
g13
VCC
p176
sbag0
(g1
g2
(lp177
g0
(g1
g2
(lp178
Va
p179
atp180
Rp181
(dp182
g13
VDT
p183
sbag0
(g1
g2
(lp184
Vresort
p185
atp186
Rp187
(dp188
g13
VNN
p189
sbatp190
Rp191
(dp192
g13
VNP
p193
sbatp194
Rp195
(dp196
g13
VNP
p197
sbatp198
Rp199
(dp200
g13
VPP
p201
sbatp202
Rp203
(dp204
g13
VVP
p205
sbatp206
Rp207
(dp208
g13
VS
p209
sbatp210
Rp211
(dp212
g13
VSBAR
p213
sbatp214
Rp215
(dp216
g13
VVP
p217
sbatp218
Rp219
(dp220
g13
VS
p221
sbag0
(g1
g2
(lp222
V.
p223
atp224
Rp225
(dp226
g13
V.
p227
sbatp228
Rp229
(dp230
g13
VS
p231
sbatp232
Rp233
(dp234
g13
S'id: 0'
p235
sbag0
(g1
g2
(lp236
g0
(g1
g2
(lp237
g0
(g1
g2
(lp238
g0
(g1
g2
(lp239
g0
(g1
g2
(lp240
g0
(g1
g2
(lp241
VNow
p242
atp243
Rp244
(dp245
g13
VRB
p246
sbatp247
Rp248
(dp249
g13
VADVP
p250
sbag0
(g1
g2
(lp251
Voutside
p252
atp253
Rp254
(dp255
g13
VIN
p256
sbag0
(g1
g2
(lp257
g0
(g1
g2
(lp258
g0
(g1
g2
(lp259
Vhaving
p260
atp261
Rp262
(dp263
g13
VVBG
p264
sbag0
(g1
g2
(lp265
g0
(g1
g2
(lp266
Va
p267
atp268
Rp269
(dp270
g13
VDT
p271
sbag0
(g1
g2
(lp272
Vpicnic
p273
atp274
Rp275
(dp276
g13
VNN
p277
sbatp278
Rp279
(dp280
g13
VNP
p281
sbatp282
Rp283
(dp284
g13
VVP
p285
sbatp286
Rp287
(dp288
g13
VS
p289
sbatp290
Rp291
(dp292
g13
VPP
p293
sbatp294
Rp295
(dp296
g13
VS
p297
sbag0
(g1
g2
(lp298
V,
p299
atp300
Rp301
(dp302
g13
V,
p303
sbag0
(g1
g2
(lp304
Vand
p305
atp306
Rp307
(dp308
g13
VCC
p309
sbag0
(g1
g2
(lp310
g0
(g1
g2
(lp311
g0
(g1
g2
(lp312
Vlook
p313
atp314
Rp315
(dp316
g13
VVB
p317
sbag0
(g1
g2
(lp318
g0
(g1
g2
(lp319
Vlike
p320
atp321
Rp322
(dp323
g13
VIN
p324
sbag0
(g1
g2
(lp325
g0
(g1
g2
(lp326
g0
(g1
g2
(lp327
Vthere
p328
atp329
Rp330
(dp331
g13
VEX
p332
sbatp333
Rp334
(dp335
g13
VNP
p336
sbag0
(g1
g2
(lp337
g0
(g1
g2
(lp338
V's
p339
atp340
Rp341
(dp342
g13
VVBZ
p343
sbag0
(g1
g2
(lp344
g0
(g1
g2
(lp345
g0
(g1
g2
(lp346
Va
p347
atp348
Rp349
(dp350
g13
VDT
p351
sbag0
(g1
g2
(lp352
Vbottle
p353
atp354
Rp355
(dp356
g13
VNN
p357
sbatp358
Rp359
(dp360
g13
VNP
p361
sbag0
(g1
g2
(lp362
g0
(g1
g2
(lp363
Vof
p364
atp365
Rp366
(dp367
g13
VIN
p368
sbag0
(g1
g2
(lp369
g0
(g1
g2
(lp370
g0
(g1
g2
(lp371
Vwine
p372
atp373
Rp374
(dp375
g13
VNN
p376
sbatp377
Rp378
(dp379
g13
VNP
p380
sbag0
(g1
g2
(lp381
g0
(g1
g2
(lp382
g0
(g1
g2
(lp383
Vshe
p384
atp385
Rp386
(dp387
g13
VPRP
p388
sbatp389
Rp390
(dp391
g13
VNP
p392
sbag0
(g1
g2
(lp393
g0
(g1
g2
(lp394
Vpouring
p395
atp396
Rp397
(dp398
g13
VVBG
p399
sbag0
(g1
g2
(lp400
g0
(g1
g2
(lp401
Vin
p402
atp403
Rp404
(dp405
g13
VIN
p406
sbag0
(g1
g2
(lp407
g0
(g1
g2
(lp408
Vthat
p409
atp410
Rp411
(dp412
g13
VDT
p413
sbag0
(g1
g2
(lp414
Vglass
p415
atp416
Rp417
(dp418
g13
VNN
p419
sbatp420
Rp421
(dp422
g13
VNP
p423
sbatp424
Rp425
(dp426
g13
VPP
p427
sbatp428
Rp429
(dp430
g13
VVP
p431
sbatp432
Rp433
(dp434
g13
VS
p435
sbatp436
Rp437
(dp438
g13
VNP
p439
sbatp440
Rp441
(dp442
g13
VPP
p443
sbatp444
Rp445
(dp446
g13
VNP
p447
sbatp448
Rp449
(dp450
g13
VVP
p451
sbatp452
Rp453
(dp454
g13
VS
p455
sbatp456
Rp457
(dp458
g13
VSBAR
p459
sbatp460
Rp461
(dp462
g13
VVP
p463
sbatp464
Rp465
(dp466
g13
VS
p467
sbag0
(g1
g2
(lp468
V.
p469
atp470
Rp471
(dp472
g13
V.
p473
sbatp474
Rp475
(dp476
g13
VS
p477
sbatp478
Rp479
(dp480
g13
S'id: 1'
p481
sbag0
(g1
g2
(lp482
g0
(g1
g2
(lp483
g0
(g1
g2
(lp484
VAnd
p485
atp486
Rp487
(dp488
g13
VCC
p489
sbag0
(g1
g2
(lp490
g0
(g1
g2
(lp491
Vdaddy
p492
atp493
Rp494
(dp495
g13
VNN
p496
sbatp497
Rp498
(dp499
g13
VNP
p500
sbag0
(g1
g2
(lp501
g0
(g1
g2
(lp502
Vis
p503
atp504
Rp505
(dp506
g13
VVBZ
p507
sbag0
(g1
g2
(lp508
g0
(g1
g2
(lp509
Vreading
p510
atp511
Rp512
(dp513
g13
VVBG
p514
sbag0
(g1
g2
(lp515
g0
(g1
g2
(lp516
Va
p517
atp518
Rp519
(dp520
g13
VDT
p521
sbag0
(g1
g2
(lp522
Vstory
p523
atp524
Rp525
(dp526
g13
VNN
p527
sbatp528
Rp529
(dp530
g13
VNP
p531
sbatp532
Rp533
(dp534
g13
VVP
p535
sbatp536
Rp537
(dp538
g13
VVP
p539
sbag0
(g1
g2
(lp540
V.
p541
atp542
Rp543
(dp544
g13
V.
p545
sbatp546
Rp547
(dp548
g13
VS
p549
sbatp550
Rp551
(dp552
g13
S'id: 2'
p553
sbag0
(g1
g2
(lp554
g0
(g1
g2
(lp555
g0
(g1
g2
(lp556
VAnd
p557
atp558
Rp559
(dp560
g13
VCC
p561
sbag0
(g1
g2
(lp562
g0
(g1
g2
(lp563
Vthey
p564
atp565
Rp566
(dp567
g13
VPRP
p568
sbatp569
Rp570
(dp571
g13
VNP
p572
sbag0
(g1
g2
(lp573
g0
(g1
g2
(lp574
Vhave
p575
atp576
Rp577
(dp578
g13
VVBP
p579
sbag0
(g1
g2
(lp580
g0
(g1
g2
(lp581
Vmusic
p582
atp583
Rp584
(dp585
g13
VNN
p586
sbatp587
Rp588
(dp589
g13
VNP
p590
sbag0
(g1
g2
(lp591
g0
(g1
g2
(lp592
Vout
p593
atp594
Rp595
(dp596
g13
VIN
p597
sbag0
(g1
g2
(lp598
g0
(g1
g2
(lp599
Vthere
p600
atp601
Rp602
(dp603
g13
VRB
p604
sbatp605
Rp606
(dp607
g13
VNP
p608
sbatp609
Rp610
(dp611
g13
VPP
p612
sbatp613
Rp614
(dp615
g13
VVP
p616
sbag0
(g1
g2
(lp617
V.
p618
atp619
Rp620
(dp621
g13
V.
p622
sbatp623
Rp624
(dp625
g13
VS
p626
sbatp627
Rp628
(dp629
g13
S'id: 3'
p630
sbag0
(g1
g2
(lp631
g0
(g1
g2
(lp632
g0
(g1
g2
(lp633
g0
(g1
g2
(lp634
g0
(g1
g2
(lp635
VThe
p636
atp637
Rp638
(dp639
g13
VDT
p640
sbag0
(g1
g2
(lp641
Vdog
p642
atp643
Rp644
(dp645
g13
VNN
p646
sbatp647
Rp648
(dp649
g13
VNP
p650
sbag0
(g1
g2
(lp651
g0
(g1
g2
(lp652
Vis
p653
atp654
Rp655
(dp656
g13
VVBZ
p657
sbag0
(g1
g2
(lp658
g0
(g1
g2
(lp659
Vhaving
p660
atp661
Rp662
(dp663
g13
VVBG
p664
sbag0
(g1
g2
(lp665
g0
(g1
g2
(lp666
Va
p667
atp668
Rp669
(dp670
g13
VDT
p671
sbag0
(g1
g2
(lp672
Vgood
p673
atp674
Rp675
(dp676
g13
VJJ
p677
sbag0
(g1
g2
(lp678
Vtime
p679
atp680
Rp681
(dp682
g13
VNN
p683
sbatp684
Rp685
(dp686
g13
VNP
p687
sbatp688
Rp689
(dp690
g13
VVP
p691
sbatp692
Rp693
(dp694
g13
VVP
p695
sbatp696
Rp697
(dp698
g13
VS
p699
sbag0
(g1
g2
(lp700
V,
p701
atp702
Rp703
(dp704
g13
V,
p705
sbag0
(g1
g2
(lp706
Vand
p707
atp708
Rp709
(dp710
g13
VCC
p711
sbag0
(g1
g2
(lp712
g0
(g1
g2
(lp713
g0
(g1
g2
(lp714
g0
(g1
g2
(lp715
Vthe
p716
atp717
Rp718
(dp719
g13
VDT
p720
sbag0
(g1
g2
(lp721
Vlittle
p722
atp723
Rp724
(dp725
g13
VJJ
p726
sbag0
(g1
g2
(lp727
Vgirl
p728
atp729
Rp730
(dp731
g13
VNN
p732
sbatp733
Rp734
(dp735
g13
VNP
p736
sbag0
(g1
g2
(lp737
V,
p738
atp739
Rp740
(dp741
g13
V,
p742
sbag0
(g1
g2
(lp743
g0
(g1
g2
(lp744
g0
(g1
g2
(lp745
Vlittle
p746
atp747
Rp748
(dp749
g13
VJJ
p750
sbag0
(g1
g2
(lp751
Vsister
p752
atp753
Rp754
(dp755
g13
VNN
p756
sbatp757
Rp758
(dp759
g13
VNP
p760
sbag0
(g1
g2
(lp761
V's
p762
atp763
Rp764
(dp765
g13
VPOS
p766
sbatp767
Rp768
(dp769
g13
VNP
p770
sbatp771
Rp772
(dp773
g13
VNP
p774
sbag0
(g1
g2
(lp775
g0
(g1
g2
(lp776
Vhaving
p777
atp778
Rp779
(dp780
g13
VVBG
p781
sbag0
(g1
g2
(lp782
g0
(g1
g2
(lp783
g0
(g1
g2
(lp784
Va
p785
atp786
Rp787
(dp788
g13
VDT
p789
sbag0
(g1
g2
(lp790
Vgood
p791
atp792
Rp793
(dp794
g13
VJJ
p795
sbag0
(g1
g2
(lp796
Vtime
p797
atp798
Rp799
(dp800
g13
VNN
p801
sbatp802
Rp803
(dp804
g13
VNP
p805
sbag0
(g1
g2
(lp806
V,
p807
atp808
Rp809
(dp810
g13
V,
p811
sbag0
(g1
g2
(lp812
g0
(g1
g2
(lp813
Vmakin
p814
atp815
Rp816
(dp817
g13
VVB
p818
sbag0
(g1
g2
(lp819
g0
(g1
g2
(lp820
g0
(g1
g2
(lp821
Vher
p822
atp823
Rp824
(dp825
g13
VPRP
p826
sbatp827
Rp828
(dp829
g13
VNP
p830
sbag0
(g1
g2
(lp831
g0
(g1
g2
(lp832
Va
p833
atp834
Rp835
(dp836
g13
VDT
p837
sbag0
(g1
g2
(lp838
Vsandcastle
p839
atp840
Rp841
(dp842
g13
VNN
p843
sbatp844
Rp845
(dp846
g13
VNP
p847
sbatp848
Rp849
(dp850
g13
VS
p851
sbatp852
Rp853
(dp854
g13
VVP
p855
sbatp856
Rp857
(dp858
g13
VS
p859
sbatp860
Rp861
(dp862
g13
VVP
p863
sbatp864
Rp865
(dp866
g13
VS
p867
sbag0
(g1
g2
(lp868
V.
p869
atp870
Rp871
(dp872
g13
V.
p873
sbatp874
Rp875
(dp876
g13
VS
p877
sbatp878
Rp879
(dp880
g13
S'id: 4'
p881
sbag0
(g1
g2
(lp882
g0
(g1
g2
(lp883
g0
(g1
g2
(lp884
VAnd
p885
atp886
Rp887
(dp888
g13
VCC
p889
sbag0
(g1
g2
(lp890
g0
(g1
g2
(lp891
VI
p892
atp893
Rp894
(dp895
g13
VPRP
p896
sbatp897
Rp898
(dp899
g13
VNP
p900
sbag0
(g1
g2
(lp901
g0
(g1
g2
(lp902
Vsee
p903
atp904
Rp905
(dp906
g13
VVBP
p907
sbag0
(g1
g2
(lp908
g0
(g1
g2
(lp909
Vthat
p910
atp911
Rp912
(dp913
g13
VIN
p914
sbag0
(g1
g2
(lp915
g0
(g1
g2
(lp916
g0
(g1
g2
(lp917
Vthe
p918
atp919
Rp920
(dp921
g13
VDT
p922
sbag0
(g1
g2
(lp923
Vbrother
p924
atp925
Rp926
(dp927
g13
VNN
p928
sbatp929
Rp930
(dp931
g13
VNP
p932
sbag0
(g1
g2
(lp933
g0
(g1
g2
(lp934
Vis
p935
atp936
Rp937
(dp938
g13
VVBZ
p939
sbag0
(g1
g2
(lp940
g0
(g1
g2
(lp941
Vover
p942
atp943
Rp944
(dp945
g13
VIN
p946
sbag0
(g1
g2
(lp947
g0
(g1
g2
(lp948
g0
(g1
g2
(lp949
Vthere
p950
atp951
Rp952
(dp953
g13
VEX
p954
sbatp955
Rp956
(dp957
g13
VNP
p958
sbag0
(g1
g2
(lp959
g0
(g1
g2
(lp960
Vcatching
p961
atp962
Rp963
(dp964
g13
VVBG
p965
sbag0
(g1
g2
(lp966
g0
(g1
g2
(lp967
Vfish
p968
atp969
Rp970
(dp971
g13
VNN
p972
sbatp973
Rp974
(dp975
g13
VNP
p976
sbag0
(g1
g2
(lp977
g0
(g1
g2
(lp978
g0
(g1
g2
(lp979
Vto
p980
atp981
Rp982
(dp983
g13
VTO
p984
sbag0
(g1
g2
(lp985
g0
(g1
g2
(lp986
Vhave
p987
atp988
Rp989
(dp990
g13
VVB
p991
sbag0
(g1
g2
(lp992
g0
(g1
g2
(lp993
Vfor
p994
atp995
Rp996
(dp997
g13
VIN
p998
sbag0
(g1
g2
(lp999
g0
(g1
g2
(lp1000
Vtheir
p1001
atp1002
Rp1003
(dp1004
g13
VPRP$
p1005
sbag0
(g1
g2
(lp1006
Vsupper
p1007
atp1008
Rp1009
(dp1010
g13
VNN
p1011
sbatp1012
Rp1013
(dp1014
g13
VNP
p1015
sbatp1016
Rp1017
(dp1018
g13
VPP
p1019
sbatp1020
Rp1021
(dp1022
g13
VVP
p1023
sbatp1024
Rp1025
(dp1026
g13
VVP
p1027
sbatp1028
Rp1029
(dp1030
g13
VS
p1031
sbatp1032
Rp1033
(dp1034
g13
VVP
p1035
sbatp1036
Rp1037
(dp1038
g13
VS
p1039
sbatp1040
Rp1041
(dp1042
g13
VPP
p1043
sbatp1044
Rp1045
(dp1046
g13
VVP
p1047
sbatp1048
Rp1049
(dp1050
g13
VS
p1051
sbatp1052
Rp1053
(dp1054
g13
VSBAR
p1055
sbatp1056
Rp1057
(dp1058
g13
VVP
p1059
sbag0
(g1
g2
(lp1060
V.
p1061
atp1062
Rp1063
(dp1064
g13
V.
p1065
sbatp1066
Rp1067
(dp1068
g13
VS
p1069
sbatp1070
Rp1071
(dp1072
g13
S'id: 5'
p1073
sbag0
(g1
g2
(lp1074
g0
(g1
g2
(lp1075
g0
(g1
g2
(lp1076
g0
(g1
g2
(lp1077
VThan
p1078
atp1079
Rp1080
(dp1081
g13
VIN
p1082
sbag0
(g1
g2
(lp1083
g0
(g1
g2
(lp1084
g0
(g1
g2
(lp1085
g0
(g1
g2
(lp1086
Vlittle
p1087
atp1088
Rp1089
(dp1090
g13
VJJ
p1091
sbag0
(g1
g2
(lp1092
Vbrother
p1093
atp1094
Rp1095
(dp1096
g13
VNN
p1097
sbatp1098
Rp1099
(dp1100
g13
VNP
p1101
sbag0
(g1
g2
(lp1102
g0
(g1
g2
(lp1103
Vis
p1104
atp1105
Rp1106
(dp1107
g13
VVBZ
p1108
sbag0
(g1
g2
(lp1109
g0
(g1
g2
(lp1110
Vflying
p1111
atp1112
Rp1113
(dp1114
g13
VVBG
p1115
sbag0
(g1
g2
(lp1116
g0
(g1
g2
(lp1117
Vhis
p1118
atp1119
Rp1120
(dp1121
g13
VPRP$
p1122
sbag0
(g1
g2
(lp1123
Vkite
p1124
atp1125
Rp1126
(dp1127
g13
VNN
p1128
sbatp1129
Rp1130
(dp1131
g13
VNP
p1132
sbatp1133
Rp1134
(dp1135
g13
VVP
p1136
sbatp1137
Rp1138
(dp1139
g13
VVP
p1140
sbatp1141
Rp1142
(dp1143
g13
VS
p1144
sbag0
(g1
g2
(lp1145
V,
p1146
atp1147
Rp1148
(dp1149
g13
V,
p1150
sbag0
(g1
g2
(lp1151
Vand
p1152
atp1153
Rp1154
(dp1155
g13
VCC
p1156
sbag0
(g1
g2
(lp1157
g0
(g1
g2
(lp1158
g0
(g1
g2
(lp1159
Vthe
p1160
atp1161
Rp1162
(dp1163
g13
VDT
p1164
sbag0
(g1
g2
(lp1165
Vsailboat
p1166
atp1167
Rp1168
(dp1169
g13
VNN
p1170
sbatp1171
Rp1172
(dp1173
g13
VNP
p1174
sbag0
(g1
g2
(lp1175
g0
(g1
g2
(lp1176
Vis
p1177
atp1178
Rp1179
(dp1180
g13
VVBZ
p1181
sbag0
(g1
g2
(lp1182
g0
(g1
g2
(lp1183
Vsailing
p1184
atp1185
Rp1186
(dp1187
g13
VNN
p1188
sbatp1189
Rp1190
(dp1191
g13
VNP
p1192
sbatp1193
Rp1194
(dp1195
g13
VVP
p1196
sbatp1197
Rp1198
(dp1199
g13
VS
p1200
sbatp1201
Rp1202
(dp1203
g13
VS
p1204
sbatp1205
Rp1206
(dp1207
g13
VSBAR
p1208
sbag0
(g1
g2
(lp1209
V.
p1210
atp1211
Rp1212
(dp1213
g13
V.
p1214
sbatp1215
Rp1216
(dp1217
g13
VFRAG
p1218
sbatp1219
Rp1220
(dp1221
g13
S'id: 6'
p1222
sbag0
(g1
g2
(lp1223
g0
(g1
g2
(lp1224
g0
(g1
g2
(lp1225
VAnd
p1226
atp1227
Rp1228
(dp1229
g13
VCC
p1230
sbag0
(g1
g2
(lp1231
g0
(g1
g2
(lp1232
Vit
p1233
atp1234
Rp1235
(dp1236
g13
VPRP
p1237
sbatp1238
Rp1239
(dp1240
g13
VNP
p1241
sbag0
(g1
g2
(lp1242
g0
(g1
g2
(lp1243
V's
p1244
atp1245
Rp1246
(dp1247
g13
VVBZ
p1248
sbag0
(g1
g2
(lp1249
g0
(g1
g2
(lp1250
Va
p1251
atp1252
Rp1253
(dp1254
g13
VDT
p1255
sbag0
(g1
g2
(lp1256
Vbeautiful
p1257
atp1258
Rp1259
(dp1260
g13
VJJ
p1261
sbag0
(g1
g2
(lp1262
Vday
p1263
atp1264
Rp1265
(dp1266
g13
VNN
p1267
sbatp1268
Rp1269
(dp1270
g13
VNP
p1271
sbatp1272
Rp1273
(dp1274
g13
VVP
p1275
sbag0
(g1
g2
(lp1276
V.
p1277
atp1278
Rp1279
(dp1280
g13
V.
p1281
sbatp1282
Rp1283
(dp1284
g13
VS
p1285
sbatp1286
Rp1287
(dp1288
g13
S'id: 7'
p1289
sbag0
(g1
g2
(lp1290
g0
(g1
g2
(lp1291
g0
(g1
g2
(lp1292
VAnd
p1293
atp1294
Rp1295
(dp1296
g13
VCC
p1297
sbag0
(g1
g2
(lp1298
g0
(g1
g2
(lp1299
g0
(g1
g2
(lp1300
g0
(g1
g2
(lp1301
Vthe
p1302
atp1303
Rp1304
(dp1305
g13
VDT
p1306
sbag0
(g1
g2
(lp1307
Vhouse
p1308
atp1309
Rp1310
(dp1311
g13
VNN
p1312
sbatp1313
Rp1314
(dp1315
g13
VNP
p1316
sbag0
(g1
g2
(lp1317
V,
p1318
atp1319
Rp1320
(dp1321
g13
V,
p1322
sbag0
(g1
g2
(lp1323
g0
(g1
g2
(lp1324
g0
(g1
g2
(lp1325
Vthe
p1326
atp1327
Rp1328
(dp1329
g13
VDT
p1330
sbag0
(g1
g2
(lp1331
Vcar
p1332
atp1333
Rp1334
(dp1335
g13
VNN
p1336
sbatp1337
Rp1338
(dp1339
g13
VNP
p1340
sbag0
(g1
g2
(lp1341
g0
(g1
g2
(lp1342
g0
(g1
g2
(lp1343
Vthat
p1344
atp1345
Rp1346
(dp1347
g13
VWDT
p1348
sbatp1349
Rp1350
(dp1351
g13
VWHNP
p1352
sbag0
(g1
g2
(lp1353
g0
(g1
g2
(lp1354
g0
(g1
g2
(lp1355
V's
p1356
atp1357
Rp1358
(dp1359
g13
VVBZ
p1360
sbag0
(g1
g2
(lp1361
g0
(g1
g2
(lp1362
Vat
p1363
atp1364
Rp1365
(dp1366
g13
VIN
p1367
sbag0
(g1
g2
(lp1368
g0
(g1
g2
(lp1369
Vthe
p1370
atp1371
Rp1372
(dp1373
g13
VDT
p1374
sbag0
(g1
g2
(lp1375
Vhouse
p1376
atp1377
Rp1378
(dp1379
g13
VNN
p1380
sbatp1381
Rp1382
(dp1383
g13
VNP
p1384
sbatp1385
Rp1386
(dp1387
g13
VPP
p1388
sbatp1389
Rp1390
(dp1391
g13
VVP
p1392
sbatp1393
Rp1394
(dp1395
g13
VS
p1396
sbatp1397
Rp1398
(dp1399
g13
VSBAR
p1400
sbatp1401
Rp1402
(dp1403
g13
VNP
p1404
sbag0
(g1
g2
(lp1405
V,
p1406
atp1407
Rp1408
(dp1409
g13
V,
p1410
sbatp1411
Rp1412
(dp1413
g13
VNP
p1414
sbag0
(g1
g2
(lp1415
g0
(g1
g2
(lp1416
Vis
p1417
atp1418
Rp1419
(dp1420
g13
VVBZ
p1421
sbag0
(g1
g2
(lp1422
g0
(g1
g2
(lp1423
g0
(g1
g2
(lp1424
Vthe
p1425
atp1426
Rp1427
(dp1428
g13
VDT
p1429
sbag0
(g1
g2
(lp1430
Vcar
p1431
atp1432
Rp1433
(dp1434
g13
VNN
p1435
sbatp1436
Rp1437
(dp1438
g13
VNP
p1439
sbag0
(g1
g2
(lp1440
g0
(g1
g2
(lp1441
g0
(g1
g2
(lp1442
g0
(g1
g2
(lp1443
Vthey
p1444
atp1445
Rp1446
(dp1447
g13
VPRP
p1448
sbatp1449
Rp1450
(dp1451
g13
VNP
p1452
sbag0
(g1
g2
(lp1453
g0
(g1
g2
(lp1454
Vdrove
p1455
atp1456
Rp1457
(dp1458
g13
VVBD
p1459
sbag0
(g1
g2
(lp1460
g0
(g1
g2
(lp1461
Vto
p1462
atp1463
Rp1464
(dp1465
g13
VTO
p1466
sbag0
(g1
g2
(lp1467
g0
(g1
g2
(lp1468
Vthe
p1469
atp1470
Rp1471
(dp1472
g13
VDT
p1473
sbatp1474
Rp1475
(dp1476
g13
VNP
p1477
sbatp1478
Rp1479
(dp1480
g13
VPP
p1481
sbatp1482
Rp1483
(dp1484
g13
VVP
p1485
sbatp1486
Rp1487
(dp1488
g13
VS
p1489
sbatp1490
Rp1491
(dp1492
g13
VSBAR
p1493
sbatp1494
Rp1495
(dp1496
g13
VNP
p1497
sbatp1498
Rp1499
(dp1500
g13
VVP
p1501
sbatp1502
Rp1503
(dp1504
g13
VS
p1505
sbag0
(g1
g2
(lp1506
g0
(g1
g2
(lp1507
V,
p1508
atp1509
Rp1510
(dp1511
g13
V,
p1512
sbag0
(g1
g2
(lp1513
g0
(g1
g2
(lp1514
g0
(g1
g2
(lp1515
VI
p1516
atp1517
Rp1518
(dp1519
g13
VPRP
p1520
sbatp1521
Rp1522
(dp1523
g13
VNP
p1524
sbag0
(g1
g2
(lp1525
g0
(g1
g2
(lp1526
Vsaid
p1527
atp1528
Rp1529
(dp1530
g13
VVBD
p1531
sbag0
(g1
g2
(lp1532
g0
(g1
g2
(lp1533
g0
(g1
g2
(lp1534
Vthe
p1535
atp1536
Rp1537
(dp1538
g13
VDT
p1539
sbag0
(g1
g2
(lp1540
Vresort
p1541
atp1542
Rp1543
(dp1544
g13
VNN
p1545
sbatp1546
Rp1547
(dp1548
g13
VNP
p1549
sbag0
(g1
g2
(lp1550
V,
p1551
atp1552
Rp1553
(dp1554
g13
V,
p1555
sbag0
(g1
g2
(lp1556
g0
(g1
g2
(lp1557
g0
(g1
g2
(lp1558
Vresort
p1559
atp1560
Rp1561
(dp1562
g13
VNN
p1563
sbatp1564
Rp1565
(dp1566
g13
VNP
p1567
sbag0
(g1
g2
(lp1568
g0
(g1
g2
(lp1569
Vthe
p1570
atp1571
Rp1572
(dp1573
g13
VDT
p1574
sbag0
(g1
g2
(lp1575
Vfirst
p1576
atp1577
Rp1578
(dp1579
g13
VJJ
p1580
sbag0
(g1
g2
(lp1581
Vtime
p1582
atp1583
Rp1584
(dp1585
g13
VNN
p1586
sbatp1587
Rp1588
(dp1589
g13
VNP
p1590
sbatp1591
Rp1592
(dp1593
g13
VNP
p1594
sbatp1595
Rp1596
(dp1597
g13
VNP
p1598
sbatp1599
Rp1600
(dp1601
g13
VVP
p1602
sbatp1603
Rp1604
(dp1605
g13
VS
p1606
sbag0
(g1
g2
(lp1607
V,
p1608
atp1609
Rp1610
(dp1611
g13
V,
p1612
sbatp1613
Rp1614
(dp1615
g13
VPRN
p1616
sbag0
(g1
g2
(lp1617
Vbut
p1618
atp1619
Rp1620
(dp1621
g13
VCC
p1622
sbag0
(g1
g2
(lp1623
g0
(g1
g2
(lp1624
g0
(g1
g2
(lp1625
Vthat
p1626
atp1627
Rp1628
(dp1629
g13
VDT
p1630
sbatp1631
Rp1632
(dp1633
g13
VNP
p1634
sbag0
(g1
g2
(lp1635
g0
(g1
g2
(lp1636
Vlooks
p1637
atp1638
Rp1639
(dp1640
g13
VVBZ
p1641
sbag0
(g1
g2
(lp1642
g0
(g1
g2
(lp1643
Vlike
p1644
atp1645
Rp1646
(dp1647
g13
VIN
p1648
sbag0
(g1
g2
(lp1649
g0
(g1
g2
(lp1650
g0
(g1
g2
(lp1651
Vit
p1652
atp1653
Rp1654
(dp1655
g13
VPRP
p1656
sbatp1657
Rp1658
(dp1659
g13
VNP
p1660
sbag0
(g1
g2
(lp1661
g0
(g1
g2
(lp1662
V's
p1663
atp1664
Rp1665
(dp1666
g13
VVBZ
p1667
sbag0
(g1
g2
(lp1668
g0
(g1
g2
(lp1669
Vjust
p1670
atp1671
Rp1672
(dp1673
g13
VRB
p1674
sbatp1675
Rp1676
(dp1677
g13
VADVP
p1678
sbag0
(g1
g2
(lp1679
g0
(g1
g2
(lp1680
g0
(g1
g2
(lp1681
Va
p1682
atp1683
Rp1684
(dp1685
g13
VDT
p1686
sbag0
(g1
g2
(lp1687
Vhouse
p1688
atp1689
Rp1690
(dp1691
g13
VNN
p1692
sbatp1693
Rp1694
(dp1695
g13
VNP
p1696
sbag0
(g1
g2
(lp1697
g0
(g1
g2
(lp1698
Von
p1699
atp1700
Rp1701
(dp1702
g13
VIN
p1703
sbag0
(g1
g2
(lp1704
g0
(g1
g2
(lp1705
Vthe
p1706
atp1707
Rp1708
(dp1709
g13
VDT
p1710
sbag0
(g1
g2
(lp1711
Vlake
p1712
atp1713
Rp1714
(dp1715
g13
VNN
p1716
sbatp1717
Rp1718
(dp1719
g13
VNP
p1720
sbatp1721
Rp1722
(dp1723
g13
VPP
p1724
sbatp1725
Rp1726
(dp1727
g13
VNP
p1728
sbatp1729
Rp1730
(dp1731
g13
VVP
p1732
sbatp1733
Rp1734
(dp1735
g13
VS
p1736
sbatp1737
Rp1738
(dp1739
g13
VSBAR
p1740
sbatp1741
Rp1742
(dp1743
g13
VVP
p1744
sbatp1745
Rp1746
(dp1747
g13
VS
p1748
sbag0
(g1
g2
(lp1749
V.
p1750
atp1751
Rp1752
(dp1753
g13
V.
p1754
sbatp1755
Rp1756
(dp1757
g13
VS
p1758
sbatp1759
Rp1760
(dp1761
g13
S'id: 8'
p1762
sbag0
(g1
g2
(lp1763
g0
(g1
g2
(lp1764
g0
(g1
g2
(lp1765
VAnd
p1766
atp1767
Rp1768
(dp1769
g13
VCC
p1770
sbag0
(g1
g2
(lp1771
g0
(g1
g2
(lp1772
Vdog
p1773
atp1774
Rp1775
(dp1776
g13
VNN
p1777
sbatp1778
Rp1779
(dp1780
g13
VNP
p1781
sbag0
(g1
g2
(lp1782
g0
(g1
g2
(lp1783
Vneeds
p1784
atp1785
Rp1786
(dp1787
g13
VVBZ
p1788
sbag0
(g1
g2
(lp1789
g0
(g1
g2
(lp1790
g0
(g1
g2
(lp1791
Vsome
p1792
atp1793
Rp1794
(dp1795
g13
VDT
p1796
sbag0
(g1
g2
(lp1797
Vwater
p1798
atp1799
Rp1800
(dp1801
g13
VNN
p1802
sbatp1803
Rp1804
(dp1805
g13
VNP
p1806
sbag0
(g1
g2
(lp1807
g0
(g1
g2
(lp1808
Vcause
p1809
atp1810
Rp1811
(dp1812
g13
VVB
p1813
sbag0
(g1
g2
(lp1814
g0
(g1
g2
(lp1815
Vhis
p1816
atp1817
Rp1818
(dp1819
g13
VPRP$
p1820
sbag0
(g1
g2
(lp1821
Vtongue
p1822
atp1823
Rp1824
(dp1825
g13
VNN
p1826
sbag0
(g1
g2
(lp1827
Vhangin
p1828
atp1829
Rp1830
(dp1831
g13
VNN
p1832
sbatp1833
Rp1834
(dp1835
g13
VNP
p1836
sbag0
(g1
g2
(lp1837
g0
(g1
g2
(lp1838
Vout
p1839
atp1840
Rp1841
(dp1842
g13
VIN
p1843
sbag0
(g1
g2
(lp1844
g0
(g1
g2
(lp1845
Vhis
p1846
atp1847
Rp1848
(dp1849
g13
VPRP$
p1850
sbag0
(g1
g2
(lp1851
Vmouth
p1852
atp1853
Rp1854
(dp1855
g13
VNN
p1856
sbatp1857
Rp1858
(dp1859
g13
VNP
p1860
sbatp1861
Rp1862
(dp1863
g13
VPP
p1864
sbatp1865
Rp1866
(dp1867
g13
VVP
p1868
sbatp1869
Rp1870
(dp1871
g13
VS
p1872
sbatp1873
Rp1874
(dp1875
g13
VVP
p1876
sbag0
(g1
g2
(lp1877
V.
p1878
atp1879
Rp1880
(dp1881
g13
V.
p1882
sbatp1883
Rp1884
(dp1885
g13
VS
p1886
sbatp1887
Rp1888
(dp1889
g13
S'id: 9'
p1890
sbag0
(g1
g2
(lp1891
g0
(g1
g2
(lp1892
g0
(g1
g2
(lp1893
VAnd
p1894
atp1895
Rp1896
(dp1897
g13
VCC
p1898
sbag0
(g1
g2
(lp1899
g0
(g1
g2
(lp1900
Vthey
p1901
atp1902
Rp1903
(dp1904
g13
VPRP
p1905
sbatp1906
Rp1907
(dp1908
g13
VNP
p1909
sbag0
(g1
g2
(lp1910
g0
(g1
g2
(lp1911
Vhave
p1912
atp1913
Rp1914
(dp1915
g13
VVBP
p1916
sbag0
(g1
g2
(lp1917
g0
(g1
g2
(lp1918
g0
(g1
g2
(lp1919
Va
p1920
atp1921
Rp1922
(dp1923
g13
VDT
p1924
sbag0
(g1
g2
(lp1925
Vlittle
p1926
atp1927
Rp1928
(dp1929
g13
VJJ
p1930
sbag0
(g1
g2
(lp1931
Vmusic
p1932
atp1933
Rp1934
(dp1935
g13
VNN
p1936
sbatp1937
Rp1938
(dp1939
g13
VNP
p1940
sbag0
(g1
g2
(lp1941
g0
(g1
g2
(lp1942
Vat
p1943
atp1944
Rp1945
(dp1946
g13
VIN
p1947
sbag0
(g1
g2
(lp1948
g0
(g1
g2
(lp1949
Vthere
p1950
atp1951
Rp1952
(dp1953
g13
VEX
p1954
sbatp1955
Rp1956
(dp1957
g13
VNP
p1958
sbatp1959
Rp1960
(dp1961
g13
VPP
p1962
sbatp1963
Rp1964
(dp1965
g13
VNP
p1966
sbag0
(g1
g2
(lp1967
g0
(g1
g2
(lp1968
Vby
p1969
atp1970
Rp1971
(dp1972
g13
VIN
p1973
sbag0
(g1
g2
(lp1974
g0
(g1
g2
(lp1975
Vmother
p1976
atp1977
Rp1978
(dp1979
g13
VNN
p1980
sbatp1981
Rp1982
(dp1983
g13
VNP
p1984
sbatp1985
Rp1986
(dp1987
g13
VPP
p1988
sbatp1989
Rp1990
(dp1991
g13
VVP
p1992
sbag0
(g1
g2
(lp1993
V.
p1994
atp1995
Rp1996
(dp1997
g13
V.
p1998
sbatp1999
Rp2000
(dp2001
g13
VS
p2002
sbatp2003
Rp2004
(dp2005
g13
S'id: 10'
p2006
sbag0
(g1
g2
(lp2007
g0
(g1
g2
(lp2008
g0
(g1
g2
(lp2009
VAnd
p2010
atp2011
Rp2012
(dp2013
g13
VCC
p2014
sbag0
(g1
g2
(lp2015
g0
(g1
g2
(lp2016
Vit
p2017
atp2018
Rp2019
(dp2020
g13
VPRP
p2021
sbatp2022
Rp2023
(dp2024
g13
VNP
p2025
sbag0
(g1
g2
(lp2026
g0
(g1
g2
(lp2027
V's
p2028
atp2029
Rp2030
(dp2031
g13
VVBZ
p2032
sbag0
(g1
g2
(lp2033
g0
(g1
g2
(lp2034
g0
(g1
g2
(lp2035
Va
p2036
atp2037
Rp2038
(dp2039
g13
VDT
p2040
sbag0
(g1
g2
(lp2041
Vlittle
p2042
atp2043
Rp2044
(dp2045
g13
VJJ
p2046
sbatp2047
Rp2048
(dp2049
g13
VNP
p2050
sbag0
(g1
g2
(lp2051
Vwarm
p2052
atp2053
Rp2054
(dp2055
g13
VJJ
p2056
sbatp2057
Rp2058
(dp2059
g13
VADJP
p2060
sbag0
(g1
g2
(lp2061
g0
(g1
g2
(lp2062
g0
(g1
g2
(lp2063
Vtoo
p2064
atp2065
Rp2066
(dp2067
g13
VRB
p2068
sbatp2069
Rp2070
(dp2071
g13
VADVP
p2072
sbag0
(g1
g2
(lp2073
g0
(g1
g2
(lp2074
Vcause
p2075
atp2076
Rp2077
(dp2078
g13
VVB
p2079
sbag0
(g1
g2
(lp2080
g0
(g1
g2
(lp2081
g0
(g1
g2
(lp2082
g0
(g1
g2
(lp2083
Veverybody
p2084
atp2085
Rp2086
(dp2087
g13
VNN
p2088
sbatp2089
Rp2090
(dp2091
g13
VNP
p2092
sbag0
(g1
g2
(lp2093
g0
(g1
g2
(lp2094
Vhave
p2095
atp2096
Rp2097
(dp2098
g13
VVBP
p2099
sbag0
(g1
g2
(lp2100
g0
(g1
g2
(lp2101
g0
(g1
g2
(lp2102
Von
p2103
atp2104
Rp2105
(dp2106
g13
VIN
p2107
sbag0
(g1
g2
(lp2108
g0
(g1
g2
(lp2109
Vshorts
p2110
atp2111
Rp2112
(dp2113
g13
VNNS
p2114
sbatp2115
Rp2116
(dp2117
g13
VNP
p2118
sbatp2119
Rp2120
(dp2121
g13
VPP
p2122
sbatp2123
Rp2124
(dp2125
g13
VVP
p2126
sbatp2127
Rp2128
(dp2129
g13
VVP
p2130
sbatp2131
Rp2132
(dp2133
g13
VS
p2134
sbatp2135
Rp2136
(dp2137
g13
VSBAR
p2138
sbatp2139
Rp2140
(dp2141
g13
VVP
p2142
sbatp2143
Rp2144
(dp2145
g13
VS
p2146
sbag0
(g1
g2
(lp2147
V,
p2148
atp2149
Rp2150
(dp2151
g13
V,
p2152
sbag0
(g1
g2
(lp2153
g0
(g1
g2
(lp2154
Vexcept
p2155
atp2156
Rp2157
(dp2158
g13
VIN
p2159
sbag0
(g1
g2
(lp2160
g0
(g1
g2
(lp2161
Vfor
p2162
atp2163
Rp2164
(dp2165
g13
VIN
p2166
sbag0
(g1
g2
(lp2167
g0
(g1
g2
(lp2168
Vthe
p2169
atp2170
Rp2171
(dp2172
g13
VDT
p2173
sbag0
(g1
g2
(lp2174
Vfisherman
p2175
atp2176
Rp2177
(dp2178
g13
VNN
p2179
sbatp2180
Rp2181
(dp2182
g13
VNP
p2183
sbatp2184
Rp2185
(dp2186
g13
VPP
p2187
sbatp2188
Rp2189
(dp2190
g13
VPP
p2191
sbatp2192
Rp2193
(dp2194
g13
VVP
p2195
sbag0
(g1
g2
(lp2196
V.
p2197
atp2198
Rp2199
(dp2200
g13
V.
p2201
sbatp2202
Rp2203
(dp2204
g13
VS
p2205
sbatp2206
Rp2207
(dp2208
g13
S'id: 11'
p2209
sbag0
(g1
g2
(lp2210
g0
(g1
g2
(lp2211
g0
(g1
g2
(lp2212
VAnd
p2213
atp2214
Rp2215
(dp2216
g13
VCC
p2217
sbag0
(g1
g2
(lp2218
g0
(g1
g2
(lp2219
Vthe
p2220
atp2221
Rp2222
(dp2223
g13
VDT
p2224
sbag0
(g1
g2
(lp2225
VUnited
p2226
atp2227
Rp2228
(dp2229
g13
VNNP
p2230
sbag0
(g1
g2
(lp2231
VStates
p2232
atp2233
Rp2234
(dp2235
g13
VNNPS
p2236
sbag0
(g1
g2
(lp2237
Vflag
p2238
atp2239
Rp2240
(dp2241
g13
VNN
p2242
sbatp2243
Rp2244
(dp2245
g13
VNP
p2246
sbag0
(g1
g2
(lp2247
g0
(g1
g2
(lp2248
Vis
p2249
atp2250
Rp2251
(dp2252
g13
VVBZ
p2253
sbag0
(g1
g2
(lp2254
g0
(g1
g2
(lp2255
Vflying
p2256
atp2257
Rp2258
(dp2259
g13
VVBG
p2260
sbag0
(g1
g2
(lp2261
V,
p2262
atp2263
Rp2264
(dp2265
g13
V,
p2266
sbag0
(g1
g2
(lp2267
g0
(g1
g2
(lp2268
Vover
p2269
atp2270
Rp2271
(dp2272
g13
VIN
p2273
sbag0
(g1
g2
(lp2274
g0
(g1
g2
(lp2275
Vthe
p2276
atp2277
Rp2278
(dp2279
g13
VDT
p2280
sbag0
(g1
g2
(lp2281
Vhouse
p2282
atp2283
Rp2284
(dp2285
g13
VNN
p2286
sbatp2287
Rp2288
(dp2289
g13
VNP
p2290
sbatp2291
Rp2292
(dp2293
g13
VPP
p2294
sbatp2295
Rp2296
(dp2297
g13
VVP
p2298
sbatp2299
Rp2300
(dp2301
g13
VVP
p2302
sbag0
(g1
g2
(lp2303
V.
p2304
atp2305
Rp2306
(dp2307
g13
V.
p2308
sbatp2309
Rp2310
(dp2311
g13
VS
p2312
sbatp2313
Rp2314
(dp2315
g13
S'id: 12'
p2316
sbag0
(g1
g2
(lp2317
g0
(g1
g2
(lp2318
g0
(g1
g2
(lp2319
VAnd
p2320
atp2321
Rp2322
(dp2323
g13
VCC
p2324
sbag0
(g1
g2
(lp2325
g0
(g1
g2
(lp2326
Vthe
p2327
atp2328
Rp2329
(dp2330
g13
VDT
p2331
sbag0
(g1
g2
(lp2332
Vtrees
p2333
atp2334
Rp2335
(dp2336
g13
VNNS
p2337
sbatp2338
Rp2339
(dp2340
g13
VNP
p2341
sbag0
(g1
g2
(lp2342
g0
(g1
g2
(lp2343
Vare
p2344
atp2345
Rp2346
(dp2347
g13
VVBP
p2348
sbag0
(g1
g2
(lp2349
g0
(g1
g2
(lp2350
Vgreen
p2351
atp2352
Rp2353
(dp2354
g13
VJJ
p2355
sbatp2356
Rp2357
(dp2358
g13
VADJP
p2359
sbatp2360
Rp2361
(dp2362
g13
VVP
p2363
sbag0
(g1
g2
(lp2364
V.
p2365
atp2366
Rp2367
(dp2368
g13
V.
p2369
sbatp2370
Rp2371
(dp2372
g13
VS
p2373
sbatp2374
Rp2375
(dp2376
g13
S'id: 13'
p2377
sbag0
(g1
g2
(lp2378
g0
(g1
g2
(lp2379
g0
(g1
g2
(lp2380
VAnd
p2381
atp2382
Rp2383
(dp2384
g13
VCC
p2385
sbag0
(g1
g2
(lp2386
g0
(g1
g2
(lp2387
Vthere
p2388
atp2389
Rp2390
(dp2391
g13
VEX
p2392
sbatp2393
Rp2394
(dp2395
g13
VNP
p2396
sbag0
(g1
g2
(lp2397
g0
(g1
g2
(lp2398
V's
p2399
atp2400
Rp2401
(dp2402
g13
VVBZ
p2403
sbag0
(g1
g2
(lp2404
g0
(g1
g2
(lp2405
g0
(g1
g2
(lp2406
Va
p2407
atp2408
Rp2409
(dp2410
g13
VDT
p2411
sbag0
(g1
g2
(lp2412
VChristmas
p2413
atp2414
Rp2415
(dp2416
g13
VNNP
p2417
sbag0
(g1
g2
(lp2418
Vtree
p2419
atp2420
Rp2421
(dp2422
g13
VNN
p2423
sbatp2424
Rp2425
(dp2426
g13
VNP
p2427
sbag0
(g1
g2
(lp2428
g0
(g1
g2
(lp2429
Vby
p2430
atp2431
Rp2432
(dp2433
g13
VIN
p2434
sbag0
(g1
g2
(lp2435
g0
(g1
g2
(lp2436
Vthe
p2437
atp2438
Rp2439
(dp2440
g13
VDT
p2441
sbag0
(g1
g2
(lp2442
Vhouse
p2443
atp2444
Rp2445
(dp2446
g13
VNN
p2447
sbatp2448
Rp2449
(dp2450
g13
VNP
p2451
sbatp2452
Rp2453
(dp2454
g13
VPP
p2455
sbatp2456
Rp2457
(dp2458
g13
VNP
p2459
sbatp2460
Rp2461
(dp2462
g13
VVP
p2463
sbag0
(g1
g2
(lp2464
V.
p2465
atp2466
Rp2467
(dp2468
g13
V.
p2469
sbatp2470
Rp2471
(dp2472
g13
VS
p2473
sbatp2474
Rp2475
(dp2476
g13
S'id: 14'
p2477
sbag0
(g1
g2
(lp2478
g0
(g1
g2
(lp2479
g0
(g1
g2
(lp2480
VAnd
p2481
atp2482
Rp2483
(dp2484
g13
VCC
p2485
sbag0
(g1
g2
(lp2486
g0
(g1
g2
(lp2487
g0
(g1
g2
(lp2488
VI
p2489
atp2490
Rp2491
(dp2492
g13
VPRP
p2493
sbatp2494
Rp2495
(dp2496
g13
VNP
p2497
sbag0
(g1
g2
(lp2498
g0
(g1
g2
(lp2499
Vguess
p2500
atp2501
Rp2502
(dp2503
g13
VVBP
p2504
sbag0
(g1
g2
(lp2505
g0
(g1
g2
(lp2506
g0
(g1
g2
(lp2507
g0
(g1
g2
(lp2508
Vthe
p2509
atp2510
Rp2511
(dp2512
g13
VDT
p2513
sbag0
(g1
g2
(lp2514
Vroads
p2515
atp2516
Rp2517
(dp2518
g13
VNNS
p2519
sbatp2520
Rp2521
(dp2522
g13
VNP
p2523
sbag0
(g1
g2
(lp2524
g0
(g1
g2
(lp2525
Vare
p2526
atp2527
Rp2528
(dp2529
g13
VVBP
p2530
sbag0
(g1
g2
(lp2531
g0
(g1
g2
(lp2532
Vpaved
p2533
atp2534
Rp2535
(dp2536
g13
VVBN
p2537
sbatp2538
Rp2539
(dp2540
g13
VVP
p2541
sbatp2542
Rp2543
(dp2544
g13
VVP
p2545
sbatp2546
Rp2547
(dp2548
g13
VS
p2549
sbatp2550
Rp2551
(dp2552
g13
VSBAR
p2553
sbatp2554
Rp2555
(dp2556
g13
VVP
p2557
sbatp2558
Rp2559
(dp2560
g13
VS
p2561
sbag0
(g1
g2
(lp2562
V,
p2563
atp2564
Rp2565
(dp2566
g13
V,
p2567
sbag0
(g1
g2
(lp2568
Vand
p2569
atp2570
Rp2571
(dp2572
g13
VCC
p2573
sbag0
(g1
g2
(lp2574
g0
(g1
g2
(lp2575
g0
(g1
g2
(lp2576
Vthe
p2577
atp2578
Rp2579
(dp2580
g13
VDT
p2581
sbag0
(g1
g2
(lp2582
Vgrass
p2583
atp2584
Rp2585
(dp2586
g13
VNN
p2587
sbatp2588
Rp2589
(dp2590
g13
VNP
p2591
sbag0
(g1
g2
(lp2592
g0
(g1
g2
(lp2593
Vis
p2594
atp2595
Rp2596
(dp2597
g13
VVBZ
p2598
sbag0
(g1
g2
(lp2599
g0
(g1
g2
(lp2600
g0
(g1
g2
(lp2601
Vcut
p2602
atp2603
Rp2604
(dp2605
g13
VVBN
p2606
sbatp2607
Rp2608
(dp2609
g13
VVP
p2610
sbag0
(g1
g2
(lp2611
Vand
p2612
atp2613
Rp2614
(dp2615
g13
VCC
p2616
sbag0
(g1
g2
(lp2617
g0
(g1
g2
(lp2618
Vbeautiful
p2619
atp2620
Rp2621
(dp2622
g13
VJJ
p2623
sbatp2624
Rp2625
(dp2626
g13
VADJP
p2627
sbatp2628
Rp2629
(dp2630
g13
VUCP
p2631
sbatp2632
Rp2633
(dp2634
g13
VVP
p2635
sbatp2636
Rp2637
(dp2638
g13
VS
p2639
sbag0
(g1
g2
(lp2640
V.
p2641
atp2642
Rp2643
(dp2644
g13
V.
p2645
sbatp2646
Rp2647
(dp2648
g13
VS
p2649
sbatp2650
Rp2651
(dp2652
g13
S'id: 15'
p2653
sbag0
(g1
g2
(lp2654
g0
(g1
g2
(lp2655
g0
(g1
g2
(lp2656
VAnd
p2657
atp2658
Rp2659
(dp2660
g13
VCC
p2661
sbag0
(g1
g2
(lp2662
g0
(g1
g2
(lp2663
g0
(g1
g2
(lp2664
g0
(g1
g2
(lp2665
Vnumbers
p2666
atp2667
Rp2668
(dp2669
g13
VNNS
p2670
sbatp2671
Rp2672
(dp2673
g13
VNP
p2674
sbag0
(g1
g2
(lp2675
g0
(g1
g2
(lp2676
Vfour
p2677
atp2678
Rp2679
(dp2680
g13
VCD
p2681
sbag0
(g1
g2
(lp2682
Vseventy
p2683
atp2684
Rp2685
(dp2686
g13
VCD
p2687
sbatp2688
Rp2689
(dp2690
g13
VNP
p2691
sbatp2692
Rp2693
(dp2694
g13
VNP
p2695
sbag0
(g1
g2
(lp2696
g0
(g1
g2
(lp2697
Vis
p2698
atp2699
Rp2700
(dp2701
g13
VVBZ
p2702
sbag0
(g1
g2
(lp2703
g0
(g1
g2
(lp2704
Va
p2705
atp2706
Rp2707
(dp2708
g13
VDT
p2709
sbag0
(g1
g2
(lp2710
Vsailboat
p2711
atp2712
Rp2713
(dp2714
g13
VNN
p2715
sbatp2716
Rp2717
(dp2718
g13
VNP
p2719
sbatp2720
Rp2721
(dp2722
g13
VVP
p2723
sbatp2724
Rp2725
(dp2726
g13
VS
p2727
sbag0
(g1
g2
(lp2728
V,
p2729
atp2730
Rp2731
(dp2732
g13
V,
p2733
sbag0
(g1
g2
(lp2734
Vand
p2735
atp2736
Rp2737
(dp2738
g13
VCC
p2739
sbag0
(g1
g2
(lp2740
g0
(g1
g2
(lp2741
g0
(g1
g2
(lp2742
Vit
p2743
atp2744
Rp2745
(dp2746
g13
VPRP
p2747
sbatp2748
Rp2749
(dp2750
g13
VNP
p2751
sbag0
(g1
g2
(lp2752
g0
(g1
g2
(lp2753
Vappears
p2754
atp2755
Rp2756
(dp2757
g13
VVBZ
p2758
sbag0
(g1
g2
(lp2759
g0
(g1
g2
(lp2760
Vthat
p2761
atp2762
Rp2763
(dp2764
g13
VIN
p2765
sbag0
(g1
g2
(lp2766
g0
(g1
g2
(lp2767
g0
(g1
g2
(lp2768
Vonly
p2769
atp2770
Rp2771
(dp2772
g13
VRB
p2773
sbag0
(g1
g2
(lp2774
Vtwo
p2775
atp2776
Rp2777
(dp2778
g13
VCD
p2779
sbag0
(g1
g2
(lp2780
Vpeople
p2781
atp2782
Rp2783
(dp2784
g13
VNNS
p2785
sbatp2786
Rp2787
(dp2788
g13
VNP
p2789
sbag0
(g1
g2
(lp2790
g0
(g1
g2
(lp2791
Vare
p2792
atp2793
Rp2794
(dp2795
g13
VVBP
p2796
sbag0
(g1
g2
(lp2797
g0
(g1
g2
(lp2798
Von
p2799
atp2800
Rp2801
(dp2802
g13
VIN
p2803
sbag0
(g1
g2
(lp2804
g0
(g1
g2
(lp2805
g0
(g1
g2
(lp2806
Vit
p2807
atp2808
Rp2809
(dp2810
g13
VPRP
p2811
sbatp2812
Rp2813
(dp2814
g13
VNP
p2815
sbag0
(g1
g2
(lp2816
g0
(g1
g2
(lp2817
Vsailboat
p2818
atp2819
Rp2820
(dp2821
g13
VNN
p2822
sbatp2823
Rp2824
(dp2825
g13
VNP
p2826
sbatp2827
Rp2828
(dp2829
g13
VNP
p2830
sbatp2831
Rp2832
(dp2833
g13
VPP
p2834
sbatp2835
Rp2836
(dp2837
g13
VVP
p2838
sbatp2839
Rp2840
(dp2841
g13
VS
p2842
sbatp2843
Rp2844
(dp2845
g13
VSBAR
p2846
sbatp2847
Rp2848
(dp2849
g13
VVP
p2850
sbatp2851
Rp2852
(dp2853
g13
VS
p2854
sbag0
(g1
g2
(lp2855
V.
p2856
atp2857
Rp2858
(dp2859
g13
V.
p2860
sbatp2861
Rp2862
(dp2863
g13
VS
p2864
sbatp2865
Rp2866
(dp2867
g13
S'id: 16'
p2868
sbag0
(g1
g2
(lp2869
g0
(g1
g2
(lp2870
g0
(g1
g2
(lp2871
VAnd
p2872
atp2873
Rp2874
(dp2875
g13
VCC
p2876
sbag0
(g1
g2
(lp2877
g0
(g1
g2
(lp2878
g0
(g1
g2
(lp2879
Vit
p2880
atp2881
Rp2882
(dp2883
g13
VPRP
p2884
sbatp2885
Rp2886
(dp2887
g13
VNP
p2888
sbag0
(g1
g2
(lp2889
g0
(g1
g2
(lp2890
Vappears
p2891
atp2892
Rp2893
(dp2894
g13
VVBZ
p2895
sbag0
(g1
g2
(lp2896
g0
(g1
g2
(lp2897
g0
(g1
g2
(lp2898
Vto
p2899
atp2900
Rp2901
(dp2902
g13
VTO
p2903
sbag0
(g1
g2
(lp2904
g0
(g1
g2
(lp2905
Vbe
p2906
atp2907
Rp2908
(dp2909
g13
VVB
p2910
sbag0
(g1
g2
(lp2911
g0
(g1
g2
(lp2912
g0
(g1
g2
(lp2913
Vmidday
p2914
atp2915
Rp2916
(dp2917
g13
VNN
p2918
sbatp2919
Rp2920
(dp2921
g13
VNP-TMP
p2922
sbag0
(g1
g2
(lp2923
Vor
p2924
atp2925
Rp2926
(dp2927
g13
VCC
p2928
sbag0
(g1
g2
(lp2929
g0
(g1
g2
(lp2930
Vso
p2931
atp2932
Rp2933
(dp2934
g13
VRB
p2935
sbatp2936
Rp2937
(dp2938
g13
VADVP
p2939
sbatp2940
Rp2941
(dp2942
g13
VUCP
p2943
sbatp2944
Rp2945
(dp2946
g13
VVP
p2947
sbatp2948
Rp2949
(dp2950
g13
VVP
p2951
sbatp2952
Rp2953
(dp2954
g13
VS
p2955
sbag0
(g1
g2
(lp2956
V,
p2957
atp2958
Rp2959
(dp2960
g13
V,
p2961
sbag0
(g1
g2
(lp2962
g0
(g1
g2
(lp2963
Vbecause
p2964
atp2965
Rp2966
(dp2967
g13
VIN
p2968
sbag0
(g1
g2
(lp2969
g0
(g1
g2
(lp2970
g0
(g1
g2
(lp2971
Vhe
p2972
atp2973
Rp2974
(dp2975
g13
VPRP
p2976
sbatp2977
Rp2978
(dp2979
g13
VNP
p2980
sbag0
(g1
g2
(lp2981
g0
(g1
g2
(lp2982
V's
p2983
atp2984
Rp2985
(dp2986
g13
VVBZ
p2987
sbag0
(g1
g2
(lp2988
g0
(g1
g2
(lp2989
Vreading
p2990
atp2991
Rp2992
(dp2993
g13
VVBG
p2994
sbag0
(g1
g2
(lp2995
g0
(g1
g2
(lp2996
Va
p2997
atp2998
Rp2999
(dp3000
g13
VDT
p3001
sbag0
(g1
g2
(lp3002
Vbook
p3003
atp3004
Rp3005
(dp3006
g13
VNN
p3007
sbatp3008
Rp3009
(dp3010
g13
VNP
p3011
sbatp3012
Rp3013
(dp3014
g13
VVP
p3015
sbatp3016
Rp3017
(dp3018
g13
VVP
p3019
sbatp3020
Rp3021
(dp3022
g13
VS
p3023
sbatp3024
Rp3025
(dp3026
g13
VSBAR
p3027
sbatp3028
Rp3029
(dp3030
g13
VVP
p3031
sbatp3032
Rp3033
(dp3034
g13
VS
p3035
sbag0
(g1
g2
(lp3036
V,
p3037
atp3038
Rp3039
(dp3040
g13
V,
p3041
sbag0
(g1
g2
(lp3042
Vand
p3043
atp3044
Rp3045
(dp3046
g13
VCC
p3047
sbag0
(g1
g2
(lp3048
g0
(g1
g2
(lp3049
g0
(g1
g2
(lp3050
Vhe
p3051
atp3052
Rp3053
(dp3054
g13
VPRP
p3055
sbatp3056
Rp3057
(dp3058
g13
VNP
p3059
sbag0
(g1
g2
(lp3060
g0
(g1
g2
(lp3061
Vcan
p3062
atp3063
Rp3064
(dp3065
g13
VMD
p3066
sbag0
(g1
g2
(lp3067
g0
(g1
g2
(lp3068
Vsee
p3069
atp3070
Rp3071
(dp3072
g13
VVB
p3073
sbag0
(g1
g2
(lp3074
g0
(g1
g2
(lp3075
Voutside
p3076
atp3077
Rp3078
(dp3079
g13
VJJ
p3080
sbatp3081
Rp3082
(dp3083
g13
VADVP
p3084
sbatp3085
Rp3086
(dp3087
g13
VVP
p3088
sbatp3089
Rp3090
(dp3091
g13
VVP
p3092
sbatp3093
Rp3094
(dp3095
g13
VS
p3096
sbag0
(g1
g2
(lp3097
V.
p3098
atp3099
Rp3100
(dp3101
g13
V.
p3102
sbatp3103
Rp3104
(dp3105
g13
VS
p3106
sbatp3107
Rp3108
(dp3109
g13
S'id: 17'
p3110
sbag0
(g1
g2
(lp3111
g0
(g1
g2
(lp3112
g0
(g1
g2
(lp3113
VSo
p3114
atp3115
Rp3116
(dp3117
g13
VIN
p3118
sbag0
(g1
g2
(lp3119
g0
(g1
g2
(lp3120
VI
p3121
atp3122
Rp3123
(dp3124
g13
VPRP
p3125
sbatp3126
Rp3127
(dp3128
g13
VNP
p3129
sbag0
(g1
g2
(lp3130
V,
p3131
atp3132
Rp3133
(dp3134
g13
V,
p3135
sbag0
(g1
g2
(lp3136
g0
(g1
g2
(lp3137
g0
(g1
g2
(lp3138
Vit
p3139
atp3140
Rp3141
(dp3142
g13
VPRP
p3143
sbatp3144
Rp3145
(dp3146
g13
VNP
p3147
sbag0
(g1
g2
(lp3148
V,
p3149
atp3150
Rp3151
(dp3152
g13
V,
p3153
sbag0
(g1
g2
(lp3154
g0
(g1
g2
(lp3155
g0
(g1
g2
(lp3156
Vit
p3157
atp3158
Rp3159
(dp3160
g13
VPRP
p3161
sbatp3162
Rp3163
(dp3164
g13
VNP
p3165
sbag0
(g1
g2
(lp3166
g0
(g1
g2
(lp3167
g0
(g1
g2
(lp3168
g0
(g1
g2
(lp3169
Vit
p3170
atp3171
Rp3172
(dp3173
g13
VPRP
p3174
sbatp3175
Rp3176
(dp3177
g13
VNP
p3178
sbag0
(g1
g2
(lp3179
g0
(g1
g2
(lp3180
V's
p3181
atp3182
Rp3183
(dp3184
g13
VVBZ
p3185
sbag0
(g1
g2
(lp3186
g0
(g1
g2
(lp3187
Vprobably
p3188
atp3189
Rp3190
(dp3191
g13
VRB
p3192
sbatp3193
Rp3194
(dp3195
g13
VADVP
p3196
sbag0
(g1
g2
(lp3197
g0
(g1
g2
(lp3198
Vmidday
p3199
atp3200
Rp3201
(dp3202
g13
VNN
p3203
sbatp3204
Rp3205
(dp3206
g13
VNP-TMP
p3207
sbag0
(g1
g2
(lp3208
V,
p3209
atp3210
Rp3211
(dp3212
g13
V,
p3213
sbag0
(g1
g2
(lp3214
g0
(g1
g2
(lp3215
g0
(g1
g2
(lp3216
Vcause
p3217
atp3218
Rp3219
(dp3220
g13
VVB
p3221
sbag0
(g1
g2
(lp3222
g0
(g1
g2
(lp3223
Vthe
p3224
atp3225
Rp3226
(dp3227
g13
VDT
p3228
sbag0
(g1
g2
(lp3229
Vlunch
p3230
atp3231
Rp3232
(dp3233
g13
VNN
p3234
sbatp3235
Rp3236
(dp3237
g13
VNP
p3238
sbatp3239
Rp3240
(dp3241
g13
VVP
p3242
sbatp3243
Rp3244
(dp3245
g13
VS
p3246
sbatp3247
Rp3248
(dp3249
g13
VVP
p3250
sbatp3251
Rp3252
(dp3253
g13
VS
p3254
sbatp3255
Rp3256
(dp3257
g13
VSBAR
p3258
sbatp3259
Rp3260
(dp3261
g13
VNP
p3262
sbatp3263
Rp3264
(dp3265
g13
VNP
p3266
sbag0
(g1
g2
(lp3267
g0
(g1
g2
(lp3268
Vis
p3269
atp3270
Rp3271
(dp3272
g13
VVBZ
p3273
sbag0
(g1
g2
(lp3274
g0
(g1
g2
(lp3275
Vin
p3276
atp3277
Rp3278
(dp3279
g13
VIN
p3280
sbag0
(g1
g2
(lp3281
g0
(g1
g2
(lp3282
Vthe
p3283
atp3284
Rp3285
(dp3286
g13
VDT
p3287
sbag0
(g1
g2
(lp3288
Vbag
p3289
atp3290
Rp3291
(dp3292
g13
VNN
p3293
sbatp3294
Rp3295
(dp3296
g13
VNP
p3297
sbatp3298
Rp3299
(dp3300
g13
VPP
p3301
sbag0
(g1
g2
(lp3302
V,
p3303
atp3304
Rp3305
(dp3306
g13
V,
p3307
sbag0
(g1
g2
(lp3308
g0
(g1
g2
(lp3309
Vin
p3310
atp3311
Rp3312
(dp3313
g13
VIN
p3314
sbag0
(g1
g2
(lp3315
g0
(g1
g2
(lp3316
Vthe
p3317
atp3318
Rp3319
(dp3320
g13
VDT
p3321
sbag0
(g1
g2
(lp3322
Vbasket
p3323
atp3324
Rp3325
(dp3326
g13
VNN
p3327
sbatp3328
Rp3329
(dp3330
g13
VNP
p3331
sbatp3332
Rp3333
(dp3334
g13
VPP
p3335
sbatp3336
Rp3337
(dp3338
g13
VVP
p3339
sbatp3340
Rp3341
(dp3342
g13
VS
p3343
sbatp3344
Rp3345
(dp3346
g13
S'id: 18'
p3347
sbatp3348
Rp3349
(dp3350
g13
S'sentences'
p3351
sb.