ccopy_reg
_reconstructor
p0
(cnltk.tree
Tree
p1
c__builtin__
list
p2
(lp3
g0
(g1
g2
(lp4
g0
(g1
g2
(lp5
g0
(g1
g2
(lp6
g0
(g1
g2
(lp7
g0
(g1
g2
(lp8
(lp9
S'word: here, index: 5'
p10
aatp11
Rp12
(dp13
S'_label'
p14
Vadvmod
p15
sbatp16
Rp17
(dp18
g14
S'word: here, index: 3'
p19
sbatp20
Rp21
(dp22
g14
Vconj
p23
sbag0
(g1
g2
(lp24
(lp25
S'word: here, index: 8'
p26
aatp27
Rp28
(dp29
g14
Vadvmod
p30
sbag0
(g1
g2
(lp31
g0
(g1
g2
(lp32
g0
(g1
g2
(lp33
(lp34
S'word: and, index: 10'
p35
aatp36
Rp37
(dp38
g14
Vcc
p39
sbatp40
Rp41
(dp42
g14
S'word: here, index: 11'
p43
sbatp44
Rp45
(dp46
g14
Vdep
p47
sbatp48
Rp49
(dp50
g14
S'word: yes, index: 1'
p51
sbatp52
Rp53
(dp54
g14
S'id: 0'
p55
sbag0
(g1
g2
(lp56
g0
(g1
g2
(lp57
g0
(g1
g2
(lp58
(lp59
S'word: there, index: 4'
p60
aatp61
Rp62
(dp63
g14
Vappos
p64
sbag0
(g1
g2
(lp65
(lp66
S'word: then, index: 1'
p67
aatp68
Rp69
(dp70
g14
Vadvmod
p71
sbatp72
Rp73
(dp74
g14
S'word: here, index: 2'
p75
sbatp76
Rp77
(dp78
g14
S'id: 1'
p79
sbag0
(g1
g2
(lp80
g0
(g1
g2
(lp81
g0
(g1
g2
(lp82
g0
(g1
g2
(lp83
g0
(g1
g2
(lp84
(lp85
S'word: five, index: 9'
p86
aatp87
Rp88
(dp89
g14
Vamod
p90
sbag0
(g1
g2
(lp91
g0
(g1
g2
(lp92
g0
(g1
g2
(lp93
(lp94
S'word: five, index: 11'
p95
aatp96
Rp97
(dp98
g14
Vnum
p99
sbag0
(g1
g2
(lp100
(lp101
S'word: gol-golden, index: 12'
p102
aatp103
Rp104
(dp105
g14
Vamod
p106
sbatp107
Rp108
(dp109
g14
S'word: rules, index: 13'
p110
sbatp111
Rp112
(dp113
g14
Vappos
p114
sbatp115
Rp116
(dp117
g14
S'word: four, index: 7'
p118
sbatp119
Rp120
(dp121
g14
Vdep
p122
sbag0
(g1
g2
(lp123
(lp124
S'word: two, index: 3'
p125
aatp126
Rp127
(dp128
g14
Vdep
p129
sbag0
(g1
g2
(lp130
(lp131
S'word: three, index: 5'
p132
aatp133
Rp134
(dp135
g14
Vdep
p136
sbatp137
Rp138
(dp139
g14
S'word: one, index: 1'
p140
sbatp141
Rp142
(dp143
g14
S'id: 2'
p144
sbag0
(g1
g2
(lp145
g0
(g1
g2
(lp146
g0
(g1
g2
(lp147
(lp148
S'word: there, index: 4'
p149
aatp150
Rp151
(dp152
g14
Vconj
p153
sbatp154
Rp155
(dp156
g14
S'word: then, index: 1'
p157
sbatp158
Rp159
(dp160
g14
S'id: 3'
p161
sbag0
(g1
g2
(lp162
g0
(g1
g2
(lp163
g0
(g1
g2
(lp164
(lp165
S'word: I, index: 1'
p166
aatp167
Rp168
(dp169
g14
Vnsubj
p170
sbag0
(g1
g2
(lp171
(lp172
S'word: do, index: 2'
p173
aatp174
Rp175
(dp176
g14
Vaux
p177
sbag0
(g1
g2
(lp178
(lp179
S"word: n't, index: 3"
p180
aatp181
Rp182
(dp183
g14
Vneg
p184
sbatp185
Rp186
(dp187
g14
S'word: know, index: 4'
p188
sbatp189
Rp190
(dp191
g14
S'id: 4'
p192
sbatp193
Rp194
(dp195
g14
S'sentences'
p196
sb.