ccopy_reg
_reconstructor
p0
(cnltk.tree
Tree
p1
c__builtin__
list
p2
(lp3
g0
(g1
g2
(lp4
g0
(g1
g2
(lp5
g0
(g1
g2
(lp6
g0
(g1
g2
(lp7
Vthe
p8
atp9
Rp10
(dp11
S'_label'
p12
VDT
p13
sbag0
(g1
g2
(lp14
Vclown
p15
atp16
Rp17
(dp18
g12
VNN
p19
sbatp20
Rp21
(dp22
g12
VNP
p23
sbag0
(g1
g2
(lp24
g0
(g1
g2
(lp25
Vis
p26
atp27
Rp28
(dp29
g12
VVBZ
p30
sbag0
(g1
g2
(lp31
g0
(g1
g2
(lp32
Vout
p33
atp34
Rp35
(dp36
g12
VIN
p37
sbag0
(g1
g2
(lp38
g0
(g1
g2
(lp39
Vkafait
p40
atp41
Rp42
(dp43
g12
VNN
p44
sbatp45
Rp46
(dp47
g12
VNP
p48
sbatp49
Rp50
(dp51
g12
VPP
p52
sbatp53
Rp54
(dp55
g12
VVP
p56
sbag0
(g1
g2
(lp57
V.
p58
atp59
Rp60
(dp61
g12
V.
p62
sbatp63
Rp64
(dp65
g12
VS
p66
sbatp67
Rp68
(dp69
g12
S'id: 0'
p70
sbag0
(g1
g2
(lp71
g0
(g1
g2
(lp72
g0
(g1
g2
(lp73
g0
(g1
g2
(lp74
g0
(g1
g2
(lp75
VThe
p76
atp77
Rp78
(dp79
g12
VDT
p80
sbag0
(g1
g2
(lp81
Vbo
p82
atp83
Rp84
(dp85
g12
VNN
p86
sbatp87
Rp88
(dp89
g12
VNP
p90
sbag0
(g1
g2
(lp91
V,
p92
atp93
Rp94
(dp95
g12
V,
p96
sbag0
(g1
g2
(lp97
g0
(g1
g2
(lp98
g0
(g1
g2
(lp99
Vlittle
p100
atp101
Rp102
(dp103
g12
VJJ
p104
sbag0
(g1
g2
(lp105
Vboy
p106
atp107
Rp108
(dp109
g12
VNN
p110
sbatp111
Rp112
(dp113
g12
VNP
p114
sbag0
(g1
g2
(lp115
V,
p116
atp117
Rp118
(dp119
g12
V,
p120
sbag0
(g1
g2
(lp121
g0
(g1
g2
(lp122
g0
(g1
g2
(lp123
Va
p124
atp125
Rp126
(dp127
g12
VDT
p128
sbag0
(g1
g2
(lp129
Vlady
p130
atp131
Rp132
(dp133
g12
VNN
p134
sbag0
(g1
g2
(lp135
V's
p136
atp137
Rp138
(dp139
g12
VPOS
p140
sbatp141
Rp142
(dp143
g12
VNP
p144
sbag0
(g1
g2
(lp145
Vholding
p146
atp147
Rp148
(dp149
g12
VVBG
p150
sbag0
(g1
g2
(lp151
g0
(g1
g2
(lp152
Va
p153
atp154
Rp155
(dp156
g12
VDT
p157
sbag0
(g1
g2
(lp158
Vlittle
p159
atp160
Rp161
(dp162
g12
VJJ
p163
sbatp164
Rp165
(dp166
g12
VADJP
p167
sbag0
(g1
g2
(lp168
Vgirl
p169
atp170
Rp171
(dp172
g12
VNN
p173
sbatp174
Rp175
(dp176
g12
VNP
p177
sbatp178
Rp179
(dp180
g12
VNP
p181
sbag0
(g1
g2
(lp182
V,
p183
atp184
Rp185
(dp186
g12
V,
p187
sbatp188
Rp189
(dp190
g12
VNP
p191
sbag0
(g1
g2
(lp192
g0
(g1
g2
(lp193
Vhas
p194
atp195
Rp196
(dp197
g12
VVBZ
p198
sbag0
(g1
g2
(lp199
g0
(g1
g2
(lp200
g0
(g1
g2
(lp201
Vthe
p202
atp203
Rp204
(dp205
g12
VDT
p206
sbag0
(g1
g2
(lp207
Vhand
p208
atp209
Rp210
(dp211
g12
VNN
p212
sbatp213
Rp214
(dp215
g12
VNP
p216
sbag0
(g1
g2
(lp217
g0
(g1
g2
(lp218
Vof
p219
atp220
Rp221
(dp222
g12
VIN
p223
sbag0
(g1
g2
(lp224
g0
(g1
g2
(lp225
g0
(g1
g2
(lp226
Va
p227
atp228
Rp229
(dp230
g12
VDT
p231
sbag0
(g1
g2
(lp232
Vlittle
p233
atp234
Rp235
(dp236
g12
VJJ
p237
sbag0
(g1
g2
(lp238
Vgirl
p239
atp240
Rp241
(dp242
g12
VNN
p243
sbatp244
Rp245
(dp246
g12
VNP
p247
sbag0
(g1
g2
(lp248
g0
(g1
g2
(lp249
Vpointing
p250
atp251
Rp252
(dp253
g12
VVBG
p254
sbag0
(g1
g2
(lp255
g0
(g1
g2
(lp256
Vat
p257
atp258
Rp259
(dp260
g12
VIN
p261
sbag0
(g1
g2
(lp262
g0
(g1
g2
(lp263
Vclown
p264
atp265
Rp266
(dp267
g12
VNN
p268
sbatp269
Rp270
(dp271
g12
VNP
p272
sbatp273
Rp274
(dp275
g12
VPP
p276
sbatp277
Rp278
(dp279
g12
VVP
p280
sbatp281
Rp282
(dp283
g12
VNP
p284
sbatp285
Rp286
(dp287
g12
VPP
p288
sbatp289
Rp290
(dp291
g12
VNP
p292
sbatp293
Rp294
(dp295
g12
VVP
p296
sbag0
(g1
g2
(lp297
V.
p298
atp299
Rp300
(dp301
g12
V.
p302
sbatp303
Rp304
(dp305
g12
VS
p306
sbatp307
Rp308
(dp309
g12
S'id: 1'
p310
sbag0
(g1
g2
(lp311
g0
(g1
g2
(lp312
g0
(g1
g2
(lp313
g0
(g1
g2
(lp314
VClown
p315
atp316
Rp317
(dp318
g12
VNNP
p319
sbatp320
Rp321
(dp322
g12
VNP
p323
sbag0
(g1
g2
(lp324
g0
(g1
g2
(lp325
Vhas
p326
atp327
Rp328
(dp329
g12
VVBZ
p330
sbag0
(g1
g2
(lp331
g0
(g1
g2
(lp332
Vbald
p333
atp334
Rp335
(dp336
g12
VJJ
p337
sbag0
(g1
g2
(lp338
Vhat
p339
atp340
Rp341
(dp342
g12
VNN
p343
sbatp344
Rp345
(dp346
g12
VNP
p347
sbatp348
Rp349
(dp350
g12
VVP
p351
sbag0
(g1
g2
(lp352
V.
p353
atp354
Rp355
(dp356
g12
V.
p357
sbatp358
Rp359
(dp360
g12
VS
p361
sbatp362
Rp363
(dp364
g12
S'id: 2'
p365
sbag0
(g1
g2
(lp366
g0
(g1
g2
(lp367
g0
(g1
g2
(lp368
g0
(g1
g2
(lp369
g0
(g1
g2
(lp370
VHe
p371
atp372
Rp373
(dp374
g12
VPRP
p375
sbatp376
Rp377
(dp378
g12
VNP
p379
sbag0
(g1
g2
(lp380
g0
(g1
g2
(lp381
Vhas
p382
atp383
Rp384
(dp385
g12
VVBZ
p386
sbag0
(g1
g2
(lp387
g0
(g1
g2
(lp388
Vbright
p389
atp390
Rp391
(dp392
g12
VJJ
p393
sbag0
(g1
g2
(lp394
Vre
p395
atp396
Rp397
(dp398
g12
VNN
p399
sbatp400
Rp401
(dp402
g12
VNP
p403
sbatp404
Rp405
(dp406
g12
VVP
p407
sbatp408
Rp409
(dp410
g12
VS
p411
sbag0
(g1
g2
(lp412
V,
p413
atp414
Rp415
(dp416
g12
V,
p417
sbag0
(g1
g2
(lp418
g0
(g1
g2
(lp419
Vhe
p420
atp421
Rp422
(dp423
g12
VPRP
p424
sbatp425
Rp426
(dp427
g12
VNP
p428
sbag0
(g1
g2
(lp429
g0
(g1
g2
(lp430
Vhas
p431
atp432
Rp433
(dp434
g12
VVBZ
p435
sbag0
(g1
g2
(lp436
g0
(g1
g2
(lp437
g0
(g1
g2
(lp438
Va
p439
atp440
Rp441
(dp442
g12
VDT
p443
sbag0
(g1
g2
(lp444
Vnose
p445
atp446
Rp447
(dp448
g12
VNN
p449
sbatp450
Rp451
(dp452
g12
VNP
p453
sbag0
(g1
g2
(lp454
g0
(g1
g2
(lp455
g0
(g1
g2
(lp456
g0
(g1
g2
(lp457
Vis
p458
atp459
Rp460
(dp461
g12
VVBZ
p462
sbag0
(g1
g2
(lp463
g0
(g1
g2
(lp464
Vrather
p465
atp466
Rp467
(dp468
g12
VRB
p469
sbag0
(g1
g2
(lp470
Vlarge
p471
atp472
Rp473
(dp474
g12
VJJ
p475
sbag0
(g1
g2
(lp476
g0
(g1
g2
(lp477
V,
p478
atp479
Rp480
(dp481
g12
V,
p482
sbag0
(g1
g2
(lp483
g0
(g1
g2
(lp484
g0
(g1
g2
(lp485
Vhis
p486
atp487
Rp488
(dp489
g12
VPRP$
p490
sbag0
(g1
g2
(lp491
Vhair
p492
atp493
Rp494
(dp495
g12
VNN
p496
sbatp497
Rp498
(dp499
g12
VNP
p500
sbag0
(g1
g2
(lp501
g0
(g1
g2
(lp502
Vis
p503
atp504
Rp505
(dp506
g12
VVBZ
p507
sbag0
(g1
g2
(lp508
V,
p509
atp510
Rp511
(dp512
g12
V,
p513
sbag0
(g1
g2
(lp514
g0
(g1
g2
(lp515
g0
(g1
g2
(lp516
g0
(g1
g2
(lp517
Vhis
p518
atp519
Rp520
(dp521
g12
VPRP$
p522
sbag0
(g1
g2
(lp523
Vhair
p524
atp525
Rp526
(dp527
g12
VNN
p528
sbatp529
Rp530
(dp531
g12
VNP
p532
sbag0
(g1
g2
(lp533
g0
(g1
g2
(lp534
Vis
p535
atp536
Rp537
(dp538
g12
VVBZ
p539
sbag0
(g1
g2
(lp540
g0
(g1
g2
(lp541
Vin
p542
atp543
Rp544
(dp545
g12
VIN
p546
sbatp547
Rp548
(dp549
g12
VPP
p550
sbatp551
Rp552
(dp553
g12
VVP
p554
sbatp555
Rp556
(dp557
g12
VS
p558
sbatp559
Rp560
(dp561
g12
VSBAR
p562
sbatp563
Rp564
(dp565
g12
VVP
p566
sbatp567
Rp568
(dp569
g12
VS
p570
sbag0
(g1
g2
(lp571
V,
p572
atp573
Rp574
(dp575
g12
V,
p576
sbatp577
Rp578
(dp579
g12
VPRN
p580
sbag0
(g1
g2
(lp581
g0
(g1
g2
(lp582
g0
(g1
g2
(lp583
g0
(g1
g2
(lp584
Vlooks
p585
atp586
Rp587
(dp588
g12
VVBZ
p589
sbag0
(g1
g2
(lp590
g0
(g1
g2
(lp591
Vlike
p592
atp593
Rp594
(dp595
g12
VIN
p596
sbag0
(g1
g2
(lp597
g0
(g1
g2
(lp598
Va
p599
atp600
Rp601
(dp602
g12
VDT
p603
sbag0
(g1
g2
(lp604
Vmesh
p605
atp606
Rp607
(dp608
g12
VNN
p609
sbag0
(g1
g2
(lp610
Vsite
p611
atp612
Rp613
(dp614
g12
VNN
p615
sbatp616
Rp617
(dp618
g12
VNP
p619
sbatp620
Rp621
(dp622
g12
VPP
p623
sbatp624
Rp625
(dp626
g12
VVP
p627
sbatp628
Rp629
(dp630
g12
VS
p631
sbatp632
Rp633
(dp634
g12
VSBAR
p635
sbatp636
Rp637
(dp638
g12
VADJP
p639
sbatp640
Rp641
(dp642
g12
VVP
p643
sbatp644
Rp645
(dp646
g12
VS
p647
sbatp648
Rp649
(dp650
g12
VSBAR
p651
sbatp652
Rp653
(dp654
g12
VNP
p655
sbatp656
Rp657
(dp658
g12
VVP
p659
sbag0
(g1
g2
(lp660
V.
p661
atp662
Rp663
(dp664
g12
V.
p665
sbatp666
Rp667
(dp668
g12
VS
p669
sbatp670
Rp671
(dp672
g12
S'id: 3'
p673
sbag0
(g1
g2
(lp674
g0
(g1
g2
(lp675
g0
(g1
g2
(lp676
g0
(g1
g2
(lp677
g0
(g1
g2
(lp678
VHe
p679
atp680
Rp681
(dp682
g12
VPRP
p683
sbatp684
Rp685
(dp686
g12
VNP
p687
sbag0
(g1
g2
(lp688
g0
(g1
g2
(lp689
Vhas
p690
atp691
Rp692
(dp693
g12
VVBZ
p694
sbag0
(g1
g2
(lp695
g0
(g1
g2
(lp696
Va
p697
atp698
Rp699
(dp700
g12
VDT
p701
sbag0
(g1
g2
(lp702
Vclown
p703
atp704
Rp705
(dp706
g12
VNN
p707
sbag0
(g1
g2
(lp708
Vfoot/filn
p709
atp710
Rp711
(dp712
g12
VNN
p713
sbatp714
Rp715
(dp716
g12
VNP
p717
sbatp718
Rp719
(dp720
g12
VVP
p721
sbatp722
Rp723
(dp724
g12
VS
p725
sbag0
(g1
g2
(lp726
V,
p727
atp728
Rp729
(dp730
g12
V,
p731
sbag0
(g1
g2
(lp732
g0
(g1
g2
(lp733
g0
(g1
g2
(lp734
Vhe
p735
atp736
Rp737
(dp738
g12
VPRP
p739
sbatp740
Rp741
(dp742
g12
VNP
p743
sbag0
(g1
g2
(lp744
g0
(g1
g2
(lp745
Vhas
p746
atp747
Rp748
(dp749
g12
VVBZ
p750
sbag0
(g1
g2
(lp751
g0
(g1
g2
(lp752
Va
p753
atp754
Rp755
(dp756
g12
VDT
p757
sbag0
(g1
g2
(lp758
Vtie
p759
atp760
Rp761
(dp762
g12
VNN
p763
sbatp764
Rp765
(dp766
g12
VNP
p767
sbatp768
Rp769
(dp770
g12
VVP
p771
sbatp772
Rp773
(dp774
g12
VS
p775
sbag0
(g1
g2
(lp776
V,
p777
atp778
Rp779
(dp780
g12
V,
p781
sbag0
(g1
g2
(lp782
g0
(g1
g2
(lp783
g0
(g1
g2
(lp784
Vhe
p785
atp786
Rp787
(dp788
g12
VPRP
p789
sbatp790
Rp791
(dp792
g12
VNP
p793
sbag0
(g1
g2
(lp794
g0
(g1
g2
(lp795
Vhas
p796
atp797
Rp798
(dp799
g12
VVBZ
p800
sbag0
(g1
g2
(lp801
g0
(g1
g2
(lp802
Vsuspender
p803
atp804
Rp805
(dp806
g12
VVBN
p807
sbatp808
Rp809
(dp810
g12
VVP
p811
sbatp812
Rp813
(dp814
g12
VVP
p815
sbatp816
Rp817
(dp818
g12
VS
p819
sbag0
(g1
g2
(lp820
V.
p821
atp822
Rp823
(dp824
g12
V.
p825
sbatp826
Rp827
(dp828
g12
VS
p829
sbatp830
Rp831
(dp832
g12
S'id: 4'
p833
sbag0
(g1
g2
(lp834
g0
(g1
g2
(lp835
g0
(g1
g2
(lp836
g0
(g1
g2
(lp837
g0
(g1
g2
(lp838
VThe
p839
atp840
Rp841
(dp842
g12
VDT
p843
sbag0
(g1
g2
(lp844
Vman
p845
atp846
Rp847
(dp848
g12
VNN
p849
sbag0
(g1
g2
(lp850
V's
p851
atp852
Rp853
(dp854
g12
VPOS
p855
sbatp856
Rp857
(dp858
g12
VNP
p859
sbag0
(g1
g2
(lp860
g0
(g1
g2
(lp861
Vworking
p862
atp863
Rp864
(dp865
g12
VVBG
p866
sbag0
(g1
g2
(lp867
g0
(g1
g2
(lp868
Vwith
p869
atp870
Rp871
(dp872
g12
VIN
p873
sbag0
(g1
g2
(lp874
g0
(g1
g2
(lp875
Vthe
p876
atp877
Rp878
(dp879
g12
VDT
p880
sbag0
(g1
g2
(lp881
Vlion
p882
atp883
Rp884
(dp885
g12
VNN
p886
sbatp887
Rp888
(dp889
g12
VNP
p890
sbatp891
Rp892
(dp893
g12
VPP
p894
sbatp895
Rp896
(dp897
g12
VVP
p898
sbatp899
Rp900
(dp901
g12
VS
p902
sbag0
(g1
g2
(lp903
V,
p904
atp905
Rp906
(dp907
g12
V,
p908
sbag0
(g1
g2
(lp909
g0
(g1
g2
(lp910
Vthe
p911
atp912
Rp913
(dp914
g12
VDT
p915
sbag0
(g1
g2
(lp916
Vlion
p917
atp918
Rp919
(dp920
g12
VNN
p921
sbatp922
Rp923
(dp924
g12
VNP
p925
sbag0
(g1
g2
(lp926
g0
(g1
g2
(lp927
Vis
p928
atp929
Rp930
(dp931
g12
VVBZ
p932
sbag0
(g1
g2
(lp933
g0
(g1
g2
(lp934
Vgoing
p935
atp936
Rp937
(dp938
g12
VVBG
p939
sbag0
(g1
g2
(lp940
V,
p941
atp942
Rp943
(dp944
g12
V,
p945
sbag0
(g1
g2
(lp946
g0
(g1
g2
(lp947
g0
(g1
g2
(lp948
Vmoving
p949
atp950
Rp951
(dp952
g12
VVBG
p953
sbag0
(g1
g2
(lp954
g0
(g1
g2
(lp955
Vup
p956
atp957
Rp958
(dp959
g12
VRP
p960
sbatp961
Rp962
(dp963
g12
VPRT
p964
sbag0
(g1
g2
(lp965
g0
(g1
g2
(lp966
Vher
p967
atp968
Rp969
(dp970
g12
VPRP$
p971
sbag0
(g1
g2
(lp972
Vpaw
p973
atp974
Rp975
(dp976
g12
VNN
p977
sbatp978
Rp979
(dp980
g12
VNP
p981
sbag0
(g1
g2
(lp982
g0
(g1
g2
(lp983
Von
p984
atp985
Rp986
(dp987
g12
VIN
p988
sbag0
(g1
g2
(lp989
g0
(g1
g2
(lp990
Vto
p991
atp992
Rp993
(dp994
g12
VTO
p995
sbag0
(g1
g2
(lp996
g0
(g1
g2
(lp997
g0
(g1
g2
(lp998
Vthe
p999
atp1000
Rp1001
(dp1002
g12
VDT
p1003
sbag0
(g1
g2
(lp1004
Vdirection
p1005
atp1006
Rp1007
(dp1008
g12
VNN
p1009
sbatp1010
Rp1011
(dp1012
g12
VNP
p1013
sbag0
(g1
g2
(lp1014
g0
(g1
g2
(lp1015
Vof
p1016
atp1017
Rp1018
(dp1019
g12
VIN
p1020
sbag0
(g1
g2
(lp1021
g0
(g1
g2
(lp1022
Vthe
p1023
atp1024
Rp1025
(dp1026
g12
VDT
p1027
sbag0
(g1
g2
(lp1028
Vgentleman
p1029
atp1030
Rp1031
(dp1032
g12
VNN
p1033
sbatp1034
Rp1035
(dp1036
g12
VNP
p1037
sbatp1038
Rp1039
(dp1040
g12
VPP
p1041
sbatp1042
Rp1043
(dp1044
g12
VNP
p1045
sbatp1046
Rp1047
(dp1048
g12
VPP
p1049
sbatp1050
Rp1051
(dp1052
g12
VPP
p1053
sbatp1054
Rp1055
(dp1056
g12
VVP
p1057
sbatp1058
Rp1059
(dp1060
g12
VS
p1061
sbatp1062
Rp1063
(dp1064
g12
VVP
p1065
sbatp1066
Rp1067
(dp1068
g12
VVP
p1069
sbag0
(g1
g2
(lp1070
V.
p1071
atp1072
Rp1073
(dp1074
g12
V.
p1075
sbatp1076
Rp1077
(dp1078
g12
VS
p1079
sbatp1080
Rp1081
(dp1082
g12
S'id: 5'
p1083
sbag0
(g1
g2
(lp1084
g0
(g1
g2
(lp1085
g0
(g1
g2
(lp1086
g0
(g1
g2
(lp1087
g0
(g1
g2
(lp1088
VGentleman
p1089
atp1090
Rp1091
(dp1092
g12
VNN
p1093
sbatp1094
Rp1095
(dp1096
g12
VNP
p1097
sbag0
(g1
g2
(lp1098
g0
(g1
g2
(lp1099
Vhas
p1100
atp1101
Rp1102
(dp1103
g12
VVBZ
p1104
sbag0
(g1
g2
(lp1105
g0
(g1
g2
(lp1106
Va
p1107
atp1108
Rp1109
(dp1110
g12
VDT
p1111
sbag0
(g1
g2
(lp1112
Vcap
p1113
atp1114
Rp1115
(dp1116
g12
VNN
p1117
sbatp1118
Rp1119
(dp1120
g12
VNP
p1121
sbag0
(g1
g2
(lp1122
g0
(g1
g2
(lp1123
Von
p1124
atp1125
Rp1126
(dp1127
g12
VIN
p1128
sbatp1129
Rp1130
(dp1131
g12
VPP
p1132
sbatp1133
Rp1134
(dp1135
g12
VVP
p1136
sbatp1137
Rp1138
(dp1139
g12
VS
p1140
sbag0
(g1
g2
(lp1141
V,
p1142
atp1143
Rp1144
(dp1145
g12
V,
p1146
sbag0
(g1
g2
(lp1147
Vand
p1148
atp1149
Rp1150
(dp1151
g12
VCC
p1152
sbag0
(g1
g2
(lp1153
g0
(g1
g2
(lp1154
g0
(g1
g2
(lp1155
Vhe
p1156
atp1157
Rp1158
(dp1159
g12
VPRP
p1160
sbatp1161
Rp1162
(dp1163
g12
VNP
p1164
sbag0
(g1
g2
(lp1165
g0
(g1
g2
(lp1166
Valso
p1167
atp1168
Rp1169
(dp1170
g12
VRB
p1171
sbatp1172
Rp1173
(dp1174
g12
VADVP
p1175
sbag0
(g1
g2
(lp1176
g0
(g1
g2
(lp1177
Vhas
p1178
atp1179
Rp1180
(dp1181
g12
VVBZ
p1182
sbag0
(g1
g2
(lp1183
g0
(g1
g2
(lp1184
g0
(g1
g2
(lp1185
Vblack
p1186
atp1187
Rp1188
(dp1189
g12
VJJ
p1190
sbag0
(g1
g2
(lp1191
Vpants
p1192
atp1193
Rp1194
(dp1195
g12
VNNS
p1196
sbag0
(g1
g2
(lp1197
Vand
p1198
atp1199
Rp1200
(dp1201
g12
VCC
p1202
sbag0
(g1
g2
(lp1203
Vjacket
p1204
atp1205
Rp1206
(dp1207
g12
VNN
p1208
sbatp1209
Rp1210
(dp1211
g12
VNP
p1212
sbag0
(g1
g2
(lp1213
g0
(g1
g2
(lp1214
g0
(g1
g2
(lp1215
Vthat
p1216
atp1217
Rp1218
(dp1219
g12
VWDT
p1220
sbatp1221
Rp1222
(dp1223
g12
VWHNP
p1224
sbag0
(g1
g2
(lp1225
g0
(g1
g2
(lp1226
g0
(g1
g2
(lp1227
Vlike
p1228
atp1229
Rp1230
(dp1231
g12
VIN
p1232
sbag0
(g1
g2
(lp1233
g0
(g1
g2
(lp1234
Va
p1235
atp1236
Rp1237
(dp1238
g12
VDT
p1239
sbag0
(g1
g2
(lp1240
Vtux
p1241
atp1242
Rp1243
(dp1244
g12
VNN
p1245
sbatp1246
Rp1247
(dp1248
g12
VNP
p1249
sbatp1250
Rp1251
(dp1252
g12
VPP
p1253
sbatp1254
Rp1255
(dp1256
g12
VS
p1257
sbatp1258
Rp1259
(dp1260
g12
VSBAR
p1261
sbatp1262
Rp1263
(dp1264
g12
VNP
p1265
sbatp1266
Rp1267
(dp1268
g12
VVP
p1269
sbatp1270
Rp1271
(dp1272
g12
VS
p1273
sbag0
(g1
g2
(lp1274
V.
p1275
atp1276
Rp1277
(dp1278
g12
V.
p1279
sbatp1280
Rp1281
(dp1282
g12
VS
p1283
sbatp1284
Rp1285
(dp1286
g12
S'id: 6'
p1287
sbag0
(g1
g2
(lp1288
g0
(g1
g2
(lp1289
g0
(g1
g2
(lp1290
g0
(g1
g2
(lp1291
VThe
p1292
atp1293
Rp1294
(dp1295
g12
VDT
p1296
sbag0
(g1
g2
(lp1297
Vlion
p1298
atp1299
Rp1300
(dp1301
g12
VNN
p1302
sbatp1303
Rp1304
(dp1305
g12
VNP
p1306
sbag0
(g1
g2
(lp1307
g0
(g1
g2
(lp1308
Vis
p1309
atp1310
Rp1311
(dp1312
g12
VVBZ
p1313
sbag0
(g1
g2
(lp1314
g0
(g1
g2
(lp1315
Vsitting
p1316
atp1317
Rp1318
(dp1319
g12
VVBG
p1320
sbag0
(g1
g2
(lp1321
g0
(g1
g2
(lp1322
Von
p1323
atp1324
Rp1325
(dp1326
g12
VIN
p1327
sbag0
(g1
g2
(lp1328
g0
(g1
g2
(lp1329
g0
(g1
g2
(lp1330
Va
p1331
atp1332
Rp1333
(dp1334
g12
VDT
p1335
sbatp1336
Rp1337
(dp1338
g12
VNP
p1339
sbag0
(g1
g2
(lp1340
V,
p1341
atp1342
Rp1343
(dp1344
g12
V,
p1345
sbag0
(g1
g2
(lp1346
g0
(g1
g2
(lp1347
Va
p1348
atp1349
Rp1350
(dp1351
g12
VDT
p1352
sbag0
(g1
g2
(lp1353
Vspotted
p1354
atp1355
Rp1356
(dp1357
g12
VJJ
p1358
sbag0
(g1
g2
(lp1359
Vholder
p1360
atp1361
Rp1362
(dp1363
g12
VNN
p1364
sbatp1365
Rp1366
(dp1367
g12
VNP
p1368
sbatp1369
Rp1370
(dp1371
g12
VNP
p1372
sbatp1373
Rp1374
(dp1375
g12
VPP
p1376
sbatp1377
Rp1378
(dp1379
g12
VVP
p1380
sbatp1381
Rp1382
(dp1383
g12
VVP
p1384
sbag0
(g1
g2
(lp1385
V.
p1386
atp1387
Rp1388
(dp1389
g12
V.
p1390
sbatp1391
Rp1392
(dp1393
g12
VS
p1394
sbatp1395
Rp1396
(dp1397
g12
S'id: 7'
p1398
sbag0
(g1
g2
(lp1399
g0
(g1
g2
(lp1400
g0
(g1
g2
(lp1401
g0
(g1
g2
(lp1402
VIt
p1403
atp1404
Rp1405
(dp1406
g12
VPRP
p1407
sbatp1408
Rp1409
(dp1410
g12
VNP
p1411
sbag0
(g1
g2
(lp1412
g0
(g1
g2
(lp1413
Vappears
p1414
atp1415
Rp1416
(dp1417
g12
VVBZ
p1418
sbag0
(g1
g2
(lp1419
g0
(g1
g2
(lp1420
Vthat
p1421
atp1422
Rp1423
(dp1424
g12
VIN
p1425
sbag0
(g1
g2
(lp1426
g0
(g1
g2
(lp1427
g0
(g1
g2
(lp1428
Vthere
p1429
atp1430
Rp1431
(dp1432
g12
VEX
p1433
sbatp1434
Rp1435
(dp1436
g12
VNP
p1437
sbag0
(g1
g2
(lp1438
g0
(g1
g2
(lp1439
g0
(g1
g2
(lp1440
g0
(g1
g2
(lp1441
g0
(g1
g2
(lp1442
Vseventy
p1443
atp1444
Rp1445
(dp1446
g12
VCD
p1447
sbag0
(g1
g2
(lp1448
Vbars
p1449
atp1450
Rp1451
(dp1452
g12
VNNS
p1453
sbatp1454
Rp1455
(dp1456
g12
VNP
p1457
sbag0
(g1
g2
(lp1458
g0
(g1
g2
(lp1459
Vin
p1460
atp1461
Rp1462
(dp1463
g12
VIN
p1464
sbag0
(g1
g2
(lp1465
g0
(g1
g2
(lp1466
Vcluh
p1467
atp1468
Rp1469
(dp1470
g12
VNN
p1471
sbatp1472
Rp1473
(dp1474
g12
VNP
p1475
sbatp1476
Rp1477
(dp1478
g12
VPP
p1479
sbag0
(g1
g2
(lp1480
V,
p1481
atp1482
Rp1483
(dp1484
g12
V,
p1485
sbag0
(g1
g2
(lp1486
g0
(g1
g2
(lp1487
Vin
p1488
atp1489
Rp1490
(dp1491
g12
VIN
p1492
sbag0
(g1
g2
(lp1493
g0
(g1
g2
(lp1494
g0
(g1
g2
(lp1495
g0
(g1
g2
(lp1496
Vcase
p1497
atp1498
Rp1499
(dp1500
g12
VNN
p1501
sbatp1502
Rp1503
(dp1504
g12
VNP
p1505
sbag0
(g1
g2
(lp1506
g0
(g1
g2
(lp1507
Vthe
p1508
atp1509
Rp1510
(dp1511
g12
VDT
p1512
sbag0
(g1
g2
(lp1513
Vlion
p1514
atp1515
Rp1516
(dp1517
g12
VNN
p1518
sbatp1519
Rp1520
(dp1521
g12
VNP
p1522
sbatp1523
Rp1524
(dp1525
g12
VNP
p1526
sbag0
(g1
g2
(lp1527
Vand
p1528
atp1529
Rp1530
(dp1531
g12
VCC
p1532
sbag0
(g1
g2
(lp1533
g0
(g1
g2
(lp1534
Vthe
p1535
atp1536
Rp1537
(dp1538
g12
VDT
p1539
sbag0
(g1
g2
(lp1540
Vtrainer
p1541
atp1542
Rp1543
(dp1544
g12
VNN
p1545
sbatp1546
Rp1547
(dp1548
g12
VNP
p1549
sbatp1550
Rp1551
(dp1552
g12
VNP
p1553
sbatp1554
Rp1555
(dp1556
g12
VPP
p1557
sbatp1558
Rp1559
(dp1560
g12
VNP
p1561
sbatp1562
Rp1563
(dp1564
g12
VS
p1565
sbatp1566
Rp1567
(dp1568
g12
VVP
p1569
sbatp1570
Rp1571
(dp1572
g12
VS
p1573
sbatp1574
Rp1575
(dp1576
g12
VSBAR
p1577
sbatp1578
Rp1579
(dp1580
g12
VVP
p1581
sbag0
(g1
g2
(lp1582
V.
p1583
atp1584
Rp1585
(dp1586
g12
V.
p1587
sbatp1588
Rp1589
(dp1590
g12
VS
p1591
sbatp1592
Rp1593
(dp1594
g12
S'id: 8'
p1595
sbag0
(g1
g2
(lp1596
g0
(g1
g2
(lp1597
g0
(g1
g2
(lp1598
g0
(g1
g2
(lp1599
VThe
p1600
atp1601
Rp1602
(dp1603
g12
VDT
p1604
sbag0
(g1
g2
(lp1605
Vcage
p1606
atp1607
Rp1608
(dp1609
g12
VNN
p1610
sbatp1611
Rp1612
(dp1613
g12
VNP
p1614
sbag0
(g1
g2
(lp1615
g0
(g1
g2
(lp1616
Vhas
p1617
atp1618
Rp1619
(dp1620
g12
VVBZ
p1621
sbag0
(g1
g2
(lp1622
g0
(g1
g2
(lp1623
Va
p1624
atp1625
Rp1626
(dp1627
g12
VDT
p1628
sbag0
(g1
g2
(lp1629
Vcover
p1630
atp1631
Rp1632
(dp1633
g12
VNN
p1634
sbatp1635
Rp1636
(dp1637
g12
VNP
p1638
sbatp1639
Rp1640
(dp1641
g12
VVP
p1642
sbag0
(g1
g2
(lp1643
V.
p1644
atp1645
Rp1646
(dp1647
g12
V.
p1648
sbatp1649
Rp1650
(dp1651
g12
VS
p1652
sbatp1653
Rp1654
(dp1655
g12
S'id: 9'
p1656
sbag0
(g1
g2
(lp1657
g0
(g1
g2
(lp1658
g0
(g1
g2
(lp1659
g0
(g1
g2
(lp1660
VThe
p1661
atp1662
Rp1663
(dp1664
g12
VDT
p1665
sbatp1666
Rp1667
(dp1668
g12
VNP
p1669
sbag0
(g1
g2
(lp1670
g0
(g1
g2
(lp1671
V,
p1672
atp1673
Rp1674
(dp1675
g12
V,
p1676
sbag0
(g1
g2
(lp1677
g0
(g1
g2
(lp1678
g0
(g1
g2
(lp1679
Vthere
p1680
atp1681
Rp1682
(dp1683
g12
VEX
p1684
sbatp1685
Rp1686
(dp1687
g12
VNP
p1688
sbag0
(g1
g2
(lp1689
g0
(g1
g2
(lp1690
V's
p1691
atp1692
Rp1693
(dp1694
g12
VVBZ
p1695
sbag0
(g1
g2
(lp1696
g0
(g1
g2
(lp1697
g0
(g1
g2
(lp1698
Va
p1699
atp1700
Rp1701
(dp1702
g12
VDT
p1703
sbag0
(g1
g2
(lp1704
Vwoman
p1705
atp1706
Rp1707
(dp1708
g12
VNN
p1709
sbatp1710
Rp1711
(dp1712
g12
VNP
p1713
sbag0
(g1
g2
(lp1714
g0
(g1
g2
(lp1715
Vin
p1716
atp1717
Rp1718
(dp1719
g12
VIN
p1720
sbag0
(g1
g2
(lp1721
g0
(g1
g2
(lp1722
Vthe
p1723
atp1724
Rp1725
(dp1726
g12
VDT
p1727
sbag0
(g1
g2
(lp1728
Vcircle
p1729
atp1730
Rp1731
(dp1732
g12
VNN
p1733
sbatp1734
Rp1735
(dp1736
g12
VNP
p1737
sbatp1738
Rp1739
(dp1740
g12
VPP
p1741
sbatp1742
Rp1743
(dp1744
g12
VNP
p1745
sbatp1746
Rp1747
(dp1748
g12
VVP
p1749
sbatp1750
Rp1751
(dp1752
g12
VS
p1753
sbag0
(g1
g2
(lp1754
V,
p1755
atp1756
Rp1757
(dp1758
g12
V,
p1759
sbatp1760
Rp1761
(dp1762
g12
VPRN
p1763
sbag0
(g1
g2
(lp1764
g0
(g1
g2
(lp1765
Vthe
p1766
atp1767
Rp1768
(dp1769
g12
VDT
p1770
sbag0
(g1
g2
(lp1771
Vcircle
p1772
atp1773
Rp1774
(dp1775
g12
VNN
p1776
sbatp1777
Rp1778
(dp1779
g12
VNP
p1780
sbag0
(g1
g2
(lp1781
g0
(g1
g2
(lp1782
Vhas
p1783
atp1784
Rp1785
(dp1786
g12
VVBZ
p1787
sbag0
(g1
g2
(lp1788
g0
(g1
g2
(lp1789
g0
(g1
g2
(lp1790
Vfi
p1791
atp1792
Rp1793
(dp1794
g12
VNN
p1795
sbatp1796
Rp1797
(dp1798
g12
VNP
p1799
sbag0
(g1
g2
(lp1800
V,
p1801
atp1802
Rp1803
(dp1804
g12
V,
p1805
sbag0
(g1
g2
(lp1806
g0
(g1
g2
(lp1807
g0
(g1
g2
(lp1808
Vfour
p1809
atp1810
Rp1811
(dp1812
g12
VCD
p1813
sbag0
(g1
g2
(lp1814
Vstars
p1815
atp1816
Rp1817
(dp1818
g12
VNNS
p1819
sbatp1820
Rp1821
(dp1822
g12
VNP
p1823
sbag0
(g1
g2
(lp1824
g0
(g1
g2
(lp1825
g0
(g1
g2
(lp1826
Vthat
p1827
atp1828
Rp1829
(dp1830
g12
VWDT
p1831
sbatp1832
Rp1833
(dp1834
g12
VWHNP
p1835
sbag0
(g1
g2
(lp1836
g0
(g1
g2
(lp1837
g0
(g1
g2
(lp1838
Vappear
p1839
atp1840
Rp1841
(dp1842
g12
VVBP
p1843
sbag0
(g1
g2
(lp1844
g0
(g1
g2
(lp1845
Vin
p1846
atp1847
Rp1848
(dp1849
g12
VIN
p1850
sbag0
(g1
g2
(lp1851
g0
(g1
g2
(lp1852
Va
p1853
atp1854
Rp1855
(dp1856
g12
VDT
p1857
sbag0
(g1
g2
(lp1858
Vpicture
p1859
atp1860
Rp1861
(dp1862
g12
VNN
p1863
sbatp1864
Rp1865
(dp1866
g12
VNP
p1867
sbatp1868
Rp1869
(dp1870
g12
VPP
p1871
sbatp1872
Rp1873
(dp1874
g12
VVP
p1875
sbatp1876
Rp1877
(dp1878
g12
VS
p1879
sbatp1880
Rp1881
(dp1882
g12
VSBAR
p1883
sbatp1884
Rp1885
(dp1886
g12
VNP
p1887
sbatp1888
Rp1889
(dp1890
g12
VNP
p1891
sbatp1892
Rp1893
(dp1894
g12
VVP
p1895
sbag0
(g1
g2
(lp1896
V.
p1897
atp1898
Rp1899
(dp1900
g12
V.
p1901
sbatp1902
Rp1903
(dp1904
g12
VS
p1905
sbatp1906
Rp1907
(dp1908
g12
S'id: 10'
p1909
sbag0
(g1
g2
(lp1910
g0
(g1
g2
(lp1911
g0
(g1
g2
(lp1912
g0
(g1
g2
(lp1913
VThe
p1914
atp1915
Rp1916
(dp1917
g12
VDT
p1918
sbag0
(g1
g2
(lp1919
Vlady
p1920
atp1921
Rp1922
(dp1923
g12
VNN
p1924
sbatp1925
Rp1926
(dp1927
g12
VNP
p1928
sbag0
(g1
g2
(lp1929
g0
(g1
g2
(lp1930
g0
(g1
g2
(lp1931
Vis
p1932
atp1933
Rp1934
(dp1935
g12
VVBZ
p1936
sbag0
(g1
g2
(lp1937
g0
(g1
g2
(lp1938
Vriding
p1939
atp1940
Rp1941
(dp1942
g12
VVBG
p1943
sbag0
(g1
g2
(lp1944
g0
(g1
g2
(lp1945
Vthe
p1946
atp1947
Rp1948
(dp1949
g12
VDT
p1950
sbag0
(g1
g2
(lp1951
Vhorse
p1952
atp1953
Rp1954
(dp1955
g12
VNN
p1956
sbatp1957
Rp1958
(dp1959
g12
VNP
p1960
sbag0
(g1
g2
(lp1961
V,
p1962
atp1963
Rp1964
(dp1965
g12
V,
p1966
sbag0
(g1
g2
(lp1967
g0
(g1
g2
(lp1968
Vwhile
p1969
atp1970
Rp1971
(dp1972
g12
VIN
p1973
sbag0
(g1
g2
(lp1974
g0
(g1
g2
(lp1975
g0
(g1
g2
(lp1976
Vshe
p1977
atp1978
Rp1979
(dp1980
g12
VPRP
p1981
sbatp1982
Rp1983
(dp1984
g12
VNP
p1985
sbag0
(g1
g2
(lp1986
g0
(g1
g2
(lp1987
Vbend
p1988
atp1989
Rp1990
(dp1991
g12
VVB
p1992
sbatp1993
Rp1994
(dp1995
g12
VVP
p1996
sbatp1997
Rp1998
(dp1999
g12
VS
p2000
sbatp2001
Rp2002
(dp2003
g12
VSBAR
p2004
sbatp2005
Rp2006
(dp2007
g12
VVP
p2008
sbatp2009
Rp2010
(dp2011
g12
VVP
p2012
sbag0
(g1
g2
(lp2013
V,
p2014
atp2015
Rp2016
(dp2017
g12
V,
p2018
sbag0
(g1
g2
(lp2019
g0
(g1
g2
(lp2020
Vbends
p2021
atp2022
Rp2023
(dp2024
g12
VVBZ
p2025
sbag0
(g1
g2
(lp2026
g0
(g1
g2
(lp2027
Vher
p2028
atp2029
Rp2030
(dp2031
g12
VPRP$
p2032
sbag0
(g1
g2
(lp2033
Vknees
p2034
atp2035
Rp2036
(dp2037
g12
VNNS
p2038
sbatp2039
Rp2040
(dp2041
g12
VNP
p2042
sbatp2043
Rp2044
(dp2045
g12
VVP
p2046
sbag0
(g1
g2
(lp2047
Vand
p2048
atp2049
Rp2050
(dp2051
g12
VCC
p2052
sbag0
(g1
g2
(lp2053
g0
(g1
g2
(lp2054
Vholds
p2055
atp2056
Rp2057
(dp2058
g12
VVBZ
p2059
sbag0
(g1
g2
(lp2060
g0
(g1
g2
(lp2061
Vher
p2062
atp2063
Rp2064
(dp2065
g12
VPRP$
p2066
sbag0
(g1
g2
(lp2067
Varms
p2068
atp2069
Rp2070
(dp2071
g12
VNNS
p2072
sbatp2073
Rp2074
(dp2075
g12
VNP
p2076
sbag0
(g1
g2
(lp2077
g0
(g1
g2
(lp2078
Vabove
p2079
atp2080
Rp2081
(dp2082
g12
VIN
p2083
sbag0
(g1
g2
(lp2084
g0
(g1
g2
(lp2085
Vus
p2086
atp2087
Rp2088
(dp2089
g12
VPRP
p2090
sbatp2091
Rp2092
(dp2093
g12
VNP
p2094
sbatp2095
Rp2096
(dp2097
g12
VPP
p2098
sbatp2099
Rp2100
(dp2101
g12
VVP
p2102
sbatp2103
Rp2104
(dp2105
g12
VVP
p2106
sbag0
(g1
g2
(lp2107
V.
p2108
atp2109
Rp2110
(dp2111
g12
V.
p2112
sbatp2113
Rp2114
(dp2115
g12
VS
p2116
sbatp2117
Rp2118
(dp2119
g12
S'id: 11'
p2120
sbag0
(g1
g2
(lp2121
g0
(g1
g2
(lp2122
g0
(g1
g2
(lp2123
g0
(g1
g2
(lp2124
VThere
p2125
atp2126
Rp2127
(dp2128
g12
VEX
p2129
sbatp2130
Rp2131
(dp2132
g12
VNP
p2133
sbag0
(g1
g2
(lp2134
g0
(g1
g2
(lp2135
g0
(g1
g2
(lp2136
g0
(g1
g2
(lp2137
g0
(g1
g2
(lp2138
g0
(g1
g2
(lp2139
Vone
p2140
atp2141
Rp2142
(dp2143
g12
VCD
p2144
sbatp2145
Rp2146
(dp2147
g12
VNP
p2148
sbag0
(g1
g2
(lp2149
V,
p2150
atp2151
Rp2152
(dp2153
g12
V,
p2154
sbag0
(g1
g2
(lp2155
g0
(g1
g2
(lp2156
Vtwo
p2157
atp2158
Rp2159
(dp2160
g12
VCD
p2161
sbatp2162
Rp2163
(dp2164
g12
VNP
p2165
sbag0
(g1
g2
(lp2166
V,
p2167
atp2168
Rp2169
(dp2170
g12
V,
p2171
sbag0
(g1
g2
(lp2172
g0
(g1
g2
(lp2173
Vthree
p2174
atp2175
Rp2176
(dp2177
g12
VCD
p2178
sbatp2179
Rp2180
(dp2181
g12
VNP
p2182
sbag0
(g1
g2
(lp2183
V,
p2184
atp2185
Rp2186
(dp2187
g12
V,
p2188
sbag0
(g1
g2
(lp2189
g0
(g1
g2
(lp2190
Vfour
p2191
atp2192
Rp2193
(dp2194
g12
VCD
p2195
sbatp2196
Rp2197
(dp2198
g12
VNP
p2199
sbag0
(g1
g2
(lp2200
V,
p2201
atp2202
Rp2203
(dp2204
g12
V,
p2205
sbag0
(g1
g2
(lp2206
g0
(g1
g2
(lp2207
Vfive
p2208
atp2209
Rp2210
(dp2211
g12
VCD
p2212
sbatp2213
Rp2214
(dp2215
g12
VNP
p2216
sbag0
(g1
g2
(lp2217
V,
p2218
atp2219
Rp2220
(dp2221
g12
V,
p2222
sbag0
(g1
g2
(lp2223
g0
(g1
g2
(lp2224
Vfive
p2225
atp2226
Rp2227
(dp2228
g12
VCD
p2229
sbatp2230
Rp2231
(dp2232
g12
VNP
p2233
sbatp2234
Rp2235
(dp2236
g12
VNP
p2237
sbag0
(g1
g2
(lp2238
V,
p2239
atp2240
Rp2241
(dp2242
g12
V,
p2243
sbag0
(g1
g2
(lp2244
g0
(g1
g2
(lp2245
Vfive
p2246
atp2247
Rp2248
(dp2249
g12
VCD
p2250
sbag0
(g1
g2
(lp2251
Vstretchers
p2252
atp2253
Rp2254
(dp2255
g12
VNNS
p2256
sbatp2257
Rp2258
(dp2259
g12
VNP
p2260
sbag0
(g1
g2
(lp2261
V,
p2262
atp2263
Rp2264
(dp2265
g12
V,
p2266
sbag0
(g1
g2
(lp2267
g0
(g1
g2
(lp2268
g0
(g1
g2
(lp2269
Vwhich
p2270
atp2271
Rp2272
(dp2273
g12
VWDT
p2274
sbatp2275
Rp2276
(dp2277
g12
VWHNP
p2278
sbag0
(g1
g2
(lp2279
g0
(g1
g2
(lp2280
g0
(g1
g2
(lp2281
Vgive
p2282
atp2283
Rp2284
(dp2285
g12
VVBP
p2286
sbag0
(g1
g2
(lp2287
g0
(g1
g2
(lp2288
Vme
p2289
atp2290
Rp2291
(dp2292
g12
VPRP
p2293
sbatp2294
Rp2295
(dp2296
g12
VNP
p2297
sbag0
(g1
g2
(lp2298
g0
(g1
g2
(lp2299
Vher
p2300
atp2301
Rp2302
(dp2303
g12
VPRP
p2304
sbatp2305
Rp2306
(dp2307
g12
VNP
p2308
sbatp2309
Rp2310
(dp2311
g12
VVP
p2312
sbatp2313
Rp2314
(dp2315
g12
VS
p2316
sbatp2317
Rp2318
(dp2319
g12
VSBAR
p2320
sbatp2321
Rp2322
(dp2323
g12
VNP
p2324
sbatp2325
Rp2326
(dp2327
g12
VS
p2328
sbatp2329
Rp2330
(dp2331
g12
VVP
p2332
sbag0
(g1
g2
(lp2333
V.
p2334
atp2335
Rp2336
(dp2337
g12
V.
p2338
sbatp2339
Rp2340
(dp2341
g12
VS
p2342
sbatp2343
Rp2344
(dp2345
g12
S'id: 12'
p2346
sbag0
(g1
g2
(lp2347
g0
(g1
g2
(lp2348
g0
(g1
g2
(lp2349
g0
(g1
g2
(lp2350
VThe
p2351
atp2352
Rp2353
(dp2354
g12
VDT
p2355
sbag0
(g1
g2
(lp2356
Vhorse
p2357
atp2358
Rp2359
(dp2360
g12
VNN
p2361
sbatp2362
Rp2363
(dp2364
g12
VNP
p2365
sbag0
(g1
g2
(lp2366
g0
(g1
g2
(lp2367
Vis
p2368
atp2369
Rp2370
(dp2371
g12
VVBZ
p2372
sbag0
(g1
g2
(lp2373
g0
(g1
g2
(lp2374
Vtrotting
p2375
atp2376
Rp2377
(dp2378
g12
VVBG
p2379
sbag0
(g1
g2
(lp2380
g0
(g1
g2
(lp2381
g0
(g1
g2
(lp2382
Vto
p2383
atp2384
Rp2385
(dp2386
g12
VTO
p2387
sbag0
(g1
g2
(lp2388
g0
(g1
g2
(lp2389
Vhelp
p2390
atp2391
Rp2392
(dp2393
g12
VVB
p2394
sbag0
(g1
g2
(lp2395
g0
(g1
g2
(lp2396
Vthe
p2397
atp2398
Rp2399
(dp2400
g12
VDT
p2401
sbag0
(g1
g2
(lp2402
Vlady
p2403
atp2404
Rp2405
(dp2406
g12
VNN
p2407
sbatp2408
Rp2409
(dp2410
g12
VNP
p2411
sbatp2412
Rp2413
(dp2414
g12
VVP
p2415
sbatp2416
Rp2417
(dp2418
g12
VVP
p2419
sbatp2420
Rp2421
(dp2422
g12
VS
p2423
sbatp2424
Rp2425
(dp2426
g12
VVP
p2427
sbatp2428
Rp2429
(dp2430
g12
VVP
p2431
sbag0
(g1
g2
(lp2432
V.
p2433
atp2434
Rp2435
(dp2436
g12
V.
p2437
sbatp2438
Rp2439
(dp2440
g12
VS
p2441
sbatp2442
Rp2443
(dp2444
g12
S'id: 13'
p2445
sbag0
(g1
g2
(lp2446
g0
(g1
g2
(lp2447
g0
(g1
g2
(lp2448
g0
(g1
g2
(lp2449
VThe
p2450
atp2451
Rp2452
(dp2453
g12
VDT
p2454
sbag0
(g1
g2
(lp2455
Vman
p2456
atp2457
Rp2458
(dp2459
g12
VNN
p2460
sbatp2461
Rp2462
(dp2463
g12
VNP
p2464
sbag0
(g1
g2
(lp2465
g0
(g1
g2
(lp2466
Vis
p2467
atp2468
Rp2469
(dp2470
g12
VVBZ
p2471
sbag0
(g1
g2
(lp2472
g0
(g1
g2
(lp2473
Vbalancing
p2474
atp2475
Rp2476
(dp2477
g12
VVBG
p2478
sbag0
(g1
g2
(lp2479
g0
(g1
g2
(lp2480
Von
p2481
atp2482
Rp2483
(dp2484
g12
VIN
p2485
sbag0
(g1
g2
(lp2486
g0
(g1
g2
(lp2487
Vthe
p2488
atp2489
Rp2490
(dp2491
g12
VDT
p2492
sbag0
(g1
g2
(lp2493
Vi
p2494
atp2495
Rp2496
(dp2497
g12
VFW
p2498
sbag0
(g1
g2
(lp2499
Vwire
p2500
atp2501
Rp2502
(dp2503
g12
VNN
p2504
sbatp2505
Rp2506
(dp2507
g12
VNP
p2508
sbatp2509
Rp2510
(dp2511
g12
VPP
p2512
sbatp2513
Rp2514
(dp2515
g12
VVP
p2516
sbatp2517
Rp2518
(dp2519
g12
VVP
p2520
sbag0
(g1
g2
(lp2521
V.
p2522
atp2523
Rp2524
(dp2525
g12
V.
p2526
sbatp2527
Rp2528
(dp2529
g12
VS
p2530
sbatp2531
Rp2532
(dp2533
g12
S'id: 14'
p2534
sbag0
(g1
g2
(lp2535
g0
(g1
g2
(lp2536
g0
(g1
g2
(lp2537
g0
(g1
g2
(lp2538
VHe
p2539
atp2540
Rp2541
(dp2542
g12
VPRP
p2543
sbatp2544
Rp2545
(dp2546
g12
VNP
p2547
sbag0
(g1
g2
(lp2548
g0
(g1
g2
(lp2549
V's
p2550
atp2551
Rp2552
(dp2553
g12
VVBZ
p2554
sbag0
(g1
g2
(lp2555
g0
(g1
g2
(lp2556
Vwearing
p2557
atp2558
Rp2559
(dp2560
g12
VVBG
p2561
sbag0
(g1
g2
(lp2562
g0
(g1
g2
(lp2563
Va
p2564
atp2565
Rp2566
(dp2567
g12
VDT
p2568
sbag0
(g1
g2
(lp2569
Vcomplete
p2570
atp2571
Rp2572
(dp2573
g12
VJJ
p2574
sbag0
(g1
g2
(lp2575
Vblack
p2576
atp2577
Rp2578
(dp2579
g12
VJJ
p2580
sbag0
(g1
g2
(lp2581
Vsuit
p2582
atp2583
Rp2584
(dp2585
g12
VNN
p2586
sbatp2587
Rp2588
(dp2589
g12
VNP
p2590
sbatp2591
Rp2592
(dp2593
g12
VVP
p2594
sbatp2595
Rp2596
(dp2597
g12
VVP
p2598
sbag0
(g1
g2
(lp2599
V.
p2600
atp2601
Rp2602
(dp2603
g12
V.
p2604
sbatp2605
Rp2606
(dp2607
g12
VS
p2608
sbatp2609
Rp2610
(dp2611
g12
S'id: 15'
p2612
sbatp2613
Rp2614
(dp2615
g12
S'sentences'
p2616
sb.