ccopy_reg
_reconstructor
p0
(cnltk.tree
Tree
p1
c__builtin__
list
p2
(lp3
g0
(g1
g2
(lp4
g0
(g1
g2
(lp5
g0
(g1
g2
(lp6
Vok
p7
atp8
Rp9
(dp10
S'_label'
p11
VNN
p12
sbag0
(g1
g2
(lp13
V.
p14
atp15
Rp16
(dp17
g11
V.
p18
sbatp19
Rp20
(dp21
g11
VNP
p22
sbatp23
Rp24
(dp25
g11
S'id: 0'
p26
sbag0
(g1
g2
(lp27
g0
(g1
g2
(lp28
g0
(g1
g2
(lp29
g0
(g1
g2
(lp30
g0
(g1
g2
(lp31
g0
(g1
g2
(lp32
VThe
p33
atp34
Rp35
(dp36
g11
VDT
p37
sbatp38
Rp39
(dp40
g11
VNP
p41
sbag0
(g1
g2
(lp42
g0
(g1
g2
(lp43
V,
p44
atp45
Rp46
(dp47
g11
V,
p48
sbag0
(g1
g2
(lp49
g0
(g1
g2
(lp50
g0
(g1
g2
(lp51
Vthe
p52
atp53
Rp54
(dp55
g11
VDT
p56
sbag0
(g1
g2
(lp57
Vfather
p58
atp59
Rp60
(dp61
g11
VNN
p62
sbag0
(g1
g2
(lp63
V's
p64
atp65
Rp66
(dp67
g11
VPOS
p68
sbatp69
Rp70
(dp71
g11
VNP
p72
sbag0
(g1
g2
(lp73
V,
p74
atp75
Rp76
(dp77
g11
V,
p78
sbag0
(g1
g2
(lp79
g0
(g1
g2
(lp80
Vthe
p81
atp82
Rp83
(dp84
g11
VDT
p85
sbatp86
Rp87
(dp88
g11
VNP
p89
sbag0
(g1
g2
(lp90
V,
p91
atp92
Rp93
(dp94
g11
V,
p95
sbag0
(g1
g2
(lp96
g0
(g1
g2
(lp97
Vhe
p98
atp99
Rp100
(dp101
g11
VPRP
p102
sbatp103
Rp104
(dp105
g11
VNP
p106
sbatp107
Rp108
(dp109
g11
VNP
p110
sbag0
(g1
g2
(lp111
V,
p112
atp113
Rp114
(dp115
g11
V,
p116
sbatp117
Rp118
(dp119
g11
VPRN
p120
sbatp121
Rp122
(dp123
g11
VNP
p124
sbag0
(g1
g2
(lp125
g0
(g1
g2
(lp126
g0
(g1
g2
(lp127
g0
(g1
g2
(lp128
Vhe
p129
atp130
Rp131
(dp132
g11
VPRP
p133
sbatp134
Rp135
(dp136
g11
VNP
p137
sbag0
(g1
g2
(lp138
g0
(g1
g2
(lp139
V's
p140
atp141
Rp142
(dp143
g11
VVBZ
p144
sbag0
(g1
g2
(lp145
g0
(g1
g2
(lp146
Vreading
p147
atp148
Rp149
(dp150
g11
VVBG
p151
sbag0
(g1
g2
(lp152
g0
(g1
g2
(lp153
Vto
p154
atp155
Rp156
(dp157
g11
VTO
p158
sbatp159
Rp160
(dp161
g11
VPP
p162
sbatp163
Rp164
(dp165
g11
VVP
p166
sbatp167
Rp168
(dp169
g11
VVP
p170
sbatp171
Rp172
(dp173
g11
VS
p174
sbatp175
Rp176
(dp177
g11
VSBAR
p178
sbatp179
Rp180
(dp181
g11
VNP
p182
sbag0
(g1
g2
(lp183
V,
p184
atp185
Rp186
(dp187
g11
V,
p188
sbag0
(g1
g2
(lp189
g0
(g1
g2
(lp190
g0
(g1
g2
(lp191
Vto
p192
atp193
Rp194
(dp195
g11
VTO
p196
sbag0
(g1
g2
(lp197
g0
(g1
g2
(lp198
Vthe
p199
atp200
Rp201
(dp202
g11
VDT
p203
sbatp204
Rp205
(dp206
g11
VNP
p207
sbatp208
Rp209
(dp210
g11
VPP
p211
sbag0
(g1
g2
(lp212
V,
p213
atp214
Rp215
(dp216
g11
V,
p217
sbag0
(g1
g2
(lp218
g0
(g1
g2
(lp219
Vto
p220
atp221
Rp222
(dp223
g11
VTO
p224
sbag0
(g1
g2
(lp225
g0
(g1
g2
(lp226
Vthe
p227
atp228
Rp229
(dp230
g11
VDT
p231
sbag0
(g1
g2
(lp232
Vchildren
p233
atp234
Rp235
(dp236
g11
VNNS
p237
sbatp238
Rp239
(dp240
g11
VNP
p241
sbatp242
Rp243
(dp244
g11
VPP
p245
sbatp246
Rp247
(dp248
g11
VPP
p249
sbag0
(g1
g2
(lp250
V,
p251
atp252
Rp253
(dp254
g11
V,
p255
sbag0
(g1
g2
(lp256
g0
(g1
g2
(lp257
Vno
p258
atp259
Rp260
(dp261
g11
VDT
p262
sbag0
(g1
g2
(lp263
Vhe
p264
atp265
Rp266
(dp267
g11
VPRP
p268
sbatp269
Rp270
(dp271
g11
VNP
p272
sbag0
(g1
g2
(lp273
g0
(g1
g2
(lp274
V's
p275
atp276
Rp277
(dp278
g11
VVBZ
p279
sbag0
(g1
g2
(lp280
g0
(g1
g2
(lp281
Vreading
p282
atp283
Rp284
(dp285
g11
VVBG
p286
sbag0
(g1
g2
(lp287
g0
(g1
g2
(lp288
Va
p289
atp290
Rp291
(dp292
g11
VDT
p293
sbag0
(g1
g2
(lp294
Vbook
p295
atp296
Rp297
(dp298
g11
VNN
p299
sbatp300
Rp301
(dp302
g11
VNP
p303
sbatp304
Rp305
(dp306
g11
VVP
p307
sbatp308
Rp309
(dp310
g11
VVP
p311
sbag0
(g1
g2
(lp312
V.
p313
atp314
Rp315
(dp316
g11
V.
p317
sbatp318
Rp319
(dp320
g11
VS
p321
sbatp322
Rp323
(dp324
g11
S'id: 1'
p325
sbag0
(g1
g2
(lp326
g0
(g1
g2
(lp327
g0
(g1
g2
(lp328
VAnd
p329
atp330
Rp331
(dp332
g11
VCC
p333
sbag0
(g1
g2
(lp334
g0
(g1
g2
(lp335
V,
p336
atp337
Rp338
(dp339
g11
V,
p340
sbag0
(g1
g2
(lp341
g0
(g1
g2
(lp342
g0
(g1
g2
(lp343
Vthe
p344
atp345
Rp346
(dp347
g11
VDT
p348
sbag0
(g1
g2
(lp349
Vleaves
p350
atp351
Rp352
(dp353
g11
VNNS
p354
sbatp355
Rp356
(dp357
g11
VNP
p358
sbag0
(g1
g2
(lp359
V,
p360
atp361
Rp362
(dp363
g11
V,
p364
sbag0
(g1
g2
(lp365
g0
(g1
g2
(lp366
Vthe
p367
atp368
Rp369
(dp370
g11
VDT
p371
sbag0
(g1
g2
(lp372
Vleaves
p373
atp374
Rp375
(dp376
g11
VNNS
p377
sbatp378
Rp379
(dp380
g11
VNP
p381
sbag0
(g1
g2
(lp382
g0
(g1
g2
(lp383
Vare
p384
atp385
Rp386
(dp387
g11
VVBP
p388
sbag0
(g1
g2
(lp389
g0
(g1
g2
(lp390
Von
p391
atp392
Rp393
(dp394
g11
VIN
p395
sbatp396
Rp397
(dp398
g11
VPP
p399
sbatp400
Rp401
(dp402
g11
VVP
p403
sbatp404
Rp405
(dp406
g11
VS
p407
sbag0
(g1
g2
(lp408
V,
p409
atp410
Rp411
(dp412
g11
V,
p413
sbatp414
Rp415
(dp416
g11
VPRN
p417
sbag0
(g1
g2
(lp418
g0
(g1
g2
(lp419
Vthe
p420
atp421
Rp422
(dp423
g11
VDT
p424
sbag0
(g1
g2
(lp425
Vleaves
p426
atp427
Rp428
(dp429
g11
VNNS
p430
sbatp431
Rp432
(dp433
g11
VNP
p434
sbag0
(g1
g2
(lp435
g0
(g1
g2
(lp436
Vare
p437
atp438
Rp439
(dp440
g11
VVBP
p441
sbag0
(g1
g2
(lp442
g0
(g1
g2
(lp443
Von
p444
atp445
Rp446
(dp447
g11
VIN
p448
sbag0
(g1
g2
(lp449
g0
(g1
g2
(lp450
V,
p451
atp452
Rp453
(dp454
g11
V,
p455
sbag0
(g1
g2
(lp456
g0
(g1
g2
(lp457
g0
(g1
g2
(lp458
Vare
p459
atp460
Rp461
(dp462
g11
VVBP
p463
sbatp464
Rp465
(dp466
g11
VVP
p467
sbatp468
Rp469
(dp470
g11
VS
p471
sbag0
(g1
g2
(lp472
V,
p473
atp474
Rp475
(dp476
g11
V,
p477
sbatp478
Rp479
(dp480
g11
VPRN
p481
sbag0
(g1
g2
(lp482
g0
(g1
g2
(lp483
Vo
p484
atp485
Rp486
(dp487
g11
VNN
p488
sbag0
(g1
g2
(lp489
Vgosh
p490
atp491
Rp492
(dp493
g11
VNN
p494
sbatp495
Rp496
(dp497
g11
VNP
p498
sbatp499
Rp500
(dp501
g11
VPP
p502
sbatp503
Rp504
(dp505
g11
VVP
p506
sbag0
(g1
g2
(lp507
V.
p508
atp509
Rp510
(dp511
g11
V.
p512
sbatp513
Rp514
(dp515
g11
VS
p516
sbatp517
Rp518
(dp519
g11
S'id: 2'
p520
sbag0
(g1
g2
(lp521
g0
(g1
g2
(lp522
g0
(g1
g2
(lp523
g0
(g1
g2
(lp524
g0
(g1
g2
(lp525
VHe
p526
atp527
Rp528
(dp529
g11
VPRP
p530
sbatp531
Rp532
(dp533
g11
VNP
p534
sbag0
(g1
g2
(lp535
g0
(g1
g2
(lp536
Vhas
p537
atp538
Rp539
(dp540
g11
VVBZ
p541
sbag0
(g1
g2
(lp542
g0
(g1
g2
(lp543
g0
(g1
g2
(lp544
Vsandals
p545
atp546
Rp547
(dp548
g11
VNNS
p549
sbatp550
Rp551
(dp552
g11
VNP
p553
sbag0
(g1
g2
(lp554
g0
(g1
g2
(lp555
Von
p556
atp557
Rp558
(dp559
g11
VIN
p560
sbag0
(g1
g2
(lp561
g0
(g1
g2
(lp562
Vhis
p563
atp564
Rp565
(dp566
g11
VPRP$
p567
sbag0
(g1
g2
(lp568
Vfeet
p569
atp570
Rp571
(dp572
g11
VNNS
p573
sbatp574
Rp575
(dp576
g11
VNP
p577
sbatp578
Rp579
(dp580
g11
VPP
p581
sbatp582
Rp583
(dp584
g11
VNP
p585
sbatp586
Rp587
(dp588
g11
VVP
p589
sbatp590
Rp591
(dp592
g11
VS
p593
sbag0
(g1
g2
(lp594
V,
p595
atp596
Rp597
(dp598
g11
V,
p599
sbag0
(g1
g2
(lp600
g0
(g1
g2
(lp601
g0
(g1
g2
(lp602
Vno
p603
atp604
Rp605
(dp606
g11
VDT
p607
sbatp608
Rp609
(dp610
g11
VNP
p611
sbag0
(g1
g2
(lp612
V,
p613
atp614
Rp615
(dp616
g11
V,
p617
sbag0
(g1
g2
(lp618
g0
(g1
g2
(lp619
Vit
p620
atp621
Rp622
(dp623
g11
VPRP
p624
sbatp625
Rp626
(dp627
g11
VNP
p628
sbatp629
Rp630
(dp631
g11
VS
p632
sbag0
(g1
g2
(lp633
V,
p634
atp635
Rp636
(dp637
g11
V,
p638
sbag0
(g1
g2
(lp639
g0
(g1
g2
(lp640
g0
(g1
g2
(lp641
Vthey
p642
atp643
Rp644
(dp645
g11
VPRP
p646
sbatp647
Rp648
(dp649
g11
VNP
p650
sbag0
(g1
g2
(lp651
g0
(g1
g2
(lp652
Vcame
p653
atp654
Rp655
(dp656
g11
VVBD
p657
sbag0
(g1
g2
(lp658
g0
(g1
g2
(lp659
Voff
p660
atp661
Rp662
(dp663
g11
VRP
p664
sbatp665
Rp666
(dp667
g11
VPRT
p668
sbag0
(g1
g2
(lp669
g0
(g1
g2
(lp670
Vhis
p671
atp672
Rp673
(dp674
g11
VPRP$
p675
sbag0
(g1
g2
(lp676
Vfeet
p677
atp678
Rp679
(dp680
g11
VNNS
p681
sbatp682
Rp683
(dp684
g11
VNP
p685
sbatp686
Rp687
(dp688
g11
VVP
p689
sbatp690
Rp691
(dp692
g11
VS
p693
sbag0
(g1
g2
(lp694
V.
p695
atp696
Rp697
(dp698
g11
V.
p699
sbatp700
Rp701
(dp702
g11
VS
p703
sbatp704
Rp705
(dp706
g11
S'id: 3'
p707
sbag0
(g1
g2
(lp708
g0
(g1
g2
(lp709
g0
(g1
g2
(lp710
VAnd
p711
atp712
Rp713
(dp714
g11
VCC
p715
sbag0
(g1
g2
(lp716
g0
(g1
g2
(lp717
Vhe
p718
atp719
Rp720
(dp721
g11
VPRP
p722
sbatp723
Rp724
(dp725
g11
VNP
p726
sbag0
(g1
g2
(lp727
V,
p728
atp729
Rp730
(dp731
g11
V,
p732
sbag0
(g1
g2
(lp733
g0
(g1
g2
(lp734
Vshe
p735
atp736
Rp737
(dp738
g11
VPRP
p739
sbatp740
Rp741
(dp742
g11
VNP
p743
sbag0
(g1
g2
(lp744
g0
(g1
g2
(lp745
V's
p746
atp747
Rp748
(dp749
g11
VVBZ
p750
sbag0
(g1
g2
(lp751
g0
(g1
g2
(lp752
Vgot
p753
atp754
Rp755
(dp756
g11
VVBD
p757
sbag0
(g1
g2
(lp758
g0
(g1
g2
(lp759
Va
p760
atp761
Rp762
(dp763
g11
VDT
p764
sbag0
(g1
g2
(lp765
Vpicnic
p766
atp767
Rp768
(dp769
g11
VNN
p770
sbag0
(g1
g2
(lp771
Vbasket
p772
atp773
Rp774
(dp775
g11
VNN
p776
sbatp777
Rp778
(dp779
g11
VNP
p780
sbatp781
Rp782
(dp783
g11
VVP
p784
sbatp785
Rp786
(dp787
g11
VVP
p788
sbag0
(g1
g2
(lp789
V.
p790
atp791
Rp792
(dp793
g11
V.
p794
sbatp795
Rp796
(dp797
g11
VS
p798
sbatp799
Rp800
(dp801
g11
S'id: 4'
p802
sbag0
(g1
g2
(lp803
g0
(g1
g2
(lp804
g0
(g1
g2
(lp805
VAnd
p806
atp807
Rp808
(dp809
g11
VCC
p810
sbag0
(g1
g2
(lp811
g0
(g1
g2
(lp812
Vthe
p813
atp814
Rp815
(dp816
g11
VDT
p817
sbag0
(g1
g2
(lp818
Vradio
p819
atp820
Rp821
(dp822
g11
VNN
p823
sbatp824
Rp825
(dp826
g11
VNP
p827
sbag0
(g1
g2
(lp828
g0
(g1
g2
(lp829
Vis
p830
atp831
Rp832
(dp833
g11
VVBZ
p834
sbag0
(g1
g2
(lp835
V,
p836
atp837
Rp838
(dp839
g11
V,
p840
sbag0
(g1
g2
(lp841
g0
(g1
g2
(lp842
g0
(g1
g2
(lp843
g0
(g1
g2
(lp844
Vis
p845
atp846
Rp847
(dp848
g11
VVBZ
p849
sbag0
(g1
g2
(lp850
g0
(g1
g2
(lp851
Vplaying
p852
atp853
Rp854
(dp855
g11
VVBG
p856
sbatp857
Rp858
(dp859
g11
VVP
p860
sbatp861
Rp862
(dp863
g11
VVP
p864
sbatp865
Rp866
(dp867
g11
VS
p868
sbatp869
Rp870
(dp871
g11
VSBAR
p872
sbatp873
Rp874
(dp875
g11
VVP
p876
sbag0
(g1
g2
(lp877
V.
p878
atp879
Rp880
(dp881
g11
V.
p882
sbatp883
Rp884
(dp885
g11
VS
p886
sbatp887
Rp888
(dp889
g11
S'id: 5'
p890
sbag0
(g1
g2
(lp891
g0
(g1
g2
(lp892
g0
(g1
g2
(lp893
g0
(g1
g2
(lp894
VAnd
p895
atp896
Rp897
(dp898
g11
VCC
p899
sbag0
(g1
g2
(lp900
g0
(g1
g2
(lp901
Vhe
p902
atp903
Rp904
(dp905
g11
VPRP
p906
sbatp907
Rp908
(dp909
g11
VNP
p910
sbag0
(g1
g2
(lp911
g0
(g1
g2
(lp912
V's
p913
atp914
Rp915
(dp916
g11
VVBZ
p917
sbag0
(g1
g2
(lp918
g0
(g1
g2
(lp919
Vflying
p920
atp921
Rp922
(dp923
g11
VVBG
p924
sbag0
(g1
g2
(lp925
g0
(g1
g2
(lp926
Va
p927
atp928
Rp929
(dp930
g11
VDT
p931
sbag0
(g1
g2
(lp932
Vkite
p933
atp934
Rp935
(dp936
g11
VNN
p937
sbatp938
Rp939
(dp940
g11
VNP
p941
sbatp942
Rp943
(dp944
g11
VVP
p945
sbatp946
Rp947
(dp948
g11
VVP
p949
sbatp950
Rp951
(dp952
g11
VS
p953
sbag0
(g1
g2
(lp954
V,
p955
atp956
Rp957
(dp958
g11
V,
p959
sbag0
(g1
g2
(lp960
g0
(g1
g2
(lp961
Vthe
p962
atp963
Rp964
(dp965
g11
VDT
p966
sbag0
(g1
g2
(lp967
Vdog
p968
atp969
Rp970
(dp971
g11
VNN
p972
sbatp973
Rp974
(dp975
g11
VNP
p976
sbag0
(g1
g2
(lp977
g0
(g1
g2
(lp978
Vis
p979
atp980
Rp981
(dp982
g11
VVBZ
p983
sbag0
(g1
g2
(lp984
g0
(g1
g2
(lp985
Vfollowing
p986
atp987
Rp988
(dp989
g11
VVBG
p990
sbag0
(g1
g2
(lp991
g0
(g1
g2
(lp992
Vhim
p993
atp994
Rp995
(dp996
g11
VPRP
p997
sbatp998
Rp999
(dp1000
g11
VNP
p1001
sbatp1002
Rp1003
(dp1004
g11
VVP
p1005
sbatp1006
Rp1007
(dp1008
g11
VVP
p1009
sbag0
(g1
g2
(lp1010
V.
p1011
atp1012
Rp1013
(dp1014
g11
V.
p1015
sbatp1016
Rp1017
(dp1018
g11
VS
p1019
sbatp1020
Rp1021
(dp1022
g11
S'id: 6'
p1023
sbag0
(g1
g2
(lp1024
g0
(g1
g2
(lp1025
g0
(g1
g2
(lp1026
g0
(g1
g2
(lp1027
VThe
p1028
atp1029
Rp1030
(dp1031
g11
VDT
p1032
sbag0
(g1
g2
(lp1033
Vfisherman
p1034
atp1035
Rp1036
(dp1037
g11
VNN
p1038
sbatp1039
Rp1040
(dp1041
g11
VNP
p1042
sbag0
(g1
g2
(lp1043
g0
(g1
g2
(lp1044
Vcaught
p1045
atp1046
Rp1047
(dp1048
g11
VVBD
p1049
sbag0
(g1
g2
(lp1050
g0
(g1
g2
(lp1051
Va
p1052
atp1053
Rp1054
(dp1055
g11
VDT
p1056
sbag0
(g1
g2
(lp1057
Vfish
p1058
atp1059
Rp1060
(dp1061
g11
VNN
p1062
sbatp1063
Rp1064
(dp1065
g11
VNP
p1066
sbatp1067
Rp1068
(dp1069
g11
VVP
p1070
sbag0
(g1
g2
(lp1071
V.
p1072
atp1073
Rp1074
(dp1075
g11
V.
p1076
sbatp1077
Rp1078
(dp1079
g11
VS
p1080
sbatp1081
Rp1082
(dp1083
g11
S'id: 7'
p1084
sbag0
(g1
g2
(lp1085
g0
(g1
g2
(lp1086
g0
(g1
g2
(lp1087
g0
(g1
g2
(lp1088
VAnd
p1089
atp1090
Rp1091
(dp1092
g11
VCC
p1093
sbatp1094
Rp1095
(dp1096
g11
VVP
p1097
sbag0
(g1
g2
(lp1098
V.
p1099
atp1100
Rp1101
(dp1102
g11
V.
p1103
sbatp1104
Rp1105
(dp1106
g11
VS
p1107
sbatp1108
Rp1109
(dp1110
g11
S'id: 8'
p1111
sbag0
(g1
g2
(lp1112
g0
(g1
g2
(lp1113
g0
(g1
g2
(lp1114
g0
(g1
g2
(lp1115
VThere
p1116
atp1117
Rp1118
(dp1119
g11
VRB
p1120
sbatp1121
Rp1122
(dp1123
g11
VADVP
p1124
sbag0
(g1
g2
(lp1125
V,
p1126
atp1127
Rp1128
(dp1129
g11
V,
p1130
sbag0
(g1
g2
(lp1131
g0
(g1
g2
(lp1132
Vthere
p1133
atp1134
Rp1135
(dp1136
g11
VEX
p1137
sbatp1138
Rp1139
(dp1140
g11
VNP
p1141
sbag0
(g1
g2
(lp1142
g0
(g1
g2
(lp1143
Vin
p1144
atp1145
Rp1146
(dp1147
g11
VIN
p1148
sbag0
(g1
g2
(lp1149
g0
(g1
g2
(lp1150
g0
(g1
g2
(lp1151
Va
p1152
atp1153
Rp1154
(dp1155
g11
VDT
p1156
sbatp1157
Rp1158
(dp1159
g11
VNP
p1160
sbag0
(g1
g2
(lp1161
V,
p1162
atp1163
Rp1164
(dp1165
g11
V,
p1166
sbag0
(g1
g2
(lp1167
g0
(g1
g2
(lp1168
Vno
p1169
atp1170
Rp1171
(dp1172
g11
VDT
p1173
sbag0
(g1
g2
(lp1174
Vthey
p1175
atp1176
Rp1177
(dp1178
g11
VPRP
p1179
sbatp1180
Rp1181
(dp1182
g11
VNP
p1183
sbatp1184
Rp1185
(dp1186
g11
VNP
p1187
sbatp1188
Rp1189
(dp1190
g11
VPP
p1191
sbag0
(g1
g2
(lp1192
g0
(g1
g2
(lp1193
V're
p1194
atp1195
Rp1196
(dp1197
g11
VVBP
p1198
sbag0
(g1
g2
(lp1199
Vnot
p1200
atp1201
Rp1202
(dp1203
g11
VRB
p1204
sbag0
(g1
g2
(lp1205
g0
(g1
g2
(lp1206
Vin
p1207
atp1208
Rp1209
(dp1210
g11
VIN
p1211
sbag0
(g1
g2
(lp1212
g0
(g1
g2
(lp1213
Vthe
p1214
atp1215
Rp1216
(dp1217
g11
VDT
p1218
sbag0
(g1
g2
(lp1219
Vtree
p1220
atp1221
Rp1222
(dp1223
g11
VNN
p1224
sbatp1225
Rp1226
(dp1227
g11
VNP
p1228
sbatp1229
Rp1230
(dp1231
g11
VPP
p1232
sbatp1233
Rp1234
(dp1235
g11
VVP
p1236
sbag0
(g1
g2
(lp1237
V.
p1238
atp1239
Rp1240
(dp1241
g11
V.
p1242
sbatp1243
Rp1244
(dp1245
g11
VS
p1246
sbatp1247
Rp1248
(dp1249
g11
S'id: 9'
p1250
sbag0
(g1
g2
(lp1251
g0
(g1
g2
(lp1252
g0
(g1
g2
(lp1253
g0
(g1
g2
(lp1254
g0
(g1
g2
(lp1255
VFlags
p1256
atp1257
Rp1258
(dp1259
g11
VNNS
p1260
sbatp1261
Rp1262
(dp1263
g11
VNP
p1264
sbag0
(g1
g2
(lp1265
g0
(g1
g2
(lp1266
Vflying
p1267
atp1268
Rp1269
(dp1270
g11
VVBG
p1271
sbatp1272
Rp1273
(dp1274
g11
VVP
p1275
sbatp1276
Rp1277
(dp1278
g11
VNP
p1279
sbag0
(g1
g2
(lp1280
g0
(g1
g2
(lp1281
V,
p1282
atp1283
Rp1284
(dp1285
g11
V,
p1286
sbag0
(g1
g2
(lp1287
g0
(g1
g2
(lp1288
g0
(g1
g2
(lp1289
Vkite
p1290
atp1291
Rp1292
(dp1293
g11
VNN
p1294
sbatp1295
Rp1296
(dp1297
g11
VNP
p1298
sbag0
(g1
g2
(lp1299
g0
(g1
g2
(lp1300
Vis
p1301
atp1302
Rp1303
(dp1304
g11
VVBZ
p1305
sbag0
(g1
g2
(lp1306
g0
(g1
g2
(lp1307
Vdang
p1308
atp1309
Rp1310
(dp1311
g11
VJJ
p1312
sbatp1313
Rp1314
(dp1315
g11
VADJP
p1316
sbatp1317
Rp1318
(dp1319
g11
VVP
p1320
sbatp1321
Rp1322
(dp1323
g11
VS
p1324
sbag0
(g1
g2
(lp1325
V,
p1326
atp1327
Rp1328
(dp1329
g11
V,
p1330
sbatp1331
Rp1332
(dp1333
g11
VPRN
p1334
sbag0
(g1
g2
(lp1335
g0
(g1
g2
(lp1336
Vis
p1337
atp1338
Rp1339
(dp1340
g11
VVBZ
p1341
sbag0
(g1
g2
(lp1342
g0
(g1
g2
(lp1343
Vflying
p1344
atp1345
Rp1346
(dp1347
g11
VVBG
p1348
sbag0
(g1
g2
(lp1349
g0
(g1
g2
(lp1350
Vto
p1351
atp1352
Rp1353
(dp1354
g11
VTO
p1355
sbatp1356
Rp1357
(dp1358
g11
VPP
p1359
sbatp1360
Rp1361
(dp1362
g11
VVP
p1363
sbatp1364
Rp1365
(dp1366
g11
VVP
p1367
sbag0
(g1
g2
(lp1368
V.
p1369
atp1370
Rp1371
(dp1372
g11
V.
p1373
sbatp1374
Rp1375
(dp1376
g11
VS
p1377
sbatp1378
Rp1379
(dp1380
g11
S'id: 10'
p1381
sbag0
(g1
g2
(lp1382
g0
(g1
g2
(lp1383
g0
(g1
g2
(lp1384
VAnd
p1385
atp1386
Rp1387
(dp1388
g11
VCC
p1389
sbag0
(g1
g2
(lp1390
g0
(g1
g2
(lp1391
Va
p1392
atp1393
Rp1394
(dp1395
g11
VDT
p1396
sbag0
(g1
g2
(lp1397
Vcar
p1398
atp1399
Rp1400
(dp1401
g11
VNN
p1402
sbatp1403
Rp1404
(dp1405
g11
VNP
p1406
sbag0
(g1
g2
(lp1407
V,
p1408
atp1409
Rp1410
(dp1411
g11
V,
p1412
sbag0
(g1
g2
(lp1413
g0
(g1
g2
(lp1414
Vit
p1415
atp1416
Rp1417
(dp1418
g11
VPRP
p1419
sbatp1420
Rp1421
(dp1422
g11
VNP
p1423
sbag0
(g1
g2
(lp1424
g0
(g1
g2
(lp1425
V's
p1426
atp1427
Rp1428
(dp1429
g11
VVBZ
p1430
sbag0
(g1
g2
(lp1431
V,
p1432
atp1433
Rp1434
(dp1435
g11
V,
p1436
sbag0
(g1
g2
(lp1437
g0
(g1
g2
(lp1438
g0
(g1
g2
(lp1439
g0
(g1
g2
(lp1440
Vit
p1441
atp1442
Rp1443
(dp1444
g11
VPRP
p1445
sbatp1446
Rp1447
(dp1448
g11
VNP
p1449
sbag0
(g1
g2
(lp1450
g0
(g1
g2
(lp1451
V's
p1452
atp1453
Rp1454
(dp1455
g11
VVBZ
p1456
sbag0
(g1
g2
(lp1457
g0
(g1
g2
(lp1458
Vparked
p1459
atp1460
Rp1461
(dp1462
g11
VVBN
p1463
sbatp1464
Rp1465
(dp1466
g11
VVP
p1467
sbatp1468
Rp1469
(dp1470
g11
VVP
p1471
sbatp1472
Rp1473
(dp1474
g11
VS
p1475
sbatp1476
Rp1477
(dp1478
g11
VSBAR
p1479
sbatp1480
Rp1481
(dp1482
g11
VVP
p1483
sbag0
(g1
g2
(lp1484
V.
p1485
atp1486
Rp1487
(dp1488
g11
V.
p1489
sbatp1490
Rp1491
(dp1492
g11
VS
p1493
sbatp1494
Rp1495
(dp1496
g11
S'id: 11'
p1497
sbag0
(g1
g2
(lp1498
g0
(g1
g2
(lp1499
g0
(g1
g2
(lp1500
VAnd
p1501
atp1502
Rp1503
(dp1504
g11
VCC
p1505
sbag0
(g1
g2
(lp1506
g0
(g1
g2
(lp1507
g0
(g1
g2
(lp1508
Va
p1509
atp1510
Rp1511
(dp1512
g11
VDT
p1513
sbatp1514
Rp1515
(dp1516
g11
VNP
p1517
sbag0
(g1
g2
(lp1518
V,
p1519
atp1520
Rp1521
(dp1522
g11
V,
p1523
sbag0
(g1
g2
(lp1524
Vand
p1525
atp1526
Rp1527
(dp1528
g11
VCC
p1529
sbag0
(g1
g2
(lp1530
g0
(g1
g2
(lp1531
Va
p1532
atp1533
Rp1534
(dp1535
g11
VDT
p1536
sbatp1537
Rp1538
(dp1539
g11
VNP
p1540
sbag0
(g1
g2
(lp1541
V,
p1542
atp1543
Rp1544
(dp1545
g11
V,
p1546
sbag0
(g1
g2
(lp1547
g0
(g1
g2
(lp1548
Vthe
p1549
atp1550
Rp1551
(dp1552
g11
VDT
p1553
sbag0
(g1
g2
(lp1554
Vdoor
p1555
atp1556
Rp1557
(dp1558
g11
VNN
p1559
sbatp1560
Rp1561
(dp1562
g11
VNP
p1563
sbag0
(g1
g2
(lp1564
V,
p1565
atp1566
Rp1567
(dp1568
g11
V,
p1569
sbag0
(g1
g2
(lp1570
g0
(g1
g2
(lp1571
Vthe
p1572
atp1573
Rp1574
(dp1575
g11
VDT
p1576
sbag0
(g1
g2
(lp1577
Vdoor
p1578
atp1579
Rp1580
(dp1581
g11
VNN
p1582
sbatp1583
Rp1584
(dp1585
g11
VNP
p1586
sbatp1587
Rp1588
(dp1589
g11
VNP
p1590
sbag0
(g1
g2
(lp1591
g0
(g1
g2
(lp1592
Vis
p1593
atp1594
Rp1595
(dp1596
g11
VVBZ
p1597
sbag0
(g1
g2
(lp1598
g0
(g1
g2
(lp1599
Vclosed
p1600
atp1601
Rp1602
(dp1603
g11
VVBN
p1604
sbatp1605
Rp1606
(dp1607
g11
VVP
p1608
sbatp1609
Rp1610
(dp1611
g11
VVP
p1612
sbag0
(g1
g2
(lp1613
V.
p1614
atp1615
Rp1616
(dp1617
g11
V.
p1618
sbatp1619
Rp1620
(dp1621
g11
VS
p1622
sbatp1623
Rp1624
(dp1625
g11
S'id: 12'
p1626
sbag0
(g1
g2
(lp1627
g0
(g1
g2
(lp1628
g0
(g1
g2
(lp1629
VAnd
p1630
atp1631
Rp1632
(dp1633
g11
VCC
p1634
sbag0
(g1
g2
(lp1635
g0
(g1
g2
(lp1636
Va
p1637
atp1638
Rp1639
(dp1640
g11
VDT
p1641
sbatp1642
Rp1643
(dp1644
g11
VADVP
p1645
sbag0
(g1
g2
(lp1646
V,
p1647
atp1648
Rp1649
(dp1650
g11
V,
p1651
sbag0
(g1
g2
(lp1652
g0
(g1
g2
(lp1653
g0
(g1
g2
(lp1654
Vthere
p1655
atp1656
Rp1657
(dp1658
g11
VEX
p1659
sbatp1660
Rp1661
(dp1662
g11
VNP
p1663
sbag0
(g1
g2
(lp1664
g0
(g1
g2
(lp1665
V's
p1666
atp1667
Rp1668
(dp1669
g11
VVBZ
p1670
sbag0
(g1
g2
(lp1671
g0
(g1
g2
(lp1672
g0
(g1
g2
(lp1673
Vwater
p1674
atp1675
Rp1676
(dp1677
g11
VNN
p1678
sbatp1679
Rp1680
(dp1681
g11
VNP
p1682
sbag0
(g1
g2
(lp1683
g0
(g1
g2
(lp1684
Vin
p1685
atp1686
Rp1687
(dp1688
g11
VIN
p1689
sbag0
(g1
g2
(lp1690
g0
(g1
g2
(lp1691
g0
(g1
g2
(lp1692
Vthe
p1693
atp1694
Rp1695
(dp1696
g11
VDT
p1697
sbatp1698
Rp1699
(dp1700
g11
VNP
p1701
sbag0
(g1
g2
(lp1702
V,
p1703
atp1704
Rp1705
(dp1706
g11
V,
p1707
sbag0
(g1
g2
(lp1708
g0
(g1
g2
(lp1709
g0
(g1
g2
(lp1710
Vwater
p1711
atp1712
Rp1713
(dp1714
g11
VNN
p1715
sbatp1716
Rp1717
(dp1718
g11
VNP
p1719
sbag0
(g1
g2
(lp1720
g0
(g1
g2
(lp1721
Vin
p1722
atp1723
Rp1724
(dp1725
g11
VIN
p1726
sbag0
(g1
g2
(lp1727
g0
(g1
g2
(lp1728
Vthe
p1729
atp1730
Rp1731
(dp1732
g11
VDT
p1733
sbag0
(g1
g2
(lp1734
Vlake
p1735
atp1736
Rp1737
(dp1738
g11
VNN
p1739
sbatp1740
Rp1741
(dp1742
g11
VNP
p1743
sbatp1744
Rp1745
(dp1746
g11
VPP
p1747
sbatp1748
Rp1749
(dp1750
g11
VNP
p1751
sbatp1752
Rp1753
(dp1754
g11
VNP
p1755
sbatp1756
Rp1757
(dp1758
g11
VPP
p1759
sbatp1760
Rp1761
(dp1762
g11
VNP
p1763
sbatp1764
Rp1765
(dp1766
g11
VVP
p1767
sbatp1768
Rp1769
(dp1770
g11
VS
p1771
sbag0
(g1
g2
(lp1772
V,
p1773
atp1774
Rp1775
(dp1776
g11
V,
p1777
sbag0
(g1
g2
(lp1778
Vand
p1779
atp1780
Rp1781
(dp1782
g11
VCC
p1783
sbag0
(g1
g2
(lp1784
V,
p1785
atp1786
Rp1787
(dp1788
g11
V,
p1789
sbag0
(g1
g2
(lp1790
Vand
p1791
atp1792
Rp1793
(dp1794
g11
VCC
p1795
sbag0
(g1
g2
(lp1796
g0
(g1
g2
(lp1797
g0
(g1
g2
(lp1798
Vthere
p1799
atp1800
Rp1801
(dp1802
g11
VEX
p1803
sbatp1804
Rp1805
(dp1806
g11
VNP
p1807
sbag0
(g1
g2
(lp1808
g0
(g1
g2
(lp1809
V's
p1810
atp1811
Rp1812
(dp1813
g11
VVBZ
p1814
sbag0
(g1
g2
(lp1815
g0
(g1
g2
(lp1816
g0
(g1
g2
(lp1817
g0
(g1
g2
(lp1818
Vboats
p1819
atp1820
Rp1821
(dp1822
g11
VNNS
p1823
sbatp1824
Rp1825
(dp1826
g11
VNP
p1827
sbag0
(g1
g2
(lp1828
g0
(g1
g2
(lp1829
Vin
p1830
atp1831
Rp1832
(dp1833
g11
VIN
p1834
sbag0
(g1
g2
(lp1835
g0
(g1
g2
(lp1836
Vit
p1837
atp1838
Rp1839
(dp1840
g11
VPRP
p1841
sbatp1842
Rp1843
(dp1844
g11
VNP
p1845
sbatp1846
Rp1847
(dp1848
g11
VPP
p1849
sbatp1850
Rp1851
(dp1852
g11
VNP
p1853
sbag0
(g1
g2
(lp1854
V,
p1855
atp1856
Rp1857
(dp1858
g11
V,
p1859
sbag0
(g1
g2
(lp1860
g0
(g1
g2
(lp1861
g0
(g1
g2
(lp1862
Vno
p1863
atp1864
Rp1865
(dp1866
g11
VDT
p1867
sbag0
(g1
g2
(lp1868
Va
p1869
atp1870
Rp1871
(dp1872
g11
VDT
p1873
sbag0
(g1
g2
(lp1874
Vboat
p1875
atp1876
Rp1877
(dp1878
g11
VNN
p1879
sbatp1880
Rp1881
(dp1882
g11
VNP
p1883
sbag0
(g1
g2
(lp1884
g0
(g1
g2
(lp1885
Vin
p1886
atp1887
Rp1888
(dp1889
g11
VIN
p1890
sbag0
(g1
g2
(lp1891
g0
(g1
g2
(lp1892
Vit
p1893
atp1894
Rp1895
(dp1896
g11
VPRP
p1897
sbatp1898
Rp1899
(dp1900
g11
VNP
p1901
sbatp1902
Rp1903
(dp1904
g11
VPP
p1905
sbatp1906
Rp1907
(dp1908
g11
VNP
p1909
sbatp1910
Rp1911
(dp1912
g11
VNP
p1913
sbatp1914
Rp1915
(dp1916
g11
VVP
p1917
sbatp1918
Rp1919
(dp1920
g11
VS
p1921
sbag0
(g1
g2
(lp1922
V.
p1923
atp1924
Rp1925
(dp1926
g11
V.
p1927
sbatp1928
Rp1929
(dp1930
g11
VS
p1931
sbatp1932
Rp1933
(dp1934
g11
S'id: 13'
p1935
sbatp1936
Rp1937
(dp1938
g11
S'sentences'
p1939
sb.