ccopy_reg
_reconstructor
p0
(cnltk.tree
Tree
p1
c__builtin__
list
p2
(lp3
g0
(g1
g2
(lp4
g0
(g1
g2
(lp5
g0
(g1
g2
(lp6
Vthe boy
p7
atp8
Rp9
(dp10
S'_label'
p11
S'start: 5'
p12
sbatp13
Rp14
(dp15
g11
S'sent: 1'
p16
sbag0
(g1
g2
(lp17
g0
(g1
g2
(lp18
Vthe boy who 's picking up the food thing up above
p19
atp20
Rp21
(dp22
g11
S'start: 2'
p23
sbatp24
Rp25
(dp26
g11
S'sent: 4'
p27
sbatp28
Rp29
(dp30
g11
S'id: 3'
p31
sbag0
(g1
g2
(lp32
g0
(g1
g2
(lp33
g0
(g1
g2
(lp34
VThe lady
p35
atp36
Rp37
(dp38
g11
S'start: 1'
p39
sbatp40
Rp41
(dp42
g11
S'sent: 2'
p43
sbag0
(g1
g2
(lp44
g0
(g1
g2
(lp45
Vthe lady
p46
atp47
Rp48
(dp49
g11
S'start: 5'
p50
sbatp51
Rp52
(dp53
g11
S'sent: 2'
p54
sbag0
(g1
g2
(lp55
g0
(g1
g2
(lp56
Vher
p57
atp58
Rp59
(dp60
g11
S'start: 9'
p61
sbatp62
Rp63
(dp64
g11
S'sent: 2'
p65
sbag0
(g1
g2
(lp66
g0
(g1
g2
(lp67
VShe
p68
atp69
Rp70
(dp71
g11
S'start: 2'
p72
sbatp73
Rp74
(dp75
g11
S'sent: 3'
p76
sbag0
(g1
g2
(lp77
g0
(g1
g2
(lp78
VShe
p79
atp80
Rp81
(dp82
g11
S'start: 1'
p83
sbatp84
Rp85
(dp86
g11
S'sent: 6'
p87
sbag0
(g1
g2
(lp88
g0
(g1
g2
(lp89
Vshe
p90
atp91
Rp92
(dp93
g11
S'start: 3'
p94
sbatp95
Rp96
(dp97
g11
S'sent: 7'
p98
sbag0
(g1
g2
(lp99
g0
(g1
g2
(lp100
Vshe
p101
atp102
Rp103
(dp104
g11
S'start: 30'
p105
sbatp106
Rp107
(dp108
g11
S'sent: 7'
p109
sbatp110
Rp111
(dp112
g11
S'id: 4'
p113
sbag0
(g1
g2
(lp114
g0
(g1
g2
(lp115
g0
(g1
g2
(lp116
VI
p117
atp118
Rp119
(dp120
g11
S'start: 13'
p121
sbatp122
Rp123
(dp124
g11
S'sent: 3'
p125
sbag0
(g1
g2
(lp126
g0
(g1
g2
(lp127
VI
p128
atp129
Rp130
(dp131
g11
S'start: 1'
p132
sbatp133
Rp134
(dp135
g11
S'sent: 5'
p136
sbag0
(g1
g2
(lp137
g0
(g1
g2
(lp138
VI
p139
atp140
Rp141
(dp142
g11
S'start: 7'
p143
sbatp144
Rp145
(dp146
g11
S'sent: 6'
p147
sbag0
(g1
g2
(lp148
g0
(g1
g2
(lp149
VI
p150
atp151
Rp152
(dp153
g11
S'start: 1'
p154
sbatp155
Rp156
(dp157
g11
S'sent: 7'
p158
sbag0
(g1
g2
(lp159
g0
(g1
g2
(lp160
VI
p161
atp162
Rp163
(dp164
g11
S'start: 8'
p165
sbatp166
Rp167
(dp168
g11
S'sent: 7'
p169
sbag0
(g1
g2
(lp170
g0
(g1
g2
(lp171
VI
p172
atp173
Rp174
(dp175
g11
S'start: 20'
p176
sbatp177
Rp178
(dp179
g11
S'sent: 7'
p180
sbatp181
Rp182
(dp183
g11
S'id: 14'
p184
sbag0
(g1
g2
(lp185
g0
(g1
g2
(lp186
g0
(g1
g2
(lp187
Vwhat
p188
atp189
Rp190
(dp191
g11
S'start: 12'
p192
sbatp193
Rp194
(dp195
g11
S'sent: 6'
p196
sbag0
(g1
g2
(lp197
g0
(g1
g2
(lp198
Vit
p199
atp200
Rp201
(dp202
g11
S'start: 13'
p203
sbatp204
Rp205
(dp206
g11
S'sent: 6'
p207
sbatp208
Rp209
(dp210
g11
S'id: 21'
p211
sbag0
(g1
g2
(lp212
g0
(g1
g2
(lp213
g0
(g1
g2
(lp214
Vthe grass or something
p215
atp216
Rp217
(dp218
g11
S'start: 14'
p219
sbatp220
Rp221
(dp222
g11
S'sent: 7'
p223
sbag0
(g1
g2
(lp224
g0
(g1
g2
(lp225
Vthe grass
p226
atp227
Rp228
(dp229
g11
S'start: 26'
p230
sbatp231
Rp232
(dp233
g11
S'sent: 7'
p234
sbatp235
Rp236
(dp237
g11
S'id: 27'
p238
sbatp239
Rp240
(dp241
g11
S'coreferences'
p242
sb.