ccopy_reg
_reconstructor
p0
(cnltk.tree
Tree
p1
c__builtin__
list
p2
(lp3
g0
(g1
g2
(lp4
g0
(g1
g2
(lp5
g0
(g1
g2
(lp6
(lp7
S'word: man, index: 2'
p8
aatp9
Rp10
(dp11
S'_label'
p12
Vdiscourse
p13
sbatp14
Rp15
(dp16
g12
S'word: oh, index: 1'
p17
sbatp18
Rp19
(dp20
g12
S'id: 0'
p21
sbag0
(g1
g2
(lp22
g0
(g1
g2
(lp23
g0
(g1
g2
(lp24
(lp25
S'word: a., index: 3'
p26
aatp27
Rp28
(dp29
g12
Vadvmod
p30
sbag0
(g1
g2
(lp31
g0
(g1
g2
(lp32
g0
(g1
g2
(lp33
(lp34
S'word: there, index: 4'
p35
aatp36
Rp37
(dp38
g12
Vexpl
p39
sbag0
(g1
g2
(lp40
g0
(g1
g2
(lp41
g0
(g1
g2
(lp42
g0
(g1
g2
(lp43
g0
(g1
g2
(lp44
(lp45
S'word: there, index: 7'
p46
aatp47
Rp48
(dp49
g12
Vexpl
p50
sbag0
(g1
g2
(lp51
g0
(g1
g2
(lp52
g0
(g1
g2
(lp53
(lp54
S'word: a, index: 9'
p55
aatp56
Rp57
(dp58
g12
Vdet
p59
sbatp60
Rp61
(dp62
g12
S'word: cookie, index: 10'
p63
sbatp64
Rp65
(dp66
g12
Vnsubj
p67
sbatp68
Rp69
(dp70
g12
S"word: 's, index: 8"
p71
sbatp72
Rp73
(dp74
g12
Vrcmod
p75
sbatp76
Rp77
(dp78
g12
S'word: a., index: 6'
p79
sbatp80
Rp81
(dp82
g12
Vnsubj
p83
sbatp84
Rp85
(dp86
g12
S"word: 's, index: 5"
p87
sbatp88
Rp89
(dp90
g12
Vccomp
p91
sbag0
(g1
g2
(lp92
(lp93
S'word: it, index: 1'
p94
aatp95
Rp96
(dp97
g12
Vnsubj
p98
sbatp99
Rp100
(dp101
g12
S"word: 's, index: 2"
p102
sbatp103
Rp104
(dp105
g12
S'id: 1'
p106
sbag0
(g1
g2
(lp107
g0
(g1
g2
(lp108
g0
(g1
g2
(lp109
(lp110
S'word: it, index: 6'
p111
aatp112
Rp113
(dp114
g12
Vnsubj
p115
sbag0
(g1
g2
(lp116
(lp117
S"word: 's, index: 7"
p118
aatp119
Rp120
(dp121
g12
Vaux
p122
sbag0
(g1
g2
(lp123
(lp124
S'word: everywhere, index: 9'
p125
aatp126
Rp127
(dp128
g12
Vadvmod
p129
sbag0
(g1
g2
(lp130
g0
(g1
g2
(lp131
g0
(g1
g2
(lp132
(lp133
S'word: there, index: 1'
p134
aatp135
Rp136
(dp137
g12
Vexpl
p138
sbag0
(g1
g2
(lp139
g0
(g1
g2
(lp140
g0
(g1
g2
(lp141
(lp142
S'word: a., index: 3'
p143
aatp144
Rp145
(dp146
g12
Vnn
p147
sbatp148
Rp149
(dp150
g12
S'word: water, index: 4'
p151
sbatp152
Rp153
(dp154
g12
Vnsubj
p155
sbatp156
Rp157
(dp158
g12
S"word: 's, index: 2"
p159
sbatp160
Rp161
(dp162
g12
Vccomp
p163
sbatp164
Rp165
(dp166
g12
S'word: going, index: 8'
p167
sbatp168
Rp169
(dp170
g12
S'id: 2'
p171
sbag0
(g1
g2
(lp172
g0
(g1
g2
(lp173
g0
(g1
g2
(lp174
g0
(g1
g2
(lp175
g0
(g1
g2
(lp176
g0
(g1
g2
(lp177
g0
(g1
g2
(lp178
(lp179
S'word: and, index: 1'
p180
aatp181
Rp182
(dp183
g12
Vcc
p184
sbag0
(g1
g2
(lp185
(lp186
S'word: there, index: 2'
p187
aatp188
Rp189
(dp190
g12
Vexpl
p191
sbag0
(g1
g2
(lp192
(lp193
S'word: a, index: 4'
p194
aatp195
Rp196
(dp197
g12
Vnsubj
p198
sbatp199
Rp200
(dp201
g12
S"word: 's, index: 3"
p202
sbatp203
Rp204
(dp205
g12
Vccomp
p206
sbag0
(g1
g2
(lp207
(lp208
S'word: I, index: 6'
p209
aatp210
Rp211
(dp212
g12
Vnsubj
p213
sbag0
(g1
g2
(lp214
(lp215
S'word: do, index: 7'
p216
aatp217
Rp218
(dp219
g12
Vaux
p220
sbag0
(g1
g2
(lp221
(lp222
S"word: n't, index: 8"
p223
aatp224
Rp225
(dp226
g12
Vneg
p227
sbatp228
Rp229
(dp230
g12
S'word: know, index: 9'
p231
sbatp232
Rp233
(dp234
g12
Vccomp
p235
sbag0
(g1
g2
(lp236
(lp237
S'word: it, index: 11'
p238
aatp239
Rp240
(dp241
g12
Vnsubj
p242
sbag0
(g1
g2
(lp243
g0
(g1
g2
(lp244
g0
(g1
g2
(lp245
(lp246
S'word: a, index: 13'
p247
aatp248
Rp249
(dp250
g12
Vdet
p251
sbag0
(g1
g2
(lp252
(lp253
S'word: really, index: 14'
p254
aatp255
Rp256
(dp257
g12
Vadvmod
p258
sbatp259
Rp260
(dp261
g12
S'word: good, index: 15'
p262
sbatp263
Rp264
(dp265
g12
Vacomp
p266
sbatp267
Rp268
(dp269
g12
S"word: 's, index: 12"
p270
sbatp271
Rp272
(dp273
g12
S'id: 3'
p274
sbag0
(g1
g2
(lp275
tp276
Rp277
(dp278
g12
S'id: 4'
p279
sbag0
(g1
g2
(lp280
g0
(g1
g2
(lp281
g0
(g1
g2
(lp282
(lp283
S'word: a, index: 1'
p284
aatp285
Rp286
(dp287
g12
Vdet
p288
sbatp289
Rp290
(dp291
g12
S'word: cookie, index: 2'
p292
sbatp293
Rp294
(dp295
g12
S'id: 5'
p296
sbag0
(g1
g2
(lp297
g0
(g1
g2
(lp298
g0
(g1
g2
(lp299
(lp300
S"word: 's, index: 2"
p301
aatp302
Rp303
(dp304
g12
Vcop
p305
sbag0
(g1
g2
(lp306
(lp307
S'word: that, index: 1'
p308
aatp309
Rp310
(dp311
g12
Vnsubj
p312
sbatp313
Rp314
(dp315
g12
S'word: it, index: 3'
p316
sbatp317
Rp318
(dp319
g12
S'id: 6'
p320
sbag0
(g1
g2
(lp321
tp322
Rp323
(dp324
g12
S'id: 7'
p325
sbag0
(g1
g2
(lp326
g0
(g1
g2
(lp327
g0
(g1
g2
(lp328
(lp329
S'word: that, index: 1'
p330
aatp331
Rp332
(dp333
g12
Vnsubj
p334
sbag0
(g1
g2
(lp335
(lp336
S"word: 's, index: 2"
p337
aatp338
Rp339
(dp340
g12
Vcop
p341
sbatp342
Rp343
(dp344
g12
S'word: it, index: 3'
p345
sbatp346
Rp347
(dp348
g12
S'id: 8'
p349
sbag0
(g1
g2
(lp350
g0
(g1
g2
(lp351
g0
(g1
g2
(lp352
(lp353
S'word: dawn, index: 2'
p354
aatp355
Rp356
(dp357
g12
Vdep
p358
sbatp359
Rp360
(dp361
g12
S'word: 8, index: 1'
p362
sbatp363
Rp364
(dp365
g12
S'id: 9'
p366
sbatp367
Rp368
(dp369
g12
S'sentences'
p370
sb.