ccopy_reg
_reconstructor
p0
(cnltk.tree
Tree
p1
c__builtin__
list
p2
(lp3
g0
(g1
g2
(lp4
g0
(g1
g2
(lp5
g0
(g1
g2
(lp6
Vok
p7
atp8
Rp9
(dp10
S'_label'
p11
VNN
p12
sbag0
(g1
g2
(lp13
V.
p14
atp15
Rp16
(dp17
g11
V.
p18
sbatp19
Rp20
(dp21
g11
VNP
p22
sbatp23
Rp24
(dp25
g11
S'id: 0'
p26
sbag0
(g1
g2
(lp27
g0
(g1
g2
(lp28
g0
(g1
g2
(lp29
g0
(g1
g2
(lp30
VMom
p31
atp32
Rp33
(dp34
g11
VNN
p35
sbag0
(g1
g2
(lp36
g0
(g1
g2
(lp37
g0
(g1
g2
(lp38
V's
p39
atp40
Rp41
(dp42
g11
VPOS
p43
sbatp44
Rp45
(dp46
g11
VNP
p47
sbag0
(g1
g2
(lp48
g0
(g1
g2
(lp49
Vwashing
p50
atp51
Rp52
(dp53
g11
VVBG
p54
sbag0
(g1
g2
(lp55
g0
(g1
g2
(lp56
Vthe
p57
atp58
Rp59
(dp60
g11
VDT
p61
sbag0
(g1
g2
(lp62
Vdishes
p63
atp64
Rp65
(dp66
g11
VNNS
p67
sbatp68
Rp69
(dp70
g11
VNP
p71
sbatp72
Rp73
(dp74
g11
VVP
p75
sbatp76
Rp77
(dp78
g11
VS
p79
sbatp80
Rp81
(dp82
g11
VVP
p83
sbag0
(g1
g2
(lp84
V.
p85
atp86
Rp87
(dp88
g11
V.
p89
sbatp90
Rp91
(dp92
g11
VS
p93
sbatp94
Rp95
(dp96
g11
S'id: 1'
p97
sbag0
(g1
g2
(lp98
g0
(g1
g2
(lp99
g0
(g1
g2
(lp100
g0
(g1
g2
(lp101
VThe
p102
atp103
Rp104
(dp105
g11
VDT
p106
sbag0
(g1
g2
(lp107
Vsink
p108
atp109
Rp110
(dp111
g11
VNN
p112
sbatp113
Rp114
(dp115
g11
VNP
p116
sbag0
(g1
g2
(lp117
g0
(g1
g2
(lp118
Vis
p119
atp120
Rp121
(dp122
g11
VVBZ
p123
sbag0
(g1
g2
(lp124
g0
(g1
g2
(lp125
Vrunning
p126
atp127
Rp128
(dp129
g11
VVBG
p130
sbag0
(g1
g2
(lp131
g0
(g1
g2
(lp132
Vover
p133
atp134
Rp135
(dp136
g11
VRP
p137
sbatp138
Rp139
(dp140
g11
VPRT
p141
sbatp142
Rp143
(dp144
g11
VVP
p145
sbatp146
Rp147
(dp148
g11
VVP
p149
sbag0
(g1
g2
(lp150
V.
p151
atp152
Rp153
(dp154
g11
V.
p155
sbatp156
Rp157
(dp158
g11
VS
p159
sbatp160
Rp161
(dp162
g11
S'id: 2'
p163
sbag0
(g1
g2
(lp164
g0
(g1
g2
(lp165
g0
(g1
g2
(lp166
g0
(g1
g2
(lp167
VThe
p168
atp169
Rp170
(dp171
g11
VDT
p172
sbag0
(g1
g2
(lp173
Vkids
p174
atp175
Rp176
(dp177
g11
VNNS
p178
sbatp179
Rp180
(dp181
g11
VNP
p182
sbag0
(g1
g2
(lp183
g0
(g1
g2
(lp184
Vare
p185
atp186
Rp187
(dp188
g11
VVBP
p189
sbag0
(g1
g2
(lp190
g0
(g1
g2
(lp191
Vgetting
p192
atp193
Rp194
(dp195
g11
VVBG
p196
sbag0
(g1
g2
(lp197
g0
(g1
g2
(lp198
Vinto
p199
atp200
Rp201
(dp202
g11
VIN
p203
sbag0
(g1
g2
(lp204
g0
(g1
g2
(lp205
g0
(g1
g2
(lp206
Vthe
p207
atp208
Rp209
(dp210
g11
VDT
p211
sbag0
(g1
g2
(lp212
Vcookie
p213
atp214
Rp215
(dp216
g11
VNN
p217
sbag0
(g1
g2
(lp218
Vjar
p219
atp220
Rp221
(dp222
g11
VNN
p223
sbatp224
Rp225
(dp226
g11
VNP
p227
sbag0
(g1
g2
(lp228
V,
p229
atp230
Rp231
(dp232
g11
V,
p233
sbag0
(g1
g2
(lp234
Vand
p235
atp236
Rp237
(dp238
g11
VCC
p239
sbag0
(g1
g2
(lp240
g0
(g1
g2
(lp241
g0
(g1
g2
(lp242
Vthe
p243
atp244
Rp245
(dp246
g11
VDT
p247
sbag0
(g1
g2
(lp248
Vboy
p249
atp250
Rp251
(dp252
g11
VNN
p253
sbag0
(g1
g2
(lp254
V's
p255
atp256
Rp257
(dp258
g11
VPOS
p259
sbatp260
Rp261
(dp262
g11
VNP
p263
sbag0
(g1
g2
(lp264
g0
(g1
g2
(lp265
Vabout
p266
atp267
Rp268
(dp269
g11
VIN
p270
sbatp271
Rp272
(dp273
g11
VPP
p274
sbatp275
Rp276
(dp277
g11
VNP
p278
sbatp279
Rp280
(dp281
g11
VNP
p282
sbatp283
Rp284
(dp285
g11
VPP
p286
sbag0
(g1
g2
(lp287
g0
(g1
g2
(lp288
g0
(g1
g2
(lp289
Vto
p290
atp291
Rp292
(dp293
g11
VTO
p294
sbag0
(g1
g2
(lp295
g0
(g1
g2
(lp296
Vfall
p297
atp298
Rp299
(dp300
g11
VVB
p301
sbatp302
Rp303
(dp304
g11
VVP
p305
sbatp306
Rp307
(dp308
g11
VVP
p309
sbatp310
Rp311
(dp312
g11
VS
p313
sbatp314
Rp315
(dp316
g11
VVP
p317
sbatp318
Rp319
(dp320
g11
VVP
p321
sbag0
(g1
g2
(lp322
V.
p323
atp324
Rp325
(dp326
g11
V.
p327
sbatp328
Rp329
(dp330
g11
VS
p331
sbatp332
Rp333
(dp334
g11
S'id: 3'
p335
sbag0
(g1
g2
(lp336
g0
(g1
g2
(lp337
g0
(g1
g2
(lp338
g0
(g1
g2
(lp339
VHe
p340
atp341
Rp342
(dp343
g11
VPRP
p344
sbatp345
Rp346
(dp347
g11
VNP
p348
sbag0
(g1
g2
(lp349
g0
(g1
g2
(lp350
V's
p351
atp352
Rp353
(dp354
g11
VVBZ
p355
sbag0
(g1
g2
(lp356
g0
(g1
g2
(lp357
Vhanding
p358
atp359
Rp360
(dp361
g11
VVBG
p362
sbag0
(g1
g2
(lp363
g0
(g1
g2
(lp364
Vthe
p365
atp366
Rp367
(dp368
g11
VDT
p369
sbag0
(g1
g2
(lp370
Vcookies
p371
atp372
Rp373
(dp374
g11
VNNS
p375
sbatp376
Rp377
(dp378
g11
VNP
p379
sbag0
(g1
g2
(lp380
g0
(g1
g2
(lp381
Vdown
p382
atp383
Rp384
(dp385
g11
VIN
p386
sbag0
(g1
g2
(lp387
g0
(g1
g2
(lp388
Vto
p389
atp390
Rp391
(dp392
g11
VTO
p393
sbag0
(g1
g2
(lp394
g0
(g1
g2
(lp395
Vthe
p396
atp397
Rp398
(dp399
g11
VDT
p400
sbag0
(g1
g2
(lp401
Vgirl
p402
atp403
Rp404
(dp405
g11
VNN
p406
sbatp407
Rp408
(dp409
g11
VNP
p410
sbatp411
Rp412
(dp413
g11
VPP
p414
sbatp415
Rp416
(dp417
g11
VADVP
p418
sbatp419
Rp420
(dp421
g11
VVP
p422
sbatp423
Rp424
(dp425
g11
VVP
p426
sbag0
(g1
g2
(lp427
V.
p428
atp429
Rp430
(dp431
g11
V.
p432
sbatp433
Rp434
(dp435
g11
VS
p436
sbatp437
Rp438
(dp439
g11
S'id: 4'
p440
sbag0
(g1
g2
(lp441
g0
(g1
g2
(lp442
g0
(g1
g2
(lp443
g0
(g1
g2
(lp444
g0
(g1
g2
(lp445
VIt
p446
atp447
Rp448
(dp449
g11
VPRP
p450
sbatp451
Rp452
(dp453
g11
VNP
p454
sbag0
(g1
g2
(lp455
g0
(g1
g2
(lp456
Vappears
p457
atp458
Rp459
(dp460
g11
VVBZ
p461
sbag0
(g1
g2
(lp462
g0
(g1
g2
(lp463
g0
(g1
g2
(lp464
Vto
p465
atp466
Rp467
(dp468
g11
VTO
p469
sbag0
(g1
g2
(lp470
g0
(g1
g2
(lp471
Vbe
p472
atp473
Rp474
(dp475
g11
VVB
p476
sbag0
(g1
g2
(lp477
g0
(g1
g2
(lp478
Vmaybe
p479
atp480
Rp481
(dp482
g11
VRB
p483
sbatp484
Rp485
(dp486
g11
VADVP
p487
sbag0
(g1
g2
(lp488
g0
(g1
g2
(lp489
Vsummer
p490
atp491
Rp492
(dp493
g11
VNN
p494
sbag0
(g1
g2
(lp495
Vtime
p496
atp497
Rp498
(dp499
g11
VNN
p500
sbatp501
Rp502
(dp503
g11
VNP-TMP
p504
sbatp505
Rp506
(dp507
g11
VVP
p508
sbatp509
Rp510
(dp511
g11
VVP
p512
sbatp513
Rp514
(dp515
g11
VS
p516
sbatp517
Rp518
(dp519
g11
VVP
p520
sbatp521
Rp522
(dp523
g11
VS
p524
sbag0
(g1
g2
(lp525
V,
p526
atp527
Rp528
(dp529
g11
V,
p530
sbag0
(g1
g2
(lp531
Vor
p532
atp533
Rp534
(dp535
g11
VCC
p536
sbag0
(g1
g2
(lp537
g0
(g1
g2
(lp538
g0
(g1
g2
(lp539
Vspring
p540
atp541
Rp542
(dp543
g11
VNN
p544
sbag0
(g1
g2
(lp545
Vtime
p546
atp547
Rp548
(dp549
g11
VNN
p550
sbatp551
Rp552
(dp553
g11
VNP
p554
sbag0
(g1
g2
(lp555
g0
(g1
g2
(lp556
V'cause
p557
atp558
Rp559
(dp560
g11
VVB
p561
sbag0
(g1
g2
(lp562
g0
(g1
g2
(lp563
g0
(g1
g2
(lp564
g0
(g1
g2
(lp565
Vshe
p566
atp567
Rp568
(dp569
g11
VPRP
p570
sbatp571
Rp572
(dp573
g11
VNP
p574
sbag0
(g1
g2
(lp575
g0
(g1
g2
(lp576
V's
p577
atp578
Rp579
(dp580
g11
VVBZ
p581
sbag0
(g1
g2
(lp582
g0
(g1
g2
(lp583
Vgot
p584
atp585
Rp586
(dp587
g11
VVBD
p588
sbag0
(g1
g2
(lp589
g0
(g1
g2
(lp590
g0
(g1
g2
(lp591
Vthe
p592
atp593
Rp594
(dp595
g11
VDT
p596
sbag0
(g1
g2
(lp597
Vwindow
p598
atp599
Rp600
(dp601
g11
VNN
p602
sbatp603
Rp604
(dp605
g11
VNP
p606
sbag0
(g1
g2
(lp607
g0
(g1
g2
(lp608
Vopen
p609
atp610
Rp611
(dp612
g11
VJJ
p613
sbatp614
Rp615
(dp616
g11
VADJP
p617
sbatp618
Rp619
(dp620
g11
VS
p621
sbatp622
Rp623
(dp624
g11
VVP
p625
sbatp626
Rp627
(dp628
g11
VVP
p629
sbatp630
Rp631
(dp632
g11
VS
p633
sbatp634
Rp635
(dp636
g11
VSBAR
p637
sbatp638
Rp639
(dp640
g11
VVP
p641
sbatp642
Rp643
(dp644
g11
VS
p645
sbag0
(g1
g2
(lp646
V.
p647
atp648
Rp649
(dp650
g11
V.
p651
sbatp652
Rp653
(dp654
g11
VS
p655
sbatp656
Rp657
(dp658
g11
S'id: 5'
p659
sbag0
(g1
g2
(lp660
g0
(g1
g2
(lp661
g0
(g1
g2
(lp662
g0
(g1
g2
(lp663
g0
(g1
g2
(lp664
VShe
p665
atp666
Rp667
(dp668
g11
VPRP
p669
sbatp670
Rp671
(dp672
g11
VNP
p673
sbag0
(g1
g2
(lp674
g0
(g1
g2
(lp675
V's
p676
atp677
Rp678
(dp679
g11
VVBZ
p680
sbag0
(g1
g2
(lp681
g0
(g1
g2
(lp682
Vdoesnt
p683
atp684
Rp685
(dp686
g11
VJJ
p687
sbag0
(g1
g2
(lp688
g0
(g1
g2
(lp689
g0
(g1
g2
(lp690
g0
(g1
g2
(lp691
Vrealize
p692
atp693
Rp694
(dp695
g11
VVBP
p696
sbag0
(g1
g2
(lp697
g0
(g1
g2
(lp698
g0
(g1
g2
(lp699
Vthe
p700
atp701
Rp702
(dp703
g11
VDT
p704
sbag0
(g1
g2
(lp705
Vsinks
p706
atp707
Rp708
(dp709
g11
VNNS
p710
sbatp711
Rp712
(dp713
g11
VNP
p714
sbag0
(g1
g2
(lp715
g0
(g1
g2
(lp716
Vabout
p717
atp718
Rp719
(dp720
g11
VIN
p721
sbag0
(g1
g2
(lp722
g0
(g1
g2
(lp723
g0
(g1
g2
(lp724
Vto
p725
atp726
Rp727
(dp728
g11
VTO
p729
sbag0
(g1
g2
(lp730
g0
(g1
g2
(lp731
Vrun
p732
atp733
Rp734
(dp735
g11
VVB
p736
sbag0
(g1
g2
(lp737
g0
(g1
g2
(lp738
Vover
p739
atp740
Rp741
(dp742
g11
VRP
p743
sbatp744
Rp745
(dp746
g11
VPRT
p747
sbatp748
Rp749
(dp750
g11
VVP
p751
sbatp752
Rp753
(dp754
g11
VVP
p755
sbatp756
Rp757
(dp758
g11
VS
p759
sbatp760
Rp761
(dp762
g11
VVP
p763
sbatp764
Rp765
(dp766
g11
VNP
p767
sbatp768
Rp769
(dp770
g11
VVP
p771
sbatp772
Rp773
(dp774
g11
VS
p775
sbatp776
Rp777
(dp778
g11
VSBAR
p779
sbatp780
Rp781
(dp782
g11
VADJP
p783
sbatp784
Rp785
(dp786
g11
VVP
p787
sbatp788
Rp789
(dp790
g11
VS
p791
sbag0
(g1
g2
(lp792
V,
p793
atp794
Rp795
(dp796
g11
V,
p797
sbag0
(g1
g2
(lp798
g0
(g1
g2
(lp799
Vnow
p800
atp801
Rp802
(dp803
g11
VRB
p804
sbatp805
Rp806
(dp807
g11
VADVP
p808
sbag0
(g1
g2
(lp809
g0
(g1
g2
(lp810
g0
(g1
g2
(lp811
Vthey
p812
atp813
Rp814
(dp815
g11
VPRP
p816
sbatp817
Rp818
(dp819
g11
VNP
p820
sbag0
(g1
g2
(lp821
g0
(g1
g2
(lp822
V're
p823
atp824
Rp825
(dp826
g11
VVBP
p827
sbag0
(g1
g2
(lp828
g0
(g1
g2
(lp829
Vgon
p830
atp831
Rp832
(dp833
g11
VVBG
p834
sbag0
(g1
g2
(lp835
g0
(g1
g2
(lp836
g0
(g1
g2
(lp837
Vna
p838
atp839
Rp840
(dp841
g11
VTO
p842
sbag0
(g1
g2
(lp843
g0
(g1
g2
(lp844
Vhave
p845
atp846
Rp847
(dp848
g11
VVB
p849
sbag0
(g1
g2
(lp850
g0
(g1
g2
(lp851
g0
(g1
g2
(lp852
Vta
p853
atp854
Rp855
(dp856
g11
VNN
p857
sbatp858
Rp859
(dp860
g11
VNP
p861
sbag0
(g1
g2
(lp862
g0
(g1
g2
(lp863
Vmop
p864
atp865
Rp866
(dp867
g11
VVB
p868
sbag0
(g1
g2
(lp869
g0
(g1
g2
(lp870
Vthe
p871
atp872
Rp873
(dp874
g11
VDT
p875
sbag0
(g1
g2
(lp876
Vfloor
p877
atp878
Rp879
(dp880
g11
VNN
p881
sbatp882
Rp883
(dp884
g11
VNP
p885
sbatp886
Rp887
(dp888
g11
VVP
p889
sbatp890
Rp891
(dp892
g11
VS
p893
sbatp894
Rp895
(dp896
g11
VVP
p897
sbatp898
Rp899
(dp900
g11
VVP
p901
sbatp902
Rp903
(dp904
g11
VS
p905
sbatp906
Rp907
(dp908
g11
VVP
p909
sbatp910
Rp911
(dp912
g11
VVP
p913
sbatp914
Rp915
(dp916
g11
VS
p917
sbag0
(g1
g2
(lp918
V.
p919
atp920
Rp921
(dp922
g11
V.
p923
sbatp924
Rp925
(dp926
g11
VS
p927
sbatp928
Rp929
(dp930
g11
S'id: 6'
p931
sbag0
(g1
g2
(lp932
g0
(g1
g2
(lp933
g0
(g1
g2
(lp934
g0
(g1
g2
(lp935
VAn
p936
atp937
Rp938
(dp939
g11
VDT
p940
sbag0
(g1
g2
(lp941
g0
(g1
g2
(lp942
g0
(g1
g2
(lp943
Vthat
p944
atp945
Rp946
(dp947
g11
VDT
p948
sbatp949
Rp950
(dp951
g11
VNP
p952
sbag0
(g1
g2
(lp953
g0
(g1
g2
(lp954
V's
p955
atp956
Rp957
(dp958
g11
VVBZ
p959
sbag0
(g1
g2
(lp960
g0
(g1
g2
(lp961
Vabout
p962
atp963
Rp964
(dp965
g11
VIN
p966
sbag0
(g1
g2
(lp967
Vall
p968
atp969
Rp970
(dp971
g11
VDT
p972
sbatp973
Rp974
(dp975
g11
VADVP
p976
sbag0
(g1
g2
(lp977
g0
(g1
g2
(lp978
VI
p979
atp980
Rp981
(dp982
g11
VPRP
p983
sbatp984
Rp985
(dp986
g11
VNP
p987
sbatp988
Rp989
(dp990
g11
VVP
p991
sbatp992
Rp993
(dp994
g11
VS
p995
sbatp996
Rp997
(dp998
g11
VNP
p999
sbag0
(g1
g2
(lp1000
g0
(g1
g2
(lp1001
Vcan
p1002
atp1003
Rp1004
(dp1005
g11
VMD
p1006
sbag0
(g1
g2
(lp1007
g0
(g1
g2
(lp1008
Vthink
p1009
atp1010
Rp1011
(dp1012
g11
VVB
p1013
sbag0
(g1
g2
(lp1014
g0
(g1
g2
(lp1015
Von
p1016
atp1017
Rp1018
(dp1019
g11
VIN
p1020
sbag0
(g1
g2
(lp1021
g0
(g1
g2
(lp1022
Vthat
p1023
atp1024
Rp1025
(dp1026
g11
VDT
p1027
sbag0
(g1
g2
(lp1028
Vpicture
p1029
atp1030
Rp1031
(dp1032
g11
VNN
p1033
sbatp1034
Rp1035
(dp1036
g11
VNP
p1037
sbatp1038
Rp1039
(dp1040
g11
VPP
p1041
sbatp1042
Rp1043
(dp1044
g11
VVP
p1045
sbatp1046
Rp1047
(dp1048
g11
VVP
p1049
sbag0
(g1
g2
(lp1050
V.
p1051
atp1052
Rp1053
(dp1054
g11
V.
p1055
sbatp1056
Rp1057
(dp1058
g11
VS
p1059
sbatp1060
Rp1061
(dp1062
g11
S'id: 7'
p1063
sbatp1064
Rp1065
(dp1066
g11
S'sentences'
p1067
sb.