ccopy_reg
_reconstructor
p0
(cnltk.tree
Tree
p1
c__builtin__
list
p2
(lp3
g0
(g1
g2
(lp4
g0
(g1
g2
(lp5
g0
(g1
g2
(lp6
g0
(g1
g2
(lp7
g0
(g1
g2
(lp8
g0
(g1
g2
(lp9
g0
(g1
g2
(lp10
(lp11
S'word: right, index: 15'
p12
aatp13
Rp14
(dp15
S'_label'
p16
Vadvmod
p17
sbatp18
Rp19
(dp20
g16
S'word: there, index: 16'
p21
sbatp22
Rp23
(dp24
g16
Vadvmod
p25
sbag0
(g1
g2
(lp26
g0
(g1
g2
(lp27
g0
(g1
g2
(lp28
(lp29
S'word: and, index: 6'
p30
aatp31
Rp32
(dp33
g16
Vcc
p34
sbag0
(g1
g2
(lp35
(lp36
S'word: picture, index: 9'
p37
aatp38
Rp39
(dp40
g16
Vappos
p41
sbag0
(g1
g2
(lp42
g0
(g1
g2
(lp43
g0
(g1
g2
(lp44
(lp45
S'word: right, index: 10'
p46
aatp47
Rp48
(dp49
g16
Vadvmod
p50
sbatp51
Rp52
(dp53
g16
S'word: there, index: 11'
p54
sbatp55
Rp56
(dp57
g16
Vdep
p58
sbatp59
Rp60
(dp61
g16
S'word: picture, index: 7'
p62
sbatp63
Rp64
(dp65
g16
Vdep
p66
sbag0
(g1
g2
(lp67
(lp68
S'word: picture, index: 14'
p69
aatp70
Rp71
(dp72
g16
Vconj
p73
sbatp74
Rp75
(dp76
g16
S'word: chair, index: 4'
p77
sbatp78
Rp79
(dp80
g16
Vconj
p81
sbag0
(g1
g2
(lp82
(lp83
S'word: picture, index: 14'
p84
aatp85
Rp86
(dp87
g16
Vconj
p88
sbatp89
Rp90
(dp91
g16
S'word: Lion, index: 1'
p92
sbatp93
Rp94
(dp95
g16
S'id: 0'
p96
sbag0
(g1
g2
(lp97
g0
(g1
g2
(lp98
g0
(g1
g2
(lp99
g0
(g1
g2
(lp100
g0
(g1
g2
(lp101
(lp102
S'word: and, index: 6'
p103
aatp104
Rp105
(dp106
g16
Vcc
p107
sbag0
(g1
g2
(lp108
g0
(g1
g2
(lp109
g0
(g1
g2
(lp110
(lp111
S'word: right, index: 8'
p112
aatp113
Rp114
(dp115
g16
Vadvmod
p116
sbag0
(g1
g2
(lp117
(lp118
S'word: there, index: 9'
p119
aatp120
Rp121
(dp122
g16
Vdep
p123
sbatp124
Rp125
(dp126
g16
S'word: muziko, index: 7'
p127
sbatp128
Rp129
(dp130
g16
Vdep
p131
sbatp132
Rp133
(dp134
g16
S'word: twing, index: 4'
p135
sbatp136
Rp137
(dp138
g16
Vdep
p139
sbag0
(g1
g2
(lp140
(lp141
S'word: and, index: 1'
p142
aatp143
Rp144
(dp145
g16
Vcc
p146
sbag0
(g1
g2
(lp147
(lp148
S'word: twing, index: 2'
p149
aatp150
Rp151
(dp152
g16
Vamod
p153
sbatp154
Rp155
(dp156
g16
S'word: twing, index: 3'
p157
sbatp158
Rp159
(dp160
g16
S'id: 1'
p161
sbag0
(g1
g2
(lp162
g0
(g1
g2
(lp163
g0
(g1
g2
(lp164
g0
(g1
g2
(lp165
g0
(g1
g2
(lp166
(lp167
S'word: there, index: 7'
p168
aatp169
Rp170
(dp171
g16
Vdep
p172
sbag0
(g1
g2
(lp173
(lp174
S'word: and, index: 4'
p175
aatp176
Rp177
(dp178
g16
Vcc
p179
sbag0
(g1
g2
(lp180
(lp181
S'word: circles, index: 5'
p182
aatp183
Rp184
(dp185
g16
Vnpadvmod
p186
sbatp187
Rp188
(dp189
g16
S'word: right, index: 6'
p190
sbatp191
Rp192
(dp193
g16
Vdep
p194
sbag0
(g1
g2
(lp195
(lp196
S'word: it, index: 9'
p197
aatp198
Rp199
(dp200
g16
Vnsubj
p201
sbag0
(g1
g2
(lp202
(lp203
S"word: 's, index: 10"
p204
aatp205
Rp206
(dp207
g16
Vcop
p208
sbag0
(g1
g2
(lp209
(lp210
S'word: a, index: 11'
p211
aatp212
Rp213
(dp214
g16
Vdet
p215
sbag0
(g1
g2
(lp216
(lp217
S'word: And, index: 1'
p218
aatp219
Rp220
(dp221
g16
Vcc
p222
sbag0
(g1
g2
(lp223
(lp224
S'word: swing, index: 2'
p225
aatp226
Rp227
(dp228
g16
Vnsubj
p229
sbatp230
Rp231
(dp232
g16
S'word: circus, index: 12'
p233
sbatp234
Rp235
(dp236
g16
S'id: 2'
p237
sbag0
(g1
g2
(lp238
g0
(g1
g2
(lp239
g0
(g1
g2
(lp240
(lp241
S'word: And, index: 1'
p242
aatp243
Rp244
(dp245
g16
Vcc
p246
sbag0
(g1
g2
(lp247
g0
(g1
g2
(lp248
g0
(g1
g2
(lp249
(lp250
S'word: a, index: 2'
p251
aatp252
Rp253
(dp254
g16
Vdet
p255
sbatp256
Rp257
(dp258
g16
S'word: swing, index: 3'
p259
sbatp260
Rp261
(dp262
g16
Vnpadvmod
p263
sbatp264
Rp265
(dp266
g16
S'word: here, index: 4'
p267
sbatp268
Rp269
(dp270
g16
S'id: 3'
p271
sbag0
(g1
g2
(lp272
g0
(g1
g2
(lp273
g0
(g1
g2
(lp274
(lp275
S'word: And, index: 1'
p276
aatp277
Rp278
(dp279
g16
Vcc
p280
sbag0
(g1
g2
(lp281
g0
(g1
g2
(lp282
g0
(g1
g2
(lp283
(lp284
S'word: there, index: 3'
p285
aatp286
Rp287
(dp288
g16
Vadvmod
p289
sbag0
(g1
g2
(lp290
g0
(g1
g2
(lp291
g0
(g1
g2
(lp292
(lp293
S'word: then, index: 6'
p294
aatp295
Rp296
(dp297
g16
Vadvmod
p298
sbatp299
Rp300
(dp301
g16
S'word: there, index: 7'
p302
sbatp303
Rp304
(dp305
g16
Vconj
p306
sbatp307
Rp308
(dp309
g16
S'word: there, index: 4'
p310
sbatp311
Rp312
(dp313
g16
Vdep
p314
sbag0
(g1
g2
(lp315
g300
atp316
Rp317
(dp318
g16
Vdep
p319
sbatp320
Rp321
(dp322
g16
S'word: then, index: 2'
p323
sbatp324
Rp325
(dp326
g16
S'id: 4'
p327
sbag0
(g1
g2
(lp328
g0
(g1
g2
(lp329
g0
(g1
g2
(lp330
g0
(g1
g2
(lp331
g0
(g1
g2
(lp332
g0
(g1
g2
(lp333
g0
(g1
g2
(lp334
(lp335
S'word: an, index: 5'
p336
aatp337
Rp338
(dp339
g16
Vpredet
p340
sbag0
(g1
g2
(lp341
(lp342
S'word: an, index: 6'
p343
aatp344
Rp345
(dp346
g16
Vdet
p347
sbatp348
Rp349
(dp350
g16
S'word: boy, index: 7'
p351
sbatp352
Rp353
(dp354
g16
Vnsubj
p355
sbatp356
Rp357
(dp358
g16
S'word: here, index: 8'
p359
sbatp360
Rp361
(dp362
g16
Vconj
p363
sbag0
(g1
g2
(lp364
g0
(g1
g2
(lp365
g0
(g1
g2
(lp366
(lp367
S'word: girl, index: 11'
p368
aatp369
Rp370
(dp371
g16
Vnsubj
p372
sbatp373
Rp374
(dp375
g16
S'word: here, index: 12'
p376
sbatp377
Rp378
(dp379
g16
Vconj
p380
sbatp381
Rp382
(dp383
g16
S'word: ..., index: 2'
p384
sbatp385
Rp386
(dp387
g16
S'id: 5'
p388
sbag0
(g1
g2
(lp389
g0
(g1
g2
(lp390
g0
(g1
g2
(lp391
(lp392
S'word: here, index: 18'
p393
aatp394
Rp395
(dp396
g16
Vadvmod
p397
sbag0
(g1
g2
(lp398
(lp399
S'word: and, index: 20'
p400
aatp401
Rp402
(dp403
g16
Vcc
p404
sbag0
(g1
g2
(lp405
(lp406
S'word: here, index: 21'
p407
aatp408
Rp409
(dp410
g16
Vadvmod
p411
sbag0
(g1
g2
(lp412
(lp413
S'word: and, index: 23'
p414
aatp415
Rp416
(dp417
g16
Vcc
p418
sbag0
(g1
g2
(lp419
(lp420
S'word: here, index: 24'
p421
aatp422
Rp423
(dp424
g16
Vadvmod
p425
sbag0
(g1
g2
(lp426
g0
(g1
g2
(lp427
g0
(g1
g2
(lp428
(lp429
S'word: right, index: 26'
p430
aatp431
Rp432
(dp433
g16
Vadvmod
p434
sbatp435
Rp436
(dp437
g16
S'word: there, index: 27'
p438
sbatp439
Rp440
(dp441
g16
Vccomp
p442
sbag0
(g1
g2
(lp443
g0
(g1
g2
(lp444
g0
(g1
g2
(lp445
(lp446
S'word: right, index: 29'
p447
aatp448
Rp449
(dp450
g16
Vadvmod
p451
sbatp452
Rp453
(dp454
g16
S'word: there, index: 30'
p455
sbatp456
Rp457
(dp458
g16
Vparataxis
p459
sbag0
(g1
g2
(lp460
(lp461
S'word: And, index: 1'
p462
aatp463
Rp464
(dp465
g16
Vcc
p466
sbag0
(g1
g2
(lp467
(lp468
S'word: pictures, index: 2'
p469
aatp470
Rp471
(dp472
g16
Vnsubj
p473
sbag0
(g1
g2
(lp474
(lp475
S'word: and, index: 5'
p476
aatp477
Rp478
(dp479
g16
Vcc
p480
sbag0
(g1
g2
(lp481
(lp482
S'word: here, index: 6'
p483
aatp484
Rp485
(dp486
g16
Vadvmod
p487
sbag0
(g1
g2
(lp488
g0
(g1
g2
(lp489
g0
(g1
g2
(lp490
(lp491
S'word: and, index: 8'
p492
aatp493
Rp494
(dp495
g16
Vcc
p496
sbatp497
Rp498
(dp499
g16
S'word: here, index: 9'
p500
sbatp501
Rp502
(dp503
g16
Vdep
p504
sbag0
(g1
g2
(lp505
(lp506
S'word: and, index: 11'
p507
aatp508
Rp509
(dp510
g16
Vcc
p511
sbag0
(g1
g2
(lp512
(lp513
S'word: here, index: 12'
p514
aatp515
Rp516
(dp517
g16
Vadvmod
p518
sbag0
(g1
g2
(lp519
(lp520
S'word: and, index: 14'
p521
aatp522
Rp523
(dp524
g16
Vcc
p525
sbag0
(g1
g2
(lp526
(lp527
S'word: here, index: 15'
p528
aatp529
Rp530
(dp531
g16
Vadvmod
p532
sbag0
(g1
g2
(lp533
(lp534
S'word: and, index: 17'
p535
aatp536
Rp537
(dp538
g16
Vcc
p539
sbatp540
Rp541
(dp542
g16
S'word: of, index: 3'
p543
sbatp544
Rp545
(dp546
g16
S'id: 6'
p547
sbag0
(g1
g2
(lp548
g0
(g1
g2
(lp549
g0
(g1
g2
(lp550
g0
(g1
g2
(lp551
g0
(g1
g2
(lp552
(lp553
S'word: right, index: 7'
p554
aatp555
Rp556
(dp557
g16
Vadvmod
p558
sbag0
(g1
g2
(lp559
g0
(g1
g2
(lp560
g0
(g1
g2
(lp561
(lp562
S'word: right, index: 11'
p563
aatp564
Rp565
(dp566
g16
Vadvmod
p567
sbatp568
Rp569
(dp570
g16
S'word: there, index: 12'
p571
sbatp572
Rp573
(dp574
g16
Vconj
p575
sbatp576
Rp577
(dp578
g16
S'word: there, index: 8'
p579
sbatp580
Rp581
(dp582
g16
Vadvmod
p583
sbag0
(g1
g2
(lp584
g569
atp585
Rp586
(dp587
g16
Vadvmod
p588
sbag0
(g1
g2
(lp589
(lp590
S'word: circle, index: 15'
p591
aatp592
Rp593
(dp594
g16
Vconj
p595
sbag0
(g1
g2
(lp596
(lp597
S'word: and, index: 2'
p598
aatp599
Rp600
(dp601
g16
Vadvmod
p602
sbag0
(g1
g2
(lp603
(lp604
S'word: and, index: 4'
p605
aatp606
Rp607
(dp608
g16
Vadvmod
p609
sbatp610
Rp611
(dp612
g16
S'word: Lion, index: 1'
p613
sbatp614
Rp615
(dp616
g16
S'id: 7'
p617
sbag0
(g1
g2
(lp618
g0
(g1
g2
(lp619
g0
(g1
g2
(lp620
(lp621
S'word: And, index: 1'
p622
aatp623
Rp624
(dp625
g16
Vcc
p626
sbatp627
Rp628
(dp629
g16
S'word: her, index: 2'
p630
sbatp631
Rp632
(dp633
g16
S'id: 8'
p634
sbag0
(g1
g2
(lp635
g0
(g1
g2
(lp636
g0
(g1
g2
(lp637
g0
(g1
g2
(lp638
g0
(g1
g2
(lp639
(lp640
S'word: that, index: 12'
p641
aatp642
Rp643
(dp644
g16
Vdobj
p645
sbag0
(g1
g2
(lp646
(lp647
S'word: to, index: 10'
p648
aatp649
Rp650
(dp651
g16
Vaux
p652
sbatp653
Rp654
(dp655
g16
S'word: do, index: 11'
p656
sbatp657
Rp658
(dp659
g16
Vxcomp
p660
sbag0
(g1
g2
(lp661
g0
(g1
g2
(lp662
g0
(g1
g2
(lp663
(lp664
S'word: And, index: 1'
p665
aatp666
Rp667
(dp668
g16
Vcc
p669
sbag0
(g1
g2
(lp670
(lp671
S'word: I, index: 2'
p672
aatp673
Rp674
(dp675
g16
Vnsubj
p676
sbag0
(g1
g2
(lp677
(lp678
S'word: ca, index: 3'
p679
aatp680
Rp681
(dp682
g16
Vaux
p683
sbag0
(g1
g2
(lp684
(lp685
S"word: n't, index: 4"
p686
aatp687
Rp688
(dp689
g16
Vneg
p690
sbatp691
Rp692
(dp693
g16
S'word: talk, index: 5'
p694
sbatp695
Rp696
(dp697
g16
Vccomp
p698
sbag0
(g1
g2
(lp699
(lp700
S'word: it, index: 7'
p701
aatp702
Rp703
(dp704
g16
Vnsubj
p705
sbag0
(g1
g2
(lp706
(lp707
S"word: 's, index: 8"
p708
aatp709
Rp710
(dp711
g16
Vcop
p712
sbatp713
Rp714
(dp715
g16
S'word: hard, index: 9'
p716
sbatp717
Rp718
(dp719
g16
S'id: 9'
p720
sbag0
(g1
g2
(lp721
g0
(g1
g2
(lp722
g0
(g1
g2
(lp723
g0
(g1
g2
(lp724
g0
(g1
g2
(lp725
(lp726
S'word: Right, index: 1'
p727
aatp728
Rp729
(dp730
g16
Vadvmod
p731
sbatp732
Rp733
(dp734
g16
S'word: there, index: 2'
p735
sbatp736
Rp737
(dp738
g16
Vdep
p739
sbag0
(g1
g2
(lp740
g0
(g1
g2
(lp741
g0
(g1
g2
(lp742
(lp743
S'word: there, index: 4'
p744
aatp745
Rp746
(dp747
g16
Vadvmod
p748
sbag0
(g1
g2
(lp749
(lp750
S'word: right, index: 5'
p751
aatp752
Rp753
(dp754
g16
Vadvmod
p755
sbatp756
Rp757
(dp758
g16
S'word: there, index: 6'
p759
sbatp760
Rp761
(dp762
g16
Vdep
p763
sbag0
(g1
g2
(lp764
g0
(g1
g2
(lp765
g0
(g1
g2
(lp766
(lp767
S'word: the, index: 9'
p768
aatp769
Rp770
(dp771
g16
Vdet
p772
sbag0
(g1
g2
(lp773
(lp774
S'word: same, index: 10'
p775
aatp776
Rp777
(dp778
g16
Vamod
p779
sbatp780
Rp781
(dp782
g16
S'word: thing, index: 11'
p783
sbatp784
Rp785
(dp786
g16
Vdep
p787
sbatp788
Rp789
(dp790
g16
S'word: not, index: 8'
p791
sbatp792
Rp793
(dp794
g16
S'id: 10'
p795
sbatp796
Rp797
(dp798
g16
S'sentences'
p799
sb.