ccopy_reg
_reconstructor
p0
(cnltk.tree
Tree
p1
c__builtin__
list
p2
(lp3
g0
(g1
g2
(lp4
g0
(g1
g2
(lp5
g0
(g1
g2
(lp6
VCookie dar .
p7
atp8
Rp9
(dp10
S'_label'
p11
S'start: 1'
p12
sbatp13
Rp14
(dp15
g11
S'sent: 2'
p16
sbag0
(g1
g2
(lp17
g0
(g1
g2
(lp18
VIt
p19
atp20
Rp21
(dp22
g11
S'start: 1'
p23
sbatp24
Rp25
(dp26
g11
S'sent: 3'
p27
sbag0
(g1
g2
(lp28
g0
(g1
g2
(lp29
Vcookie in
p30
atp31
Rp32
(dp33
g11
S'start: 3'
p34
sbatp35
Rp36
(dp37
g11
S'sent: 3'
p38
sbag0
(g1
g2
(lp39
g0
(g1
g2
(lp40
Vit
p41
atp42
Rp43
(dp44
g11
S'start: 7'
p45
sbatp46
Rp47
(dp48
g11
S'sent: 3'
p49
sbag0
(g1
g2
(lp50
g0
(g1
g2
(lp51
VIt
p52
atp53
Rp54
(dp55
g11
S'start: 1'
p56
sbatp57
Rp58
(dp59
g11
S'sent: 4'
p60
sbag0
(g1
g2
(lp61
g0
(g1
g2
(lp62
Vit
p63
atp64
Rp65
(dp66
g11
S'start: 3'
p67
sbatp68
Rp69
(dp70
g11
S'sent: 4'
p71
sbag0
(g1
g2
(lp72
g0
(g1
g2
(lp73
Vit
p74
atp75
Rp76
(dp77
g11
S'start: 5'
p78
sbatp79
Rp80
(dp81
g11
S'sent: 4'
p82
sbag0
(g1
g2
(lp83
g0
(g1
g2
(lp84
Vit
p85
atp86
Rp87
(dp88
g11
S'start: 12'
p89
sbatp90
Rp91
(dp92
g11
S'sent: 4'
p93
sbag0
(g1
g2
(lp94
g0
(g1
g2
(lp95
Vit
p96
atp97
Rp98
(dp99
g11
S'start: 14'
p100
sbatp101
Rp102
(dp103
g11
S'sent: 4'
p104
sbag0
(g1
g2
(lp105
g0
(g1
g2
(lp106
Vit
p107
atp108
Rp109
(dp110
g11
S'start: 16'
p111
sbatp112
Rp113
(dp114
g11
S'sent: 4'
p115
sbag0
(g1
g2
(lp116
g0
(g1
g2
(lp117
Vit
p118
atp119
Rp120
(dp121
g11
S'start: 21'
p122
sbatp123
Rp124
(dp125
g11
S'sent: 4'
p126
sbatp127
Rp128
(dp129
g11
S'id: 2'
p130
sbag0
(g1
g2
(lp131
g0
(g1
g2
(lp132
g0
(g1
g2
(lp133
Vone cookie
p134
atp135
Rp136
(dp137
g11
S'start: 4'
p138
sbatp139
Rp140
(dp141
g11
S'sent: 5'
p142
sbag0
(g1
g2
(lp143
g0
(g1
g2
(lp144
Vit
p145
atp146
Rp147
(dp148
g11
S'start: 1'
p149
sbatp150
Rp151
(dp152
g11
S'sent: 6'
p153
sbatp154
Rp155
(dp156
g11
S'id: 15'
p157
sbag0
(g1
g2
(lp158
g0
(g1
g2
(lp159
g0
(g1
g2
(lp160
Va. Fall
p161
atp162
Rp163
(dp164
g11
S'start: 7'
p165
sbatp166
Rp167
(dp168
g11
S'sent: 7'
p169
sbag0
(g1
g2
(lp170
g0
(g1
g2
(lp171
Vfall
p172
atp173
Rp174
(dp175
g11
S'start: 10'
p176
sbatp177
Rp178
(dp179
g11
S'sent: 7'
p180
sbatp181
Rp182
(dp183
g11
S'id: 20'
p184
sbag0
(g1
g2
(lp185
g0
(g1
g2
(lp186
g0
(g1
g2
(lp187
Vtwo over here
p188
atp189
Rp190
(dp191
g11
S'start: 2'
p192
sbatp193
Rp194
(dp195
g11
S'sent: 9'
p196
sbag0
(g1
g2
(lp197
g0
(g1
g2
(lp198
VIt
p199
atp200
Rp201
(dp202
g11
S'start: 1'
p203
sbatp204
Rp205
(dp206
g11
S'sent: 10'
p207
sbatp208
Rp209
(dp210
g11
S'id: 22'
p211
sbatp212
Rp213
(dp214
g11
S'coreferences'
p215
sb.