ccopy_reg
_reconstructor
p0
(cnltk.tree
Tree
p1
c__builtin__
list
p2
(lp3
g0
(g1
g2
(lp4
g0
(g1
g2
(lp5
g0
(g1
g2
(lp6
g0
(g1
g2
(lp7
g0
(g1
g2
(lp8
Vok
p9
atp10
Rp11
(dp12
S'_label'
p13
VNN
p14
sbatp15
Rp16
(dp17
g13
VNP
p18
sbag0
(g1
g2
(lp19
g0
(g1
g2
(lp20
Vthis
p21
atp22
Rp23
(dp24
g13
VDT
p25
sbatp26
Rp27
(dp28
g13
VNP
p29
sbatp30
Rp31
(dp32
g13
VNP
p33
sbag0
(g1
g2
(lp34
g0
(g1
g2
(lp35
Vis
p36
atp37
Rp38
(dp39
g13
VVBZ
p40
sbag0
(g1
g2
(lp41
g0
(g1
g2
(lp42
Vat
p43
atp44
Rp45
(dp46
g13
VIN
p47
sbag0
(g1
g2
(lp48
g0
(g1
g2
(lp49
Vthe
p50
atp51
Rp52
(dp53
g13
VDT
p54
sbag0
(g1
g2
(lp55
Vlake
p56
atp57
Rp58
(dp59
g13
VNN
p60
sbatp61
Rp62
(dp63
g13
VNP
p64
sbatp65
Rp66
(dp67
g13
VPP
p68
sbatp69
Rp70
(dp71
g13
VVP
p72
sbag0
(g1
g2
(lp73
V.
p74
atp75
Rp76
(dp77
g13
V.
p78
sbatp79
Rp80
(dp81
g13
VS
p82
sbatp83
Rp84
(dp85
g13
S'id: 0'
p86
sbag0
(g1
g2
(lp87
g0
(g1
g2
(lp88
g0
(g1
g2
(lp89
g0
(g1
g2
(lp90
Vhouse
p91
atp92
Rp93
(dp94
g13
VNN
p95
sbatp96
Rp97
(dp98
g13
VNP
p99
sbag0
(g1
g2
(lp100
g0
(g1
g2
(lp101
Vis
p102
atp103
Rp104
(dp105
g13
VVBZ
p106
sbag0
(g1
g2
(lp107
g0
(g1
g2
(lp108
Vup
p109
atp110
Rp111
(dp112
g13
VRB
p113
sbag0
(g1
g2
(lp114
g0
(g1
g2
(lp115
Von
p116
atp117
Rp118
(dp119
g13
VIN
p120
sbag0
(g1
g2
(lp121
g0
(g1
g2
(lp122
Vthe
p123
atp124
Rp125
(dp126
g13
VDT
p127
sbag0
(g1
g2
(lp128
Vpoint
p129
atp130
Rp131
(dp132
g13
VNN
p133
sbatp134
Rp135
(dp136
g13
VNP
p137
sbatp138
Rp139
(dp140
g13
VPP
p141
sbatp142
Rp143
(dp144
g13
VADVP
p145
sbag0
(g1
g2
(lp146
g0
(g1
g2
(lp147
Vthere
p148
atp149
Rp150
(dp151
g13
VRB
p152
sbatp153
Rp154
(dp155
g13
VADVP
p156
sbatp157
Rp158
(dp159
g13
VVP
p160
sbag0
(g1
g2
(lp161
V.
p162
atp163
Rp164
(dp165
g13
V.
p166
sbatp167
Rp168
(dp169
g13
VS
p170
sbatp171
Rp172
(dp173
g13
S'id: 1'
p174
sbag0
(g1
g2
(lp175
g0
(g1
g2
(lp176
g0
(g1
g2
(lp177
g0
(g1
g2
(lp178
Vgot
p179
atp180
Rp181
(dp182
g13
VVBD
p183
sbag0
(g1
g2
(lp184
g0
(g1
g2
(lp185
Va
p186
atp187
Rp188
(dp189
g13
VDT
p190
sbag0
(g1
g2
(lp191
Vflag
p192
atp193
Rp194
(dp195
g13
VNN
p196
sbag0
(g1
g2
(lp197
Vpole
p198
atp199
Rp200
(dp201
g13
VNN
p202
sbatp203
Rp204
(dp205
g13
VNP
p206
sbatp207
Rp208
(dp209
g13
VVP
p210
sbag0
(g1
g2
(lp211
V.
p212
atp213
Rp214
(dp215
g13
V.
p216
sbatp217
Rp218
(dp219
g13
VS
p220
sbatp221
Rp222
(dp223
g13
S'id: 2'
p224
sbag0
(g1
g2
(lp225
g0
(g1
g2
(lp226
g0
(g1
g2
(lp227
g0
(g1
g2
(lp228
Vhave
p229
atp230
Rp231
(dp232
g13
VVB
p233
sbag0
(g1
g2
(lp234
g0
(g1
g2
(lp235
g0
(g1
g2
(lp236
Vyou
p237
atp238
Rp239
(dp240
g13
VPRP
p241
sbatp242
Rp243
(dp244
g13
VNP
p245
sbag0
(g1
g2
(lp246
g0
(g1
g2
(lp247
Vever
p248
atp249
Rp250
(dp251
g13
VRB
p252
sbatp253
Rp254
(dp255
g13
VADVP
p256
sbag0
(g1
g2
(lp257
g0
(g1
g2
(lp258
Vflown
p259
atp260
Rp261
(dp262
g13
VVBD
p263
sbag0
(g1
g2
(lp264
g0
(g1
g2
(lp265
g0
(g1
g2
(lp266
Va
p267
atp268
Rp269
(dp270
g13
VDT
p271
sbag0
(g1
g2
(lp272
Vkite
p273
atp274
Rp275
(dp276
g13
VNN
p277
sbatp278
Rp279
(dp280
g13
VNP
p281
sbag0
(g1
g2
(lp282
V,
p283
atp284
Rp285
(dp286
g13
V,
p287
sbag0
(g1
g2
(lp288
Vor
p289
atp290
Rp291
(dp292
g13
VCC
p293
sbag0
(g1
g2
(lp294
g0
(g1
g2
(lp295
Vanything
p296
atp297
Rp298
(dp299
g13
VNN
p300
sbatp301
Rp302
(dp303
g13
VNP
p304
sbatp305
Rp306
(dp307
g13
VNP
p308
sbatp309
Rp310
(dp311
g13
VVP
p312
sbatp313
Rp314
(dp315
g13
VS
p316
sbatp317
Rp318
(dp319
g13
VVP
p320
sbatp321
Rp322
(dp323
g13
VS
p324
sbatp325
Rp326
(dp327
g13
S'id: 3'
p328
sbatp329
Rp330
(dp331
g13
S'sentences'
p332
sb.