ccopy_reg
_reconstructor
p0
(cnltk.tree
Tree
p1
c__builtin__
list
p2
(lp3
g0
(g1
g2
(lp4
g0
(g1
g2
(lp5
g0
(g1
g2
(lp6
g0
(g1
g2
(lp7
g0
(g1
g2
(lp8
Vok
p9
atp10
Rp11
(dp12
S'_label'
p13
VNN
p14
sbatp15
Rp16
(dp17
g13
VNP
p18
sbag0
(g1
g2
(lp19
g0
(g1
g2
(lp20
g0
(g1
g2
(lp21
g0
(g1
g2
(lp22
Vthis
p23
atp24
Rp25
(dp26
g13
VDT
p27
sbatp28
Rp29
(dp30
g13
VNP
p31
sbag0
(g1
g2
(lp32
g0
(g1
g2
(lp33
Vlooks
p34
atp35
Rp36
(dp37
g13
VVBZ
p38
sbag0
(g1
g2
(lp39
g0
(g1
g2
(lp40
Vlike
p41
atp42
Rp43
(dp44
g13
VIN
p45
sbag0
(g1
g2
(lp46
g0
(g1
g2
(lp47
g0
(g1
g2
(lp48
Va
p49
atp50
Rp51
(dp52
g13
VDT
p53
sbag0
(g1
g2
(lp54
Vcircus
p55
atp56
Rp57
(dp58
g13
VNN
p59
sbatp60
Rp61
(dp62
g13
VNP
p63
sbag0
(g1
g2
(lp64
V,
p65
atp66
Rp67
(dp68
g13
V,
p69
sbag0
(g1
g2
(lp70
g0
(g1
g2
(lp71
g0
(g1
g2
(lp72
Vwhere
p73
atp74
Rp75
(dp76
g13
VWRB
p77
sbatp78
Rp79
(dp80
g13
VWHADVP
p81
sbag0
(g1
g2
(lp82
g0
(g1
g2
(lp83
g0
(g1
g2
(lp84
Vyou
p85
atp86
Rp87
(dp88
g13
VPRP
p89
sbatp90
Rp91
(dp92
g13
VNP
p93
sbag0
(g1
g2
(lp94
g0
(g1
g2
(lp95
V've
p96
atp97
Rp98
(dp99
g13
VVBP
p100
sbag0
(g1
g2
(lp101
g0
(g1
g2
(lp102
Vgot
p103
atp104
Rp105
(dp106
g13
VVBD
p107
sbag0
(g1
g2
(lp108
g0
(g1
g2
(lp109
Va
p110
atp111
Rp112
(dp113
g13
VDT
p114
sbag0
(g1
g2
(lp115
Vlot
p116
atp117
Rp118
(dp119
g13
VNN
p120
sbatp121
Rp122
(dp123
g13
VNP
p124
sbatp125
Rp126
(dp127
g13
VVP
p128
sbatp129
Rp130
(dp131
g13
VVP
p132
sbatp133
Rp134
(dp135
g13
VS
p136
sbatp137
Rp138
(dp139
g13
VSBAR
p140
sbatp141
Rp142
(dp143
g13
VNP
p144
sbatp145
Rp146
(dp147
g13
VPP
p148
sbatp149
Rp150
(dp151
g13
VVP
p152
sbatp153
Rp154
(dp155
g13
VS
p156
sbatp157
Rp158
(dp159
g13
VSBAR
p160
sbatp161
Rp162
(dp163
g13
VNP
p164
sbag0
(g1
g2
(lp165
g0
(g1
g2
(lp166
Vacts
p167
atp168
Rp169
(dp170
g13
VVBZ
p171
sbag0
(g1
g2
(lp172
g0
(g1
g2
(lp173
g0
(g1
g2
(lp174
Vgoing
p175
atp176
Rp177
(dp178
g13
VVBG
p179
sbag0
(g1
g2
(lp180
g0
(g1
g2
(lp181
Von
p182
atp183
Rp184
(dp185
g13
VRP
p186
sbatp187
Rp188
(dp189
g13
VPRT
p190
sbag0
(g1
g2
(lp191
g0
(g1
g2
(lp192
Vat
p193
atp194
Rp195
(dp196
g13
VIN
p197
sbag0
(g1
g2
(lp198
g0
(g1
g2
(lp199
Vthe
p200
atp201
Rp202
(dp203
g13
VDT
p204
sbag0
(g1
g2
(lp205
Vsame
p206
atp207
Rp208
(dp209
g13
VJJ
p210
sbag0
(g1
g2
(lp211
Vtime
p212
atp213
Rp214
(dp215
g13
VNN
p216
sbatp217
Rp218
(dp219
g13
VNP
p220
sbatp221
Rp222
(dp223
g13
VPP
p224
sbatp225
Rp226
(dp227
g13
VVP
p228
sbatp229
Rp230
(dp231
g13
VS
p232
sbatp233
Rp234
(dp235
g13
VVP
p236
sbag0
(g1
g2
(lp237
V.
p238
atp239
Rp240
(dp241
g13
V.
p242
sbatp243
Rp244
(dp245
g13
VS
p246
sbatp247
Rp248
(dp249
g13
S'id: 0'
p250
sbag0
(g1
g2
(lp251
g0
(g1
g2
(lp252
g0
(g1
g2
(lp253
g0
(g1
g2
(lp254
VYou
p255
atp256
Rp257
(dp258
g13
VPRP
p259
sbatp260
Rp261
(dp262
g13
VNP
p263
sbag0
(g1
g2
(lp264
g0
(g1
g2
(lp265
V've
p266
atp267
Rp268
(dp269
g13
VVBP
p270
sbag0
(g1
g2
(lp271
g0
(g1
g2
(lp272
Vgot
p273
atp274
Rp275
(dp276
g13
VVBD
p277
sbag0
(g1
g2
(lp278
g0
(g1
g2
(lp279
g0
(g1
g2
(lp280
Va
p281
atp282
Rp283
(dp284
g13
VDT
p285
sbag0
(g1
g2
(lp286
Vbareback
p287
atp288
Rp289
(dp290
g13
VNN
p291
sbag0
(g1
g2
(lp292
Vrider
p293
atp294
Rp295
(dp296
g13
VNN
p297
sbatp298
Rp299
(dp300
g13
VNP
p301
sbag0
(g1
g2
(lp302
V,
p303
atp304
Rp305
(dp306
g13
V,
p307
sbag0
(g1
g2
(lp308
g0
(g1
g2
(lp309
g0
(g1
g2
(lp310
Va
p311
atp312
Rp313
(dp314
g13
VDT
p315
sbag0
(g1
g2
(lp316
Vlady
p317
atp318
Rp319
(dp320
g13
VNN
p321
sbatp322
Rp323
(dp324
g13
VNP
p325
sbag0
(g1
g2
(lp326
g0
(g1
g2
(lp327
Vriding
p328
atp329
Rp330
(dp331
g13
VVBG
p332
sbag0
(g1
g2
(lp333
g0
(g1
g2
(lp334
Va
p335
atp336
Rp337
(dp338
g13
VDT
p339
sbag0
(g1
g2
(lp340
Vhorse
p341
atp342
Rp343
(dp344
g13
VNN
p345
sbatp346
Rp347
(dp348
g13
VNP
p349
sbatp350
Rp351
(dp352
g13
VVP
p353
sbatp354
Rp355
(dp356
g13
VNP
p357
sbatp358
Rp359
(dp360
g13
VNP
p361
sbatp362
Rp363
(dp364
g13
VVP
p365
sbatp366
Rp367
(dp368
g13
VVP
p369
sbag0
(g1
g2
(lp370
V.
p371
atp372
Rp373
(dp374
g13
V.
p375
sbatp376
Rp377
(dp378
g13
VS
p379
sbatp380
Rp381
(dp382
g13
S'id: 1'
p383
sbag0
(g1
g2
(lp384
g0
(g1
g2
(lp385
g0
(g1
g2
(lp386
g0
(g1
g2
(lp387
VYou
p388
atp389
Rp390
(dp391
g13
VPRP
p392
sbatp393
Rp394
(dp395
g13
VNP
p396
sbag0
(g1
g2
(lp397
g0
(g1
g2
(lp398
V've
p399
atp400
Rp401
(dp402
g13
VVBP
p403
sbag0
(g1
g2
(lp404
g0
(g1
g2
(lp405
Vgot
p406
atp407
Rp408
(dp409
g13
VVBN
p410
sbag0
(g1
g2
(lp411
g0
(g1
g2
(lp412
g0
(g1
g2
(lp413
Vpeople
p414
atp415
Rp416
(dp417
g13
VNNS
p418
sbatp419
Rp420
(dp421
g13
VNP
p422
sbag0
(g1
g2
(lp423
g0
(g1
g2
(lp424
Vsitting
p425
atp426
Rp427
(dp428
g13
VVBG
p429
sbag0
(g1
g2
(lp430
g0
(g1
g2
(lp431
Vin
p432
atp433
Rp434
(dp435
g13
VIN
p436
sbag0
(g1
g2
(lp437
g0
(g1
g2
(lp438
Vthe
p439
atp440
Rp441
(dp442
g13
VDT
p443
sbag0
(g1
g2
(lp444
Vaudience
p445
atp446
Rp447
(dp448
g13
VNN
p449
sbatp450
Rp451
(dp452
g13
VNP
p453
sbatp454
Rp455
(dp456
g13
VPP
p457
sbatp458
Rp459
(dp460
g13
VVP
p461
sbatp462
Rp463
(dp464
g13
VNP
p465
sbatp466
Rp467
(dp468
g13
VVP
p469
sbatp470
Rp471
(dp472
g13
VVP
p473
sbag0
(g1
g2
(lp474
V.
p475
atp476
Rp477
(dp478
g13
V.
p479
sbatp480
Rp481
(dp482
g13
VS
p483
sbatp484
Rp485
(dp486
g13
S'id: 2'
p487
sbag0
(g1
g2
(lp488
g0
(g1
g2
(lp489
g0
(g1
g2
(lp490
g0
(g1
g2
(lp491
g0
(g1
g2
(lp492
VYou
p493
atp494
Rp495
(dp496
g13
VPRP
p497
sbatp498
Rp499
(dp500
g13
VNP
p501
sbag0
(g1
g2
(lp502
g0
(g1
g2
(lp503
V've
p504
atp505
Rp506
(dp507
g13
VVBP
p508
sbag0
(g1
g2
(lp509
g0
(g1
g2
(lp510
Vgot
p511
atp512
Rp513
(dp514
g13
VVBN
p515
sbag0
(g1
g2
(lp516
V,
p517
atp518
Rp519
(dp520
g13
V,
p521
sbag0
(g1
g2
(lp522
g0
(g1
g2
(lp523
g0
(g1
g2
(lp524
Va
p525
atp526
Rp527
(dp528
g13
VDT
p529
sbag0
(g1
g2
(lp530
Vguy
p531
atp532
Rp533
(dp534
g13
VNN
p535
sbatp536
Rp537
(dp538
g13
VNP
p539
sbag0
(g1
g2
(lp540
g0
(g1
g2
(lp541
g0
(g1
g2
(lp542
Vthat
p543
atp544
Rp545
(dp546
g13
VWDT
p547
sbatp548
Rp549
(dp550
g13
VWHNP
p551
sbag0
(g1
g2
(lp552
g0
(g1
g2
(lp553
g0
(g1
g2
(lp554
V's
p555
atp556
Rp557
(dp558
g13
VVBZ
p559
sbag0
(g1
g2
(lp560
g0
(g1
g2
(lp561
Vdoing
p562
atp563
Rp564
(dp565
g13
VVBG
p566
sbag0
(g1
g2
(lp567
g0
(g1
g2
(lp568
Vthe
p569
atp570
Rp571
(dp572
g13
VDT
p573
sbag0
(g1
g2
(lp574
Vtype
p575
atp576
Rp577
(dp578
g13
VNN
p579
sbag0
(g1
g2
(lp580
Vrope
p581
atp582
Rp583
(dp584
g13
VNN
p585
sbatp586
Rp587
(dp588
g13
VNP
p589
sbatp590
Rp591
(dp592
g13
VVP
p593
sbatp594
Rp595
(dp596
g13
VVP
p597
sbatp598
Rp599
(dp600
g13
VS
p601
sbatp602
Rp603
(dp604
g13
VSBAR
p605
sbatp606
Rp607
(dp608
g13
VNP
p609
sbatp610
Rp611
(dp612
g13
VVP
p613
sbatp614
Rp615
(dp616
g13
VVP
p617
sbatp618
Rp619
(dp620
g13
VS
p621
sbag0
(g1
g2
(lp622
V,
p623
atp624
Rp625
(dp626
g13
V,
p627
sbag0
(g1
g2
(lp628
g0
(g1
g2
(lp629
Vyou
p630
atp631
Rp632
(dp633
g13
VPRP
p634
sbatp635
Rp636
(dp637
g13
VNP
p638
sbag0
(g1
g2
(lp639
g0
(g1
g2
(lp640
V've
p641
atp642
Rp643
(dp644
g13
VVBP
p645
sbag0
(g1
g2
(lp646
g0
(g1
g2
(lp647
Vgot
p648
atp649
Rp650
(dp651
g13
VVBD
p652
sbag0
(g1
g2
(lp653
g0
(g1
g2
(lp654
g0
(g1
g2
(lp655
Va
p656
atp657
Rp658
(dp659
g13
VDT
p660
sbag0
(g1
g2
(lp661
Vclown
p662
atp663
Rp664
(dp665
g13
VNN
p666
sbatp667
Rp668
(dp669
g13
VNP
p670
sbag0
(g1
g2
(lp671
g0
(g1
g2
(lp672
g0
(g1
g2
(lp673
g0
(g1
g2
(lp674
g0
(g1
g2
(lp675
Vthere
p676
atp677
Rp678
(dp679
g13
VRB
p680
sbatp681
Rp682
(dp683
g13
VADVP
p684
sbag0
(g1
g2
(lp685
g0
(g1
g2
(lp686
Vthat
p687
atp688
Rp689
(dp690
g13
VDT
p691
sbatp692
Rp693
(dp694
g13
VNP
p695
sbag0
(g1
g2
(lp696
g0
(g1
g2
(lp697
V's
p698
atp699
Rp700
(dp701
g13
VVBZ
p702
sbag0
(g1
g2
(lp703
Veither
p704
atp705
Rp706
(dp707
g13
VCC
p708
sbag0
(g1
g2
(lp709
g0
(g1
g2
(lp710
Vthrowing
p711
atp712
Rp713
(dp714
g13
VVBG
p715
sbag0
(g1
g2
(lp716
g0
(g1
g2
(lp717
Vpopcorn
p718
atp719
Rp720
(dp721
g13
VNN
p722
sbatp723
Rp724
(dp725
g13
VNP
p726
sbatp727
Rp728
(dp729
g13
VVP
p730
sbag0
(g1
g2
(lp731
V,
p732
atp733
Rp734
(dp735
g13
V,
p736
sbatp737
Rp738
(dp739
g13
VVP
p740
sbatp741
Rp742
(dp743
g13
VS
p744
sbag0
(g1
g2
(lp745
Vor
p746
atp747
Rp748
(dp749
g13
VCC
p750
sbag0
(g1
g2
(lp751
g0
(g1
g2
(lp752
g0
(g1
g2
(lp753
g0
(g1
g2
(lp754
V,
p755
atp756
Rp757
(dp758
g13
V,
p759
sbag0
(g1
g2
(lp760
Vor
p761
atp762
Rp763
(dp764
g13
VCC
p765
sbag0
(g1
g2
(lp766
Vpaper
p767
atp768
Rp769
(dp770
g13
VNN
p771
sbag0
(g1
g2
(lp772
V,
p773
atp774
Rp775
(dp776
g13
V,
p777
sbatp778
Rp779
(dp780
g13
VPRN
p781
sbatp782
Rp783
(dp784
g13
VNP
p785
sbag0
(g1
g2
(lp786
g0
(g1
g2
(lp787
Vcut
p788
atp789
Rp790
(dp791
g13
VVBD
p792
sbag0
(g1
g2
(lp793
g0
(g1
g2
(lp794
Vup
p795
atp796
Rp797
(dp798
g13
VRP
p799
sbatp800
Rp801
(dp802
g13
VPRT
p803
sbag0
(g1
g2
(lp804
g0
(g1
g2
(lp805
Vpaper
p806
atp807
Rp808
(dp809
g13
VNN
p810
sbatp811
Rp812
(dp813
g13
VNP
p814
sbag0
(g1
g2
(lp815
V,
p816
atp817
Rp818
(dp819
g13
V,
p820
sbag0
(g1
g2
(lp821
g0
(g1
g2
(lp822
Vto
p823
atp824
Rp825
(dp826
g13
VTO
p827
sbag0
(g1
g2
(lp828
g0
(g1
g2
(lp829
Vthe
p830
atp831
Rp832
(dp833
g13
VDT
p834
sbag0
(g1
g2
(lp835
Vkids
p836
atp837
Rp838
(dp839
g13
VNNS
p840
sbatp841
Rp842
(dp843
g13
VNP
p844
sbatp845
Rp846
(dp847
g13
VPP
p848
sbatp849
Rp850
(dp851
g13
VVP
p852
sbatp853
Rp854
(dp855
g13
VS
p856
sbatp857
Rp858
(dp859
g13
VS
p860
sbatp861
Rp862
(dp863
g13
VSBAR
p864
sbag0
(g1
g2
(lp865
V,
p866
atp867
Rp868
(dp869
g13
V,
p870
sbag0
(g1
g2
(lp871
Vor
p872
atp873
Rp874
(dp875
g13
VCC
p876
sbag0
(g1
g2
(lp877
g0
(g1
g2
(lp878
Vmaybe
p879
atp880
Rp881
(dp882
g13
VRB
p883
sbatp884
Rp885
(dp886
g13
VADVP
p887
sbag0
(g1
g2
(lp888
Veven
p889
atp890
Rp891
(dp892
g13
VRB
p893
sbag0
(g1
g2
(lp894
g0
(g1
g2
(lp895
Vcandy
p896
atp897
Rp898
(dp899
g13
VNN
p900
sbatp901
Rp902
(dp903
g13
VNP
p904
sbag0
(g1
g2
(lp905
V,
p906
atp907
Rp908
(dp909
g13
V,
p910
sbag0
(g1
g2
(lp911
g0
(g1
g2
(lp912
g0
(g1
g2
(lp913
Vwho
p914
atp915
Rp916
(dp917
g13
VWP
p918
sbatp919
Rp920
(dp921
g13
VWHNP
p922
sbag0
(g1
g2
(lp923
g0
(g1
g2
(lp924
g0
(g1
g2
(lp925
Vknows
p926
atp927
Rp928
(dp929
g13
VVBZ
p930
sbatp931
Rp932
(dp933
g13
VVP
p934
sbatp935
Rp936
(dp937
g13
VS
p938
sbatp939
Rp940
(dp941
g13
VSBAR
p942
sbatp943
Rp944
(dp945
g13
VNP
p946
sbatp947
Rp948
(dp949
g13
VVP
p950
sbatp951
Rp952
(dp953
g13
VVP
p954
sbag0
(g1
g2
(lp955
V.
p956
atp957
Rp958
(dp959
g13
V.
p960
sbatp961
Rp962
(dp963
g13
VS
p964
sbatp965
Rp966
(dp967
g13
S'id: 3'
p968
sbag0
(g1
g2
(lp969
g0
(g1
g2
(lp970
g0
(g1
g2
(lp971
VThen
p972
atp973
Rp974
(dp975
g13
VRB
p976
sbag0
(g1
g2
(lp977
g0
(g1
g2
(lp978
Vyou
p979
atp980
Rp981
(dp982
g13
VPRP
p983
sbatp984
Rp985
(dp986
g13
VNP
p987
sbag0
(g1
g2
(lp988
g0
(g1
g2
(lp989
V've
p990
atp991
Rp992
(dp993
g13
VVBP
p994
sbag0
(g1
g2
(lp995
g0
(g1
g2
(lp996
Vgot
p997
atp998
Rp999
(dp1000
g13
VVBD
p1001
sbag0
(g1
g2
(lp1002
g0
(g1
g2
(lp1003
g0
(g1
g2
(lp1004
g0
(g1
g2
(lp1005
g0
(g1
g2
(lp1006
g0
(g1
g2
(lp1007
g0
(g1
g2
(lp1008
Vthe
p1009
atp1010
Rp1011
(dp1012
g13
VDT
p1013
sbag0
(g1
g2
(lp1014
Vring
p1015
atp1016
Rp1017
(dp1018
g13
VNN
p1019
sbag0
(g1
g2
(lp1020
Vmaster
p1021
atp1022
Rp1023
(dp1024
g13
VNN
p1025
sbatp1026
Rp1027
(dp1028
g13
VNP
p1029
sbag0
(g1
g2
(lp1030
V,
p1031
atp1032
Rp1033
(dp1034
g13
V,
p1035
sbag0
(g1
g2
(lp1036
Vor
p1037
atp1038
Rp1039
(dp1040
g13
VCC
p1041
sbag0
(g1
g2
(lp1042
g0
(g1
g2
(lp1043
Vno
p1044
atp1045
Rp1046
(dp1047
g13
VDT
p1048
sbatp1049
Rp1050
(dp1051
g13
VNP
p1052
sbag0
(g1
g2
(lp1053
V,
p1054
atp1055
Rp1056
(dp1057
g13
V,
p1058
sbatp1059
Rp1060
(dp1061
g13
VNP
p1062
sbag0
(g1
g2
(lp1063
Vwell
p1064
atp1065
Rp1066
(dp1067
g13
VRB
p1068
sbatp1069
Rp1070
(dp1071
g13
VADVP
p1072
sbag0
(g1
g2
(lp1073
g0
(g1
g2
(lp1074
VI
p1075
atp1076
Rp1077
(dp1078
g13
VPRP
p1079
sbatp1080
Rp1081
(dp1082
g13
VNP
p1083
sbag0
(g1
g2
(lp1084
g0
(g1
g2
(lp1085
Vwouldnt
p1086
atp1087
Rp1088
(dp1089
g13
VVBP
p1090
sbag0
(g1
g2
(lp1091
g0
(g1
g2
(lp1092
Vsay
p1093
atp1094
Rp1095
(dp1096
g13
VVB
p1097
sbag0
(g1
g2
(lp1098
g0
(g1
g2
(lp1099
Vring
p1100
atp1101
Rp1102
(dp1103
g13
VNN
p1104
sbag0
(g1
g2
(lp1105
Vmaster
p1106
atp1107
Rp1108
(dp1109
g13
VNN
p1110
sbatp1111
Rp1112
(dp1113
g13
VNP
p1114
sbatp1115
Rp1116
(dp1117
g13
VVP
p1118
sbatp1119
Rp1120
(dp1121
g13
VVP
p1122
sbatp1123
Rp1124
(dp1125
g13
VS
p1126
sbag0
(g1
g2
(lp1127
V,
p1128
atp1129
Rp1130
(dp1131
g13
V,
p1132
sbag0
(g1
g2
(lp1133
Vbut
p1134
atp1135
Rp1136
(dp1137
g13
VCC
p1138
sbag0
(g1
g2
(lp1139
g0
(g1
g2
(lp1140
g0
(g1
g2
(lp1141
Vthe
p1142
atp1143
Rp1144
(dp1145
g13
VDT
p1146
sbag0
(g1
g2
(lp1147
Vlion
p1148
atp1149
Rp1150
(dp1151
g13
VNN
p1152
sbatp1153
Rp1154
(dp1155
g13
VNP
p1156
sbag0
(g1
g2
(lp1157
g0
(g1
g2
(lp1158
g0
(g1
g2
(lp1159
Vtamer
p1160
atp1161
Rp1162
(dp1163
g13
VJJR
p1164
sbag0
(g1
g2
(lp1165
g0
(g1
g2
(lp1166
g0
(g1
g2
(lp1167
g0
(g1
g2
(lp1168
Vhaving
p1169
atp1170
Rp1171
(dp1172
g13
VVBG
p1173
sbag0
(g1
g2
(lp1174
g0
(g1
g2
(lp1175
g0
(g1
g2
(lp1176
g0
(g1
g2
(lp1177
Vthe
p1178
atp1179
Rp1180
(dp1181
g13
VDT
p1182
sbag0
(g1
g2
(lp1183
Vlion
p1184
atp1185
Rp1186
(dp1187
g13
VNN
p1188
sbatp1189
Rp1190
(dp1191
g13
VNP
p1192
sbag0
(g1
g2
(lp1193
g0
(g1
g2
(lp1194
Vdo
p1195
atp1196
Rp1197
(dp1198
g13
VVBP
p1199
sbag0
(g1
g2
(lp1200
g0
(g1
g2
(lp1201
Vtricks
p1202
atp1203
Rp1204
(dp1205
g13
VNNS
p1206
sbatp1207
Rp1208
(dp1209
g13
VNP
p1210
sbatp1211
Rp1212
(dp1213
g13
VVP
p1214
sbatp1215
Rp1216
(dp1217
g13
VS
p1218
sbag0
(g1
g2
(lp1219
V,
p1220
atp1221
Rp1222
(dp1223
g13
V,
p1224
sbag0
(g1
g2
(lp1225
Vand
p1226
atp1227
Rp1228
(dp1229
g13
VCC
p1230
sbag0
(g1
g2
(lp1231
g0
(g1
g2
(lp1232
g0
(g1
g2
(lp1233
Vit
p1234
atp1235
Rp1236
(dp1237
g13
VPRP
p1238
sbatp1239
Rp1240
(dp1241
g13
VNP
p1242
sbag0
(g1
g2
(lp1243
g0
(g1
g2
(lp1244
Vlooks
p1245
atp1246
Rp1247
(dp1248
g13
VVBZ
p1249
sbag0
(g1
g2
(lp1250
g0
(g1
g2
(lp1251
Vlike
p1252
atp1253
Rp1254
(dp1255
g13
VIN
p1256
sbag0
(g1
g2
(lp1257
g0
(g1
g2
(lp1258
g0
(g1
g2
(lp1259
Vhe
p1260
atp1261
Rp1262
(dp1263
g13
VPRP
p1264
sbatp1265
Rp1266
(dp1267
g13
VNP
p1268
sbag0
(g1
g2
(lp1269
g0
(g1
g2
(lp1270
Vmight
p1271
atp1272
Rp1273
(dp1274
g13
VMD
p1275
sbag0
(g1
g2
(lp1276
g0
(g1
g2
(lp1277
Vbe
p1278
atp1279
Rp1280
(dp1281
g13
VVB
p1282
sbag0
(g1
g2
(lp1283
g0
(g1
g2
(lp1284
Vinside
p1285
atp1286
Rp1287
(dp1288
g13
VIN
p1289
sbag0
(g1
g2
(lp1290
Vof
p1291
atp1292
Rp1293
(dp1294
g13
VIN
p1295
sbag0
(g1
g2
(lp1296
g0
(g1
g2
(lp1297
g0
(g1
g2
(lp1298
g0
(g1
g2
(lp1299
Va
p1300
atp1301
Rp1302
(dp1303
g13
VDT
p1304
sbag0
(g1
g2
(lp1305
Vcarousel
p1306
atp1307
Rp1308
(dp1309
g13
VNN
p1310
sbag0
(g1
g2
(lp1311
Vkind
p1312
atp1313
Rp1314
(dp1315
g13
VNN
p1316
sbatp1317
Rp1318
(dp1319
g13
VNP
p1320
sbag0
(g1
g2
(lp1321
g0
(g1
g2
(lp1322
Vof
p1323
atp1324
Rp1325
(dp1326
g13
VIN
p1327
sbag0
(g1
g2
(lp1328
g0
(g1
g2
(lp1329
Vthing
p1330
atp1331
Rp1332
(dp1333
g13
VNN
p1334
sbatp1335
Rp1336
(dp1337
g13
VNP
p1338
sbatp1339
Rp1340
(dp1341
g13
VPP
p1342
sbatp1343
Rp1344
(dp1345
g13
VNP
p1346
sbag0
(g1
g2
(lp1347
V,
p1348
atp1349
Rp1350
(dp1351
g13
V,
p1352
sbag0
(g1
g2
(lp1353
Vor
p1354
atp1355
Rp1356
(dp1357
g13
VCC
p1358
sbag0
(g1
g2
(lp1359
g0
(g1
g2
(lp1360
Va
p1361
atp1362
Rp1363
(dp1364
g13
VDT
p1365
sbag0
(g1
g2
(lp1366
Vring
p1367
atp1368
Rp1369
(dp1370
g13
VNN
p1371
sbag0
(g1
g2
(lp1372
g0
(g1
g2
(lp1373
g0
(g1
g2
(lp1374
Vto
p1375
atp1376
Rp1377
(dp1378
g13
VTO
p1379
sbag0
(g1
g2
(lp1380
g0
(g1
g2
(lp1381
Vkeep
p1382
atp1383
Rp1384
(dp1385
g13
VVB
p1386
sbag0
(g1
g2
(lp1387
g0
(g1
g2
(lp1388
Vthe
p1389
atp1390
Rp1391
(dp1392
g13
VDT
p1393
sbag0
(g1
g2
(lp1394
Vtiger
p1395
atp1396
Rp1397
(dp1398
g13
VNN
p1399
sbatp1400
Rp1401
(dp1402
g13
VNP
p1403
sbatp1404
Rp1405
(dp1406
g13
VVP
p1407
sbatp1408
Rp1409
(dp1410
g13
VVP
p1411
sbatp1412
Rp1413
(dp1414
g13
VS
p1415
sbatp1416
Rp1417
(dp1418
g13
VNP
p1419
sbatp1420
Rp1421
(dp1422
g13
VNP
p1423
sbatp1424
Rp1425
(dp1426
g13
VPP
p1427
sbatp1428
Rp1429
(dp1430
g13
VVP
p1431
sbatp1432
Rp1433
(dp1434
g13
VVP
p1435
sbatp1436
Rp1437
(dp1438
g13
VS
p1439
sbatp1440
Rp1441
(dp1442
g13
VSBAR
p1443
sbatp1444
Rp1445
(dp1446
g13
VVP
p1447
sbatp1448
Rp1449
(dp1450
g13
VS
p1451
sbatp1452
Rp1453
(dp1454
g13
VS
p1455
sbatp1456
Rp1457
(dp1458
g13
VVP
p1459
sbatp1460
Rp1461
(dp1462
g13
VS
p1463
sbatp1464
Rp1465
(dp1466
g13
VSBAR
p1467
sbatp1468
Rp1469
(dp1470
g13
VADJP
p1471
sbag0
(g1
g2
(lp1472
g0
(g1
g2
(lp1473
Vfrom
p1474
atp1475
Rp1476
(dp1477
g13
VIN
p1478
sbag0
(g1
g2
(lp1479
g0
(g1
g2
(lp1480
V,
p1481
atp1482
Rp1483
(dp1484
g13
V,
p1485
sbag0
(g1
g2
(lp1486
g0
(g1
g2
(lp1487
g0
(g1
g2
(lp1488
VI
p1489
atp1490
Rp1491
(dp1492
g13
VPRP
p1493
sbatp1494
Rp1495
(dp1496
g13
VNP
p1497
sbag0
(g1
g2
(lp1498
g0
(g1
g2
(lp1499
Vmean
p1500
atp1501
Rp1502
(dp1503
g13
VVBP
p1504
sbag0
(g1
g2
(lp1505
g0
(g1
g2
(lp1506
Vthe
p1507
atp1508
Rp1509
(dp1510
g13
VDT
p1511
sbag0
(g1
g2
(lp1512
Vlion
p1513
atp1514
Rp1515
(dp1516
g13
VNN
p1517
sbatp1518
Rp1519
(dp1520
g13
VNP
p1521
sbag0
(g1
g2
(lp1522
g0
(g1
g2
(lp1523
Vfrom
p1524
atp1525
Rp1526
(dp1527
g13
VIN
p1528
sbatp1529
Rp1530
(dp1531
g13
VPP
p1532
sbatp1533
Rp1534
(dp1535
g13
VVP
p1536
sbatp1537
Rp1538
(dp1539
g13
VS
p1540
sbag0
(g1
g2
(lp1541
V,
p1542
atp1543
Rp1544
(dp1545
g13
V,
p1546
sbatp1547
Rp1548
(dp1549
g13
VPRN
p1550
sbag0
(g1
g2
(lp1551
g0
(g1
g2
(lp1552
g0
(g1
g2
(lp1553
Vgetting
p1554
atp1555
Rp1556
(dp1557
g13
VVBG
p1558
sbag0
(g1
g2
(lp1559
g0
(g1
g2
(lp1560
Vout
p1561
atp1562
Rp1563
(dp1564
g13
VRP
p1565
sbatp1566
Rp1567
(dp1568
g13
VPRT
p1569
sbatp1570
Rp1571
(dp1572
g13
VVP
p1573
sbatp1574
Rp1575
(dp1576
g13
VS
p1577
sbatp1578
Rp1579
(dp1580
g13
VPP
p1581
sbatp1582
Rp1583
(dp1584
g13
VADJP
p1585
sbatp1586
Rp1587
(dp1588
g13
VS
p1589
sbatp1590
Rp1591
(dp1592
g13
VS
p1593
sbatp1594
Rp1595
(dp1596
g13
VSBAR
p1597
sbatp1598
Rp1599
(dp1600
g13
VVP
p1601
sbatp1602
Rp1603
(dp1604
g13
VVP
p1605
sbag0
(g1
g2
(lp1606
V.
p1607
atp1608
Rp1609
(dp1610
g13
V.
p1611
sbatp1612
Rp1613
(dp1614
g13
VS
p1615
sbatp1616
Rp1617
(dp1618
g13
S'id: 4'
p1619
sbag0
(g1
g2
(lp1620
g0
(g1
g2
(lp1621
g0
(g1
g2
(lp1622
g0
(g1
g2
(lp1623
g0
(g1
g2
(lp1624
VThe
p1625
atp1626
Rp1627
(dp1628
g13
VDT
p1629
sbag0
(g1
g2
(lp1630
Vclown
p1631
atp1632
Rp1633
(dp1634
g13
VNN
p1635
sbatp1636
Rp1637
(dp1638
g13
VNP
p1639
sbag0
(g1
g2
(lp1640
g0
(g1
g2
(lp1641
Vhas
p1642
atp1643
Rp1644
(dp1645
g13
VVBZ
p1646
sbag0
(g1
g2
(lp1647
g0
(g1
g2
(lp1648
g0
(g1
g2
(lp1649
Va
p1650
atp1651
Rp1652
(dp1653
g13
VDT
p1654
sbag0
(g1
g2
(lp1655
Vflower
p1656
atp1657
Rp1658
(dp1659
g13
VNN
p1660
sbatp1661
Rp1662
(dp1663
g13
VNP
p1664
sbag0
(g1
g2
(lp1665
g0
(g1
g2
(lp1666
Vin
p1667
atp1668
Rp1669
(dp1670
g13
VIN
p1671
sbag0
(g1
g2
(lp1672
g0
(g1
g2
(lp1673
Vhis
p1674
atp1675
Rp1676
(dp1677
g13
VPRP$
p1678
sbag0
(g1
g2
(lp1679
Vhat
p1680
atp1681
Rp1682
(dp1683
g13
VNN
p1684
sbatp1685
Rp1686
(dp1687
g13
VNP
p1688
sbatp1689
Rp1690
(dp1691
g13
VPP
p1692
sbatp1693
Rp1694
(dp1695
g13
VNP
p1696
sbatp1697
Rp1698
(dp1699
g13
VVP
p1700
sbatp1701
Rp1702
(dp1703
g13
VS
p1704
sbag0
(g1
g2
(lp1705
V,
p1706
atp1707
Rp1708
(dp1709
g13
V,
p1710
sbag0
(g1
g2
(lp1711
g0
(g1
g2
(lp1712
g0
(g1
g2
(lp1713
Vhe
p1714
atp1715
Rp1716
(dp1717
g13
VPRP
p1718
sbatp1719
Rp1720
(dp1721
g13
VNP
p1722
sbag0
(g1
g2
(lp1723
g0
(g1
g2
(lp1724
V's
p1725
atp1726
Rp1727
(dp1728
g13
VVBZ
p1729
sbag0
(g1
g2
(lp1730
g0
(g1
g2
(lp1731
Vgot
p1732
atp1733
Rp1734
(dp1735
g13
VVBD
p1736
sbag0
(g1
g2
(lp1737
g0
(g1
g2
(lp1738
Va
p1739
atp1740
Rp1741
(dp1742
g13
VDT
p1743
sbag0
(g1
g2
(lp1744
Vflower
p1745
atp1746
Rp1747
(dp1748
g13
VNN
p1749
sbag0
(g1
g2
(lp1750
V,
p1751
atp1752
Rp1753
(dp1754
g13
V,
p1755
sbag0
(g1
g2
(lp1756
Vflower
p1757
atp1758
Rp1759
(dp1760
g13
VNN
p1761
sbag0
(g1
g2
(lp1762
Vtie
p1763
atp1764
Rp1765
(dp1766
g13
VNN
p1767
sbatp1768
Rp1769
(dp1770
g13
VNP
p1771
sbatp1772
Rp1773
(dp1774
g13
VVP
p1775
sbatp1776
Rp1777
(dp1778
g13
VVP
p1779
sbatp1780
Rp1781
(dp1782
g13
VS
p1783
sbag0
(g1
g2
(lp1784
V,
p1785
atp1786
Rp1787
(dp1788
g13
V,
p1789
sbag0
(g1
g2
(lp1790
g0
(g1
g2
(lp1791
g0
(g1
g2
(lp1792
Vhe
p1793
atp1794
Rp1795
(dp1796
g13
VPRP
p1797
sbatp1798
Rp1799
(dp1800
g13
VNP
p1801
sbag0
(g1
g2
(lp1802
g0
(g1
g2
(lp1803
V's
p1804
atp1805
Rp1806
(dp1807
g13
VVBZ
p1808
sbag0
(g1
g2
(lp1809
g0
(g1
g2
(lp1810
Vwearing
p1811
atp1812
Rp1813
(dp1814
g13
VVBG
p1815
sbag0
(g1
g2
(lp1816
g0
(g1
g2
(lp1817
Vsuspenders
p1818
atp1819
Rp1820
(dp1821
g13
VNNS
p1822
sbatp1823
Rp1824
(dp1825
g13
VNP
p1826
sbatp1827
Rp1828
(dp1829
g13
VVP
p1830
sbatp1831
Rp1832
(dp1833
g13
VVP
p1834
sbatp1835
Rp1836
(dp1837
g13
VS
p1838
sbag0
(g1
g2
(lp1839
V.
p1840
atp1841
Rp1842
(dp1843
g13
V.
p1844
sbatp1845
Rp1846
(dp1847
g13
VS
p1848
sbatp1849
Rp1850
(dp1851
g13
S'id: 5'
p1852
sbag0
(g1
g2
(lp1853
g0
(g1
g2
(lp1854
g0
(g1
g2
(lp1855
g0
(g1
g2
(lp1856
VHe
p1857
atp1858
Rp1859
(dp1860
g13
VPRP
p1861
sbatp1862
Rp1863
(dp1864
g13
VNP
p1865
sbag0
(g1
g2
(lp1866
g0
(g1
g2
(lp1867
V's
p1868
atp1869
Rp1870
(dp1871
g13
VVBZ
p1872
sbag0
(g1
g2
(lp1873
g0
(g1
g2
(lp1874
Vgot
p1875
atp1876
Rp1877
(dp1878
g13
VVBD
p1879
sbag0
(g1
g2
(lp1880
g0
(g1
g2
(lp1881
Vthe
p1882
atp1883
Rp1884
(dp1885
g13
VDT
p1886
sbag0
(g1
g2
(lp1887
g0
(g1
g2
(lp1888
Vthe
p1889
atp1890
Rp1891
(dp1892
g13
VDT
p1893
sbag0
(g1
g2
(lp1894
Vbig
p1895
atp1896
Rp1897
(dp1898
g13
VJJ
p1899
sbag0
(g1
g2
(lp1900
Vnose
p1901
atp1902
Rp1903
(dp1904
g13
VNN
p1905
sbatp1906
Rp1907
(dp1908
g13
VNP
p1909
sbag0
(g1
g2
(lp1910
Vand
p1911
atp1912
Rp1913
(dp1914
g13
VCC
p1915
sbag0
(g1
g2
(lp1916
g0
(g1
g2
(lp1917
Vthe
p1918
atp1919
Rp1920
(dp1921
g13
VDT
p1922
sbag0
(g1
g2
(lp1923
Vface
p1924
atp1925
Rp1926
(dp1927
g13
VNN
p1928
sbag0
(g1
g2
(lp1929
Vdecoration
p1930
atp1931
Rp1932
(dp1933
g13
VNN
p1934
sbatp1935
Rp1936
(dp1937
g13
VNP
p1938
sbatp1939
Rp1940
(dp1941
g13
VNP
p1942
sbag0
(g1
g2
(lp1943
g0
(g1
g2
(lp1944
Vlike
p1945
atp1946
Rp1947
(dp1948
g13
VIN
p1949
sbag0
(g1
g2
(lp1950
g0
(g1
g2
(lp1951
Va
p1952
atp1953
Rp1954
(dp1955
g13
VDT
p1956
sbag0
(g1
g2
(lp1957
Vtypical
p1958
atp1959
Rp1960
(dp1961
g13
VJJ
p1962
sbag0
(g1
g2
(lp1963
Vclown
p1964
atp1965
Rp1966
(dp1967
g13
VNN
p1968
sbatp1969
Rp1970
(dp1971
g13
VNP
p1972
sbatp1973
Rp1974
(dp1975
g13
VPP
p1976
sbatp1977
Rp1978
(dp1979
g13
VVP
p1980
sbatp1981
Rp1982
(dp1983
g13
VVP
p1984
sbag0
(g1
g2
(lp1985
V.
p1986
atp1987
Rp1988
(dp1989
g13
V.
p1990
sbatp1991
Rp1992
(dp1993
g13
VS
p1994
sbatp1995
Rp1996
(dp1997
g13
S'id: 6'
p1998
sbag0
(g1
g2
(lp1999
g0
(g1
g2
(lp2000
g0
(g1
g2
(lp2001
g0
(g1
g2
(lp2002
VThere
p2003
atp2004
Rp2005
(dp2006
g13
VEX
p2007
sbatp2008
Rp2009
(dp2010
g13
VNP
p2011
sbag0
(g1
g2
(lp2012
g0
(g1
g2
(lp2013
V's
p2014
atp2015
Rp2016
(dp2017
g13
VVBZ
p2018
sbag0
(g1
g2
(lp2019
g0
(g1
g2
(lp2020
g0
(g1
g2
(lp2021
Va
p2022
atp2023
Rp2024
(dp2025
g13
VDT
p2026
sbag0
(g1
g2
(lp2027
Vlittle
p2028
atp2029
Rp2030
(dp2031
g13
VJJ
p2032
sbag0
(g1
g2
(lp2033
Vgirl
p2034
atp2035
Rp2036
(dp2037
g13
VNN
p2038
sbatp2039
Rp2040
(dp2041
g13
VNP
p2042
sbag0
(g1
g2
(lp2043
g0
(g1
g2
(lp2044
Vwith
p2045
atp2046
Rp2047
(dp2048
g13
VIN
p2049
sbag0
(g1
g2
(lp2050
g0
(g1
g2
(lp2051
Vher
p2052
atp2053
Rp2054
(dp2055
g13
VPRP$
p2056
sbag0
(g1
g2
(lp2057
Vfather
p2058
atp2059
Rp2060
(dp2061
g13
VNN
p2062
sbatp2063
Rp2064
(dp2065
g13
VNP
p2066
sbatp2067
Rp2068
(dp2069
g13
VPP
p2070
sbatp2071
Rp2072
(dp2073
g13
VNP
p2074
sbag0
(g1
g2
(lp2075
V,
p2076
atp2077
Rp2078
(dp2079
g13
V,
p2080
sbag0
(g1
g2
(lp2081
g0
(g1
g2
(lp2082
Vover
p2083
atp2084
Rp2085
(dp2086
g13
VIN
p2087
sbag0
(g1
g2
(lp2088
g0
(g1
g2
(lp2089
g0
(g1
g2
(lp2090
Vhere
p2091
atp2092
Rp2093
(dp2094
g13
VRB
p2095
sbatp2096
Rp2097
(dp2098
g13
VADVP
p2099
sbag0
(g1
g2
(lp2100
g0
(g1
g2
(lp2101
Vlooking
p2102
atp2103
Rp2104
(dp2105
g13
VVBG
p2106
sbatp2107
Rp2108
(dp2109
g13
VVP
p2110
sbatp2111
Rp2112
(dp2113
g13
VS
p2114
sbatp2115
Rp2116
(dp2117
g13
VPP
p2118
sbatp2119
Rp2120
(dp2121
g13
VVP
p2122
sbag0
(g1
g2
(lp2123
V.
p2124
atp2125
Rp2126
(dp2127
g13
V.
p2128
sbatp2129
Rp2130
(dp2131
g13
VS
p2132
sbatp2133
Rp2134
(dp2135
g13
S'id: 7'
p2136
sbag0
(g1
g2
(lp2137
g0
(g1
g2
(lp2138
g0
(g1
g2
(lp2139
g0
(g1
g2
(lp2140
g0
(g1
g2
(lp2141
VI
p2142
atp2143
Rp2144
(dp2145
g13
VPRP
p2146
sbatp2147
Rp2148
(dp2149
g13
VNP
p2150
sbag0
(g1
g2
(lp2151
g0
(g1
g2
(lp2152
Vca
p2153
atp2154
Rp2155
(dp2156
g13
VMD
p2157
sbag0
(g1
g2
(lp2158
Vn't
p2159
atp2160
Rp2161
(dp2162
g13
VRB
p2163
sbag0
(g1
g2
(lp2164
g0
(g1
g2
(lp2165
Vtell
p2166
atp2167
Rp2168
(dp2169
g13
VVB
p2170
sbag0
(g1
g2
(lp2171
g0
(g1
g2
(lp2172
g0
(g1
g2
(lp2173
Vif
p2174
atp2175
Rp2176
(dp2177
g13
VIN
p2178
sbag0
(g1
g2
(lp2179
g0
(g1
g2
(lp2180
g0
(g1
g2
(lp2181
Vshe
p2182
atp2183
Rp2184
(dp2185
g13
VPRP
p2186
sbatp2187
Rp2188
(dp2189
g13
VNP
p2190
sbag0
(g1
g2
(lp2191
g0
(g1
g2
(lp2192
V's
p2193
atp2194
Rp2195
(dp2196
g13
VVBZ
p2197
sbag0
(g1
g2
(lp2198
g0
(g1
g2
(lp2199
Vlooking
p2200
atp2201
Rp2202
(dp2203
g13
VVBG
p2204
sbag0
(g1
g2
(lp2205
g0
(g1
g2
(lp2206
Vat
p2207
atp2208
Rp2209
(dp2210
g13
VIN
p2211
sbag0
(g1
g2
(lp2212
g0
(g1
g2
(lp2213
Vthe
p2214
atp2215
Rp2216
(dp2217
g13
VDT
p2218
sbag0
(g1
g2
(lp2219
Vlion
p2220
atp2221
Rp2222
(dp2223
g13
VNN
p2224
sbatp2225
Rp2226
(dp2227
g13
VNP
p2228
sbatp2229
Rp2230
(dp2231
g13
VPP
p2232
sbatp2233
Rp2234
(dp2235
g13
VVP
p2236
sbatp2237
Rp2238
(dp2239
g13
VVP
p2240
sbatp2241
Rp2242
(dp2243
g13
VS
p2244
sbatp2245
Rp2246
(dp2247
g13
VSBAR
p2248
sbag0
(g1
g2
(lp2249
Vor
p2250
atp2251
Rp2252
(dp2253
g13
VCC
p2254
sbag0
(g1
g2
(lp2255
g0
(g1
g2
(lp2256
Vif
p2257
atp2258
Rp2259
(dp2260
g13
VIN
p2261
sbag0
(g1
g2
(lp2262
g0
(g1
g2
(lp2263
g0
(g1
g2
(lp2264
Vshe
p2265
atp2266
Rp2267
(dp2268
g13
VPRP
p2269
sbatp2270
Rp2271
(dp2272
g13
VNP
p2273
sbag0
(g1
g2
(lp2274
g0
(g1
g2
(lp2275
V's
p2276
atp2277
Rp2278
(dp2279
g13
VVBZ
p2280
sbag0
(g1
g2
(lp2281
g0
(g1
g2
(lp2282
Vlooking
p2283
atp2284
Rp2285
(dp2286
g13
VVBG
p2287
sbag0
(g1
g2
(lp2288
g0
(g1
g2
(lp2289
Vat
p2290
atp2291
Rp2292
(dp2293
g13
VIN
p2294
sbag0
(g1
g2
(lp2295
g0
(g1
g2
(lp2296
Vthe
p2297
atp2298
Rp2299
(dp2300
g13
VDT
p2301
sbag0
(g1
g2
(lp2302
Vclown
p2303
atp2304
Rp2305
(dp2306
g13
VNN
p2307
sbatp2308
Rp2309
(dp2310
g13
VNP
p2311
sbatp2312
Rp2313
(dp2314
g13
VPP
p2315
sbatp2316
Rp2317
(dp2318
g13
VVP
p2319
sbatp2320
Rp2321
(dp2322
g13
VVP
p2323
sbatp2324
Rp2325
(dp2326
g13
VS
p2327
sbatp2328
Rp2329
(dp2330
g13
VSBAR
p2331
sbatp2332
Rp2333
(dp2334
g13
VSBAR
p2335
sbatp2336
Rp2337
(dp2338
g13
VVP
p2339
sbatp2340
Rp2341
(dp2342
g13
VVP
p2343
sbatp2344
Rp2345
(dp2346
g13
VS
p2347
sbag0
(g1
g2
(lp2348
V,
p2349
atp2350
Rp2351
(dp2352
g13
V,
p2353
sbag0
(g1
g2
(lp2354
Vbut
p2355
atp2356
Rp2357
(dp2358
g13
VCC
p2359
sbag0
(g1
g2
(lp2360
g0
(g1
g2
(lp2361
g0
(g1
g2
(lp2362
Vthey
p2363
atp2364
Rp2365
(dp2366
g13
VPRP
p2367
sbatp2368
Rp2369
(dp2370
g13
VNP
p2371
sbag0
(g1
g2
(lp2372
g0
(g1
g2
(lp2373
Vseem
p2374
atp2375
Rp2376
(dp2377
g13
VVBP
p2378
sbag0
(g1
g2
(lp2379
g0
(g1
g2
(lp2380
g0
(g1
g2
(lp2381
Vto
p2382
atp2383
Rp2384
(dp2385
g13
VTO
p2386
sbag0
(g1
g2
(lp2387
g0
(g1
g2
(lp2388
Vbe
p2389
atp2390
Rp2391
(dp2392
g13
VVB
p2393
sbag0
(g1
g2
(lp2394
g0
(g1
g2
(lp2395
Venjoying
p2396
atp2397
Rp2398
(dp2399
g13
VVBG
p2400
sbag0
(g1
g2
(lp2401
g0
(g1
g2
(lp2402
g0
(g1
g2
(lp2403
Vthemselves
p2404
atp2405
Rp2406
(dp2407
g13
VPRP
p2408
sbatp2409
Rp2410
(dp2411
g13
VNP
p2412
sbag0
(g1
g2
(lp2413
V,
p2414
atp2415
Rp2416
(dp2417
g13
V,
p2418
sbag0
(g1
g2
(lp2419
g0
(g1
g2
(lp2420
Vas
p2421
atp2422
Rp2423
(dp2424
g13
VRB
p2425
sbag0
(g1
g2
(lp2426
Vwell
p2427
atp2428
Rp2429
(dp2430
g13
VRB
p2431
sbag0
(g1
g2
(lp2432
Vas
p2433
atp2434
Rp2435
(dp2436
g13
VIN
p2437
sbatp2438
Rp2439
(dp2440
g13
VCONJP
p2441
sbag0
(g1
g2
(lp2442
g0
(g1
g2
(lp2443
g0
(g1
g2
(lp2444
Vthe
p2445
atp2446
Rp2447
(dp2448
g13
VDT
p2449
sbag0
(g1
g2
(lp2450
Vother
p2451
atp2452
Rp2453
(dp2454
g13
VJJ
p2455
sbag0
(g1
g2
(lp2456
Vfamily
p2457
atp2458
Rp2459
(dp2460
g13
VNN
p2461
sbatp2462
Rp2463
(dp2464
g13
VNP
p2465
sbag0
(g1
g2
(lp2466
g0
(g1
g2
(lp2467
Vover
p2468
atp2469
Rp2470
(dp2471
g13
VIN
p2472
sbag0
(g1
g2
(lp2473
g0
(g1
g2
(lp2474
Vhere
p2475
atp2476
Rp2477
(dp2478
g13
VRB
p2479
sbatp2480
Rp2481
(dp2482
g13
VNP
p2483
sbatp2484
Rp2485
(dp2486
g13
VPP
p2487
sbatp2488
Rp2489
(dp2490
g13
VNP
p2491
sbatp2492
Rp2493
(dp2494
g13
VNP
p2495
sbatp2496
Rp2497
(dp2498
g13
VVP
p2499
sbatp2500
Rp2501
(dp2502
g13
VVP
p2503
sbatp2504
Rp2505
(dp2506
g13
VVP
p2507
sbatp2508
Rp2509
(dp2510
g13
VS
p2511
sbatp2512
Rp2513
(dp2514
g13
VVP
p2515
sbatp2516
Rp2517
(dp2518
g13
VS
p2519
sbag0
(g1
g2
(lp2520
V.
p2521
atp2522
Rp2523
(dp2524
g13
V.
p2525
sbatp2526
Rp2527
(dp2528
g13
VS
p2529
sbatp2530
Rp2531
(dp2532
g13
S'id: 8'
p2533
sbag0
(g1
g2
(lp2534
g0
(g1
g2
(lp2535
g0
(g1
g2
(lp2536
VAnd
p2537
atp2538
Rp2539
(dp2540
g13
VCC
p2541
sbag0
(g1
g2
(lp2542
g0
(g1
g2
(lp2543
Vin
p2544
atp2545
Rp2546
(dp2547
g13
VIN
p2548
sbag0
(g1
g2
(lp2549
g0
(g1
g2
(lp2550
g0
(g1
g2
(lp2551
Vthis
p2552
atp2553
Rp2554
(dp2555
g13
VDT
p2556
sbag0
(g1
g2
(lp2557
Vring
p2558
atp2559
Rp2560
(dp2561
g13
VNN
p2562
sbatp2563
Rp2564
(dp2565
g13
VNP
p2566
sbag0
(g1
g2
(lp2567
g0
(g1
g2
(lp2568
g0
(g1
g2
(lp2569
g0
(g1
g2
(lp2570
Vis
p2571
atp2572
Rp2573
(dp2574
g13
VVBZ
p2575
sbag0
(g1
g2
(lp2576
g0
(g1
g2
(lp2577
g0
(g1
g2
(lp2578
Vwhere
p2579
atp2580
Rp2581
(dp2582
g13
VWRB
p2583
sbatp2584
Rp2585
(dp2586
g13
VWHADVP
p2587
sbag0
(g1
g2
(lp2588
g0
(g1
g2
(lp2589
g0
(g1
g2
(lp2590
g0
(g1
g2
(lp2591
Vthe
p2592
atp2593
Rp2594
(dp2595
g13
VDT
p2596
sbatp2597
Rp2598
(dp2599
g13
VNP
p2600
sbag0
(g1
g2
(lp2601
V,
p2602
atp2603
Rp2604
(dp2605
g13
V,
p2606
sbag0
(g1
g2
(lp2607
g0
(g1
g2
(lp2608
g0
(g1
g2
(lp2609
Vthe
p2610
atp2611
Rp2612
(dp2613
g13
VDT
p2614
sbag0
(g1
g2
(lp2615
Vlady
p2616
atp2617
Rp2618
(dp2619
g13
VNN
p2620
sbatp2621
Rp2622
(dp2623
g13
VNP
p2624
sbag0
(g1
g2
(lp2625
g0
(g1
g2
(lp2626
g0
(g1
g2
(lp2627
Vwho
p2628
atp2629
Rp2630
(dp2631
g13
VWP
p2632
sbatp2633
Rp2634
(dp2635
g13
VWHNP
p2636
sbag0
(g1
g2
(lp2637
g0
(g1
g2
(lp2638
g0
(g1
g2
(lp2639
V's
p2640
atp2641
Rp2642
(dp2643
g13
VVBZ
p2644
sbag0
(g1
g2
(lp2645
g0
(g1
g2
(lp2646
Vriding
p2647
atp2648
Rp2649
(dp2650
g13
VVBG
p2651
sbag0
(g1
g2
(lp2652
g0
(g1
g2
(lp2653
Vbareback
p2654
atp2655
Rp2656
(dp2657
g13
VNN
p2658
sbatp2659
Rp2660
(dp2661
g13
VNP
p2662
sbag0
(g1
g2
(lp2663
g0
(g1
g2
(lp2664
Von
p2665
atp2666
Rp2667
(dp2668
g13
VIN
p2669
sbag0
(g1
g2
(lp2670
g0
(g1
g2
(lp2671
Vthe
p2672
atp2673
Rp2674
(dp2675
g13
VDT
p2676
sbag0
(g1
g2
(lp2677
Vhorse
p2678
atp2679
Rp2680
(dp2681
g13
VNN
p2682
sbatp2683
Rp2684
(dp2685
g13
VNP
p2686
sbatp2687
Rp2688
(dp2689
g13
VPP
p2690
sbatp2691
Rp2692
(dp2693
g13
VVP
p2694
sbatp2695
Rp2696
(dp2697
g13
VVP
p2698
sbatp2699
Rp2700
(dp2701
g13
VS
p2702
sbatp2703
Rp2704
(dp2705
g13
VSBAR
p2706
sbatp2707
Rp2708
(dp2709
g13
VNP
p2710
sbag0
(g1
g2
(lp2711
V,
p2712
atp2713
Rp2714
(dp2715
g13
V,
p2716
sbatp2717
Rp2718
(dp2719
g13
VNP
p2720
sbag0
(g1
g2
(lp2721
g0
(g1
g2
(lp2722
Vlooks
p2723
atp2724
Rp2725
(dp2726
g13
VVBZ
p2727
sbag0
(g1
g2
(lp2728
g0
(g1
g2
(lp2729
Vlike
p2730
atp2731
Rp2732
(dp2733
g13
VIN
p2734
sbag0
(g1
g2
(lp2735
g0
(g1
g2
(lp2736
g0
(g1
g2
(lp2737
Vit
p2738
atp2739
Rp2740
(dp2741
g13
VPRP
p2742
sbatp2743
Rp2744
(dp2745
g13
VNP
p2746
sbag0
(g1
g2
(lp2747
g0
(g1
g2
(lp2748
V's
p2749
atp2750
Rp2751
(dp2752
g13
VVBZ
p2753
sbag0
(g1
g2
(lp2754
g0
(g1
g2
(lp2755
Va
p2756
atp2757
Rp2758
(dp2759
g13
VDT
p2760
sbag0
(g1
g2
(lp2761
g0
(g1
g2
(lp2762
Vfrom
p2763
atp2764
Rp2765
(dp2766
g13
VIN
p2767
sbatp2768
Rp2769
(dp2770
g13
VX
p2771
sbatp2772
Rp2773
(dp2774
g13
VNP
p2775
sbag0
(g1
g2
(lp2776
V,
p2777
atp2778
Rp2779
(dp2780
g13
V,
p2781
sbag0
(g1
g2
(lp2782
g0
(g1
g2
(lp2783
Vfrom
p2784
atp2785
Rp2786
(dp2787
g13
VIN
p2788
sbag0
(g1
g2
(lp2789
g0
(g1
g2
(lp2790
g0
(g1
g2
(lp2791
Vwhat
p2792
atp2793
Rp2794
(dp2795
g13
VWP
p2796
sbatp2797
Rp2798
(dp2799
g13
VWHNP
p2800
sbag0
(g1
g2
(lp2801
g0
(g1
g2
(lp2802
g0
(g1
g2
(lp2803
VI
p2804
atp2805
Rp2806
(dp2807
g13
VPRP
p2808
sbatp2809
Rp2810
(dp2811
g13
VNP
p2812
sbag0
(g1
g2
(lp2813
g0
(g1
g2
(lp2814
V'm
p2815
atp2816
Rp2817
(dp2818
g13
VVBP
p2819
sbag0
(g1
g2
(lp2820
g0
(g1
g2
(lp2821
Vseeing
p2822
atp2823
Rp2824
(dp2825
g13
VVBG
p2826
sbag0
(g1
g2
(lp2827
V,
p2828
atp2829
Rp2830
(dp2831
g13
V,
p2832
sbag0
(g1
g2
(lp2833
g0
(g1
g2
(lp2834
Varound
p2835
atp2836
Rp2837
(dp2838
g13
VIN
p2839
sbag0
(g1
g2
(lp2840
Vthe
p2841
atp2842
Rp2843
(dp2844
g13
VDT
p2845
sbatp2846
Rp2847
(dp2848
g13
VADVP
p2849
sbatp2850
Rp2851
(dp2852
g13
VVP
p2853
sbatp2854
Rp2855
(dp2856
g13
VVP
p2857
sbatp2858
Rp2859
(dp2860
g13
VS
p2861
sbatp2862
Rp2863
(dp2864
g13
VSBAR
p2865
sbatp2866
Rp2867
(dp2868
g13
VPP
p2869
sbatp2870
Rp2871
(dp2872
g13
VVP
p2873
sbatp2874
Rp2875
(dp2876
g13
VS
p2877
sbatp2878
Rp2879
(dp2880
g13
VSBAR
p2881
sbatp2882
Rp2883
(dp2884
g13
VVP
p2885
sbatp2886
Rp2887
(dp2888
g13
VS
p2889
sbatp2890
Rp2891
(dp2892
g13
VSBAR
p2893
sbatp2894
Rp2895
(dp2896
g13
VVP
p2897
sbatp2898
Rp2899
(dp2900
g13
VS
p2901
sbatp2902
Rp2903
(dp2904
g13
VSBAR
p2905
sbatp2906
Rp2907
(dp2908
g13
VNP
p2909
sbatp2910
Rp2911
(dp2912
g13
VPP
p2913
sbatp2914
Rp2915
(dp2916
g13
VFRAG
p2917
sbatp2918
Rp2919
(dp2920
g13
S'id: 9'
p2921
sbatp2922
Rp2923
(dp2924
g13
S'sentences'
p2925
sb.