ccopy_reg
_reconstructor
p0
(cnltk.tree
Tree
p1
c__builtin__
list
p2
(lp3
g0
(g1
g2
(lp4
g0
(g1
g2
(lp5
g0
(g1
g2
(lp6
(lp7
S'word: ok, index: 1'
p8
aatp9
Rp10
(dp11
S'_label'
p12
Vnsubj
p13
sbag0
(g1
g2
(lp14
(lp15
S'word: you, index: 3'
p16
aatp17
Rp18
(dp19
g12
Vnsubj
p20
sbag0
(g1
g2
(lp21
(lp22
S'word: me, index: 5'
p23
aatp24
Rp25
(dp26
g12
Vdobj
p27
sbag0
(g1
g2
(lp28
g0
(g1
g2
(lp29
g0
(g1
g2
(lp30
(lp31
S'word: to, index: 6'
p32
aatp33
Rp34
(dp35
g12
Vaux
p36
sbag0
(g1
g2
(lp37
(lp38
S'word: you, index: 8'
p39
aatp40
Rp41
(dp42
g12
Vdobj
p43
sbag0
(g1
g2
(lp44
(lp45
S'word: it, index: 10'
p46
aatp47
Rp48
(dp49
g12
Vprep
p50
sbatp51
Rp52
(dp53
g12
S'word: tell, index: 7'
p54
sbatp55
Rp56
(dp57
g12
Vxcomp
p58
sbatp59
Rp60
(dp61
g12
S'word: want, index: 4'
p62
sbatp63
Rp64
(dp65
g12
S'id: 0'
p66
sbatp67
Rp68
(dp69
g12
S'sentences'
p70
sb.