ccopy_reg
_reconstructor
p0
(cnltk.tree
Tree
p1
c__builtin__
list
p2
(lp3
g0
(g1
g2
(lp4
g0
(g1
g2
(lp5
g0
(g1
g2
(lp6
VThis
p7
atp8
Rp9
(dp10
S'_label'
p11
S'start: 1'
p12
sbatp13
Rp14
(dp15
g11
S'sent: 2'
p16
sbag0
(g1
g2
(lp17
g0
(g1
g2
(lp18
Va s-u-r circus , circus
p19
atp20
Rp21
(dp22
g11
S'start: 3'
p23
sbatp24
Rp25
(dp26
g11
S'sent: 2'
p27
sbag0
(g1
g2
(lp28
g0
(g1
g2
(lp29
Va s-u-r circus
p30
atp31
Rp32
(dp33
g11
S'start: 3'
p34
sbatp35
Rp36
(dp37
g11
S'sent: 2'
p38
sbag0
(g1
g2
(lp39
g0
(g1
g2
(lp40
Vthat
p41
atp42
Rp43
(dp44
g11
S'start: 9'
p45
sbatp46
Rp47
(dp48
g11
S'sent: 5'
p49
sbatp50
Rp51
(dp52
g11
S'id: 2'
p53
sbag0
(g1
g2
(lp54
g0
(g1
g2
(lp55
g0
(g1
g2
(lp56
Va mom
p57
atp58
Rp59
(dp60
g11
S'start: 26'
p61
sbatp62
Rp63
(dp64
g11
S'sent: 4'
p65
sbag0
(g1
g2
(lp66
g0
(g1
g2
(lp67
Va mom
p68
atp69
Rp70
(dp71
g11
S'start: 33'
p72
sbatp73
Rp74
(dp75
g11
S'sent: 4'
p76
sbatp77
Rp78
(dp79
g11
S'id: 11'
p80
sbag0
(g1
g2
(lp81
g0
(g1
g2
(lp82
g0
(g1
g2
(lp83
Vthe house
p84
atp85
Rp86
(dp87
g11
S'start: 17'
p88
sbatp89
Rp90
(dp91
g11
S'sent: 5'
p92
sbag0
(g1
g2
(lp93
g0
(g1
g2
(lp94
Vhis house
p95
atp96
Rp97
(dp98
g11
S'start: 12'
p99
sbatp100
Rp101
(dp102
g11
S'sent: 10'
p103
sbatp104
Rp105
(dp106
g11
S'id: 17'
p107
sbag0
(g1
g2
(lp108
g0
(g1
g2
(lp109
g0
(g1
g2
(lp110
Vthere oben , they
p111
atp112
Rp113
(dp114
g11
S'start: 2'
p115
sbatp116
Rp117
(dp118
g11
S'sent: 6'
p119
sbag0
(g1
g2
(lp120
g0
(g1
g2
(lp121
Vhe
p122
atp123
Rp124
(dp125
g11
S'start: 4'
p126
sbatp127
Rp128
(dp129
g11
S'sent: 7'
p130
sbag0
(g1
g2
(lp131
g0
(g1
g2
(lp132
Va , cow , clown
p133
atp134
Rp135
(dp136
g11
S'start: 9'
p137
sbatp138
Rp139
(dp140
g11
S'sent: 7'
p141
sbatp142
Rp143
(dp144
g11
S'id: 18'
p145
sbag0
(g1
g2
(lp146
g0
(g1
g2
(lp147
g0
(g1
g2
(lp148
Vthere oben
p149
atp150
Rp151
(dp152
g11
S'start: 2'
p153
sbatp154
Rp155
(dp156
g11
S'sent: 6'
p157
sbag0
(g1
g2
(lp158
g0
(g1
g2
(lp159
Vthey
p160
atp161
Rp162
(dp163
g11
S'start: 5'
p164
sbatp165
Rp166
(dp167
g11
S'sent: 6'
p168
sbag0
(g1
g2
(lp169
g0
(g1
g2
(lp170
Vthat
p171
atp172
Rp173
(dp174
g11
S'start: 7'
p175
sbatp176
Rp177
(dp178
g11
S'sent: 7'
p179
sbatp180
Rp181
(dp182
g11
S'id: 19'
p183
sbag0
(g1
g2
(lp184
g0
(g1
g2
(lp185
g0
(g1
g2
(lp186
Vthis guy he just , that 's a , cow , clown
p187
atp188
Rp189
(dp190
g11
S'start: 2'
p191
sbatp192
Rp193
(dp194
g11
S'sent: 7'
p195
sbag0
(g1
g2
(lp196
g0
(g1
g2
(lp197
VHe
p198
atp199
Rp200
(dp201
g11
S'start: 1'
p202
sbatp203
Rp204
(dp205
g11
S'sent: 8'
p206
sbag0
(g1
g2
(lp207
g0
(g1
g2
(lp208
Vhis
p209
atp210
Rp211
(dp212
g11
S'start: 12'
p213
sbatp214
Rp215
(dp216
g11
S'sent: 10'
p217
sbag0
(g1
g2
(lp218
g0
(g1
g2
(lp219
Vhe
p220
atp221
Rp222
(dp223
g11
S'start: 2'
p224
sbatp225
Rp226
(dp227
g11
S'sent: 11'
p228
sbag0
(g1
g2
(lp229
g0
(g1
g2
(lp230
VHe
p231
atp232
Rp233
(dp234
g11
S'start: 1'
p235
sbatp236
Rp237
(dp238
g11
S'sent: 12'
p239
sbatp240
Rp241
(dp242
g11
S'id: 23'
p243
sbag0
(g1
g2
(lp244
g0
(g1
g2
(lp245
g0
(g1
g2
(lp246
Vthe stuff
p247
atp248
Rp249
(dp250
g11
S'start: 4'
p251
sbatp252
Rp253
(dp254
g11
S'sent: 8'
p255
sbag0
(g1
g2
(lp256
g0
(g1
g2
(lp257
Vit
p258
atp259
Rp260
(dp261
g11
S'start: 10'
p262
sbatp263
Rp264
(dp265
g11
S'sent: 9'
p266
sbatp267
Rp268
(dp269
g11
S'id: 28'
p270
sbag0
(g1
g2
(lp271
g0
(g1
g2
(lp272
g0
(g1
g2
(lp273
Vthe boys
p274
atp275
Rp276
(dp277
g11
S'start: 7'
p278
sbatp279
Rp280
(dp281
g11
S'sent: 8'
p282
sbag0
(g1
g2
(lp283
g0
(g1
g2
(lp284
Vthat
p285
atp286
Rp287
(dp288
g11
S'start: 2'
p289
sbatp290
Rp291
(dp292
g11
S'sent: 10'
p293
sbag0
(g1
g2
(lp294
g0
(g1
g2
(lp295
Va man and , and that 's in his house
p296
atp297
Rp298
(dp299
g11
S'start: 4'
p300
sbatp301
Rp302
(dp303
g11
S'sent: 10'
p304
sbatp305
Rp306
(dp307
g11
S'id: 29'
p308
sbag0
(g1
g2
(lp309
g0
(g1
g2
(lp310
g0
(g1
g2
(lp311
Va man
p312
atp313
Rp314
(dp315
g11
S'start: 4'
p316
sbatp317
Rp318
(dp319
g11
S'sent: 10'
p320
sbag0
(g1
g2
(lp321
g0
(g1
g2
(lp322
Va man
p323
atp324
Rp325
(dp326
g11
S'start: 3'
p327
sbatp328
Rp329
(dp330
g11
S'sent: 13'
p331
sbag0
(g1
g2
(lp332
g0
(g1
g2
(lp333
Vhere 's man
p334
atp335
Rp336
(dp337
g11
S'start: 4'
p338
sbatp339
Rp340
(dp341
g11
S'sent: 14'
p342
sbag0
(g1
g2
(lp343
g0
(g1
g2
(lp344
Va man
p345
atp346
Rp347
(dp348
g11
S'start: 4'
p349
sbatp350
Rp351
(dp352
g11
S'sent: 15'
p353
sbag0
(g1
g2
(lp354
g0
(g1
g2
(lp355
VI , and that
p356
atp357
Rp358
(dp359
g11
S'start: 2'
p360
sbatp361
Rp362
(dp363
g11
S'sent: 17'
p364
sbag0
(g1
g2
(lp365
g0
(g1
g2
(lp366
VI
p367
atp368
Rp369
(dp370
g11
S'start: 2'
p371
sbatp372
Rp373
(dp374
g11
S'sent: 17'
p375
sbag0
(g1
g2
(lp376
g0
(g1
g2
(lp377
Va man
p378
atp379
Rp380
(dp381
g11
S'start: 7'
p382
sbatp383
Rp384
(dp385
g11
S'sent: 17'
p386
sbag0
(g1
g2
(lp387
g0
(g1
g2
(lp388
VI
p389
atp390
Rp391
(dp392
g11
S'start: 5'
p393
sbatp394
Rp395
(dp396
g11
S'sent: 18'
p397
sbatp398
Rp399
(dp400
g11
S'id: 35'
p401
sbag0
(g1
g2
(lp402
g0
(g1
g2
(lp403
g0
(g1
g2
(lp404
Vthe lion
p405
atp406
Rp407
(dp408
g11
S'start: 5'
p409
sbatp410
Rp411
(dp412
g11
S'sent: 11'
p413
sbag0
(g1
g2
(lp414
g0
(g1
g2
(lp415
Vthat
p416
atp417
Rp418
(dp419
g11
S'start: 9'
p420
sbatp421
Rp422
(dp423
g11
S'sent: 11'
p424
sbatp425
Rp426
(dp427
g11
S'id: 39'
p428
sbag0
(g1
g2
(lp429
g0
(g1
g2
(lp430
g0
(g1
g2
(lp431
Va big lown
p432
atp433
Rp434
(dp435
g11
S'start: 11'
p436
sbatp437
Rp438
(dp439
g11
S'sent: 11'
p440
sbag0
(g1
g2
(lp441
g0
(g1
g2
(lp442
Vthe lown
p443
atp444
Rp445
(dp446
g11
S'start: 4'
p447
sbatp448
Rp449
(dp450
g11
S'sent: 12'
p451
sbatp452
Rp453
(dp454
g11
S'id: 41'
p455
sbag0
(g1
g2
(lp456
g0
(g1
g2
(lp457
g0
(g1
g2
(lp458
Vthe lown , lion and the pair , p-a-i , pair
p459
atp460
Rp461
(dp462
g11
S'start: 4'
p463
sbatp464
Rp465
(dp466
g11
S'sent: 12'
p467
sbag0
(g1
g2
(lp468
g0
(g1
g2
(lp469
VThat
p470
atp471
Rp472
(dp473
g11
S'start: 1'
p474
sbatp475
Rp476
(dp477
g11
S'sent: 13'
p478
sbatp479
Rp480
(dp481
g11
S'id: 43'
p482
sbag0
(g1
g2
(lp483
g0
(g1
g2
(lp484
g0
(g1
g2
(lp485
Vthese
p486
atp487
Rp488
(dp489
g11
S'start: 7'
p490
sbatp491
Rp492
(dp493
g11
S'sent: 13'
p494
sbag0
(g1
g2
(lp495
g0
(g1
g2
(lp496
Vthe bars
p497
atp498
Rp499
(dp500
g11
S'start: 9'
p501
sbatp502
Rp503
(dp504
g11
S'sent: 13'
p505
sbatp506
Rp507
(dp508
g11
S'id: 48'
p509
sbag0
(g1
g2
(lp510
g0
(g1
g2
(lp511
g0
(g1
g2
(lp512
Vand here 's man , woman
p513
atp514
Rp515
(dp516
g11
S'start: 3'
p517
sbatp518
Rp519
(dp520
g11
S'sent: 14'
p521
sbag0
(g1
g2
(lp522
g0
(g1
g2
(lp523
Vthat
p524
atp525
Rp526
(dp527
g11
S'start: 2'
p528
sbatp529
Rp530
(dp531
g11
S'sent: 15'
p532
sbatp533
Rp534
(dp535
g11
S'id: 50'
p536
sbag0
(g1
g2
(lp537
g0
(g1
g2
(lp538
g0
(g1
g2
(lp539
Vhere 's
p540
atp541
Rp542
(dp543
g11
S'start: 4'
p544
sbatp545
Rp546
(dp547
g11
S'sent: 14'
p548
sbag0
(g1
g2
(lp549
g0
(g1
g2
(lp550
Vthat
p551
atp552
Rp553
(dp554
g11
S'start: 2'
p555
sbatp556
Rp557
(dp558
g11
S'sent: 16'
p559
sbag0
(g1
g2
(lp560
g0
(g1
g2
(lp561
Vthe small
p562
atp563
Rp564
(dp565
g11
S'start: 4'
p566
sbatp567
Rp568
(dp569
g11
S'sent: 16'
p570
sbag0
(g1
g2
(lp571
g0
(g1
g2
(lp572
Vthat
p573
atp574
Rp575
(dp576
g11
S'start: 5'
p577
sbatp578
Rp579
(dp580
g11
S'sent: 17'
p581
sbag0
(g1
g2
(lp582
g0
(g1
g2
(lp583
Vthat
p584
atp585
Rp586
(dp587
g11
S'start: 2'
p588
sbatp589
Rp590
(dp591
g11
S'sent: 18'
p592
sbag0
(g1
g2
(lp593
g0
(g1
g2
(lp594
Vthat
p595
atp596
Rp597
(dp598
g11
S'start: 22'
p599
sbatp600
Rp601
(dp602
g11
S'sent: 18'
p603
sbag0
(g1
g2
(lp604
g0
(g1
g2
(lp605
Vthat
p606
atp607
Rp608
(dp609
g11
S'start: 7'
p610
sbatp611
Rp612
(dp613
g11
S'sent: 19'
p614
sbag0
(g1
g2
(lp615
g0
(g1
g2
(lp616
Vthat
p617
atp618
Rp619
(dp620
g11
S'start: 10'
p621
sbatp622
Rp623
(dp624
g11
S'sent: 19'
p625
sbatp626
Rp627
(dp628
g11
S'id: 52'
p629
sbag0
(g1
g2
(lp630
g0
(g1
g2
(lp631
g0
(g1
g2
(lp632
Vhim
p633
atp634
Rp635
(dp636
g11
S'start: 8'
p637
sbatp638
Rp639
(dp640
g11
S'sent: 18'
p641
sbag0
(g1
g2
(lp642
g0
(g1
g2
(lp643
Vhe
p644
atp645
Rp646
(dp647
g11
S'start: 12'
p648
sbatp649
Rp650
(dp651
g11
S'sent: 18'
p652
sbag0
(g1
g2
(lp653
g0
(g1
g2
(lp654
Vhe
p655
atp656
Rp657
(dp658
g11
S'start: 4'
p659
sbatp660
Rp661
(dp662
g11
S'sent: 19'
p663
sbatp664
Rp665
(dp666
g11
S'id: 65'
p667
sbatp668
Rp669
(dp670
g11
S'coreferences'
p671
sb.