ccopy_reg
_reconstructor
p0
(cnltk.tree
Tree
p1
c__builtin__
list
p2
(lp3
g0
(g1
g2
(lp4
g0
(g1
g2
(lp5
g0
(g1
g2
(lp6
g0
(g1
g2
(lp7
g0
(g1
g2
(lp8
Vok
p9
atp10
Rp11
(dp12
S'_label'
p13
VNN
p14
sbatp15
Rp16
(dp17
g13
VNP
p18
sbag0
(g1
g2
(lp19
g0
(g1
g2
(lp20
g0
(g1
g2
(lp21
Vthat
p22
atp23
Rp24
(dp25
g13
VWDT
p26
sbatp27
Rp28
(dp29
g13
VWHNP
p30
sbag0
(g1
g2
(lp31
g0
(g1
g2
(lp32
g0
(g1
g2
(lp33
Vis
p34
atp35
Rp36
(dp37
g13
VVBZ
p38
sbag0
(g1
g2
(lp39
g0
(g1
g2
(lp40
Va
p41
atp42
Rp43
(dp44
g13
VDT
p45
sbag0
(g1
g2
(lp46
Vbig
p47
atp48
Rp49
(dp50
g13
VJJ
p51
sbag0
(g1
g2
(lp52
Vone
p53
atp54
Rp55
(dp56
g13
VNN
p57
sbatp58
Rp59
(dp60
g13
VNP
p61
sbatp62
Rp63
(dp64
g13
VVP
p65
sbatp66
Rp67
(dp68
g13
VS
p69
sbatp70
Rp71
(dp72
g13
VSBAR
p73
sbatp74
Rp75
(dp76
g13
VNP
p77
sbag0
(g1
g2
(lp78
V.
p79
atp80
Rp81
(dp82
g13
V.
p83
sbatp84
Rp85
(dp86
g13
VFRAG
p87
sbatp88
Rp89
(dp90
g13
S'id: 0'
p91
sbag0
(g1
g2
(lp92
g0
(g1
g2
(lp93
g0
(g1
g2
(lp94
g0
(g1
g2
(lp95
VAlright
p96
atp97
Rp98
(dp99
g13
VNNP
p100
sbatp101
Rp102
(dp103
g13
VNP
p104
sbag0
(g1
g2
(lp105
V.
p106
atp107
Rp108
(dp109
g13
V.
p110
sbatp111
Rp112
(dp113
g13
VFRAG
p114
sbatp115
Rp116
(dp117
g13
S'id: 1'
p118
sbag0
(g1
g2
(lp119
g0
(g1
g2
(lp120
g0
(g1
g2
(lp121
g0
(g1
g2
(lp122
g0
(g1
g2
(lp123
g0
(g1
g2
(lp124
VThe
p125
atp126
Rp127
(dp128
g13
VDT
p129
sbag0
(g1
g2
(lp130
Vman
p131
atp132
Rp133
(dp134
g13
VNN
p135
sbatp136
Rp137
(dp138
g13
VNP
p139
sbag0
(g1
g2
(lp140
Vand
p141
atp142
Rp143
(dp144
g13
VCC
p145
sbag0
(g1
g2
(lp146
g0
(g1
g2
(lp147
Va
p148
atp149
Rp150
(dp151
g13
VDT
p152
sbag0
(g1
g2
(lp153
Vwoman
p154
atp155
Rp156
(dp157
g13
VNN
p158
sbatp159
Rp160
(dp161
g13
VNP
p162
sbatp163
Rp164
(dp165
g13
VNP
p166
sbag0
(g1
g2
(lp167
g0
(g1
g2
(lp168
Vare
p169
atp170
Rp171
(dp172
g13
VVBP
p173
sbag0
(g1
g2
(lp174
g0
(g1
g2
(lp175
g0
(g1
g2
(lp176
Voutside
p177
atp178
Rp179
(dp180
g13
VJJ
p181
sbatp182
Rp183
(dp184
g13
VADVP
p185
sbag0
(g1
g2
(lp186
Veating
p187
atp188
Rp189
(dp190
g13
VVBG
p191
sbag0
(g1
g2
(lp192
g0
(g1
g2
(lp193
Vfood
p194
atp195
Rp196
(dp197
g13
VNN
p198
sbatp199
Rp200
(dp201
g13
VNP
p202
sbag0
(g1
g2
(lp203
V,
p204
atp205
Rp206
(dp207
g13
V,
p208
sbag0
(g1
g2
(lp209
g0
(g1
g2
(lp210
Voutside
p211
atp212
Rp213
(dp214
g13
VJJ
p215
sbatp216
Rp217
(dp218
g13
VADVP
p219
sbatp220
Rp221
(dp222
g13
VVP
p223
sbatp224
Rp225
(dp226
g13
VVP
p227
sbatp228
Rp229
(dp230
g13
VS
p231
sbag0
(g1
g2
(lp232
Vand
p233
atp234
Rp235
(dp236
g13
VCC
p237
sbag0
(g1
g2
(lp238
g0
(g1
g2
(lp239
g0
(g1
g2
(lp240
Vthey
p241
atp242
Rp243
(dp244
g13
VPRP
p245
sbatp246
Rp247
(dp248
g13
VNP
p249
sbag0
(g1
g2
(lp250
g0
(g1
g2
(lp251
Vgot
p252
atp253
Rp254
(dp255
g13
VVBD
p256
sbag0
(g1
g2
(lp257
g0
(g1
g2
(lp258
Vthe
p259
atp260
Rp261
(dp262
g13
VDT
p263
sbag0
(g1
g2
(lp264
Vlittle
p265
atp266
Rp267
(dp268
g13
VJJ
p269
sbatp270
Rp271
(dp272
g13
VNP
p273
sbag0
(g1
g2
(lp274
g0
(g1
g2
(lp275
g0
(g1
g2
(lp276
Vlistening
p277
atp278
Rp279
(dp280
g13
VVBG
p281
sbag0
(g1
g2
(lp282
g0
(g1
g2
(lp283
Vto
p284
atp285
Rp286
(dp287
g13
VTO
p288
sbag0
(g1
g2
(lp289
g0
(g1
g2
(lp290
Vsinging
p291
atp292
Rp293
(dp294
g13
VNN
p295
sbatp296
Rp297
(dp298
g13
VNP
p299
sbatp300
Rp301
(dp302
g13
VPP
p303
sbatp304
Rp305
(dp306
g13
VVP
p307
sbatp308
Rp309
(dp310
g13
VS
p311
sbatp312
Rp313
(dp314
g13
VVP
p315
sbatp316
Rp317
(dp318
g13
VS
p319
sbag0
(g1
g2
(lp320
V.
p321
atp322
Rp323
(dp324
g13
V.
p325
sbatp326
Rp327
(dp328
g13
VS
p329
sbatp330
Rp331
(dp332
g13
S'id: 2'
p333
sbag0
(g1
g2
(lp334
g0
(g1
g2
(lp335
g0
(g1
g2
(lp336
g0
(g1
g2
(lp337
VAnd
p338
atp339
Rp340
(dp341
g13
VCC
p342
sbag0
(g1
g2
(lp343
g0
(g1
g2
(lp344
g0
(g1
g2
(lp345
Vit
p346
atp347
Rp348
(dp349
g13
VPRP
p350
sbatp351
Rp352
(dp353
g13
VNP
p354
sbag0
(g1
g2
(lp355
g0
(g1
g2
(lp356
Vin
p357
atp358
Rp359
(dp360
g13
VIN
p361
sbag0
(g1
g2
(lp362
g0
(g1
g2
(lp363
g0
(g1
g2
(lp364
Vfront
p365
atp366
Rp367
(dp368
g13
VNN
p369
sbatp370
Rp371
(dp372
g13
VNP
p373
sbag0
(g1
g2
(lp374
g0
(g1
g2
(lp375
Vof
p376
atp377
Rp378
(dp379
g13
VIN
p380
sbag0
(g1
g2
(lp381
g0
(g1
g2
(lp382
g0
(g1
g2
(lp383
Vtheir
p384
atp385
Rp386
(dp387
g13
VPRP$
p388
sbag0
(g1
g2
(lp389
Vhouse
p390
atp391
Rp392
(dp393
g13
VNN
p394
sbatp395
Rp396
(dp397
g13
VNP
p398
sbag0
(g1
g2
(lp399
V,
p400
atp401
Rp402
(dp403
g13
V,
p404
sbag0
(g1
g2
(lp405
g0
(g1
g2
(lp406
Vi
p407
atp408
Rp409
(dp410
g13
VFW
p411
sbag0
(g1
g2
(lp412
Vdont
p413
atp414
Rp415
(dp416
g13
VFW
p417
sbatp418
Rp419
(dp420
g13
VNP
p421
sbatp422
Rp423
(dp424
g13
VNP
p425
sbatp426
Rp427
(dp428
g13
VPP
p429
sbatp430
Rp431
(dp432
g13
VNP
p433
sbatp434
Rp435
(dp436
g13
VPP
p437
sbatp438
Rp439
(dp440
g13
VNP
p441
sbag0
(g1
g2
(lp442
g0
(g1
g2
(lp443
Vknow
p444
atp445
Rp446
(dp447
g13
VVBP
p448
sbag0
(g1
g2
(lp449
g0
(g1
g2
(lp450
g0
(g1
g2
(lp451
Vwhy
p452
atp453
Rp454
(dp455
g13
VWRB
p456
sbatp457
Rp458
(dp459
g13
VWHADVP
p460
sbag0
(g1
g2
(lp461
g0
(g1
g2
(lp462
g0
(g1
g2
(lp463
Vthey
p464
atp465
Rp466
(dp467
g13
VPRP
p468
sbatp469
Rp470
(dp471
g13
VNP
p472
sbag0
(g1
g2
(lp473
g0
(g1
g2
(lp474
Vare
p475
atp476
Rp477
(dp478
g13
VVBP
p479
sbag0
(g1
g2
(lp480
g0
(g1
g2
(lp481
Vdoing
p482
atp483
Rp484
(dp485
g13
VVBG
p486
sbag0
(g1
g2
(lp487
g0
(g1
g2
(lp488
Voutside
p489
atp490
Rp491
(dp492
g13
VIN
p493
sbag0
(g1
g2
(lp494
g0
(g1
g2
(lp495
Vthe
p496
atp497
Rp498
(dp499
g13
VDT
p500
sbag0
(g1
g2
(lp501
Vhouse
p502
atp503
Rp504
(dp505
g13
VNN
p506
sbatp507
Rp508
(dp509
g13
VNP
p510
sbatp511
Rp512
(dp513
g13
VPP
p514
sbatp515
Rp516
(dp517
g13
VVP
p518
sbatp519
Rp520
(dp521
g13
VVP
p522
sbatp523
Rp524
(dp525
g13
VS
p526
sbatp527
Rp528
(dp529
g13
VSBAR
p530
sbatp531
Rp532
(dp533
g13
VVP
p534
sbatp535
Rp536
(dp537
g13
VS
p538
sbag0
(g1
g2
(lp539
V,
p540
atp541
Rp542
(dp543
g13
V,
p544
sbag0
(g1
g2
(lp545
Vbut
p546
atp547
Rp548
(dp549
g13
VCC
p550
sbag0
(g1
g2
(lp551
g0
(g1
g2
(lp552
g0
(g1
g2
(lp553
Vthey
p554
atp555
Rp556
(dp557
g13
VPRP
p558
sbatp559
Rp560
(dp561
g13
VNP
p562
sbag0
(g1
g2
(lp563
g0
(g1
g2
(lp564
V're
p565
atp566
Rp567
(dp568
g13
VVBP
p569
sbag0
(g1
g2
(lp570
g0
(g1
g2
(lp571
Vdoing
p572
atp573
Rp574
(dp575
g13
VVBG
p576
sbag0
(g1
g2
(lp577
g0
(g1
g2
(lp578
Vit
p579
atp580
Rp581
(dp582
g13
VPRP
p583
sbatp584
Rp585
(dp586
g13
VNP
p587
sbag0
(g1
g2
(lp588
g0
(g1
g2
(lp589
Vout
p590
atp591
Rp592
(dp593
g13
VRP
p594
sbag0
(g1
g2
(lp595
g0
(g1
g2
(lp596
Vhouse
p597
atp598
Rp599
(dp600
g13
VNN
p601
sbatp602
Rp603
(dp604
g13
VNP
p605
sbatp606
Rp607
(dp608
g13
VPP
p609
sbatp610
Rp611
(dp612
g13
VVP
p613
sbatp614
Rp615
(dp616
g13
VVP
p617
sbatp618
Rp619
(dp620
g13
VS
p621
sbag0
(g1
g2
(lp622
V.
p623
atp624
Rp625
(dp626
g13
V.
p627
sbatp628
Rp629
(dp630
g13
VS
p631
sbatp632
Rp633
(dp634
g13
S'id: 3'
p635
sbag0
(g1
g2
(lp636
g0
(g1
g2
(lp637
g0
(g1
g2
(lp638
g0
(g1
g2
(lp639
VSee
p640
atp641
Rp642
(dp643
g13
VVB
p644
sbag0
(g1
g2
(lp645
g0
(g1
g2
(lp646
Vthe
p647
atp648
Rp649
(dp650
g13
VDT
p651
sbag0
(g1
g2
(lp652
Vcar
p653
atp654
Rp655
(dp656
g13
VNN
p657
sbatp658
Rp659
(dp660
g13
VNP
p661
sbatp662
Rp663
(dp664
g13
VVP
p665
sbag0
(g1
g2
(lp666
V.
p667
atp668
Rp669
(dp670
g13
V.
p671
sbatp672
Rp673
(dp674
g13
VS
p675
sbatp676
Rp677
(dp678
g13
S'id: 4'
p679
sbag0
(g1
g2
(lp680
g0
(g1
g2
(lp681
g0
(g1
g2
(lp682
g0
(g1
g2
(lp683
VAnd
p684
atp685
Rp686
(dp687
g13
VCC
p688
sbag0
(g1
g2
(lp689
g0
(g1
g2
(lp690
VI
p691
atp692
Rp693
(dp694
g13
VPRP
p695
sbatp696
Rp697
(dp698
g13
VNP
p699
sbag0
(g1
g2
(lp700
g0
(g1
g2
(lp701
Valso
p702
atp703
Rp704
(dp705
g13
VRB
p706
sbatp707
Rp708
(dp709
g13
VADVP
p710
sbag0
(g1
g2
(lp711
g0
(g1
g2
(lp712
Vsee
p713
atp714
Rp715
(dp716
g13
VVBP
p717
sbag0
(g1
g2
(lp718
V,
p719
atp720
Rp721
(dp722
g13
V,
p723
sbag0
(g1
g2
(lp724
g0
(g1
g2
(lp725
Valso
p726
atp727
Rp728
(dp729
g13
VRB
p730
sbatp731
Rp732
(dp733
g13
VADVP
p734
sbag0
(g1
g2
(lp735
g0
(g1
g2
(lp736
g0
(g1
g2
(lp737
Vwater
p738
atp739
Rp740
(dp741
g13
VNN
p742
sbatp743
Rp744
(dp745
g13
VNP
p746
sbag0
(g1
g2
(lp747
Von
p748
atp749
Rp750
(dp751
g13
VIN
p752
sbag0
(g1
g2
(lp753
g0
(g1
g2
(lp754
Vthe
p755
atp756
Rp757
(dp758
g13
VDT
p759
sbag0
(g1
g2
(lp760
Vright
p761
atp762
Rp763
(dp764
g13
VNN
p765
sbatp766
Rp767
(dp768
g13
VNP
p769
sbatp770
Rp771
(dp772
g13
VPP
p773
sbatp774
Rp775
(dp776
g13
VVP
p777
sbatp778
Rp779
(dp780
g13
VS
p781
sbag0
(g1
g2
(lp782
V,
p783
atp784
Rp785
(dp786
g13
V,
p787
sbag0
(g1
g2
(lp788
Vand
p789
atp790
Rp791
(dp792
g13
VCC
p793
sbag0
(g1
g2
(lp794
g0
(g1
g2
(lp795
g0
(g1
g2
(lp796
Vthe
p797
atp798
Rp799
(dp800
g13
VDT
p801
sbag0
(g1
g2
(lp802
Vman
p803
atp804
Rp805
(dp806
g13
VNN
p807
sbatp808
Rp809
(dp810
g13
VNP
p811
sbag0
(g1
g2
(lp812
g0
(g1
g2
(lp813
Vis
p814
atp815
Rp816
(dp817
g13
VVBZ
p818
sbag0
(g1
g2
(lp819
g0
(g1
g2
(lp820
Vout
p821
atp822
Rp823
(dp824
g13
VRP
p825
sbag0
(g1
g2
(lp826
g0
(g1
g2
(lp827
Vin
p828
atp829
Rp830
(dp831
g13
VIN
p832
sbag0
(g1
g2
(lp833
g0
(g1
g2
(lp834
Vthe
p835
atp836
Rp837
(dp838
g13
VDT
p839
sbag0
(g1
g2
(lp840
Vwater
p841
atp842
Rp843
(dp844
g13
VNN
p845
sbatp846
Rp847
(dp848
g13
VNP
p849
sbatp850
Rp851
(dp852
g13
VPP
p853
sbatp854
Rp855
(dp856
g13
VADVP
p857
sbag0
(g1
g2
(lp858
g0
(g1
g2
(lp859
Vtrying
p860
atp861
Rp862
(dp863
g13
VVBG
p864
sbag0
(g1
g2
(lp865
g0
(g1
g2
(lp866
g0
(g1
g2
(lp867
Vto
p868
atp869
Rp870
(dp871
g13
VTO
p872
sbag0
(g1
g2
(lp873
g0
(g1
g2
(lp874
Vget
p875
atp876
Rp877
(dp878
g13
VVB
p879
sbag0
(g1
g2
(lp880
g0
(g1
g2
(lp881
Vfix
p882
atp883
Rp884
(dp885
g13
VNN
p886
sbatp887
Rp888
(dp889
g13
VNP
p890
sbatp891
Rp892
(dp893
g13
VVP
p894
sbatp895
Rp896
(dp897
g13
VVP
p898
sbatp899
Rp900
(dp901
g13
VS
p902
sbatp903
Rp904
(dp905
g13
VVP
p906
sbatp907
Rp908
(dp909
g13
VVP
p910
sbatp911
Rp912
(dp913
g13
VS
p914
sbag0
(g1
g2
(lp915
V.
p916
atp917
Rp918
(dp919
g13
V.
p920
sbatp921
Rp922
(dp923
g13
VS
p924
sbatp925
Rp926
(dp927
g13
S'id: 5'
p928
sbag0
(g1
g2
(lp929
g0
(g1
g2
(lp930
g0
(g1
g2
(lp931
g0
(g1
g2
(lp932
VAnyway
p933
atp934
Rp935
(dp936
g13
VRB
p937
sbatp938
Rp939
(dp940
g13
VADVP
p941
sbag0
(g1
g2
(lp942
V,
p943
atp944
Rp945
(dp946
g13
V,
p947
sbag0
(g1
g2
(lp948
g0
(g1
g2
(lp949
Vhe
p950
atp951
Rp952
(dp953
g13
VPRP
p954
sbatp955
Rp956
(dp957
g13
VNP
p958
sbag0
(g1
g2
(lp959
g0
(g1
g2
(lp960
V's
p961
atp962
Rp963
(dp964
g13
VVBZ
p965
sbag0
(g1
g2
(lp966
g0
(g1
g2
(lp967
Vin
p968
atp969
Rp970
(dp971
g13
VIN
p972
sbag0
(g1
g2
(lp973
g0
(g1
g2
(lp974
g0
(g1
g2
(lp975
Vthe
p976
atp977
Rp978
(dp979
g13
VDT
p980
sbag0
(g1
g2
(lp981
Vwater
p982
atp983
Rp984
(dp985
g13
VNN
p986
sbatp987
Rp988
(dp989
g13
VNP
p990
sbag0
(g1
g2
(lp991
g0
(g1
g2
(lp992
Vtrying
p993
atp994
Rp995
(dp996
g13
VVBG
p997
sbag0
(g1
g2
(lp998
g0
(g1
g2
(lp999
g0
(g1
g2
(lp1000
Vto
p1001
atp1002
Rp1003
(dp1004
g13
VTO
p1005
sbag0
(g1
g2
(lp1006
g0
(g1
g2
(lp1007
Vget
p1008
atp1009
Rp1010
(dp1011
g13
VVB
p1012
sbag0
(g1
g2
(lp1013
g0
(g1
g2
(lp1014
g0
(g1
g2
(lp1015
Vthe
p1016
atp1017
Rp1018
(dp1019
g13
VDT
p1020
sbatp1021
Rp1022
(dp1023
g13
VNP
p1024
sbag0
(g1
g2
(lp1025
g0
(g1
g2
(lp1026
Vgrow
p1027
atp1028
Rp1029
(dp1030
g13
VVB
p1031
sbag0
(g1
g2
(lp1032
g0
(g1
g2
(lp1033
Vup
p1034
atp1035
Rp1036
(dp1037
g13
VRP
p1038
sbatp1039
Rp1040
(dp1041
g13
VPRT
p1042
sbatp1043
Rp1044
(dp1045
g13
VVP
p1046
sbatp1047
Rp1048
(dp1049
g13
VS
p1050
sbatp1051
Rp1052
(dp1053
g13
VVP
p1054
sbatp1055
Rp1056
(dp1057
g13
VVP
p1058
sbatp1059
Rp1060
(dp1061
g13
VS
p1062
sbatp1063
Rp1064
(dp1065
g13
VVP
p1066
sbatp1067
Rp1068
(dp1069
g13
VNP
p1070
sbatp1071
Rp1072
(dp1073
g13
VPP
p1074
sbatp1075
Rp1076
(dp1077
g13
VVP
p1078
sbag0
(g1
g2
(lp1079
V.
p1080
atp1081
Rp1082
(dp1083
g13
V.
p1084
sbatp1085
Rp1086
(dp1087
g13
VS
p1088
sbatp1089
Rp1090
(dp1091
g13
S'id: 6'
p1092
sbag0
(g1
g2
(lp1093
g0
(g1
g2
(lp1094
g0
(g1
g2
(lp1095
g0
(g1
g2
(lp1096
VHe
p1097
atp1098
Rp1099
(dp1100
g13
VPRP
p1101
sbatp1102
Rp1103
(dp1104
g13
VNP
p1105
sbag0
(g1
g2
(lp1106
g0
(g1
g2
(lp1107
V's
p1108
atp1109
Rp1110
(dp1111
g13
VVBZ
p1112
sbag0
(g1
g2
(lp1113
g0
(g1
g2
(lp1114
Vin
p1115
atp1116
Rp1117
(dp1118
g13
VIN
p1119
sbag0
(g1
g2
(lp1120
g0
(g1
g2
(lp1121
g0
(g1
g2
(lp1122
Vthe
p1123
atp1124
Rp1125
(dp1126
g13
VDT
p1127
sbag0
(g1
g2
(lp1128
Vwater
p1129
atp1130
Rp1131
(dp1132
g13
VNN
p1133
sbatp1134
Rp1135
(dp1136
g13
VNP
p1137
sbag0
(g1
g2
(lp1138
V,
p1139
atp1140
Rp1141
(dp1142
g13
V,
p1143
sbag0
(g1
g2
(lp1144
g0
(g1
g2
(lp1145
g0
(g1
g2
(lp1146
Vlittle
p1147
atp1148
Rp1149
(dp1150
g13
VJJ
p1151
sbag0
(g1
g2
(lp1152
Vthings
p1153
atp1154
Rp1155
(dp1156
g13
VNNS
p1157
sbatp1158
Rp1159
(dp1160
g13
VNP
p1161
sbag0
(g1
g2
(lp1162
g0
(g1
g2
(lp1163
Vcoming
p1164
atp1165
Rp1166
(dp1167
g13
VVBG
p1168
sbag0
(g1
g2
(lp1169
g0
(g1
g2
(lp1170
Vup
p1171
atp1172
Rp1173
(dp1174
g13
VRB
p1175
sbatp1176
Rp1177
(dp1178
g13
VADVP
p1179
sbatp1180
Rp1181
(dp1182
g13
VVP
p1183
sbatp1184
Rp1185
(dp1186
g13
VNP
p1187
sbatp1188
Rp1189
(dp1190
g13
VNP
p1191
sbatp1192
Rp1193
(dp1194
g13
VPP
p1195
sbatp1196
Rp1197
(dp1198
g13
VVP
p1199
sbag0
(g1
g2
(lp1200
V.
p1201
atp1202
Rp1203
(dp1204
g13
V.
p1205
sbatp1206
Rp1207
(dp1208
g13
VS
p1209
sbatp1210
Rp1211
(dp1212
g13
S'id: 7'
p1213
sbag0
(g1
g2
(lp1214
g0
(g1
g2
(lp1215
g0
(g1
g2
(lp1216
VAnd
p1217
atp1218
Rp1219
(dp1220
g13
VCC
p1221
sbag0
(g1
g2
(lp1222
g0
(g1
g2
(lp1223
g0
(g1
g2
(lp1224
Vthe
p1225
atp1226
Rp1227
(dp1228
g13
VDT
p1229
sbatp1230
Rp1231
(dp1232
g13
VX
p1233
sbag0
(g1
g2
(lp1234
V,
p1235
atp1236
Rp1237
(dp1238
g13
V,
p1239
sbag0
(g1
g2
(lp1240
g0
(g1
g2
(lp1241
g0
(g1
g2
(lp1242
g0
(g1
g2
(lp1243
Vthe
p1244
atp1245
Rp1246
(dp1247
g13
VDT
p1248
sbag0
(g1
g2
(lp1249
Vboy
p1250
atp1251
Rp1252
(dp1253
g13
VNN
p1254
sbatp1255
Rp1256
(dp1257
g13
VNP
p1258
sbag0
(g1
g2
(lp1259
g0
(g1
g2
(lp1260
Vis
p1261
atp1262
Rp1263
(dp1264
g13
VVBZ
p1265
sbag0
(g1
g2
(lp1266
g0
(g1
g2
(lp1267
Vrunning
p1268
atp1269
Rp1270
(dp1271
g13
VVBG
p1272
sbag0
(g1
g2
(lp1273
g0
(g1
g2
(lp1274
Varound
p1275
atp1276
Rp1277
(dp1278
g13
VRP
p1279
sbatp1280
Rp1281
(dp1282
g13
VPRT
p1283
sbag0
(g1
g2
(lp1284
g0
(g1
g2
(lp1285
Vwith
p1286
atp1287
Rp1288
(dp1289
g13
VIN
p1290
sbag0
(g1
g2
(lp1291
g0
(g1
g2
(lp1292
Vhis
p1293
atp1294
Rp1295
(dp1296
g13
VPRP$
p1297
sbag0
(g1
g2
(lp1298
Vdog
p1299
atp1300
Rp1301
(dp1302
g13
VNN
p1303
sbatp1304
Rp1305
(dp1306
g13
VNP
p1307
sbatp1308
Rp1309
(dp1310
g13
VPP
p1311
sbatp1312
Rp1313
(dp1314
g13
VVP
p1315
sbatp1316
Rp1317
(dp1318
g13
VVP
p1319
sbatp1320
Rp1321
(dp1322
g13
VS
p1323
sbatp1324
Rp1325
(dp1326
g13
VPRN
p1327
sbag0
(g1
g2
(lp1328
g0
(g1
g2
(lp1329
Vis
p1330
atp1331
Rp1332
(dp1333
g13
VVBZ
p1334
sbag0
(g1
g2
(lp1335
g0
(g1
g2
(lp1336
Vchasing
p1337
atp1338
Rp1339
(dp1340
g13
VVBG
p1341
sbag0
(g1
g2
(lp1342
g0
(g1
g2
(lp1343
Vhim
p1344
atp1345
Rp1346
(dp1347
g13
VPRP
p1348
sbatp1349
Rp1350
(dp1351
g13
VNP
p1352
sbatp1353
Rp1354
(dp1355
g13
VVP
p1356
sbatp1357
Rp1358
(dp1359
g13
VVP
p1360
sbatp1361
Rp1362
(dp1363
g13
VS
p1364
sbag0
(g1
g2
(lp1365
V,
p1366
atp1367
Rp1368
(dp1369
g13
V,
p1370
sbag0
(g1
g2
(lp1371
Vand
p1372
atp1373
Rp1374
(dp1375
g13
VCC
p1376
sbag0
(g1
g2
(lp1377
g0
(g1
g2
(lp1378
g0
(g1
g2
(lp1379
Vhe
p1380
atp1381
Rp1382
(dp1383
g13
VPRP
p1384
sbatp1385
Rp1386
(dp1387
g13
VNP
p1388
sbag0
(g1
g2
(lp1389
g0
(g1
g2
(lp1390
V's
p1391
atp1392
Rp1393
(dp1394
g13
VVBZ
p1395
sbag0
(g1
g2
(lp1396
g0
(g1
g2
(lp1397
Vgot
p1398
atp1399
Rp1400
(dp1401
g13
VVBD
p1402
sbag0
(g1
g2
(lp1403
g0
(g1
g2
(lp1404
g0
(g1
g2
(lp1405
Vthe
p1406
atp1407
Rp1408
(dp1409
g13
VDT
p1410
sbag0
(g1
g2
(lp1411
Vthing
p1412
atp1413
Rp1414
(dp1415
g13
VNN
p1416
sbatp1417
Rp1418
(dp1419
g13
VNP
p1420
sbag0
(g1
g2
(lp1421
Vup
p1422
atp1423
Rp1424
(dp1425
g13
VRB
p1426
sbatp1427
Rp1428
(dp1429
g13
VADVP
p1430
sbag0
(g1
g2
(lp1431
V,
p1432
atp1433
Rp1434
(dp1435
g13
V,
p1436
sbag0
(g1
g2
(lp1437
g0
(g1
g2
(lp1438
Vup
p1439
atp1440
Rp1441
(dp1442
g13
VRB
p1443
sbatp1444
Rp1445
(dp1446
g13
VADVP
p1447
sbag0
(g1
g2
(lp1448
V,
p1449
atp1450
Rp1451
(dp1452
g13
V,
p1453
sbag0
(g1
g2
(lp1454
g0
(g1
g2
(lp1455
Vhigh
p1456
atp1457
Rp1458
(dp1459
g13
VJJ
p1460
sbag0
(g1
g2
(lp1461
Vup
p1462
atp1463
Rp1464
(dp1465
g13
VRB
p1466
sbatp1467
Rp1468
(dp1469
g13
VADVP
p1470
sbag0
(g1
g2
(lp1471
V,
p1472
atp1473
Rp1474
(dp1475
g13
V,
p1476
sbag0
(g1
g2
(lp1477
g0
(g1
g2
(lp1478
g0
(g1
g2
(lp1479
Vtrying
p1480
atp1481
Rp1482
(dp1483
g13
VVBG
p1484
sbag0
(g1
g2
(lp1485
g0
(g1
g2
(lp1486
g0
(g1
g2
(lp1487
Vto
p1488
atp1489
Rp1490
(dp1491
g13
VTO
p1492
sbag0
(g1
g2
(lp1493
g0
(g1
g2
(lp1494
Vgo
p1495
atp1496
Rp1497
(dp1498
g13
VVB
p1499
sbag0
(g1
g2
(lp1500
g0
(g1
g2
(lp1501
g0
(g1
g2
(lp1502
Vup
p1503
atp1504
Rp1505
(dp1506
g13
VRB
p1507
sbag0
(g1
g2
(lp1508
Vhigh
p1509
atp1510
Rp1511
(dp1512
g13
VJJ
p1513
sbatp1514
Rp1515
(dp1516
g13
VADVP
p1517
sbag0
(g1
g2
(lp1518
Vup
p1519
atp1520
Rp1521
(dp1522
g13
VRB
p1523
sbatp1524
Rp1525
(dp1526
g13
VADVP
p1527
sbatp1528
Rp1529
(dp1530
g13
VVP
p1531
sbatp1532
Rp1533
(dp1534
g13
VVP
p1535
sbatp1536
Rp1537
(dp1538
g13
VS
p1539
sbatp1540
Rp1541
(dp1542
g13
VVP
p1543
sbatp1544
Rp1545
(dp1546
g13
VS
p1547
sbatp1548
Rp1549
(dp1550
g13
VVP
p1551
sbatp1552
Rp1553
(dp1554
g13
VVP
p1555
sbatp1556
Rp1557
(dp1558
g13
VS
p1559
sbag0
(g1
g2
(lp1560
V.
p1561
atp1562
Rp1563
(dp1564
g13
V.
p1565
sbatp1566
Rp1567
(dp1568
g13
VS
p1569
sbatp1570
Rp1571
(dp1572
g13
S'id: 8'
p1573
sbag0
(g1
g2
(lp1574
g0
(g1
g2
(lp1575
g0
(g1
g2
(lp1576
VAnd
p1577
atp1578
Rp1579
(dp1580
g13
VCC
p1581
sbag0
(g1
g2
(lp1582
g0
(g1
g2
(lp1583
Von
p1584
atp1585
Rp1586
(dp1587
g13
VIN
p1588
sbag0
(g1
g2
(lp1589
g0
(g1
g2
(lp1590
Vthe
p1591
atp1592
Rp1593
(dp1594
g13
VDT
p1595
sbag0
(g1
g2
(lp1596
Vright
p1597
atp1598
Rp1599
(dp1600
g13
VNN
p1601
sbatp1602
Rp1603
(dp1604
g13
VNP
p1605
sbatp1606
Rp1607
(dp1608
g13
VADVP
p1609
sbag0
(g1
g2
(lp1610
V,
p1611
atp1612
Rp1613
(dp1614
g13
V,
p1615
sbag0
(g1
g2
(lp1616
g0
(g1
g2
(lp1617
g0
(g1
g2
(lp1618
g0
(g1
g2
(lp1619
Vthe
p1620
atp1621
Rp1622
(dp1623
g13
VDT
p1624
sbag0
(g1
g2
(lp1625
g0
(g1
g2
(lp1626
Vguy
p1627
atp1628
Rp1629
(dp1630
g13
VNN
p1631
sbag0
(g1
g2
(lp1632
V's
p1633
atp1634
Rp1635
(dp1636
g13
VPOS
p1637
sbatp1638
Rp1639
(dp1640
g13
VNP
p1641
sbatp1642
Rp1643
(dp1644
g13
VNP
p1645
sbag0
(g1
g2
(lp1646
g0
(g1
g2
(lp1647
Vout
p1648
atp1649
Rp1650
(dp1651
g13
VRP
p1652
sbatp1653
Rp1654
(dp1655
g13
VADVP
p1656
sbatp1657
Rp1658
(dp1659
g13
VNP
p1660
sbag0
(g1
g2
(lp1661
Vin
p1662
atp1663
Rp1664
(dp1665
g13
VIN
p1666
sbag0
(g1
g2
(lp1667
g0
(g1
g2
(lp1668
Vthe
p1669
atp1670
Rp1671
(dp1672
g13
VDT
p1673
sbag0
(g1
g2
(lp1674
Vwater
p1675
atp1676
Rp1677
(dp1678
g13
VNN
p1679
sbatp1680
Rp1681
(dp1682
g13
VNP
p1683
sbatp1684
Rp1685
(dp1686
g13
VPP
p1687
sbag0
(g1
g2
(lp1688
V,
p1689
atp1690
Rp1691
(dp1692
g13
V,
p1693
sbag0
(g1
g2
(lp1694
g0
(g1
g2
(lp1695
g0
(g1
g2
(lp1696
g0
(g1
g2
(lp1697
Vanother
p1698
atp1699
Rp1700
(dp1701
g13
VDT
p1702
sbag0
(g1
g2
(lp1703
Vstill
p1704
atp1705
Rp1706
(dp1707
g13
VRB
p1708
sbatp1709
Rp1710
(dp1711
g13
VNP
p1712
sbag0
(g1
g2
(lp1713
Vout
p1714
atp1715
Rp1716
(dp1717
g13
VIN
p1718
sbatp1719
Rp1720
(dp1721
g13
VADVP
p1722
sbag0
(g1
g2
(lp1723
Vin
p1724
atp1725
Rp1726
(dp1727
g13
VIN
p1728
sbag0
(g1
g2
(lp1729
g0
(g1
g2
(lp1730
Vthe
p1731
atp1732
Rp1733
(dp1734
g13
VDT
p1735
sbag0
(g1
g2
(lp1736
Vwater
p1737
atp1738
Rp1739
(dp1740
g13
VNN
p1741
sbatp1742
Rp1743
(dp1744
g13
VNP
p1745
sbatp1746
Rp1747
(dp1748
g13
VPP
p1749
sbag0
(g1
g2
(lp1750
V.
p1751
atp1752
Rp1753
(dp1754
g13
V.
p1755
sbatp1756
Rp1757
(dp1758
g13
VFRAG
p1759
sbatp1760
Rp1761
(dp1762
g13
S'id: 9'
p1763
sbag0
(g1
g2
(lp1764
g0
(g1
g2
(lp1765
g0
(g1
g2
(lp1766
g0
(g1
g2
(lp1767
g0
(g1
g2
(lp1768
VPeoples
p1769
atp1770
Rp1771
(dp1772
g13
VNNPS
p1773
sbatp1774
Rp1775
(dp1776
g13
VNP
p1777
sbag0
(g1
g2
(lp1778
g0
(g1
g2
(lp1779
g0
(g1
g2
(lp1780
Vout
p1781
atp1782
Rp1783
(dp1784
g13
VIN
p1785
sbag0
(g1
g2
(lp1786
g0
(g1
g2
(lp1787
Vfurther
p1788
atp1789
Rp1790
(dp1791
g13
VRB
p1792
sbag0
(g1
g2
(lp1793
Vaway
p1794
atp1795
Rp1796
(dp1797
g13
VRB
p1798
sbatp1799
Rp1800
(dp1801
g13
VADVP
p1802
sbatp1803
Rp1804
(dp1805
g13
VADJP
p1806
sbatp1807
Rp1808
(dp1809
g13
VRRC
p1810
sbatp1811
Rp1812
(dp1813
g13
VNP
p1814
sbag0
(g1
g2
(lp1815
V,
p1816
atp1817
Rp1818
(dp1819
g13
V,
p1820
sbag0
(g1
g2
(lp1821
g0
(g1
g2
(lp1822
g0
(g1
g2
(lp1823
Vtwo
p1824
atp1825
Rp1826
(dp1827
g13
VCD
p1828
sbag0
(g1
g2
(lp1829
Vpeople
p1830
atp1831
Rp1832
(dp1833
g13
VNNS
p1834
sbatp1835
Rp1836
(dp1837
g13
VNP
p1838
sbag0
(g1
g2
(lp1839
g0
(g1
g2
(lp1840
Vin
p1841
atp1842
Rp1843
(dp1844
g13
VIN
p1845
sbag0
(g1
g2
(lp1846
g0
(g1
g2
(lp1847
Vthe
p1848
atp1849
Rp1850
(dp1851
g13
VDT
p1852
sbag0
(g1
g2
(lp1853
Vwater
p1854
atp1855
Rp1856
(dp1857
g13
VNN
p1858
sbatp1859
Rp1860
(dp1861
g13
VNP
p1862
sbatp1863
Rp1864
(dp1865
g13
VPP
p1866
sbatp1867
Rp1868
(dp1869
g13
VNP
p1870
sbag0
(g1
g2
(lp1871
V.
p1872
atp1873
Rp1874
(dp1875
g13
V.
p1876
sbatp1877
Rp1878
(dp1879
g13
VNP
p1880
sbatp1881
Rp1882
(dp1883
g13
S'id: 10'
p1884
sbag0
(g1
g2
(lp1885
g0
(g1
g2
(lp1886
g0
(g1
g2
(lp1887
VAnd
p1888
atp1889
Rp1890
(dp1891
g13
VCC
p1892
sbag0
(g1
g2
(lp1893
g0
(g1
g2
(lp1894
g0
(g1
g2
(lp1895
Vthen
p1896
atp1897
Rp1898
(dp1899
g13
VRB
p1900
sbatp1901
Rp1902
(dp1903
g13
VADVP
p1904
sbag0
(g1
g2
(lp1905
Vin
p1906
atp1907
Rp1908
(dp1909
g13
VIN
p1910
sbag0
(g1
g2
(lp1911
g0
(g1
g2
(lp1912
g0
(g1
g2
(lp1913
Vfront
p1914
atp1915
Rp1916
(dp1917
g13
VNN
p1918
sbatp1919
Rp1920
(dp1921
g13
VNP
p1922
sbag0
(g1
g2
(lp1923
g0
(g1
g2
(lp1924
Vof
p1925
atp1926
Rp1927
(dp1928
g13
VIN
p1929
sbag0
(g1
g2
(lp1930
g0
(g1
g2
(lp1931
Vthe
p1932
atp1933
Rp1934
(dp1935
g13
VDT
p1936
sbag0
(g1
g2
(lp1937
Vwater
p1938
atp1939
Rp1940
(dp1941
g13
VNN
p1942
sbatp1943
Rp1944
(dp1945
g13
VNP
p1946
sbatp1947
Rp1948
(dp1949
g13
VPP
p1950
sbatp1951
Rp1952
(dp1953
g13
VNP
p1954
sbatp1955
Rp1956
(dp1957
g13
VPP
p1958
sbag0
(g1
g2
(lp1959
V,
p1960
atp1961
Rp1962
(dp1963
g13
V,
p1964
sbag0
(g1
g2
(lp1965
g0
(g1
g2
(lp1966
g0
(g1
g2
(lp1967
Vwhere
p1968
atp1969
Rp1970
(dp1971
g13
VWRB
p1972
sbatp1973
Rp1974
(dp1975
g13
VWHADVP
p1976
sbag0
(g1
g2
(lp1977
g0
(g1
g2
(lp1978
g0
(g1
g2
(lp1979
Vthe
p1980
atp1981
Rp1982
(dp1983
g13
VDT
p1984
sbag0
(g1
g2
(lp1985
Vsand
p1986
atp1987
Rp1988
(dp1989
g13
VNN
p1990
sbatp1991
Rp1992
(dp1993
g13
VNP
p1994
sbag0
(g1
g2
(lp1995
g0
(g1
g2
(lp1996
Vis
p1997
atp1998
Rp1999
(dp2000
g13
VVBZ
p2001
sbatp2002
Rp2003
(dp2004
g13
VVP
p2005
sbatp2006
Rp2007
(dp2008
g13
VS
p2009
sbatp2010
Rp2011
(dp2012
g13
VSBAR
p2013
sbag0
(g1
g2
(lp2014
V,
p2015
atp2016
Rp2017
(dp2018
g13
V,
p2019
sbag0
(g1
g2
(lp2020
g0
(g1
g2
(lp2021
Vthe
p2022
atp2023
Rp2024
(dp2025
g13
VDT
p2026
sbag0
(g1
g2
(lp2027
Vgirl
p2028
atp2029
Rp2030
(dp2031
g13
VNN
p2032
sbatp2033
Rp2034
(dp2035
g13
VNP
p2036
sbag0
(g1
g2
(lp2037
g0
(g1
g2
(lp2038
Vis
p2039
atp2040
Rp2041
(dp2042
g13
VVBZ
p2043
sbag0
(g1
g2
(lp2044
g0
(g1
g2
(lp2045
Vplaying
p2046
atp2047
Rp2048
(dp2049
g13
VVBG
p2050
sbag0
(g1
g2
(lp2051
g0
(g1
g2
(lp2052
Vwith
p2053
atp2054
Rp2055
(dp2056
g13
VIN
p2057
sbag0
(g1
g2
(lp2058
g0
(g1
g2
(lp2059
Vthe
p2060
atp2061
Rp2062
(dp2063
g13
VDT
p2064
sbag0
(g1
g2
(lp2065
Vsand
p2066
atp2067
Rp2068
(dp2069
g13
VNN
p2070
sbatp2071
Rp2072
(dp2073
g13
VNP
p2074
sbatp2075
Rp2076
(dp2077
g13
VPP
p2078
sbatp2079
Rp2080
(dp2081
g13
VVP
p2082
sbatp2083
Rp2084
(dp2085
g13
VVP
p2086
sbag0
(g1
g2
(lp2087
V.
p2088
atp2089
Rp2090
(dp2091
g13
V.
p2092
sbatp2093
Rp2094
(dp2095
g13
VS
p2096
sbatp2097
Rp2098
(dp2099
g13
S'id: 11'
p2100
sbag0
(g1
g2
(lp2101
g0
(g1
g2
(lp2102
g0
(g1
g2
(lp2103
VAnd
p2104
atp2105
Rp2106
(dp2107
g13
VCC
p2108
sbag0
(g1
g2
(lp2109
V,
p2110
atp2111
Rp2112
(dp2113
g13
V,
p2114
sbag0
(g1
g2
(lp2115
g0
(g1
g2
(lp2116
Vit
p2117
atp2118
Rp2119
(dp2120
g13
VPRP
p2121
sbatp2122
Rp2123
(dp2124
g13
VNP
p2125
sbag0
(g1
g2
(lp2126
g0
(g1
g2
(lp2127
Vmust
p2128
atp2129
Rp2130
(dp2131
g13
VMD
p2132
sbag0
(g1
g2
(lp2133
g0
(g1
g2
(lp2134
Vbe
p2135
atp2136
Rp2137
(dp2138
g13
VVB
p2139
sbag0
(g1
g2
(lp2140
g0
(g1
g2
(lp2141
g0
(g1
g2
(lp2142
Va
p2143
atp2144
Rp2145
(dp2146
g13
VDT
p2147
sbag0
(g1
g2
(lp2148
Vfancy
p2149
atp2150
Rp2151
(dp2152
g13
VJJ
p2153
sbag0
(g1
g2
(lp2154
Vhouse
p2155
atp2156
Rp2157
(dp2158
g13
VNN
p2159
sbatp2160
Rp2161
(dp2162
g13
VNP
p2163
sbag0
(g1
g2
(lp2164
V,
p2165
atp2166
Rp2167
(dp2168
g13
V,
p2169
sbag0
(g1
g2
(lp2170
g0
(g1
g2
(lp2171
Vliving
p2172
atp2173
Rp2174
(dp2175
g13
VVBG
p2176
sbag0
(g1
g2
(lp2177
g0
(g1
g2
(lp2178
Vin
p2179
atp2180
Rp2181
(dp2182
g13
VIN
p2183
sbag0
(g1
g2
(lp2184
g0
(g1
g2
(lp2185
Va
p2186
atp2187
Rp2188
(dp2189
g13
VDT
p2190
sbag0
(g1
g2
(lp2191
Vfancy
p2192
atp2193
Rp2194
(dp2195
g13
VJJ
p2196
sbag0
(g1
g2
(lp2197
Vhouse
p2198
atp2199
Rp2200
(dp2201
g13
VNN
p2202
sbatp2203
Rp2204
(dp2205
g13
VNP
p2206
sbatp2207
Rp2208
(dp2209
g13
VPP
p2210
sbatp2211
Rp2212
(dp2213
g13
VVP
p2214
sbag0
(g1
g2
(lp2215
V,
p2216
atp2217
Rp2218
(dp2219
g13
V,
p2220
sbatp2221
Rp2222
(dp2223
g13
VNP
p2224
sbag0
(g1
g2
(lp2225
g0
(g1
g2
(lp2226
Vbecause
p2227
atp2228
Rp2229
(dp2230
g13
VIN
p2231
sbag0
(g1
g2
(lp2232
g0
(g1
g2
(lp2233
g0
(g1
g2
(lp2234
Vhis
p2235
atp2236
Rp2237
(dp2238
g13
VPRP$
p2239
sbag0
(g1
g2
(lp2240
Vhouse
p2241
atp2242
Rp2243
(dp2244
g13
VNN
p2245
sbatp2246
Rp2247
(dp2248
g13
VNP
p2249
sbag0
(g1
g2
(lp2250
g0
(g1
g2
(lp2251
Vis
p2252
atp2253
Rp2254
(dp2255
g13
VVBZ
p2256
sbag0
(g1
g2
(lp2257
g0
(g1
g2
(lp2258
Vright
p2259
atp2260
Rp2261
(dp2262
g13
VJJ
p2263
sbag0
(g1
g2
(lp2264
g0
(g1
g2
(lp2265
Vnext
p2266
atp2267
Rp2268
(dp2269
g13
VIN
p2270
sbag0
(g1
g2
(lp2271
g0
(g1
g2
(lp2272
Vto
p2273
atp2274
Rp2275
(dp2276
g13
VTO
p2277
sbag0
(g1
g2
(lp2278
g0
(g1
g2
(lp2279
Vthe
p2280
atp2281
Rp2282
(dp2283
g13
VDT
p2284
sbag0
(g1
g2
(lp2285
Vwater
p2286
atp2287
Rp2288
(dp2289
g13
VNN
p2290
sbatp2291
Rp2292
(dp2293
g13
VNP
p2294
sbatp2295
Rp2296
(dp2297
g13
VPP
p2298
sbatp2299
Rp2300
(dp2301
g13
VPP
p2302
sbatp2303
Rp2304
(dp2305
g13
VADJP
p2306
sbatp2307
Rp2308
(dp2309
g13
VVP
p2310
sbatp2311
Rp2312
(dp2313
g13
VS
p2314
sbatp2315
Rp2316
(dp2317
g13
VSBAR
p2318
sbatp2319
Rp2320
(dp2321
g13
VVP
p2322
sbatp2323
Rp2324
(dp2325
g13
VVP
p2326
sbag0
(g1
g2
(lp2327
V.
p2328
atp2329
Rp2330
(dp2331
g13
V.
p2332
sbatp2333
Rp2334
(dp2335
g13
VS
p2336
sbatp2337
Rp2338
(dp2339
g13
S'id: 12'
p2340
sbag0
(g1
g2
(lp2341
g0
(g1
g2
(lp2342
g0
(g1
g2
(lp2343
g0
(g1
g2
(lp2344
VIt
p2345
atp2346
Rp2347
(dp2348
g13
VPRP
p2349
sbatp2350
Rp2351
(dp2352
g13
VNP
p2353
sbag0
(g1
g2
(lp2354
g0
(g1
g2
(lp2355
Vcosts
p2356
atp2357
Rp2358
(dp2359
g13
VVBZ
p2360
sbag0
(g1
g2
(lp2361
g0
(g1
g2
(lp2362
g0
(g1
g2
(lp2363
g0
(g1
g2
(lp2364
Va
p2365
atp2366
Rp2367
(dp2368
g13
VDT
p2369
sbag0
(g1
g2
(lp2370
Vlot
p2371
atp2372
Rp2373
(dp2374
g13
VNN
p2375
sbatp2376
Rp2377
(dp2378
g13
VNP
p2379
sbag0
(g1
g2
(lp2380
g0
(g1
g2
(lp2381
Vof
p2382
atp2383
Rp2384
(dp2385
g13
VIN
p2386
sbag0
(g1
g2
(lp2387
g0
(g1
g2
(lp2388
Vmoney
p2389
atp2390
Rp2391
(dp2392
g13
VNN
p2393
sbatp2394
Rp2395
(dp2396
g13
VNP
p2397
sbatp2398
Rp2399
(dp2400
g13
VPP
p2401
sbatp2402
Rp2403
(dp2404
g13
VNP
p2405
sbag0
(g1
g2
(lp2406
g0
(g1
g2
(lp2407
Vto
p2408
atp2409
Rp2410
(dp2411
g13
VTO
p2412
sbag0
(g1
g2
(lp2413
g0
(g1
g2
(lp2414
Vhave
p2415
atp2416
Rp2417
(dp2418
g13
VVB
p2419
sbag0
(g1
g2
(lp2420
g0
(g1
g2
(lp2421
g0
(g1
g2
(lp2422
Va
p2423
atp2424
Rp2425
(dp2426
g13
VDT
p2427
sbag0
(g1
g2
(lp2428
Vhouse
p2429
atp2430
Rp2431
(dp2432
g13
VNN
p2433
sbatp2434
Rp2435
(dp2436
g13
VNP
p2437
sbag0
(g1
g2
(lp2438
g0
(g1
g2
(lp2439
Vover
p2440
atp2441
Rp2442
(dp2443
g13
VIN
p2444
sbag0
(g1
g2
(lp2445
g0
(g1
g2
(lp2446
Vthere
p2447
atp2448
Rp2449
(dp2450
g13
VRB
p2451
sbatp2452
Rp2453
(dp2454
g13
VNP
p2455
sbatp2456
Rp2457
(dp2458
g13
VPP
p2459
sbatp2460
Rp2461
(dp2462
g13
VNP
p2463
sbatp2464
Rp2465
(dp2466
g13
VVP
p2467
sbatp2468
Rp2469
(dp2470
g13
VVP
p2471
sbatp2472
Rp2473
(dp2474
g13
VS
p2475
sbatp2476
Rp2477
(dp2478
g13
VVP
p2479
sbag0
(g1
g2
(lp2480
V.
p2481
atp2482
Rp2483
(dp2484
g13
V.
p2485
sbatp2486
Rp2487
(dp2488
g13
VS
p2489
sbatp2490
Rp2491
(dp2492
g13
S'id: 13'
p2493
sbag0
(g1
g2
(lp2494
g0
(g1
g2
(lp2495
g0
(g1
g2
(lp2496
g0
(g1
g2
(lp2497
VWell
p2498
atp2499
Rp2500
(dp2501
g13
VRB
p2502
sbatp2503
Rp2504
(dp2505
g13
VADVP
p2506
sbag0
(g1
g2
(lp2507
V,
p2508
atp2509
Rp2510
(dp2511
g13
V,
p2512
sbag0
(g1
g2
(lp2513
V`
p2514
atp2515
Rp2516
(dp2517
g13
V``
p2518
sbag0
(g1
g2
(lp2519
g0
(g1
g2
(lp2520
g0
(g1
g2
(lp2521
Vbout
p2522
atp2523
Rp2524
(dp2525
g13
VNN
p2526
sbatp2527
Rp2528
(dp2529
g13
VNP
p2530
sbag0
(g1
g2
(lp2531
g0
(g1
g2
(lp2532
Vall
p2533
atp2534
Rp2535
(dp2536
g13
VDT
p2537
sbatp2538
Rp2539
(dp2540
g13
VNP
p2541
sbatp2542
Rp2543
(dp2544
g13
VNP
p2545
sbag0
(g1
g2
(lp2546
g0
(g1
g2
(lp2547
Vyou
p2548
atp2549
Rp2550
(dp2551
g13
VPRP
p2552
sbatp2553
Rp2554
(dp2555
g13
VNP
p2556
sbag0
(g1
g2
(lp2557
g0
(g1
g2
(lp2558
Vcan
p2559
atp2560
Rp2561
(dp2562
g13
VMD
p2563
sbag0
(g1
g2
(lp2564
g0
(g1
g2
(lp2565
Vsay
p2566
atp2567
Rp2568
(dp2569
g13
VVB
p2570
sbag0
(g1
g2
(lp2571
g0
(g1
g2
(lp2572
Von
p2573
atp2574
Rp2575
(dp2576
g13
VIN
p2577
sbag0
(g1
g2
(lp2578
g0
(g1
g2
(lp2579
Vthat
p2580
atp2581
Rp2582
(dp2583
g13
VDT
p2584
sbag0
(g1
g2
(lp2585
Vone
p2586
atp2587
Rp2588
(dp2589
g13
VCD
p2590
sbatp2591
Rp2592
(dp2593
g13
VNP
p2594
sbatp2595
Rp2596
(dp2597
g13
VPP
p2598
sbatp2599
Rp2600
(dp2601
g13
VVP
p2602
sbatp2603
Rp2604
(dp2605
g13
VVP
p2606
sbag0
(g1
g2
(lp2607
V.
p2608
atp2609
Rp2610
(dp2611
g13
V.
p2612
sbatp2613
Rp2614
(dp2615
g13
VS
p2616
sbatp2617
Rp2618
(dp2619
g13
S'id: 14'
p2620
sbag0
(g1
g2
(lp2621
g0
(g1
g2
(lp2622
g0
(g1
g2
(lp2623
g0
(g1
g2
(lp2624
g0
(g1
g2
(lp2625
VGrandfather
p2626
atp2627
Rp2628
(dp2629
g13
VNN
p2630
sbag0
(g1
g2
(lp2631
V's
p2632
atp2633
Rp2634
(dp2635
g13
VPOS
p2636
sbatp2637
Rp2638
(dp2639
g13
VNP
p2640
sbag0
(g1
g2
(lp2641
Voutside
p2642
atp2643
Rp2644
(dp2645
g13
VNN
p2646
sbatp2647
Rp2648
(dp2649
g13
VNP
p2650
sbag0
(g1
g2
(lp2651
V.
p2652
atp2653
Rp2654
(dp2655
g13
V.
p2656
sbatp2657
Rp2658
(dp2659
g13
VFRAG
p2660
sbatp2661
Rp2662
(dp2663
g13
S'id: 15'
p2664
sbag0
(g1
g2
(lp2665
g0
(g1
g2
(lp2666
g0
(g1
g2
(lp2667
g0
(g1
g2
(lp2668
Vthe
p2669
atp2670
Rp2671
(dp2672
g13
VDT
p2673
sbag0
(g1
g2
(lp2674
Vboy
p2675
atp2676
Rp2677
(dp2678
g13
VNN
p2679
sbatp2680
Rp2681
(dp2682
g13
VNP
p2683
sbag0
(g1
g2
(lp2684
g0
(g1
g2
(lp2685
Vis
p2686
atp2687
Rp2688
(dp2689
g13
VVBZ
p2690
sbag0
(g1
g2
(lp2691
g0
(g1
g2
(lp2692
Vchasing
p2693
atp2694
Rp2695
(dp2696
g13
VVBG
p2697
sbag0
(g1
g2
(lp2698
g0
(g1
g2
(lp2699
g0
(g1
g2
(lp2700
Vthe
p2701
atp2702
Rp2703
(dp2704
g13
VDT
p2705
sbag0
(g1
g2
(lp2706
Vdog
p2707
atp2708
Rp2709
(dp2710
g13
VNN
p2711
sbatp2712
Rp2713
(dp2714
g13
VNP
p2715
sbag0
(g1
g2
(lp2716
V,
p2717
atp2718
Rp2719
(dp2720
g13
V,
p2721
sbag0
(g1
g2
(lp2722
g0
(g1
g2
(lp2723
VThe
p2724
atp2725
Rp2726
(dp2727
g13
VDT
p2728
sbag0
(g1
g2
(lp2729
Vsis
p2730
atp2731
Rp2732
(dp2733
g13
VNN
p2734
sbatp2735
Rp2736
(dp2737
g13
VNP
p2738
sbag0
(g1
g2
(lp2739
V,
p2740
atp2741
Rp2742
(dp2743
g13
V,
p2744
sbag0
(g1
g2
(lp2745
g0
(g1
g2
(lp2746
g0
(g1
g2
(lp2747
Vdaughter
p2748
atp2749
Rp2750
(dp2751
g13
VNN
p2752
sbag0
(g1
g2
(lp2753
Vplaying
p2754
atp2755
Rp2756
(dp2757
g13
VNN
p2758
sbatp2759
Rp2760
(dp2761
g13
VNP
p2762
sbag0
(g1
g2
(lp2763
g0
(g1
g2
(lp2764
Vin
p2765
atp2766
Rp2767
(dp2768
g13
VIN
p2769
sbag0
(g1
g2
(lp2770
g0
(g1
g2
(lp2771
Vthe
p2772
atp2773
Rp2774
(dp2775
g13
VDT
p2776
sbag0
(g1
g2
(lp2777
Vsand
p2778
atp2779
Rp2780
(dp2781
g13
VNN
p2782
sbatp2783
Rp2784
(dp2785
g13
VNP
p2786
sbatp2787
Rp2788
(dp2789
g13
VPP
p2790
sbatp2791
Rp2792
(dp2793
g13
VNP
p2794
sbatp2795
Rp2796
(dp2797
g13
VNP
p2798
sbatp2799
Rp2800
(dp2801
g13
VVP
p2802
sbatp2803
Rp2804
(dp2805
g13
VVP
p2806
sbag0
(g1
g2
(lp2807
V.
p2808
atp2809
Rp2810
(dp2811
g13
V.
p2812
sbatp2813
Rp2814
(dp2815
g13
VS
p2816
sbatp2817
Rp2818
(dp2819
g13
S'id: 16'
p2820
sbatp2821
Rp2822
(dp2823
g13
S'sentences'
p2824
sb.