ccopy_reg
_reconstructor
p0
(cnltk.tree
Tree
p1
c__builtin__
list
p2
(lp3
g0
(g1
g2
(lp4
g0
(g1
g2
(lp5
g0
(g1
g2
(lp6
VThe
p7
atp8
Rp9
(dp10
S'_label'
p11
S'start: 1'
p12
sbatp13
Rp14
(dp15
g11
S'sent: 6'
p16
sbag0
(g1
g2
(lp17
g0
(g1
g2
(lp18
Vthe
p19
atp20
Rp21
(dp22
g11
S'start: 5'
p23
sbatp24
Rp25
(dp26
g11
S'sent: 7'
p27
sbag0
(g1
g2
(lp28
g0
(g1
g2
(lp29
Vthe
p30
atp31
Rp32
(dp33
g11
S'start: 2'
p34
sbatp35
Rp36
(dp37
g11
S'sent: 10'
p38
sbag0
(g1
g2
(lp39
g0
(g1
g2
(lp40
VThe , the beesofeter
p41
atp42
Rp43
(dp44
g11
S'start: 1'
p45
sbatp46
Rp47
(dp48
g11
S'sent: 11'
p49
sbag0
(g1
g2
(lp50
g0
(g1
g2
(lp51
VThe
p52
atp53
Rp54
(dp55
g11
S'start: 1'
p56
sbatp57
Rp58
(dp59
g11
S'sent: 11'
p60
sbag0
(g1
g2
(lp61
g0
(g1
g2
(lp62
Vthe beesofeter
p63
atp64
Rp65
(dp66
g11
S'start: 3'
p67
sbatp68
Rp69
(dp70
g11
S'sent: 11'
p71
sbatp72
Rp73
(dp74
g11
S'id: 11'
p75
sbag0
(g1
g2
(lp76
g0
(g1
g2
(lp77
g0
(g1
g2
(lp78
Vthe boy
p79
atp80
Rp81
(dp82
g11
S'start: 3'
p83
sbatp84
Rp85
(dp86
g11
S'sent: 6'
p87
sbag0
(g1
g2
(lp88
g0
(g1
g2
(lp89
Vthe boy
p90
atp91
Rp92
(dp93
g11
S'start: 7'
p94
sbatp95
Rp96
(dp97
g11
S'sent: 7'
p98
sbatp99
Rp100
(dp101
g11
S'id: 12'
p102
sbag0
(g1
g2
(lp103
g0
(g1
g2
(lp104
g0
(g1
g2
(lp105
Va gite
p106
atp107
Rp108
(dp109
g11
S'start: 7'
p110
sbatp111
Rp112
(dp113
g11
S'sent: 6'
p114
sbag0
(g1
g2
(lp115
g0
(g1
g2
(lp116
Vthe kite
p117
atp118
Rp119
(dp120
g11
S'start: 10'
p121
sbatp122
Rp123
(dp124
g11
S'sent: 6'
p125
sbatp126
Rp127
(dp128
g11
S'id: 14'
p129
sbag0
(g1
g2
(lp130
g0
(g1
g2
(lp131
g0
(g1
g2
(lp132
Va dog
p133
atp134
Rp135
(dp136
g11
S'start: 2'
p137
sbatp138
Rp139
(dp140
g11
S'sent: 7'
p141
sbag0
(g1
g2
(lp142
g0
(g1
g2
(lp143
Vthe , the boy
p144
atp145
Rp146
(dp147
g11
S'start: 5'
p148
sbatp149
Rp150
(dp151
g11
S'sent: 7'
p152
sbatp153
Rp154
(dp155
g11
S'id: 16'
p156
sbag0
(g1
g2
(lp157
g0
(g1
g2
(lp158
g0
(g1
g2
(lp159
Vthe hanzoo
p160
atp161
Rp162
(dp163
g11
S'start: 5'
p164
sbatp165
Rp166
(dp167
g11
S'sent: 8'
p168
sbag0
(g1
g2
(lp169
g0
(g1
g2
(lp170
Vhe
p171
atp172
Rp173
(dp174
g11
S'start: 2'
p175
sbatp176
Rp177
(dp178
g11
S'sent: 9'
p179
sbatp180
Rp181
(dp182
g11
S'id: 21'
p183
sbatp184
Rp185
(dp186
g11
S'coreferences'
p187
sb.