ccopy_reg
_reconstructor
p0
(cnltk.tree
Tree
p1
c__builtin__
list
p2
(lp3
g0
(g1
g2
(lp4
g0
(g1
g2
(lp5
g0
(g1
g2
(lp6
(lp7
S'word: bay, index: 1'
p8
aatp9
Rp10
(dp11
S'_label'
p12
Vnsubj
p13
sbatp14
Rp15
(dp16
g12
S'word: died, index: 2'
p17
sbatp18
Rp19
(dp20
g12
S'id: 0'
p21
sbag0
(g1
g2
(lp22
g0
(g1
g2
(lp23
g0
(g1
g2
(lp24
(lp25
S'word: horses, index: 6'
p26
aatp27
Rp28
(dp29
g12
Vconj
p30
sbag0
(g1
g2
(lp31
g0
(g1
g2
(lp32
g0
(g1
g2
(lp33
(lp34
S'word: a, index: 1'
p35
aatp36
Rp37
(dp38
g12
Vdet
p39
sbatp40
Rp41
(dp42
g12
S'word: bay, index: 2'
p43
sbatp44
Rp45
(dp46
g12
Vnsubj
p47
sbatp48
Rp49
(dp50
g12
S'word: died, index: 3'
p51
sbatp52
Rp53
(dp54
g12
S'id: 1'
p55
sbag0
(g1
g2
(lp56
tp57
Rp58
(dp59
g12
S'id: 2'
p60
sbag0
(g1
g2
(lp61
g0
(g1
g2
(lp62
g0
(g1
g2
(lp63
(lp64
S'word: And, index: 1'
p65
aatp66
Rp67
(dp68
g12
Vcc
p69
sbag0
(g1
g2
(lp70
(lp71
S'word: tiger, index: 3'
p72
aatp73
Rp74
(dp75
g12
Vdep
p76
sbatp77
Rp78
(dp79
g12
S'word: my, index: 2'
p80
sbatp81
Rp82
(dp83
g12
S'id: 3'
p84
sbag0
(g1
g2
(lp85
g0
(g1
g2
(lp86
g0
(g1
g2
(lp87
g0
(g1
g2
(lp88
g0
(g1
g2
(lp89
g0
(g1
g2
(lp90
g0
(g1
g2
(lp91
(lp92
S'word: round, index: 5'
p93
aatp94
Rp95
(dp96
g12
Vamod
p97
sbatp98
Rp99
(dp100
g12
S'word: things, index: 6'
p101
sbatp102
Rp103
(dp104
g12
Vappos
p105
sbatp106
Rp107
(dp108
g12
S'word: ring, index: 3'
p109
sbatp110
Rp111
(dp112
g12
Vappos
p113
sbatp114
Rp115
(dp116
g12
S'word: Tium, index: 1'
p117
sbatp118
Rp119
(dp120
g12
S'id: 4'
p121
sbag0
(g1
g2
(lp122
tp123
Rp124
(dp125
g12
S'id: 5'
p126
sbag0
(g1
g2
(lp127
g0
(g1
g2
(lp128
g0
(g1
g2
(lp129
(lp130
S'word: I, index: 1'
p131
aatp132
Rp133
(dp134
g12
Vnsubj
p135
sbatp136
Rp137
(dp138
g12
S'word: know, index: 2'
p139
sbatp140
Rp141
(dp142
g12
S'id: 6'
p143
sbag0
(g1
g2
(lp144
tp145
Rp146
(dp147
g12
S'id: 7'
p148
sbag0
(g1
g2
(lp149
tp150
Rp151
(dp152
g12
S'id: 8'
p153
sbag0
(g1
g2
(lp154
g0
(g1
g2
(lp155
g0
(g1
g2
(lp156
(lp157
S'word: Yet, index: 1'
p158
aatp159
Rp160
(dp161
g12
Vdep
p162
sbag0
(g1
g2
(lp163
(lp164
S'word: yet, index: 3'
p165
aatp166
Rp167
(dp168
g12
Vdep
p169
sbag0
(g1
g2
(lp170
(lp171
S'word: yet, index: 5'
p172
aatp173
Rp174
(dp175
g12
Vdep
p176
sbatp177
Rp178
(dp179
g12
S'word: yet, index: 7'
p180
sbatp181
Rp182
(dp183
g12
S'id: 9'
p184
sbag0
(g1
g2
(lp185
tp186
Rp187
(dp188
g12
S'id: 10'
p189
sbag0
(g1
g2
(lp190
g0
(g1
g2
(lp191
g0
(g1
g2
(lp192
(lp193
S'word: Jut, index: 1'
p194
aatp195
Rp196
(dp197
g12
Vnn
p198
sbag0
(g1
g2
(lp199
(lp200
S'word: popporn, index: 2'
p201
aatp202
Rp203
(dp204
g12
Vnn
p205
sbag0
(g1
g2
(lp206
(lp207
S'word: tiger, index: 4'
p208
aatp209
Rp210
(dp211
g12
Vdep
p212
sbatp213
Rp214
(dp215
g12
S'word: brids, index: 3'
p216
sbatp217
Rp218
(dp219
g12
S'id: 11'
p220
sbag0
(g1
g2
(lp221
tp222
Rp223
(dp224
g12
S'id: 12'
p225
sbatp226
Rp227
(dp228
g12
S'sentences'
p229
sb.