ccopy_reg
_reconstructor
p0
(cnltk.tree
Tree
p1
c__builtin__
list
p2
(lp3
g0
(g1
g2
(lp4
tp5
Rp6
(dp7
S'_label'
p8
S'id: 0'
p9
sbag0
(g1
g2
(lp10
tp11
Rp12
(dp13
g8
S'id: 1'
p14
sbag0
(g1
g2
(lp15
g0
(g1
g2
(lp16
g0
(g1
g2
(lp17
g0
(g1
g2
(lp18
g0
(g1
g2
(lp19
(lp20
S'word: One, index: 1'
p21
aatp22
Rp23
(dp24
g8
Vnum
p25
sbatp26
Rp27
(dp28
g8
S'word: clan, index: 2'
p29
sbatp30
Rp31
(dp32
g8
Vnsubj
p33
sbatp34
Rp35
(dp36
g8
S'word: is, index: 3'
p37
sbatp38
Rp39
(dp40
g8
S'id: 2'
p41
sbag0
(g1
g2
(lp42
tp43
Rp44
(dp45
g8
S'id: 3'
p46
sbag0
(g1
g2
(lp47
g0
(g1
g2
(lp48
g0
(g1
g2
(lp49
(lp50
S'word: tiger, index: 2'
p51
aatp52
Rp53
(dp54
g8
Vdep
p55
sbatp56
Rp57
(dp58
g8
S'word: One, index: 1'
p59
sbatp60
Rp61
(dp62
g8
S'id: 4'
p63
sbag0
(g1
g2
(lp64
g0
(g1
g2
(lp65
g0
(g1
g2
(lp66
(lp67
S'word: rope, index: 3'
p68
aatp69
Rp70
(dp71
g8
Vappos
p72
sbatp73
Rp74
(dp75
g8
S'word: One, index: 1'
p76
sbatp77
Rp78
(dp79
g8
S'id: 5'
p80
sbag0
(g1
g2
(lp81
g0
(g1
g2
(lp82
g0
(g1
g2
(lp83
g0
(g1
g2
(lp84
g0
(g1
g2
(lp85
(lp86
S'word: rope, index: 4'
p87
aatp88
Rp89
(dp90
g8
Vappos
p91
sbag0
(g1
g2
(lp92
(lp93
S'word: Rope, index: 1'
p94
aatp95
Rp96
(dp97
g8
Vnn
p98
sbatp99
Rp100
(dp101
g8
S'word: swing, index: 2'
p102
sbatp103
Rp104
(dp105
g8
Vnsubj
p106
sbatp107
Rp108
(dp109
g8
S'word: is, index: 5'
p110
sbatp111
Rp112
(dp113
g8
S'id: 6'
p114
sbag0
(g1
g2
(lp115
g0
(g1
g2
(lp116
g0
(g1
g2
(lp117
(lp118
S'word: horse, index: 2'
p119
aatp120
Rp121
(dp122
g8
Vdep
p123
sbatp124
Rp125
(dp126
g8
S'word: One, index: 1'
p127
sbatp128
Rp129
(dp130
g8
S'id: 7'
p131
sbag0
(g1
g2
(lp132
g0
(g1
g2
(lp133
g0
(g1
g2
(lp134
(lp135
S'word: A, index: 1'
p136
aatp137
Rp138
(dp139
g8
Vdet
p140
sbag0
(g1
g2
(lp141
g0
(g1
g2
(lp142
g0
(g1
g2
(lp143
(lp144
S'word: one, index: 4'
p145
aatp146
Rp147
(dp148
g8
Vnum
p149
sbatp150
Rp151
(dp152
g8
S'word: ballerina, index: 5'
p153
sbatp154
Rp155
(dp156
g8
Vappos
p157
sbatp158
Rp159
(dp160
g8
S'word: baderina, index: 2'
p161
sbatp162
Rp163
(dp164
g8
S'id: 8'
p165
sbag0
(g1
g2
(lp166
g0
(g1
g2
(lp167
g0
(g1
g2
(lp168
(lp169
S'word: Many, index: 1'
p170
aatp171
Rp172
(dp173
g8
Vamod
p174
sbatp175
Rp176
(dp177
g8
S'word: kids, index: 2'
p178
sbatp179
Rp180
(dp181
g8
S'id: 9'
p182
sbag0
(g1
g2
(lp183
g0
(g1
g2
(lp184
g0
(g1
g2
(lp185
(lp186
S'word: A, index: 1'
p187
aatp188
Rp189
(dp190
g8
Vdet
p191
sbag0
(g1
g2
(lp192
(lp193
S'word: black, index: 2'
p194
aatp195
Rp196
(dp197
g8
Vamod
p198
sbag0
(g1
g2
(lp199
g0
(g1
g2
(lp200
g0
(g1
g2
(lp201
g0
(g1
g2
(lp202
g0
(g1
g2
(lp203
g0
(g1
g2
(lp204
g0
(g1
g2
(lp205
(lp206
S'word: clan, index: 9'
p207
aatp208
Rp209
(dp210
g8
Vappos
p211
sbatp212
Rp213
(dp214
g8
S'word: circus, index: 7'
p215
sbatp216
Rp217
(dp218
g8
Vappos
p219
sbatp220
Rp221
(dp222
g8
S'word: his, index: 5'
p223
sbatp224
Rp225
(dp226
g8
Vdobj
p227
sbatp228
Rp229
(dp230
g8
S'word: washing, index: 4'
p231
sbatp232
Rp233
(dp234
g8
Vvmod
p235
sbatp236
Rp237
(dp238
g8
S'word: man, index: 3'
p239
sbatp240
Rp241
(dp242
g8
S'id: 10'
p243
sbag0
(g1
g2
(lp244
tp245
Rp246
(dp247
g8
S'id: 11'
p248
sbag0
(g1
g2
(lp249
g0
(g1
g2
(lp250
g0
(g1
g2
(lp251
g0
(g1
g2
(lp252
g0
(g1
g2
(lp253
(lp254
S'word: pale, index: 5'
p255
aatp256
Rp257
(dp258
g8
Vamod
p259
sbag0
(g1
g2
(lp260
(lp261
S'word: clan, index: 6'
p262
aatp263
Rp264
(dp265
g8
Vnn
p266
sbatp267
Rp268
(dp269
g8
S'word: pale, index: 8'
p270
sbatp271
Rp272
(dp273
g8
Vdep
p274
sbag0
(g1
g2
(lp275
(lp276
S'word: A, index: 1'
p277
aatp278
Rp279
(dp280
g8
Vdet
p281
sbag0
(g1
g2
(lp282
(lp283
S'word: pale, index: 3'
p284
aatp285
Rp286
(dp287
g8
Vdep
p288
sbatp289
Rp290
(dp291
g8
S'word: is, index: 2'
p292
sbatp293
Rp294
(dp295
g8
S'id: 12'
p296
sbag0
(g1
g2
(lp297
g0
(g1
g2
(lp298
g0
(g1
g2
(lp299
(lp300
S'word: Brass, index: 1'
p301
aatp302
Rp303
(dp304
g8
Vnn
p305
sbatp306
Rp307
(dp308
g8
S'word: trees, index: 2'
p309
sbatp310
Rp311
(dp312
g8
S'id: 13'
p313
sbag0
(g1
g2
(lp314
g0
(g1
g2
(lp315
g0
(g1
g2
(lp316
(lp317
S'word: Grass, index: 1'
p318
aatp319
Rp320
(dp321
g8
Vnsubj
p322
sbag0
(g1
g2
(lp323
(lp324
S'word: is, index: 2'
p325
aatp326
Rp327
(dp328
g8
Vcop
p329
sbag0
(g1
g2
(lp330
(lp331
S'word: ring, index: 5'
p332
aatp333
Rp334
(dp335
g8
Vappos
p336
sbatp337
Rp338
(dp339
g8
S'word: wing, index: 3'
p340
sbatp341
Rp342
(dp343
g8
S'id: 14'
p344
sbag0
(g1
g2
(lp345
g0
(g1
g2
(lp346
g0
(g1
g2
(lp347
(lp348
S'word: ring, index: 2'
p349
aatp350
Rp351
(dp352
g8
Vdep
p353
sbatp354
Rp355
(dp356
g8
S'word: Center, index: 1'
p357
sbatp358
Rp359
(dp360
g8
S'id: 15'
p361
sbag0
(g1
g2
(lp362
g0
(g1
g2
(lp363
g0
(g1
g2
(lp364
(lp365
S'word: Sorry, index: 1'
p366
aatp367
Rp368
(dp369
g8
Vnsubj
p370
sbag0
(g1
g2
(lp371
(lp372
S'word: me, index: 3'
p373
aatp374
Rp375
(dp376
g8
Vdobj
p377
sbatp378
Rp379
(dp380
g8
S'word: escapes, index: 2'
p381
sbatp382
Rp383
(dp384
g8
S'id: 16'
p385
sbag0
(g1
g2
(lp386
g0
(g1
g2
(lp387
g0
(g1
g2
(lp388
g0
(g1
g2
(lp389
g0
(g1
g2
(lp390
(lp391
S'word: one, index: 5'
p392
aatp393
Rp394
(dp395
g8
Vnum
p396
sbag0
(g1
g2
(lp397
g0
(g1
g2
(lp398
g0
(g1
g2
(lp399
(lp400
S'word: two, index: 8'
p401
aatp402
Rp403
(dp404
g8
Vnum
p405
sbatp406
Rp407
(dp408
g8
S'word: kids, index: 9'
p409
sbatp410
Rp411
(dp412
g8
Vappos
p413
sbatp414
Rp415
(dp416
g8
S'word: lady, index: 6'
p417
sbatp418
Rp419
(dp420
g8
Vappos
p421
sbag0
(g1
g2
(lp422
(lp423
S'word: It, index: 1'
p424
aatp425
Rp426
(dp427
g8
Vnsubj
p428
sbag0
(g1
g2
(lp429
(lp430
S'word: is, index: 2'
p431
aatp432
Rp433
(dp434
g8
Vcop
p435
sbatp436
Rp437
(dp438
g8
S'word: two, index: 3'
p439
sbatp440
Rp441
(dp442
g8
S'id: 17'
p443
sbag0
(g1
g2
(lp444
g0
(g1
g2
(lp445
g0
(g1
g2
(lp446
g0
(g1
g2
(lp447
g0
(g1
g2
(lp448
(lp449
S'word: Is, index: 1'
p450
aatp451
Rp452
(dp453
g8
Vcop
p454
sbatp455
Rp456
(dp457
g8
S'word: one, index: 2'
p458
sbatp459
Rp460
(dp461
g8
Vccomp
p462
sbatp463
Rp464
(dp465
g8
S'word: is, index: 4'
p466
sbatp467
Rp468
(dp469
g8
S'id: 18'
p470
sbatp471
Rp472
(dp473
g8
S'sentences'
p474
sb.