ccopy_reg
_reconstructor
p0
(cnltk.tree
Tree
p1
c__builtin__
list
p2
(lp3
g0
(g1
g2
(lp4
g0
(g1
g2
(lp5
g0
(g1
g2
(lp6
Vok
p7
atp8
Rp9
(dp10
S'_label'
p11
S'start: 1'
p12
sbatp13
Rp14
(dp15
g11
S'sent: 1'
p16
sbag0
(g1
g2
(lp17
g0
(g1
g2
(lp18
Vit
p19
atp20
Rp21
(dp22
g11
S'start: 4'
p23
sbatp24
Rp25
(dp26
g11
S'sent: 2'
p27
sbatp28
Rp29
(dp30
g11
S'id: 1'
p31
sbag0
(g1
g2
(lp32
g0
(g1
g2
(lp33
g0
(g1
g2
(lp34
V's
p35
atp36
Rp37
(dp38
g11
S'start: 3'
p39
sbatp40
Rp41
(dp42
g11
S'sent: 1'
p43
sbag0
(g1
g2
(lp44
g0
(g1
g2
(lp45
V's
p46
atp47
Rp48
(dp49
g11
S'start: 3'
p50
sbatp51
Rp52
(dp53
g11
S'sent: 4'
p54
sbag0
(g1
g2
(lp55
g0
(g1
g2
(lp56
Vit
p57
atp58
Rp59
(dp60
g11
S'start: 20'
p61
sbatp62
Rp63
(dp64
g11
S'sent: 4'
p65
sbag0
(g1
g2
(lp66
g0
(g1
g2
(lp67
Vit
p68
atp69
Rp70
(dp71
g11
S'start: 27'
p72
sbatp73
Rp74
(dp75
g11
S'sent: 4'
p76
sbag0
(g1
g2
(lp77
g0
(g1
g2
(lp78
Vit
p79
atp80
Rp81
(dp82
g11
S'start: 38'
p83
sbatp84
Rp85
(dp86
g11
S'sent: 5'
p87
sbag0
(g1
g2
(lp88
g0
(g1
g2
(lp89
Vit
p90
atp91
Rp92
(dp93
g11
S'start: 43'
p94
sbatp95
Rp96
(dp97
g11
S'sent: 5'
p98
sbag0
(g1
g2
(lp99
g0
(g1
g2
(lp100
Vit
p101
atp102
Rp103
(dp104
g11
S'start: 47'
p105
sbatp106
Rp107
(dp108
g11
S'sent: 5'
p109
sbag0
(g1
g2
(lp110
g0
(g1
g2
(lp111
Vit
p112
atp113
Rp114
(dp115
g11
S'start: 19'
p116
sbatp117
Rp118
(dp119
g11
S'sent: 6'
p120
sbatp121
Rp122
(dp123
g11
S'id: 2'
p124
sbag0
(g1
g2
(lp125
g0
(g1
g2
(lp126
g0
(g1
g2
(lp127
VI
p128
atp129
Rp130
(dp131
g11
S'start: 1'
p132
sbatp133
Rp134
(dp135
g11
S'sent: 2'
p136
sbag0
(g1
g2
(lp137
g0
(g1
g2
(lp138
VI
p139
atp140
Rp141
(dp142
g11
S'start: 7'
p143
sbatp144
Rp145
(dp146
g11
S'sent: 2'
p147
sbag0
(g1
g2
(lp148
g0
(g1
g2
(lp149
VI
p150
atp151
Rp152
(dp153
g11
S'start: 3'
p154
sbatp155
Rp156
(dp157
g11
S'sent: 3'
p158
sbag0
(g1
g2
(lp159
g0
(g1
g2
(lp160
Vi
p161
atp162
Rp163
(dp164
g11
S'start: 17'
p165
sbatp166
Rp167
(dp168
g11
S'sent: 4'
p169
sbag0
(g1
g2
(lp170
g0
(g1
g2
(lp171
VI
p172
atp173
Rp174
(dp175
g11
S'start: 24'
p176
sbatp177
Rp178
(dp179
g11
S'sent: 4'
p180
sbag0
(g1
g2
(lp181
g0
(g1
g2
(lp182
VI
p183
atp184
Rp185
(dp186
g11
S'start: 15'
p187
sbatp188
Rp189
(dp190
g11
S'sent: 6'
p191
sbag0
(g1
g2
(lp192
g0
(g1
g2
(lp193
Vi
p194
atp195
Rp196
(dp197
g11
S'start: 7'
p198
sbatp199
Rp200
(dp201
g11
S'sent: 7'
p202
sbag0
(g1
g2
(lp203
g0
(g1
g2
(lp204
Vme
p205
atp206
Rp207
(dp208
g11
S'start: 2'
p209
sbatp210
Rp211
(dp212
g11
S'sent: 10'
p213
sbag0
(g1
g2
(lp214
g0
(g1
g2
(lp215
VI
p216
atp217
Rp218
(dp219
g11
S'start: 4'
p220
sbatp221
Rp222
(dp223
g11
S'sent: 10'
p224
sbag0
(g1
g2
(lp225
g0
(g1
g2
(lp226
VI
p227
atp228
Rp229
(dp230
g11
S'start: 11'
p231
sbatp232
Rp233
(dp234
g11
S'sent: 10'
p235
sbag0
(g1
g2
(lp236
g0
(g1
g2
(lp237
Vi
p238
atp239
Rp240
(dp241
g11
S'start: 3'
p242
sbatp243
Rp244
(dp245
g11
S'sent: 11'
p246
sbag0
(g1
g2
(lp247
g0
(g1
g2
(lp248
VI
p249
atp250
Rp251
(dp252
g11
S'start: 10'
p253
sbatp254
Rp255
(dp256
g11
S'sent: 11'
p257
sbatp258
Rp259
(dp260
g11
S'id: 3'
p261
sbag0
(g1
g2
(lp262
g0
(g1
g2
(lp263
g0
(g1
g2
(lp264
Vhorse , not a horse
p265
atp266
Rp267
(dp268
g11
S'start: 6'
p269
sbatp270
Rp271
(dp272
g11
S'sent: 3'
p273
sbag0
(g1
g2
(lp274
g0
(g1
g2
(lp275
Vthe horse
p276
atp277
Rp278
(dp279
g11
S'start: 13'
p280
sbatp281
Rp282
(dp283
g11
S'sent: 7'
p284
sbag0
(g1
g2
(lp285
g0
(g1
g2
(lp286
Vthe horse
p287
atp288
Rp289
(dp290
g11
S'start: 17'
p291
sbatp292
Rp293
(dp294
g11
S'sent: 7'
p295
sbag0
(g1
g2
(lp296
g0
(g1
g2
(lp297
Vthe horse
p298
atp299
Rp300
(dp301
g11
S'start: 7'
p302
sbatp303
Rp304
(dp305
g11
S'sent: 11'
p306
sbatp307
Rp308
(dp309
g11
S'id: 7'
p310
sbag0
(g1
g2
(lp311
g0
(g1
g2
(lp312
g0
(g1
g2
(lp313
Vthe man
p314
atp315
Rp316
(dp317
g11
S'start: 6'
p318
sbatp319
Rp320
(dp321
g11
S'sent: 4'
p322
sbag0
(g1
g2
(lp323
g0
(g1
g2
(lp324
Vthe man who is trying to scratch
p325
atp326
Rp327
(dp328
g11
S'start: 9'
p329
sbatp330
Rp331
(dp332
g11
S'sent: 4'
p333
sbag0
(g1
g2
(lp334
g0
(g1
g2
(lp335
Vhis
p336
atp337
Rp338
(dp339
g11
S'start: 10'
p340
sbatp341
Rp342
(dp343
g11
S'sent: 5'
p344
sbag0
(g1
g2
(lp345
g0
(g1
g2
(lp346
Vhe
p347
atp348
Rp349
(dp350
g11
S'start: 22'
p351
sbatp352
Rp353
(dp354
g11
S'sent: 5'
p355
sbag0
(g1
g2
(lp356
g0
(g1
g2
(lp357
Vhe
p358
atp359
Rp360
(dp361
g11
S'start: 28'
p362
sbatp363
Rp364
(dp365
g11
S'sent: 5'
p366
sbatp367
Rp368
(dp369
g11
S'id: 10'
p370
sbag0
(g1
g2
(lp371
g0
(g1
g2
(lp372
g0
(g1
g2
(lp373
VA man
p374
atp375
Rp376
(dp377
g11
S'start: 1'
p378
sbatp379
Rp380
(dp381
g11
S'sent: 6'
p382
sbag0
(g1
g2
(lp383
g0
(g1
g2
(lp384
Vhe
p385
atp386
Rp387
(dp388
g11
S'start: 21'
p389
sbatp390
Rp391
(dp392
g11
S'sent: 6'
p393
sbatp394
Rp395
(dp396
g11
S'id: 22'
p397
sbag0
(g1
g2
(lp398
g0
(g1
g2
(lp399
g0
(g1
g2
(lp400
Vthe very far right
p401
atp402
Rp403
(dp404
g11
S'start: 3'
p405
sbatp406
Rp407
(dp408
g11
S'sent: 7'
p409
sbag0
(g1
g2
(lp410
g0
(g1
g2
(lp411
Vit
p412
atp413
Rp414
(dp415
g11
S'start: 7'
p416
sbatp417
Rp418
(dp419
g11
S'sent: 10'
p420
sbatp421
Rp422
(dp423
g11
S'id: 27'
p424
sbag0
(g1
g2
(lp425
g0
(g1
g2
(lp426
g0
(g1
g2
(lp427
Vthe lady 's
p428
atp429
Rp430
(dp431
g11
S'start: 9'
p432
sbatp433
Rp434
(dp435
g11
S'sent: 7'
p436
sbag0
(g1
g2
(lp437
g0
(g1
g2
(lp438
Vshe
p439
atp440
Rp441
(dp442
g11
S'start: 2'
p443
sbatp444
Rp445
(dp446
g11
S'sent: 8'
p447
sbag0
(g1
g2
(lp448
g0
(g1
g2
(lp449
Vher
p450
atp451
Rp452
(dp453
g11
S'start: 10'
p454
sbatp455
Rp456
(dp457
g11
S'sent: 8'
p458
sbag0
(g1
g2
(lp459
g0
(g1
g2
(lp460
Vshe
p461
atp462
Rp463
(dp464
g11
S'start: 14'
p465
sbatp466
Rp467
(dp468
g11
S'sent: 8'
p469
sbag0
(g1
g2
(lp470
g0
(g1
g2
(lp471
Vshe
p472
atp473
Rp474
(dp475
g11
S'start: 19'
p476
sbatp477
Rp478
(dp479
g11
S'sent: 8'
p480
sbag0
(g1
g2
(lp481
g0
(g1
g2
(lp482
V's
p483
atp484
Rp485
(dp486
g11
S'start: 2'
p487
sbatp488
Rp489
(dp490
g11
S'sent: 9'
p491
sbatp492
Rp493
(dp494
g11
S'id: 29'
p495
sbatp496
Rp497
(dp498
g11
S'coreferences'
p499
sb.