ccopy_reg
_reconstructor
p0
(cnltk.tree
Tree
p1
c__builtin__
list
p2
(lp3
g0
(g1
g2
(lp4
tp5
Rp6
(dp7
S'_label'
p8
S'id: 0'
p9
sbag0
(g1
g2
(lp10
g0
(g1
g2
(lp11
g0
(g1
g2
(lp12
(lp13
S'word: a, index: 3'
p14
aatp15
Rp16
(dp17
g8
Vdet
p18
sbag0
(g1
g2
(lp19
(lp20
S'word: s-u-r, index: 4'
p21
aatp22
Rp23
(dp24
g8
Vamod
p25
sbag0
(g1
g2
(lp26
(lp27
S'word: circus, index: 7'
p28
aatp29
Rp30
(dp31
g8
Vappos
p32
sbag0
(g1
g2
(lp33
(lp34
S'word: This, index: 1'
p35
aatp36
Rp37
(dp38
g8
Vnsubj
p39
sbag0
(g1
g2
(lp40
(lp41
S'word: is, index: 2'
p42
aatp43
Rp44
(dp45
g8
Vcop
p46
sbatp47
Rp48
(dp49
g8
S'word: circus, index: 5'
p50
sbatp51
Rp52
(dp53
g8
S'id: 1'
p54
sbag0
(g1
g2
(lp55
g0
(g1
g2
(lp56
g0
(g1
g2
(lp57
g0
(g1
g2
(lp58
g0
(g1
g2
(lp59
g0
(g1
g2
(lp60
g0
(g1
g2
(lp61
g0
(g1
g2
(lp62
g0
(g1
g2
(lp63
(lp64
S'word: clown, index: 11'
p65
aatp66
Rp67
(dp68
g8
Vappos
p69
sbatp70
Rp71
(dp72
g8
S'word: clown, index: 9'
p73
sbatp74
Rp75
(dp76
g8
Vappos
p77
sbatp78
Rp79
(dp80
g8
S'word: clown, index: 7'
p81
sbatp82
Rp83
(dp84
g8
Vnsubj
p85
sbag0
(g1
g2
(lp86
(lp87
S'word: that, index: 4'
p88
aatp89
Rp90
(dp91
g8
Vmark
p92
sbag0
(g1
g2
(lp93
(lp94
S'word: there, index: 5'
p95
aatp96
Rp97
(dp98
g8
Vexpl
p99
sbatp100
Rp101
(dp102
g8
S'word: is, index: 6'
p103
sbatp104
Rp105
(dp106
g8
Vccomp
p107
sbag0
(g1
g2
(lp108
(lp109
S'word: There, index: 1'
p110
aatp111
Rp112
(dp113
g8
Vexpl
p114
sbatp115
Rp116
(dp117
g8
S'word: is, index: 2'
p118
sbatp119
Rp120
(dp121
g8
S'id: 2'
p122
sbag0
(g1
g2
(lp123
g0
(g1
g2
(lp124
g0
(g1
g2
(lp125
g0
(g1
g2
(lp126
g0
(g1
g2
(lp127
g0
(g1
g2
(lp128
g0
(g1
g2
(lp129
g0
(g1
g2
(lp130
g0
(g1
g2
(lp131
(lp132
S'word: a, index: 26'
p133
aatp134
Rp135
(dp136
g8
Vdet
p137
sbatp138
Rp139
(dp140
g8
S'word: mom, index: 27'
p141
sbatp142
Rp143
(dp144
g8
Vnpadvmod
p145
sbatp146
Rp147
(dp148
g8
S'word: up, index: 28'
p149
sbatp150
Rp151
(dp152
g8
Vadvmod
p153
sbag0
(g1
g2
(lp154
(lp155
S'word: there, index: 29'
p156
aatp157
Rp158
(dp159
g8
Vadvmod
p160
sbag0
(g1
g2
(lp161
g0
(g1
g2
(lp162
g0
(g1
g2
(lp163
(lp164
S'word: that, index: 31'
p165
aatp166
Rp167
(dp168
g8
Vnsubj
p169
sbag0
(g1
g2
(lp170
(lp171
S"word: 's, index: 32"
p172
aatp173
Rp174
(dp175
g8
Vcop
p176
sbag0
(g1
g2
(lp177
(lp178
S'word: a, index: 33'
p179
aatp180
Rp181
(dp182
g8
Vdet
p183
sbatp184
Rp185
(dp186
g8
S'word: mom, index: 34'
p187
sbatp188
Rp189
(dp190
g8
Vccomp
p191
sbag0
(g1
g2
(lp192
g0
(g1
g2
(lp193
g0
(g1
g2
(lp194
(lp195
S'word: a, index: 3'
p196
aatp197
Rp198
(dp199
g8
Vdet
p200
sbag0
(g1
g2
(lp201
(lp202
S'word: little, index: 4'
p203
aatp204
Rp205
(dp206
g8
Vamod
p207
sbatp208
Rp209
(dp210
g8
S'word: girl, index: 5'
p211
sbatp212
Rp213
(dp214
g8
Vnsubj
p215
sbag0
(g1
g2
(lp216
(lp217
S'word: there, index: 24'
p218
aatp219
Rp220
(dp221
g8
Vexpl
p222
sbatp223
Rp224
(dp225
g8
S"word: 's, index: 25"
p226
sbatp227
Rp228
(dp229
g8
Vconj
p230
sbag0
(g1
g2
(lp231
g0
(g1
g2
(lp232
g0
(g1
g2
(lp233
(lp234
S'word: there, index: 12'
p235
aatp236
Rp237
(dp238
g8
Vexpl
p239
sbag0
(g1
g2
(lp240
g0
(g1
g2
(lp241
g0
(g1
g2
(lp242
(lp243
S'word: a, index: 14'
p244
aatp245
Rp246
(dp247
g8
Vdet
p248
sbatp249
Rp250
(dp251
g8
S'word: boy, index: 15'
p252
sbatp253
Rp254
(dp255
g8
Vnsubj
p256
sbatp257
Rp258
(dp259
g8
S"word: 's, index: 13"
p260
sbatp261
Rp262
(dp263
g8
Vccomp
p264
sbag0
(g1
g2
(lp265
(lp266
S'word: There, index: 1'
p267
aatp268
Rp269
(dp270
g8
Vexpl
p271
sbag0
(g1
g2
(lp272
g0
(g1
g2
(lp273
g0
(g1
g2
(lp274
(lp275
S'word: there, index: 17'
p276
aatp277
Rp278
(dp279
g8
Vexpl
p280
sbag0
(g1
g2
(lp281
g0
(g1
g2
(lp282
g0
(g1
g2
(lp283
(lp284
S'word: another, index: 19'
p285
aatp286
Rp287
(dp288
g8
Vdet
p289
sbag0
(g1
g2
(lp290
(lp291
S'word: little, index: 20'
p292
aatp293
Rp294
(dp295
g8
Vamod
p296
sbatp297
Rp298
(dp299
g8
S'word: girl, index: 21'
p300
sbatp301
Rp302
(dp303
g8
Vnsubj
p304
sbatp305
Rp306
(dp307
g8
S"word: 's, index: 18"
p308
sbatp309
Rp310
(dp311
g8
Vccomp
p312
sbag0
(g1
g2
(lp313
g209
atp314
Rp315
(dp316
g8
Vnsubj
p317
sbag0
(g1
g2
(lp318
g0
(g1
g2
(lp319
g0
(g1
g2
(lp320
g0
(g1
g2
(lp321
g0
(g1
g2
(lp322
(lp323
S'word: a, index: 9'
p324
aatp325
Rp326
(dp327
g8
Vdet
p328
sbatp329
Rp330
(dp331
g8
S'word: dad, index: 10'
p332
sbatp333
Rp334
(dp335
g8
Vnsubj
p336
sbag0
(g1
g2
(lp337
(lp338
S'word: there, index: 7'
p339
aatp340
Rp341
(dp342
g8
Vexpl
p343
sbatp344
Rp345
(dp346
g8
S"word: 's, index: 8"
p347
sbatp348
Rp349
(dp350
g8
Vccomp
p351
sbatp352
Rp353
(dp354
g8
S"word: 's, index: 2"
p355
sbatp356
Rp357
(dp358
g8
S'id: 3'
p359
sbag0
(g1
g2
(lp360
g0
(g1
g2
(lp361
g0
(g1
g2
(lp362
g0
(g1
g2
(lp363
g0
(g1
g2
(lp364
g0
(g1
g2
(lp365
g0
(g1
g2
(lp366
(lp367
S'word: there, index: 14'
p368
aatp369
Rp370
(dp371
g8
Vexpl
p372
sbag0
(g1
g2
(lp373
g0
(g1
g2
(lp374
g0
(g1
g2
(lp375
(lp376
S'word: the, index: 17'
p377
aatp378
Rp379
(dp380
g8
Vdet
p381
sbag0
(g1
g2
(lp382
(lp383
S'word: horse, index: 20'
p384
aatp385
Rp386
(dp387
g8
Vappos
p388
sbatp389
Rp390
(dp391
g8
S'word: house, index: 18'
p392
sbatp393
Rp394
(dp395
g8
Vprep
p396
sbatp397
Rp398
(dp399
g8
S'word: running, index: 15'
p400
sbatp401
Rp402
(dp403
g8
Vprepc
p404
sbag0
(g1
g2
(lp405
(lp406
S'word: that, index: 9'
p407
aatp408
Rp409
(dp410
g8
Vnsubj
p411
sbag0
(g1
g2
(lp412
(lp413
S"word: 's, index: 10"
p414
aatp415
Rp416
(dp417
g8
Vcop
p418
sbag0
(g1
g2
(lp419
(lp420
S'word: a, index: 11'
p421
aatp422
Rp423
(dp424
g8
Vdet
p425
sbatp426
Rp427
(dp428
g8
S'word: woman, index: 12'
p429
sbatp430
Rp431
(dp432
g8
Vconj
p433
sbag0
(g1
g2
(lp434
(lp435
S'word: now, index: 2'
p436
aatp437
Rp438
(dp439
g8
Vadvmod
p440
sbag0
(g1
g2
(lp441
(lp442
S'word: there, index: 3'
p443
aatp444
Rp445
(dp446
g8
Vexpl
p447
sbag0
(g1
g2
(lp448
g0
(g1
g2
(lp449
g0
(g1
g2
(lp450
(lp451
S'word: a, index: 5'
p452
aatp453
Rp454
(dp455
g8
Vdet
p456
sbatp457
Rp458
(dp459
g8
S'word: horse, index: 6'
p460
sbatp461
Rp462
(dp463
g8
Vnsubj
p464
sbatp465
Rp466
(dp467
g8
S"word: 's, index: 4"
p468
sbatp469
Rp470
(dp471
g8
S'id: 4'
p472
sbag0
(g1
g2
(lp473
g0
(g1
g2
(lp474
g0
(g1
g2
(lp475
(lp476
S'word: And, index: 1'
p477
aatp478
Rp479
(dp480
g8
Vcc
p481
sbag0
(g1
g2
(lp482
g0
(g1
g2
(lp483
g0
(g1
g2
(lp484
(lp485
S'word: oben, index: 3'
p486
aatp487
Rp488
(dp489
g8
Vdep
p490
sbag0
(g1
g2
(lp491
(lp492
S'word: they, index: 5'
p493
aatp494
Rp495
(dp496
g8
Vappos
p497
sbatp498
Rp499
(dp500
g8
S'word: there, index: 2'
p501
sbatp502
Rp503
(dp504
g8
Vexpl
p505
sbag0
(g1
g2
(lp506
g0
(g1
g2
(lp507
g0
(g1
g2
(lp508
(lp509
S'word: the, index: 8'
p510
aatp511
Rp512
(dp513
g8
Vdet
p514
sbatp515
Rp516
(dp517
g8
S'word: abute, index: 9'
p518
sbatp519
Rp520
(dp521
g8
Vprep
p522
sbatp523
Rp524
(dp525
g8
S'word: go, index: 6'
p526
sbatp527
Rp528
(dp529
g8
S'id: 5'
p530
sbag0
(g1
g2
(lp531
g0
(g1
g2
(lp532
g0
(g1
g2
(lp533
(lp534
S'word: this, index: 2'
p535
aatp536
Rp537
(dp538
g8
Vdet
p539
sbag0
(g1
g2
(lp540
g0
(g1
g2
(lp541
g0
(g1
g2
(lp542
(lp543
S'word: he, index: 4'
p544
aatp545
Rp546
(dp547
g8
Vnsubj
p548
sbag0
(g1
g2
(lp549
(lp550
S'word: just, index: 5'
p551
aatp552
Rp553
(dp554
g8
Vadvmod
p555
sbag0
(g1
g2
(lp556
(lp557
S'word: that, index: 7'
p558
aatp559
Rp560
(dp561
g8
Vnsubj
p562
sbag0
(g1
g2
(lp563
(lp564
S"word: 's, index: 8"
p565
aatp566
Rp567
(dp568
g8
Vcop
p569
sbag0
(g1
g2
(lp570
(lp571
S'word: a, index: 9'
p572
aatp573
Rp574
(dp575
g8
Vdet
p576
sbag0
(g1
g2
(lp577
(lp578
S'word: cow, index: 11'
p579
aatp580
Rp581
(dp582
g8
Vdep
p583
sbatp584
Rp585
(dp586
g8
S'word: clown, index: 13'
p587
sbatp588
Rp589
(dp590
g8
Vccomp
p591
sbag0
(g1
g2
(lp592
(lp593
S'word: And, index: 1'
p594
aatp595
Rp596
(dp597
g8
Vcc
p598
sbatp599
Rp600
(dp601
g8
S'word: guy, index: 3'
p602
sbatp603
Rp604
(dp605
g8
S'id: 6'
p606
sbag0
(g1
g2
(lp607
g0
(g1
g2
(lp608
g0
(g1
g2
(lp609
g0
(g1
g2
(lp610
g0
(g1
g2
(lp611
(lp612
S'word: the, index: 4'
p613
aatp614
Rp615
(dp616
g8
Vdet
p617
sbatp618
Rp619
(dp620
g8
S'word: stuff, index: 5'
p621
sbatp622
Rp623
(dp624
g8
Vdobj
p625
sbag0
(g1
g2
(lp626
g0
(g1
g2
(lp627
g0
(g1
g2
(lp628
(lp629
S'word: the, index: 7'
p630
aatp631
Rp632
(dp633
g8
Vdet
p634
sbatp635
Rp636
(dp637
g8
S'word: boys, index: 8'
p638
sbatp639
Rp640
(dp641
g8
Vprep
p642
sbag0
(g1
g2
(lp643
(lp644
S'word: He, index: 1'
p645
aatp646
Rp647
(dp648
g8
Vnsubj
p649
sbag0
(g1
g2
(lp650
(lp651
S"word: 's, index: 2"
p652
aatp653
Rp654
(dp655
g8
Vaux
p656
sbatp657
Rp658
(dp659
g8
S'word: throwing, index: 3'
p660
sbatp661
Rp662
(dp663
g8
S'id: 7'
p664
sbag0
(g1
g2
(lp665
g0
(g1
g2
(lp666
g0
(g1
g2
(lp667
(lp668
S'word: it, index: 10'
p669
aatp670
Rp671
(dp672
g8
Vnsubj
p673
sbag0
(g1
g2
(lp674
(lp675
S'word: lion, index: 12'
p676
aatp677
Rp678
(dp679
g8
Vdep
p680
sbag0
(g1
g2
(lp681
g0
(g1
g2
(lp682
g0
(g1
g2
(lp683
(lp684
S'word: And, index: 1'
p685
aatp686
Rp687
(dp688
g8
Vcc
p689
sbag0
(g1
g2
(lp690
(lp691
S'word: now, index: 2'
p692
aatp693
Rp694
(dp695
g8
Vadvmod
p696
sbag0
(g1
g2
(lp697
(lp698
S'word: there, index: 3'
p699
aatp700
Rp701
(dp702
g8
Vexpl
p703
sbag0
(g1
g2
(lp704
g0
(g1
g2
(lp705
g0
(g1
g2
(lp706
(lp707
S'word: lion, index: 8'
p708
aatp709
Rp710
(dp711
g8
Vappos
p712
sbag0
(g1
g2
(lp713
(lp714
S'word: a, index: 5'
p715
aatp716
Rp717
(dp718
g8
Vdet
p719
sbatp720
Rp721
(dp722
g8
S'word: lin, index: 6'
p723
sbatp724
Rp725
(dp726
g8
Vnsubj
p727
sbatp728
Rp729
(dp730
g8
S"word: 's, index: 4"
p731
sbatp732
Rp733
(dp734
g8
Vccomp
p735
sbatp736
Rp737
(dp738
g8
S"word: 's, index: 11"
p739
sbatp740
Rp741
(dp742
g8
S'id: 8'
p743
sbag0
(g1
g2
(lp744
g0
(g1
g2
(lp745
g0
(g1
g2
(lp746
(lp747
S'word: that, index: 2'
p748
aatp749
Rp750
(dp751
g8
Vnsubj
p752
sbag0
(g1
g2
(lp753
(lp754
S"word: 's, index: 3"
p755
aatp756
Rp757
(dp758
g8
Vcop
p759
sbag0
(g1
g2
(lp760
(lp761
S'word: a, index: 4'
p762
aatp763
Rp764
(dp765
g8
Vdet
p766
sbag0
(g1
g2
(lp767
g0
(g1
g2
(lp768
g0
(g1
g2
(lp769
g0
(g1
g2
(lp770
g0
(g1
g2
(lp771
(lp772
S'word: his, index: 12'
p773
aatp774
Rp775
(dp776
g8
Vposs
p777
sbatp778
Rp779
(dp780
g8
S'word: house, index: 13'
p781
sbatp782
Rp783
(dp784
g8
Vprep
p785
sbag0
(g1
g2
(lp786
(lp787
S'word: that, index: 9'
p788
aatp789
Rp790
(dp791
g8
Vnsubj
p792
sbatp793
Rp794
(dp795
g8
S"word: 's, index: 10"
p796
sbatp797
Rp798
(dp799
g8
Vconj
p800
sbatp801
Rp802
(dp803
g8
S'word: man, index: 5'
p804
sbatp805
Rp806
(dp807
g8
S'id: 9'
p808
sbag0
(g1
g2
(lp809
g0
(g1
g2
(lp810
g0
(g1
g2
(lp811
(lp812
S'word: he, index: 2'
p813
aatp814
Rp815
(dp816
g8
Vnsubj
p817
sbag0
(g1
g2
(lp818
g0
(g1
g2
(lp819
g0
(g1
g2
(lp820
(lp821
S'word: the, index: 5'
p822
aatp823
Rp824
(dp825
g8
Vdet
p826
sbatp827
Rp828
(dp829
g8
S'word: lion, index: 6'
p830
sbatp831
Rp832
(dp833
g8
Vprep
p834
sbag0
(g1
g2
(lp835
g0
(g1
g2
(lp836
g0
(g1
g2
(lp837
(lp838
S'word: that, index: 9'
p839
aatp840
Rp841
(dp842
g8
Vnsubj
p843
sbag0
(g1
g2
(lp844
(lp845
S"word: 's, index: 10"
p846
aatp847
Rp848
(dp849
g8
Vcop
p850
sbag0
(g1
g2
(lp851
(lp852
S'word: a, index: 11'
p853
aatp854
Rp855
(dp856
g8
Vdet
p857
sbag0
(g1
g2
(lp858
(lp859
S'word: big, index: 12'
p860
aatp861
Rp862
(dp863
g8
Vamod
p864
sbatp865
Rp866
(dp867
g8
S'word: lown, index: 13'
p868
sbatp869
Rp870
(dp871
g8
Vconj
p872
sbatp873
Rp874
(dp875
g8
S"word: 's, index: 3"
p876
sbatp877
Rp878
(dp879
g8
S'id: 10'
p880
sbag0
(g1
g2
(lp881
g0
(g1
g2
(lp882
g0
(g1
g2
(lp883
(lp884
S'word: He, index: 1'
p885
aatp886
Rp887
(dp888
g8
Vnsubjpass
p889
sbag0
(g1
g2
(lp890
(lp891
S"word: 's, index: 2"
p892
aatp893
Rp894
(dp895
g8
Vauxpass
p896
sbag0
(g1
g2
(lp897
g0
(g1
g2
(lp898
g0
(g1
g2
(lp899
(lp900
S'word: the, index: 4'
p901
aatp902
Rp903
(dp904
g8
Vdet
p905
sbag0
(g1
g2
(lp906
(lp907
S'word: lion, index: 7'
p908
aatp909
Rp910
(dp911
g8
Vconj
p912
sbag0
(g1
g2
(lp913
g0
(g1
g2
(lp914
g0
(g1
g2
(lp915
(lp916
S'word: the, index: 9'
p917
aatp918
Rp919
(dp920
g8
Vdet
p921
sbag0
(g1
g2
(lp922
(lp923
S'word: pair, index: 10'
p924
aatp925
Rp926
(dp927
g8
Vnn
p928
sbag0
(g1
g2
(lp929
(lp930
S'word: p-a-i, index: 12'
p931
aatp932
Rp933
(dp934
g8
Vdep
p935
sbatp936
Rp937
(dp938
g8
S'word: pair, index: 14'
p939
sbatp940
Rp941
(dp942
g8
Vconj
p943
sbatp944
Rp945
(dp946
g8
S'word: lown, index: 5'
p947
sbatp948
Rp949
(dp950
g8
Vdobj
p951
sbag0
(g1
g2
(lp952
(lp953
S'word: lion, index: 7'
p954
aatp955
Rp956
(dp957
g8
Vdobj
p958
sbag0
(g1
g2
(lp959
g937
atp960
Rp961
(dp962
g8
Vdobj
p963
sbatp964
Rp965
(dp966
g8
S'word: got, index: 3'
p967
sbatp968
Rp969
(dp970
g8
S'id: 11'
p971
sbag0
(g1
g2
(lp972
g0
(g1
g2
(lp973
g0
(g1
g2
(lp974
g0
(g1
g2
(lp975
g0
(g1
g2
(lp976
(lp977
S'word: these, index: 7'
p978
aatp979
Rp980
(dp981
g8
Vnsubj
p982
sbag0
(g1
g2
(lp983
(lp984
S'word: are, index: 8'
p985
aatp986
Rp987
(dp988
g8
Vcop
p989
sbag0
(g1
g2
(lp990
(lp991
S'word: the, index: 9'
p992
aatp993
Rp994
(dp995
g8
Vdet
p996
sbatp997
Rp998
(dp999
g8
S'word: bars, index: 10'
p1000
sbatp1001
Rp1002
(dp1003
g8
Vconj
p1004
sbag0
(g1
g2
(lp1005
(lp1006
S'word: That, index: 1'
p1007
aatp1008
Rp1009
(dp1010
g8
Vnsubj
p1011
sbag0
(g1
g2
(lp1012
(lp1013
S"word: 's, index: 2"
p1014
aatp1015
Rp1016
(dp1017
g8
Vcop
p1018
sbag0
(g1
g2
(lp1019
(lp1020
S'word: a, index: 3'
p1021
aatp1022
Rp1023
(dp1024
g8
Vdet
p1025
sbatp1026
Rp1027
(dp1028
g8
S'word: man, index: 4'
p1029
sbatp1030
Rp1031
(dp1032
g8
S'id: 12'
p1033
sbag0
(g1
g2
(lp1034
g0
(g1
g2
(lp1035
g0
(g1
g2
(lp1036
g0
(g1
g2
(lp1037
g0
(g1
g2
(lp1038
(lp1039
S'word: the, index: 10'
p1040
aatp1041
Rp1042
(dp1043
g8
Vdet
p1044
sbag0
(g1
g2
(lp1045
(lp1046
S'word: up, index: 12'
p1047
aatp1048
Rp1049
(dp1050
g8
Vdep
p1051
sbag0
(g1
g2
(lp1052
g0
(g1
g2
(lp1053
g0
(g1
g2
(lp1054
(lp1055
S'word: the, index: 14'
p1056
aatp1057
Rp1058
(dp1059
g8
Vdet
p1060
sbatp1061
Rp1062
(dp1063
g8
S'word: water, index: 15'
p1064
sbatp1065
Rp1066
(dp1067
g8
Vpobj
p1068
sbatp1069
Rp1070
(dp1071
g8
S'word: in, index: 13'
p1072
sbatp1073
Rp1074
(dp1075
g8
Vdobj
p1076
sbag0
(g1
g2
(lp1077
(lp1078
S'word: And, index: 1'
p1079
aatp1080
Rp1081
(dp1082
g8
Vcc
p1083
sbag0
(g1
g2
(lp1084
g0
(g1
g2
(lp1085
g0
(g1
g2
(lp1086
(lp1087
S'word: woman, index: 8'
p1088
aatp1089
Rp1090
(dp1091
g8
Vappos
p1092
sbag0
(g1
g2
(lp1093
(lp1094
S'word: and, index: 3'
p1095
aatp1096
Rp1097
(dp1098
g8
Vcc
p1099
sbag0
(g1
g2
(lp1100
(lp1101
S'word: here, index: 4'
p1102
aatp1103
Rp1104
(dp1105
g8
Vposs
p1106
sbatp1107
Rp1108
(dp1109
g8
S'word: man, index: 6'
p1110
sbatp1111
Rp1112
(dp1113
g8
Vnsubj
p1114
sbatp1115
Rp1116
(dp1117
g8
S'word: watching, index: 9'
p1118
sbatp1119
Rp1120
(dp1121
g8
S'id: 13'
p1122
sbag0
(g1
g2
(lp1123
g0
(g1
g2
(lp1124
g0
(g1
g2
(lp1125
(lp1126
S'word: And, index: 1'
p1127
aatp1128
Rp1129
(dp1130
g8
Vcc
p1131
sbag0
(g1
g2
(lp1132
(lp1133
S'word: that, index: 2'
p1134
aatp1135
Rp1136
(dp1137
g8
Vnsubj
p1138
sbag0
(g1
g2
(lp1139
(lp1140
S"word: 's, index: 3"
p1141
aatp1142
Rp1143
(dp1144
g8
Vcop
p1145
sbag0
(g1
g2
(lp1146
(lp1147
S'word: a, index: 4'
p1148
aatp1149
Rp1150
(dp1151
g8
Vdet
p1152
sbatp1153
Rp1154
(dp1155
g8
S'word: man, index: 5'
p1156
sbatp1157
Rp1158
(dp1159
g8
S'id: 14'
p1160
sbag0
(g1
g2
(lp1161
g0
(g1
g2
(lp1162
g0
(g1
g2
(lp1163
(lp1164
S'word: And, index: 1'
p1165
aatp1166
Rp1167
(dp1168
g8
Vcc
p1169
sbag0
(g1
g2
(lp1170
(lp1171
S'word: that, index: 2'
p1172
aatp1173
Rp1174
(dp1175
g8
Vnsubj
p1176
sbag0
(g1
g2
(lp1177
(lp1178
S"word: 's, index: 3"
p1179
aatp1180
Rp1181
(dp1182
g8
Vcop
p1183
sbag0
(g1
g2
(lp1184
(lp1185
S'word: the, index: 4'
p1186
aatp1187
Rp1188
(dp1189
g8
Vdet
p1190
sbag0
(g1
g2
(lp1191
(lp1192
S'word: that, index: 7'
p1193
aatp1194
Rp1195
(dp1196
g8
Vadvmod
p1197
sbatp1198
Rp1199
(dp1200
g8
S'word: small, index: 5'
p1201
sbatp1202
Rp1203
(dp1204
g8
S'id: 15'
p1205
sbag0
(g1
g2
(lp1206
g0
(g1
g2
(lp1207
g0
(g1
g2
(lp1208
(lp1209
S'word: And, index: 1'
p1210
aatp1211
Rp1212
(dp1213
g8
Vcc
p1214
sbag0
(g1
g2
(lp1215
g0
(g1
g2
(lp1216
g0
(g1
g2
(lp1217
(lp1218
S'word: that, index: 5'
p1219
aatp1220
Rp1221
(dp1222
g8
Vconj
p1223
sbatp1224
Rp1225
(dp1226
g8
S'word: I, index: 2'
p1227
sbatp1228
Rp1229
(dp1230
g8
Vnsubj
p1231
sbag0
(g1
g2
(lp1232
(lp1233
S'word: that, index: 5'
p1234
aatp1235
Rp1236
(dp1237
g8
Vnsubj
p1238
sbag0
(g1
g2
(lp1239
(lp1240
S"word: 's, index: 6"
p1241
aatp1242
Rp1243
(dp1244
g8
Vcop
p1245
sbag0
(g1
g2
(lp1246
(lp1247
S'word: a, index: 7'
p1248
aatp1249
Rp1250
(dp1251
g8
Vdet
p1252
sbatp1253
Rp1254
(dp1255
g8
S'word: man, index: 8'
p1256
sbatp1257
Rp1258
(dp1259
g8
S'id: 16'
p1260
sbag0
(g1
g2
(lp1261
g0
(g1
g2
(lp1262
g0
(g1
g2
(lp1263
g0
(g1
g2
(lp1264
g0
(g1
g2
(lp1265
(lp1266
S'word: I, index: 5'
p1267
aatp1268
Rp1269
(dp1270
g8
Vnsubj
p1271
sbag0
(g1
g2
(lp1272
g0
(g1
g2
(lp1273
g0
(g1
g2
(lp1274
(lp1275
S'word: that, index: 22'
p1276
aatp1277
Rp1278
(dp1279
g8
Vnsubj
p1280
sbag0
(g1
g2
(lp1281
(lp1282
S"word: 's, index: 23"
p1283
aatp1284
Rp1285
(dp1286
g8
Vcop
p1287
sbag0
(g1
g2
(lp1288
(lp1289
S'word: pretty, index: 24'
p1290
aatp1291
Rp1292
(dp1293
g8
Vadvmod
p1294
sbatp1295
Rp1296
(dp1297
g8
S'word: nice, index: 25'
p1298
sbatp1299
Rp1300
(dp1301
g8
Vccomp
p1302
sbatp1303
Rp1304
(dp1305
g8
S'word: yeah, index: 21'
p1306
sbatp1307
Rp1308
(dp1309
g8
Vccomp
p1310
sbag0
(g1
g2
(lp1311
g0
(g1
g2
(lp1312
g0
(g1
g2
(lp1313
(lp1314
S'word: I, index: 5'
p1315
aatp1316
Rp1317
(dp1318
g8
Vnsubj
p1319
sbag0
(g1
g2
(lp1320
g1304
atp1321
Rp1322
(dp1323
g8
Vconj
p1324
sbag0
(g1
g2
(lp1325
g0
(g1
g2
(lp1326
g0
(g1
g2
(lp1327
(lp1328
S'word: him, index: 8'
p1329
aatp1330
Rp1331
(dp1332
g8
Vdobj
p1333
sbag0
(g1
g2
(lp1334
g0
(g1
g2
(lp1335
g0
(g1
g2
(lp1336
(lp1337
S'word: what, index: 9'
p1338
aatp1339
Rp1340
(dp1341
g8
Vdobj
p1342
sbag0
(g1
g2
(lp1343
g0
(g1
g2
(lp1344
g0
(g1
g2
(lp1345
(lp1346
S'word: the, index: 10'
p1347
aatp1348
Rp1349
(dp1350
g8
Vdet
p1351
sbag0
(g1
g2
(lp1352
g0
(g1
g2
(lp1353
g0
(g1
g2
(lp1354
(lp1355
S'word: he, index: 12'
p1356
aatp1357
Rp1358
(dp1359
g8
Vnsubjpass
p1360
sbag0
(g1
g2
(lp1361
(lp1362
S"word: 's, index: 13"
p1363
aatp1364
Rp1365
(dp1366
g8
Vauxpass
p1367
sbag0
(g1
g2
(lp1368
g0
(g1
g2
(lp1369
g0
(g1
g2
(lp1370
(lp1371
S'word: i, index: 16'
p1372
aatp1373
Rp1374
(dp1375
g8
Vnn
p1376
sbatp1377
Rp1378
(dp1379
g8
S'word: cant, index: 17'
p1380
sbatp1381
Rp1382
(dp1383
g8
Vdobj
p1384
sbatp1385
Rp1386
(dp1387
g8
S'word: supposed, index: 14'
p1388
sbatp1389
Rp1390
(dp1391
g8
Vrcmod
p1392
sbatp1393
Rp1394
(dp1395
g8
S'word: name, index: 11'
p1396
sbatp1397
Rp1398
(dp1399
g8
Vnsubj
p1400
sbatp1401
Rp1402
(dp1403
g8
S'word: remember, index: 18'
p1404
sbatp1405
Rp1406
(dp1407
g8
Vdep
p1408
sbatp1409
Rp1410
(dp1411
g8
S'word: give, index: 7'
p1412
sbatp1413
Rp1414
(dp1415
g8
Vxcomp
p1416
sbatp1417
Rp1418
(dp1419
g8
S'word: cant, index: 6'
p1420
sbatp1421
Rp1422
(dp1423
g8
Vccomp
p1424
sbag0
(g1
g2
(lp1425
(lp1426
S'word: And, index: 1'
p1427
aatp1428
Rp1429
(dp1430
g8
Vcc
p1431
sbag0
(g1
g2
(lp1432
(lp1433
S'word: that, index: 2'
p1434
aatp1435
Rp1436
(dp1437
g8
Vnsubj
p1438
sbatp1439
Rp1440
(dp1441
g8
S"word: 's, index: 3"
p1442
sbatp1443
Rp1444
(dp1445
g8
S'id: 17'
p1446
sbag0
(g1
g2
(lp1447
g0
(g1
g2
(lp1448
g0
(g1
g2
(lp1449
(lp1450
S'word: that, index: 7'
p1451
aatp1452
Rp1453
(dp1454
g8
Vnsubj
p1455
sbag0
(g1
g2
(lp1456
g0
(g1
g2
(lp1457
g0
(g1
g2
(lp1458
(lp1459
S'word: that, index: 10'
p1460
aatp1461
Rp1462
(dp1463
g8
Vnsubj
p1464
sbag0
(g1
g2
(lp1465
(lp1466
S'word: in, index: 12'
p1467
aatp1468
Rp1469
(dp1470
g8
Vprep
p1471
sbatp1472
Rp1473
(dp1474
g8
S"word: 's, index: 11"
p1475
sbatp1476
Rp1477
(dp1478
g8
Vccomp
p1479
sbag0
(g1
g2
(lp1480
(lp1481
S'word: he, index: 4'
p1482
aatp1483
Rp1484
(dp1485
g8
Vccomp
p1486
sbag0
(g1
g2
(lp1487
g0
(g1
g2
(lp1488
g0
(g1
g2
(lp1489
(lp1490
S'word: he, index: 4'
p1491
aatp1492
Rp1493
(dp1494
g8
Vconj
p1495
sbatp1496
Rp1497
(dp1498
g8
S"word: 's, index: 5"
p1499
sbatp1500
Rp1501
(dp1502
g8
Vccomp
p1503
sbatp1504
Rp1505
(dp1506
g8
S"word: 's, index: 8"
p1507
sbatp1508
Rp1509
(dp1510
g8
S'id: 18'
p1511
sbatp1512
Rp1513
(dp1514
g8
S'sentences'
p1515
sb.