ccopy_reg
_reconstructor
p0
(cnltk.tree
Tree
p1
c__builtin__
list
p2
(lp3
g0
(g1
g2
(lp4
g0
(g1
g2
(lp5
g0
(g1
g2
(lp6
VI
p7
atp8
Rp9
(dp10
S'_label'
p11
S'start: 1'
p12
sbatp13
Rp14
(dp15
g11
S'sent: 1'
p16
sbag0
(g1
g2
(lp17
g0
(g1
g2
(lp18
VI
p19
atp20
Rp21
(dp22
g11
S'start: 12'
p23
sbatp24
Rp25
(dp26
g11
S'sent: 5'
p27
sbag0
(g1
g2
(lp28
g0
(g1
g2
(lp29
VI
p30
atp31
Rp32
(dp33
g11
S'start: 3'
p34
sbatp35
Rp36
(dp37
g11
S'sent: 6'
p38
sbag0
(g1
g2
(lp39
g0
(g1
g2
(lp40
VI
p41
atp42
Rp43
(dp44
g11
S'start: 7'
p45
sbatp46
Rp47
(dp48
g11
S'sent: 6'
p49
sbag0
(g1
g2
(lp50
g0
(g1
g2
(lp51
VI
p52
atp53
Rp54
(dp55
g11
S'start: 6'
p56
sbatp57
Rp58
(dp59
g11
S'sent: 13'
p60
sbatp61
Rp62
(dp63
g11
S'id: 1'
p64
sbag0
(g1
g2
(lp65
g0
(g1
g2
(lp66
g0
(g1
g2
(lp67
Va little girl who 's asking for cookies apparently from probably her brother , who is on the stool about to fall
p68
atp69
Rp70
(dp71
g11
S'start: 3'
p72
sbatp73
Rp74
(dp75
g11
S'sent: 1'
p76
sbag0
(g1
g2
(lp77
g0
(g1
g2
(lp78
Vher
p79
atp80
Rp81
(dp82
g11
S'start: 16'
p83
sbatp84
Rp85
(dp86
g11
S'sent: 2'
p87
sbag0
(g1
g2
(lp88
g0
(g1
g2
(lp89
Vshe
p90
atp91
Rp92
(dp93
g11
S'start: 2'
p94
sbatp95
Rp96
(dp97
g11
S'sent: 5'
p98
sbag0
(g1
g2
(lp99
g0
(g1
g2
(lp100
Vshe
p101
atp102
Rp103
(dp104
g11
S'start: 17'
p105
sbatp106
Rp107
(dp108
g11
S'sent: 5'
p109
sbag0
(g1
g2
(lp110
g0
(g1
g2
(lp111
Vher
p112
atp113
Rp114
(dp115
g11
S'start: 22'
p116
sbatp117
Rp118
(dp119
g11
S'sent: 5'
p120
sbatp121
Rp122
(dp123
g11
S'id: 2'
p124
sbag0
(g1
g2
(lp125
g0
(g1
g2
(lp126
g0
(g1
g2
(lp127
Vcookies
p128
atp129
Rp130
(dp131
g11
S'start: 10'
p132
sbatp133
Rp134
(dp135
g11
S'sent: 1'
p136
sbag0
(g1
g2
(lp137
g0
(g1
g2
(lp138
Vcookies
p139
atp140
Rp141
(dp142
g11
S'start: 30'
p143
sbatp144
Rp145
(dp146
g11
S'sent: 1'
p147
sbag0
(g1
g2
(lp148
g0
(g1
g2
(lp149
Vthe cookies
p150
atp151
Rp152
(dp153
g11
S'start: 14'
p154
sbatp155
Rp156
(dp157
g11
S'sent: 11'
p158
sbatp159
Rp160
(dp161
g11
S'id: 3'
p162
sbag0
(g1
g2
(lp163
g0
(g1
g2
(lp164
g0
(g1
g2
(lp165
Vprobably her brother
p166
atp167
Rp168
(dp169
g11
S'start: 13'
p170
sbatp171
Rp172
(dp173
g11
S'sent: 1'
p174
sbag0
(g1
g2
(lp175
g0
(g1
g2
(lp176
Vhe
p177
atp178
Rp179
(dp180
g11
S'start: 26'
p181
sbatp182
Rp183
(dp184
g11
S'sent: 1'
p185
sbag0
(g1
g2
(lp186
g0
(g1
g2
(lp187
VHe
p188
atp189
Rp190
(dp191
g11
S'start: 1'
p192
sbatp193
Rp194
(dp195
g11
S'sent: 2'
p196
sbag0
(g1
g2
(lp197
g0
(g1
g2
(lp198
Vhis
p199
atp200
Rp201
(dp202
g11
S'start: 5'
p203
sbatp204
Rp205
(dp206
g11
S'sent: 2'
p207
sbag0
(g1
g2
(lp208
g0
(g1
g2
(lp209
Vhimself
p210
atp211
Rp212
(dp213
g11
S'start: 11'
p214
sbatp215
Rp216
(dp217
g11
S'sent: 2'
p218
sbatp219
Rp220
(dp221
g11
S'id: 5'
p222
sbag0
(g1
g2
(lp223
g0
(g1
g2
(lp224
g0
(g1
g2
(lp225
Vone in his hand
p226
atp227
Rp228
(dp229
g11
S'start: 3'
p230
sbatp231
Rp232
(dp233
g11
S'sent: 2'
p234
sbag0
(g1
g2
(lp235
g0
(g1
g2
(lp236
Vprobably one for himself
p237
atp238
Rp239
(dp240
g11
S'start: 8'
p241
sbatp242
Rp243
(dp244
g11
S'sent: 2'
p245
sbatp246
Rp247
(dp248
g11
S'id: 12'
p249
sbag0
(g1
g2
(lp250
g0
(g1
g2
(lp251
g0
(g1
g2
(lp252
Vthe sink
p253
atp254
Rp255
(dp256
g11
S'start: 9'
p257
sbatp258
Rp259
(dp260
g11
S'sent: 4'
p261
sbag0
(g1
g2
(lp262
g0
(g1
g2
(lp263
Vit
p264
atp265
Rp266
(dp267
g11
S'start: 15'
p268
sbatp269
Rp270
(dp271
g11
S'sent: 4'
p272
sbatp273
Rp274
(dp275
g11
S'id: 21'
p276
sbag0
(g1
g2
(lp277
g0
(g1
g2
(lp278
g0
(g1
g2
(lp279
Vtwo
p280
atp281
Rp282
(dp283
g11
S'start: 4'
p284
sbatp285
Rp286
(dp287
g11
S'sent: 5'
p288
sbag0
(g1
g2
(lp289
g0
(g1
g2
(lp290
Vonly two
p291
atp292
Rp293
(dp294
g11
S'start: 27'
p295
sbatp296
Rp297
(dp298
g11
S'sent: 5'
p299
sbatp300
Rp301
(dp302
g11
S'id: 23'
p303
sbag0
(g1
g2
(lp304
g0
(g1
g2
(lp305
g0
(g1
g2
(lp306
Vher children
p307
atp308
Rp309
(dp310
g11
S'start: 22'
p311
sbatp312
Rp313
(dp314
g11
S'sent: 5'
p315
sbag0
(g1
g2
(lp316
g0
(g1
g2
(lp317
Vher children
p318
atp319
Rp320
(dp321
g11
S'start: 13'
p322
sbatp323
Rp324
(dp325
g11
S'sent: 9'
p326
sbatp327
Rp328
(dp329
g11
S'id: 30'
p330
sbag0
(g1
g2
(lp331
g0
(g1
g2
(lp332
g0
(g1
g2
(lp333
Va nice path that obviously leads to a garage , or to the home next door
p334
atp335
Rp336
(dp337
g11
S'start: 9'
p338
sbatp339
Rp340
(dp341
g11
S'sent: 6'
p342
sbag0
(g1
g2
(lp343
g0
(g1
g2
(lp344
Vit
p345
atp346
Rp347
(dp348
g11
S'start: 2'
p349
sbatp350
Rp351
(dp352
g11
S'sent: 7'
p353
sbag0
(g1
g2
(lp354
g0
(g1
g2
(lp355
Vspring time
p356
atp357
Rp358
(dp359
g11
S'start: 5'
p360
sbatp361
Rp362
(dp363
g11
S'sent: 7'
p364
sbatp365
Rp366
(dp367
g11
S'id: 35'
p368
sbag0
(g1
g2
(lp369
g0
(g1
g2
(lp370
g0
(g1
g2
(lp371
Vmother 's gon na slip if she 's not careful , because the water is under her feet , and she seems to be oblivious to it , or she is showing a bit of dismay on her face
p372
atp373
Rp374
(dp375
g11
S'start: 2'
p376
sbatp377
Rp378
(dp379
g11
S'sent: 8'
p380
sbag0
(g1
g2
(lp381
g0
(g1
g2
(lp382
VShe
p383
atp384
Rp385
(dp386
g11
S'start: 1'
p387
sbatp388
Rp389
(dp390
g11
S'sent: 9'
p391
sbag0
(g1
g2
(lp392
g0
(g1
g2
(lp393
Vshe
p394
atp395
Rp396
(dp397
g11
S'start: 8'
p398
sbatp399
Rp400
(dp401
g11
S'sent: 9'
p402
sbag0
(g1
g2
(lp403
g0
(g1
g2
(lp404
Vher
p405
atp406
Rp407
(dp408
g11
S'start: 13'
p409
sbatp410
Rp411
(dp412
g11
S'sent: 9'
p413
sbatp414
Rp415
(dp416
g11
S'id: 41'
p417
sbag0
(g1
g2
(lp418
g0
(g1
g2
(lp419
g0
(g1
g2
(lp420
V's
p421
atp422
Rp423
(dp424
g11
S'start: 3'
p425
sbatp426
Rp427
(dp428
g11
S'sent: 8'
p429
sbag0
(g1
g2
(lp430
g0
(g1
g2
(lp431
Vshe
p432
atp433
Rp434
(dp435
g11
S'start: 8'
p436
sbatp437
Rp438
(dp439
g11
S'sent: 8'
p440
sbag0
(g1
g2
(lp441
g0
(g1
g2
(lp442
Vher
p443
atp444
Rp445
(dp446
g11
S'start: 18'
p447
sbatp448
Rp449
(dp450
g11
S'sent: 8'
p451
sbag0
(g1
g2
(lp452
g0
(g1
g2
(lp453
Vshe
p454
atp455
Rp456
(dp457
g11
S'start: 22'
p458
sbatp459
Rp460
(dp461
g11
S'sent: 8'
p462
sbag0
(g1
g2
(lp463
g0
(g1
g2
(lp464
Vshe
p465
atp466
Rp467
(dp468
g11
S'start: 31'
p469
sbatp470
Rp471
(dp472
g11
S'sent: 8'
p473
sbag0
(g1
g2
(lp474
g0
(g1
g2
(lp475
Vher
p476
atp477
Rp478
(dp479
g11
S'start: 39'
p480
sbatp481
Rp482
(dp483
g11
S'sent: 8'
p484
sbatp485
Rp486
(dp487
g11
S'id: 42'
p488
sbag0
(g1
g2
(lp489
g0
(g1
g2
(lp490
g0
(g1
g2
(lp491
Vthe water
p492
atp493
Rp494
(dp495
g11
S'start: 14'
p496
sbatp497
Rp498
(dp499
g11
S'sent: 8'
p500
sbag0
(g1
g2
(lp501
g0
(g1
g2
(lp502
Vit
p503
atp504
Rp505
(dp506
g11
S'start: 28'
p507
sbatp508
Rp509
(dp510
g11
S'sent: 8'
p511
sbatp512
Rp513
(dp514
g11
S'id: 44'
p515
sbag0
(g1
g2
(lp516
g0
(g1
g2
(lp517
g0
(g1
g2
(lp518
Vthe , and the one little girl
p519
atp520
Rp521
(dp522
g11
S'start: 2'
p523
sbatp524
Rp525
(dp526
g11
S'sent: 10'
p527
sbag0
(g1
g2
(lp528
g0
(g1
g2
(lp529
Vthey
p530
atp531
Rp532
(dp533
g11
S'start: 19'
p534
sbatp535
Rp536
(dp537
g11
S'sent: 11'
p538
sbag0
(g1
g2
(lp539
g0
(g1
g2
(lp540
Vthem
p541
atp542
Rp543
(dp544
g11
S'start: 23'
p545
sbatp546
Rp547
(dp548
g11
S'sent: 11'
p549
sbag0
(g1
g2
(lp550
g0
(g1
g2
(lp551
Vthey
p552
atp553
Rp554
(dp555
g11
S'start: 2'
p556
sbatp557
Rp558
(dp559
g11
S'sent: 12'
p560
sbag0
(g1
g2
(lp561
g0
(g1
g2
(lp562
Vtheir
p563
atp564
Rp565
(dp566
g11
S'start: 5'
p567
sbatp568
Rp569
(dp570
g11
S'sent: 12'
p571
sbag0
(g1
g2
(lp572
g0
(g1
g2
(lp573
Vthem
p574
atp575
Rp576
(dp577
g11
S'start: 8'
p578
sbatp579
Rp580
(dp581
g11
S'sent: 12'
p582
sbag0
(g1
g2
(lp583
g0
(g1
g2
(lp584
Vthat
p585
atp586
Rp587
(dp588
g11
S'start: 2'
p589
sbatp590
Rp591
(dp592
g11
S'sent: 13'
p593
sbatp594
Rp595
(dp596
g11
S'id: 58'
p597
sbag0
(g1
g2
(lp598
g0
(g1
g2
(lp599
g0
(g1
g2
(lp600
Vthe
p601
atp602
Rp603
(dp604
g11
S'start: 2'
p605
sbatp606
Rp607
(dp608
g11
S'sent: 10'
p609
sbag0
(g1
g2
(lp610
g0
(g1
g2
(lp611
Vit
p612
atp613
Rp614
(dp615
g11
S'start: 28'
p616
sbatp617
Rp618
(dp619
g11
S'sent: 10'
p620
sbatp621
Rp622
(dp623
g11
S'id: 59'
p624
sbag0
(g1
g2
(lp625
g0
(g1
g2
(lp626
g0
(g1
g2
(lp627
Vthe one little girl
p628
atp629
Rp630
(dp631
g11
S'start: 5'
p632
sbatp633
Rp634
(dp635
g11
S'sent: 10'
p636
sbag0
(g1
g2
(lp637
g0
(g1
g2
(lp638
Vshe
p639
atp640
Rp641
(dp642
g11
S'start: 25'
p643
sbatp644
Rp645
(dp646
g11
S'sent: 10'
p647
sbag0
(g1
g2
(lp648
g0
(g1
g2
(lp649
Vshe
p650
atp651
Rp652
(dp653
g11
S'start: 12'
p654
sbatp655
Rp656
(dp657
g11
S'sent: 11'
p658
sbatp659
Rp660
(dp661
g11
S'id: 60'
p662
sbatp663
Rp664
(dp665
g11
S'coreferences'
p666
sb.