ccopy_reg
_reconstructor
p0
(cnltk.tree
Tree
p1
c__builtin__
list
p2
(lp3
g0
(g1
g2
(lp4
g0
(g1
g2
(lp5
g0
(g1
g2
(lp6
(lp7
S'word: so, index: 1'
p8
aatp9
Rp10
(dp11
S'_label'
p12
Vadvmod
p13
sbag0
(g1
g2
(lp14
(lp15
S'word: there, index: 2'
p16
aatp17
Rp18
(dp19
g12
Vexpl
p20
sbag0
(g1
g2
(lp21
g0
(g1
g2
(lp22
g0
(g1
g2
(lp23
(lp24
S'word: a, index: 4'
p25
aatp26
Rp27
(dp28
g12
Vdet
p29
sbag0
(g1
g2
(lp30
g0
(g1
g2
(lp31
g0
(g1
g2
(lp32
(lp33
S'word: a, index: 7'
p34
aatp35
Rp36
(dp37
g12
Vdet
p38
sbag0
(g1
g2
(lp39
g0
(g1
g2
(lp40
g0
(g1
g2
(lp41
(lp42
S'word: a, index: 11'
p43
aatp44
Rp45
(dp46
g12
Vdet
p47
sbatp48
Rp49
(dp50
g12
S'word: woman, index: 12'
p51
sbatp52
Rp53
(dp54
g12
Vconj
p55
sbatp56
Rp57
(dp58
g12
S'word: man, index: 8'
p59
sbatp60
Rp61
(dp62
g12
Vprep
p63
sbag0
(g1
g2
(lp64
g49
atp65
Rp66
(dp67
g12
Vprep
p68
sbatp69
Rp70
(dp71
g12
S'word: picture, index: 5'
p72
sbatp73
Rp74
(dp75
g12
Vnsubj
p76
sbatp77
Rp78
(dp79
g12
S"word: 's, index: 3"
p80
sbatp81
Rp82
(dp83
g12
S'id: 0'
p84
sbag0
(g1
g2
(lp85
g0
(g1
g2
(lp86
g0
(g1
g2
(lp87
g0
(g1
g2
(lp88
g0
(g1
g2
(lp89
(lp90
S'word: a, index: 5'
p91
aatp92
Rp93
(dp94
g12
Vdet
p95
sbatp96
Rp97
(dp98
g12
S'word: blanket, index: 6'
p99
sbatp100
Rp101
(dp102
g12
Vprep
p103
sbag0
(g1
g2
(lp104
(lp105
S'word: they, index: 1'
p106
aatp107
Rp108
(dp109
g12
Vnsubj
p110
sbag0
(g1
g2
(lp111
(lp112
S"word: 're, index: 2"
p113
aatp114
Rp115
(dp116
g12
Vaux
p117
sbatp118
Rp119
(dp120
g12
S'word: sitting, index: 3'
p121
sbatp122
Rp123
(dp124
g12
S'id: 1'
p125
sbag0
(g1
g2
(lp126
g0
(g1
g2
(lp127
g0
(g1
g2
(lp128
g0
(g1
g2
(lp129
g0
(g1
g2
(lp130
g0
(g1
g2
(lp131
g0
(g1
g2
(lp132
(lp133
S'word: to, index: 7'
p134
aatp135
Rp136
(dp137
g12
Vaux
p138
sbag0
(g1
g2
(lp139
(lp140
S'word: be, index: 8'
p141
aatp142
Rp143
(dp144
g12
Vcop
p145
sbatp146
Rp147
(dp148
g12
S'word: wine, index: 9'
p149
sbatp150
Rp151
(dp152
g12
Vxcomp
p153
sbag0
(g1
g2
(lp154
(lp155
S'word: what, index: 5'
p156
aatp157
Rp158
(dp159
g12
Vnsubj
p160
sbatp161
Rp162
(dp163
g12
S'word: appears, index: 6'
p164
sbatp165
Rp166
(dp167
g12
Vccomp
p168
sbag0
(g1
g2
(lp169
g0
(g1
g2
(lp170
g0
(g1
g2
(lp171
(lp172
S'word: there, index: 12'
p173
aatp174
Rp175
(dp176
g12
Vexpl
p177
sbag0
(g1
g2
(lp178
g0
(g1
g2
(lp179
g0
(g1
g2
(lp180
(lp181
S'word: a, index: 14'
p182
aatp183
Rp184
(dp185
g12
Vdet
p186
sbatp187
Rp188
(dp189
g12
S'word: basket, index: 15'
p190
sbatp191
Rp192
(dp193
g12
Vnsubj
p194
sbag0
(g1
g2
(lp195
g0
(g1
g2
(lp196
g0
(g1
g2
(lp197
g0
(g1
g2
(lp198
g0
(g1
g2
(lp199
g0
(g1
g2
(lp200
g0
(g1
g2
(lp201
(lp202
S'word: the, index: 55'
p203
aatp204
Rp205
(dp206
g12
Vdet
p207
sbatp208
Rp209
(dp210
g12
S'word: dog, index: 56'
p211
sbatp212
Rp213
(dp214
g12
Vnsubj
p215
sbag0
(g1
g2
(lp216
(lp217
S'word: is, index: 57'
p218
aatp219
Rp220
(dp221
g12
Vaux
p222
sbag0
(g1
g2
(lp223
(lp224
S'word: him, index: 59'
p225
aatp226
Rp227
(dp228
g12
Vdobj
p229
sbatp230
Rp231
(dp232
g12
S'word: chasing, index: 58'
p233
sbatp234
Rp235
(dp236
g12
Vconj
p237
sbag0
(g1
g2
(lp238
g0
(g1
g2
(lp239
g0
(g1
g2
(lp240
(lp241
S'word: there, index: 42'
p242
aatp243
Rp244
(dp245
g12
Vexpl
p246
sbag0
(g1
g2
(lp247
g231
atp248
Rp249
(dp250
g12
Vconj
p251
sbag0
(g1
g2
(lp252
g0
(g1
g2
(lp253
g0
(g1
g2
(lp254
(lp255
S'word: the, index: 27'
p256
aatp257
Rp258
(dp259
g12
Vdet
p260
sbatp261
Rp262
(dp263
g12
S'word: man, index: 28'
p264
sbatp265
Rp266
(dp267
g12
Vnsubj
p268
sbag0
(g1
g2
(lp269
g0
(g1
g2
(lp270
g0
(g1
g2
(lp271
(lp272
S'word: to, index: 44'
p273
aatp274
Rp275
(dp276
g12
Vaux
p277
sbag0
(g1
g2
(lp278
(lp279
S'word: be, index: 45'
p280
aatp281
Rp282
(dp283
g12
Vcop
p284
sbag0
(g1
g2
(lp285
g0
(g1
g2
(lp286
g0
(g1
g2
(lp287
(lp288
S'word: who, index: 47'
p289
aatp290
Rp291
(dp292
g12
Vnsubj
p293
sbag0
(g1
g2
(lp294
(lp295
S"word: 's, index: 48"
p296
aatp297
Rp298
(dp299
g12
Vaux
p300
sbag0
(g1
g2
(lp301
g0
(g1
g2
(lp302
g0
(g1
g2
(lp303
(lp304
S'word: a, index: 51'
p305
aatp306
Rp307
(dp308
g12
Vdet
p309
sbatp310
Rp311
(dp312
g12
S'word: kite, index: 52'
p313
sbatp314
Rp315
(dp316
g12
Vprep
p317
sbatp318
Rp319
(dp320
g12
S'word: running, index: 49'
p321
sbatp322
Rp323
(dp324
g12
Vrcmod
p325
sbatp326
Rp327
(dp328
g12
S'word: man, index: 46'
p329
sbatp330
Rp331
(dp332
g12
Vxcomp
p333
sbag0
(g1
g2
(lp334
g0
(g1
g2
(lp335
g0
(g1
g2
(lp336
g0
(g1
g2
(lp337
g0
(g1
g2
(lp338
g0
(g1
g2
(lp339
g0
(g1
g2
(lp340
(lp341
S'word: this, index: 38'
p342
aatp343
Rp344
(dp345
g12
Vdet
p346
sbatp347
Rp348
(dp349
g12
S'word: nice, index: 39'
p350
sbatp351
Rp352
(dp353
g12
Vamod
p354
sbag0
(g1
g2
(lp355
(lp356
S'word: little, index: 40'
p357
aatp358
Rp359
(dp360
g12
Vamod
p361
sbag0
(g1
g2
(lp362
(lp363
S'word: the, index: 37'
p364
aatp365
Rp366
(dp367
g12
Vdet
p368
sbatp369
Rp370
(dp371
g12
S'word: family, index: 41'
p372
sbatp373
Rp374
(dp375
g12
Vprep
p376
sbatp377
Rp378
(dp379
g12
S'word: right, index: 35'
p380
sbatp381
Rp382
(dp383
g12
Vadvmod
p384
sbatp385
Rp386
(dp387
g12
S'word: appears, index: 43'
p388
sbatp389
Rp390
(dp391
g12
Vconj
p392
sbag0
(g1
g2
(lp393
g262
atp394
Rp395
(dp396
g12
Vnsubj
p397
sbag0
(g1
g2
(lp398
(lp399
S'word: is, index: 29'
p400
aatp401
Rp402
(dp403
g12
Vcop
p404
sbag0
(g1
g2
(lp405
(lp406
S'word: a, index: 30'
p407
aatp408
Rp409
(dp410
g12
Vdet
p411
sbag0
(g1
g2
(lp412
(lp413
S'word: wearing, index: 31'
p414
aatp415
Rp416
(dp417
g12
Vamod
p418
sbatp419
Rp420
(dp421
g12
S'word: sandals, index: 32'
p422
sbatp423
Rp424
(dp425
g12
Vconj
p426
sbag0
(g1
g2
(lp427
g0
(g1
g2
(lp428
g0
(g1
g2
(lp429
g0
(g1
g2
(lp430
g0
(g1
g2
(lp431
(lp432
S'word: the, index: 23'
p433
aatp434
Rp435
(dp436
g12
Vdet
p437
sbatp438
Rp439
(dp440
g12
S'word: lady, index: 24'
p441
sbatp442
Rp443
(dp444
g12
Vprep
p445
sbag0
(g1
g2
(lp446
g386
atp447
Rp448
(dp449
g12
Vconj
p450
sbag0
(g1
g2
(lp451
g420
atp452
Rp453
(dp454
g12
Vconj
p455
sbag0
(g1
g2
(lp456
(lp457
S'word: I, index: 18'
p458
aatp459
Rp460
(dp461
g12
Vnsubj
p462
sbag0
(g1
g2
(lp463
g0
(g1
g2
(lp464
g0
(g1
g2
(lp465
(lp466
S'word: a, index: 20'
p467
aatp468
Rp469
(dp470
g12
Vdet
p471
sbatp472
Rp473
(dp474
g12
S'word: radio, index: 21'
p475
sbatp476
Rp477
(dp478
g12
Vdobj
p479
sbatp480
Rp481
(dp482
g12
S'word: see, index: 19'
p483
sbatp484
Rp485
(dp486
g12
Vconj
p487
sbatp488
Rp489
(dp490
g12
S"word: 's, index: 13"
p491
sbatp492
Rp493
(dp494
g12
Vconj
p495
sbag0
(g1
g2
(lp496
g0
(g1
g2
(lp497
g0
(g1
g2
(lp498
(lp499
S'word: the, index: 1'
p500
aatp501
Rp502
(dp503
g12
Vdet
p504
sbatp505
Rp506
(dp507
g12
S'word: woman, index: 2'
p508
sbatp509
Rp510
(dp511
g12
Vnsubj
p512
sbag0
(g1
g2
(lp513
(lp514
S'word: is, index: 3'
p515
aatp516
Rp517
(dp518
g12
Vaux
p519
sbag0
(g1
g2
(lp520
g481
atp521
Rp522
(dp523
g12
Vconj
p524
sbatp525
Rp526
(dp527
g12
S'word: pouring, index: 4'
p528
sbatp529
Rp530
(dp531
g12
S'id: 2'
p532
sbag0
(g1
g2
(lp533
g0
(g1
g2
(lp534
g0
(g1
g2
(lp535
g0
(g1
g2
(lp536
g0
(g1
g2
(lp537
(lp538
S'word: she, index: 29'
p539
aatp540
Rp541
(dp542
g12
Vnsubj
p543
sbag0
(g1
g2
(lp544
g0
(g1
g2
(lp545
g0
(g1
g2
(lp546
(lp547
S'word: a, index: 31'
p548
aatp549
Rp550
(dp551
g12
Vdet
p552
sbag0
(g1
g2
(lp553
g0
(g1
g2
(lp554
g0
(g1
g2
(lp555
(lp556
S'word: a, index: 35'
p557
aatp558
Rp559
(dp560
g12
Vdet
p561
sbatp562
Rp563
(dp564
g12
S'word: shovel, index: 36'
p565
sbatp566
Rp567
(dp568
g12
Vconj
p569
sbatp570
Rp571
(dp572
g12
S'word: bucket, index: 32'
p573
sbatp574
Rp575
(dp576
g12
Vdobj
p577
sbag0
(g1
g2
(lp578
g563
atp579
Rp580
(dp581
g12
Vdobj
p582
sbatp583
Rp584
(dp585
g12
S'word: has, index: 30'
p586
sbatp587
Rp588
(dp589
g12
Vconj
p590
sbag0
(g1
g2
(lp591
g0
(g1
g2
(lp592
g0
(g1
g2
(lp593
g0
(g1
g2
(lp594
g0
(g1
g2
(lp595
(lp596
S'word: the, index: 9'
p597
aatp598
Rp599
(dp600
g12
Vdet
p601
sbatp602
Rp603
(dp604
g12
S'word: boy, index: 10'
p605
sbatp606
Rp607
(dp608
g12
Vnsubj
p609
sbag0
(g1
g2
(lp610
(lp611
S'word: is, index: 12'
p612
aatp613
Rp614
(dp615
g12
Vcop
p616
sbag0
(g1
g2
(lp617
(lp618
S'word: a, index: 13'
p619
aatp620
Rp621
(dp622
g12
Vdet
p623
sbag0
(g1
g2
(lp624
(lp625
S'word: little, index: 14'
p626
aatp627
Rp628
(dp629
g12
Vamod
p630
sbag0
(g1
g2
(lp631
g0
(g1
g2
(lp632
g0
(g1
g2
(lp633
(lp634
S'word: who, index: 16'
p635
aatp636
Rp637
(dp638
g12
Vnsubj
p639
sbag0
(g1
g2
(lp640
g0
(g1
g2
(lp641
g0
(g1
g2
(lp642
(lp643
S'word: the, index: 19'
p644
aatp645
Rp646
(dp647
g12
Vdet
p648
sbag0
(g1
g2
(lp649
g0
(g1
g2
(lp650
g0
(g1
g2
(lp651
(lp652
S'word: sand, index: 26'
p653
aatp654
Rp655
(dp656
g12
Vprep
p657
sbag0
(g1
g2
(lp658
(lp659
S'word: who, index: 22'
p660
aatp661
Rp662
(dp663
g12
Vnsubj
p664
sbag0
(g1
g2
(lp665
(lp666
S"word: 's, index: 23"
p667
aatp668
Rp669
(dp670
g12
Vaux
p671
sbatp672
Rp673
(dp674
g12
S'word: playing, index: 24'
p675
sbatp676
Rp677
(dp678
g12
Vrcmod
p679
sbatp680
Rp681
(dp682
g12
S'word: beach, index: 20'
p683
sbatp684
Rp685
(dp686
g12
Vprep
p687
sbatp688
Rp689
(dp690
g12
S"word: 's, index: 17"
p691
sbatp692
Rp693
(dp694
g12
Vrcmod
p695
sbatp696
Rp697
(dp698
g12
S'word: girl, index: 15'
p699
sbatp700
Rp701
(dp702
g12
Vccomp
p703
sbag0
(g1
g2
(lp704
g0
(g1
g2
(lp705
g0
(g1
g2
(lp706
(lp707
S'word: the, index: 2'
p708
aatp709
Rp710
(dp711
g12
Vpredet
p712
sbag0
(g1
g2
(lp713
(lp714
S'word: the, index: 3'
p715
aatp716
Rp717
(dp718
g12
Vdet
p719
sbatp720
Rp721
(dp722
g12
S'word: man, index: 4'
p723
sbatp724
Rp725
(dp726
g12
Vprep
p727
sbag0
(g1
g2
(lp728
(lp729
S'word: I, index: 6'
p730
aatp731
Rp732
(dp733
g12
Vnsubj
p734
sbag0
(g1
g2
(lp735
(lp736
S"word: 'm, index: 7"
p737
aatp738
Rp739
(dp740
g12
Vcop
p741
sbatp742
Rp743
(dp744
g12
S'word: sorry, index: 8'
p745
sbatp746
Rp747
(dp748
g12
S'id: 3'
p749
sbag0
(g1
g2
(lp750
g0
(g1
g2
(lp751
g0
(g1
g2
(lp752
g0
(g1
g2
(lp753
g0
(g1
g2
(lp754
(lp755
S'word: a, index: 12'
p756
aatp757
Rp758
(dp759
g12
Vdet
p760
sbag0
(g1
g2
(lp761
g0
(g1
g2
(lp762
g0
(g1
g2
(lp763
(lp764
S'word: an, index: 15'
p765
aatp766
Rp767
(dp768
g12
Vdet
p769
sbag0
(g1
g2
(lp770
(lp771
S'word: older, index: 16'
p772
aatp773
Rp774
(dp775
g12
Vamod
p776
sbag0
(g1
g2
(lp777
g0
(g1
g2
(lp778
g0
(g1
g2
(lp779
(lp780
S'word: who, index: 18'
p781
aatp782
Rp783
(dp784
g12
Vnsubj
p785
sbag0
(g1
g2
(lp786
g0
(g1
g2
(lp787
g0
(g1
g2
(lp788
(lp789
S'word: to, index: 20'
p790
aatp791
Rp792
(dp793
g12
Vaux
p794
sbag0
(g1
g2
(lp795
(lp796
S'word: be, index: 21'
p797
aatp798
Rp799
(dp800
g12
Vcop
p801
sbatp802
Rp803
(dp804
g12
S'word: fishing, index: 22'
p805
sbatp806
Rp807
(dp808
g12
Vxcomp
p809
sbatp810
Rp811
(dp812
g12
S'word: appears, index: 19'
p813
sbatp814
Rp815
(dp816
g12
Vrcmod
p817
sbatp818
Rp819
(dp820
g12
S'word: man, index: 17'
p821
sbatp822
Rp823
(dp824
g12
Vprep
p825
sbatp826
Rp827
(dp828
g12
S'word: picture, index: 13'
p829
sbatp830
Rp831
(dp832
g12
Vnsubj
p833
sbag0
(g1
g2
(lp834
g0
(g1
g2
(lp835
g0
(g1
g2
(lp836
g0
(g1
g2
(lp837
g0
(g1
g2
(lp838
(lp839
S'word: the, index: 3'
p840
aatp841
Rp842
(dp843
g12
Vdet
p844
sbatp845
Rp846
(dp847
g12
S'word: back, index: 4'
p848
sbatp849
Rp850
(dp851
g12
Vpobj
p852
sbatp853
Rp854
(dp855
g12
S'word: in, index: 2'
p856
sbatp857
Rp858
(dp859
g12
Vprep
p860
sbag0
(g1
g2
(lp861
g0
(g1
g2
(lp862
g0
(g1
g2
(lp863
(lp864
S'word: the, index: 7'
p865
aatp866
Rp867
(dp868
g12
Vdet
p869
sbag0
(g1
g2
(lp870
(lp871
S'word: back, index: 8'
p872
aatp873
Rp874
(dp875
g12
Vamod
p876
sbatp877
Rp878
(dp879
g12
S'word: area, index: 9'
p880
sbatp881
Rp882
(dp883
g12
Vprep
p884
sbag0
(g1
g2
(lp885
(lp886
S'word: there, index: 10'
p887
aatp888
Rp889
(dp890
g12
Vexpl
p891
sbag0
(g1
g2
(lp892
g0
(g1
g2
(lp893
g0
(g1
g2
(lp894
g0
(g1
g2
(lp895
g0
(g1
g2
(lp896
(lp897
S'word: he, index: 28'
p898
aatp899
Rp900
(dp901
g12
Vnsubj
p902
sbag0
(g1
g2
(lp903
g0
(g1
g2
(lp904
g0
(g1
g2
(lp905
(lp906
S'word: a, index: 30'
p907
aatp908
Rp909
(dp910
g12
Vdet
p911
sbag0
(g1
g2
(lp912
g0
(g1
g2
(lp913
g0
(g1
g2
(lp914
(lp915
S'word: the, index: 33'
p916
aatp917
Rp918
(dp919
g12
Vdet
p920
sbag0
(g1
g2
(lp921
g0
(g1
g2
(lp922
g0
(g1
g2
(lp923
(lp924
S'word: the, index: 36'
p925
aatp926
Rp927
(dp928
g12
Vdet
p929
sbatp930
Rp931
(dp932
g12
S'word: line, index: 37'
p933
sbatp934
Rp935
(dp936
g12
Vprep
p937
sbatp938
Rp939
(dp940
g12
S'word: end, index: 34'
p941
sbatp942
Rp943
(dp944
g12
Vprep
p945
sbatp946
Rp947
(dp948
g12
S'word: fish, index: 31'
p949
sbatp950
Rp951
(dp952
g12
Vdobj
p953
sbag0
(g1
g2
(lp954
(lp955
S'word: like, index: 27'
p956
aatp957
Rp958
(dp959
g12
Vmark
p960
sbatp961
Rp962
(dp963
g12
S'word: has, index: 29'
p964
sbatp965
Rp966
(dp967
g12
Vadvcl
p968
sbag0
(g1
g2
(lp969
(lp970
S'word: it, index: 25'
p971
aatp972
Rp973
(dp974
g12
Vnsubj
p975
sbatp976
Rp977
(dp978
g12
S'word: looks, index: 26'
p979
sbatp980
Rp981
(dp982
g12
Vconj
p983
sbatp984
Rp985
(dp986
g12
S"word: 's, index: 11"
p987
sbatp988
Rp989
(dp990
g12
S'id: 4'
p991
sbag0
(g1
g2
(lp992
g0
(g1
g2
(lp993
g0
(g1
g2
(lp994
(lp995
S'word: and, index: 1'
p996
aatp997
Rp998
(dp999
g12
Vcc
p1000
sbag0
(g1
g2
(lp1001
g0
(g1
g2
(lp1002
g0
(g1
g2
(lp1003
(lp1004
S'word: two, index: 16'
p1005
aatp1006
Rp1007
(dp1008
g12
Vnum
p1009
sbag0
(g1
g2
(lp1010
g0
(g1
g2
(lp1011
g0
(g1
g2
(lp1012
(lp1013
S'word: the, index: 19'
p1014
aatp1015
Rp1016
(dp1017
g12
Vdet
p1018
sbag0
(g1
g2
(lp1019
g0
(g1
g2
(lp1020
g0
(g1
g2
(lp1021
(lp1022
S'word: the, index: 22'
p1023
aatp1024
Rp1025
(dp1026
g12
Vdet
p1027
sbatp1028
Rp1029
(dp1030
g12
S'word: sailboat, index: 23'
p1031
sbatp1032
Rp1033
(dp1034
g12
Vprep
p1035
sbatp1036
Rp1037
(dp1038
g12
S'word: back, index: 20'
p1039
sbatp1040
Rp1041
(dp1042
g12
Vprep
p1043
sbatp1044
Rp1045
(dp1046
g12
S'word: people, index: 17'
p1047
sbatp1048
Rp1049
(dp1050
g12
Vprep
p1051
sbag0
(g1
g2
(lp1052
g0
(g1
g2
(lp1053
g0
(g1
g2
(lp1054
g0
(g1
g2
(lp1055
g0
(g1
g2
(lp1056
(lp1057
S'word: the, index: 3'
p1058
aatp1059
Rp1060
(dp1061
g12
Vdet
p1062
sbatp1063
Rp1064
(dp1065
g12
S'word: back, index: 4'
p1066
sbatp1067
Rp1068
(dp1069
g12
Vpobj
p1070
sbatp1071
Rp1072
(dp1073
g12
S'word: in, index: 2'
p1074
sbatp1075
Rp1076
(dp1077
g12
Vprep
p1078
sbag0
(g1
g2
(lp1079
g0
(g1
g2
(lp1080
g0
(g1
g2
(lp1081
g0
(g1
g2
(lp1082
g0
(g1
g2
(lp1083
(lp1084
S'word: the, index: 7'
p1085
aatp1086
Rp1087
(dp1088
g12
Vdet
p1089
sbatp1090
Rp1091
(dp1092
g12
S'word: back, index: 8'
p1093
sbatp1094
Rp1095
(dp1096
g12
Vpobj
p1097
sbatp1098
Rp1099
(dp1100
g12
S'word: in, index: 6'
p1101
sbatp1102
Rp1103
(dp1104
g12
Vprep
p1105
sbag0
(g1
g2
(lp1106
(lp1107
S'word: you, index: 10'
p1108
aatp1109
Rp1110
(dp1111
g12
Vnsubj
p1112
sbag0
(g1
g2
(lp1113
(lp1114
S'word: can, index: 11'
p1115
aatp1116
Rp1117
(dp1118
g12
Vaux
p1119
sbag0
(g1
g2
(lp1120
g0
(g1
g2
(lp1121
g0
(g1
g2
(lp1122
(lp1123
S'word: a, index: 13'
p1124
aatp1125
Rp1126
(dp1127
g12
Vdet
p1128
sbatp1129
Rp1130
(dp1131
g12
S'word: sailboat, index: 14'
p1132
sbatp1133
Rp1134
(dp1135
g12
Vdobj
p1136
sbatp1137
Rp1138
(dp1139
g12
S'word: see, index: 12'
p1140
sbatp1141
Rp1142
(dp1143
g12
S'id: 5'
p1144
sbag0
(g1
g2
(lp1145
g0
(g1
g2
(lp1146
g0
(g1
g2
(lp1147
(lp1148
S'word: there, index: 2'
p1149
aatp1150
Rp1151
(dp1152
g12
Vexpl
p1153
sbag0
(g1
g2
(lp1154
(lp1155
S'word: also, index: 4'
p1156
aatp1157
Rp1158
(dp1159
g12
Vadvmod
p1160
sbag0
(g1
g2
(lp1161
g0
(g1
g2
(lp1162
g0
(g1
g2
(lp1163
(lp1164
S'word: there, index: 19'
p1165
aatp1166
Rp1167
(dp1168
g12
Vexpl
p1169
sbag0
(g1
g2
(lp1170
g0
(g1
g2
(lp1171
g0
(g1
g2
(lp1172
(lp1173
S'word: a, index: 21'
p1174
aatp1175
Rp1176
(dp1177
g12
Vdet
p1178
sbag0
(g1
g2
(lp1179
g0
(g1
g2
(lp1180
g0
(g1
g2
(lp1181
(lp1182
S'word: a, index: 24'
p1183
aatp1184
Rp1185
(dp1186
g12
Vdet
p1187
sbatp1188
Rp1189
(dp1190
g12
S'word: flagpole, index: 25'
p1191
sbatp1192
Rp1193
(dp1194
g12
Vappos
p1195
sbatp1196
Rp1197
(dp1198
g12
S'word: flag, index: 22'
p1199
sbatp1200
Rp1201
(dp1202
g12
Vnsubj
p1203
sbatp1204
Rp1205
(dp1206
g12
S"word: 's, index: 20"
p1207
sbatp1208
Rp1209
(dp1210
g12
Vconj
p1211
sbag0
(g1
g2
(lp1212
g0
(g1
g2
(lp1213
g0
(g1
g2
(lp1214
(lp1215
S'word: a, index: 5'
p1216
aatp1217
Rp1218
(dp1219
g12
Vdet
p1220
sbag0
(g1
g2
(lp1221
g0
(g1
g2
(lp1222
g0
(g1
g2
(lp1223
g0
(g1
g2
(lp1224
g0
(g1
g2
(lp1225
(lp1226
S'word: a, index: 8'
p1227
aatp1228
Rp1229
(dp1230
g12
Vdet
p1231
sbag0
(g1
g2
(lp1232
g0
(g1
g2
(lp1233
g0
(g1
g2
(lp1234
(lp1235
S'word: a, index: 11'
p1236
aatp1237
Rp1238
(dp1239
g12
Vdet
p1240
sbatp1241
Rp1242
(dp1243
g12
S'word: house, index: 12'
p1244
sbatp1245
Rp1246
(dp1247
g12
Vpobj
p1248
sbatp1249
Rp1250
(dp1251
g12
S'word: of, index: 10'
p1252
sbatp1253
Rp1254
(dp1255
g12
Vpobj
p1256
sbatp1257
Rp1258
(dp1259
g12
S'word: of, index: 7'
p1260
sbatp1261
Rp1262
(dp1263
g12
Vprep
p1264
sbag0
(g1
g2
(lp1265
g0
(g1
g2
(lp1266
g0
(g1
g2
(lp1267
(lp1268
S'word: that, index: 14'
p1269
aatp1270
Rp1271
(dp1272
g12
Vnsubj
p1273
sbag0
(g1
g2
(lp1274
(lp1275
S'word: trees, index: 16'
p1276
aatp1277
Rp1278
(dp1279
g12
Vdobj
p1280
sbatp1281
Rp1282
(dp1283
g12
S'word: has, index: 15'
p1284
sbatp1285
Rp1286
(dp1287
g12
Vrcmod
p1288
sbatp1289
Rp1290
(dp1291
g12
S'word: picture, index: 6'
p1292
sbatp1293
Rp1294
(dp1295
g12
Vnsubj
p1296
sbatp1297
Rp1298
(dp1299
g12
S"word: 's, index: 3"
p1300
sbatp1301
Rp1302
(dp1303
g12
S'id: 6'
p1304
sbag0
(g1
g2
(lp1305
g0
(g1
g2
(lp1306
g0
(g1
g2
(lp1307
g0
(g1
g2
(lp1308
g0
(g1
g2
(lp1309
(lp1310
S'word: the, index: 5'
p1311
aatp1312
Rp1313
(dp1314
g12
Vdet
p1315
sbatp1316
Rp1317
(dp1318
g12
S'word: car, index: 6'
p1319
sbatp1320
Rp1321
(dp1322
g12
Vprep
p1323
sbag0
(g1
g2
(lp1324
(lp1325
S'word: there, index: 8'
p1326
aatp1327
Rp1328
(dp1329
g12
Vexpl
p1330
sbag0
(g1
g2
(lp1331
g0
(g1
g2
(lp1332
g0
(g1
g2
(lp1333
(lp1334
S'word: a, index: 10'
p1335
aatp1336
Rp1337
(dp1338
g12
Vdet
p1339
sbag0
(g1
g2
(lp1340
(lp1341
S'word: car, index: 13'
p1342
aatp1343
Rp1344
(dp1345
g12
Vprep
p1346
sbatp1347
Rp1348
(dp1349
g12
S'word: picture, index: 11'
p1350
sbatp1351
Rp1352
(dp1353
g12
Vnsubj
p1354
sbag0
(g1
g2
(lp1355
(lp1356
S'word: and, index: 1'
p1357
aatp1358
Rp1359
(dp1360
g12
Vcc
p1361
sbatp1362
Rp1363
(dp1364
g12
S"word: 's, index: 9"
p1365
sbatp1366
Rp1367
(dp1368
g12
S'id: 7'
p1369
sbag0
(g1
g2
(lp1370
g0
(g1
g2
(lp1371
g0
(g1
g2
(lp1372
(lp1373
S'word: and, index: 1'
p1374
aatp1375
Rp1376
(dp1377
g12
Vcc
p1378
sbag0
(g1
g2
(lp1379
(lp1380
S'word: there, index: 2'
p1381
aatp1382
Rp1383
(dp1384
g12
Vexpl
p1385
sbag0
(g1
g2
(lp1386
g0
(g1
g2
(lp1387
g0
(g1
g2
(lp1388
g0
(g1
g2
(lp1389
g0
(g1
g2
(lp1390
(lp1391
S'word: the, index: 6'
p1392
aatp1393
Rp1394
(dp1395
g12
Vdet
p1396
sbatp1397
Rp1398
(dp1399
g12
S'word: house, index: 7'
p1400
sbatp1401
Rp1402
(dp1403
g12
Vprep
p1404
sbatp1405
Rp1406
(dp1407
g12
S'word: bushes, index: 4'
p1408
sbatp1409
Rp1410
(dp1411
g12
Vnsubj
p1412
sbatp1413
Rp1414
(dp1415
g12
S"word: 's, index: 3"
p1416
sbatp1417
Rp1418
(dp1419
g12
S'id: 8'
p1420
sbag0
(g1
g2
(lp1421
g0
(g1
g2
(lp1422
g0
(g1
g2
(lp1423
g0
(g1
g2
(lp1424
g0
(g1
g2
(lp1425
(lp1426
S'word: a, index: 12'
p1427
aatp1428
Rp1429
(dp1430
g12
Vdet
p1431
sbatp1432
Rp1433
(dp1434
g12
S'word: dock, index: 13'
p1435
sbatp1436
Rp1437
(dp1438
g12
Vprep
p1439
sbag0
(g1
g2
(lp1440
(lp1441
S'word: and, index: 1'
p1442
aatp1443
Rp1444
(dp1445
g12
Vcc
p1446
sbag0
(g1
g2
(lp1447
g0
(g1
g2
(lp1448
g0
(g1
g2
(lp1449
(lp1450
S'word: the, index: 2'
p1451
aatp1452
Rp1453
(dp1454
g12
Vdet
p1455
sbag0
(g1
g2
(lp1456
g0
(g1
g2
(lp1457
g0
(g1
g2
(lp1458
(lp1459
S'word: who, index: 4'
p1460
aatp1461
Rp1462
(dp1463
g12
Vnsubj
p1464
sbag0
(g1
g2
(lp1465
(lp1466
S'word: is, index: 5'
p1467
aatp1468
Rp1469
(dp1470
g12
Vcop
p1471
sbatp1472
Rp1473
(dp1474
g12
S'word: fishing, index: 6'
p1475
sbatp1476
Rp1477
(dp1478
g12
Vrcmod
p1479
sbatp1480
Rp1481
(dp1482
g12
S'word: man, index: 3'
p1483
sbatp1484
Rp1485
(dp1486
g12
Vnsubj
p1487
sbag0
(g1
g2
(lp1488
(lp1489
S'word: is, index: 7'
p1490
aatp1491
Rp1492
(dp1493
g12
Vaux
p1494
sbatp1495
Rp1496
(dp1497
g12
S'word: standing, index: 8'
p1498
sbatp1499
Rp1500
(dp1501
g12
S'id: 9'
p1502
sbag0
(g1
g2
(lp1503
g0
(g1
g2
(lp1504
g0
(g1
g2
(lp1505
(lp1506
S'word: and, index: 1'
p1507
aatp1508
Rp1509
(dp1510
g12
Vcc
p1511
sbag0
(g1
g2
(lp1512
g0
(g1
g2
(lp1513
g0
(g1
g2
(lp1514
(lp1515
S"word: 's, index: 5"
p1516
aatp1517
Rp1518
(dp1519
g12
Vpossessive
p1520
sbag0
(g1
g2
(lp1521
g0
(g1
g2
(lp1522
g0
(g1
g2
(lp1523
g0
(g1
g2
(lp1524
g0
(g1
g2
(lp1525
(lp1526
S'word: a, index: 7'
p1527
aatp1528
Rp1529
(dp1530
g12
Vdet
p1531
sbag0
(g1
g2
(lp1532
(lp1533
S'word: wonderful, index: 8'
p1534
aatp1535
Rp1536
(dp1537
g12
Vamod
p1538
sbatp1539
Rp1540
(dp1541
g12
S'word: day, index: 9'
p1542
sbatp1543
Rp1544
(dp1545
g12
Vtmod
p1546
sbatp1547
Rp1548
(dp1549
g12
S'word: having, index: 6'
p1550
sbatp1551
Rp1552
(dp1553
g12
Vvmod
p1554
sbatp1555
Rp1556
(dp1557
g12
S'word: everyone, index: 4'
p1558
sbatp1559
Rp1560
(dp1561
g12
Vprep
p1562
sbatp1563
Rp1564
(dp1565
g12
S'word: looks, index: 2'
p1566
sbatp1567
Rp1568
(dp1569
g12
S'id: 10'
p1570
sbag0
(g1
g2
(lp1571
g0
(g1
g2
(lp1572
g0
(g1
g2
(lp1573
(lp1574
S'word: it, index: 1'
p1575
aatp1576
Rp1577
(dp1578
g12
Vnsubj
p1579
sbag0
(g1
g2
(lp1580
(lp1581
S"word: 's, index: 2"
p1582
aatp1583
Rp1584
(dp1585
g12
Vcop
p1586
sbag0
(g1
g2
(lp1587
(lp1588
S'word: a, index: 3'
p1589
aatp1590
Rp1591
(dp1592
g12
Vdet
p1593
sbag0
(g1
g2
(lp1594
(lp1595
S'word: happy, index: 4'
p1596
aatp1597
Rp1598
(dp1599
g12
Vamod
p1600
sbatp1601
Rp1602
(dp1603
g12
S'word: day, index: 5'
p1604
sbatp1605
Rp1606
(dp1607
g12
S'id: 11'
p1608
sbag0
(g1
g2
(lp1609
g0
(g1
g2
(lp1610
g0
(g1
g2
(lp1611
(lp1612
S'word: on, index: 4'
p1613
aatp1614
Rp1615
(dp1616
g12
Vprep
p1617
sbag0
(g1
g2
(lp1618
g0
(g1
g2
(lp1619
g0
(g1
g2
(lp1620
g0
(g1
g2
(lp1621
g0
(g1
g2
(lp1622
(lp1623
S'word: a, index: 7'
p1624
aatp1625
Rp1626
(dp1627
g12
Vdet
p1628
sbag0
(g1
g2
(lp1629
(lp1630
S'word: course, index: 11'
p1631
aatp1632
Rp1633
(dp1634
g12
Vprep
p1635
sbatp1636
Rp1637
(dp1638
g12
S'word: book, index: 8'
p1639
sbatp1640
Rp1641
(dp1642
g12
Vdobj
p1643
sbatp1644
Rp1645
(dp1646
g12
S'word: reading, index: 6'
p1647
sbatp1648
Rp1649
(dp1650
g12
Vvmod
p1651
sbag0
(g1
g2
(lp1652
(lp1653
S'word: man, index: 1'
p1654
aatp1655
Rp1656
(dp1657
g12
Vnsubj
p1658
sbag0
(g1
g2
(lp1659
(lp1660
S'word: glasses, index: 3'
p1661
aatp1662
Rp1663
(dp1664
g12
Vdobj
p1665
sbatp1666
Rp1667
(dp1668
g12
S'word: has, index: 2'
p1669
sbatp1670
Rp1671
(dp1672
g12
S'id: 12'
p1673
sbatp1674
Rp1675
(dp1676
g12
S'sentences'
p1677
sb.