ccopy_reg
_reconstructor
p0
(cnltk.tree
Tree
p1
c__builtin__
list
p2
(lp3
g0
(g1
g2
(lp4
g0
(g1
g2
(lp5
g0
(g1
g2
(lp6
Va little girl eating
p7
atp8
Rp9
(dp10
S'_label'
p11
S'start: 4'
p12
sbatp13
Rp14
(dp15
g11
S'sent: 1'
p16
sbag0
(g1
g2
(lp17
g0
(g1
g2
(lp18
Vit
p19
atp20
Rp21
(dp22
g11
S'start: 1'
p23
sbatp24
Rp25
(dp26
g11
S'sent: 2'
p27
sbatp28
Rp29
(dp30
g11
S'id: 2'
p31
sbag0
(g1
g2
(lp32
g0
(g1
g2
(lp33
g0
(g1
g2
(lp34
Vher brother 's
p35
atp36
Rp37
(dp38
g11
S'start: 14'
p39
sbatp40
Rp41
(dp42
g11
S'sent: 1'
p43
sbag0
(g1
g2
(lp44
g0
(g1
g2
(lp45
Vhe
p46
atp47
Rp48
(dp49
g11
S'start: 22'
p50
sbatp51
Rp52
(dp53
g11
S'sent: 1'
p54
sbatp55
Rp56
(dp57
g11
S'id: 4'
p58
sbag0
(g1
g2
(lp59
g0
(g1
g2
(lp60
g0
(g1
g2
(lp61
Vher
p62
atp63
Rp64
(dp65
g11
S'start: 14'
p66
sbatp67
Rp68
(dp69
g11
S'sent: 1'
p70
sbag0
(g1
g2
(lp71
g0
(g1
g2
(lp72
Vher wiping or drying the dishes
p73
atp74
Rp75
(dp76
g11
S'start: 18'
p77
sbatp78
Rp79
(dp80
g11
S'sent: 2'
p81
sbag0
(g1
g2
(lp82
g0
(g1
g2
(lp83
Vshe
p84
atp85
Rp86
(dp87
g11
S'start: 12'
p88
sbatp89
Rp90
(dp91
g11
S'sent: 3'
p92
sbatp93
Rp94
(dp95
g11
S'id: 5'
p96
sbag0
(g1
g2
(lp97
g0
(g1
g2
(lp98
g0
(g1
g2
(lp99
Vthe dishes
p100
atp101
Rp102
(dp103
g11
S'start: 22'
p104
sbatp105
Rp106
(dp107
g11
S'sent: 2'
p108
sbag0
(g1
g2
(lp109
g0
(g1
g2
(lp110
Vdishes
p111
atp112
Rp113
(dp114
g11
S'start: 11'
p115
sbatp116
Rp117
(dp118
g11
S'sent: 13'
p119
sbatp120
Rp121
(dp122
g11
S'id: 18'
p123
sbag0
(g1
g2
(lp124
g0
(g1
g2
(lp125
g0
(g1
g2
(lp126
VThe window
p127
atp128
Rp129
(dp130
g11
S'start: 1'
p131
sbatp132
Rp133
(dp134
g11
S'sent: 3'
p135
sbag0
(g1
g2
(lp136
g0
(g1
g2
(lp137
Vthe window
p138
atp139
Rp140
(dp141
g11
S'start: 6'
p142
sbatp143
Rp144
(dp145
g11
S'sent: 10'
p146
sbatp147
Rp148
(dp149
g11
S'id: 19'
p150
sbag0
(g1
g2
(lp151
g0
(g1
g2
(lp152
g0
(g1
g2
(lp153
Vthe bottom
p154
atp155
Rp156
(dp157
g11
S'start: 8'
p158
sbatp159
Rp160
(dp161
g11
S'sent: 3'
p162
sbag0
(g1
g2
(lp163
g0
(g1
g2
(lp164
Vthe bottom , that are just pull locks ,
p165
atp166
Rp167
(dp168
g11
S'start: 12'
p169
sbatp170
Rp171
(dp172
g11
S'sent: 6'
p173
sbag0
(g1
g2
(lp174
g0
(g1
g2
(lp175
Vthe bottom , that are just pull locks
p176
atp177
Rp178
(dp179
g11
S'start: 12'
p180
sbatp181
Rp182
(dp183
g11
S'sent: 6'
p184
sbag0
(g1
g2
(lp185
g0
(g1
g2
(lp186
Vthe bottom
p187
atp188
Rp189
(dp190
g11
S'start: 12'
p191
sbatp192
Rp193
(dp194
g11
S'sent: 6'
p195
sbatp196
Rp197
(dp198
g11
S'id: 20'
p199
sbag0
(g1
g2
(lp200
g0
(g1
g2
(lp201
g0
(g1
g2
(lp202
Vthe back yard
p203
atp204
Rp205
(dp206
g11
S'start: 17'
p207
sbatp208
Rp209
(dp210
g11
S'sent: 3'
p211
sbag0
(g1
g2
(lp212
g0
(g1
g2
(lp213
Vthe yard
p214
atp215
Rp216
(dp217
g11
S'start: 7'
p218
sbatp219
Rp220
(dp221
g11
S'sent: 12'
p222
sbatp223
Rp224
(dp225
g11
S'id: 23'
p226
sbag0
(g1
g2
(lp227
g0
(g1
g2
(lp228
g0
(g1
g2
(lp229
Vthe house
p230
atp231
Rp232
(dp233
g11
S'start: 26'
p234
sbatp235
Rp236
(dp237
g11
S'sent: 3'
p238
sbag0
(g1
g2
(lp239
g0
(g1
g2
(lp240
Vthe house
p241
atp242
Rp243
(dp244
g11
S'start: 11'
p245
sbatp246
Rp247
(dp248
g11
S'sent: 11'
p249
sbatp250
Rp251
(dp252
g11
S'id: 25'
p253
sbag0
(g1
g2
(lp254
g0
(g1
g2
(lp255
g0
(g1
g2
(lp256
Vthree bowls
p257
atp258
Rp259
(dp260
g11
S'start: 4'
p261
sbatp262
Rp263
(dp264
g11
S'sent: 4'
p265
sbag0
(g1
g2
(lp266
g0
(g1
g2
(lp267
Vit
p268
atp269
Rp270
(dp271
g11
S'start: 32'
p272
sbatp273
Rp274
(dp275
g11
S'sent: 4'
p276
sbatp277
Rp278
(dp279
g11
S'id: 29'
p280
sbag0
(g1
g2
(lp281
g0
(g1
g2
(lp282
g0
(g1
g2
(lp283
Vtwo bowls
p284
atp285
Rp286
(dp287
g11
S'start: 8'
p288
sbatp289
Rp290
(dp291
g11
S'sent: 4'
p292
sbag0
(g1
g2
(lp293
g0
(g1
g2
(lp294
Vtwo
p295
atp296
Rp297
(dp298
g11
S'start: 13'
p299
sbatp300
Rp301
(dp302
g11
S'sent: 4'
p303
sbag0
(g1
g2
(lp304
g0
(g1
g2
(lp305
Vtwo
p306
atp307
Rp308
(dp309
g11
S'start: 4'
p310
sbatp311
Rp312
(dp313
g11
S'sent: 7'
p314
sbatp315
Rp316
(dp317
g11
S'id: 31'
p318
sbag0
(g1
g2
(lp319
g0
(g1
g2
(lp320
g0
(g1
g2
(lp321
Vthe picture
p322
atp323
Rp324
(dp325
g11
S'start: 16'
p326
sbatp327
Rp328
(dp329
g11
S'sent: 4'
p330
sbag0
(g1
g2
(lp331
g0
(g1
g2
(lp332
Vthe picture
p333
atp334
Rp335
(dp336
g11
S'start: 5'
p337
sbatp338
Rp339
(dp340
g11
S'sent: 8'
p341
sbatp342
Rp343
(dp344
g11
S'id: 33'
p345
sbag0
(g1
g2
(lp346
g0
(g1
g2
(lp347
g0
(g1
g2
(lp348
Vno shelves
p349
atp350
Rp351
(dp352
g11
S'start: 3'
p353
sbatp354
Rp355
(dp356
g11
S'sent: 5'
p357
sbag0
(g1
g2
(lp358
g0
(g1
g2
(lp359
Vthat
p360
atp361
Rp362
(dp363
g11
S'start: 8'
p364
sbatp365
Rp366
(dp367
g11
S'sent: 5'
p368
sbatp369
Rp370
(dp371
g11
S'id: 38'
p372
sbag0
(g1
g2
(lp373
g0
(g1
g2
(lp374
g0
(g1
g2
(lp375
Vthe
p376
atp377
Rp378
(dp379
g11
S'start: 7'
p380
sbatp381
Rp382
(dp383
g11
S'sent: 6'
p384
sbag0
(g1
g2
(lp385
g0
(g1
g2
(lp386
Vthe , the walk around the house , the path , or the sidewalk that might be there
p387
atp388
Rp389
(dp390
g11
S'start: 6'
p391
sbatp392
Rp393
(dp394
g11
S'sent: 11'
p395
sbag0
(g1
g2
(lp396
g0
(g1
g2
(lp397
Vthe
p398
atp399
Rp400
(dp401
g11
S'start: 6'
p402
sbatp403
Rp404
(dp405
g11
S'sent: 11'
p406
sbatp407
Rp408
(dp409
g11
S'id: 43'
p410
sbag0
(g1
g2
(lp411
g0
(g1
g2
(lp412
g0
(g1
g2
(lp413
Vthe little thing
p414
atp415
Rp416
(dp417
g11
S'start: 34'
p418
sbatp419
Rp420
(dp421
g11
S'sent: 8'
p422
sbag0
(g1
g2
(lp423
g0
(g1
g2
(lp424
Vthat
p425
atp426
Rp427
(dp428
g11
S'start: 51'
p429
sbatp430
Rp431
(dp432
g11
S'sent: 8'
p433
sbatp434
Rp435
(dp436
g11
S'id: 62'
p437
sbag0
(g1
g2
(lp438
g0
(g1
g2
(lp439
g0
(g1
g2
(lp440
VThat kid
p441
atp442
Rp443
(dp444
g11
S'start: 1'
p445
sbatp446
Rp447
(dp448
g11
S'sent: 9'
p449
sbag0
(g1
g2
(lp450
g0
(g1
g2
(lp451
Vhis
p452
atp453
Rp454
(dp455
g11
S'start: 11'
p456
sbatp457
Rp458
(dp459
g11
S'sent: 9'
p460
sbag0
(g1
g2
(lp461
g0
(g1
g2
(lp462
Vhe
p463
atp464
Rp465
(dp466
g11
S'start: 15'
p467
sbatp468
Rp469
(dp470
g11
S'sent: 9'
p471
sbag0
(g1
g2
(lp472
g0
(g1
g2
(lp473
Vhe
p474
atp475
Rp476
(dp477
g11
S'start: 18'
p478
sbatp479
Rp480
(dp481
g11
S'sent: 9'
p482
sbag0
(g1
g2
(lp483
g0
(g1
g2
(lp484
Vhis
p485
atp486
Rp487
(dp488
g11
S'start: 26'
p489
sbatp490
Rp491
(dp492
g11
S'sent: 9'
p493
sbatp494
Rp495
(dp496
g11
S'id: 68'
p497
sbag0
(g1
g2
(lp498
g0
(g1
g2
(lp499
g0
(g1
g2
(lp500
Va couple of bushes
p501
atp502
Rp503
(dp504
g11
S'start: 2'
p505
sbatp506
Rp507
(dp508
g11
S'sent: 12'
p509
sbag0
(g1
g2
(lp510
g0
(g1
g2
(lp511
Vshe
p512
atp513
Rp514
(dp515
g11
S'start: 2'
p516
sbatp517
Rp518
(dp519
g11
S'sent: 13'
p520
sbatp521
Rp522
(dp523
g11
S'id: 91'
p524
sbag0
(g1
g2
(lp525
g0
(g1
g2
(lp526
g0
(g1
g2
(lp527
Va sleeveless shirt
p528
atp529
Rp530
(dp531
g11
S'start: 13'
p532
sbatp533
Rp534
(dp535
g11
S'sent: 13'
p536
sbag0
(g1
g2
(lp537
g0
(g1
g2
(lp538
Vthat
p539
atp540
Rp541
(dp542
g11
S'start: 24'
p543
sbatp544
Rp545
(dp546
g11
S'sent: 13'
p547
sbatp548
Rp549
(dp550
g11
S'id: 99'
p551
sbatp552
Rp553
(dp554
g11
S'coreferences'
p555
sb.