ccopy_reg
_reconstructor
p0
(cnltk.tree
Tree
p1
c__builtin__
list
p2
(lp3
g0
(g1
g2
(lp4
g0
(g1
g2
(lp5
g0
(g1
g2
(lp6
g0
(g1
g2
(lp7
g0
(g1
g2
(lp8
VHere
p9
atp10
Rp11
(dp12
S'_label'
p13
VRB
p14
sbatp15
Rp16
(dp17
g13
VADVP
p18
sbag0
(g1
g2
(lp19
g0
(g1
g2
(lp20
Vwe
p21
atp22
Rp23
(dp24
g13
VPRP
p25
sbatp26
Rp27
(dp28
g13
VNP
p29
sbag0
(g1
g2
(lp30
g0
(g1
g2
(lp31
Vhave
p32
atp33
Rp34
(dp35
g13
VVBP
p36
sbag0
(g1
g2
(lp37
g0
(g1
g2
(lp38
Vlet
p39
atp40
Rp41
(dp42
g13
VVBN
p43
sbag0
(g1
g2
(lp44
g0
(g1
g2
(lp45
g0
(g1
g2
(lp46
g0
(g1
g2
(lp47
V's
p48
atp49
Rp50
(dp51
g13
VPOS
p52
sbatp53
Rp54
(dp55
g13
VNP
p56
sbag0
(g1
g2
(lp57
g0
(g1
g2
(lp58
Vsay
p59
atp60
Rp61
(dp62
g13
VVBP
p63
sbag0
(g1
g2
(lp64
g0
(g1
g2
(lp65
g0
(g1
g2
(lp66
Va
p67
atp68
Rp69
(dp70
g13
VDT
p71
sbag0
(g1
g2
(lp72
Vfamily
p73
atp74
Rp75
(dp76
g13
VNN
p77
sbatp78
Rp79
(dp80
g13
VNP
p81
sbag0
(g1
g2
(lp82
g0
(g1
g2
(lp83
Vat
p84
atp85
Rp86
(dp87
g13
VIN
p88
sbag0
(g1
g2
(lp89
g0
(g1
g2
(lp90
Vthe
p91
atp92
Rp93
(dp94
g13
VDT
p95
sbag0
(g1
g2
(lp96
Vlake
p97
atp98
Rp99
(dp100
g13
VNN
p101
sbag0
(g1
g2
(lp102
Vpicnicking
p103
atp104
Rp105
(dp106
g13
VNN
p107
sbatp108
Rp109
(dp110
g13
VNP
p111
sbatp112
Rp113
(dp114
g13
VPP
p115
sbatp116
Rp117
(dp118
g13
VNP
p119
sbatp120
Rp121
(dp122
g13
VVP
p123
sbatp124
Rp125
(dp126
g13
VS
p127
sbatp128
Rp129
(dp130
g13
VSBAR
p131
sbatp132
Rp133
(dp134
g13
VVP
p135
sbatp136
Rp137
(dp138
g13
VVP
p139
sbatp140
Rp141
(dp142
g13
VS
p143
sbag0
(g1
g2
(lp144
V,
p145
atp146
Rp147
(dp148
g13
V,
p149
sbag0
(g1
g2
(lp150
Vand
p151
atp152
Rp153
(dp154
g13
VCC
p155
sbag0
(g1
g2
(lp156
g0
(g1
g2
(lp157
g0
(g1
g2
(lp158
Vdoing
p159
atp160
Rp161
(dp162
g13
VVBG
p163
sbag0
(g1
g2
(lp164
g0
(g1
g2
(lp165
g0
(g1
g2
(lp166
Va
p167
atp168
Rp169
(dp170
g13
VDT
p171
sbag0
(g1
g2
(lp172
Vbunch
p173
atp174
Rp175
(dp176
g13
VNN
p177
sbatp178
Rp179
(dp180
g13
VNP
p181
sbag0
(g1
g2
(lp182
g0
(g1
g2
(lp183
Vof
p184
atp185
Rp186
(dp187
g13
VIN
p188
sbag0
(g1
g2
(lp189
g0
(g1
g2
(lp190
Vother
p191
atp192
Rp193
(dp194
g13
VJJ
p195
sbag0
(g1
g2
(lp196
Vstuff
p197
atp198
Rp199
(dp200
g13
VNN
p201
sbatp202
Rp203
(dp204
g13
VNP
p205
sbatp206
Rp207
(dp208
g13
VPP
p209
sbatp210
Rp211
(dp212
g13
VNP
p213
sbatp214
Rp215
(dp216
g13
VVP
p217
sbatp218
Rp219
(dp220
g13
VS
p221
sbag0
(g1
g2
(lp222
V.
p223
atp224
Rp225
(dp226
g13
V.
p227
sbatp228
Rp229
(dp230
g13
VS
p231
sbatp232
Rp233
(dp234
g13
S'id: 0'
p235
sbag0
(g1
g2
(lp236
g0
(g1
g2
(lp237
g0
(g1
g2
(lp238
g0
(g1
g2
(lp239
g0
(g1
g2
(lp240
VThe
p241
atp242
Rp243
(dp244
g13
VDT
p245
sbag0
(g1
g2
(lp246
Vdaughter
p247
atp248
Rp249
(dp250
g13
VNN
p251
sbatp252
Rp253
(dp254
g13
VNP
p255
sbag0
(g1
g2
(lp256
g0
(g1
g2
(lp257
Vis
p258
atp259
Rp260
(dp261
g13
VVBZ
p262
sbag0
(g1
g2
(lp263
g0
(g1
g2
(lp264
Vbuilding
p265
atp266
Rp267
(dp268
g13
VVBG
p269
sbag0
(g1
g2
(lp270
g0
(g1
g2
(lp271
Va
p272
atp273
Rp274
(dp275
g13
VDT
p276
sbag0
(g1
g2
(lp277
Vsand
p278
atp279
Rp280
(dp281
g13
VNN
p282
sbag0
(g1
g2
(lp283
Vcastle
p284
atp285
Rp286
(dp287
g13
VNN
p288
sbatp289
Rp290
(dp291
g13
VNP
p292
sbatp293
Rp294
(dp295
g13
VVP
p296
sbatp297
Rp298
(dp299
g13
VVP
p300
sbatp301
Rp302
(dp303
g13
VS
p304
sbag0
(g1
g2
(lp305
V,
p306
atp307
Rp308
(dp309
g13
V,
p310
sbag0
(g1
g2
(lp311
g0
(g1
g2
(lp312
Vwhile
p313
atp314
Rp315
(dp316
g13
VIN
p317
sbatp318
Rp319
(dp320
g13
VADVP
p321
sbag0
(g1
g2
(lp322
V,
p323
atp324
Rp325
(dp326
g13
V,
p327
sbag0
(g1
g2
(lp328
g0
(g1
g2
(lp329
Vwhile
p330
atp331
Rp332
(dp333
g13
VIN
p334
sbag0
(g1
g2
(lp335
g0
(g1
g2
(lp336
g0
(g1
g2
(lp337
Vher
p338
atp339
Rp340
(dp341
g13
VPRP$
p342
sbag0
(g1
g2
(lp343
Vbrother
p344
atp345
Rp346
(dp347
g13
VNN
p348
sbatp349
Rp350
(dp351
g13
VNP
p352
sbag0
(g1
g2
(lp353
g0
(g1
g2
(lp354
g0
(g1
g2
(lp355
Vflies
p356
atp357
Rp358
(dp359
g13
VVBZ
p360
sbag0
(g1
g2
(lp361
g0
(g1
g2
(lp362
Va
p363
atp364
Rp365
(dp366
g13
VDT
p367
sbag0
(g1
g2
(lp368
Vkite
p369
atp370
Rp371
(dp372
g13
VNN
p373
sbatp374
Rp375
(dp376
g13
VNP
p377
sbatp378
Rp379
(dp380
g13
VVP
p381
sbag0
(g1
g2
(lp382
V,
p383
atp384
Rp385
(dp386
g13
V,
p387
sbag0
(g1
g2
(lp388
Vand
p389
atp390
Rp391
(dp392
g13
VCC
p393
sbag0
(g1
g2
(lp394
g0
(g1
g2
(lp395
Vruns
p396
atp397
Rp398
(dp399
g13
VVBZ
p400
sbag0
(g1
g2
(lp401
g0
(g1
g2
(lp402
Vwith
p403
atp404
Rp405
(dp406
g13
VIN
p407
sbag0
(g1
g2
(lp408
g0
(g1
g2
(lp409
Vthe
p410
atp411
Rp412
(dp413
g13
VDT
p414
sbag0
(g1
g2
(lp415
Vdog
p416
atp417
Rp418
(dp419
g13
VNN
p420
sbatp421
Rp422
(dp423
g13
VNP
p424
sbatp425
Rp426
(dp427
g13
VPP
p428
sbatp429
Rp430
(dp431
g13
VVP
p432
sbatp433
Rp434
(dp435
g13
VVP
p436
sbatp437
Rp438
(dp439
g13
VS
p440
sbatp441
Rp442
(dp443
g13
VSBAR
p444
sbag0
(g1
g2
(lp445
V.
p446
atp447
Rp448
(dp449
g13
V.
p450
sbatp451
Rp452
(dp453
g13
VS
p454
sbatp455
Rp456
(dp457
g13
S'id: 1'
p458
sbag0
(g1
g2
(lp459
g0
(g1
g2
(lp460
g0
(g1
g2
(lp461
g0
(g1
g2
(lp462
VThe
p463
atp464
Rp465
(dp466
g13
VDT
p467
sbag0
(g1
g2
(lp468
Vdad
p469
atp470
Rp471
(dp472
g13
VNN
p473
sbatp474
Rp475
(dp476
g13
VNP
p477
sbag0
(g1
g2
(lp478
g0
(g1
g2
(lp479
Vis
p480
atp481
Rp482
(dp483
g13
VVBZ
p484
sbag0
(g1
g2
(lp485
g0
(g1
g2
(lp486
Vreading
p487
atp488
Rp489
(dp490
g13
VVBG
p491
sbag0
(g1
g2
(lp492
g0
(g1
g2
(lp493
Va
p494
atp495
Rp496
(dp497
g13
VDT
p498
sbag0
(g1
g2
(lp499
Vbook
p500
atp501
Rp502
(dp503
g13
VNN
p504
sbatp505
Rp506
(dp507
g13
VNP
p508
sbag0
(g1
g2
(lp509
g0
(g1
g2
(lp510
Vwith
p511
atp512
Rp513
(dp514
g13
VIN
p515
sbag0
(g1
g2
(lp516
g0
(g1
g2
(lp517
Vhis
p518
atp519
Rp520
(dp521
g13
VPRP$
p522
sbag0
(g1
g2
(lp523
Vsandals
p524
atp525
Rp526
(dp527
g13
VNNS
p528
sbatp529
Rp530
(dp531
g13
VNP
p532
sbatp533
Rp534
(dp535
g13
VPP
p536
sbag0
(g1
g2
(lp537
g0
(g1
g2
(lp538
Voff
p539
atp540
Rp541
(dp542
g13
VRP
p543
sbatp544
Rp545
(dp546
g13
VPP
p547
sbag0
(g1
g2
(lp548
V,
p549
atp550
Rp551
(dp552
g13
V,
p553
sbag0
(g1
g2
(lp554
g0
(g1
g2
(lp555
Vwhile
p556
atp557
Rp558
(dp559
g13
VIN
p560
sbag0
(g1
g2
(lp561
g0
(g1
g2
(lp562
g0
(g1
g2
(lp563
Vthe
p564
atp565
Rp566
(dp567
g13
VDT
p568
sbag0
(g1
g2
(lp569
Vmom
p570
atp571
Rp572
(dp573
g13
VNN
p574
sbatp575
Rp576
(dp577
g13
VNP
p578
sbag0
(g1
g2
(lp579
g0
(g1
g2
(lp580
Vis
p581
atp582
Rp583
(dp584
g13
VVBZ
p585
sbag0
(g1
g2
(lp586
g0
(g1
g2
(lp587
g0
(g1
g2
(lp588
Vlistening
p589
atp590
Rp591
(dp592
g13
VVBG
p593
sbag0
(g1
g2
(lp594
g0
(g1
g2
(lp595
Vto
p596
atp597
Rp598
(dp599
g13
VTO
p600
sbag0
(g1
g2
(lp601
g0
(g1
g2
(lp602
Vmusic
p603
atp604
Rp605
(dp606
g13
VNN
p607
sbatp608
Rp609
(dp610
g13
VNP
p611
sbatp612
Rp613
(dp614
g13
VPP
p615
sbag0
(g1
g2
(lp616
g0
(g1
g2
(lp617
Vand
p618
atp619
Rp620
(dp621
g13
VCC
p622
sbatp623
Rp624
(dp625
g13
VADVP
p626
sbatp627
Rp628
(dp629
g13
VVP
p630
sbag0
(g1
g2
(lp631
V,
p632
atp633
Rp634
(dp635
g13
V,
p636
sbag0
(g1
g2
(lp637
Vand
p638
atp639
Rp640
(dp641
g13
VCC
p642
sbag0
(g1
g2
(lp643
g0
(g1
g2
(lp644
g0
(g1
g2
(lp645
Vmaybe
p646
atp647
Rp648
(dp649
g13
VRB
p650
sbatp651
Rp652
(dp653
g13
VADVP
p654
sbag0
(g1
g2
(lp655
Vhaving
p656
atp657
Rp658
(dp659
g13
VVBG
p660
sbag0
(g1
g2
(lp661
g0
(g1
g2
(lp662
Vwine
p663
atp664
Rp665
(dp666
g13
VNN
p667
sbag0
(g1
g2
(lp668
Vtherapy
p669
atp670
Rp671
(dp672
g13
VNN
p673
sbatp674
Rp675
(dp676
g13
VNP
p677
sbatp678
Rp679
(dp680
g13
VVP
p681
sbatp682
Rp683
(dp684
g13
VVP
p685
sbatp686
Rp687
(dp688
g13
VVP
p689
sbatp690
Rp691
(dp692
g13
VS
p693
sbatp694
Rp695
(dp696
g13
VSBAR
p697
sbatp698
Rp699
(dp700
g13
VVP
p701
sbatp702
Rp703
(dp704
g13
VVP
p705
sbag0
(g1
g2
(lp706
V.
p707
atp708
Rp709
(dp710
g13
V.
p711
sbatp712
Rp713
(dp714
g13
VS
p715
sbatp716
Rp717
(dp718
g13
S'id: 2'
p719
sbag0
(g1
g2
(lp720
g0
(g1
g2
(lp721
g0
(g1
g2
(lp722
g0
(g1
g2
(lp723
VThe
p724
atp725
Rp726
(dp727
g13
VDT
p728
sbatp729
Rp730
(dp731
g13
VNP
p732
sbag0
(g1
g2
(lp733
V,
p734
atp735
Rp736
(dp737
g13
V,
p738
sbag0
(g1
g2
(lp739
g0
(g1
g2
(lp740
Vthere
p741
atp742
Rp743
(dp744
g13
VEX
p745
sbatp746
Rp747
(dp748
g13
VNP
p749
sbag0
(g1
g2
(lp750
g0
(g1
g2
(lp751
Vis
p752
atp753
Rp754
(dp755
g13
VVBZ
p756
sbag0
(g1
g2
(lp757
g0
(g1
g2
(lp758
Vlike
p759
atp760
Rp761
(dp762
g13
VIN
p763
sbag0
(g1
g2
(lp764
g0
(g1
g2
(lp765
g0
(g1
g2
(lp766
g0
(g1
g2
(lp767
Vmaybe
p768
atp769
Rp770
(dp771
g13
VRB
p772
sbatp773
Rp774
(dp775
g13
VADVP
p776
sbag0
(g1
g2
(lp777
V,
p778
atp779
Rp780
(dp781
g13
V,
p782
sbag0
(g1
g2
(lp783
g0
(g1
g2
(lp784
Vit
p785
atp786
Rp787
(dp788
g13
VPRP
p789
sbatp790
Rp791
(dp792
g13
VNP
p793
sbag0
(g1
g2
(lp794
g0
(g1
g2
(lp795
Valmost
p796
atp797
Rp798
(dp799
g13
VRB
p800
sbatp801
Rp802
(dp803
g13
VADVP
p804
sbag0
(g1
g2
(lp805
g0
(g1
g2
(lp806
Vlooks
p807
atp808
Rp809
(dp810
g13
VVBZ
p811
sbag0
(g1
g2
(lp812
g0
(g1
g2
(lp813
Vlike
p814
atp815
Rp816
(dp817
g13
VIN
p818
sbag0
(g1
g2
(lp819
g0
(g1
g2
(lp820
Va
p821
atp822
Rp823
(dp824
g13
VDT
p825
sbag0
(g1
g2
(lp826
Vpark
p827
atp828
Rp829
(dp830
g13
VNN
p831
sbag0
(g1
g2
(lp832
Vranger
p833
atp834
Rp835
(dp836
g13
VNN
p837
sbatp838
Rp839
(dp840
g13
VNP
p841
sbatp842
Rp843
(dp844
g13
VPP
p845
sbag0
(g1
g2
(lp846
V,
p847
atp848
Rp849
(dp850
g13
V,
p851
sbag0
(g1
g2
(lp852
g0
(g1
g2
(lp853
g0
(g1
g2
(lp854
Vcatching
p855
atp856
Rp857
(dp858
g13
VVBG
p859
sbag0
(g1
g2
(lp860
g0
(g1
g2
(lp861
g0
(g1
g2
(lp862
Va
p863
atp864
Rp865
(dp866
g13
VDT
p867
sbag0
(g1
g2
(lp868
Vfish
p869
atp870
Rp871
(dp872
g13
VNN
p873
sbatp874
Rp875
(dp876
g13
VNP
p877
sbag0
(g1
g2
(lp878
V,
p879
atp880
Rp881
(dp882
g13
V,
p883
sbag0
(g1
g2
(lp884
Vor
p885
atp886
Rp887
(dp888
g13
VCC
p889
sbag0
(g1
g2
(lp890
g0
(g1
g2
(lp891
Va
p892
atp893
Rp894
(dp895
g13
VDT
p896
sbag0
(g1
g2
(lp897
Vguy
p898
atp899
Rp900
(dp901
g13
VNN
p902
sbatp903
Rp904
(dp905
g13
VNP
p906
sbatp907
Rp908
(dp909
g13
VNP
p910
sbag0
(g1
g2
(lp911
g0
(g1
g2
(lp912
Vwith
p913
atp914
Rp915
(dp916
g13
VIN
p917
sbag0
(g1
g2
(lp918
Vlike
p919
atp920
Rp921
(dp922
g13
VIN
p923
sbag0
(g1
g2
(lp924
g0
(g1
g2
(lp925
g0
(g1
g2
(lp926
Va
p927
atp928
Rp929
(dp930
g13
VDT
p931
sbag0
(g1
g2
(lp932
Vwide
p933
atp934
Rp935
(dp936
g13
VJJ
p937
sbag0
(g1
g2
(lp938
Vbrimmed
p939
atp940
Rp941
(dp942
g13
VVBN
p943
sbag0
(g1
g2
(lp944
Vcap
p945
atp946
Rp947
(dp948
g13
VNN
p949
sbatp950
Rp951
(dp952
g13
VNP
p953
sbag0
(g1
g2
(lp954
V,
p955
atp956
Rp957
(dp958
g13
V,
p959
sbag0
(g1
g2
(lp960
g0
(g1
g2
(lp961
Vlike
p962
atp963
Rp964
(dp965
g13
VIN
p966
sbag0
(g1
g2
(lp967
g0
(g1
g2
(lp968
Va
p969
atp970
Rp971
(dp972
g13
VDT
p973
sbag0
(g1
g2
(lp974
Vpark
p975
atp976
Rp977
(dp978
g13
VNN
p979
sbag0
(g1
g2
(lp980
Vranger
p981
atp982
Rp983
(dp984
g13
VNN
p985
sbatp986
Rp987
(dp988
g13
VNP
p989
sbatp990
Rp991
(dp992
g13
VPP
p993
sbatp994
Rp995
(dp996
g13
VNP
p997
sbatp998
Rp999
(dp1000
g13
VPP
p1001
sbatp1002
Rp1003
(dp1004
g13
VVP
p1005
sbatp1006
Rp1007
(dp1008
g13
VS
p1009
sbatp1010
Rp1011
(dp1012
g13
VVP
p1013
sbatp1014
Rp1015
(dp1016
g13
VS
p1017
sbag0
(g1
g2
(lp1018
V,
p1019
atp1020
Rp1021
(dp1022
g13
V,
p1023
sbag0
(g1
g2
(lp1024
Vand
p1025
atp1026
Rp1027
(dp1028
g13
VCC
p1029
sbag0
(g1
g2
(lp1030
g0
(g1
g2
(lp1031
g0
(g1
g2
(lp1032
Vthe
p1033
atp1034
Rp1035
(dp1036
g13
VDT
p1037
sbag0
(g1
g2
(lp1038
Vfish
p1039
atp1040
Rp1041
(dp1042
g13
VNN
p1043
sbatp1044
Rp1045
(dp1046
g13
VNP
p1047
sbag0
(g1
g2
(lp1048
g0
(g1
g2
(lp1049
Vis
p1050
atp1051
Rp1052
(dp1053
g13
VVBZ
p1054
sbag0
(g1
g2
(lp1055
g0
(g1
g2
(lp1056
V,
p1057
atp1058
Rp1059
(dp1060
g13
V,
p1061
sbag0
(g1
g2
(lp1062
g0
(g1
g2
(lp1063
g0
(g1
g2
(lp1064
Vjumping
p1065
atp1066
Rp1067
(dp1068
g13
VVBG
p1069
sbag0
(g1
g2
(lp1070
g0
(g1
g2
(lp1071
Varound
p1072
atp1073
Rp1074
(dp1075
g13
VRP
p1076
sbatp1077
Rp1078
(dp1079
g13
VPRT
p1080
sbag0
(g1
g2
(lp1081
g0
(g1
g2
(lp1082
Von
p1083
atp1084
Rp1085
(dp1086
g13
VIN
p1087
sbag0
(g1
g2
(lp1088
g0
(g1
g2
(lp1089
Vthe
p1090
atp1091
Rp1092
(dp1093
g13
VDT
p1094
sbag0
(g1
g2
(lp1095
Vline
p1096
atp1097
Rp1098
(dp1099
g13
VNN
p1100
sbatp1101
Rp1102
(dp1103
g13
VNP
p1104
sbatp1105
Rp1106
(dp1107
g13
VPP
p1108
sbatp1109
Rp1110
(dp1111
g13
VVP
p1112
sbatp1113
Rp1114
(dp1115
g13
VS
p1116
sbatp1117
Rp1118
(dp1119
g13
VVP
p1120
sbatp1121
Rp1122
(dp1123
g13
VVP
p1124
sbatp1125
Rp1126
(dp1127
g13
VS
p1128
sbatp1129
Rp1130
(dp1131
g13
VS
p1132
sbatp1133
Rp1134
(dp1135
g13
VSBAR
p1136
sbatp1137
Rp1138
(dp1139
g13
VVP
p1140
sbag0
(g1
g2
(lp1141
V.
p1142
atp1143
Rp1144
(dp1145
g13
V.
p1146
sbatp1147
Rp1148
(dp1149
g13
VS
p1150
sbatp1151
Rp1152
(dp1153
g13
S'id: 3'
p1154
sbag0
(g1
g2
(lp1155
g0
(g1
g2
(lp1156
g0
(g1
g2
(lp1157
VSo
p1158
atp1159
Rp1160
(dp1161
g13
VIN
p1162
sbag0
(g1
g2
(lp1163
g0
(g1
g2
(lp1164
Vit
p1165
atp1166
Rp1167
(dp1168
g13
VPRP
p1169
sbatp1170
Rp1171
(dp1172
g13
VNP
p1173
sbag0
(g1
g2
(lp1174
g0
(g1
g2
(lp1175
V's
p1176
atp1177
Rp1178
(dp1179
g13
VVBZ
p1180
sbag0
(g1
g2
(lp1181
g0
(g1
g2
(lp1182
Vlike
p1183
atp1184
Rp1185
(dp1186
g13
VIN
p1187
sbag0
(g1
g2
(lp1188
g0
(g1
g2
(lp1189
g0
(g1
g2
(lp1190
Vhe
p1191
atp1192
Rp1193
(dp1194
g13
VPRP
p1195
sbatp1196
Rp1197
(dp1198
g13
VNP
p1199
sbag0
(g1
g2
(lp1200
g0
(g1
g2
(lp1201
V's
p1202
atp1203
Rp1204
(dp1205
g13
VVBZ
p1206
sbag0
(g1
g2
(lp1207
g0
(g1
g2
(lp1208
Vabout
p1209
atp1210
Rp1211
(dp1212
g13
VIN
p1213
sbag0
(g1
g2
(lp1214
Vready
p1215
atp1216
Rp1217
(dp1218
g13
VJJ
p1219
sbatp1220
Rp1221
(dp1222
g13
VADJP
p1223
sbag0
(g1
g2
(lp1224
g0
(g1
g2
(lp1225
g0
(g1
g2
(lp1226
Vto
p1227
atp1228
Rp1229
(dp1230
g13
VTO
p1231
sbag0
(g1
g2
(lp1232
g0
(g1
g2
(lp1233
Vland
p1234
atp1235
Rp1236
(dp1237
g13
VVB
p1238
sbag0
(g1
g2
(lp1239
g0
(g1
g2
(lp1240
Vit
p1241
atp1242
Rp1243
(dp1244
g13
VPRP
p1245
sbatp1246
Rp1247
(dp1248
g13
VNP
p1249
sbatp1250
Rp1251
(dp1252
g13
VVP
p1253
sbatp1254
Rp1255
(dp1256
g13
VVP
p1257
sbatp1258
Rp1259
(dp1260
g13
VS
p1261
sbatp1262
Rp1263
(dp1264
g13
VVP
p1265
sbatp1266
Rp1267
(dp1268
g13
VS
p1269
sbatp1270
Rp1271
(dp1272
g13
VSBAR
p1273
sbatp1274
Rp1275
(dp1276
g13
VVP
p1277
sbag0
(g1
g2
(lp1278
V.
p1279
atp1280
Rp1281
(dp1282
g13
V.
p1283
sbatp1284
Rp1285
(dp1286
g13
VS
p1287
sbatp1288
Rp1289
(dp1290
g13
S'id: 4'
p1291
sbag0
(g1
g2
(lp1292
g0
(g1
g2
(lp1293
g0
(g1
g2
(lp1294
g0
(g1
g2
(lp1295
g0
(g1
g2
(lp1296
VLooks
p1297
atp1298
Rp1299
(dp1300
g13
VVBZ
p1301
sbag0
(g1
g2
(lp1302
g0
(g1
g2
(lp1303
g0
(g1
g2
(lp1304
Vto
p1305
atp1306
Rp1307
(dp1308
g13
VTO
p1309
sbag0
(g1
g2
(lp1310
g0
(g1
g2
(lp1311
Vbe
p1312
atp1313
Rp1314
(dp1315
g13
VVB
p1316
sbag0
(g1
g2
(lp1317
g0
(g1
g2
(lp1318
g0
(g1
g2
(lp1319
Vpretty
p1320
atp1321
Rp1322
(dp1323
g13
VRB
p1324
sbag0
(g1
g2
(lp1325
Vwindy
p1326
atp1327
Rp1328
(dp1329
g13
VJJ
p1330
sbatp1331
Rp1332
(dp1333
g13
VADJP
p1334
sbag0
(g1
g2
(lp1335
Vday
p1336
atp1337
Rp1338
(dp1339
g13
VNN
p1340
sbatp1341
Rp1342
(dp1343
g13
VNP
p1344
sbag0
(g1
g2
(lp1345
g0
(g1
g2
(lp1346
Vbecause
p1347
atp1348
Rp1349
(dp1350
g13
VIN
p1351
sbag0
(g1
g2
(lp1352
g0
(g1
g2
(lp1353
g0
(g1
g2
(lp1354
Vthe
p1355
atp1356
Rp1357
(dp1358
g13
VDT
p1359
sbag0
(g1
g2
(lp1360
Vflag
p1361
atp1362
Rp1363
(dp1364
g13
VNN
p1365
sbatp1366
Rp1367
(dp1368
g13
VNP
p1369
sbag0
(g1
g2
(lp1370
g0
(g1
g2
(lp1371
Vis
p1372
atp1373
Rp1374
(dp1375
g13
VVBZ
p1376
sbag0
(g1
g2
(lp1377
g0
(g1
g2
(lp1378
Vflying
p1379
atp1380
Rp1381
(dp1382
g13
VVBG
p1383
sbag0
(g1
g2
(lp1384
g0
(g1
g2
(lp1385
Vin
p1386
atp1387
Rp1388
(dp1389
g13
VIN
p1390
sbag0
(g1
g2
(lp1391
g0
(g1
g2
(lp1392
Vthe
p1393
atp1394
Rp1395
(dp1396
g13
VDT
p1397
sbag0
(g1
g2
(lp1398
Vbackground
p1399
atp1400
Rp1401
(dp1402
g13
VNN
p1403
sbatp1404
Rp1405
(dp1406
g13
VNP
p1407
sbatp1408
Rp1409
(dp1410
g13
VPP
p1411
sbatp1412
Rp1413
(dp1414
g13
VVP
p1415
sbatp1416
Rp1417
(dp1418
g13
VVP
p1419
sbatp1420
Rp1421
(dp1422
g13
VS
p1423
sbatp1424
Rp1425
(dp1426
g13
VSBAR
p1427
sbatp1428
Rp1429
(dp1430
g13
VVP
p1431
sbatp1432
Rp1433
(dp1434
g13
VVP
p1435
sbatp1436
Rp1437
(dp1438
g13
VS
p1439
sbatp1440
Rp1441
(dp1442
g13
VVP
p1443
sbatp1444
Rp1445
(dp1446
g13
VS
p1447
sbag0
(g1
g2
(lp1448
V,
p1449
atp1450
Rp1451
(dp1452
g13
V,
p1453
sbag0
(g1
g2
(lp1454
Vand
p1455
atp1456
Rp1457
(dp1458
g13
VCC
p1459
sbag0
(g1
g2
(lp1460
g0
(g1
g2
(lp1461
g0
(g1
g2
(lp1462
Vthere
p1463
atp1464
Rp1465
(dp1466
g13
VEX
p1467
sbatp1468
Rp1469
(dp1470
g13
VNP
p1471
sbag0
(g1
g2
(lp1472
g0
(g1
g2
(lp1473
V's
p1474
atp1475
Rp1476
(dp1477
g13
VVBZ
p1478
sbag0
(g1
g2
(lp1479
g0
(g1
g2
(lp1480
Venough
p1481
atp1482
Rp1483
(dp1484
g13
VJJ
p1485
sbag0
(g1
g2
(lp1486
Vwind
p1487
atp1488
Rp1489
(dp1490
g13
VNN
p1491
sbag0
(g1
g2
(lp1492
g0
(g1
g2
(lp1493
g0
(g1
g2
(lp1494
Vto
p1495
atp1496
Rp1497
(dp1498
g13
VTO
p1499
sbag0
(g1
g2
(lp1500
g0
(g1
g2
(lp1501
g0
(g1
g2
(lp1502
Vpick
p1503
atp1504
Rp1505
(dp1506
g13
VVB
p1507
sbag0
(g1
g2
(lp1508
g0
(g1
g2
(lp1509
Vup
p1510
atp1511
Rp1512
(dp1513
g13
VRP
p1514
sbatp1515
Rp1516
(dp1517
g13
VPRT
p1518
sbag0
(g1
g2
(lp1519
g0
(g1
g2
(lp1520
Vthe
p1521
atp1522
Rp1523
(dp1524
g13
VDT
p1525
sbag0
(g1
g2
(lp1526
Vkite
p1527
atp1528
Rp1529
(dp1530
g13
VNN
p1531
sbatp1532
Rp1533
(dp1534
g13
VNP
p1535
sbatp1536
Rp1537
(dp1538
g13
VVP
p1539
sbag0
(g1
g2
(lp1540
V,
p1541
atp1542
Rp1543
(dp1544
g13
V,
p1545
sbag0
(g1
g2
(lp1546
Vand
p1547
atp1548
Rp1549
(dp1550
g13
VCC
p1551
sbag0
(g1
g2
(lp1552
g0
(g1
g2
(lp1553
Vlet
p1554
atp1555
Rp1556
(dp1557
g13
VVB
p1558
sbag0
(g1
g2
(lp1559
g0
(g1
g2
(lp1560
g0
(g1
g2
(lp1561
Vit
p1562
atp1563
Rp1564
(dp1565
g13
VPRP
p1566
sbatp1567
Rp1568
(dp1569
g13
VNP
p1570
sbag0
(g1
g2
(lp1571
g0
(g1
g2
(lp1572
Vgo
p1573
atp1574
Rp1575
(dp1576
g13
VVB
p1577
sbatp1578
Rp1579
(dp1580
g13
VVP
p1581
sbatp1582
Rp1583
(dp1584
g13
VS
p1585
sbatp1586
Rp1587
(dp1588
g13
VVP
p1589
sbatp1590
Rp1591
(dp1592
g13
VVP
p1593
sbatp1594
Rp1595
(dp1596
g13
VVP
p1597
sbatp1598
Rp1599
(dp1600
g13
VS
p1601
sbatp1602
Rp1603
(dp1604
g13
VNP
p1605
sbatp1606
Rp1607
(dp1608
g13
VVP
p1609
sbatp1610
Rp1611
(dp1612
g13
VS
p1613
sbag0
(g1
g2
(lp1614
V.
p1615
atp1616
Rp1617
(dp1618
g13
V.
p1619
sbatp1620
Rp1621
(dp1622
g13
VS
p1623
sbatp1624
Rp1625
(dp1626
g13
S'id: 5'
p1627
sbag0
(g1
g2
(lp1628
g0
(g1
g2
(lp1629
g0
(g1
g2
(lp1630
g0
(g1
g2
(lp1631
g0
(g1
g2
(lp1632
VThe
p1633
atp1634
Rp1635
(dp1636
g13
VDT
p1637
sbag0
(g1
g2
(lp1638
Va
p1639
atp1640
Rp1641
(dp1642
g13
VDT
p1643
sbatp1644
Rp1645
(dp1646
g13
VNP
p1647
sbag0
(g1
g2
(lp1648
V,
p1649
atp1650
Rp1651
(dp1652
g13
V,
p1653
sbag0
(g1
g2
(lp1654
g0
(g1
g2
(lp1655
Vthere
p1656
atp1657
Rp1658
(dp1659
g13
VEX
p1660
sbatp1661
Rp1662
(dp1663
g13
VNP
p1664
sbag0
(g1
g2
(lp1665
g0
(g1
g2
(lp1666
V's
p1667
atp1668
Rp1669
(dp1670
g13
VVBZ
p1671
sbag0
(g1
g2
(lp1672
g0
(g1
g2
(lp1673
g0
(g1
g2
(lp1674
Vsome
p1675
atp1676
Rp1677
(dp1678
g13
VDT
p1679
sbag0
(g1
g2
(lp1680
Vboaters
p1681
atp1682
Rp1683
(dp1684
g13
VNNS
p1685
sbatp1686
Rp1687
(dp1688
g13
VNP
p1689
sbag0
(g1
g2
(lp1690
g0
(g1
g2
(lp1691
Vin
p1692
atp1693
Rp1694
(dp1695
g13
VIN
p1696
sbag0
(g1
g2
(lp1697
g0
(g1
g2
(lp1698
g0
(g1
g2
(lp1699
Vthe
p1700
atp1701
Rp1702
(dp1703
g13
VDT
p1704
sbag0
(g1
g2
(lp1705
Vbackground
p1706
atp1707
Rp1708
(dp1709
g13
VNN
p1710
sbatp1711
Rp1712
(dp1713
g13
VNP
p1714
sbag0
(g1
g2
(lp1715
g0
(g1
g2
(lp1716
Vwith
p1717
atp1718
Rp1719
(dp1720
g13
VIN
p1721
sbag0
(g1
g2
(lp1722
g0
(g1
g2
(lp1723
g0
(g1
g2
(lp1724
Vthe
p1725
atp1726
Rp1727
(dp1728
g13
VDT
p1729
sbag0
(g1
g2
(lp1730
Vboat
p1731
atp1732
Rp1733
(dp1734
g13
VNN
p1735
sbag0
(g1
g2
(lp1736
Vnumber
p1737
atp1738
Rp1739
(dp1740
g13
VNN
p1741
sbatp1742
Rp1743
(dp1744
g13
VNP
p1745
sbag0
(g1
g2
(lp1746
g0
(g1
g2
(lp1747
Vfour
p1748
atp1749
Rp1750
(dp1751
g13
VCD
p1752
sbag0
(g1
g2
(lp1753
Vseventy
p1754
atp1755
Rp1756
(dp1757
g13
VCD
p1758
sbatp1759
Rp1760
(dp1761
g13
VNP
p1762
sbatp1763
Rp1764
(dp1765
g13
VNP
p1766
sbatp1767
Rp1768
(dp1769
g13
VPP
p1770
sbatp1771
Rp1772
(dp1773
g13
VNP
p1774
sbatp1775
Rp1776
(dp1777
g13
VPP
p1778
sbatp1779
Rp1780
(dp1781
g13
VNP
p1782
sbatp1783
Rp1784
(dp1785
g13
VVP
p1786
sbatp1787
Rp1788
(dp1789
g13
VS
p1790
sbag0
(g1
g2
(lp1791
V,
p1792
atp1793
Rp1794
(dp1795
g13
V,
p1796
sbag0
(g1
g2
(lp1797
Vand
p1798
atp1799
Rp1800
(dp1801
g13
VCC
p1802
sbag0
(g1
g2
(lp1803
g0
(g1
g2
(lp1804
g0
(g1
g2
(lp1805
Vit
p1806
atp1807
Rp1808
(dp1809
g13
VPRP
p1810
sbatp1811
Rp1812
(dp1813
g13
VNP
p1814
sbag0
(g1
g2
(lp1815
g0
(g1
g2
(lp1816
Vappears
p1817
atp1818
Rp1819
(dp1820
g13
VVBZ
p1821
sbag0
(g1
g2
(lp1822
g0
(g1
g2
(lp1823
Vthat
p1824
atp1825
Rp1826
(dp1827
g13
VIN
p1828
sbag0
(g1
g2
(lp1829
g0
(g1
g2
(lp1830
g0
(g1
g2
(lp1831
Vthere
p1832
atp1833
Rp1834
(dp1835
g13
VEX
p1836
sbatp1837
Rp1838
(dp1839
g13
VNP
p1840
sbag0
(g1
g2
(lp1841
g0
(g1
g2
(lp1842
Vare
p1843
atp1844
Rp1845
(dp1846
g13
VVBP
p1847
sbag0
(g1
g2
(lp1848
g0
(g1
g2
(lp1849
g0
(g1
g2
(lp1850
Vtwo
p1851
atp1852
Rp1853
(dp1854
g13
VCD
p1855
sbag0
(g1
g2
(lp1856
Vpeople
p1857
atp1858
Rp1859
(dp1860
g13
VNNS
p1861
sbatp1862
Rp1863
(dp1864
g13
VNP
p1865
sbag0
(g1
g2
(lp1866
g0
(g1
g2
(lp1867
Von
p1868
atp1869
Rp1870
(dp1871
g13
VIN
p1872
sbag0
(g1
g2
(lp1873
g0
(g1
g2
(lp1874
Vboard
p1875
atp1876
Rp1877
(dp1878
g13
VNN
p1879
sbatp1880
Rp1881
(dp1882
g13
VNP
p1883
sbatp1884
Rp1885
(dp1886
g13
VPP
p1887
sbatp1888
Rp1889
(dp1890
g13
VNP
p1891
sbatp1892
Rp1893
(dp1894
g13
VVP
p1895
sbatp1896
Rp1897
(dp1898
g13
VS
p1899
sbatp1900
Rp1901
(dp1902
g13
VSBAR
p1903
sbatp1904
Rp1905
(dp1906
g13
VVP
p1907
sbatp1908
Rp1909
(dp1910
g13
VS
p1911
sbag0
(g1
g2
(lp1912
V.
p1913
atp1914
Rp1915
(dp1916
g13
V.
p1917
sbatp1918
Rp1919
(dp1920
g13
VS
p1921
sbatp1922
Rp1923
(dp1924
g13
S'id: 6'
p1925
sbag0
(g1
g2
(lp1926
g0
(g1
g2
(lp1927
g0
(g1
g2
(lp1928
g0
(g1
g2
(lp1929
VThere
p1930
atp1931
Rp1932
(dp1933
g13
VEX
p1934
sbatp1935
Rp1936
(dp1937
g13
VNP
p1938
sbag0
(g1
g2
(lp1939
g0
(g1
g2
(lp1940
Vare
p1941
atp1942
Rp1943
(dp1944
g13
VVBP
p1945
sbag0
(g1
g2
(lp1946
g0
(g1
g2
(lp1947
g0
(g1
g2
(lp1948
Vno
p1949
atp1950
Rp1951
(dp1952
g13
VDT
p1953
sbag0
(g1
g2
(lp1954
Vother
p1955
atp1956
Rp1957
(dp1958
g13
VJJ
p1959
sbag0
(g1
g2
(lp1960
Vboats
p1961
atp1962
Rp1963
(dp1964
g13
VNNS
p1965
sbatp1966
Rp1967
(dp1968
g13
VNP
p1969
sbag0
(g1
g2
(lp1970
g0
(g1
g2
(lp1971
Von
p1972
atp1973
Rp1974
(dp1975
g13
VIN
p1976
sbag0
(g1
g2
(lp1977
g0
(g1
g2
(lp1978
g0
(g1
g2
(lp1979
Vthe
p1980
atp1981
Rp1982
(dp1983
g13
VDT
p1984
sbag0
(g1
g2
(lp1985
Vlake
p1986
atp1987
Rp1988
(dp1989
g13
VNN
p1990
sbatp1991
Rp1992
(dp1993
g13
VNP
p1994
sbag0
(g1
g2
(lp1995
g0
(g1
g2
(lp1996
Vthat
p1997
atp1998
Rp1999
(dp2000
g13
VIN
p2001
sbag0
(g1
g2
(lp2002
g0
(g1
g2
(lp2003
g0
(g1
g2
(lp2004
Vwe
p2005
atp2006
Rp2007
(dp2008
g13
VPRP
p2009
sbatp2010
Rp2011
(dp2012
g13
VNP
p2013
sbag0
(g1
g2
(lp2014
g0
(g1
g2
(lp2015
Vcan
p2016
atp2017
Rp2018
(dp2019
g13
VMD
p2020
sbag0
(g1
g2
(lp2021
g0
(g1
g2
(lp2022
Vsee
p2023
atp2024
Rp2025
(dp2026
g13
VVB
p2027
sbatp2028
Rp2029
(dp2030
g13
VVP
p2031
sbatp2032
Rp2033
(dp2034
g13
VVP
p2035
sbatp2036
Rp2037
(dp2038
g13
VS
p2039
sbatp2040
Rp2041
(dp2042
g13
VSBAR
p2043
sbatp2044
Rp2045
(dp2046
g13
VNP
p2047
sbatp2048
Rp2049
(dp2050
g13
VPP
p2051
sbatp2052
Rp2053
(dp2054
g13
VNP
p2055
sbatp2056
Rp2057
(dp2058
g13
VVP
p2059
sbag0
(g1
g2
(lp2060
V.
p2061
atp2062
Rp2063
(dp2064
g13
V.
p2065
sbatp2066
Rp2067
(dp2068
g13
VS
p2069
sbatp2070
Rp2071
(dp2072
g13
S'id: 7'
p2073
sbag0
(g1
g2
(lp2074
g0
(g1
g2
(lp2075
g0
(g1
g2
(lp2076
g0
(g1
g2
(lp2077
g0
(g1
g2
(lp2078
VThe
p2079
atp2080
Rp2081
(dp2082
g13
VDT
p2083
sbag0
(g1
g2
(lp2084
Vdad
p2085
atp2086
Rp2087
(dp2088
g13
VNN
p2089
sbag0
(g1
g2
(lp2090
V's
p2091
atp2092
Rp2093
(dp2094
g13
VPOS
p2095
sbatp2096
Rp2097
(dp2098
g13
VNP
p2099
sbag0
(g1
g2
(lp2100
Vbook
p2101
atp2102
Rp2103
(dp2104
g13
VNN
p2105
sbatp2106
Rp2107
(dp2108
g13
VNP
p2109
sbag0
(g1
g2
(lp2110
g0
(g1
g2
(lp2111
Vappears
p2112
atp2113
Rp2114
(dp2115
g13
VVBZ
p2116
sbag0
(g1
g2
(lp2117
g0
(g1
g2
(lp2118
g0
(g1
g2
(lp2119
Vto
p2120
atp2121
Rp2122
(dp2123
g13
VTO
p2124
sbag0
(g1
g2
(lp2125
g0
(g1
g2
(lp2126
Vbe
p2127
atp2128
Rp2129
(dp2130
g13
VVB
p2131
sbag0
(g1
g2
(lp2132
g0
(g1
g2
(lp2133
Vblank
p2134
atp2135
Rp2136
(dp2137
g13
VJJ
p2138
sbatp2139
Rp2140
(dp2141
g13
VADJP
p2142
sbatp2143
Rp2144
(dp2145
g13
VVP
p2146
sbatp2147
Rp2148
(dp2149
g13
VVP
p2150
sbatp2151
Rp2152
(dp2153
g13
VS
p2154
sbatp2155
Rp2156
(dp2157
g13
VVP
p2158
sbatp2159
Rp2160
(dp2161
g13
VS
p2162
sbatp2163
Rp2164
(dp2165
g13
S'id: 8'
p2166
sbatp2167
Rp2168
(dp2169
g13
S'sentences'
p2170
sb.