ccopy_reg
_reconstructor
p0
(cnltk.tree
Tree
p1
c__builtin__
list
p2
(lp3
g0
(g1
g2
(lp4
g0
(g1
g2
(lp5
g0
(g1
g2
(lp6
g0
(g1
g2
(lp7
g0
(g1
g2
(lp8
(lp9
S'word: that, index: 1'
p10
aatp11
Rp12
(dp13
S'_label'
p14
Vnsubj
p15
sbag0
(g1
g2
(lp16
(lp17
S"word: 's, index: 2"
p18
aatp19
Rp20
(dp21
g14
Vcop
p22
sbatp23
Rp24
(dp25
g14
S'word: a, index: 3'
p26
sbatp27
Rp28
(dp29
g14
Vccomp
p30
sbag0
(g1
g2
(lp31
g0
(g1
g2
(lp32
g0
(g1
g2
(lp33
(lp34
S'word: a, index: 5'
p35
aatp36
Rp37
(dp38
g14
Vdet
p39
sbatp40
Rp41
(dp42
g14
S'word: families, index: 6'
p43
sbatp44
Rp45
(dp46
g14
Vnsubj
p47
sbag0
(g1
g2
(lp48
g0
(g1
g2
(lp49
g0
(g1
g2
(lp50
(lp51
S'word: the, index: 9'
p52
aatp53
Rp54
(dp55
g14
Vdet
p56
sbatp57
Rp58
(dp59
g14
S'word: circus, index: 10'
p60
sbatp61
Rp62
(dp63
g14
Vprep
p64
sbatp65
Rp66
(dp67
g14
S'word: are, index: 7'
p68
sbatp69
Rp70
(dp71
g14
S'id: 0'
p72
sbag0
(g1
g2
(lp73
g0
(g1
g2
(lp74
g0
(g1
g2
(lp75
g0
(g1
g2
(lp76
g0
(g1
g2
(lp77
(lp78
S'word: there, index: 4'
p79
aatp80
Rp81
(dp82
g14
Vexpl
p83
sbag0
(g1
g2
(lp84
g0
(g1
g2
(lp85
g0
(g1
g2
(lp86
(lp87
S'word: a, index: 6'
p88
aatp89
Rp90
(dp91
g14
Vdet
p92
sbatp93
Rp94
(dp95
g14
S'word: clown, index: 7'
p96
sbatp97
Rp98
(dp99
g14
Vnsubj
p100
sbatp101
Rp102
(dp103
g14
S"word: 's, index: 5"
p104
sbatp105
Rp106
(dp107
g14
Vccomp
p108
sbag0
(g1
g2
(lp109
(lp110
S'word: There, index: 1'
p111
aatp112
Rp113
(dp114
g14
Vexpl
p115
sbatp116
Rp117
(dp118
g14
S"word: 's, index: 2"
p119
sbatp120
Rp121
(dp122
g14
S'id: 1'
p123
sbag0
(g1
g2
(lp124
g0
(g1
g2
(lp125
g0
(g1
g2
(lp126
g0
(g1
g2
(lp127
g0
(g1
g2
(lp128
g0
(g1
g2
(lp129
g0
(g1
g2
(lp130
(lp131
S'word: a, index: 7'
p132
aatp133
Rp134
(dp135
g14
Vdet
p136
sbatp137
Rp138
(dp139
g14
S'word: lion, index: 8'
p140
sbatp141
Rp142
(dp143
g14
Vnpadvmod
p144
sbatp145
Rp146
(dp147
g14
S'word: tamer, index: 9'
p148
sbatp149
Rp150
(dp151
g14
Vacomp
p152
sbag0
(g1
g2
(lp153
g0
(g1
g2
(lp154
g0
(g1
g2
(lp155
(lp156
S'word: There, index: 1'
p157
aatp158
Rp159
(dp160
g14
Vexpl
p161
sbag0
(g1
g2
(lp162
(lp163
S'word: a, index: 3'
p164
aatp165
Rp166
(dp167
g14
Vnsubj
p168
sbatp169
Rp170
(dp171
g14
S"word: 's, index: 2"
p172
sbatp173
Rp174
(dp175
g14
Vccomp
p176
sbag0
(g1
g2
(lp177
(lp178
S'word: there, index: 5'
p179
aatp180
Rp181
(dp182
g14
Vexpl
p183
sbatp184
Rp185
(dp186
g14
S"word: 's, index: 6"
p187
sbatp188
Rp189
(dp190
g14
S'id: 2'
p191
sbag0
(g1
g2
(lp192
g0
(g1
g2
(lp193
g0
(g1
g2
(lp194
(lp195
S'word: And, index: 1'
p196
aatp197
Rp198
(dp199
g14
Vcc
p200
sbag0
(g1
g2
(lp201
(lp202
S'word: also, index: 2'
p203
aatp204
Rp205
(dp206
g14
Vadvmod
p207
sbag0
(g1
g2
(lp208
(lp209
S'word: a, index: 5'
p210
aatp211
Rp212
(dp213
g14
Vappos
p214
sbag0
(g1
g2
(lp215
g0
(g1
g2
(lp216
g0
(g1
g2
(lp217
(lp218
S'word: a, index: 9'
p219
aatp220
Rp221
(dp222
g14
Vdep
p223
sbag0
(g1
g2
(lp224
(lp225
S'word: a, index: 11'
p226
aatp227
Rp228
(dp229
g14
Vdep
p230
sbag0
(g1
g2
(lp231
g0
(g1
g2
(lp232
g0
(g1
g2
(lp233
(lp234
S'word: a, index: 13'
p235
aatp236
Rp237
(dp238
g14
Vdet
p239
sbag0
(g1
g2
(lp240
g0
(g1
g2
(lp241
g0
(g1
g2
(lp242
g0
(g1
g2
(lp243
g0
(g1
g2
(lp244
(lp245
S'word: a, index: 18'
p246
aatp247
Rp248
(dp249
g14
Vdet
p250
sbatp251
Rp252
(dp253
g14
S'word: horse, index: 19'
p254
sbatp255
Rp256
(dp257
g14
Vdobj
p258
sbatp259
Rp260
(dp261
g14
S'word: riding, index: 17'
p262
sbatp263
Rp264
(dp265
g14
Vdep
p266
sbag0
(g1
g2
(lp267
g0
(g1
g2
(lp268
g0
(g1
g2
(lp269
(lp270
S'word: a, index: 21'
p271
aatp272
Rp273
(dp274
g14
Vdet
p275
sbag0
(g1
g2
(lp276
g0
(g1
g2
(lp277
g0
(g1
g2
(lp278
(lp279
S'word: whatever, index: 24'
p280
aatp281
Rp282
(dp283
g14
Vpobj
p284
sbatp285
Rp286
(dp287
g14
S'word: or, index: 23'
p288
sbatp289
Rp290
(dp291
g14
Vprep
p292
sbatp293
Rp294
(dp295
g14
S'word: ballerina, index: 22'
p296
sbatp297
Rp298
(dp299
g14
Vprep
p300
sbatp301
Rp302
(dp303
g14
S'word: woman, index: 14'
p304
sbatp305
Rp306
(dp307
g14
Vappos
p308
sbatp309
Rp310
(dp311
g14
S'word: a, index: 7'
p312
sbatp313
Rp314
(dp315
g14
Vappos
p316
sbatp317
Rp318
(dp319
g14
S'word: a, index: 3'
p320
sbatp321
Rp322
(dp323
g14
S'id: 3'
p324
sbag0
(g1
g2
(lp325
g0
(g1
g2
(lp326
g0
(g1
g2
(lp327
(lp328
S'word: And, index: 1'
p329
aatp330
Rp331
(dp332
g14
Vcc
p333
sbag0
(g1
g2
(lp334
g0
(g1
g2
(lp335
g0
(g1
g2
(lp336
(lp337
S'word: walker, index: 4'
p338
aatp339
Rp340
(dp341
g14
Vdep
p342
sbatp343
Rp344
(dp345
g14
S'word: rope, index: 3'
p346
sbatp347
Rp348
(dp349
g14
Vprep
p350
sbatp351
Rp352
(dp353
g14
S'word: type, index: 2'
p354
sbatp355
Rp356
(dp357
g14
S'id: 4'
p358
sbag0
(g1
g2
(lp359
g0
(g1
g2
(lp360
g0
(g1
g2
(lp361
(lp362
S'word: There, index: 1'
p363
aatp364
Rp365
(dp366
g14
Vexpl
p367
sbag0
(g1
g2
(lp368
(lp369
S'word: a, index: 3'
p370
aatp371
Rp372
(dp373
g14
Vnsubj
p374
sbag0
(g1
g2
(lp375
g0
(g1
g2
(lp376
g0
(g1
g2
(lp377
(lp378
S'word: she, index: 19'
p379
aatp380
Rp381
(dp382
g14
Vnsubjpass
p383
sbag0
(g1
g2
(lp384
(lp385
S"word: 's, index: 20"
p386
aatp387
Rp388
(dp389
g14
Vauxpass
p390
sbag0
(g1
g2
(lp391
g0
(g1
g2
(lp392
g0
(g1
g2
(lp393
(lp394
S'word: two, index: 22'
p395
aatp396
Rp397
(dp398
g14
Vnum
p399
sbatp400
Rp401
(dp402
g14
S'word: kids, index: 23'
p403
sbatp404
Rp405
(dp406
g14
Vdobj
p407
sbatp408
Rp409
(dp410
g14
S'word: got, index: 21'
p411
sbatp412
Rp413
(dp414
g14
Vconj
p415
sbag0
(g1
g2
(lp416
g0
(g1
g2
(lp417
g0
(g1
g2
(lp418
(lp419
S'word: there, index: 5'
p420
aatp421
Rp422
(dp423
g14
Vexpl
p424
sbag0
(g1
g2
(lp425
g0
(g1
g2
(lp426
g0
(g1
g2
(lp427
g0
(g1
g2
(lp428
g0
(g1
g2
(lp429
(lp430
S'word: a, index: 16'
p431
aatp432
Rp433
(dp434
g14
Vdet
p435
sbatp436
Rp437
(dp438
g14
S'word: woman, index: 17'
p439
sbatp440
Rp441
(dp442
g14
Vconj
p443
sbag0
(g1
g2
(lp444
(lp445
S'word: a, index: 7'
p446
aatp447
Rp448
(dp449
g14
Vdet
p450
sbag0
(g1
g2
(lp451
g0
(g1
g2
(lp452
g0
(g1
g2
(lp453
g437
atp454
Rp455
(dp456
g14
Vconj
p457
sbag0
(g1
g2
(lp458
(lp459
S'word: a, index: 10'
p460
aatp461
Rp462
(dp463
g14
Vdet
p464
sbag0
(g1
g2
(lp465
g0
(g1
g2
(lp466
g0
(g1
g2
(lp467
(lp468
S'word: a, index: 13'
p469
aatp470
Rp471
(dp472
g14
Vdet
p473
sbatp474
Rp475
(dp476
g14
S'word: man, index: 14'
p477
sbatp478
Rp479
(dp480
g14
Vconj
p481
sbatp482
Rp483
(dp484
g14
S'word: man, index: 11'
p485
sbatp486
Rp487
(dp488
g14
Vconj
p489
sbag0
(g1
g2
(lp490
g475
atp491
Rp492
(dp493
g14
Vconj
p494
sbatp495
Rp496
(dp497
g14
S'word: wife, index: 8'
p498
sbatp499
Rp500
(dp501
g14
Vnsubj
p502
sbag0
(g1
g2
(lp503
g483
atp504
Rp505
(dp506
g14
Vnsubj
p507
sbatp508
Rp509
(dp510
g14
S"word: 's, index: 6"
p511
sbatp512
Rp513
(dp514
g14
Vccomp
p515
sbag0
(g1
g2
(lp516
g0
(g1
g2
(lp517
g0
(g1
g2
(lp518
(lp519
S'word: he, index: 25'
p520
aatp521
Rp522
(dp523
g14
Vnsubjpass
p524
sbag0
(g1
g2
(lp525
(lp526
S"word: 's, index: 26"
p527
aatp528
Rp529
(dp530
g14
Vauxpass
p531
sbag0
(g1
g2
(lp532
(lp533
S'word: another, index: 28'
p534
aatp535
Rp536
(dp537
g14
Vdobj
p538
sbatp539
Rp540
(dp541
g14
S'word: got, index: 27'
p542
sbatp543
Rp544
(dp545
g14
Vconj
p546
sbatp547
Rp548
(dp549
g14
S"word: 's, index: 2"
p550
sbatp551
Rp552
(dp553
g14
S'id: 5'
p554
sbag0
(g1
g2
(lp555
g0
(g1
g2
(lp556
g0
(g1
g2
(lp557
g0
(g1
g2
(lp558
g0
(g1
g2
(lp559
(lp560
S'word: one, index: 3'
p561
aatp562
Rp563
(dp564
g14
Vnum
p565
sbag0
(g1
g2
(lp566
(lp567
S'word: two, index: 5'
p568
aatp569
Rp570
(dp571
g14
Vnum
p572
sbag0
(g1
g2
(lp573
(lp574
S'word: three, index: 7'
p575
aatp576
Rp577
(dp578
g14
Vnum
p579
sbag0
(g1
g2
(lp580
(lp581
S'word: four, index: 9'
p582
aatp583
Rp584
(dp585
g14
Vnum
p586
sbag0
(g1
g2
(lp587
(lp588
S'word: five, index: 11'
p589
aatp590
Rp591
(dp592
g14
Vnum
p593
sbag0
(g1
g2
(lp594
g0
(g1
g2
(lp595
g0
(g1
g2
(lp596
g0
(g1
g2
(lp597
g0
(g1
g2
(lp598
(lp599
S'word: the, index: 14'
p600
aatp601
Rp602
(dp603
g14
Vdet
p604
sbag0
(g1
g2
(lp605
(lp606
S'word: type, index: 15'
p607
aatp608
Rp609
(dp610
g14
Vnn
p611
sbag0
(g1
g2
(lp612
(lp613
S'word: rope, index: 16'
p614
aatp615
Rp616
(dp617
g14
Vnn
p618
sbatp619
Rp620
(dp621
g14
S'word: walker, index: 17'
p622
sbatp623
Rp624
(dp625
g14
Vdobj
p626
sbatp627
Rp628
(dp629
g14
S'word: watching, index: 13'
p630
sbatp631
Rp632
(dp633
g14
Vvmod
p634
sbatp635
Rp636
(dp637
g14
S'word: people, index: 12'
p638
sbatp639
Rp640
(dp641
g14
Vnsubj
p642
sbag0
(g1
g2
(lp643
(lp644
S'word: There, index: 1'
p645
aatp646
Rp647
(dp648
g14
Vexpl
p649
sbatp650
Rp651
(dp652
g14
S"word: 's, index: 2"
p653
sbatp654
Rp655
(dp656
g14
S'id: 6'
p657
sbag0
(g1
g2
(lp658
g0
(g1
g2
(lp659
g0
(g1
g2
(lp660
(lp661
S'word: there, index: 5'
p662
aatp663
Rp664
(dp665
g14
Vexpl
p666
sbag0
(g1
g2
(lp667
g0
(g1
g2
(lp668
g0
(g1
g2
(lp669
(lp670
S'word: a, index: 7'
p671
aatp672
Rp673
(dp674
g14
Vdet
p675
sbag0
(g1
g2
(lp676
(lp677
S'word: a, index: 10'
p678
aatp679
Rp680
(dp681
g14
Vappos
p682
sbag0
(g1
g2
(lp683
g0
(g1
g2
(lp684
g0
(g1
g2
(lp685
(lp686
S'word: a, index: 12'
p687
aatp688
Rp689
(dp690
g14
Vdet
p691
sbag0
(g1
g2
(lp692
(lp693
S'word: lion, index: 13'
p694
aatp695
Rp696
(dp697
g14
Vdep
p698
sbatp699
Rp700
(dp701
g14
S'word: tamer, index: 14'
p702
sbatp703
Rp704
(dp705
g14
Vappos
p706
sbag0
(g1
g2
(lp707
g0
(g1
g2
(lp708
g0
(g1
g2
(lp709
g0
(g1
g2
(lp710
g0
(g1
g2
(lp711
(lp712
S'word: a, index: 17'
p713
aatp714
Rp715
(dp716
g14
Vdet
p717
sbag0
(g1
g2
(lp718
g0
(g1
g2
(lp719
g0
(g1
g2
(lp720
g0
(g1
g2
(lp721
g0
(g1
g2
(lp722
(lp723
S'word: a, index: 21'
p724
aatp725
Rp726
(dp727
g14
Vdet
p728
sbatp729
Rp730
(dp731
g14
S'word: enclosure, index: 22'
p732
sbatp733
Rp734
(dp735
g14
Vpobj
p736
sbatp737
Rp738
(dp739
g14
S'word: of, index: 20'
p740
sbatp741
Rp742
(dp743
g14
Vpcomp
p744
sbatp745
Rp746
(dp747
g14
S'word: inside, index: 19'
p748
sbatp749
Rp750
(dp751
g14
Vpobj
p752
sbatp753
Rp754
(dp755
g14
S'word: inside, index: 16'
p756
sbatp757
Rp758
(dp759
g14
Vprep
p760
sbatp761
Rp762
(dp763
g14
S'word: man, index: 8'
p764
sbatp765
Rp766
(dp767
g14
Vnsubj
p768
sbag0
(g1
g2
(lp769
g0
(g1
g2
(lp770
g0
(g1
g2
(lp771
(lp772
S'word: There, index: 1'
p773
aatp774
Rp775
(dp776
g14
Vexpl
p777
sbag0
(g1
g2
(lp778
(lp779
S'word: a, index: 3'
p780
aatp781
Rp782
(dp783
g14
Vnsubj
p784
sbatp785
Rp786
(dp787
g14
S"word: 's, index: 2"
p788
sbatp789
Rp790
(dp791
g14
Vccomp
p792
sbatp793
Rp794
(dp795
g14
S"word: 's, index: 6"
p796
sbatp797
Rp798
(dp799
g14
S'id: 7'
p800
sbag0
(g1
g2
(lp801
g0
(g1
g2
(lp802
g0
(g1
g2
(lp803
g0
(g1
g2
(lp804
g0
(g1
g2
(lp805
(lp806
S'word: The, index: 1'
p807
aatp808
Rp809
(dp810
g14
Vdet
p811
sbatp812
Rp813
(dp814
g14
S'word: cotton, index: 2'
p815
sbatp816
Rp817
(dp818
g14
Vnsubj
p819
sbag0
(g1
g2
(lp820
g0
(g1
g2
(lp821
g0
(g1
g2
(lp822
g0
(g1
g2
(lp823
g0
(g1
g2
(lp824
(lp825
S'word: it, index: 22'
p826
aatp827
Rp828
(dp829
g14
Vnsubj
p830
sbag0
(g1
g2
(lp831
(lp832
S"word: 's, index: 23"
p833
aatp834
Rp835
(dp836
g14
Vcop
p837
sbatp838
Rp839
(dp840
g14
S'word: water, index: 24'
p841
sbatp842
Rp843
(dp844
g14
Vccomp
p845
sbag0
(g1
g2
(lp846
(lp847
S'word: me, index: 20'
p848
aatp849
Rp850
(dp851
g14
Vnsubj
p852
sbatp853
Rp854
(dp855
g14
S'word: think, index: 21'
p856
sbatp857
Rp858
(dp859
g14
Vccomp
p860
sbag0
(g1
g2
(lp861
g0
(g1
g2
(lp862
g0
(g1
g2
(lp863
g0
(g1
g2
(lp864
g0
(g1
g2
(lp865
(lp866
S'word: is, index: 9'
p867
aatp868
Rp869
(dp870
g14
Vcop
p871
sbag0
(g1
g2
(lp872
(lp873
S'word: a, index: 10'
p874
aatp875
Rp876
(dp877
g14
Vdet
p878
sbag0
(g1
g2
(lp879
(lp880
S'word: throwing, index: 11'
p881
aatp882
Rp883
(dp884
g14
Vamod
p885
sbag0
(g1
g2
(lp886
g0
(g1
g2
(lp887
g0
(g1
g2
(lp888
(lp889
S'word: the, index: 14'
p890
aatp891
Rp892
(dp893
g14
Vdet
p894
sbag0
(g1
g2
(lp895
(lp896
S'word: the, index: 17'
p897
aatp898
Rp899
(dp900
g14
Vprep
p901
sbatp902
Rp903
(dp904
g14
S'word: boy, index: 15'
p905
sbatp906
Rp907
(dp908
g14
Vprep
p909
sbatp910
Rp911
(dp912
g14
S'word: confetti, index: 12'
p913
sbatp914
Rp915
(dp916
g14
Vrcmod
p917
sbag0
(g1
g2
(lp918
g0
(g1
g2
(lp919
g0
(g1
g2
(lp920
(lp921
S'word: the, index: 4'
p922
aatp923
Rp924
(dp925
g14
Vdet
p926
sbatp927
Rp928
(dp929
g14
S'word: clown, index: 5'
p930
sbatp931
Rp932
(dp933
g14
Vnsubj
p934
sbag0
(g1
g2
(lp935
(lp936
S'word: is, index: 6'
p937
aatp938
Rp939
(dp940
g14
Vcop
p941
sbatp942
Rp943
(dp944
g14
S'word: a, index: 7'
p945
sbatp946
Rp947
(dp948
g14
Vparataxis
p949
sbatp950
Rp951
(dp952
g14
S'word: makes, index: 19'
p953
sbatp954
Rp955
(dp956
g14
S'id: 8'
p957
sbag0
(g1
g2
(lp958
g0
(g1
g2
(lp959
g0
(g1
g2
(lp960
g0
(g1
g2
(lp961
g0
(g1
g2
(lp962
(lp963
S'word: the, index: 11'
p964
aatp965
Rp966
(dp967
g14
Vdet
p968
sbatp969
Rp970
(dp971
g14
S'word: girl, index: 12'
p972
sbatp973
Rp974
(dp975
g14
Vappos
p976
sbag0
(g1
g2
(lp977
(lp978
S'word: ballerina, index: 14'
p979
aatp980
Rp981
(dp982
g14
Vappos
p983
sbag0
(g1
g2
(lp984
g0
(g1
g2
(lp985
g0
(g1
g2
(lp986
g0
(g1
g2
(lp987
g0
(g1
g2
(lp988
(lp989
S'word: she, index: 29'
p990
aatp991
Rp992
(dp993
g14
Vnsubj
p994
sbag0
(g1
g2
(lp995
(lp996
S"word: 's, index: 30"
p997
aatp998
Rp999
(dp1000
g14
Vaux
p1001
sbag0
(g1
g2
(lp1002
g0
(g1
g2
(lp1003
g0
(g1
g2
(lp1004
(lp1005
S'word: the, index: 32'
p1006
aatp1007
Rp1008
(dp1009
g14
Vdet
p1010
sbatp1011
Rp1012
(dp1013
g14
S'word: horse, index: 33'
p1014
sbatp1015
Rp1016
(dp1017
g14
Vdobj
p1018
sbag0
(g1
g2
(lp1019
g0
(g1
g2
(lp1020
g0
(g1
g2
(lp1021
g0
(g1
g2
(lp1022
g0
(g1
g2
(lp1023
(lp1024
S'word: she, index: 25'
p1025
aatp1026
Rp1027
(dp1028
g14
Vnsubj
p1029
sbag0
(g1
g2
(lp1030
(lp1031
S"word: 's, index: 26"
p1032
aatp1033
Rp1034
(dp1035
g14
Vaux
p1036
sbatp1037
Rp1038
(dp1039
g14
S'word: riding, index: 27'
p1040
sbatp1041
Rp1042
(dp1043
g14
Vccomp
p1044
sbag0
(g1
g2
(lp1045
g0
(g1
g2
(lp1046
g0
(g1
g2
(lp1047
(lp1048
S'word: or, index: 19'
p1049
aatp1050
Rp1051
(dp1052
g14
Vcc
p1053
sbatp1054
Rp1055
(dp1056
g14
S'word: whatever, index: 20'
p1057
sbatp1058
Rp1059
(dp1060
g14
Vdep
p1061
sbag0
(g1
g2
(lp1062
(lp1063
S'word: she, index: 22'
p1064
aatp1065
Rp1066
(dp1067
g14
Vnsubj
p1068
sbatp1069
Rp1070
(dp1071
g14
S'word: is, index: 23'
p1072
sbatp1073
Rp1074
(dp1075
g14
Vadvcl
p1076
sbatp1077
Rp1078
(dp1079
g14
S'word: riding, index: 31'
p1080
sbatp1081
Rp1082
(dp1083
g14
Vccomp
p1084
sbag0
(g1
g2
(lp1085
g0
(g1
g2
(lp1086
g0
(g1
g2
(lp1087
(lp1088
S'word: a, index: 35'
p1089
aatp1090
Rp1091
(dp1092
g14
Vdet
p1093
sbatp1094
Rp1095
(dp1096
g14
S'word: circle, index: 36'
p1097
sbatp1098
Rp1099
(dp1100
g14
Vprep
p1101
sbatp1102
Rp1103
(dp1104
g14
S'word: mount, index: 17'
p1105
sbatp1106
Rp1107
(dp1108
g14
Vappos
p1109
sbag0
(g1
g2
(lp1110
g0
(g1
g2
(lp1111
g0
(g1
g2
(lp1112
g970
atp1113
Rp1114
(dp1115
g14
Vconj
p1116
sbag0
(g1
g2
(lp1117
(lp1118
S'word: ballerina, index: 14'
p1119
aatp1120
Rp1121
(dp1122
g14
Vconj
p1123
sbag0
(g1
g2
(lp1124
g1103
atp1125
Rp1126
(dp1127
g14
Vconj
p1128
sbag0
(g1
g2
(lp1129
(lp1130
S'word: the, index: 5'
p1131
aatp1132
Rp1133
(dp1134
g14
Vconj
p1135
sbag0
(g1
g2
(lp1136
(lp1137
S'word: the, index: 7'
p1138
aatp1139
Rp1140
(dp1141
g14
Vconj
p1142
sbag0
(g1
g2
(lp1143
(lp1144
S'word: the, index: 9'
p1145
aatp1146
Rp1147
(dp1148
g14
Vconj
p1149
sbatp1150
Rp1151
(dp1152
g14
S'word: the, index: 3'
p1153
sbatp1154
Rp1155
(dp1156
g14
Vappos
p1157
sbag0
(g1
g2
(lp1158
(lp1159
S'word: the, index: 5'
p1160
aatp1161
Rp1162
(dp1163
g14
Vappos
p1164
sbag0
(g1
g2
(lp1165
(lp1166
S'word: the, index: 7'
p1167
aatp1168
Rp1169
(dp1170
g14
Vappos
p1171
sbag0
(g1
g2
(lp1172
(lp1173
S'word: circles, index: 39'
p1174
aatp1175
Rp1176
(dp1177
g14
Vprep
p1178
sbag0
(g1
g2
(lp1179
(lp1180
S'word: the, index: 9'
p1181
aatp1182
Rp1183
(dp1184
g14
Vappos
p1185
sbatp1186
Rp1187
(dp1188
g14
S'word: The, index: 1'
p1189
sbatp1190
Rp1191
(dp1192
g14
S'id: 9'
p1193
sbag0
(g1
g2
(lp1194
g0
(g1
g2
(lp1195
g0
(g1
g2
(lp1196
(lp1197
S'word: I, index: 1'
p1198
aatp1199
Rp1200
(dp1201
g14
Vnsubj
p1202
sbag0
(g1
g2
(lp1203
(lp1204
S'word: do, index: 2'
p1205
aatp1206
Rp1207
(dp1208
g14
Vaux
p1209
sbag0
(g1
g2
(lp1210
(lp1211
S"word: n't, index: 3"
p1212
aatp1213
Rp1214
(dp1215
g14
Vneg
p1216
sbag0
(g1
g2
(lp1217
g0
(g1
g2
(lp1218
g0
(g1
g2
(lp1219
(lp1220
S'word: what, index: 5'
p1221
aatp1222
Rp1223
(dp1224
g14
Vnsubj
p1225
sbag0
(g1
g2
(lp1226
(lp1227
S'word: else, index: 6'
p1228
aatp1229
Rp1230
(dp1231
g14
Vdep
p1232
sbag0
(g1
g2
(lp1233
(lp1234
S'word: to, index: 7'
p1235
aatp1236
Rp1237
(dp1238
g14
Vaux
p1239
sbatp1240
Rp1241
(dp1242
g14
S'word: say, index: 8'
p1243
sbatp1244
Rp1245
(dp1246
g14
Vxcomp
p1247
sbatp1248
Rp1249
(dp1250
g14
S'word: know, index: 4'
p1251
sbatp1252
Rp1253
(dp1254
g14
S'id: 10'
p1255
sbag0
(g1
g2
(lp1256
g0
(g1
g2
(lp1257
g0
(g1
g2
(lp1258
(lp1259
S'word: Do, index: 1'
p1260
aatp1261
Rp1262
(dp1263
g14
Vaux
p1264
sbag0
(g1
g2
(lp1265
(lp1266
S"word: n't, index: 2"
p1267
aatp1268
Rp1269
(dp1270
g14
Vneg
p1271
sbag0
(g1
g2
(lp1272
g0
(g1
g2
(lp1273
g0
(g1
g2
(lp1274
(lp1275
S'word: what, index: 4'
p1276
aatp1277
Rp1278
(dp1279
g14
Vnsubj
p1280
sbag0
(g1
g2
(lp1281
(lp1282
S'word: else, index: 5'
p1283
aatp1284
Rp1285
(dp1286
g14
Vdep
p1287
sbag0
(g1
g2
(lp1288
(lp1289
S'word: to, index: 6'
p1290
aatp1291
Rp1292
(dp1293
g14
Vaux
p1294
sbatp1295
Rp1296
(dp1297
g14
S'word: say, index: 7'
p1298
sbatp1299
Rp1300
(dp1301
g14
Vxcomp
p1302
sbatp1303
Rp1304
(dp1305
g14
S'word: know, index: 3'
p1306
sbatp1307
Rp1308
(dp1309
g14
S'id: 11'
p1310
sbag0
(g1
g2
(lp1311
g0
(g1
g2
(lp1312
g0
(g1
g2
(lp1313
g0
(g1
g2
(lp1314
g0
(g1
g2
(lp1315
(lp1316
S'word: My, index: 1'
p1317
aatp1318
Rp1319
(dp1320
g14
Vposs
p1321
sbag0
(g1
g2
(lp1322
(lp1323
S'word: up, index: 3'
p1324
aatp1325
Rp1326
(dp1327
g14
Vadvmod
p1328
sbatp1329
Rp1330
(dp1331
g14
S'word: time, index: 2'
p1332
sbatp1333
Rp1334
(dp1335
g14
Vnpadvmod
p1336
sbatp1337
Rp1338
(dp1339
g14
S'word: yet, index: 4'
p1340
sbatp1341
Rp1342
(dp1343
g14
S'id: 12'
p1344
sbatp1345
Rp1346
(dp1347
g14
S'sentences'
p1348
sb.