ccopy_reg
_reconstructor
p0
(cnltk.tree
Tree
p1
c__builtin__
list
p2
(lp3
g0
(g1
g2
(lp4
g0
(g1
g2
(lp5
g0
(g1
g2
(lp6
g0
(g1
g2
(lp7
Vwe
p8
atp9
Rp10
(dp11
S'_label'
p12
VPRP
p13
sbatp14
Rp15
(dp16
g12
VNP
p17
sbag0
(g1
g2
(lp18
g0
(g1
g2
(lp19
Vhad
p20
atp21
Rp22
(dp23
g12
VVBD
p24
sbag0
(g1
g2
(lp25
g0
(g1
g2
(lp26
Vthat
p27
atp28
Rp29
(dp30
g12
VIN
p31
sbag0
(g1
g2
(lp32
g0
(g1
g2
(lp33
Vone
p34
atp35
Rp36
(dp37
g12
VCD
p38
sbatp39
Rp40
(dp41
g12
VNP
p42
sbag0
(g1
g2
(lp43
g0
(g1
g2
(lp44
g0
(g1
g2
(lp45
Va
p46
atp47
Rp48
(dp49
g12
VDT
p50
sbag0
(g1
g2
(lp51
Vwhile
p52
atp53
Rp54
(dp55
g12
VNN
p56
sbatp57
Rp58
(dp59
g12
VNP
p60
sbag0
(g1
g2
(lp61
Vago
p62
atp63
Rp64
(dp65
g12
VRB
p66
sbatp67
Rp68
(dp69
g12
VADVP
p70
sbatp71
Rp72
(dp73
g12
VPP
p74
sbatp75
Rp76
(dp77
g12
VVP
p78
sbag0
(g1
g2
(lp79
V.
p80
atp81
Rp82
(dp83
g12
V.
p84
sbatp85
Rp86
(dp87
g12
VS
p88
sbatp89
Rp90
(dp91
g12
S'id: 0'
p92
sbag0
(g1
g2
(lp93
g0
(g1
g2
(lp94
g0
(g1
g2
(lp95
g0
(g1
g2
(lp96
VLet
p97
atp98
Rp99
(dp100
g12
VVB
p101
sbag0
(g1
g2
(lp102
g0
(g1
g2
(lp103
g0
(g1
g2
(lp104
V's
p105
atp106
Rp107
(dp108
g12
VPRP
p109
sbatp110
Rp111
(dp112
g12
VNP
p113
sbag0
(g1
g2
(lp114
g0
(g1
g2
(lp115
Vsee
p116
atp117
Rp118
(dp119
g12
VVB
p120
sbag0
(g1
g2
(lp121
g0
(g1
g2
(lp122
g0
(g1
g2
(lp123
g0
(g1
g2
(lp124
Vwe
p125
atp126
Rp127
(dp128
g12
VPRP
p129
sbatp130
Rp131
(dp132
g12
VNP
p133
sbag0
(g1
g2
(lp134
g0
(g1
g2
(lp135
V're
p136
atp137
Rp138
(dp139
g12
VVBP
p140
sbag0
(g1
g2
(lp141
g0
(g1
g2
(lp142
Vgoing
p143
atp144
Rp145
(dp146
g12
VVBG
p147
sbag0
(g1
g2
(lp148
g0
(g1
g2
(lp149
Vback
p150
atp151
Rp152
(dp153
g12
VRB
p154
sbatp155
Rp156
(dp157
g12
VADVP
p158
sbag0
(g1
g2
(lp159
g0
(g1
g2
(lp160
Von
p161
atp162
Rp163
(dp164
g12
VIN
p165
sbag0
(g1
g2
(lp166
g0
(g1
g2
(lp167
Vthe
p168
atp169
Rp170
(dp171
g12
VDT
p172
sbag0
(g1
g2
(lp173
Vpicnic
p174
atp175
Rp176
(dp177
g12
VNN
p178
sbatp179
Rp180
(dp181
g12
VNP
p182
sbatp183
Rp184
(dp185
g12
VPP
p186
sbag0
(g1
g2
(lp187
g0
(g1
g2
(lp188
Vagain
p189
atp190
Rp191
(dp192
g12
VRB
p193
sbatp194
Rp195
(dp196
g12
VADVP
p197
sbatp198
Rp199
(dp200
g12
VVP
p201
sbatp202
Rp203
(dp204
g12
VVP
p205
sbatp206
Rp207
(dp208
g12
VS
p209
sbatp210
Rp211
(dp212
g12
VSBAR
p213
sbatp214
Rp215
(dp216
g12
VVP
p217
sbatp218
Rp219
(dp220
g12
VS
p221
sbatp222
Rp223
(dp224
g12
VVP
p225
sbag0
(g1
g2
(lp226
V.
p227
atp228
Rp229
(dp230
g12
V.
p231
sbatp232
Rp233
(dp234
g12
VS
p235
sbatp236
Rp237
(dp238
g12
S'id: 1'
p239
sbag0
(g1
g2
(lp240
g0
(g1
g2
(lp241
g0
(g1
g2
(lp242
g0
(g1
g2
(lp243
g0
(g1
g2
(lp244
VDad
p245
atp246
Rp247
(dp248
g12
VNNP
p249
sbag0
(g1
g2
(lp250
V's
p251
atp252
Rp253
(dp254
g12
VPOS
p255
sbatp256
Rp257
(dp258
g12
VNP
p259
sbag0
(g1
g2
(lp260
g0
(g1
g2
(lp261
Vreading
p262
atp263
Rp264
(dp265
g12
VVBG
p266
sbag0
(g1
g2
(lp267
g0
(g1
g2
(lp268
g0
(g1
g2
(lp269
g0
(g1
g2
(lp270
Va
p271
atp272
Rp273
(dp274
g12
VDT
p275
sbag0
(g1
g2
(lp276
Vbook
p277
atp278
Rp279
(dp280
g12
VNN
p281
sbatp282
Rp283
(dp284
g12
VNP
p285
sbag0
(g1
g2
(lp286
V,
p287
atp288
Rp289
(dp290
g12
V,
p291
sbag0
(g1
g2
(lp292
g0
(g1
g2
(lp293
g0
(g1
g2
(lp294
Vmom
p295
atp296
Rp297
(dp298
g12
VNN
p299
sbatp300
Rp301
(dp302
g12
VNP
p303
sbag0
(g1
g2
(lp304
V's
p305
atp306
Rp307
(dp308
g12
VPOS
p309
sbatp310
Rp311
(dp312
g12
VNP
p313
sbatp314
Rp315
(dp316
g12
VNP
p317
sbag0
(g1
g2
(lp318
g0
(g1
g2
(lp319
Vdrinking
p320
atp321
Rp322
(dp323
g12
VVBG
p324
sbag0
(g1
g2
(lp325
g0
(g1
g2
(lp326
Vsome
p327
atp328
Rp329
(dp330
g12
VDT
p331
sbag0
(g1
g2
(lp332
Vwine
p333
atp334
Rp335
(dp336
g12
VNN
p337
sbatp338
Rp339
(dp340
g12
VNP
p341
sbatp342
Rp343
(dp344
g12
VVP
p345
sbatp346
Rp347
(dp348
g12
VS
p349
sbatp350
Rp351
(dp352
g12
VVP
p353
sbatp354
Rp355
(dp356
g12
VS
p357
sbag0
(g1
g2
(lp358
V,
p359
atp360
Rp361
(dp362
g12
V,
p363
sbag0
(g1
g2
(lp364
g0
(g1
g2
(lp365
Vsounds
p366
atp367
Rp368
(dp369
g12
VVBZ
p370
sbatp371
Rp372
(dp373
g12
VVP
p374
sbag0
(g1
g2
(lp375
g0
(g1
g2
(lp376
g0
(g1
g2
(lp377
Vgood
p378
atp379
Rp380
(dp381
g12
VJJ
p382
sbatp383
Rp384
(dp385
g12
VNP
p386
sbag0
(g1
g2
(lp387
g0
(g1
g2
(lp388
Vto
p389
atp390
Rp391
(dp392
g12
VTO
p393
sbag0
(g1
g2
(lp394
g0
(g1
g2
(lp395
Vme
p396
atp397
Rp398
(dp399
g12
VPRP
p400
sbatp401
Rp402
(dp403
g12
VNP
p404
sbatp405
Rp406
(dp407
g12
VPP
p408
sbatp409
Rp410
(dp411
g12
VNP
p412
sbag0
(g1
g2
(lp413
V.
p414
atp415
Rp416
(dp417
g12
V.
p418
sbatp419
Rp420
(dp421
g12
VSINV
p422
sbatp423
Rp424
(dp425
g12
S'id: 2'
p426
sbag0
(g1
g2
(lp427
g0
(g1
g2
(lp428
g0
(g1
g2
(lp429
g0
(g1
g2
(lp430
VListen
p431
atp432
Rp433
(dp434
g12
VVB
p435
sbag0
(g1
g2
(lp436
g0
(g1
g2
(lp437
Vto
p438
atp439
Rp440
(dp441
g12
VTO
p442
sbag0
(g1
g2
(lp443
g0
(g1
g2
(lp444
Vthe
p445
atp446
Rp447
(dp448
g12
VDT
p449
sbag0
(g1
g2
(lp450
Vradio
p451
atp452
Rp453
(dp454
g12
VNN
p455
sbatp456
Rp457
(dp458
g12
VNP
p459
sbatp460
Rp461
(dp462
g12
VPP
p463
sbatp464
Rp465
(dp466
g12
VVP
p467
sbag0
(g1
g2
(lp468
V.
p469
atp470
Rp471
(dp472
g12
V.
p473
sbatp474
Rp475
(dp476
g12
VS
p477
sbatp478
Rp479
(dp480
g12
S'id: 3'
p481
sbag0
(g1
g2
(lp482
g0
(g1
g2
(lp483
g0
(g1
g2
(lp484
g0
(g1
g2
(lp485
VOn
p486
atp487
Rp488
(dp489
g12
VIN
p490
sbag0
(g1
g2
(lp491
g0
(g1
g2
(lp492
Va
p493
atp494
Rp495
(dp496
g12
VDT
p497
sbag0
(g1
g2
(lp498
Vpretty
p499
atp500
Rp501
(dp502
g12
VJJ
p503
sbag0
(g1
g2
(lp504
Vday
p505
atp506
Rp507
(dp508
g12
VNN
p509
sbatp510
Rp511
(dp512
g12
VNP
p513
sbatp514
Rp515
(dp516
g12
VPP
p517
sbag0
(g1
g2
(lp518
V.
p519
atp520
Rp521
(dp522
g12
V.
p523
sbatp524
Rp525
(dp526
g12
VFRAG
p527
sbatp528
Rp529
(dp530
g12
S'id: 4'
p531
sbag0
(g1
g2
(lp532
g0
(g1
g2
(lp533
g0
(g1
g2
(lp534
g0
(g1
g2
(lp535
VLooks
p536
atp537
Rp538
(dp539
g12
VVBZ
p540
sbag0
(g1
g2
(lp541
g0
(g1
g2
(lp542
Vlike
p543
atp544
Rp545
(dp546
g12
VIN
p547
sbag0
(g1
g2
(lp548
g0
(g1
g2
(lp549
g0
(g1
g2
(lp550
Vthey
p551
atp552
Rp553
(dp554
g12
VPRP
p555
sbatp556
Rp557
(dp558
g12
VNP
p559
sbag0
(g1
g2
(lp560
g0
(g1
g2
(lp561
V're
p562
atp563
Rp564
(dp565
g12
VVBP
p566
sbatp567
Rp568
(dp569
g12
VVP
p570
sbatp571
Rp572
(dp573
g12
VS
p574
sbatp575
Rp576
(dp577
g12
VSBAR
p578
sbatp579
Rp580
(dp581
g12
VVP
p582
sbag0
(g1
g2
(lp583
V.
p584
atp585
Rp586
(dp587
g12
V.
p588
sbatp589
Rp590
(dp591
g12
VS
p592
sbatp593
Rp594
(dp595
g12
S'id: 5'
p596
sbag0
(g1
g2
(lp597
g0
(g1
g2
(lp598
g0
(g1
g2
(lp599
g0
(g1
g2
(lp600
VDont
p601
atp602
Rp603
(dp604
g12
VNNP
p605
sbatp606
Rp607
(dp608
g12
VNP
p609
sbag0
(g1
g2
(lp610
g0
(g1
g2
(lp611
Vknow
p612
atp613
Rp614
(dp615
g12
VVB
p616
sbag0
(g1
g2
(lp617
g0
(g1
g2
(lp618
g0
(g1
g2
(lp619
g0
(g1
g2
(lp620
Vif
p621
atp622
Rp623
(dp624
g12
VIN
p625
sbag0
(g1
g2
(lp626
g0
(g1
g2
(lp627
g0
(g1
g2
(lp628
Vthat
p629
atp630
Rp631
(dp632
g12
VDT
p633
sbatp634
Rp635
(dp636
g12
VNP
p637
sbag0
(g1
g2
(lp638
g0
(g1
g2
(lp639
V's
p640
atp641
Rp642
(dp643
g12
VVBZ
p644
sbag0
(g1
g2
(lp645
g0
(g1
g2
(lp646
g0
(g1
g2
(lp647
Va
p648
atp649
Rp650
(dp651
g12
VDT
p652
sbag0
(g1
g2
(lp653
Vcabin
p654
atp655
Rp656
(dp657
g12
VNN
p658
sbatp659
Rp660
(dp661
g12
VNP
p662
sbag0
(g1
g2
(lp663
Vor
p664
atp665
Rp666
(dp667
g12
VCC
p668
sbag0
(g1
g2
(lp669
g0
(g1
g2
(lp670
Vtheir
p671
atp672
Rp673
(dp674
g12
VPRP$
p675
sbag0
(g1
g2
(lp676
Vhouse
p677
atp678
Rp679
(dp680
g12
VNN
p681
sbatp682
Rp683
(dp684
g12
VNP
p685
sbatp686
Rp687
(dp688
g12
VNP
p689
sbatp690
Rp691
(dp692
g12
VVP
p693
sbatp694
Rp695
(dp696
g12
VS
p697
sbatp698
Rp699
(dp700
g12
VSBAR
p701
sbag0
(g1
g2
(lp702
V,
p703
atp704
Rp705
(dp706
g12
V,
p707
sbag0
(g1
g2
(lp708
g0
(g1
g2
(lp709
Vmust
p710
atp711
Rp712
(dp713
g12
VMD
p714
sbag0
(g1
g2
(lp715
g0
(g1
g2
(lp716
Vbe
p717
atp718
Rp719
(dp720
g12
VVB
p721
sbag0
(g1
g2
(lp722
g0
(g1
g2
(lp723
Vthat
p724
atp725
Rp726
(dp727
g12
VIN
p728
sbatp729
Rp730
(dp731
g12
VADJP
p732
sbatp733
Rp734
(dp735
g12
VVP
p736
sbatp737
Rp738
(dp739
g12
VVP
p740
sbatp741
Rp742
(dp743
g12
VS
p744
sbatp745
Rp746
(dp747
g12
VSBAR
p748
sbatp749
Rp750
(dp751
g12
VVP
p752
sbag0
(g1
g2
(lp753
V.
p754
atp755
Rp756
(dp757
g12
V.
p758
sbatp759
Rp760
(dp761
g12
VS
p762
sbatp763
Rp764
(dp765
g12
S'id: 6'
p766
sbag0
(g1
g2
(lp767
g0
(g1
g2
(lp768
g0
(g1
g2
(lp769
g0
(g1
g2
(lp770
VGot
p771
atp772
Rp773
(dp774
g12
VVBD
p775
sbag0
(g1
g2
(lp776
g0
(g1
g2
(lp777
Va
p778
atp779
Rp780
(dp781
g12
VDT
p782
sbag0
(g1
g2
(lp783
Vflag
p784
atp785
Rp786
(dp787
g12
VNN
p788
sbatp789
Rp790
(dp791
g12
VNP
p792
sbatp793
Rp794
(dp795
g12
VVP
p796
sbag0
(g1
g2
(lp797
V.
p798
atp799
Rp800
(dp801
g12
V.
p802
sbatp803
Rp804
(dp805
g12
VS
p806
sbatp807
Rp808
(dp809
g12
S'id: 7'
p810
sbag0
(g1
g2
(lp811
g0
(g1
g2
(lp812
g0
(g1
g2
(lp813
g0
(g1
g2
(lp814
VBoy
p815
atp816
Rp817
(dp818
g12
VNN
p819
sbag0
(g1
g2
(lp820
g0
(g1
g2
(lp821
g0
(g1
g2
(lp822
V's
p823
atp824
Rp825
(dp826
g12
VPOS
p827
sbatp828
Rp829
(dp830
g12
VNP
p831
sbag0
(g1
g2
(lp832
g0
(g1
g2
(lp833
Vflying
p834
atp835
Rp836
(dp837
g12
VVBG
p838
sbag0
(g1
g2
(lp839
g0
(g1
g2
(lp840
Va
p841
atp842
Rp843
(dp844
g12
VDT
p845
sbag0
(g1
g2
(lp846
Vkite
p847
atp848
Rp849
(dp850
g12
VNN
p851
sbatp852
Rp853
(dp854
g12
VNP
p855
sbatp856
Rp857
(dp858
g12
VVP
p859
sbatp860
Rp861
(dp862
g12
VS
p863
sbatp864
Rp865
(dp866
g12
VVP
p867
sbag0
(g1
g2
(lp868
V.
p869
atp870
Rp871
(dp872
g12
V.
p873
sbatp874
Rp875
(dp876
g12
VS
p877
sbatp878
Rp879
(dp880
g12
S'id: 8'
p881
sbag0
(g1
g2
(lp882
g0
(g1
g2
(lp883
g0
(g1
g2
(lp884
g0
(g1
g2
(lp885
g0
(g1
g2
(lp886
VThe
p887
atp888
Rp889
(dp890
g12
VDT
p891
sbag0
(g1
g2
(lp892
Vdog
p893
atp894
Rp895
(dp896
g12
VNN
p897
sbag0
(g1
g2
(lp898
V's
p899
atp900
Rp901
(dp902
g12
VPOS
p903
sbatp904
Rp905
(dp906
g12
VNP
p907
sbag0
(g1
g2
(lp908
g0
(g1
g2
(lp909
Vchanging
p910
atp911
Rp912
(dp913
g12
VVBG
p914
sbag0
(g1
g2
(lp915
g0
(g1
g2
(lp916
Vthe
p917
atp918
Rp919
(dp920
g12
VDT
p921
sbag0
(g1
g2
(lp922
Vboy
p923
atp924
Rp925
(dp926
g12
VNN
p927
sbatp928
Rp929
(dp930
g12
VNP
p931
sbatp932
Rp933
(dp934
g12
VVP
p935
sbatp936
Rp937
(dp938
g12
VS
p939
sbag0
(g1
g2
(lp940
V,
p941
atp942
Rp943
(dp944
g12
V,
p945
sbag0
(g1
g2
(lp946
g0
(g1
g2
(lp947
Vthe
p948
atp949
Rp950
(dp951
g12
VDT
p952
sbag0
(g1
g2
(lp953
Vdog
p954
atp955
Rp956
(dp957
g12
VNN
p958
sbatp959
Rp960
(dp961
g12
VNP
p962
sbag0
(g1
g2
(lp963
g0
(g1
g2
(lp964
Vis
p965
atp966
Rp967
(dp968
g12
VVBZ
p969
sbag0
(g1
g2
(lp970
g0
(g1
g2
(lp971
Vchanging
p972
atp973
Rp974
(dp975
g12
VVBG
p976
sbag0
(g1
g2
(lp977
g0
(g1
g2
(lp978
Vthe
p979
atp980
Rp981
(dp982
g12
VDT
p983
sbag0
(g1
g2
(lp984
Vboy
p985
atp986
Rp987
(dp988
g12
VNN
p989
sbatp990
Rp991
(dp992
g12
VNP
p993
sbatp994
Rp995
(dp996
g12
VVP
p997
sbatp998
Rp999
(dp1000
g12
VVP
p1001
sbag0
(g1
g2
(lp1002
V.
p1003
atp1004
Rp1005
(dp1006
g12
V.
p1007
sbatp1008
Rp1009
(dp1010
g12
VS
p1011
sbatp1012
Rp1013
(dp1014
g12
S'id: 9'
p1015
sbag0
(g1
g2
(lp1016
g0
(g1
g2
(lp1017
g0
(g1
g2
(lp1018
g0
(g1
g2
(lp1019
g0
(g1
g2
(lp1020
VLooks
p1021
atp1022
Rp1023
(dp1024
g12
VVBZ
p1025
sbag0
(g1
g2
(lp1026
g0
(g1
g2
(lp1027
Vlike
p1028
atp1029
Rp1030
(dp1031
g12
VIN
p1032
sbag0
(g1
g2
(lp1033
g0
(g1
g2
(lp1034
Vgrandpa
p1035
atp1036
Rp1037
(dp1038
g12
VNN
p1039
sbag0
(g1
g2
(lp1040
V's
p1041
atp1042
Rp1043
(dp1044
g12
VPOS
p1045
sbatp1046
Rp1047
(dp1048
g12
VNP
p1049
sbatp1050
Rp1051
(dp1052
g12
VPP
p1053
sbag0
(g1
g2
(lp1054
g0
(g1
g2
(lp1055
Vover
p1056
atp1057
Rp1058
(dp1059
g12
VIN
p1060
sbag0
(g1
g2
(lp1061
g0
(g1
g2
(lp1062
Vfishing
p1063
atp1064
Rp1065
(dp1066
g12
VNN
p1067
sbatp1068
Rp1069
(dp1070
g12
VNP
p1071
sbatp1072
Rp1073
(dp1074
g12
VPP
p1075
sbatp1076
Rp1077
(dp1078
g12
VVP
p1079
sbatp1080
Rp1081
(dp1082
g12
VS
p1083
sbag0
(g1
g2
(lp1084
V,
p1085
atp1086
Rp1087
(dp1088
g12
V,
p1089
sbag0
(g1
g2
(lp1090
g0
(g1
g2
(lp1091
Vgot
p1092
atp1093
Rp1094
(dp1095
g12
VVBD
p1096
sbag0
(g1
g2
(lp1097
g0
(g1
g2
(lp1098
Vhim
p1099
atp1100
Rp1101
(dp1102
g12
VPRP
p1103
sbatp1104
Rp1105
(dp1106
g12
VNP
p1107
sbatp1108
Rp1109
(dp1110
g12
VVP
p1111
sbag0
(g1
g2
(lp1112
g0
(g1
g2
(lp1113
Va
p1114
atp1115
Rp1116
(dp1117
g12
VDT
p1118
sbag0
(g1
g2
(lp1119
Vbig
p1120
atp1121
Rp1122
(dp1123
g12
VJJ
p1124
sbag0
(g1
g2
(lp1125
Vone
p1126
atp1127
Rp1128
(dp1129
g12
VNN
p1130
sbatp1131
Rp1132
(dp1133
g12
VNP
p1134
sbag0
(g1
g2
(lp1135
V.
p1136
atp1137
Rp1138
(dp1139
g12
V.
p1140
sbatp1141
Rp1142
(dp1143
g12
VSINV
p1144
sbatp1145
Rp1146
(dp1147
g12
S'id: 10'
p1148
sbag0
(g1
g2
(lp1149
g0
(g1
g2
(lp1150
g0
(g1
g2
(lp1151
g0
(g1
g2
(lp1152
g0
(g1
g2
(lp1153
VI
p1154
atp1155
Rp1156
(dp1157
g12
VPRP
p1158
sbatp1159
Rp1160
(dp1161
g12
VNP
p1162
sbag0
(g1
g2
(lp1163
g0
(g1
g2
(lp1164
Vsee
p1165
atp1166
Rp1167
(dp1168
g12
VVBP
p1169
sbag0
(g1
g2
(lp1170
g0
(g1
g2
(lp1171
Vsome
p1172
atp1173
Rp1174
(dp1175
g12
VDT
p1176
sbag0
(g1
g2
(lp1177
Vcoulds
p1178
atp1179
Rp1180
(dp1181
g12
VNNS
p1182
sbatp1183
Rp1184
(dp1185
g12
VNP
p1186
sbag0
(g1
g2
(lp1187
g0
(g1
g2
(lp1188
Vover
p1189
atp1190
Rp1191
(dp1192
g12
VIN
p1193
sbag0
(g1
g2
(lp1194
g0
(g1
g2
(lp1195
Vin
p1196
atp1197
Rp1198
(dp1199
g12
VIN
p1200
sbag0
(g1
g2
(lp1201
g0
(g1
g2
(lp1202
Vthe
p1203
atp1204
Rp1205
(dp1206
g12
VDT
p1207
sbatp1208
Rp1209
(dp1210
g12
VNP
p1211
sbatp1212
Rp1213
(dp1214
g12
VPP
p1215
sbatp1216
Rp1217
(dp1218
g12
VPP
p1219
sbatp1220
Rp1221
(dp1222
g12
VVP
p1223
sbatp1224
Rp1225
(dp1226
g12
VS
p1227
sbag0
(g1
g2
(lp1228
V,
p1229
atp1230
Rp1231
(dp1232
g12
V,
p1233
sbag0
(g1
g2
(lp1234
g0
(g1
g2
(lp1235
g0
(g1
g2
(lp1236
Vno
p1237
atp1238
Rp1239
(dp1240
g12
VDT
p1241
sbag0
(g1
g2
(lp1242
Vthat
p1243
atp1244
Rp1245
(dp1246
g12
VDT
p1247
sbatp1248
Rp1249
(dp1250
g12
VNP
p1251
sbag0
(g1
g2
(lp1252
g0
(g1
g2
(lp1253
V's
p1254
atp1255
Rp1256
(dp1257
g12
VVBZ
p1258
sbag0
(g1
g2
(lp1259
Vnot
p1260
atp1261
Rp1262
(dp1263
g12
VRB
p1264
sbatp1265
Rp1266
(dp1267
g12
VVP
p1268
sbatp1269
Rp1270
(dp1271
g12
VS
p1272
sbag0
(g1
g2
(lp1273
V,
p1274
atp1275
Rp1276
(dp1277
g12
V,
p1278
sbag0
(g1
g2
(lp1279
g0
(g1
g2
(lp1280
g0
(g1
g2
(lp1281
Vthat
p1282
atp1283
Rp1284
(dp1285
g12
VDT
p1286
sbatp1287
Rp1288
(dp1289
g12
VNP
p1290
sbag0
(g1
g2
(lp1291
g0
(g1
g2
(lp1292
V's
p1293
atp1294
Rp1295
(dp1296
g12
VVBZ
p1297
sbag0
(g1
g2
(lp1298
Vnot
p1299
atp1300
Rp1301
(dp1302
g12
VRB
p1303
sbag0
(g1
g2
(lp1304
g0
(g1
g2
(lp1305
Vclouds
p1306
atp1307
Rp1308
(dp1309
g12
VNNS
p1310
sbatp1311
Rp1312
(dp1313
g12
VNP
p1314
sbatp1315
Rp1316
(dp1317
g12
VVP
p1318
sbatp1319
Rp1320
(dp1321
g12
VS
p1322
sbag0
(g1
g2
(lp1323
V,
p1324
atp1325
Rp1326
(dp1327
g12
V,
p1328
sbag0
(g1
g2
(lp1329
g0
(g1
g2
(lp1330
g0
(g1
g2
(lp1331
Vthat
p1332
atp1333
Rp1334
(dp1335
g12
VDT
p1336
sbatp1337
Rp1338
(dp1339
g12
VNP
p1340
sbag0
(g1
g2
(lp1341
g0
(g1
g2
(lp1342
V's
p1343
atp1344
Rp1345
(dp1346
g12
VVBZ
p1347
sbag0
(g1
g2
(lp1348
g0
(g1
g2
(lp1349
g0
(g1
g2
(lp1350
Vtree
p1351
atp1352
Rp1353
(dp1354
g12
VNN
p1355
sbatp1356
Rp1357
(dp1358
g12
VNP
p1359
sbag0
(g1
g2
(lp1360
V,
p1361
atp1362
Rp1363
(dp1364
g12
V,
p1365
sbag0
(g1
g2
(lp1366
Vor
p1367
atp1368
Rp1369
(dp1370
g12
VCC
p1371
sbag0
(g1
g2
(lp1372
g0
(g1
g2
(lp1373
g0
(g1
g2
(lp1374
Vwoods
p1375
atp1376
Rp1377
(dp1378
g12
VNNS
p1379
sbatp1380
Rp1381
(dp1382
g12
VNP
p1383
sbag0
(g1
g2
(lp1384
V,
p1385
atp1386
Rp1387
(dp1388
g12
V,
p1389
sbag0
(g1
g2
(lp1390
g0
(g1
g2
(lp1391
Vtrees
p1392
atp1393
Rp1394
(dp1395
g12
VNNS
p1396
sbatp1397
Rp1398
(dp1399
g12
VNP
p1400
sbatp1401
Rp1402
(dp1403
g12
VNP
p1404
sbatp1405
Rp1406
(dp1407
g12
VNP
p1408
sbatp1409
Rp1410
(dp1411
g12
VVP
p1412
sbatp1413
Rp1414
(dp1415
g12
VS
p1416
sbag0
(g1
g2
(lp1417
V.
p1418
atp1419
Rp1420
(dp1421
g12
V.
p1422
sbatp1423
Rp1424
(dp1425
g12
VS
p1426
sbatp1427
Rp1428
(dp1429
g12
S'id: 11'
p1430
sbag0
(g1
g2
(lp1431
g0
(g1
g2
(lp1432
g0
(g1
g2
(lp1433
g0
(g1
g2
(lp1434
VI
p1435
atp1436
Rp1437
(dp1438
g12
VPRP
p1439
sbatp1440
Rp1441
(dp1442
g12
VNP
p1443
sbag0
(g1
g2
(lp1444
g0
(g1
g2
(lp1445
Vsee
p1446
atp1447
Rp1448
(dp1449
g12
VVBP
p1450
sbag0
(g1
g2
(lp1451
g0
(g1
g2
(lp1452
g0
(g1
g2
(lp1453
Vsailboat
p1454
atp1455
Rp1456
(dp1457
g12
VNN
p1458
sbatp1459
Rp1460
(dp1461
g12
VNP
p1462
sbag0
(g1
g2
(lp1463
V,
p1464
atp1465
Rp1466
(dp1467
g12
V,
p1468
sbag0
(g1
g2
(lp1469
g0
(g1
g2
(lp1470
g0
(g1
g2
(lp1471
Vnumber
p1472
atp1473
Rp1474
(dp1475
g12
VNN
p1476
sbatp1477
Rp1478
(dp1479
g12
VNP
p1480
sbag0
(g1
g2
(lp1481
g0
(g1
g2
(lp1482
Vfour
p1483
atp1484
Rp1485
(dp1486
g12
VCD
p1487
sbag0
(g1
g2
(lp1488
Vseventy
p1489
atp1490
Rp1491
(dp1492
g12
VCD
p1493
sbatp1494
Rp1495
(dp1496
g12
VNP
p1497
sbatp1498
Rp1499
(dp1500
g12
VNP
p1501
sbatp1502
Rp1503
(dp1504
g12
VNP
p1505
sbatp1506
Rp1507
(dp1508
g12
VVP
p1509
sbag0
(g1
g2
(lp1510
V.
p1511
atp1512
Rp1513
(dp1514
g12
V.
p1515
sbatp1516
Rp1517
(dp1518
g12
VS
p1519
sbatp1520
Rp1521
(dp1522
g12
S'id: 12'
p1523
sbag0
(g1
g2
(lp1524
g0
(g1
g2
(lp1525
g0
(g1
g2
(lp1526
g0
(g1
g2
(lp1527
g0
(g1
g2
(lp1528
VTwo
p1529
atp1530
Rp1531
(dp1532
g12
VCD
p1533
sbag0
(g1
g2
(lp1534
Vguys
p1535
atp1536
Rp1537
(dp1538
g12
VNNS
p1539
sbatp1540
Rp1541
(dp1542
g12
VNP
p1543
sbag0
(g1
g2
(lp1544
Vand
p1545
atp1546
Rp1547
(dp1548
g12
VCC
p1549
sbag0
(g1
g2
(lp1550
g0
(g1
g2
(lp1551
Vthey
p1552
atp1553
Rp1554
(dp1555
g12
VPRP
p1556
sbatp1557
Rp1558
(dp1559
g12
VNP
p1560
sbatp1561
Rp1562
(dp1563
g12
VNP
p1564
sbag0
(g1
g2
(lp1565
g0
(g1
g2
(lp1566
V're
p1567
atp1568
Rp1569
(dp1570
g12
VVBP
p1571
sbag0
(g1
g2
(lp1572
g0
(g1
g2
(lp1573
Vwaving
p1574
atp1575
Rp1576
(dp1577
g12
VVBG
p1578
sbatp1579
Rp1580
(dp1581
g12
VVP
p1582
sbatp1583
Rp1584
(dp1585
g12
VVP
p1586
sbag0
(g1
g2
(lp1587
V.
p1588
atp1589
Rp1590
(dp1591
g12
V.
p1592
sbatp1593
Rp1594
(dp1595
g12
VS
p1596
sbatp1597
Rp1598
(dp1599
g12
S'id: 13'
p1600
sbag0
(g1
g2
(lp1601
g0
(g1
g2
(lp1602
g0
(g1
g2
(lp1603
g0
(g1
g2
(lp1604
g0
(g1
g2
(lp1605
g0
(g1
g2
(lp1606
g0
(g1
g2
(lp1607
VLittle
p1608
atp1609
Rp1610
(dp1611
g12
VJJ
p1612
sbag0
(g1
g2
(lp1613
Vgirl
p1614
atp1615
Rp1616
(dp1617
g12
VNN
p1618
sbag0
(g1
g2
(lp1619
V's
p1620
atp1621
Rp1622
(dp1623
g12
VPOS
p1624
sbatp1625
Rp1626
(dp1627
g12
VNP
p1628
sbag0
(g1
g2
(lp1629
Vplaying
p1630
atp1631
Rp1632
(dp1633
g12
VNN
p1634
sbatp1635
Rp1636
(dp1637
g12
VNP
p1638
sbag0
(g1
g2
(lp1639
g0
(g1
g2
(lp1640
Vin
p1641
atp1642
Rp1643
(dp1644
g12
VIN
p1645
sbag0
(g1
g2
(lp1646
g0
(g1
g2
(lp1647
g0
(g1
g2
(lp1648
g0
(g1
g2
(lp1649
Vthe
p1650
atp1651
Rp1652
(dp1653
g12
VDT
p1654
sbag0
(g1
g2
(lp1655
Vbeach
p1656
atp1657
Rp1658
(dp1659
g12
VNN
p1660
sbatp1661
Rp1662
(dp1663
g12
VNP
p1664
sbag0
(g1
g2
(lp1665
g0
(g1
g2
(lp1666
Vin
p1667
atp1668
Rp1669
(dp1670
g12
VIN
p1671
sbag0
(g1
g2
(lp1672
g0
(g1
g2
(lp1673
Vthe
p1674
atp1675
Rp1676
(dp1677
g12
VDT
p1678
sbag0
(g1
g2
(lp1679
Vsand
p1680
atp1681
Rp1682
(dp1683
g12
VNN
p1684
sbatp1685
Rp1686
(dp1687
g12
VNP
p1688
sbatp1689
Rp1690
(dp1691
g12
VPP
p1692
sbatp1693
Rp1694
(dp1695
g12
VNP
p1696
sbag0
(g1
g2
(lp1697
V,
p1698
atp1699
Rp1700
(dp1701
g12
V,
p1702
sbag0
(g1
g2
(lp1703
Vand
p1704
atp1705
Rp1706
(dp1707
g12
VCC
p1708
sbag0
(g1
g2
(lp1709
g0
(g1
g2
(lp1710
Vshe
p1711
atp1712
Rp1713
(dp1714
g12
VPRP
p1715
sbatp1716
Rp1717
(dp1718
g12
VNP
p1719
sbatp1720
Rp1721
(dp1722
g12
VNP
p1723
sbatp1724
Rp1725
(dp1726
g12
VPP
p1727
sbatp1728
Rp1729
(dp1730
g12
VNP
p1731
sbag0
(g1
g2
(lp1732
g0
(g1
g2
(lp1733
V's
p1734
atp1735
Rp1736
(dp1737
g12
VVBZ
p1738
sbatp1739
Rp1740
(dp1741
g12
VVP
p1742
sbatp1743
Rp1744
(dp1745
g12
VS
p1746
sbag0
(g1
g2
(lp1747
g0
(g1
g2
(lp1748
Vgot
p1749
atp1750
Rp1751
(dp1752
g12
VVBD
p1753
sbag0
(g1
g2
(lp1754
g0
(g1
g2
(lp1755
g0
(g1
g2
(lp1756
Va
p1757
atp1758
Rp1759
(dp1760
g12
VDT
p1761
sbag0
(g1
g2
(lp1762
Vshovel
p1763
atp1764
Rp1765
(dp1766
g12
VNN
p1767
sbatp1768
Rp1769
(dp1770
g12
VNP
p1771
sbag0
(g1
g2
(lp1772
V,
p1773
atp1774
Rp1775
(dp1776
g12
V,
p1777
sbag0
(g1
g2
(lp1778
Vand
p1779
atp1780
Rp1781
(dp1782
g12
VCC
p1783
sbag0
(g1
g2
(lp1784
g0
(g1
g2
(lp1785
Va
p1786
atp1787
Rp1788
(dp1789
g12
VDT
p1790
sbag0
(g1
g2
(lp1791
Vbucket
p1792
atp1793
Rp1794
(dp1795
g12
VNN
p1796
sbatp1797
Rp1798
(dp1799
g12
VNP
p1800
sbag0
(g1
g2
(lp1801
V,
p1802
atp1803
Rp1804
(dp1805
g12
V,
p1806
sbatp1807
Rp1808
(dp1809
g12
VNP
p1810
sbatp1811
Rp1812
(dp1813
g12
VVP
p1814
sbag0
(g1
g2
(lp1815
g0
(g1
g2
(lp1816
g0
(g1
g2
(lp1817
Vbucket
p1818
atp1819
Rp1820
(dp1821
g12
VNN
p1822
sbatp1823
Rp1824
(dp1825
g12
VNP
p1826
sbag0
(g1
g2
(lp1827
V,
p1828
atp1829
Rp1830
(dp1831
g12
V,
p1832
sbag0
(g1
g2
(lp1833
g0
(g1
g2
(lp1834
Vyeah
p1835
atp1836
Rp1837
(dp1838
g12
VNN
p1839
sbatp1840
Rp1841
(dp1842
g12
VNP
p1843
sbatp1844
Rp1845
(dp1846
g12
VNP
p1847
sbag0
(g1
g2
(lp1848
V.
p1849
atp1850
Rp1851
(dp1852
g12
V.
p1853
sbatp1854
Rp1855
(dp1856
g12
VSINV
p1857
sbatp1858
Rp1859
(dp1860
g12
S'id: 14'
p1861
sbag0
(g1
g2
(lp1862
g0
(g1
g2
(lp1863
g0
(g1
g2
(lp1864
g0
(g1
g2
(lp1865
VThe
p1866
atp1867
Rp1868
(dp1869
g12
VDT
p1870
sbag0
(g1
g2
(lp1871
g0
(g1
g2
(lp1872
Vboy
p1873
atp1874
Rp1875
(dp1876
g12
VNN
p1877
sbag0
(g1
g2
(lp1878
V's
p1879
atp1880
Rp1881
(dp1882
g12
VPOS
p1883
sbatp1884
Rp1885
(dp1886
g12
VNP
p1887
sbatp1888
Rp1889
(dp1890
g12
VNP
p1891
sbag0
(g1
g2
(lp1892
g0
(g1
g2
(lp1893
Vwearing
p1894
atp1895
Rp1896
(dp1897
g12
VVBG
p1898
sbag0
(g1
g2
(lp1899
g0
(g1
g2
(lp1900
Vtennis
p1901
atp1902
Rp1903
(dp1904
g12
VNN
p1905
sbag0
(g1
g2
(lp1906
Vshoes
p1907
atp1908
Rp1909
(dp1910
g12
VNNS
p1911
sbatp1912
Rp1913
(dp1914
g12
VNP
p1915
sbatp1916
Rp1917
(dp1918
g12
VVP
p1919
sbag0
(g1
g2
(lp1920
V.
p1921
atp1922
Rp1923
(dp1924
g12
V.
p1925
sbatp1926
Rp1927
(dp1928
g12
VNP
p1929
sbatp1930
Rp1931
(dp1932
g12
S'id: 15'
p1933
sbag0
(g1
g2
(lp1934
g0
(g1
g2
(lp1935
g0
(g1
g2
(lp1936
g0
(g1
g2
(lp1937
VHouse
p1938
atp1939
Rp1940
(dp1941
g12
VNNP
p1942
sbatp1943
Rp1944
(dp1945
g12
VNP
p1946
sbag0
(g1
g2
(lp1947
g0
(g1
g2
(lp1948
Vis
p1949
atp1950
Rp1951
(dp1952
g12
VVBZ
p1953
sbag0
(g1
g2
(lp1954
g0
(g1
g2
(lp1955
Vwhite
p1956
atp1957
Rp1958
(dp1959
g12
VJJ
p1960
sbatp1961
Rp1962
(dp1963
g12
VADJP
p1964
sbatp1965
Rp1966
(dp1967
g12
VVP
p1968
sbag0
(g1
g2
(lp1969
V.
p1970
atp1971
Rp1972
(dp1973
g12
V.
p1974
sbatp1975
Rp1976
(dp1977
g12
VS
p1978
sbatp1979
Rp1980
(dp1981
g12
S'id: 16'
p1982
sbag0
(g1
g2
(lp1983
g0
(g1
g2
(lp1984
g0
(g1
g2
(lp1985
g0
(g1
g2
(lp1986
g0
(g1
g2
(lp1987
VDad
p1988
atp1989
Rp1990
(dp1991
g12
VNNP
p1992
sbag0
(g1
g2
(lp1993
V's
p1994
atp1995
Rp1996
(dp1997
g12
VPOS
p1998
sbatp1999
Rp2000
(dp2001
g12
VNP
p2002
sbag0
(g1
g2
(lp2003
g0
(g1
g2
(lp2004
Vgetting
p2005
atp2006
Rp2007
(dp2008
g12
VVBG
p2009
sbag0
(g1
g2
(lp2010
g0
(g1
g2
(lp2011
Vold
p2012
atp2013
Rp2014
(dp2015
g12
VJJ
p2016
sbatp2017
Rp2018
(dp2019
g12
VADJP
p2020
sbatp2021
Rp2022
(dp2023
g12
VVP
p2024
sbatp2025
Rp2026
(dp2027
g12
VS
p2028
sbag0
(g1
g2
(lp2029
V,
p2030
atp2031
Rp2032
(dp2033
g12
V,
p2034
sbag0
(g1
g2
(lp2035
g0
(g1
g2
(lp2036
Vhe
p2037
atp2038
Rp2039
(dp2040
g12
VPRP
p2041
sbatp2042
Rp2043
(dp2044
g12
VNP
p2045
sbag0
(g1
g2
(lp2046
g0
(g1
g2
(lp2047
V's
p2048
atp2049
Rp2050
(dp2051
g12
VVBZ
p2052
sbag0
(g1
g2
(lp2053
g0
(g1
g2
(lp2054
Vgot
p2055
atp2056
Rp2057
(dp2058
g12
VVBN
p2059
sbag0
(g1
g2
(lp2060
g0
(g1
g2
(lp2061
Vwhite
p2062
atp2063
Rp2064
(dp2065
g12
VJJ
p2066
sbag0
(g1
g2
(lp2067
Vhair
p2068
atp2069
Rp2070
(dp2071
g12
VNN
p2072
sbatp2073
Rp2074
(dp2075
g12
VNP
p2076
sbag0
(g1
g2
(lp2077
g0
(g1
g2
(lp2078
Vtoo
p2079
atp2080
Rp2081
(dp2082
g12
VRB
p2083
sbatp2084
Rp2085
(dp2086
g12
VADVP
p2087
sbatp2088
Rp2089
(dp2090
g12
VVP
p2091
sbatp2092
Rp2093
(dp2094
g12
VVP
p2095
sbag0
(g1
g2
(lp2096
V.
p2097
atp2098
Rp2099
(dp2100
g12
V.
p2101
sbatp2102
Rp2103
(dp2104
g12
VS
p2105
sbatp2106
Rp2107
(dp2108
g12
S'id: 17'
p2109
sbag0
(g1
g2
(lp2110
g0
(g1
g2
(lp2111
g0
(g1
g2
(lp2112
g0
(g1
g2
(lp2113
VI
p2114
atp2115
Rp2116
(dp2117
g12
VPRP
p2118
sbatp2119
Rp2120
(dp2121
g12
VNP
p2122
sbag0
(g1
g2
(lp2123
g0
(g1
g2
(lp2124
V'm
p2125
atp2126
Rp2127
(dp2128
g12
VVBP
p2129
sbag0
(g1
g2
(lp2130
g0
(g1
g2
(lp2131
Vhaving
p2132
atp2133
Rp2134
(dp2135
g12
VVBG
p2136
sbag0
(g1
g2
(lp2137
g0
(g1
g2
(lp2138
Vfun
p2139
atp2140
Rp2141
(dp2142
g12
VNN
p2143
sbatp2144
Rp2145
(dp2146
g12
VNP
p2147
sbatp2148
Rp2149
(dp2150
g12
VVP
p2151
sbatp2152
Rp2153
(dp2154
g12
VVP
p2155
sbag0
(g1
g2
(lp2156
V.
p2157
atp2158
Rp2159
(dp2160
g12
V.
p2161
sbatp2162
Rp2163
(dp2164
g12
VS
p2165
sbatp2166
Rp2167
(dp2168
g12
S'id: 18'
p2169
sbag0
(g1
g2
(lp2170
g0
(g1
g2
(lp2171
g0
(g1
g2
(lp2172
g0
(g1
g2
(lp2173
VHe
p2174
atp2175
Rp2176
(dp2177
g12
VPRP
p2178
sbatp2179
Rp2180
(dp2181
g12
VNP
p2182
sbag0
(g1
g2
(lp2183
g0
(g1
g2
(lp2184
Vtook
p2185
atp2186
Rp2187
(dp2188
g12
VVBD
p2189
sbag0
(g1
g2
(lp2190
g0
(g1
g2
(lp2191
Vhis
p2192
atp2193
Rp2194
(dp2195
g12
VPRP$
p2196
sbag0
(g1
g2
(lp2197
Vsandals
p2198
atp2199
Rp2200
(dp2201
g12
VNNS
p2202
sbatp2203
Rp2204
(dp2205
g12
VNP
p2206
sbag0
(g1
g2
(lp2207
g0
(g1
g2
(lp2208
Voff
p2209
atp2210
Rp2211
(dp2212
g12
VIN
p2213
sbag0
(g1
g2
(lp2214
g0
(g1
g2
(lp2215
Vhis
p2216
atp2217
Rp2218
(dp2219
g12
VPRP$
p2220
sbag0
(g1
g2
(lp2221
Vhands
p2222
atp2223
Rp2224
(dp2225
g12
VNNS
p2226
sbatp2227
Rp2228
(dp2229
g12
VNP
p2230
sbatp2231
Rp2232
(dp2233
g12
VPP
p2234
sbatp2235
Rp2236
(dp2237
g12
VVP
p2238
sbag0
(g1
g2
(lp2239
V.
p2240
atp2241
Rp2242
(dp2243
g12
V.
p2244
sbatp2245
Rp2246
(dp2247
g12
VS
p2248
sbatp2249
Rp2250
(dp2251
g12
S'id: 19'
p2252
sbag0
(g1
g2
(lp2253
g0
(g1
g2
(lp2254
g0
(g1
g2
(lp2255
g0
(g1
g2
(lp2256
VSitting
p2257
atp2258
Rp2259
(dp2260
g12
VVBG
p2261
sbag0
(g1
g2
(lp2262
g0
(g1
g2
(lp2263
Von
p2264
atp2265
Rp2266
(dp2267
g12
VIN
p2268
sbag0
(g1
g2
(lp2269
g0
(g1
g2
(lp2270
Va
p2271
atp2272
Rp2273
(dp2274
g12
VDT
p2275
sbag0
(g1
g2
(lp2276
Vblanket
p2277
atp2278
Rp2279
(dp2280
g12
VNN
p2281
sbatp2282
Rp2283
(dp2284
g12
VNP
p2285
sbatp2286
Rp2287
(dp2288
g12
VPP
p2289
sbatp2290
Rp2291
(dp2292
g12
VVP
p2293
sbag0
(g1
g2
(lp2294
V.
p2295
atp2296
Rp2297
(dp2298
g12
V.
p2299
sbatp2300
Rp2301
(dp2302
g12
VS
p2303
sbatp2304
Rp2305
(dp2306
g12
S'id: 20'
p2307
sbag0
(g1
g2
(lp2308
g0
(g1
g2
(lp2309
g0
(g1
g2
(lp2310
g0
(g1
g2
(lp2311
VPicnic
p2312
atp2313
Rp2314
(dp2315
g12
VNN
p2316
sbatp2317
Rp2318
(dp2319
g12
VNP
p2320
sbag0
(g1
g2
(lp2321
g0
(g1
g2
(lp2322
Vbasket
p2323
atp2324
Rp2325
(dp2326
g12
VNN
p2327
sbatp2328
Rp2329
(dp2330
g12
VNP
p2331
sbag0
(g1
g2
(lp2332
V.
p2333
atp2334
Rp2335
(dp2336
g12
V.
p2337
sbatp2338
Rp2339
(dp2340
g12
VNP
p2341
sbatp2342
Rp2343
(dp2344
g12
S'id: 21'
p2345
sbag0
(g1
g2
(lp2346
g0
(g1
g2
(lp2347
g0
(g1
g2
(lp2348
g0
(g1
g2
(lp2349
VNo
p2350
atp2351
Rp2352
(dp2353
g12
VDT
p2354
sbag0
(g1
g2
(lp2355
Vfood
p2356
atp2357
Rp2358
(dp2359
g12
VNN
p2360
sbatp2361
Rp2362
(dp2363
g12
VNP
p2364
sbag0
(g1
g2
(lp2365
V,
p2366
atp2367
Rp2368
(dp2369
g12
V,
p2370
sbag0
(g1
g2
(lp2371
g0
(g1
g2
(lp2372
Vjust
p2373
atp2374
Rp2375
(dp2376
g12
VRB
p2377
sbag0
(g1
g2
(lp2378
Vwine
p2379
atp2380
Rp2381
(dp2382
g12
VNN
p2383
sbatp2384
Rp2385
(dp2386
g12
VNP
p2387
sbag0
(g1
g2
(lp2388
V.
p2389
atp2390
Rp2391
(dp2392
g12
V.
p2393
sbatp2394
Rp2395
(dp2396
g12
VNP
p2397
sbatp2398
Rp2399
(dp2400
g12
S'id: 22'
p2401
sbatp2402
Rp2403
(dp2404
g12
S'sentences'
p2405
sb.