ccopy_reg
_reconstructor
p0
(cnltk.tree
Tree
p1
c__builtin__
list
p2
(lp3
g0
(g1
g2
(lp4
g0
(g1
g2
(lp5
g0
(g1
g2
(lp6
g0
(g1
g2
(lp7
Vooo
p8
atp9
Rp10
(dp11
S'_label'
p12
VNN
p13
sbatp14
Rp15
(dp16
g12
VNP
p17
sbag0
(g1
g2
(lp18
g0
(g1
g2
(lp19
g0
(g1
g2
(lp20
Vanother
p21
atp22
Rp23
(dp24
g12
VDT
p25
sbag0
(g1
g2
(lp26
Vpencil
p27
atp28
Rp29
(dp30
g12
VNN
p31
sbag0
(g1
g2
(lp32
Vjob
p33
atp34
Rp35
(dp36
g12
VNN
p37
sbatp38
Rp39
(dp40
g12
VNP
p41
sbag0
(g1
g2
(lp42
V,
p43
atp44
Rp45
(dp46
g12
V,
p47
sbag0
(g1
g2
(lp48
g0
(g1
g2
(lp49
Vok
p50
atp51
Rp52
(dp53
g12
VNN
p54
sbatp55
Rp56
(dp57
g12
VNP
p58
sbatp59
Rp60
(dp61
g12
VNP
p62
sbag0
(g1
g2
(lp63
V.
p64
atp65
Rp66
(dp67
g12
V.
p68
sbatp69
Rp70
(dp71
g12
VNP
p72
sbatp73
Rp74
(dp75
g12
S'id: 0'
p76
sbag0
(g1
g2
(lp77
g0
(g1
g2
(lp78
g0
(g1
g2
(lp79
g0
(g1
g2
(lp80
VWe
p81
atp82
Rp83
(dp84
g12
VPRP
p85
sbatp86
Rp87
(dp88
g12
VNP
p89
sbag0
(g1
g2
(lp90
g0
(g1
g2
(lp91
Vare
p92
atp93
Rp94
(dp95
g12
VVBP
p96
sbag0
(g1
g2
(lp97
g0
(g1
g2
(lp98
Vlooking
p99
atp100
Rp101
(dp102
g12
VVBG
p103
sbag0
(g1
g2
(lp104
g0
(g1
g2
(lp105
Vat
p106
atp107
Rp108
(dp109
g12
VIN
p110
sbag0
(g1
g2
(lp111
g0
(g1
g2
(lp112
Va
p113
atp114
Rp115
(dp116
g12
VDT
p117
sbag0
(g1
g2
(lp118
Vmerry-go
p119
atp120
Rp121
(dp122
g12
VNN
p123
sbatp124
Rp125
(dp126
g12
VNP
p127
sbatp128
Rp129
(dp130
g12
VPP
p131
sbag0
(g1
g2
(lp132
V,
p133
atp134
Rp135
(dp136
g12
V,
p137
sbag0
(g1
g2
(lp138
g0
(g1
g2
(lp139
Vat
p140
atp141
Rp142
(dp143
g12
VIN
p144
sbag0
(g1
g2
(lp145
g0
(g1
g2
(lp146
g0
(g1
g2
(lp147
Va
p148
atp149
Rp150
(dp151
g12
VDT
p152
sbag0
(g1
g2
(lp153
Vtiger
p154
atp155
Rp156
(dp157
g12
VNN
p158
sbatp159
Rp160
(dp161
g12
VNP
p162
sbag0
(g1
g2
(lp163
g0
(g1
g2
(lp164
Vin
p165
atp166
Rp167
(dp168
g12
VIN
p169
sbag0
(g1
g2
(lp170
g0
(g1
g2
(lp171
g0
(g1
g2
(lp172
Vthe
p173
atp174
Rp175
(dp176
g12
VDT
p177
sbag0
(g1
g2
(lp178
Vcage
p179
atp180
Rp181
(dp182
g12
VNN
p183
sbatp184
Rp185
(dp186
g12
VNP
p187
sbag0
(g1
g2
(lp188
V,
p189
atp190
Rp191
(dp192
g12
V,
p193
sbag0
(g1
g2
(lp194
Vand
p195
atp196
Rp197
(dp198
g12
VCC
p199
sbag0
(g1
g2
(lp200
g0
(g1
g2
(lp201
g0
(g1
g2
(lp202
Vat
p203
atp204
Rp205
(dp206
g12
VIN
p207
sbag0
(g1
g2
(lp208
g0
(g1
g2
(lp209
Va
p210
atp211
Rp212
(dp213
g12
VDT
p214
sbag0
(g1
g2
(lp215
Vbare
p216
atp217
Rp218
(dp219
g12
VJJ
p220
sbag0
(g1
g2
(lp221
Vback
p222
atp223
Rp224
(dp225
g12
VNN
p226
sbag0
(g1
g2
(lp227
Vrider
p228
atp229
Rp230
(dp231
g12
VNN
p232
sbatp233
Rp234
(dp235
g12
VNP
p236
sbatp237
Rp238
(dp239
g12
VPP
p240
sbatp241
Rp242
(dp243
g12
VPRN
p244
sbag0
(g1
g2
(lp245
V,
p246
atp247
Rp248
(dp249
g12
V,
p250
sbag0
(g1
g2
(lp251
Vand
p252
atp253
Rp254
(dp255
g12
VCC
p256
sbag0
(g1
g2
(lp257
g0
(g1
g2
(lp258
Va
p259
atp260
Rp261
(dp262
g12
VDT
p263
sbag0
(g1
g2
(lp264
Vtight
p265
atp266
Rp267
(dp268
g12
VJJ
p269
sbag0
(g1
g2
(lp270
Vrope
p271
atp272
Rp273
(dp274
g12
VNN
p275
sbag0
(g1
g2
(lp276
Vwalker
p277
atp278
Rp279
(dp280
g12
VNN
p281
sbatp282
Rp283
(dp284
g12
VNP
p285
sbatp286
Rp287
(dp288
g12
VNP
p289
sbatp290
Rp291
(dp292
g12
VPP
p293
sbatp294
Rp295
(dp296
g12
VNP
p297
sbatp298
Rp299
(dp300
g12
VPP
p301
sbatp302
Rp303
(dp304
g12
VVP
p305
sbatp306
Rp307
(dp308
g12
VVP
p309
sbag0
(g1
g2
(lp310
V.
p311
atp312
Rp313
(dp314
g12
V.
p315
sbatp316
Rp317
(dp318
g12
VS
p319
sbatp320
Rp321
(dp322
g12
S'id: 1'
p323
sbag0
(g1
g2
(lp324
g0
(g1
g2
(lp325
g0
(g1
g2
(lp326
g0
(g1
g2
(lp327
Vboy
p328
atp329
Rp330
(dp331
g12
VNN
p332
sbatp333
Rp334
(dp335
g12
VNP
p336
sbag0
(g1
g2
(lp337
g0
(g1
g2
(lp338
g0
(g1
g2
(lp339
g0
(g1
g2
(lp340
Vthose
p341
atp342
Rp343
(dp344
g12
VDT
p345
sbatp346
Rp347
(dp348
g12
VNP
p349
sbag0
(g1
g2
(lp350
g0
(g1
g2
(lp351
Vare
p352
atp353
Rp354
(dp355
g12
VVBP
p356
sbag0
(g1
g2
(lp357
g0
(g1
g2
(lp358
Vall
p359
atp360
Rp361
(dp362
g12
VDT
p363
sbatp364
Rp365
(dp366
g12
VNP
p367
sbatp368
Rp369
(dp370
g12
VVP
p371
sbatp372
Rp373
(dp374
g12
VS
p375
sbag0
(g1
g2
(lp376
V,
p377
atp378
Rp379
(dp380
g12
V,
p381
sbatp382
Rp383
(dp384
g12
VPRN
p385
sbag0
(g1
g2
(lp386
g0
(g1
g2
(lp387
Vmust
p388
atp389
Rp390
(dp391
g12
VMD
p392
sbag0
(g1
g2
(lp393
g0
(g1
g2
(lp394
Vbe
p395
atp396
Rp397
(dp398
g12
VVB
p399
sbag0
(g1
g2
(lp400
g0
(g1
g2
(lp401
g0
(g1
g2
(lp402
Va
p403
atp404
Rp405
(dp406
g12
VDT
p407
sbag0
(g1
g2
(lp408
Vcircus
p409
atp410
Rp411
(dp412
g12
VNN
p413
sbatp414
Rp415
(dp416
g12
VNP
p417
sbag0
(g1
g2
(lp418
g0
(g1
g2
(lp419
Vin
p420
atp421
Rp422
(dp423
g12
VIN
p424
sbag0
(g1
g2
(lp425
g0
(g1
g2
(lp426
Vtown
p427
atp428
Rp429
(dp430
g12
VNN
p431
sbatp432
Rp433
(dp434
g12
VNP
p435
sbatp436
Rp437
(dp438
g12
VPP
p439
sbatp440
Rp441
(dp442
g12
VNP
p443
sbatp444
Rp445
(dp446
g12
VVP
p447
sbatp448
Rp449
(dp450
g12
VVP
p451
sbag0
(g1
g2
(lp452
V.
p453
atp454
Rp455
(dp456
g12
V.
p457
sbatp458
Rp459
(dp460
g12
VS
p461
sbatp462
Rp463
(dp464
g12
S'id: 2'
p465
sbag0
(g1
g2
(lp466
g0
(g1
g2
(lp467
g0
(g1
g2
(lp468
g0
(g1
g2
(lp469
VWell
p470
atp471
Rp472
(dp473
g12
VRB
p474
sbatp475
Rp476
(dp477
g12
VADVP
p478
sbag0
(g1
g2
(lp479
g0
(g1
g2
(lp480
Vthere
p481
atp482
Rp483
(dp484
g12
VEX
p485
sbatp486
Rp487
(dp488
g12
VNP
p489
sbag0
(g1
g2
(lp490
g0
(g1
g2
(lp491
V's
p492
atp493
Rp494
(dp495
g12
VVBZ
p496
sbag0
(g1
g2
(lp497
g0
(g1
g2
(lp498
Va
p499
atp500
Rp501
(dp502
g12
VDT
p503
sbag0
(g1
g2
(lp504
Vclown
p505
atp506
Rp507
(dp508
g12
VNN
p509
sbag0
(g1
g2
(lp510
g0
(g1
g2
(lp511
g0
(g1
g2
(lp512
Vflipping
p513
atp514
Rp515
(dp516
g12
VVBG
p517
sbag0
(g1
g2
(lp518
g0
(g1
g2
(lp519
Vout
p520
atp521
Rp522
(dp523
g12
VRP
p524
sbatp525
Rp526
(dp527
g12
VPRT
p528
sbag0
(g1
g2
(lp529
g0
(g1
g2
(lp530
Vpopcorn
p531
atp532
Rp533
(dp534
g12
VNN
p535
sbatp536
Rp537
(dp538
g12
VNP
p539
sbag0
(g1
g2
(lp540
g0
(g1
g2
(lp541
Vall
p542
atp543
Rp544
(dp545
g12
VDT
p546
sbag0
(g1
g2
(lp547
Vover
p548
atp549
Rp550
(dp551
g12
VIN
p552
sbag0
(g1
g2
(lp553
g0
(g1
g2
(lp554
Vthe
p555
atp556
Rp557
(dp558
g12
VDT
p559
sbag0
(g1
g2
(lp560
Vplace
p561
atp562
Rp563
(dp564
g12
VNN
p565
sbatp566
Rp567
(dp568
g12
VNP
p569
sbatp570
Rp571
(dp572
g12
VPP
p573
sbatp574
Rp575
(dp576
g12
VVP
p577
sbatp578
Rp579
(dp580
g12
VS
p581
sbatp582
Rp583
(dp584
g12
VNP
p585
sbatp586
Rp587
(dp588
g12
VVP
p589
sbag0
(g1
g2
(lp590
V.
p591
atp592
Rp593
(dp594
g12
V.
p595
sbatp596
Rp597
(dp598
g12
VS
p599
sbatp600
Rp601
(dp602
g12
S'id: 3'
p603
sbag0
(g1
g2
(lp604
g0
(g1
g2
(lp605
g0
(g1
g2
(lp606
VAnd
p607
atp608
Rp609
(dp610
g12
VCC
p611
sbag0
(g1
g2
(lp612
g0
(g1
g2
(lp613
g0
(g1
g2
(lp614
g0
(g1
g2
(lp615
Va
p616
atp617
Rp618
(dp619
g12
VDT
p620
sbag0
(g1
g2
(lp621
Vyoung
p622
atp623
Rp624
(dp625
g12
VJJ
p626
sbag0
(g1
g2
(lp627
Vlady
p628
atp629
Rp630
(dp631
g12
VNN
p632
sbatp633
Rp634
(dp635
g12
VNP
p636
sbag0
(g1
g2
(lp637
g0
(g1
g2
(lp638
Vwith
p639
atp640
Rp641
(dp642
g12
VIN
p643
sbag0
(g1
g2
(lp644
g0
(g1
g2
(lp645
g0
(g1
g2
(lp646
Va
p647
atp648
Rp649
(dp650
g12
VDT
p651
sbatp652
Rp653
(dp654
g12
VNP
p655
sbag0
(g1
g2
(lp656
V,
p657
atp658
Rp659
(dp660
g12
V,
p661
sbag0
(g1
g2
(lp662
g0
(g1
g2
(lp663
Vwith
p664
atp665
Rp666
(dp667
g12
VIN
p668
sbag0
(g1
g2
(lp669
g0
(g1
g2
(lp670
g0
(g1
g2
(lp671
Va
p672
atp673
Rp674
(dp675
g12
VDT
p676
sbag0
(g1
g2
(lp677
Vprinted
p678
atp679
Rp680
(dp681
g12
VVBN
p682
sbag0
(g1
g2
(lp683
Vblouse
p684
atp685
Rp686
(dp687
g12
VNN
p688
sbatp689
Rp690
(dp691
g12
VNP
p692
sbag0
(g1
g2
(lp693
g0
(g1
g2
(lp694
Von
p695
atp696
Rp697
(dp698
g12
VIN
p699
sbatp700
Rp701
(dp702
g12
VPP
p703
sbatp704
Rp705
(dp706
g12
VNP
p707
sbatp708
Rp709
(dp710
g12
VPP
p711
sbatp712
Rp713
(dp714
g12
VNP
p715
sbatp716
Rp717
(dp718
g12
VPP
p719
sbatp720
Rp721
(dp722
g12
VNP
p723
sbatp724
Rp725
(dp726
g12
VS
p727
sbag0
(g1
g2
(lp728
V,
p729
atp730
Rp731
(dp732
g12
V,
p733
sbag0
(g1
g2
(lp734
Vand
p735
atp736
Rp737
(dp738
g12
VCC
p739
sbag0
(g1
g2
(lp740
g0
(g1
g2
(lp741
g0
(g1
g2
(lp742
Vshe
p743
atp744
Rp745
(dp746
g12
VPRP
p747
sbatp748
Rp749
(dp750
g12
VNP
p751
sbag0
(g1
g2
(lp752
g0
(g1
g2
(lp753
Vis
p754
atp755
Rp756
(dp757
g12
VVBZ
p758
sbag0
(g1
g2
(lp759
g0
(g1
g2
(lp760
Vcarrying
p761
atp762
Rp763
(dp764
g12
VVBG
p765
sbag0
(g1
g2
(lp766
g0
(g1
g2
(lp767
Va
p768
atp769
Rp770
(dp771
g12
VDT
p772
sbag0
(g1
g2
(lp773
Vyounger
p774
atp775
Rp776
(dp777
g12
VJJR
p778
sbag0
(g1
g2
(lp779
Vlady
p780
atp781
Rp782
(dp783
g12
VNN
p784
sbatp785
Rp786
(dp787
g12
VNP
p788
sbatp789
Rp790
(dp791
g12
VVP
p792
sbatp793
Rp794
(dp795
g12
VVP
p796
sbatp797
Rp798
(dp799
g12
VS
p800
sbag0
(g1
g2
(lp801
V,
p802
atp803
Rp804
(dp805
g12
V,
p806
sbag0
(g1
g2
(lp807
Vand
p808
atp809
Rp810
(dp811
g12
VCC
p812
sbag0
(g1
g2
(lp813
g0
(g1
g2
(lp814
g0
(g1
g2
(lp815
Vher
p816
atp817
Rp818
(dp819
g12
VPRP$
p820
sbag0
(g1
g2
(lp821
Vson
p822
atp823
Rp824
(dp825
g12
VNN
p826
sbatp827
Rp828
(dp829
g12
VNP
p830
sbag0
(g1
g2
(lp831
g0
(g1
g2
(lp832
Vis
p833
atp834
Rp835
(dp836
g12
VVBZ
p837
sbag0
(g1
g2
(lp838
g0
(g1
g2
(lp839
Valong
p840
atp841
Rp842
(dp843
g12
VIN
p844
sbag0
(g1
g2
(lp845
g0
(g1
g2
(lp846
g0
(g1
g2
(lp847
Vside
p848
atp849
Rp850
(dp851
g12
VNN
p852
sbatp853
Rp854
(dp855
g12
VNP
p856
sbag0
(g1
g2
(lp857
g0
(g1
g2
(lp858
Vof
p859
atp860
Rp861
(dp862
g12
VIN
p863
sbag0
(g1
g2
(lp864
g0
(g1
g2
(lp865
Vher
p866
atp867
Rp868
(dp869
g12
VPRP$
p870
sbatp871
Rp872
(dp873
g12
VNP
p874
sbatp875
Rp876
(dp877
g12
VPP
p878
sbatp879
Rp880
(dp881
g12
VNP
p882
sbatp883
Rp884
(dp885
g12
VPP
p886
sbatp887
Rp888
(dp889
g12
VVP
p890
sbatp891
Rp892
(dp893
g12
VS
p894
sbag0
(g1
g2
(lp895
V.
p896
atp897
Rp898
(dp899
g12
V.
p900
sbatp901
Rp902
(dp903
g12
VS
p904
sbatp905
Rp906
(dp907
g12
S'id: 4'
p908
sbag0
(g1
g2
(lp909
g0
(g1
g2
(lp910
g0
(g1
g2
(lp911
VAnd
p912
atp913
Rp914
(dp915
g12
VCC
p916
sbag0
(g1
g2
(lp917
g0
(g1
g2
(lp918
g0
(g1
g2
(lp919
g0
(g1
g2
(lp920
Vthe
p921
atp922
Rp923
(dp924
g12
VDT
p925
sbatp926
Rp927
(dp928
g12
VNP
p929
sbag0
(g1
g2
(lp930
V,
p931
atp932
Rp933
(dp934
g12
V,
p935
sbag0
(g1
g2
(lp936
g0
(g1
g2
(lp937
g0
(g1
g2
(lp938
Vthe
p939
atp940
Rp941
(dp942
g12
VDT
p943
sbag0
(g1
g2
(lp944
Vman
p945
atp946
Rp947
(dp948
g12
VNN
p949
sbatp950
Rp951
(dp952
g12
VNP
p953
sbag0
(g1
g2
(lp954
g0
(g1
g2
(lp955
Vin
p956
atp957
Rp958
(dp959
g12
VIN
p960
sbag0
(g1
g2
(lp961
g0
(g1
g2
(lp962
Vthe
p963
atp964
Rp965
(dp966
g12
VDT
p967
sbag0
(g1
g2
(lp968
Vcage
p969
atp970
Rp971
(dp972
g12
VNN
p973
sbatp974
Rp975
(dp976
g12
VNP
p977
sbatp978
Rp979
(dp980
g12
VPP
p981
sbatp982
Rp983
(dp984
g12
VNP
p985
sbatp986
Rp987
(dp988
g12
VNP
p989
sbag0
(g1
g2
(lp990
g0
(g1
g2
(lp991
Vis
p992
atp993
Rp994
(dp995
g12
VVBZ
p996
sbag0
(g1
g2
(lp997
g0
(g1
g2
(lp998
Vwearing
p999
atp1000
Rp1001
(dp1002
g12
VVBG
p1003
sbag0
(g1
g2
(lp1004
g0
(g1
g2
(lp1005
Va
p1006
atp1007
Rp1008
(dp1009
g12
VDT
p1010
sbag0
(g1
g2
(lp1011
Vtop
p1012
atp1013
Rp1014
(dp1015
g12
VJJ
p1016
sbag0
(g1
g2
(lp1017
Vhat
p1018
atp1019
Rp1020
(dp1021
g12
VNN
p1022
sbatp1023
Rp1024
(dp1025
g12
VNP
p1026
sbatp1027
Rp1028
(dp1029
g12
VVP
p1030
sbatp1031
Rp1032
(dp1033
g12
VVP
p1034
sbatp1035
Rp1036
(dp1037
g12
VS
p1038
sbag0
(g1
g2
(lp1039
V,
p1040
atp1041
Rp1042
(dp1043
g12
V,
p1044
sbag0
(g1
g2
(lp1045
Vand
p1046
atp1047
Rp1048
(dp1049
g12
VCC
p1050
sbag0
(g1
g2
(lp1051
g0
(g1
g2
(lp1052
g0
(g1
g2
(lp1053
g0
(g1
g2
(lp1054
g0
(g1
g2
(lp1055
Vcoat
p1056
atp1057
Rp1058
(dp1059
g12
VNN
p1060
sbatp1061
Rp1062
(dp1063
g12
VNP
p1064
sbag0
(g1
g2
(lp1065
V,
p1066
atp1067
Rp1068
(dp1069
g12
V,
p1070
sbag0
(g1
g2
(lp1071
Vand
p1072
atp1073
Rp1074
(dp1075
g12
VCC
p1076
sbag0
(g1
g2
(lp1077
g0
(g1
g2
(lp1078
Vtails
p1079
atp1080
Rp1081
(dp1082
g12
VNNS
p1083
sbatp1084
Rp1085
(dp1086
g12
VNP
p1087
sbag0
(g1
g2
(lp1088
V,
p1089
atp1090
Rp1091
(dp1092
g12
V,
p1093
sbatp1094
Rp1095
(dp1096
g12
VNP
p1097
sbag0
(g1
g2
(lp1098
Vso
p1099
atp1100
Rp1101
(dp1102
g12
VRB
p1103
sbatp1104
Rp1105
(dp1106
g12
VADVP
p1107
sbag0
(g1
g2
(lp1108
g0
(g1
g2
(lp1109
Vhe
p1110
atp1111
Rp1112
(dp1113
g12
VPRP
p1114
sbatp1115
Rp1116
(dp1117
g12
VNP
p1118
sbag0
(g1
g2
(lp1119
g0
(g1
g2
(lp1120
V's
p1121
atp1122
Rp1123
(dp1124
g12
VVBZ
p1125
sbag0
(g1
g2
(lp1126
g0
(g1
g2
(lp1127
Vreally
p1128
atp1129
Rp1130
(dp1131
g12
VRB
p1132
sbag0
(g1
g2
(lp1133
Vformal
p1134
atp1135
Rp1136
(dp1137
g12
VJJ
p1138
sbatp1139
Rp1140
(dp1141
g12
VADJP
p1142
sbatp1143
Rp1144
(dp1145
g12
VVP
p1146
sbatp1147
Rp1148
(dp1149
g12
VS
p1150
sbag0
(g1
g2
(lp1151
V.
p1152
atp1153
Rp1154
(dp1155
g12
V.
p1156
sbatp1157
Rp1158
(dp1159
g12
VS
p1160
sbatp1161
Rp1162
(dp1163
g12
S'id: 5'
p1164
sbag0
(g1
g2
(lp1165
g0
(g1
g2
(lp1166
g0
(g1
g2
(lp1167
g0
(g1
g2
(lp1168
VAnd
p1169
atp1170
Rp1171
(dp1172
g12
VCC
p1173
sbag0
(g1
g2
(lp1174
g0
(g1
g2
(lp1175
g0
(g1
g2
(lp1176
Vthe
p1177
atp1178
Rp1179
(dp1180
g12
VDT
p1181
sbatp1182
Rp1183
(dp1184
g12
VX
p1185
sbag0
(g1
g2
(lp1186
V,
p1187
atp1188
Rp1189
(dp1190
g12
V,
p1191
sbag0
(g1
g2
(lp1192
g0
(g1
g2
(lp1193
g0
(g1
g2
(lp1194
Vthe
p1195
atp1196
Rp1197
(dp1198
g12
VDT
p1199
sbag0
(g1
g2
(lp1200
Vthe
p1201
atp1202
Rp1203
(dp1204
g12
VDT
p1205
sbatp1206
Rp1207
(dp1208
g12
VNP
p1209
sbag0
(g1
g2
(lp1210
V,
p1211
atp1212
Rp1213
(dp1214
g12
V,
p1215
sbag0
(g1
g2
(lp1216
g0
(g1
g2
(lp1217
g0
(g1
g2
(lp1218
Vhorse
p1219
atp1220
Rp1221
(dp1222
g12
VNN
p1223
sbatp1224
Rp1225
(dp1226
g12
VNP
p1227
sbag0
(g1
g2
(lp1228
g0
(g1
g2
(lp1229
g0
(g1
g2
(lp1230
g0
(g1
g2
(lp1231
Vis
p1232
atp1233
Rp1234
(dp1235
g12
VVBZ
p1236
sbag0
(g1
g2
(lp1237
g0
(g1
g2
(lp1238
Vin
p1239
atp1240
Rp1241
(dp1242
g12
VIN
p1243
sbag0
(g1
g2
(lp1244
Va
p1245
atp1246
Rp1247
(dp1248
g12
VDT
p1249
sbatp1250
Rp1251
(dp1252
g12
VADVP
p1253
sbatp1254
Rp1255
(dp1256
g12
VVP
p1257
sbatp1258
Rp1259
(dp1260
g12
VS
p1261
sbatp1262
Rp1263
(dp1264
g12
VSBAR
p1265
sbatp1266
Rp1267
(dp1268
g12
VNP
p1269
sbag0
(g1
g2
(lp1270
V,
p1271
atp1272
Rp1273
(dp1274
g12
V,
p1275
sbatp1276
Rp1277
(dp1278
g12
VNP
p1279
sbag0
(g1
g2
(lp1280
g0
(g1
g2
(lp1281
Vlooks
p1282
atp1283
Rp1284
(dp1285
g12
VVBZ
p1286
sbag0
(g1
g2
(lp1287
g0
(g1
g2
(lp1288
Vlike
p1289
atp1290
Rp1291
(dp1292
g12
VIN
p1293
sbag0
(g1
g2
(lp1294
g0
(g1
g2
(lp1295
g0
(g1
g2
(lp1296
Va
p1297
atp1298
Rp1299
(dp1300
g12
VDT
p1301
sbag0
(g1
g2
(lp1302
Vring
p1303
atp1304
Rp1305
(dp1306
g12
VNN
p1307
sbatp1308
Rp1309
(dp1310
g12
VNP
p1311
sbag0
(g1
g2
(lp1312
g0
(g1
g2
(lp1313
g0
(g1
g2
(lp1314
Vthat
p1315
atp1316
Rp1317
(dp1318
g12
VWDT
p1319
sbatp1320
Rp1321
(dp1322
g12
VWHNP
p1323
sbag0
(g1
g2
(lp1324
g0
(g1
g2
(lp1325
g0
(g1
g2
(lp1326
Vmay
p1327
atp1328
Rp1329
(dp1330
g12
VMD
p1331
sbag0
(g1
g2
(lp1332
g0
(g1
g2
(lp1333
Vbe
p1334
atp1335
Rp1336
(dp1337
g12
VVB
p1338
sbag0
(g1
g2
(lp1339
g0
(g1
g2
(lp1340
g0
(g1
g2
(lp1341
Vsand
p1342
atp1343
Rp1344
(dp1345
g12
VNN
p1346
sbatp1347
Rp1348
(dp1349
g12
VNP
p1350
sbag0
(g1
g2
(lp1351
V,
p1352
atp1353
Rp1354
(dp1355
g12
V,
p1356
sbag0
(g1
g2
(lp1357
g0
(g1
g2
(lp1358
Vsand
p1359
atp1360
Rp1361
(dp1362
g12
VNN
p1363
sbag0
(g1
g2
(lp1364
Vcoated
p1365
atp1366
Rp1367
(dp1368
g12
VJJ
p1369
sbatp1370
Rp1371
(dp1372
g12
VNP
p1373
sbag0
(g1
g2
(lp1374
V,
p1375
atp1376
Rp1377
(dp1378
g12
V,
p1379
sbatp1380
Rp1381
(dp1382
g12
VNP
p1383
sbatp1384
Rp1385
(dp1386
g12
VVP
p1387
sbatp1388
Rp1389
(dp1390
g12
VVP
p1391
sbatp1392
Rp1393
(dp1394
g12
VS
p1395
sbatp1396
Rp1397
(dp1398
g12
VSBAR
p1399
sbatp1400
Rp1401
(dp1402
g12
VNP
p1403
sbatp1404
Rp1405
(dp1406
g12
VPP
p1407
sbatp1408
Rp1409
(dp1410
g12
VVP
p1411
sbatp1412
Rp1413
(dp1414
g12
VS
p1415
sbag0
(g1
g2
(lp1416
Vand
p1417
atp1418
Rp1419
(dp1420
g12
VCC
p1421
sbag0
(g1
g2
(lp1422
g0
(g1
g2
(lp1423
g0
(g1
g2
(lp1424
Vit
p1425
atp1426
Rp1427
(dp1428
g12
VPRP
p1429
sbatp1430
Rp1431
(dp1432
g12
VNP
p1433
sbag0
(g1
g2
(lp1434
g0
(g1
g2
(lp1435
V's
p1436
atp1437
Rp1438
(dp1439
g12
VVBZ
p1440
sbag0
(g1
g2
(lp1441
g0
(g1
g2
(lp1442
Vgot
p1443
atp1444
Rp1445
(dp1446
g12
VVBD
p1447
sbag0
(g1
g2
(lp1448
g0
(g1
g2
(lp1449
Va
p1450
atp1451
Rp1452
(dp1453
g12
VDT
p1454
sbag0
(g1
g2
(lp1455
Vfancy
p1456
atp1457
Rp1458
(dp1459
g12
VJJ
p1460
sbatp1461
Rp1462
(dp1463
g12
VNP
p1464
sbatp1465
Rp1466
(dp1467
g12
VVP
p1468
sbatp1469
Rp1470
(dp1471
g12
VVP
p1472
sbatp1473
Rp1474
(dp1475
g12
VS
p1476
sbatp1477
Rp1478
(dp1479
g12
VS
p1480
sbag0
(g1
g2
(lp1481
V,
p1482
atp1483
Rp1484
(dp1485
g12
V,
p1486
sbag0
(g1
g2
(lp1487
g0
(g1
g2
(lp1488
VI
p1489
atp1490
Rp1491
(dp1492
g12
VPRP
p1493
sbatp1494
Rp1495
(dp1496
g12
VNP
p1497
sbag0
(g1
g2
(lp1498
g0
(g1
g2
(lp1499
Vguess
p1500
atp1501
Rp1502
(dp1503
g12
VVBP
p1504
sbag0
(g1
g2
(lp1505
g0
(g1
g2
(lp1506
g0
(g1
g2
(lp1507
g0
(g1
g2
(lp1508
Vthat
p1509
atp1510
Rp1511
(dp1512
g12
VDT
p1513
sbatp1514
Rp1515
(dp1516
g12
VNP
p1517
sbag0
(g1
g2
(lp1518
g0
(g1
g2
(lp1519
V's
p1520
atp1521
Rp1522
(dp1523
g12
VVBZ
p1524
sbag0
(g1
g2
(lp1525
g0
(g1
g2
(lp1526
g0
(g1
g2
(lp1527
Va
p1528
atp1529
Rp1530
(dp1531
g12
VDT
p1532
sbag0
(g1
g2
(lp1533
Vharness
p1534
atp1535
Rp1536
(dp1537
g12
VNN
p1538
sbatp1539
Rp1540
(dp1541
g12
VNP
p1542
sbag0
(g1
g2
(lp1543
g0
(g1
g2
(lp1544
Von
p1545
atp1546
Rp1547
(dp1548
g12
VIN
p1549
sbag0
(g1
g2
(lp1550
g0
(g1
g2
(lp1551
Vit
p1552
atp1553
Rp1554
(dp1555
g12
VPRP
p1556
sbatp1557
Rp1558
(dp1559
g12
VNP
p1560
sbatp1561
Rp1562
(dp1563
g12
VPP
p1564
sbatp1565
Rp1566
(dp1567
g12
VNP
p1568
sbatp1569
Rp1570
(dp1571
g12
VVP
p1572
sbatp1573
Rp1574
(dp1575
g12
VS
p1576
sbatp1577
Rp1578
(dp1579
g12
VSBAR
p1580
sbatp1581
Rp1582
(dp1583
g12
VVP
p1584
sbag0
(g1
g2
(lp1585
V.
p1586
atp1587
Rp1588
(dp1589
g12
V.
p1590
sbatp1591
Rp1592
(dp1593
g12
VS
p1594
sbatp1595
Rp1596
(dp1597
g12
S'id: 6'
p1598
sbag0
(g1
g2
(lp1599
g0
(g1
g2
(lp1600
g0
(g1
g2
(lp1601
VAnd
p1602
atp1603
Rp1604
(dp1605
g12
VCC
p1606
sbag0
(g1
g2
(lp1607
g0
(g1
g2
(lp1608
g0
(g1
g2
(lp1609
Vthe
p1610
atp1611
Rp1612
(dp1613
g12
VDT
p1614
sbag0
(g1
g2
(lp1615
Vhorse
p1616
atp1617
Rp1618
(dp1619
g12
VNN
p1620
sbag0
(g1
g2
(lp1621
V's
p1622
atp1623
Rp1624
(dp1625
g12
VPOS
p1626
sbatp1627
Rp1628
(dp1629
g12
VNP
p1630
sbag0
(g1
g2
(lp1631
Vmane
p1632
atp1633
Rp1634
(dp1635
g12
VNN
p1636
sbatp1637
Rp1638
(dp1639
g12
VNP
p1640
sbag0
(g1
g2
(lp1641
g0
(g1
g2
(lp1642
Vis
p1643
atp1644
Rp1645
(dp1646
g12
VVBZ
p1647
sbag0
(g1
g2
(lp1648
g0
(g1
g2
(lp1649
g0
(g1
g2
(lp1650
Vall
p1651
atp1652
Rp1653
(dp1654
g12
VDT
p1655
sbatp1656
Rp1657
(dp1658
g12
VNP
p1659
sbag0
(g1
g2
(lp1660
g0
(g1
g2
(lp1661
g0
(g1
g2
(lp1662
g0
(g1
g2
(lp1663
Vdolled
p1664
atp1665
Rp1666
(dp1667
g12
VVBD
p1668
sbag0
(g1
g2
(lp1669
g0
(g1
g2
(lp1670
Vup
p1671
atp1672
Rp1673
(dp1674
g12
VRP
p1675
sbatp1676
Rp1677
(dp1678
g12
VPRT
p1679
sbag0
(g1
g2
(lp1680
V,
p1681
atp1682
Rp1683
(dp1684
g12
V,
p1685
sbag0
(g1
g2
(lp1686
g0
(g1
g2
(lp1687
Vwith
p1688
atp1689
Rp1690
(dp1691
g12
VIN
p1692
sbag0
(g1
g2
(lp1693
g0
(g1
g2
(lp1694
g0
(g1
g2
(lp1695
Va
p1696
atp1697
Rp1698
(dp1699
g12
VDT
p1700
sbag0
(g1
g2
(lp1701
g0
(g1
g2
(lp1702
V,
p1703
atp1704
Rp1705
(dp1706
g12
V,
p1707
sbag0
(g1
g2
(lp1708
g0
(g1
g2
(lp1709
Vwith
p1710
atp1711
Rp1712
(dp1713
g12
VIN
p1714
sbag0
(g1
g2
(lp1715
g0
(g1
g2
(lp1716
Vsome
p1717
atp1718
Rp1719
(dp1720
g12
VDT
p1721
sbag0
(g1
g2
(lp1722
Vtossles
p1723
atp1724
Rp1725
(dp1726
g12
VNNS
p1727
sbatp1728
Rp1729
(dp1730
g12
VNP
p1731
sbatp1732
Rp1733
(dp1734
g12
VPP
p1735
sbag0
(g1
g2
(lp1736
V,
p1737
atp1738
Rp1739
(dp1740
g12
V,
p1741
sbatp1742
Rp1743
(dp1744
g12
VPRN
p1745
sbatp1746
Rp1747
(dp1748
g12
VADJP
p1749
sbag0
(g1
g2
(lp1750
Vtassels
p1751
atp1752
Rp1753
(dp1754
g12
VNNS
p1755
sbatp1756
Rp1757
(dp1758
g12
VNP
p1759
sbatp1760
Rp1761
(dp1762
g12
VPP
p1763
sbatp1764
Rp1765
(dp1766
g12
VVP
p1767
sbatp1768
Rp1769
(dp1770
g12
VS
p1771
sbatp1772
Rp1773
(dp1774
g12
VSBAR
p1775
sbatp1776
Rp1777
(dp1778
g12
VNP
p1779
sbatp1780
Rp1781
(dp1782
g12
VVP
p1783
sbag0
(g1
g2
(lp1784
V.
p1785
atp1786
Rp1787
(dp1788
g12
V.
p1789
sbatp1790
Rp1791
(dp1792
g12
VS
p1793
sbatp1794
Rp1795
(dp1796
g12
S'id: 7'
p1797
sbag0
(g1
g2
(lp1798
g0
(g1
g2
(lp1799
g0
(g1
g2
(lp1800
VAnd
p1801
atp1802
Rp1803
(dp1804
g12
VCC
p1805
sbag0
(g1
g2
(lp1806
g0
(g1
g2
(lp1807
Vit
p1808
atp1809
Rp1810
(dp1811
g12
VPRP
p1812
sbatp1813
Rp1814
(dp1815
g12
VNP
p1816
sbag0
(g1
g2
(lp1817
g0
(g1
g2
(lp1818
V's
p1819
atp1820
Rp1821
(dp1822
g12
VVBZ
p1823
sbag0
(g1
g2
(lp1824
g0
(g1
g2
(lp1825
Vgot
p1826
atp1827
Rp1828
(dp1829
g12
VVBD
p1830
sbag0
(g1
g2
(lp1831
g0
(g1
g2
(lp1832
g0
(g1
g2
(lp1833
Va
p1834
atp1835
Rp1836
(dp1837
g12
VDT
p1838
sbatp1839
Rp1840
(dp1841
g12
VNP
p1842
sbag0
(g1
g2
(lp1843
V,
p1844
atp1845
Rp1846
(dp1847
g12
V,
p1848
sbag0
(g1
g2
(lp1849
g0
(g1
g2
(lp1850
Va
p1851
atp1852
Rp1853
(dp1854
g12
VDT
p1855
sbatp1856
Rp1857
(dp1858
g12
VNP
p1859
sbag0
(g1
g2
(lp1860
V,
p1861
atp1862
Rp1863
(dp1864
g12
V,
p1865
sbag0
(g1
g2
(lp1866
g0
(g1
g2
(lp1867
g0
(g1
g2
(lp1868
Vwhat
p1869
atp1870
Rp1871
(dp1872
g12
VWP
p1873
sbatp1874
Rp1875
(dp1876
g12
VWHNP
p1877
sbag0
(g1
g2
(lp1878
g0
(g1
g2
(lp1879
g0
(g1
g2
(lp1880
Vdo
p1881
atp1882
Rp1883
(dp1884
g12
VVBP
p1885
sbag0
(g1
g2
(lp1886
g0
(g1
g2
(lp1887
g0
(g1
g2
(lp1888
Vyou
p1889
atp1890
Rp1891
(dp1892
g12
VPRP
p1893
sbatp1894
Rp1895
(dp1896
g12
VNP
p1897
sbag0
(g1
g2
(lp1898
g0
(g1
g2
(lp1899
Vcall
p1900
atp1901
Rp1902
(dp1903
g12
VVB
p1904
sbag0
(g1
g2
(lp1905
g0
(g1
g2
(lp1906
g0
(g1
g2
(lp1907
g0
(g1
g2
(lp1908
g0
(g1
g2
(lp1909
Vthat
p1910
atp1911
Rp1912
(dp1913
g12
VDT
p1914
sbag0
(g1
g2
(lp1915
Vthing
p1916
atp1917
Rp1918
(dp1919
g12
VNN
p1920
sbatp1921
Rp1922
(dp1923
g12
VNP
p1924
sbag0
(g1
g2
(lp1925
g0
(g1
g2
(lp1926
Von
p1927
atp1928
Rp1929
(dp1930
g12
VIN
p1931
sbag0
(g1
g2
(lp1932
g0
(g1
g2
(lp1933
Vit
p1934
atp1935
Rp1936
(dp1937
g12
VPRP
p1938
sbatp1939
Rp1940
(dp1941
g12
VNP
p1942
sbatp1943
Rp1944
(dp1945
g12
VPP
p1946
sbatp1947
Rp1948
(dp1949
g12
VNP
p1950
sbag0
(g1
g2
(lp1951
g0
(g1
g2
(lp1952
V's
p1953
atp1954
Rp1955
(dp1956
g12
VVBZ
p1957
sbag0
(g1
g2
(lp1958
g0
(g1
g2
(lp1959
Vhead
p1960
atp1961
Rp1962
(dp1963
g12
VNN
p1964
sbatp1965
Rp1966
(dp1967
g12
VNP
p1968
sbatp1969
Rp1970
(dp1971
g12
VVP
p1972
sbatp1973
Rp1974
(dp1975
g12
VS
p1976
sbatp1977
Rp1978
(dp1979
g12
VSBAR
p1980
sbatp1981
Rp1982
(dp1983
g12
VVP
p1984
sbatp1985
Rp1986
(dp1987
g12
VS
p1988
sbatp1989
Rp1990
(dp1991
g12
VVP
p1992
sbatp1993
Rp1994
(dp1995
g12
VS
p1996
sbatp1997
Rp1998
(dp1999
g12
VSBAR
p2000
sbatp2001
Rp2002
(dp2003
g12
VNP
p2004
sbatp2005
Rp2006
(dp2007
g12
VVP
p2008
sbatp2009
Rp2010
(dp2011
g12
VVP
p2012
sbatp2013
Rp2014
(dp2015
g12
VS
p2016
sbatp2017
Rp2018
(dp2019
g12
S'id: 8'
p2020
sbatp2021
Rp2022
(dp2023
g12
S'sentences'
p2024
sb.