ccopy_reg
_reconstructor
p0
(cnltk.tree
Tree
p1
c__builtin__
list
p2
(lp3
g0
(g1
g2
(lp4
g0
(g1
g2
(lp5
g0
(g1
g2
(lp6
Vthe lion to do tricks inside the cage
p7
atp8
Rp9
(dp10
S'_label'
p11
S'start: 12'
p12
sbatp13
Rp14
(dp15
g11
S'sent: 1'
p16
sbag0
(g1
g2
(lp17
g0
(g1
g2
(lp18
Vthe lion
p19
atp20
Rp21
(dp22
g11
S'start: 14'
p23
sbatp24
Rp25
(dp26
g11
S'sent: 5'
p27
sbag0
(g1
g2
(lp28
g0
(g1
g2
(lp29
Vthat
p30
atp31
Rp32
(dp33
g11
S'start: 29'
p34
sbatp35
Rp36
(dp37
g11
S'sent: 5'
p38
sbag0
(g1
g2
(lp39
g0
(g1
g2
(lp40
VIt
p41
atp42
Rp43
(dp44
g11
S'start: 1'
p45
sbatp46
Rp47
(dp48
g11
S'sent: 7'
p49
sbag0
(g1
g2
(lp50
g0
(g1
g2
(lp51
Vit
p52
atp53
Rp54
(dp55
g11
S'start: 6'
p56
sbatp57
Rp58
(dp59
g11
S'sent: 7'
p60
sbag0
(g1
g2
(lp61
g0
(g1
g2
(lp62
Vit
p63
atp64
Rp65
(dp66
g11
S'start: 10'
p67
sbatp68
Rp69
(dp70
g11
S'sent: 7'
p71
sbatp72
Rp73
(dp74
g11
S'id: 4'
p75
sbag0
(g1
g2
(lp76
g0
(g1
g2
(lp77
g0
(g1
g2
(lp78
Va clown
p79
atp80
Rp81
(dp82
g11
S'start: 3'
p83
sbatp84
Rp85
(dp86
g11
S'sent: 3'
p87
sbag0
(g1
g2
(lp88
g0
(g1
g2
(lp89
Vhis
p90
atp91
Rp92
(dp93
g11
S'start: 8'
p94
sbatp95
Rp96
(dp97
g11
S'sent: 3'
p98
sbag0
(g1
g2
(lp99
g0
(g1
g2
(lp100
Vhe
p101
atp102
Rp103
(dp104
g11
S'start: 15'
p105
sbatp106
Rp107
(dp108
g11
S'sent: 3'
p109
sbatp110
Rp111
(dp112
g11
S'id: 15'
p113
sbag0
(g1
g2
(lp114
g0
(g1
g2
(lp115
g0
(g1
g2
(lp116
Vhis little jar of things
p117
atp118
Rp119
(dp120
g11
S'start: 8'
p121
sbatp122
Rp123
(dp124
g11
S'sent: 3'
p125
sbag0
(g1
g2
(lp126
g0
(g1
g2
(lp127
Vit
p128
atp129
Rp130
(dp131
g11
S'start: 17'
p132
sbatp133
Rp134
(dp135
g11
S'sent: 3'
p136
sbatp137
Rp138
(dp139
g11
S'id: 16'
p140
sbag0
(g1
g2
(lp141
g0
(g1
g2
(lp142
g0
(g1
g2
(lp143
Vit and confetti , or whatever , comes out
p144
atp145
Rp146
(dp147
g11
S'start: 17'
p148
sbatp149
Rp150
(dp151
g11
S'sent: 3'
p152
sbag0
(g1
g2
(lp153
g0
(g1
g2
(lp154
Vthey
p155
atp156
Rp157
(dp158
g11
S'start: 31'
p159
sbatp160
Rp161
(dp162
g11
S'sent: 5'
p163
sbag0
(g1
g2
(lp164
g0
(g1
g2
(lp165
Vthem
p166
atp167
Rp168
(dp169
g11
S'start: 4'
p170
sbatp171
Rp172
(dp173
g11
S'sent: 6'
p174
sbag0
(g1
g2
(lp175
g0
(g1
g2
(lp176
Vthey
p177
atp178
Rp179
(dp180
g11
S'start: 6'
p181
sbatp182
Rp183
(dp184
g11
S'sent: 6'
p185
sbag0
(g1
g2
(lp186
g0
(g1
g2
(lp187
Vthey
p188
atp189
Rp190
(dp191
g11
S'start: 12'
p192
sbatp193
Rp194
(dp195
g11
S'sent: 6'
p196
sbag0
(g1
g2
(lp197
g0
(g1
g2
(lp198
Vthey
p199
atp200
Rp201
(dp202
g11
S'start: 4'
p203
sbatp204
Rp205
(dp206
g11
S'sent: 8'
p207
sbatp208
Rp209
(dp210
g11
S'id: 20'
p211
sbag0
(g1
g2
(lp212
g0
(g1
g2
(lp213
g0
(g1
g2
(lp214
Vthe guy
p215
atp216
Rp217
(dp218
g11
S'start: 3'
p219
sbatp220
Rp221
(dp222
g11
S'sent: 5'
p223
sbag0
(g1
g2
(lp224
g0
(g1
g2
(lp225
Vhis
p226
atp227
Rp228
(dp229
g11
S'start: 7'
p230
sbatp231
Rp232
(dp233
g11
S'sent: 5'
p234
sbag0
(g1
g2
(lp235
g0
(g1
g2
(lp236
Vhis
p237
atp238
Rp239
(dp240
g11
S'start: 26'
p241
sbatp242
Rp243
(dp244
g11
S'sent: 5'
p245
sbag0
(g1
g2
(lp246
g0
(g1
g2
(lp247
Vthis guy over here
p248
atp249
Rp250
(dp251
g11
S'start: 2'
p252
sbatp253
Rp254
(dp255
g11
S'sent: 13'
p256
sbatp257
Rp258
(dp259
g11
S'id: 25'
p260
sbag0
(g1
g2
(lp261
g0
(g1
g2
(lp262
g0
(g1
g2
(lp263
VI
p264
atp265
Rp266
(dp267
g11
S'start: 18'
p268
sbatp269
Rp270
(dp271
g11
S'sent: 5'
p272
sbag0
(g1
g2
(lp273
g0
(g1
g2
(lp274
VI
p275
atp276
Rp277
(dp278
g11
S'start: 1'
p279
sbatp280
Rp281
(dp282
g11
S'sent: 6'
p283
sbatp284
Rp285
(dp286
g11
S'id: 30'
p287
sbag0
(g1
g2
(lp288
g0
(g1
g2
(lp289
g0
(g1
g2
(lp290
VThe rope that they are doing
p291
atp292
Rp293
(dp294
g11
S'start: 1'
p295
sbatp296
Rp297
(dp298
g11
S'sent: 8'
p299
sbag0
(g1
g2
(lp300
g0
(g1
g2
(lp301
Vit
p302
atp303
Rp304
(dp305
g11
S'start: 11'
p306
sbatp307
Rp308
(dp309
g11
S'sent: 8'
p310
sbag0
(g1
g2
(lp311
g0
(g1
g2
(lp312
Vit
p313
atp314
Rp315
(dp316
g11
S'start: 17'
p317
sbatp318
Rp319
(dp320
g11
S'sent: 8'
p321
sbatp322
Rp323
(dp324
g11
S'id: 50'
p325
sbag0
(g1
g2
(lp326
g0
(g1
g2
(lp327
g0
(g1
g2
(lp328
Vbows
p329
atp330
Rp331
(dp332
g11
S'start: 4'
p333
sbatp334
Rp335
(dp336
g11
S'sent: 9'
p337
sbag0
(g1
g2
(lp338
g0
(g1
g2
(lp339
Vribbons
p340
atp341
Rp342
(dp343
g11
S'start: 6'
p344
sbatp345
Rp346
(dp347
g11
S'sent: 9'
p348
sbatp349
Rp350
(dp351
g11
S'id: 58'
p352
sbag0
(g1
g2
(lp353
g0
(g1
g2
(lp354
g0
(g1
g2
(lp355
Vher
p356
atp357
Rp358
(dp359
g11
S'start: 9'
p360
sbatp361
Rp362
(dp363
g11
S'sent: 9'
p364
sbag0
(g1
g2
(lp365
g0
(g1
g2
(lp366
Vher
p367
atp368
Rp369
(dp370
g11
S'start: 12'
p371
sbatp372
Rp373
(dp374
g11
S'sent: 12'
p375
sbatp376
Rp377
(dp378
g11
S'id: 61'
p379
sbag0
(g1
g2
(lp380
g0
(g1
g2
(lp381
g0
(g1
g2
(lp382
Vhere
p383
atp384
Rp385
(dp386
g11
S'start: 2'
p387
sbatp388
Rp389
(dp390
g11
S'sent: 10'
p391
sbag0
(g1
g2
(lp392
g0
(g1
g2
(lp393
Vit
p394
atp395
Rp396
(dp397
g11
S'start: 6'
p398
sbatp399
Rp400
(dp401
g11
S'sent: 10'
p402
sbag0
(g1
g2
(lp403
g0
(g1
g2
(lp404
Vhere
p405
atp406
Rp407
(dp408
g11
S'start: 5'
p409
sbatp410
Rp411
(dp412
g11
S'sent: 13'
p413
sbag0
(g1
g2
(lp414
g0
(g1
g2
(lp415
Vit
p416
atp417
Rp418
(dp419
g11
S'start: 23'
p420
sbatp421
Rp422
(dp423
g11
S'sent: 13'
p424
sbatp425
Rp426
(dp427
g11
S'id: 62'
p428
sbag0
(g1
g2
(lp429
g0
(g1
g2
(lp430
g0
(g1
g2
(lp431
Vthe
p432
atp433
Rp434
(dp435
g11
S'start: 9'
p436
sbatp437
Rp438
(dp439
g11
S'sent: 11'
p440
sbag0
(g1
g2
(lp441
g0
(g1
g2
(lp442
Vthe , graffiti stuff
p443
atp444
Rp445
(dp446
g11
S'start: 12'
p447
sbatp448
Rp449
(dp450
g11
S'sent: 11'
p451
sbag0
(g1
g2
(lp452
g0
(g1
g2
(lp453
Vthe
p454
atp455
Rp456
(dp457
g11
S'start: 12'
p458
sbatp459
Rp460
(dp461
g11
S'sent: 11'
p462
sbag0
(g1
g2
(lp463
g0
(g1
g2
(lp464
Vgraffiti stuff
p465
atp466
Rp467
(dp468
g11
S'start: 14'
p469
sbatp470
Rp471
(dp472
g11
S'sent: 11'
p473
sbag0
(g1
g2
(lp474
g0
(g1
g2
(lp475
Vthat
p476
atp477
Rp478
(dp479
g11
S'start: 19'
p480
sbatp481
Rp482
(dp483
g11
S'sent: 11'
p484
sbatp485
Rp486
(dp487
g11
S'id: 68'
p488
sbatp489
Rp490
(dp491
g11
S'coreferences'
p492
sb.