ccopy_reg
_reconstructor
p0
(cnltk.tree
Tree
p1
c__builtin__
list
p2
(lp3
g0
(g1
g2
(lp4
g0
(g1
g2
(lp5
g0
(g1
g2
(lp6
g0
(g1
g2
(lp7
g0
(g1
g2
(lp8
(lp9
S'word: another, index: 2'
p10
aatp11
Rp12
(dp13
S'_label'
p14
Vdet
p15
sbag0
(g1
g2
(lp16
(lp17
S'word: pencil, index: 3'
p18
aatp19
Rp20
(dp21
g14
Vnn
p22
sbag0
(g1
g2
(lp23
(lp24
S'word: ok, index: 6'
p25
aatp26
Rp27
(dp28
g14
Vappos
p29
sbatp30
Rp31
(dp32
g14
S'word: job, index: 4'
p33
sbatp34
Rp35
(dp36
g14
Vdep
p37
sbatp38
Rp39
(dp40
g14
S'word: ooo, index: 1'
p41
sbatp42
Rp43
(dp44
g14
S'id: 0'
p45
sbag0
(g1
g2
(lp46
g0
(g1
g2
(lp47
g0
(g1
g2
(lp48
g0
(g1
g2
(lp49
g0
(g1
g2
(lp50
(lp51
S'word: a, index: 5'
p52
aatp53
Rp54
(dp55
g14
Vdet
p56
sbatp57
Rp58
(dp59
g14
S'word: merry-go, index: 6'
p60
sbatp61
Rp62
(dp63
g14
Vprep
p64
sbag0
(g1
g2
(lp65
g0
(g1
g2
(lp66
g0
(g1
g2
(lp67
(lp68
S'word: a, index: 9'
p69
aatp70
Rp71
(dp72
g14
Vdet
p73
sbag0
(g1
g2
(lp74
g0
(g1
g2
(lp75
g0
(g1
g2
(lp76
(lp77
S'word: a, index: 23'
p78
aatp79
Rp80
(dp81
g14
Vdet
p82
sbag0
(g1
g2
(lp83
(lp84
S'word: tight, index: 24'
p85
aatp86
Rp87
(dp88
g14
Vamod
p89
sbag0
(g1
g2
(lp90
(lp91
S'word: rope, index: 25'
p92
aatp93
Rp94
(dp95
g14
Vnn
p96
sbatp97
Rp98
(dp99
g14
S'word: walker, index: 26'
p100
sbatp101
Rp102
(dp103
g14
Vprep
p104
sbag0
(g1
g2
(lp105
g0
(g1
g2
(lp106
g0
(g1
g2
(lp107
g0
(g1
g2
(lp108
g0
(g1
g2
(lp109
(lp110
S'word: back, index: 19'
p111
aatp112
Rp113
(dp114
g14
Vnn
p115
sbag0
(g1
g2
(lp116
(lp117
S'word: a, index: 17'
p118
aatp119
Rp120
(dp121
g14
Vdet
p122
sbag0
(g1
g2
(lp123
(lp124
S'word: bare, index: 18'
p125
aatp126
Rp127
(dp128
g14
Vamod
p129
sbatp130
Rp131
(dp132
g14
S'word: rider, index: 20'
p133
sbatp134
Rp135
(dp136
g14
Vprep
p137
sbag0
(g1
g2
(lp138
g98
atp139
Rp140
(dp141
g14
Vconj
p142
sbag0
(g1
g2
(lp143
(lp144
S'word: the, index: 12'
p145
aatp146
Rp147
(dp148
g14
Vdet
p149
sbatp150
Rp151
(dp152
g14
S'word: cage, index: 13'
p153
sbatp154
Rp155
(dp156
g14
Vprep
p157
sbatp158
Rp159
(dp160
g14
S'word: tiger, index: 10'
p161
sbatp162
Rp163
(dp164
g14
Vprep
p165
sbag0
(g1
g2
(lp166
(lp167
S'word: We, index: 1'
p168
aatp169
Rp170
(dp171
g14
Vnsubj
p172
sbag0
(g1
g2
(lp173
(lp174
S'word: are, index: 2'
p175
aatp176
Rp177
(dp178
g14
Vaux
p179
sbatp180
Rp181
(dp182
g14
S'word: looking, index: 3'
p183
sbatp184
Rp185
(dp186
g14
S'id: 1'
p187
sbag0
(g1
g2
(lp188
g0
(g1
g2
(lp189
g0
(g1
g2
(lp190
(lp191
S'word: must, index: 6'
p192
aatp193
Rp194
(dp195
g14
Vaux
p196
sbag0
(g1
g2
(lp197
(lp198
S'word: be, index: 7'
p199
aatp200
Rp201
(dp202
g14
Vcop
p203
sbag0
(g1
g2
(lp204
(lp205
S'word: a, index: 8'
p206
aatp207
Rp208
(dp209
g14
Vdet
p210
sbag0
(g1
g2
(lp211
(lp212
S'word: town, index: 11'
p213
aatp214
Rp215
(dp216
g14
Vprep
p217
sbag0
(g1
g2
(lp218
(lp219
S'word: boy, index: 1'
p220
aatp221
Rp222
(dp223
g14
Vnsubj
p224
sbag0
(g1
g2
(lp225
g0
(g1
g2
(lp226
g0
(g1
g2
(lp227
(lp228
S'word: those, index: 2'
p229
aatp230
Rp231
(dp232
g14
Vnsubj
p233
sbag0
(g1
g2
(lp234
(lp235
S'word: are, index: 3'
p236
aatp237
Rp238
(dp239
g14
Vcop
p240
sbatp241
Rp242
(dp243
g14
S'word: all, index: 4'
p244
sbatp245
Rp246
(dp247
g14
Vparataxis
p248
sbatp249
Rp250
(dp251
g14
S'word: circus, index: 9'
p252
sbatp253
Rp254
(dp255
g14
S'id: 2'
p256
sbag0
(g1
g2
(lp257
g0
(g1
g2
(lp258
g0
(g1
g2
(lp259
(lp260
S'word: Well, index: 1'
p261
aatp262
Rp263
(dp264
g14
Vadvmod
p265
sbag0
(g1
g2
(lp266
(lp267
S'word: there, index: 2'
p268
aatp269
Rp270
(dp271
g14
Vexpl
p272
sbag0
(g1
g2
(lp273
g0
(g1
g2
(lp274
g0
(g1
g2
(lp275
(lp276
S'word: a, index: 4'
p277
aatp278
Rp279
(dp280
g14
Vdet
p281
sbag0
(g1
g2
(lp282
g0
(g1
g2
(lp283
g0
(g1
g2
(lp284
(lp285
S'word: all, index: 9'
p286
aatp287
Rp288
(dp289
g14
Vdep
p290
sbag0
(g1
g2
(lp291
g0
(g1
g2
(lp292
g0
(g1
g2
(lp293
(lp294
S'word: the, index: 11'
p295
aatp296
Rp297
(dp298
g14
Vdet
p299
sbatp300
Rp301
(dp302
g14
S'word: place, index: 12'
p303
sbatp304
Rp305
(dp306
g14
Vprep
p307
sbag0
(g1
g2
(lp308
(lp309
S'word: out, index: 7'
p310
aatp311
Rp312
(dp313
g14
Vprt
p314
sbag0
(g1
g2
(lp315
(lp316
S'word: popcorn, index: 8'
p317
aatp318
Rp319
(dp320
g14
Vdobj
p321
sbatp322
Rp323
(dp324
g14
S'word: flipping, index: 6'
p325
sbatp326
Rp327
(dp328
g14
Vdep
p329
sbatp330
Rp331
(dp332
g14
S'word: clown, index: 5'
p333
sbatp334
Rp335
(dp336
g14
Vnsubj
p337
sbatp338
Rp339
(dp340
g14
S"word: 's, index: 3"
p341
sbatp342
Rp343
(dp344
g14
S'id: 3'
p345
sbag0
(g1
g2
(lp346
g0
(g1
g2
(lp347
g0
(g1
g2
(lp348
g0
(g1
g2
(lp349
g0
(g1
g2
(lp350
(lp351
S'word: she, index: 15'
p352
aatp353
Rp354
(dp355
g14
Vnsubj
p356
sbag0
(g1
g2
(lp357
(lp358
S'word: is, index: 16'
p359
aatp360
Rp361
(dp362
g14
Vaux
p363
sbag0
(g1
g2
(lp364
g0
(g1
g2
(lp365
g0
(g1
g2
(lp366
(lp367
S'word: a, index: 18'
p368
aatp369
Rp370
(dp371
g14
Vdet
p372
sbag0
(g1
g2
(lp373
(lp374
S'word: younger, index: 19'
p375
aatp376
Rp377
(dp378
g14
Vamod
p379
sbatp380
Rp381
(dp382
g14
S'word: lady, index: 20'
p383
sbatp384
Rp385
(dp386
g14
Vdobj
p387
sbatp388
Rp389
(dp390
g14
S'word: carrying, index: 17'
p391
sbatp392
Rp393
(dp394
g14
Vconj
p395
sbag0
(g1
g2
(lp396
(lp397
S'word: a, index: 2'
p398
aatp399
Rp400
(dp401
g14
Vdet
p402
sbag0
(g1
g2
(lp403
(lp404
S'word: young, index: 3'
p405
aatp406
Rp407
(dp408
g14
Vamod
p409
sbag0
(g1
g2
(lp410
g0
(g1
g2
(lp411
g0
(g1
g2
(lp412
g0
(g1
g2
(lp413
g0
(g1
g2
(lp414
(lp415
S'word: on, index: 12'
p416
aatp417
Rp418
(dp419
g14
Vprep
p420
sbag0
(g1
g2
(lp421
(lp422
S'word: a, index: 9'
p423
aatp424
Rp425
(dp426
g14
Vdet
p427
sbag0
(g1
g2
(lp428
(lp429
S'word: printed, index: 10'
p430
aatp431
Rp432
(dp433
g14
Vamod
p434
sbatp435
Rp436
(dp437
g14
S'word: blouse, index: 11'
p438
sbatp439
Rp440
(dp441
g14
Vprep
p442
sbatp443
Rp444
(dp445
g14
S'word: a, index: 6'
p446
sbatp447
Rp448
(dp449
g14
Vprep
p450
sbag0
(g1
g2
(lp451
g0
(g1
g2
(lp452
g0
(g1
g2
(lp453
g0
(g1
g2
(lp454
g0
(g1
g2
(lp455
(lp456
S'word: her, index: 23'
p457
aatp458
Rp459
(dp460
g14
Vposs
p461
sbatp462
Rp463
(dp464
g14
S'word: son, index: 24'
p465
sbatp466
Rp467
(dp468
g14
Vnsubj
p469
sbag0
(g1
g2
(lp470
g0
(g1
g2
(lp471
g0
(g1
g2
(lp472
(lp473
S'word: her, index: 29'
p474
aatp475
Rp476
(dp477
g14
Vprep
p478
sbatp479
Rp480
(dp481
g14
S'word: side, index: 27'
p482
sbatp483
Rp484
(dp485
g14
Vprep
p486
sbatp487
Rp488
(dp489
g14
S'word: is, index: 25'
p490
sbatp491
Rp492
(dp493
g14
Vconj
p494
sbatp495
Rp496
(dp497
g14
S'word: lady, index: 4'
p498
sbatp499
Rp500
(dp501
g14
S'id: 4'
p502
sbag0
(g1
g2
(lp503
g0
(g1
g2
(lp504
g0
(g1
g2
(lp505
g0
(g1
g2
(lp506
g0
(g1
g2
(lp507
g0
(g1
g2
(lp508
g0
(g1
g2
(lp509
(lp510
S'word: the, index: 4'
p511
aatp512
Rp513
(dp514
g14
Vdet
p515
sbag0
(g1
g2
(lp516
g0
(g1
g2
(lp517
g0
(g1
g2
(lp518
(lp519
S'word: the, index: 7'
p520
aatp521
Rp522
(dp523
g14
Vdet
p524
sbatp525
Rp526
(dp527
g14
S'word: cage, index: 8'
p528
sbatp529
Rp530
(dp531
g14
Vprep
p532
sbatp533
Rp534
(dp535
g14
S'word: man, index: 5'
p536
sbatp537
Rp538
(dp539
g14
Vappos
p540
sbatp541
Rp542
(dp543
g14
S'word: the, index: 2'
p544
sbatp545
Rp546
(dp547
g14
Vnsubj
p548
sbag0
(g1
g2
(lp549
(lp550
S'word: is, index: 9'
p551
aatp552
Rp553
(dp554
g14
Vaux
p555
sbag0
(g1
g2
(lp556
g0
(g1
g2
(lp557
g0
(g1
g2
(lp558
g0
(g1
g2
(lp559
g0
(g1
g2
(lp560
g0
(g1
g2
(lp561
g0
(g1
g2
(lp562
(lp563
S'word: tails, index: 19'
p564
aatp565
Rp566
(dp567
g14
Vconj
p568
sbatp569
Rp570
(dp571
g14
S'word: coat, index: 16'
p572
sbatp573
Rp574
(dp575
g14
Vnpadvmod
p576
sbag0
(g1
g2
(lp577
(lp578
S'word: tails, index: 19'
p579
aatp580
Rp581
(dp582
g14
Vnpadvmod
p583
sbatp584
Rp585
(dp586
g14
S'word: so, index: 21'
p587
sbatp588
Rp589
(dp590
g14
Vadvmod
p591
sbag0
(g1
g2
(lp592
(lp593
S'word: he, index: 22'
p594
aatp595
Rp596
(dp597
g14
Vnsubj
p598
sbag0
(g1
g2
(lp599
(lp600
S"word: 's, index: 23"
p601
aatp602
Rp603
(dp604
g14
Vcop
p605
sbag0
(g1
g2
(lp606
(lp607
S'word: really, index: 24'
p608
aatp609
Rp610
(dp611
g14
Vadvmod
p612
sbatp613
Rp614
(dp615
g14
S'word: formal, index: 25'
p616
sbatp617
Rp618
(dp619
g14
Vconj
p620
sbag0
(g1
g2
(lp621
g0
(g1
g2
(lp622
g0
(g1
g2
(lp623
(lp624
S'word: a, index: 11'
p625
aatp626
Rp627
(dp628
g14
Vdet
p629
sbag0
(g1
g2
(lp630
(lp631
S'word: top, index: 12'
p632
aatp633
Rp634
(dp635
g14
Vamod
p636
sbatp637
Rp638
(dp639
g14
S'word: hat, index: 13'
p640
sbatp641
Rp642
(dp643
g14
Vdobj
p644
sbatp645
Rp646
(dp647
g14
S'word: wearing, index: 10'
p648
sbatp649
Rp650
(dp651
g14
S'id: 5'
p652
sbag0
(g1
g2
(lp653
g0
(g1
g2
(lp654
g0
(g1
g2
(lp655
g0
(g1
g2
(lp656
g0
(g1
g2
(lp657
(lp658
S"word: 's, index: 34"
p659
aatp660
Rp661
(dp662
g14
Vcop
p663
sbag0
(g1
g2
(lp664
(lp665
S'word: a, index: 35'
p666
aatp667
Rp668
(dp669
g14
Vdet
p670
sbag0
(g1
g2
(lp671
(lp672
S'word: it, index: 38'
p673
aatp674
Rp675
(dp676
g14
Vprep
p677
sbag0
(g1
g2
(lp678
(lp679
S'word: that, index: 33'
p680
aatp681
Rp682
(dp683
g14
Vnsubj
p684
sbatp685
Rp686
(dp687
g14
S'word: harness, index: 36'
p688
sbatp689
Rp690
(dp691
g14
Vccomp
p692
sbag0
(g1
g2
(lp693
g0
(g1
g2
(lp694
g0
(g1
g2
(lp695
(lp696
S'word: it, index: 25'
p697
aatp698
Rp699
(dp700
g14
Vnsubjpass
p701
sbag0
(g1
g2
(lp702
(lp703
S"word: 's, index: 26"
p704
aatp705
Rp706
(dp707
g14
Vauxpass
p708
sbag0
(g1
g2
(lp709
g0
(g1
g2
(lp710
g0
(g1
g2
(lp711
(lp712
S'word: a, index: 28'
p713
aatp714
Rp715
(dp716
g14
Vdet
p717
sbatp718
Rp719
(dp720
g14
S'word: fancy, index: 29'
p721
sbatp722
Rp723
(dp724
g14
Vdobj
p725
sbatp726
Rp727
(dp728
g14
S'word: got, index: 27'
p729
sbatp730
Rp731
(dp732
g14
Vccomp
p733
sbag0
(g1
g2
(lp734
g0
(g1
g2
(lp735
g0
(g1
g2
(lp736
(lp737
S'word: the, index: 2'
p738
aatp739
Rp740
(dp741
g14
Vdep
p742
sbag0
(g1
g2
(lp743
g0
(g1
g2
(lp744
g0
(g1
g2
(lp745
(lp746
S'word: the, index: 4'
p747
aatp748
Rp749
(dp750
g14
Vdep
p751
sbag0
(g1
g2
(lp752
g0
(g1
g2
(lp753
g0
(g1
g2
(lp754
g0
(g1
g2
(lp755
g0
(g1
g2
(lp756
g0
(g1
g2
(lp757
g0
(g1
g2
(lp758
(lp759
S'word: a, index: 10'
p760
aatp761
Rp762
(dp763
g14
Vdep
p764
sbatp765
Rp766
(dp767
g14
S'word: in, index: 9'
p768
sbatp769
Rp770
(dp771
g14
Vadvmod
p772
sbatp773
Rp774
(dp775
g14
S'word: is, index: 8'
p776
sbatp777
Rp778
(dp779
g14
Vrcmod
p780
sbatp781
Rp782
(dp783
g14
S'word: horse, index: 7'
p784
sbatp785
Rp786
(dp787
g14
Vappos
p788
sbatp789
Rp790
(dp791
g14
S'word: the, index: 5'
p792
sbatp793
Rp794
(dp795
g14
Vnsubj
p796
sbag0
(g1
g2
(lp797
g727
atp798
Rp799
(dp800
g14
Vconj
p801
sbag0
(g1
g2
(lp802
g0
(g1
g2
(lp803
g0
(g1
g2
(lp804
g0
(g1
g2
(lp805
g0
(g1
g2
(lp806
(lp807
S'word: be, index: 18'
p808
aatp809
Rp810
(dp811
g14
Vcop
p812
sbag0
(g1
g2
(lp813
g0
(g1
g2
(lp814
g0
(g1
g2
(lp815
(lp816
S'word: coated, index: 22'
p817
aatp818
Rp819
(dp820
g14
Vamod
p821
sbatp822
Rp823
(dp824
g14
S'word: sand, index: 21'
p825
sbatp826
Rp827
(dp828
g14
Vappos
p829
sbag0
(g1
g2
(lp830
(lp831
S'word: that, index: 16'
p832
aatp833
Rp834
(dp835
g14
Vnsubj
p836
sbag0
(g1
g2
(lp837
(lp838
S'word: may, index: 17'
p839
aatp840
Rp841
(dp842
g14
Vaux
p843
sbatp844
Rp845
(dp846
g14
S'word: sand, index: 19'
p847
sbatp848
Rp849
(dp850
g14
Vrcmod
p851
sbag0
(g1
g2
(lp852
(lp853
S'word: a, index: 14'
p854
aatp855
Rp856
(dp857
g14
Vdet
p858
sbatp859
Rp860
(dp861
g14
S'word: ring, index: 15'
p862
sbatp863
Rp864
(dp865
g14
Vprep
p866
sbatp867
Rp868
(dp869
g14
S'word: looks, index: 12'
p870
sbatp871
Rp872
(dp873
g14
Vccomp
p874
sbag0
(g1
g2
(lp875
(lp876
S'word: I, index: 31'
p877
aatp878
Rp879
(dp880
g14
Vnsubj
p881
sbatp882
Rp883
(dp884
g14
S'word: guess, index: 32'
p885
sbatp886
Rp887
(dp888
g14
S'id: 6'
p889
sbag0
(g1
g2
(lp890
g0
(g1
g2
(lp891
g0
(g1
g2
(lp892
g0
(g1
g2
(lp893
g0
(g1
g2
(lp894
g0
(g1
g2
(lp895
g0
(g1
g2
(lp896
(lp897
S'word: the, index: 2'
p898
aatp899
Rp900
(dp901
g14
Vdet
p902
sbatp903
Rp904
(dp905
g14
S'word: horse, index: 3'
p906
sbatp907
Rp908
(dp909
g14
Vposs
p910
sbatp911
Rp912
(dp913
g14
S'word: mane, index: 5'
p914
sbatp915
Rp916
(dp917
g14
Vnsubj
p918
sbag0
(g1
g2
(lp919
(lp920
S'word: is, index: 6'
p921
aatp922
Rp923
(dp924
g14
Vcop
p925
sbag0
(g1
g2
(lp926
g0
(g1
g2
(lp927
g0
(g1
g2
(lp928
(lp929
S'word: up, index: 9'
p930
aatp931
Rp932
(dp933
g14
Vprt
p934
sbag0
(g1
g2
(lp935
g0
(g1
g2
(lp936
g0
(g1
g2
(lp937
g0
(g1
g2
(lp938
g0
(g1
g2
(lp939
g0
(g1
g2
(lp940
g0
(g1
g2
(lp941
g0
(g1
g2
(lp942
g0
(g1
g2
(lp943
(lp944
S'word: some, index: 15'
p945
aatp946
Rp947
(dp948
g14
Vdet
p949
sbatp950
Rp951
(dp952
g14
S'word: tossles, index: 16'
p953
sbatp954
Rp955
(dp956
g14
Vpobj
p957
sbatp958
Rp959
(dp960
g14
S'word: with, index: 14'
p961
sbatp962
Rp963
(dp964
g14
Vdep
p965
sbatp966
Rp967
(dp968
g14
S'word: a, index: 12'
p969
sbatp970
Rp971
(dp972
g14
Vamod
p973
sbatp974
Rp975
(dp976
g14
S'word: tassels, index: 18'
p977
sbatp978
Rp979
(dp980
g14
Vprep
p981
sbatp982
Rp983
(dp984
g14
S'word: dolled, index: 8'
p985
sbatp986
Rp987
(dp988
g14
Vrcmod
p989
sbag0
(g1
g2
(lp990
(lp991
S'word: And, index: 1'
p992
aatp993
Rp994
(dp995
g14
Vcc
p996
sbatp997
Rp998
(dp999
g14
S'word: all, index: 7'
p1000
sbatp1001
Rp1002
(dp1003
g14
S'id: 7'
p1004
sbag0
(g1
g2
(lp1005
g0
(g1
g2
(lp1006
g0
(g1
g2
(lp1007
(lp1008
S'word: And, index: 1'
p1009
aatp1010
Rp1011
(dp1012
g14
Vcc
p1013
sbag0
(g1
g2
(lp1014
(lp1015
S'word: it, index: 2'
p1016
aatp1017
Rp1018
(dp1019
g14
Vnsubjpass
p1020
sbag0
(g1
g2
(lp1021
(lp1022
S"word: 's, index: 3"
p1023
aatp1024
Rp1025
(dp1026
g14
Vauxpass
p1027
sbag0
(g1
g2
(lp1028
g0
(g1
g2
(lp1029
g0
(g1
g2
(lp1030
g0
(g1
g2
(lp1031
g0
(g1
g2
(lp1032
(lp1033
S'word: what, index: 9'
p1034
aatp1035
Rp1036
(dp1037
g14
Vnsubj
p1038
sbag0
(g1
g2
(lp1039
g0
(g1
g2
(lp1040
g0
(g1
g2
(lp1041
(lp1042
S'word: you, index: 11'
p1043
aatp1044
Rp1045
(dp1046
g14
Vnsubj
p1047
sbag0
(g1
g2
(lp1048
g0
(g1
g2
(lp1049
g0
(g1
g2
(lp1050
g0
(g1
g2
(lp1051
g0
(g1
g2
(lp1052
(lp1053
S'word: that, index: 13'
p1054
aatp1055
Rp1056
(dp1057
g14
Vdet
p1058
sbag0
(g1
g2
(lp1059
(lp1060
S'word: it, index: 16'
p1061
aatp1062
Rp1063
(dp1064
g14
Vprep
p1065
sbatp1066
Rp1067
(dp1068
g14
S'word: thing, index: 14'
p1069
sbatp1070
Rp1071
(dp1072
g14
Vnsubj
p1073
sbag0
(g1
g2
(lp1074
(lp1075
S"word: 's, index: 17"
p1076
aatp1077
Rp1078
(dp1079
g14
Vcop
p1080
sbatp1081
Rp1082
(dp1083
g14
S'word: head, index: 18'
p1084
sbatp1085
Rp1086
(dp1087
g14
Vccomp
p1088
sbatp1089
Rp1090
(dp1091
g14
S'word: call, index: 12'
p1092
sbatp1093
Rp1094
(dp1095
g14
Vccomp
p1096
sbatp1097
Rp1098
(dp1099
g14
S'word: do, index: 10'
p1100
sbatp1101
Rp1102
(dp1103
g14
Vrcmod
p1104
sbag0
(g1
g2
(lp1105
(lp1106
S'word: a, index: 7'
p1107
aatp1108
Rp1109
(dp1110
g14
Vappos
p1111
sbatp1112
Rp1113
(dp1114
g14
S'word: a, index: 5'
p1115
sbatp1116
Rp1117
(dp1118
g14
Vdobj
p1119
sbatp1120
Rp1121
(dp1122
g14
S'word: got, index: 4'
p1123
sbatp1124
Rp1125
(dp1126
g14
S'id: 8'
p1127
sbatp1128
Rp1129
(dp1130
g14
S'sentences'
p1131
sb.