ccopy_reg
_reconstructor
p0
(cnltk.tree
Tree
p1
c__builtin__
list
p2
(lp3
g0
(g1
g2
(lp4
g0
(g1
g2
(lp5
g0
(g1
g2
(lp6
VCandy , no .
p7
atp8
Rp9
(dp10
S'_label'
p11
S'start: 1'
p12
sbatp13
Rp14
(dp15
g11
S'sent: 2'
p16
sbag0
(g1
g2
(lp17
g0
(g1
g2
(lp18
Vno
p19
atp20
Rp21
(dp22
g11
S'start: 3'
p23
sbatp24
Rp25
(dp26
g11
S'sent: 2'
p27
sbag0
(g1
g2
(lp28
g0
(g1
g2
(lp29
VA candy , candy jar , jar .
p30
atp31
Rp32
(dp33
g11
S'start: 1'
p34
sbatp35
Rp36
(dp37
g11
S'sent: 3'
p38
sbag0
(g1
g2
(lp39
g0
(g1
g2
(lp40
VA candy
p41
atp42
Rp43
(dp44
g11
S'start: 1'
p45
sbatp46
Rp47
(dp48
g11
S'sent: 3'
p49
sbag0
(g1
g2
(lp50
g0
(g1
g2
(lp51
Vcandy jar , jar
p52
atp53
Rp54
(dp55
g11
S'start: 4'
p56
sbatp57
Rp58
(dp59
g11
S'sent: 3'
p60
sbag0
(g1
g2
(lp61
g0
(g1
g2
(lp62
Vcandy jar
p63
atp64
Rp65
(dp66
g11
S'start: 4'
p67
sbatp68
Rp69
(dp70
g11
S'sent: 3'
p71
sbag0
(g1
g2
(lp72
g0
(g1
g2
(lp73
VNo
p74
atp75
Rp76
(dp77
g11
S'start: 1'
p78
sbatp79
Rp80
(dp81
g11
S'sent: 4'
p82
sbag0
(g1
g2
(lp83
g0
(g1
g2
(lp84
VI candy , I candy
p85
atp86
Rp87
(dp88
g11
S'start: 3'
p89
sbatp90
Rp91
(dp92
g11
S'sent: 5'
p93
sbag0
(g1
g2
(lp94
g0
(g1
g2
(lp95
VI candy
p96
atp97
Rp98
(dp99
g11
S'start: 3'
p100
sbatp101
Rp102
(dp103
g11
S'sent: 5'
p104
sbag0
(g1
g2
(lp105
g0
(g1
g2
(lp106
VI candy
p107
atp108
Rp109
(dp110
g11
S'start: 6'
p111
sbatp112
Rp113
(dp114
g11
S'sent: 5'
p115
sbag0
(g1
g2
(lp116
g0
(g1
g2
(lp117
VCandy , no shine .
p118
atp119
Rp120
(dp121
g11
S'start: 1'
p122
sbatp123
Rp124
(dp125
g11
S'sent: 9'
p126
sbag0
(g1
g2
(lp127
g0
(g1
g2
(lp128
VNo
p129
atp130
Rp131
(dp132
g11
S'start: 1'
p133
sbatp134
Rp135
(dp136
g11
S'sent: 12'
p137
sbatp138
Rp139
(dp140
g11
S'id: 3'
p141
sbag0
(g1
g2
(lp142
g0
(g1
g2
(lp143
g0
(g1
g2
(lp144
VI
p145
atp146
Rp147
(dp148
g11
S'start: 1'
p149
sbatp150
Rp151
(dp152
g11
S'sent: 5'
p153
sbag0
(g1
g2
(lp154
g0
(g1
g2
(lp155
VI
p156
atp157
Rp158
(dp159
g11
S'start: 3'
p160
sbatp161
Rp162
(dp163
g11
S'sent: 5'
p164
sbag0
(g1
g2
(lp165
g0
(g1
g2
(lp166
VI
p167
atp168
Rp169
(dp170
g11
S'start: 6'
p171
sbatp172
Rp173
(dp174
g11
S'sent: 5'
p175
sbatp176
Rp177
(dp178
g11
S'id: 11'
p179
sbag0
(g1
g2
(lp180
g0
(g1
g2
(lp181
g0
(g1
g2
(lp182
Vwater , water , water
p183
atp184
Rp185
(dp186
g11
S'start: 3'
p187
sbatp188
Rp189
(dp190
g11
S'sent: 7'
p191
sbag0
(g1
g2
(lp192
g0
(g1
g2
(lp193
Vyes water
p194
atp195
Rp196
(dp197
g11
S'start: 9'
p198
sbatp199
Rp200
(dp201
g11
S'sent: 7'
p202
sbatp203
Rp204
(dp205
g11
S'id: 20'
p206
sbatp207
Rp208
(dp209
g11
S'coreferences'
p210
sb.