ccopy_reg
_reconstructor
p0
(cnltk.tree
Tree
p1
c__builtin__
list
p2
(lp3
g0
(g1
g2
(lp4
g0
(g1
g2
(lp5
g0
(g1
g2
(lp6
(lp7
S'word: Here, index: 1'
p8
aatp9
Rp10
(dp11
S'_label'
p12
Vadvmod
p13
sbag0
(g1
g2
(lp14
(lp15
S'word: we, index: 2'
p16
aatp17
Rp18
(dp19
g12
Vnsubj
p20
sbag0
(g1
g2
(lp21
(lp22
S'word: have, index: 3'
p23
aatp24
Rp25
(dp26
g12
Vaux
p27
sbag0
(g1
g2
(lp28
g0
(g1
g2
(lp29
g0
(g1
g2
(lp30
(lp31
S"word: 's, index: 5"
p32
aatp33
Rp34
(dp35
g12
Vnsubj
p36
sbag0
(g1
g2
(lp37
g0
(g1
g2
(lp38
g0
(g1
g2
(lp39
(lp40
S'word: a, index: 7'
p41
aatp42
Rp43
(dp44
g12
Vdet
p45
sbag0
(g1
g2
(lp46
g0
(g1
g2
(lp47
g0
(g1
g2
(lp48
(lp49
S'word: the, index: 10'
p50
aatp51
Rp52
(dp53
g12
Vdet
p54
sbag0
(g1
g2
(lp55
(lp56
S'word: lake, index: 11'
p57
aatp58
Rp59
(dp60
g12
Vnn
p61
sbatp62
Rp63
(dp64
g12
S'word: picnicking, index: 12'
p65
sbatp66
Rp67
(dp68
g12
Vprep
p69
sbatp70
Rp71
(dp72
g12
S'word: family, index: 8'
p73
sbatp74
Rp75
(dp76
g12
Vdobj
p77
sbatp78
Rp79
(dp80
g12
S'word: say, index: 6'
p81
sbatp82
Rp83
(dp84
g12
Vccomp
p85
sbag0
(g1
g2
(lp86
g0
(g1
g2
(lp87
g0
(g1
g2
(lp88
g0
(g1
g2
(lp89
g0
(g1
g2
(lp90
(lp91
S'word: a, index: 16'
p92
aatp93
Rp94
(dp95
g12
Vdet
p96
sbag0
(g1
g2
(lp97
g0
(g1
g2
(lp98
g0
(g1
g2
(lp99
(lp100
S'word: other, index: 19'
p101
aatp102
Rp103
(dp104
g12
Vamod
p105
sbatp106
Rp107
(dp108
g12
S'word: stuff, index: 20'
p109
sbatp110
Rp111
(dp112
g12
Vprep
p113
sbatp114
Rp115
(dp116
g12
S'word: bunch, index: 17'
p117
sbatp118
Rp119
(dp120
g12
Vdobj
p121
sbag0
(g1
g2
(lp122
(lp123
S'word: we, index: 2'
p124
aatp125
Rp126
(dp127
g12
Vnsubj
p128
sbatp129
Rp130
(dp131
g12
S'word: doing, index: 15'
p132
sbatp133
Rp134
(dp135
g12
Vconj
p136
sbatp137
Rp138
(dp139
g12
S'word: let, index: 4'
p140
sbatp141
Rp142
(dp143
g12
S'id: 0'
p144
sbag0
(g1
g2
(lp145
g0
(g1
g2
(lp146
g0
(g1
g2
(lp147
(lp148
S'word: is, index: 3'
p149
aatp150
Rp151
(dp152
g12
Vaux
p153
sbag0
(g1
g2
(lp154
g0
(g1
g2
(lp155
g0
(g1
g2
(lp156
g0
(g1
g2
(lp157
g0
(g1
g2
(lp158
(lp159
S'word: the, index: 21'
p160
aatp161
Rp162
(dp163
g12
Vdet
p164
sbatp165
Rp166
(dp167
g12
S'word: dog, index: 22'
p168
sbatp169
Rp170
(dp171
g12
Vprep
p172
sbag0
(g1
g2
(lp173
g0
(g1
g2
(lp174
g0
(g1
g2
(lp175
(lp176
S'word: her, index: 12'
p177
aatp178
Rp179
(dp180
g12
Vposs
p181
sbatp182
Rp183
(dp184
g12
S'word: brother, index: 13'
p185
sbatp186
Rp187
(dp188
g12
Vnsubj
p189
sbatp190
Rp191
(dp192
g12
S'word: runs, index: 19'
p193
sbatp194
Rp195
(dp196
g12
Vdep
p197
sbag0
(g1
g2
(lp198
g0
(g1
g2
(lp199
g0
(g1
g2
(lp200
(lp201
S'word: a, index: 5'
p202
aatp203
Rp204
(dp205
g12
Vdet
p206
sbag0
(g1
g2
(lp207
(lp208
S'word: sand, index: 6'
p209
aatp210
Rp211
(dp212
g12
Vnn
p213
sbatp214
Rp215
(dp216
g12
S'word: castle, index: 7'
p217
sbatp218
Rp219
(dp220
g12
Vdobj
p221
sbag0
(g1
g2
(lp222
(lp223
S'word: while, index: 9'
p224
aatp225
Rp226
(dp227
g12
Vadvmod
p228
sbag0
(g1
g2
(lp229
g0
(g1
g2
(lp230
g0
(g1
g2
(lp231
g191
atp232
Rp233
(dp234
g12
Vconj
p235
sbag0
(g1
g2
(lp236
(lp237
S'word: while, index: 11'
p238
aatp239
Rp240
(dp241
g12
Vmark
p242
sbag0
(g1
g2
(lp243
g183
atp244
Rp245
(dp246
g12
Vnsubj
p247
sbag0
(g1
g2
(lp248
g0
(g1
g2
(lp249
g0
(g1
g2
(lp250
(lp251
S'word: a, index: 15'
p252
aatp253
Rp254
(dp255
g12
Vdet
p256
sbatp257
Rp258
(dp259
g12
S'word: kite, index: 16'
p260
sbatp261
Rp262
(dp263
g12
Vdobj
p264
sbatp265
Rp266
(dp267
g12
S'word: flies, index: 14'
p268
sbatp269
Rp270
(dp271
g12
Vdep
p272
sbag0
(g1
g2
(lp273
g0
(g1
g2
(lp274
g0
(g1
g2
(lp275
(lp276
S'word: The, index: 1'
p277
aatp278
Rp279
(dp280
g12
Vdet
p281
sbatp282
Rp283
(dp284
g12
S'word: daughter, index: 2'
p285
sbatp286
Rp287
(dp288
g12
Vnsubj
p289
sbatp290
Rp291
(dp292
g12
S'word: building, index: 4'
p293
sbatp294
Rp295
(dp296
g12
S'id: 1'
p297
sbag0
(g1
g2
(lp298
g0
(g1
g2
(lp299
g0
(g1
g2
(lp300
g0
(g1
g2
(lp301
g0
(g1
g2
(lp302
(lp303
S'word: a, index: 5'
p304
aatp305
Rp306
(dp307
g12
Vdet
p308
sbatp309
Rp310
(dp311
g12
S'word: book, index: 6'
p312
sbatp313
Rp314
(dp315
g12
Vdobj
p316
sbag0
(g1
g2
(lp317
g0
(g1
g2
(lp318
g0
(g1
g2
(lp319
(lp320
S'word: maybe, index: 22'
p321
aatp322
Rp323
(dp324
g12
Vadvmod
p325
sbag0
(g1
g2
(lp326
g0
(g1
g2
(lp327
g0
(g1
g2
(lp328
(lp329
S'word: wine, index: 24'
p330
aatp331
Rp332
(dp333
g12
Vnn
p334
sbatp335
Rp336
(dp337
g12
S'word: therapy, index: 25'
p338
sbatp339
Rp340
(dp341
g12
Vdobj
p342
sbag0
(g1
g2
(lp343
g0
(g1
g2
(lp344
g0
(g1
g2
(lp345
(lp346
S'word: the, index: 13'
p347
aatp348
Rp349
(dp350
g12
Vdet
p351
sbatp352
Rp353
(dp354
g12
S'word: mom, index: 14'
p355
sbatp356
Rp357
(dp358
g12
Vnsubj
p359
sbatp360
Rp361
(dp362
g12
S'word: having, index: 23'
p363
sbatp364
Rp365
(dp366
g12
Vadvcl
p367
sbag0
(g1
g2
(lp368
g0
(g1
g2
(lp369
g0
(g1
g2
(lp370
(lp371
S'word: his, index: 8'
p372
aatp373
Rp374
(dp375
g12
Vposs
p376
sbatp377
Rp378
(dp379
g12
S'word: sandals, index: 9'
p380
sbatp381
Rp382
(dp383
g12
Vprep
p384
sbag0
(g1
g2
(lp385
(lp386
S'word: off, index: 10'
p387
aatp388
Rp389
(dp390
g12
Vprep
p391
sbag0
(g1
g2
(lp392
g0
(g1
g2
(lp393
g0
(g1
g2
(lp394
g361
atp395
Rp396
(dp397
g12
Vconj
p398
sbag0
(g1
g2
(lp399
(lp400
S'word: while, index: 12'
p401
aatp402
Rp403
(dp404
g12
Vmark
p405
sbag0
(g1
g2
(lp406
g353
atp407
Rp408
(dp409
g12
Vnsubj
p410
sbag0
(g1
g2
(lp411
(lp412
S'word: is, index: 15'
p413
aatp414
Rp415
(dp416
g12
Vaux
p417
sbag0
(g1
g2
(lp418
(lp419
S'word: music, index: 18'
p420
aatp421
Rp422
(dp423
g12
Vprep
p424
sbag0
(g1
g2
(lp425
(lp426
S'word: and, index: 19'
p427
aatp428
Rp429
(dp430
g12
Vadvmod
p431
sbatp432
Rp433
(dp434
g12
S'word: listening, index: 16'
p435
sbatp436
Rp437
(dp438
g12
Vadvcl
p439
sbag0
(g1
g2
(lp440
g0
(g1
g2
(lp441
g0
(g1
g2
(lp442
(lp443
S'word: The, index: 1'
p444
aatp445
Rp446
(dp447
g12
Vdet
p448
sbatp449
Rp450
(dp451
g12
S'word: dad, index: 2'
p452
sbatp453
Rp454
(dp455
g12
Vnsubj
p456
sbag0
(g1
g2
(lp457
(lp458
S'word: is, index: 3'
p459
aatp460
Rp461
(dp462
g12
Vaux
p463
sbatp464
Rp465
(dp466
g12
S'word: reading, index: 4'
p467
sbatp468
Rp469
(dp470
g12
S'id: 2'
p471
sbag0
(g1
g2
(lp472
g0
(g1
g2
(lp473
g0
(g1
g2
(lp474
g0
(g1
g2
(lp475
g0
(g1
g2
(lp476
(lp477
S'word: almost, index: 9'
p478
aatp479
Rp480
(dp481
g12
Vadvmod
p482
sbag0
(g1
g2
(lp483
g0
(g1
g2
(lp484
g0
(g1
g2
(lp485
(lp486
S'word: a, index: 12'
p487
aatp488
Rp489
(dp490
g12
Vdet
p491
sbag0
(g1
g2
(lp492
(lp493
S'word: park, index: 13'
p494
aatp495
Rp496
(dp497
g12
Vnn
p498
sbatp499
Rp500
(dp501
g12
S'word: ranger, index: 14'
p502
sbatp503
Rp504
(dp505
g12
Vprep
p506
sbag0
(g1
g2
(lp507
g0
(g1
g2
(lp508
g0
(g1
g2
(lp509
g0
(g1
g2
(lp510
g0
(g1
g2
(lp511
(lp512
S'word: a, index: 25'
p513
aatp514
Rp515
(dp516
g12
Vdet
p517
sbag0
(g1
g2
(lp518
(lp519
S'word: wide, index: 26'
p520
aatp521
Rp522
(dp523
g12
Vamod
p524
sbag0
(g1
g2
(lp525
(lp526
S'word: brimmed, index: 27'
p527
aatp528
Rp529
(dp530
g12
Vamod
p531
sbag0
(g1
g2
(lp532
g0
(g1
g2
(lp533
g0
(g1
g2
(lp534
(lp535
S'word: a, index: 31'
p536
aatp537
Rp538
(dp539
g12
Vdet
p540
sbag0
(g1
g2
(lp541
(lp542
S'word: park, index: 32'
p543
aatp544
Rp545
(dp546
g12
Vnn
p547
sbatp548
Rp549
(dp550
g12
S'word: ranger, index: 33'
p551
sbatp552
Rp553
(dp554
g12
Vprep
p555
sbatp556
Rp557
(dp558
g12
S'word: cap, index: 28'
p559
sbatp560
Rp561
(dp562
g12
Vprep
p563
sbag0
(g1
g2
(lp564
g0
(g1
g2
(lp565
g0
(g1
g2
(lp566
(lp567
S'word: a, index: 17'
p568
aatp569
Rp570
(dp571
g12
Vdet
p572
sbag0
(g1
g2
(lp573
g0
(g1
g2
(lp574
g0
(g1
g2
(lp575
(lp576
S'word: a, index: 21'
p577
aatp578
Rp579
(dp580
g12
Vdet
p581
sbatp582
Rp583
(dp584
g12
S'word: guy, index: 22'
p585
sbatp586
Rp587
(dp588
g12
Vconj
p589
sbatp590
Rp591
(dp592
g12
S'word: fish, index: 18'
p593
sbatp594
Rp595
(dp596
g12
Vdobj
p597
sbag0
(g1
g2
(lp598
g583
atp599
Rp600
(dp601
g12
Vdobj
p602
sbag0
(g1
g2
(lp603
(lp604
S'word: with, index: 23'
p605
aatp606
Rp607
(dp608
g12
Vdep
p609
sbatp610
Rp611
(dp612
g12
S'word: catching, index: 16'
p613
sbatp614
Rp615
(dp616
g12
Vxcomp
p617
sbag0
(g1
g2
(lp618
(lp619
S'word: like, index: 5'
p620
aatp621
Rp622
(dp623
g12
Vmark
p624
sbag0
(g1
g2
(lp625
(lp626
S'word: maybe, index: 6'
p627
aatp628
Rp629
(dp630
g12
Vadvmod
p631
sbag0
(g1
g2
(lp632
(lp633
S'word: it, index: 8'
p634
aatp635
Rp636
(dp637
g12
Vnsubj
p638
sbag0
(g1
g2
(lp639
g0
(g1
g2
(lp640
g0
(g1
g2
(lp641
(lp642
S'word: around, index: 41'
p643
aatp644
Rp645
(dp646
g12
Vprt
p647
sbag0
(g1
g2
(lp648
g0
(g1
g2
(lp649
g0
(g1
g2
(lp650
(lp651
S'word: the, index: 43'
p652
aatp653
Rp654
(dp655
g12
Vdet
p656
sbatp657
Rp658
(dp659
g12
S'word: line, index: 44'
p660
sbatp661
Rp662
(dp663
g12
Vprep
p664
sbag0
(g1
g2
(lp665
g0
(g1
g2
(lp666
g0
(g1
g2
(lp667
(lp668
S'word: the, index: 36'
p669
aatp670
Rp671
(dp672
g12
Vdet
p673
sbatp674
Rp675
(dp676
g12
S'word: fish, index: 37'
p677
sbatp678
Rp679
(dp680
g12
Vnsubj
p681
sbag0
(g1
g2
(lp682
(lp683
S'word: is, index: 38'
p684
aatp685
Rp686
(dp687
g12
Vaux
p688
sbatp689
Rp690
(dp691
g12
S'word: jumping, index: 40'
p692
sbatp693
Rp694
(dp695
g12
Vconj
p696
sbatp697
Rp698
(dp699
g12
S'word: looks, index: 10'
p700
sbatp701
Rp702
(dp703
g12
Vadvcl
p704
sbag0
(g1
g2
(lp705
(lp706
S'word: The, index: 1'
p707
aatp708
Rp709
(dp710
g12
Vnsubj
p711
sbag0
(g1
g2
(lp712
(lp713
S'word: there, index: 3'
p714
aatp715
Rp716
(dp717
g12
Vexpl
p718
sbag0
(g1
g2
(lp719
g690
atp720
Rp721
(dp722
g12
Vadvcl
p723
sbatp724
Rp725
(dp726
g12
S'word: is, index: 4'
p727
sbatp728
Rp729
(dp730
g12
S'id: 3'
p731
sbag0
(g1
g2
(lp732
g0
(g1
g2
(lp733
g0
(g1
g2
(lp734
(lp735
S'word: So, index: 1'
p736
aatp737
Rp738
(dp739
g12
Vdep
p740
sbag0
(g1
g2
(lp741
(lp742
S'word: it, index: 2'
p743
aatp744
Rp745
(dp746
g12
Vnsubj
p747
sbag0
(g1
g2
(lp748
g0
(g1
g2
(lp749
g0
(g1
g2
(lp750
(lp751
S'word: like, index: 4'
p752
aatp753
Rp754
(dp755
g12
Vmark
p756
sbag0
(g1
g2
(lp757
(lp758
S'word: he, index: 5'
p759
aatp760
Rp761
(dp762
g12
Vnsubj
p763
sbag0
(g1
g2
(lp764
(lp765
S"word: 's, index: 6"
p766
aatp767
Rp768
(dp769
g12
Vcop
p770
sbag0
(g1
g2
(lp771
(lp772
S'word: about, index: 7'
p773
aatp774
Rp775
(dp776
g12
Vdep
p777
sbag0
(g1
g2
(lp778
g0
(g1
g2
(lp779
g0
(g1
g2
(lp780
(lp781
S'word: to, index: 9'
p782
aatp783
Rp784
(dp785
g12
Vaux
p786
sbag0
(g1
g2
(lp787
(lp788
S'word: it, index: 11'
p789
aatp790
Rp791
(dp792
g12
Vdobj
p793
sbatp794
Rp795
(dp796
g12
S'word: land, index: 10'
p797
sbatp798
Rp799
(dp800
g12
Vxcomp
p801
sbatp802
Rp803
(dp804
g12
S'word: ready, index: 8'
p805
sbatp806
Rp807
(dp808
g12
Vadvcl
p809
sbatp810
Rp811
(dp812
g12
S"word: 's, index: 3"
p813
sbatp814
Rp815
(dp816
g12
S'id: 4'
p817
sbag0
(g1
g2
(lp818
g0
(g1
g2
(lp819
g0
(g1
g2
(lp820
g0
(g1
g2
(lp821
g0
(g1
g2
(lp822
(lp823
S'word: there, index: 17'
p824
aatp825
Rp826
(dp827
g12
Vexpl
p828
sbag0
(g1
g2
(lp829
g0
(g1
g2
(lp830
g0
(g1
g2
(lp831
(lp832
S'word: enough, index: 19'
p833
aatp834
Rp835
(dp836
g12
Vamod
p837
sbag0
(g1
g2
(lp838
g0
(g1
g2
(lp839
g0
(g1
g2
(lp840
(lp841
S'word: to, index: 21'
p842
aatp843
Rp844
(dp845
g12
Vaux
p846
sbag0
(g1
g2
(lp847
(lp848
S'word: up, index: 23'
p849
aatp850
Rp851
(dp852
g12
Vprt
p853
sbag0
(g1
g2
(lp854
g0
(g1
g2
(lp855
g0
(g1
g2
(lp856
(lp857
S'word: the, index: 24'
p858
aatp859
Rp860
(dp861
g12
Vdet
p862
sbatp863
Rp864
(dp865
g12
S'word: kite, index: 25'
p866
sbatp867
Rp868
(dp869
g12
Vdobj
p870
sbag0
(g1
g2
(lp871
g0
(g1
g2
(lp872
g0
(g1
g2
(lp873
g0
(g1
g2
(lp874
g0
(g1
g2
(lp875
(lp876
S'word: it, index: 29'
p877
aatp878
Rp879
(dp880
g12
Vnsubj
p881
sbatp882
Rp883
(dp884
g12
S'word: go, index: 30'
p885
sbatp886
Rp887
(dp888
g12
Vccomp
p889
sbatp890
Rp891
(dp892
g12
S'word: let, index: 28'
p893
sbatp894
Rp895
(dp896
g12
Vconj
p897
sbatp898
Rp899
(dp900
g12
S'word: pick, index: 22'
p901
sbatp902
Rp903
(dp904
g12
Vvmod
p905
sbag0
(g1
g2
(lp906
g891
atp907
Rp908
(dp909
g12
Vvmod
p910
sbatp911
Rp912
(dp913
g12
S'word: wind, index: 20'
p914
sbatp915
Rp916
(dp917
g12
Vnsubj
p918
sbatp919
Rp920
(dp921
g12
S"word: 's, index: 18"
p922
sbatp923
Rp924
(dp925
g12
Vconj
p926
sbag0
(g1
g2
(lp927
g0
(g1
g2
(lp928
g0
(g1
g2
(lp929
(lp930
S'word: to, index: 2'
p931
aatp932
Rp933
(dp934
g12
Vaux
p935
sbag0
(g1
g2
(lp936
(lp937
S'word: be, index: 3'
p938
aatp939
Rp940
(dp941
g12
Vcop
p942
sbag0
(g1
g2
(lp943
g0
(g1
g2
(lp944
g0
(g1
g2
(lp945
(lp946
S'word: pretty, index: 4'
p947
aatp948
Rp949
(dp950
g12
Vadvmod
p951
sbatp952
Rp953
(dp954
g12
S'word: windy, index: 5'
p955
sbatp956
Rp957
(dp958
g12
Vamod
p959
sbag0
(g1
g2
(lp960
g0
(g1
g2
(lp961
g0
(g1
g2
(lp962
(lp963
S'word: because, index: 7'
p964
aatp965
Rp966
(dp967
g12
Vmark
p968
sbag0
(g1
g2
(lp969
g0
(g1
g2
(lp970
g0
(g1
g2
(lp971
(lp972
S'word: the, index: 8'
p973
aatp974
Rp975
(dp976
g12
Vdet
p977
sbatp978
Rp979
(dp980
g12
S'word: flag, index: 9'
p981
sbatp982
Rp983
(dp984
g12
Vnsubj
p985
sbag0
(g1
g2
(lp986
(lp987
S'word: is, index: 10'
p988
aatp989
Rp990
(dp991
g12
Vaux
p992
sbag0
(g1
g2
(lp993
g0
(g1
g2
(lp994
g0
(g1
g2
(lp995
(lp996
S'word: the, index: 13'
p997
aatp998
Rp999
(dp1000
g12
Vdet
p1001
sbatp1002
Rp1003
(dp1004
g12
S'word: background, index: 14'
p1005
sbatp1006
Rp1007
(dp1008
g12
Vprep
p1009
sbatp1010
Rp1011
(dp1012
g12
S'word: flying, index: 11'
p1013
sbatp1014
Rp1015
(dp1016
g12
Vadvcl
p1017
sbatp1018
Rp1019
(dp1020
g12
S'word: day, index: 6'
p1021
sbatp1022
Rp1023
(dp1024
g12
Vxcomp
p1025
sbatp1026
Rp1027
(dp1028
g12
S'word: Looks, index: 1'
p1029
sbatp1030
Rp1031
(dp1032
g12
S'id: 5'
p1033
sbag0
(g1
g2
(lp1034
g0
(g1
g2
(lp1035
g0
(g1
g2
(lp1036
g0
(g1
g2
(lp1037
g0
(g1
g2
(lp1038
(lp1039
S'word: The, index: 1'
p1040
aatp1041
Rp1042
(dp1043
g12
Vdep
p1044
sbatp1045
Rp1046
(dp1047
g12
S'word: a, index: 2'
p1048
sbatp1049
Rp1050
(dp1051
g12
Vnsubj
p1052
sbag0
(g1
g2
(lp1053
(lp1054
S'word: there, index: 4'
p1055
aatp1056
Rp1057
(dp1058
g12
Vexpl
p1059
sbag0
(g1
g2
(lp1060
g0
(g1
g2
(lp1061
g0
(g1
g2
(lp1062
(lp1063
S'word: it, index: 19'
p1064
aatp1065
Rp1066
(dp1067
g12
Vnsubj
p1068
sbag0
(g1
g2
(lp1069
g0
(g1
g2
(lp1070
g0
(g1
g2
(lp1071
(lp1072
S'word: that, index: 21'
p1073
aatp1074
Rp1075
(dp1076
g12
Vmark
p1077
sbag0
(g1
g2
(lp1078
(lp1079
S'word: there, index: 22'
p1080
aatp1081
Rp1082
(dp1083
g12
Vexpl
p1084
sbag0
(g1
g2
(lp1085
g0
(g1
g2
(lp1086
g0
(g1
g2
(lp1087
(lp1088
S'word: two, index: 24'
p1089
aatp1090
Rp1091
(dp1092
g12
Vnum
p1093
sbag0
(g1
g2
(lp1094
(lp1095
S'word: board, index: 27'
p1096
aatp1097
Rp1098
(dp1099
g12
Vprep
p1100
sbatp1101
Rp1102
(dp1103
g12
S'word: people, index: 25'
p1104
sbatp1105
Rp1106
(dp1107
g12
Vnsubj
p1108
sbatp1109
Rp1110
(dp1111
g12
S'word: are, index: 23'
p1112
sbatp1113
Rp1114
(dp1115
g12
Vccomp
p1116
sbatp1117
Rp1118
(dp1119
g12
S'word: appears, index: 20'
p1120
sbatp1121
Rp1122
(dp1123
g12
Vconj
p1124
sbag0
(g1
g2
(lp1125
g0
(g1
g2
(lp1126
g0
(g1
g2
(lp1127
(lp1128
S'word: some, index: 6'
p1129
aatp1130
Rp1131
(dp1132
g12
Vdet
p1133
sbag0
(g1
g2
(lp1134
g0
(g1
g2
(lp1135
g0
(g1
g2
(lp1136
(lp1137
S'word: the, index: 9'
p1138
aatp1139
Rp1140
(dp1141
g12
Vdet
p1142
sbag0
(g1
g2
(lp1143
g0
(g1
g2
(lp1144
g0
(g1
g2
(lp1145
(lp1146
S'word: the, index: 12'
p1147
aatp1148
Rp1149
(dp1150
g12
Vdet
p1151
sbag0
(g1
g2
(lp1152
(lp1153
S'word: boat, index: 13'
p1154
aatp1155
Rp1156
(dp1157
g12
Vnn
p1158
sbag0
(g1
g2
(lp1159
g0
(g1
g2
(lp1160
g0
(g1
g2
(lp1161
(lp1162
S'word: four, index: 15'
p1163
aatp1164
Rp1165
(dp1166
g12
Vnum
p1167
sbatp1168
Rp1169
(dp1170
g12
S'word: seventy, index: 16'
p1171
sbatp1172
Rp1173
(dp1174
g12
Vdep
p1175
sbatp1176
Rp1177
(dp1178
g12
S'word: number, index: 14'
p1179
sbatp1180
Rp1181
(dp1182
g12
Vprep
p1183
sbatp1184
Rp1185
(dp1186
g12
S'word: background, index: 10'
p1187
sbatp1188
Rp1189
(dp1190
g12
Vprep
p1191
sbatp1192
Rp1193
(dp1194
g12
S'word: boaters, index: 7'
p1195
sbatp1196
Rp1197
(dp1198
g12
Vnsubj
p1199
sbatp1200
Rp1201
(dp1202
g12
S"word: 's, index: 5"
p1203
sbatp1204
Rp1205
(dp1206
g12
S'id: 6'
p1207
sbag0
(g1
g2
(lp1208
g0
(g1
g2
(lp1209
g0
(g1
g2
(lp1210
g0
(g1
g2
(lp1211
g0
(g1
g2
(lp1212
g0
(g1
g2
(lp1213
g0
(g1
g2
(lp1214
(lp1215
S'word: the, index: 7'
p1216
aatp1217
Rp1218
(dp1219
g12
Vdet
p1220
sbag0
(g1
g2
(lp1221
g0
(g1
g2
(lp1222
g0
(g1
g2
(lp1223
(lp1224
S'word: that, index: 9'
p1225
aatp1226
Rp1227
(dp1228
g12
Vmark
p1229
sbag0
(g1
g2
(lp1230
(lp1231
S'word: we, index: 10'
p1232
aatp1233
Rp1234
(dp1235
g12
Vnsubj
p1236
sbag0
(g1
g2
(lp1237
(lp1238
S'word: can, index: 11'
p1239
aatp1240
Rp1241
(dp1242
g12
Vaux
p1243
sbatp1244
Rp1245
(dp1246
g12
S'word: see, index: 12'
p1247
sbatp1248
Rp1249
(dp1250
g12
Vdep
p1251
sbatp1252
Rp1253
(dp1254
g12
S'word: lake, index: 8'
p1255
sbatp1256
Rp1257
(dp1258
g12
Vprep
p1259
sbag0
(g1
g2
(lp1260
(lp1261
S'word: no, index: 3'
p1262
aatp1263
Rp1264
(dp1265
g12
Vneg
p1266
sbag0
(g1
g2
(lp1267
(lp1268
S'word: other, index: 4'
p1269
aatp1270
Rp1271
(dp1272
g12
Vamod
p1273
sbatp1274
Rp1275
(dp1276
g12
S'word: boats, index: 5'
p1277
sbatp1278
Rp1279
(dp1280
g12
Vnsubj
p1281
sbag0
(g1
g2
(lp1282
(lp1283
S'word: There, index: 1'
p1284
aatp1285
Rp1286
(dp1287
g12
Vexpl
p1288
sbatp1289
Rp1290
(dp1291
g12
S'word: are, index: 2'
p1292
sbatp1293
Rp1294
(dp1295
g12
S'id: 7'
p1296
sbag0
(g1
g2
(lp1297
g0
(g1
g2
(lp1298
g0
(g1
g2
(lp1299
g0
(g1
g2
(lp1300
g0
(g1
g2
(lp1301
(lp1302
S'word: to, index: 6'
p1303
aatp1304
Rp1305
(dp1306
g12
Vaux
p1307
sbag0
(g1
g2
(lp1308
(lp1309
S'word: be, index: 7'
p1310
aatp1311
Rp1312
(dp1313
g12
Vcop
p1314
sbatp1315
Rp1316
(dp1317
g12
S'word: blank, index: 8'
p1318
sbatp1319
Rp1320
(dp1321
g12
Vxcomp
p1322
sbag0
(g1
g2
(lp1323
g0
(g1
g2
(lp1324
g0
(g1
g2
(lp1325
g0
(g1
g2
(lp1326
g0
(g1
g2
(lp1327
(lp1328
S'word: The, index: 1'
p1329
aatp1330
Rp1331
(dp1332
g12
Vdet
p1333
sbatp1334
Rp1335
(dp1336
g12
S'word: dad, index: 2'
p1337
sbatp1338
Rp1339
(dp1340
g12
Vposs
p1341
sbatp1342
Rp1343
(dp1344
g12
S'word: book, index: 4'
p1345
sbatp1346
Rp1347
(dp1348
g12
Vnsubj
p1349
sbatp1350
Rp1351
(dp1352
g12
S'word: appears, index: 5'
p1353
sbatp1354
Rp1355
(dp1356
g12
S'id: 8'
p1357
sbatp1358
Rp1359
(dp1360
g12
S'sentences'
p1361
sb.