ccopy_reg
_reconstructor
p0
(cnltk.tree
Tree
p1
c__builtin__
list
p2
(lp3
g0
(g1
g2
(lp4
g0
(g1
g2
(lp5
g0
(g1
g2
(lp6
g0
(g1
g2
(lp7
Vthe
p8
atp9
Rp10
(dp11
S'_label'
p12
VDT
p13
sbag0
(g1
g2
(lp14
Vboy
p15
atp16
Rp17
(dp18
g12
VNN
p19
sbatp20
Rp21
(dp22
g12
VNP
p23
sbag0
(g1
g2
(lp24
g0
(g1
g2
(lp25
Vis
p26
atp27
Rp28
(dp29
g12
VVBZ
p30
sbag0
(g1
g2
(lp31
g0
(g1
g2
(lp32
Vflying
p33
atp34
Rp35
(dp36
g12
VVBG
p37
sbag0
(g1
g2
(lp38
g0
(g1
g2
(lp39
Va
p40
atp41
Rp42
(dp43
g12
VDT
p44
sbag0
(g1
g2
(lp45
Vkite
p46
atp47
Rp48
(dp49
g12
VNN
p50
sbatp51
Rp52
(dp53
g12
VNP
p54
sbatp55
Rp56
(dp57
g12
VVP
p58
sbatp59
Rp60
(dp61
g12
VVP
p62
sbag0
(g1
g2
(lp63
V.
p64
atp65
Rp66
(dp67
g12
V.
p68
sbatp69
Rp70
(dp71
g12
VS
p72
sbatp73
Rp74
(dp75
g12
S'id: 0'
p76
sbag0
(g1
g2
(lp77
g0
(g1
g2
(lp78
g0
(g1
g2
(lp79
g0
(g1
g2
(lp80
VThe
p81
atp82
Rp83
(dp84
g12
VDT
p85
sbag0
(g1
g2
(lp86
Vdog
p87
atp88
Rp89
(dp90
g12
VNN
p91
sbatp92
Rp93
(dp94
g12
VNP
p95
sbag0
(g1
g2
(lp96
g0
(g1
g2
(lp97
Vis
p98
atp99
Rp100
(dp101
g12
VVBZ
p102
sbag0
(g1
g2
(lp103
g0
(g1
g2
(lp104
Vchasing
p105
atp106
Rp107
(dp108
g12
VVBG
p109
sbag0
(g1
g2
(lp110
g0
(g1
g2
(lp111
Vthe
p112
atp113
Rp114
(dp115
g12
VDT
p116
sbag0
(g1
g2
(lp117
Vboy
p118
atp119
Rp120
(dp121
g12
VNN
p122
sbatp123
Rp124
(dp125
g12
VNP
p126
sbatp127
Rp128
(dp129
g12
VVP
p130
sbatp131
Rp132
(dp133
g12
VVP
p134
sbag0
(g1
g2
(lp135
V.
p136
atp137
Rp138
(dp139
g12
V.
p140
sbatp141
Rp142
(dp143
g12
VS
p144
sbatp145
Rp146
(dp147
g12
S'id: 1'
p148
sbag0
(g1
g2
(lp149
g0
(g1
g2
(lp150
g0
(g1
g2
(lp151
g0
(g1
g2
(lp152
VThe
p153
atp154
Rp155
(dp156
g12
VDT
p157
sbag0
(g1
g2
(lp158
Vboy
p159
atp160
Rp161
(dp162
g12
VNN
p163
sbatp164
Rp165
(dp166
g12
VNP
p167
sbag0
(g1
g2
(lp168
g0
(g1
g2
(lp169
Vhas
p170
atp171
Rp172
(dp173
g12
VVBZ
p174
sbag0
(g1
g2
(lp175
g0
(g1
g2
(lp176
g0
(g1
g2
(lp177
g0
(g1
g2
(lp178
Vshorts
p179
atp180
Rp181
(dp182
g12
VNNS
p183
sbatp184
Rp185
(dp186
g12
VNP
p187
sbag0
(g1
g2
(lp188
g0
(g1
g2
(lp189
Von
p190
atp191
Rp192
(dp193
g12
VIN
p194
sbatp195
Rp196
(dp197
g12
VPP
p198
sbatp199
Rp200
(dp201
g12
VNP
p202
sbag0
(g1
g2
(lp203
V,
p204
atp205
Rp206
(dp207
g12
V,
p208
sbag0
(g1
g2
(lp209
g0
(g1
g2
(lp210
Vt-shirt
p211
atp212
Rp213
(dp214
g12
VNN
p215
sbatp216
Rp217
(dp218
g12
VNP
p219
sbatp220
Rp221
(dp222
g12
VNP
p223
sbatp224
Rp225
(dp226
g12
VVP
p227
sbag0
(g1
g2
(lp228
V.
p229
atp230
Rp231
(dp232
g12
V.
p233
sbatp234
Rp235
(dp236
g12
VS
p237
sbatp238
Rp239
(dp240
g12
S'id: 2'
p241
sbag0
(g1
g2
(lp242
g0
(g1
g2
(lp243
g0
(g1
g2
(lp244
g0
(g1
g2
(lp245
VThe
p246
atp247
Rp248
(dp249
g12
VDT
p250
sbag0
(g1
g2
(lp251
Vkite
p252
atp253
Rp254
(dp255
g12
VNN
p256
sbag0
(g1
g2
(lp257
Vstrings
p258
atp259
Rp260
(dp261
g12
VNNS
p262
sbatp263
Rp264
(dp265
g12
VNP
p266
sbag0
(g1
g2
(lp267
g0
(g1
g2
(lp268
Vappear
p269
atp270
Rp271
(dp272
g12
VVBP
p273
sbag0
(g1
g2
(lp274
g0
(g1
g2
(lp275
g0
(g1
g2
(lp276
Vto
p277
atp278
Rp279
(dp280
g12
VTO
p281
sbag0
(g1
g2
(lp282
g0
(g1
g2
(lp283
Vbe
p284
atp285
Rp286
(dp287
g12
VVB
p288
sbag0
(g1
g2
(lp289
g0
(g1
g2
(lp290
Vvery
p291
atp292
Rp293
(dp294
g12
VRB
p295
sbag0
(g1
g2
(lp296
Vlong
p297
atp298
Rp299
(dp300
g12
VRB
p301
sbatp302
Rp303
(dp304
g12
VADVP
p305
sbatp306
Rp307
(dp308
g12
VVP
p309
sbatp310
Rp311
(dp312
g12
VVP
p313
sbatp314
Rp315
(dp316
g12
VS
p317
sbatp318
Rp319
(dp320
g12
VVP
p321
sbag0
(g1
g2
(lp322
V.
p323
atp324
Rp325
(dp326
g12
V.
p327
sbatp328
Rp329
(dp330
g12
VS
p331
sbatp332
Rp333
(dp334
g12
S'id: 3'
p335
sbag0
(g1
g2
(lp336
g0
(g1
g2
(lp337
g0
(g1
g2
(lp338
g0
(g1
g2
(lp339
VThere
p340
atp341
Rp342
(dp343
g12
VEX
p344
sbatp345
Rp346
(dp347
g12
VNP
p348
sbag0
(g1
g2
(lp349
g0
(g1
g2
(lp350
V's
p351
atp352
Rp353
(dp354
g12
VVBZ
p355
sbag0
(g1
g2
(lp356
g0
(g1
g2
(lp357
g0
(g1
g2
(lp358
Va
p359
atp360
Rp361
(dp362
g12
VDT
p363
sbag0
(g1
g2
(lp364
Vgirl
p365
atp366
Rp367
(dp368
g12
VNN
p369
sbatp370
Rp371
(dp372
g12
VNP
p373
sbag0
(g1
g2
(lp374
g0
(g1
g2
(lp375
Vmaking
p376
atp377
Rp378
(dp379
g12
VVBG
p380
sbag0
(g1
g2
(lp381
g0
(g1
g2
(lp382
g0
(g1
g2
(lp383
Vthe
p384
atp385
Rp386
(dp387
g12
VDT
p388
sbag0
(g1
g2
(lp389
Vcastle
p390
atp391
Rp392
(dp393
g12
VNN
p394
sbatp395
Rp396
(dp397
g12
VNP
p398
sbag0
(g1
g2
(lp399
g0
(g1
g2
(lp400
Von
p401
atp402
Rp403
(dp404
g12
VIN
p405
sbag0
(g1
g2
(lp406
g0
(g1
g2
(lp407
Vthe
p408
atp409
Rp410
(dp411
g12
VDT
p412
sbag0
(g1
g2
(lp413
Vbeach
p414
atp415
Rp416
(dp417
g12
VNN
p418
sbatp419
Rp420
(dp421
g12
VNP
p422
sbatp423
Rp424
(dp425
g12
VPP
p426
sbatp427
Rp428
(dp429
g12
VNP
p430
sbatp431
Rp432
(dp433
g12
VVP
p434
sbatp435
Rp436
(dp437
g12
VNP
p438
sbatp439
Rp440
(dp441
g12
VVP
p442
sbag0
(g1
g2
(lp443
V.
p444
atp445
Rp446
(dp447
g12
V.
p448
sbatp449
Rp450
(dp451
g12
VS
p452
sbatp453
Rp454
(dp455
g12
S'id: 4'
p456
sbag0
(g1
g2
(lp457
g0
(g1
g2
(lp458
g0
(g1
g2
(lp459
g0
(g1
g2
(lp460
g0
(g1
g2
(lp461
VThere
p462
atp463
Rp464
(dp465
g12
VEX
p466
sbatp467
Rp468
(dp469
g12
VNP
p470
sbag0
(g1
g2
(lp471
g0
(g1
g2
(lp472
V's
p473
atp474
Rp475
(dp476
g12
VVBZ
p477
sbag0
(g1
g2
(lp478
g0
(g1
g2
(lp479
Vthe
p480
atp481
Rp482
(dp483
g12
VDT
p484
sbag0
(g1
g2
(lp485
Vsailboat
p486
atp487
Rp488
(dp489
g12
VNN
p490
sbatp491
Rp492
(dp493
g12
VNP
p494
sbatp495
Rp496
(dp497
g12
VVP
p498
sbatp499
Rp500
(dp501
g12
VS
p502
sbag0
(g1
g2
(lp503
V,
p504
atp505
Rp506
(dp507
g12
V,
p508
sbag0
(g1
g2
(lp509
g0
(g1
g2
(lp510
Vit
p511
atp512
Rp513
(dp514
g12
VPRP
p515
sbatp516
Rp517
(dp518
g12
VNP
p519
sbag0
(g1
g2
(lp520
g0
(g1
g2
(lp521
V's
p522
atp523
Rp524
(dp525
g12
VVBZ
p526
sbag0
(g1
g2
(lp527
g0
(g1
g2
(lp528
g0
(g1
g2
(lp529
Vnumber
p530
atp531
Rp532
(dp533
g12
VNN
p534
sbatp535
Rp536
(dp537
g12
VNP
p538
sbag0
(g1
g2
(lp539
g0
(g1
g2
(lp540
Von
p541
atp542
Rp543
(dp544
g12
VIN
p545
sbag0
(g1
g2
(lp546
g0
(g1
g2
(lp547
g0
(g1
g2
(lp548
Vthe
p549
atp550
Rp551
(dp552
g12
VDT
p553
sbag0
(g1
g2
(lp554
Vsail
p555
atp556
Rp557
(dp558
g12
VNN
p559
sbatp560
Rp561
(dp562
g12
VNP
p563
sbag0
(g1
g2
(lp564
g0
(g1
g2
(lp565
Vis
p566
atp567
Rp568
(dp569
g12
VVBZ
p570
sbag0
(g1
g2
(lp571
g0
(g1
g2
(lp572
Vthe
p573
atp574
Rp575
(dp576
g12
VDT
p577
sbag0
(g1
g2
(lp578
Vfour
p579
atp580
Rp581
(dp582
g12
VCD
p583
sbag0
(g1
g2
(lp584
Vseventy
p585
atp586
Rp587
(dp588
g12
VCD
p589
sbatp590
Rp591
(dp592
g12
VNP
p593
sbatp594
Rp595
(dp596
g12
VPP
p597
sbatp598
Rp599
(dp600
g12
VNP
p601
sbatp602
Rp603
(dp604
g12
VPP
p605
sbatp606
Rp607
(dp608
g12
VNP
p609
sbatp610
Rp611
(dp612
g12
VVP
p613
sbag0
(g1
g2
(lp614
V.
p615
atp616
Rp617
(dp618
g12
V.
p619
sbatp620
Rp621
(dp622
g12
VS
p623
sbatp624
Rp625
(dp626
g12
S'id: 5'
p627
sbag0
(g1
g2
(lp628
g0
(g1
g2
(lp629
g0
(g1
g2
(lp630
g0
(g1
g2
(lp631
VThere
p632
atp633
Rp634
(dp635
g12
VEX
p636
sbatp637
Rp638
(dp639
g12
VNP
p640
sbag0
(g1
g2
(lp641
g0
(g1
g2
(lp642
V's
p643
atp644
Rp645
(dp646
g12
VVBZ
p647
sbag0
(g1
g2
(lp648
g0
(g1
g2
(lp649
g0
(g1
g2
(lp650
Van
p651
atp652
Rp653
(dp654
g12
VDT
p655
sbag0
(g1
g2
(lp656
Volder
p657
atp658
Rp659
(dp660
g12
VJJR
p661
sbag0
(g1
g2
(lp662
Vgentleman
p663
atp664
Rp665
(dp666
g12
VNN
p667
sbatp668
Rp669
(dp670
g12
VNP
p671
sbag0
(g1
g2
(lp672
g0
(g1
g2
(lp673
Vtrying
p674
atp675
Rp676
(dp677
g12
VVBG
p678
sbag0
(g1
g2
(lp679
g0
(g1
g2
(lp680
Vto
p681
atp682
Rp683
(dp684
g12
VTO
p685
sbag0
(g1
g2
(lp686
g0
(g1
g2
(lp687
Vfish
p688
atp689
Rp690
(dp691
g12
VNN
p692
sbatp693
Rp694
(dp695
g12
VNP
p696
sbatp697
Rp698
(dp699
g12
VPP
p700
sbatp701
Rp702
(dp703
g12
VVP
p704
sbatp705
Rp706
(dp707
g12
VNP
p708
sbatp709
Rp710
(dp711
g12
VVP
p712
sbag0
(g1
g2
(lp713
V.
p714
atp715
Rp716
(dp717
g12
V.
p718
sbatp719
Rp720
(dp721
g12
VS
p722
sbatp723
Rp724
(dp725
g12
S'id: 6'
p726
sbag0
(g1
g2
(lp727
g0
(g1
g2
(lp728
g0
(g1
g2
(lp729
g0
(g1
g2
(lp730
g0
(g1
g2
(lp731
VThere
p732
atp733
Rp734
(dp735
g12
VEX
p736
sbatp737
Rp738
(dp739
g12
VNP
p740
sbag0
(g1
g2
(lp741
g0
(g1
g2
(lp742
V's
p743
atp744
Rp745
(dp746
g12
VVBZ
p747
sbag0
(g1
g2
(lp748
g0
(g1
g2
(lp749
Va
p750
atp751
Rp752
(dp753
g12
VDT
p754
sbag0
(g1
g2
(lp755
Vcall
p756
atp757
Rp758
(dp759
g12
VNN
p760
sbag0
(g1
g2
(lp761
Vfish
p762
atp763
Rp764
(dp765
g12
VNN
p766
sbatp767
Rp768
(dp769
g12
VNP
p770
sbatp771
Rp772
(dp773
g12
VVP
p774
sbatp775
Rp776
(dp777
g12
VS
p778
sbag0
(g1
g2
(lp779
V,
p780
atp781
Rp782
(dp783
g12
V,
p784
sbag0
(g1
g2
(lp785
g0
(g1
g2
(lp786
Vhe
p787
atp788
Rp789
(dp790
g12
VPRP
p791
sbatp792
Rp793
(dp794
g12
VNP
p795
sbag0
(g1
g2
(lp796
g0
(g1
g2
(lp797
V's
p798
atp799
Rp800
(dp801
g12
VVBZ
p802
sbag0
(g1
g2
(lp803
g0
(g1
g2
(lp804
Von
p805
atp806
Rp807
(dp808
g12
VIN
p809
sbag0
(g1
g2
(lp810
g0
(g1
g2
(lp811
Va
p812
atp813
Rp814
(dp815
g12
VDT
p816
sbag0
(g1
g2
(lp817
Vdock
p818
atp819
Rp820
(dp821
g12
VNN
p822
sbatp823
Rp824
(dp825
g12
VNP
p826
sbatp827
Rp828
(dp829
g12
VPP
p830
sbatp831
Rp832
(dp833
g12
VVP
p834
sbag0
(g1
g2
(lp835
V.
p836
atp837
Rp838
(dp839
g12
V.
p840
sbatp841
Rp842
(dp843
g12
VS
p844
sbatp845
Rp846
(dp847
g12
S'id: 7'
p848
sbag0
(g1
g2
(lp849
g0
(g1
g2
(lp850
g0
(g1
g2
(lp851
g0
(g1
g2
(lp852
VThe
p853
atp854
Rp855
(dp856
g12
VDT
p857
sbag0
(g1
g2
(lp858
Vbee
p859
atp860
Rp861
(dp862
g12
VNN
p863
sbatp864
Rp865
(dp866
g12
VNP
p867
sbag0
(g1
g2
(lp868
g0
(g1
g2
(lp869
Vappears
p870
atp871
Rp872
(dp873
g12
VVBZ
p874
sbag0
(g1
g2
(lp875
g0
(g1
g2
(lp876
g0
(g1
g2
(lp877
Vto
p878
atp879
Rp880
(dp881
g12
VTO
p882
sbag0
(g1
g2
(lp883
g0
(g1
g2
(lp884
Vbe
p885
atp886
Rp887
(dp888
g12
VVB
p889
sbag0
(g1
g2
(lp890
g0
(g1
g2
(lp891
Von
p892
atp893
Rp894
(dp895
g12
VIN
p896
sbag0
(g1
g2
(lp897
g0
(g1
g2
(lp898
Va
p899
atp900
Rp901
(dp902
g12
VDT
p903
sbag0
(g1
g2
(lp904
Vinlet
p905
atp906
Rp907
(dp908
g12
VNN
p909
sbag0
(g1
g2
(lp910
Vand
p911
atp912
Rp913
(dp914
g12
VCC
p915
sbag0
(g1
g2
(lp916
Vstuff
p917
atp918
Rp919
(dp920
g12
VNN
p921
sbatp922
Rp923
(dp924
g12
VNP
p925
sbatp926
Rp927
(dp928
g12
VPP
p929
sbatp930
Rp931
(dp932
g12
VVP
p933
sbatp934
Rp935
(dp936
g12
VVP
p937
sbatp938
Rp939
(dp940
g12
VS
p941
sbatp942
Rp943
(dp944
g12
VVP
p945
sbag0
(g1
g2
(lp946
V.
p947
atp948
Rp949
(dp950
g12
V.
p951
sbatp952
Rp953
(dp954
g12
VS
p955
sbatp956
Rp957
(dp958
g12
S'id: 8'
p959
sbag0
(g1
g2
(lp960
g0
(g1
g2
(lp961
g0
(g1
g2
(lp962
g0
(g1
g2
(lp963
VThere
p964
atp965
Rp966
(dp967
g12
VEX
p968
sbatp969
Rp970
(dp971
g12
VNP
p972
sbag0
(g1
g2
(lp973
g0
(g1
g2
(lp974
V's
p975
atp976
Rp977
(dp978
g12
VVBZ
p979
sbag0
(g1
g2
(lp980
g0
(g1
g2
(lp981
g0
(g1
g2
(lp982
Va
p983
atp984
Rp985
(dp986
g12
VDT
p987
sbag0
(g1
g2
(lp988
Vlarge
p989
atp990
Rp991
(dp992
g12
VJJ
p993
sbag0
(g1
g2
(lp994
Vtree
p995
atp996
Rp997
(dp998
g12
VNN
p999
sbatp1000
Rp1001
(dp1002
g12
VNP
p1003
sbag0
(g1
g2
(lp1004
g0
(g1
g2
(lp1005
Vin
p1006
atp1007
Rp1008
(dp1009
g12
VIN
p1010
sbag0
(g1
g2
(lp1011
g0
(g1
g2
(lp1012
g0
(g1
g2
(lp1013
Vfront
p1014
atp1015
Rp1016
(dp1017
g12
VNN
p1018
sbatp1019
Rp1020
(dp1021
g12
VNP
p1022
sbag0
(g1
g2
(lp1023
g0
(g1
g2
(lp1024
Vof
p1025
atp1026
Rp1027
(dp1028
g12
VIN
p1029
sbag0
(g1
g2
(lp1030
g0
(g1
g2
(lp1031
Vthe
p1032
atp1033
Rp1034
(dp1035
g12
VDT
p1036
sbag0
(g1
g2
(lp1037
Vhouse
p1038
atp1039
Rp1040
(dp1041
g12
VNN
p1042
sbatp1043
Rp1044
(dp1045
g12
VNP
p1046
sbatp1047
Rp1048
(dp1049
g12
VPP
p1050
sbatp1051
Rp1052
(dp1053
g12
VNP
p1054
sbatp1055
Rp1056
(dp1057
g12
VPP
p1058
sbatp1059
Rp1060
(dp1061
g12
VNP
p1062
sbatp1063
Rp1064
(dp1065
g12
VVP
p1066
sbag0
(g1
g2
(lp1067
V.
p1068
atp1069
Rp1070
(dp1071
g12
V.
p1072
sbatp1073
Rp1074
(dp1075
g12
VS
p1076
sbatp1077
Rp1078
(dp1079
g12
S'id: 9'
p1080
sbag0
(g1
g2
(lp1081
g0
(g1
g2
(lp1082
g0
(g1
g2
(lp1083
g0
(g1
g2
(lp1084
VThere
p1085
atp1086
Rp1087
(dp1088
g12
VEX
p1089
sbatp1090
Rp1091
(dp1092
g12
VNP
p1093
sbag0
(g1
g2
(lp1094
g0
(g1
g2
(lp1095
V's
p1096
atp1097
Rp1098
(dp1099
g12
VVBZ
p1100
sbag0
(g1
g2
(lp1101
g0
(g1
g2
(lp1102
g0
(g1
g2
(lp1103
Va
p1104
atp1105
Rp1106
(dp1107
g12
VDT
p1108
sbag0
(g1
g2
(lp1109
Vcornrow
p1110
atp1111
Rp1112
(dp1113
g12
VNN
p1114
sbatp1115
Rp1116
(dp1117
g12
VNP
p1118
sbag0
(g1
g2
(lp1119
g0
(g1
g2
(lp1120
Vof
p1121
atp1122
Rp1123
(dp1124
g12
VIN
p1125
sbag0
(g1
g2
(lp1126
g0
(g1
g2
(lp1127
Vthe
p1128
atp1129
Rp1130
(dp1131
g12
VDT
p1132
sbag0
(g1
g2
(lp1133
Vhouse
p1134
atp1135
Rp1136
(dp1137
g12
VNN
p1138
sbatp1139
Rp1140
(dp1141
g12
VNP
p1142
sbatp1143
Rp1144
(dp1145
g12
VPP
p1146
sbatp1147
Rp1148
(dp1149
g12
VNP
p1150
sbatp1151
Rp1152
(dp1153
g12
VVP
p1154
sbag0
(g1
g2
(lp1155
V.
p1156
atp1157
Rp1158
(dp1159
g12
V.
p1160
sbatp1161
Rp1162
(dp1163
g12
VS
p1164
sbatp1165
Rp1166
(dp1167
g12
S'id: 10'
p1168
sbag0
(g1
g2
(lp1169
g0
(g1
g2
(lp1170
g0
(g1
g2
(lp1171
g0
(g1
g2
(lp1172
VThere
p1173
atp1174
Rp1175
(dp1176
g12
VEX
p1177
sbatp1178
Rp1179
(dp1180
g12
VNP
p1181
sbag0
(g1
g2
(lp1182
g0
(g1
g2
(lp1183
V's
p1184
atp1185
Rp1186
(dp1187
g12
VVBZ
p1188
sbag0
(g1
g2
(lp1189
g0
(g1
g2
(lp1190
g0
(g1
g2
(lp1191
Va
p1192
atp1193
Rp1194
(dp1195
g12
VDT
p1196
sbag0
(g1
g2
(lp1197
Vsmall
p1198
atp1199
Rp1200
(dp1201
g12
VJJ
p1202
sbag0
(g1
g2
(lp1203
Vshrubbery
p1204
atp1205
Rp1206
(dp1207
g12
VNN
p1208
sbatp1209
Rp1210
(dp1211
g12
VNP
p1212
sbag0
(g1
g2
(lp1213
g0
(g1
g2
(lp1214
Vin
p1215
atp1216
Rp1217
(dp1218
g12
VIN
p1219
sbag0
(g1
g2
(lp1220
g0
(g1
g2
(lp1221
g0
(g1
g2
(lp1222
Vfront
p1223
atp1224
Rp1225
(dp1226
g12
VNN
p1227
sbatp1228
Rp1229
(dp1230
g12
VNP
p1231
sbag0
(g1
g2
(lp1232
g0
(g1
g2
(lp1233
Vof
p1234
atp1235
Rp1236
(dp1237
g12
VIN
p1238
sbag0
(g1
g2
(lp1239
g0
(g1
g2
(lp1240
g0
(g1
g2
(lp1241
Vthe
p1242
atp1243
Rp1244
(dp1245
g12
VDT
p1246
sbag0
(g1
g2
(lp1247
Vhouse
p1248
atp1249
Rp1250
(dp1251
g12
VNN
p1252
sbatp1253
Rp1254
(dp1255
g12
VNP
p1256
sbag0
(g1
g2
(lp1257
V,
p1258
atp1259
Rp1260
(dp1261
g12
V,
p1262
sbag0
(g1
g2
(lp1263
g0
(g1
g2
(lp1264
Va
p1265
atp1266
Rp1267
(dp1268
g12
VDT
p1269
sbag0
(g1
g2
(lp1270
g0
(g1
g2
(lp1271
Vrather
p1272
atp1273
Rp1274
(dp1275
g12
VRB
p1276
sbag0
(g1
g2
(lp1277
Vlarge
p1278
atp1279
Rp1280
(dp1281
g12
VJJ
p1282
sbatp1283
Rp1284
(dp1285
g12
VADJP
p1286
sbag0
(g1
g2
(lp1287
Vshrubbery
p1288
atp1289
Rp1290
(dp1291
g12
VNN
p1292
sbatp1293
Rp1294
(dp1295
g12
VNP
p1296
sbatp1297
Rp1298
(dp1299
g12
VNP
p1300
sbatp1301
Rp1302
(dp1303
g12
VPP
p1304
sbatp1305
Rp1306
(dp1307
g12
VNP
p1308
sbatp1309
Rp1310
(dp1311
g12
VPP
p1312
sbatp1313
Rp1314
(dp1315
g12
VNP
p1316
sbatp1317
Rp1318
(dp1319
g12
VVP
p1320
sbag0
(g1
g2
(lp1321
V.
p1322
atp1323
Rp1324
(dp1325
g12
V.
p1326
sbatp1327
Rp1328
(dp1329
g12
VS
p1330
sbatp1331
Rp1332
(dp1333
g12
S'id: 11'
p1334
sbag0
(g1
g2
(lp1335
g0
(g1
g2
(lp1336
g0
(g1
g2
(lp1337
g0
(g1
g2
(lp1338
VOne
p1339
atp1340
Rp1341
(dp1342
g12
VCD
p1343
sbag0
(g1
g2
(lp1344
Vdoor
p1345
atp1346
Rp1347
(dp1348
g12
VNN
p1349
sbatp1350
Rp1351
(dp1352
g12
VNP
p1353
sbag0
(g1
g2
(lp1354
V,
p1355
atp1356
Rp1357
(dp1358
g12
V,
p1359
sbag0
(g1
g2
(lp1360
g0
(g1
g2
(lp1361
Vthre/two
p1362
atp1363
Rp1364
(dp1365
g12
VJJ
p1366
sbag0
(g1
g2
(lp1367
Vwindows
p1368
atp1369
Rp1370
(dp1371
g12
VNNS
p1372
sbatp1373
Rp1374
(dp1375
g12
VNP
p1376
sbag0
(g1
g2
(lp1377
V.
p1378
atp1379
Rp1380
(dp1381
g12
V.
p1382
sbatp1383
Rp1384
(dp1385
g12
VNP
p1386
sbatp1387
Rp1388
(dp1389
g12
S'id: 12'
p1390
sbag0
(g1
g2
(lp1391
g0
(g1
g2
(lp1392
g0
(g1
g2
(lp1393
g0
(g1
g2
(lp1394
VIt
p1395
atp1396
Rp1397
(dp1398
g12
VPRP
p1399
sbatp1400
Rp1401
(dp1402
g12
VNP
p1403
sbag0
(g1
g2
(lp1404
g0
(g1
g2
(lp1405
Vappears
p1406
atp1407
Rp1408
(dp1409
g12
VVBZ
p1410
sbag0
(g1
g2
(lp1411
g0
(g1
g2
(lp1412
Vthat
p1413
atp1414
Rp1415
(dp1416
g12
VIN
p1417
sbag0
(g1
g2
(lp1418
g0
(g1
g2
(lp1419
g0
(g1
g2
(lp1420
Vthe
p1421
atp1422
Rp1423
(dp1424
g12
VDT
p1425
sbag0
(g1
g2
(lp1426
Vbrooms
p1427
atp1428
Rp1429
(dp1430
g12
VNNS
p1431
sbatp1432
Rp1433
(dp1434
g12
VNP
p1435
sbag0
(g1
g2
(lp1436
g0
(g1
g2
(lp1437
Vis
p1438
atp1439
Rp1440
(dp1441
g12
VVBZ
p1442
sbag0
(g1
g2
(lp1443
g0
(g1
g2
(lp1444
Vstraight
p1445
atp1446
Rp1447
(dp1448
g12
VRB
p1449
sbatp1450
Rp1451
(dp1452
g12
VADJP
p1453
sbatp1454
Rp1455
(dp1456
g12
VVP
p1457
sbatp1458
Rp1459
(dp1460
g12
VS
p1461
sbatp1462
Rp1463
(dp1464
g12
VSBAR
p1465
sbatp1466
Rp1467
(dp1468
g12
VVP
p1469
sbag0
(g1
g2
(lp1470
V.
p1471
atp1472
Rp1473
(dp1474
g12
V.
p1475
sbatp1476
Rp1477
(dp1478
g12
VS
p1479
sbatp1480
Rp1481
(dp1482
g12
S'id: 13'
p1483
sbag0
(g1
g2
(lp1484
g0
(g1
g2
(lp1485
g0
(g1
g2
(lp1486
g0
(g1
g2
(lp1487
g0
(g1
g2
(lp1488
VThe
p1489
atp1490
Rp1491
(dp1492
g12
VDT
p1493
sbag0
(g1
g2
(lp1494
Vman
p1495
atp1496
Rp1497
(dp1498
g12
VNN
p1499
sbag0
(g1
g2
(lp1500
V's
p1501
atp1502
Rp1503
(dp1504
g12
VPOS
p1505
sbatp1506
Rp1507
(dp1508
g12
VNP
p1509
sbag0
(g1
g2
(lp1510
g0
(g1
g2
(lp1511
Vreading
p1512
atp1513
Rp1514
(dp1515
g12
VVBG
p1516
sbag0
(g1
g2
(lp1517
g0
(g1
g2
(lp1518
Vthe
p1519
atp1520
Rp1521
(dp1522
g12
VDT
p1523
sbag0
(g1
g2
(lp1524
Vbook
p1525
atp1526
Rp1527
(dp1528
g12
VNN
p1529
sbatp1530
Rp1531
(dp1532
g12
VNP
p1533
sbag0
(g1
g2
(lp1534
g0
(g1
g2
(lp1535
Vwithout
p1536
atp1537
Rp1538
(dp1539
g12
VIN
p1540
sbag0
(g1
g2
(lp1541
g0
(g1
g2
(lp1542
Vany
p1543
atp1544
Rp1545
(dp1546
g12
VDT
p1547
sbag0
(g1
g2
(lp1548
Vtrues
p1549
atp1550
Rp1551
(dp1552
g12
VNNS
p1553
sbatp1554
Rp1555
(dp1556
g12
VNP
p1557
sbatp1558
Rp1559
(dp1560
g12
VPP
p1561
sbag0
(g1
g2
(lp1562
g0
(g1
g2
(lp1563
Von
p1564
atp1565
Rp1566
(dp1567
g12
VIN
p1568
sbatp1569
Rp1570
(dp1571
g12
VPP
p1572
sbatp1573
Rp1574
(dp1575
g12
VVP
p1576
sbatp1577
Rp1578
(dp1579
g12
VS
p1580
sbag0
(g1
g2
(lp1581
V,
p1582
atp1583
Rp1584
(dp1585
g12
V,
p1586
sbag0
(g1
g2
(lp1587
g0
(g1
g2
(lp1588
g0
(g1
g2
(lp1589
Vhe
p1590
atp1591
Rp1592
(dp1593
g12
VPRP
p1594
sbatp1595
Rp1596
(dp1597
g12
VNP
p1598
sbag0
(g1
g2
(lp1599
g0
(g1
g2
(lp1600
Vwears
p1601
atp1602
Rp1603
(dp1604
g12
VVBZ
p1605
sbag0
(g1
g2
(lp1606
g0
(g1
g2
(lp1607
Vsandals
p1608
atp1609
Rp1610
(dp1611
g12
VNNS
p1612
sbatp1613
Rp1614
(dp1615
g12
VNP
p1616
sbatp1617
Rp1618
(dp1619
g12
VVP
p1620
sbatp1621
Rp1622
(dp1623
g12
VS
p1624
sbag0
(g1
g2
(lp1625
V,
p1626
atp1627
Rp1628
(dp1629
g12
V,
p1630
sbag0
(g1
g2
(lp1631
g0
(g1
g2
(lp1632
g0
(g1
g2
(lp1633
Vhe
p1634
atp1635
Rp1636
(dp1637
g12
VPRP
p1638
sbatp1639
Rp1640
(dp1641
g12
VNP
p1642
sbag0
(g1
g2
(lp1643
g0
(g1
g2
(lp1644
Vwear
p1645
atp1646
Rp1647
(dp1648
g12
VVB
p1649
sbag0
(g1
g2
(lp1650
g0
(g1
g2
(lp1651
Vjeans
p1652
atp1653
Rp1654
(dp1655
g12
VNNS
p1656
sbatp1657
Rp1658
(dp1659
g12
VNP
p1660
sbatp1661
Rp1662
(dp1663
g12
VVP
p1664
sbatp1665
Rp1666
(dp1667
g12
VS
p1668
sbag0
(g1
g2
(lp1669
V,
p1670
atp1671
Rp1672
(dp1673
g12
V,
p1674
sbag0
(g1
g2
(lp1675
g0
(g1
g2
(lp1676
g0
(g1
g2
(lp1677
Vhe
p1678
atp1679
Rp1680
(dp1681
g12
VPRP
p1682
sbatp1683
Rp1684
(dp1685
g12
VNP
p1686
sbag0
(g1
g2
(lp1687
g0
(g1
g2
(lp1688
Vhas
p1689
atp1690
Rp1691
(dp1692
g12
VVBZ
p1693
sbag0
(g1
g2
(lp1694
g0
(g1
g2
(lp1695
Vt-shirt
p1696
atp1697
Rp1698
(dp1699
g12
VNN
p1700
sbatp1701
Rp1702
(dp1703
g12
VNP
p1704
sbatp1705
Rp1706
(dp1707
g12
VVP
p1708
sbatp1709
Rp1710
(dp1711
g12
VS
p1712
sbag0
(g1
g2
(lp1713
V,
p1714
atp1715
Rp1716
(dp1717
g12
V,
p1718
sbag0
(g1
g2
(lp1719
g0
(g1
g2
(lp1720
g0
(g1
g2
(lp1721
Vhe
p1722
atp1723
Rp1724
(dp1725
g12
VPRP
p1726
sbatp1727
Rp1728
(dp1729
g12
VNP
p1730
sbag0
(g1
g2
(lp1731
g0
(g1
g2
(lp1732
Vwears
p1733
atp1734
Rp1735
(dp1736
g12
VVBZ
p1737
sbag0
(g1
g2
(lp1738
g0
(g1
g2
(lp1739
Vglasses
p1740
atp1741
Rp1742
(dp1743
g12
VNNS
p1744
sbatp1745
Rp1746
(dp1747
g12
VNP
p1748
sbatp1749
Rp1750
(dp1751
g12
VVP
p1752
sbatp1753
Rp1754
(dp1755
g12
VS
p1756
sbag0
(g1
g2
(lp1757
V.
p1758
atp1759
Rp1760
(dp1761
g12
V.
p1762
sbatp1763
Rp1764
(dp1765
g12
VS
p1766
sbatp1767
Rp1768
(dp1769
g12
S'id: 14'
p1770
sbag0
(g1
g2
(lp1771
g0
(g1
g2
(lp1772
g0
(g1
g2
(lp1773
g0
(g1
g2
(lp1774
g0
(g1
g2
(lp1775
VThe
p1776
atp1777
Rp1778
(dp1779
g12
VDT
p1780
sbag0
(g1
g2
(lp1781
Vwoman
p1782
atp1783
Rp1784
(dp1785
g12
VNN
p1786
sbatp1787
Rp1788
(dp1789
g12
VNP
p1790
sbag0
(g1
g2
(lp1791
g0
(g1
g2
(lp1792
Vis
p1793
atp1794
Rp1795
(dp1796
g12
VVBZ
p1797
sbag0
(g1
g2
(lp1798
g0
(g1
g2
(lp1799
Vpouring
p1800
atp1801
Rp1802
(dp1803
g12
VVBG
p1804
sbag0
(g1
g2
(lp1805
g0
(g1
g2
(lp1806
g0
(g1
g2
(lp1807
Va
p1808
atp1809
Rp1810
(dp1811
g12
VDT
p1812
sbag0
(g1
g2
(lp1813
Vglass
p1814
atp1815
Rp1816
(dp1817
g12
VNN
p1818
sbatp1819
Rp1820
(dp1821
g12
VNP
p1822
sbag0
(g1
g2
(lp1823
g0
(g1
g2
(lp1824
Vof
p1825
atp1826
Rp1827
(dp1828
g12
VIN
p1829
sbag0
(g1
g2
(lp1830
g0
(g1
g2
(lp1831
Vwine
p1832
atp1833
Rp1834
(dp1835
g12
VNN
p1836
sbatp1837
Rp1838
(dp1839
g12
VNP
p1840
sbatp1841
Rp1842
(dp1843
g12
VPP
p1844
sbatp1845
Rp1846
(dp1847
g12
VNP
p1848
sbatp1849
Rp1850
(dp1851
g12
VVP
p1852
sbatp1853
Rp1854
(dp1855
g12
VVP
p1856
sbatp1857
Rp1858
(dp1859
g12
VS
p1860
sbag0
(g1
g2
(lp1861
V,
p1862
atp1863
Rp1864
(dp1865
g12
V,
p1866
sbag0
(g1
g2
(lp1867
g0
(g1
g2
(lp1868
Vshe
p1869
atp1870
Rp1871
(dp1872
g12
VPRP
p1873
sbatp1874
Rp1875
(dp1876
g12
VNP
p1877
sbag0
(g1
g2
(lp1878
g0
(g1
g2
(lp1879
g0
(g1
g2
(lp1880
Vis
p1881
atp1882
Rp1883
(dp1884
g12
VVBZ
p1885
sbatp1886
Rp1887
(dp1888
g12
VVP
p1889
sbag0
(g1
g2
(lp1890
V,
p1891
atp1892
Rp1893
(dp1894
g12
V,
p1895
sbag0
(g1
g2
(lp1896
g0
(g1
g2
(lp1897
Vis
p1898
atp1899
Rp1900
(dp1901
g12
VVBZ
p1902
sbag0
(g1
g2
(lp1903
g0
(g1
g2
(lp1904
g0
(g1
g2
(lp1905
g0
(g1
g2
(lp1906
Vin
p1907
atp1908
Rp1909
(dp1910
g12
VIN
p1911
sbatp1912
Rp1913
(dp1914
g12
VADVP
p1915
sbag0
(g1
g2
(lp1916
Vtake
p1917
atp1918
Rp1919
(dp1920
g12
VVB
p1921
sbag0
(g1
g2
(lp1922
g0
(g1
g2
(lp1923
Vdown
p1924
atp1925
Rp1926
(dp1927
g12
VRP
p1928
sbatp1929
Rp1930
(dp1931
g12
VPRT
p1932
sbag0
(g1
g2
(lp1933
g0
(g1
g2
(lp1934
Vshorts
p1935
atp1936
Rp1937
(dp1938
g12
VNNS
p1939
sbatp1940
Rp1941
(dp1942
g12
VNP
p1943
sbatp1944
Rp1945
(dp1946
g12
VVP
p1947
sbatp1948
Rp1949
(dp1950
g12
VS
p1951
sbatp1952
Rp1953
(dp1954
g12
VVP
p1955
sbag0
(g1
g2
(lp1956
V,
p1957
atp1958
Rp1959
(dp1960
g12
V,
p1961
sbag0
(g1
g2
(lp1962
Vand
p1963
atp1964
Rp1965
(dp1966
g12
VCC
p1967
sbag0
(g1
g2
(lp1968
g0
(g1
g2
(lp1969
Vappears
p1970
atp1971
Rp1972
(dp1973
g12
VVBZ
p1974
sbag0
(g1
g2
(lp1975
g0
(g1
g2
(lp1976
g0
(g1
g2
(lp1977
Vto
p1978
atp1979
Rp1980
(dp1981
g12
VTO
p1982
sbag0
(g1
g2
(lp1983
g0
(g1
g2
(lp1984
Vbe
p1985
atp1986
Rp1987
(dp1988
g12
VVB
p1989
sbag0
(g1
g2
(lp1990
g0
(g1
g2
(lp1991
Vshoes
p1992
atp1993
Rp1994
(dp1995
g12
VNNS
p1996
sbatp1997
Rp1998
(dp1999
g12
VNP
p2000
sbatp2001
Rp2002
(dp2003
g12
VVP
p2004
sbatp2005
Rp2006
(dp2007
g12
VVP
p2008
sbatp2009
Rp2010
(dp2011
g12
VS
p2012
sbatp2013
Rp2014
(dp2015
g12
VVP
p2016
sbatp2017
Rp2018
(dp2019
g12
VVP
p2020
sbag0
(g1
g2
(lp2021
V.
p2022
atp2023
Rp2024
(dp2025
g12
V.
p2026
sbatp2027
Rp2028
(dp2029
g12
VS
p2030
sbatp2031
Rp2032
(dp2033
g12
S'id: 15'
p2034
sbag0
(g1
g2
(lp2035
g0
(g1
g2
(lp2036
g0
(g1
g2
(lp2037
g0
(g1
g2
(lp2038
g0
(g1
g2
(lp2039
VThere
p2040
atp2041
Rp2042
(dp2043
g12
VEX
p2044
sbatp2045
Rp2046
(dp2047
g12
VNP
p2048
sbag0
(g1
g2
(lp2049
g0
(g1
g2
(lp2050
Vis
p2051
atp2052
Rp2053
(dp2054
g12
VVBZ
p2055
sbag0
(g1
g2
(lp2056
g0
(g1
g2
(lp2057
Va
p2058
atp2059
Rp2060
(dp2061
g12
VDT
p2062
sbag0
(g1
g2
(lp2063
Vjukebox
p2064
atp2065
Rp2066
(dp2067
g12
VNN
p2068
sbatp2069
Rp2070
(dp2071
g12
VNP
p2072
sbatp2073
Rp2074
(dp2075
g12
VVP
p2076
sbatp2077
Rp2078
(dp2079
g12
VS
p2080
sbag0
(g1
g2
(lp2081
V,
p2082
atp2083
Rp2084
(dp2085
g12
V,
p2086
sbag0
(g1
g2
(lp2087
g0
(g1
g2
(lp2088
VI
p2089
atp2090
Rp2091
(dp2092
g12
VPRP
p2093
sbatp2094
Rp2095
(dp2096
g12
VNP
p2097
sbag0
(g1
g2
(lp2098
g0
(g1
g2
(lp2099
Vwant
p2100
atp2101
Rp2102
(dp2103
g12
VVBP
p2104
sbag0
(g1
g2
(lp2105
g0
(g1
g2
(lp2106
g0
(g1
g2
(lp2107
Vto
p2108
atp2109
Rp2110
(dp2111
g12
VTO
p2112
sbag0
(g1
g2
(lp2113
g0
(g1
g2
(lp2114
Vsay
p2115
atp2116
Rp2117
(dp2118
g12
VVB
p2119
sbag0
(g1
g2
(lp2120
g0
(g1
g2
(lp2121
g0
(g1
g2
(lp2122
Vplaying
p2123
atp2124
Rp2125
(dp2126
g12
VVBG
p2127
sbag0
(g1
g2
(lp2128
g0
(g1
g2
(lp2129
Vmusic
p2130
atp2131
Rp2132
(dp2133
g12
VNN
p2134
sbatp2135
Rp2136
(dp2137
g12
VNP
p2138
sbatp2139
Rp2140
(dp2141
g12
VVP
p2142
sbatp2143
Rp2144
(dp2145
g12
VS
p2146
sbatp2147
Rp2148
(dp2149
g12
VVP
p2150
sbatp2151
Rp2152
(dp2153
g12
VVP
p2154
sbatp2155
Rp2156
(dp2157
g12
VS
p2158
sbatp2159
Rp2160
(dp2161
g12
VVP
p2162
sbag0
(g1
g2
(lp2163
V.
p2164
atp2165
Rp2166
(dp2167
g12
V.
p2168
sbatp2169
Rp2170
(dp2171
g12
VS
p2172
sbatp2173
Rp2174
(dp2175
g12
S'id: 16'
p2176
sbag0
(g1
g2
(lp2177
g0
(g1
g2
(lp2178
g0
(g1
g2
(lp2179
g0
(g1
g2
(lp2180
VThe
p2181
atp2182
Rp2183
(dp2184
g12
VDT
p2185
sbag0
(g1
g2
(lp2186
Vwoman
p2187
atp2188
Rp2189
(dp2190
g12
VNN
p2191
sbatp2192
Rp2193
(dp2194
g12
VNP
p2195
sbag0
(g1
g2
(lp2196
g0
(g1
g2
(lp2197
Vhas
p2198
atp2199
Rp2200
(dp2201
g12
VVBZ
p2202
sbag0
(g1
g2
(lp2203
g0
(g1
g2
(lp2204
g0
(g1
g2
(lp2205
Vher
p2206
atp2207
Rp2208
(dp2209
g12
VPRP$
p2210
sbag0
(g1
g2
(lp2211
Vhair
p2212
atp2213
Rp2214
(dp2215
g12
VNN
p2216
sbatp2217
Rp2218
(dp2219
g12
VNP
p2220
sbag0
(g1
g2
(lp2221
g0
(g1
g2
(lp2222
g0
(g1
g2
(lp2223
g0
(g1
g2
(lp2224
Vpulled
p2225
atp2226
Rp2227
(dp2228
g12
VVBD
p2229
sbag0
(g1
g2
(lp2230
g0
(g1
g2
(lp2231
Vback
p2232
atp2233
Rp2234
(dp2235
g12
VRB
p2236
sbatp2237
Rp2238
(dp2239
g12
VADVP
p2240
sbag0
(g1
g2
(lp2241
g0
(g1
g2
(lp2242
Vin
p2243
atp2244
Rp2245
(dp2246
g12
VIN
p2247
sbag0
(g1
g2
(lp2248
g0
(g1
g2
(lp2249
g0
(g1
g2
(lp2250
Va
p2251
atp2252
Rp2253
(dp2254
g12
VDT
p2255
sbatp2256
Rp2257
(dp2258
g12
VNP
p2259
sbag0
(g1
g2
(lp2260
V,
p2261
atp2262
Rp2263
(dp2264
g12
V,
p2265
sbag0
(g1
g2
(lp2266
g0
(g1
g2
(lp2267
Va
p2268
atp2269
Rp2270
(dp2271
g12
VDT
p2272
sbag0
(g1
g2
(lp2273
Vtie
p2274
atp2275
Rp2276
(dp2277
g12
VNN
p2278
sbatp2279
Rp2280
(dp2281
g12
VNP
p2282
sbag0
(g1
g2
(lp2283
Vand
p2284
atp2285
Rp2286
(dp2287
g12
VCC
p2288
sbag0
(g1
g2
(lp2289
g0
(g1
g2
(lp2290
Vstuff
p2291
atp2292
Rp2293
(dp2294
g12
VNN
p2295
sbatp2296
Rp2297
(dp2298
g12
VNP
p2299
sbatp2300
Rp2301
(dp2302
g12
VNP
p2303
sbatp2304
Rp2305
(dp2306
g12
VPP
p2307
sbatp2308
Rp2309
(dp2310
g12
VVP
p2311
sbatp2312
Rp2313
(dp2314
g12
VS
p2315
sbatp2316
Rp2317
(dp2318
g12
VSBAR
p2319
sbatp2320
Rp2321
(dp2322
g12
VNP
p2323
sbatp2324
Rp2325
(dp2326
g12
VVP
p2327
sbag0
(g1
g2
(lp2328
V.
p2329
atp2330
Rp2331
(dp2332
g12
V.
p2333
sbatp2334
Rp2335
(dp2336
g12
VS
p2337
sbatp2338
Rp2339
(dp2340
g12
S'id: 17'
p2341
sbag0
(g1
g2
(lp2342
g0
(g1
g2
(lp2343
g0
(g1
g2
(lp2344
g0
(g1
g2
(lp2345
VThere
p2346
atp2347
Rp2348
(dp2349
g12
VEX
p2350
sbatp2351
Rp2352
(dp2353
g12
VNP
p2354
sbag0
(g1
g2
(lp2355
g0
(g1
g2
(lp2356
V's
p2357
atp2358
Rp2359
(dp2360
g12
VVBZ
p2361
sbag0
(g1
g2
(lp2362
g0
(g1
g2
(lp2363
g0
(g1
g2
(lp2364
Va
p2365
atp2366
Rp2367
(dp2368
g12
VDT
p2369
sbag0
(g1
g2
(lp2370
Vlunch
p2371
atp2372
Rp2373
(dp2374
g12
VNN
p2375
sbatp2376
Rp2377
(dp2378
g12
VNP
p2379
sbag0
(g1
g2
(lp2380
V,
p2381
atp2382
Rp2383
(dp2384
g12
V,
p2385
sbag0
(g1
g2
(lp2386
g0
(g1
g2
(lp2387
g0
(g1
g2
(lp2388
Va
p2389
atp2390
Rp2391
(dp2392
g12
VDT
p2393
sbag0
(g1
g2
(lp2394
Vlunch
p2395
atp2396
Rp2397
(dp2398
g12
VNN
p2399
sbag0
(g1
g2
(lp2400
Vbucket
p2401
atp2402
Rp2403
(dp2404
g12
VNN
p2405
sbatp2406
Rp2407
(dp2408
g12
VNP
p2409
sbag0
(g1
g2
(lp2410
g0
(g1
g2
(lp2411
g0
(g1
g2
(lp2412
Vthat
p2413
atp2414
Rp2415
(dp2416
g12
VWDT
p2417
sbatp2418
Rp2419
(dp2420
g12
VWHNP
p2421
sbatp2422
Rp2423
(dp2424
g12
VSBAR
p2425
sbatp2426
Rp2427
(dp2428
g12
VNP
p2429
sbatp2430
Rp2431
(dp2432
g12
VNP
p2433
sbatp2434
Rp2435
(dp2436
g12
VVP
p2437
sbag0
(g1
g2
(lp2438
V.
p2439
atp2440
Rp2441
(dp2442
g12
V.
p2443
sbatp2444
Rp2445
(dp2446
g12
VS
p2447
sbatp2448
Rp2449
(dp2450
g12
S'id: 18'
p2451
sbag0
(g1
g2
(lp2452
g0
(g1
g2
(lp2453
g0
(g1
g2
(lp2454
g0
(g1
g2
(lp2455
VThat
p2456
atp2457
Rp2458
(dp2459
g12
VIN
p2460
sbag0
(g1
g2
(lp2461
g0
(g1
g2
(lp2462
g0
(g1
g2
(lp2463
Vthe
p2464
atp2465
Rp2466
(dp2467
g12
VDT
p2468
sbag0
(g1
g2
(lp2469
Vwoman
p2470
atp2471
Rp2472
(dp2473
g12
VNN
p2474
sbatp2475
Rp2476
(dp2477
g12
VNP
p2478
sbag0
(g1
g2
(lp2479
g0
(g1
g2
(lp2480
Vappears
p2481
atp2482
Rp2483
(dp2484
g12
VVBZ
p2485
sbag0
(g1
g2
(lp2486
g0
(g1
g2
(lp2487
g0
(g1
g2
(lp2488
Vto
p2489
atp2490
Rp2491
(dp2492
g12
VTO
p2493
sbag0
(g1
g2
(lp2494
g0
(g1
g2
(lp2495
Vbe
p2496
atp2497
Rp2498
(dp2499
g12
VVB
p2500
sbag0
(g1
g2
(lp2501
g0
(g1
g2
(lp2502
Vsetting
p2503
atp2504
Rp2505
(dp2506
g12
VVBG
p2507
sbag0
(g1
g2
(lp2508
g0
(g1
g2
(lp2509
Vthe
p2510
atp2511
Rp2512
(dp2513
g12
VDT
p2514
sbag0
(g1
g2
(lp2515
Vglass
p2516
atp2517
Rp2518
(dp2519
g12
VNN
p2520
sbatp2521
Rp2522
(dp2523
g12
VNP
p2524
sbag0
(g1
g2
(lp2525
g0
(g1
g2
(lp2526
Von
p2527
atp2528
Rp2529
(dp2530
g12
VIN
p2531
sbatp2532
Rp2533
(dp2534
g12
VPP
p2535
sbatp2536
Rp2537
(dp2538
g12
VVP
p2539
sbatp2540
Rp2541
(dp2542
g12
VVP
p2543
sbatp2544
Rp2545
(dp2546
g12
VVP
p2547
sbatp2548
Rp2549
(dp2550
g12
VS
p2551
sbag0
(g1
g2
(lp2552
V,
p2553
atp2554
Rp2555
(dp2556
g12
V,
p2557
sbag0
(g1
g2
(lp2558
g0
(g1
g2
(lp2559
Vas
p2560
atp2561
Rp2562
(dp2563
g12
VIN
p2564
sbag0
(g1
g2
(lp2565
g0
(g1
g2
(lp2566
Vshe
p2567
atp2568
Rp2569
(dp2570
g12
VPRP
p2571
sbatp2572
Rp2573
(dp2574
g12
VNP
p2575
sbatp2576
Rp2577
(dp2578
g12
VPP
p2579
sbatp2580
Rp2581
(dp2582
g12
VVP
p2583
sbatp2584
Rp2585
(dp2586
g12
VS
p2587
sbatp2588
Rp2589
(dp2590
g12
VSBAR
p2591
sbag0
(g1
g2
(lp2592
g0
(g1
g2
(lp2593
Vpours
p2594
atp2595
Rp2596
(dp2597
g12
VVBZ
p2598
sbag0
(g1
g2
(lp2599
g0
(g1
g2
(lp2600
Vthe
p2601
atp2602
Rp2603
(dp2604
g12
VDT
p2605
sbag0
(g1
g2
(lp2606
Vwine
p2607
atp2608
Rp2609
(dp2610
g12
VNN
p2611
sbatp2612
Rp2613
(dp2614
g12
VNP
p2615
sbatp2616
Rp2617
(dp2618
g12
VVP
p2619
sbag0
(g1
g2
(lp2620
V.
p2621
atp2622
Rp2623
(dp2624
g12
V.
p2625
sbatp2626
Rp2627
(dp2628
g12
VS
p2629
sbatp2630
Rp2631
(dp2632
g12
S'id: 19'
p2633
sbag0
(g1
g2
(lp2634
g0
(g1
g2
(lp2635
g0
(g1
g2
(lp2636
g0
(g1
g2
(lp2637
VThe
p2638
atp2639
Rp2640
(dp2641
g12
VDT
p2642
sbag0
(g1
g2
(lp2643
Vbot
p2644
atp2645
Rp2646
(dp2647
g12
VNN
p2648
sbag0
(g1
g2
(lp2649
Vsuits
p2650
atp2651
Rp2652
(dp2653
g12
VNNS
p2654
sbatp2655
Rp2656
(dp2657
g12
VNP
p2658
sbag0
(g1
g2
(lp2659
g0
(g1
g2
(lp2660
g0
(g1
g2
(lp2661
g0
(g1
g2
(lp2662
Vthree
p2663
atp2664
Rp2665
(dp2666
g12
VCD
p2667
sbag0
(g1
g2
(lp2668
Vclothes
p2669
atp2670
Rp2671
(dp2672
g12
VNNS
p2673
sbatp2674
Rp2675
(dp2676
g12
VNP
p2677
sbag0
(g1
g2
(lp2678
Vright
p2679
atp2680
Rp2681
(dp2682
g12
VRB
p2683
sbag0
(g1
g2
(lp2684
Vnow
p2685
atp2686
Rp2687
(dp2688
g12
VRB
p2689
sbatp2690
Rp2691
(dp2692
g12
VADVP
p2693
sbatp2694
Rp2695
(dp2696
g12
VVP
p2697
sbag0
(g1
g2
(lp2698
V.
p2699
atp2700
Rp2701
(dp2702
g12
V.
p2703
sbatp2704
Rp2705
(dp2706
g12
VS
p2707
sbatp2708
Rp2709
(dp2710
g12
S'id: 20'
p2711
sbag0
(g1
g2
(lp2712
g0
(g1
g2
(lp2713
g0
(g1
g2
(lp2714
g0
(g1
g2
(lp2715
VThe
p2716
atp2717
Rp2718
(dp2719
g12
VDT
p2720
sbag0
(g1
g2
(lp2721
Vboy
p2722
atp2723
Rp2724
(dp2725
g12
VNN
p2726
sbatp2727
Rp2728
(dp2729
g12
VNP
p2730
sbag0
(g1
g2
(lp2731
g0
(g1
g2
(lp2732
Vis
p2733
atp2734
Rp2735
(dp2736
g12
VVBZ
p2737
sbag0
(g1
g2
(lp2738
g0
(g1
g2
(lp2739
Vwearing
p2740
atp2741
Rp2742
(dp2743
g12
VVBG
p2744
sbag0
(g1
g2
(lp2745
g0
(g1
g2
(lp2746
Vt-shoes
p2747
atp2748
Rp2749
(dp2750
g12
VNNS
p2751
sbag0
(g1
g2
(lp2752
Vand
p2753
atp2754
Rp2755
(dp2756
g12
VCC
p2757
sbag0
(g1
g2
(lp2758
Vsox
p2759
atp2760
Rp2761
(dp2762
g12
VNN
p2763
sbatp2764
Rp2765
(dp2766
g12
VNP
p2767
sbatp2768
Rp2769
(dp2770
g12
VVP
p2771
sbatp2772
Rp2773
(dp2774
g12
VVP
p2775
sbag0
(g1
g2
(lp2776
V.
p2777
atp2778
Rp2779
(dp2780
g12
V.
p2781
sbatp2782
Rp2783
(dp2784
g12
VS
p2785
sbatp2786
Rp2787
(dp2788
g12
S'id: 21'
p2789
sbag0
(g1
g2
(lp2790
g0
(g1
g2
(lp2791
g0
(g1
g2
(lp2792
g0
(g1
g2
(lp2793
g0
(g1
g2
(lp2794
g0
(g1
g2
(lp2795
VThe
p2796
atp2797
Rp2798
(dp2799
g12
VDT
p2800
sbag0
(g1
g2
(lp2801
Vdog
p2802
atp2803
Rp2804
(dp2805
g12
VNN
p2806
sbatp2807
Rp2808
(dp2809
g12
VNP
p2810
sbag0
(g1
g2
(lp2811
g0
(g1
g2
(lp2812
Vhas
p2813
atp2814
Rp2815
(dp2816
g12
VVBZ
p2817
sbag0
(g1
g2
(lp2818
g0
(g1
g2
(lp2819
Va
p2820
atp2821
Rp2822
(dp2823
g12
VDT
p2824
sbag0
(g1
g2
(lp2825
Vcollar
p2826
atp2827
Rp2828
(dp2829
g12
VNN
p2830
sbatp2831
Rp2832
(dp2833
g12
VNP
p2834
sbatp2835
Rp2836
(dp2837
g12
VVP
p2838
sbatp2839
Rp2840
(dp2841
g12
VS
p2842
sbag0
(g1
g2
(lp2843
V,
p2844
atp2845
Rp2846
(dp2847
g12
V,
p2848
sbag0
(g1
g2
(lp2849
Vand
p2850
atp2851
Rp2852
(dp2853
g12
VCC
p2854
sbag0
(g1
g2
(lp2855
g0
(g1
g2
(lp2856
g0
(g1
g2
(lp2857
Vhe
p2858
atp2859
Rp2860
(dp2861
g12
VPRP
p2862
sbatp2863
Rp2864
(dp2865
g12
VNP
p2866
sbag0
(g1
g2
(lp2867
g0
(g1
g2
(lp2868
Vhas
p2869
atp2870
Rp2871
(dp2872
g12
VVBZ
p2873
sbatp2874
Rp2875
(dp2876
g12
VVP
p2877
sbatp2878
Rp2879
(dp2880
g12
VS
p2881
sbatp2882
Rp2883
(dp2884
g12
VS
p2885
sbag0
(g1
g2
(lp2886
V,
p2887
atp2888
Rp2889
(dp2890
g12
V,
p2891
sbag0
(g1
g2
(lp2892
g0
(g1
g2
(lp2893
VI
p2894
atp2895
Rp2896
(dp2897
g12
VPRP
p2898
sbatp2899
Rp2900
(dp2901
g12
VNP
p2902
sbag0
(g1
g2
(lp2903
g0
(g1
g2
(lp2904
Vguess
p2905
atp2906
Rp2907
(dp2908
g12
VVBP
p2909
sbag0
(g1
g2
(lp2910
g0
(g1
g2
(lp2911
g0
(g1
g2
(lp2912
Videntification
p2913
atp2914
Rp2915
(dp2916
g12
VNN
p2917
sbatp2918
Rp2919
(dp2920
g12
VNP
p2921
sbag0
(g1
g2
(lp2922
g0
(g1
g2
(lp2923
g0
(g1
g2
(lp2924
g0
(g1
g2
(lp2925
Vthere
p2926
atp2927
Rp2928
(dp2929
g12
VEX
p2930
sbatp2931
Rp2932
(dp2933
g12
VNP
p2934
sbag0
(g1
g2
(lp2935
g0
(g1
g2
(lp2936
V's
p2937
atp2938
Rp2939
(dp2940
g12
VVBZ
p2941
sbag0
(g1
g2
(lp2942
g0
(g1
g2
(lp2943
Von
p2944
atp2945
Rp2946
(dp2947
g12
VIN
p2948
sbag0
(g1
g2
(lp2949
g0
(g1
g2
(lp2950
Vthe
p2951
atp2952
Rp2953
(dp2954
g12
VDT
p2955
sbag0
(g1
g2
(lp2956
Vcollar
p2957
atp2958
Rp2959
(dp2960
g12
VNN
p2961
sbatp2962
Rp2963
(dp2964
g12
VNP
p2965
sbatp2966
Rp2967
(dp2968
g12
VPP
p2969
sbag0
(g1
g2
(lp2970
g0
(g1
g2
(lp2971
g0
(g1
g2
(lp2972
Vthe
p2973
atp2974
Rp2975
(dp2976
g12
VDT
p2977
sbatp2978
Rp2979
(dp2980
g12
VNP
p2981
sbag0
(g1
g2
(lp2982
V,
p2983
atp2984
Rp2985
(dp2986
g12
V,
p2987
sbag0
(g1
g2
(lp2988
g0
(g1
g2
(lp2989
Vthe
p2990
atp2991
Rp2992
(dp2993
g12
VDT
p2994
sbag0
(g1
g2
(lp2995
Vbevisis
p2996
atp2997
Rp2998
(dp2999
g12
VNN
p3000
sbatp3001
Rp3002
(dp3003
g12
VNP
p3004
sbatp3005
Rp3006
(dp3007
g12
VNP
p3008
sbatp3009
Rp3010
(dp3011
g12
VVP
p3012
sbatp3013
Rp3014
(dp3015
g12
VS
p3016
sbatp3017
Rp3018
(dp3019
g12
VSBAR
p3020
sbatp3021
Rp3022
(dp3023
g12
VNP
p3024
sbatp3025
Rp3026
(dp3027
g12
VVP
p3028
sbag0
(g1
g2
(lp3029
V.
p3030
atp3031
Rp3032
(dp3033
g12
V.
p3034
sbatp3035
Rp3036
(dp3037
g12
VS
p3038
sbatp3039
Rp3040
(dp3041
g12
S'id: 22'
p3042
sbag0
(g1
g2
(lp3043
g0
(g1
g2
(lp3044
g0
(g1
g2
(lp3045
g0
(g1
g2
(lp3046
g0
(g1
g2
(lp3047
VThere
p3048
atp3049
Rp3050
(dp3051
g12
VEX
p3052
sbatp3053
Rp3054
(dp3055
g12
VNP
p3056
sbag0
(g1
g2
(lp3057
g0
(g1
g2
(lp3058
Vappear
p3059
atp3060
Rp3061
(dp3062
g12
VVBP
p3063
sbatp3064
Rp3065
(dp3066
g12
VVP
p3067
sbatp3068
Rp3069
(dp3070
g12
VS
p3071
sbag0
(g1
g2
(lp3072
V,
p3073
atp3074
Rp3075
(dp3076
g12
V,
p3077
sbag0
(g1
g2
(lp3078
g0
(g1
g2
(lp3079
Vthere
p3080
atp3081
Rp3082
(dp3083
g12
VEX
p3084
sbatp3085
Rp3086
(dp3087
g12
VNP
p3088
sbag0
(g1
g2
(lp3089
g0
(g1
g2
(lp3090
Vappears
p3091
atp3092
Rp3093
(dp3094
g12
VVBZ
p3095
sbag0
(g1
g2
(lp3096
g0
(g1
g2
(lp3097
Vbe
p3098
atp3099
Rp3100
(dp3101
g12
VVB
p3102
sbag0
(g1
g2
(lp3103
g0
(g1
g2
(lp3104
Va
p3105
atp3106
Rp3107
(dp3108
g12
VDT
p3109
sbag0
(g1
g2
(lp3110
Vbig
p3111
atp3112
Rp3113
(dp3114
g12
VJJ
p3115
sbag0
(g1
g2
(lp3116
Vlake
p3117
atp3118
Rp3119
(dp3120
g12
VNN
p3121
sbatp3122
Rp3123
(dp3124
g12
VNP
p3125
sbag0
(g1
g2
(lp3126
g0
(g1
g2
(lp3127
Vbecause
p3128
atp3129
Rp3130
(dp3131
g12
VIN
p3132
sbag0
(g1
g2
(lp3133
g0
(g1
g2
(lp3134
g0
(g1
g2
(lp3135
Vthere
p3136
atp3137
Rp3138
(dp3139
g12
VEX
p3140
sbatp3141
Rp3142
(dp3143
g12
VNP
p3144
sbag0
(g1
g2
(lp3145
g0
(g1
g2
(lp3146
V's
p3147
atp3148
Rp3149
(dp3150
g12
VVBZ
p3151
sbag0
(g1
g2
(lp3152
g0
(g1
g2
(lp3153
g0
(g1
g2
(lp3154
Vtrees
p3155
atp3156
Rp3157
(dp3158
g12
VNNS
p3159
sbatp3160
Rp3161
(dp3162
g12
VNP
p3163
sbag0
(g1
g2
(lp3164
g0
(g1
g2
(lp3165
Vbehind
p3166
atp3167
Rp3168
(dp3169
g12
VIN
p3170
sbag0
(g1
g2
(lp3171
g0
(g1
g2
(lp3172
Vthe
p3173
atp3174
Rp3175
(dp3176
g12
VDT
p3177
sbag0
(g1
g2
(lp3178
Vsailboat
p3179
atp3180
Rp3181
(dp3182
g12
VNN
p3183
sbatp3184
Rp3185
(dp3186
g12
VNP
p3187
sbatp3188
Rp3189
(dp3190
g12
VPP
p3191
sbatp3192
Rp3193
(dp3194
g12
VNP
p3195
sbatp3196
Rp3197
(dp3198
g12
VVP
p3199
sbatp3200
Rp3201
(dp3202
g12
VS
p3203
sbatp3204
Rp3205
(dp3206
g12
VSBAR
p3207
sbatp3208
Rp3209
(dp3210
g12
VVP
p3211
sbatp3212
Rp3213
(dp3214
g12
VVP
p3215
sbag0
(g1
g2
(lp3216
V.
p3217
atp3218
Rp3219
(dp3220
g12
V.
p3221
sbatp3222
Rp3223
(dp3224
g12
VS
p3225
sbatp3226
Rp3227
(dp3228
g12
S'id: 23'
p3229
sbag0
(g1
g2
(lp3230
g0
(g1
g2
(lp3231
g0
(g1
g2
(lp3232
VBut
p3233
atp3234
Rp3235
(dp3236
g12
VCC
p3237
sbatp3238
Rp3239
(dp3240
g12
VNP
p3241
sbatp3242
Rp3243
(dp3244
g12
S'id: 24'
p3245
sbatp3246
Rp3247
(dp3248
g12
S'sentences'
p3249
sb.