ccopy_reg
_reconstructor
p0
(cnltk.tree
Tree
p1
c__builtin__
list
p2
(lp3
g0
(g1
g2
(lp4
g0
(g1
g2
(lp5
g0
(g1
g2
(lp6
g0
(g1
g2
(lp7
g0
(g1
g2
(lp8
VThere
p9
atp10
Rp11
(dp12
S'_label'
p13
VEX
p14
sbatp15
Rp16
(dp17
g13
VNP
p18
sbag0
(g1
g2
(lp19
g0
(g1
g2
(lp20
V's
p21
atp22
Rp23
(dp24
g13
VVBZ
p25
sbag0
(g1
g2
(lp26
g0
(g1
g2
(lp27
g0
(g1
g2
(lp28
V3
p29
atp30
Rp31
(dp32
g13
VCD
p33
sbatp34
Rp35
(dp36
g13
VNP
p37
sbag0
(g1
g2
(lp38
g0
(g1
g2
(lp39
Vof
p40
atp41
Rp42
(dp43
g13
VIN
p44
sbag0
(g1
g2
(lp45
g0
(g1
g2
(lp46
Vit
p47
atp48
Rp49
(dp50
g13
VPRP
p51
sbatp52
Rp53
(dp54
g13
VNP
p55
sbatp56
Rp57
(dp58
g13
VPP
p59
sbatp60
Rp61
(dp62
g13
VNP
p63
sbatp64
Rp65
(dp66
g13
VVP
p67
sbatp68
Rp69
(dp70
g13
VS
p71
sbag0
(g1
g2
(lp72
V,
p73
atp74
Rp75
(dp76
g13
V,
p77
sbag0
(g1
g2
(lp78
Vor
p79
atp80
Rp81
(dp82
g13
VCC
p83
sbag0
(g1
g2
(lp84
g0
(g1
g2
(lp85
g0
(g1
g2
(lp86
VI
p87
atp88
Rp89
(dp90
g13
VPRP
p91
sbatp92
Rp93
(dp94
g13
VNP
p95
sbag0
(g1
g2
(lp96
g0
(g1
g2
(lp97
Vcould
p98
atp99
Rp100
(dp101
g13
VMD
p102
sbag0
(g1
g2
(lp103
g0
(g1
g2
(lp104
Vjust
p105
atp106
Rp107
(dp108
g13
VRB
p109
sbatp110
Rp111
(dp112
g13
VADVP
p113
sbag0
(g1
g2
(lp114
g0
(g1
g2
(lp115
Vtalk
p116
atp117
Rp118
(dp119
g13
VVB
p120
sbag0
(g1
g2
(lp121
g0
(g1
g2
(lp122
Vabout
p123
atp124
Rp125
(dp126
g13
VIN
p127
sbag0
(g1
g2
(lp128
g0
(g1
g2
(lp129
Vthis
p130
atp131
Rp132
(dp133
g13
VDT
p134
sbag0
(g1
g2
(lp135
Vone
p136
atp137
Rp138
(dp139
g13
VCD
p140
sbatp141
Rp142
(dp143
g13
VNP
p144
sbatp145
Rp146
(dp147
g13
VPP
p148
sbatp149
Rp150
(dp151
g13
VVP
p152
sbatp153
Rp154
(dp155
g13
VVP
p156
sbatp157
Rp158
(dp159
g13
VS
p160
sbatp161
Rp162
(dp163
g13
VS
p164
sbatp165
Rp166
(dp167
g13
S'id: 0'
p168
sbatp169
Rp170
(dp171
g13
S'sentences'
p172
sb.