ccopy_reg
_reconstructor
p0
(cnltk.tree
Tree
p1
c__builtin__
list
p2
(lp3
g0
(g1
g2
(lp4
g0
(g1
g2
(lp5
g0
(g1
g2
(lp6
(lp7
S'word: We, index: 1'
p8
aatp9
Rp10
(dp11
S'_label'
p12
Vnsubj
p13
sbag0
(g1
g2
(lp14
g0
(g1
g2
(lp15
g0
(g1
g2
(lp16
(lp17
S'word: we, index: 3'
p18
aatp19
Rp20
(dp21
g12
Vnsubj
p22
sbag0
(g1
g2
(lp23
(lp24
S'word: there, index: 5'
p25
aatp26
Rp27
(dp28
g12
Vadvmod
p29
sbatp30
Rp31
(dp32
g12
S'word: went, index: 4'
p33
sbatp34
Rp35
(dp36
g12
Vparataxis
p37
sbag0
(g1
g2
(lp38
(lp39
S'word: there, index: 8'
p40
aatp41
Rp42
(dp43
g12
Vadvmod
p44
sbatp45
Rp46
(dp47
g12
S'word: went, index: 7'
p48
sbatp49
Rp50
(dp51
g12
S'id: 0'
p52
sbag0
(g1
g2
(lp53
g0
(g1
g2
(lp54
g0
(g1
g2
(lp55
g0
(g1
g2
(lp56
g0
(g1
g2
(lp57
(lp58
S'word: there, index: 4'
p59
aatp60
Rp61
(dp62
g12
Vadvmod
p63
sbag0
(g1
g2
(lp64
(lp65
S'word: We, index: 1'
p66
aatp67
Rp68
(dp69
g12
Vnsubj
p70
sbag0
(g1
g2
(lp71
(lp72
S'word: just, index: 2'
p73
aatp74
Rp75
(dp76
g12
Vadvmod
p77
sbatp78
Rp79
(dp80
g12
S'word: went, index: 3'
p81
sbatp82
Rp83
(dp84
g12
Vccomp
p85
sbag0
(g1
g2
(lp86
(lp87
S'word: we, index: 6'
p88
aatp89
Rp90
(dp91
g12
Vnsubj
p92
sbag0
(g1
g2
(lp93
g0
(g1
g2
(lp94
g0
(g1
g2
(lp95
(lp96
S'word: this, index: 8'
p97
aatp98
Rp99
(dp100
g12
Vdet
p101
sbatp102
Rp103
(dp104
g12
S'word: yesterday, index: 9'
p105
sbatp106
Rp107
(dp108
g12
Vtmod
p109
sbatp110
Rp111
(dp112
g12
S'word: did, index: 7'
p113
sbatp114
Rp115
(dp116
g12
S'id: 1'
p117
sbag0
(g1
g2
(lp118
g0
(g1
g2
(lp119
g0
(g1
g2
(lp120
(lp121
S'word: was, index: 7'
p122
aatp123
Rp124
(dp125
g12
Vcop
p126
sbag0
(g1
g2
(lp127
(lp128
S'word: this, index: 11'
p129
aatp130
Rp131
(dp132
g12
Vconj
p133
sbag0
(g1
g2
(lp134
g0
(g1
g2
(lp135
g0
(g1
g2
(lp136
(lp137
S'word: I, index: 2'
p138
aatp139
Rp140
(dp141
g12
Vdep
p142
sbag0
(g1
g2
(lp143
g0
(g1
g2
(lp144
g0
(g1
g2
(lp145
(lp146
S'word: this, index: 6'
p147
aatp148
Rp149
(dp150
g12
Vappos
p151
sbag0
(g1
g2
(lp152
(lp153
S'word: member, index: 3'
p154
aatp155
Rp156
(dp157
g12
Vnn
p158
sbatp159
Rp160
(dp161
g12
S'word: anything, index: 4'
p162
sbatp163
Rp164
(dp165
g12
Vdep
p166
sbatp167
Rp168
(dp169
g12
S'word: This, index: 1'
p170
sbatp171
Rp172
(dp173
g12
Vnsubj
p174
sbatp175
Rp176
(dp177
g12
S'word: good, index: 8'
p178
sbatp179
Rp180
(dp181
g12
S'id: 2'
p182
sbag0
(g1
g2
(lp183
g0
(g1
g2
(lp184
g0
(g1
g2
(lp185
(lp186
S'word: no, index: 2'
p187
aatp188
Rp189
(dp190
g12
Vadvmod
p191
sbag0
(g1
g2
(lp192
(lp193
S'word: car, index: 4'
p194
aatp195
Rp196
(dp197
g12
Vappos
p198
sbatp199
Rp200
(dp201
g12
S'word: Car, index: 1'
p202
sbatp203
Rp204
(dp205
g12
S'id: 3'
p206
sbatp207
Rp208
(dp209
g12
S'sentences'
p210
sb.