ccopy_reg
_reconstructor
p0
(cnltk.tree
Tree
p1
c__builtin__
list
p2
(lp3
g0
(g1
g2
(lp4
g0
(g1
g2
(lp5
g0
(g1
g2
(lp6
Vthe mother washing dishes
p7
atp8
Rp9
(dp10
S'_label'
p11
S'start: 7'
p12
sbatp13
Rp14
(dp15
g11
S'sent: 1'
p16
sbag0
(g1
g2
(lp17
g0
(g1
g2
(lp18
VShe
p19
atp20
Rp21
(dp22
g11
S'start: 1'
p23
sbatp24
Rp25
(dp26
g11
S'sent: 2'
p27
sbag0
(g1
g2
(lp28
g0
(g1
g2
(lp29
Vshe
p30
atp31
Rp32
(dp33
g11
S'start: 4'
p34
sbatp35
Rp36
(dp37
g11
S'sent: 2'
p38
sbag0
(g1
g2
(lp39
g0
(g1
g2
(lp40
VShe
p41
atp42
Rp43
(dp44
g11
S'start: 1'
p45
sbatp46
Rp47
(dp48
g11
S'sent: 3'
p49
sbag0
(g1
g2
(lp50
g0
(g1
g2
(lp51
VThe mother
p52
atp53
Rp54
(dp55
g11
S'start: 1'
p56
sbatp57
Rp58
(dp59
g11
S'sent: 5'
p60
sbag0
(g1
g2
(lp61
g0
(g1
g2
(lp62
Vshe
p63
atp64
Rp65
(dp66
g11
S'start: 2'
p67
sbatp68
Rp69
(dp70
g11
S'sent: 6'
p71
sbatp72
Rp73
(dp74
g11
S'id: 3'
p75
sbag0
(g1
g2
(lp76
g0
(g1
g2
(lp77
g0
(g1
g2
(lp78
Va very nice back yard
p79
atp80
Rp81
(dp82
g11
S'start: 7'
p83
sbatp84
Rp85
(dp86
g11
S'sent: 2'
p87
sbag0
(g1
g2
(lp88
g0
(g1
g2
(lp89
Vthat
p90
atp91
Rp92
(dp93
g11
S'start: 13'
p94
sbatp95
Rp96
(dp97
g11
S'sent: 2'
p98
sbag0
(g1
g2
(lp99
g0
(g1
g2
(lp100
Vthe yard
p101
atp102
Rp103
(dp104
g11
S'start: 26'
p105
sbatp106
Rp107
(dp108
g11
S'sent: 7'
p109
sbatp110
Rp111
(dp112
g11
S'id: 9'
p113
sbag0
(g1
g2
(lp114
g0
(g1
g2
(lp115
g0
(g1
g2
(lp116
Va son
p117
atp118
Rp119
(dp120
g11
S'start: 4'
p121
sbatp122
Rp123
(dp124
g11
S'sent: 3'
p125
sbag0
(g1
g2
(lp126
g0
(g1
g2
(lp127
Vhe
p128
atp129
Rp130
(dp131
g11
S'start: 23'
p132
sbatp133
Rp134
(dp135
g11
S'sent: 3'
p136
sbag0
(g1
g2
(lp137
g0
(g1
g2
(lp138
Vhe
p139
atp140
Rp141
(dp142
g11
S'start: 15'
p143
sbatp144
Rp145
(dp146
g11
S'sent: 4'
p147
sbag0
(g1
g2
(lp148
g0
(g1
g2
(lp149
Vthe son about
p150
atp151
Rp152
(dp153
g11
S'start: 20'
p154
sbatp155
Rp156
(dp157
g11
S'sent: 9'
p158
sbag0
(g1
g2
(lp159
g0
(g1
g2
(lp160
Vhe
p161
atp162
Rp163
(dp164
g11
S'start: 14'
p165
sbatp166
Rp167
(dp168
g11
S'sent: 11'
p169
sbatp170
Rp171
(dp172
g11
S'id: 13'
p173
sbag0
(g1
g2
(lp174
g0
(g1
g2
(lp175
g0
(g1
g2
(lp176
VI
p177
atp178
Rp179
(dp180
g11
S'start: 7'
p181
sbatp182
Rp183
(dp184
g11
S'sent: 3'
p185
sbag0
(g1
g2
(lp186
g0
(g1
g2
(lp187
Vthat
p188
atp189
Rp190
(dp191
g11
S'start: 10'
p192
sbatp193
Rp194
(dp195
g11
S'sent: 3'
p196
sbatp197
Rp198
(dp199
g11
S'id: 14'
p200
sbag0
(g1
g2
(lp201
g0
(g1
g2
(lp202
g0
(g1
g2
(lp203
Va stool
p204
atp205
Rp206
(dp207
g11
S'start: 28'
p208
sbatp209
Rp210
(dp211
g11
S'sent: 3'
p212
sbag0
(g1
g2
(lp213
g0
(g1
g2
(lp214
Vthe stool
p215
atp216
Rp217
(dp218
g11
S'start: 19'
p219
sbatp220
Rp221
(dp222
g11
S'sent: 4'
p223
sbag0
(g1
g2
(lp224
g0
(g1
g2
(lp225
Vthe stool
p226
atp227
Rp228
(dp229
g11
S'start: 27'
p230
sbatp231
Rp232
(dp233
g11
S'sent: 9'
p234
sbatp235
Rp236
(dp237
g11
S'id: 19'
p238
sbag0
(g1
g2
(lp239
g0
(g1
g2
(lp240
g0
(g1
g2
(lp241
VThe daughter
p242
atp243
Rp244
(dp245
g11
S'start: 1'
p246
sbatp247
Rp248
(dp249
g11
S'sent: 4'
p250
sbag0
(g1
g2
(lp251
g0
(g1
g2
(lp252
Vshe
p253
atp254
Rp255
(dp256
g11
S'start: 5'
p257
sbatp258
Rp259
(dp260
g11
S'sent: 4'
p261
sbag0
(g1
g2
(lp262
g0
(g1
g2
(lp263
Vthe daughter
p264
atp265
Rp266
(dp267
g11
S'start: 2'
p268
sbatp269
Rp270
(dp271
g11
S'sent: 11'
p272
sbag0
(g1
g2
(lp273
g0
(g1
g2
(lp274
Vshe
p275
atp276
Rp277
(dp278
g11
S'start: 6'
p279
sbatp280
Rp281
(dp282
g11
S'sent: 11'
p283
sbatp284
Rp285
(dp286
g11
S'id: 20'
p287
sbag0
(g1
g2
(lp288
g0
(g1
g2
(lp289
g0
(g1
g2
(lp290
VKih
p291
atp292
Rp293
(dp294
g11
S'start: 1'
p295
sbatp296
Rp297
(dp298
g11
S'sent: 7'
p299
sbag0
(g1
g2
(lp300
g0
(g1
g2
(lp301
Vshe
p302
atp303
Rp304
(dp305
g11
S'start: 5'
p306
sbatp307
Rp308
(dp309
g11
S'sent: 7'
p310
sbag0
(g1
g2
(lp311
g0
(g1
g2
(lp312
Vher
p313
atp314
Rp315
(dp316
g11
S'start: 12'
p317
sbatp318
Rp319
(dp320
g11
S'sent: 7'
p321
sbag0
(g1
g2
(lp322
g0
(g1
g2
(lp323
Vshe
p324
atp325
Rp326
(dp327
g11
S'start: 16'
p328
sbatp329
Rp330
(dp331
g11
S'sent: 7'
p332
sbag0
(g1
g2
(lp333
g0
(g1
g2
(lp334
Vher
p335
atp336
Rp337
(dp338
g11
S'start: 21'
p339
sbatp340
Rp341
(dp342
g11
S'sent: 7'
p343
sbag0
(g1
g2
(lp344
g0
(g1
g2
(lp345
Vher
p346
atp347
Rp348
(dp349
g11
S'start: 23'
p350
sbatp351
Rp352
(dp353
g11
S'sent: 7'
p354
sbatp355
Rp356
(dp357
g11
S'id: 31'
p358
sbag0
(g1
g2
(lp359
g0
(g1
g2
(lp360
g0
(g1
g2
(lp361
Vher window
p362
atp363
Rp364
(dp365
g11
S'start: 12'
p366
sbatp367
Rp368
(dp369
g11
S'sent: 7'
p370
sbag0
(g1
g2
(lp371
g0
(g1
g2
(lp372
Vher window
p373
atp374
Rp375
(dp376
g11
S'start: 50'
p377
sbatp378
Rp379
(dp380
g11
S'sent: 8'
p381
sbatp382
Rp383
(dp384
g11
S'id: 36'
p385
sbag0
(g1
g2
(lp386
g0
(g1
g2
(lp387
g0
(g1
g2
(lp388
Va tree
p389
atp390
Rp391
(dp392
g11
S'start: 6'
p393
sbatp394
Rp395
(dp396
g11
S'sent: 8'
p397
sbag0
(g1
g2
(lp398
g0
(g1
g2
(lp399
Vthat
p400
atp401
Rp402
(dp403
g11
S'start: 13'
p404
sbatp405
Rp406
(dp407
g11
S'sent: 8'
p408
sbag0
(g1
g2
(lp409
g0
(g1
g2
(lp410
Va driveway that has some , flowers or something at the end of driveway
p411
atp412
Rp413
(dp414
g11
S'start: 15'
p415
sbatp416
Rp417
(dp418
g11
S'sent: 8'
p419
sbatp420
Rp421
(dp422
g11
S'id: 43'
p423
sbag0
(g1
g2
(lp424
g0
(g1
g2
(lp425
g0
(g1
g2
(lp426
Vsome
p427
atp428
Rp429
(dp430
g11
S'start: 19'
p431
sbatp432
Rp433
(dp434
g11
S'sent: 8'
p435
sbag0
(g1
g2
(lp436
g0
(g1
g2
(lp437
Vher
p438
atp439
Rp440
(dp441
g11
S'start: 37'
p442
sbatp443
Rp444
(dp445
g11
S'sent: 8'
p446
sbag0
(g1
g2
(lp447
g0
(g1
g2
(lp448
Vshe
p449
atp450
Rp451
(dp452
g11
S'start: 45'
p453
sbatp454
Rp455
(dp456
g11
S'sent: 8'
p457
sbag0
(g1
g2
(lp458
g0
(g1
g2
(lp459
Vher
p460
atp461
Rp462
(dp463
g11
S'start: 50'
p464
sbatp465
Rp466
(dp467
g11
S'sent: 8'
p468
sbag0
(g1
g2
(lp469
g0
(g1
g2
(lp470
VShe
p471
atp472
Rp473
(dp474
g11
S'start: 1'
p475
sbatp476
Rp477
(dp478
g11
S'sent: 10'
p479
sbag0
(g1
g2
(lp480
g0
(g1
g2
(lp481
Vshe
p482
atp483
Rp484
(dp485
g11
S'start: 11'
p486
sbatp487
Rp488
(dp489
g11
S'sent: 10'
p490
sbatp491
Rp492
(dp493
g11
S'id: 47'
p494
sbag0
(g1
g2
(lp495
g0
(g1
g2
(lp496
g0
(g1
g2
(lp497
Vthe end of driveway
p498
atp499
Rp500
(dp501
g11
S'start: 25'
p502
sbatp503
Rp504
(dp505
g11
S'sent: 8'
p506
sbag0
(g1
g2
(lp507
g0
(g1
g2
(lp508
Vthat
p509
atp510
Rp511
(dp512
g11
S'start: 31'
p513
sbatp514
Rp515
(dp516
g11
S'sent: 8'
p517
sbatp518
Rp519
(dp520
g11
S'id: 49'
p521
sbag0
(g1
g2
(lp522
g0
(g1
g2
(lp523
g0
(g1
g2
(lp524
Vthe same time
p525
atp526
Rp527
(dp528
g11
S'start: 11'
p529
sbatp530
Rp531
(dp532
g11
S'sent: 9'
p533
sbag0
(g1
g2
(lp534
g0
(g1
g2
(lp535
Vthe sink overflowing
p536
atp537
Rp538
(dp539
g11
S'start: 15'
p540
sbatp541
Rp542
(dp543
g11
S'sent: 9'
p544
sbatp545
Rp546
(dp547
g11
S'id: 63'
p548
sbatp549
Rp550
(dp551
g11
S'coreferences'
p552
sb.