ccopy_reg
_reconstructor
p0
(cnltk.tree
Tree
p1
c__builtin__
list
p2
(lp3
g0
(g1
g2
(lp4
g0
(g1
g2
(lp5
g0
(g1
g2
(lp6
g0
(g1
g2
(lp7
Vfirst
p8
atp9
Rp10
(dp11
S'_label'
p12
VRB
p13
sbatp14
Rp15
(dp16
g12
VADVP
p17
sbag0
(g1
g2
(lp18
V.
p19
atp20
Rp21
(dp22
g12
V.
p23
sbatp24
Rp25
(dp26
g12
VFRAG
p27
sbatp28
Rp29
(dp30
g12
S'id: 0'
p31
sbag0
(g1
g2
(lp32
g0
(g1
g2
(lp33
g0
(g1
g2
(lp34
g0
(g1
g2
(lp35
VBoy
p36
atp37
Rp38
(dp39
g12
VNN
p40
sbatp41
Rp42
(dp43
g12
VNP
p44
sbag0
(g1
g2
(lp45
g0
(g1
g2
(lp46
Vfalling
p47
atp48
Rp49
(dp50
g12
VVBG
p51
sbag0
(g1
g2
(lp52
g0
(g1
g2
(lp53
Vdown
p54
atp55
Rp56
(dp57
g12
VRP
p58
sbatp59
Rp60
(dp61
g12
VPRT
p62
sbag0
(g1
g2
(lp63
g0
(g1
g2
(lp64
Vwith
p65
atp66
Rp67
(dp68
g12
VIN
p69
sbag0
(g1
g2
(lp70
g0
(g1
g2
(lp71
Va
p72
atp73
Rp74
(dp75
g12
VDT
p76
sbag0
(g1
g2
(lp77
Vcookie
p78
atp79
Rp80
(dp81
g12
VNN
p82
sbatp83
Rp84
(dp85
g12
VNP
p86
sbatp87
Rp88
(dp89
g12
VPP
p90
sbatp91
Rp92
(dp93
g12
VVP
p94
sbag0
(g1
g2
(lp95
V.
p96
atp97
Rp98
(dp99
g12
V.
p100
sbatp101
Rp102
(dp103
g12
VNP
p104
sbatp105
Rp106
(dp107
g12
S'id: 1'
p108
sbag0
(g1
g2
(lp109
g0
(g1
g2
(lp110
g0
(g1
g2
(lp111
g0
(g1
g2
(lp112
g0
(g1
g2
(lp113
VLaugh
p114
atp115
Rp116
(dp117
g12
VNNP
p118
sbatp119
Rp120
(dp121
g12
VNP
p122
sbag0
(g1
g2
(lp123
V,
p124
atp125
Rp126
(dp127
g12
V,
p128
sbag0
(g1
g2
(lp129
g0
(g1
g2
(lp130
Vthe
p131
atp132
Rp133
(dp134
g12
VDT
p135
sbag0
(g1
g2
(lp136
Vlaugh
p137
atp138
Rp139
(dp140
g12
VNN
p141
sbatp142
Rp143
(dp144
g12
VNP
p145
sbag0
(g1
g2
(lp146
V,
p147
atp148
Rp149
(dp150
g12
V,
p151
sbatp152
Rp153
(dp154
g12
VNP
p155
sbag0
(g1
g2
(lp156
g0
(g1
g2
(lp157
Vfell
p158
atp159
Rp160
(dp161
g12
VVBD
p162
sbag0
(g1
g2
(lp163
g0
(g1
g2
(lp164
Vdown
p165
atp166
Rp167
(dp168
g12
VRB
p169
sbatp170
Rp171
(dp172
g12
VADVP
p173
sbatp174
Rp175
(dp176
g12
VVP
p177
sbag0
(g1
g2
(lp178
V.
p179
atp180
Rp181
(dp182
g12
V.
p183
sbatp184
Rp185
(dp186
g12
VS
p187
sbatp188
Rp189
(dp190
g12
S'id: 2'
p191
sbag0
(g1
g2
(lp192
g0
(g1
g2
(lp193
g0
(g1
g2
(lp194
VThe
p195
atp196
Rp197
(dp198
g12
VDT
p199
sbag0
(g1
g2
(lp200
Vwoman
p201
atp202
Rp203
(dp204
g12
VNN
p205
sbag0
(g1
g2
(lp206
V.
p207
atp208
Rp209
(dp210
g12
V.
p211
sbatp212
Rp213
(dp214
g12
VNP
p215
sbatp216
Rp217
(dp218
g12
S'id: 3'
p219
sbag0
(g1
g2
(lp220
g0
(g1
g2
(lp221
g0
(g1
g2
(lp222
g0
(g1
g2
(lp223
VThe
p224
atp225
Rp226
(dp227
g12
VDT
p228
sbag0
(g1
g2
(lp229
Vfat
p230
atp231
Rp232
(dp233
g12
VNN
p234
sbatp235
Rp236
(dp237
g12
VNP
p238
sbag0
(g1
g2
(lp239
g0
(g1
g2
(lp240
Vsays
p241
atp242
Rp243
(dp244
g12
VVBZ
p245
sbatp246
Rp247
(dp248
g12
VVP
p249
sbag0
(g1
g2
(lp250
V.
p251
atp252
Rp253
(dp254
g12
V.
p255
sbatp256
Rp257
(dp258
g12
VS
p259
sbatp260
Rp261
(dp262
g12
S'id: 4'
p263
sbag0
(g1
g2
(lp264
g0
(g1
g2
(lp265
g0
(g1
g2
(lp266
g0
(g1
g2
(lp267
VWiger
p268
atp269
Rp270
(dp271
g12
VNNP
p272
sbatp273
Rp274
(dp275
g12
VNP
p276
sbag0
(g1
g2
(lp277
V,
p278
atp279
Rp280
(dp281
g12
V,
p282
sbag0
(g1
g2
(lp283
g0
(g1
g2
(lp284
g0
(g1
g2
(lp285
VSinks
p286
atp287
Rp288
(dp289
g12
VNNP
p290
sbatp291
Rp292
(dp293
g12
VNP
p294
sbag0
(g1
g2
(lp295
V,
p296
atp297
Rp298
(dp299
g12
V,
p300
sbag0
(g1
g2
(lp301
g0
(g1
g2
(lp302
g0
(g1
g2
(lp303
Vfoldud
p304
atp305
Rp306
(dp307
g12
VJJ
p308
sbag0
(g1
g2
(lp309
Vdum
p310
atp311
Rp312
(dp313
g12
VNN
p314
sbatp315
Rp316
(dp317
g12
VNP
p318
sbag0
(g1
g2
(lp319
Vdown
p320
atp321
Rp322
(dp323
g12
VRB
p324
sbatp325
Rp326
(dp327
g12
VADVP
p328
sbatp329
Rp330
(dp331
g12
VNP
p332
sbag0
(g1
g2
(lp333
V.
p334
atp335
Rp336
(dp337
g12
V.
p338
sbatp339
Rp340
(dp341
g12
VNP
p342
sbatp343
Rp344
(dp345
g12
S'id: 5'
p346
sbag0
(g1
g2
(lp347
g0
(g1
g2
(lp348
g0
(g1
g2
(lp349
g0
(g1
g2
(lp350
VWell
p351
atp352
Rp353
(dp354
g12
VRB
p355
sbatp356
Rp357
(dp358
g12
VINTJ
p359
sbag0
(g1
g2
(lp360
V,
p361
atp362
Rp363
(dp364
g12
V,
p365
sbag0
(g1
g2
(lp366
g0
(g1
g2
(lp367
Vlet
p368
atp369
Rp370
(dp371
g12
VVB
p372
sbag0
(g1
g2
(lp373
g0
(g1
g2
(lp374
g0
(g1
g2
(lp375
Vme
p376
atp377
Rp378
(dp379
g12
VPRP
p380
sbatp381
Rp382
(dp383
g12
VNP
p384
sbag0
(g1
g2
(lp385
g0
(g1
g2
(lp386
Vsee
p387
atp388
Rp389
(dp390
g12
VVB
p391
sbatp392
Rp393
(dp394
g12
VVP
p395
sbatp396
Rp397
(dp398
g12
VS
p399
sbatp400
Rp401
(dp402
g12
VVP
p403
sbag0
(g1
g2
(lp404
V.
p405
atp406
Rp407
(dp408
g12
V.
p409
sbatp410
Rp411
(dp412
g12
VS
p413
sbatp414
Rp415
(dp416
g12
S'id: 6'
p417
sbag0
(g1
g2
(lp418
g0
(g1
g2
(lp419
g0
(g1
g2
(lp420
g0
(g1
g2
(lp421
VNothing
p422
atp423
Rp424
(dp425
g12
VNN
p426
sbatp427
Rp428
(dp429
g12
VNP
p430
sbag0
(g1
g2
(lp431
g0
(g1
g2
(lp432
Vat
p433
atp434
Rp435
(dp436
g12
VIN
p437
sbag0
(g1
g2
(lp438
Vall
p439
atp440
Rp441
(dp442
g12
VDT
p443
sbatp444
Rp445
(dp446
g12
VADVP
p447
sbag0
(g1
g2
(lp448
V.
p449
atp450
Rp451
(dp452
g12
V.
p453
sbatp454
Rp455
(dp456
g12
VFRAG
p457
sbatp458
Rp459
(dp460
g12
S'id: 7'
p461
sbag0
(g1
g2
(lp462
g0
(g1
g2
(lp463
g0
(g1
g2
(lp464
g0
(g1
g2
(lp465
VHi
p466
atp467
Rp468
(dp469
g12
VNN
p470
sbatp471
Rp472
(dp473
g12
VNP
p474
sbag0
(g1
g2
(lp475
g0
(g1
g2
(lp476
Vthere
p477
atp478
Rp479
(dp480
g12
VRB
p481
sbatp482
Rp483
(dp484
g12
VADVP
p485
sbag0
(g1
g2
(lp486
V.
p487
atp488
Rp489
(dp490
g12
V.
p491
sbatp492
Rp493
(dp494
g12
VFRAG
p495
sbatp496
Rp497
(dp498
g12
S'id: 8'
p499
sbatp500
Rp501
(dp502
g12
S'sentences'
p503
sb.