ccopy_reg
_reconstructor
p0
(cnltk.tree
Tree
p1
c__builtin__
list
p2
(lp3
g0
(g1
g2
(lp4
g0
(g1
g2
(lp5
g0
(g1
g2
(lp6
g0
(g1
g2
(lp7
g0
(g1
g2
(lp8
(lp9
S'word: alright, index: 1'
p10
aatp11
Rp12
(dp13
S'_label'
p14
Vmark
p15
sbag0
(g1
g2
(lp16
g0
(g1
g2
(lp17
g0
(g1
g2
(lp18
g0
(g1
g2
(lp19
g0
(g1
g2
(lp20
(lp21
S'word: a, index: 19'
p22
aatp23
Rp24
(dp25
g14
Vdet
p26
sbatp27
Rp28
(dp29
g14
S'word: stool, index: 20'
p30
sbatp31
Rp32
(dp33
g14
Vprep
p34
sbag0
(g1
g2
(lp35
(lp36
S'word: that, index: 13'
p37
aatp38
Rp39
(dp40
g14
Vmark
p41
sbag0
(g1
g2
(lp42
g0
(g1
g2
(lp43
g0
(g1
g2
(lp44
(lp45
S"word: 's, index: 16"
p46
aatp47
Rp48
(dp49
g14
Vpossessive
p50
sbag0
(g1
g2
(lp51
(lp52
S'word: her, index: 14'
p53
aatp54
Rp55
(dp56
g14
Vposs
p57
sbatp58
Rp59
(dp60
g14
S'word: brother, index: 15'
p61
sbatp62
Rp63
(dp64
g14
Vnsubj
p65
sbatp66
Rp67
(dp68
g14
S'word: got, index: 17'
p69
sbatp70
Rp71
(dp72
g14
Vccomp
p73
sbag0
(g1
g2
(lp74
(lp75
S'word: we, index: 2'
p76
aatp77
Rp78
(dp79
g14
Vnsubj
p80
sbag0
(g1
g2
(lp81
g0
(g1
g2
(lp82
g0
(g1
g2
(lp83
(lp84
S'word: a, index: 4'
p85
aatp86
Rp87
(dp88
g14
Vdet
p89
sbag0
(g1
g2
(lp90
(lp91
S'word: little, index: 5'
p92
aatp93
Rp94
(dp95
g14
Vamod
p96
sbag0
(g1
g2
(lp97
(lp98
S'word: girl, index: 6'
p99
aatp100
Rp101
(dp102
g14
Vnn
p103
sbatp104
Rp105
(dp106
g14
S'word: eating, index: 7'
p107
sbatp108
Rp109
(dp110
g14
Vdobj
p111
sbag0
(g1
g2
(lp112
g0
(g1
g2
(lp113
g0
(g1
g2
(lp114
g0
(g1
g2
(lp115
g0
(g1
g2
(lp116
(lp117
S'word: a, index: 10'
p118
aatp119
Rp120
(dp121
g14
Vdet
p122
sbatp123
Rp124
(dp125
g14
S'word: cookie, index: 11'
p126
sbatp127
Rp128
(dp129
g14
Vdobj
p130
sbatp131
Rp132
(dp133
g14
S'word: wanting, index: 9'
p134
sbatp135
Rp136
(dp137
g14
Vvmod
p138
sbatp139
Rp140
(dp141
g14
S'word: got, index: 3'
p142
sbatp143
Rp144
(dp145
g14
Vadvcl
p146
sbag0
(g1
g2
(lp147
(lp148
S'word: he, index: 22'
p149
aatp150
Rp151
(dp152
g14
Vnsubj
p153
sbag0
(g1
g2
(lp154
(lp155
S"word: 's, index: 23"
p156
aatp157
Rp158
(dp159
g14
Vaux
p160
sbatp161
Rp162
(dp163
g14
S'word: falling, index: 24'
p164
sbatp165
Rp166
(dp167
g14
S'id: 0'
p168
sbag0
(g1
g2
(lp169
g0
(g1
g2
(lp170
g0
(g1
g2
(lp171
g0
(g1
g2
(lp172
g0
(g1
g2
(lp173
(lp174
S'word: three, index: 4'
p175
aatp176
Rp177
(dp178
g14
Vnum
p179
sbag0
(g1
g2
(lp180
g0
(g1
g2
(lp181
g0
(g1
g2
(lp182
(lp183
S'word: the, index: 7'
p184
aatp185
Rp186
(dp187
g14
Vdet
p188
sbag0
(g1
g2
(lp189
(lp190
S"word: 's, index: 9"
p191
aatp192
Rp193
(dp194
g14
Vpossessive
p195
sbag0
(g1
g2
(lp196
(lp197
S'word: running, index: 10'
p198
aatp199
Rp200
(dp201
g14
Vamod
p202
sbag0
(g1
g2
(lp203
(lp204
S'word: over, index: 11'
p205
aatp206
Rp207
(dp208
g14
Vadvmod
p209
sbatp210
Rp211
(dp212
g14
S'word: sink, index: 8'
p213
sbatp214
Rp215
(dp216
g14
Vappos
p217
sbag0
(g1
g2
(lp218
g0
(g1
g2
(lp219
g0
(g1
g2
(lp220
g0
(g1
g2
(lp221
g0
(g1
g2
(lp222
(lp223
S'word: the, index: 15'
p224
aatp225
Rp226
(dp227
g14
Vdet
p228
sbag0
(g1
g2
(lp229
g0
(g1
g2
(lp230
g0
(g1
g2
(lp231
g0
(g1
g2
(lp232
g0
(g1
g2
(lp233
(lp234
S'word: drying, index: 21'
p235
aatp236
Rp237
(dp238
g14
Vconj
p239
sbag0
(g1
g2
(lp240
g0
(g1
g2
(lp241
g0
(g1
g2
(lp242
(lp243
S'word: the, index: 22'
p244
aatp245
Rp246
(dp247
g14
Vdet
p248
sbatp249
Rp250
(dp251
g14
S'word: dishes, index: 23'
p252
sbatp253
Rp254
(dp255
g14
Vdobj
p256
sbatp257
Rp258
(dp259
g14
S'word: wiping, index: 19'
p260
sbatp261
Rp262
(dp263
g14
Vvmod
p264
sbag0
(g1
g2
(lp265
(lp266
S'word: drying, index: 21'
p267
aatp268
Rp269
(dp270
g14
Vvmod
p271
sbatp272
Rp273
(dp274
g14
S'word: her, index: 18'
p275
sbatp276
Rp277
(dp278
g14
Vappos
p279
sbatp280
Rp281
(dp282
g14
S'word: floor, index: 16'
p283
sbatp284
Rp285
(dp286
g14
Vprep
p287
sbatp288
Rp289
(dp290
g14
S'word: water, index: 13'
p291
sbatp292
Rp293
(dp294
g14
Vappos
p295
sbatp296
Rp297
(dp298
g14
S'word: legs, index: 5'
p299
sbatp300
Rp301
(dp302
g14
Vdobj
p303
sbag0
(g1
g2
(lp304
(lp305
S'word: it, index: 1'
p306
aatp307
Rp308
(dp309
g14
Vnsubjpass
p310
sbag0
(g1
g2
(lp311
(lp312
S"word: 's, index: 2"
p313
aatp314
Rp315
(dp316
g14
Vauxpass
p317
sbatp318
Rp319
(dp320
g14
S'word: got, index: 3'
p321
sbatp322
Rp323
(dp324
g14
S'id: 1'
p325
sbag0
(g1
g2
(lp326
g0
(g1
g2
(lp327
g0
(g1
g2
(lp328
(lp329
S'word: apparently, index: 6'
p330
aatp331
Rp332
(dp333
g14
Vadvmod
p334
sbag0
(g1
g2
(lp335
g0
(g1
g2
(lp336
g0
(g1
g2
(lp337
(lp338
S'word: the, index: 8'
p339
aatp340
Rp341
(dp342
g14
Vdet
p343
sbatp344
Rp345
(dp346
g14
S'word: bottom, index: 9'
p347
sbatp348
Rp349
(dp350
g14
Vprep
p351
sbag0
(g1
g2
(lp352
g0
(g1
g2
(lp353
g0
(g1
g2
(lp354
g0
(g1
g2
(lp355
g0
(g1
g2
(lp356
(lp357
S'word: the, index: 22'
p358
aatp359
Rp360
(dp361
g14
Vdet
p362
sbag0
(g1
g2
(lp363
(lp364
S'word: front, index: 23'
p365
aatp366
Rp367
(dp368
g14
Vamod
p369
sbag0
(g1
g2
(lp370
g0
(g1
g2
(lp371
g0
(g1
g2
(lp372
(lp373
S'word: the, index: 26'
p374
aatp375
Rp376
(dp377
g14
Vdet
p378
sbatp379
Rp380
(dp381
g14
S'word: house, index: 27'
p382
sbatp383
Rp384
(dp385
g14
Vprep
p386
sbatp387
Rp388
(dp389
g14
S'word: side, index: 24'
p390
sbatp391
Rp392
(dp393
g14
Vprep
p394
sbag0
(g1
g2
(lp395
(lp396
S'word: she, index: 12'
p397
aatp398
Rp399
(dp400
g14
Vnsubj
p401
sbag0
(g1
g2
(lp402
(lp403
S'word: is, index: 13'
p404
aatp405
Rp406
(dp407
g14
Vaux
p408
sbag0
(g1
g2
(lp409
(lp410
S'word: out, index: 15'
p411
aatp412
Rp413
(dp414
g14
Vprt
p415
sbag0
(g1
g2
(lp416
g0
(g1
g2
(lp417
g0
(g1
g2
(lp418
g388
atp419
Rp420
(dp421
g14
Vconj
p422
sbag0
(g1
g2
(lp423
(lp424
S'word: the, index: 17'
p425
aatp426
Rp427
(dp428
g14
Vdet
p429
sbag0
(g1
g2
(lp430
(lp431
S'word: back, index: 18'
p432
aatp433
Rp434
(dp435
g14
Vamod
p436
sbatp437
Rp438
(dp439
g14
S'word: yard, index: 19'
p440
sbatp441
Rp442
(dp443
g14
Vprep
p444
sbatp445
Rp446
(dp447
g14
S'word: looking, index: 14'
p448
sbatp449
Rp450
(dp451
g14
Vconj
p452
sbag0
(g1
g2
(lp453
g0
(g1
g2
(lp454
g0
(g1
g2
(lp455
(lp456
S'word: The, index: 1'
p457
aatp458
Rp459
(dp460
g14
Vdet
p461
sbatp462
Rp463
(dp464
g14
S'word: window, index: 2'
p465
sbatp466
Rp467
(dp468
g14
Vnsubj
p469
sbag0
(g1
g2
(lp470
(lp471
S'word: is, index: 3'
p472
aatp473
Rp474
(dp475
g14
Vcop
p476
sbatp477
Rp478
(dp479
g14
S'word: open, index: 4'
p480
sbatp481
Rp482
(dp483
g14
S'id: 2'
p484
sbag0
(g1
g2
(lp485
g0
(g1
g2
(lp486
g0
(g1
g2
(lp487
g0
(g1
g2
(lp488
g0
(g1
g2
(lp489
(lp490
S'word: a, index: 26'
p491
aatp492
Rp493
(dp494
g14
Vdet
p495
sbag0
(g1
g2
(lp496
g0
(g1
g2
(lp497
g0
(g1
g2
(lp498
(lp499
S'word: that, index: 28'
p500
aatp501
Rp502
(dp503
g14
Vnsubj
p504
sbag0
(g1
g2
(lp505
(lp506
S"word: 's, index: 29"
p507
aatp508
Rp509
(dp510
g14
Vaux
p511
sbag0
(g1
g2
(lp512
(lp513
S'word: it, index: 32'
p514
aatp515
Rp516
(dp517
g14
Vprep
p518
sbatp519
Rp520
(dp521
g14
S'word: leaning, index: 30'
p522
sbatp523
Rp524
(dp525
g14
Vrcmod
p526
sbatp527
Rp528
(dp529
g14
S'word: lid, index: 27'
p530
sbatp531
Rp532
(dp533
g14
Vprep
p534
sbag0
(g1
g2
(lp535
g0
(g1
g2
(lp536
g0
(g1
g2
(lp537
(lp538
S'word: you, index: 1'
p539
aatp540
Rp541
(dp542
g14
Vnsubj
p543
sbag0
(g1
g2
(lp544
(lp545
S"word: 've, index: 2"
p546
aatp547
Rp548
(dp549
g14
Vaux
p550
sbag0
(g1
g2
(lp551
g0
(g1
g2
(lp552
g0
(g1
g2
(lp553
g0
(g1
g2
(lp554
g0
(g1
g2
(lp555
(lp556
S'word: a, index: 12'
p557
aatp558
Rp559
(dp560
g14
Vdet
p561
sbag0
(g1
g2
(lp562
(lp563
S'word: two, index: 13'
p564
aatp565
Rp566
(dp567
g14
Vnum
p568
sbag0
(g1
g2
(lp569
g0
(g1
g2
(lp570
g0
(g1
g2
(lp571
(lp572
S'word: the, index: 16'
p573
aatp574
Rp575
(dp576
g14
Vdet
p577
sbatp578
Rp579
(dp580
g14
S'word: picture, index: 17'
p581
sbatp582
Rp583
(dp584
g14
Vprep
p585
sbatp586
Rp587
(dp588
g14
S'word: plates, index: 14'
p589
sbatp590
Rp591
(dp592
g14
Vconj
p593
sbag0
(g1
g2
(lp594
(lp595
S'word: bowls, index: 5'
p596
aatp597
Rp598
(dp599
g14
Vdep
p600
sbag0
(g1
g2
(lp601
g0
(g1
g2
(lp602
g0
(g1
g2
(lp603
(lp604
S'word: bowls, index: 9'
p605
aatp606
Rp607
(dp608
g14
Vdep
p609
sbag0
(g1
g2
(lp610
g587
atp611
Rp612
(dp613
g14
Vconj
p614
sbatp615
Rp616
(dp617
g14
S'word: two, index: 8'
p618
sbatp619
Rp620
(dp621
g14
Vconj
p622
sbatp623
Rp624
(dp625
g14
S'word: three, index: 4'
p626
sbatp627
Rp628
(dp629
g14
Vdobj
p630
sbag0
(g1
g2
(lp631
g616
atp632
Rp633
(dp634
g14
Vdobj
p635
sbatp636
Rp637
(dp638
g14
S'word: got, index: 3'
p639
sbatp640
Rp641
(dp642
g14
Vccomp
p643
sbag0
(g1
g2
(lp644
(lp645
S'word: you, index: 19'
p646
aatp647
Rp648
(dp649
g14
Vnsubj
p650
sbag0
(g1
g2
(lp651
(lp652
S"word: 've, index: 20"
p653
aatp654
Rp655
(dp656
g14
Vaux
p657
sbag0
(g1
g2
(lp658
g0
(g1
g2
(lp659
g0
(g1
g2
(lp660
(lp661
S'word: a, index: 22'
p662
aatp663
Rp664
(dp665
g14
Vdet
p666
sbag0
(g1
g2
(lp667
(lp668
S'word: cookie, index: 23'
p669
aatp670
Rp671
(dp672
g14
Vnn
p673
sbatp674
Rp675
(dp676
g14
S'word: jar, index: 24'
p677
sbatp678
Rp679
(dp680
g14
Vdobj
p681
sbatp682
Rp683
(dp684
g14
S'word: got, index: 21'
p685
sbatp686
Rp687
(dp688
g14
S'id: 3'
p689
sbag0
(g1
g2
(lp690
g0
(g1
g2
(lp691
g0
(g1
g2
(lp692
g0
(g1
g2
(lp693
g0
(g1
g2
(lp694
(lp695
S'word: the, index: 12'
p696
aatp697
Rp698
(dp699
g14
Vdet
p700
sbatp701
Rp702
(dp703
g14
S'word: doors, index: 13'
p704
sbatp705
Rp706
(dp707
g14
Vprep
p708
sbag0
(g1
g2
(lp709
g0
(g1
g2
(lp710
g0
(g1
g2
(lp711
(lp712
S'word: There, index: 1'
p713
aatp714
Rp715
(dp716
g14
Vexpl
p717
sbag0
(g1
g2
(lp718
(lp719
S'word: are, index: 2'
p720
aatp721
Rp722
(dp723
g14
Vcop
p724
sbag0
(g1
g2
(lp725
(lp726
S'word: no, index: 3'
p727
aatp728
Rp729
(dp730
g14
Vneg
p731
sbag0
(g1
g2
(lp732
(lp733
S'word: handles, index: 6'
p734
aatp735
Rp736
(dp737
g14
Vconj
p738
sbatp739
Rp740
(dp741
g14
S'word: shelves, index: 4'
p742
sbatp743
Rp744
(dp745
g14
Vccomp
p746
sbag0
(g1
g2
(lp747
(lp748
S'word: handles, index: 6'
p749
aatp750
Rp751
(dp752
g14
Vccomp
p753
sbag0
(g1
g2
(lp754
(lp755
S'word: that, index: 8'
p756
aatp757
Rp758
(dp759
g14
Vnsubjpass
p760
sbag0
(g1
g2
(lp761
(lp762
S'word: are, index: 9'
p763
aatp764
Rp765
(dp766
g14
Vauxpass
p767
sbatp768
Rp769
(dp770
g14
S'word: seen, index: 10'
p771
sbatp772
Rp773
(dp774
g14
S'id: 4'
p775
sbag0
(g1
g2
(lp776
g0
(g1
g2
(lp777
g0
(g1
g2
(lp778
g0
(g1
g2
(lp779
g0
(g1
g2
(lp780
(lp781
S'word: You, index: 1'
p782
aatp783
Rp784
(dp785
g14
Vnsubj
p786
sbag0
(g1
g2
(lp787
(lp788
S"word: 've, index: 2"
p789
aatp790
Rp791
(dp792
g14
Vaux
p793
sbag0
(g1
g2
(lp794
(lp795
S'word: your, index: 5'
p796
aatp797
Rp798
(dp799
g14
Vdobj
p800
sbatp801
Rp802
(dp803
g14
S'word: got, index: 3'
p804
sbatp805
Rp806
(dp807
g14
Vccomp
p808
sbag0
(g1
g2
(lp809
(lp810
S'word: the, index: 7'
p811
aatp812
Rp813
(dp814
g14
Vnsubj
p815
sbag0
(g1
g2
(lp816
(lp817
S'word: down, index: 9'
p818
aatp819
Rp820
(dp821
g14
Vprt
p822
sbag0
(g1
g2
(lp823
g0
(g1
g2
(lp824
g0
(g1
g2
(lp825
(lp826
S'word: not, index: 22'
p827
aatp828
Rp829
(dp830
g14
Vneg
p831
sbag0
(g1
g2
(lp832
(lp833
S'word: a, index: 23'
p834
aatp835
Rp836
(dp837
g14
Vdet
p838
sbag0
(g1
g2
(lp839
(lp840
S'word: little, index: 24'
p841
aatp842
Rp843
(dp844
g14
Vamod
p845
sbatp846
Rp847
(dp848
g14
S'word: knob, index: 25'
p849
sbatp850
Rp851
(dp852
g14
Vprep
p853
sbag0
(g1
g2
(lp854
(lp855
S'word: here, index: 10'
p856
aatp857
Rp858
(dp859
g14
Vadvmod
p860
sbag0
(g1
g2
(lp861
g0
(g1
g2
(lp862
g0
(g1
g2
(lp863
g0
(g1
g2
(lp864
g0
(g1
g2
(lp865
(lp866
S'word: that, index: 15'
p867
aatp868
Rp869
(dp870
g14
Vnsubj
p871
sbag0
(g1
g2
(lp872
(lp873
S'word: just, index: 17'
p874
aatp875
Rp876
(dp877
g14
Vadvmod
p878
sbag0
(g1
g2
(lp879
g0
(g1
g2
(lp880
g0
(g1
g2
(lp881
(lp882
S'word: locks, index: 19'
p883
aatp884
Rp885
(dp886
g14
Vdobj
p887
sbatp888
Rp889
(dp890
g14
S'word: pull, index: 18'
p891
sbatp892
Rp893
(dp894
g14
Vccomp
p895
sbatp896
Rp897
(dp898
g14
S'word: are, index: 16'
p899
sbatp900
Rp901
(dp902
g14
Vrcmod
p903
sbag0
(g1
g2
(lp904
g847
atp905
Rp906
(dp907
g14
Vconj
p908
sbag0
(g1
g2
(lp909
(lp910
S'word: the, index: 12'
p911
aatp912
Rp913
(dp914
g14
Vdet
p915
sbatp916
Rp917
(dp918
g14
S'word: bottom, index: 13'
p919
sbatp920
Rp921
(dp922
g14
Vprep
p923
sbatp924
Rp925
(dp926
g14
S'word: handles, index: 8'
p927
sbatp928
Rp929
(dp930
g14
S'id: 5'
p931
sbag0
(g1
g2
(lp932
g0
(g1
g2
(lp933
g0
(g1
g2
(lp934
(lp935
S"word: 've, index: 2"
p936
aatp937
Rp938
(dp939
g14
Vaux
p940
sbag0
(g1
g2
(lp941
g0
(g1
g2
(lp942
g0
(g1
g2
(lp943
g0
(g1
g2
(lp944
g0
(g1
g2
(lp945
(lp946
S'word: two, index: 4'
p947
aatp948
Rp949
(dp950
g14
Vnum
p951
sbag0
(g1
g2
(lp952
g0
(g1
g2
(lp953
g0
(g1
g2
(lp954
(lp955
S'word: here, index: 7'
p956
aatp957
Rp958
(dp959
g14
Vpobj
p960
sbatp961
Rp962
(dp963
g14
S'word: over, index: 6'
p964
sbatp965
Rp966
(dp967
g14
Vprep
p968
sbag0
(g1
g2
(lp969
g0
(g1
g2
(lp970
g0
(g1
g2
(lp971
(lp972
S'word: one, index: 10'
p973
aatp974
Rp975
(dp976
g14
Vnum
p977
sbag0
(g1
g2
(lp978
(lp979
S'word: large, index: 11'
p980
aatp981
Rp982
(dp983
g14
Vamod
p984
sbatp985
Rp986
(dp987
g14
S'word: sink, index: 12'
p988
sbatp989
Rp990
(dp991
g14
Vconj
p992
sbag0
(g1
g2
(lp993
g0
(g1
g2
(lp994
g0
(g1
g2
(lp995
(lp996
S'word: not, index: 15'
p997
aatp998
Rp999
(dp1000
g14
Vneg
p1001
sbatp1002
Rp1003
(dp1004
g14
S'word: a, index: 16'
p1005
sbatp1006
Rp1007
(dp1008
g14
Vconj
p1009
sbatp1010
Rp1011
(dp1012
g14
S'word: faucets, index: 5'
p1013
sbatp1014
Rp1015
(dp1016
g14
Vnsubj
p1017
sbatp1018
Rp1019
(dp1020
g14
S'word: rinsing, index: 19'
p1021
sbatp1022
Rp1023
(dp1024
g14
Vdep
p1025
sbag0
(g1
g2
(lp1026
(lp1027
S'word: You, index: 1'
p1028
aatp1029
Rp1030
(dp1031
g14
Vnsubj
p1032
sbag0
(g1
g2
(lp1033
g0
(g1
g2
(lp1034
g0
(g1
g2
(lp1035
g1019
atp1036
Rp1037
(dp1038
g14
Vconj
p1039
sbag0
(g1
g2
(lp1040
(lp1041
S'word: side, index: 20'
p1042
aatp1043
Rp1044
(dp1045
g14
Vdobj
p1046
sbag0
(g1
g2
(lp1047
g1011
atp1048
Rp1049
(dp1050
g14
Vnsubj
p1051
sbag0
(g1
g2
(lp1052
g986
atp1053
Rp1054
(dp1055
g14
Vnsubj
p1056
sbag0
(g1
g2
(lp1057
g1003
atp1058
Rp1059
(dp1060
g14
Vnsubj
p1061
sbatp1062
Rp1063
(dp1064
g14
S'word: drying, index: 17'
p1065
sbatp1066
Rp1067
(dp1068
g14
Vdep
p1069
sbatp1070
Rp1071
(dp1072
g14
S'word: got, index: 3'
p1073
sbatp1074
Rp1075
(dp1076
g14
S'id: 6'
p1077
sbag0
(g1
g2
(lp1078
g0
(g1
g2
(lp1079
g0
(g1
g2
(lp1080
(lp1081
S'word: look, index: 21'
p1082
aatp1083
Rp1084
(dp1085
g14
Vprep
p1086
sbag0
(g1
g2
(lp1087
g0
(g1
g2
(lp1088
g0
(g1
g2
(lp1089
g0
(g1
g2
(lp1090
g0
(g1
g2
(lp1091
(lp1092
S'word: the, index: 5'
p1093
aatp1094
Rp1095
(dp1096
g14
Vdet
p1097
sbatp1098
Rp1099
(dp1100
g14
S'word: picture, index: 6'
p1101
sbatp1102
Rp1103
(dp1104
g14
Vnsubjpass
p1105
sbag0
(g1
g2
(lp1106
(lp1107
S'word: was, index: 7'
p1108
aatp1109
Rp1110
(dp1111
g14
Vauxpass
p1112
sbag0
(g1
g2
(lp1113
(lp1114
S'word: probably, index: 8'
p1115
aatp1116
Rp1117
(dp1118
g14
Vadvmod
p1119
sbag0
(g1
g2
(lp1120
(lp1121
S'word: back, index: 10'
p1122
aatp1123
Rp1124
(dp1125
g14
Vadvmod
p1126
sbag0
(g1
g2
(lp1127
g0
(g1
g2
(lp1128
g0
(g1
g2
(lp1129
(lp1130
S'word: the, index: 12'
p1131
aatp1132
Rp1133
(dp1134
g14
Vdet
p1135
sbag0
(g1
g2
(lp1136
(lp1137
S'word: late, index: 13'
p1138
aatp1139
Rp1140
(dp1141
g14
Vamod
p1142
sbatp1143
Rp1144
(dp1145
g14
S'word: fifties, index: 14'
p1146
sbatp1147
Rp1148
(dp1149
g14
Vprep
p1150
sbatp1151
Rp1152
(dp1153
g14
S'word: done, index: 9'
p1154
sbatp1155
Rp1156
(dp1157
g14
Vparataxis
p1158
sbag0
(g1
g2
(lp1159
g0
(g1
g2
(lp1160
g0
(g1
g2
(lp1161
(lp1162
S'word: the, index: 23'
p1163
aatp1164
Rp1165
(dp1166
g14
Vdet
p1167
sbag0
(g1
g2
(lp1168
(lp1169
S'word: little, index: 24'
p1170
aatp1171
Rp1172
(dp1173
g14
Vamod
p1174
sbag0
(g1
g2
(lp1175
(lp1176
S'word: mini, index: 25'
p1177
aatp1178
Rp1179
(dp1180
g14
Vamod
p1181
sbatp1182
Rp1183
(dp1184
g14
S'word: skirt, index: 26'
p1185
sbatp1186
Rp1187
(dp1188
g14
Vprep
p1189
sbag0
(g1
g2
(lp1190
g0
(g1
g2
(lp1191
g0
(g1
g2
(lp1192
g0
(g1
g2
(lp1193
g0
(g1
g2
(lp1194
(lp1195
S'word: the, index: 40'
p1196
aatp1197
Rp1198
(dp1199
g14
Vdet
p1200
sbatp1201
Rp1202
(dp1203
g14
S'word: pants, index: 41'
p1204
sbatp1205
Rp1206
(dp1207
g14
Vnsubj
p1208
sbag0
(g1
g2
(lp1209
(lp1210
S'word: up, index: 43'
p1211
aatp1212
Rp1213
(dp1214
g14
Vprt
p1215
sbag0
(g1
g2
(lp1216
g0
(g1
g2
(lp1217
g0
(g1
g2
(lp1218
(lp1219
S'word: the, index: 45'
p1220
aatp1221
Rp1222
(dp1223
g14
Vdet
p1224
sbatp1225
Rp1226
(dp1227
g14
S'word: ankles, index: 46'
p1228
sbatp1229
Rp1230
(dp1231
g14
Vprep
p1232
sbag0
(g1
g2
(lp1233
(lp1234
S'word: on, index: 49'
p1235
aatp1236
Rp1237
(dp1238
g14
Vprepc
p1239
sbag0
(g1
g2
(lp1240
g0
(g1
g2
(lp1241
g0
(g1
g2
(lp1242
g0
(g1
g2
(lp1243
g0
(g1
g2
(lp1244
(lp1245
S'word: since, index: 53'
p1246
aatp1247
Rp1248
(dp1249
g14
Vmark
p1250
sbag0
(g1
g2
(lp1251
(lp1252
S'word: I, index: 54'
p1253
aatp1254
Rp1255
(dp1256
g14
Vnsubj
p1257
sbag0
(g1
g2
(lp1258
(lp1259
S'word: ca, index: 55'
p1260
aatp1261
Rp1262
(dp1263
g14
Vaux
p1264
sbag0
(g1
g2
(lp1265
(lp1266
S"word: n't, index: 56"
p1267
aatp1268
Rp1269
(dp1270
g14
Vneg
p1271
sbag0
(g1
g2
(lp1272
g0
(g1
g2
(lp1273
g0
(g1
g2
(lp1274
(lp1275
S'word: the, index: 58'
p1276
aatp1277
Rp1278
(dp1279
g14
Vdet
p1280
sbag0
(g1
g2
(lp1281
(lp1282
S'word: muscle, index: 59'
p1283
aatp1284
Rp1285
(dp1286
g14
Vnn
p1287
sbatp1288
Rp1289
(dp1290
g14
S'word: description, index: 60'
p1291
sbatp1292
Rp1293
(dp1294
g14
Vdobj
p1295
sbatp1296
Rp1297
(dp1298
g14
S'word: tell, index: 57'
p1299
sbatp1300
Rp1301
(dp1302
g14
Vadvcl
p1303
sbag0
(g1
g2
(lp1304
(lp1305
S'word: how, index: 50'
p1306
aatp1307
Rp1308
(dp1309
g14
Vadvmod
p1310
sbag0
(g1
g2
(lp1311
(lp1312
S'word: that, index: 51'
p1313
aatp1314
Rp1315
(dp1316
g14
Vnsubj
p1317
sbatp1318
Rp1319
(dp1320
g14
S'word: is, index: 52'
p1321
sbatp1322
Rp1323
(dp1324
g14
Vpcomp
p1325
sbatp1326
Rp1327
(dp1328
g14
S'word: come, index: 42'
p1329
sbatp1330
Rp1331
(dp1332
g14
Vconj
p1333
sbag0
(g1
g2
(lp1334
g0
(g1
g2
(lp1335
g0
(g1
g2
(lp1336
(lp1337
S'word: that, index: 28'
p1338
aatp1339
Rp1340
(dp1341
g14
Vmark
p1342
sbag0
(g1
g2
(lp1343
g0
(g1
g2
(lp1344
g0
(g1
g2
(lp1345
(lp1346
S'word: the, index: 29'
p1347
aatp1348
Rp1349
(dp1350
g14
Vdet
p1351
sbatp1352
Rp1353
(dp1354
g14
S'word: girls, index: 30'
p1355
sbatp1356
Rp1357
(dp1358
g14
Vnsubj
p1359
sbag0
(g1
g2
(lp1360
g0
(g1
g2
(lp1361
g0
(g1
g2
(lp1362
(lp1363
S'word: down, index: 37'
p1364
aatp1365
Rp1366
(dp1367
g14
Vadvmod
p1368
sbag0
(g1
g2
(lp1369
g0
(g1
g2
(lp1370
g0
(g1
g2
(lp1371
(lp1372
S'word: the, index: 34'
p1373
aatp1374
Rp1375
(dp1376
g14
Vdet
p1377
sbag0
(g1
g2
(lp1378
(lp1379
S'word: little, index: 35'
p1380
aatp1381
Rp1382
(dp1383
g14
Vamod
p1384
sbatp1385
Rp1386
(dp1387
g14
S'word: thing, index: 36'
p1388
sbatp1389
Rp1390
(dp1391
g14
Vpobj
p1392
sbatp1393
Rp1394
(dp1395
g14
S'word: either, index: 33'
p1396
sbatp1397
Rp1398
(dp1399
g14
Vconj
p1400
sbatp1401
Rp1402
(dp1403
g14
S'word: got, index: 31'
p1404
sbatp1405
Rp1406
(dp1407
g14
Vccomp
p1408
sbag0
(g1
g2
(lp1409
g0
(g1
g2
(lp1410
g0
(g1
g2
(lp1411
(lp1412
S'word: sort, index: 17'
p1413
aatp1414
Rp1415
(dp1416
g14
Vdep
p1417
sbag0
(g1
g2
(lp1418
(lp1419
S'word: era, index: 19'
p1420
aatp1421
Rp1422
(dp1423
g14
Vprep
p1424
sbatp1425
Rp1426
(dp1427
g14
S'word: that, index: 16'
p1428
sbatp1429
Rp1430
(dp1431
g14
Vadvmod
p1432
sbag0
(g1
g2
(lp1433
(lp1434
S'word: you, index: 1'
p1435
aatp1436
Rp1437
(dp1438
g14
Vnsubj
p1439
sbag0
(g1
g2
(lp1440
g1394
atp1441
Rp1442
(dp1443
g14
Vccomp
p1444
sbag0
(g1
g2
(lp1445
(lp1446
S"word: 've, index: 2"
p1447
aatp1448
Rp1449
(dp1450
g14
Vaux
p1451
sbatp1452
Rp1453
(dp1454
g14
S'word: got, index: 3'
p1455
sbatp1456
Rp1457
(dp1458
g14
S'id: 7'
p1459
sbag0
(g1
g2
(lp1460
g0
(g1
g2
(lp1461
g0
(g1
g2
(lp1462
(lp1463
S'word: he, index: 18'
p1464
aatp1465
Rp1466
(dp1467
g14
Vnsubj
p1468
sbag0
(g1
g2
(lp1469
(lp1470
S"word: 's, index: 19"
p1471
aatp1472
Rp1473
(dp1474
g14
Vaux
p1475
sbag0
(g1
g2
(lp1476
(lp1477
S'word: not, index: 20'
p1478
aatp1479
Rp1480
(dp1481
g14
Vneg
p1482
sbag0
(g1
g2
(lp1483
g0
(g1
g2
(lp1484
g0
(g1
g2
(lp1485
g0
(g1
g2
(lp1486
g0
(g1
g2
(lp1487
(lp1488
S'word: That, index: 1'
p1489
aatp1490
Rp1491
(dp1492
g14
Vdet
p1493
sbatp1494
Rp1495
(dp1496
g14
S'word: kid, index: 2'
p1497
sbatp1498
Rp1499
(dp1500
g14
Vnsubj
p1501
sbag0
(g1
g2
(lp1502
(lp1503
S'word: apparently, index: 3'
p1504
aatp1505
Rp1506
(dp1507
g14
Vadvmod
p1508
sbag0
(g1
g2
(lp1509
(lp1510
S'word: is, index: 4'
p1511
aatp1512
Rp1513
(dp1514
g14
Vaux
p1515
sbag0
(g1
g2
(lp1516
g0
(g1
g2
(lp1517
g0
(g1
g2
(lp1518
g0
(g1
g2
(lp1519
g0
(g1
g2
(lp1520
(lp1521
S'word: the, index: 8'
p1522
aatp1523
Rp1524
(dp1525
g14
Vdet
p1526
sbag0
(g1
g2
(lp1527
g0
(g1
g2
(lp1528
g0
(g1
g2
(lp1529
(lp1530
S'word: his, index: 11'
p1531
aatp1532
Rp1533
(dp1534
g14
Vposs
p1535
sbag0
(g1
g2
(lp1536
g0
(g1
g2
(lp1537
g0
(g1
g2
(lp1538
(lp1539
S'word: the, index: 13'
p1540
aatp1541
Rp1542
(dp1543
g14
Vdet
p1544
sbatp1545
Rp1546
(dp1547
g14
S'word: way, index: 14'
p1548
sbatp1549
Rp1550
(dp1551
g14
Vdep
p1552
sbatp1553
Rp1554
(dp1555
g14
S'word: head, index: 12'
p1556
sbatp1557
Rp1558
(dp1559
g14
Vprep
p1560
sbag0
(g1
g2
(lp1561
g0
(g1
g2
(lp1562
g0
(g1
g2
(lp1563
(lp1564
S'word: he, index: 15'
p1565
aatp1566
Rp1567
(dp1568
g14
Vnsubj
p1569
sbatp1570
Rp1571
(dp1572
g14
S'word: falls, index: 16'
p1573
sbatp1574
Rp1575
(dp1576
g14
Vrcmod
p1577
sbatp1578
Rp1579
(dp1580
g14
S'word: back, index: 9'
p1581
sbatp1582
Rp1583
(dp1584
g14
Vdobj
p1585
sbag0
(g1
g2
(lp1586
(lp1587
S'word: to, index: 6'
p1588
aatp1589
Rp1590
(dp1591
g14
Vaux
p1592
sbatp1593
Rp1594
(dp1595
g14
S'word: hit, index: 7'
p1596
sbatp1597
Rp1598
(dp1599
g14
Vxcomp
p1600
sbatp1601
Rp1602
(dp1603
g14
S'word: going, index: 5'
p1604
sbatp1605
Rp1606
(dp1607
g14
Vccomp
p1608
sbag0
(g1
g2
(lp1609
g0
(g1
g2
(lp1610
g0
(g1
g2
(lp1611
(lp1612
S'word: down, index: 24'
p1613
aatp1614
Rp1615
(dp1616
g14
Vprt
p1617
sbag0
(g1
g2
(lp1618
g0
(g1
g2
(lp1619
g0
(g1
g2
(lp1620
(lp1621
S'word: his, index: 26'
p1622
aatp1623
Rp1624
(dp1625
g14
Vposs
p1626
sbatp1627
Rp1628
(dp1629
g14
S'word: feet, index: 27'
p1630
sbatp1631
Rp1632
(dp1633
g14
Vprep
p1634
sbag0
(g1
g2
(lp1635
(lp1636
S'word: to, index: 22'
p1637
aatp1638
Rp1639
(dp1640
g14
Vaux
p1641
sbatp1642
Rp1643
(dp1644
g14
S'word: come, index: 23'
p1645
sbatp1646
Rp1647
(dp1648
g14
Vxcomp
p1649
sbatp1650
Rp1651
(dp1652
g14
S'word: going, index: 21'
p1653
sbatp1654
Rp1655
(dp1656
g14
S'id: 8'
p1657
sbag0
(g1
g2
(lp1658
g0
(g1
g2
(lp1659
g0
(g1
g2
(lp1660
(lp1661
S'word: And, index: 1'
p1662
aatp1663
Rp1664
(dp1665
g14
Vcc
p1666
sbag0
(g1
g2
(lp1667
g0
(g1
g2
(lp1668
g0
(g1
g2
(lp1669
(lp1670
S'word: the, index: 15'
p1671
aatp1672
Rp1673
(dp1674
g14
Vdet
p1675
sbag0
(g1
g2
(lp1676
(lp1677
S'word: tie, index: 16'
p1678
aatp1679
Rp1680
(dp1681
g14
Vamod
p1682
sbag0
(g1
g2
(lp1683
(lp1684
S'word: there, index: 18'
p1685
aatp1686
Rp1687
(dp1688
g14
Vadvmod
p1689
sbatp1690
Rp1691
(dp1692
g14
S'word: backs, index: 17'
p1693
sbatp1694
Rp1695
(dp1696
g14
Vdobj
p1697
sbag0
(g1
g2
(lp1698
(lp1699
S'word: what, index: 2'
p1700
aatp1701
Rp1702
(dp1703
g14
Vnsubj
p1704
sbag0
(g1
g2
(lp1705
(lp1706
S'word: sorta, index: 3'
p1707
aatp1708
Rp1709
(dp1710
g14
Vnn
p1711
sbag0
(g1
g2
(lp1712
g0
(g1
g2
(lp1713
g0
(g1
g2
(lp1714
(lp1715
S'word: the, index: 6'
p1716
aatp1717
Rp1718
(dp1719
g14
Vdet
p1720
sbag0
(g1
g2
(lp1721
g0
(g1
g2
(lp1722
g0
(g1
g2
(lp1723
g0
(g1
g2
(lp1724
g0
(g1
g2
(lp1725
(lp1726
S'word: being, index: 11'
p1727
aatp1728
Rp1729
(dp1730
g14
Vauxpass
p1731
sbag0
(g1
g2
(lp1732
(lp1733
S'word: back, index: 13'
p1734
aatp1735
Rp1736
(dp1737
g14
Vadvmod
p1738
sbatp1739
Rp1740
(dp1741
g14
S'word: drawn, index: 12'
p1742
sbatp1743
Rp1744
(dp1745
g14
Vvmod
p1746
sbag0
(g1
g2
(lp1747
(lp1748
S'word: the, index: 9'
p1749
aatp1750
Rp1751
(dp1752
g14
Vdet
p1753
sbatp1754
Rp1755
(dp1756
g14
S'word: curtains, index: 10'
p1757
sbatp1758
Rp1759
(dp1760
g14
Vconj
p1761
sbatp1762
Rp1763
(dp1764
g14
S'word: window, index: 7'
p1765
sbatp1766
Rp1767
(dp1768
g14
Vprep
p1769
sbag0
(g1
g2
(lp1770
g1755
atp1771
Rp1772
(dp1773
g14
Vprep
p1774
sbatp1775
Rp1776
(dp1777
g14
S'word: thing, index: 4'
p1778
sbatp1779
Rp1780
(dp1781
g14
S'id: 9'
p1782
sbag0
(g1
g2
(lp1783
g0
(g1
g2
(lp1784
g0
(g1
g2
(lp1785
(lp1786
S'word: You, index: 1'
p1787
aatp1788
Rp1789
(dp1790
g14
Vnsubj
p1791
sbag0
(g1
g2
(lp1792
(lp1793
S"word: 've, index: 2"
p1794
aatp1795
Rp1796
(dp1797
g14
Vaux
p1798
sbag0
(g1
g2
(lp1799
(lp1800
S'word: apparently, index: 4'
p1801
aatp1802
Rp1803
(dp1804
g14
Vadvmod
p1805
sbag0
(g1
g2
(lp1806
g0
(g1
g2
(lp1807
g0
(g1
g2
(lp1808
g0
(g1
g2
(lp1809
g0
(g1
g2
(lp1810
g0
(g1
g2
(lp1811
g0
(g1
g2
(lp1812
g0
(g1
g2
(lp1813
g0
(g1
g2
(lp1814
(lp1815
S'word: the, index: 14'
p1816
aatp1817
Rp1818
(dp1819
g14
Vdet
p1820
sbatp1821
Rp1822
(dp1823
g14
S'word: path, index: 15'
p1824
sbatp1825
Rp1826
(dp1827
g14
Vprep
p1828
sbag0
(g1
g2
(lp1829
g0
(g1
g2
(lp1830
g0
(g1
g2
(lp1831
(lp1832
S'word: the, index: 18'
p1833
aatp1834
Rp1835
(dp1836
g14
Vdet
p1837
sbatp1838
Rp1839
(dp1840
g14
S'word: sidewalk, index: 19'
p1841
sbatp1842
Rp1843
(dp1844
g14
Vprep
p1845
sbag0
(g1
g2
(lp1846
g0
(g1
g2
(lp1847
g0
(g1
g2
(lp1848
(lp1849
S'word: that, index: 20'
p1850
aatp1851
Rp1852
(dp1853
g14
Vnsubj
p1854
sbag0
(g1
g2
(lp1855
(lp1856
S'word: might, index: 21'
p1857
aatp1858
Rp1859
(dp1860
g14
Vaux
p1861
sbag0
(g1
g2
(lp1862
(lp1863
S'word: there, index: 23'
p1864
aatp1865
Rp1866
(dp1867
g14
Vadvmod
p1868
sbatp1869
Rp1870
(dp1871
g14
S'word: be, index: 22'
p1872
sbatp1873
Rp1874
(dp1875
g14
Vrcmod
p1876
sbag0
(g1
g2
(lp1877
(lp1878
S'word: the, index: 8'
p1879
aatp1880
Rp1881
(dp1882
g14
Vdet
p1883
sbag0
(g1
g2
(lp1884
g0
(g1
g2
(lp1885
g0
(g1
g2
(lp1886
g1822
atp1887
Rp1888
(dp1889
g14
Vconj
p1890
sbag0
(g1
g2
(lp1891
g1839
atp1892
Rp1893
(dp1894
g14
Vconj
p1895
sbag0
(g1
g2
(lp1896
(lp1897
S'word: the, index: 11'
p1898
aatp1899
Rp1900
(dp1901
g14
Vdet
p1902
sbatp1903
Rp1904
(dp1905
g14
S'word: house, index: 12'
p1906
sbatp1907
Rp1908
(dp1909
g14
Vprep
p1910
sbatp1911
Rp1912
(dp1913
g14
S'word: walk, index: 9'
p1914
sbatp1915
Rp1916
(dp1917
g14
Vappos
p1918
sbatp1919
Rp1920
(dp1921
g14
S'word: the, index: 6'
p1922
sbatp1923
Rp1924
(dp1925
g14
Vpobj
p1926
sbatp1927
Rp1928
(dp1929
g14
S'word: either, index: 5'
p1930
sbatp1931
Rp1932
(dp1933
g14
Vprep
p1934
sbatp1935
Rp1936
(dp1937
g14
S'word: got, index: 3'
p1938
sbatp1939
Rp1940
(dp1941
g14
S'id: 10'
p1942
sbag0
(g1
g2
(lp1943
g0
(g1
g2
(lp1944
g0
(g1
g2
(lp1945
g0
(g1
g2
(lp1946
g0
(g1
g2
(lp1947
(lp1948
S'word: a, index: 2'
p1949
aatp1950
Rp1951
(dp1952
g14
Vdet
p1953
sbag0
(g1
g2
(lp1954
(lp1955
S'word: bushes, index: 5'
p1956
aatp1957
Rp1958
(dp1959
g14
Vprep
p1960
sbatp1961
Rp1962
(dp1963
g14
S'word: couple, index: 3'
p1964
sbatp1965
Rp1966
(dp1967
g14
Vdobj
p1968
sbag0
(g1
g2
(lp1969
g0
(g1
g2
(lp1970
g0
(g1
g2
(lp1971
(lp1972
S'word: the, index: 7'
p1973
aatp1974
Rp1975
(dp1976
g14
Vdet
p1977
sbatp1978
Rp1979
(dp1980
g14
S'word: yard, index: 8'
p1981
sbatp1982
Rp1983
(dp1984
g14
Vprep
p1985
sbatp1986
Rp1987
(dp1988
g14
S'word: Got, index: 1'
p1989
sbatp1990
Rp1991
(dp1992
g14
S'id: 11'
p1993
sbag0
(g1
g2
(lp1994
g0
(g1
g2
(lp1995
g0
(g1
g2
(lp1996
g0
(g1
g2
(lp1997
g0
(g1
g2
(lp1998
(lp1999
S'word: high, index: 5'
p2000
aatp2001
Rp2002
(dp2003
g14
Vamod
p2004
sbatp2005
Rp2006
(dp2007
g14
S'word: heels, index: 6'
p2008
sbatp2009
Rp2010
(dp2011
g14
Vdobj
p2012
sbag0
(g1
g2
(lp2013
g0
(g1
g2
(lp2014
g0
(g1
g2
(lp2015
(lp2016
S'word: the, index: 8'
p2017
aatp2018
Rp2019
(dp2020
g14
Vdet
p2021
sbag0
(g1
g2
(lp2022
g0
(g1
g2
(lp2023
g0
(g1
g2
(lp2024
g0
(g1
g2
(lp2025
g0
(g1
g2
(lp2026
g0
(g1
g2
(lp2027
g0
(g1
g2
(lp2028
(lp2029
S'word: a, index: 13'
p2030
aatp2031
Rp2032
(dp2033
g14
Vdet
p2034
sbag0
(g1
g2
(lp2035
(lp2036
S'word: sleeveless, index: 14'
p2037
aatp2038
Rp2039
(dp2040
g14
Vamod
p2041
sbatp2042
Rp2043
(dp2044
g14
S'word: shirt, index: 15'
p2045
sbatp2046
Rp2047
(dp2048
g14
Vconj
p2049
sbag0
(g1
g2
(lp2050
g0
(g1
g2
(lp2051
g0
(g1
g2
(lp2052
(lp2053
S'word: dress, index: 21'
p2054
aatp2055
Rp2056
(dp2057
g14
Vappos
p2058
sbag0
(g1
g2
(lp2059
g0
(g1
g2
(lp2060
g0
(g1
g2
(lp2061
(lp2062
S'word: whatever, index: 23'
p2063
aatp2064
Rp2065
(dp2066
g14
Vdobj
p2067
sbag0
(g1
g2
(lp2068
(lp2069
S'word: that, index: 24'
p2070
aatp2071
Rp2072
(dp2073
g14
Vnsubj
p2074
sbag0
(g1
g2
(lp2075
g0
(g1
g2
(lp2076
g0
(g1
g2
(lp2077
(lp2078
S'word: shes, index: 27'
p2079
aatp2080
Rp2081
(dp2082
g14
Vnsubj
p2083
sbag0
(g1
g2
(lp2084
g0
(g1
g2
(lp2085
g0
(g1
g2
(lp2086
(lp2087
S'word: an, index: 29'
p2088
aatp2089
Rp2090
(dp2091
g14
Vdet
p2092
sbatp2093
Rp2094
(dp2095
g14
S'word: apron, index: 30'
p2096
sbatp2097
Rp2098
(dp2099
g14
Vdobj
p2100
sbatp2101
Rp2102
(dp2103
g14
S'word: wearing, index: 28'
p2104
sbatp2105
Rp2106
(dp2107
g14
Vdep
p2108
sbatp2109
Rp2110
(dp2111
g14
S'word: is, index: 25'
p2112
sbatp2113
Rp2114
(dp2115
g14
Vrcmod
p2116
sbag0
(g1
g2
(lp2117
(lp2118
S'word: a, index: 18'
p2119
aatp2120
Rp2121
(dp2122
g14
Vdet
p2123
sbatp2124
Rp2125
(dp2126
g14
S'word: blouse, index: 19'
p2127
sbatp2128
Rp2129
(dp2130
g14
Vconj
p2131
sbatp2132
Rp2133
(dp2134
g14
S'word: dishes, index: 11'
p2135
sbatp2136
Rp2137
(dp2138
g14
Vdobj
p2139
sbag0
(g1
g2
(lp2140
g2043
atp2141
Rp2142
(dp2143
g14
Vdobj
p2144
sbag0
(g1
g2
(lp2145
g2125
atp2146
Rp2147
(dp2148
g14
Vdobj
p2149
sbatp2150
Rp2151
(dp2152
g14
S'word: doing, index: 10'
p2153
sbatp2154
Rp2155
(dp2156
g14
Vvmod
p2157
sbatp2158
Rp2159
(dp2160
g14
S'word: sink, index: 9'
p2161
sbatp2162
Rp2163
(dp2164
g14
Vprep
p2165
sbag0
(g1
g2
(lp2166
(lp2167
S'word: And, index: 1'
p2168
aatp2169
Rp2170
(dp2171
g14
Vcc
p2172
sbag0
(g1
g2
(lp2173
(lp2174
S'word: she, index: 2'
p2175
aatp2176
Rp2177
(dp2178
g14
Vnsubj
p2179
sbag0
(g1
g2
(lp2180
(lp2181
S"word: 's, index: 3"
p2182
aatp2183
Rp2184
(dp2185
g14
Vaux
p2186
sbatp2187
Rp2188
(dp2189
g14
S'word: wearing, index: 4'
p2190
sbatp2191
Rp2192
(dp2193
g14
S'id: 12'
p2194
sbatp2195
Rp2196
(dp2197
g14
S'sentences'
p2198
sb.