ccopy_reg
_reconstructor
p0
(cnltk.tree
Tree
p1
c__builtin__
list
p2
(lp3
g0
(g1
g2
(lp4
g0
(g1
g2
(lp5
g0
(g1
g2
(lp6
Vok this is the one I saw yesterday
p7
atp8
Rp9
(dp10
S'_label'
p11
S'start: 1'
p12
sbatp13
Rp14
(dp15
g11
S'sent: 1'
p16
sbag0
(g1
g2
(lp17
g0
(g1
g2
(lp18
Vit
p19
atp20
Rp21
(dp22
g11
S'start: 14'
p23
sbatp24
Rp25
(dp26
g11
S'sent: 1'
p27
sbag0
(g1
g2
(lp28
g0
(g1
g2
(lp29
Vkind of hard to determine if it 's , if they 're at their house , or if they 're at a , a cabin kinda thing , that 's got a flag in the yard , with a nice tree and manicured yard with shrubbery
p30
atp31
Rp32
(dp33
g11
S'start: 16'
p34
sbatp35
Rp36
(dp37
g11
S'sent: 1'
p38
sbag0
(g1
g2
(lp39
g0
(g1
g2
(lp40
Vit
p41
atp42
Rp43
(dp44
g11
S'start: 22'
p45
sbatp46
Rp47
(dp48
g11
S'sent: 1'
p49
sbag0
(g1
g2
(lp50
g0
(g1
g2
(lp51
Vthat
p52
atp53
Rp54
(dp55
g11
S'start: 44'
p56
sbatp57
Rp58
(dp59
g11
S'sent: 1'
p60
sbatp61
Rp62
(dp63
g11
S'id: 1'
p64
sbag0
(g1
g2
(lp65
g0
(g1
g2
(lp66
g0
(g1
g2
(lp67
Vthis
p68
atp69
Rp70
(dp71
g11
S'start: 2'
p72
sbatp73
Rp74
(dp75
g11
S'sent: 1'
p76
sbag0
(g1
g2
(lp77
g0
(g1
g2
(lp78
Vthe one I saw yesterday
p79
atp80
Rp81
(dp82
g11
S'start: 4'
p83
sbatp84
Rp85
(dp86
g11
S'sent: 1'
p87
sbatp88
Rp89
(dp90
g11
S'id: 2'
p91
sbag0
(g1
g2
(lp92
g0
(g1
g2
(lp93
g0
(g1
g2
(lp94
VI
p95
atp96
Rp97
(dp98
g11
S'start: 6'
p99
sbatp100
Rp101
(dp102
g11
S'sent: 1'
p103
sbag0
(g1
g2
(lp104
g0
(g1
g2
(lp105
VI
p106
atp107
Rp108
(dp109
g11
S'start: 4'
p110
sbatp111
Rp112
(dp113
g11
S'sent: 2'
p114
sbag0
(g1
g2
(lp115
g0
(g1
g2
(lp116
VI
p117
atp118
Rp119
(dp120
g11
S'start: 10'
p121
sbatp122
Rp123
(dp124
g11
S'sent: 10'
p125
sbag0
(g1
g2
(lp126
g0
(g1
g2
(lp127
VI
p128
atp129
Rp130
(dp131
g11
S'start: 3'
p132
sbatp133
Rp134
(dp135
g11
S'sent: 11'
p136
sbag0
(g1
g2
(lp137
g0
(g1
g2
(lp138
VI
p139
atp140
Rp141
(dp142
g11
S'start: 21'
p143
sbatp144
Rp145
(dp146
g11
S'sent: 11'
p147
sbag0
(g1
g2
(lp148
g0
(g1
g2
(lp149
VI
p150
atp151
Rp152
(dp153
g11
S'start: 17'
p154
sbatp155
Rp156
(dp157
g11
S'sent: 12'
p158
sbatp159
Rp160
(dp161
g11
S'id: 4'
p162
sbag0
(g1
g2
(lp163
g0
(g1
g2
(lp164
g0
(g1
g2
(lp165
Vthey
p166
atp167
Rp168
(dp169
g11
S'start: 26'
p170
sbatp171
Rp172
(dp173
g11
S'sent: 1'
p174
sbag0
(g1
g2
(lp175
g0
(g1
g2
(lp176
Vtheir
p177
atp178
Rp179
(dp180
g11
S'start: 29'
p181
sbatp182
Rp183
(dp184
g11
S'sent: 1'
p185
sbag0
(g1
g2
(lp186
g0
(g1
g2
(lp187
Vthey
p188
atp189
Rp190
(dp191
g11
S'start: 34'
p192
sbatp193
Rp194
(dp195
g11
S'sent: 1'
p196
sbatp197
Rp198
(dp199
g11
S'id: 10'
p200
sbag0
(g1
g2
(lp201
g0
(g1
g2
(lp202
g0
(g1
g2
(lp203
Vtheir house
p204
atp205
Rp206
(dp207
g11
S'start: 29'
p208
sbatp209
Rp210
(dp211
g11
S'sent: 1'
p212
sbag0
(g1
g2
(lp213
g0
(g1
g2
(lp214
Vtheir house
p215
atp216
Rp217
(dp218
g11
S'start: 33'
p219
sbatp220
Rp221
(dp222
g11
S'sent: 12'
p223
sbatp224
Rp225
(dp226
g11
S'id: 11'
p227
sbag0
(g1
g2
(lp228
g0
(g1
g2
(lp229
g0
(g1
g2
(lp230
Vthe yard
p231
atp232
Rp233
(dp234
g11
S'start: 50'
p235
sbatp236
Rp237
(dp238
g11
S'sent: 1'
p239
sbag0
(g1
g2
(lp240
g0
(g1
g2
(lp241
Vthe yard
p242
atp243
Rp244
(dp245
g11
S'start: 7'
p246
sbatp247
Rp248
(dp249
g11
S'sent: 10'
p250
sbatp251
Rp252
(dp253
g11
S'id: 17'
p254
sbag0
(g1
g2
(lp255
g0
(g1
g2
(lp256
g0
(g1
g2
(lp257
VThe parents
p258
atp259
Rp260
(dp261
g11
S'start: 1'
p262
sbatp263
Rp264
(dp265
g11
S'sent: 2'
p266
sbag0
(g1
g2
(lp267
g0
(g1
g2
(lp268
Vthey
p269
atp270
Rp271
(dp272
g11
S'start: 18'
p273
sbatp274
Rp275
(dp276
g11
S'sent: 4'
p277
sbatp278
Rp279
(dp280
g11
S'id: 19'
p281
sbag0
(g1
g2
(lp282
g0
(g1
g2
(lp283
g0
(g1
g2
(lp284
VThe father
p285
atp286
Rp287
(dp288
g11
S'start: 1'
p289
sbatp290
Rp291
(dp292
g11
S'sent: 3'
p293
sbag0
(g1
g2
(lp294
g0
(g1
g2
(lp295
Vhe
p296
atp297
Rp298
(dp299
g11
S'start: 8'
p300
sbatp301
Rp302
(dp303
g11
S'sent: 3'
p304
sbag0
(g1
g2
(lp305
g0
(g1
g2
(lp306
Vhis
p307
atp308
Rp309
(dp310
g11
S'start: 11'
p311
sbatp312
Rp313
(dp314
g11
S'sent: 3'
p315
sbatp316
Rp317
(dp318
g11
S'id: 22'
p319
sbag0
(g1
g2
(lp320
g0
(g1
g2
(lp321
g0
(g1
g2
(lp322
Vhis sandals
p323
atp324
Rp325
(dp326
g11
S'start: 11'
p327
sbatp328
Rp329
(dp330
g11
S'sent: 3'
p331
sbag0
(g1
g2
(lp332
g0
(g1
g2
(lp333
Vhis sandals
p334
atp335
Rp336
(dp337
g11
S'start: 12'
p338
sbatp339
Rp340
(dp341
g11
S'sent: 9'
p342
sbatp343
Rp344
(dp345
g11
S'id: 25'
p346
sbag0
(g1
g2
(lp347
g0
(g1
g2
(lp348
g0
(g1
g2
(lp349
VThe mom
p350
atp351
Rp352
(dp353
g11
S'start: 1'
p354
sbatp355
Rp356
(dp357
g11
S'sent: 4'
p358
sbag0
(g1
g2
(lp359
g0
(g1
g2
(lp360
Vshe
p361
atp362
Rp363
(dp364
g11
S'start: 5'
p365
sbatp366
Rp367
(dp368
g11
S'sent: 4'
p369
sbag0
(g1
g2
(lp370
g0
(g1
g2
(lp371
VThe mom
p372
atp373
Rp374
(dp375
g11
S'start: 1'
p376
sbatp377
Rp378
(dp379
g11
S'sent: 9'
p380
sbatp381
Rp382
(dp383
g11
S'id: 27'
p384
sbag0
(g1
g2
(lp385
g0
(g1
g2
(lp386
g0
(g1
g2
(lp387
VThe son
p388
atp389
Rp390
(dp391
g11
S'start: 1'
p392
sbatp393
Rp394
(dp395
g11
S'sent: 5'
p396
sbag0
(g1
g2
(lp397
g0
(g1
g2
(lp398
Vhis
p399
atp400
Rp401
(dp402
g11
S'start: 6'
p403
sbatp404
Rp405
(dp406
g11
S'sent: 5'
p407
sbatp408
Rp409
(dp410
g11
S'id: 32'
p411
sbag0
(g1
g2
(lp412
g0
(g1
g2
(lp413
g0
(g1
g2
(lp414
Vthe dog
p415
atp416
Rp417
(dp418
g11
S'start: 10'
p419
sbatp420
Rp421
(dp422
g11
S'sent: 5'
p423
sbag0
(g1
g2
(lp424
g0
(g1
g2
(lp425
Vhim
p426
atp427
Rp428
(dp429
g11
S'start: 16'
p430
sbatp431
Rp432
(dp433
g11
S'sent: 5'
p434
sbag0
(g1
g2
(lp435
g0
(g1
g2
(lp436
Vhis
p437
atp438
Rp439
(dp440
g11
S'start: 19'
p441
sbatp442
Rp443
(dp444
g11
S'sent: 5'
p445
sbatp446
Rp447
(dp448
g11
S'id: 35'
p449
sbag0
(g1
g2
(lp450
g0
(g1
g2
(lp451
g0
(g1
g2
(lp452
Va boat
p453
atp454
Rp455
(dp456
g11
S'start: 3'
p457
sbatp458
Rp459
(dp460
g11
S'sent: 6'
p461
sbag0
(g1
g2
(lp462
g0
(g1
g2
(lp463
Vit
p464
atp465
Rp466
(dp467
g11
S'start: 19'
p468
sbatp469
Rp470
(dp471
g11
S'sent: 6'
p472
sbatp473
Rp474
(dp475
g11
S'id: 42'
p476
sbag0
(g1
g2
(lp477
g0
(g1
g2
(lp478
g0
(g1
g2
(lp479
Vthe distance
p480
atp481
Rp482
(dp483
g11
S'start: 7'
p484
sbatp485
Rp486
(dp487
g11
S'sent: 6'
p488
sbag0
(g1
g2
(lp489
g0
(g1
g2
(lp490
Va sailboat
p491
atp492
Rp493
(dp494
g11
S'start: 10'
p495
sbatp496
Rp497
(dp498
g11
S'sent: 6'
p499
sbatp500
Rp501
(dp502
g11
S'id: 44'
p503
sbag0
(g1
g2
(lp504
g0
(g1
g2
(lp505
g0
(g1
g2
(lp506
Vtwo people on it
p507
atp508
Rp509
(dp510
g11
S'start: 16'
p511
sbatp512
Rp513
(dp514
g11
S'sent: 6'
p515
sbag0
(g1
g2
(lp516
g0
(g1
g2
(lp517
VThey
p518
atp519
Rp520
(dp521
g11
S'start: 1'
p522
sbatp523
Rp524
(dp525
g11
S'sent: 8'
p526
sbag0
(g1
g2
(lp527
g0
(g1
g2
(lp528
Vthey
p529
atp530
Rp531
(dp532
g11
S'start: 14'
p533
sbatp534
Rp535
(dp536
g11
S'sent: 8'
p537
sbag0
(g1
g2
(lp538
g0
(g1
g2
(lp539
Vthem
p540
atp541
Rp542
(dp543
g11
S'start: 16'
p544
sbatp545
Rp546
(dp547
g11
S'sent: 10'
p548
sbag0
(g1
g2
(lp549
g0
(g1
g2
(lp550
Vtheir
p551
atp552
Rp553
(dp554
g11
S'start: 10'
p555
sbatp556
Rp557
(dp558
g11
S'sent: 11'
p559
sbag0
(g1
g2
(lp560
g0
(g1
g2
(lp561
Vpeople 's
p562
atp563
Rp564
(dp565
g11
S'start: 9'
p566
sbatp567
Rp568
(dp569
g11
S'sent: 12'
p570
sbag0
(g1
g2
(lp571
g0
(g1
g2
(lp572
Vthat
p573
atp574
Rp575
(dp576
g11
S'start: 14'
p577
sbatp578
Rp579
(dp580
g11
S'sent: 12'
p581
sbag0
(g1
g2
(lp582
g0
(g1
g2
(lp583
Vtheir
p584
atp585
Rp586
(dp587
g11
S'start: 33'
p588
sbatp589
Rp590
(dp591
g11
S'sent: 12'
p592
sbatp593
Rp594
(dp595
g11
S'id: 47'
p596
sbag0
(g1
g2
(lp597
g0
(g1
g2
(lp598
g0
(g1
g2
(lp599
Va gentleman on the dock , who just caught a fish
p600
atp601
Rp602
(dp603
g11
S'start: 5'
p604
sbatp605
Rp606
(dp607
g11
S'sent: 7'
p608
sbag0
(g1
g2
(lp609
g0
(g1
g2
(lp610
Vhe
p611
atp612
Rp613
(dp614
g11
S'start: 18'
p615
sbatp616
Rp617
(dp618
g11
S'sent: 7'
p619
sbatp620
Rp621
(dp622
g11
S'id: 49'
p623
sbag0
(g1
g2
(lp624
g0
(g1
g2
(lp625
g0
(g1
g2
(lp626
Va fish
p627
atp628
Rp629
(dp630
g11
S'start: 14'
p631
sbatp632
Rp633
(dp634
g11
S'sent: 7'
p635
sbag0
(g1
g2
(lp636
g0
(g1
g2
(lp637
Vthat
p638
atp639
Rp640
(dp641
g11
S'start: 25'
p642
sbatp643
Rp644
(dp645
g11
S'sent: 7'
p646
sbatp647
Rp648
(dp649
g11
S'id: 52'
p650
sbag0
(g1
g2
(lp651
g0
(g1
g2
(lp652
g0
(g1
g2
(lp653
Vthe dad
p654
atp655
Rp656
(dp657
g11
S'start: 9'
p658
sbatp659
Rp660
(dp661
g11
S'sent: 9'
p662
sbag0
(g1
g2
(lp663
g0
(g1
g2
(lp664
Vhis
p665
atp666
Rp667
(dp668
g11
S'start: 12'
p669
sbatp670
Rp671
(dp672
g11
S'sent: 9'
p673
sbatp674
Rp675
(dp676
g11
S'id: 62'
p677
sbag0
(g1
g2
(lp678
g0
(g1
g2
(lp679
g0
(g1
g2
(lp680
Va car parked in the yard
p681
atp682
Rp683
(dp684
g11
S'start: 3'
p685
sbatp686
Rp687
(dp688
g11
S'sent: 10'
p689
sbag0
(g1
g2
(lp690
g0
(g1
g2
(lp691
Vit
p692
atp693
Rp694
(dp695
g11
S'start: 8'
p696
sbatp697
Rp698
(dp699
g11
S'sent: 11'
p700
sbag0
(g1
g2
(lp701
g0
(g1
g2
(lp702
Vtheir personal home
p703
atp704
Rp705
(dp706
g11
S'start: 10'
p707
sbatp708
Rp709
(dp710
g11
S'sent: 11'
p711
sbag0
(g1
g2
(lp712
g0
(g1
g2
(lp713
Vit
p714
atp715
Rp716
(dp717
g11
S'start: 15'
p718
sbatp719
Rp720
(dp721
g11
S'sent: 11'
p722
sbatp723
Rp724
(dp725
g11
S'id: 65'
p726
sbag0
(g1
g2
(lp727
g0
(g1
g2
(lp728
g0
(g1
g2
(lp729
Va a cabin , or something
p730
atp731
Rp732
(dp733
g11
S'start: 23'
p734
sbatp735
Rp736
(dp737
g11
S'sent: 11'
p738
sbag0
(g1
g2
(lp739
g0
(g1
g2
(lp740
Va cabin or something
p741
atp742
Rp743
(dp744
g11
S'start: 24'
p745
sbatp746
Rp747
(dp748
g11
S'sent: 12'
p749
sbatp750
Rp751
(dp752
g11
S'id: 76'
p753
sbag0
(g1
g2
(lp754
g0
(g1
g2
(lp755
g0
(g1
g2
(lp756
Va lot of flags in people 's yards
p757
atp758
Rp759
(dp760
g11
S'start: 4'
p761
sbatp762
Rp763
(dp764
g11
S'sent: 12'
p765
sbag0
(g1
g2
(lp766
g0
(g1
g2
(lp767
Vit
p768
atp769
Rp770
(dp771
g11
S'start: 21'
p772
sbatp773
Rp774
(dp775
g11
S'sent: 12'
p776
sbag0
(g1
g2
(lp777
g0
(g1
g2
(lp778
Vit
p779
atp780
Rp781
(dp782
g11
S'start: 30'
p783
sbatp784
Rp785
(dp786
g11
S'sent: 12'
p787
sbag0
(g1
g2
(lp788
g0
(g1
g2
(lp789
Vit
p790
atp791
Rp792
(dp793
g11
S'start: 2'
p794
sbatp795
Rp796
(dp797
g11
S'sent: 13'
p798
sbatp799
Rp800
(dp801
g11
S'id: 79'
p802
sbatp803
Rp804
(dp805
g11
S'coreferences'
p806
sb.