ccopy_reg
_reconstructor
p0
(cnltk.tree
Tree
p1
c__builtin__
list
p2
(lp3
g0
(g1
g2
(lp4
tp5
Rp6
(dp7
S'_label'
p8
S'id: 0'
p9
sbag0
(g1
g2
(lp10
g0
(g1
g2
(lp11
g0
(g1
g2
(lp12
(lp13
S'word: boy, index: 4'
p14
aatp15
Rp16
(dp17
g8
Vnsubj
p18
sbag0
(g1
g2
(lp19
g0
(g1
g2
(lp20
g0
(g1
g2
(lp21
(lp22
S'word: a, index: 8'
p23
aatp24
Rp25
(dp26
g8
Vdet
p27
sbatp28
Rp29
(dp30
g8
S'word: basket, index: 9'
p31
sbatp32
Rp33
(dp34
g8
Vprep
p35
sbag0
(g1
g2
(lp36
g0
(g1
g2
(lp37
g0
(g1
g2
(lp38
(lp39
S'word: no, index: 13'
p40
aatp41
Rp42
(dp43
g8
Vdep
p44
sbag0
(g1
g2
(lp45
(lp46
S'word: a, index: 14'
p47
aatp48
Rp49
(dp50
g8
Vdet
p51
sbatp52
Rp53
(dp54
g8
S'word: drink, index: 15'
p55
sbatp56
Rp57
(dp58
g8
Vconj
p59
sbag0
(g1
g2
(lp60
g0
(g1
g2
(lp61
g0
(g1
g2
(lp62
(lp63
S'word: boy, index: 4'
p64
aatp65
Rp66
(dp67
g8
Vconj
p68
sbatp69
Rp70
(dp71
g8
S'word: Boy, index: 1'
p72
sbatp73
Rp74
(dp75
g8
Vnsubj
p76
sbatp77
Rp78
(dp79
g8
S'word: sitting, index: 6'
p80
sbatp81
Rp82
(dp83
g8
S'id: 1'
p84
sbag0
(g1
g2
(lp85
g0
(g1
g2
(lp86
g0
(g1
g2
(lp87
g0
(g1
g2
(lp88
g0
(g1
g2
(lp89
(lp90
S'word: the, index: 15'
p91
aatp92
Rp93
(dp94
g8
Vdet
p95
sbatp96
Rp97
(dp98
g8
S'word: dog, index: 16'
p99
sbatp100
Rp101
(dp102
g8
Vnsubj
p103
sbag0
(g1
g2
(lp104
g0
(g1
g2
(lp105
g0
(g1
g2
(lp106
g0
(g1
g2
(lp107
g0
(g1
g2
(lp108
g0
(g1
g2
(lp109
g0
(g1
g2
(lp110
(lp111
S'word: the, index: 8'
p112
aatp113
Rp114
(dp115
g8
Vdet
p116
sbag0
(g1
g2
(lp117
(lp118
S'word: the, index: 10'
p119
aatp120
Rp121
(dp122
g8
Vdep
p123
sbatp124
Rp125
(dp126
g8
S'word: plane, index: 12'
p127
sbatp128
Rp129
(dp130
g8
Vdobj
p131
sbatp132
Rp133
(dp134
g8
S'word: walking, index: 7'
p135
sbatp136
Rp137
(dp138
g8
Vappos
p139
sbag0
(g1
g2
(lp140
g97
atp141
Rp142
(dp143
g8
Vconj
p144
sbag0
(g1
g2
(lp145
g0
(g1
g2
(lp146
g0
(g1
g2
(lp147
g133
atp148
Rp149
(dp150
g8
Vconj
p151
sbag0
(g1
g2
(lp152
(lp153
S'word: the, index: 3'
p154
aatp155
Rp156
(dp157
g8
Vdet
p158
sbatp159
Rp160
(dp161
g8
S'word: boy, index: 4'
p162
sbatp163
Rp164
(dp165
g8
Vappos
p166
sbatp167
Rp168
(dp169
g8
S'word: The, index: 1'
p170
sbatp171
Rp172
(dp173
g8
Vnsubj
p174
sbag0
(g1
g2
(lp175
(lp176
S'word: me, index: 19'
p177
aatp178
Rp179
(dp180
g8
Vprep
p181
sbatp182
Rp183
(dp184
g8
S'word: go, index: 17'
p185
sbatp186
Rp187
(dp188
g8
S'id: 2'
p189
sbag0
(g1
g2
(lp190
g0
(g1
g2
(lp191
g0
(g1
g2
(lp192
g0
(g1
g2
(lp193
g0
(g1
g2
(lp194
(lp195
S'word: the, index: 3'
p196
aatp197
Rp198
(dp199
g8
Vdet
p200
sbag0
(g1
g2
(lp201
g0
(g1
g2
(lp202
g0
(g1
g2
(lp203
(lp204
S'word: the, index: 7'
p205
aatp206
Rp207
(dp208
g8
Vdet
p209
sbatp210
Rp211
(dp212
g8
S'word: singing, index: 8'
p213
sbatp214
Rp215
(dp216
g8
Vconj
p217
sbatp218
Rp219
(dp220
g8
S'word: sailboat, index: 4'
p221
sbatp222
Rp223
(dp224
g8
Vappos
p225
sbag0
(g1
g2
(lp226
g211
atp227
Rp228
(dp229
g8
Vappos
p230
sbatp231
Rp232
(dp233
g8
S'word: The, index: 1'
p234
sbatp235
Rp236
(dp237
g8
S'id: 3'
p238
sbag0
(g1
g2
(lp239
g0
(g1
g2
(lp240
g0
(g1
g2
(lp241
(lp242
S'word: The, index: 1'
p243
aatp244
Rp245
(dp246
g8
Vdet
p247
sbag0
(g1
g2
(lp248
(lp249
S'word: boy, index: 4'
p250
aatp251
Rp252
(dp253
g8
Vappos
p254
sbag0
(g1
g2
(lp255
g0
(g1
g2
(lp256
g0
(g1
g2
(lp257
(lp258
S'word: I, index: 6'
p259
aatp260
Rp261
(dp262
g8
Vnsubj
p263
sbatp264
Rp265
(dp266
g8
S'word: mean, index: 7'
p267
sbatp268
Rp269
(dp270
g8
Vdep
p271
sbag0
(g1
g2
(lp272
g0
(g1
g2
(lp273
g0
(g1
g2
(lp274
(lp275
S'word: the, index: 9'
p276
aatp277
Rp278
(dp279
g8
Vdet
p280
sbag0
(g1
g2
(lp281
g0
(g1
g2
(lp282
g0
(g1
g2
(lp283
g0
(g1
g2
(lp284
g0
(g1
g2
(lp285
(lp286
S'word: a, index: 13'
p287
aatp288
Rp289
(dp290
g8
Vdet
p291
sbatp292
Rp293
(dp294
g8
S'word: fishing, index: 14'
p295
sbatp296
Rp297
(dp298
g8
Vprep
p299
sbatp300
Rp301
(dp302
g8
S'word: sitting, index: 11'
p303
sbatp304
Rp305
(dp306
g8
Vvmod
p307
sbatp308
Rp309
(dp310
g8
S'word: boy, index: 10'
p311
sbatp312
Rp313
(dp314
g8
Vappos
p315
sbatp316
Rp317
(dp318
g8
S'word: girl, index: 2'
p319
sbatp320
Rp321
(dp322
g8
S'id: 4'
p323
sbag0
(g1
g2
(lp324
g0
(g1
g2
(lp325
g0
(g1
g2
(lp326
g0
(g1
g2
(lp327
g0
(g1
g2
(lp328
(lp329
S'word: Their, index: 1'
p330
aatp331
Rp332
(dp333
g8
Vposs
p334
sbatp335
Rp336
(dp337
g8
S'word: house, index: 2'
p338
sbatp339
Rp340
(dp341
g8
Vnsubj
p342
sbag0
(g1
g2
(lp343
(lp344
S'word: is, index: 3'
p345
aatp346
Rp347
(dp348
g8
Vcop
p349
sbag0
(g1
g2
(lp350
(lp351
S'word: nice, index: 6'
p352
aatp353
Rp354
(dp355
g8
Vamod
p356
sbatp357
Rp358
(dp359
g8
S'word: a, index: 4'
p360
sbatp361
Rp362
(dp363
g8
S'id: 5'
p364
sbag0
(g1
g2
(lp365
g0
(g1
g2
(lp366
g0
(g1
g2
(lp367
(lp368
S"word: 're, index: 27"
p369
aatp370
Rp371
(dp372
g8
Vaux
p373
sbag0
(g1
g2
(lp374
(lp375
S'word: both, index: 28'
p376
aatp377
Rp378
(dp379
g8
Vadvmod
p380
sbag0
(g1
g2
(lp381
g0
(g1
g2
(lp382
g0
(g1
g2
(lp383
(lp384
S'word: the, index: 30'
p385
aatp386
Rp387
(dp388
g8
Vdet
p389
sbatp390
Rp391
(dp392
g8
S'word: book, index: 31'
p393
sbatp394
Rp395
(dp396
g8
Vdobj
p397
sbag0
(g1
g2
(lp398
g0
(g1
g2
(lp399
g0
(g1
g2
(lp400
g0
(g1
g2
(lp401
g0
(g1
g2
(lp402
(lp403
S'word: the, index: 3'
p404
aatp405
Rp406
(dp407
g8
Vdet
p408
sbatp409
Rp410
(dp411
g8
S'word: boy, index: 4'
p412
sbatp413
Rp414
(dp415
g8
Vappos
p416
sbag0
(g1
g2
(lp417
g0
(g1
g2
(lp418
g0
(g1
g2
(lp419
(lp420
S'word: no, index: 6'
p421
aatp422
Rp423
(dp424
g8
Vneg
p425
sbatp426
Rp427
(dp428
g8
S'word: boy, index: 7'
p429
sbatp430
Rp431
(dp432
g8
Vappos
p433
sbag0
(g1
g2
(lp434
g0
(g1
g2
(lp435
g0
(g1
g2
(lp436
(lp437
S'word: the, index: 9'
p438
aatp439
Rp440
(dp441
g8
Vdet
p442
sbag0
(g1
g2
(lp443
(lp444
S'word: little, index: 10'
p445
aatp446
Rp447
(dp448
g8
Vamod
p449
sbatp450
Rp451
(dp452
g8
S'word: boy, index: 11'
p453
sbatp454
Rp455
(dp456
g8
Vappos
p457
sbag0
(g1
g2
(lp458
g0
(g1
g2
(lp459
g0
(g1
g2
(lp460
g0
(g1
g2
(lp461
g0
(g1
g2
(lp462
(lp463
S'word: the, index: 20'
p464
aatp465
Rp466
(dp467
g8
Vdet
p468
sbag0
(g1
g2
(lp469
(lp470
S'word: singing, index: 24'
p471
aatp472
Rp473
(dp474
g8
Vconj
p475
sbag0
(g1
g2
(lp476
(lp477
S'word: they, index: 26'
p478
aatp479
Rp480
(dp481
g8
Vconj
p482
sbatp483
Rp484
(dp485
g8
S'word: boy, index: 21'
p486
sbatp487
Rp488
(dp489
g8
Vprep
p490
sbag0
(g1
g2
(lp491
(lp492
S'word: singing, index: 24'
p493
aatp494
Rp495
(dp496
g8
Vprep
p497
sbag0
(g1
g2
(lp498
(lp499
S'word: they, index: 26'
p500
aatp501
Rp502
(dp503
g8
Vprep
p504
sbag0
(g1
g2
(lp505
(lp506
S'word: what, index: 13'
p507
aatp508
Rp509
(dp510
g8
Vnsubj
p511
sbag0
(g1
g2
(lp512
(lp513
S'word: is, index: 14'
p514
aatp515
Rp516
(dp517
g8
Vcop
p518
sbag0
(g1
g2
(lp519
(lp520
S'word: singing, index: 17'
p521
aatp522
Rp523
(dp524
g8
Vappos
p525
sbatp526
Rp527
(dp528
g8
S'word: it, index: 15'
p529
sbatp530
Rp531
(dp532
g8
Vrcmod
p533
sbatp534
Rp535
(dp536
g8
S'word: The, index: 1'
p537
sbatp538
Rp539
(dp540
g8
Vnsubj
p541
sbatp542
Rp543
(dp544
g8
S'word: sitting, index: 29'
p545
sbatp546
Rp547
(dp548
g8
S'id: 6'
p549
sbag0
(g1
g2
(lp550
g0
(g1
g2
(lp551
g0
(g1
g2
(lp552
(lp553
S'word: And, index: 1'
p554
aatp555
Rp556
(dp557
g8
Vcc
p558
sbag0
(g1
g2
(lp559
(lp560
S'word: the, index: 2'
p561
aatp562
Rp563
(dp564
g8
Vdet
p565
sbag0
(g1
g2
(lp566
g0
(g1
g2
(lp567
g0
(g1
g2
(lp568
(lp569
S'word: playing, index: 6'
p570
aatp571
Rp572
(dp573
g8
Vdep
p574
sbatp575
Rp576
(dp577
g8
S'word: sitting, index: 4'
p578
sbatp579
Rp580
(dp581
g8
Vccomp
p582
sbatp583
Rp584
(dp585
g8
S'word: girl, index: 3'
p586
sbatp587
Rp588
(dp589
g8
S'id: 7'
p590
sbag0
(g1
g2
(lp591
g0
(g1
g2
(lp592
g0
(g1
g2
(lp593
(lp594
S'word: playing, index: 16'
p595
aatp596
Rp597
(dp598
g8
Vprep
p599
sbag0
(g1
g2
(lp600
g0
(g1
g2
(lp601
g0
(g1
g2
(lp602
g0
(g1
g2
(lp603
g0
(g1
g2
(lp604
(lp605
S'word: a, index: 7'
p606
aatp607
Rp608
(dp609
g8
Vdet
p610
sbatp611
Rp612
(dp613
g8
S'word: boy, index: 8'
p614
sbatp615
Rp616
(dp617
g8
Vprep
p618
sbag0
(g1
g2
(lp619
g0
(g1
g2
(lp620
g0
(g1
g2
(lp621
(lp622
S'word: the, index: 11'
p623
aatp624
Rp625
(dp626
g8
Vdet
p627
sbag0
(g1
g2
(lp628
(lp629
S'word: little, index: 12'
p630
aatp631
Rp632
(dp633
g8
Vamod
p634
sbatp635
Rp636
(dp637
g8
S'word: dog, index: 13'
p638
sbatp639
Rp640
(dp641
g8
Vprep
p642
sbag0
(g1
g2
(lp643
g0
(g1
g2
(lp644
g0
(g1
g2
(lp645
(lp646
S'word: the, index: 3'
p647
aatp648
Rp649
(dp650
g8
Vdet
p651
sbatp652
Rp653
(dp654
g8
S'word: kite, index: 4'
p655
sbatp656
Rp657
(dp658
g8
Vappos
p659
sbatp660
Rp661
(dp662
g8
S'word: The, index: 1'
p663
sbatp664
Rp665
(dp666
g8
Vnsubj
p667
sbatp668
Rp669
(dp670
g8
S'word: go, index: 14'
p671
sbatp672
Rp673
(dp674
g8
S'id: 8'
p675
sbag0
(g1
g2
(lp676
g0
(g1
g2
(lp677
g0
(g1
g2
(lp678
g0
(g1
g2
(lp679
g0
(g1
g2
(lp680
(lp681
S'word: sitting, index: 4'
p682
aatp683
Rp684
(dp685
g8
Vamod
p686
sbag0
(g1
g2
(lp687
g0
(g1
g2
(lp688
g0
(g1
g2
(lp689
(lp690
S'word: a, index: 6'
p691
aatp692
Rp693
(dp694
g8
Vdet
p695
sbatp696
Rp697
(dp698
g8
S'word: book, index: 7'
p699
sbatp700
Rp701
(dp702
g8
Vprep
p703
sbatp704
Rp705
(dp706
g8
S'word: the, index: 3'
p707
sbatp708
Rp709
(dp710
g8
Vappos
p711
sbatp712
Rp713
(dp714
g8
S'word: The, index: 1'
p715
sbatp716
Rp717
(dp718
g8
S'id: 9'
p719
sbag0
(g1
g2
(lp720
g0
(g1
g2
(lp721
g0
(g1
g2
(lp722
g0
(g1
g2
(lp723
g0
(g1
g2
(lp724
(lp725
S'word: man, index: 16'
p726
aatp727
Rp728
(dp729
g8
Vappos
p730
sbag0
(g1
g2
(lp731
g0
(g1
g2
(lp732
g0
(g1
g2
(lp733
(lp734
S'word: he, index: 18'
p735
aatp736
Rp737
(dp738
g8
Vnsubj
p739
sbag0
(g1
g2
(lp740
(lp741
S'word: was, index: 19'
p742
aatp743
Rp744
(dp745
g8
Vaux
p746
sbag0
(g1
g2
(lp747
(lp748
S'word: down, index: 21'
p749
aatp750
Rp751
(dp752
g8
Vprt
p753
sbatp754
Rp755
(dp756
g8
S'word: sawing, index: 20'
p757
sbatp758
Rp759
(dp760
g8
Vconj
p761
sbag0
(g1
g2
(lp762
g0
(g1
g2
(lp763
g0
(g1
g2
(lp764
(lp765
S'word: sitting, index: 8'
p766
aatp767
Rp768
(dp769
g8
Vamod
p770
sbag0
(g1
g2
(lp771
g0
(g1
g2
(lp772
g0
(g1
g2
(lp773
(lp774
S'word: no, index: 10'
p775
aatp776
Rp777
(dp778
g8
Vneg
p779
sbatp780
Rp781
(dp782
g8
S'word: boy, index: 11'
p783
sbatp784
Rp785
(dp786
g8
Vappos
p787
sbatp788
Rp789
(dp790
g8
S'word: boys, index: 7'
p791
sbatp792
Rp793
(dp794
g8
Vnsubj
p795
sbag0
(g1
g2
(lp796
(lp797
S'word: was, index: 13'
p798
aatp799
Rp800
(dp801
g8
Vcop
p802
sbatp803
Rp804
(dp805
g8
S'word: no, index: 14'
p806
sbatp807
Rp808
(dp809
g8
Vdep
p810
sbag0
(g1
g2
(lp811
(lp812
S'word: The, index: 1'
p813
aatp814
Rp815
(dp816
g8
Vdet
p817
sbag0
(g1
g2
(lp818
g755
atp819
Rp820
(dp821
g8
Vdep
p822
sbag0
(g1
g2
(lp823
g0
(g1
g2
(lp824
g0
(g1
g2
(lp825
(lp826
S'word: I, index: 4'
p827
aatp828
Rp829
(dp830
g8
Vnsubj
p831
sbatp832
Rp833
(dp834
g8
S'word: mean, index: 5'
p835
sbatp836
Rp837
(dp838
g8
Vdep
p839
sbag0
(g1
g2
(lp840
g0
(g1
g2
(lp841
g0
(g1
g2
(lp842
(lp843
S'word: down, index: 24'
p844
aatp845
Rp846
(dp847
g8
Vprt
p848
sbag0
(g1
g2
(lp849
g0
(g1
g2
(lp850
g0
(g1
g2
(lp851
(lp852
S'word: a, index: 26'
p853
aatp854
Rp855
(dp856
g8
Vdet
p857
sbatp858
Rp859
(dp860
g8
S'word: book, index: 27'
p861
sbatp862
Rp863
(dp864
g8
Vprep
p865
sbatp866
Rp867
(dp868
g8
S'word: sitting, index: 23'
p869
sbatp870
Rp871
(dp872
g8
Vvmod
p873
sbatp874
Rp875
(dp876
g8
S'word: boy, index: 2'
p877
sbatp878
Rp879
(dp880
g8
S'id: 10'
p881
sbag0
(g1
g2
(lp882
g0
(g1
g2
(lp883
g0
(g1
g2
(lp884
(lp885
S'word: The, index: 1'
p886
aatp887
Rp888
(dp889
g8
Vdet
p890
sbag0
(g1
g2
(lp891
(lp892
S'word: other, index: 2'
p893
aatp894
Rp895
(dp896
g8
Vamod
p897
sbag0
(g1
g2
(lp898
g0
(g1
g2
(lp899
g0
(g1
g2
(lp900
(lp901
S'word: the, index: 5'
p902
aatp903
Rp904
(dp905
g8
Vdet
p906
sbag0
(g1
g2
(lp907
g0
(g1
g2
(lp908
g0
(g1
g2
(lp909
g0
(g1
g2
(lp910
g0
(g1
g2
(lp911
(lp912
S'word: a, index: 10'
p913
aatp914
Rp915
(dp916
g8
Vdet
p917
sbatp918
Rp919
(dp920
g8
S'word: drink, index: 11'
p921
sbatp922
Rp923
(dp924
g8
Vprep
p925
sbatp926
Rp927
(dp928
g8
S'word: sitting, index: 8'
p929
sbatp930
Rp931
(dp932
g8
Vvmod
p933
sbatp934
Rp935
(dp936
g8
S'word: girl, index: 6'
p937
sbatp938
Rp939
(dp940
g8
Vappos
p941
sbag0
(g1
g2
(lp942
(lp943
S'word: singing, index: 14'
p944
aatp945
Rp946
(dp947
g8
Vprep
p948
sbatp949
Rp950
(dp951
g8
S'word: one, index: 3'
p952
sbatp953
Rp954
(dp955
g8
S'id: 11'
p956
sbag0
(g1
g2
(lp957
g0
(g1
g2
(lp958
g0
(g1
g2
(lp959
g0
(g1
g2
(lp960
g0
(g1
g2
(lp961
(lp962
S'word: The, index: 1'
p963
aatp964
Rp965
(dp966
g8
Vdet
p967
sbatp968
Rp969
(dp970
g8
S'word: house, index: 2'
p971
sbatp972
Rp973
(dp974
g8
Vnsubj
p975
sbag0
(g1
g2
(lp976
(lp977
S'word: is, index: 3'
p978
aatp979
Rp980
(dp981
g8
Vcop
p982
sbatp983
Rp984
(dp985
g8
S'word: nice, index: 4'
p986
sbatp987
Rp988
(dp989
g8
S'id: 12'
p990
sbatp991
Rp992
(dp993
g8
S'sentences'
p994
sb.