ccopy_reg
_reconstructor
p0
(cnltk.tree
Tree
p1
c__builtin__
list
p2
(lp3
g0
(g1
g2
(lp4
g0
(g1
g2
(lp5
g0
(g1
g2
(lp6
Vthis
p7
atp8
Rp9
(dp10
S'_label'
p11
S'start: 4'
p12
sbatp13
Rp14
(dp15
g11
S'sent: 1'
p16
sbag0
(g1
g2
(lp17
g0
(g1
g2
(lp18
Va circus
p19
atp20
Rp21
(dp22
g11
S'start: 6'
p23
sbatp24
Rp25
(dp26
g11
S'sent: 1'
p27
sbatp28
Rp29
(dp30
g11
S'id: 2'
p31
sbag0
(g1
g2
(lp32
g0
(g1
g2
(lp33
g0
(g1
g2
(lp34
Va woman
p35
atp36
Rp37
(dp38
g11
S'start: 3'
p39
sbatp40
Rp41
(dp42
g11
S'sent: 4'
p43
sbag0
(g1
g2
(lp44
g0
(g1
g2
(lp45
Vdaughter , son
p46
atp47
Rp48
(dp49
g11
S'start: 6'
p50
sbatp51
Rp52
(dp53
g11
S'sent: 4'
p54
sbatp55
Rp56
(dp57
g11
S'id: 11'
p58
sbag0
(g1
g2
(lp59
g0
(g1
g2
(lp60
g0
(g1
g2
(lp61
Va clown
p62
atp63
Rp64
(dp65
g11
S'start: 3'
p66
sbatp67
Rp68
(dp69
g11
S'sent: 5'
p70
sbag0
(g1
g2
(lp71
g0
(g1
g2
(lp72
VClown 's
p73
atp74
Rp75
(dp76
g11
S'start: 1'
p77
sbatp78
Rp79
(dp80
g11
S'sent: 12'
p81
sbag0
(g1
g2
(lp82
g0
(g1
g2
(lp83
VHe
p84
atp85
Rp86
(dp87
g11
S'start: 1'
p88
sbatp89
Rp90
(dp91
g11
S'sent: 13'
p92
sbag0
(g1
g2
(lp93
g0
(g1
g2
(lp94
VThe clown
p95
atp96
Rp97
(dp98
g11
S'start: 1'
p99
sbatp100
Rp101
(dp102
g11
S'sent: 15'
p103
sbatp104
Rp105
(dp106
g11
S'id: 13'
p107
sbag0
(g1
g2
(lp108
g0
(g1
g2
(lp109
g0
(g1
g2
(lp110
Va woman on a horse
p111
atp112
Rp113
(dp114
g11
S'start: 3'
p115
sbatp116
Rp117
(dp118
g11
S'sent: 6'
p119
sbag0
(g1
g2
(lp120
g0
(g1
g2
(lp121
VWoman 's
p122
atp123
Rp124
(dp125
g11
S'start: 1'
p126
sbatp127
Rp128
(dp129
g11
S'sent: 11'
p130
sbatp131
Rp132
(dp133
g11
S'id: 14'
p134
sbag0
(g1
g2
(lp135
g0
(g1
g2
(lp136
g0
(g1
g2
(lp137
Va man walking on the wire
p138
atp139
Rp140
(dp141
g11
S'start: 3'
p142
sbatp143
Rp144
(dp145
g11
S'sent: 8'
p146
sbag0
(g1
g2
(lp147
g0
(g1
g2
(lp148
V's
p149
atp150
Rp151
(dp152
g11
S'start: 2'
p153
sbatp154
Rp155
(dp156
g11
S'sent: 9'
p157
sbag0
(g1
g2
(lp158
g0
(g1
g2
(lp159
VThe man
p160
atp161
Rp162
(dp163
g11
S'start: 1'
p164
sbatp165
Rp166
(dp167
g11
S'sent: 16'
p168
sbatp169
Rp170
(dp171
g11
S'id: 18'
p172
sbag0
(g1
g2
(lp173
g0
(g1
g2
(lp174
g0
(g1
g2
(lp175
Va hat
p176
atp177
Rp178
(dp179
g11
S'start: 4'
p180
sbatp181
Rp182
(dp183
g11
S'sent: 13'
p184
sbag0
(g1
g2
(lp185
g0
(g1
g2
(lp186
Va hat
p187
atp188
Rp189
(dp190
g11
S'start: 4'
p191
sbatp192
Rp193
(dp194
g11
S'sent: 16'
p195
sbatp196
Rp197
(dp198
g11
S'id: 29'
p199
sbag0
(g1
g2
(lp200
g0
(g1
g2
(lp201
g0
(g1
g2
(lp202
Va tie
p203
atp204
Rp205
(dp206
g11
S'start: 2'
p207
sbatp208
Rp209
(dp210
g11
S'sent: 14'
p211
sbag0
(g1
g2
(lp212
g0
(g1
g2
(lp213
Vit
p214
atp215
Rp216
(dp217
g11
S'start: 6'
p218
sbatp219
Rp220
(dp221
g11
S'sent: 15'
p222
sbatp223
Rp224
(dp225
g11
S'id: 30'
p226
sbatp227
Rp228
(dp229
g11
S'coreferences'
p230
sb.