ccopy_reg
_reconstructor
p0
(cnltk.tree
Tree
p1
c__builtin__
list
p2
(lp3
g0
(g1
g2
(lp4
g0
(g1
g2
(lp5
g0
(g1
g2
(lp6
(lp7
S'word: Mother, index: 1'
p8
aatp9
Rp10
(dp11
S'_label'
p12
Vnsubj
p13
sbag0
(g1
g2
(lp14
(lp15
S'word: is, index: 2'
p16
aatp17
Rp18
(dp19
g12
Vaux
p20
sbag0
(g1
g2
(lp21
g0
(g1
g2
(lp22
g0
(g1
g2
(lp23
g0
(g1
g2
(lp24
g0
(g1
g2
(lp25
(lp26
S'word: the, index: 6'
p27
aatp28
Rp29
(dp30
g12
Vdet
p31
sbag0
(g1
g2
(lp32
g0
(g1
g2
(lp33
g0
(g1
g2
(lp34
(lp35
S'word: the, index: 9'
p36
aatp37
Rp38
(dp39
g12
Vdet
p40
sbatp41
Rp42
(dp43
g12
S'word: bishes, index: 10'
p44
sbatp45
Rp46
(dp47
g12
Vappos
p48
sbatp49
Rp50
(dp51
g12
S'word: bish, index: 7'
p52
sbatp53
Rp54
(dp55
g12
Vdobj
p56
sbatp57
Rp58
(dp59
g12
S'word: wiping, index: 5'
p60
sbatp61
Rp62
(dp63
g12
Vvmod
p64
sbatp65
Rp66
(dp67
g12
S'word: washing, index: 3'
p68
sbatp69
Rp70
(dp71
g12
S'id: 0'
p72
sbag0
(g1
g2
(lp73
g0
(g1
g2
(lp74
g0
(g1
g2
(lp75
g0
(g1
g2
(lp76
g0
(g1
g2
(lp77
(lp78
S'word: the, index: 5'
p79
aatp80
Rp81
(dp82
g12
Vdet
p83
sbag0
(g1
g2
(lp84
(lp85
S'word: kitch, index: 6'
p86
aatp87
Rp88
(dp89
g12
Vnn
p90
sbag0
(g1
g2
(lp91
(lp92
S'word: kitchen, index: 9'
p93
aatp94
Rp95
(dp96
g12
Vappos
p97
sbatp98
Rp99
(dp100
g12
S'word: bitchen, index: 7'
p101
sbatp102
Rp103
(dp104
g12
Vprep
p105
sbag0
(g1
g2
(lp106
g0
(g1
g2
(lp107
g0
(g1
g2
(lp108
(lp109
S'word: the, index: 12'
p110
aatp111
Rp112
(dp113
g12
Vdet
p114
sbatp115
Rp116
(dp117
g12
S'word: floor, index: 13'
p118
sbatp119
Rp120
(dp121
g12
Vprep
p122
sbag0
(g1
g2
(lp123
(lp124
S'word: Water, index: 1'
p125
aatp126
Rp127
(dp128
g12
Vnsubj
p129
sbag0
(g1
g2
(lp130
(lp131
S'word: is, index: 2'
p132
aatp133
Rp134
(dp135
g12
Vaux
p136
sbatp137
Rp138
(dp139
g12
S'word: flowing, index: 3'
p140
sbatp141
Rp142
(dp143
g12
S'id: 1'
p144
sbag0
(g1
g2
(lp145
g0
(g1
g2
(lp146
g0
(g1
g2
(lp147
(lp148
S'word: Water, index: 1'
p149
aatp150
Rp151
(dp152
g12
Vnsubj
p153
sbag0
(g1
g2
(lp154
(lp155
S'word: is, index: 2'
p156
aatp157
Rp158
(dp159
g12
Vaux
p160
sbag0
(g1
g2
(lp161
(lp162
S'word: everywhere, index: 4'
p163
aatp164
Rp165
(dp166
g12
Vadvmod
p167
sbatp168
Rp169
(dp170
g12
S'word: running, index: 3'
p171
sbatp172
Rp173
(dp174
g12
S'id: 2'
p175
sbag0
(g1
g2
(lp176
g0
(g1
g2
(lp177
g0
(g1
g2
(lp178
(lp179
S'word: is, index: 11'
p180
aatp181
Rp182
(dp183
g12
Vaux
p184
sbag0
(g1
g2
(lp185
g0
(g1
g2
(lp186
g0
(g1
g2
(lp187
(lp188
S'word: some, index: 13'
p189
aatp190
Rp191
(dp192
g12
Vdet
p193
sbatp194
Rp195
(dp196
g12
S'word: cookies, index: 14'
p197
sbatp198
Rp199
(dp200
g12
Vdobj
p201
sbag0
(g1
g2
(lp202
g0
(g1
g2
(lp203
g0
(g1
g2
(lp204
g0
(g1
g2
(lp205
g0
(g1
g2
(lp206
(lp207
S'word: little, index: 27'
p208
aatp209
Rp210
(dp211
g12
Vamod
p212
sbatp213
Rp214
(dp215
g12
S'word: boy, index: 28'
p216
sbatp217
Rp218
(dp219
g12
Vnsubj
p220
sbag0
(g1
g2
(lp221
(lp222
S'word: is, index: 29'
p223
aatp224
Rp225
(dp226
g12
Vaux
p227
sbag0
(g1
g2
(lp228
g0
(g1
g2
(lp229
g0
(g1
g2
(lp230
g0
(g1
g2
(lp231
g0
(g1
g2
(lp232
(lp233
S'word: the, index: 42'
p234
aatp235
Rp236
(dp237
g12
Vdet
p238
sbatp239
Rp240
(dp241
g12
S'word: char, index: 43'
p242
sbatp243
Rp244
(dp245
g12
Vappos
p246
sbag0
(g1
g2
(lp247
g0
(g1
g2
(lp248
g0
(g1
g2
(lp249
(lp250
S'word: chair, index: 47'
p251
aatp252
Rp253
(dp254
g12
Vappos
p255
sbatp256
Rp257
(dp258
g12
S'word: chair, index: 45'
p259
sbatp260
Rp261
(dp262
g12
Vappos
p263
sbag0
(g1
g2
(lp264
(lp265
S'word: the, index: 33'
p266
aatp267
Rp268
(dp269
g12
Vdet
p270
sbag0
(g1
g2
(lp271
(lp272
S'word: the, index: 34'
p273
aatp274
Rp275
(dp276
g12
Vdet
p277
sbag0
(g1
g2
(lp278
(lp279
S'word: the, index: 37'
p280
aatp281
Rp282
(dp283
g12
Vappos
p284
sbag0
(g1
g2
(lp285
g0
(g1
g2
(lp286
g0
(g1
g2
(lp287
(lp288
S'word: the, index: 39'
p289
aatp290
Rp291
(dp292
g12
Vdet
p293
sbatp294
Rp295
(dp296
g12
S'word: carl, index: 40'
p297
sbatp298
Rp299
(dp300
g12
Vappos
p301
sbatp302
Rp303
(dp304
g12
S'word: fid, index: 35'
p305
sbatp306
Rp307
(dp308
g12
Vprep
p309
sbatp310
Rp311
(dp312
g12
S'word: falling, index: 30'
p313
sbatp314
Rp315
(dp316
g12
Vconj
p317
sbag0
(g1
g2
(lp318
(lp319
S'word: the, index: 16'
p320
aatp321
Rp322
(dp323
g12
Vprep
p324
sbag0
(g1
g2
(lp325
g0
(g1
g2
(lp326
g0
(g1
g2
(lp327
g0
(g1
g2
(lp328
g0
(g1
g2
(lp329
(lp330
S'word: the, index: 9'
p331
aatp332
Rp333
(dp334
g12
Vdet
p335
sbatp336
Rp337
(dp338
g12
S'word: boy, index: 10'
p339
sbatp340
Rp341
(dp342
g12
Vappos
p343
sbag0
(g1
g2
(lp344
(lp345
S'word: the, index: 3'
p346
aatp347
Rp348
(dp349
g12
Vdet
p350
sbag0
(g1
g2
(lp351
(lp352
S'word: little, index: 4'
p353
aatp354
Rp355
(dp356
g12
Vamod
p357
sbag0
(g1
g2
(lp358
(lp359
S'word: boys, index: 7'
p360
aatp361
Rp362
(dp363
g12
Vconj
p364
sbatp365
Rp366
(dp367
g12
S'word: girls, index: 5'
p368
sbatp369
Rp370
(dp371
g12
Vnsubj
p372
sbag0
(g1
g2
(lp373
g0
(g1
g2
(lp374
g0
(g1
g2
(lp375
g311
atp376
Rp377
(dp378
g12
Vconj
p379
sbag0
(g1
g2
(lp380
g0
(g1
g2
(lp381
g0
(g1
g2
(lp382
(lp383
S'word: the, index: 19'
p384
aatp385
Rp386
(dp387
g12
Vdet
p388
sbatp389
Rp390
(dp391
g12
S'word: mother, index: 20'
p392
sbatp393
Rp394
(dp395
g12
Vnsubj
p396
sbag0
(g1
g2
(lp397
g0
(g1
g2
(lp398
g0
(g1
g2
(lp399
(lp400
S'word: too, index: 24'
p401
aatp402
Rp403
(dp404
g12
Vadvmod
p405
sbatp406
Rp407
(dp408
g12
S'word: mother, index: 23'
p409
sbatp410
Rp411
(dp412
g12
Vconj
p413
sbatp414
Rp415
(dp416
g12
S'word: ate, index: 21'
p417
sbatp418
Rp419
(dp420
g12
Vconj
p421
sbag0
(g1
g2
(lp422
(lp423
S'word: boys, index: 7'
p424
aatp425
Rp426
(dp427
g12
Vnsubj
p428
sbag0
(g1
g2
(lp429
g407
atp430
Rp431
(dp432
g12
Vconj
p433
sbatp434
Rp435
(dp436
g12
S'word: getting, index: 12'
p437
sbatp438
Rp439
(dp440
g12
S'id: 3'
p441
sbag0
(g1
g2
(lp442
g0
(g1
g2
(lp443
g0
(g1
g2
(lp444
(lp445
S'word: And, index: 1'
p446
aatp447
Rp448
(dp449
g12
Vcc
p450
sbag0
(g1
g2
(lp451
g0
(g1
g2
(lp452
g0
(g1
g2
(lp453
(lp454
S'word: the, index: 2'
p455
aatp456
Rp457
(dp458
g12
Vdet
p459
sbatp460
Rp461
(dp462
g12
S'word: grass, index: 3'
p463
sbatp464
Rp465
(dp466
g12
Vnsubj
p467
sbag0
(g1
g2
(lp468
(lp469
S'word: out, index: 5'
p470
aatp471
Rp472
(dp473
g12
Vadvmod
p474
sbag0
(g1
g2
(lp475
g0
(g1
g2
(lp476
g0
(g1
g2
(lp477
(lp478
S'word: the, index: 7'
p479
aatp480
Rp481
(dp482
g12
Vdet
p483
sbag0
(g1
g2
(lp484
g0
(g1
g2
(lp485
g0
(g1
g2
(lp486
g0
(g1
g2
(lp487
g0
(g1
g2
(lp488
g0
(g1
g2
(lp489
g0
(g1
g2
(lp490
g0
(g1
g2
(lp491
g0
(g1
g2
(lp492
(lp493
S'word: the, index: 13'
p494
aatp495
Rp496
(dp497
g12
Vdet
p498
sbatp499
Rp500
(dp501
g12
S'word: floor, index: 14'
p502
sbatp503
Rp504
(dp505
g12
Vpobj
p506
sbatp507
Rp508
(dp509
g12
S'word: on, index: 12'
p510
sbatp511
Rp512
(dp513
g12
Vpcomp
p514
sbatp515
Rp516
(dp517
g12
S'word: of, index: 11'
p518
sbatp519
Rp520
(dp521
g12
Vprep
p522
sbatp523
Rp524
(dp525
g12
S'word: kind, index: 10'
p526
sbatp527
Rp528
(dp529
g12
Vappos
p530
sbatp531
Rp532
(dp533
g12
S'word: picture, index: 8'
p534
sbatp535
Rp536
(dp537
g12
Vprep
p538
sbatp539
Rp540
(dp541
g12
S'word: is, index: 4'
p542
sbatp543
Rp544
(dp545
g12
S'id: 4'
p546
sbag0
(g1
g2
(lp547
g0
(g1
g2
(lp548
g0
(g1
g2
(lp549
g0
(g1
g2
(lp550
g0
(g1
g2
(lp551
(lp552
S'word: you, index: 15'
p553
aatp554
Rp555
(dp556
g12
Vnsubj
p557
sbag0
(g1
g2
(lp558
g0
(g1
g2
(lp559
g0
(g1
g2
(lp560
(lp561
S'word: that, index: 18'
p562
aatp563
Rp564
(dp565
g12
Vmark
p566
sbag0
(g1
g2
(lp567
(lp568
S'word: mother, index: 19'
p569
aatp570
Rp571
(dp572
g12
Vnsubj
p573
sbag0
(g1
g2
(lp574
(lp575
S'word: has, index: 20'
p576
aatp577
Rp578
(dp579
g12
Vaux
p580
sbag0
(g1
g2
(lp581
(lp582
S'word: out, index: 22'
p583
aatp584
Rp585
(dp586
g12
Vprt
p587
sbag0
(g1
g2
(lp588
g0
(g1
g2
(lp589
g0
(g1
g2
(lp590
(lp591
S'word: mother, index: 19'
p592
aatp593
Rp594
(dp595
g12
Vnsubj
p596
sbatp597
Rp598
(dp599
g12
S'word: washed, index: 24'
p600
sbatp601
Rp602
(dp603
g12
Vconj
p604
sbag0
(g1
g2
(lp605
g0
(g1
g2
(lp606
g0
(g1
g2
(lp607
(lp608
S'word: mother, index: 19'
p609
aatp610
Rp611
(dp612
g12
Vnsubj
p613
sbatp614
Rp615
(dp616
g12
S'word: wiped, index: 26'
p617
sbatp618
Rp619
(dp620
g12
Vconj
p621
sbatp622
Rp623
(dp624
g12
S'word: washed, index: 21'
p625
sbatp626
Rp627
(dp628
g12
Vccomp
p629
sbag0
(g1
g2
(lp630
g598
atp631
Rp632
(dp633
g12
Vccomp
p634
sbag0
(g1
g2
(lp635
g615
atp636
Rp637
(dp638
g12
Vccomp
p639
sbag0
(g1
g2
(lp640
(lp641
S'word: that, index: 14'
p642
aatp643
Rp644
(dp645
g12
Vmark
p646
sbatp647
Rp648
(dp649
g12
S'word: cleaned, index: 16'
p650
sbatp651
Rp652
(dp653
g12
Vccomp
p654
sbag0
(g1
g2
(lp655
(lp656
S'word: And, index: 1'
p657
aatp658
Rp659
(dp660
g12
Vcc
p661
sbag0
(g1
g2
(lp662
(lp663
S'word: there, index: 3'
p664
aatp665
Rp666
(dp667
g12
Vexpl
p668
sbag0
(g1
g2
(lp669
g0
(g1
g2
(lp670
g0
(g1
g2
(lp671
(lp672
S'word: some, index: 5'
p673
aatp674
Rp675
(dp676
g12
Vdet
p677
sbag0
(g1
g2
(lp678
g0
(g1
g2
(lp679
g0
(g1
g2
(lp680
(lp681
S'word: the, index: 8'
p682
aatp683
Rp684
(dp685
g12
Vdet
p686
sbag0
(g1
g2
(lp687
g0
(g1
g2
(lp688
g0
(g1
g2
(lp689
g0
(g1
g2
(lp690
g0
(g1
g2
(lp691
(lp692
S'word: plate, index: 11'
p693
aatp694
Rp695
(dp696
g12
Vnn
p697
sbatp698
Rp699
(dp700
g12
S'word: floor, index: 12'
p701
sbatp702
Rp703
(dp704
g12
Vdep
p705
sbatp706
Rp707
(dp708
g12
S'word: up, index: 10'
p709
sbatp710
Rp711
(dp712
g12
Vprep
p713
sbatp714
Rp715
(dp716
g12
S'word: line, index: 9'
p717
sbatp718
Rp719
(dp720
g12
Vprep
p721
sbatp722
Rp723
(dp724
g12
S'word: dishes, index: 6'
p725
sbatp726
Rp727
(dp728
g12
Vnsubj
p729
sbatp730
Rp731
(dp732
g12
S'word: is, index: 4'
p733
sbatp734
Rp735
(dp736
g12
S'id: 5'
p737
sbag0
(g1
g2
(lp738
g0
(g1
g2
(lp739
g0
(g1
g2
(lp740
g0
(g1
g2
(lp741
g0
(g1
g2
(lp742
(lp743
S'word: the, index: 2'
p744
aatp745
Rp746
(dp747
g12
Vdet
p748
sbatp749
Rp750
(dp751
g12
S'word: water, index: 3'
p752
sbatp753
Rp754
(dp755
g12
Vnsubj
p756
sbag0
(g1
g2
(lp757
(lp758
S'word: is, index: 4'
p759
aatp760
Rp761
(dp762
g12
Vaux
p763
sbag0
(g1
g2
(lp764
g0
(g1
g2
(lp765
g0
(g1
g2
(lp766
(lp767
S'word: the, index: 7'
p768
aatp769
Rp770
(dp771
g12
Vdet
p772
sbatp773
Rp774
(dp775
g12
S'word: floor, index: 8'
p776
sbatp777
Rp778
(dp779
g12
Vprep
p780
sbag0
(g1
g2
(lp781
g0
(g1
g2
(lp782
g0
(g1
g2
(lp783
(lp784
S'word: they, index: 11'
p785
aatp786
Rp787
(dp788
g12
Vnsubj
p789
sbag0
(g1
g2
(lp790
(lp791
S'word: will, index: 12'
p792
aatp793
Rp794
(dp795
g12
Vaux
p796
sbag0
(g1
g2
(lp797
g0
(g1
g2
(lp798
g0
(g1
g2
(lp799
(lp800
S'word: to, index: 14'
p801
aatp802
Rp803
(dp804
g12
Vaux
p805
sbag0
(g1
g2
(lp806
(lp807
S'word: them, index: 16'
p808
aatp809
Rp810
(dp811
g12
Vdobj
p812
sbag0
(g1
g2
(lp813
(lp814
S'word: up, index: 17'
p815
aatp816
Rp817
(dp818
g12
Vprt
p819
sbatp820
Rp821
(dp822
g12
S'word: get, index: 15'
p823
sbatp824
Rp825
(dp826
g12
Vxcomp
p827
sbatp828
Rp829
(dp830
g12
S'word: have, index: 13'
p831
sbatp832
Rp833
(dp834
g12
Vconj
p835
sbatp836
Rp837
(dp838
g12
S'word: running, index: 5'
p839
sbatp840
Rp841
(dp842
g12
S'id: 6'
p843
sbag0
(g1
g2
(lp844
g0
(g1
g2
(lp845
g0
(g1
g2
(lp846
(lp847
S"word: n't, index: 5"
p848
aatp849
Rp850
(dp851
g12
Vneg
p852
sbag0
(g1
g2
(lp853
g0
(g1
g2
(lp854
g0
(g1
g2
(lp855
(lp856
S'word: any, index: 7'
p857
aatp858
Rp859
(dp860
g12
Vdet
p861
sbatp862
Rp863
(dp864
g12
S'word: cookies, index: 8'
p865
sbatp866
Rp867
(dp868
g12
Vdobj
p869
sbag0
(g1
g2
(lp870
(lp871
S'word: yet, index: 9'
p872
aatp873
Rp874
(dp875
g12
Vadvmod
p876
sbag0
(g1
g2
(lp877
(lp878
S'word: of, index: 12'
p879
aatp880
Rp881
(dp882
g12
Vprepc
p883
sbag0
(g1
g2
(lp884
(lp885
S'word: of, index: 15'
p886
aatp887
Rp888
(dp889
g12
Vprepc
p890
sbag0
(g1
g2
(lp891
(lp892
S'word: Well, index: 1'
p893
aatp894
Rp895
(dp896
g12
Vadvmod
p897
sbag0
(g1
g2
(lp898
g0
(g1
g2
(lp899
g0
(g1
g2
(lp900
(lp901
S'word: the, index: 16'
p902
aatp903
Rp904
(dp905
g12
Vdet
p906
sbatp907
Rp908
(dp909
g12
S'word: jar, index: 17'
p910
sbatp911
Rp912
(dp913
g12
Vpobj
p914
sbag0
(g1
g2
(lp915
g0
(g1
g2
(lp916
g0
(g1
g2
(lp917
(lp918
S'word: the, index: 2'
p919
aatp920
Rp921
(dp922
g12
Vdet
p923
sbatp924
Rp925
(dp926
g12
S'word: girl, index: 3'
p927
sbatp928
Rp929
(dp930
g12
Vnsubj
p931
sbag0
(g1
g2
(lp932
(lp933
S'word: had, index: 4'
p934
aatp935
Rp936
(dp937
g12
Vaux
p938
sbatp939
Rp940
(dp941
g12
S'word: got, index: 6'
p942
sbatp943
Rp944
(dp945
g12
S'id: 7'
p946
sbag0
(g1
g2
(lp947
g0
(g1
g2
(lp948
g0
(g1
g2
(lp949
(lp950
S'word: Do, index: 1'
p951
aatp952
Rp953
(dp954
g12
Vaux
p955
sbag0
(g1
g2
(lp956
(lp957
S"word: n't, index: 2"
p958
aatp959
Rp960
(dp961
g12
Vneg
p962
sbag0
(g1
g2
(lp963
g0
(g1
g2
(lp964
g0
(g1
g2
(lp965
(lp966
S'word: what, index: 4'
p967
aatp968
Rp969
(dp970
g12
Vdobj
p971
sbag0
(g1
g2
(lp972
(lp973
S'word: this, index: 5'
p974
aatp975
Rp976
(dp977
g12
Vnsubj
p978
sbatp979
Rp980
(dp981
g12
S'word: is, index: 6'
p982
sbatp983
Rp984
(dp985
g12
Vccomp
p986
sbatp987
Rp988
(dp989
g12
S'word: know, index: 3'
p990
sbatp991
Rp992
(dp993
g12
S'id: 8'
p994
sbag0
(g1
g2
(lp995
g0
(g1
g2
(lp996
g0
(g1
g2
(lp997
g0
(g1
g2
(lp998
g0
(g1
g2
(lp999
(lp1000
S'word: I, index: 11'
p1001
aatp1002
Rp1003
(dp1004
g12
Vnsubj
p1005
sbag0
(g1
g2
(lp1006
g0
(g1
g2
(lp1007
g0
(g1
g2
(lp1008
g0
(g1
g2
(lp1009
g0
(g1
g2
(lp1010
(lp1011
S'word: the, index: 13'
p1012
aatp1013
Rp1014
(dp1015
g12
Vdet
p1016
sbag0
(g1
g2
(lp1017
g0
(g1
g2
(lp1018
g0
(g1
g2
(lp1019
(lp1020
S'word: the, index: 16'
p1021
aatp1022
Rp1023
(dp1024
g12
Vdet
p1025
sbatp1026
Rp1027
(dp1028
g12
S'word: mother, index: 17'
p1029
sbatp1030
Rp1031
(dp1032
g12
Vappos
p1033
sbatp1034
Rp1035
(dp1036
g12
S'word: mama, index: 14'
p1037
sbatp1038
Rp1039
(dp1040
g12
Vnsubj
p1041
sbag0
(g1
g2
(lp1042
(lp1043
S'word: had, index: 19'
p1044
aatp1045
Rp1046
(dp1047
g12
Vaux
p1048
sbag0
(g1
g2
(lp1049
(lp1050
S"word: n't, index: 20"
p1051
aatp1052
Rp1053
(dp1054
g12
Vneg
p1055
sbag0
(g1
g2
(lp1056
g0
(g1
g2
(lp1057
g0
(g1
g2
(lp1058
(lp1059
S'word: the, index: 22'
p1060
aatp1061
Rp1062
(dp1063
g12
Vdet
p1064
sbatp1065
Rp1066
(dp1067
g12
S'word: water, index: 23'
p1068
sbatp1069
Rp1070
(dp1071
g12
Vdobj
p1072
sbag0
(g1
g2
(lp1073
(lp1074
S'word: off, index: 24'
p1075
aatp1076
Rp1077
(dp1078
g12
Vprt
p1079
sbatp1080
Rp1081
(dp1082
g12
S'word: cut, index: 21'
p1083
sbatp1084
Rp1085
(dp1086
g12
Vccomp
p1087
sbatp1088
Rp1089
(dp1090
g12
S'word: see, index: 12'
p1091
sbatp1092
Rp1093
(dp1094
g12
Vccomp
p1095
sbag0
(g1
g2
(lp1096
g0
(g1
g2
(lp1097
g0
(g1
g2
(lp1098
(lp1099
S'word: it, index: 27'
p1100
aatp1101
Rp1102
(dp1103
g12
Vnsubj
p1104
sbag0
(g1
g2
(lp1105
(lp1106
S'word: is, index: 28'
p1107
aatp1108
Rp1109
(dp1110
g12
Vaux
p1111
sbag0
(g1
g2
(lp1112
g0
(g1
g2
(lp1113
g0
(g1
g2
(lp1114
(lp1115
S'word: the, index: 31'
p1116
aatp1117
Rp1118
(dp1119
g12
Vdet
p1120
sbatp1121
Rp1122
(dp1123
g12
S'word: floor, index: 32'
p1124
sbatp1125
Rp1126
(dp1127
g12
Vprep
p1128
sbatp1129
Rp1130
(dp1131
g12
S'word: running, index: 29'
p1132
sbatp1133
Rp1134
(dp1135
g12
Vconj
p1136
sbag0
(g1
g2
(lp1137
g0
(g1
g2
(lp1138
g0
(g1
g2
(lp1139
(lp1140
S'word: The, index: 1'
p1141
aatp1142
Rp1143
(dp1144
g12
Vdet
p1145
sbatp1146
Rp1147
(dp1148
g12
S'word: water, index: 2'
p1149
sbatp1150
Rp1151
(dp1152
g12
Vnsubj
p1153
sbag0
(g1
g2
(lp1154
(lp1155
S'word: is, index: 3'
p1156
aatp1157
Rp1158
(dp1159
g12
Vaux
p1160
sbag0
(g1
g2
(lp1161
g0
(g1
g2
(lp1162
g0
(g1
g2
(lp1163
g0
(g1
g2
(lp1164
g0
(g1
g2
(lp1165
(lp1166
S'word: the, index: 6'
p1167
aatp1168
Rp1169
(dp1170
g12
Vdet
p1171
sbatp1172
Rp1173
(dp1174
g12
S'word: water, index: 7'
p1175
sbatp1176
Rp1177
(dp1178
g12
Vnsubj
p1179
sbag0
(g1
g2
(lp1180
(lp1181
S'word: is, index: 8'
p1182
aatp1183
Rp1184
(dp1185
g12
Vaux
p1186
sbatp1187
Rp1188
(dp1189
g12
S'word: running, index: 9'
p1190
sbatp1191
Rp1192
(dp1193
g12
Vccomp
p1194
sbatp1195
Rp1196
(dp1197
g12
S'word: running, index: 4'
p1198
sbatp1199
Rp1200
(dp1201
g12
S'id: 9'
p1202
sbatp1203
Rp1204
(dp1205
g12
S'sentences'
p1206
sb.