ccopy_reg
_reconstructor
p0
(cnltk.tree
Tree
p1
c__builtin__
list
p2
(lp3
g0
(g1
g2
(lp4
g0
(g1
g2
(lp5
g0
(g1
g2
(lp6
g0
(g1
g2
(lp7
g0
(g1
g2
(lp8
Vthere
p9
atp10
Rp11
(dp12
S'_label'
p13
VEX
p14
sbatp15
Rp16
(dp17
g13
VNP
p18
sbag0
(g1
g2
(lp19
g0
(g1
g2
(lp20
Vare
p21
atp22
Rp23
(dp24
g13
VVBP
p25
sbatp26
Rp27
(dp28
g13
VVP
p29
sbatp30
Rp31
(dp32
g13
VS
p33
sbag0
(g1
g2
(lp34
g0
(g1
g2
(lp35
V,
p36
atp37
Rp38
(dp39
g13
V,
p40
sbag0
(g1
g2
(lp41
g0
(g1
g2
(lp42
g0
(g1
g2
(lp43
Vthere
p44
atp45
Rp46
(dp47
g13
VEX
p48
sbatp49
Rp50
(dp51
g13
VNP
p52
sbag0
(g1
g2
(lp53
g0
(g1
g2
(lp54
V's
p55
atp56
Rp57
(dp58
g13
VVBZ
p59
sbag0
(g1
g2
(lp60
g0
(g1
g2
(lp61
Va
p62
atp63
Rp64
(dp65
g13
VDT
p66
sbag0
(g1
g2
(lp67
Vlion
p68
atp69
Rp70
(dp71
g13
VNN
p72
sbatp73
Rp74
(dp75
g13
VNP
p76
sbatp77
Rp78
(dp79
g13
VVP
p80
sbatp81
Rp82
(dp83
g13
VS
p84
sbag0
(g1
g2
(lp85
V,
p86
atp87
Rp88
(dp89
g13
V,
p90
sbatp91
Rp92
(dp93
g13
VPRN
p94
sbag0
(g1
g2
(lp95
Vand
p96
atp97
Rp98
(dp99
g13
VCC
p100
sbag0
(g1
g2
(lp101
g0
(g1
g2
(lp102
g0
(g1
g2
(lp103
Vthere
p104
atp105
Rp106
(dp107
g13
VEX
p108
sbatp109
Rp110
(dp111
g13
VNP
p112
sbag0
(g1
g2
(lp113
g0
(g1
g2
(lp114
V's
p115
atp116
Rp117
(dp118
g13
VVBZ
p119
sbag0
(g1
g2
(lp120
g0
(g1
g2
(lp121
g0
(g1
g2
(lp122
Va
p123
atp124
Rp125
(dp126
g13
VDT
p127
sbag0
(g1
g2
(lp128
Vman
p129
atp130
Rp131
(dp132
g13
VNN
p133
sbatp134
Rp135
(dp136
g13
VNP
p137
sbag0
(g1
g2
(lp138
g0
(g1
g2
(lp139
g0
(g1
g2
(lp140
Vwho
p141
atp142
Rp143
(dp144
g13
VWP
p145
sbatp146
Rp147
(dp148
g13
VWHNP
p149
sbag0
(g1
g2
(lp150
g0
(g1
g2
(lp151
g0
(g1
g2
(lp152
V's
p153
atp154
Rp155
(dp156
g13
VVBZ
p157
sbag0
(g1
g2
(lp158
g0
(g1
g2
(lp159
Vin
p160
atp161
Rp162
(dp163
g13
VIN
p164
sbag0
(g1
g2
(lp165
g0
(g1
g2
(lp166
g0
(g1
g2
(lp167
Vcharge
p168
atp169
Rp170
(dp171
g13
VNN
p172
sbatp173
Rp174
(dp175
g13
VNP
p176
sbag0
(g1
g2
(lp177
g0
(g1
g2
(lp178
Vof
p179
atp180
Rp181
(dp182
g13
VIN
p183
sbag0
(g1
g2
(lp184
g0
(g1
g2
(lp185
Vthe
p186
atp187
Rp188
(dp189
g13
VDT
p190
sbag0
(g1
g2
(lp191
Vlion
p192
atp193
Rp194
(dp195
g13
VNN
p196
sbatp197
Rp198
(dp199
g13
VNP
p200
sbatp201
Rp202
(dp203
g13
VPP
p204
sbatp205
Rp206
(dp207
g13
VNP
p208
sbatp209
Rp210
(dp211
g13
VPP
p212
sbatp213
Rp214
(dp215
g13
VVP
p216
sbatp217
Rp218
(dp219
g13
VS
p220
sbatp221
Rp222
(dp223
g13
VSBAR
p224
sbatp225
Rp226
(dp227
g13
VNP
p228
sbatp229
Rp230
(dp231
g13
VVP
p232
sbatp233
Rp234
(dp235
g13
VS
p236
sbag0
(g1
g2
(lp237
V.
p238
atp239
Rp240
(dp241
g13
V.
p242
sbatp243
Rp244
(dp245
g13
VS
p246
sbatp247
Rp248
(dp249
g13
S'id: 0'
p250
sbag0
(g1
g2
(lp251
g0
(g1
g2
(lp252
g0
(g1
g2
(lp253
VAnd
p254
atp255
Rp256
(dp257
g13
VCC
p258
sbag0
(g1
g2
(lp259
g0
(g1
g2
(lp260
g0
(g1
g2
(lp261
g0
(g1
g2
(lp262
Vthere
p263
atp264
Rp265
(dp266
g13
VEX
p267
sbatp268
Rp269
(dp270
g13
VNP
p271
sbag0
(g1
g2
(lp272
g0
(g1
g2
(lp273
Vtwo
p274
atp275
Rp276
(dp277
g13
VCD
p278
sbag0
(g1
g2
(lp279
Vlittle
p280
atp281
Rp282
(dp283
g13
VJJ
p284
sbag0
(g1
g2
(lp285
Vblack
p286
atp287
Rp288
(dp289
g13
VJJ
p290
sbag0
(g1
g2
(lp291
Vchildren
p292
atp293
Rp294
(dp295
g13
VNNS
p296
sbatp297
Rp298
(dp299
g13
VNP
p300
sbatp301
Rp302
(dp303
g13
VNP
p304
sbag0
(g1
g2
(lp305
g0
(g1
g2
(lp306
Vin
p307
atp308
Rp309
(dp310
g13
VIN
p311
sbag0
(g1
g2
(lp312
g0
(g1
g2
(lp313
g0
(g1
g2
(lp314
Vthe
p315
atp316
Rp317
(dp318
g13
VDT
p319
sbag0
(g1
g2
(lp320
Vleft
p321
atp322
Rp323
(dp324
g13
VJJ
p325
sbag0
(g1
g2
(lp326
Vhand
p327
atp328
Rp329
(dp330
g13
VNN
p331
sbag0
(g1
g2
(lp332
Vside
p333
atp334
Rp335
(dp336
g13
VNN
p337
sbatp338
Rp339
(dp340
g13
VNP
p341
sbag0
(g1
g2
(lp342
g0
(g1
g2
(lp343
Vof
p344
atp345
Rp346
(dp347
g13
VIN
p348
sbag0
(g1
g2
(lp349
g0
(g1
g2
(lp350
Vthe
p351
atp352
Rp353
(dp354
g13
VDT
p355
sbag0
(g1
g2
(lp356
Vscreen
p357
atp358
Rp359
(dp360
g13
VNN
p361
sbatp362
Rp363
(dp364
g13
VNP
p365
sbatp366
Rp367
(dp368
g13
VPP
p369
sbatp370
Rp371
(dp372
g13
VNP
p373
sbatp374
Rp375
(dp376
g13
VPP
p377
sbatp378
Rp379
(dp380
g13
VNP
p381
sbag0
(g1
g2
(lp382
V.
p383
atp384
Rp385
(dp386
g13
V.
p387
sbatp388
Rp389
(dp390
g13
VFRAG
p391
sbatp392
Rp393
(dp394
g13
S'id: 1'
p395
sbag0
(g1
g2
(lp396
g0
(g1
g2
(lp397
g0
(g1
g2
(lp398
VAnd
p399
atp400
Rp401
(dp402
g13
VCC
p403
sbag0
(g1
g2
(lp404
g0
(g1
g2
(lp405
Vthere
p406
atp407
Rp408
(dp409
g13
VEX
p410
sbatp411
Rp412
(dp413
g13
VNP
p414
sbag0
(g1
g2
(lp415
g0
(g1
g2
(lp416
V's
p417
atp418
Rp419
(dp420
g13
VVBZ
p421
sbag0
(g1
g2
(lp422
g0
(g1
g2
(lp423
g0
(g1
g2
(lp424
g0
(g1
g2
(lp425
g0
(g1
g2
(lp426
Va
p427
atp428
Rp429
(dp430
g13
VDT
p431
sbatp432
Rp433
(dp434
g13
VNP
p435
sbag0
(g1
g2
(lp436
V,
p437
atp438
Rp439
(dp440
g13
V,
p441
sbag0
(g1
g2
(lp442
g0
(g1
g2
(lp443
g0
(g1
g2
(lp444
Va
p445
atp446
Rp447
(dp448
g13
VDT
p449
sbag0
(g1
g2
(lp450
Vpopcorn
p451
atp452
Rp453
(dp454
g13
VNN
p455
sbag0
(g1
g2
(lp456
Vman
p457
atp458
Rp459
(dp460
g13
VNN
p461
sbatp462
Rp463
(dp464
g13
VNP
p465
sbag0
(g1
g2
(lp466
g0
(g1
g2
(lp467
Vwith
p468
atp469
Rp470
(dp471
g13
VIN
p472
sbag0
(g1
g2
(lp473
g0
(g1
g2
(lp474
g0
(g1
g2
(lp475
Va
p476
atp477
Rp478
(dp479
g13
VDT
p480
sbag0
(g1
g2
(lp481
Vhat
p482
atp483
Rp484
(dp485
g13
VNN
p486
sbatp487
Rp488
(dp489
g13
VNP
p490
sbag0
(g1
g2
(lp491
g0
(g1
g2
(lp492
Von
p493
atp494
Rp495
(dp496
g13
VIN
p497
sbatp498
Rp499
(dp500
g13
VPP
p501
sbatp502
Rp503
(dp504
g13
VNP
p505
sbatp506
Rp507
(dp508
g13
VPP
p509
sbatp510
Rp511
(dp512
g13
VNP
p513
sbatp514
Rp515
(dp516
g13
VNP
p517
sbag0
(g1
g2
(lp518
V,
p519
atp520
Rp521
(dp522
g13
V,
p523
sbag0
(g1
g2
(lp524
Vand
p525
atp526
Rp527
(dp528
g13
VCC
p529
sbag0
(g1
g2
(lp530
g0
(g1
g2
(lp531
g0
(g1
g2
(lp532
g0
(g1
g2
(lp533
Vcircles
p534
atp535
Rp536
(dp537
g13
VNNS
p538
sbatp539
Rp540
(dp541
g13
VNP
p542
sbag0
(g1
g2
(lp543
g0
(g1
g2
(lp544
Varound
p545
atp546
Rp547
(dp548
g13
VIN
p549
sbag0
(g1
g2
(lp550
g0
(g1
g2
(lp551
Vhim
p552
atp553
Rp554
(dp555
g13
VPRP
p556
sbatp557
Rp558
(dp559
g13
VNP
p560
sbatp561
Rp562
(dp563
g13
VPP
p564
sbatp565
Rp566
(dp567
g13
VNP
p568
sbag0
(g1
g2
(lp569
V,
p570
atp571
Rp572
(dp573
g13
V,
p574
sbag0
(g1
g2
(lp575
Vand
p576
atp577
Rp578
(dp579
g13
VCC
p580
sbag0
(g1
g2
(lp581
g0
(g1
g2
(lp582
Vstripes
p583
atp584
Rp585
(dp586
g13
VNNS
p587
sbatp588
Rp589
(dp590
g13
VNP
p591
sbatp592
Rp593
(dp594
g13
VNP
p595
sbag0
(g1
g2
(lp596
V,
p597
atp598
Rp599
(dp600
g13
V,
p601
sbag0
(g1
g2
(lp602
Vand
p603
atp604
Rp605
(dp606
g13
VCC
p607
sbag0
(g1
g2
(lp608
g0
(g1
g2
(lp609
g0
(g1
g2
(lp610
Vflowers
p611
atp612
Rp613
(dp614
g13
VNNS
p615
sbatp616
Rp617
(dp618
g13
VNP
p619
sbag0
(g1
g2
(lp620
g0
(g1
g2
(lp621
Von
p622
atp623
Rp624
(dp625
g13
VIN
p626
sbag0
(g1
g2
(lp627
g0
(g1
g2
(lp628
Vhis
p629
atp630
Rp631
(dp632
g13
VPRP$
p633
sbag0
(g1
g2
(lp634
Vbouquet
p635
atp636
Rp637
(dp638
g13
VNN
p639
sbatp640
Rp641
(dp642
g13
VNP
p643
sbatp644
Rp645
(dp646
g13
VPP
p647
sbatp648
Rp649
(dp650
g13
VNP
p651
sbag0
(g1
g2
(lp652
V,
p653
atp654
Rp655
(dp656
g13
V,
p657
sbatp658
Rp659
(dp660
g13
VNP
p661
sbag0
(g1
g2
(lp662
g0
(g1
g2
(lp663
Von
p664
atp665
Rp666
(dp667
g13
VIN
p668
sbag0
(g1
g2
(lp669
g0
(g1
g2
(lp670
Vhis
p671
atp672
Rp673
(dp674
g13
VPRP$
p675
sbag0
(g1
g2
(lp676
Vtie
p677
atp678
Rp679
(dp680
g13
VNN
p681
sbatp682
Rp683
(dp684
g13
VNP
p685
sbatp686
Rp687
(dp688
g13
VPP
p689
sbatp690
Rp691
(dp692
g13
VNP
p693
sbatp694
Rp695
(dp696
g13
VVP
p697
sbag0
(g1
g2
(lp698
V.
p699
atp700
Rp701
(dp702
g13
V.
p703
sbatp704
Rp705
(dp706
g13
VS
p707
sbatp708
Rp709
(dp710
g13
S'id: 2'
p711
sbag0
(g1
g2
(lp712
g0
(g1
g2
(lp713
g0
(g1
g2
(lp714
VAnd
p715
atp716
Rp717
(dp718
g13
VCC
p719
sbag0
(g1
g2
(lp720
g0
(g1
g2
(lp721
Vthere
p722
atp723
Rp724
(dp725
g13
VEX
p726
sbatp727
Rp728
(dp729
g13
VNP
p730
sbag0
(g1
g2
(lp731
g0
(g1
g2
(lp732
g0
(g1
g2
(lp733
g0
(g1
g2
(lp734
Vthree
p735
atp736
Rp737
(dp738
g13
VCD
p739
sbag0
(g1
g2
(lp740
Vfamily
p741
atp742
Rp743
(dp744
g13
VNN
p745
sbag0
(g1
g2
(lp746
Vmembers
p747
atp748
Rp749
(dp750
g13
VNNS
p751
sbatp752
Rp753
(dp754
g13
VNP
p755
sbag0
(g1
g2
(lp756
g0
(g1
g2
(lp757
Vto
p758
atp759
Rp760
(dp761
g13
VTO
p762
sbag0
(g1
g2
(lp763
g0
(g1
g2
(lp764
Vthe
p765
atp766
Rp767
(dp768
g13
VDT
p769
sbag0
(g1
g2
(lp770
Vright
p771
atp772
Rp773
(dp774
g13
VNN
p775
sbatp776
Rp777
(dp778
g13
VNP
p779
sbatp780
Rp781
(dp782
g13
VPP
p783
sbag0
(g1
g2
(lp784
V,
p785
atp786
Rp787
(dp788
g13
V,
p789
sbag0
(g1
g2
(lp790
g0
(g1
g2
(lp791
g0
(g1
g2
(lp792
g0
(g1
g2
(lp793
Vthere
p794
atp795
Rp796
(dp797
g13
VEX
p798
sbatp799
Rp800
(dp801
g13
VNP
p802
sbag0
(g1
g2
(lp803
g0
(g1
g2
(lp804
V's
p805
atp806
Rp807
(dp808
g13
VVBZ
p809
sbag0
(g1
g2
(lp810
g0
(g1
g2
(lp811
Va
p812
atp813
Rp814
(dp815
g13
VDT
p816
sbag0
(g1
g2
(lp817
Vlady
p818
atp819
Rp820
(dp821
g13
VNN
p822
sbatp823
Rp824
(dp825
g13
VNP
p826
sbatp827
Rp828
(dp829
g13
VVP
p830
sbatp831
Rp832
(dp833
g13
VS
p834
sbatp835
Rp836
(dp837
g13
VSBAR
p838
sbatp839
Rp840
(dp841
g13
VNP
p842
sbag0
(g1
g2
(lp843
g0
(g1
g2
(lp844
V,
p845
atp846
Rp847
(dp848
g13
V,
p849
sbag0
(g1
g2
(lp850
Vand
p851
atp852
Rp853
(dp854
g13
VCC
p855
sbag0
(g1
g2
(lp856
g0
(g1
g2
(lp857
g0
(g1
g2
(lp858
Va
p859
atp860
Rp861
(dp862
g13
VDT
p863
sbag0
(g1
g2
(lp864
Vyoung
p865
atp866
Rp867
(dp868
g13
VJJ
p869
sbag0
(g1
g2
(lp870
Vboy
p871
atp872
Rp873
(dp874
g13
VNN
p875
sbag0
(g1
g2
(lp876
V,
p877
atp878
Rp879
(dp880
g13
V,
p881
sbatp882
Rp883
(dp884
g13
VNP
p885
sbag0
(g1
g2
(lp886
Vand
p887
atp888
Rp889
(dp890
g13
VCC
p891
sbag0
(g1
g2
(lp892
g0
(g1
g2
(lp893
Va
p894
atp895
Rp896
(dp897
g13
VDT
p898
sbag0
(g1
g2
(lp899
Vyoung
p900
atp901
Rp902
(dp903
g13
VJJ
p904
sbag0
(g1
g2
(lp905
Vgirl
p906
atp907
Rp908
(dp909
g13
VNN
p910
sbatp911
Rp912
(dp913
g13
VNP
p914
sbatp915
Rp916
(dp917
g13
VNP
p918
sbatp919
Rp920
(dp921
g13
VPRN
p922
sbatp923
Rp924
(dp925
g13
VVP
p926
sbag0
(g1
g2
(lp927
V.
p928
atp929
Rp930
(dp931
g13
V.
p932
sbatp933
Rp934
(dp935
g13
VS
p936
sbatp937
Rp938
(dp939
g13
S'id: 3'
p940
sbag0
(g1
g2
(lp941
g0
(g1
g2
(lp942
g0
(g1
g2
(lp943
g0
(g1
g2
(lp944
VThere
p945
atp946
Rp947
(dp948
g13
VEX
p949
sbatp950
Rp951
(dp952
g13
VNP
p953
sbag0
(g1
g2
(lp954
g0
(g1
g2
(lp955
Vis
p956
atp957
Rp958
(dp959
g13
VVBZ
p960
sbag0
(g1
g2
(lp961
g0
(g1
g2
(lp962
g0
(g1
g2
(lp963
Va
p964
atp965
Rp966
(dp967
g13
VDT
p968
sbag0
(g1
g2
(lp969
Vhigh
p970
atp971
Rp972
(dp973
g13
VJJ
p974
sbag0
(g1
g2
(lp975
Vwire
p976
atp977
Rp978
(dp979
g13
VNN
p980
sbag0
(g1
g2
(lp981
Vperson
p982
atp983
Rp984
(dp985
g13
VNN
p986
sbatp987
Rp988
(dp989
g13
VNP
p990
sbag0
(g1
g2
(lp991
g0
(g1
g2
(lp992
Vgoing
p993
atp994
Rp995
(dp996
g13
VVBG
p997
sbag0
(g1
g2
(lp998
g0
(g1
g2
(lp999
Vacross
p1000
atp1001
Rp1002
(dp1003
g13
VIN
p1004
sbag0
(g1
g2
(lp1005
Von
p1006
atp1007
Rp1008
(dp1009
g13
VIN
p1010
sbag0
(g1
g2
(lp1011
g0
(g1
g2
(lp1012
g0
(g1
g2
(lp1013
Vlittle
p1014
atp1015
Rp1016
(dp1017
g13
VJJ
p1018
sbatp1019
Rp1020
(dp1021
g13
VNP
p1022
sbag0
(g1
g2
(lp1023
V,
p1024
atp1025
Rp1026
(dp1027
g13
V,
p1028
sbag0
(g1
g2
(lp1029
g0
(g1
g2
(lp1030
g0
(g1
g2
(lp1031
Vone
p1032
atp1033
Rp1034
(dp1035
g13
VCD
p1036
sbatp1037
Rp1038
(dp1039
g13
VNP
p1040
sbag0
(g1
g2
(lp1041
g0
(g1
g2
(lp1042
Vof
p1043
atp1044
Rp1045
(dp1046
g13
VIN
p1047
sbag0
(g1
g2
(lp1048
g0
(g1
g2
(lp1049
Vthe
p1050
atp1051
Rp1052
(dp1053
g13
VDT
p1054
sbag0
(g1
g2
(lp1055
Vlittle
p1056
atp1057
Rp1058
(dp1059
g13
VJJ
p1060
sbag0
(g1
g2
(lp1061
Vbraids
p1062
atp1063
Rp1064
(dp1065
g13
VNNS
p1066
sbatp1067
Rp1068
(dp1069
g13
VNP
p1070
sbatp1071
Rp1072
(dp1073
g13
VPP
p1074
sbag0
(g1
g2
(lp1075
g0
(g1
g2
(lp1076
g0
(g1
g2
(lp1077
Vthat
p1078
atp1079
Rp1080
(dp1081
g13
VWDT
p1082
sbatp1083
Rp1084
(dp1085
g13
VWHNP
p1086
sbag0
(g1
g2
(lp1087
g0
(g1
g2
(lp1088
g0
(g1
g2
(lp1089
Vgoes
p1090
atp1091
Rp1092
(dp1093
g13
VVBZ
p1094
sbag0
(g1
g2
(lp1095
g0
(g1
g2
(lp1096
Vacross
p1097
atp1098
Rp1099
(dp1100
g13
VIN
p1101
sbag0
(g1
g2
(lp1102
V,
p1103
atp1104
Rp1105
(dp1106
g13
V,
p1107
sbag0
(g1
g2
(lp1108
g0
(g1
g2
(lp1109
Vthe
p1110
atp1111
Rp1112
(dp1113
g13
VDT
p1114
sbatp1115
Rp1116
(dp1117
g13
VADVP
p1118
sbag0
(g1
g2
(lp1119
V,
p1120
atp1121
Rp1122
(dp1123
g13
V,
p1124
sbag0
(g1
g2
(lp1125
g0
(g1
g2
(lp1126
g0
(g1
g2
(lp1127
Vthe
p1128
atp1129
Rp1130
(dp1131
g13
VDT
p1132
sbatp1133
Rp1134
(dp1135
g13
VNP
p1136
sbag0
(g1
g2
(lp1137
V,
p1138
atp1139
Rp1140
(dp1141
g13
V,
p1142
sbag0
(g1
g2
(lp1143
g0
(g1
g2
(lp1144
Vthe
p1145
atp1146
Rp1147
(dp1148
g13
VDT
p1149
sbag0
(g1
g2
(lp1150
Vscenery
p1151
atp1152
Rp1153
(dp1154
g13
VNN
p1155
sbatp1156
Rp1157
(dp1158
g13
VNP
p1159
sbatp1160
Rp1161
(dp1162
g13
VNP
p1163
sbatp1164
Rp1165
(dp1166
g13
VPP
p1167
sbatp1168
Rp1169
(dp1170
g13
VVP
p1171
sbatp1172
Rp1173
(dp1174
g13
VS
p1175
sbatp1176
Rp1177
(dp1178
g13
VSBAR
p1179
sbatp1180
Rp1181
(dp1182
g13
VNP
p1183
sbatp1184
Rp1185
(dp1186
g13
VNP
p1187
sbatp1188
Rp1189
(dp1190
g13
VPP
p1191
sbatp1192
Rp1193
(dp1194
g13
VVP
p1195
sbatp1196
Rp1197
(dp1198
g13
VNP
p1199
sbatp1200
Rp1201
(dp1202
g13
VVP
p1203
sbag0
(g1
g2
(lp1204
V.
p1205
atp1206
Rp1207
(dp1208
g13
V.
p1209
sbatp1210
Rp1211
(dp1212
g13
VS
p1213
sbatp1214
Rp1215
(dp1216
g13
S'id: 4'
p1217
sbag0
(g1
g2
(lp1218
g0
(g1
g2
(lp1219
g0
(g1
g2
(lp1220
g0
(g1
g2
(lp1221
VAnd
p1222
atp1223
Rp1224
(dp1225
g13
VCC
p1226
sbag0
(g1
g2
(lp1227
g0
(g1
g2
(lp1228
Vthen
p1229
atp1230
Rp1231
(dp1232
g13
VRB
p1233
sbatp1234
Rp1235
(dp1236
g13
VADVP
p1237
sbag0
(g1
g2
(lp1238
g0
(g1
g2
(lp1239
Vthere
p1240
atp1241
Rp1242
(dp1243
g13
VEX
p1244
sbatp1245
Rp1246
(dp1247
g13
VNP
p1248
sbag0
(g1
g2
(lp1249
g0
(g1
g2
(lp1250
Vis
p1251
atp1252
Rp1253
(dp1254
g13
VVBZ
p1255
sbag0
(g1
g2
(lp1256
g0
(g1
g2
(lp1257
g0
(g1
g2
(lp1258
Va
p1259
atp1260
Rp1261
(dp1262
g13
VDT
p1263
sbag0
(g1
g2
(lp1264
Vlady
p1265
atp1266
Rp1267
(dp1268
g13
VNN
p1269
sbatp1270
Rp1271
(dp1272
g13
VNP
p1273
sbag0
(g1
g2
(lp1274
g0
(g1
g2
(lp1275
Vriding
p1276
atp1277
Rp1278
(dp1279
g13
VVBG
p1280
sbag0
(g1
g2
(lp1281
g0
(g1
g2
(lp1282
g0
(g1
g2
(lp1283
Va
p1284
atp1285
Rp1286
(dp1287
g13
VDT
p1288
sbag0
(g1
g2
(lp1289
Vhorse
p1290
atp1291
Rp1292
(dp1293
g13
VNN
p1294
sbatp1295
Rp1296
(dp1297
g13
VNP
p1298
sbag0
(g1
g2
(lp1299
g0
(g1
g2
(lp1300
Vwith
p1301
atp1302
Rp1303
(dp1304
g13
VIN
p1305
sbag0
(g1
g2
(lp1306
g0
(g1
g2
(lp1307
Va
p1308
atp1309
Rp1310
(dp1311
g13
VDT
p1312
sbag0
(g1
g2
(lp1313
Vfancy
p1314
atp1315
Rp1316
(dp1317
g13
VJJ
p1318
sbag0
(g1
g2
(lp1319
Vdress
p1320
atp1321
Rp1322
(dp1323
g13
VNN
p1324
sbatp1325
Rp1326
(dp1327
g13
VNP
p1328
sbatp1329
Rp1330
(dp1331
g13
VPP
p1332
sbatp1333
Rp1334
(dp1335
g13
VNP
p1336
sbag0
(g1
g2
(lp1337
g0
(g1
g2
(lp1338
Von
p1339
atp1340
Rp1341
(dp1342
g13
VIN
p1343
sbatp1344
Rp1345
(dp1346
g13
VPP
p1347
sbatp1348
Rp1349
(dp1350
g13
VVP
p1351
sbatp1352
Rp1353
(dp1354
g13
VNP
p1355
sbatp1356
Rp1357
(dp1358
g13
VVP
p1359
sbatp1360
Rp1361
(dp1362
g13
VS
p1363
sbag0
(g1
g2
(lp1364
V,
p1365
atp1366
Rp1367
(dp1368
g13
V,
p1369
sbag0
(g1
g2
(lp1370
Vand
p1371
atp1372
Rp1373
(dp1374
g13
VCC
p1375
sbag0
(g1
g2
(lp1376
g0
(g1
g2
(lp1377
g0
(g1
g2
(lp1378
Vshe
p1379
atp1380
Rp1381
(dp1382
g13
VPRP
p1383
sbatp1384
Rp1385
(dp1386
g13
VNP
p1387
sbag0
(g1
g2
(lp1388
g0
(g1
g2
(lp1389
Vhas
p1390
atp1391
Rp1392
(dp1393
g13
VVBZ
p1394
sbag0
(g1
g2
(lp1395
g0
(g1
g2
(lp1396
Vher
p1397
atp1398
Rp1399
(dp1400
g13
VPRP$
p1401
sbag0
(g1
g2
(lp1402
Vhands
p1403
atp1404
Rp1405
(dp1406
g13
VNNS
p1407
sbatp1408
Rp1409
(dp1410
g13
VNP
p1411
sbag0
(g1
g2
(lp1412
g0
(g1
g2
(lp1413
Vout
p1414
atp1415
Rp1416
(dp1417
g13
VIN
p1418
sbag0
(g1
g2
(lp1419
Vstraight
p1420
atp1421
Rp1422
(dp1423
g13
VRB
p1424
sbatp1425
Rp1426
(dp1427
g13
VPP
p1428
sbatp1429
Rp1430
(dp1431
g13
VVP
p1432
sbatp1433
Rp1434
(dp1435
g13
VS
p1436
sbag0
(g1
g2
(lp1437
V.
p1438
atp1439
Rp1440
(dp1441
g13
V.
p1442
sbatp1443
Rp1444
(dp1445
g13
VS
p1446
sbatp1447
Rp1448
(dp1449
g13
S'id: 5'
p1450
sbag0
(g1
g2
(lp1451
g0
(g1
g2
(lp1452
g0
(g1
g2
(lp1453
g0
(g1
g2
(lp1454
VAnd
p1455
atp1456
Rp1457
(dp1458
g13
VCC
p1459
sbag0
(g1
g2
(lp1460
g0
(g1
g2
(lp1461
Vthen
p1462
atp1463
Rp1464
(dp1465
g13
VRB
p1466
sbatp1467
Rp1468
(dp1469
g13
VADVP
p1470
sbag0
(g1
g2
(lp1471
g0
(g1
g2
(lp1472
Vthere
p1473
atp1474
Rp1475
(dp1476
g13
VEX
p1477
sbatp1478
Rp1479
(dp1480
g13
VNP
p1481
sbag0
(g1
g2
(lp1482
g0
(g1
g2
(lp1483
Vare
p1484
atp1485
Rp1486
(dp1487
g13
VVBP
p1488
sbag0
(g1
g2
(lp1489
g0
(g1
g2
(lp1490
Vsome
p1491
atp1492
Rp1493
(dp1494
g13
VDT
p1495
sbag0
(g1
g2
(lp1496
Vchildren
p1497
atp1498
Rp1499
(dp1500
g13
VNNS
p1501
sbatp1502
Rp1503
(dp1504
g13
VNP
p1505
sbatp1506
Rp1507
(dp1508
g13
VVP
p1509
sbatp1510
Rp1511
(dp1512
g13
VS
p1513
sbag0
(g1
g2
(lp1514
V,
p1515
atp1516
Rp1517
(dp1518
g13
V,
p1519
sbag0
(g1
g2
(lp1520
g0
(g1
g2
(lp1521
VI
p1522
atp1523
Rp1524
(dp1525
g13
VPRP
p1526
sbatp1527
Rp1528
(dp1529
g13
VNP
p1530
sbag0
(g1
g2
(lp1531
g0
(g1
g2
(lp1532
V'm
p1533
atp1534
Rp1535
(dp1536
g13
VVBP
p1537
sbag0
(g1
g2
(lp1538
Vnot
p1539
atp1540
Rp1541
(dp1542
g13
VRB
p1543
sbag0
(g1
g2
(lp1544
g0
(g1
g2
(lp1545
Vsure
p1546
atp1547
Rp1548
(dp1549
g13
VJJ
p1550
sbag0
(g1
g2
(lp1551
g0
(g1
g2
(lp1552
g0
(g1
g2
(lp1553
g0
(g1
g2
(lp1554
g0
(g1
g2
(lp1555
Vwho
p1556
atp1557
Rp1558
(dp1559
g13
VWP
p1560
sbatp1561
Rp1562
(dp1563
g13
VWHNP
p1564
sbag0
(g1
g2
(lp1565
g0
(g1
g2
(lp1566
g0
(g1
g2
(lp1567
Vthey
p1568
atp1569
Rp1570
(dp1571
g13
VPRP
p1572
sbatp1573
Rp1574
(dp1575
g13
VNP
p1576
sbag0
(g1
g2
(lp1577
g0
(g1
g2
(lp1578
g0
(g1
g2
(lp1579
Vare
p1580
atp1581
Rp1582
(dp1583
g13
VVBP
p1584
sbatp1585
Rp1586
(dp1587
g13
VVP
p1588
sbag0
(g1
g2
(lp1589
V,
p1590
atp1591
Rp1592
(dp1593
g13
V,
p1594
sbag0
(g1
g2
(lp1595
Vbut
p1596
atp1597
Rp1598
(dp1599
g13
VCC
p1600
sbag0
(g1
g2
(lp1601
g0
(g1
g2
(lp1602
g0
(g1
g2
(lp1603
Vthey
p1604
atp1605
Rp1606
(dp1607
g13
VPRP
p1608
sbatp1609
Rp1610
(dp1611
g13
VNP
p1612
sbatp1613
Rp1614
(dp1615
g13
VVP
p1616
sbatp1617
Rp1618
(dp1619
g13
VVP
p1620
sbatp1621
Rp1622
(dp1623
g13
VS
p1624
sbatp1625
Rp1626
(dp1627
g13
VSBAR
p1628
sbag0
(g1
g2
(lp1629
g0
(g1
g2
(lp1630
Vthey
p1631
atp1632
Rp1633
(dp1634
g13
VPRP
p1635
sbatp1636
Rp1637
(dp1638
g13
VNP
p1639
sbag0
(g1
g2
(lp1640
g0
(g1
g2
(lp1641
Vlook
p1642
atp1643
Rp1644
(dp1645
g13
VVBP
p1646
sbag0
(g1
g2
(lp1647
g0
(g1
g2
(lp1648
Vas
p1649
atp1650
Rp1651
(dp1652
g13
VIN
p1653
sbag0
(g1
g2
(lp1654
Vif
p1655
atp1656
Rp1657
(dp1658
g13
VIN
p1659
sbag0
(g1
g2
(lp1660
g0
(g1
g2
(lp1661
g0
(g1
g2
(lp1662
Vthey
p1663
atp1664
Rp1665
(dp1666
g13
VPRP
p1667
sbatp1668
Rp1669
(dp1670
g13
VNP
p1671
sbag0
(g1
g2
(lp1672
g0
(g1
g2
(lp1673
Vare
p1674
atp1675
Rp1676
(dp1677
g13
VVBP
p1678
sbag0
(g1
g2
(lp1679
g0
(g1
g2
(lp1680
Vlike
p1681
atp1682
Rp1683
(dp1684
g13
VIN
p1685
sbag0
(g1
g2
(lp1686
g0
(g1
g2
(lp1687
Vkids
p1688
atp1689
Rp1690
(dp1691
g13
VNNS
p1692
sbatp1693
Rp1694
(dp1695
g13
VNP
p1696
sbatp1697
Rp1698
(dp1699
g13
VPP
p1700
sbatp1701
Rp1702
(dp1703
g13
VVP
p1704
sbatp1705
Rp1706
(dp1707
g13
VS
p1708
sbatp1709
Rp1710
(dp1711
g13
VSBAR
p1712
sbatp1713
Rp1714
(dp1715
g13
VVP
p1716
sbatp1717
Rp1718
(dp1719
g13
VS
p1720
sbatp1721
Rp1722
(dp1723
g13
VSBAR
p1724
sbatp1725
Rp1726
(dp1727
g13
VADJP
p1728
sbatp1729
Rp1730
(dp1731
g13
VVP
p1732
sbag0
(g1
g2
(lp1733
V.
p1734
atp1735
Rp1736
(dp1737
g13
V.
p1738
sbatp1739
Rp1740
(dp1741
g13
VS
p1742
sbatp1743
Rp1744
(dp1745
g13
S'id: 6'
p1746
sbag0
(g1
g2
(lp1747
g0
(g1
g2
(lp1748
g0
(g1
g2
(lp1749
VAnd
p1750
atp1751
Rp1752
(dp1753
g13
VCC
p1754
sbag0
(g1
g2
(lp1755
g0
(g1
g2
(lp1756
VI
p1757
atp1758
Rp1759
(dp1760
g13
VPRP
p1761
sbatp1762
Rp1763
(dp1764
g13
VNP
p1765
sbag0
(g1
g2
(lp1766
g0
(g1
g2
(lp1767
Vguess
p1768
atp1769
Rp1770
(dp1771
g13
VVBP
p1772
sbag0
(g1
g2
(lp1773
g0
(g1
g2
(lp1774
g0
(g1
g2
(lp1775
g0
(g1
g2
(lp1776
Vthat
p1777
atp1778
Rp1779
(dp1780
g13
VDT
p1781
sbatp1782
Rp1783
(dp1784
g13
VNP
p1785
sbag0
(g1
g2
(lp1786
g0
(g1
g2
(lp1787
V's
p1788
atp1789
Rp1790
(dp1791
g13
VVBZ
p1792
sbag0
(g1
g2
(lp1793
g0
(g1
g2
(lp1794
Vall
p1795
atp1796
Rp1797
(dp1798
g13
VDT
p1799
sbatp1800
Rp1801
(dp1802
g13
VNP
p1803
sbatp1804
Rp1805
(dp1806
g13
VVP
p1807
sbatp1808
Rp1809
(dp1810
g13
VS
p1811
sbatp1812
Rp1813
(dp1814
g13
VSBAR
p1815
sbatp1816
Rp1817
(dp1818
g13
VVP
p1819
sbag0
(g1
g2
(lp1820
V.
p1821
atp1822
Rp1823
(dp1824
g13
V.
p1825
sbatp1826
Rp1827
(dp1828
g13
VS
p1829
sbatp1830
Rp1831
(dp1832
g13
S'id: 7'
p1833
sbag0
(g1
g2
(lp1834
g0
(g1
g2
(lp1835
g0
(g1
g2
(lp1836
VAnd
p1837
atp1838
Rp1839
(dp1840
g13
VCC
p1841
sbag0
(g1
g2
(lp1842
g0
(g1
g2
(lp1843
Vthere
p1844
atp1845
Rp1846
(dp1847
g13
VEX
p1848
sbatp1849
Rp1850
(dp1851
g13
VNP
p1852
sbag0
(g1
g2
(lp1853
g0
(g1
g2
(lp1854
g0
(g1
g2
(lp1855
g0
(g1
g2
(lp1856
Vwires
p1857
atp1858
Rp1859
(dp1860
g13
VNNS
p1861
sbatp1862
Rp1863
(dp1864
g13
VNP
p1865
sbag0
(g1
g2
(lp1866
Varound
p1867
atp1868
Rp1869
(dp1870
g13
VIN
p1871
sbag0
(g1
g2
(lp1872
g0
(g1
g2
(lp1873
g0
(g1
g2
(lp1874
Vthe
p1875
atp1876
Rp1877
(dp1878
g13
VDT
p1879
sbatp1880
Rp1881
(dp1882
g13
VNP
p1883
sbag0
(g1
g2
(lp1884
V,
p1885
atp1886
Rp1887
(dp1888
g13
V,
p1889
sbag0
(g1
g2
(lp1890
g0
(g1
g2
(lp1891
Vthe
p1892
atp1893
Rp1894
(dp1895
g13
VDT
p1896
sbag0
(g1
g2
(lp1897
Vlion
p1898
atp1899
Rp1900
(dp1901
g13
VNN
p1902
sbatp1903
Rp1904
(dp1905
g13
VNP
p1906
sbatp1907
Rp1908
(dp1909
g13
VNP
p1910
sbatp1911
Rp1912
(dp1913
g13
VPP
p1914
sbag0
(g1
g2
(lp1915
V,
p1916
atp1917
Rp1918
(dp1919
g13
V,
p1920
sbag0
(g1
g2
(lp1921
Vand
p1922
atp1923
Rp1924
(dp1925
g13
VCC
p1926
sbag0
(g1
g2
(lp1927
g0
(g1
g2
(lp1928
Von
p1929
atp1930
Rp1931
(dp1932
g13
VIN
p1933
sbag0
(g1
g2
(lp1934
g0
(g1
g2
(lp1935
Vthe
p1936
atp1937
Rp1938
(dp1939
g13
VDT
p1940
sbag0
(g1
g2
(lp1941
Vtop
p1942
atp1943
Rp1944
(dp1945
g13
VNN
p1946
sbag0
(g1
g2
(lp1947
Vthey
p1948
atp1949
Rp1950
(dp1951
g13
VPRP
p1952
sbatp1953
Rp1954
(dp1955
g13
VNP
p1956
sbatp1957
Rp1958
(dp1959
g13
VPP
p1960
sbatp1961
Rp1962
(dp1963
g13
VPP
p1964
sbag0
(g1
g2
(lp1965
g0
(g1
g2
(lp1966
Vhave
p1967
atp1968
Rp1969
(dp1970
g13
VVBP
p1971
sbag0
(g1
g2
(lp1972
g0
(g1
g2
(lp1973
Vsome
p1974
atp1975
Rp1976
(dp1977
g13
VDT
p1978
sbag0
(g1
g2
(lp1979
Vdesigns
p1980
atp1981
Rp1982
(dp1983
g13
VNNS
p1984
sbatp1985
Rp1986
(dp1987
g13
VNP
p1988
sbatp1989
Rp1990
(dp1991
g13
VVP
p1992
sbag0
(g1
g2
(lp1993
V.
p1994
atp1995
Rp1996
(dp1997
g13
V.
p1998
sbatp1999
Rp2000
(dp2001
g13
VS
p2002
sbatp2003
Rp2004
(dp2005
g13
S'id: 8'
p2006
sbatp2007
Rp2008
(dp2009
g13
S'sentences'
p2010
sb.