ccopy_reg
_reconstructor
p0
(cnltk.tree
Tree
p1
c__builtin__
list
p2
(lp3
g0
(g1
g2
(lp4
tp5
Rp6
(dp7
S'_label'
p8
S'id: 0'
p9
sbag0
(g1
g2
(lp10
tp11
Rp12
(dp13
g8
S'id: 1'
p14
sbag0
(g1
g2
(lp15
g0
(g1
g2
(lp16
g0
(g1
g2
(lp17
g0
(g1
g2
(lp18
g0
(g1
g2
(lp19
(lp20
S'word: radio, index: 12'
p21
aatp22
Rp23
(dp24
g8
Vconj
p25
sbag0
(g1
g2
(lp26
(lp27
S'word: bottle, index: 15'
p28
aatp29
Rp30
(dp31
g8
Vconj
p32
sbatp33
Rp34
(dp35
g8
S'word: shoes, index: 9'
p36
sbatp37
Rp38
(dp39
g8
Vdep
p40
sbag0
(g1
g2
(lp41
(lp42
S'word: radio, index: 12'
p43
aatp44
Rp45
(dp46
g8
Vdep
p47
sbag0
(g1
g2
(lp48
(lp49
S'word: bottle, index: 15'
p50
aatp51
Rp52
(dp53
g8
Vdep
p54
sbag0
(g1
g2
(lp55
g0
(g1
g2
(lp56
g0
(g1
g2
(lp57
(lp58
S'word: shoes, index: 6'
p59
aatp60
Rp61
(dp62
g8
Vappos
p63
sbag0
(g1
g2
(lp64
(lp65
S'word: off, index: 7'
p66
aatp67
Rp68
(dp69
g8
Vdep
p70
sbag0
(g1
g2
(lp71
(lp72
S'word: and, index: 3'
p73
aatp74
Rp75
(dp76
g8
Vcc
p77
sbatp78
Rp79
(dp80
g8
S'word: man, index: 4'
p81
sbatp82
Rp83
(dp84
g8
Vdep
p85
sbatp86
Rp87
(dp88
g8
S'word: wife, index: 1'
p89
sbatp90
Rp91
(dp92
g8
S'id: 2'
p93
sbag0
(g1
g2
(lp94
g0
(g1
g2
(lp95
g0
(g1
g2
(lp96
(lp97
S'word: bottle, index: 1'
p98
aatp99
Rp100
(dp101
g8
Vnn
p102
sbag0
(g1
g2
(lp103
(lp104
S'word: and, index: 4'
p105
aatp106
Rp107
(dp108
g8
Vadvmod
p109
sbag0
(g1
g2
(lp110
g0
(g1
g2
(lp111
g0
(g1
g2
(lp112
(lp113
S'word: cot, index: 8'
p114
aatp115
Rp116
(dp117
g8
Vappos
p118
sbatp119
Rp120
(dp121
g8
S'word: dog, index: 6'
p122
sbatp123
Rp124
(dp125
g8
Vappos
p126
sbatp127
Rp128
(dp129
g8
S'word: wine, index: 2'
p130
sbatp131
Rp132
(dp133
g8
S'id: 3'
p134
sbag0
(g1
g2
(lp135
g0
(g1
g2
(lp136
g0
(g1
g2
(lp137
g0
(g1
g2
(lp138
g0
(g1
g2
(lp139
(lp140
S'word: fly, index: 6'
p141
aatp142
Rp143
(dp144
g8
Vconj
p145
sbag0
(g1
g2
(lp146
(lp147
S'word: kite, index: 9'
p148
aatp149
Rp150
(dp151
g8
Vconj
p152
sbatp153
Rp154
(dp155
g8
S'word: dog, index: 4'
p156
sbatp157
Rp158
(dp159
g8
Vconj
p160
sbag0
(g1
g2
(lp161
(lp162
S'word: fly, index: 6'
p163
aatp164
Rp165
(dp166
g8
Vconj
p167
sbag0
(g1
g2
(lp168
(lp169
S'word: kite, index: 9'
p170
aatp171
Rp172
(dp173
g8
Vconj
p174
sbatp175
Rp176
(dp177
g8
S'word: youth, index: 1'
p178
sbatp179
Rp180
(dp181
g8
S'id: 4'
p182
sbag0
(g1
g2
(lp183
g0
(g1
g2
(lp184
g0
(g1
g2
(lp185
(lp186
S'word: sand, index: 2'
p187
aatp188
Rp189
(dp190
g8
Vnn
p191
sbag0
(g1
g2
(lp192
(lp193
S'word: girl, index: 6'
p194
aatp195
Rp196
(dp197
g8
Vconj
p198
sbag0
(g1
g2
(lp199
(lp200
S'word: man, index: 9'
p201
aatp202
Rp203
(dp204
g8
Vconj
p205
sbatp206
Rp207
(dp208
g8
S'word: castle, index: 3'
p209
sbatp210
Rp211
(dp212
g8
S'id: 5'
p213
sbag0
(g1
g2
(lp214
g0
(g1
g2
(lp215
g0
(g1
g2
(lp216
(lp217
S'word: boat, index: 3'
p218
aatp219
Rp220
(dp221
g8
Vappos
p222
sbag0
(g1
g2
(lp223
g0
(g1
g2
(lp224
g0
(g1
g2
(lp225
(lp226
S'word: two, index: 5'
p227
aatp228
Rp229
(dp230
g8
Vnum
p231
sbatp232
Rp233
(dp234
g8
S'word: boats, index: 6'
p235
sbatp236
Rp237
(dp238
g8
Vappos
p239
sbag0
(g1
g2
(lp240
g0
(g1
g2
(lp241
g0
(g1
g2
(lp242
(lp243
S'word: two, index: 8'
p244
aatp245
Rp246
(dp247
g8
Vnum
p248
sbatp249
Rp250
(dp251
g8
S'word: man, index: 9'
p252
sbatp253
Rp254
(dp255
g8
Vappos
p256
sbag0
(g1
g2
(lp257
(lp258
S'word: four, index: 11'
p259
aatp260
Rp261
(dp262
g8
Vamod
p263
sbag0
(g1
g2
(lp264
g0
(g1
g2
(lp265
g0
(g1
g2
(lp266
g0
(g1
g2
(lp267
g0
(g1
g2
(lp268
(lp269
S'word: hundred, index: 14'
p270
aatp271
Rp272
(dp273
g8
Vnum
p274
sbatp275
Rp276
(dp277
g8
S'word: seventy, index: 15'
p278
sbatp279
Rp280
(dp281
g8
Vdep
p282
sbag0
(g1
g2
(lp283
(lp284
S'word: and, index: 17'
p285
aatp286
Rp287
(dp288
g8
Vadvmod
p289
sbatp290
Rp291
(dp292
g8
S'word: four, index: 13'
p293
sbatp294
Rp295
(dp296
g8
Vappos
p297
sbatp298
Rp299
(dp300
g8
S'word: swimming, index: 1'
p301
sbatp302
Rp303
(dp304
g8
S'id: 6'
p305
sbatp306
Rp307
(dp308
g8
S'sentences'
p309
sb.