ccopy_reg
_reconstructor
p0
(cnltk.tree
Tree
p1
c__builtin__
list
p2
(lp3
g0
(g1
g2
(lp4
g0
(g1
g2
(lp5
g0
(g1
g2
(lp6
g0
(g1
g2
(lp7
Vthe
p8
atp9
Rp10
(dp11
S'_label'
p12
VDT
p13
sbag0
(g1
g2
(lp14
Vsink
p15
atp16
Rp17
(dp18
g12
VNN
p19
sbatp20
Rp21
(dp22
g12
VNP
p23
sbag0
(g1
g2
(lp24
g0
(g1
g2
(lp25
Vis
p26
atp27
Rp28
(dp29
g12
VVBZ
p30
sbag0
(g1
g2
(lp31
g0
(g1
g2
(lp32
Voverflowing
p33
atp34
Rp35
(dp36
g12
VVBG
p37
sbatp38
Rp39
(dp40
g12
VVP
p41
sbatp42
Rp43
(dp44
g12
VVP
p45
sbag0
(g1
g2
(lp46
V.
p47
atp48
Rp49
(dp50
g12
V.
p51
sbatp52
Rp53
(dp54
g12
VS
p55
sbatp56
Rp57
(dp58
g12
S'id: 0'
p59
sbag0
(g1
g2
(lp60
g0
(g1
g2
(lp61
g0
(g1
g2
(lp62
g0
(g1
g2
(lp63
VThe
p64
atp65
Rp66
(dp67
g12
VDT
p68
sbag0
(g1
g2
(lp69
Vwoman
p70
atp71
Rp72
(dp73
g12
VNN
p74
sbatp75
Rp76
(dp77
g12
VNP
p78
sbag0
(g1
g2
(lp79
g0
(g1
g2
(lp80
Vis
p81
atp82
Rp83
(dp84
g12
VVBZ
p85
sbag0
(g1
g2
(lp86
g0
(g1
g2
(lp87
Vlooking
p88
atp89
Rp90
(dp91
g12
VVBG
p92
sbag0
(g1
g2
(lp93
g0
(g1
g2
(lp94
Vout
p95
atp96
Rp97
(dp98
g12
VRP
p99
sbatp100
Rp101
(dp102
g12
VPRT
p103
sbag0
(g1
g2
(lp104
g0
(g1
g2
(lp105
Vthe
p106
atp107
Rp108
(dp109
g12
VDT
p110
sbag0
(g1
g2
(lp111
Vwindow
p112
atp113
Rp114
(dp115
g12
VNN
p116
sbatp117
Rp118
(dp119
g12
VNP
p120
sbatp121
Rp122
(dp123
g12
VVP
p124
sbatp125
Rp126
(dp127
g12
VVP
p128
sbag0
(g1
g2
(lp129
V.
p130
atp131
Rp132
(dp133
g12
V.
p134
sbatp135
Rp136
(dp137
g12
VS
p138
sbatp139
Rp140
(dp141
g12
S'id: 1'
p142
sbag0
(g1
g2
(lp143
g0
(g1
g2
(lp144
g0
(g1
g2
(lp145
g0
(g1
g2
(lp146
g0
(g1
g2
(lp147
VThe
p148
atp149
Rp150
(dp151
g12
VDT
p152
sbag0
(g1
g2
(lp153
Vboy
p154
atp155
Rp156
(dp157
g12
VNN
p158
sbatp159
Rp160
(dp161
g12
VNP
p162
sbag0
(g1
g2
(lp163
g0
(g1
g2
(lp164
Vis
p165
atp166
Rp167
(dp168
g12
VVBZ
p169
sbag0
(g1
g2
(lp170
g0
(g1
g2
(lp171
Vgetting
p172
atp173
Rp174
(dp175
g12
VVBG
p176
sbag0
(g1
g2
(lp177
g0
(g1
g2
(lp178
Va
p179
atp180
Rp181
(dp182
g12
VDT
p183
sbag0
(g1
g2
(lp184
Vkiki
p185
atp186
Rp187
(dp188
g12
VNN
p189
sbatp190
Rp191
(dp192
g12
VNP
p193
sbag0
(g1
g2
(lp194
g0
(g1
g2
(lp195
Vfrom
p196
atp197
Rp198
(dp199
g12
VIN
p200
sbag0
(g1
g2
(lp201
g0
(g1
g2
(lp202
Vthe
p203
atp204
Rp205
(dp206
g12
VDT
p207
sbag0
(g1
g2
(lp208
Vcandy
p209
atp210
Rp211
(dp212
g12
VNN
p213
sbag0
(g1
g2
(lp214
Vjar
p215
atp216
Rp217
(dp218
g12
VNN
p219
sbatp220
Rp221
(dp222
g12
VNP
p223
sbatp224
Rp225
(dp226
g12
VPP
p227
sbatp228
Rp229
(dp230
g12
VVP
p231
sbatp232
Rp233
(dp234
g12
VVP
p235
sbatp236
Rp237
(dp238
g12
VS
p239
sbag0
(g1
g2
(lp240
V,
p241
atp242
Rp243
(dp244
g12
V,
p245
sbag0
(g1
g2
(lp246
g0
(g1
g2
(lp247
g0
(g1
g2
(lp248
Vhe
p249
atp250
Rp251
(dp252
g12
VPRP
p253
sbatp254
Rp255
(dp256
g12
VNP
p257
sbag0
(g1
g2
(lp258
g0
(g1
g2
(lp259
V's
p260
atp261
Rp262
(dp263
g12
VVBZ
p264
sbag0
(g1
g2
(lp265
g0
(g1
g2
(lp266
Vvolling
p267
atp268
Rp269
(dp270
g12
VVBG
p271
sbag0
(g1
g2
(lp272
g0
(g1
g2
(lp273
Voff
p274
atp275
Rp276
(dp277
g12
VRP
p278
sbatp279
Rp280
(dp281
g12
VPRT
p282
sbag0
(g1
g2
(lp283
g0
(g1
g2
(lp284
Vthe
p285
atp286
Rp287
(dp288
g12
VDT
p289
sbag0
(g1
g2
(lp290
Vstool
p291
atp292
Rp293
(dp294
g12
VNN
p295
sbatp296
Rp297
(dp298
g12
VNP
p299
sbatp300
Rp301
(dp302
g12
VVP
p303
sbatp304
Rp305
(dp306
g12
VVP
p307
sbatp308
Rp309
(dp310
g12
VS
p311
sbag0
(g1
g2
(lp312
V,
p313
atp314
Rp315
(dp316
g12
V,
p317
sbag0
(g1
g2
(lp318
g0
(g1
g2
(lp319
g0
(g1
g2
(lp320
Vhe
p321
atp322
Rp323
(dp324
g12
VPRP
p325
sbatp326
Rp327
(dp328
g12
VNP
p329
sbag0
(g1
g2
(lp330
g0
(g1
g2
(lp331
V's
p332
atp333
Rp334
(dp335
g12
VVBZ
p336
sbag0
(g1
g2
(lp337
g0
(g1
g2
(lp338
Vhanding
p339
atp340
Rp341
(dp342
g12
VVBG
p343
sbag0
(g1
g2
(lp344
g0
(g1
g2
(lp345
Vhis
p346
atp347
Rp348
(dp349
g12
VPRP$
p350
sbag0
(g1
g2
(lp351
Vsister
p352
atp353
Rp354
(dp355
g12
VNN
p356
sbatp357
Rp358
(dp359
g12
VNP
p360
sbag0
(g1
g2
(lp361
g0
(g1
g2
(lp362
Vone
p363
atp364
Rp365
(dp366
g12
VCD
p367
sbatp368
Rp369
(dp370
g12
VNP-TMP
p371
sbatp372
Rp373
(dp374
g12
VVP
p375
sbatp376
Rp377
(dp378
g12
VVP
p379
sbatp380
Rp381
(dp382
g12
VS
p383
sbag0
(g1
g2
(lp384
V.
p385
atp386
Rp387
(dp388
g12
V.
p389
sbatp390
Rp391
(dp392
g12
VS
p393
sbatp394
Rp395
(dp396
g12
S'id: 2'
p397
sbag0
(g1
g2
(lp398
g0
(g1
g2
(lp399
g0
(g1
g2
(lp400
g0
(g1
g2
(lp401
VThe
p402
atp403
Rp404
(dp405
g12
VDT
p406
sbag0
(g1
g2
(lp407
Vcups
p408
atp409
Rp410
(dp411
g12
VNNS
p412
sbatp413
Rp414
(dp415
g12
VNP
p416
sbag0
(g1
g2
(lp417
V,
p418
atp419
Rp420
(dp421
g12
V,
p422
sbag0
(g1
g2
(lp423
g0
(g1
g2
(lp424
Vthe
p425
atp426
Rp427
(dp428
g12
VDT
p429
sbag0
(g1
g2
(lp430
Vplates
p431
atp432
Rp433
(dp434
g12
VNNS
p435
sbatp436
Rp437
(dp438
g12
VNP
p439
sbag0
(g1
g2
(lp440
g0
(g1
g2
(lp441
Vare
p442
atp443
Rp444
(dp445
g12
VVBP
p446
sbag0
(g1
g2
(lp447
g0
(g1
g2
(lp448
Von
p449
atp450
Rp451
(dp452
g12
VIN
p453
sbag0
(g1
g2
(lp454
g0
(g1
g2
(lp455
Vthe
p456
atp457
Rp458
(dp459
g12
VDT
p460
sbag0
(g1
g2
(lp461
Vcounter
p462
atp463
Rp464
(dp465
g12
VNN
p466
sbatp467
Rp468
(dp469
g12
VNP
p470
sbatp471
Rp472
(dp473
g12
VPP
p474
sbatp475
Rp476
(dp477
g12
VVP
p478
sbag0
(g1
g2
(lp479
V.
p480
atp481
Rp482
(dp483
g12
V.
p484
sbatp485
Rp486
(dp487
g12
VS
p488
sbatp489
Rp490
(dp491
g12
S'id: 3'
p492
sbag0
(g1
g2
(lp493
g0
(g1
g2
(lp494
g0
(g1
g2
(lp495
g0
(g1
g2
(lp496
VThere
p497
atp498
Rp499
(dp500
g12
VEX
p501
sbatp502
Rp503
(dp504
g12
VNP
p505
sbag0
(g1
g2
(lp506
g0
(g1
g2
(lp507
V's
p508
atp509
Rp510
(dp511
g12
VVBZ
p512
sbag0
(g1
g2
(lp513
g0
(g1
g2
(lp514
g0
(g1
g2
(lp515
Va
p516
atp517
Rp518
(dp519
g12
VDT
p520
sbag0
(g1
g2
(lp521
Vpath
p522
atp523
Rp524
(dp525
g12
VNN
p526
sbatp527
Rp528
(dp529
g12
VNP
p530
sbag0
(g1
g2
(lp531
g0
(g1
g2
(lp532
g0
(g1
g2
(lp533
Vthat
p534
atp535
Rp536
(dp537
g12
VWDT
p538
sbatp539
Rp540
(dp541
g12
VWHNP
p542
sbag0
(g1
g2
(lp543
g0
(g1
g2
(lp544
g0
(g1
g2
(lp545
Vleads
p546
atp547
Rp548
(dp549
g12
VVBZ
p550
sbag0
(g1
g2
(lp551
g0
(g1
g2
(lp552
Vto
p553
atp554
Rp555
(dp556
g12
VTO
p557
sbag0
(g1
g2
(lp558
g0
(g1
g2
(lp559
Vthe
p560
atp561
Rp562
(dp563
g12
VDT
p564
sbag0
(g1
g2
(lp565
Vback
p566
atp567
Rp568
(dp569
g12
VJJ
p570
sbag0
(g1
g2
(lp571
Vdoor
p572
atp573
Rp574
(dp575
g12
VNN
p576
sbatp577
Rp578
(dp579
g12
VNP
p580
sbatp581
Rp582
(dp583
g12
VPP
p584
sbatp585
Rp586
(dp587
g12
VVP
p588
sbatp589
Rp590
(dp591
g12
VS
p592
sbatp593
Rp594
(dp595
g12
VSBAR
p596
sbatp597
Rp598
(dp599
g12
VNP
p600
sbatp601
Rp602
(dp603
g12
VVP
p604
sbag0
(g1
g2
(lp605
V.
p606
atp607
Rp608
(dp609
g12
V.
p610
sbatp611
Rp612
(dp613
g12
VS
p614
sbatp615
Rp616
(dp617
g12
S'id: 4'
p618
sbag0
(g1
g2
(lp619
g0
(g1
g2
(lp620
g0
(g1
g2
(lp621
g0
(g1
g2
(lp622
VA
p623
atp624
Rp625
(dp626
g12
VDT
p627
sbag0
(g1
g2
(lp628
Vtree
p629
atp630
Rp631
(dp632
g12
VNN
p633
sbatp634
Rp635
(dp636
g12
VNP
p637
sbag0
(g1
g2
(lp638
g0
(g1
g2
(lp639
Vin
p640
atp641
Rp642
(dp643
g12
VIN
p644
sbag0
(g1
g2
(lp645
g0
(g1
g2
(lp646
Vthe
p647
atp648
Rp649
(dp650
g12
VDT
p651
sbag0
(g1
g2
(lp652
Vwindow
p653
atp654
Rp655
(dp656
g12
VNN
p657
sbatp658
Rp659
(dp660
g12
VNP
p661
sbatp662
Rp663
(dp664
g12
VPP
p665
sbag0
(g1
g2
(lp666
V.
p667
atp668
Rp669
(dp670
g12
V.
p671
sbatp672
Rp673
(dp674
g12
VNP
p675
sbatp676
Rp677
(dp678
g12
S'id: 5'
p679
sbag0
(g1
g2
(lp680
g0
(g1
g2
(lp681
g0
(g1
g2
(lp682
g0
(g1
g2
(lp683
VThe
p684
atp685
Rp686
(dp687
g12
VDT
p688
sbag0
(g1
g2
(lp689
Vwoman
p690
atp691
Rp692
(dp693
g12
VNN
p694
sbatp695
Rp696
(dp697
g12
VNP
p698
sbag0
(g1
g2
(lp699
g0
(g1
g2
(lp700
Vappears
p701
atp702
Rp703
(dp704
g12
VVBZ
p705
sbag0
(g1
g2
(lp706
g0
(g1
g2
(lp707
g0
(g1
g2
(lp708
Vto
p709
atp710
Rp711
(dp712
g12
VTO
p713
sbag0
(g1
g2
(lp714
g0
(g1
g2
(lp715
Vhave
p716
atp717
Rp718
(dp719
g12
VVB
p720
sbag0
(g1
g2
(lp721
g0
(g1
g2
(lp722
Von
p723
atp724
Rp725
(dp726
g12
VIN
p727
sbag0
(g1
g2
(lp728
g0
(g1
g2
(lp729
Vhigh
p730
atp731
Rp732
(dp733
g12
VJJ
p734
sbag0
(g1
g2
(lp735
Vheels
p736
atp737
Rp738
(dp739
g12
VNNS
p740
sbatp741
Rp742
(dp743
g12
VNP
p744
sbatp745
Rp746
(dp747
g12
VPP
p748
sbatp749
Rp750
(dp751
g12
VVP
p752
sbatp753
Rp754
(dp755
g12
VVP
p756
sbatp757
Rp758
(dp759
g12
VS
p760
sbatp761
Rp762
(dp763
g12
VVP
p764
sbag0
(g1
g2
(lp765
V.
p766
atp767
Rp768
(dp769
g12
V.
p770
sbatp771
Rp772
(dp773
g12
VS
p774
sbatp775
Rp776
(dp777
g12
S'id: 6'
p778
sbag0
(g1
g2
(lp779
g0
(g1
g2
(lp780
g0
(g1
g2
(lp781
g0
(g1
g2
(lp782
VThe
p783
atp784
Rp785
(dp786
g12
VDT
p787
sbag0
(g1
g2
(lp788
Vgirl
p789
atp790
Rp791
(dp792
g12
VNN
p793
sbatp794
Rp795
(dp796
g12
VNP
p797
sbag0
(g1
g2
(lp798
g0
(g1
g2
(lp799
Vappear
p800
atp801
Rp802
(dp803
g12
VVBP
p804
sbag0
(g1
g2
(lp805
g0
(g1
g2
(lp806
g0
(g1
g2
(lp807
Vto
p808
atp809
Rp810
(dp811
g12
VTO
p812
sbag0
(g1
g2
(lp813
g0
(g1
g2
(lp814
Vhave
p815
atp816
Rp817
(dp818
g12
VVB
p819
sbag0
(g1
g2
(lp820
g0
(g1
g2
(lp821
Von
p822
atp823
Rp824
(dp825
g12
VIN
p826
sbag0
(g1
g2
(lp827
g0
(g1
g2
(lp828
Vloafers
p829
atp830
Rp831
(dp832
g12
VNNS
p833
sbatp834
Rp835
(dp836
g12
VNP
p837
sbatp838
Rp839
(dp840
g12
VPP
p841
sbatp842
Rp843
(dp844
g12
VVP
p845
sbatp846
Rp847
(dp848
g12
VVP
p849
sbatp850
Rp851
(dp852
g12
VS
p853
sbatp854
Rp855
(dp856
g12
VVP
p857
sbag0
(g1
g2
(lp858
V.
p859
atp860
Rp861
(dp862
g12
V.
p863
sbatp864
Rp865
(dp866
g12
VS
p867
sbatp868
Rp869
(dp870
g12
S'id: 7'
p871
sbag0
(g1
g2
(lp872
g0
(g1
g2
(lp873
g0
(g1
g2
(lp874
g0
(g1
g2
(lp875
VThe
p876
atp877
Rp878
(dp879
g12
VDT
p880
sbag0
(g1
g2
(lp881
Vboy
p882
atp883
Rp884
(dp885
g12
VNN
p886
sbatp887
Rp888
(dp889
g12
VNP
p890
sbag0
(g1
g2
(lp891
g0
(g1
g2
(lp892
Vappears
p893
atp894
Rp895
(dp896
g12
VVBZ
p897
sbag0
(g1
g2
(lp898
g0
(g1
g2
(lp899
g0
(g1
g2
(lp900
Vto
p901
atp902
Rp903
(dp904
g12
VTO
p905
sbag0
(g1
g2
(lp906
g0
(g1
g2
(lp907
Vhave
p908
atp909
Rp910
(dp911
g12
VVB
p912
sbag0
(g1
g2
(lp913
g0
(g1
g2
(lp914
Von
p915
atp916
Rp917
(dp918
g12
VIN
p919
sbag0
(g1
g2
(lp920
g0
(g1
g2
(lp921
g0
(g1
g2
(lp922
Vboot
p923
atp924
Rp925
(dp926
g12
VNN
p927
sbatp928
Rp929
(dp930
g12
VNP
p931
sbag0
(g1
g2
(lp932
V,
p933
atp934
Rp935
(dp936
g12
V,
p937
sbag0
(g1
g2
(lp938
Vand
p939
atp940
Rp941
(dp942
g12
VCC
p943
sbag0
(g1
g2
(lp944
g0
(g1
g2
(lp945
Vshorts
p946
atp947
Rp948
(dp949
g12
VNNS
p950
sbatp951
Rp952
(dp953
g12
VNP
p954
sbag0
(g1
g2
(lp955
V,
p956
atp957
Rp958
(dp959
g12
V,
p960
sbag0
(g1
g2
(lp961
Vand
p962
atp963
Rp964
(dp965
g12
VCC
p966
sbag0
(g1
g2
(lp967
g0
(g1
g2
(lp968
Vpolo
p969
atp970
Rp971
(dp972
g12
VNN
p973
sbag0
(g1
g2
(lp974
Vshirt
p975
atp976
Rp977
(dp978
g12
VNN
p979
sbatp980
Rp981
(dp982
g12
VNP
p983
sbatp984
Rp985
(dp986
g12
VNP
p987
sbatp988
Rp989
(dp990
g12
VPP
p991
sbatp992
Rp993
(dp994
g12
VVP
p995
sbatp996
Rp997
(dp998
g12
VVP
p999
sbatp1000
Rp1001
(dp1002
g12
VS
p1003
sbatp1004
Rp1005
(dp1006
g12
VVP
p1007
sbag0
(g1
g2
(lp1008
V.
p1009
atp1010
Rp1011
(dp1012
g12
V.
p1013
sbatp1014
Rp1015
(dp1016
g12
VS
p1017
sbatp1018
Rp1019
(dp1020
g12
S'id: 8'
p1021
sbag0
(g1
g2
(lp1022
g0
(g1
g2
(lp1023
g0
(g1
g2
(lp1024
g0
(g1
g2
(lp1025
VThe
p1026
atp1027
Rp1028
(dp1029
g12
VDT
p1030
sbag0
(g1
g2
(lp1031
Vgirl
p1032
atp1033
Rp1034
(dp1035
g12
VNN
p1036
sbatp1037
Rp1038
(dp1039
g12
VNP
p1040
sbag0
(g1
g2
(lp1041
g0
(g1
g2
(lp1042
Vseem
p1043
atp1044
Rp1045
(dp1046
g12
VVBP
p1047
sbag0
(g1
g2
(lp1048
g0
(g1
g2
(lp1049
g0
(g1
g2
(lp1050
Vto
p1051
atp1052
Rp1053
(dp1054
g12
VTO
p1055
sbag0
(g1
g2
(lp1056
g0
(g1
g2
(lp1057
Vhave
p1058
atp1059
Rp1060
(dp1061
g12
VVB
p1062
sbag0
(g1
g2
(lp1063
g0
(g1
g2
(lp1064
g0
(g1
g2
(lp1065
Va
p1066
atp1067
Rp1068
(dp1069
g12
VDT
p1070
sbag0
(g1
g2
(lp1071
Vbrow
p1072
atp1073
Rp1074
(dp1075
g12
VNN
p1076
sbatp1077
Rp1078
(dp1079
g12
VNP
p1080
sbag0
(g1
g2
(lp1081
V,
p1082
atp1083
Rp1084
(dp1085
g12
V,
p1086
sbag0
(g1
g2
(lp1087
g0
(g1
g2
(lp1088
g0
(g1
g2
(lp1089
Va
p1090
atp1091
Rp1092
(dp1093
g12
VDT
p1094
sbag0
(g1
g2
(lp1095
Vblouse
p1096
atp1097
Rp1098
(dp1099
g12
VNN
p1100
sbatp1101
Rp1102
(dp1103
g12
VNP
p1104
sbag0
(g1
g2
(lp1105
g0
(g1
g2
(lp1106
Vwith
p1107
atp1108
Rp1109
(dp1110
g12
VIN
p1111
sbag0
(g1
g2
(lp1112
g0
(g1
g2
(lp1113
Vskirt
p1114
atp1115
Rp1116
(dp1117
g12
VNN
p1118
sbatp1119
Rp1120
(dp1121
g12
VNP
p1122
sbatp1123
Rp1124
(dp1125
g12
VPP
p1126
sbatp1127
Rp1128
(dp1129
g12
VNP
p1130
sbatp1131
Rp1132
(dp1133
g12
VNP
p1134
sbatp1135
Rp1136
(dp1137
g12
VVP
p1138
sbatp1139
Rp1140
(dp1141
g12
VVP
p1142
sbatp1143
Rp1144
(dp1145
g12
VS
p1146
sbatp1147
Rp1148
(dp1149
g12
VVP
p1150
sbag0
(g1
g2
(lp1151
V.
p1152
atp1153
Rp1154
(dp1155
g12
V.
p1156
sbatp1157
Rp1158
(dp1159
g12
VS
p1160
sbatp1161
Rp1162
(dp1163
g12
S'id: 9'
p1164
sbag0
(g1
g2
(lp1165
g0
(g1
g2
(lp1166
g0
(g1
g2
(lp1167
g0
(g1
g2
(lp1168
VThe
p1169
atp1170
Rp1171
(dp1172
g12
VDT
p1173
sbag0
(g1
g2
(lp1174
Vmother
p1175
atp1176
Rp1177
(dp1178
g12
VNN
p1179
sbatp1180
Rp1181
(dp1182
g12
VNP
p1183
sbag0
(g1
g2
(lp1184
g0
(g1
g2
(lp1185
Vseems
p1186
atp1187
Rp1188
(dp1189
g12
VVBZ
p1190
sbag0
(g1
g2
(lp1191
g0
(g1
g2
(lp1192
g0
(g1
g2
(lp1193
Vto
p1194
atp1195
Rp1196
(dp1197
g12
VTO
p1198
sbag0
(g1
g2
(lp1199
g0
(g1
g2
(lp1200
Vhave
p1201
atp1202
Rp1203
(dp1204
g12
VVB
p1205
sbag0
(g1
g2
(lp1206
g0
(g1
g2
(lp1207
Va
p1208
atp1209
Rp1210
(dp1211
g12
VDT
p1212
sbag0
(g1
g2
(lp1213
Vdress
p1214
atp1215
Rp1216
(dp1217
g12
VNN
p1218
sbatp1219
Rp1220
(dp1221
g12
VNP
p1222
sbag0
(g1
g2
(lp1223
g0
(g1
g2
(lp1224
Von
p1225
atp1226
Rp1227
(dp1228
g12
VIN
p1229
sbatp1230
Rp1231
(dp1232
g12
VPP
p1233
sbatp1234
Rp1235
(dp1236
g12
VVP
p1237
sbatp1238
Rp1239
(dp1240
g12
VVP
p1241
sbatp1242
Rp1243
(dp1244
g12
VS
p1245
sbatp1246
Rp1247
(dp1248
g12
VVP
p1249
sbag0
(g1
g2
(lp1250
V.
p1251
atp1252
Rp1253
(dp1254
g12
V.
p1255
sbatp1256
Rp1257
(dp1258
g12
VS
p1259
sbatp1260
Rp1261
(dp1262
g12
S'id: 10'
p1263
sbag0
(g1
g2
(lp1264
g0
(g1
g2
(lp1265
g0
(g1
g2
(lp1266
g0
(g1
g2
(lp1267
VThe
p1268
atp1269
Rp1270
(dp1271
g12
VDT
p1272
sbag0
(g1
g2
(lp1273
g0
(g1
g2
(lp1274
Vmother
p1275
atp1276
Rp1277
(dp1278
g12
VNN
p1279
sbag0
(g1
g2
(lp1280
V's
p1281
atp1282
Rp1283
(dp1284
g12
VPOS
p1285
sbatp1286
Rp1287
(dp1288
g12
VNP
p1289
sbatp1290
Rp1291
(dp1292
g12
VNP
p1293
sbag0
(g1
g2
(lp1294
g0
(g1
g2
(lp1295
Vdating
p1296
atp1297
Rp1298
(dp1299
g12
VVBG
p1300
sbag0
(g1
g2
(lp1301
g0
(g1
g2
(lp1302
Vin
p1303
atp1304
Rp1305
(dp1306
g12
VIN
p1307
sbag0
(g1
g2
(lp1308
g0
(g1
g2
(lp1309
g0
(g1
g2
(lp1310
Vthe
p1311
atp1312
Rp1313
(dp1314
g12
VDT
p1315
sbag0
(g1
g2
(lp1316
Vwater
p1317
atp1318
Rp1319
(dp1320
g12
VNN
p1321
sbatp1322
Rp1323
(dp1324
g12
VNP
p1325
sbag0
(g1
g2
(lp1326
g0
(g1
g2
(lp1327
Voverflowing
p1328
atp1329
Rp1330
(dp1331
g12
VVBG
p1332
sbag0
(g1
g2
(lp1333
g0
(g1
g2
(lp1334
Vfrom
p1335
atp1336
Rp1337
(dp1338
g12
VIN
p1339
sbag0
(g1
g2
(lp1340
g0
(g1
g2
(lp1341
Vthe
p1342
atp1343
Rp1344
(dp1345
g12
VDT
p1346
sbag0
(g1
g2
(lp1347
Vsink
p1348
atp1349
Rp1350
(dp1351
g12
VNN
p1352
sbatp1353
Rp1354
(dp1355
g12
VNP
p1356
sbatp1357
Rp1358
(dp1359
g12
VPP
p1360
sbatp1361
Rp1362
(dp1363
g12
VVP
p1364
sbatp1365
Rp1366
(dp1367
g12
VNP
p1368
sbatp1369
Rp1370
(dp1371
g12
VPP
p1372
sbatp1373
Rp1374
(dp1375
g12
VVP
p1376
sbag0
(g1
g2
(lp1377
V.
p1378
atp1379
Rp1380
(dp1381
g12
V.
p1382
sbatp1383
Rp1384
(dp1385
g12
VNP
p1386
sbatp1387
Rp1388
(dp1389
g12
S'id: 11'
p1390
sbag0
(g1
g2
(lp1391
g0
(g1
g2
(lp1392
g0
(g1
g2
(lp1393
g0
(g1
g2
(lp1394
VThe
p1395
atp1396
Rp1397
(dp1398
g12
VDT
p1399
sbag0
(g1
g2
(lp1400
Vkiki
p1401
atp1402
Rp1403
(dp1404
g12
VNN
p1405
sbatp1406
Rp1407
(dp1408
g12
VNP
p1409
sbag0
(g1
g2
(lp1410
g0
(g1
g2
(lp1411
Vtars
p1412
atp1413
Rp1414
(dp1415
g12
VVBZ
p1416
sbag0
(g1
g2
(lp1417
g0
(g1
g2
(lp1418
g0
(g1
g2
(lp1419
g0
(g1
g2
(lp1420
Vmar
p1421
atp1422
Rp1423
(dp1424
g12
VFW
p1425
sbatp1426
Rp1427
(dp1428
g12
VNP
p1429
sbag0
(g1
g2
(lp1430
g0
(g1
g2
(lp1431
Vhas
p1432
atp1433
Rp1434
(dp1435
g12
VVBZ
p1436
sbag0
(g1
g2
(lp1437
g0
(g1
g2
(lp1438
g0
(g1
g2
(lp1439
Vthe
p1440
atp1441
Rp1442
(dp1443
g12
VDT
p1444
sbag0
(g1
g2
(lp1445
Vwork
p1446
atp1447
Rp1448
(dp1449
g12
VNN
p1450
sbag0
(g1
g2
(lp1451
Vki
p1452
atp1453
Rp1454
(dp1455
g12
VNN
p1456
sbatp1457
Rp1458
(dp1459
g12
VNP
p1460
sbag0
(g1
g2
(lp1461
g0
(g1
g2
(lp1462
Vtar
p1463
atp1464
Rp1465
(dp1466
g12
VNN
p1467
sbag0
(g1
g2
(lp1468
Vbal
p1469
atp1470
Rp1471
(dp1472
g12
VNN
p1473
sbag0
(g1
g2
(lp1474
Vaf
p1475
atp1476
Rp1477
(dp1478
g12
VNN
p1479
sbatp1480
Rp1481
(dp1482
g12
VNP
p1483
sbatp1484
Rp1485
(dp1486
g12
VNP
p1487
sbatp1488
Rp1489
(dp1490
g12
VVP
p1491
sbatp1492
Rp1493
(dp1494
g12
VS
p1495
sbatp1496
Rp1497
(dp1498
g12
VSBAR
p1499
sbatp1500
Rp1501
(dp1502
g12
VVP
p1503
sbag0
(g1
g2
(lp1504
V.
p1505
atp1506
Rp1507
(dp1508
g12
V.
p1509
sbatp1510
Rp1511
(dp1512
g12
VS
p1513
sbatp1514
Rp1515
(dp1516
g12
S'id: 12'
p1517
sbag0
(g1
g2
(lp1518
g0
(g1
g2
(lp1519
g0
(g1
g2
(lp1520
g0
(g1
g2
(lp1521
VThe
p1522
atp1523
Rp1524
(dp1525
g12
VDT
p1526
sbag0
(g1
g2
(lp1527
Vkiki
p1528
atp1529
Rp1530
(dp1531
g12
VNN
p1532
sbatp1533
Rp1534
(dp1535
g12
VNP
p1536
sbag0
(g1
g2
(lp1537
g0
(g1
g2
(lp1538
g0
(g1
g2
(lp1539
Vtar
p1540
atp1541
Rp1542
(dp1543
g12
VNN
p1544
sbag0
(g1
g2
(lp1545
V's
p1546
atp1547
Rp1548
(dp1549
g12
VPOS
p1550
sbatp1551
Rp1552
(dp1553
g12
VNP
p1554
sbag0
(g1
g2
(lp1555
g0
(g1
g2
(lp1556
Von
p1557
atp1558
Rp1559
(dp1560
g12
VIN
p1561
sbag0
(g1
g2
(lp1562
g0
(g1
g2
(lp1563
Vthe
p1564
atp1565
Rp1566
(dp1567
g12
VDT
p1568
sbag0
(g1
g2
(lp1569
Vsecond
p1570
atp1571
Rp1572
(dp1573
g12
VJJ
p1574
sbag0
(g1
g2
(lp1575
Vshelf
p1576
atp1577
Rp1578
(dp1579
g12
VNN
p1580
sbatp1581
Rp1582
(dp1583
g12
VNP
p1584
sbatp1585
Rp1586
(dp1587
g12
VPP
p1588
sbatp1589
Rp1590
(dp1591
g12
VNP
p1592
sbag0
(g1
g2
(lp1593
V.
p1594
atp1595
Rp1596
(dp1597
g12
V.
p1598
sbatp1599
Rp1600
(dp1601
g12
VNP
p1602
sbatp1603
Rp1604
(dp1605
g12
S'id: 13'
p1606
sbag0
(g1
g2
(lp1607
g0
(g1
g2
(lp1608
g0
(g1
g2
(lp1609
g0
(g1
g2
(lp1610
VThe
p1611
atp1612
Rp1613
(dp1614
g12
VDT
p1615
sbatp1616
Rp1617
(dp1618
g12
VNP
p1619
sbag0
(g1
g2
(lp1620
V,
p1621
atp1622
Rp1623
(dp1624
g12
V,
p1625
sbag0
(g1
g2
(lp1626
g0
(g1
g2
(lp1627
Vthere
p1628
atp1629
Rp1630
(dp1631
g12
VEX
p1632
sbatp1633
Rp1634
(dp1635
g12
VNP
p1636
sbag0
(g1
g2
(lp1637
g0
(g1
g2
(lp1638
Vappears
p1639
atp1640
Rp1641
(dp1642
g12
VVBZ
p1643
sbag0
(g1
g2
(lp1644
g0
(g1
g2
(lp1645
g0
(g1
g2
(lp1646
Vto
p1647
atp1648
Rp1649
(dp1650
g12
VTO
p1651
sbag0
(g1
g2
(lp1652
g0
(g1
g2
(lp1653
Vbe
p1654
atp1655
Rp1656
(dp1657
g12
VVB
p1658
sbag0
(g1
g2
(lp1659
g0
(g1
g2
(lp1660
g0
(g1
g2
(lp1661
Vthree
p1662
atp1663
Rp1664
(dp1665
g12
VCD
p1666
sbag0
(g1
g2
(lp1667
Vupper
p1668
atp1669
Rp1670
(dp1671
g12
VJJ
p1672
sbag0
(g1
g2
(lp1673
Vcabinets
p1674
atp1675
Rp1676
(dp1677
g12
VNNS
p1678
sbatp1679
Rp1680
(dp1681
g12
VNP
p1682
sbag0
(g1
g2
(lp1683
g0
(g1
g2
(lp1684
Vin
p1685
atp1686
Rp1687
(dp1688
g12
VIN
p1689
sbag0
(g1
g2
(lp1690
g0
(g1
g2
(lp1691
Vthe
p1692
atp1693
Rp1694
(dp1695
g12
VDT
p1696
sbag0
(g1
g2
(lp1697
Vkitchen
p1698
atp1699
Rp1700
(dp1701
g12
VNN
p1702
sbatp1703
Rp1704
(dp1705
g12
VNP
p1706
sbatp1707
Rp1708
(dp1709
g12
VPP
p1710
sbatp1711
Rp1712
(dp1713
g12
VNP
p1714
sbatp1715
Rp1716
(dp1717
g12
VVP
p1718
sbatp1719
Rp1720
(dp1721
g12
VVP
p1722
sbatp1723
Rp1724
(dp1725
g12
VS
p1726
sbatp1727
Rp1728
(dp1729
g12
VVP
p1730
sbag0
(g1
g2
(lp1731
V.
p1732
atp1733
Rp1734
(dp1735
g12
V.
p1736
sbatp1737
Rp1738
(dp1739
g12
VS
p1740
sbatp1741
Rp1742
(dp1743
g12
S'id: 14'
p1744
sbag0
(g1
g2
(lp1745
g0
(g1
g2
(lp1746
g0
(g1
g2
(lp1747
g0
(g1
g2
(lp1748
VThe
p1749
atp1750
Rp1751
(dp1752
g12
VDT
p1753
sbatp1754
Rp1755
(dp1756
g12
VNP
p1757
sbag0
(g1
g2
(lp1758
V,
p1759
atp1760
Rp1761
(dp1762
g12
V,
p1763
sbag0
(g1
g2
(lp1764
g0
(g1
g2
(lp1765
Vthere
p1766
atp1767
Rp1768
(dp1769
g12
VEX
p1770
sbatp1771
Rp1772
(dp1773
g12
VNP
p1774
sbag0
(g1
g2
(lp1775
g0
(g1
g2
(lp1776
Vappears
p1777
atp1778
Rp1779
(dp1780
g12
VVBZ
p1781
sbag0
(g1
g2
(lp1782
g0
(g1
g2
(lp1783
g0
(g1
g2
(lp1784
Vto
p1785
atp1786
Rp1787
(dp1788
g12
VTO
p1789
sbag0
(g1
g2
(lp1790
g0
(g1
g2
(lp1791
Vbe
p1792
atp1793
Rp1794
(dp1795
g12
VVB
p1796
sbag0
(g1
g2
(lp1797
g0
(g1
g2
(lp1798
g0
(g1
g2
(lp1799
Vtwo
p1800
atp1801
Rp1802
(dp1803
g12
VCD
p1804
sbag0
(g1
g2
(lp1805
V,
p1806
atp1807
Rp1808
(dp1809
g12
V,
p1810
sbag0
(g1
g2
(lp1811
Vsix
p1812
atp1813
Rp1814
(dp1815
g12
VCD
p1816
sbag0
(g1
g2
(lp1817
Vdoors
p1818
atp1819
Rp1820
(dp1821
g12
VNNS
p1822
sbatp1823
Rp1824
(dp1825
g12
VNP
p1826
sbag0
(g1
g2
(lp1827
g0
(g1
g2
(lp1828
Von
p1829
atp1830
Rp1831
(dp1832
g12
VIN
p1833
sbag0
(g1
g2
(lp1834
g0
(g1
g2
(lp1835
g0
(g1
g2
(lp1836
Vthe
p1837
atp1838
Rp1839
(dp1840
g12
VDT
p1841
sbag0
(g1
g2
(lp1842
Vside
p1843
atp1844
Rp1845
(dp1846
g12
VNN
p1847
sbatp1848
Rp1849
(dp1850
g12
VNP
p1851
sbag0
(g1
g2
(lp1852
g0
(g1
g2
(lp1853
Vof
p1854
atp1855
Rp1856
(dp1857
g12
VIN
p1858
sbag0
(g1
g2
(lp1859
g0
(g1
g2
(lp1860
g0
(g1
g2
(lp1861
Vthe
p1862
atp1863
Rp1864
(dp1865
g12
VDT
p1866
sbatp1867
Rp1868
(dp1869
g12
VNP
p1870
sbag0
(g1
g2
(lp1871
V,
p1872
atp1873
Rp1874
(dp1875
g12
V,
p1876
sbag0
(g1
g2
(lp1877
g0
(g1
g2
(lp1878
g0
(g1
g2
(lp1879
Vwhere
p1880
atp1881
Rp1882
(dp1883
g12
VWRB
p1884
sbatp1885
Rp1886
(dp1887
g12
VWHADVP
p1888
sbag0
(g1
g2
(lp1889
g0
(g1
g2
(lp1890
g0
(g1
g2
(lp1891
Vthe
p1892
atp1893
Rp1894
(dp1895
g12
VDT
p1896
sbag0
(g1
g2
(lp1897
Vsink
p1898
atp1899
Rp1900
(dp1901
g12
VNN
p1902
sbatp1903
Rp1904
(dp1905
g12
VNP
p1906
sbag0
(g1
g2
(lp1907
g0
(g1
g2
(lp1908
Vis
p1909
atp1910
Rp1911
(dp1912
g12
VVBZ
p1913
sbatp1914
Rp1915
(dp1916
g12
VVP
p1917
sbatp1918
Rp1919
(dp1920
g12
VS
p1921
sbatp1922
Rp1923
(dp1924
g12
VSBAR
p1925
sbatp1926
Rp1927
(dp1928
g12
VNP
p1929
sbatp1930
Rp1931
(dp1932
g12
VPP
p1933
sbatp1934
Rp1935
(dp1936
g12
VNP
p1937
sbatp1938
Rp1939
(dp1940
g12
VPP
p1941
sbatp1942
Rp1943
(dp1944
g12
VNP
p1945
sbatp1946
Rp1947
(dp1948
g12
VVP
p1949
sbatp1950
Rp1951
(dp1952
g12
VVP
p1953
sbatp1954
Rp1955
(dp1956
g12
VS
p1957
sbatp1958
Rp1959
(dp1960
g12
VVP
p1961
sbag0
(g1
g2
(lp1962
V.
p1963
atp1964
Rp1965
(dp1966
g12
V.
p1967
sbatp1968
Rp1969
(dp1970
g12
VS
p1971
sbatp1972
Rp1973
(dp1974
g12
S'id: 15'
p1975
sbatp1976
Rp1977
(dp1978
g12
S'sentences'
p1979
sb.