ccopy_reg
_reconstructor
p0
(cnltk.tree
Tree
p1
c__builtin__
list
p2
(lp3
g0
(g1
g2
(lp4
g0
(g1
g2
(lp5
g0
(g1
g2
(lp6
g0
(g1
g2
(lp7
Valright
p8
atp9
Rp10
(dp11
S'_label'
p12
VIN
p13
sbag0
(g1
g2
(lp14
g0
(g1
g2
(lp15
g0
(g1
g2
(lp16
Vwe
p17
atp18
Rp19
(dp20
g12
VPRP
p21
sbatp22
Rp23
(dp24
g12
VNP
p25
sbag0
(g1
g2
(lp26
g0
(g1
g2
(lp27
Vgot
p28
atp29
Rp30
(dp31
g12
VVBD
p32
sbag0
(g1
g2
(lp33
g0
(g1
g2
(lp34
Va
p35
atp36
Rp37
(dp38
g12
VDT
p39
sbag0
(g1
g2
(lp40
Vlittle
p41
atp42
Rp43
(dp44
g12
VJJ
p45
sbag0
(g1
g2
(lp46
Vgirl
p47
atp48
Rp49
(dp50
g12
VNN
p51
sbag0
(g1
g2
(lp52
Veating
p53
atp54
Rp55
(dp56
g12
VNN
p57
sbatp58
Rp59
(dp60
g12
VNP
p61
sbag0
(g1
g2
(lp62
V,
p63
atp64
Rp65
(dp66
g12
V,
p67
sbag0
(g1
g2
(lp68
g0
(g1
g2
(lp69
g0
(g1
g2
(lp70
Vwanting
p71
atp72
Rp73
(dp74
g12
VVBG
p75
sbag0
(g1
g2
(lp76
g0
(g1
g2
(lp77
Va
p78
atp79
Rp80
(dp81
g12
VDT
p82
sbag0
(g1
g2
(lp83
Vcookie
p84
atp85
Rp86
(dp87
g12
VNN
p88
sbatp89
Rp90
(dp91
g12
VNP
p92
sbatp93
Rp94
(dp95
g12
VVP
p96
sbatp97
Rp98
(dp99
g12
VS
p100
sbag0
(g1
g2
(lp101
V,
p102
atp103
Rp104
(dp105
g12
V,
p106
sbag0
(g1
g2
(lp107
g0
(g1
g2
(lp108
Vthat
p109
atp110
Rp111
(dp112
g12
VIN
p113
sbag0
(g1
g2
(lp114
g0
(g1
g2
(lp115
g0
(g1
g2
(lp116
g0
(g1
g2
(lp117
Vher
p118
atp119
Rp120
(dp121
g12
VPRP$
p122
sbag0
(g1
g2
(lp123
Vbrother
p124
atp125
Rp126
(dp127
g12
VNN
p128
sbatp129
Rp130
(dp131
g12
VNP
p132
sbag0
(g1
g2
(lp133
V's
p134
atp135
Rp136
(dp137
g12
VPOS
p138
sbatp139
Rp140
(dp141
g12
VNP
p142
sbag0
(g1
g2
(lp143
g0
(g1
g2
(lp144
Vgot
p145
atp146
Rp147
(dp148
g12
VVBN
p149
sbag0
(g1
g2
(lp150
g0
(g1
g2
(lp151
Von
p152
atp153
Rp154
(dp155
g12
VIN
p156
sbag0
(g1
g2
(lp157
g0
(g1
g2
(lp158
Va
p159
atp160
Rp161
(dp162
g12
VDT
p163
sbag0
(g1
g2
(lp164
Vstool
p165
atp166
Rp167
(dp168
g12
VNN
p169
sbatp170
Rp171
(dp172
g12
VNP
p173
sbatp174
Rp175
(dp176
g12
VPP
p177
sbatp178
Rp179
(dp180
g12
VVP
p181
sbatp182
Rp183
(dp184
g12
VS
p185
sbatp186
Rp187
(dp188
g12
VSBAR
p189
sbatp190
Rp191
(dp192
g12
VVP
p193
sbatp194
Rp195
(dp196
g12
VS
p197
sbatp198
Rp199
(dp200
g12
VSBAR
p201
sbag0
(g1
g2
(lp202
V,
p203
atp204
Rp205
(dp206
g12
V,
p207
sbag0
(g1
g2
(lp208
g0
(g1
g2
(lp209
Vhe
p210
atp211
Rp212
(dp213
g12
VPRP
p214
sbatp215
Rp216
(dp217
g12
VNP
p218
sbag0
(g1
g2
(lp219
g0
(g1
g2
(lp220
V's
p221
atp222
Rp223
(dp224
g12
VVBZ
p225
sbag0
(g1
g2
(lp226
g0
(g1
g2
(lp227
Vfalling
p228
atp229
Rp230
(dp231
g12
VVBG
p232
sbatp233
Rp234
(dp235
g12
VVP
p236
sbatp237
Rp238
(dp239
g12
VVP
p240
sbag0
(g1
g2
(lp241
V.
p242
atp243
Rp244
(dp245
g12
V.
p246
sbatp247
Rp248
(dp249
g12
VS
p250
sbatp251
Rp252
(dp253
g12
S'id: 0'
p254
sbag0
(g1
g2
(lp255
g0
(g1
g2
(lp256
g0
(g1
g2
(lp257
g0
(g1
g2
(lp258
Vit
p259
atp260
Rp261
(dp262
g12
VPRP
p263
sbatp264
Rp265
(dp266
g12
VNP
p267
sbag0
(g1
g2
(lp268
g0
(g1
g2
(lp269
V's
p270
atp271
Rp272
(dp273
g12
VVBZ
p274
sbag0
(g1
g2
(lp275
g0
(g1
g2
(lp276
Vgot
p277
atp278
Rp279
(dp280
g12
VVBD
p281
sbag0
(g1
g2
(lp282
g0
(g1
g2
(lp283
g0
(g1
g2
(lp284
g0
(g1
g2
(lp285
Vthree
p286
atp287
Rp288
(dp289
g12
VCD
p290
sbag0
(g1
g2
(lp291
Vlegs
p292
atp293
Rp294
(dp295
g12
VNNS
p296
sbatp297
Rp298
(dp299
g12
VNP
p300
sbag0
(g1
g2
(lp301
V,
p302
atp303
Rp304
(dp305
g12
V,
p306
sbag0
(g1
g2
(lp307
g0
(g1
g2
(lp308
g0
(g1
g2
(lp309
Vthe
p310
atp311
Rp312
(dp313
g12
VDT
p314
sbag0
(g1
g2
(lp315
Vsink
p316
atp317
Rp318
(dp319
g12
VNN
p320
sbag0
(g1
g2
(lp321
V's
p322
atp323
Rp324
(dp325
g12
VPOS
p326
sbatp327
Rp328
(dp329
g12
VNP
p330
sbag0
(g1
g2
(lp331
g0
(g1
g2
(lp332
Vrunning
p333
atp334
Rp335
(dp336
g12
VVBG
p337
sbatp338
Rp339
(dp340
g12
VADJP
p341
sbag0
(g1
g2
(lp342
Vover
p343
atp344
Rp345
(dp346
g12
VRB
p347
sbatp348
Rp349
(dp350
g12
VNP
p351
sbatp352
Rp353
(dp354
g12
VNP
p355
sbag0
(g1
g2
(lp356
V,
p357
atp358
Rp359
(dp360
g12
V,
p361
sbag0
(g1
g2
(lp362
g0
(g1
g2
(lp363
g0
(g1
g2
(lp364
Vwater
p365
atp366
Rp367
(dp368
g12
VNN
p369
sbatp370
Rp371
(dp372
g12
VNP
p373
sbag0
(g1
g2
(lp374
g0
(g1
g2
(lp375
Von
p376
atp377
Rp378
(dp379
g12
VIN
p380
sbag0
(g1
g2
(lp381
g0
(g1
g2
(lp382
g0
(g1
g2
(lp383
Vthe
p384
atp385
Rp386
(dp387
g12
VDT
p388
sbag0
(g1
g2
(lp389
Vfloor
p390
atp391
Rp392
(dp393
g12
VNN
p394
sbatp395
Rp396
(dp397
g12
VNP
p398
sbag0
(g1
g2
(lp399
V,
p400
atp401
Rp402
(dp403
g12
V,
p404
sbag0
(g1
g2
(lp405
g0
(g1
g2
(lp406
g0
(g1
g2
(lp407
Vher
p408
atp409
Rp410
(dp411
g12
VPRP$
p412
sbatp413
Rp414
(dp415
g12
VNP
p416
sbag0
(g1
g2
(lp417
g0
(g1
g2
(lp418
Vwiping
p419
atp420
Rp421
(dp422
g12
VVBG
p423
sbag0
(g1
g2
(lp424
Vor
p425
atp426
Rp427
(dp428
g12
VCC
p429
sbag0
(g1
g2
(lp430
Vdrying
p431
atp432
Rp433
(dp434
g12
VVBG
p435
sbag0
(g1
g2
(lp436
g0
(g1
g2
(lp437
Vthe
p438
atp439
Rp440
(dp441
g12
VDT
p442
sbag0
(g1
g2
(lp443
Vdishes
p444
atp445
Rp446
(dp447
g12
VNNS
p448
sbatp449
Rp450
(dp451
g12
VNP
p452
sbatp453
Rp454
(dp455
g12
VVP
p456
sbatp457
Rp458
(dp459
g12
VNP
p460
sbatp461
Rp462
(dp463
g12
VNP
p464
sbatp465
Rp466
(dp467
g12
VPP
p468
sbatp469
Rp470
(dp471
g12
VNP
p472
sbatp473
Rp474
(dp475
g12
VNP
p476
sbatp477
Rp478
(dp479
g12
VVP
p480
sbatp481
Rp482
(dp483
g12
VVP
p484
sbag0
(g1
g2
(lp485
V.
p486
atp487
Rp488
(dp489
g12
V.
p490
sbatp491
Rp492
(dp493
g12
VS
p494
sbatp495
Rp496
(dp497
g12
S'id: 1'
p498
sbag0
(g1
g2
(lp499
g0
(g1
g2
(lp500
g0
(g1
g2
(lp501
g0
(g1
g2
(lp502
g0
(g1
g2
(lp503
VThe
p504
atp505
Rp506
(dp507
g12
VDT
p508
sbag0
(g1
g2
(lp509
Vwindow
p510
atp511
Rp512
(dp513
g12
VNN
p514
sbatp515
Rp516
(dp517
g12
VNP
p518
sbag0
(g1
g2
(lp519
g0
(g1
g2
(lp520
Vis
p521
atp522
Rp523
(dp524
g12
VVBZ
p525
sbag0
(g1
g2
(lp526
g0
(g1
g2
(lp527
Vopen
p528
atp529
Rp530
(dp531
g12
VJJ
p532
sbatp533
Rp534
(dp535
g12
VADJP
p536
sbag0
(g1
g2
(lp537
V,
p538
atp539
Rp540
(dp541
g12
V,
p542
sbag0
(g1
g2
(lp543
g0
(g1
g2
(lp544
Vapparently
p545
atp546
Rp547
(dp548
g12
VRB
p549
sbatp550
Rp551
(dp552
g12
VADVP
p553
sbag0
(g1
g2
(lp554
g0
(g1
g2
(lp555
Von
p556
atp557
Rp558
(dp559
g12
VIN
p560
sbag0
(g1
g2
(lp561
g0
(g1
g2
(lp562
Vthe
p563
atp564
Rp565
(dp566
g12
VDT
p567
sbag0
(g1
g2
(lp568
Vbottom
p569
atp570
Rp571
(dp572
g12
VNN
p573
sbatp574
Rp575
(dp576
g12
VNP
p577
sbatp578
Rp579
(dp580
g12
VPP
p581
sbatp582
Rp583
(dp584
g12
VVP
p585
sbatp586
Rp587
(dp588
g12
VS
p589
sbag0
(g1
g2
(lp590
V,
p591
atp592
Rp593
(dp594
g12
V,
p595
sbag0
(g1
g2
(lp596
Vand
p597
atp598
Rp599
(dp600
g12
VCC
p601
sbag0
(g1
g2
(lp602
g0
(g1
g2
(lp603
g0
(g1
g2
(lp604
Vshe
p605
atp606
Rp607
(dp608
g12
VPRP
p609
sbatp610
Rp611
(dp612
g12
VNP
p613
sbag0
(g1
g2
(lp614
g0
(g1
g2
(lp615
Vis
p616
atp617
Rp618
(dp619
g12
VVBZ
p620
sbag0
(g1
g2
(lp621
g0
(g1
g2
(lp622
Vlooking
p623
atp624
Rp625
(dp626
g12
VVBG
p627
sbag0
(g1
g2
(lp628
g0
(g1
g2
(lp629
Vout
p630
atp631
Rp632
(dp633
g12
VRP
p634
sbatp635
Rp636
(dp637
g12
VPRT
p638
sbag0
(g1
g2
(lp639
g0
(g1
g2
(lp640
Vinto
p641
atp642
Rp643
(dp644
g12
VIN
p645
sbag0
(g1
g2
(lp646
g0
(g1
g2
(lp647
g0
(g1
g2
(lp648
Vthe
p649
atp650
Rp651
(dp652
g12
VDT
p653
sbag0
(g1
g2
(lp654
Vback
p655
atp656
Rp657
(dp658
g12
VJJ
p659
sbag0
(g1
g2
(lp660
Vyard
p661
atp662
Rp663
(dp664
g12
VNN
p665
sbatp666
Rp667
(dp668
g12
VNP
p669
sbag0
(g1
g2
(lp670
V,
p671
atp672
Rp673
(dp674
g12
V,
p675
sbag0
(g1
g2
(lp676
Vor
p677
atp678
Rp679
(dp680
g12
VCC
p681
sbag0
(g1
g2
(lp682
g0
(g1
g2
(lp683
g0
(g1
g2
(lp684
Vthe
p685
atp686
Rp687
(dp688
g12
VDT
p689
sbag0
(g1
g2
(lp690
Vfront
p691
atp692
Rp693
(dp694
g12
VJJ
p695
sbag0
(g1
g2
(lp696
Vside
p697
atp698
Rp699
(dp700
g12
VNN
p701
sbatp702
Rp703
(dp704
g12
VNP
p705
sbag0
(g1
g2
(lp706
g0
(g1
g2
(lp707
Vof
p708
atp709
Rp710
(dp711
g12
VIN
p712
sbag0
(g1
g2
(lp713
g0
(g1
g2
(lp714
Vthe
p715
atp716
Rp717
(dp718
g12
VDT
p719
sbag0
(g1
g2
(lp720
Vhouse
p721
atp722
Rp723
(dp724
g12
VNN
p725
sbatp726
Rp727
(dp728
g12
VNP
p729
sbatp730
Rp731
(dp732
g12
VPP
p733
sbatp734
Rp735
(dp736
g12
VNP
p737
sbatp738
Rp739
(dp740
g12
VNP
p741
sbatp742
Rp743
(dp744
g12
VPP
p745
sbatp746
Rp747
(dp748
g12
VVP
p749
sbatp750
Rp751
(dp752
g12
VVP
p753
sbatp754
Rp755
(dp756
g12
VS
p757
sbag0
(g1
g2
(lp758
V.
p759
atp760
Rp761
(dp762
g12
V.
p763
sbatp764
Rp765
(dp766
g12
VS
p767
sbatp768
Rp769
(dp770
g12
S'id: 2'
p771
sbag0
(g1
g2
(lp772
g0
(g1
g2
(lp773
g0
(g1
g2
(lp774
g0
(g1
g2
(lp775
g0
(g1
g2
(lp776
Vyou
p777
atp778
Rp779
(dp780
g12
VPRP
p781
sbatp782
Rp783
(dp784
g12
VNP
p785
sbag0
(g1
g2
(lp786
g0
(g1
g2
(lp787
V've
p788
atp789
Rp790
(dp791
g12
VVBP
p792
sbag0
(g1
g2
(lp793
g0
(g1
g2
(lp794
Vgot
p795
atp796
Rp797
(dp798
g12
VVBD
p799
sbag0
(g1
g2
(lp800
g0
(g1
g2
(lp801
g0
(g1
g2
(lp802
g0
(g1
g2
(lp803
Vthree
p804
atp805
Rp806
(dp807
g12
VCD
p808
sbatp809
Rp810
(dp811
g12
VNP
p812
sbag0
(g1
g2
(lp813
g0
(g1
g2
(lp814
Vbowls
p815
atp816
Rp817
(dp818
g12
VVBZ
p819
sbatp820
Rp821
(dp822
g12
VVP
p823
sbatp824
Rp825
(dp826
g12
VNP
p827
sbag0
(g1
g2
(lp828
V,
p829
atp830
Rp831
(dp832
g12
V,
p833
sbag0
(g1
g2
(lp834
Vor
p835
atp836
Rp837
(dp838
g12
VCC
p839
sbag0
(g1
g2
(lp840
g0
(g1
g2
(lp841
g0
(g1
g2
(lp842
g0
(g1
g2
(lp843
Vtwo
p844
atp845
Rp846
(dp847
g12
VCD
p848
sbatp849
Rp850
(dp851
g12
VNP
p852
sbag0
(g1
g2
(lp853
g0
(g1
g2
(lp854
Vbowls
p855
atp856
Rp857
(dp858
g12
VVBZ
p859
sbatp860
Rp861
(dp862
g12
VVP
p863
sbatp864
Rp865
(dp866
g12
VNP
p867
sbag0
(g1
g2
(lp868
V,
p869
atp870
Rp871
(dp872
g12
V,
p873
sbag0
(g1
g2
(lp874
Vand
p875
atp876
Rp877
(dp878
g12
VCC
p879
sbag0
(g1
g2
(lp880
g0
(g1
g2
(lp881
g0
(g1
g2
(lp882
Va
p883
atp884
Rp885
(dp886
g12
VDT
p887
sbag0
(g1
g2
(lp888
Vtwo
p889
atp890
Rp891
(dp892
g12
VCD
p893
sbag0
(g1
g2
(lp894
Vplates
p895
atp896
Rp897
(dp898
g12
VNNS
p899
sbatp900
Rp901
(dp902
g12
VNP
p903
sbag0
(g1
g2
(lp904
g0
(g1
g2
(lp905
Vin
p906
atp907
Rp908
(dp909
g12
VIN
p910
sbag0
(g1
g2
(lp911
g0
(g1
g2
(lp912
Vthe
p913
atp914
Rp915
(dp916
g12
VDT
p917
sbag0
(g1
g2
(lp918
Vpicture
p919
atp920
Rp921
(dp922
g12
VNN
p923
sbatp924
Rp925
(dp926
g12
VNP
p927
sbatp928
Rp929
(dp930
g12
VPP
p931
sbatp932
Rp933
(dp934
g12
VNP
p935
sbatp936
Rp937
(dp938
g12
VNP
p939
sbatp940
Rp941
(dp942
g12
VNP
p943
sbatp944
Rp945
(dp946
g12
VVP
p947
sbatp948
Rp949
(dp950
g12
VVP
p951
sbatp952
Rp953
(dp954
g12
VS
p955
sbag0
(g1
g2
(lp956
V,
p957
atp958
Rp959
(dp960
g12
V,
p961
sbag0
(g1
g2
(lp962
g0
(g1
g2
(lp963
Vyou
p964
atp965
Rp966
(dp967
g12
VPRP
p968
sbatp969
Rp970
(dp971
g12
VNP
p972
sbag0
(g1
g2
(lp973
g0
(g1
g2
(lp974
V've
p975
atp976
Rp977
(dp978
g12
VVBP
p979
sbag0
(g1
g2
(lp980
g0
(g1
g2
(lp981
Vgot
p982
atp983
Rp984
(dp985
g12
VVBD
p986
sbag0
(g1
g2
(lp987
g0
(g1
g2
(lp988
Va
p989
atp990
Rp991
(dp992
g12
VDT
p993
sbag0
(g1
g2
(lp994
Vcookie
p995
atp996
Rp997
(dp998
g12
VNN
p999
sbag0
(g1
g2
(lp1000
Vjar
p1001
atp1002
Rp1003
(dp1004
g12
VNN
p1005
sbatp1006
Rp1007
(dp1008
g12
VNP
p1009
sbag0
(g1
g2
(lp1010
g0
(g1
g2
(lp1011
Vwith
p1012
atp1013
Rp1014
(dp1015
g12
VIN
p1016
sbag0
(g1
g2
(lp1017
g0
(g1
g2
(lp1018
g0
(g1
g2
(lp1019
Va
p1020
atp1021
Rp1022
(dp1023
g12
VDT
p1024
sbag0
(g1
g2
(lp1025
Vlid
p1026
atp1027
Rp1028
(dp1029
g12
VNN
p1030
sbatp1031
Rp1032
(dp1033
g12
VNP
p1034
sbag0
(g1
g2
(lp1035
g0
(g1
g2
(lp1036
g0
(g1
g2
(lp1037
Vthat
p1038
atp1039
Rp1040
(dp1041
g12
VWDT
p1042
sbatp1043
Rp1044
(dp1045
g12
VWHNP
p1046
sbag0
(g1
g2
(lp1047
g0
(g1
g2
(lp1048
g0
(g1
g2
(lp1049
V's
p1050
atp1051
Rp1052
(dp1053
g12
VVBZ
p1054
sbag0
(g1
g2
(lp1055
g0
(g1
g2
(lp1056
Vleaning
p1057
atp1058
Rp1059
(dp1060
g12
VVBG
p1061
sbag0
(g1
g2
(lp1062
g0
(g1
g2
(lp1063
Vagainst
p1064
atp1065
Rp1066
(dp1067
g12
VIN
p1068
sbag0
(g1
g2
(lp1069
g0
(g1
g2
(lp1070
Vit
p1071
atp1072
Rp1073
(dp1074
g12
VPRP
p1075
sbatp1076
Rp1077
(dp1078
g12
VNP
p1079
sbatp1080
Rp1081
(dp1082
g12
VPP
p1083
sbatp1084
Rp1085
(dp1086
g12
VVP
p1087
sbatp1088
Rp1089
(dp1090
g12
VVP
p1091
sbatp1092
Rp1093
(dp1094
g12
VS
p1095
sbatp1096
Rp1097
(dp1098
g12
VSBAR
p1099
sbatp1100
Rp1101
(dp1102
g12
VNP
p1103
sbatp1104
Rp1105
(dp1106
g12
VPP
p1107
sbatp1108
Rp1109
(dp1110
g12
VVP
p1111
sbatp1112
Rp1113
(dp1114
g12
VVP
p1115
sbag0
(g1
g2
(lp1116
V.
p1117
atp1118
Rp1119
(dp1120
g12
V.
p1121
sbatp1122
Rp1123
(dp1124
g12
VS
p1125
sbatp1126
Rp1127
(dp1128
g12
S'id: 3'
p1129
sbag0
(g1
g2
(lp1130
g0
(g1
g2
(lp1131
g0
(g1
g2
(lp1132
g0
(g1
g2
(lp1133
g0
(g1
g2
(lp1134
VThere
p1135
atp1136
Rp1137
(dp1138
g12
VEX
p1139
sbatp1140
Rp1141
(dp1142
g12
VNP
p1143
sbag0
(g1
g2
(lp1144
g0
(g1
g2
(lp1145
g0
(g1
g2
(lp1146
Vare
p1147
atp1148
Rp1149
(dp1150
g12
VVBP
p1151
sbag0
(g1
g2
(lp1152
g0
(g1
g2
(lp1153
Vno
p1154
atp1155
Rp1156
(dp1157
g12
VDT
p1158
sbag0
(g1
g2
(lp1159
Vshelves
p1160
atp1161
Rp1162
(dp1163
g12
VNNS
p1164
sbatp1165
Rp1166
(dp1167
g12
VNP
p1168
sbatp1169
Rp1170
(dp1171
g12
VVP
p1172
sbag0
(g1
g2
(lp1173
Vor
p1174
atp1175
Rp1176
(dp1177
g12
VCC
p1178
sbag0
(g1
g2
(lp1179
g0
(g1
g2
(lp1180
Vhandles
p1181
atp1182
Rp1183
(dp1184
g12
VVBZ
p1185
sbatp1186
Rp1187
(dp1188
g12
VVP
p1189
sbatp1190
Rp1191
(dp1192
g12
VVP
p1193
sbatp1194
Rp1195
(dp1196
g12
VS
p1197
sbag0
(g1
g2
(lp1198
V,
p1199
atp1200
Rp1201
(dp1202
g12
V,
p1203
sbag0
(g1
g2
(lp1204
g0
(g1
g2
(lp1205
Vthat
p1206
atp1207
Rp1208
(dp1209
g12
VWDT
p1210
sbatp1211
Rp1212
(dp1213
g12
VNP
p1214
sbag0
(g1
g2
(lp1215
g0
(g1
g2
(lp1216
Vare
p1217
atp1218
Rp1219
(dp1220
g12
VVBP
p1221
sbag0
(g1
g2
(lp1222
g0
(g1
g2
(lp1223
Vseen
p1224
atp1225
Rp1226
(dp1227
g12
VVBN
p1228
sbag0
(g1
g2
(lp1229
g0
(g1
g2
(lp1230
Von
p1231
atp1232
Rp1233
(dp1234
g12
VIN
p1235
sbag0
(g1
g2
(lp1236
g0
(g1
g2
(lp1237
Vthe
p1238
atp1239
Rp1240
(dp1241
g12
VDT
p1242
sbag0
(g1
g2
(lp1243
Vdoors
p1244
atp1245
Rp1246
(dp1247
g12
VNNS
p1248
sbatp1249
Rp1250
(dp1251
g12
VNP
p1252
sbatp1253
Rp1254
(dp1255
g12
VPP
p1256
sbatp1257
Rp1258
(dp1259
g12
VVP
p1260
sbatp1261
Rp1262
(dp1263
g12
VVP
p1264
sbag0
(g1
g2
(lp1265
V.
p1266
atp1267
Rp1268
(dp1269
g12
V.
p1270
sbatp1271
Rp1272
(dp1273
g12
VS
p1274
sbatp1275
Rp1276
(dp1277
g12
S'id: 4'
p1278
sbag0
(g1
g2
(lp1279
g0
(g1
g2
(lp1280
g0
(g1
g2
(lp1281
g0
(g1
g2
(lp1282
g0
(g1
g2
(lp1283
VYou
p1284
atp1285
Rp1286
(dp1287
g12
VPRP
p1288
sbatp1289
Rp1290
(dp1291
g12
VNP
p1292
sbag0
(g1
g2
(lp1293
g0
(g1
g2
(lp1294
V've
p1295
atp1296
Rp1297
(dp1298
g12
VVBP
p1299
sbag0
(g1
g2
(lp1300
g0
(g1
g2
(lp1301
Vgot
p1302
atp1303
Rp1304
(dp1305
g12
VVBN
p1306
sbag0
(g1
g2
(lp1307
V,
p1308
atp1309
Rp1310
(dp1311
g12
V,
p1312
sbag0
(g1
g2
(lp1313
g0
(g1
g2
(lp1314
Vyour
p1315
atp1316
Rp1317
(dp1318
g12
VPRP$
p1319
sbatp1320
Rp1321
(dp1322
g12
VNP
p1323
sbatp1324
Rp1325
(dp1326
g12
VVP
p1327
sbatp1328
Rp1329
(dp1330
g12
VVP
p1331
sbatp1332
Rp1333
(dp1334
g12
VS
p1335
sbag0
(g1
g2
(lp1336
V,
p1337
atp1338
Rp1339
(dp1340
g12
V,
p1341
sbag0
(g1
g2
(lp1342
g0
(g1
g2
(lp1343
Vthe
p1344
atp1345
Rp1346
(dp1347
g12
VDT
p1348
sbatp1349
Rp1350
(dp1351
g12
VNP
p1352
sbag0
(g1
g2
(lp1353
g0
(g1
g2
(lp1354
Vhandles
p1355
atp1356
Rp1357
(dp1358
g12
VVBZ
p1359
sbag0
(g1
g2
(lp1360
g0
(g1
g2
(lp1361
Vdown
p1362
atp1363
Rp1364
(dp1365
g12
VRP
p1366
sbatp1367
Rp1368
(dp1369
g12
VPRT
p1370
sbag0
(g1
g2
(lp1371
g0
(g1
g2
(lp1372
Vhere
p1373
atp1374
Rp1375
(dp1376
g12
VRB
p1377
sbatp1378
Rp1379
(dp1380
g12
VADVP
p1381
sbag0
(g1
g2
(lp1382
g0
(g1
g2
(lp1383
Von
p1384
atp1385
Rp1386
(dp1387
g12
VIN
p1388
sbag0
(g1
g2
(lp1389
g0
(g1
g2
(lp1390
g0
(g1
g2
(lp1391
g0
(g1
g2
(lp1392
Vthe
p1393
atp1394
Rp1395
(dp1396
g12
VDT
p1397
sbag0
(g1
g2
(lp1398
Vbottom
p1399
atp1400
Rp1401
(dp1402
g12
VNN
p1403
sbatp1404
Rp1405
(dp1406
g12
VNP
p1407
sbag0
(g1
g2
(lp1408
V,
p1409
atp1410
Rp1411
(dp1412
g12
V,
p1413
sbag0
(g1
g2
(lp1414
g0
(g1
g2
(lp1415
g0
(g1
g2
(lp1416
Vthat
p1417
atp1418
Rp1419
(dp1420
g12
VWDT
p1421
sbatp1422
Rp1423
(dp1424
g12
VWHNP
p1425
sbag0
(g1
g2
(lp1426
g0
(g1
g2
(lp1427
g0
(g1
g2
(lp1428
Vare
p1429
atp1430
Rp1431
(dp1432
g12
VVBP
p1433
sbag0
(g1
g2
(lp1434
g0
(g1
g2
(lp1435
Vjust
p1436
atp1437
Rp1438
(dp1439
g12
VRB
p1440
sbatp1441
Rp1442
(dp1443
g12
VADVP
p1444
sbag0
(g1
g2
(lp1445
g0
(g1
g2
(lp1446
g0
(g1
g2
(lp1447
Vpull
p1448
atp1449
Rp1450
(dp1451
g12
VVB
p1452
sbag0
(g1
g2
(lp1453
g0
(g1
g2
(lp1454
Vlocks
p1455
atp1456
Rp1457
(dp1458
g12
VNNS
p1459
sbatp1460
Rp1461
(dp1462
g12
VNP
p1463
sbatp1464
Rp1465
(dp1466
g12
VVP
p1467
sbatp1468
Rp1469
(dp1470
g12
VS
p1471
sbatp1472
Rp1473
(dp1474
g12
VVP
p1475
sbatp1476
Rp1477
(dp1478
g12
VS
p1479
sbatp1480
Rp1481
(dp1482
g12
VSBAR
p1483
sbag0
(g1
g2
(lp1484
V,
p1485
atp1486
Rp1487
(dp1488
g12
V,
p1489
sbatp1490
Rp1491
(dp1492
g12
VNP
p1493
sbag0
(g1
g2
(lp1494
Vand
p1495
atp1496
Rp1497
(dp1498
g12
VCC
p1499
sbag0
(g1
g2
(lp1500
g0
(g1
g2
(lp1501
Vnot
p1502
atp1503
Rp1504
(dp1505
g12
VRB
p1506
sbag0
(g1
g2
(lp1507
Va
p1508
atp1509
Rp1510
(dp1511
g12
VDT
p1512
sbag0
(g1
g2
(lp1513
Vlittle
p1514
atp1515
Rp1516
(dp1517
g12
VJJ
p1518
sbag0
(g1
g2
(lp1519
Vknob
p1520
atp1521
Rp1522
(dp1523
g12
VNN
p1524
sbatp1525
Rp1526
(dp1527
g12
VNP
p1528
sbatp1529
Rp1530
(dp1531
g12
VNP
p1532
sbatp1533
Rp1534
(dp1535
g12
VPP
p1536
sbatp1537
Rp1538
(dp1539
g12
VVP
p1540
sbag0
(g1
g2
(lp1541
V.
p1542
atp1543
Rp1544
(dp1545
g12
V.
p1546
sbatp1547
Rp1548
(dp1549
g12
VS
p1550
sbatp1551
Rp1552
(dp1553
g12
S'id: 5'
p1554
sbag0
(g1
g2
(lp1555
g0
(g1
g2
(lp1556
g0
(g1
g2
(lp1557
g0
(g1
g2
(lp1558
VYou
p1559
atp1560
Rp1561
(dp1562
g12
VPRP
p1563
sbatp1564
Rp1565
(dp1566
g12
VNP
p1567
sbag0
(g1
g2
(lp1568
g0
(g1
g2
(lp1569
V've
p1570
atp1571
Rp1572
(dp1573
g12
VVBP
p1574
sbag0
(g1
g2
(lp1575
g0
(g1
g2
(lp1576
Vgot
p1577
atp1578
Rp1579
(dp1580
g12
VVBD
p1581
sbag0
(g1
g2
(lp1582
g0
(g1
g2
(lp1583
g0
(g1
g2
(lp1584
g0
(g1
g2
(lp1585
g0
(g1
g2
(lp1586
Vtwo
p1587
atp1588
Rp1589
(dp1590
g12
VCD
p1591
sbag0
(g1
g2
(lp1592
Vfaucets
p1593
atp1594
Rp1595
(dp1596
g12
VNNS
p1597
sbatp1598
Rp1599
(dp1600
g12
VNP
p1601
sbag0
(g1
g2
(lp1602
g0
(g1
g2
(lp1603
Vover
p1604
atp1605
Rp1606
(dp1607
g12
VIN
p1608
sbag0
(g1
g2
(lp1609
g0
(g1
g2
(lp1610
Vhere
p1611
atp1612
Rp1613
(dp1614
g12
VRB
p1615
sbatp1616
Rp1617
(dp1618
g12
VNP
p1619
sbatp1620
Rp1621
(dp1622
g12
VPP
p1623
sbatp1624
Rp1625
(dp1626
g12
VNP
p1627
sbag0
(g1
g2
(lp1628
V,
p1629
atp1630
Rp1631
(dp1632
g12
V,
p1633
sbag0
(g1
g2
(lp1634
Vand
p1635
atp1636
Rp1637
(dp1638
g12
VCC
p1639
sbag0
(g1
g2
(lp1640
g0
(g1
g2
(lp1641
Vone
p1642
atp1643
Rp1644
(dp1645
g12
VCD
p1646
sbag0
(g1
g2
(lp1647
Vlarge
p1648
atp1649
Rp1650
(dp1651
g12
VJJ
p1652
sbag0
(g1
g2
(lp1653
Vsink
p1654
atp1655
Rp1656
(dp1657
g12
VNN
p1658
sbatp1659
Rp1660
(dp1661
g12
VNP
p1662
sbag0
(g1
g2
(lp1663
V,
p1664
atp1665
Rp1666
(dp1667
g12
V,
p1668
sbag0
(g1
g2
(lp1669
Vand
p1670
atp1671
Rp1672
(dp1673
g12
VCC
p1674
sbag0
(g1
g2
(lp1675
g0
(g1
g2
(lp1676
Vnot
p1677
atp1678
Rp1679
(dp1680
g12
VRB
p1681
sbag0
(g1
g2
(lp1682
Va
p1683
atp1684
Rp1685
(dp1686
g12
VDT
p1687
sbatp1688
Rp1689
(dp1690
g12
VNP
p1691
sbatp1692
Rp1693
(dp1694
g12
VNP
p1695
sbag0
(g1
g2
(lp1696
g0
(g1
g2
(lp1697
Vdrying
p1698
atp1699
Rp1700
(dp1701
g12
VVBG
p1702
sbag0
(g1
g2
(lp1703
Vor
p1704
atp1705
Rp1706
(dp1707
g12
VCC
p1708
sbag0
(g1
g2
(lp1709
Vrinsing
p1710
atp1711
Rp1712
(dp1713
g12
VVBG
p1714
sbag0
(g1
g2
(lp1715
g0
(g1
g2
(lp1716
Vside
p1717
atp1718
Rp1719
(dp1720
g12
VNN
p1721
sbatp1722
Rp1723
(dp1724
g12
VNP
p1725
sbatp1726
Rp1727
(dp1728
g12
VVP
p1729
sbatp1730
Rp1731
(dp1732
g12
VS
p1733
sbatp1734
Rp1735
(dp1736
g12
VVP
p1737
sbatp1738
Rp1739
(dp1740
g12
VVP
p1741
sbag0
(g1
g2
(lp1742
V.
p1743
atp1744
Rp1745
(dp1746
g12
V.
p1747
sbatp1748
Rp1749
(dp1750
g12
VS
p1751
sbatp1752
Rp1753
(dp1754
g12
S'id: 6'
p1755
sbag0
(g1
g2
(lp1756
g0
(g1
g2
(lp1757
g0
(g1
g2
(lp1758
g0
(g1
g2
(lp1759
g0
(g1
g2
(lp1760
Vyou
p1761
atp1762
Rp1763
(dp1764
g12
VPRP
p1765
sbatp1766
Rp1767
(dp1768
g12
VNP
p1769
sbag0
(g1
g2
(lp1770
g0
(g1
g2
(lp1771
V've
p1772
atp1773
Rp1774
(dp1775
g12
VVBP
p1776
sbag0
(g1
g2
(lp1777
g0
(g1
g2
(lp1778
Vgot
p1779
atp1780
Rp1781
(dp1782
g12
VVBN
p1783
sbag0
(g1
g2
(lp1784
g0
(g1
g2
(lp1785
V,
p1786
atp1787
Rp1788
(dp1789
g12
V,
p1790
sbag0
(g1
g2
(lp1791
g0
(g1
g2
(lp1792
g0
(g1
g2
(lp1793
Vthe
p1794
atp1795
Rp1796
(dp1797
g12
VDT
p1798
sbag0
(g1
g2
(lp1799
Vpicture
p1800
atp1801
Rp1802
(dp1803
g12
VNN
p1804
sbatp1805
Rp1806
(dp1807
g12
VNP
p1808
sbag0
(g1
g2
(lp1809
g0
(g1
g2
(lp1810
Vwas
p1811
atp1812
Rp1813
(dp1814
g12
VVBD
p1815
sbag0
(g1
g2
(lp1816
g0
(g1
g2
(lp1817
Vprobably
p1818
atp1819
Rp1820
(dp1821
g12
VRB
p1822
sbatp1823
Rp1824
(dp1825
g12
VADVP
p1826
sbag0
(g1
g2
(lp1827
g0
(g1
g2
(lp1828
Vdone
p1829
atp1830
Rp1831
(dp1832
g12
VVBN
p1833
sbag0
(g1
g2
(lp1834
g0
(g1
g2
(lp1835
Vback
p1836
atp1837
Rp1838
(dp1839
g12
VRB
p1840
sbatp1841
Rp1842
(dp1843
g12
VADVP
p1844
sbag0
(g1
g2
(lp1845
g0
(g1
g2
(lp1846
Vin
p1847
atp1848
Rp1849
(dp1850
g12
VIN
p1851
sbag0
(g1
g2
(lp1852
g0
(g1
g2
(lp1853
Vthe
p1854
atp1855
Rp1856
(dp1857
g12
VDT
p1858
sbag0
(g1
g2
(lp1859
Vlate
p1860
atp1861
Rp1862
(dp1863
g12
VJJ
p1864
sbag0
(g1
g2
(lp1865
Vfifties
p1866
atp1867
Rp1868
(dp1869
g12
VNNS
p1870
sbatp1871
Rp1872
(dp1873
g12
VNP
p1874
sbatp1875
Rp1876
(dp1877
g12
VPP
p1878
sbatp1879
Rp1880
(dp1881
g12
VVP
p1882
sbatp1883
Rp1884
(dp1885
g12
VVP
p1886
sbatp1887
Rp1888
(dp1889
g12
VS
p1890
sbag0
(g1
g2
(lp1891
V,
p1892
atp1893
Rp1894
(dp1895
g12
V,
p1896
sbatp1897
Rp1898
(dp1899
g12
VPRN
p1900
sbag0
(g1
g2
(lp1901
g0
(g1
g2
(lp1902
Vthat
p1903
atp1904
Rp1905
(dp1906
g12
VIN
p1907
sbag0
(g1
g2
(lp1908
Vsort
p1909
atp1910
Rp1911
(dp1912
g12
VNN
p1913
sbag0
(g1
g2
(lp1914
g0
(g1
g2
(lp1915
Vof
p1916
atp1917
Rp1918
(dp1919
g12
VIN
p1920
sbag0
(g1
g2
(lp1921
g0
(g1
g2
(lp1922
Vera
p1923
atp1924
Rp1925
(dp1926
g12
VNN
p1927
sbatp1928
Rp1929
(dp1930
g12
VNP
p1931
sbatp1932
Rp1933
(dp1934
g12
VPP
p1935
sbatp1936
Rp1937
(dp1938
g12
VADVP
p1939
sbag0
(g1
g2
(lp1940
g0
(g1
g2
(lp1941
Vbecause
p1942
atp1943
Rp1944
(dp1945
g12
VIN
p1946
sbag0
(g1
g2
(lp1947
g0
(g1
g2
(lp1948
Vlook
p1949
atp1950
Rp1951
(dp1952
g12
VNN
p1953
sbatp1954
Rp1955
(dp1956
g12
VNP
p1957
sbatp1958
Rp1959
(dp1960
g12
VPP
p1961
sbag0
(g1
g2
(lp1962
g0
(g1
g2
(lp1963
Vat
p1964
atp1965
Rp1966
(dp1967
g12
VIN
p1968
sbag0
(g1
g2
(lp1969
g0
(g1
g2
(lp1970
Vthe
p1971
atp1972
Rp1973
(dp1974
g12
VDT
p1975
sbag0
(g1
g2
(lp1976
Vlittle
p1977
atp1978
Rp1979
(dp1980
g12
VJJ
p1981
sbag0
(g1
g2
(lp1982
Vmini
p1983
atp1984
Rp1985
(dp1986
g12
VJJ
p1987
sbag0
(g1
g2
(lp1988
Vskirt
p1989
atp1990
Rp1991
(dp1992
g12
VNN
p1993
sbatp1994
Rp1995
(dp1996
g12
VNP
p1997
sbatp1998
Rp1999
(dp2000
g12
VPP
p2001
sbag0
(g1
g2
(lp2002
V,
p2003
atp2004
Rp2005
(dp2006
g12
V,
p2007
sbag0
(g1
g2
(lp2008
g0
(g1
g2
(lp2009
Vthat
p2010
atp2011
Rp2012
(dp2013
g12
VIN
p2014
sbag0
(g1
g2
(lp2015
g0
(g1
g2
(lp2016
g0
(g1
g2
(lp2017
Vthe
p2018
atp2019
Rp2020
(dp2021
g12
VDT
p2022
sbag0
(g1
g2
(lp2023
Vgirls
p2024
atp2025
Rp2026
(dp2027
g12
VNNS
p2028
sbatp2029
Rp2030
(dp2031
g12
VNP
p2032
sbag0
(g1
g2
(lp2033
g0
(g1
g2
(lp2034
g0
(g1
g2
(lp2035
Vgot
p2036
atp2037
Rp2038
(dp2039
g12
VVBD
p2040
sbatp2041
Rp2042
(dp2043
g12
VVP
p2044
sbag0
(g1
g2
(lp2045
Vor
p2046
atp2047
Rp2048
(dp2049
g12
VCC
p2050
sbag0
(g1
g2
(lp2051
g0
(g1
g2
(lp2052
g0
(g1
g2
(lp2053
Veither
p2054
atp2055
Rp2056
(dp2057
g12
VCC
p2058
sbag0
(g1
g2
(lp2059
g0
(g1
g2
(lp2060
Vthe
p2061
atp2062
Rp2063
(dp2064
g12
VDT
p2065
sbag0
(g1
g2
(lp2066
Vlittle
p2067
atp2068
Rp2069
(dp2070
g12
VJJ
p2071
sbag0
(g1
g2
(lp2072
Vthing
p2073
atp2074
Rp2075
(dp2076
g12
VNN
p2077
sbatp2078
Rp2079
(dp2080
g12
VNP
p2081
sbatp2082
Rp2083
(dp2084
g12
VPP
p2085
sbag0
(g1
g2
(lp2086
g0
(g1
g2
(lp2087
Vdown
p2088
atp2089
Rp2090
(dp2091
g12
VRB
p2092
sbatp2093
Rp2094
(dp2095
g12
VADVP
p2096
sbatp2097
Rp2098
(dp2099
g12
VVP
p2100
sbatp2101
Rp2102
(dp2103
g12
VVP
p2104
sbatp2105
Rp2106
(dp2107
g12
VS
p2108
sbatp2109
Rp2110
(dp2111
g12
VSBAR
p2112
sbatp2113
Rp2114
(dp2115
g12
VVP
p2116
sbatp2117
Rp2118
(dp2119
g12
VVP
p2120
sbatp2121
Rp2122
(dp2123
g12
VS
p2124
sbag0
(g1
g2
(lp2125
V,
p2126
atp2127
Rp2128
(dp2129
g12
V,
p2130
sbag0
(g1
g2
(lp2131
Vand
p2132
atp2133
Rp2134
(dp2135
g12
VCC
p2136
sbag0
(g1
g2
(lp2137
g0
(g1
g2
(lp2138
g0
(g1
g2
(lp2139
Vthe
p2140
atp2141
Rp2142
(dp2143
g12
VDT
p2144
sbag0
(g1
g2
(lp2145
Vpants
p2146
atp2147
Rp2148
(dp2149
g12
VNNS
p2150
sbatp2151
Rp2152
(dp2153
g12
VNP
p2154
sbag0
(g1
g2
(lp2155
g0
(g1
g2
(lp2156
Vcome
p2157
atp2158
Rp2159
(dp2160
g12
VVBP
p2161
sbag0
(g1
g2
(lp2162
g0
(g1
g2
(lp2163
Vup
p2164
atp2165
Rp2166
(dp2167
g12
VRP
p2168
sbatp2169
Rp2170
(dp2171
g12
VPRT
p2172
sbag0
(g1
g2
(lp2173
g0
(g1
g2
(lp2174
Varound
p2175
atp2176
Rp2177
(dp2178
g12
VIN
p2179
sbag0
(g1
g2
(lp2180
g0
(g1
g2
(lp2181
Vthe
p2182
atp2183
Rp2184
(dp2185
g12
VDT
p2186
sbag0
(g1
g2
(lp2187
Vankles
p2188
atp2189
Rp2190
(dp2191
g12
VNNS
p2192
sbatp2193
Rp2194
(dp2195
g12
VNP
p2196
sbatp2197
Rp2198
(dp2199
g12
VPP
p2200
sbag0
(g1
g2
(lp2201
V,
p2202
atp2203
Rp2204
(dp2205
g12
V,
p2206
sbag0
(g1
g2
(lp2207
g0
(g1
g2
(lp2208
Vdepending
p2209
atp2210
Rp2211
(dp2212
g12
VVBG
p2213
sbag0
(g1
g2
(lp2214
g0
(g1
g2
(lp2215
Von
p2216
atp2217
Rp2218
(dp2219
g12
VIN
p2220
sbag0
(g1
g2
(lp2221
g0
(g1
g2
(lp2222
g0
(g1
g2
(lp2223
Vhow
p2224
atp2225
Rp2226
(dp2227
g12
VWRB
p2228
sbatp2229
Rp2230
(dp2231
g12
VWHADVP
p2232
sbag0
(g1
g2
(lp2233
g0
(g1
g2
(lp2234
g0
(g1
g2
(lp2235
Vthat
p2236
atp2237
Rp2238
(dp2239
g12
VDT
p2240
sbatp2241
Rp2242
(dp2243
g12
VNP
p2244
sbag0
(g1
g2
(lp2245
g0
(g1
g2
(lp2246
Vis
p2247
atp2248
Rp2249
(dp2250
g12
VVBZ
p2251
sbag0
(g1
g2
(lp2252
g0
(g1
g2
(lp2253
Vsince
p2254
atp2255
Rp2256
(dp2257
g12
VIN
p2258
sbag0
(g1
g2
(lp2259
g0
(g1
g2
(lp2260
g0
(g1
g2
(lp2261
VI
p2262
atp2263
Rp2264
(dp2265
g12
VPRP
p2266
sbatp2267
Rp2268
(dp2269
g12
VNP
p2270
sbag0
(g1
g2
(lp2271
g0
(g1
g2
(lp2272
Vca
p2273
atp2274
Rp2275
(dp2276
g12
VMD
p2277
sbag0
(g1
g2
(lp2278
Vn't
p2279
atp2280
Rp2281
(dp2282
g12
VRB
p2283
sbag0
(g1
g2
(lp2284
g0
(g1
g2
(lp2285
Vtell
p2286
atp2287
Rp2288
(dp2289
g12
VVB
p2290
sbag0
(g1
g2
(lp2291
g0
(g1
g2
(lp2292
Vthe
p2293
atp2294
Rp2295
(dp2296
g12
VDT
p2297
sbag0
(g1
g2
(lp2298
Vmuscle
p2299
atp2300
Rp2301
(dp2302
g12
VNN
p2303
sbag0
(g1
g2
(lp2304
Vdescription
p2305
atp2306
Rp2307
(dp2308
g12
VNN
p2309
sbatp2310
Rp2311
(dp2312
g12
VNP
p2313
sbatp2314
Rp2315
(dp2316
g12
VVP
p2317
sbatp2318
Rp2319
(dp2320
g12
VVP
p2321
sbatp2322
Rp2323
(dp2324
g12
VS
p2325
sbatp2326
Rp2327
(dp2328
g12
VSBAR
p2329
sbatp2330
Rp2331
(dp2332
g12
VVP
p2333
sbatp2334
Rp2335
(dp2336
g12
VS
p2337
sbatp2338
Rp2339
(dp2340
g12
VSBAR
p2341
sbatp2342
Rp2343
(dp2344
g12
VPP
p2345
sbatp2346
Rp2347
(dp2348
g12
VPP
p2349
sbatp2350
Rp2351
(dp2352
g12
VVP
p2353
sbatp2354
Rp2355
(dp2356
g12
VS
p2357
sbag0
(g1
g2
(lp2358
V.
p2359
atp2360
Rp2361
(dp2362
g12
V.
p2363
sbatp2364
Rp2365
(dp2366
g12
VS
p2367
sbatp2368
Rp2369
(dp2370
g12
S'id: 7'
p2371
sbag0
(g1
g2
(lp2372
g0
(g1
g2
(lp2373
g0
(g1
g2
(lp2374
g0
(g1
g2
(lp2375
g0
(g1
g2
(lp2376
VThat
p2377
atp2378
Rp2379
(dp2380
g12
VDT
p2381
sbag0
(g1
g2
(lp2382
Vkid
p2383
atp2384
Rp2385
(dp2386
g12
VNN
p2387
sbatp2388
Rp2389
(dp2390
g12
VNP
p2391
sbag0
(g1
g2
(lp2392
g0
(g1
g2
(lp2393
Vapparently
p2394
atp2395
Rp2396
(dp2397
g12
VRB
p2398
sbatp2399
Rp2400
(dp2401
g12
VADVP
p2402
sbag0
(g1
g2
(lp2403
g0
(g1
g2
(lp2404
Vis
p2405
atp2406
Rp2407
(dp2408
g12
VVBZ
p2409
sbag0
(g1
g2
(lp2410
g0
(g1
g2
(lp2411
Vgoing
p2412
atp2413
Rp2414
(dp2415
g12
VVBG
p2416
sbag0
(g1
g2
(lp2417
g0
(g1
g2
(lp2418
g0
(g1
g2
(lp2419
Vto
p2420
atp2421
Rp2422
(dp2423
g12
VTO
p2424
sbag0
(g1
g2
(lp2425
g0
(g1
g2
(lp2426
Vhit
p2427
atp2428
Rp2429
(dp2430
g12
VVB
p2431
sbag0
(g1
g2
(lp2432
g0
(g1
g2
(lp2433
g0
(g1
g2
(lp2434
Vthe
p2435
atp2436
Rp2437
(dp2438
g12
VDT
p2439
sbag0
(g1
g2
(lp2440
Vback
p2441
atp2442
Rp2443
(dp2444
g12
VNN
p2445
sbatp2446
Rp2447
(dp2448
g12
VNP
p2449
sbag0
(g1
g2
(lp2450
g0
(g1
g2
(lp2451
Vof
p2452
atp2453
Rp2454
(dp2455
g12
VIN
p2456
sbag0
(g1
g2
(lp2457
g0
(g1
g2
(lp2458
g0
(g1
g2
(lp2459
Vhis
p2460
atp2461
Rp2462
(dp2463
g12
VPRP$
p2464
sbag0
(g1
g2
(lp2465
Vhead
p2466
atp2467
Rp2468
(dp2469
g12
VNN
p2470
sbatp2471
Rp2472
(dp2473
g12
VNP
p2474
sbag0
(g1
g2
(lp2475
g0
(g1
g2
(lp2476
Vthe
p2477
atp2478
Rp2479
(dp2480
g12
VDT
p2481
sbag0
(g1
g2
(lp2482
Vway
p2483
atp2484
Rp2485
(dp2486
g12
VNN
p2487
sbatp2488
Rp2489
(dp2490
g12
VNP
p2491
sbatp2492
Rp2493
(dp2494
g12
VNP
p2495
sbatp2496
Rp2497
(dp2498
g12
VPP
p2499
sbag0
(g1
g2
(lp2500
g0
(g1
g2
(lp2501
g0
(g1
g2
(lp2502
g0
(g1
g2
(lp2503
Vhe
p2504
atp2505
Rp2506
(dp2507
g12
VPRP
p2508
sbatp2509
Rp2510
(dp2511
g12
VNP
p2512
sbag0
(g1
g2
(lp2513
g0
(g1
g2
(lp2514
Vfalls
p2515
atp2516
Rp2517
(dp2518
g12
VVBZ
p2519
sbatp2520
Rp2521
(dp2522
g12
VVP
p2523
sbatp2524
Rp2525
(dp2526
g12
VS
p2527
sbatp2528
Rp2529
(dp2530
g12
VSBAR
p2531
sbatp2532
Rp2533
(dp2534
g12
VNP
p2535
sbatp2536
Rp2537
(dp2538
g12
VVP
p2539
sbatp2540
Rp2541
(dp2542
g12
VVP
p2543
sbatp2544
Rp2545
(dp2546
g12
VS
p2547
sbatp2548
Rp2549
(dp2550
g12
VVP
p2551
sbatp2552
Rp2553
(dp2554
g12
VVP
p2555
sbatp2556
Rp2557
(dp2558
g12
VS
p2559
sbag0
(g1
g2
(lp2560
V,
p2561
atp2562
Rp2563
(dp2564
g12
V,
p2565
sbag0
(g1
g2
(lp2566
g0
(g1
g2
(lp2567
Vhe
p2568
atp2569
Rp2570
(dp2571
g12
VPRP
p2572
sbatp2573
Rp2574
(dp2575
g12
VNP
p2576
sbag0
(g1
g2
(lp2577
g0
(g1
g2
(lp2578
V's
p2579
atp2580
Rp2581
(dp2582
g12
VVBZ
p2583
sbag0
(g1
g2
(lp2584
Vnot
p2585
atp2586
Rp2587
(dp2588
g12
VRB
p2589
sbag0
(g1
g2
(lp2590
g0
(g1
g2
(lp2591
Vgoing
p2592
atp2593
Rp2594
(dp2595
g12
VVBG
p2596
sbag0
(g1
g2
(lp2597
g0
(g1
g2
(lp2598
g0
(g1
g2
(lp2599
Vto
p2600
atp2601
Rp2602
(dp2603
g12
VTO
p2604
sbag0
(g1
g2
(lp2605
g0
(g1
g2
(lp2606
Vcome
p2607
atp2608
Rp2609
(dp2610
g12
VVB
p2611
sbag0
(g1
g2
(lp2612
g0
(g1
g2
(lp2613
Vdown
p2614
atp2615
Rp2616
(dp2617
g12
VRP
p2618
sbatp2619
Rp2620
(dp2621
g12
VPRT
p2622
sbag0
(g1
g2
(lp2623
g0
(g1
g2
(lp2624
Von
p2625
atp2626
Rp2627
(dp2628
g12
VIN
p2629
sbag0
(g1
g2
(lp2630
g0
(g1
g2
(lp2631
Vhis
p2632
atp2633
Rp2634
(dp2635
g12
VPRP$
p2636
sbag0
(g1
g2
(lp2637
Vfeet
p2638
atp2639
Rp2640
(dp2641
g12
VNNS
p2642
sbatp2643
Rp2644
(dp2645
g12
VNP
p2646
sbatp2647
Rp2648
(dp2649
g12
VPP
p2650
sbatp2651
Rp2652
(dp2653
g12
VVP
p2654
sbatp2655
Rp2656
(dp2657
g12
VVP
p2658
sbatp2659
Rp2660
(dp2661
g12
VS
p2662
sbatp2663
Rp2664
(dp2665
g12
VVP
p2666
sbatp2667
Rp2668
(dp2669
g12
VVP
p2670
sbag0
(g1
g2
(lp2671
V.
p2672
atp2673
Rp2674
(dp2675
g12
V.
p2676
sbatp2677
Rp2678
(dp2679
g12
VS
p2680
sbatp2681
Rp2682
(dp2683
g12
S'id: 8'
p2684
sbag0
(g1
g2
(lp2685
g0
(g1
g2
(lp2686
g0
(g1
g2
(lp2687
VAnd
p2688
atp2689
Rp2690
(dp2691
g12
VCC
p2692
sbag0
(g1
g2
(lp2693
g0
(g1
g2
(lp2694
Vwhat
p2695
atp2696
Rp2697
(dp2698
g12
VWP
p2699
sbatp2700
Rp2701
(dp2702
g12
VNP
p2703
sbag0
(g1
g2
(lp2704
g0
(g1
g2
(lp2705
g0
(g1
g2
(lp2706
g0
(g1
g2
(lp2707
Vsorta
p2708
atp2709
Rp2710
(dp2711
g12
VNN
p2712
sbag0
(g1
g2
(lp2713
Vthing
p2714
atp2715
Rp2716
(dp2717
g12
VNN
p2718
sbatp2719
Rp2720
(dp2721
g12
VNP
p2722
sbag0
(g1
g2
(lp2723
g0
(g1
g2
(lp2724
Vabout
p2725
atp2726
Rp2727
(dp2728
g12
VIN
p2729
sbag0
(g1
g2
(lp2730
g0
(g1
g2
(lp2731
g0
(g1
g2
(lp2732
Vthe
p2733
atp2734
Rp2735
(dp2736
g12
VDT
p2737
sbag0
(g1
g2
(lp2738
Vwindow
p2739
atp2740
Rp2741
(dp2742
g12
VNN
p2743
sbatp2744
Rp2745
(dp2746
g12
VNP
p2747
sbag0
(g1
g2
(lp2748
Vand
p2749
atp2750
Rp2751
(dp2752
g12
VCC
p2753
sbag0
(g1
g2
(lp2754
g0
(g1
g2
(lp2755
g0
(g1
g2
(lp2756
Vthe
p2757
atp2758
Rp2759
(dp2760
g12
VDT
p2761
sbag0
(g1
g2
(lp2762
Vcurtains
p2763
atp2764
Rp2765
(dp2766
g12
VNNS
p2767
sbatp2768
Rp2769
(dp2770
g12
VNP
p2771
sbag0
(g1
g2
(lp2772
g0
(g1
g2
(lp2773
Vbeing
p2774
atp2775
Rp2776
(dp2777
g12
VVBG
p2778
sbag0
(g1
g2
(lp2779
g0
(g1
g2
(lp2780
Vdrawn
p2781
atp2782
Rp2783
(dp2784
g12
VVBN
p2785
sbag0
(g1
g2
(lp2786
g0
(g1
g2
(lp2787
Vback
p2788
atp2789
Rp2790
(dp2791
g12
VRB
p2792
sbatp2793
Rp2794
(dp2795
g12
VADVP
p2796
sbatp2797
Rp2798
(dp2799
g12
VVP
p2800
sbatp2801
Rp2802
(dp2803
g12
VVP
p2804
sbatp2805
Rp2806
(dp2807
g12
VNP
p2808
sbatp2809
Rp2810
(dp2811
g12
VNP
p2812
sbatp2813
Rp2814
(dp2815
g12
VPP
p2816
sbatp2817
Rp2818
(dp2819
g12
VNP
p2820
sbag0
(g1
g2
(lp2821
V,
p2822
atp2823
Rp2824
(dp2825
g12
V,
p2826
sbag0
(g1
g2
(lp2827
g0
(g1
g2
(lp2828
g0
(g1
g2
(lp2829
Vthe
p2830
atp2831
Rp2832
(dp2833
g12
VDT
p2834
sbag0
(g1
g2
(lp2835
Vtie
p2836
atp2837
Rp2838
(dp2839
g12
VJJ
p2840
sbag0
(g1
g2
(lp2841
Vbacks
p2842
atp2843
Rp2844
(dp2845
g12
VNNS
p2846
sbatp2847
Rp2848
(dp2849
g12
VNP
p2850
sbag0
(g1
g2
(lp2851
g0
(g1
g2
(lp2852
Vthere
p2853
atp2854
Rp2855
(dp2856
g12
VRB
p2857
sbatp2858
Rp2859
(dp2860
g12
VADVP
p2861
sbatp2862
Rp2863
(dp2864
g12
VNP
p2865
sbatp2866
Rp2867
(dp2868
g12
VVP
p2869
sbag0
(g1
g2
(lp2870
V.
p2871
atp2872
Rp2873
(dp2874
g12
V.
p2875
sbatp2876
Rp2877
(dp2878
g12
VS
p2879
sbatp2880
Rp2881
(dp2882
g12
S'id: 9'
p2883
sbag0
(g1
g2
(lp2884
g0
(g1
g2
(lp2885
g0
(g1
g2
(lp2886
g0
(g1
g2
(lp2887
VYou
p2888
atp2889
Rp2890
(dp2891
g12
VPRP
p2892
sbatp2893
Rp2894
(dp2895
g12
VNP
p2896
sbag0
(g1
g2
(lp2897
g0
(g1
g2
(lp2898
V've
p2899
atp2900
Rp2901
(dp2902
g12
VVBP
p2903
sbag0
(g1
g2
(lp2904
g0
(g1
g2
(lp2905
Vgot
p2906
atp2907
Rp2908
(dp2909
g12
VVBN
p2910
sbag0
(g1
g2
(lp2911
g0
(g1
g2
(lp2912
Vapparently
p2913
atp2914
Rp2915
(dp2916
g12
VRB
p2917
sbatp2918
Rp2919
(dp2920
g12
VADVP
p2921
sbag0
(g1
g2
(lp2922
g0
(g1
g2
(lp2923
Veither
p2924
atp2925
Rp2926
(dp2927
g12
VCC
p2928
sbag0
(g1
g2
(lp2929
g0
(g1
g2
(lp2930
g0
(g1
g2
(lp2931
Vthe
p2932
atp2933
Rp2934
(dp2935
g12
VDT
p2936
sbatp2937
Rp2938
(dp2939
g12
VNP
p2940
sbag0
(g1
g2
(lp2941
V,
p2942
atp2943
Rp2944
(dp2945
g12
V,
p2946
sbag0
(g1
g2
(lp2947
g0
(g1
g2
(lp2948
g0
(g1
g2
(lp2949
Vthe
p2950
atp2951
Rp2952
(dp2953
g12
VDT
p2954
sbag0
(g1
g2
(lp2955
Vwalk
p2956
atp2957
Rp2958
(dp2959
g12
VNN
p2960
sbatp2961
Rp2962
(dp2963
g12
VNP
p2964
sbag0
(g1
g2
(lp2965
g0
(g1
g2
(lp2966
Varound
p2967
atp2968
Rp2969
(dp2970
g12
VIN
p2971
sbag0
(g1
g2
(lp2972
g0
(g1
g2
(lp2973
g0
(g1
g2
(lp2974
Vthe
p2975
atp2976
Rp2977
(dp2978
g12
VDT
p2979
sbag0
(g1
g2
(lp2980
Vhouse
p2981
atp2982
Rp2983
(dp2984
g12
VNN
p2985
sbatp2986
Rp2987
(dp2988
g12
VNP
p2989
sbag0
(g1
g2
(lp2990
V,
p2991
atp2992
Rp2993
(dp2994
g12
V,
p2995
sbag0
(g1
g2
(lp2996
g0
(g1
g2
(lp2997
Vthe
p2998
atp2999
Rp3000
(dp3001
g12
VDT
p3002
sbag0
(g1
g2
(lp3003
Vpath
p3004
atp3005
Rp3006
(dp3007
g12
VNN
p3008
sbatp3009
Rp3010
(dp3011
g12
VNP
p3012
sbag0
(g1
g2
(lp3013
V,
p3014
atp3015
Rp3016
(dp3017
g12
V,
p3018
sbag0
(g1
g2
(lp3019
Vor
p3020
atp3021
Rp3022
(dp3023
g12
VCC
p3024
sbag0
(g1
g2
(lp3025
g0
(g1
g2
(lp3026
Vthe
p3027
atp3028
Rp3029
(dp3030
g12
VDT
p3031
sbag0
(g1
g2
(lp3032
Vsidewalk
p3033
atp3034
Rp3035
(dp3036
g12
VNN
p3037
sbatp3038
Rp3039
(dp3040
g12
VNP
p3041
sbatp3042
Rp3043
(dp3044
g12
VNP
p3045
sbatp3046
Rp3047
(dp3048
g12
VPP
p3049
sbag0
(g1
g2
(lp3050
g0
(g1
g2
(lp3051
g0
(g1
g2
(lp3052
Vthat
p3053
atp3054
Rp3055
(dp3056
g12
VWDT
p3057
sbatp3058
Rp3059
(dp3060
g12
VWHNP
p3061
sbag0
(g1
g2
(lp3062
g0
(g1
g2
(lp3063
g0
(g1
g2
(lp3064
Vmight
p3065
atp3066
Rp3067
(dp3068
g12
VMD
p3069
sbag0
(g1
g2
(lp3070
g0
(g1
g2
(lp3071
Vbe
p3072
atp3073
Rp3074
(dp3075
g12
VVB
p3076
sbag0
(g1
g2
(lp3077
g0
(g1
g2
(lp3078
Vthere
p3079
atp3080
Rp3081
(dp3082
g12
VRB
p3083
sbatp3084
Rp3085
(dp3086
g12
VADVP
p3087
sbatp3088
Rp3089
(dp3090
g12
VVP
p3091
sbatp3092
Rp3093
(dp3094
g12
VVP
p3095
sbatp3096
Rp3097
(dp3098
g12
VS
p3099
sbatp3100
Rp3101
(dp3102
g12
VSBAR
p3103
sbatp3104
Rp3105
(dp3106
g12
VNP
p3107
sbatp3108
Rp3109
(dp3110
g12
VNP
p3111
sbatp3112
Rp3113
(dp3114
g12
VPP
p3115
sbatp3116
Rp3117
(dp3118
g12
VVP
p3119
sbatp3120
Rp3121
(dp3122
g12
VVP
p3123
sbag0
(g1
g2
(lp3124
V.
p3125
atp3126
Rp3127
(dp3128
g12
V.
p3129
sbatp3130
Rp3131
(dp3132
g12
VS
p3133
sbatp3134
Rp3135
(dp3136
g12
S'id: 10'
p3137
sbag0
(g1
g2
(lp3138
g0
(g1
g2
(lp3139
g0
(g1
g2
(lp3140
g0
(g1
g2
(lp3141
VGot
p3142
atp3143
Rp3144
(dp3145
g12
VVBD
p3146
sbag0
(g1
g2
(lp3147
g0
(g1
g2
(lp3148
g0
(g1
g2
(lp3149
Va
p3150
atp3151
Rp3152
(dp3153
g12
VDT
p3154
sbag0
(g1
g2
(lp3155
Vcouple
p3156
atp3157
Rp3158
(dp3159
g12
VNN
p3160
sbatp3161
Rp3162
(dp3163
g12
VNP
p3164
sbag0
(g1
g2
(lp3165
g0
(g1
g2
(lp3166
Vof
p3167
atp3168
Rp3169
(dp3170
g12
VIN
p3171
sbag0
(g1
g2
(lp3172
g0
(g1
g2
(lp3173
Vbushes
p3174
atp3175
Rp3176
(dp3177
g12
VNNS
p3178
sbatp3179
Rp3180
(dp3181
g12
VNP
p3182
sbatp3183
Rp3184
(dp3185
g12
VPP
p3186
sbatp3187
Rp3188
(dp3189
g12
VNP
p3190
sbag0
(g1
g2
(lp3191
g0
(g1
g2
(lp3192
Vin
p3193
atp3194
Rp3195
(dp3196
g12
VIN
p3197
sbag0
(g1
g2
(lp3198
g0
(g1
g2
(lp3199
Vthe
p3200
atp3201
Rp3202
(dp3203
g12
VDT
p3204
sbag0
(g1
g2
(lp3205
Vyard
p3206
atp3207
Rp3208
(dp3209
g12
VNN
p3210
sbatp3211
Rp3212
(dp3213
g12
VNP
p3214
sbatp3215
Rp3216
(dp3217
g12
VPP
p3218
sbatp3219
Rp3220
(dp3221
g12
VVP
p3222
sbag0
(g1
g2
(lp3223
V.
p3224
atp3225
Rp3226
(dp3227
g12
V.
p3228
sbatp3229
Rp3230
(dp3231
g12
VS
p3232
sbatp3233
Rp3234
(dp3235
g12
S'id: 11'
p3236
sbag0
(g1
g2
(lp3237
g0
(g1
g2
(lp3238
g0
(g1
g2
(lp3239
VAnd
p3240
atp3241
Rp3242
(dp3243
g12
VCC
p3244
sbag0
(g1
g2
(lp3245
g0
(g1
g2
(lp3246
Vshe
p3247
atp3248
Rp3249
(dp3250
g12
VPRP
p3251
sbatp3252
Rp3253
(dp3254
g12
VNP
p3255
sbag0
(g1
g2
(lp3256
g0
(g1
g2
(lp3257
V's
p3258
atp3259
Rp3260
(dp3261
g12
VVBZ
p3262
sbag0
(g1
g2
(lp3263
g0
(g1
g2
(lp3264
Vwearing
p3265
atp3266
Rp3267
(dp3268
g12
VVBG
p3269
sbag0
(g1
g2
(lp3270
g0
(g1
g2
(lp3271
Vhigh
p3272
atp3273
Rp3274
(dp3275
g12
VJJ
p3276
sbag0
(g1
g2
(lp3277
Vheels
p3278
atp3279
Rp3280
(dp3281
g12
VNNS
p3282
sbatp3283
Rp3284
(dp3285
g12
VNP
p3286
sbag0
(g1
g2
(lp3287
g0
(g1
g2
(lp3288
Vat
p3289
atp3290
Rp3291
(dp3292
g12
VIN
p3293
sbag0
(g1
g2
(lp3294
g0
(g1
g2
(lp3295
g0
(g1
g2
(lp3296
Vthe
p3297
atp3298
Rp3299
(dp3300
g12
VDT
p3301
sbag0
(g1
g2
(lp3302
Vsink
p3303
atp3304
Rp3305
(dp3306
g12
VNN
p3307
sbatp3308
Rp3309
(dp3310
g12
VNP
p3311
sbag0
(g1
g2
(lp3312
g0
(g1
g2
(lp3313
Vdoing
p3314
atp3315
Rp3316
(dp3317
g12
VVBG
p3318
sbag0
(g1
g2
(lp3319
g0
(g1
g2
(lp3320
g0
(g1
g2
(lp3321
Vdishes
p3322
atp3323
Rp3324
(dp3325
g12
VNNS
p3326
sbatp3327
Rp3328
(dp3329
g12
VNP
p3330
sbag0
(g1
g2
(lp3331
V,
p3332
atp3333
Rp3334
(dp3335
g12
V,
p3336
sbag0
(g1
g2
(lp3337
g0
(g1
g2
(lp3338
Va
p3339
atp3340
Rp3341
(dp3342
g12
VDT
p3343
sbag0
(g1
g2
(lp3344
Vsleeveless
p3345
atp3346
Rp3347
(dp3348
g12
VJJ
p3349
sbag0
(g1
g2
(lp3350
Vshirt
p3351
atp3352
Rp3353
(dp3354
g12
VNN
p3355
sbatp3356
Rp3357
(dp3358
g12
VNP
p3359
sbag0
(g1
g2
(lp3360
V,
p3361
atp3362
Rp3363
(dp3364
g12
V,
p3365
sbag0
(g1
g2
(lp3366
Vor
p3367
atp3368
Rp3369
(dp3370
g12
VCC
p3371
sbag0
(g1
g2
(lp3372
g0
(g1
g2
(lp3373
g0
(g1
g2
(lp3374
Va
p3375
atp3376
Rp3377
(dp3378
g12
VDT
p3379
sbag0
(g1
g2
(lp3380
Vblouse
p3381
atp3382
Rp3383
(dp3384
g12
VNN
p3385
sbatp3386
Rp3387
(dp3388
g12
VNP
p3389
sbag0
(g1
g2
(lp3390
V,
p3391
atp3392
Rp3393
(dp3394
g12
V,
p3395
sbag0
(g1
g2
(lp3396
g0
(g1
g2
(lp3397
Vdress
p3398
atp3399
Rp3400
(dp3401
g12
VNN
p3402
sbatp3403
Rp3404
(dp3405
g12
VNP
p3406
sbag0
(g1
g2
(lp3407
V,
p3408
atp3409
Rp3410
(dp3411
g12
V,
p3412
sbag0
(g1
g2
(lp3413
g0
(g1
g2
(lp3414
g0
(g1
g2
(lp3415
Vwhatever
p3416
atp3417
Rp3418
(dp3419
g12
VWDT
p3420
sbatp3421
Rp3422
(dp3423
g12
VWHNP
p3424
sbag0
(g1
g2
(lp3425
g0
(g1
g2
(lp3426
g0
(g1
g2
(lp3427
Vthat
p3428
atp3429
Rp3430
(dp3431
g12
VWDT
p3432
sbatp3433
Rp3434
(dp3435
g12
VNP
p3436
sbag0
(g1
g2
(lp3437
g0
(g1
g2
(lp3438
Vis
p3439
atp3440
Rp3441
(dp3442
g12
VVBZ
p3443
sbag0
(g1
g2
(lp3444
V,
p3445
atp3446
Rp3447
(dp3448
g12
V,
p3449
sbag0
(g1
g2
(lp3450
g0
(g1
g2
(lp3451
g0
(g1
g2
(lp3452
Vshes
p3453
atp3454
Rp3455
(dp3456
g12
VNNS
p3457
sbatp3458
Rp3459
(dp3460
g12
VNP
p3461
sbag0
(g1
g2
(lp3462
g0
(g1
g2
(lp3463
Vwearing
p3464
atp3465
Rp3466
(dp3467
g12
VVBG
p3468
sbag0
(g1
g2
(lp3469
g0
(g1
g2
(lp3470
Van
p3471
atp3472
Rp3473
(dp3474
g12
VDT
p3475
sbag0
(g1
g2
(lp3476
Vapron
p3477
atp3478
Rp3479
(dp3480
g12
VNN
p3481
sbatp3482
Rp3483
(dp3484
g12
VNP
p3485
sbatp3486
Rp3487
(dp3488
g12
VVP
p3489
sbatp3490
Rp3491
(dp3492
g12
VS
p3493
sbatp3494
Rp3495
(dp3496
g12
VVP
p3497
sbatp3498
Rp3499
(dp3500
g12
VS
p3501
sbatp3502
Rp3503
(dp3504
g12
VSBAR
p3505
sbatp3506
Rp3507
(dp3508
g12
VNP
p3509
sbatp3510
Rp3511
(dp3512
g12
VNP
p3513
sbatp3514
Rp3515
(dp3516
g12
VVP
p3517
sbatp3518
Rp3519
(dp3520
g12
VNP
p3521
sbatp3522
Rp3523
(dp3524
g12
VPP
p3525
sbatp3526
Rp3527
(dp3528
g12
VVP
p3529
sbatp3530
Rp3531
(dp3532
g12
VVP
p3533
sbatp3534
Rp3535
(dp3536
g12
VS
p3537
sbatp3538
Rp3539
(dp3540
g12
S'id: 12'
p3541
sbatp3542
Rp3543
(dp3544
g12
S'sentences'
p3545
sb.