ccopy_reg
_reconstructor
p0
(cnltk.tree
Tree
p1
c__builtin__
list
p2
(lp3
g0
(g1
g2
(lp4
g0
(g1
g2
(lp5
g0
(g1
g2
(lp6
g0
(g1
g2
(lp7
g0
(g1
g2
(lp8
(lp9
S'word: Mother, index: 1'
p10
aatp11
Rp12
(dp13
S'_label'
p14
Vnsubj
p15
sbag0
(g1
g2
(lp16
(lp17
S'word: dishes, index: 3'
p18
aatp19
Rp20
(dp21
g14
Vdobj
p22
sbatp23
Rp24
(dp25
g14
S'word: washes, index: 2'
p26
sbatp27
Rp28
(dp29
g14
Vccomp
p30
sbag0
(g1
g2
(lp31
g0
(g1
g2
(lp32
g0
(g1
g2
(lp33
(lp34
S'word: the, index: 6'
p35
aatp36
Rp37
(dp38
g14
Vdet
p39
sbag0
(g1
g2
(lp40
(lp41
S'word: water, index: 7'
p42
aatp43
Rp44
(dp45
g14
Vnn
p46
sbag0
(g1
g2
(lp47
g0
(g1
g2
(lp48
g0
(g1
g2
(lp49
g0
(g1
g2
(lp50
g0
(g1
g2
(lp51
(lp52
S'word: the, index: 12'
p53
aatp54
Rp55
(dp56
g14
Vdet
p57
sbatp58
Rp59
(dp60
g14
S'word: floor, index: 13'
p61
sbatp62
Rp63
(dp64
g14
Vprep
p65
sbatp66
Rp67
(dp68
g14
S'word: drip, index: 10'
p69
sbatp70
Rp71
(dp72
g14
Vappos
p73
sbatp74
Rp75
(dp76
g14
S'word: drip, index: 8'
p77
sbatp78
Rp79
(dp80
g14
Vnsubj
p81
sbatp82
Rp83
(dp84
g14
S'word: lets, index: 5'
p85
sbatp86
Rp87
(dp88
g14
S'id: 0'
p89
sbag0
(g1
g2
(lp90
g0
(g1
g2
(lp91
g0
(g1
g2
(lp92
g0
(g1
g2
(lp93
g0
(g1
g2
(lp94
g0
(g1
g2
(lp95
g0
(g1
g2
(lp96
(lp97
S'word: the, index: 21'
p98
aatp99
Rp100
(dp101
g14
Vdet
p102
sbag0
(g1
g2
(lp103
g0
(g1
g2
(lp104
g0
(g1
g2
(lp105
(lp106
S'word: the, index: 24'
p107
aatp108
Rp109
(dp110
g14
Vdet
p111
sbatp112
Rp113
(dp114
g14
S'word: stool, index: 25'
p115
sbatp116
Rp117
(dp118
g14
Vprep
p119
sbatp120
Rp121
(dp122
g14
S'word: guy, index: 22'
p123
sbatp124
Rp125
(dp126
g14
Vprep
p127
sbatp128
Rp129
(dp130
g14
S'word: one, index: 19'
p131
sbatp132
Rp133
(dp134
g14
Vnsubj
p135
sbag0
(g1
g2
(lp136
g0
(g1
g2
(lp137
g0
(g1
g2
(lp138
g0
(g1
g2
(lp139
g0
(g1
g2
(lp140
(lp141
S'word: the, index: 4'
p142
aatp143
Rp144
(dp145
g14
Vdet
p146
sbag0
(g1
g2
(lp147
(lp148
S'word: two, index: 5'
p149
aatp150
Rp151
(dp152
g14
Vnum
p153
sbatp154
Rp155
(dp156
g14
S'word: kids, index: 6'
p157
sbatp158
Rp159
(dp160
g14
Vnsubj
p161
sbag0
(g1
g2
(lp162
(lp163
S'word: are, index: 7'
p164
aatp165
Rp166
(dp167
g14
Vaux
p168
sbag0
(g1
g2
(lp169
g0
(g1
g2
(lp170
g0
(g1
g2
(lp171
g0
(g1
g2
(lp172
g0
(g1
g2
(lp173
g0
(g1
g2
(lp174
g0
(g1
g2
(lp175
(lp176
S'word: the, index: 11'
p177
aatp178
Rp179
(dp180
g14
Vdet
p181
sbag0
(g1
g2
(lp182
(lp183
S'word: cookie, index: 12'
p184
aatp185
Rp186
(dp187
g14
Vnn
p188
sbatp189
Rp190
(dp191
g14
S'word: jar, index: 13'
p192
sbatp193
Rp194
(dp195
g14
Vpobj
p196
sbatp197
Rp198
(dp199
g14
S'word: to, index: 10'
p200
sbatp201
Rp202
(dp203
g14
Vpcomp
p204
sbatp205
Rp206
(dp207
g14
S'word: in, index: 9'
p208
sbatp209
Rp210
(dp211
g14
Vprep
p212
sbag0
(g1
g2
(lp213
g0
(g1
g2
(lp214
g0
(g1
g2
(lp215
(lp216
S'word: they, index: 16'
p217
aatp218
Rp219
(dp220
g14
Vnsubj
p221
sbatp222
Rp223
(dp224
g14
S"word: 're, index: 17"
p225
sbatp226
Rp227
(dp228
g14
Vconj
p229
sbatp230
Rp231
(dp232
g14
S'word: getting, index: 8'
p233
sbatp234
Rp235
(dp236
g14
Vparataxis
p237
sbag0
(g1
g2
(lp238
(lp239
S'word: is, index: 26'
p240
aatp241
Rp242
(dp243
g14
Vaux
p244
sbag0
(g1
g2
(lp245
g0
(g1
g2
(lp246
g0
(g1
g2
(lp247
(lp248
S'word: it, index: 28'
p249
aatp250
Rp251
(dp252
g14
Vnsubj
p253
sbag0
(g1
g2
(lp254
(lp255
S'word: over, index: 30'
p256
aatp257
Rp258
(dp259
g14
Vprt
p260
sbatp261
Rp262
(dp263
g14
S'word: drop, index: 29'
p264
sbatp265
Rp266
(dp267
g14
Vccomp
p268
sbag0
(g1
g2
(lp269
(lp270
S'word: And, index: 1'
p271
aatp272
Rp273
(dp274
g14
Vcc
p275
sbag0
(g1
g2
(lp276
g223
atp277
Rp278
(dp279
g14
Vparataxis
p280
sbatp281
Rp282
(dp283
g14
S'word: letting, index: 27'
p284
sbatp285
Rp286
(dp287
g14
S'id: 1'
p288
sbag0
(g1
g2
(lp289
g0
(g1
g2
(lp290
g0
(g1
g2
(lp291
(lp292
S'word: that, index: 6'
p293
aatp294
Rp295
(dp296
g14
Vnsubj
p297
sbag0
(g1
g2
(lp298
g0
(g1
g2
(lp299
g0
(g1
g2
(lp300
g0
(g1
g2
(lp301
g0
(g1
g2
(lp302
(lp303
S'word: all, index: 8'
p304
aatp305
Rp306
(dp307
g14
Vdet
p308
sbatp309
Rp310
(dp311
g14
S'word: i, index: 9'
p312
sbatp313
Rp314
(dp315
g14
Vnsubj
p316
sbag0
(g1
g2
(lp317
(lp318
S'word: can, index: 10'
p319
aatp320
Rp321
(dp322
g14
Vaux
p323
sbatp324
Rp325
(dp326
g14
S'word: see, index: 11'
p327
sbatp328
Rp329
(dp330
g14
Vccomp
p331
sbag0
(g1
g2
(lp332
g0
(g1
g2
(lp333
g0
(g1
g2
(lp334
(lp335
S'word: And, index: 1'
p336
aatp337
Rp338
(dp339
g14
Vcc
p340
sbag0
(g1
g2
(lp341
(lp342
S'word: that, index: 2'
p343
aatp344
Rp345
(dp346
g14
Vnsubj
p347
sbag0
(g1
g2
(lp348
(lp349
S"word: 's, index: 3"
p350
aatp351
Rp352
(dp353
g14
Vcop
p354
sbatp355
Rp356
(dp357
g14
S'word: it, index: 4'
p358
sbatp359
Rp360
(dp361
g14
Vccomp
p362
sbatp363
Rp364
(dp365
g14
S"word: 's, index: 7"
p366
sbatp367
Rp368
(dp369
g14
S'id: 2'
p370
sbag0
(g1
g2
(lp371
g0
(g1
g2
(lp372
g0
(g1
g2
(lp373
g0
(g1
g2
(lp374
g0
(g1
g2
(lp375
g0
(g1
g2
(lp376
g0
(g1
g2
(lp377
(lp378
S'word: the, index: 11'
p379
aatp380
Rp381
(dp382
g14
Vdet
p383
sbag0
(g1
g2
(lp384
g0
(g1
g2
(lp385
g0
(g1
g2
(lp386
(lp387
S'word: that, index: 14'
p388
aatp389
Rp390
(dp391
g14
Vnsubj
p392
sbag0
(g1
g2
(lp393
(lp394
S'word: would, index: 15'
p395
aatp396
Rp397
(dp398
g14
Vaux
p399
sbag0
(g1
g2
(lp400
(lp401
S'word: be, index: 16'
p402
aatp403
Rp404
(dp405
g14
Vcop
p406
sbatp407
Rp408
(dp409
g14
S'word: helpful, index: 17'
p410
sbatp411
Rp412
(dp413
g14
Vrcmod
p414
sbatp415
Rp416
(dp417
g14
S'word: cupboard, index: 12'
p418
sbatp419
Rp420
(dp421
g14
Vprep
p422
sbag0
(g1
g2
(lp423
(lp424
S'word: some, index: 8'
p425
aatp426
Rp427
(dp428
g14
Vdet
p429
sbatp430
Rp431
(dp432
g14
S'word: dishes, index: 9'
p433
sbatp434
Rp435
(dp436
g14
Vnsubj
p437
sbag0
(g1
g2
(lp438
g0
(g1
g2
(lp439
g0
(g1
g2
(lp440
(lp441
S'word: well, index: 1'
p442
aatp443
Rp444
(dp445
g14
Vadvmod
p446
sbag0
(g1
g2
(lp447
g0
(g1
g2
(lp448
g0
(g1
g2
(lp449
(lp450
S"word: 's, index: 3"
p451
aatp452
Rp453
(dp454
g14
Vnsubj
p455
sbatp456
Rp457
(dp458
g14
S'word: see, index: 4'
p459
sbatp460
Rp461
(dp462
g14
Vccomp
p463
sbatp464
Rp465
(dp466
g14
S'word: let, index: 2'
p467
sbatp468
Rp469
(dp470
g14
Vccomp
p471
sbag0
(g1
g2
(lp472
(lp473
S'word: there, index: 6'
p474
aatp475
Rp476
(dp477
g14
Vexpl
p478
sbatp479
Rp480
(dp481
g14
S'word: are, index: 7'
p482
sbatp483
Rp484
(dp485
g14
S'id: 3'
p486
sbag0
(g1
g2
(lp487
g0
(g1
g2
(lp488
g0
(g1
g2
(lp489
(lp490
S'word: And, index: 1'
p491
aatp492
Rp493
(dp494
g14
Vcc
p495
sbag0
(g1
g2
(lp496
(lp497
S'word: you, index: 2'
p498
aatp499
Rp500
(dp501
g14
Vnsubj
p502
sbag0
(g1
g2
(lp503
(lp504
S'word: can, index: 3'
p505
aatp506
Rp507
(dp508
g14
Vaux
p509
sbag0
(g1
g2
(lp510
g0
(g1
g2
(lp511
g0
(g1
g2
(lp512
(lp513
S'word: a, index: 5'
p514
aatp515
Rp516
(dp517
g14
Vdet
p518
sbatp519
Rp520
(dp521
g14
S'word: scene, index: 6'
p522
sbatp523
Rp524
(dp525
g14
Vdobj
p526
sbag0
(g1
g2
(lp527
(lp528
S'word: outside, index: 7'
p529
aatp530
Rp531
(dp532
g14
Vadvmod
p533
sbatp534
Rp535
(dp536
g14
S'word: see, index: 4'
p537
sbatp538
Rp539
(dp540
g14
S'id: 4'
p541
sbag0
(g1
g2
(lp542
g0
(g1
g2
(lp543
g0
(g1
g2
(lp544
(lp545
S'word: And, index: 1'
p546
aatp547
Rp548
(dp549
g14
Vcc
p550
sbag0
(g1
g2
(lp551
(lp552
S'word: there, index: 2'
p553
aatp554
Rp555
(dp556
g14
Vexpl
p557
sbag0
(g1
g2
(lp558
g0
(g1
g2
(lp559
g0
(g1
g2
(lp560
g0
(g1
g2
(lp561
g0
(g1
g2
(lp562
(lp563
S'word: the, index: 6'
p564
aatp565
Rp566
(dp567
g14
Vdet
p568
sbatp569
Rp570
(dp571
g14
S'word: window, index: 7'
p572
sbatp573
Rp574
(dp575
g14
Vprep
p576
sbatp577
Rp578
(dp579
g14
S'word: curtains, index: 4'
p580
sbatp581
Rp582
(dp583
g14
Vnsubj
p584
sbatp585
Rp586
(dp587
g14
S"word: 's, index: 3"
p588
sbatp589
Rp590
(dp591
g14
S'id: 5'
p592
sbag0
(g1
g2
(lp593
g0
(g1
g2
(lp594
g0
(g1
g2
(lp595
(lp596
S'word: there, index: 2'
p597
aatp598
Rp599
(dp600
g14
Vexpl
p601
sbag0
(g1
g2
(lp602
g0
(g1
g2
(lp603
g0
(g1
g2
(lp604
(lp605
S'word: the, index: 6'
p606
aatp607
Rp608
(dp609
g14
Vprep
p610
sbatp611
Rp612
(dp613
g14
S'word: drapes, index: 4'
p614
sbatp615
Rp616
(dp617
g14
Vnsubj
p618
sbag0
(g1
g2
(lp619
g0
(g1
g2
(lp620
g0
(g1
g2
(lp621
(lp622
S'word: I, index: 8'
p623
aatp624
Rp625
(dp626
g14
Vnsubj
p627
sbatp628
Rp629
(dp630
g14
S'word: mean, index: 9'
p631
sbatp632
Rp633
(dp634
g14
Vparataxis
p635
sbag0
(g1
g2
(lp636
g0
(g1
g2
(lp637
g0
(g1
g2
(lp638
g0
(g1
g2
(lp639
g0
(g1
g2
(lp640
(lp641
S'word: the, index: 13'
p642
aatp643
Rp644
(dp645
g14
Vdet
p646
sbag0
(g1
g2
(lp647
(lp648
S'word: flower, index: 14'
p649
aatp650
Rp651
(dp652
g14
Vnn
p653
sbatp654
Rp655
(dp656
g14
S'word: beds, index: 15'
p657
sbatp658
Rp659
(dp660
g14
Vprep
p661
sbatp662
Rp663
(dp664
g14
S'word: stuff, index: 11'
p665
sbatp666
Rp667
(dp668
g14
Vdep
p669
sbag0
(g1
g2
(lp670
(lp671
S'word: And, index: 1'
p672
aatp673
Rp674
(dp675
g14
Vcc
p676
sbatp677
Rp678
(dp679
g14
S"word: 's, index: 3"
p680
sbatp681
Rp682
(dp683
g14
S'id: 6'
p684
sbag0
(g1
g2
(lp685
g0
(g1
g2
(lp686
g0
(g1
g2
(lp687
g0
(g1
g2
(lp688
g0
(g1
g2
(lp689
(lp690
S'word: there, index: 6'
p691
aatp692
Rp693
(dp694
g14
Vexpl
p695
sbag0
(g1
g2
(lp696
(lp697
S'word: flowers, index: 8'
p698
aatp699
Rp700
(dp701
g14
Vnsubj
p702
sbatp703
Rp704
(dp705
g14
S"word: 's, index: 7"
p706
sbatp707
Rp708
(dp709
g14
Vparataxis
p710
sbag0
(g1
g2
(lp711
(lp712
S'word: can, index: 10'
p713
aatp714
Rp715
(dp716
g14
Vaux
p717
sbag0
(g1
g2
(lp718
(lp719
S'word: there, index: 12'
p720
aatp721
Rp722
(dp723
g14
Vadvmod
p724
sbag0
(g1
g2
(lp725
(lp726
S'word: Whatever, index: 1'
p727
aatp728
Rp729
(dp730
g14
Vnsubj
p731
sbag0
(g1
g2
(lp732
g0
(g1
g2
(lp733
g0
(g1
g2
(lp734
g704
atp735
Rp736
(dp737
g14
Vconj
p738
sbag0
(g1
g2
(lp739
(lp740
S'word: you, index: 2'
p741
aatp742
Rp743
(dp744
g14
Vnsubj
p745
sbatp746
Rp747
(dp748
g14
S'word: want, index: 3'
p749
sbatp750
Rp751
(dp752
g14
Vparataxis
p753
sbatp754
Rp755
(dp756
g14
S'word: be, index: 11'
p757
sbatp758
Rp759
(dp760
g14
S'id: 7'
p761
sbag0
(g1
g2
(lp762
g0
(g1
g2
(lp763
g0
(g1
g2
(lp764
(lp765
S'word: There, index: 1'
p766
aatp767
Rp768
(dp769
g14
Vexpl
p770
sbag0
(g1
g2
(lp771
(lp772
S'word: cupboards, index: 3'
p773
aatp774
Rp775
(dp776
g14
Vnsubj
p777
sbag0
(g1
g2
(lp778
g0
(g1
g2
(lp779
g0
(g1
g2
(lp780
(lp781
S'word: doors, index: 6'
p782
aatp783
Rp784
(dp785
g14
Vprep
p786
sbatp787
Rp788
(dp789
g14
S'word: there, index: 4'
p790
sbatp791
Rp792
(dp793
g14
Vadvmod
p794
sbatp795
Rp796
(dp797
g14
S"word: 's, index: 2"
p798
sbatp799
Rp800
(dp801
g14
S'id: 8'
p802
sbag0
(g1
g2
(lp803
g0
(g1
g2
(lp804
g0
(g1
g2
(lp805
g0
(g1
g2
(lp806
g0
(g1
g2
(lp807
(lp808
S'word: it, index: 12'
p809
aatp810
Rp811
(dp812
g14
Vdobj
p813
sbag0
(g1
g2
(lp814
g0
(g1
g2
(lp815
g0
(g1
g2
(lp816
(lp817
S'word: the, index: 14'
p818
aatp819
Rp820
(dp821
g14
Vdet
p822
sbatp823
Rp824
(dp825
g14
S'word: sister, index: 15'
p826
sbatp827
Rp828
(dp829
g14
Vprep
p830
sbag0
(g1
g2
(lp831
(lp832
S'word: he, index: 9'
p833
aatp834
Rp835
(dp836
g14
Vnsubj
p837
sbag0
(g1
g2
(lp838
(lp839
S"word: 's, index: 10"
p840
aatp841
Rp842
(dp843
g14
Vaux
p844
sbatp845
Rp846
(dp847
g14
S'word: giving, index: 11'
p848
sbatp849
Rp850
(dp851
g14
Vconj
p852
sbag0
(g1
g2
(lp853
g0
(g1
g2
(lp854
g0
(g1
g2
(lp855
(lp856
S'word: the, index: 2'
p857
aatp858
Rp859
(dp860
g14
Vdet
p861
sbag0
(g1
g2
(lp862
(lp863
S'word: little, index: 3'
p864
aatp865
Rp866
(dp867
g14
Vamod
p868
sbatp869
Rp870
(dp871
g14
S'word: boy, index: 4'
p872
sbatp873
Rp874
(dp875
g14
Vnsubj
p876
sbag0
(g1
g2
(lp877
(lp878
S'word: cookie, index: 6'
p879
aatp880
Rp881
(dp882
g14
Vdobj
p883
sbatp884
Rp885
(dp886
g14
S'word: has, index: 5'
p887
sbatp888
Rp889
(dp890
g14
S'id: 9'
p891
sbag0
(g1
g2
(lp892
g0
(g1
g2
(lp893
g0
(g1
g2
(lp894
(lp895
S'word: And, index: 1'
p896
aatp897
Rp898
(dp899
g14
Vcc
p900
sbag0
(g1
g2
(lp901
g0
(g1
g2
(lp902
g0
(g1
g2
(lp903
(lp904
S"word: 's, index: 3"
p905
aatp906
Rp907
(dp908
g14
Vnsubj
p909
sbag0
(g1
g2
(lp910
g0
(g1
g2
(lp911
g0
(g1
g2
(lp912
(lp913
S'word: what, index: 5'
p914
aatp915
Rp916
(dp917
g14
Vdobj
p918
sbag0
(g1
g2
(lp919
g0
(g1
g2
(lp920
g0
(g1
g2
(lp921
(lp922
S'word: else, index: 6'
p923
aatp924
Rp925
(dp926
g14
Vadvmod
p927
sbatp928
Rp929
(dp930
g14
S'word: she, index: 7'
p931
sbatp932
Rp933
(dp934
g14
Vnsubj
p935
sbag0
(g1
g2
(lp936
(lp937
S'word: have, index: 8'
p938
aatp939
Rp940
(dp941
g14
Vaux
p942
sbatp943
Rp944
(dp945
g14
S'word: on, index: 9'
p946
sbatp947
Rp948
(dp949
g14
Vccomp
p950
sbatp951
Rp952
(dp953
g14
S'word: see, index: 4'
p954
sbatp955
Rp956
(dp957
g14
Vccomp
p958
sbatp959
Rp960
(dp961
g14
S'word: let, index: 2'
p962
sbatp963
Rp964
(dp965
g14
S'id: 10'
p966
sbag0
(g1
g2
(lp967
g0
(g1
g2
(lp968
g0
(g1
g2
(lp969
(lp970
S'word: She, index: 1'
p971
aatp972
Rp973
(dp974
g14
Vnsubj
p975
sbag0
(g1
g2
(lp976
g0
(g1
g2
(lp977
g0
(g1
g2
(lp978
g0
(g1
g2
(lp979
g0
(g1
g2
(lp980
(lp981
S'word: what, index: 5'
p982
aatp983
Rp984
(dp985
g14
Vdobj
p986
sbag0
(g1
g2
(lp987
(lp988
S'word: she, index: 6'
p989
aatp990
Rp991
(dp992
g14
Vnsubj
p993
sbag0
(g1
g2
(lp994
(lp995
S'word: is, index: 7'
p996
aatp997
Rp998
(dp999
g14
Vaux
p1000
sbatp1001
Rp1002
(dp1003
g14
S'word: doing, index: 8'
p1004
sbatp1005
Rp1006
(dp1007
g14
Vprepc
p1008
sbatp1009
Rp1010
(dp1011
g14
S'word: happy, index: 3'
p1012
sbatp1013
Rp1014
(dp1015
g14
Vacomp
p1016
sbag0
(g1
g2
(lp1017
g0
(g1
g2
(lp1018
g0
(g1
g2
(lp1019
g0
(g1
g2
(lp1020
g0
(g1
g2
(lp1021
(lp1022
S'word: the, index: 11'
p1023
aatp1024
Rp1025
(dp1026
g14
Vdet
p1027
sbag0
(g1
g2
(lp1028
(lp1029
S'word: water, index: 12'
p1030
aatp1031
Rp1032
(dp1033
g14
Vnn
p1034
sbatp1035
Rp1036
(dp1037
g14
S'word: drip, index: 13'
p1038
sbatp1039
Rp1040
(dp1041
g14
Vdobj
p1042
sbag0
(g1
g2
(lp1043
g0
(g1
g2
(lp1044
g0
(g1
g2
(lp1045
(lp1046
S'word: the, index: 15'
p1047
aatp1048
Rp1049
(dp1050
g14
Vdet
p1051
sbatp1052
Rp1053
(dp1054
g14
S'word: floor, index: 16'
p1055
sbatp1056
Rp1057
(dp1058
g14
Vprep
p1059
sbatp1060
Rp1061
(dp1062
g14
S'word: letting, index: 10'
p1063
sbatp1064
Rp1065
(dp1066
g14
Vxcomp
p1067
sbatp1068
Rp1069
(dp1070
g14
S'word: seems, index: 2'
p1071
sbatp1072
Rp1073
(dp1074
g14
S'id: 11'
p1075
sbag0
(g1
g2
(lp1076
g0
(g1
g2
(lp1077
g0
(g1
g2
(lp1078
(lp1079
S'word: she, index: 4'
p1080
aatp1081
Rp1082
(dp1083
g14
Vnsubj
p1084
sbag0
(g1
g2
(lp1085
(lp1086
S'word: And, index: 1'
p1087
aatp1088
Rp1089
(dp1090
g14
Vcc
p1091
sbag0
(g1
g2
(lp1092
(lp1093
S'word: and, index: 3'
p1094
aatp1095
Rp1096
(dp1097
g14
Vcc
p1098
sbatp1099
Rp1100
(dp1101
g14
S"word: 's, index: 5"
p1102
sbatp1103
Rp1104
(dp1105
g14
S'id: 12'
p1106
sbatp1107
Rp1108
(dp1109
g14
S'sentences'
p1110
sb.