ccopy_reg
_reconstructor
p0
(cnltk.tree
Tree
p1
c__builtin__
list
p2
(lp3
g0
(g1
g2
(lp4
g0
(g1
g2
(lp5
g0
(g1
g2
(lp6
g0
(g1
g2
(lp7
g0
(g1
g2
(lp8
Vcookie
p9
atp10
Rp11
(dp12
S'_label'
p13
VNN
p14
sbag0
(g1
g2
(lp15
Vcookie
p16
atp17
Rp18
(dp19
g13
VNN
p20
sbag0
(g1
g2
(lp21
Vcookie
p22
atp23
Rp24
(dp25
g13
VNN
p26
sbatp27
Rp28
(dp29
g13
VNP
p30
sbag0
(g1
g2
(lp31
V,
p32
atp33
Rp34
(dp35
g13
V,
p36
sbag0
(g1
g2
(lp37
Vand
p38
atp39
Rp40
(dp41
g13
VCC
p42
sbag0
(g1
g2
(lp43
g0
(g1
g2
(lp44
Va
p45
atp46
Rp47
(dp48
g13
VDT
p49
sbag0
(g1
g2
(lp50
Vmelted
p51
atp52
Rp53
(dp54
g13
VJJ
p55
sbag0
(g1
g2
(lp56
Vww
p57
atp58
Rp59
(dp60
g13
VNN
p61
sbag0
(g1
g2
(lp62
Vwater
p63
atp64
Rp65
(dp66
g13
VNN
p67
sbatp68
Rp69
(dp70
g13
VNP
p71
sbag0
(g1
g2
(lp72
V,
p73
atp74
Rp75
(dp76
g13
V,
p77
sbatp78
Rp79
(dp80
g13
VNP
p81
sbag0
(g1
g2
(lp82
g0
(g1
g2
(lp83
g0
(g1
g2
(lp84
Vwater
p85
atp86
Rp87
(dp88
g13
VNN
p89
sbatp90
Rp91
(dp92
g13
VNP
p93
sbag0
(g1
g2
(lp94
g0
(g1
g2
(lp95
Von
p96
atp97
Rp98
(dp99
g13
VIN
p100
sbag0
(g1
g2
(lp101
g0
(g1
g2
(lp102
Vthe
p103
atp104
Rp105
(dp106
g13
VDT
p107
sbag0
(g1
g2
(lp108
Vtink
p109
atp110
Rp111
(dp112
g13
VJJ
p113
sbag0
(g1
g2
(lp114
Vtink
p115
atp116
Rp117
(dp118
g13
VNN
p119
sbag0
(g1
g2
(lp120
Vtink
p121
atp122
Rp123
(dp124
g13
VNN
p125
sbag0
(g1
g2
(lp126
Vtink
p127
atp128
Rp129
(dp130
g13
VNN
p131
sbag0
(g1
g2
(lp132
Vtink
p133
atp134
Rp135
(dp136
g13
VNN
p137
sbag0
(g1
g2
(lp138
Vtrink
p139
atp140
Rp141
(dp142
g13
VNN
p143
sbatp144
Rp145
(dp146
g13
VNP
p147
sbatp148
Rp149
(dp150
g13
VPP
p151
sbatp152
Rp153
(dp154
g13
VNP
p155
sbag0
(g1
g2
(lp156
V.
p157
atp158
Rp159
(dp160
g13
V.
p161
sbatp162
Rp163
(dp164
g13
VNP
p165
sbatp166
Rp167
(dp168
g13
S'id: 0'
p169
sbag0
(g1
g2
(lp170
g0
(g1
g2
(lp171
g0
(g1
g2
(lp172
g0
(g1
g2
(lp173
Vwashes
p174
atp175
Rp176
(dp177
g13
VVBZ
p178
sbag0
(g1
g2
(lp179
g0
(g1
g2
(lp180
g0
(g1
g2
(lp181
g0
(g1
g2
(lp182
Vdeshes
p183
atp184
Rp185
(dp186
g13
VNNS
p187
sbag0
(g1
g2
(lp188
Vdd
p189
atp190
Rp191
(dp192
g13
VNN
p193
sbatp194
Rp195
(dp196
g13
VNP
p197
sbag0
(g1
g2
(lp198
g0
(g1
g2
(lp199
Vdeshes
p200
atp201
Rp202
(dp203
g13
VVBZ
p204
sbag0
(g1
g2
(lp205
g0
(g1
g2
(lp206
g0
(g1
g2
(lp207
g0
(g1
g2
(lp208
Vdeshes
p209
atp210
Rp211
(dp212
g13
VNNS
p213
sbatp214
Rp215
(dp216
g13
VNP
p217
sbag0
(g1
g2
(lp218
g0
(g1
g2
(lp219
Vddd
p220
atp221
Rp222
(dp223
g13
VVBD
p224
sbag0
(g1
g2
(lp225
g0
(g1
g2
(lp226
g0
(g1
g2
(lp227
g0
(g1
g2
(lp228
Vdeshes
p229
atp230
Rp231
(dp232
g13
VJJ
p233
sbag0
(g1
g2
(lp234
Vdeshes
p235
atp236
Rp237
(dp238
g13
VNNS
p239
sbatp240
Rp241
(dp242
g13
VNP
p243
sbag0
(g1
g2
(lp244
g0
(g1
g2
(lp245
Vdeshes
p246
atp247
Rp248
(dp249
g13
VVBZ
p250
sbag0
(g1
g2
(lp251
g0
(g1
g2
(lp252
Vdeshes
p253
atp254
Rp255
(dp256
g13
VNNS
p257
sbatp258
Rp259
(dp260
g13
VNP
p261
sbatp262
Rp263
(dp264
g13
VVP
p265
sbatp266
Rp267
(dp268
g13
VS
p269
sbatp270
Rp271
(dp272
g13
VSBAR
p273
sbatp274
Rp275
(dp276
g13
VVP
p277
sbatp278
Rp279
(dp280
g13
VS
p281
sbatp282
Rp283
(dp284
g13
VSBAR
p285
sbatp286
Rp287
(dp288
g13
VVP
p289
sbatp290
Rp291
(dp292
g13
VS
p293
sbatp294
Rp295
(dp296
g13
VSBAR
p297
sbatp298
Rp299
(dp300
g13
VVP
p301
sbag0
(g1
g2
(lp302
V.
p303
atp304
Rp305
(dp306
g13
V.
p307
sbatp308
Rp309
(dp310
g13
VS
p311
sbatp312
Rp313
(dp314
g13
S'id: 1'
p315
sbag0
(g1
g2
(lp316
g0
(g1
g2
(lp317
g0
(g1
g2
(lp318
g0
(g1
g2
(lp319
g0
(g1
g2
(lp320
Vcookie
p321
atp322
Rp323
(dp324
g13
VNN
p325
sbatp326
Rp327
(dp328
g13
VNP
p329
sbag0
(g1
g2
(lp330
Vand
p331
atp332
Rp333
(dp334
g13
VCC
p335
sbag0
(g1
g2
(lp336
g0
(g1
g2
(lp337
Vtf
p338
atp339
Rp340
(dp341
g13
VNN
p342
sbag0
(g1
g2
(lp343
Vff
p344
atp345
Rp346
(dp347
g13
VNN
p348
sbag0
(g1
g2
(lp349
Vfall
p350
atp351
Rp352
(dp353
g13
VNN
p354
sbatp355
Rp356
(dp357
g13
VNP
p358
sbatp359
Rp360
(dp361
g13
VNP
p362
sbag0
(g1
g2
(lp363
g0
(g1
g2
(lp364
Vfall
p365
atp366
Rp367
(dp368
g13
VNN
p369
sbag0
(g1
g2
(lp370
g0
(g1
g2
(lp371
Vfall
p372
atp373
Rp374
(dp375
g13
VNN
p376
sbag0
(g1
g2
(lp377
g0
(g1
g2
(lp378
Vfall
p379
atp380
Rp381
(dp382
g13
VNN
p383
sbag0
(g1
g2
(lp384
Vand
p385
atp386
Rp387
(dp388
g13
VCC
p389
sbag0
(g1
g2
(lp390
Vcookie
p391
atp392
Rp393
(dp394
g13
VNN
p395
sbag0
(g1
g2
(lp396
Vcookie
p397
atp398
Rp399
(dp400
g13
VNN
p401
sbag0
(g1
g2
(lp402
Vand
p403
atp404
Rp405
(dp406
g13
VCC
p407
sbag0
(g1
g2
(lp408
Vtookie
p409
atp410
Rp411
(dp412
g13
VNN
p413
sbag0
(g1
g2
(lp414
Vtookie
p415
atp416
Rp417
(dp418
g13
VNN
p419
sbatp420
Rp421
(dp422
g13
VNP
p423
sbatp424
Rp425
(dp426
g13
VVP
p427
sbatp428
Rp429
(dp430
g13
VVP
p431
sbag0
(g1
g2
(lp432
V.
p433
atp434
Rp435
(dp436
g13
V.
p437
sbatp438
Rp439
(dp440
g13
VS
p441
sbatp442
Rp443
(dp444
g13
S'id: 2'
p445
sbag0
(g1
g2
(lp446
g0
(g1
g2
(lp447
g0
(g1
g2
(lp448
Vand
p449
atp450
Rp451
(dp452
g13
VCC
p453
sbag0
(g1
g2
(lp454
g0
(g1
g2
(lp455
g0
(g1
g2
(lp456
Vthe
p457
atp458
Rp459
(dp460
g13
VDT
p461
sbag0
(g1
g2
(lp462
Vbell
p463
atp464
Rp465
(dp466
g13
VNN
p467
sbag0
(g1
g2
(lp468
Vbo
p469
atp470
Rp471
(dp472
g13
VNN
p473
sbatp474
Rp475
(dp476
g13
VNP
p477
sbag0
(g1
g2
(lp478
g0
(g1
g2
(lp479
g0
(g1
g2
(lp480
g0
(g1
g2
(lp481
Vboy
p482
atp483
Rp484
(dp485
g13
VNN
p486
sbag0
(g1
g2
(lp487
Vboy
p488
atp489
Rp490
(dp491
g13
VNN
p492
sbatp493
Rp494
(dp495
g13
VNP
p496
sbag0
(g1
g2
(lp497
V,
p498
atp499
Rp500
(dp501
g13
V,
p502
sbag0
(g1
g2
(lp503
Vand
p504
atp505
Rp506
(dp507
g13
VCC
p508
sbag0
(g1
g2
(lp509
g0
(g1
g2
(lp510
g0
(g1
g2
(lp511
Va
p512
atp513
Rp514
(dp515
g13
VDT
p516
sbag0
(g1
g2
(lp517
Vgirl
p518
atp519
Rp520
(dp521
g13
VNN
p522
sbatp523
Rp524
(dp525
g13
VNP
p526
sbag0
(g1
g2
(lp527
g0
(g1
g2
(lp528
Vcookie
p529
atp530
Rp531
(dp532
g13
VNN
p533
sbag0
(g1
g2
(lp534
Vcookies
p535
atp536
Rp537
(dp538
g13
VNNS
p539
sbatp540
Rp541
(dp542
g13
VNP
p543
sbatp544
Rp545
(dp546
g13
VFRAG
p547
sbag0
(g1
g2
(lp548
V.
p549
atp550
Rp551
(dp552
g13
V.
p553
sbatp554
Rp555
(dp556
g13
VFRAG
p557
sbatp558
Rp559
(dp560
g13
VSBAR
p561
sbatp562
Rp563
(dp564
g13
VNP
p565
sbatp566
Rp567
(dp568
g13
VFRAG
p569
sbatp570
Rp571
(dp572
g13
S'id: 3'
p573
sbag0
(g1
g2
(lp574
g0
(g1
g2
(lp575
g0
(g1
g2
(lp576
g0
(g1
g2
(lp577
Vkk
p578
atp579
Rp580
(dp581
g13
VNN
p582
sbag0
(g1
g2
(lp583
Vfall
p584
atp585
Rp586
(dp587
g13
VNN
p588
sbatp589
Rp590
(dp591
g13
VNP
p592
sbag0
(g1
g2
(lp593
g0
(g1
g2
(lp594
Vfall
p595
atp596
Rp597
(dp598
g13
VNN
p599
sbag0
(g1
g2
(lp600
g0
(g1
g2
(lp601
Vfall
p602
atp603
Rp604
(dp605
g13
VNN
p606
sbag0
(g1
g2
(lp607
g0
(g1
g2
(lp608
Von
p609
atp610
Rp611
(dp612
g13
VIN
p613
sbag0
(g1
g2
(lp614
g0
(g1
g2
(lp615
Vfall
p616
atp617
Rp618
(dp619
g13
VNN
p620
sbatp621
Rp622
(dp623
g13
VNP
p624
sbatp625
Rp626
(dp627
g13
VPP
p628
sbatp629
Rp630
(dp631
g13
VVP
p632
sbatp633
Rp634
(dp635
g13
VVP
p636
sbag0
(g1
g2
(lp637
V.
p638
atp639
Rp640
(dp641
g13
V.
p642
sbatp643
Rp644
(dp645
g13
VS
p646
sbatp647
Rp648
(dp649
g13
S'id: 4'
p650
sbag0
(g1
g2
(lp651
g0
(g1
g2
(lp652
g0
(g1
g2
(lp653
g0
(g1
g2
(lp654
Vwa
p655
atp656
Rp657
(dp658
g13
VNN
p659
sbag0
(g1
g2
(lp660
Vwater
p661
atp662
Rp663
(dp664
g13
VNN
p665
sbatp666
Rp667
(dp668
g13
VNP
p669
sbag0
(g1
g2
(lp670
g0
(g1
g2
(lp671
g0
(g1
g2
(lp672
Vdising
p673
atp674
Rp675
(dp676
g13
VJJ
p677
sbag0
(g1
g2
(lp678
Vwater
p679
atp680
Rp681
(dp682
g13
VNN
p683
sbatp684
Rp685
(dp686
g13
VNP
p687
sbag0
(g1
g2
(lp688
g0
(g1
g2
(lp689
Vdi
p690
atp691
Rp692
(dp693
g13
VFW
p694
sbatp695
Rp696
(dp697
g13
VNP
p698
sbatp699
Rp700
(dp701
g13
VNP
p702
sbag0
(g1
g2
(lp703
g0
(g1
g2
(lp704
g0
(g1
g2
(lp705
Vda
p706
atp707
Rp708
(dp709
g13
VNN
p710
sbatp711
Rp712
(dp713
g13
VNP
p714
sbag0
(g1
g2
(lp715
g0
(g1
g2
(lp716
Vdi
p717
atp718
Rp719
(dp720
g13
VFW
p721
sbag0
(g1
g2
(lp722
Vdi
p723
atp724
Rp725
(dp726
g13
VFW
p727
sbag0
(g1
g2
(lp728
Vdish
p729
atp730
Rp731
(dp732
g13
VNN
p733
sbatp734
Rp735
(dp736
g13
VNP
p737
sbag0
(g1
g2
(lp738
g0
(g1
g2
(lp739
Vdishes
p740
atp741
Rp742
(dp743
g13
VNNS
p744
sbatp745
Rp746
(dp747
g13
VNP
p748
sbatp749
Rp750
(dp751
g13
VNP
p752
sbag0
(g1
g2
(lp753
V.
p754
atp755
Rp756
(dp757
g13
V.
p758
sbatp759
Rp760
(dp761
g13
VNP
p762
sbatp763
Rp764
(dp765
g13
S'id: 5'
p766
sbag0
(g1
g2
(lp767
g0
(g1
g2
(lp768
g0
(g1
g2
(lp769
g0
(g1
g2
(lp770
Vcat
p771
atp772
Rp773
(dp774
g13
VNN
p775
sbag0
(g1
g2
(lp776
Vmom
p777
atp778
Rp779
(dp780
g13
VNN
p781
sbag0
(g1
g2
(lp782
Vmum
p783
atp784
Rp785
(dp786
g13
VNN
p787
sbag0
(g1
g2
(lp788
Vdisie
p789
atp790
Rp791
(dp792
g13
VNN
p793
sbag0
(g1
g2
(lp794
Vdisie
p795
atp796
Rp797
(dp798
g13
VNN
p799
sbag0
(g1
g2
(lp800
Vdishes
p801
atp802
Rp803
(dp804
g13
VNNS
p805
sbatp806
Rp807
(dp808
g13
VNP
p809
sbag0
(g1
g2
(lp810
g0
(g1
g2
(lp811
Vca
p812
atp813
Rp814
(dp815
g13
VMD
p816
sbatp817
Rp818
(dp819
g13
VVP
p820
sbag0
(g1
g2
(lp821
V.
p822
atp823
Rp824
(dp825
g13
V.
p826
sbatp827
Rp828
(dp829
g13
VS
p830
sbatp831
Rp832
(dp833
g13
S'id: 6'
p834
sbag0
(g1
g2
(lp835
g0
(g1
g2
(lp836
g0
(g1
g2
(lp837
g0
(g1
g2
(lp838
Vkwager
p839
atp840
Rp841
(dp842
g13
VNN
p843
sbag0
(g1
g2
(lp844
Vco
p845
atp846
Rp847
(dp848
g13
VNN
p849
sbag0
(g1
g2
(lp850
Vcoo
p851
atp852
Rp853
(dp854
g13
VNN
p855
sbag0
(g1
g2
(lp856
Vcoo
p857
atp858
Rp859
(dp860
g13
VNN
p861
sbatp862
Rp863
(dp864
g13
VNP
p865
sbag0
(g1
g2
(lp866
g0
(g1
g2
(lp867
Vcooe
p868
atp869
Rp870
(dp871
g13
VNN
p872
sbag0
(g1
g2
(lp873
Vcacooe
p874
atp875
Rp876
(dp877
g13
VNN
p878
sbag0
(g1
g2
(lp879
Vcuuee
p880
atp881
Rp882
(dp883
g13
VNN
p884
sbag0
(g1
g2
(lp885
Vcuuee
p886
atp887
Rp888
(dp889
g13
VNN
p890
sbatp891
Rp892
(dp893
g13
VNP
p894
sbag0
(g1
g2
(lp895
V.
p896
atp897
Rp898
(dp899
g13
V.
p900
sbatp901
Rp902
(dp903
g13
VFRAG
p904
sbatp905
Rp906
(dp907
g13
S'id: 7'
p908
sbag0
(g1
g2
(lp909
g0
(g1
g2
(lp910
g0
(g1
g2
(lp911
g0
(g1
g2
(lp912
g0
(g1
g2
(lp913
g0
(g1
g2
(lp914
Vdish
p915
atp916
Rp917
(dp918
g13
VNN
p919
sbag0
(g1
g2
(lp920
Vdish
p921
atp922
Rp923
(dp924
g13
VNN
p925
sbatp926
Rp927
(dp928
g13
VNP
p929
sbag0
(g1
g2
(lp930
g0
(g1
g2
(lp931
Von
p932
atp933
Rp934
(dp935
g13
VIN
p936
sbag0
(g1
g2
(lp937
g0
(g1
g2
(lp938
Vdish
p939
atp940
Rp941
(dp942
g13
VNN
p943
sbatp944
Rp945
(dp946
g13
VNP
p947
sbatp948
Rp949
(dp950
g13
VPP
p951
sbatp952
Rp953
(dp954
g13
VNP
p955
sbag0
(g1
g2
(lp956
V,
p957
atp958
Rp959
(dp960
g13
V,
p961
sbag0
(g1
g2
(lp962
g0
(g1
g2
(lp963
g0
(g1
g2
(lp964
Vf
p965
atp966
Rp967
(dp968
g13
VFW
p969
sbag0
(g1
g2
(lp970
Vf
p971
atp972
Rp973
(dp974
g13
VFW
p975
sbatp976
Rp977
(dp978
g13
VADVP
p979
sbag0
(g1
g2
(lp980
g0
(g1
g2
(lp981
Vfree
p982
atp983
Rp984
(dp985
g13
VJJ
p986
sbatp987
Rp988
(dp989
g13
VADJP
p990
sbatp991
Rp992
(dp993
g13
VRRC
p994
sbag0
(g1
g2
(lp995
V,
p996
atp997
Rp998
(dp999
g13
V,
p1000
sbatp1001
Rp1002
(dp1003
g13
VNP
p1004
sbag0
(g1
g2
(lp1005
g0
(g1
g2
(lp1006
Vbowl
p1007
atp1008
Rp1009
(dp1010
g13
VVB
p1011
sbag0
(g1
g2
(lp1012
g0
(g1
g2
(lp1013
g0
(g1
g2
(lp1014
g0
(g1
g2
(lp1015
Va
p1016
atp1017
Rp1018
(dp1019
g13
VDT
p1020
sbatp1021
Rp1022
(dp1023
g13
VNP
p1024
sbag0
(g1
g2
(lp1025
g0
(g1
g2
(lp1026
Vbowls
p1027
atp1028
Rp1029
(dp1030
g13
VVBZ
p1031
sbag0
(g1
g2
(lp1032
g0
(g1
g2
(lp1033
Vbowl
p1034
atp1035
Rp1036
(dp1037
g13
VNN
p1038
sbatp1039
Rp1040
(dp1041
g13
VNP
p1042
sbag0
(g1
g2
(lp1043
g0
(g1
g2
(lp1044
g0
(g1
g2
(lp1045
Va
p1046
atp1047
Rp1048
(dp1049
g13
VDT
p1050
sbag0
(g1
g2
(lp1051
Vbowl
p1052
atp1053
Rp1054
(dp1055
g13
VNN
p1056
sbatp1057
Rp1058
(dp1059
g13
VNP
p1060
sbag0
(g1
g2
(lp1061
V,
p1062
atp1063
Rp1064
(dp1065
g13
V,
p1066
sbag0
(g1
g2
(lp1067
g0
(g1
g2
(lp1068
Va
p1069
atp1070
Rp1071
(dp1072
g13
VDT
p1073
sbag0
(g1
g2
(lp1074
Vgi
p1075
atp1076
Rp1077
(dp1078
g13
VNN
p1079
sbag0
(g1
g2
(lp1080
Vdish
p1081
atp1082
Rp1083
(dp1084
g13
VNN
p1085
sbag0
(g1
g2
(lp1086
Vdish
p1087
atp1088
Rp1089
(dp1090
g13
VNN
p1091
sbag0
(g1
g2
(lp1092
Vdish
p1093
atp1094
Rp1095
(dp1096
g13
VNN
p1097
sbag0
(g1
g2
(lp1098
Vdish
p1099
atp1100
Rp1101
(dp1102
g13
VNN
p1103
sbag0
(g1
g2
(lp1104
Vdish
p1105
atp1106
Rp1107
(dp1108
g13
VNN
p1109
sbatp1110
Rp1111
(dp1112
g13
VNP
p1113
sbatp1114
Rp1115
(dp1116
g13
VNP-TMP
p1117
sbatp1118
Rp1119
(dp1120
g13
VVP
p1121
sbatp1122
Rp1123
(dp1124
g13
VS
p1125
sbatp1126
Rp1127
(dp1128
g13
VSBAR
p1129
sbatp1130
Rp1131
(dp1132
g13
VVP
p1133
sbag0
(g1
g2
(lp1134
V.
p1135
atp1136
Rp1137
(dp1138
g13
V.
p1139
sbatp1140
Rp1141
(dp1142
g13
VS
p1143
sbatp1144
Rp1145
(dp1146
g13
S'id: 8'
p1147
sbag0
(g1
g2
(lp1148
g0
(g1
g2
(lp1149
g0
(g1
g2
(lp1150
g0
(g1
g2
(lp1151
g0
(g1
g2
(lp1152
Vand
p1153
atp1154
Rp1155
(dp1156
g13
VCC
p1157
sbag0
(g1
g2
(lp1158
g0
(g1
g2
(lp1159
g0
(g1
g2
(lp1160
Va
p1161
atp1162
Rp1163
(dp1164
g13
VDT
p1165
sbag0
(g1
g2
(lp1166
Vsunny
p1167
atp1168
Rp1169
(dp1170
g13
VJJ
p1171
sbag0
(g1
g2
(lp1172
Van
p1173
atp1174
Rp1175
(dp1176
g13
VDT
p1177
sbatp1178
Rp1179
(dp1180
g13
VNP
p1181
sbag0
(g1
g2
(lp1182
g0
(g1
g2
(lp1183
Va
p1184
atp1185
Rp1186
(dp1187
g13
VDT
p1188
sbag0
(g1
g2
(lp1189
Vsss
p1190
atp1191
Rp1192
(dp1193
g13
VNN
p1194
sbag0
(g1
g2
(lp1195
Vdot
p1196
atp1197
Rp1198
(dp1199
g13
VNN
p1200
sbag0
(g1
g2
(lp1201
Vda
p1202
atp1203
Rp1204
(dp1205
g13
VNN
p1206
sbatp1207
Rp1208
(dp1209
g13
VNP
p1210
sbatp1211
Rp1212
(dp1213
g13
VNP
p1214
sbatp1215
Rp1216
(dp1217
g13
VNP
p1218
sbatp1219
Rp1220
(dp1221
g13
VVP
p1222
sbag0
(g1
g2
(lp1223
V.
p1224
atp1225
Rp1226
(dp1227
g13
V.
p1228
sbatp1229
Rp1230
(dp1231
g13
VS
p1232
sbatp1233
Rp1234
(dp1235
g13
S'id: 9'
p1236
sbag0
(g1
g2
(lp1237
g0
(g1
g2
(lp1238
g0
(g1
g2
(lp1239
g0
(g1
g2
(lp1240
Vga
p1241
atp1242
Rp1243
(dp1244
g13
VNN
p1245
sbag0
(g1
g2
(lp1246
Vga
p1247
atp1248
Rp1249
(dp1250
g13
VNN
p1251
sbag0
(g1
g2
(lp1252
Vga
p1253
atp1254
Rp1255
(dp1256
g13
VNN
p1257
sbag0
(g1
g2
(lp1258
Vgakin
p1259
atp1260
Rp1261
(dp1262
g13
VNN
p1263
sbatp1264
Rp1265
(dp1266
g13
VNP
p1267
sbag0
(g1
g2
(lp1268
g0
(g1
g2
(lp1269
g0
(g1
g2
(lp1270
g0
(g1
g2
(lp1271
Va
p1272
atp1273
Rp1274
(dp1275
g13
VDT
p1276
sbag0
(g1
g2
(lp1277
Vgakin
p1278
atp1279
Rp1280
(dp1281
g13
VNN
p1282
sbag0
(g1
g2
(lp1283
Vgakin
p1284
atp1285
Rp1286
(dp1287
g13
VNN
p1288
sbatp1289
Rp1290
(dp1291
g13
VNP
p1292
sbag0
(g1
g2
(lp1293
g0
(g1
g2
(lp1294
Va
p1295
atp1296
Rp1297
(dp1298
g13
VDT
p1299
sbag0
(g1
g2
(lp1300
Vgrokin
p1301
atp1302
Rp1303
(dp1304
g13
VJJ
p1305
sbag0
(g1
g2
(lp1306
Vgakin
p1307
atp1308
Rp1309
(dp1310
g13
VNN
p1311
sbag0
(g1
g2
(lp1312
Va.
p1313
atp1314
Rp1315
(dp1316
g13
VNN
p1317
sbatp1318
Rp1319
(dp1320
g13
VNP
p1321
sbatp1322
Rp1323
(dp1324
g13
VNP
p1325
sbag0
(g1
g2
(lp1326
Vand
p1327
atp1328
Rp1329
(dp1330
g13
VCC
p1331
sbag0
(g1
g2
(lp1332
g0
(g1
g2
(lp1333
g0
(g1
g2
(lp1334
Vthe
p1335
atp1336
Rp1337
(dp1338
g13
VDT
p1339
sbag0
(g1
g2
(lp1340
Vthe
p1341
atp1342
Rp1343
(dp1344
g13
VDT
p1345
sbatp1346
Rp1347
(dp1348
g13
VNP
p1349
sbag0
(g1
g2
(lp1350
g0
(g1
g2
(lp1351
Va
p1352
atp1353
Rp1354
(dp1355
g13
VDT
p1356
sbag0
(g1
g2
(lp1357
Vwindow
p1358
atp1359
Rp1360
(dp1361
g13
VNN
p1362
sbatp1363
Rp1364
(dp1365
g13
VNP
p1366
sbatp1367
Rp1368
(dp1369
g13
VNP
p1370
sbatp1371
Rp1372
(dp1373
g13
VNP
p1374
sbag0
(g1
g2
(lp1375
V.
p1376
atp1377
Rp1378
(dp1379
g13
V.
p1380
sbatp1381
Rp1382
(dp1383
g13
VNP
p1384
sbatp1385
Rp1386
(dp1387
g13
S'id: 10'
p1388
sbag0
(g1
g2
(lp1389
g0
(g1
g2
(lp1390
g0
(g1
g2
(lp1391
g0
(g1
g2
(lp1392
Vw
p1393
atp1394
Rp1395
(dp1396
g13
VNN
p1397
sbag0
(g1
g2
(lp1398
Vw
p1399
atp1400
Rp1401
(dp1402
g13
VNN
p1403
sbag0
(g1
g2
(lp1404
Vwindows
p1405
atp1406
Rp1407
(dp1408
g13
VNNS
p1409
sbatp1410
Rp1411
(dp1412
g13
VNP
p1413
sbag0
(g1
g2
(lp1414
g0
(g1
g2
(lp1415
g0
(g1
g2
(lp1416
Vand
p1417
atp1418
Rp1419
(dp1420
g13
VCC
p1421
sbatp1422
Rp1423
(dp1424
g13
VADVP
p1425
sbatp1426
Rp1427
(dp1428
g13
VVP
p1429
sbag0
(g1
g2
(lp1430
V.
p1431
atp1432
Rp1433
(dp1434
g13
V.
p1435
sbatp1436
Rp1437
(dp1438
g13
VS
p1439
sbatp1440
Rp1441
(dp1442
g13
S'id: 11'
p1443
sbag0
(g1
g2
(lp1444
g0
(g1
g2
(lp1445
g0
(g1
g2
(lp1446
Vgas
p1447
atp1448
Rp1449
(dp1450
g13
VNN
p1451
sbag0
(g1
g2
(lp1452
V.
p1453
atp1454
Rp1455
(dp1456
g13
V.
p1457
sbatp1458
Rp1459
(dp1460
g13
VNP
p1461
sbatp1462
Rp1463
(dp1464
g13
S'id: 12'
p1465
sbag0
(g1
g2
(lp1466
g0
(g1
g2
(lp1467
g0
(g1
g2
(lp1468
g0
(g1
g2
(lp1469
Vcap
p1470
atp1471
Rp1472
(dp1473
g13
VNN
p1474
sbatp1475
Rp1476
(dp1477
g13
VNP
p1478
sbag0
(g1
g2
(lp1479
g0
(g1
g2
(lp1480
Vcapis
p1481
atp1482
Rp1483
(dp1484
g13
VNN
p1485
sbag0
(g1
g2
(lp1486
Vga
p1487
atp1488
Rp1489
(dp1490
g13
VNN
p1491
sbag0
(g1
g2
(lp1492
Vgappa
p1493
atp1494
Rp1495
(dp1496
g13
VNN
p1497
sbag0
(g1
g2
(lp1498
Vgappa
p1499
atp1500
Rp1501
(dp1502
g13
VNN
p1503
sbatp1504
Rp1505
(dp1506
g13
VNP
p1507
sbag0
(g1
g2
(lp1508
V.
p1509
atp1510
Rp1511
(dp1512
g13
V.
p1513
sbatp1514
Rp1515
(dp1516
g13
VFRAG
p1517
sbatp1518
Rp1519
(dp1520
g13
S'id: 13'
p1521
sbag0
(g1
g2
(lp1522
g0
(g1
g2
(lp1523
g0
(g1
g2
(lp1524
g0
(g1
g2
(lp1525
Vgone
p1526
atp1527
Rp1528
(dp1529
g13
VVBN
p1530
sbatp1531
Rp1532
(dp1533
g13
VVP
p1534
sbag0
(g1
g2
(lp1535
V.
p1536
atp1537
Rp1538
(dp1539
g13
V.
p1540
sbatp1541
Rp1542
(dp1543
g13
VS
p1544
sbatp1545
Rp1546
(dp1547
g13
S'id: 14'
p1548
sbatp1549
Rp1550
(dp1551
g13
S'sentences'
p1552
sb.